ARM GAS  C:\Users\PCHAUT~1\AppData\Local\Temp\ccO022PV.s 			page 1


   1              		.cpu cortex-m4
   2              		.eabi_attribute 27, 1
   3              		.eabi_attribute 28, 1
   4              		.eabi_attribute 20, 1
   5              		.eabi_attribute 21, 1
   6              		.eabi_attribute 23, 3
   7              		.eabi_attribute 24, 1
   8              		.eabi_attribute 25, 1
   9              		.eabi_attribute 26, 1
  10              		.eabi_attribute 30, 6
  11              		.eabi_attribute 34, 1
  12              		.eabi_attribute 18, 4
  13              		.file	"port.c"
  14              		.text
  15              	.Ltext0:
  16              		.cfi_sections	.debug_frame
  17              		.section	.text.messagebus_lock_acquire,"ax",%progbits
  18              		.align	1
  19              		.p2align 4,,15
  20              		.global	messagebus_lock_acquire
  21              		.syntax unified
  22              		.thumb
  23              		.thumb_func
  24              		.fpu fpv4-sp-d16
  25              		.type	messagebus_lock_acquire, %function
  26              	messagebus_lock_acquire:
  27              	.LFB219:
  28              		.file 1 "../lib/e-puck2_main-processor/src/msgbus/examples/chibios/port.c"
  29              		.loc 1 5 0
  30              		.cfi_startproc
  31              		@ args = 0, pretend = 0, frame = 16
  32              		@ frame_needed = 0, uses_anonymous_args = 0
  33 0000 00B5     		push	{lr}
  34              		.cfi_def_cfa_offset 4
  35              		.cfi_offset 14, -4
  36 0002 85B0     		sub	sp, sp, #20
  37              		.cfi_def_cfa_offset 24
  38 0004 0190     		str	r0, [sp, #4]
  39              		.loc 1 5 0
  40 0006 094B     		ldr	r3, .L3
  41 0008 1B68     		ldr	r3, [r3]
  42 000a 0393     		str	r3, [sp, #12]
  43              		.loc 1 6 0
  44 000c 019B     		ldr	r3, [sp, #4]
  45 000e 0293     		str	r3, [sp, #8]
  46              		.loc 1 7 0
  47 0010 0298     		ldr	r0, [sp, #8]
  48 0012 FFF7FEFF 		bl	chMtxLock
  49              		.loc 1 8 0
  50 0016 00BF     		nop
  51 0018 044B     		ldr	r3, .L3
  52 001a 039A     		ldr	r2, [sp, #12]
  53 001c 1B68     		ldr	r3, [r3]
  54 001e 9A42     		cmp	r2, r3
  55 0020 01D0     		beq	.L2
  56 0022 FFF7FEFF 		bl	__stack_chk_fail
  57              	.L2:
ARM GAS  C:\Users\PCHAUT~1\AppData\Local\Temp\ccO022PV.s 			page 2


  58 0026 05B0     		add	sp, sp, #20
  59              		.cfi_def_cfa_offset 4
  60              		@ sp needed
  61 0028 5DF804FB 		ldr	pc, [sp], #4
  62              	.L4:
  63              		.align	2
  64              	.L3:
  65 002c 00000000 		.word	__stack_chk_guard
  66              		.cfi_endproc
  67              	.LFE219:
  68              		.size	messagebus_lock_acquire, .-messagebus_lock_acquire
  69              		.section	.text.messagebus_lock_release,"ax",%progbits
  70              		.align	1
  71              		.p2align 4,,15
  72              		.global	messagebus_lock_release
  73              		.syntax unified
  74              		.thumb
  75              		.thumb_func
  76              		.fpu fpv4-sp-d16
  77              		.type	messagebus_lock_release, %function
  78              	messagebus_lock_release:
  79              	.LFB220:
  80              		.loc 1 11 0
  81              		.cfi_startproc
  82              		@ args = 0, pretend = 0, frame = 16
  83              		@ frame_needed = 0, uses_anonymous_args = 0
  84 0000 00B5     		push	{lr}
  85              		.cfi_def_cfa_offset 4
  86              		.cfi_offset 14, -4
  87 0002 85B0     		sub	sp, sp, #20
  88              		.cfi_def_cfa_offset 24
  89 0004 0190     		str	r0, [sp, #4]
  90              		.loc 1 11 0
  91 0006 094B     		ldr	r3, .L7
  92 0008 1B68     		ldr	r3, [r3]
  93 000a 0393     		str	r3, [sp, #12]
  94              		.loc 1 12 0
  95 000c 019B     		ldr	r3, [sp, #4]
  96 000e 0293     		str	r3, [sp, #8]
  97              		.loc 1 13 0
  98 0010 0298     		ldr	r0, [sp, #8]
  99 0012 FFF7FEFF 		bl	chMtxUnlock
 100              		.loc 1 14 0
 101 0016 00BF     		nop
 102 0018 044B     		ldr	r3, .L7
 103 001a 039A     		ldr	r2, [sp, #12]
 104 001c 1B68     		ldr	r3, [r3]
 105 001e 9A42     		cmp	r2, r3
 106 0020 01D0     		beq	.L6
 107 0022 FFF7FEFF 		bl	__stack_chk_fail
 108              	.L6:
 109 0026 05B0     		add	sp, sp, #20
 110              		.cfi_def_cfa_offset 4
 111              		@ sp needed
 112 0028 5DF804FB 		ldr	pc, [sp], #4
 113              	.L8:
 114              		.align	2
ARM GAS  C:\Users\PCHAUT~1\AppData\Local\Temp\ccO022PV.s 			page 3


 115              	.L7:
 116 002c 00000000 		.word	__stack_chk_guard
 117              		.cfi_endproc
 118              	.LFE220:
 119              		.size	messagebus_lock_release, .-messagebus_lock_release
 120              		.section	.text.messagebus_condvar_broadcast,"ax",%progbits
 121              		.align	1
 122              		.p2align 4,,15
 123              		.global	messagebus_condvar_broadcast
 124              		.syntax unified
 125              		.thumb
 126              		.thumb_func
 127              		.fpu fpv4-sp-d16
 128              		.type	messagebus_condvar_broadcast, %function
 129              	messagebus_condvar_broadcast:
 130              	.LFB221:
 131              		.loc 1 17 0
 132              		.cfi_startproc
 133              		@ args = 0, pretend = 0, frame = 16
 134              		@ frame_needed = 0, uses_anonymous_args = 0
 135 0000 00B5     		push	{lr}
 136              		.cfi_def_cfa_offset 4
 137              		.cfi_offset 14, -4
 138 0002 85B0     		sub	sp, sp, #20
 139              		.cfi_def_cfa_offset 24
 140 0004 0190     		str	r0, [sp, #4]
 141              		.loc 1 17 0
 142 0006 094B     		ldr	r3, .L11
 143 0008 1B68     		ldr	r3, [r3]
 144 000a 0393     		str	r3, [sp, #12]
 145              		.loc 1 18 0
 146 000c 019B     		ldr	r3, [sp, #4]
 147 000e 0293     		str	r3, [sp, #8]
 148              		.loc 1 19 0
 149 0010 0298     		ldr	r0, [sp, #8]
 150 0012 FFF7FEFF 		bl	chCondBroadcast
 151              		.loc 1 20 0
 152 0016 00BF     		nop
 153 0018 044B     		ldr	r3, .L11
 154 001a 039A     		ldr	r2, [sp, #12]
 155 001c 1B68     		ldr	r3, [r3]
 156 001e 9A42     		cmp	r2, r3
 157 0020 01D0     		beq	.L10
 158 0022 FFF7FEFF 		bl	__stack_chk_fail
 159              	.L10:
 160 0026 05B0     		add	sp, sp, #20
 161              		.cfi_def_cfa_offset 4
 162              		@ sp needed
 163 0028 5DF804FB 		ldr	pc, [sp], #4
 164              	.L12:
 165              		.align	2
 166              	.L11:
 167 002c 00000000 		.word	__stack_chk_guard
 168              		.cfi_endproc
 169              	.LFE221:
 170              		.size	messagebus_condvar_broadcast, .-messagebus_condvar_broadcast
 171              		.section	.text.messagebus_condvar_wait,"ax",%progbits
ARM GAS  C:\Users\PCHAUT~1\AppData\Local\Temp\ccO022PV.s 			page 4


 172              		.align	1
 173              		.p2align 4,,15
 174              		.global	messagebus_condvar_wait
 175              		.syntax unified
 176              		.thumb
 177              		.thumb_func
 178              		.fpu fpv4-sp-d16
 179              		.type	messagebus_condvar_wait, %function
 180              	messagebus_condvar_wait:
 181              	.LFB222:
 182              		.loc 1 23 0
 183              		.cfi_startproc
 184              		@ args = 0, pretend = 0, frame = 16
 185              		@ frame_needed = 0, uses_anonymous_args = 0
 186 0000 00B5     		push	{lr}
 187              		.cfi_def_cfa_offset 4
 188              		.cfi_offset 14, -4
 189 0002 85B0     		sub	sp, sp, #20
 190              		.cfi_def_cfa_offset 24
 191 0004 0190     		str	r0, [sp, #4]
 192              		.loc 1 23 0
 193 0006 094B     		ldr	r3, .L15
 194 0008 1B68     		ldr	r3, [r3]
 195 000a 0393     		str	r3, [sp, #12]
 196              		.loc 1 24 0
 197 000c 019B     		ldr	r3, [sp, #4]
 198 000e 0293     		str	r3, [sp, #8]
 199              		.loc 1 25 0
 200 0010 0298     		ldr	r0, [sp, #8]
 201 0012 FFF7FEFF 		bl	chCondWait
 202              		.loc 1 26 0
 203 0016 00BF     		nop
 204 0018 044B     		ldr	r3, .L15
 205 001a 039A     		ldr	r2, [sp, #12]
 206 001c 1B68     		ldr	r3, [r3]
 207 001e 9A42     		cmp	r2, r3
 208 0020 01D0     		beq	.L14
 209 0022 FFF7FEFF 		bl	__stack_chk_fail
 210              	.L14:
 211 0026 05B0     		add	sp, sp, #20
 212              		.cfi_def_cfa_offset 4
 213              		@ sp needed
 214 0028 5DF804FB 		ldr	pc, [sp], #4
 215              	.L16:
 216              		.align	2
 217              	.L15:
 218 002c 00000000 		.word	__stack_chk_guard
 219              		.cfi_endproc
 220              	.LFE222:
 221              		.size	messagebus_condvar_wait, .-messagebus_condvar_wait
 222              		.text
 223              	.Letext0:
 224              		.file 2 "c:\\users\\pchautems\\documents\\robotiquetp\\eclipse_e-puck2\\tools\\gcc-arm-none-eabi-7
 225              		.file 3 "c:\\users\\pchautems\\documents\\robotiquetp\\eclipse_e-puck2\\tools\\gcc-arm-none-eabi-7
 226              		.file 4 "../lib/e-puck2_main-processor/ChibiOS//os/rt/ports/ARMCMx/compilers/GCC/chtypes.h"
 227              		.file 5 "../lib/e-puck2_main-processor/ChibiOS//os/rt/include/chsystypes.h"
 228              		.file 6 "../lib/e-puck2_main-processor/ChibiOS//os/rt/include/chschd.h"
ARM GAS  C:\Users\PCHAUT~1\AppData\Local\Temp\ccO022PV.s 			page 5


 229              		.file 7 "../lib/e-puck2_main-processor/ChibiOS//os/ext/CMSIS/include/core_cm4.h"
 230              		.file 8 "../lib/e-puck2_main-processor/ChibiOS//os/ext/CMSIS/ST/system_stm32f4xx.h"
 231              		.file 9 "../lib/e-puck2_main-processor/ChibiOS//os/rt/ports/ARMCMx/chcore.h"
 232              		.file 10 "../lib/e-puck2_main-processor/ChibiOS//os/rt/ports/ARMCMx/chcore_v7m.h"
 233              		.file 11 "../lib/e-puck2_main-processor/ChibiOS//os/rt/include/chdebug.h"
 234              		.file 12 "../lib/e-puck2_main-processor/ChibiOS//os/rt/include/chtm.h"
 235              		.file 13 "../lib/e-puck2_main-processor/ChibiOS//os/rt/include/chstats.h"
 236              		.file 14 "../lib/e-puck2_main-processor/ChibiOS//os/rt/include/chsem.h"
 237              		.file 15 "../lib/e-puck2_main-processor/ChibiOS//os/rt/include/chmtx.h"
 238              		.file 16 "../lib/e-puck2_main-processor/ChibiOS//os/rt/include/chregistry.h"
 239              		.file 17 "../lib/e-puck2_main-processor/ChibiOS//os/rt/include/chcond.h"
 240              		.file 18 "c:\\users\\pchautems\\documents\\robotiquetp\\eclipse_e-puck2\\tools\\gcc-arm-none-eabi-