ARM GAS  C:\Users\PCHAUT~1\AppData\Local\Temp\cc0TdMG0.s 			page 1


   1              		.cpu cortex-m4
   2              		.eabi_attribute 27, 1
   3              		.eabi_attribute 28, 1
   4              		.eabi_attribute 20, 1
   5              		.eabi_attribute 21, 1
   6              		.eabi_attribute 23, 3
   7              		.eabi_attribute 24, 1
   8              		.eabi_attribute 25, 1
   9              		.eabi_attribute 26, 1
  10              		.eabi_attribute 30, 6
  11              		.eabi_attribute 34, 1
  12              		.eabi_attribute 18, 4
  13              		.file	"proximity.c"
  14              		.text
  15              	.Ltext0:
  16              		.cfi_sections	.debug_frame
  17              		.section	.text.port_lock,"ax",%progbits
  18              		.align	1
  19              		.p2align 4,,15
  20              		.syntax unified
  21              		.thumb
  22              		.thumb_func
  23              		.fpu fpv4-sp-d16
  24              		.type	port_lock, %function
  25              	port_lock:
  26              	.LFB119:
  27              		.file 1 "../lib/e-puck2_main-processor/ChibiOS//os/rt/ports/ARMCMx/chcore_v7m.h"
  28              		.loc 1 444 0
  29              		.cfi_startproc
  30              		@ args = 0, pretend = 0, frame = 8
  31              		@ frame_needed = 0, uses_anonymous_args = 0
  32 0000 00B5     		push	{lr}
  33              		.cfi_def_cfa_offset 4
  34              		.cfi_offset 14, -4
  35 0002 83B0     		sub	sp, sp, #12
  36              		.cfi_def_cfa_offset 16
  37              		.loc 1 444 0
  38 0004 094B     		ldr	r3, .L3
  39 0006 1B68     		ldr	r3, [r3]
  40 0008 0193     		str	r3, [sp, #4]
  41 000a 2023     		movs	r3, #32
  42 000c 0093     		str	r3, [sp]
  43              	.LBB6:
  44              	.LBB7:
  45              		.file 2 "../lib/e-puck2_main-processor/ChibiOS//os/ext/CMSIS/include/core_cmFunc.h"
  46              		.loc 2 546 0
  47 000e 009B     		ldr	r3, [sp]
  48              		.syntax unified
  49              	@ 546 "../lib/e-puck2_main-processor/ChibiOS//os/ext/CMSIS/include/core_cmFunc.h" 1
  50 0010 83F31188 		MSR basepri, r3
  51              	@ 0 "" 2
  52              		.thumb
  53              		.syntax unified
  54              	.LBE7:
  55              	.LBE6:
  56              		.loc 1 451 0
  57 0014 00BF     		nop
ARM GAS  C:\Users\PCHAUT~1\AppData\Local\Temp\cc0TdMG0.s 			page 2


  58 0016 054B     		ldr	r3, .L3
  59 0018 019A     		ldr	r2, [sp, #4]
  60 001a 1B68     		ldr	r3, [r3]
  61 001c 9A42     		cmp	r2, r3
  62 001e 01D0     		beq	.L2
  63 0020 FFF7FEFF 		bl	__stack_chk_fail
  64              	.L2:
  65 0024 03B0     		add	sp, sp, #12
  66              		.cfi_def_cfa_offset 4
  67              		@ sp needed
  68 0026 5DF804FB 		ldr	pc, [sp], #4
  69              	.L4:
  70 002a 00BF     		.align	2
  71              	.L3:
  72 002c 00000000 		.word	__stack_chk_guard
  73              		.cfi_endproc
  74              	.LFE119:
  75              		.size	port_lock, .-port_lock
  76              		.section	.text.port_unlock,"ax",%progbits
  77              		.align	1
  78              		.p2align 4,,15
  79              		.syntax unified
  80              		.thumb
  81              		.thumb_func
  82              		.fpu fpv4-sp-d16
  83              		.type	port_unlock, %function
  84              	port_unlock:
  85              	.LFB120:
  86              		.loc 1 458 0
  87              		.cfi_startproc
  88              		@ args = 0, pretend = 0, frame = 8
  89              		@ frame_needed = 0, uses_anonymous_args = 0
  90 0000 00B5     		push	{lr}
  91              		.cfi_def_cfa_offset 4
  92              		.cfi_offset 14, -4
  93 0002 83B0     		sub	sp, sp, #12
  94              		.cfi_def_cfa_offset 16
  95              		.loc 1 458 0
  96 0004 094B     		ldr	r3, .L7
  97 0006 1B68     		ldr	r3, [r3]
  98 0008 0193     		str	r3, [sp, #4]
  99 000a 0023     		movs	r3, #0
 100 000c 0093     		str	r3, [sp]
 101              	.LBB8:
 102              	.LBB9:
 103              		.loc 2 546 0
 104 000e 009B     		ldr	r3, [sp]
 105              		.syntax unified
 106              	@ 546 "../lib/e-puck2_main-processor/ChibiOS//os/ext/CMSIS/include/core_cmFunc.h" 1
 107 0010 83F31188 		MSR basepri, r3
 108              	@ 0 "" 2
 109              		.thumb
 110              		.syntax unified
 111              	.LBE9:
 112              	.LBE8:
 113              		.loc 1 465 0
 114 0014 00BF     		nop
ARM GAS  C:\Users\PCHAUT~1\AppData\Local\Temp\cc0TdMG0.s 			page 3


 115 0016 054B     		ldr	r3, .L7
 116 0018 019A     		ldr	r2, [sp, #4]
 117 001a 1B68     		ldr	r3, [r3]
 118 001c 9A42     		cmp	r2, r3
 119 001e 01D0     		beq	.L6
 120 0020 FFF7FEFF 		bl	__stack_chk_fail
 121              	.L6:
 122 0024 03B0     		add	sp, sp, #12
 123              		.cfi_def_cfa_offset 4
 124              		@ sp needed
 125 0026 5DF804FB 		ldr	pc, [sp], #4
 126              	.L8:
 127 002a 00BF     		.align	2
 128              	.L7:
 129 002c 00000000 		.word	__stack_chk_guard
 130              		.cfi_endproc
 131              	.LFE120:
 132              		.size	port_unlock, .-port_unlock
 133              		.section	.text.port_lock_from_isr,"ax",%progbits
 134              		.align	1
 135              		.p2align 4,,15
 136              		.syntax unified
 137              		.thumb
 138              		.thumb_func
 139              		.fpu fpv4-sp-d16
 140              		.type	port_lock_from_isr, %function
 141              	port_lock_from_isr:
 142              	.LFB121:
 143              		.loc 1 473 0
 144              		.cfi_startproc
 145              		@ args = 0, pretend = 0, frame = 8
 146              		@ frame_needed = 0, uses_anonymous_args = 0
 147 0000 00B5     		push	{lr}
 148              		.cfi_def_cfa_offset 4
 149              		.cfi_offset 14, -4
 150 0002 83B0     		sub	sp, sp, #12
 151              		.cfi_def_cfa_offset 16
 152              		.loc 1 473 0
 153 0004 074B     		ldr	r3, .L11
 154 0006 1B68     		ldr	r3, [r3]
 155 0008 0193     		str	r3, [sp, #4]
 156              		.loc 1 475 0
 157 000a FFF7FEFF 		bl	port_lock
 158              		.loc 1 476 0
 159 000e 00BF     		nop
 160 0010 044B     		ldr	r3, .L11
 161 0012 019A     		ldr	r2, [sp, #4]
 162 0014 1B68     		ldr	r3, [r3]
 163 0016 9A42     		cmp	r2, r3
 164 0018 01D0     		beq	.L10
 165 001a FFF7FEFF 		bl	__stack_chk_fail
 166              	.L10:
 167 001e 03B0     		add	sp, sp, #12
 168              		.cfi_def_cfa_offset 4
 169              		@ sp needed
 170 0020 5DF804FB 		ldr	pc, [sp], #4
 171              	.L12:
ARM GAS  C:\Users\PCHAUT~1\AppData\Local\Temp\cc0TdMG0.s 			page 4


 172              		.align	2
 173              	.L11:
 174 0024 00000000 		.word	__stack_chk_guard
 175              		.cfi_endproc
 176              	.LFE121:
 177              		.size	port_lock_from_isr, .-port_lock_from_isr
 178              		.section	.text.port_unlock_from_isr,"ax",%progbits
 179              		.align	1
 180              		.p2align 4,,15
 181              		.syntax unified
 182              		.thumb
 183              		.thumb_func
 184              		.fpu fpv4-sp-d16
 185              		.type	port_unlock_from_isr, %function
 186              	port_unlock_from_isr:
 187              	.LFB122:
 188              		.loc 1 484 0
 189              		.cfi_startproc
 190              		@ args = 0, pretend = 0, frame = 8
 191              		@ frame_needed = 0, uses_anonymous_args = 0
 192 0000 00B5     		push	{lr}
 193              		.cfi_def_cfa_offset 4
 194              		.cfi_offset 14, -4
 195 0002 83B0     		sub	sp, sp, #12
 196              		.cfi_def_cfa_offset 16
 197              		.loc 1 484 0
 198 0004 074B     		ldr	r3, .L15
 199 0006 1B68     		ldr	r3, [r3]
 200 0008 0193     		str	r3, [sp, #4]
 201              		.loc 1 486 0
 202 000a FFF7FEFF 		bl	port_unlock
 203              		.loc 1 487 0
 204 000e 00BF     		nop
 205 0010 044B     		ldr	r3, .L15
 206 0012 019A     		ldr	r2, [sp, #4]
 207 0014 1B68     		ldr	r3, [r3]
 208 0016 9A42     		cmp	r2, r3
 209 0018 01D0     		beq	.L14
 210 001a FFF7FEFF 		bl	__stack_chk_fail
 211              	.L14:
 212 001e 03B0     		add	sp, sp, #12
 213              		.cfi_def_cfa_offset 4
 214              		@ sp needed
 215 0020 5DF804FB 		ldr	pc, [sp], #4
 216              	.L16:
 217              		.align	2
 218              	.L15:
 219 0024 00000000 		.word	__stack_chk_guard
 220              		.cfi_endproc
 221              	.LFE122:
 222              		.size	port_unlock_from_isr, .-port_unlock_from_isr
 223              		.section	.text.chSysLockFromISR,"ax",%progbits
 224              		.align	1
 225              		.p2align 4,,15
 226              		.syntax unified
 227              		.thumb
 228              		.thumb_func
ARM GAS  C:\Users\PCHAUT~1\AppData\Local\Temp\cc0TdMG0.s 			page 5


 229              		.fpu fpv4-sp-d16
 230              		.type	chSysLockFromISR, %function
 231              	chSysLockFromISR:
 232              	.LFB150:
 233              		.file 3 "../lib/e-puck2_main-processor/ChibiOS//os/rt/include/chsys.h"
 234              		.loc 3 386 0
 235              		.cfi_startproc
 236              		@ args = 0, pretend = 0, frame = 8
 237              		@ frame_needed = 0, uses_anonymous_args = 0
 238 0000 00B5     		push	{lr}
 239              		.cfi_def_cfa_offset 4
 240              		.cfi_offset 14, -4
 241 0002 83B0     		sub	sp, sp, #12
 242              		.cfi_def_cfa_offset 16
 243              		.loc 3 386 0
 244 0004 094B     		ldr	r3, .L19
 245 0006 1B68     		ldr	r3, [r3]
 246 0008 0193     		str	r3, [sp, #4]
 247              		.loc 3 388 0
 248 000a FFF7FEFF 		bl	port_lock_from_isr
 249              		.loc 3 389 0
 250 000e FFF7FEFF 		bl	_stats_start_measure_crit_isr
 251              		.loc 3 390 0
 252 0012 FFF7FEFF 		bl	_dbg_check_lock_from_isr
 253              		.loc 3 391 0
 254 0016 00BF     		nop
 255 0018 044B     		ldr	r3, .L19
 256 001a 019A     		ldr	r2, [sp, #4]
 257 001c 1B68     		ldr	r3, [r3]
 258 001e 9A42     		cmp	r2, r3
 259 0020 01D0     		beq	.L18
 260 0022 FFF7FEFF 		bl	__stack_chk_fail
 261              	.L18:
 262 0026 03B0     		add	sp, sp, #12
 263              		.cfi_def_cfa_offset 4
 264              		@ sp needed
 265 0028 5DF804FB 		ldr	pc, [sp], #4
 266              	.L20:
 267              		.align	2
 268              	.L19:
 269 002c 00000000 		.word	__stack_chk_guard
 270              		.cfi_endproc
 271              	.LFE150:
 272              		.size	chSysLockFromISR, .-chSysLockFromISR
 273              		.section	.text.chSysUnlockFromISR,"ax",%progbits
 274              		.align	1
 275              		.p2align 4,,15
 276              		.syntax unified
 277              		.thumb
 278              		.thumb_func
 279              		.fpu fpv4-sp-d16
 280              		.type	chSysUnlockFromISR, %function
 281              	chSysUnlockFromISR:
 282              	.LFB151:
 283              		.loc 3 406 0
 284              		.cfi_startproc
 285              		@ args = 0, pretend = 0, frame = 8
ARM GAS  C:\Users\PCHAUT~1\AppData\Local\Temp\cc0TdMG0.s 			page 6


 286              		@ frame_needed = 0, uses_anonymous_args = 0
 287 0000 00B5     		push	{lr}
 288              		.cfi_def_cfa_offset 4
 289              		.cfi_offset 14, -4
 290 0002 83B0     		sub	sp, sp, #12
 291              		.cfi_def_cfa_offset 16
 292              		.loc 3 406 0
 293 0004 094B     		ldr	r3, .L23
 294 0006 1B68     		ldr	r3, [r3]
 295 0008 0193     		str	r3, [sp, #4]
 296              		.loc 3 408 0
 297 000a FFF7FEFF 		bl	_dbg_check_unlock_from_isr
 298              		.loc 3 409 0
 299 000e FFF7FEFF 		bl	_stats_stop_measure_crit_isr
 300              		.loc 3 410 0
 301 0012 FFF7FEFF 		bl	port_unlock_from_isr
 302              		.loc 3 411 0
 303 0016 00BF     		nop
 304 0018 044B     		ldr	r3, .L23
 305 001a 019A     		ldr	r2, [sp, #4]
 306 001c 1B68     		ldr	r3, [r3]
 307 001e 9A42     		cmp	r2, r3
 308 0020 01D0     		beq	.L22
 309 0022 FFF7FEFF 		bl	__stack_chk_fail
 310              	.L22:
 311 0026 03B0     		add	sp, sp, #12
 312              		.cfi_def_cfa_offset 4
 313              		@ sp needed
 314 0028 5DF804FB 		ldr	pc, [sp], #4
 315              	.L24:
 316              		.align	2
 317              	.L23:
 318 002c 00000000 		.word	__stack_chk_guard
 319              		.cfi_endproc
 320              	.LFE151:
 321              		.size	chSysUnlockFromISR, .-chSysUnlockFromISR
 322              		.section	.text.chRegSetThreadName,"ax",%progbits
 323              		.align	1
 324              		.p2align 4,,15
 325              		.syntax unified
 326              		.thumb
 327              		.thumb_func
 328              		.fpu fpv4-sp-d16
 329              		.type	chRegSetThreadName, %function
 330              	chRegSetThreadName:
 331              	.LFB179:
 332              		.file 4 "../lib/e-puck2_main-processor/ChibiOS//os/rt/include/chregistry.h"
 333              		.loc 4 132 0
 334              		.cfi_startproc
 335              		@ args = 0, pretend = 0, frame = 16
 336              		@ frame_needed = 0, uses_anonymous_args = 0
 337 0000 00B5     		push	{lr}
 338              		.cfi_def_cfa_offset 4
 339              		.cfi_offset 14, -4
 340 0002 85B0     		sub	sp, sp, #20
 341              		.cfi_def_cfa_offset 24
 342 0004 0190     		str	r0, [sp, #4]
ARM GAS  C:\Users\PCHAUT~1\AppData\Local\Temp\cc0TdMG0.s 			page 7


 343              		.loc 4 132 0
 344 0006 094B     		ldr	r3, .L27
 345 0008 1B68     		ldr	r3, [r3]
 346 000a 0393     		str	r3, [sp, #12]
 347              		.loc 4 135 0
 348 000c 084B     		ldr	r3, .L27+4
 349 000e 9B69     		ldr	r3, [r3, #24]
 350 0010 019A     		ldr	r2, [sp, #4]
 351 0012 9A61     		str	r2, [r3, #24]
 352              		.loc 4 139 0
 353 0014 00BF     		nop
 354 0016 054B     		ldr	r3, .L27
 355 0018 039A     		ldr	r2, [sp, #12]
 356 001a 1B68     		ldr	r3, [r3]
 357 001c 9A42     		cmp	r2, r3
 358 001e 01D0     		beq	.L26
 359 0020 FFF7FEFF 		bl	__stack_chk_fail
 360              	.L26:
 361 0024 05B0     		add	sp, sp, #20
 362              		.cfi_def_cfa_offset 4
 363              		@ sp needed
 364 0026 5DF804FB 		ldr	pc, [sp], #4
 365              	.L28:
 366 002a 00BF     		.align	2
 367              	.L27:
 368 002c 00000000 		.word	__stack_chk_guard
 369 0030 00000000 		.word	ch
 370              		.cfi_endproc
 371              	.LFE179:
 372              		.size	chRegSetThreadName, .-chRegSetThreadName
 373              		.section	.text.chBSemWait,"ax",%progbits
 374              		.align	1
 375              		.p2align 4,,15
 376              		.syntax unified
 377              		.thumb
 378              		.thumb_func
 379              		.fpu fpv4-sp-d16
 380              		.type	chBSemWait, %function
 381              	chBSemWait:
 382              	.LFB186:
 383              		.file 5 "../lib/e-puck2_main-processor/ChibiOS//os/rt/include/chbsem.h"
 384              		.loc 5 141 0
 385              		.cfi_startproc
 386              		@ args = 0, pretend = 0, frame = 16
 387              		@ frame_needed = 0, uses_anonymous_args = 0
 388 0000 00B5     		push	{lr}
 389              		.cfi_def_cfa_offset 4
 390              		.cfi_offset 14, -4
 391 0002 85B0     		sub	sp, sp, #20
 392              		.cfi_def_cfa_offset 24
 393 0004 0190     		str	r0, [sp, #4]
 394              		.loc 5 141 0
 395 0006 094B     		ldr	r3, .L32
 396 0008 1B68     		ldr	r3, [r3]
 397 000a 0393     		str	r3, [sp, #12]
 398              		.loc 5 143 0
 399 000c 019B     		ldr	r3, [sp, #4]
ARM GAS  C:\Users\PCHAUT~1\AppData\Local\Temp\cc0TdMG0.s 			page 8


 400 000e 1846     		mov	r0, r3
 401 0010 FFF7FEFF 		bl	chSemWait
 402 0014 0346     		mov	r3, r0
 403              		.loc 5 144 0
 404 0016 1846     		mov	r0, r3
 405 0018 044B     		ldr	r3, .L32
 406 001a 039A     		ldr	r2, [sp, #12]
 407 001c 1B68     		ldr	r3, [r3]
 408 001e 9A42     		cmp	r2, r3
 409 0020 01D0     		beq	.L31
 410 0022 FFF7FEFF 		bl	__stack_chk_fail
 411              	.L31:
 412 0026 05B0     		add	sp, sp, #20
 413              		.cfi_def_cfa_offset 4
 414              		@ sp needed
 415 0028 5DF804FB 		ldr	pc, [sp], #4
 416              	.L33:
 417              		.align	2
 418              	.L32:
 419 002c 00000000 		.word	__stack_chk_guard
 420              		.cfi_endproc
 421              	.LFE186:
 422              		.size	chBSemWait, .-chBSemWait
 423              		.section	.text.chBSemSignalI,"ax",%progbits
 424              		.align	1
 425              		.p2align 4,,15
 426              		.syntax unified
 427              		.thumb
 428              		.thumb_func
 429              		.fpu fpv4-sp-d16
 430              		.type	chBSemSignalI, %function
 431              	chBSemSignalI:
 432              	.LFB192:
 433              		.loc 5 266 0
 434              		.cfi_startproc
 435              		@ args = 0, pretend = 0, frame = 16
 436              		@ frame_needed = 0, uses_anonymous_args = 0
 437 0000 00B5     		push	{lr}
 438              		.cfi_def_cfa_offset 4
 439              		.cfi_offset 14, -4
 440 0002 85B0     		sub	sp, sp, #20
 441              		.cfi_def_cfa_offset 24
 442 0004 0190     		str	r0, [sp, #4]
 443              		.loc 5 266 0
 444 0006 0C4B     		ldr	r3, .L38
 445 0008 1B68     		ldr	r3, [r3]
 446 000a 0393     		str	r3, [sp, #12]
 447              		.loc 5 268 0
 448 000c FFF7FEFF 		bl	chDbgCheckClassI
 449              		.loc 5 270 0
 450 0010 019B     		ldr	r3, [sp, #4]
 451 0012 9B68     		ldr	r3, [r3, #8]
 452 0014 002B     		cmp	r3, #0
 453 0016 03DC     		bgt	.L37
 454              		.loc 5 271 0
 455 0018 019B     		ldr	r3, [sp, #4]
 456 001a 1846     		mov	r0, r3
ARM GAS  C:\Users\PCHAUT~1\AppData\Local\Temp\cc0TdMG0.s 			page 9


 457 001c FFF7FEFF 		bl	chSemSignalI
 458              	.L37:
 459              		.loc 5 273 0
 460 0020 00BF     		nop
 461 0022 054B     		ldr	r3, .L38
 462 0024 039A     		ldr	r2, [sp, #12]
 463 0026 1B68     		ldr	r3, [r3]
 464 0028 9A42     		cmp	r2, r3
 465 002a 01D0     		beq	.L36
 466 002c FFF7FEFF 		bl	__stack_chk_fail
 467              	.L36:
 468 0030 05B0     		add	sp, sp, #20
 469              		.cfi_def_cfa_offset 4
 470              		@ sp needed
 471 0032 5DF804FB 		ldr	pc, [sp], #4
 472              	.L39:
 473 0036 00BF     		.align	2
 474              	.L38:
 475 0038 00000000 		.word	__stack_chk_guard
 476              		.cfi_endproc
 477              	.LFE192:
 478              		.size	chBSemSignalI, .-chBSemSignalI
 479              		.section	.bss.adc2_values,"aw",%nobits
 480              		.align	2
 481              		.type	adc2_values, %object
 482              		.size	adc2_values, 64
 483              	adc2_values:
 484 0000 00000000 		.space	64
 484      00000000 
 484      00000000 
 484      00000000 
 484      00000000 
 485              		.section	.data.adc2_ready,"aw",%progbits
 486              		.align	2
 487              		.type	adc2_ready, %object
 488              		.size	adc2_ready, 12
 489              	adc2_ready:
 490 0000 00000000 		.word	adc2_ready
 491 0004 00000000 		.word	adc2_ready
 492 0008 00000000 		.word	0
 493              		.section	.bss.adc2_proximity_samples,"aw",%nobits
 494              		.align	2
 495              		.type	adc2_proximity_samples, %object
 496              		.size	adc2_proximity_samples, 32
 497              	adc2_proximity_samples:
 498 0000 00000000 		.space	32
 498      00000000 
 498      00000000 
 498      00000000 
 498      00000000 
 499              		.section	.bss.pulseSeqState,"aw",%nobits
 500              		.type	pulseSeqState, %object
 501              		.size	pulseSeqState, 1
 502              	pulseSeqState:
 503 0000 00       		.space	1
 504              		.section	.bss.calibrationInProgress,"aw",%nobits
 505              		.type	calibrationInProgress, %object
ARM GAS  C:\Users\PCHAUT~1\AppData\Local\Temp\cc0TdMG0.s 			page 10


 506              		.size	calibrationInProgress, 1
 507              	calibrationInProgress:
 508 0000 00       		.space	1
 509              		.section	.bss.calibrationState,"aw",%nobits
 510              		.type	calibrationState, %object
 511              		.size	calibrationState, 1
 512              	calibrationState:
 513 0000 00       		.space	1
 514              		.section	.bss.calibrationNumSamples,"aw",%nobits
 515              		.type	calibrationNumSamples, %object
 516              		.size	calibrationNumSamples, 1
 517              	calibrationNumSamples:
 518 0000 00       		.space	1
 519              		.section	.bss.calibrationSum,"aw",%nobits
 520              		.align	2
 521              		.type	calibrationSum, %object
 522              		.size	calibrationSum, 32
 523              	calibrationSum:
 524 0000 00000000 		.space	32
 524      00000000 
 524      00000000 
 524      00000000 
 524      00000000 
 525              		.section	.bss.prox_values,"aw",%nobits
 526              		.align	2
 527              		.type	prox_values, %object
 528              		.size	prox_values, 128
 529              	prox_values:
 530 0000 00000000 		.space	128
 530      00000000 
 530      00000000 
 530      00000000 
 530      00000000 
 531              		.section	.text.adc_cb,"ax",%progbits
 532              		.align	1
 533              		.p2align 4,,15
 534              		.syntax unified
 535              		.thumb
 536              		.thumb_func
 537              		.fpu fpv4-sp-d16
 538              		.type	adc_cb, %function
 539              	adc_cb:
 540              	.LFB259:
 541              		.file 6 "../lib/e-puck2_main-processor/src/sensors/proximity.c"
 542              		.loc 6 66 0
 543              		.cfi_startproc
 544              		@ args = 0, pretend = 0, frame = 32
 545              		@ frame_needed = 0, uses_anonymous_args = 0
 546 0000 00B5     		push	{lr}
 547              		.cfi_def_cfa_offset 4
 548              		.cfi_offset 14, -4
 549 0002 89B0     		sub	sp, sp, #36
 550              		.cfi_def_cfa_offset 40
 551 0004 0390     		str	r0, [sp, #12]
 552 0006 0291     		str	r1, [sp, #8]
 553 0008 0192     		str	r2, [sp, #4]
 554              		.loc 6 66 0
ARM GAS  C:\Users\PCHAUT~1\AppData\Local\Temp\cc0TdMG0.s 			page 11


 555 000a 1D4B     		ldr	r3, .L44
 556 000c 1B68     		ldr	r3, [r3]
 557 000e 0793     		str	r3, [sp, #28]
 558              		.loc 6 70 0
 559 0010 1C4B     		ldr	r3, .L44+4
 560 0012 0693     		str	r3, [sp, #24]
 561              		.loc 6 73 0
 562 0014 039B     		ldr	r3, [sp, #12]
 563 0016 1B69     		ldr	r3, [r3, #16]
 564 0018 5B88     		ldrh	r3, [r3, #2]
 565 001a 9B00     		lsls	r3, r3, #2
 566 001c 1A46     		mov	r2, r3
 567 001e 0021     		movs	r1, #0
 568 0020 1948     		ldr	r0, .L44+8
 569 0022 FFF7FEFF 		bl	memset
 570              	.LBB10:
 571              		.loc 6 76 0
 572 0026 0023     		movs	r3, #0
 573 0028 0593     		str	r3, [sp, #20]
 574 002a 0CE0     		b	.L41
 575              	.L42:
 576              		.loc 6 77 0 discriminator 3
 577 002c 059B     		ldr	r3, [sp, #20]
 578 002e 5B00     		lsls	r3, r3, #1
 579 0030 029A     		ldr	r2, [sp, #8]
 580 0032 1344     		add	r3, r3, r2
 581 0034 1B88     		ldrh	r3, [r3]
 582 0036 1946     		mov	r1, r3
 583 0038 134A     		ldr	r2, .L44+8
 584 003a 059B     		ldr	r3, [sp, #20]
 585 003c 42F82310 		str	r1, [r2, r3, lsl #2]
 586              		.loc 6 76 0 discriminator 3
 587 0040 059B     		ldr	r3, [sp, #20]
 588 0042 0133     		adds	r3, r3, #1
 589 0044 0593     		str	r3, [sp, #20]
 590              	.L41:
 591              		.loc 6 76 0 is_stmt 0 discriminator 1
 592 0046 039B     		ldr	r3, [sp, #12]
 593 0048 1B69     		ldr	r3, [r3, #16]
 594 004a 5B88     		ldrh	r3, [r3, #2]
 595 004c 1A46     		mov	r2, r3
 596 004e 059B     		ldr	r3, [sp, #20]
 597 0050 9342     		cmp	r3, r2
 598 0052 EBD3     		bcc	.L42
 599              	.LBE10:
 600              		.loc 6 81 0 is_stmt 1
 601 0054 FFF7FEFF 		bl	chSysLockFromISR
 602              		.loc 6 82 0
 603 0058 0698     		ldr	r0, [sp, #24]
 604 005a FFF7FEFF 		bl	chBSemSignalI
 605              		.loc 6 83 0
 606 005e FFF7FEFF 		bl	chSysUnlockFromISR
 607              		.loc 6 85 0
 608 0062 0A4B     		ldr	r3, .L44+12
 609 0064 0122     		movs	r2, #1
 610 0066 1A70     		strb	r2, [r3]
 611              		.loc 6 86 0
ARM GAS  C:\Users\PCHAUT~1\AppData\Local\Temp\cc0TdMG0.s 			page 12


 612 0068 00BF     		nop
 613 006a 054B     		ldr	r3, .L44
 614 006c 079A     		ldr	r2, [sp, #28]
 615 006e 1B68     		ldr	r3, [r3]
 616 0070 9A42     		cmp	r2, r3
 617 0072 01D0     		beq	.L43
 618 0074 FFF7FEFF 		bl	__stack_chk_fail
 619              	.L43:
 620 0078 09B0     		add	sp, sp, #36
 621              		.cfi_def_cfa_offset 4
 622              		@ sp needed
 623 007a 5DF804FB 		ldr	pc, [sp], #4
 624              	.L45:
 625 007e 00BF     		.align	2
 626              	.L44:
 627 0080 00000000 		.word	__stack_chk_guard
 628 0084 00000000 		.word	adc2_ready
 629 0088 00000000 		.word	adc2_values
 630 008c 00000000 		.word	pulseSeqState
 631              		.cfi_endproc
 632              	.LFE259:
 633              		.size	adc_cb, .-adc_cb
 634              		.section	.rodata.adcgrpcfg2,"a",%progbits
 635              		.align	2
 636              		.type	adcgrpcfg2, %object
 637              		.size	adcgrpcfg2, 40
 638              	adcgrpcfg2:
 639 0000 01       		.byte	1
 640 0001 00       		.space	1
 641 0002 1000     		.short	16
 642 0004 00000000 		.word	adc_cb
 643 0008 00000000 		.word	0
 644 000c 00280000 		.word	10240
 645 0010 00000023 		.word	587202560
 646 0014 6DDB0200 		.word	187245
 647 0018 6DDBB62D 		.word	766958445
 648 001c 6FBDF500 		.word	16104815
 649 0020 0D39E514 		.word	350566669
 650 0024 2CB1D410 		.word	282374444
 651              		.section	.bss.proximity_thd_wa,"aw",%nobits
 652              		.align	3
 653              		.type	proximity_thd_wa, %object
 654              		.size	proximity_thd_wa, 632
 655              	proximity_thd_wa:
 656 0000 00000000 		.space	632
 656      00000000 
 656      00000000 
 656      00000000 
 656      00000000 
 657              		.section	.rodata
 658              		.align	2
 659              	.LC0:
 660 0000 2F70726F 		.ascii	"/proximity\000"
 660      78696D69 
 660      747900
 661              		.section	.text.proximity_thd,"ax",%progbits
 662              		.align	1
ARM GAS  C:\Users\PCHAUT~1\AppData\Local\Temp\cc0TdMG0.s 			page 13


 663              		.p2align 4,,15
 664              		.syntax unified
 665              		.thumb
 666              		.thumb_func
 667              		.fpu fpv4-sp-d16
 668              		.type	proximity_thd, %function
 669              	proximity_thd:
 670              	.LFB260:
 671              		.loc 6 160 0
 672              		.cfi_startproc
 673              		@ args = 0, pretend = 0, frame = 144
 674              		@ frame_needed = 0, uses_anonymous_args = 0
 675 0000 00B5     		push	{lr}
 676              		.cfi_def_cfa_offset 4
 677              		.cfi_offset 14, -4
 678 0002 A7B0     		sub	sp, sp, #156
 679              		.cfi_def_cfa_offset 160
 680 0004 0390     		str	r0, [sp, #12]
 681              		.loc 6 160 0
 682 0006 6F4B     		ldr	r3, .L60
 683 0008 1B68     		ldr	r3, [r3]
 684 000a 2593     		str	r3, [sp, #148]
 685              		.loc 6 162 0
 686 000c 6E48     		ldr	r0, .L60+4
 687 000e FFF7FEFF 		bl	chRegSetThreadName
 688              		.loc 6 165 0
 689 0012 09AB     		add	r3, sp, #36
 690 0014 0993     		str	r3, [sp, #36]
 691 0016 09AB     		add	r3, sp, #36
 692 0018 0A93     		str	r3, [sp, #40]
 693 001a 0023     		movs	r3, #0
 694 001c 0B93     		str	r3, [sp, #44]
 695 001e 0023     		movs	r3, #0
 696 0020 0C93     		str	r3, [sp, #48]
 697 0022 0023     		movs	r3, #0
 698 0024 0D93     		str	r3, [sp, #52]
 699              		.loc 6 166 0
 700 0026 07AB     		add	r3, sp, #28
 701 0028 0793     		str	r3, [sp, #28]
 702 002a 07AB     		add	r3, sp, #28
 703 002c 0893     		str	r3, [sp, #32]
 704              		.loc 6 167 0
 705 002e 07AA     		add	r2, sp, #28
 706 0030 09A9     		add	r1, sp, #36
 707 0032 0EA8     		add	r0, sp, #56
 708 0034 8023     		movs	r3, #128
 709 0036 0093     		str	r3, [sp]
 710 0038 644B     		ldr	r3, .L60+8
 711 003a FFF7FEFF 		bl	messagebus_topic_init
 712              		.loc 6 168 0
 713 003e 0EAB     		add	r3, sp, #56
 714 0040 634A     		ldr	r2, .L60+12
 715 0042 1946     		mov	r1, r3
 716 0044 6348     		ldr	r0, .L60+16
 717 0046 FFF7FEFF 		bl	messagebus_advertise_topic
 718              	.L57:
 719              		.loc 6 172 0
ARM GAS  C:\Users\PCHAUT~1\AppData\Local\Temp\cc0TdMG0.s 			page 14


 720 004a 6348     		ldr	r0, .L60+20
 721 004c FFF7FEFF 		bl	chBSemWait
 722              		.loc 6 174 0
 723 0050 624B     		ldr	r3, .L60+24
 724 0052 1B68     		ldr	r3, [r3]
 725 0054 5D4A     		ldr	r2, .L60+8
 726 0056 1360     		str	r3, [r2]
 727              		.loc 6 175 0
 728 0058 604B     		ldr	r3, .L60+24
 729 005a 1B69     		ldr	r3, [r3, #16]
 730 005c 5B4A     		ldr	r2, .L60+8
 731 005e 5360     		str	r3, [r2, #4]
 732              		.loc 6 176 0
 733 0060 5E4B     		ldr	r3, .L60+24
 734 0062 1B6A     		ldr	r3, [r3, #32]
 735 0064 594A     		ldr	r2, .L60+8
 736 0066 9360     		str	r3, [r2, #8]
 737              		.loc 6 177 0
 738 0068 5C4B     		ldr	r3, .L60+24
 739 006a 1B6B     		ldr	r3, [r3, #48]
 740 006c 574A     		ldr	r2, .L60+8
 741 006e D360     		str	r3, [r2, #12]
 742              		.loc 6 178 0
 743 0070 5A4B     		ldr	r3, .L60+24
 744 0072 5B68     		ldr	r3, [r3, #4]
 745 0074 554A     		ldr	r2, .L60+8
 746 0076 1361     		str	r3, [r2, #16]
 747              		.loc 6 179 0
 748 0078 584B     		ldr	r3, .L60+24
 749 007a 5B69     		ldr	r3, [r3, #20]
 750 007c 534A     		ldr	r2, .L60+8
 751 007e 5361     		str	r3, [r2, #20]
 752              		.loc 6 180 0
 753 0080 564B     		ldr	r3, .L60+24
 754 0082 5B6A     		ldr	r3, [r3, #36]
 755 0084 514A     		ldr	r2, .L60+8
 756 0086 9361     		str	r3, [r2, #24]
 757              		.loc 6 181 0
 758 0088 544B     		ldr	r3, .L60+24
 759 008a 5B6B     		ldr	r3, [r3, #52]
 760 008c 4F4A     		ldr	r2, .L60+8
 761 008e D361     		str	r3, [r2, #28]
 762              		.loc 6 183 0
 763 0090 524B     		ldr	r3, .L60+24
 764 0092 9B68     		ldr	r3, [r3, #8]
 765 0094 4D4A     		ldr	r2, .L60+8
 766 0096 1362     		str	r3, [r2, #32]
 767              		.loc 6 184 0
 768 0098 504B     		ldr	r3, .L60+24
 769 009a 9B69     		ldr	r3, [r3, #24]
 770 009c 4B4A     		ldr	r2, .L60+8
 771 009e 5362     		str	r3, [r2, #36]
 772              		.loc 6 185 0
 773 00a0 4E4B     		ldr	r3, .L60+24
 774 00a2 9B6A     		ldr	r3, [r3, #40]
 775 00a4 494A     		ldr	r2, .L60+8
 776 00a6 9362     		str	r3, [r2, #40]
ARM GAS  C:\Users\PCHAUT~1\AppData\Local\Temp\cc0TdMG0.s 			page 15


 777              		.loc 6 186 0
 778 00a8 4C4B     		ldr	r3, .L60+24
 779 00aa 9B6B     		ldr	r3, [r3, #56]
 780 00ac 474A     		ldr	r2, .L60+8
 781 00ae D362     		str	r3, [r2, #44]
 782              		.loc 6 187 0
 783 00b0 4A4B     		ldr	r3, .L60+24
 784 00b2 DB68     		ldr	r3, [r3, #12]
 785 00b4 454A     		ldr	r2, .L60+8
 786 00b6 1363     		str	r3, [r2, #48]
 787              		.loc 6 188 0
 788 00b8 484B     		ldr	r3, .L60+24
 789 00ba DB69     		ldr	r3, [r3, #28]
 790 00bc 434A     		ldr	r2, .L60+8
 791 00be 5363     		str	r3, [r2, #52]
 792              		.loc 6 189 0
 793 00c0 464B     		ldr	r3, .L60+24
 794 00c2 DB6A     		ldr	r3, [r3, #44]
 795 00c4 414A     		ldr	r2, .L60+8
 796 00c6 9363     		str	r3, [r2, #56]
 797              		.loc 6 190 0
 798 00c8 444B     		ldr	r3, .L60+24
 799 00ca DB6B     		ldr	r3, [r3, #60]
 800 00cc 3F4A     		ldr	r2, .L60+8
 801 00ce D363     		str	r3, [r2, #60]
 802              	.LBB11:
 803              		.loc 6 192 0
 804 00d0 0023     		movs	r3, #0
 805 00d2 0493     		str	r3, [sp, #16]
 806 00d4 11E0     		b	.L47
 807              	.L48:
 808              		.loc 6 193 0 discriminator 3
 809 00d6 3D4A     		ldr	r2, .L60+8
 810 00d8 049B     		ldr	r3, [sp, #16]
 811 00da 52F82320 		ldr	r2, [r2, r3, lsl #2]
 812 00de 3B49     		ldr	r1, .L60+8
 813 00e0 049B     		ldr	r3, [sp, #16]
 814 00e2 0833     		adds	r3, r3, #8
 815 00e4 51F82330 		ldr	r3, [r1, r3, lsl #2]
 816 00e8 D21A     		subs	r2, r2, r3
 817 00ea 3849     		ldr	r1, .L60+8
 818 00ec 049B     		ldr	r3, [sp, #16]
 819 00ee 1033     		adds	r3, r3, #16
 820 00f0 41F82320 		str	r2, [r1, r3, lsl #2]
 821              		.loc 6 192 0 discriminator 3
 822 00f4 049B     		ldr	r3, [sp, #16]
 823 00f6 0133     		adds	r3, r3, #1
 824 00f8 0493     		str	r3, [sp, #16]
 825              	.L47:
 826              		.loc 6 192 0 is_stmt 0 discriminator 1
 827 00fa 049B     		ldr	r3, [sp, #16]
 828 00fc 072B     		cmp	r3, #7
 829 00fe EADD     		ble	.L48
 830              	.LBE11:
 831              		.loc 6 196 0 is_stmt 1
 832 0100 0EAB     		add	r3, sp, #56
 833 0102 8022     		movs	r2, #128
ARM GAS  C:\Users\PCHAUT~1\AppData\Local\Temp\cc0TdMG0.s 			page 16


 834 0104 3149     		ldr	r1, .L60+8
 835 0106 1846     		mov	r0, r3
 836 0108 FFF7FEFF 		bl	messagebus_topic_publish
 837              		.loc 6 198 0
 838 010c 344B     		ldr	r3, .L60+28
 839 010e 1B78     		ldrb	r3, [r3]	@ zero_extendqisi2
 840 0110 002B     		cmp	r3, #0
 841 0112 9AD0     		beq	.L57
 842              		.loc 6 199 0
 843 0114 334B     		ldr	r3, .L60+32
 844 0116 1B78     		ldrb	r3, [r3]	@ zero_extendqisi2
 845 0118 002B     		cmp	r3, #0
 846 011a 02D0     		beq	.L50
 847 011c 012B     		cmp	r3, #1
 848 011e 11D0     		beq	.L51
 849 0120 4EE0     		b	.L49
 850              	.L50:
 851              		.loc 6 201 0
 852 0122 2022     		movs	r2, #32
 853 0124 0021     		movs	r1, #0
 854 0126 3048     		ldr	r0, .L60+36
 855 0128 FFF7FEFF 		bl	memset
 856              		.loc 6 202 0
 857 012c 2022     		movs	r2, #32
 858 012e 0021     		movs	r1, #0
 859 0130 2E48     		ldr	r0, .L60+40
 860 0132 FFF7FEFF 		bl	memset
 861              		.loc 6 203 0
 862 0136 2E4B     		ldr	r3, .L60+44
 863 0138 0022     		movs	r2, #0
 864 013a 1A70     		strb	r2, [r3]
 865              		.loc 6 204 0
 866 013c 294B     		ldr	r3, .L60+32
 867 013e 0122     		movs	r2, #1
 868 0140 1A70     		strb	r2, [r3]
 869              		.loc 6 205 0
 870 0142 3DE0     		b	.L49
 871              	.L51:
 872              	.LBB12:
 873              		.loc 6 208 0
 874 0144 0023     		movs	r3, #0
 875 0146 0593     		str	r3, [sp, #20]
 876 0148 10E0     		b	.L52
 877              	.L53:
 878              		.loc 6 209 0 discriminator 3
 879 014a 059B     		ldr	r3, [sp, #20]
 880 014c 1846     		mov	r0, r3
 881 014e FFF7FEFF 		bl	get_prox
 882 0152 0146     		mov	r1, r0
 883 0154 254A     		ldr	r2, .L60+40
 884 0156 059B     		ldr	r3, [sp, #20]
 885 0158 52F82330 		ldr	r3, [r2, r3, lsl #2]
 886 015c CA18     		adds	r2, r1, r3
 887 015e 2349     		ldr	r1, .L60+40
 888 0160 059B     		ldr	r3, [sp, #20]
 889 0162 41F82320 		str	r2, [r1, r3, lsl #2]
 890              		.loc 6 208 0 discriminator 3
ARM GAS  C:\Users\PCHAUT~1\AppData\Local\Temp\cc0TdMG0.s 			page 17


 891 0166 059B     		ldr	r3, [sp, #20]
 892 0168 0133     		adds	r3, r3, #1
 893 016a 0593     		str	r3, [sp, #20]
 894              	.L52:
 895              		.loc 6 208 0 is_stmt 0 discriminator 1
 896 016c 059B     		ldr	r3, [sp, #20]
 897 016e 072B     		cmp	r3, #7
 898 0170 EBDD     		ble	.L53
 899              	.LBE12:
 900              		.loc 6 211 0 is_stmt 1
 901 0172 1F4B     		ldr	r3, .L60+44
 902 0174 1B78     		ldrb	r3, [r3]	@ zero_extendqisi2
 903 0176 0133     		adds	r3, r3, #1
 904 0178 DAB2     		uxtb	r2, r3
 905 017a 1D4B     		ldr	r3, .L60+44
 906 017c 1A70     		strb	r2, [r3]
 907              		.loc 6 212 0
 908 017e 1C4B     		ldr	r3, .L60+44
 909 0180 1B78     		ldrb	r3, [r3]	@ zero_extendqisi2
 910 0182 642B     		cmp	r3, #100
 911 0184 1BD1     		bne	.L59
 912              	.LBB13:
 913              		.loc 6 213 0
 914 0186 0023     		movs	r3, #0
 915 0188 0693     		str	r3, [sp, #24]
 916 018a 12E0     		b	.L55
 917              	.L56:
 918              		.loc 6 214 0 discriminator 3
 919 018c 174A     		ldr	r2, .L60+40
 920 018e 069B     		ldr	r3, [sp, #24]
 921 0190 52F82330 		ldr	r3, [r2, r3, lsl #2]
 922 0194 174A     		ldr	r2, .L60+48
 923 0196 82FB0312 		smull	r1, r2, r2, r3
 924 019a 5211     		asrs	r2, r2, #5
 925 019c DB17     		asrs	r3, r3, #31
 926 019e D31A     		subs	r3, r2, r3
 927 01a0 1946     		mov	r1, r3
 928 01a2 0A4A     		ldr	r2, .L60+8
 929 01a4 069B     		ldr	r3, [sp, #24]
 930 01a6 1833     		adds	r3, r3, #24
 931 01a8 42F82310 		str	r1, [r2, r3, lsl #2]
 932              		.loc 6 213 0 discriminator 3
 933 01ac 069B     		ldr	r3, [sp, #24]
 934 01ae 0133     		adds	r3, r3, #1
 935 01b0 0693     		str	r3, [sp, #24]
 936              	.L55:
 937              		.loc 6 213 0 is_stmt 0 discriminator 1
 938 01b2 069B     		ldr	r3, [sp, #24]
 939 01b4 072B     		cmp	r3, #7
 940 01b6 E9DD     		ble	.L56
 941              	.LBE13:
 942              		.loc 6 216 0 is_stmt 1
 943 01b8 094B     		ldr	r3, .L60+28
 944 01ba 0022     		movs	r2, #0
 945 01bc 1A70     		strb	r2, [r3]
 946              	.L59:
 947              		.loc 6 218 0
ARM GAS  C:\Users\PCHAUT~1\AppData\Local\Temp\cc0TdMG0.s 			page 18


 948 01be 00BF     		nop
 949              	.L49:
 950              		.loc 6 172 0 discriminator 1
 951 01c0 43E7     		b	.L57
 952              	.L61:
 953 01c2 00BF     		.align	2
 954              	.L60:
 955 01c4 00000000 		.word	__stack_chk_guard
 956 01c8 00000000 		.word	__FUNCTION__.12260
 957 01cc 00000000 		.word	prox_values
 958 01d0 00000000 		.word	.LC0
 959 01d4 00000000 		.word	bus
 960 01d8 00000000 		.word	adc2_ready
 961 01dc 00000000 		.word	adc2_values
 962 01e0 00000000 		.word	calibrationInProgress
 963 01e4 00000000 		.word	calibrationState
 964 01e8 60000000 		.word	prox_values+96
 965 01ec 00000000 		.word	calibrationSum
 966 01f0 00000000 		.word	calibrationNumSamples
 967 01f4 1F85EB51 		.word	1374389535
 968              		.cfi_endproc
 969              	.LFE260:
 970              		.size	proximity_thd, .-proximity_thd
 971              		.section	.text.pwm_reset_cb,"ax",%progbits
 972              		.align	1
 973              		.p2align 4,,15
 974              		.syntax unified
 975              		.thumb
 976              		.thumb_func
 977              		.fpu fpv4-sp-d16
 978              		.type	pwm_reset_cb, %function
 979              	pwm_reset_cb:
 980              	.LFB261:
 981              		.loc 6 232 0
 982              		.cfi_startproc
 983              		@ args = 0, pretend = 0, frame = 16
 984              		@ frame_needed = 0, uses_anonymous_args = 0
 985 0000 00B5     		push	{lr}
 986              		.cfi_def_cfa_offset 4
 987              		.cfi_offset 14, -4
 988 0002 85B0     		sub	sp, sp, #20
 989              		.cfi_def_cfa_offset 24
 990 0004 0190     		str	r0, [sp, #4]
 991              		.loc 6 232 0
 992 0006 2B4B     		ldr	r3, .L77
 993 0008 1B68     		ldr	r3, [r3]
 994 000a 0393     		str	r3, [sp, #12]
 995              		.loc 6 234 0
 996 000c 2A4B     		ldr	r3, .L77+4
 997 000e 1B78     		ldrb	r3, [r3]	@ zero_extendqisi2
 998 0010 082B     		cmp	r3, #8
 999 0012 44D8     		bhi	.L75
 1000 0014 01A2     		adr	r2, .L65
 1001 0016 52F823F0 		ldr	pc, [r2, r3, lsl #2]
 1002 001a 00BF     		.p2align 2
 1003              	.L65:
 1004 001c 9D000000 		.word	.L76+1
ARM GAS  C:\Users\PCHAUT~1\AppData\Local\Temp\cc0TdMG0.s 			page 19


 1005 0020 41000000 		.word	.L66+1
 1006 0024 49000000 		.word	.L67+1
 1007 0028 59000000 		.word	.L68+1
 1008 002c 61000000 		.word	.L69+1
 1009 0030 71000000 		.word	.L70+1
 1010 0034 79000000 		.word	.L71+1
 1011 0038 87000000 		.word	.L72+1
 1012 003c 8F000000 		.word	.L73+1
 1013              		.p2align 1
 1014              	.L66:
 1015              		.loc 6 238 0
 1016 0040 1D4B     		ldr	r3, .L77+4
 1017 0042 0222     		movs	r2, #2
 1018 0044 1A70     		strb	r2, [r3]
 1019              		.loc 6 239 0
 1020 0046 2AE0     		b	.L63
 1021              	.L67:
 1022              		.loc 6 241 0
 1023 0048 1C4B     		ldr	r3, .L77+8
 1024 004a 4FF48052 		mov	r2, #4096
 1025 004e 1A83     		strh	r2, [r3, #24]	@ movhi
 1026              		.loc 6 242 0
 1027 0050 194B     		ldr	r3, .L77+4
 1028 0052 0322     		movs	r2, #3
 1029 0054 1A70     		strb	r2, [r3]
 1030              		.loc 6 243 0
 1031 0056 22E0     		b	.L63
 1032              	.L68:
 1033              		.loc 6 245 0
 1034 0058 174B     		ldr	r3, .L77+4
 1035 005a 0422     		movs	r2, #4
 1036 005c 1A70     		strb	r2, [r3]
 1037              		.loc 6 246 0
 1038 005e 1EE0     		b	.L63
 1039              	.L69:
 1040              		.loc 6 248 0
 1041 0060 164B     		ldr	r3, .L77+8
 1042 0062 4FF48042 		mov	r2, #16384
 1043 0066 1A83     		strh	r2, [r3, #24]	@ movhi
 1044              		.loc 6 249 0
 1045 0068 134B     		ldr	r3, .L77+4
 1046 006a 0522     		movs	r2, #5
 1047 006c 1A70     		strb	r2, [r3]
 1048              		.loc 6 250 0
 1049 006e 16E0     		b	.L63
 1050              	.L70:
 1051              		.loc 6 252 0
 1052 0070 114B     		ldr	r3, .L77+4
 1053 0072 0622     		movs	r2, #6
 1054 0074 1A70     		strb	r2, [r3]
 1055              		.loc 6 253 0
 1056 0076 12E0     		b	.L63
 1057              	.L71:
 1058              		.loc 6 255 0
 1059 0078 114B     		ldr	r3, .L77+12
 1060 007a 0422     		movs	r2, #4
 1061 007c 1A83     		strh	r2, [r3, #24]	@ movhi
ARM GAS  C:\Users\PCHAUT~1\AppData\Local\Temp\cc0TdMG0.s 			page 20


 1062              		.loc 6 256 0
 1063 007e 0E4B     		ldr	r3, .L77+4
 1064 0080 0722     		movs	r2, #7
 1065 0082 1A70     		strb	r2, [r3]
 1066              		.loc 6 257 0
 1067 0084 0BE0     		b	.L63
 1068              	.L72:
 1069              		.loc 6 259 0
 1070 0086 0C4B     		ldr	r3, .L77+4
 1071 0088 0822     		movs	r2, #8
 1072 008a 1A70     		strb	r2, [r3]
 1073              		.loc 6 260 0
 1074 008c 07E0     		b	.L63
 1075              	.L73:
 1076              		.loc 6 262 0
 1077 008e 0C4B     		ldr	r3, .L77+12
 1078 0090 0822     		movs	r2, #8
 1079 0092 1A83     		strh	r2, [r3, #24]	@ movhi
 1080              		.loc 6 263 0
 1081 0094 084B     		ldr	r3, .L77+4
 1082 0096 0122     		movs	r2, #1
 1083 0098 1A70     		strb	r2, [r3]
 1084              		.loc 6 264 0
 1085 009a 00E0     		b	.L63
 1086              	.L76:
 1087              		.loc 6 236 0
 1088 009c 00BF     		nop
 1089              	.L63:
 1090              	.L75:
 1091              		.loc 6 266 0
 1092 009e 00BF     		nop
 1093 00a0 044B     		ldr	r3, .L77
 1094 00a2 039A     		ldr	r2, [sp, #12]
 1095 00a4 1B68     		ldr	r3, [r3]
 1096 00a6 9A42     		cmp	r2, r3
 1097 00a8 01D0     		beq	.L74
 1098 00aa FFF7FEFF 		bl	__stack_chk_fail
 1099              	.L74:
 1100 00ae 05B0     		add	sp, sp, #20
 1101              		.cfi_def_cfa_offset 4
 1102              		@ sp needed
 1103 00b0 5DF804FB 		ldr	pc, [sp], #4
 1104              	.L78:
 1105              		.align	2
 1106              	.L77:
 1107 00b4 00000000 		.word	__stack_chk_guard
 1108 00b8 00000000 		.word	pulseSeqState
 1109 00bc 00040240 		.word	1073873920
 1110 00c0 00100240 		.word	1073876992
 1111              		.cfi_endproc
 1112              	.LFE261:
 1113              		.size	pwm_reset_cb, .-pwm_reset_cb
 1114              		.section	.text.pwm_ch1_cb,"ax",%progbits
 1115              		.align	1
 1116              		.p2align 4,,15
 1117              		.syntax unified
 1118              		.thumb
ARM GAS  C:\Users\PCHAUT~1\AppData\Local\Temp\cc0TdMG0.s 			page 21


 1119              		.thumb_func
 1120              		.fpu fpv4-sp-d16
 1121              		.type	pwm_ch1_cb, %function
 1122              	pwm_ch1_cb:
 1123              	.LFB262:
 1124              		.loc 6 275 0
 1125              		.cfi_startproc
 1126              		@ args = 0, pretend = 0, frame = 16
 1127              		@ frame_needed = 0, uses_anonymous_args = 0
 1128 0000 00B5     		push	{lr}
 1129              		.cfi_def_cfa_offset 4
 1130              		.cfi_offset 14, -4
 1131 0002 85B0     		sub	sp, sp, #20
 1132              		.cfi_def_cfa_offset 24
 1133 0004 0190     		str	r0, [sp, #4]
 1134              		.loc 6 275 0
 1135 0006 0E4B     		ldr	r3, .L81
 1136 0008 1B68     		ldr	r3, [r3]
 1137 000a 0393     		str	r3, [sp, #12]
 1138              		.loc 6 278 0
 1139 000c 0D4B     		ldr	r3, .L81+4
 1140 000e 4FF48052 		mov	r2, #4096
 1141 0012 5A83     		strh	r2, [r3, #26]	@ movhi
 1142              		.loc 6 279 0
 1143 0014 0B4B     		ldr	r3, .L81+4
 1144 0016 4FF48042 		mov	r2, #16384
 1145 001a 5A83     		strh	r2, [r3, #26]	@ movhi
 1146              		.loc 6 280 0
 1147 001c 0A4B     		ldr	r3, .L81+8
 1148 001e 0422     		movs	r2, #4
 1149 0020 5A83     		strh	r2, [r3, #26]	@ movhi
 1150              		.loc 6 281 0
 1151 0022 094B     		ldr	r3, .L81+8
 1152 0024 0822     		movs	r2, #8
 1153 0026 5A83     		strh	r2, [r3, #26]	@ movhi
 1154              		.loc 6 282 0
 1155 0028 00BF     		nop
 1156 002a 054B     		ldr	r3, .L81
 1157 002c 039A     		ldr	r2, [sp, #12]
 1158 002e 1B68     		ldr	r3, [r3]
 1159 0030 9A42     		cmp	r2, r3
 1160 0032 01D0     		beq	.L80
 1161 0034 FFF7FEFF 		bl	__stack_chk_fail
 1162              	.L80:
 1163 0038 05B0     		add	sp, sp, #20
 1164              		.cfi_def_cfa_offset 4
 1165              		@ sp needed
 1166 003a 5DF804FB 		ldr	pc, [sp], #4
 1167              	.L82:
 1168 003e 00BF     		.align	2
 1169              	.L81:
 1170 0040 00000000 		.word	__stack_chk_guard
 1171 0044 00040240 		.word	1073873920
 1172 0048 00100240 		.word	1073876992
 1173              		.cfi_endproc
 1174              	.LFE262:
 1175              		.size	pwm_ch1_cb, .-pwm_ch1_cb
ARM GAS  C:\Users\PCHAUT~1\AppData\Local\Temp\cc0TdMG0.s 			page 22


 1176              		.section	.text.proximity_start,"ax",%progbits
 1177              		.align	1
 1178              		.p2align 4,,15
 1179              		.global	proximity_start
 1180              		.syntax unified
 1181              		.thumb
 1182              		.thumb_func
 1183              		.fpu fpv4-sp-d16
 1184              		.type	proximity_start, %function
 1185              	proximity_start:
 1186              	.LFB263:
 1187              		.loc 6 290 0
 1188              		.cfi_startproc
 1189              		@ args = 0, pretend = 0, frame = 8
 1190              		@ frame_needed = 0, uses_anonymous_args = 0
 1191 0000 00B5     		push	{lr}
 1192              		.cfi_def_cfa_offset 4
 1193              		.cfi_offset 14, -4
 1194 0002 85B0     		sub	sp, sp, #20
 1195              		.cfi_def_cfa_offset 24
 1196              		.loc 6 290 0
 1197 0004 1F4B     		ldr	r3, .L88
 1198 0006 1B68     		ldr	r3, [r3]
 1199 0008 0393     		str	r3, [sp, #12]
 1200              		.loc 6 291 0
 1201 000a 1F4B     		ldr	r3, .L88+4
 1202 000c 1B78     		ldrb	r3, [r3]	@ zero_extendqisi2
 1203 000e 012B     		cmp	r3, #1
 1204 0010 2DD1     		bne	.L87
 1205              		.loc 6 313 0
 1206 0012 0021     		movs	r1, #0
 1207 0014 1C48     		ldr	r0, .L88+4
 1208 0016 FFF7FEFF 		bl	adcStart
 1209              		.loc 6 314 0
 1210 001a 1B48     		ldr	r0, .L88+4
 1211 001c FFF7FEFF 		bl	adcAcquireBus
 1212              		.loc 6 316 0
 1213 0020 0123     		movs	r3, #1
 1214 0022 1A4A     		ldr	r2, .L88+8
 1215 0024 1A49     		ldr	r1, .L88+12
 1216 0026 1848     		ldr	r0, .L88+4
 1217 0028 FFF7FEFF 		bl	adcStartConversion
 1218              		.loc 6 319 0
 1219 002c 1949     		ldr	r1, .L88+16
 1220 002e 1A48     		ldr	r0, .L88+20
 1221 0030 FFF7FEFF 		bl	pwmStart
 1222              		.loc 6 321 0
 1223 0034 4FF49672 		mov	r2, #300
 1224 0038 0021     		movs	r1, #0
 1225 003a 1748     		ldr	r0, .L88+20
 1226 003c FFF7FEFF 		bl	pwmEnableChannel
 1227              		.loc 6 322 0
 1228 0040 0021     		movs	r1, #0
 1229 0042 1548     		ldr	r0, .L88+20
 1230 0044 FFF7FEFF 		bl	pwmEnableChannelNotification
 1231              		.loc 6 323 0
 1232 0048 1348     		ldr	r0, .L88+20
ARM GAS  C:\Users\PCHAUT~1\AppData\Local\Temp\cc0TdMG0.s 			page 23


 1233 004a FFF7FEFF 		bl	pwmEnablePeriodicNotification
 1234              		.loc 6 324 0
 1235 004e 4FF48272 		mov	r2, #260
 1236 0052 0121     		movs	r1, #1
 1237 0054 1048     		ldr	r0, .L88+20
 1238 0056 FFF7FEFF 		bl	pwmEnableChannel
 1239              		.loc 6 326 0
 1240 005a 0023     		movs	r3, #0
 1241 005c 0093     		str	r3, [sp]
 1242 005e 0F4B     		ldr	r3, .L88+24
 1243 0060 4022     		movs	r2, #64
 1244 0062 4FF41E71 		mov	r1, #632
 1245 0066 0E48     		ldr	r0, .L88+28
 1246 0068 FFF7FEFF 		bl	chThdCreateStatic
 1247 006c 00E0     		b	.L83
 1248              	.L87:
 1249              		.loc 6 292 0
 1250 006e 00BF     		nop
 1251              	.L83:
 1252              		.loc 6 328 0
 1253 0070 044B     		ldr	r3, .L88
 1254 0072 039A     		ldr	r2, [sp, #12]
 1255 0074 1B68     		ldr	r3, [r3]
 1256 0076 9A42     		cmp	r2, r3
 1257 0078 01D0     		beq	.L86
 1258 007a FFF7FEFF 		bl	__stack_chk_fail
 1259              	.L86:
 1260 007e 05B0     		add	sp, sp, #20
 1261              		.cfi_def_cfa_offset 4
 1262              		@ sp needed
 1263 0080 5DF804FB 		ldr	pc, [sp], #4
 1264              	.L89:
 1265              		.align	2
 1266              	.L88:
 1267 0084 00000000 		.word	__stack_chk_guard
 1268 0088 00000000 		.word	ADCD2
 1269 008c 00000000 		.word	adc2_proximity_samples
 1270 0090 00000000 		.word	adcgrpcfg2
 1271 0094 00000000 		.word	pwmcfg_proximity.12299
 1272 0098 00000000 		.word	PWMD2
 1273 009c 00000000 		.word	proximity_thd
 1274 00a0 00000000 		.word	proximity_thd_wa
 1275              		.cfi_endproc
 1276              	.LFE263:
 1277              		.size	proximity_start, .-proximity_start
 1278              		.section	.text.calibrate_ir,"ax",%progbits
 1279              		.align	1
 1280              		.p2align 4,,15
 1281              		.global	calibrate_ir
 1282              		.syntax unified
 1283              		.thumb
 1284              		.thumb_func
 1285              		.fpu fpv4-sp-d16
 1286              		.type	calibrate_ir, %function
 1287              	calibrate_ir:
 1288              	.LFB264:
 1289              		.loc 6 330 0
ARM GAS  C:\Users\PCHAUT~1\AppData\Local\Temp\cc0TdMG0.s 			page 24


 1290              		.cfi_startproc
 1291              		@ args = 0, pretend = 0, frame = 8
 1292              		@ frame_needed = 0, uses_anonymous_args = 0
 1293 0000 00B5     		push	{lr}
 1294              		.cfi_def_cfa_offset 4
 1295              		.cfi_offset 14, -4
 1296 0002 83B0     		sub	sp, sp, #12
 1297              		.cfi_def_cfa_offset 16
 1298              		.loc 6 330 0
 1299 0004 0D4B     		ldr	r3, .L94
 1300 0006 1B68     		ldr	r3, [r3]
 1301 0008 0193     		str	r3, [sp, #4]
 1302              		.loc 6 331 0
 1303 000a 0D4B     		ldr	r3, .L94+4
 1304 000c 0022     		movs	r2, #0
 1305 000e 1A70     		strb	r2, [r3]
 1306              		.loc 6 332 0
 1307 0010 0C4B     		ldr	r3, .L94+8
 1308 0012 0122     		movs	r2, #1
 1309 0014 1A70     		strb	r2, [r3]
 1310              		.loc 6 333 0
 1311 0016 02E0     		b	.L91
 1312              	.L92:
 1313              		.loc 6 334 0
 1314 0018 1420     		movs	r0, #20
 1315 001a FFF7FEFF 		bl	chThdSleep
 1316              	.L91:
 1317              		.loc 6 333 0
 1318 001e 094B     		ldr	r3, .L94+8
 1319 0020 1B78     		ldrb	r3, [r3]	@ zero_extendqisi2
 1320 0022 002B     		cmp	r3, #0
 1321 0024 F8D1     		bne	.L92
 1322              		.loc 6 336 0
 1323 0026 00BF     		nop
 1324 0028 044B     		ldr	r3, .L94
 1325 002a 019A     		ldr	r2, [sp, #4]
 1326 002c 1B68     		ldr	r3, [r3]
 1327 002e 9A42     		cmp	r2, r3
 1328 0030 01D0     		beq	.L93
 1329 0032 FFF7FEFF 		bl	__stack_chk_fail
 1330              	.L93:
 1331 0036 03B0     		add	sp, sp, #12
 1332              		.cfi_def_cfa_offset 4
 1333              		@ sp needed
 1334 0038 5DF804FB 		ldr	pc, [sp], #4
 1335              	.L95:
 1336              		.align	2
 1337              	.L94:
 1338 003c 00000000 		.word	__stack_chk_guard
 1339 0040 00000000 		.word	calibrationState
 1340 0044 00000000 		.word	calibrationInProgress
 1341              		.cfi_endproc
 1342              	.LFE264:
 1343              		.size	calibrate_ir, .-calibrate_ir
 1344              		.section	.text.get_prox,"ax",%progbits
 1345              		.align	1
 1346              		.p2align 4,,15
ARM GAS  C:\Users\PCHAUT~1\AppData\Local\Temp\cc0TdMG0.s 			page 25


 1347              		.global	get_prox
 1348              		.syntax unified
 1349              		.thumb
 1350              		.thumb_func
 1351              		.fpu fpv4-sp-d16
 1352              		.type	get_prox, %function
 1353              	get_prox:
 1354              	.LFB265:
 1355              		.loc 6 338 0
 1356              		.cfi_startproc
 1357              		@ args = 0, pretend = 0, frame = 16
 1358              		@ frame_needed = 0, uses_anonymous_args = 0
 1359 0000 00B5     		push	{lr}
 1360              		.cfi_def_cfa_offset 4
 1361              		.cfi_offset 14, -4
 1362 0002 85B0     		sub	sp, sp, #20
 1363              		.cfi_def_cfa_offset 24
 1364 0004 0190     		str	r0, [sp, #4]
 1365              		.loc 6 338 0
 1366 0006 0C4B     		ldr	r3, .L100
 1367 0008 1B68     		ldr	r3, [r3]
 1368 000a 0393     		str	r3, [sp, #12]
 1369              		.loc 6 339 0
 1370 000c 019B     		ldr	r3, [sp, #4]
 1371 000e 072B     		cmp	r3, #7
 1372 0010 01D9     		bls	.L97
 1373              		.loc 6 340 0
 1374 0012 0023     		movs	r3, #0
 1375 0014 04E0     		b	.L98
 1376              	.L97:
 1377              		.loc 6 342 0
 1378 0016 094A     		ldr	r2, .L100+4
 1379 0018 019B     		ldr	r3, [sp, #4]
 1380 001a 1033     		adds	r3, r3, #16
 1381 001c 52F82330 		ldr	r3, [r2, r3, lsl #2]
 1382              	.L98:
 1383              		.loc 6 344 0
 1384 0020 1846     		mov	r0, r3
 1385 0022 054B     		ldr	r3, .L100
 1386 0024 039A     		ldr	r2, [sp, #12]
 1387 0026 1B68     		ldr	r3, [r3]
 1388 0028 9A42     		cmp	r2, r3
 1389 002a 01D0     		beq	.L99
 1390 002c FFF7FEFF 		bl	__stack_chk_fail
 1391              	.L99:
 1392 0030 05B0     		add	sp, sp, #20
 1393              		.cfi_def_cfa_offset 4
 1394              		@ sp needed
 1395 0032 5DF804FB 		ldr	pc, [sp], #4
 1396              	.L101:
 1397 0036 00BF     		.align	2
 1398              	.L100:
 1399 0038 00000000 		.word	__stack_chk_guard
 1400 003c 00000000 		.word	prox_values
 1401              		.cfi_endproc
 1402              	.LFE265:
 1403              		.size	get_prox, .-get_prox
ARM GAS  C:\Users\PCHAUT~1\AppData\Local\Temp\cc0TdMG0.s 			page 26


 1404              		.section	.text.get_calibrated_prox,"ax",%progbits
 1405              		.align	1
 1406              		.p2align 4,,15
 1407              		.global	get_calibrated_prox
 1408              		.syntax unified
 1409              		.thumb
 1410              		.thumb_func
 1411              		.fpu fpv4-sp-d16
 1412              		.type	get_calibrated_prox, %function
 1413              	get_calibrated_prox:
 1414              	.LFB266:
 1415              		.loc 6 346 0
 1416              		.cfi_startproc
 1417              		@ args = 0, pretend = 0, frame = 16
 1418              		@ frame_needed = 0, uses_anonymous_args = 0
 1419 0000 00B5     		push	{lr}
 1420              		.cfi_def_cfa_offset 4
 1421              		.cfi_offset 14, -4
 1422 0002 85B0     		sub	sp, sp, #20
 1423              		.cfi_def_cfa_offset 24
 1424 0004 0190     		str	r0, [sp, #4]
 1425              		.loc 6 346 0
 1426 0006 124B     		ldr	r3, .L107
 1427 0008 1B68     		ldr	r3, [r3]
 1428 000a 0393     		str	r3, [sp, #12]
 1429              		.loc 6 348 0
 1430 000c 019B     		ldr	r3, [sp, #4]
 1431 000e 072B     		cmp	r3, #7
 1432 0010 01D9     		bls	.L103
 1433              		.loc 6 349 0
 1434 0012 0023     		movs	r3, #0
 1435 0014 11E0     		b	.L104
 1436              	.L103:
 1437              		.loc 6 351 0
 1438 0016 0F4A     		ldr	r2, .L107+4
 1439 0018 019B     		ldr	r3, [sp, #4]
 1440 001a 1033     		adds	r3, r3, #16
 1441 001c 52F82320 		ldr	r2, [r2, r3, lsl #2]
 1442 0020 0C49     		ldr	r1, .L107+4
 1443 0022 019B     		ldr	r3, [sp, #4]
 1444 0024 1833     		adds	r3, r3, #24
 1445 0026 51F82330 		ldr	r3, [r1, r3, lsl #2]
 1446 002a D31A     		subs	r3, r2, r3
 1447 002c 0293     		str	r3, [sp, #8]
 1448              		.loc 6 352 0
 1449 002e 029B     		ldr	r3, [sp, #8]
 1450 0030 002B     		cmp	r3, #0
 1451 0032 01DD     		ble	.L105
 1452              		.loc 6 353 0
 1453 0034 029B     		ldr	r3, [sp, #8]
 1454 0036 00E0     		b	.L104
 1455              	.L105:
 1456              		.loc 6 355 0
 1457 0038 0023     		movs	r3, #0
 1458              	.L104:
 1459              		.loc 6 358 0
 1460 003a 1846     		mov	r0, r3
ARM GAS  C:\Users\PCHAUT~1\AppData\Local\Temp\cc0TdMG0.s 			page 27


 1461 003c 044B     		ldr	r3, .L107
 1462 003e 039A     		ldr	r2, [sp, #12]
 1463 0040 1B68     		ldr	r3, [r3]
 1464 0042 9A42     		cmp	r2, r3
 1465 0044 01D0     		beq	.L106
 1466 0046 FFF7FEFF 		bl	__stack_chk_fail
 1467              	.L106:
 1468 004a 05B0     		add	sp, sp, #20
 1469              		.cfi_def_cfa_offset 4
 1470              		@ sp needed
 1471 004c 5DF804FB 		ldr	pc, [sp], #4
 1472              	.L108:
 1473              		.align	2
 1474              	.L107:
 1475 0050 00000000 		.word	__stack_chk_guard
 1476 0054 00000000 		.word	prox_values
 1477              		.cfi_endproc
 1478              	.LFE266:
 1479              		.size	get_calibrated_prox, .-get_calibrated_prox
 1480              		.section	.text.get_ambient_light,"ax",%progbits
 1481              		.align	1
 1482              		.p2align 4,,15
 1483              		.global	get_ambient_light
 1484              		.syntax unified
 1485              		.thumb
 1486              		.thumb_func
 1487              		.fpu fpv4-sp-d16
 1488              		.type	get_ambient_light, %function
 1489              	get_ambient_light:
 1490              	.LFB267:
 1491              		.loc 6 360 0
 1492              		.cfi_startproc
 1493              		@ args = 0, pretend = 0, frame = 16
 1494              		@ frame_needed = 0, uses_anonymous_args = 0
 1495 0000 00B5     		push	{lr}
 1496              		.cfi_def_cfa_offset 4
 1497              		.cfi_offset 14, -4
 1498 0002 85B0     		sub	sp, sp, #20
 1499              		.cfi_def_cfa_offset 24
 1500 0004 0190     		str	r0, [sp, #4]
 1501              		.loc 6 360 0
 1502 0006 0B4B     		ldr	r3, .L113
 1503 0008 1B68     		ldr	r3, [r3]
 1504 000a 0393     		str	r3, [sp, #12]
 1505              		.loc 6 361 0
 1506 000c 019B     		ldr	r3, [sp, #4]
 1507 000e 072B     		cmp	r3, #7
 1508 0010 01D9     		bls	.L110
 1509              		.loc 6 362 0
 1510 0012 0023     		movs	r3, #0
 1511 0014 03E0     		b	.L111
 1512              	.L110:
 1513              		.loc 6 364 0
 1514 0016 084A     		ldr	r2, .L113+4
 1515 0018 019B     		ldr	r3, [sp, #4]
 1516 001a 52F82330 		ldr	r3, [r2, r3, lsl #2]
 1517              	.L111:
ARM GAS  C:\Users\PCHAUT~1\AppData\Local\Temp\cc0TdMG0.s 			page 28


 1518              		.loc 6 366 0
 1519 001e 1846     		mov	r0, r3
 1520 0020 044B     		ldr	r3, .L113
 1521 0022 039A     		ldr	r2, [sp, #12]
 1522 0024 1B68     		ldr	r3, [r3]
 1523 0026 9A42     		cmp	r2, r3
 1524 0028 01D0     		beq	.L112
 1525 002a FFF7FEFF 		bl	__stack_chk_fail
 1526              	.L112:
 1527 002e 05B0     		add	sp, sp, #20
 1528              		.cfi_def_cfa_offset 4
 1529              		@ sp needed
 1530 0030 5DF804FB 		ldr	pc, [sp], #4
 1531              	.L114:
 1532              		.align	2
 1533              	.L113:
 1534 0034 00000000 		.word	__stack_chk_guard
 1535 0038 00000000 		.word	prox_values
 1536              		.cfi_endproc
 1537              	.LFE267:
 1538              		.size	get_ambient_light, .-get_ambient_light
 1539              		.section	.rodata.__FUNCTION__.12260,"a",%progbits
 1540              		.align	2
 1541              		.type	__FUNCTION__.12260, %object
 1542              		.size	__FUNCTION__.12260, 14
 1543              	__FUNCTION__.12260:
 1544 0000 70726F78 		.ascii	"proximity_thd\000"
 1544      696D6974 
 1544      795F7468 
 1544      6400
 1545              		.section	.rodata.pwmcfg_proximity.12299,"a",%progbits
 1546              		.align	2
 1547              		.type	pwmcfg_proximity.12299, %object
 1548              		.size	pwmcfg_proximity.12299, 52
 1549              	pwmcfg_proximity.12299:
 1550 0000 40420F00 		.word	1000000
 1551 0004 E2040000 		.word	1250
 1552 0008 00000000 		.word	pwm_reset_cb
 1553 000c 01000000 		.word	1
 1554 0010 00000000 		.word	pwm_ch1_cb
 1555 0014 01000000 		.word	1
 1556 0018 00000000 		.word	0
 1557 001c 00000000 		.word	0
 1558 0020 00000000 		.word	0
 1559 0024 00000000 		.word	0
 1560 0028 00000000 		.word	0
 1561 002c 00000000 		.word	0
 1562 0030 00000000 		.space	4
 1563              		.text
 1564              	.Letext0:
 1565              		.file 7 "c:\\users\\pchautems\\documents\\robotiquetp\\eclipse_e-puck2\\tools\\gcc-arm-none-eabi-7
 1566              		.file 8 "c:\\users\\pchautems\\documents\\robotiquetp\\eclipse_e-puck2\\tools\\gcc-arm-none-eabi-7
 1567              		.file 9 "c:\\users\\pchautems\\documents\\robotiquetp\\eclipse_e-puck2\\tools\\gcc-arm-none-eabi-7
 1568              		.file 10 "c:\\users\\pchautems\\documents\\robotiquetp\\eclipse_e-puck2\\tools\\gcc-arm-none-eabi-
 1569              		.file 11 "c:\\users\\pchautems\\documents\\robotiquetp\\eclipse_e-puck2\\tools\\gcc-arm-none-eabi-
 1570              		.file 12 "c:\\users\\pchautems\\documents\\robotiquetp\\eclipse_e-puck2\\tools\\gcc-arm-none-eabi-
 1571              		.file 13 "../lib/e-puck2_main-processor/ChibiOS//os/rt/ports/ARMCMx/compilers/GCC/chtypes.h"
ARM GAS  C:\Users\PCHAUT~1\AppData\Local\Temp\cc0TdMG0.s 			page 29


 1572              		.file 14 "../lib/e-puck2_main-processor/ChibiOS//os/rt/include/chsystypes.h"
 1573              		.file 15 "../lib/e-puck2_main-processor/ChibiOS//os/rt/include/chschd.h"
 1574              		.file 16 "../lib/e-puck2_main-processor/ChibiOS//os/ext/CMSIS/include/core_cm4.h"
 1575              		.file 17 "../lib/e-puck2_main-processor/ChibiOS//os/ext/CMSIS/ST/system_stm32f4xx.h"
 1576              		.file 18 "../lib/e-puck2_main-processor/ChibiOS//os/ext/CMSIS/ST/stm32f407xx.h"
 1577              		.file 19 "../lib/e-puck2_main-processor/ChibiOS//os/rt/ports/ARMCMx/chcore.h"
 1578              		.file 20 "../lib/e-puck2_main-processor/ChibiOS//os/rt/include/chdebug.h"
 1579              		.file 21 "../lib/e-puck2_main-processor/ChibiOS//os/rt/include/chtm.h"
 1580              		.file 22 "../lib/e-puck2_main-processor/ChibiOS//os/rt/include/chstats.h"
 1581              		.file 23 "../lib/e-puck2_main-processor/ChibiOS//os/rt/include/chsem.h"
 1582              		.file 24 "../lib/e-puck2_main-processor/ChibiOS//os/rt/include/chmtx.h"
 1583              		.file 25 "../lib/e-puck2_main-processor/ChibiOS//os/rt/include/chcond.h"
 1584              		.file 26 "../lib/e-puck2_main-processor/ChibiOS//os/rt/include/chevents.h"
 1585              		.file 27 "../lib/e-puck2_main-processor/ChibiOS//os/rt/include/chqueues.h"
 1586              		.file 28 "../lib/e-puck2_main-processor/ChibiOS//os/hal/ports/STM32/STM32F4xx/stm32_dma.h"
 1587              		.file 29 "../lib/e-puck2_main-processor/ChibiOS//os/hal/include/hal_ioblock.h"
 1588              		.file 30 "../lib/e-puck2_main-processor/ChibiOS//os/hal/ports/STM32/LLD/GPIOv2/pal_lld.h"
 1589              		.file 31 "../lib/e-puck2_main-processor/ChibiOS//os/hal/include/adc.h"
 1590              		.file 32 "../lib/e-puck2_main-processor/ChibiOS//os/hal/ports/STM32/STM32F4xx/adc_lld.h"
 1591              		.file 33 "../lib/e-puck2_main-processor/ChibiOS//os/hal/include/can.h"
 1592              		.file 34 "../lib/e-puck2_main-processor/ChibiOS//os/hal/ports/STM32/LLD/can_lld.h"
 1593              		.file 35 "../lib/e-puck2_main-processor/ChibiOS//os/hal/include/dac.h"
 1594              		.file 36 "../lib/e-puck2_main-processor/ChibiOS//os/hal/ports/STM32/LLD/DACv1/dac_lld.h"
 1595              		.file 37 "../lib/e-puck2_main-processor/ChibiOS//os/hal/include/ext.h"
 1596              		.file 38 "../lib/e-puck2_main-processor/ChibiOS//os/hal/ports/STM32/LLD/ext_lld.h"
 1597              		.file 39 "../lib/e-puck2_main-processor/ChibiOS//os/hal/include/gpt.h"
 1598              		.file 40 "../lib/e-puck2_main-processor/ChibiOS//os/hal/ports/STM32/LLD/TIMv1/gpt_lld.h"
 1599              		.file 41 "../lib/e-puck2_main-processor/ChibiOS//os/hal/ports/STM32/LLD/TIMv1/stm32_tim.h"
 1600              		.file 42 "../lib/e-puck2_main-processor/ChibiOS//os/hal/include/i2c.h"
 1601              		.file 43 "../lib/e-puck2_main-processor/ChibiOS//os/hal/ports/STM32/LLD/I2Cv1/i2c_lld.h"
 1602              		.file 44 "../lib/e-puck2_main-processor/ChibiOS//os/hal/include/i2s.h"
 1603              		.file 45 "../lib/e-puck2_main-processor/ChibiOS//os/hal/ports/STM32/LLD/SPIv1/i2s_lld.h"
 1604              		.file 46 "../lib/e-puck2_main-processor/ChibiOS//os/hal/include/pwm.h"
 1605              		.file 47 "../lib/e-puck2_main-processor/ChibiOS//os/hal/ports/STM32/LLD/TIMv1/pwm_lld.h"
 1606              		.file 48 "../lib/e-puck2_main-processor/ChibiOS//os/hal/include/serial.h"
 1607              		.file 49 "../lib/e-puck2_main-processor/ChibiOS//os/hal/ports/STM32/LLD/USARTv1/serial_lld.h"
 1608              		.file 50 "../lib/e-puck2_main-processor/ChibiOS//os/hal/include/sdc.h"
 1609              		.file 51 "../lib/e-puck2_main-processor/ChibiOS//os/hal/ports/STM32/LLD/sdc_lld.h"
 1610              		.file 52 "../lib/e-puck2_main-processor/ChibiOS//os/hal/include/spi.h"
 1611              		.file 53 "../lib/e-puck2_main-processor/ChibiOS//os/hal/ports/STM32/LLD/SPIv1/spi_lld.h"
 1612              		.file 54 "../lib/e-puck2_main-processor/ChibiOS//os/hal/include/usb.h"
 1613              		.file 55 "../lib/e-puck2_main-processor/ChibiOS//os/hal/ports/STM32/LLD/OTGv1/usb_lld.h"
 1614              		.file 56 "../lib/e-puck2_main-processor/ChibiOS//os/hal/ports/STM32/LLD/OTGv1/stm32_otg.h"
 1615              		.file 57 "../lib/e-puck2_main-processor/src/sensors/proximity.h"
 1616              		.file 58 "../lib/e-puck2_main-processor/ChibiOS_ext/os/hal/include/../ports/STM32/STM32F4xx/dcmi_l
 1617              		.file 59 "c:\\users\\pchautems\\documents\\robotiquetp\\eclipse_e-puck2\\tools\\gcc-arm-none-eabi-
 1618              		.file 60 "../lib/e-puck2_main-processor/src/msgbus/messagebus.h"
 1619              		.file 61 "c:\\users\\pchautems\\documents\\robotiquetp\\eclipse_e-puck2\\tools\\gcc-arm-none-eabi-
 1620              		.file 62 "../lib/e-puck2_main-processor/src/parameter/parameter.h"
 1621              		.file 63 "./main.h"