ARM GAS  C:\Users\PCHAUT~1\AppData\Local\Temp\ccmME1xe.s 			page 1


   1              		.cpu cortex-m4
   2              		.eabi_attribute 27, 1
   3              		.eabi_attribute 28, 1
   4              		.eabi_attribute 20, 1
   5              		.eabi_attribute 21, 1
   6              		.eabi_attribute 23, 3
   7              		.eabi_attribute 24, 1
   8              		.eabi_attribute 25, 1
   9              		.eabi_attribute 26, 1
  10              		.eabi_attribute 30, 6
  11              		.eabi_attribute 34, 1
  12              		.eabi_attribute 18, 4
  13              		.file	"pwm.c"
  14              		.text
  15              	.Ltext0:
  16              		.cfi_sections	.debug_frame
  17              		.section	.text.port_lock,"ax",%progbits
  18              		.align	1
  19              		.p2align 4,,15
  20              		.syntax unified
  21              		.thumb
  22              		.thumb_func
  23              		.fpu fpv4-sp-d16
  24              		.type	port_lock, %function
  25              	port_lock:
  26              	.LFB116:
  27              		.file 1 "../lib/e-puck2_main-processor/ChibiOS//os/rt/ports/ARMCMx/chcore_v7m.h"
  28              		.loc 1 444 0
  29              		.cfi_startproc
  30              		@ args = 0, pretend = 0, frame = 8
  31              		@ frame_needed = 0, uses_anonymous_args = 0
  32 0000 00B5     		push	{lr}
  33              		.cfi_def_cfa_offset 4
  34              		.cfi_offset 14, -4
  35 0002 83B0     		sub	sp, sp, #12
  36              		.cfi_def_cfa_offset 16
  37              		.loc 1 444 0
  38 0004 094B     		ldr	r3, .L3
  39 0006 1B68     		ldr	r3, [r3]
  40 0008 0193     		str	r3, [sp, #4]
  41 000a 2023     		movs	r3, #32
  42 000c 0093     		str	r3, [sp]
  43              	.LBB6:
  44              	.LBB7:
  45              		.file 2 "../lib/e-puck2_main-processor/ChibiOS//os/ext/CMSIS/include/core_cmFunc.h"
  46              		.loc 2 546 0
  47 000e 009B     		ldr	r3, [sp]
  48              		.syntax unified
  49              	@ 546 "../lib/e-puck2_main-processor/ChibiOS//os/ext/CMSIS/include/core_cmFunc.h" 1
  50 0010 83F31188 		MSR basepri, r3
  51              	@ 0 "" 2
  52              		.thumb
  53              		.syntax unified
  54              	.LBE7:
  55              	.LBE6:
  56              		.loc 1 451 0
  57 0014 00BF     		nop
ARM GAS  C:\Users\PCHAUT~1\AppData\Local\Temp\ccmME1xe.s 			page 2


  58 0016 054B     		ldr	r3, .L3
  59 0018 019A     		ldr	r2, [sp, #4]
  60 001a 1B68     		ldr	r3, [r3]
  61 001c 9A42     		cmp	r2, r3
  62 001e 01D0     		beq	.L2
  63 0020 FFF7FEFF 		bl	__stack_chk_fail
  64              	.L2:
  65 0024 03B0     		add	sp, sp, #12
  66              		.cfi_def_cfa_offset 4
  67              		@ sp needed
  68 0026 5DF804FB 		ldr	pc, [sp], #4
  69              	.L4:
  70 002a 00BF     		.align	2
  71              	.L3:
  72 002c 00000000 		.word	__stack_chk_guard
  73              		.cfi_endproc
  74              	.LFE116:
  75              		.size	port_lock, .-port_lock
  76              		.section	.text.port_unlock,"ax",%progbits
  77              		.align	1
  78              		.p2align 4,,15
  79              		.syntax unified
  80              		.thumb
  81              		.thumb_func
  82              		.fpu fpv4-sp-d16
  83              		.type	port_unlock, %function
  84              	port_unlock:
  85              	.LFB117:
  86              		.loc 1 458 0
  87              		.cfi_startproc
  88              		@ args = 0, pretend = 0, frame = 8
  89              		@ frame_needed = 0, uses_anonymous_args = 0
  90 0000 00B5     		push	{lr}
  91              		.cfi_def_cfa_offset 4
  92              		.cfi_offset 14, -4
  93 0002 83B0     		sub	sp, sp, #12
  94              		.cfi_def_cfa_offset 16
  95              		.loc 1 458 0
  96 0004 094B     		ldr	r3, .L7
  97 0006 1B68     		ldr	r3, [r3]
  98 0008 0193     		str	r3, [sp, #4]
  99 000a 0023     		movs	r3, #0
 100 000c 0093     		str	r3, [sp]
 101              	.LBB8:
 102              	.LBB9:
 103              		.loc 2 546 0
 104 000e 009B     		ldr	r3, [sp]
 105              		.syntax unified
 106              	@ 546 "../lib/e-puck2_main-processor/ChibiOS//os/ext/CMSIS/include/core_cmFunc.h" 1
 107 0010 83F31188 		MSR basepri, r3
 108              	@ 0 "" 2
 109              		.thumb
 110              		.syntax unified
 111              	.LBE9:
 112              	.LBE8:
 113              		.loc 1 465 0
 114 0014 00BF     		nop
ARM GAS  C:\Users\PCHAUT~1\AppData\Local\Temp\ccmME1xe.s 			page 3


 115 0016 054B     		ldr	r3, .L7
 116 0018 019A     		ldr	r2, [sp, #4]
 117 001a 1B68     		ldr	r3, [r3]
 118 001c 9A42     		cmp	r2, r3
 119 001e 01D0     		beq	.L6
 120 0020 FFF7FEFF 		bl	__stack_chk_fail
 121              	.L6:
 122 0024 03B0     		add	sp, sp, #12
 123              		.cfi_def_cfa_offset 4
 124              		@ sp needed
 125 0026 5DF804FB 		ldr	pc, [sp], #4
 126              	.L8:
 127 002a 00BF     		.align	2
 128              	.L7:
 129 002c 00000000 		.word	__stack_chk_guard
 130              		.cfi_endproc
 131              	.LFE117:
 132              		.size	port_unlock, .-port_unlock
 133              		.section	.text.chSysLock,"ax",%progbits
 134              		.align	1
 135              		.p2align 4,,15
 136              		.syntax unified
 137              		.thumb
 138              		.thumb_func
 139              		.fpu fpv4-sp-d16
 140              		.type	chSysLock, %function
 141              	chSysLock:
 142              	.LFB145:
 143              		.file 3 "../lib/e-puck2_main-processor/ChibiOS//os/rt/include/chsys.h"
 144              		.loc 3 346 0
 145              		.cfi_startproc
 146              		@ args = 0, pretend = 0, frame = 8
 147              		@ frame_needed = 0, uses_anonymous_args = 0
 148 0000 00B5     		push	{lr}
 149              		.cfi_def_cfa_offset 4
 150              		.cfi_offset 14, -4
 151 0002 83B0     		sub	sp, sp, #12
 152              		.cfi_def_cfa_offset 16
 153              		.loc 3 346 0
 154 0004 094B     		ldr	r3, .L11
 155 0006 1B68     		ldr	r3, [r3]
 156 0008 0193     		str	r3, [sp, #4]
 157              		.loc 3 348 0
 158 000a FFF7FEFF 		bl	port_lock
 159              		.loc 3 349 0
 160 000e FFF7FEFF 		bl	_stats_start_measure_crit_thd
 161              		.loc 3 350 0
 162 0012 FFF7FEFF 		bl	_dbg_check_lock
 163              		.loc 3 351 0
 164 0016 00BF     		nop
 165 0018 044B     		ldr	r3, .L11
 166 001a 019A     		ldr	r2, [sp, #4]
 167 001c 1B68     		ldr	r3, [r3]
 168 001e 9A42     		cmp	r2, r3
 169 0020 01D0     		beq	.L10
 170 0022 FFF7FEFF 		bl	__stack_chk_fail
 171              	.L10:
ARM GAS  C:\Users\PCHAUT~1\AppData\Local\Temp\ccmME1xe.s 			page 4


 172 0026 03B0     		add	sp, sp, #12
 173              		.cfi_def_cfa_offset 4
 174              		@ sp needed
 175 0028 5DF804FB 		ldr	pc, [sp], #4
 176              	.L12:
 177              		.align	2
 178              	.L11:
 179 002c 00000000 		.word	__stack_chk_guard
 180              		.cfi_endproc
 181              	.LFE145:
 182              		.size	chSysLock, .-chSysLock
 183              		.section	.text.chSysUnlock,"ax",%progbits
 184              		.align	1
 185              		.p2align 4,,15
 186              		.syntax unified
 187              		.thumb
 188              		.thumb_func
 189              		.fpu fpv4-sp-d16
 190              		.type	chSysUnlock, %function
 191              	chSysUnlock:
 192              	.LFB146:
 193              		.loc 3 358 0
 194              		.cfi_startproc
 195              		@ args = 0, pretend = 0, frame = 8
 196              		@ frame_needed = 0, uses_anonymous_args = 0
 197 0000 00B5     		push	{lr}
 198              		.cfi_def_cfa_offset 4
 199              		.cfi_offset 14, -4
 200 0002 83B0     		sub	sp, sp, #12
 201              		.cfi_def_cfa_offset 16
 202              		.loc 3 358 0
 203 0004 114B     		ldr	r3, .L16
 204 0006 1B68     		ldr	r3, [r3]
 205 0008 0193     		str	r3, [sp, #4]
 206              		.loc 3 360 0
 207 000a FFF7FEFF 		bl	_dbg_check_unlock
 208              		.loc 3 361 0
 209 000e FFF7FEFF 		bl	_stats_stop_measure_crit_thd
 210              		.loc 3 367 0
 211 0012 0F4B     		ldr	r3, .L16+4
 212 0014 1B68     		ldr	r3, [r3]
 213 0016 0E4A     		ldr	r2, .L16+4
 214 0018 9342     		cmp	r3, r2
 215 001a 0AD0     		beq	.L14
 216              		.loc 3 367 0 is_stmt 0 discriminator 2
 217 001c 0C4B     		ldr	r3, .L16+4
 218 001e 9B69     		ldr	r3, [r3, #24]
 219 0020 9A68     		ldr	r2, [r3, #8]
 220 0022 0B4B     		ldr	r3, .L16+4
 221 0024 1B68     		ldr	r3, [r3]
 222 0026 9B68     		ldr	r3, [r3, #8]
 223 0028 9A42     		cmp	r2, r3
 224 002a 02D2     		bcs	.L14
 225              		.loc 3 367 0 discriminator 3
 226 002c 0948     		ldr	r0, .L16+8
 227 002e FFF7FEFF 		bl	chSysHalt
 228              	.L14:
ARM GAS  C:\Users\PCHAUT~1\AppData\Local\Temp\ccmME1xe.s 			page 5


 229              		.loc 3 371 0 is_stmt 1
 230 0032 FFF7FEFF 		bl	port_unlock
 231              		.loc 3 372 0
 232 0036 00BF     		nop
 233 0038 044B     		ldr	r3, .L16
 234 003a 019A     		ldr	r2, [sp, #4]
 235 003c 1B68     		ldr	r3, [r3]
 236 003e 9A42     		cmp	r2, r3
 237 0040 01D0     		beq	.L15
 238 0042 FFF7FEFF 		bl	__stack_chk_fail
 239              	.L15:
 240 0046 03B0     		add	sp, sp, #12
 241              		.cfi_def_cfa_offset 4
 242              		@ sp needed
 243 0048 5DF804FB 		ldr	pc, [sp], #4
 244              	.L17:
 245              		.align	2
 246              	.L16:
 247 004c 00000000 		.word	__stack_chk_guard
 248 0050 00000000 		.word	ch
 249 0054 00000000 		.word	__func__.7153
 250              		.cfi_endproc
 251              	.LFE146:
 252              		.size	chSysUnlock, .-chSysUnlock
 253              		.section	.text.osalSysLock,"ax",%progbits
 254              		.align	1
 255              		.p2align 4,,15
 256              		.syntax unified
 257              		.thumb
 258              		.thumb_func
 259              		.fpu fpv4-sp-d16
 260              		.type	osalSysLock, %function
 261              	osalSysLock:
 262              	.LFB223:
 263              		.file 4 "../lib/e-puck2_main-processor/ChibiOS//os/hal/osal/rt/osal.h"
 264              		.loc 4 445 0
 265              		.cfi_startproc
 266              		@ args = 0, pretend = 0, frame = 8
 267              		@ frame_needed = 0, uses_anonymous_args = 0
 268 0000 00B5     		push	{lr}
 269              		.cfi_def_cfa_offset 4
 270              		.cfi_offset 14, -4
 271 0002 83B0     		sub	sp, sp, #12
 272              		.cfi_def_cfa_offset 16
 273              		.loc 4 445 0
 274 0004 074B     		ldr	r3, .L20
 275 0006 1B68     		ldr	r3, [r3]
 276 0008 0193     		str	r3, [sp, #4]
 277              		.loc 4 447 0
 278 000a FFF7FEFF 		bl	chSysLock
 279              		.loc 4 448 0
 280 000e 00BF     		nop
 281 0010 044B     		ldr	r3, .L20
 282 0012 019A     		ldr	r2, [sp, #4]
 283 0014 1B68     		ldr	r3, [r3]
 284 0016 9A42     		cmp	r2, r3
 285 0018 01D0     		beq	.L19
ARM GAS  C:\Users\PCHAUT~1\AppData\Local\Temp\ccmME1xe.s 			page 6


 286 001a FFF7FEFF 		bl	__stack_chk_fail
 287              	.L19:
 288 001e 03B0     		add	sp, sp, #12
 289              		.cfi_def_cfa_offset 4
 290              		@ sp needed
 291 0020 5DF804FB 		ldr	pc, [sp], #4
 292              	.L21:
 293              		.align	2
 294              	.L20:
 295 0024 00000000 		.word	__stack_chk_guard
 296              		.cfi_endproc
 297              	.LFE223:
 298              		.size	osalSysLock, .-osalSysLock
 299              		.section	.text.osalSysUnlock,"ax",%progbits
 300              		.align	1
 301              		.p2align 4,,15
 302              		.syntax unified
 303              		.thumb
 304              		.thumb_func
 305              		.fpu fpv4-sp-d16
 306              		.type	osalSysUnlock, %function
 307              	osalSysUnlock:
 308              	.LFB224:
 309              		.loc 4 456 0
 310              		.cfi_startproc
 311              		@ args = 0, pretend = 0, frame = 8
 312              		@ frame_needed = 0, uses_anonymous_args = 0
 313 0000 00B5     		push	{lr}
 314              		.cfi_def_cfa_offset 4
 315              		.cfi_offset 14, -4
 316 0002 83B0     		sub	sp, sp, #12
 317              		.cfi_def_cfa_offset 16
 318              		.loc 4 456 0
 319 0004 074B     		ldr	r3, .L24
 320 0006 1B68     		ldr	r3, [r3]
 321 0008 0193     		str	r3, [sp, #4]
 322              		.loc 4 458 0
 323 000a FFF7FEFF 		bl	chSysUnlock
 324              		.loc 4 459 0
 325 000e 00BF     		nop
 326 0010 044B     		ldr	r3, .L24
 327 0012 019A     		ldr	r2, [sp, #4]
 328 0014 1B68     		ldr	r3, [r3]
 329 0016 9A42     		cmp	r2, r3
 330 0018 01D0     		beq	.L23
 331 001a FFF7FEFF 		bl	__stack_chk_fail
 332              	.L23:
 333 001e 03B0     		add	sp, sp, #12
 334              		.cfi_def_cfa_offset 4
 335              		@ sp needed
 336 0020 5DF804FB 		ldr	pc, [sp], #4
 337              	.L25:
 338              		.align	2
 339              	.L24:
 340 0024 00000000 		.word	__stack_chk_guard
 341              		.cfi_endproc
 342              	.LFE224:
ARM GAS  C:\Users\PCHAUT~1\AppData\Local\Temp\ccmME1xe.s 			page 7


 343              		.size	osalSysUnlock, .-osalSysUnlock
 344              		.section	.text.pwmInit,"ax",%progbits
 345              		.align	1
 346              		.p2align 4,,15
 347              		.global	pwmInit
 348              		.syntax unified
 349              		.thumb
 350              		.thumb_func
 351              		.fpu fpv4-sp-d16
 352              		.type	pwmInit, %function
 353              	pwmInit:
 354              	.LFB256:
 355              		.file 5 "../lib/e-puck2_main-processor/ChibiOS//os/hal/src/pwm.c"
 356              		.loc 5 56 0
 357              		.cfi_startproc
 358              		@ args = 0, pretend = 0, frame = 8
 359              		@ frame_needed = 0, uses_anonymous_args = 0
 360 0000 00B5     		push	{lr}
 361              		.cfi_def_cfa_offset 4
 362              		.cfi_offset 14, -4
 363 0002 83B0     		sub	sp, sp, #12
 364              		.cfi_def_cfa_offset 16
 365              		.loc 5 56 0
 366 0004 074B     		ldr	r3, .L28
 367 0006 1B68     		ldr	r3, [r3]
 368 0008 0193     		str	r3, [sp, #4]
 369              		.loc 5 58 0
 370 000a FFF7FEFF 		bl	pwm_lld_init
 371              		.loc 5 59 0
 372 000e 00BF     		nop
 373 0010 044B     		ldr	r3, .L28
 374 0012 019A     		ldr	r2, [sp, #4]
 375 0014 1B68     		ldr	r3, [r3]
 376 0016 9A42     		cmp	r2, r3
 377 0018 01D0     		beq	.L27
 378 001a FFF7FEFF 		bl	__stack_chk_fail
 379              	.L27:
 380 001e 03B0     		add	sp, sp, #12
 381              		.cfi_def_cfa_offset 4
 382              		@ sp needed
 383 0020 5DF804FB 		ldr	pc, [sp], #4
 384              	.L29:
 385              		.align	2
 386              	.L28:
 387 0024 00000000 		.word	__stack_chk_guard
 388              		.cfi_endproc
 389              	.LFE256:
 390              		.size	pwmInit, .-pwmInit
 391              		.section	.text.pwmObjectInit,"ax",%progbits
 392              		.align	1
 393              		.p2align 4,,15
 394              		.global	pwmObjectInit
 395              		.syntax unified
 396              		.thumb
 397              		.thumb_func
 398              		.fpu fpv4-sp-d16
 399              		.type	pwmObjectInit, %function
ARM GAS  C:\Users\PCHAUT~1\AppData\Local\Temp\ccmME1xe.s 			page 8


 400              	pwmObjectInit:
 401              	.LFB257:
 402              		.loc 5 68 0
 403              		.cfi_startproc
 404              		@ args = 0, pretend = 0, frame = 16
 405              		@ frame_needed = 0, uses_anonymous_args = 0
 406 0000 00B5     		push	{lr}
 407              		.cfi_def_cfa_offset 4
 408              		.cfi_offset 14, -4
 409 0002 85B0     		sub	sp, sp, #20
 410              		.cfi_def_cfa_offset 24
 411 0004 0190     		str	r0, [sp, #4]
 412              		.loc 5 68 0
 413 0006 0D4B     		ldr	r3, .L32
 414 0008 1B68     		ldr	r3, [r3]
 415 000a 0393     		str	r3, [sp, #12]
 416              		.loc 5 70 0
 417 000c 019B     		ldr	r3, [sp, #4]
 418 000e 0122     		movs	r2, #1
 419 0010 1A70     		strb	r2, [r3]
 420              		.loc 5 71 0
 421 0012 019B     		ldr	r3, [sp, #4]
 422 0014 0022     		movs	r2, #0
 423 0016 5A60     		str	r2, [r3, #4]
 424              		.loc 5 72 0
 425 0018 019B     		ldr	r3, [sp, #4]
 426 001a 0022     		movs	r2, #0
 427 001c DA60     		str	r2, [r3, #12]
 428              		.loc 5 73 0
 429 001e 019B     		ldr	r3, [sp, #4]
 430 0020 0022     		movs	r2, #0
 431 0022 1A74     		strb	r2, [r3, #16]
 432              		.loc 5 77 0
 433 0024 00BF     		nop
 434 0026 054B     		ldr	r3, .L32
 435 0028 039A     		ldr	r2, [sp, #12]
 436 002a 1B68     		ldr	r3, [r3]
 437 002c 9A42     		cmp	r2, r3
 438 002e 01D0     		beq	.L31
 439 0030 FFF7FEFF 		bl	__stack_chk_fail
 440              	.L31:
 441 0034 05B0     		add	sp, sp, #20
 442              		.cfi_def_cfa_offset 4
 443              		@ sp needed
 444 0036 5DF804FB 		ldr	pc, [sp], #4
 445              	.L33:
 446 003a 00BF     		.align	2
 447              	.L32:
 448 003c 00000000 		.word	__stack_chk_guard
 449              		.cfi_endproc
 450              	.LFE257:
 451              		.size	pwmObjectInit, .-pwmObjectInit
 452              		.section	.text.pwmStart,"ax",%progbits
 453              		.align	1
 454              		.p2align 4,,15
 455              		.global	pwmStart
 456              		.syntax unified
ARM GAS  C:\Users\PCHAUT~1\AppData\Local\Temp\ccmME1xe.s 			page 9


 457              		.thumb
 458              		.thumb_func
 459              		.fpu fpv4-sp-d16
 460              		.type	pwmStart, %function
 461              	pwmStart:
 462              	.LFB258:
 463              		.loc 5 89 0
 464              		.cfi_startproc
 465              		@ args = 0, pretend = 0, frame = 16
 466              		@ frame_needed = 0, uses_anonymous_args = 0
 467 0000 00B5     		push	{lr}
 468              		.cfi_def_cfa_offset 4
 469              		.cfi_offset 14, -4
 470 0002 85B0     		sub	sp, sp, #20
 471              		.cfi_def_cfa_offset 24
 472 0004 0190     		str	r0, [sp, #4]
 473 0006 0091     		str	r1, [sp]
 474              		.loc 5 89 0
 475 0008 1A4B     		ldr	r3, .L39
 476 000a 1B68     		ldr	r3, [r3]
 477 000c 0393     		str	r3, [sp, #12]
 478              		.loc 5 91 0
 479 000e 019B     		ldr	r3, [sp, #4]
 480 0010 002B     		cmp	r3, #0
 481 0012 02D0     		beq	.L35
 482              		.loc 5 91 0 is_stmt 0 discriminator 3
 483 0014 009B     		ldr	r3, [sp]
 484 0016 002B     		cmp	r3, #0
 485 0018 02D1     		bne	.L36
 486              	.L35:
 487              		.loc 5 91 0 discriminator 4
 488 001a 1748     		ldr	r0, .L39+4
 489 001c FFF7FEFF 		bl	chSysHalt
 490              	.L36:
 491              		.loc 5 93 0 is_stmt 1
 492 0020 FFF7FEFF 		bl	osalSysLock
 493              		.loc 5 94 0
 494 0024 019B     		ldr	r3, [sp, #4]
 495 0026 1B78     		ldrb	r3, [r3]	@ zero_extendqisi2
 496 0028 012B     		cmp	r3, #1
 497 002a 06D0     		beq	.L37
 498              		.loc 5 94 0 is_stmt 0 discriminator 2
 499 002c 019B     		ldr	r3, [sp, #4]
 500 002e 1B78     		ldrb	r3, [r3]	@ zero_extendqisi2
 501 0030 022B     		cmp	r3, #2
 502 0032 02D0     		beq	.L37
 503              		.loc 5 94 0 discriminator 3
 504 0034 1048     		ldr	r0, .L39+4
 505 0036 FFF7FEFF 		bl	chSysHalt
 506              	.L37:
 507              		.loc 5 96 0 is_stmt 1
 508 003a 019B     		ldr	r3, [sp, #4]
 509 003c 009A     		ldr	r2, [sp]
 510 003e 5A60     		str	r2, [r3, #4]
 511              		.loc 5 97 0
 512 0040 009B     		ldr	r3, [sp]
 513 0042 5A68     		ldr	r2, [r3, #4]
ARM GAS  C:\Users\PCHAUT~1\AppData\Local\Temp\ccmME1xe.s 			page 10


 514 0044 019B     		ldr	r3, [sp, #4]
 515 0046 9A60     		str	r2, [r3, #8]
 516              		.loc 5 98 0
 517 0048 0198     		ldr	r0, [sp, #4]
 518 004a FFF7FEFF 		bl	pwm_lld_start
 519              		.loc 5 99 0
 520 004e 019B     		ldr	r3, [sp, #4]
 521 0050 0022     		movs	r2, #0
 522 0052 DA60     		str	r2, [r3, #12]
 523              		.loc 5 100 0
 524 0054 019B     		ldr	r3, [sp, #4]
 525 0056 0222     		movs	r2, #2
 526 0058 1A70     		strb	r2, [r3]
 527              		.loc 5 101 0
 528 005a FFF7FEFF 		bl	osalSysUnlock
 529              		.loc 5 102 0
 530 005e 00BF     		nop
 531 0060 044B     		ldr	r3, .L39
 532 0062 039A     		ldr	r2, [sp, #12]
 533 0064 1B68     		ldr	r3, [r3]
 534 0066 9A42     		cmp	r2, r3
 535 0068 01D0     		beq	.L38
 536 006a FFF7FEFF 		bl	__stack_chk_fail
 537              	.L38:
 538 006e 05B0     		add	sp, sp, #20
 539              		.cfi_def_cfa_offset 4
 540              		@ sp needed
 541 0070 5DF804FB 		ldr	pc, [sp], #4
 542              	.L40:
 543              		.align	2
 544              	.L39:
 545 0074 00000000 		.word	__stack_chk_guard
 546 0078 00000000 		.word	__func__.9848
 547              		.cfi_endproc
 548              	.LFE258:
 549              		.size	pwmStart, .-pwmStart
 550              		.section	.text.pwmStop,"ax",%progbits
 551              		.align	1
 552              		.p2align 4,,15
 553              		.global	pwmStop
 554              		.syntax unified
 555              		.thumb
 556              		.thumb_func
 557              		.fpu fpv4-sp-d16
 558              		.type	pwmStop, %function
 559              	pwmStop:
 560              	.LFB259:
 561              		.loc 5 111 0
 562              		.cfi_startproc
 563              		@ args = 0, pretend = 0, frame = 16
 564              		@ frame_needed = 0, uses_anonymous_args = 0
 565 0000 00B5     		push	{lr}
 566              		.cfi_def_cfa_offset 4
 567              		.cfi_offset 14, -4
 568 0002 85B0     		sub	sp, sp, #20
 569              		.cfi_def_cfa_offset 24
 570 0004 0190     		str	r0, [sp, #4]
ARM GAS  C:\Users\PCHAUT~1\AppData\Local\Temp\ccmME1xe.s 			page 11


 571              		.loc 5 111 0
 572 0006 164B     		ldr	r3, .L45
 573 0008 1B68     		ldr	r3, [r3]
 574 000a 0393     		str	r3, [sp, #12]
 575              		.loc 5 113 0
 576 000c 019B     		ldr	r3, [sp, #4]
 577 000e 002B     		cmp	r3, #0
 578 0010 02D1     		bne	.L42
 579              		.loc 5 113 0 is_stmt 0 discriminator 2
 580 0012 1448     		ldr	r0, .L45+4
 581 0014 FFF7FEFF 		bl	chSysHalt
 582              	.L42:
 583              		.loc 5 115 0 is_stmt 1
 584 0018 FFF7FEFF 		bl	osalSysLock
 585              		.loc 5 116 0
 586 001c 019B     		ldr	r3, [sp, #4]
 587 001e 1B78     		ldrb	r3, [r3]	@ zero_extendqisi2
 588 0020 012B     		cmp	r3, #1
 589 0022 06D0     		beq	.L43
 590              		.loc 5 116 0 is_stmt 0 discriminator 2
 591 0024 019B     		ldr	r3, [sp, #4]
 592 0026 1B78     		ldrb	r3, [r3]	@ zero_extendqisi2
 593 0028 022B     		cmp	r3, #2
 594 002a 02D0     		beq	.L43
 595              		.loc 5 116 0 discriminator 3
 596 002c 0D48     		ldr	r0, .L45+4
 597 002e FFF7FEFF 		bl	chSysHalt
 598              	.L43:
 599              		.loc 5 118 0 is_stmt 1
 600 0032 0198     		ldr	r0, [sp, #4]
 601 0034 FFF7FEFF 		bl	pwm_lld_stop
 602              		.loc 5 119 0
 603 0038 019B     		ldr	r3, [sp, #4]
 604 003a 0022     		movs	r2, #0
 605 003c DA60     		str	r2, [r3, #12]
 606              		.loc 5 120 0
 607 003e 019B     		ldr	r3, [sp, #4]
 608 0040 0122     		movs	r2, #1
 609 0042 1A70     		strb	r2, [r3]
 610              		.loc 5 121 0
 611 0044 FFF7FEFF 		bl	osalSysUnlock
 612              		.loc 5 122 0
 613 0048 00BF     		nop
 614 004a 054B     		ldr	r3, .L45
 615 004c 039A     		ldr	r2, [sp, #12]
 616 004e 1B68     		ldr	r3, [r3]
 617 0050 9A42     		cmp	r2, r3
 618 0052 01D0     		beq	.L44
 619 0054 FFF7FEFF 		bl	__stack_chk_fail
 620              	.L44:
 621 0058 05B0     		add	sp, sp, #20
 622              		.cfi_def_cfa_offset 4
 623              		@ sp needed
 624 005a 5DF804FB 		ldr	pc, [sp], #4
 625              	.L46:
 626 005e 00BF     		.align	2
 627              	.L45:
ARM GAS  C:\Users\PCHAUT~1\AppData\Local\Temp\ccmME1xe.s 			page 12


 628 0060 00000000 		.word	__stack_chk_guard
 629 0064 00000000 		.word	__func__.9852
 630              		.cfi_endproc
 631              	.LFE259:
 632              		.size	pwmStop, .-pwmStop
 633              		.section	.text.pwmChangePeriod,"ax",%progbits
 634              		.align	1
 635              		.p2align 4,,15
 636              		.global	pwmChangePeriod
 637              		.syntax unified
 638              		.thumb
 639              		.thumb_func
 640              		.fpu fpv4-sp-d16
 641              		.type	pwmChangePeriod, %function
 642              	pwmChangePeriod:
 643              	.LFB260:
 644              		.loc 5 139 0
 645              		.cfi_startproc
 646              		@ args = 0, pretend = 0, frame = 16
 647              		@ frame_needed = 0, uses_anonymous_args = 0
 648 0000 00B5     		push	{lr}
 649              		.cfi_def_cfa_offset 4
 650              		.cfi_offset 14, -4
 651 0002 85B0     		sub	sp, sp, #20
 652              		.cfi_def_cfa_offset 24
 653 0004 0190     		str	r0, [sp, #4]
 654 0006 0091     		str	r1, [sp]
 655              		.loc 5 139 0
 656 0008 134B     		ldr	r3, .L51
 657 000a 1B68     		ldr	r3, [r3]
 658 000c 0393     		str	r3, [sp, #12]
 659              		.loc 5 141 0
 660 000e 019B     		ldr	r3, [sp, #4]
 661 0010 002B     		cmp	r3, #0
 662 0012 02D1     		bne	.L48
 663              		.loc 5 141 0 is_stmt 0 discriminator 2
 664 0014 1148     		ldr	r0, .L51+4
 665 0016 FFF7FEFF 		bl	chSysHalt
 666              	.L48:
 667              		.loc 5 143 0 is_stmt 1
 668 001a FFF7FEFF 		bl	osalSysLock
 669              		.loc 5 144 0
 670 001e 019B     		ldr	r3, [sp, #4]
 671 0020 1B78     		ldrb	r3, [r3]	@ zero_extendqisi2
 672 0022 022B     		cmp	r3, #2
 673 0024 02D0     		beq	.L49
 674              		.loc 5 144 0 is_stmt 0 discriminator 2
 675 0026 0D48     		ldr	r0, .L51+4
 676 0028 FFF7FEFF 		bl	chSysHalt
 677              	.L49:
 678              		.loc 5 145 0 is_stmt 1
 679 002c 019B     		ldr	r3, [sp, #4]
 680 002e 009A     		ldr	r2, [sp]
 681 0030 9A60     		str	r2, [r3, #8]
 682 0032 019B     		ldr	r3, [sp, #4]
 683 0034 9B69     		ldr	r3, [r3, #24]
 684 0036 009A     		ldr	r2, [sp]
ARM GAS  C:\Users\PCHAUT~1\AppData\Local\Temp\ccmME1xe.s 			page 13


 685 0038 013A     		subs	r2, r2, #1
 686 003a DA62     		str	r2, [r3, #44]
 687              		.loc 5 146 0
 688 003c FFF7FEFF 		bl	osalSysUnlock
 689              		.loc 5 147 0
 690 0040 00BF     		nop
 691 0042 054B     		ldr	r3, .L51
 692 0044 039A     		ldr	r2, [sp, #12]
 693 0046 1B68     		ldr	r3, [r3]
 694 0048 9A42     		cmp	r2, r3
 695 004a 01D0     		beq	.L50
 696 004c FFF7FEFF 		bl	__stack_chk_fail
 697              	.L50:
 698 0050 05B0     		add	sp, sp, #20
 699              		.cfi_def_cfa_offset 4
 700              		@ sp needed
 701 0052 5DF804FB 		ldr	pc, [sp], #4
 702              	.L52:
 703 0056 00BF     		.align	2
 704              	.L51:
 705 0058 00000000 		.word	__stack_chk_guard
 706 005c 00000000 		.word	__func__.9857
 707              		.cfi_endproc
 708              	.LFE260:
 709              		.size	pwmChangePeriod, .-pwmChangePeriod
 710              		.section	.text.pwmEnableChannel,"ax",%progbits
 711              		.align	1
 712              		.p2align 4,,15
 713              		.global	pwmEnableChannel
 714              		.syntax unified
 715              		.thumb
 716              		.thumb_func
 717              		.fpu fpv4-sp-d16
 718              		.type	pwmEnableChannel, %function
 719              	pwmEnableChannel:
 720              	.LFB261:
 721              		.loc 5 165 0
 722              		.cfi_startproc
 723              		@ args = 0, pretend = 0, frame = 24
 724              		@ frame_needed = 0, uses_anonymous_args = 0
 725 0000 00B5     		push	{lr}
 726              		.cfi_def_cfa_offset 4
 727              		.cfi_offset 14, -4
 728 0002 87B0     		sub	sp, sp, #28
 729              		.cfi_def_cfa_offset 32
 730 0004 0390     		str	r0, [sp, #12]
 731 0006 0B46     		mov	r3, r1
 732 0008 0192     		str	r2, [sp, #4]
 733 000a 8DF80B30 		strb	r3, [sp, #11]
 734              		.loc 5 165 0
 735 000e 1B4B     		ldr	r3, .L58
 736 0010 1B68     		ldr	r3, [r3]
 737 0012 0593     		str	r3, [sp, #20]
 738              		.loc 5 167 0
 739 0014 039B     		ldr	r3, [sp, #12]
 740 0016 002B     		cmp	r3, #0
 741 0018 05D0     		beq	.L54
ARM GAS  C:\Users\PCHAUT~1\AppData\Local\Temp\ccmME1xe.s 			page 14


 742              		.loc 5 167 0 is_stmt 0 discriminator 3
 743 001a 039B     		ldr	r3, [sp, #12]
 744 001c 1B7C     		ldrb	r3, [r3, #16]	@ zero_extendqisi2
 745 001e 9DF80B20 		ldrb	r2, [sp, #11]	@ zero_extendqisi2
 746 0022 9A42     		cmp	r2, r3
 747 0024 02D3     		bcc	.L55
 748              	.L54:
 749              		.loc 5 167 0 discriminator 4
 750 0026 1648     		ldr	r0, .L58+4
 751 0028 FFF7FEFF 		bl	chSysHalt
 752              	.L55:
 753              		.loc 5 169 0 is_stmt 1
 754 002c FFF7FEFF 		bl	osalSysLock
 755              		.loc 5 171 0
 756 0030 039B     		ldr	r3, [sp, #12]
 757 0032 1B78     		ldrb	r3, [r3]	@ zero_extendqisi2
 758 0034 022B     		cmp	r3, #2
 759 0036 02D0     		beq	.L56
 760              		.loc 5 171 0 is_stmt 0 discriminator 2
 761 0038 1148     		ldr	r0, .L58+4
 762 003a FFF7FEFF 		bl	chSysHalt
 763              	.L56:
 764              		.loc 5 173 0 is_stmt 1
 765 003e 039B     		ldr	r3, [sp, #12]
 766 0040 DA68     		ldr	r2, [r3, #12]
 767 0042 9DF80B30 		ldrb	r3, [sp, #11]	@ zero_extendqisi2
 768 0046 0121     		movs	r1, #1
 769 0048 01FA03F3 		lsl	r3, r1, r3
 770 004c 1A43     		orrs	r2, r2, r3
 771 004e 039B     		ldr	r3, [sp, #12]
 772 0050 DA60     		str	r2, [r3, #12]
 773 0052 9DF80B30 		ldrb	r3, [sp, #11]	@ zero_extendqisi2
 774 0056 019A     		ldr	r2, [sp, #4]
 775 0058 1946     		mov	r1, r3
 776 005a 0398     		ldr	r0, [sp, #12]
 777 005c FFF7FEFF 		bl	pwm_lld_enable_channel
 778              		.loc 5 175 0
 779 0060 FFF7FEFF 		bl	osalSysUnlock
 780              		.loc 5 176 0
 781 0064 00BF     		nop
 782 0066 054B     		ldr	r3, .L58
 783 0068 059A     		ldr	r2, [sp, #20]
 784 006a 1B68     		ldr	r3, [r3]
 785 006c 9A42     		cmp	r2, r3
 786 006e 01D0     		beq	.L57
 787 0070 FFF7FEFF 		bl	__stack_chk_fail
 788              	.L57:
 789 0074 07B0     		add	sp, sp, #28
 790              		.cfi_def_cfa_offset 4
 791              		@ sp needed
 792 0076 5DF804FB 		ldr	pc, [sp], #4
 793              	.L59:
 794 007a 00BF     		.align	2
 795              	.L58:
 796 007c 00000000 		.word	__stack_chk_guard
 797 0080 00000000 		.word	__func__.9863
 798              		.cfi_endproc
ARM GAS  C:\Users\PCHAUT~1\AppData\Local\Temp\ccmME1xe.s 			page 15


 799              	.LFE261:
 800              		.size	pwmEnableChannel, .-pwmEnableChannel
 801              		.section	.text.pwmDisableChannel,"ax",%progbits
 802              		.align	1
 803              		.p2align 4,,15
 804              		.global	pwmDisableChannel
 805              		.syntax unified
 806              		.thumb
 807              		.thumb_func
 808              		.fpu fpv4-sp-d16
 809              		.type	pwmDisableChannel, %function
 810              	pwmDisableChannel:
 811              	.LFB262:
 812              		.loc 5 192 0
 813              		.cfi_startproc
 814              		@ args = 0, pretend = 0, frame = 16
 815              		@ frame_needed = 0, uses_anonymous_args = 0
 816 0000 00B5     		push	{lr}
 817              		.cfi_def_cfa_offset 4
 818              		.cfi_offset 14, -4
 819 0002 85B0     		sub	sp, sp, #20
 820              		.cfi_def_cfa_offset 24
 821 0004 0190     		str	r0, [sp, #4]
 822 0006 0B46     		mov	r3, r1
 823 0008 8DF80330 		strb	r3, [sp, #3]
 824              		.loc 5 192 0
 825 000c 1A4B     		ldr	r3, .L65
 826 000e 1B68     		ldr	r3, [r3]
 827 0010 0393     		str	r3, [sp, #12]
 828              		.loc 5 194 0
 829 0012 019B     		ldr	r3, [sp, #4]
 830 0014 002B     		cmp	r3, #0
 831 0016 05D0     		beq	.L61
 832              		.loc 5 194 0 is_stmt 0 discriminator 3
 833 0018 019B     		ldr	r3, [sp, #4]
 834 001a 1B7C     		ldrb	r3, [r3, #16]	@ zero_extendqisi2
 835 001c 9DF80320 		ldrb	r2, [sp, #3]	@ zero_extendqisi2
 836 0020 9A42     		cmp	r2, r3
 837 0022 02D3     		bcc	.L62
 838              	.L61:
 839              		.loc 5 194 0 discriminator 4
 840 0024 1548     		ldr	r0, .L65+4
 841 0026 FFF7FEFF 		bl	chSysHalt
 842              	.L62:
 843              		.loc 5 196 0 is_stmt 1
 844 002a FFF7FEFF 		bl	osalSysLock
 845              		.loc 5 198 0
 846 002e 019B     		ldr	r3, [sp, #4]
 847 0030 1B78     		ldrb	r3, [r3]	@ zero_extendqisi2
 848 0032 022B     		cmp	r3, #2
 849 0034 02D0     		beq	.L63
 850              		.loc 5 198 0 is_stmt 0 discriminator 2
 851 0036 1148     		ldr	r0, .L65+4
 852 0038 FFF7FEFF 		bl	chSysHalt
 853              	.L63:
 854              		.loc 5 200 0 is_stmt 1
 855 003c 019B     		ldr	r3, [sp, #4]
ARM GAS  C:\Users\PCHAUT~1\AppData\Local\Temp\ccmME1xe.s 			page 16


 856 003e DA68     		ldr	r2, [r3, #12]
 857 0040 9DF80330 		ldrb	r3, [sp, #3]	@ zero_extendqisi2
 858 0044 0121     		movs	r1, #1
 859 0046 01FA03F3 		lsl	r3, r1, r3
 860 004a DB43     		mvns	r3, r3
 861 004c 1A40     		ands	r2, r2, r3
 862 004e 019B     		ldr	r3, [sp, #4]
 863 0050 DA60     		str	r2, [r3, #12]
 864 0052 9DF80330 		ldrb	r3, [sp, #3]	@ zero_extendqisi2
 865 0056 1946     		mov	r1, r3
 866 0058 0198     		ldr	r0, [sp, #4]
 867 005a FFF7FEFF 		bl	pwm_lld_disable_channel
 868              		.loc 5 202 0
 869 005e FFF7FEFF 		bl	osalSysUnlock
 870              		.loc 5 203 0
 871 0062 00BF     		nop
 872 0064 044B     		ldr	r3, .L65
 873 0066 039A     		ldr	r2, [sp, #12]
 874 0068 1B68     		ldr	r3, [r3]
 875 006a 9A42     		cmp	r2, r3
 876 006c 01D0     		beq	.L64
 877 006e FFF7FEFF 		bl	__stack_chk_fail
 878              	.L64:
 879 0072 05B0     		add	sp, sp, #20
 880              		.cfi_def_cfa_offset 4
 881              		@ sp needed
 882 0074 5DF804FB 		ldr	pc, [sp], #4
 883              	.L66:
 884              		.align	2
 885              	.L65:
 886 0078 00000000 		.word	__stack_chk_guard
 887 007c 00000000 		.word	__func__.9868
 888              		.cfi_endproc
 889              	.LFE262:
 890              		.size	pwmDisableChannel, .-pwmDisableChannel
 891              		.section	.text.pwmEnablePeriodicNotification,"ax",%progbits
 892              		.align	1
 893              		.p2align 4,,15
 894              		.global	pwmEnablePeriodicNotification
 895              		.syntax unified
 896              		.thumb
 897              		.thumb_func
 898              		.fpu fpv4-sp-d16
 899              		.type	pwmEnablePeriodicNotification, %function
 900              	pwmEnablePeriodicNotification:
 901              	.LFB263:
 902              		.loc 5 214 0
 903              		.cfi_startproc
 904              		@ args = 0, pretend = 0, frame = 16
 905              		@ frame_needed = 0, uses_anonymous_args = 0
 906 0000 00B5     		push	{lr}
 907              		.cfi_def_cfa_offset 4
 908              		.cfi_offset 14, -4
 909 0002 85B0     		sub	sp, sp, #20
 910              		.cfi_def_cfa_offset 24
 911 0004 0190     		str	r0, [sp, #4]
 912              		.loc 5 214 0
ARM GAS  C:\Users\PCHAUT~1\AppData\Local\Temp\ccmME1xe.s 			page 17


 913 0006 154B     		ldr	r3, .L73
 914 0008 1B68     		ldr	r3, [r3]
 915 000a 0393     		str	r3, [sp, #12]
 916              		.loc 5 216 0
 917 000c 019B     		ldr	r3, [sp, #4]
 918 000e 002B     		cmp	r3, #0
 919 0010 02D1     		bne	.L68
 920              		.loc 5 216 0 is_stmt 0 discriminator 2
 921 0012 1348     		ldr	r0, .L73+4
 922 0014 FFF7FEFF 		bl	chSysHalt
 923              	.L68:
 924              		.loc 5 218 0 is_stmt 1
 925 0018 FFF7FEFF 		bl	osalSysLock
 926              		.loc 5 220 0
 927 001c 019B     		ldr	r3, [sp, #4]
 928 001e 1B78     		ldrb	r3, [r3]	@ zero_extendqisi2
 929 0020 022B     		cmp	r3, #2
 930 0022 02D0     		beq	.L72
 931              		.loc 5 220 0 is_stmt 0 discriminator 2
 932 0024 0E48     		ldr	r0, .L73+4
 933 0026 FFF7FEFF 		bl	chSysHalt
 934              	.L72:
 935              		.loc 5 221 0 is_stmt 1 discriminator 1
 936 002a 019B     		ldr	r3, [sp, #4]
 937 002c 5B68     		ldr	r3, [r3, #4]
 938 002e 9B68     		ldr	r3, [r3, #8]
 939 0030 002B     		cmp	r3, #0
 940 0032 02D1     		bne	.L70
 941              		.loc 5 221 0 is_stmt 0 discriminator 2
 942 0034 0A48     		ldr	r0, .L73+4
 943 0036 FFF7FEFF 		bl	chSysHalt
 944              	.L70:
 945              		.loc 5 223 0 is_stmt 1
 946 003a 0198     		ldr	r0, [sp, #4]
 947 003c FFF7FEFF 		bl	pwm_lld_enable_periodic_notification
 948              		.loc 5 225 0
 949 0040 FFF7FEFF 		bl	osalSysUnlock
 950              		.loc 5 226 0
 951 0044 00BF     		nop
 952 0046 054B     		ldr	r3, .L73
 953 0048 039A     		ldr	r2, [sp, #12]
 954 004a 1B68     		ldr	r3, [r3]
 955 004c 9A42     		cmp	r2, r3
 956 004e 01D0     		beq	.L71
 957 0050 FFF7FEFF 		bl	__stack_chk_fail
 958              	.L71:
 959 0054 05B0     		add	sp, sp, #20
 960              		.cfi_def_cfa_offset 4
 961              		@ sp needed
 962 0056 5DF804FB 		ldr	pc, [sp], #4
 963              	.L74:
 964 005a 00BF     		.align	2
 965              	.L73:
 966 005c 00000000 		.word	__stack_chk_guard
 967 0060 00000000 		.word	__func__.9872
 968              		.cfi_endproc
 969              	.LFE263:
ARM GAS  C:\Users\PCHAUT~1\AppData\Local\Temp\ccmME1xe.s 			page 18


 970              		.size	pwmEnablePeriodicNotification, .-pwmEnablePeriodicNotification
 971              		.section	.text.pwmDisablePeriodicNotification,"ax",%progbits
 972              		.align	1
 973              		.p2align 4,,15
 974              		.global	pwmDisablePeriodicNotification
 975              		.syntax unified
 976              		.thumb
 977              		.thumb_func
 978              		.fpu fpv4-sp-d16
 979              		.type	pwmDisablePeriodicNotification, %function
 980              	pwmDisablePeriodicNotification:
 981              	.LFB264:
 982              		.loc 5 237 0
 983              		.cfi_startproc
 984              		@ args = 0, pretend = 0, frame = 16
 985              		@ frame_needed = 0, uses_anonymous_args = 0
 986 0000 00B5     		push	{lr}
 987              		.cfi_def_cfa_offset 4
 988              		.cfi_offset 14, -4
 989 0002 85B0     		sub	sp, sp, #20
 990              		.cfi_def_cfa_offset 24
 991 0004 0190     		str	r0, [sp, #4]
 992              		.loc 5 237 0
 993 0006 154B     		ldr	r3, .L81
 994 0008 1B68     		ldr	r3, [r3]
 995 000a 0393     		str	r3, [sp, #12]
 996              		.loc 5 239 0
 997 000c 019B     		ldr	r3, [sp, #4]
 998 000e 002B     		cmp	r3, #0
 999 0010 02D1     		bne	.L76
 1000              		.loc 5 239 0 is_stmt 0 discriminator 2
 1001 0012 1348     		ldr	r0, .L81+4
 1002 0014 FFF7FEFF 		bl	chSysHalt
 1003              	.L76:
 1004              		.loc 5 241 0 is_stmt 1
 1005 0018 FFF7FEFF 		bl	osalSysLock
 1006              		.loc 5 243 0
 1007 001c 019B     		ldr	r3, [sp, #4]
 1008 001e 1B78     		ldrb	r3, [r3]	@ zero_extendqisi2
 1009 0020 022B     		cmp	r3, #2
 1010 0022 02D0     		beq	.L80
 1011              		.loc 5 243 0 is_stmt 0 discriminator 2
 1012 0024 0E48     		ldr	r0, .L81+4
 1013 0026 FFF7FEFF 		bl	chSysHalt
 1014              	.L80:
 1015              		.loc 5 244 0 is_stmt 1 discriminator 1
 1016 002a 019B     		ldr	r3, [sp, #4]
 1017 002c 5B68     		ldr	r3, [r3, #4]
 1018 002e 9B68     		ldr	r3, [r3, #8]
 1019 0030 002B     		cmp	r3, #0
 1020 0032 02D1     		bne	.L78
 1021              		.loc 5 244 0 is_stmt 0 discriminator 2
 1022 0034 0A48     		ldr	r0, .L81+4
 1023 0036 FFF7FEFF 		bl	chSysHalt
 1024              	.L78:
 1025              		.loc 5 246 0 is_stmt 1
 1026 003a 0198     		ldr	r0, [sp, #4]
ARM GAS  C:\Users\PCHAUT~1\AppData\Local\Temp\ccmME1xe.s 			page 19


 1027 003c FFF7FEFF 		bl	pwm_lld_disable_periodic_notification
 1028              		.loc 5 248 0
 1029 0040 FFF7FEFF 		bl	osalSysUnlock
 1030              		.loc 5 249 0
 1031 0044 00BF     		nop
 1032 0046 054B     		ldr	r3, .L81
 1033 0048 039A     		ldr	r2, [sp, #12]
 1034 004a 1B68     		ldr	r3, [r3]
 1035 004c 9A42     		cmp	r2, r3
 1036 004e 01D0     		beq	.L79
 1037 0050 FFF7FEFF 		bl	__stack_chk_fail
 1038              	.L79:
 1039 0054 05B0     		add	sp, sp, #20
 1040              		.cfi_def_cfa_offset 4
 1041              		@ sp needed
 1042 0056 5DF804FB 		ldr	pc, [sp], #4
 1043              	.L82:
 1044 005a 00BF     		.align	2
 1045              	.L81:
 1046 005c 00000000 		.word	__stack_chk_guard
 1047 0060 00000000 		.word	__func__.9876
 1048              		.cfi_endproc
 1049              	.LFE264:
 1050              		.size	pwmDisablePeriodicNotification, .-pwmDisablePeriodicNotification
 1051              		.section	.text.pwmEnableChannelNotification,"ax",%progbits
 1052              		.align	1
 1053              		.p2align 4,,15
 1054              		.global	pwmEnableChannelNotification
 1055              		.syntax unified
 1056              		.thumb
 1057              		.thumb_func
 1058              		.fpu fpv4-sp-d16
 1059              		.type	pwmEnableChannelNotification, %function
 1060              	pwmEnableChannelNotification:
 1061              	.LFB265:
 1062              		.loc 5 262 0
 1063              		.cfi_startproc
 1064              		@ args = 0, pretend = 0, frame = 16
 1065              		@ frame_needed = 0, uses_anonymous_args = 0
 1066 0000 00B5     		push	{lr}
 1067              		.cfi_def_cfa_offset 4
 1068              		.cfi_offset 14, -4
 1069 0002 85B0     		sub	sp, sp, #20
 1070              		.cfi_def_cfa_offset 24
 1071 0004 0190     		str	r0, [sp, #4]
 1072 0006 0B46     		mov	r3, r1
 1073 0008 8DF80330 		strb	r3, [sp, #3]
 1074              		.loc 5 262 0
 1075 000c 224B     		ldr	r3, .L92
 1076 000e 1B68     		ldr	r3, [r3]
 1077 0010 0393     		str	r3, [sp, #12]
 1078              		.loc 5 264 0
 1079 0012 019B     		ldr	r3, [sp, #4]
 1080 0014 002B     		cmp	r3, #0
 1081 0016 05D0     		beq	.L84
 1082              		.loc 5 264 0 is_stmt 0 discriminator 3
 1083 0018 019B     		ldr	r3, [sp, #4]
ARM GAS  C:\Users\PCHAUT~1\AppData\Local\Temp\ccmME1xe.s 			page 20


 1084 001a 1B7C     		ldrb	r3, [r3, #16]	@ zero_extendqisi2
 1085 001c 9DF80320 		ldrb	r2, [sp, #3]	@ zero_extendqisi2
 1086 0020 9A42     		cmp	r2, r3
 1087 0022 02D3     		bcc	.L85
 1088              	.L84:
 1089              		.loc 5 264 0 discriminator 4
 1090 0024 1D48     		ldr	r0, .L92+4
 1091 0026 FFF7FEFF 		bl	chSysHalt
 1092              	.L85:
 1093              		.loc 5 266 0 is_stmt 1
 1094 002a FFF7FEFF 		bl	osalSysLock
 1095              		.loc 5 268 0
 1096 002e 019B     		ldr	r3, [sp, #4]
 1097 0030 1B78     		ldrb	r3, [r3]	@ zero_extendqisi2
 1098 0032 022B     		cmp	r3, #2
 1099 0034 02D0     		beq	.L90
 1100              		.loc 5 268 0 is_stmt 0 discriminator 2
 1101 0036 1948     		ldr	r0, .L92+4
 1102 0038 FFF7FEFF 		bl	chSysHalt
 1103              	.L90:
 1104              		.loc 5 269 0 is_stmt 1 discriminator 1
 1105 003c 019B     		ldr	r3, [sp, #4]
 1106 003e DA68     		ldr	r2, [r3, #12]
 1107 0040 9DF80330 		ldrb	r3, [sp, #3]	@ zero_extendqisi2
 1108 0044 22FA03F3 		lsr	r3, r2, r3
 1109 0048 03F00103 		and	r3, r3, #1
 1110 004c 002B     		cmp	r3, #0
 1111 004e 02D1     		bne	.L91
 1112              		.loc 5 269 0 is_stmt 0 discriminator 2
 1113 0050 1248     		ldr	r0, .L92+4
 1114 0052 FFF7FEFF 		bl	chSysHalt
 1115              	.L91:
 1116              		.loc 5 271 0 is_stmt 1 discriminator 1
 1117 0056 019B     		ldr	r3, [sp, #4]
 1118 0058 5A68     		ldr	r2, [r3, #4]
 1119 005a 9DF80330 		ldrb	r3, [sp, #3]	@ zero_extendqisi2
 1120 005e 0133     		adds	r3, r3, #1
 1121 0060 DB00     		lsls	r3, r3, #3
 1122 0062 1344     		add	r3, r3, r2
 1123 0064 9B68     		ldr	r3, [r3, #8]
 1124 0066 002B     		cmp	r3, #0
 1125 0068 02D1     		bne	.L88
 1126              		.loc 5 271 0 is_stmt 0 discriminator 2
 1127 006a 0C48     		ldr	r0, .L92+4
 1128 006c FFF7FEFF 		bl	chSysHalt
 1129              	.L88:
 1130              		.loc 5 274 0 is_stmt 1
 1131 0070 9DF80330 		ldrb	r3, [sp, #3]	@ zero_extendqisi2
 1132 0074 1946     		mov	r1, r3
 1133 0076 0198     		ldr	r0, [sp, #4]
 1134 0078 FFF7FEFF 		bl	pwm_lld_enable_channel_notification
 1135              		.loc 5 276 0
 1136 007c FFF7FEFF 		bl	osalSysUnlock
 1137              		.loc 5 277 0
 1138 0080 00BF     		nop
 1139 0082 054B     		ldr	r3, .L92
 1140 0084 039A     		ldr	r2, [sp, #12]
ARM GAS  C:\Users\PCHAUT~1\AppData\Local\Temp\ccmME1xe.s 			page 21


 1141 0086 1B68     		ldr	r3, [r3]
 1142 0088 9A42     		cmp	r2, r3
 1143 008a 01D0     		beq	.L89
 1144 008c FFF7FEFF 		bl	__stack_chk_fail
 1145              	.L89:
 1146 0090 05B0     		add	sp, sp, #20
 1147              		.cfi_def_cfa_offset 4
 1148              		@ sp needed
 1149 0092 5DF804FB 		ldr	pc, [sp], #4
 1150              	.L93:
 1151 0096 00BF     		.align	2
 1152              	.L92:
 1153 0098 00000000 		.word	__stack_chk_guard
 1154 009c 00000000 		.word	__func__.9881
 1155              		.cfi_endproc
 1156              	.LFE265:
 1157              		.size	pwmEnableChannelNotification, .-pwmEnableChannelNotification
 1158              		.section	.text.pwmDisableChannelNotification,"ax",%progbits
 1159              		.align	1
 1160              		.p2align 4,,15
 1161              		.global	pwmDisableChannelNotification
 1162              		.syntax unified
 1163              		.thumb
 1164              		.thumb_func
 1165              		.fpu fpv4-sp-d16
 1166              		.type	pwmDisableChannelNotification, %function
 1167              	pwmDisableChannelNotification:
 1168              	.LFB266:
 1169              		.loc 5 290 0
 1170              		.cfi_startproc
 1171              		@ args = 0, pretend = 0, frame = 16
 1172              		@ frame_needed = 0, uses_anonymous_args = 0
 1173 0000 00B5     		push	{lr}
 1174              		.cfi_def_cfa_offset 4
 1175              		.cfi_offset 14, -4
 1176 0002 85B0     		sub	sp, sp, #20
 1177              		.cfi_def_cfa_offset 24
 1178 0004 0190     		str	r0, [sp, #4]
 1179 0006 0B46     		mov	r3, r1
 1180 0008 8DF80330 		strb	r3, [sp, #3]
 1181              		.loc 5 290 0
 1182 000c 224B     		ldr	r3, .L103
 1183 000e 1B68     		ldr	r3, [r3]
 1184 0010 0393     		str	r3, [sp, #12]
 1185              		.loc 5 292 0
 1186 0012 019B     		ldr	r3, [sp, #4]
 1187 0014 002B     		cmp	r3, #0
 1188 0016 05D0     		beq	.L95
 1189              		.loc 5 292 0 is_stmt 0 discriminator 3
 1190 0018 019B     		ldr	r3, [sp, #4]
 1191 001a 1B7C     		ldrb	r3, [r3, #16]	@ zero_extendqisi2
 1192 001c 9DF80320 		ldrb	r2, [sp, #3]	@ zero_extendqisi2
 1193 0020 9A42     		cmp	r2, r3
 1194 0022 02D3     		bcc	.L96
 1195              	.L95:
 1196              		.loc 5 292 0 discriminator 4
 1197 0024 1D48     		ldr	r0, .L103+4
ARM GAS  C:\Users\PCHAUT~1\AppData\Local\Temp\ccmME1xe.s 			page 22


 1198 0026 FFF7FEFF 		bl	chSysHalt
 1199              	.L96:
 1200              		.loc 5 294 0 is_stmt 1
 1201 002a FFF7FEFF 		bl	osalSysLock
 1202              		.loc 5 296 0
 1203 002e 019B     		ldr	r3, [sp, #4]
 1204 0030 1B78     		ldrb	r3, [r3]	@ zero_extendqisi2
 1205 0032 022B     		cmp	r3, #2
 1206 0034 02D0     		beq	.L101
 1207              		.loc 5 296 0 is_stmt 0 discriminator 2
 1208 0036 1948     		ldr	r0, .L103+4
 1209 0038 FFF7FEFF 		bl	chSysHalt
 1210              	.L101:
 1211              		.loc 5 297 0 is_stmt 1 discriminator 1
 1212 003c 019B     		ldr	r3, [sp, #4]
 1213 003e DA68     		ldr	r2, [r3, #12]
 1214 0040 9DF80330 		ldrb	r3, [sp, #3]	@ zero_extendqisi2
 1215 0044 22FA03F3 		lsr	r3, r2, r3
 1216 0048 03F00103 		and	r3, r3, #1
 1217 004c 002B     		cmp	r3, #0
 1218 004e 02D1     		bne	.L102
 1219              		.loc 5 297 0 is_stmt 0 discriminator 2
 1220 0050 1248     		ldr	r0, .L103+4
 1221 0052 FFF7FEFF 		bl	chSysHalt
 1222              	.L102:
 1223              		.loc 5 299 0 is_stmt 1 discriminator 1
 1224 0056 019B     		ldr	r3, [sp, #4]
 1225 0058 5A68     		ldr	r2, [r3, #4]
 1226 005a 9DF80330 		ldrb	r3, [sp, #3]	@ zero_extendqisi2
 1227 005e 0133     		adds	r3, r3, #1
 1228 0060 DB00     		lsls	r3, r3, #3
 1229 0062 1344     		add	r3, r3, r2
 1230 0064 9B68     		ldr	r3, [r3, #8]
 1231 0066 002B     		cmp	r3, #0
 1232 0068 02D1     		bne	.L99
 1233              		.loc 5 299 0 is_stmt 0 discriminator 2
 1234 006a 0C48     		ldr	r0, .L103+4
 1235 006c FFF7FEFF 		bl	chSysHalt
 1236              	.L99:
 1237              		.loc 5 302 0 is_stmt 1
 1238 0070 9DF80330 		ldrb	r3, [sp, #3]	@ zero_extendqisi2
 1239 0074 1946     		mov	r1, r3
 1240 0076 0198     		ldr	r0, [sp, #4]
 1241 0078 FFF7FEFF 		bl	pwm_lld_disable_channel_notification
 1242              		.loc 5 304 0
 1243 007c FFF7FEFF 		bl	osalSysUnlock
 1244              		.loc 5 305 0
 1245 0080 00BF     		nop
 1246 0082 054B     		ldr	r3, .L103
 1247 0084 039A     		ldr	r2, [sp, #12]
 1248 0086 1B68     		ldr	r3, [r3]
 1249 0088 9A42     		cmp	r2, r3
 1250 008a 01D0     		beq	.L100
 1251 008c FFF7FEFF 		bl	__stack_chk_fail
 1252              	.L100:
 1253 0090 05B0     		add	sp, sp, #20
 1254              		.cfi_def_cfa_offset 4
ARM GAS  C:\Users\PCHAUT~1\AppData\Local\Temp\ccmME1xe.s 			page 23


 1255              		@ sp needed
 1256 0092 5DF804FB 		ldr	pc, [sp], #4
 1257              	.L104:
 1258 0096 00BF     		.align	2
 1259              	.L103:
 1260 0098 00000000 		.word	__stack_chk_guard
 1261 009c 00000000 		.word	__func__.9886
 1262              		.cfi_endproc
 1263              	.LFE266:
 1264              		.size	pwmDisableChannelNotification, .-pwmDisableChannelNotification
 1265              		.section	.rodata.__func__.9848,"a",%progbits
 1266              		.align	2
 1267              		.type	__func__.9848, %object
 1268              		.size	__func__.9848, 9
 1269              	__func__.9848:
 1270 0000 70776D53 		.ascii	"pwmStart\000"
 1270      74617274 
 1270      00
 1271              		.section	.rodata.__func__.7153,"a",%progbits
 1272              		.align	2
 1273              		.type	__func__.7153, %object
 1274              		.size	__func__.7153, 12
 1275              	__func__.7153:
 1276 0000 63685379 		.ascii	"chSysUnlock\000"
 1276      73556E6C 
 1276      6F636B00 
 1277              		.section	.rodata.__func__.9852,"a",%progbits
 1278              		.align	2
 1279              		.type	__func__.9852, %object
 1280              		.size	__func__.9852, 8
 1281              	__func__.9852:
 1282 0000 70776D53 		.ascii	"pwmStop\000"
 1282      746F7000 
 1283              		.section	.rodata.__func__.9857,"a",%progbits
 1284              		.align	2
 1285              		.type	__func__.9857, %object
 1286              		.size	__func__.9857, 16
 1287              	__func__.9857:
 1288 0000 70776D43 		.ascii	"pwmChangePeriod\000"
 1288      68616E67 
 1288      65506572 
 1288      696F6400 
 1289              		.section	.rodata.__func__.9863,"a",%progbits
 1290              		.align	2
 1291              		.type	__func__.9863, %object
 1292              		.size	__func__.9863, 17
 1293              	__func__.9863:
 1294 0000 70776D45 		.ascii	"pwmEnableChannel\000"
 1294      6E61626C 
 1294      65436861 
 1294      6E6E656C 
 1294      00
 1295              		.section	.rodata.__func__.9868,"a",%progbits
 1296              		.align	2
 1297              		.type	__func__.9868, %object
 1298              		.size	__func__.9868, 18
 1299              	__func__.9868:
ARM GAS  C:\Users\PCHAUT~1\AppData\Local\Temp\ccmME1xe.s 			page 24


 1300 0000 70776D44 		.ascii	"pwmDisableChannel\000"
 1300      69736162 
 1300      6C654368 
 1300      616E6E65 
 1300      6C00
 1301              		.section	.rodata.__func__.9872,"a",%progbits
 1302              		.align	2
 1303              		.type	__func__.9872, %object
 1304              		.size	__func__.9872, 30
 1305              	__func__.9872:
 1306 0000 70776D45 		.ascii	"pwmEnablePeriodicNotification\000"
 1306      6E61626C 
 1306      65506572 
 1306      696F6469 
 1306      634E6F74 
 1307              		.section	.rodata.__func__.9876,"a",%progbits
 1308              		.align	2
 1309              		.type	__func__.9876, %object
 1310              		.size	__func__.9876, 31
 1311              	__func__.9876:
 1312 0000 70776D44 		.ascii	"pwmDisablePeriodicNotification\000"
 1312      69736162 
 1312      6C655065 
 1312      72696F64 
 1312      69634E6F 
 1313              		.section	.rodata.__func__.9881,"a",%progbits
 1314              		.align	2
 1315              		.type	__func__.9881, %object
 1316              		.size	__func__.9881, 29
 1317              	__func__.9881:
 1318 0000 70776D45 		.ascii	"pwmEnableChannelNotification\000"
 1318      6E61626C 
 1318      65436861 
 1318      6E6E656C 
 1318      4E6F7469 
 1319              		.section	.rodata.__func__.9886,"a",%progbits
 1320              		.align	2
 1321              		.type	__func__.9886, %object
 1322              		.size	__func__.9886, 30
 1323              	__func__.9886:
 1324 0000 70776D44 		.ascii	"pwmDisableChannelNotification\000"
 1324      69736162 
 1324      6C654368 
 1324      616E6E65 
 1324      6C4E6F74 
 1325              		.text
 1326              	.Letext0:
 1327              		.file 6 "c:\\users\\pchautems\\documents\\robotiquetp\\eclipse_e-puck2\\tools\\gcc-arm-none-eabi-7
 1328              		.file 7 "c:\\users\\pchautems\\documents\\robotiquetp\\eclipse_e-puck2\\tools\\gcc-arm-none-eabi-7
 1329              		.file 8 "c:\\users\\pchautems\\documents\\robotiquetp\\eclipse_e-puck2\\tools\\gcc-arm-none-eabi-7
 1330              		.file 9 "../lib/e-puck2_main-processor/ChibiOS//os/rt/ports/ARMCMx/compilers/GCC/chtypes.h"
 1331              		.file 10 "../lib/e-puck2_main-processor/ChibiOS//os/rt/include/chsystypes.h"
 1332              		.file 11 "../lib/e-puck2_main-processor/ChibiOS//os/rt/include/chschd.h"
 1333              		.file 12 "../lib/e-puck2_main-processor/ChibiOS//os/ext/CMSIS/include/core_cm4.h"
 1334              		.file 13 "../lib/e-puck2_main-processor/ChibiOS//os/ext/CMSIS/ST/system_stm32f4xx.h"
 1335              		.file 14 "../lib/e-puck2_main-processor/ChibiOS//os/ext/CMSIS/ST/stm32f407xx.h"
 1336              		.file 15 "../lib/e-puck2_main-processor/ChibiOS//os/rt/ports/ARMCMx/chcore.h"
ARM GAS  C:\Users\PCHAUT~1\AppData\Local\Temp\ccmME1xe.s 			page 25


 1337              		.file 16 "../lib/e-puck2_main-processor/ChibiOS//os/rt/include/chdebug.h"
 1338              		.file 17 "../lib/e-puck2_main-processor/ChibiOS//os/rt/include/chtm.h"
 1339              		.file 18 "../lib/e-puck2_main-processor/ChibiOS//os/rt/include/chstats.h"
 1340              		.file 19 "../lib/e-puck2_main-processor/ChibiOS//os/rt/include/chsem.h"
 1341              		.file 20 "../lib/e-puck2_main-processor/ChibiOS//os/rt/include/chmtx.h"
 1342              		.file 21 "../lib/e-puck2_main-processor/ChibiOS//os/rt/include/chregistry.h"
 1343              		.file 22 "../lib/e-puck2_main-processor/ChibiOS//os/rt/include/chevents.h"
 1344              		.file 23 "../lib/e-puck2_main-processor/ChibiOS//os/rt/include/chqueues.h"
 1345              		.file 24 "../lib/e-puck2_main-processor/ChibiOS//os/hal/ports/STM32/STM32F4xx/stm32_dma.h"
 1346              		.file 25 "../lib/e-puck2_main-processor/ChibiOS//os/hal/include/hal_ioblock.h"
 1347              		.file 26 "../lib/e-puck2_main-processor/ChibiOS//os/hal/ports/STM32/LLD/GPIOv2/pal_lld.h"
 1348              		.file 27 "../lib/e-puck2_main-processor/ChibiOS//os/hal/include/adc.h"
 1349              		.file 28 "../lib/e-puck2_main-processor/ChibiOS//os/hal/ports/STM32/STM32F4xx/adc_lld.h"
 1350              		.file 29 "../lib/e-puck2_main-processor/ChibiOS//os/hal/include/can.h"
 1351              		.file 30 "../lib/e-puck2_main-processor/ChibiOS//os/hal/ports/STM32/LLD/can_lld.h"
 1352              		.file 31 "../lib/e-puck2_main-processor/ChibiOS//os/hal/include/dac.h"
 1353              		.file 32 "../lib/e-puck2_main-processor/ChibiOS//os/hal/ports/STM32/LLD/DACv1/dac_lld.h"
 1354              		.file 33 "../lib/e-puck2_main-processor/ChibiOS//os/hal/include/ext.h"
 1355              		.file 34 "../lib/e-puck2_main-processor/ChibiOS//os/hal/ports/STM32/LLD/ext_lld.h"
 1356              		.file 35 "../lib/e-puck2_main-processor/ChibiOS//os/hal/include/gpt.h"
 1357              		.file 36 "../lib/e-puck2_main-processor/ChibiOS//os/hal/ports/STM32/LLD/TIMv1/gpt_lld.h"
 1358              		.file 37 "../lib/e-puck2_main-processor/ChibiOS//os/hal/ports/STM32/LLD/TIMv1/stm32_tim.h"
 1359              		.file 38 "../lib/e-puck2_main-processor/ChibiOS//os/hal/include/i2c.h"
 1360              		.file 39 "../lib/e-puck2_main-processor/ChibiOS//os/hal/ports/STM32/LLD/I2Cv1/i2c_lld.h"
 1361              		.file 40 "../lib/e-puck2_main-processor/ChibiOS//os/hal/include/i2s.h"
 1362              		.file 41 "../lib/e-puck2_main-processor/ChibiOS//os/hal/ports/STM32/LLD/SPIv1/i2s_lld.h"
 1363              		.file 42 "../lib/e-puck2_main-processor/ChibiOS//os/hal/include/pwm.h"
 1364              		.file 43 "../lib/e-puck2_main-processor/ChibiOS//os/hal/ports/STM32/LLD/TIMv1/pwm_lld.h"
 1365              		.file 44 "../lib/e-puck2_main-processor/ChibiOS//os/hal/include/serial.h"
 1366              		.file 45 "../lib/e-puck2_main-processor/ChibiOS//os/hal/ports/STM32/LLD/USARTv1/serial_lld.h"
 1367              		.file 46 "../lib/e-puck2_main-processor/ChibiOS//os/hal/include/sdc.h"
 1368              		.file 47 "../lib/e-puck2_main-processor/ChibiOS//os/hal/ports/STM32/LLD/sdc_lld.h"
 1369              		.file 48 "../lib/e-puck2_main-processor/ChibiOS//os/hal/include/spi.h"
 1370              		.file 49 "../lib/e-puck2_main-processor/ChibiOS//os/hal/ports/STM32/LLD/SPIv1/spi_lld.h"
 1371              		.file 50 "../lib/e-puck2_main-processor/ChibiOS//os/hal/include/usb.h"
 1372              		.file 51 "../lib/e-puck2_main-processor/ChibiOS//os/hal/ports/STM32/LLD/OTGv1/usb_lld.h"
 1373              		.file 52 "../lib/e-puck2_main-processor/ChibiOS//os/hal/ports/STM32/LLD/OTGv1/stm32_otg.h"