ARM GAS  C:\Users\PCHAUT~1\AppData\Local\Temp\ccTMeLh4.s 			page 1


   1              		.cpu cortex-m4
   2              		.eabi_attribute 27, 1
   3              		.eabi_attribute 28, 1
   4              		.eabi_attribute 20, 1
   5              		.eabi_attribute 21, 1
   6              		.eabi_attribute 23, 3
   7              		.eabi_attribute 24, 1
   8              		.eabi_attribute 25, 1
   9              		.eabi_attribute 26, 1
  10              		.eabi_attribute 30, 6
  11              		.eabi_attribute 34, 1
  12              		.eabi_attribute 18, 4
  13              		.file	"pwm_lld.c"
  14              		.text
  15              	.Ltext0:
  16              		.cfi_sections	.debug_frame
  17              		.global	PWMD2
  18              		.section	.bss.PWMD2,"aw",%nobits
  19              		.align	2
  20              		.type	PWMD2, %object
  21              		.size	PWMD2, 28
  22              	PWMD2:
  23 0000 00000000 		.space	28
  23      00000000 
  23      00000000 
  23      00000000 
  23      00000000 
  24              		.global	PWMD3
  25              		.section	.bss.PWMD3,"aw",%nobits
  26              		.align	2
  27              		.type	PWMD3, %object
  28              		.size	PWMD3, 28
  29              	PWMD3:
  30 0000 00000000 		.space	28
  30      00000000 
  30      00000000 
  30      00000000 
  30      00000000 
  31              		.global	PWMD4
  32              		.section	.bss.PWMD4,"aw",%nobits
  33              		.align	2
  34              		.type	PWMD4, %object
  35              		.size	PWMD4, 28
  36              	PWMD4:
  37 0000 00000000 		.space	28
  37      00000000 
  37      00000000 
  37      00000000 
  37      00000000 
  38              		.global	PWMD5
  39              		.section	.bss.PWMD5,"aw",%nobits
  40              		.align	2
  41              		.type	PWMD5, %object
  42              		.size	PWMD5, 28
  43              	PWMD5:
  44 0000 00000000 		.space	28
  44      00000000 
ARM GAS  C:\Users\PCHAUT~1\AppData\Local\Temp\ccTMeLh4.s 			page 2


  44      00000000 
  44      00000000 
  44      00000000 
  45              		.section	.text.pwm_lld_serve_interrupt,"ax",%progbits
  46              		.align	1
  47              		.p2align 4,,15
  48              		.syntax unified
  49              		.thumb
  50              		.thumb_func
  51              		.fpu fpv4-sp-d16
  52              		.type	pwm_lld_serve_interrupt, %function
  53              	pwm_lld_serve_interrupt:
  54              	.LFB256:
  55              		.file 1 "../lib/e-puck2_main-processor/ChibiOS//os/hal/ports/STM32/LLD/TIMv1/pwm_lld.c"
  56              		.loc 1 111 0
  57              		.cfi_startproc
  58              		@ args = 0, pretend = 0, frame = 16
  59              		@ frame_needed = 0, uses_anonymous_args = 0
  60 0000 00B5     		push	{lr}
  61              		.cfi_def_cfa_offset 4
  62              		.cfi_offset 14, -4
  63 0002 85B0     		sub	sp, sp, #20
  64              		.cfi_def_cfa_offset 24
  65 0004 0190     		str	r0, [sp, #4]
  66              		.loc 1 111 0
  67 0006 344B     		ldr	r3, .L9
  68 0008 1B68     		ldr	r3, [r3]
  69 000a 0393     		str	r3, [sp, #12]
  70              		.loc 1 114 0
  71 000c 019B     		ldr	r3, [sp, #4]
  72 000e 9B69     		ldr	r3, [r3, #24]
  73 0010 1B69     		ldr	r3, [r3, #16]
  74 0012 0293     		str	r3, [sp, #8]
  75              		.loc 1 115 0
  76 0014 019B     		ldr	r3, [sp, #4]
  77 0016 9B69     		ldr	r3, [r3, #24]
  78 0018 DB68     		ldr	r3, [r3, #12]
  79 001a DBB2     		uxtb	r3, r3
  80 001c 029A     		ldr	r2, [sp, #8]
  81 001e 1340     		ands	r3, r3, r2
  82 0020 0293     		str	r3, [sp, #8]
  83              		.loc 1 116 0
  84 0022 019B     		ldr	r3, [sp, #4]
  85 0024 9B69     		ldr	r3, [r3, #24]
  86 0026 029A     		ldr	r2, [sp, #8]
  87 0028 D243     		mvns	r2, r2
  88 002a 1A61     		str	r2, [r3, #16]
  89              		.loc 1 117 0
  90 002c 029B     		ldr	r3, [sp, #8]
  91 002e 03F00203 		and	r3, r3, #2
  92 0032 002B     		cmp	r3, #0
  93 0034 09D0     		beq	.L2
  94              		.loc 1 118 0 discriminator 1
  95 0036 019B     		ldr	r3, [sp, #4]
  96 0038 5B68     		ldr	r3, [r3, #4]
  97 003a 1B69     		ldr	r3, [r3, #16]
  98              		.loc 1 117 0 discriminator 1
ARM GAS  C:\Users\PCHAUT~1\AppData\Local\Temp\ccTMeLh4.s 			page 3


  99 003c 002B     		cmp	r3, #0
 100 003e 04D0     		beq	.L2
 101              		.loc 1 119 0
 102 0040 019B     		ldr	r3, [sp, #4]
 103 0042 5B68     		ldr	r3, [r3, #4]
 104 0044 1B69     		ldr	r3, [r3, #16]
 105 0046 0198     		ldr	r0, [sp, #4]
 106 0048 9847     		blx	r3
 107              	.LVL0:
 108              	.L2:
 109              		.loc 1 120 0
 110 004a 029B     		ldr	r3, [sp, #8]
 111 004c 03F00403 		and	r3, r3, #4
 112 0050 002B     		cmp	r3, #0
 113 0052 09D0     		beq	.L3
 114              		.loc 1 121 0 discriminator 1
 115 0054 019B     		ldr	r3, [sp, #4]
 116 0056 5B68     		ldr	r3, [r3, #4]
 117 0058 9B69     		ldr	r3, [r3, #24]
 118              		.loc 1 120 0 discriminator 1
 119 005a 002B     		cmp	r3, #0
 120 005c 04D0     		beq	.L3
 121              		.loc 1 122 0
 122 005e 019B     		ldr	r3, [sp, #4]
 123 0060 5B68     		ldr	r3, [r3, #4]
 124 0062 9B69     		ldr	r3, [r3, #24]
 125 0064 0198     		ldr	r0, [sp, #4]
 126 0066 9847     		blx	r3
 127              	.LVL1:
 128              	.L3:
 129              		.loc 1 123 0
 130 0068 029B     		ldr	r3, [sp, #8]
 131 006a 03F00803 		and	r3, r3, #8
 132 006e 002B     		cmp	r3, #0
 133 0070 09D0     		beq	.L4
 134              		.loc 1 124 0 discriminator 1
 135 0072 019B     		ldr	r3, [sp, #4]
 136 0074 5B68     		ldr	r3, [r3, #4]
 137 0076 1B6A     		ldr	r3, [r3, #32]
 138              		.loc 1 123 0 discriminator 1
 139 0078 002B     		cmp	r3, #0
 140 007a 04D0     		beq	.L4
 141              		.loc 1 125 0
 142 007c 019B     		ldr	r3, [sp, #4]
 143 007e 5B68     		ldr	r3, [r3, #4]
 144 0080 1B6A     		ldr	r3, [r3, #32]
 145 0082 0198     		ldr	r0, [sp, #4]
 146 0084 9847     		blx	r3
 147              	.LVL2:
 148              	.L4:
 149              		.loc 1 126 0
 150 0086 029B     		ldr	r3, [sp, #8]
 151 0088 03F01003 		and	r3, r3, #16
 152 008c 002B     		cmp	r3, #0
 153 008e 09D0     		beq	.L5
 154              		.loc 1 127 0 discriminator 1
 155 0090 019B     		ldr	r3, [sp, #4]
ARM GAS  C:\Users\PCHAUT~1\AppData\Local\Temp\ccTMeLh4.s 			page 4


 156 0092 5B68     		ldr	r3, [r3, #4]
 157 0094 9B6A     		ldr	r3, [r3, #40]
 158              		.loc 1 126 0 discriminator 1
 159 0096 002B     		cmp	r3, #0
 160 0098 04D0     		beq	.L5
 161              		.loc 1 128 0
 162 009a 019B     		ldr	r3, [sp, #4]
 163 009c 5B68     		ldr	r3, [r3, #4]
 164 009e 9B6A     		ldr	r3, [r3, #40]
 165 00a0 0198     		ldr	r0, [sp, #4]
 166 00a2 9847     		blx	r3
 167              	.LVL3:
 168              	.L5:
 169              		.loc 1 129 0
 170 00a4 029B     		ldr	r3, [sp, #8]
 171 00a6 03F00103 		and	r3, r3, #1
 172 00aa 002B     		cmp	r3, #0
 173 00ac 09D0     		beq	.L8
 174              		.loc 1 129 0 is_stmt 0 discriminator 1
 175 00ae 019B     		ldr	r3, [sp, #4]
 176 00b0 5B68     		ldr	r3, [r3, #4]
 177 00b2 9B68     		ldr	r3, [r3, #8]
 178 00b4 002B     		cmp	r3, #0
 179 00b6 04D0     		beq	.L8
 180              		.loc 1 130 0 is_stmt 1
 181 00b8 019B     		ldr	r3, [sp, #4]
 182 00ba 5B68     		ldr	r3, [r3, #4]
 183 00bc 9B68     		ldr	r3, [r3, #8]
 184 00be 0198     		ldr	r0, [sp, #4]
 185 00c0 9847     		blx	r3
 186              	.LVL4:
 187              	.L8:
 188              		.loc 1 131 0
 189 00c2 00BF     		nop
 190 00c4 044B     		ldr	r3, .L9
 191 00c6 039A     		ldr	r2, [sp, #12]
 192 00c8 1B68     		ldr	r3, [r3]
 193 00ca 9A42     		cmp	r2, r3
 194 00cc 01D0     		beq	.L7
 195 00ce FFF7FEFF 		bl	__stack_chk_fail
 196              	.L7:
 197 00d2 05B0     		add	sp, sp, #20
 198              		.cfi_def_cfa_offset 4
 199              		@ sp needed
 200 00d4 5DF804FB 		ldr	pc, [sp], #4
 201              	.L10:
 202              		.align	2
 203              	.L9:
 204 00d8 00000000 		.word	__stack_chk_guard
 205              		.cfi_endproc
 206              	.LFE256:
 207              		.size	pwm_lld_serve_interrupt, .-pwm_lld_serve_interrupt
 208              		.section	.text.VectorB0,"ax",%progbits
 209              		.align	1
 210              		.p2align 4,,15
 211              		.global	VectorB0
 212              		.syntax unified
ARM GAS  C:\Users\PCHAUT~1\AppData\Local\Temp\ccTMeLh4.s 			page 5


 213              		.thumb
 214              		.thumb_func
 215              		.fpu fpv4-sp-d16
 216              		.type	VectorB0, %function
 217              	VectorB0:
 218              	.LFB257:
 219              		.loc 1 208 0
 220              		.cfi_startproc
 221              		@ args = 0, pretend = 0, frame = 8
 222              		@ frame_needed = 0, uses_anonymous_args = 0
 223 0000 00B5     		push	{lr}
 224              		.cfi_def_cfa_offset 4
 225              		.cfi_offset 14, -4
 226 0002 83B0     		sub	sp, sp, #12
 227              		.cfi_def_cfa_offset 16
 228              		.loc 1 208 0
 229 0004 0C4B     		ldr	r3, .L13
 230 0006 1B68     		ldr	r3, [r3]
 231 0008 0193     		str	r3, [sp, #4]
 232              		.loc 1 210 0
 233 000a FFF7FEFF 		bl	_stats_increase_irq
 234 000e FFF7FEFF 		bl	_dbg_check_enter_isr
 235              		.loc 1 212 0
 236 0012 0A48     		ldr	r0, .L13+4
 237 0014 FFF7FEFF 		bl	pwm_lld_serve_interrupt
 238              		.loc 1 214 0
 239 0018 FFF7FEFF 		bl	_dbg_check_leave_isr
 240 001c FFF7FEFF 		bl	_port_irq_epilogue
 241              		.loc 1 215 0
 242 0020 00BF     		nop
 243 0022 054B     		ldr	r3, .L13
 244 0024 019A     		ldr	r2, [sp, #4]
 245 0026 1B68     		ldr	r3, [r3]
 246 0028 9A42     		cmp	r2, r3
 247 002a 01D0     		beq	.L12
 248 002c FFF7FEFF 		bl	__stack_chk_fail
 249              	.L12:
 250 0030 03B0     		add	sp, sp, #12
 251              		.cfi_def_cfa_offset 4
 252              		@ sp needed
 253 0032 5DF804FB 		ldr	pc, [sp], #4
 254              	.L14:
 255 0036 00BF     		.align	2
 256              	.L13:
 257 0038 00000000 		.word	__stack_chk_guard
 258 003c 00000000 		.word	PWMD2
 259              		.cfi_endproc
 260              	.LFE257:
 261              		.size	VectorB0, .-VectorB0
 262              		.section	.text.VectorB4,"ax",%progbits
 263              		.align	1
 264              		.p2align 4,,15
 265              		.global	VectorB4
 266              		.syntax unified
 267              		.thumb
 268              		.thumb_func
 269              		.fpu fpv4-sp-d16
ARM GAS  C:\Users\PCHAUT~1\AppData\Local\Temp\ccTMeLh4.s 			page 6


 270              		.type	VectorB4, %function
 271              	VectorB4:
 272              	.LFB258:
 273              		.loc 1 227 0
 274              		.cfi_startproc
 275              		@ args = 0, pretend = 0, frame = 8
 276              		@ frame_needed = 0, uses_anonymous_args = 0
 277 0000 00B5     		push	{lr}
 278              		.cfi_def_cfa_offset 4
 279              		.cfi_offset 14, -4
 280 0002 83B0     		sub	sp, sp, #12
 281              		.cfi_def_cfa_offset 16
 282              		.loc 1 227 0
 283 0004 0C4B     		ldr	r3, .L17
 284 0006 1B68     		ldr	r3, [r3]
 285 0008 0193     		str	r3, [sp, #4]
 286              		.loc 1 229 0
 287 000a FFF7FEFF 		bl	_stats_increase_irq
 288 000e FFF7FEFF 		bl	_dbg_check_enter_isr
 289              		.loc 1 231 0
 290 0012 0A48     		ldr	r0, .L17+4
 291 0014 FFF7FEFF 		bl	pwm_lld_serve_interrupt
 292              		.loc 1 233 0
 293 0018 FFF7FEFF 		bl	_dbg_check_leave_isr
 294 001c FFF7FEFF 		bl	_port_irq_epilogue
 295              		.loc 1 234 0
 296 0020 00BF     		nop
 297 0022 054B     		ldr	r3, .L17
 298 0024 019A     		ldr	r2, [sp, #4]
 299 0026 1B68     		ldr	r3, [r3]
 300 0028 9A42     		cmp	r2, r3
 301 002a 01D0     		beq	.L16
 302 002c FFF7FEFF 		bl	__stack_chk_fail
 303              	.L16:
 304 0030 03B0     		add	sp, sp, #12
 305              		.cfi_def_cfa_offset 4
 306              		@ sp needed
 307 0032 5DF804FB 		ldr	pc, [sp], #4
 308              	.L18:
 309 0036 00BF     		.align	2
 310              	.L17:
 311 0038 00000000 		.word	__stack_chk_guard
 312 003c 00000000 		.word	PWMD3
 313              		.cfi_endproc
 314              	.LFE258:
 315              		.size	VectorB4, .-VectorB4
 316              		.section	.text.VectorB8,"ax",%progbits
 317              		.align	1
 318              		.p2align 4,,15
 319              		.global	VectorB8
 320              		.syntax unified
 321              		.thumb
 322              		.thumb_func
 323              		.fpu fpv4-sp-d16
 324              		.type	VectorB8, %function
 325              	VectorB8:
 326              	.LFB259:
ARM GAS  C:\Users\PCHAUT~1\AppData\Local\Temp\ccTMeLh4.s 			page 7


 327              		.loc 1 246 0
 328              		.cfi_startproc
 329              		@ args = 0, pretend = 0, frame = 8
 330              		@ frame_needed = 0, uses_anonymous_args = 0
 331 0000 00B5     		push	{lr}
 332              		.cfi_def_cfa_offset 4
 333              		.cfi_offset 14, -4
 334 0002 83B0     		sub	sp, sp, #12
 335              		.cfi_def_cfa_offset 16
 336              		.loc 1 246 0
 337 0004 0C4B     		ldr	r3, .L21
 338 0006 1B68     		ldr	r3, [r3]
 339 0008 0193     		str	r3, [sp, #4]
 340              		.loc 1 248 0
 341 000a FFF7FEFF 		bl	_stats_increase_irq
 342 000e FFF7FEFF 		bl	_dbg_check_enter_isr
 343              		.loc 1 250 0
 344 0012 0A48     		ldr	r0, .L21+4
 345 0014 FFF7FEFF 		bl	pwm_lld_serve_interrupt
 346              		.loc 1 252 0
 347 0018 FFF7FEFF 		bl	_dbg_check_leave_isr
 348 001c FFF7FEFF 		bl	_port_irq_epilogue
 349              		.loc 1 253 0
 350 0020 00BF     		nop
 351 0022 054B     		ldr	r3, .L21
 352 0024 019A     		ldr	r2, [sp, #4]
 353 0026 1B68     		ldr	r3, [r3]
 354 0028 9A42     		cmp	r2, r3
 355 002a 01D0     		beq	.L20
 356 002c FFF7FEFF 		bl	__stack_chk_fail
 357              	.L20:
 358 0030 03B0     		add	sp, sp, #12
 359              		.cfi_def_cfa_offset 4
 360              		@ sp needed
 361 0032 5DF804FB 		ldr	pc, [sp], #4
 362              	.L22:
 363 0036 00BF     		.align	2
 364              	.L21:
 365 0038 00000000 		.word	__stack_chk_guard
 366 003c 00000000 		.word	PWMD4
 367              		.cfi_endproc
 368              	.LFE259:
 369              		.size	VectorB8, .-VectorB8
 370              		.section	.text.Vector108,"ax",%progbits
 371              		.align	1
 372              		.p2align 4,,15
 373              		.global	Vector108
 374              		.syntax unified
 375              		.thumb
 376              		.thumb_func
 377              		.fpu fpv4-sp-d16
 378              		.type	Vector108, %function
 379              	Vector108:
 380              	.LFB260:
 381              		.loc 1 265 0
 382              		.cfi_startproc
 383              		@ args = 0, pretend = 0, frame = 8
ARM GAS  C:\Users\PCHAUT~1\AppData\Local\Temp\ccTMeLh4.s 			page 8


 384              		@ frame_needed = 0, uses_anonymous_args = 0
 385 0000 00B5     		push	{lr}
 386              		.cfi_def_cfa_offset 4
 387              		.cfi_offset 14, -4
 388 0002 83B0     		sub	sp, sp, #12
 389              		.cfi_def_cfa_offset 16
 390              		.loc 1 265 0
 391 0004 0C4B     		ldr	r3, .L25
 392 0006 1B68     		ldr	r3, [r3]
 393 0008 0193     		str	r3, [sp, #4]
 394              		.loc 1 267 0
 395 000a FFF7FEFF 		bl	_stats_increase_irq
 396 000e FFF7FEFF 		bl	_dbg_check_enter_isr
 397              		.loc 1 269 0
 398 0012 0A48     		ldr	r0, .L25+4
 399 0014 FFF7FEFF 		bl	pwm_lld_serve_interrupt
 400              		.loc 1 271 0
 401 0018 FFF7FEFF 		bl	_dbg_check_leave_isr
 402 001c FFF7FEFF 		bl	_port_irq_epilogue
 403              		.loc 1 272 0
 404 0020 00BF     		nop
 405 0022 054B     		ldr	r3, .L25
 406 0024 019A     		ldr	r2, [sp, #4]
 407 0026 1B68     		ldr	r3, [r3]
 408 0028 9A42     		cmp	r2, r3
 409 002a 01D0     		beq	.L24
 410 002c FFF7FEFF 		bl	__stack_chk_fail
 411              	.L24:
 412 0030 03B0     		add	sp, sp, #12
 413              		.cfi_def_cfa_offset 4
 414              		@ sp needed
 415 0032 5DF804FB 		ldr	pc, [sp], #4
 416              	.L26:
 417 0036 00BF     		.align	2
 418              	.L25:
 419 0038 00000000 		.word	__stack_chk_guard
 420 003c 00000000 		.word	PWMD5
 421              		.cfi_endproc
 422              	.LFE260:
 423              		.size	Vector108, .-Vector108
 424              		.section	.text.pwm_lld_init,"ax",%progbits
 425              		.align	1
 426              		.p2align 4,,15
 427              		.global	pwm_lld_init
 428              		.syntax unified
 429              		.thumb
 430              		.thumb_func
 431              		.fpu fpv4-sp-d16
 432              		.type	pwm_lld_init, %function
 433              	pwm_lld_init:
 434              	.LFB261:
 435              		.loc 1 364 0
 436              		.cfi_startproc
 437              		@ args = 0, pretend = 0, frame = 8
 438              		@ frame_needed = 0, uses_anonymous_args = 0
 439 0000 00B5     		push	{lr}
 440              		.cfi_def_cfa_offset 4
ARM GAS  C:\Users\PCHAUT~1\AppData\Local\Temp\ccTMeLh4.s 			page 9


 441              		.cfi_offset 14, -4
 442 0002 83B0     		sub	sp, sp, #12
 443              		.cfi_def_cfa_offset 16
 444              		.loc 1 364 0
 445 0004 194B     		ldr	r3, .L29
 446 0006 1B68     		ldr	r3, [r3]
 447 0008 0193     		str	r3, [sp, #4]
 448              		.loc 1 375 0
 449 000a 1948     		ldr	r0, .L29+4
 450 000c FFF7FEFF 		bl	pwmObjectInit
 451              		.loc 1 376 0
 452 0010 174B     		ldr	r3, .L29+4
 453 0012 0422     		movs	r2, #4
 454 0014 1A74     		strb	r2, [r3, #16]
 455              		.loc 1 377 0
 456 0016 164B     		ldr	r3, .L29+4
 457 0018 4FF08042 		mov	r2, #1073741824
 458 001c 9A61     		str	r2, [r3, #24]
 459              		.loc 1 382 0
 460 001e 1548     		ldr	r0, .L29+8
 461 0020 FFF7FEFF 		bl	pwmObjectInit
 462              		.loc 1 383 0
 463 0024 134B     		ldr	r3, .L29+8
 464 0026 0422     		movs	r2, #4
 465 0028 1A74     		strb	r2, [r3, #16]
 466              		.loc 1 384 0
 467 002a 124B     		ldr	r3, .L29+8
 468 002c 124A     		ldr	r2, .L29+12
 469 002e 9A61     		str	r2, [r3, #24]
 470              		.loc 1 389 0
 471 0030 1248     		ldr	r0, .L29+16
 472 0032 FFF7FEFF 		bl	pwmObjectInit
 473              		.loc 1 390 0
 474 0036 114B     		ldr	r3, .L29+16
 475 0038 0422     		movs	r2, #4
 476 003a 1A74     		strb	r2, [r3, #16]
 477              		.loc 1 391 0
 478 003c 0F4B     		ldr	r3, .L29+16
 479 003e 104A     		ldr	r2, .L29+20
 480 0040 9A61     		str	r2, [r3, #24]
 481              		.loc 1 396 0
 482 0042 1048     		ldr	r0, .L29+24
 483 0044 FFF7FEFF 		bl	pwmObjectInit
 484              		.loc 1 397 0
 485 0048 0E4B     		ldr	r3, .L29+24
 486 004a 0422     		movs	r2, #4
 487 004c 1A74     		strb	r2, [r3, #16]
 488              		.loc 1 398 0
 489 004e 0D4B     		ldr	r3, .L29+24
 490 0050 0D4A     		ldr	r2, .L29+28
 491 0052 9A61     		str	r2, [r3, #24]
 492              		.loc 1 414 0
 493 0054 00BF     		nop
 494 0056 054B     		ldr	r3, .L29
 495 0058 019A     		ldr	r2, [sp, #4]
 496 005a 1B68     		ldr	r3, [r3]
 497 005c 9A42     		cmp	r2, r3
ARM GAS  C:\Users\PCHAUT~1\AppData\Local\Temp\ccTMeLh4.s 			page 10


 498 005e 01D0     		beq	.L28
 499 0060 FFF7FEFF 		bl	__stack_chk_fail
 500              	.L28:
 501 0064 03B0     		add	sp, sp, #12
 502              		.cfi_def_cfa_offset 4
 503              		@ sp needed
 504 0066 5DF804FB 		ldr	pc, [sp], #4
 505              	.L30:
 506 006a 00BF     		.align	2
 507              	.L29:
 508 006c 00000000 		.word	__stack_chk_guard
 509 0070 00000000 		.word	PWMD2
 510 0074 00000000 		.word	PWMD3
 511 0078 00040040 		.word	1073742848
 512 007c 00000000 		.word	PWMD4
 513 0080 00080040 		.word	1073743872
 514 0084 00000000 		.word	PWMD5
 515 0088 000C0040 		.word	1073744896
 516              		.cfi_endproc
 517              	.LFE261:
 518              		.size	pwm_lld_init, .-pwm_lld_init
 519              		.section	.text.pwm_lld_start,"ax",%progbits
 520              		.align	1
 521              		.p2align 4,,15
 522              		.global	pwm_lld_start
 523              		.syntax unified
 524              		.thumb
 525              		.thumb_func
 526              		.fpu fpv4-sp-d16
 527              		.type	pwm_lld_start, %function
 528              	pwm_lld_start:
 529              	.LFB262:
 530              		.loc 1 425 0
 531              		.cfi_startproc
 532              		@ args = 0, pretend = 0, frame = 24
 533              		@ frame_needed = 0, uses_anonymous_args = 0
 534 0000 00B5     		push	{lr}
 535              		.cfi_def_cfa_offset 4
 536              		.cfi_offset 14, -4
 537 0002 87B0     		sub	sp, sp, #28
 538              		.cfi_def_cfa_offset 32
 539 0004 0190     		str	r0, [sp, #4]
 540              		.loc 1 425 0
 541 0006 934B     		ldr	r3, .L53
 542 0008 1B68     		ldr	r3, [r3]
 543 000a 0593     		str	r3, [sp, #20]
 544              		.loc 1 429 0
 545 000c 019B     		ldr	r3, [sp, #4]
 546 000e 1B78     		ldrb	r3, [r3]	@ zero_extendqisi2
 547 0010 012B     		cmp	r3, #1
 548 0012 72D1     		bne	.L32
 549              		.loc 1 445 0
 550 0014 019B     		ldr	r3, [sp, #4]
 551 0016 904A     		ldr	r2, .L53+4
 552 0018 9342     		cmp	r3, r2
 553 001a 15D1     		bne	.L33
 554              		.loc 1 446 0
ARM GAS  C:\Users\PCHAUT~1\AppData\Local\Temp\ccTMeLh4.s 			page 11


 555 001c 8F4B     		ldr	r3, .L53+8
 556 001e 1B6C     		ldr	r3, [r3, #64]
 557 0020 8E4A     		ldr	r2, .L53+8
 558 0022 43F00103 		orr	r3, r3, #1
 559 0026 1364     		str	r3, [r2, #64]
 560              		.loc 1 447 0
 561 0028 8C4B     		ldr	r3, .L53+8
 562 002a 1B6A     		ldr	r3, [r3, #32]
 563 002c 8B4A     		ldr	r2, .L53+8
 564 002e 43F00103 		orr	r3, r3, #1
 565 0032 1362     		str	r3, [r2, #32]
 566 0034 894B     		ldr	r3, .L53+8
 567 0036 0022     		movs	r2, #0
 568 0038 1A62     		str	r2, [r3, #32]
 569              		.loc 1 448 0
 570 003a 0721     		movs	r1, #7
 571 003c 1C20     		movs	r0, #28
 572 003e FFF7FEFF 		bl	nvicEnableVector
 573              		.loc 1 449 0
 574 0042 019B     		ldr	r3, [sp, #4]
 575 0044 864A     		ldr	r2, .L53+12
 576 0046 5A61     		str	r2, [r3, #20]
 577              	.L33:
 578              		.loc 1 453 0
 579 0048 019B     		ldr	r3, [sp, #4]
 580 004a 864A     		ldr	r2, .L53+16
 581 004c 9342     		cmp	r3, r2
 582 004e 15D1     		bne	.L34
 583              		.loc 1 454 0
 584 0050 824B     		ldr	r3, .L53+8
 585 0052 1B6C     		ldr	r3, [r3, #64]
 586 0054 814A     		ldr	r2, .L53+8
 587 0056 43F00203 		orr	r3, r3, #2
 588 005a 1364     		str	r3, [r2, #64]
 589              		.loc 1 455 0
 590 005c 7F4B     		ldr	r3, .L53+8
 591 005e 1B6A     		ldr	r3, [r3, #32]
 592 0060 7E4A     		ldr	r2, .L53+8
 593 0062 43F00203 		orr	r3, r3, #2
 594 0066 1362     		str	r3, [r2, #32]
 595 0068 7C4B     		ldr	r3, .L53+8
 596 006a 0022     		movs	r2, #0
 597 006c 1A62     		str	r2, [r3, #32]
 598              		.loc 1 456 0
 599 006e 0721     		movs	r1, #7
 600 0070 1D20     		movs	r0, #29
 601 0072 FFF7FEFF 		bl	nvicEnableVector
 602              		.loc 1 457 0
 603 0076 019B     		ldr	r3, [sp, #4]
 604 0078 794A     		ldr	r2, .L53+12
 605 007a 5A61     		str	r2, [r3, #20]
 606              	.L34:
 607              		.loc 1 461 0
 608 007c 019B     		ldr	r3, [sp, #4]
 609 007e 7A4A     		ldr	r2, .L53+20
 610 0080 9342     		cmp	r3, r2
 611 0082 15D1     		bne	.L35
ARM GAS  C:\Users\PCHAUT~1\AppData\Local\Temp\ccTMeLh4.s 			page 12


 612              		.loc 1 462 0
 613 0084 754B     		ldr	r3, .L53+8
 614 0086 1B6C     		ldr	r3, [r3, #64]
 615 0088 744A     		ldr	r2, .L53+8
 616 008a 43F00403 		orr	r3, r3, #4
 617 008e 1364     		str	r3, [r2, #64]
 618              		.loc 1 463 0
 619 0090 724B     		ldr	r3, .L53+8
 620 0092 1B6A     		ldr	r3, [r3, #32]
 621 0094 714A     		ldr	r2, .L53+8
 622 0096 43F00403 		orr	r3, r3, #4
 623 009a 1362     		str	r3, [r2, #32]
 624 009c 6F4B     		ldr	r3, .L53+8
 625 009e 0022     		movs	r2, #0
 626 00a0 1A62     		str	r2, [r3, #32]
 627              		.loc 1 464 0
 628 00a2 0721     		movs	r1, #7
 629 00a4 1E20     		movs	r0, #30
 630 00a6 FFF7FEFF 		bl	nvicEnableVector
 631              		.loc 1 465 0
 632 00aa 019B     		ldr	r3, [sp, #4]
 633 00ac 6C4A     		ldr	r2, .L53+12
 634 00ae 5A61     		str	r2, [r3, #20]
 635              	.L35:
 636              		.loc 1 470 0
 637 00b0 019B     		ldr	r3, [sp, #4]
 638 00b2 6E4A     		ldr	r2, .L53+24
 639 00b4 9342     		cmp	r3, r2
 640 00b6 15D1     		bne	.L36
 641              		.loc 1 471 0
 642 00b8 684B     		ldr	r3, .L53+8
 643 00ba 1B6C     		ldr	r3, [r3, #64]
 644 00bc 674A     		ldr	r2, .L53+8
 645 00be 43F00803 		orr	r3, r3, #8
 646 00c2 1364     		str	r3, [r2, #64]
 647              		.loc 1 472 0
 648 00c4 654B     		ldr	r3, .L53+8
 649 00c6 1B6A     		ldr	r3, [r3, #32]
 650 00c8 644A     		ldr	r2, .L53+8
 651 00ca 43F00803 		orr	r3, r3, #8
 652 00ce 1362     		str	r3, [r2, #32]
 653 00d0 624B     		ldr	r3, .L53+8
 654 00d2 0022     		movs	r2, #0
 655 00d4 1A62     		str	r2, [r3, #32]
 656              		.loc 1 473 0
 657 00d6 0721     		movs	r1, #7
 658 00d8 3220     		movs	r0, #50
 659 00da FFF7FEFF 		bl	nvicEnableVector
 660              		.loc 1 474 0
 661 00de 019B     		ldr	r3, [sp, #4]
 662 00e0 5F4A     		ldr	r2, .L53+12
 663 00e2 5A61     		str	r2, [r3, #20]
 664              	.L36:
 665              		.loc 1 501 0
 666 00e4 019B     		ldr	r3, [sp, #4]
 667 00e6 9B69     		ldr	r3, [r3, #24]
 668 00e8 46F66802 		movw	r2, #26728
ARM GAS  C:\Users\PCHAUT~1\AppData\Local\Temp\ccTMeLh4.s 			page 13


 669 00ec 9A61     		str	r2, [r3, #24]
 670              		.loc 1 503 0
 671 00ee 019B     		ldr	r3, [sp, #4]
 672 00f0 9B69     		ldr	r3, [r3, #24]
 673 00f2 46F66802 		movw	r2, #26728
 674 00f6 DA61     		str	r2, [r3, #28]
 675 00f8 17E0     		b	.L37
 676              	.L32:
 677              		.loc 1 512 0
 678 00fa 019B     		ldr	r3, [sp, #4]
 679 00fc 9B69     		ldr	r3, [r3, #24]
 680 00fe 0022     		movs	r2, #0
 681 0100 1A60     		str	r2, [r3]
 682              		.loc 1 513 0
 683 0102 019B     		ldr	r3, [sp, #4]
 684 0104 9B69     		ldr	r3, [r3, #24]
 685 0106 0022     		movs	r2, #0
 686 0108 5A63     		str	r2, [r3, #52]
 687              		.loc 1 514 0
 688 010a 019B     		ldr	r3, [sp, #4]
 689 010c 9B69     		ldr	r3, [r3, #24]
 690 010e 0022     		movs	r2, #0
 691 0110 9A63     		str	r2, [r3, #56]
 692              		.loc 1 515 0
 693 0112 019B     		ldr	r3, [sp, #4]
 694 0114 9B69     		ldr	r3, [r3, #24]
 695 0116 0022     		movs	r2, #0
 696 0118 DA63     		str	r2, [r3, #60]
 697              		.loc 1 516 0
 698 011a 019B     		ldr	r3, [sp, #4]
 699 011c 9B69     		ldr	r3, [r3, #24]
 700 011e 0022     		movs	r2, #0
 701 0120 1A64     		str	r2, [r3, #64]
 702              		.loc 1 523 0
 703 0122 019B     		ldr	r3, [sp, #4]
 704 0124 9B69     		ldr	r3, [r3, #24]
 705 0126 0022     		movs	r2, #0
 706 0128 5A62     		str	r2, [r3, #36]
 707              	.L37:
 708              		.loc 1 527 0
 709 012a 019B     		ldr	r3, [sp, #4]
 710 012c 5A69     		ldr	r2, [r3, #20]
 711 012e 019B     		ldr	r3, [sp, #4]
 712 0130 5B68     		ldr	r3, [r3, #4]
 713 0132 1B68     		ldr	r3, [r3]
 714 0134 B2FBF3F3 		udiv	r3, r2, r3
 715 0138 013B     		subs	r3, r3, #1
 716 013a 0493     		str	r3, [sp, #16]
 717              		.loc 1 528 0
 718 013c 049B     		ldr	r3, [sp, #16]
 719 013e B3F5803F 		cmp	r3, #65536
 720 0142 0AD2     		bcs	.L38
 721              		.loc 1 528 0 is_stmt 0 discriminator 3
 722 0144 049B     		ldr	r3, [sp, #16]
 723 0146 0133     		adds	r3, r3, #1
 724 0148 019A     		ldr	r2, [sp, #4]
 725 014a 5268     		ldr	r2, [r2, #4]
ARM GAS  C:\Users\PCHAUT~1\AppData\Local\Temp\ccTMeLh4.s 			page 14


 726 014c 1268     		ldr	r2, [r2]
 727 014e 02FB03F2 		mul	r2, r2, r3
 728 0152 019B     		ldr	r3, [sp, #4]
 729 0154 5B69     		ldr	r3, [r3, #20]
 730 0156 9A42     		cmp	r2, r3
 731 0158 02D0     		beq	.L39
 732              	.L38:
 733              		.loc 1 528 0 discriminator 4
 734 015a 4548     		ldr	r0, .L53+28
 735 015c FFF7FEFF 		bl	chSysHalt
 736              	.L39:
 737              		.loc 1 531 0 is_stmt 1
 738 0160 019B     		ldr	r3, [sp, #4]
 739 0162 9B69     		ldr	r3, [r3, #24]
 740 0164 049A     		ldr	r2, [sp, #16]
 741 0166 9A62     		str	r2, [r3, #40]
 742              		.loc 1 532 0
 743 0168 019B     		ldr	r3, [sp, #4]
 744 016a 9A68     		ldr	r2, [r3, #8]
 745 016c 019B     		ldr	r3, [sp, #4]
 746 016e 9B69     		ldr	r3, [r3, #24]
 747 0170 013A     		subs	r2, r2, #1
 748 0172 DA62     		str	r2, [r3, #44]
 749              		.loc 1 533 0
 750 0174 019B     		ldr	r3, [sp, #4]
 751 0176 5A68     		ldr	r2, [r3, #4]
 752 0178 019B     		ldr	r3, [sp, #4]
 753 017a 9B69     		ldr	r3, [r3, #24]
 754 017c D26A     		ldr	r2, [r2, #44]
 755 017e 5A60     		str	r2, [r3, #4]
 756              		.loc 1 536 0
 757 0180 0023     		movs	r3, #0
 758 0182 0393     		str	r3, [sp, #12]
 759              		.loc 1 537 0
 760 0184 019B     		ldr	r3, [sp, #4]
 761 0186 5B68     		ldr	r3, [r3, #4]
 762 0188 DB68     		ldr	r3, [r3, #12]
 763 018a 03F00F03 		and	r3, r3, #15
 764 018e 012B     		cmp	r3, #1
 765 0190 05D0     		beq	.L41
 766 0192 022B     		cmp	r3, #2
 767 0194 07D1     		bne	.L40
 768              		.loc 1 539 0
 769 0196 039B     		ldr	r3, [sp, #12]
 770 0198 43F00203 		orr	r3, r3, #2
 771 019c 0393     		str	r3, [sp, #12]
 772              	.L41:
 773              		.loc 1 541 0
 774 019e 039B     		ldr	r3, [sp, #12]
 775 01a0 43F00103 		orr	r3, r3, #1
 776 01a4 0393     		str	r3, [sp, #12]
 777              	.L40:
 778              		.loc 1 545 0
 779 01a6 019B     		ldr	r3, [sp, #4]
 780 01a8 5B68     		ldr	r3, [r3, #4]
 781 01aa 5B69     		ldr	r3, [r3, #20]
 782 01ac 03F00F03 		and	r3, r3, #15
ARM GAS  C:\Users\PCHAUT~1\AppData\Local\Temp\ccTMeLh4.s 			page 15


 783 01b0 012B     		cmp	r3, #1
 784 01b2 05D0     		beq	.L44
 785 01b4 022B     		cmp	r3, #2
 786 01b6 07D1     		bne	.L43
 787              		.loc 1 547 0
 788 01b8 039B     		ldr	r3, [sp, #12]
 789 01ba 43F02003 		orr	r3, r3, #32
 790 01be 0393     		str	r3, [sp, #12]
 791              	.L44:
 792              		.loc 1 549 0
 793 01c0 039B     		ldr	r3, [sp, #12]
 794 01c2 43F01003 		orr	r3, r3, #16
 795 01c6 0393     		str	r3, [sp, #12]
 796              	.L43:
 797              		.loc 1 553 0
 798 01c8 019B     		ldr	r3, [sp, #4]
 799 01ca 5B68     		ldr	r3, [r3, #4]
 800 01cc DB69     		ldr	r3, [r3, #28]
 801 01ce 03F00F03 		and	r3, r3, #15
 802 01d2 012B     		cmp	r3, #1
 803 01d4 05D0     		beq	.L47
 804 01d6 022B     		cmp	r3, #2
 805 01d8 07D1     		bne	.L46
 806              		.loc 1 555 0
 807 01da 039B     		ldr	r3, [sp, #12]
 808 01dc 43F40073 		orr	r3, r3, #512
 809 01e0 0393     		str	r3, [sp, #12]
 810              	.L47:
 811              		.loc 1 557 0
 812 01e2 039B     		ldr	r3, [sp, #12]
 813 01e4 43F48073 		orr	r3, r3, #256
 814 01e8 0393     		str	r3, [sp, #12]
 815              	.L46:
 816              		.loc 1 561 0
 817 01ea 019B     		ldr	r3, [sp, #4]
 818 01ec 5B68     		ldr	r3, [r3, #4]
 819 01ee 5B6A     		ldr	r3, [r3, #36]
 820 01f0 03F00F03 		and	r3, r3, #15
 821 01f4 012B     		cmp	r3, #1
 822 01f6 05D0     		beq	.L50
 823 01f8 022B     		cmp	r3, #2
 824 01fa 07D1     		bne	.L49
 825              		.loc 1 563 0
 826 01fc 039B     		ldr	r3, [sp, #12]
 827 01fe 43F40053 		orr	r3, r3, #8192
 828 0202 0393     		str	r3, [sp, #12]
 829              	.L50:
 830              		.loc 1 565 0
 831 0204 039B     		ldr	r3, [sp, #12]
 832 0206 43F48053 		orr	r3, r3, #4096
 833 020a 0393     		str	r3, [sp, #12]
 834              	.L49:
 835              		.loc 1 606 0
 836 020c 019B     		ldr	r3, [sp, #4]
 837 020e 9B69     		ldr	r3, [r3, #24]
 838 0210 039A     		ldr	r2, [sp, #12]
 839 0212 1A62     		str	r2, [r3, #32]
ARM GAS  C:\Users\PCHAUT~1\AppData\Local\Temp\ccTMeLh4.s 			page 16


 840              		.loc 1 607 0
 841 0214 019B     		ldr	r3, [sp, #4]
 842 0216 9B69     		ldr	r3, [r3, #24]
 843 0218 0122     		movs	r2, #1
 844 021a 5A61     		str	r2, [r3, #20]
 845              		.loc 1 608 0
 846 021c 019B     		ldr	r3, [sp, #4]
 847 021e 9B69     		ldr	r3, [r3, #24]
 848 0220 0022     		movs	r2, #0
 849 0222 1A61     		str	r2, [r3, #16]
 850              		.loc 1 609 0
 851 0224 019B     		ldr	r3, [sp, #4]
 852 0226 5B68     		ldr	r3, [r3, #4]
 853 0228 1A6B     		ldr	r2, [r3, #48]
 854 022a 019B     		ldr	r3, [sp, #4]
 855 022c 9B69     		ldr	r3, [r3, #24]
 856 022e 22F0FF02 		bic	r2, r2, #255
 857 0232 DA60     		str	r2, [r3, #12]
 858              		.loc 1 619 0
 859 0234 019B     		ldr	r3, [sp, #4]
 860 0236 9B69     		ldr	r3, [r3, #24]
 861 0238 8522     		movs	r2, #133
 862 023a 1A60     		str	r2, [r3]
 863              		.loc 1 621 0
 864 023c 00BF     		nop
 865 023e 054B     		ldr	r3, .L53
 866 0240 059A     		ldr	r2, [sp, #20]
 867 0242 1B68     		ldr	r3, [r3]
 868 0244 9A42     		cmp	r2, r3
 869 0246 01D0     		beq	.L52
 870 0248 FFF7FEFF 		bl	__stack_chk_fail
 871              	.L52:
 872 024c 07B0     		add	sp, sp, #28
 873              		.cfi_def_cfa_offset 4
 874              		@ sp needed
 875 024e 5DF804FB 		ldr	pc, [sp], #4
 876              	.L54:
 877 0252 00BF     		.align	2
 878              	.L53:
 879 0254 00000000 		.word	__stack_chk_guard
 880 0258 00000000 		.word	PWMD2
 881 025c 00380240 		.word	1073887232
 882 0260 00BD0105 		.word	84000000
 883 0264 00000000 		.word	PWMD3
 884 0268 00000000 		.word	PWMD4
 885 026c 00000000 		.word	PWMD5
 886 0270 00000000 		.word	__func__.9866
 887              		.cfi_endproc
 888              	.LFE262:
 889              		.size	pwm_lld_start, .-pwm_lld_start
 890              		.section	.text.pwm_lld_stop,"ax",%progbits
 891              		.align	1
 892              		.p2align 4,,15
 893              		.global	pwm_lld_stop
 894              		.syntax unified
 895              		.thumb
 896              		.thumb_func
ARM GAS  C:\Users\PCHAUT~1\AppData\Local\Temp\ccTMeLh4.s 			page 17


 897              		.fpu fpv4-sp-d16
 898              		.type	pwm_lld_stop, %function
 899              	pwm_lld_stop:
 900              	.LFB263:
 901              		.loc 1 630 0
 902              		.cfi_startproc
 903              		@ args = 0, pretend = 0, frame = 16
 904              		@ frame_needed = 0, uses_anonymous_args = 0
 905 0000 00B5     		push	{lr}
 906              		.cfi_def_cfa_offset 4
 907              		.cfi_offset 14, -4
 908 0002 85B0     		sub	sp, sp, #20
 909              		.cfi_def_cfa_offset 24
 910 0004 0190     		str	r0, [sp, #4]
 911              		.loc 1 630 0
 912 0006 294B     		ldr	r3, .L62
 913 0008 1B68     		ldr	r3, [r3]
 914 000a 0393     		str	r3, [sp, #12]
 915              		.loc 1 633 0
 916 000c 019B     		ldr	r3, [sp, #4]
 917 000e 1B78     		ldrb	r3, [r3]	@ zero_extendqisi2
 918 0010 022B     		cmp	r3, #2
 919 0012 3FD1     		bne	.L61
 920              		.loc 1 634 0
 921 0014 019B     		ldr	r3, [sp, #4]
 922 0016 9B69     		ldr	r3, [r3, #24]
 923 0018 0022     		movs	r2, #0
 924 001a 1A60     		str	r2, [r3]
 925              		.loc 1 635 0
 926 001c 019B     		ldr	r3, [sp, #4]
 927 001e 9B69     		ldr	r3, [r3, #24]
 928 0020 0022     		movs	r2, #0
 929 0022 DA60     		str	r2, [r3, #12]
 930              		.loc 1 636 0
 931 0024 019B     		ldr	r3, [sp, #4]
 932 0026 9B69     		ldr	r3, [r3, #24]
 933 0028 0022     		movs	r2, #0
 934 002a 1A61     		str	r2, [r3, #16]
 935              		.loc 1 649 0
 936 002c 019B     		ldr	r3, [sp, #4]
 937 002e 204A     		ldr	r2, .L62+4
 938 0030 9342     		cmp	r3, r2
 939 0032 08D1     		bne	.L57
 940              		.loc 1 650 0
 941 0034 1C20     		movs	r0, #28
 942 0036 FFF7FEFF 		bl	nvicDisableVector
 943              		.loc 1 651 0
 944 003a 1E4B     		ldr	r3, .L62+8
 945 003c 1B6C     		ldr	r3, [r3, #64]
 946 003e 1D4A     		ldr	r2, .L62+8
 947 0040 23F00103 		bic	r3, r3, #1
 948 0044 1364     		str	r3, [r2, #64]
 949              	.L57:
 950              		.loc 1 655 0
 951 0046 019B     		ldr	r3, [sp, #4]
 952 0048 1B4A     		ldr	r2, .L62+12
 953 004a 9342     		cmp	r3, r2
ARM GAS  C:\Users\PCHAUT~1\AppData\Local\Temp\ccTMeLh4.s 			page 18


 954 004c 08D1     		bne	.L58
 955              		.loc 1 656 0
 956 004e 1D20     		movs	r0, #29
 957 0050 FFF7FEFF 		bl	nvicDisableVector
 958              		.loc 1 657 0
 959 0054 174B     		ldr	r3, .L62+8
 960 0056 1B6C     		ldr	r3, [r3, #64]
 961 0058 164A     		ldr	r2, .L62+8
 962 005a 23F00203 		bic	r3, r3, #2
 963 005e 1364     		str	r3, [r2, #64]
 964              	.L58:
 965              		.loc 1 661 0
 966 0060 019B     		ldr	r3, [sp, #4]
 967 0062 164A     		ldr	r2, .L62+16
 968 0064 9342     		cmp	r3, r2
 969 0066 08D1     		bne	.L59
 970              		.loc 1 662 0
 971 0068 1E20     		movs	r0, #30
 972 006a FFF7FEFF 		bl	nvicDisableVector
 973              		.loc 1 663 0
 974 006e 114B     		ldr	r3, .L62+8
 975 0070 1B6C     		ldr	r3, [r3, #64]
 976 0072 104A     		ldr	r2, .L62+8
 977 0074 23F00403 		bic	r3, r3, #4
 978 0078 1364     		str	r3, [r2, #64]
 979              	.L59:
 980              		.loc 1 667 0
 981 007a 019B     		ldr	r3, [sp, #4]
 982 007c 104A     		ldr	r2, .L62+20
 983 007e 9342     		cmp	r3, r2
 984 0080 08D1     		bne	.L61
 985              		.loc 1 668 0
 986 0082 3220     		movs	r0, #50
 987 0084 FFF7FEFF 		bl	nvicDisableVector
 988              		.loc 1 669 0
 989 0088 0A4B     		ldr	r3, .L62+8
 990 008a 1B6C     		ldr	r3, [r3, #64]
 991 008c 094A     		ldr	r2, .L62+8
 992 008e 23F00803 		bic	r3, r3, #8
 993 0092 1364     		str	r3, [r2, #64]
 994              	.L61:
 995              		.loc 1 686 0
 996 0094 00BF     		nop
 997 0096 054B     		ldr	r3, .L62
 998 0098 039A     		ldr	r2, [sp, #12]
 999 009a 1B68     		ldr	r3, [r3]
 1000 009c 9A42     		cmp	r2, r3
 1001 009e 01D0     		beq	.L60
 1002 00a0 FFF7FEFF 		bl	__stack_chk_fail
 1003              	.L60:
 1004 00a4 05B0     		add	sp, sp, #20
 1005              		.cfi_def_cfa_offset 4
 1006              		@ sp needed
 1007 00a6 5DF804FB 		ldr	pc, [sp], #4
 1008              	.L63:
 1009 00aa 00BF     		.align	2
 1010              	.L62:
ARM GAS  C:\Users\PCHAUT~1\AppData\Local\Temp\ccTMeLh4.s 			page 19


 1011 00ac 00000000 		.word	__stack_chk_guard
 1012 00b0 00000000 		.word	PWMD2
 1013 00b4 00380240 		.word	1073887232
 1014 00b8 00000000 		.word	PWMD3
 1015 00bc 00000000 		.word	PWMD4
 1016 00c0 00000000 		.word	PWMD5
 1017              		.cfi_endproc
 1018              	.LFE263:
 1019              		.size	pwm_lld_stop, .-pwm_lld_stop
 1020              		.section	.text.pwm_lld_enable_channel,"ax",%progbits
 1021              		.align	1
 1022              		.p2align 4,,15
 1023              		.global	pwm_lld_enable_channel
 1024              		.syntax unified
 1025              		.thumb
 1026              		.thumb_func
 1027              		.fpu fpv4-sp-d16
 1028              		.type	pwm_lld_enable_channel, %function
 1029              	pwm_lld_enable_channel:
 1030              	.LFB264:
 1031              		.loc 1 703 0
 1032              		.cfi_startproc
 1033              		@ args = 0, pretend = 0, frame = 24
 1034              		@ frame_needed = 0, uses_anonymous_args = 0
 1035 0000 00B5     		push	{lr}
 1036              		.cfi_def_cfa_offset 4
 1037              		.cfi_offset 14, -4
 1038 0002 87B0     		sub	sp, sp, #28
 1039              		.cfi_def_cfa_offset 32
 1040 0004 0390     		str	r0, [sp, #12]
 1041 0006 0B46     		mov	r3, r1
 1042 0008 0192     		str	r2, [sp, #4]
 1043 000a 8DF80B30 		strb	r3, [sp, #11]
 1044              		.loc 1 703 0
 1045 000e 0B4B     		ldr	r3, .L66
 1046 0010 1B68     		ldr	r3, [r3]
 1047 0012 0593     		str	r3, [sp, #20]
 1048              		.loc 1 707 0
 1049 0014 039B     		ldr	r3, [sp, #12]
 1050 0016 9A69     		ldr	r2, [r3, #24]
 1051 0018 9DF80B30 		ldrb	r3, [sp, #11]	@ zero_extendqisi2
 1052 001c 0C33     		adds	r3, r3, #12
 1053 001e 9B00     		lsls	r3, r3, #2
 1054 0020 1344     		add	r3, r3, r2
 1055 0022 019A     		ldr	r2, [sp, #4]
 1056 0024 5A60     		str	r2, [r3, #4]
 1057              		.loc 1 714 0
 1058 0026 00BF     		nop
 1059 0028 044B     		ldr	r3, .L66
 1060 002a 059A     		ldr	r2, [sp, #20]
 1061 002c 1B68     		ldr	r3, [r3]
 1062 002e 9A42     		cmp	r2, r3
 1063 0030 01D0     		beq	.L65
 1064 0032 FFF7FEFF 		bl	__stack_chk_fail
 1065              	.L65:
 1066 0036 07B0     		add	sp, sp, #28
 1067              		.cfi_def_cfa_offset 4
ARM GAS  C:\Users\PCHAUT~1\AppData\Local\Temp\ccTMeLh4.s 			page 20


 1068              		@ sp needed
 1069 0038 5DF804FB 		ldr	pc, [sp], #4
 1070              	.L67:
 1071              		.align	2
 1072              	.L66:
 1073 003c 00000000 		.word	__stack_chk_guard
 1074              		.cfi_endproc
 1075              	.LFE264:
 1076              		.size	pwm_lld_enable_channel, .-pwm_lld_enable_channel
 1077              		.section	.text.pwm_lld_disable_channel,"ax",%progbits
 1078              		.align	1
 1079              		.p2align 4,,15
 1080              		.global	pwm_lld_disable_channel
 1081              		.syntax unified
 1082              		.thumb
 1083              		.thumb_func
 1084              		.fpu fpv4-sp-d16
 1085              		.type	pwm_lld_disable_channel, %function
 1086              	pwm_lld_disable_channel:
 1087              	.LFB265:
 1088              		.loc 1 728 0
 1089              		.cfi_startproc
 1090              		@ args = 0, pretend = 0, frame = 16
 1091              		@ frame_needed = 0, uses_anonymous_args = 0
 1092 0000 00B5     		push	{lr}
 1093              		.cfi_def_cfa_offset 4
 1094              		.cfi_offset 14, -4
 1095 0002 85B0     		sub	sp, sp, #20
 1096              		.cfi_def_cfa_offset 24
 1097 0004 0190     		str	r0, [sp, #4]
 1098 0006 0B46     		mov	r3, r1
 1099 0008 8DF80330 		strb	r3, [sp, #3]
 1100              		.loc 1 728 0
 1101 000c 124B     		ldr	r3, .L70
 1102 000e 1B68     		ldr	r3, [r3]
 1103 0010 0393     		str	r3, [sp, #12]
 1104              		.loc 1 731 0
 1105 0012 019B     		ldr	r3, [sp, #4]
 1106 0014 9A69     		ldr	r2, [r3, #24]
 1107 0016 9DF80330 		ldrb	r3, [sp, #3]	@ zero_extendqisi2
 1108 001a 0C33     		adds	r3, r3, #12
 1109 001c 9B00     		lsls	r3, r3, #2
 1110 001e 1344     		add	r3, r3, r2
 1111 0020 0022     		movs	r2, #0
 1112 0022 5A60     		str	r2, [r3, #4]
 1113              		.loc 1 732 0
 1114 0024 019B     		ldr	r3, [sp, #4]
 1115 0026 9B69     		ldr	r3, [r3, #24]
 1116 0028 DA68     		ldr	r2, [r3, #12]
 1117 002a 9DF80330 		ldrb	r3, [sp, #3]	@ zero_extendqisi2
 1118 002e 0221     		movs	r1, #2
 1119 0030 01FA03F3 		lsl	r3, r1, r3
 1120 0034 DB43     		mvns	r3, r3
 1121 0036 1946     		mov	r1, r3
 1122 0038 019B     		ldr	r3, [sp, #4]
 1123 003a 9B69     		ldr	r3, [r3, #24]
 1124 003c 0A40     		ands	r2, r2, r1
ARM GAS  C:\Users\PCHAUT~1\AppData\Local\Temp\ccTMeLh4.s 			page 21


 1125 003e DA60     		str	r2, [r3, #12]
 1126              		.loc 1 741 0
 1127 0040 00BF     		nop
 1128 0042 054B     		ldr	r3, .L70
 1129 0044 039A     		ldr	r2, [sp, #12]
 1130 0046 1B68     		ldr	r3, [r3]
 1131 0048 9A42     		cmp	r2, r3
 1132 004a 01D0     		beq	.L69
 1133 004c FFF7FEFF 		bl	__stack_chk_fail
 1134              	.L69:
 1135 0050 05B0     		add	sp, sp, #20
 1136              		.cfi_def_cfa_offset 4
 1137              		@ sp needed
 1138 0052 5DF804FB 		ldr	pc, [sp], #4
 1139              	.L71:
 1140 0056 00BF     		.align	2
 1141              	.L70:
 1142 0058 00000000 		.word	__stack_chk_guard
 1143              		.cfi_endproc
 1144              	.LFE265:
 1145              		.size	pwm_lld_disable_channel, .-pwm_lld_disable_channel
 1146              		.section	.text.pwm_lld_enable_periodic_notification,"ax",%progbits
 1147              		.align	1
 1148              		.p2align 4,,15
 1149              		.global	pwm_lld_enable_periodic_notification
 1150              		.syntax unified
 1151              		.thumb
 1152              		.thumb_func
 1153              		.fpu fpv4-sp-d16
 1154              		.type	pwm_lld_enable_periodic_notification, %function
 1155              	pwm_lld_enable_periodic_notification:
 1156              	.LFB266:
 1157              		.loc 1 752 0
 1158              		.cfi_startproc
 1159              		@ args = 0, pretend = 0, frame = 16
 1160              		@ frame_needed = 0, uses_anonymous_args = 0
 1161 0000 00B5     		push	{lr}
 1162              		.cfi_def_cfa_offset 4
 1163              		.cfi_offset 14, -4
 1164 0002 85B0     		sub	sp, sp, #20
 1165              		.cfi_def_cfa_offset 24
 1166 0004 0190     		str	r0, [sp, #4]
 1167              		.loc 1 752 0
 1168 0006 124B     		ldr	r3, .L76
 1169 0008 1B68     		ldr	r3, [r3]
 1170 000a 0393     		str	r3, [sp, #12]
 1171              		.loc 1 753 0
 1172 000c 019B     		ldr	r3, [sp, #4]
 1173 000e 9B69     		ldr	r3, [r3, #24]
 1174 0010 DB68     		ldr	r3, [r3, #12]
 1175 0012 0293     		str	r3, [sp, #8]
 1176              		.loc 1 757 0
 1177 0014 029B     		ldr	r3, [sp, #8]
 1178 0016 03F00103 		and	r3, r3, #1
 1179 001a 002B     		cmp	r3, #0
 1180 001c 0DD1     		bne	.L75
 1181              		.loc 1 758 0
ARM GAS  C:\Users\PCHAUT~1\AppData\Local\Temp\ccTMeLh4.s 			page 22


 1182 001e 019B     		ldr	r3, [sp, #4]
 1183 0020 9B69     		ldr	r3, [r3, #24]
 1184 0022 1A69     		ldr	r2, [r3, #16]
 1185 0024 019B     		ldr	r3, [sp, #4]
 1186 0026 9B69     		ldr	r3, [r3, #24]
 1187 0028 22F00102 		bic	r2, r2, #1
 1188 002c 1A61     		str	r2, [r3, #16]
 1189              		.loc 1 759 0
 1190 002e 019B     		ldr	r3, [sp, #4]
 1191 0030 9B69     		ldr	r3, [r3, #24]
 1192 0032 029A     		ldr	r2, [sp, #8]
 1193 0034 42F00102 		orr	r2, r2, #1
 1194 0038 DA60     		str	r2, [r3, #12]
 1195              	.L75:
 1196              		.loc 1 761 0
 1197 003a 00BF     		nop
 1198 003c 044B     		ldr	r3, .L76
 1199 003e 039A     		ldr	r2, [sp, #12]
 1200 0040 1B68     		ldr	r3, [r3]
 1201 0042 9A42     		cmp	r2, r3
 1202 0044 01D0     		beq	.L74
 1203 0046 FFF7FEFF 		bl	__stack_chk_fail
 1204              	.L74:
 1205 004a 05B0     		add	sp, sp, #20
 1206              		.cfi_def_cfa_offset 4
 1207              		@ sp needed
 1208 004c 5DF804FB 		ldr	pc, [sp], #4
 1209              	.L77:
 1210              		.align	2
 1211              	.L76:
 1212 0050 00000000 		.word	__stack_chk_guard
 1213              		.cfi_endproc
 1214              	.LFE266:
 1215              		.size	pwm_lld_enable_periodic_notification, .-pwm_lld_enable_periodic_notification
 1216              		.section	.text.pwm_lld_disable_periodic_notification,"ax",%progbits
 1217              		.align	1
 1218              		.p2align 4,,15
 1219              		.global	pwm_lld_disable_periodic_notification
 1220              		.syntax unified
 1221              		.thumb
 1222              		.thumb_func
 1223              		.fpu fpv4-sp-d16
 1224              		.type	pwm_lld_disable_periodic_notification, %function
 1225              	pwm_lld_disable_periodic_notification:
 1226              	.LFB267:
 1227              		.loc 1 772 0
 1228              		.cfi_startproc
 1229              		@ args = 0, pretend = 0, frame = 16
 1230              		@ frame_needed = 0, uses_anonymous_args = 0
 1231 0000 00B5     		push	{lr}
 1232              		.cfi_def_cfa_offset 4
 1233              		.cfi_offset 14, -4
 1234 0002 85B0     		sub	sp, sp, #20
 1235              		.cfi_def_cfa_offset 24
 1236 0004 0190     		str	r0, [sp, #4]
 1237              		.loc 1 772 0
 1238 0006 0B4B     		ldr	r3, .L80
ARM GAS  C:\Users\PCHAUT~1\AppData\Local\Temp\ccTMeLh4.s 			page 23


 1239 0008 1B68     		ldr	r3, [r3]
 1240 000a 0393     		str	r3, [sp, #12]
 1241              		.loc 1 774 0
 1242 000c 019B     		ldr	r3, [sp, #4]
 1243 000e 9B69     		ldr	r3, [r3, #24]
 1244 0010 DA68     		ldr	r2, [r3, #12]
 1245 0012 019B     		ldr	r3, [sp, #4]
 1246 0014 9B69     		ldr	r3, [r3, #24]
 1247 0016 22F00102 		bic	r2, r2, #1
 1248 001a DA60     		str	r2, [r3, #12]
 1249              		.loc 1 775 0
 1250 001c 00BF     		nop
 1251 001e 054B     		ldr	r3, .L80
 1252 0020 039A     		ldr	r2, [sp, #12]
 1253 0022 1B68     		ldr	r3, [r3]
 1254 0024 9A42     		cmp	r2, r3
 1255 0026 01D0     		beq	.L79
 1256 0028 FFF7FEFF 		bl	__stack_chk_fail
 1257              	.L79:
 1258 002c 05B0     		add	sp, sp, #20
 1259              		.cfi_def_cfa_offset 4
 1260              		@ sp needed
 1261 002e 5DF804FB 		ldr	pc, [sp], #4
 1262              	.L81:
 1263 0032 00BF     		.align	2
 1264              	.L80:
 1265 0034 00000000 		.word	__stack_chk_guard
 1266              		.cfi_endproc
 1267              	.LFE267:
 1268              		.size	pwm_lld_disable_periodic_notification, .-pwm_lld_disable_periodic_notification
 1269              		.section	.text.pwm_lld_enable_channel_notification,"ax",%progbits
 1270              		.align	1
 1271              		.p2align 4,,15
 1272              		.global	pwm_lld_enable_channel_notification
 1273              		.syntax unified
 1274              		.thumb
 1275              		.thumb_func
 1276              		.fpu fpv4-sp-d16
 1277              		.type	pwm_lld_enable_channel_notification, %function
 1278              	pwm_lld_enable_channel_notification:
 1279              	.LFB268:
 1280              		.loc 1 789 0
 1281              		.cfi_startproc
 1282              		@ args = 0, pretend = 0, frame = 16
 1283              		@ frame_needed = 0, uses_anonymous_args = 0
 1284 0000 00B5     		push	{lr}
 1285              		.cfi_def_cfa_offset 4
 1286              		.cfi_offset 14, -4
 1287 0002 85B0     		sub	sp, sp, #20
 1288              		.cfi_def_cfa_offset 24
 1289 0004 0190     		str	r0, [sp, #4]
 1290 0006 0B46     		mov	r3, r1
 1291 0008 8DF80330 		strb	r3, [sp, #3]
 1292              		.loc 1 789 0
 1293 000c 174B     		ldr	r3, .L86
 1294 000e 1B68     		ldr	r3, [r3]
 1295 0010 0393     		str	r3, [sp, #12]
ARM GAS  C:\Users\PCHAUT~1\AppData\Local\Temp\ccTMeLh4.s 			page 24


 1296              		.loc 1 790 0
 1297 0012 019B     		ldr	r3, [sp, #4]
 1298 0014 9B69     		ldr	r3, [r3, #24]
 1299 0016 DB68     		ldr	r3, [r3, #12]
 1300 0018 0293     		str	r3, [sp, #8]
 1301              		.loc 1 799 0
 1302 001a 9DF80330 		ldrb	r3, [sp, #3]	@ zero_extendqisi2
 1303 001e 0222     		movs	r2, #2
 1304 0020 02FA03F3 		lsl	r3, r2, r3
 1305 0024 1A46     		mov	r2, r3
 1306 0026 029B     		ldr	r3, [sp, #8]
 1307 0028 1340     		ands	r3, r3, r2
 1308 002a 002B     		cmp	r3, #0
 1309 002c 13D1     		bne	.L85
 1310              		.loc 1 800 0
 1311 002e 9DF80330 		ldrb	r3, [sp, #3]	@ zero_extendqisi2
 1312 0032 0222     		movs	r2, #2
 1313 0034 02FA03F3 		lsl	r3, r2, r3
 1314 0038 1946     		mov	r1, r3
 1315 003a 019B     		ldr	r3, [sp, #4]
 1316 003c 9B69     		ldr	r3, [r3, #24]
 1317 003e 029A     		ldr	r2, [sp, #8]
 1318 0040 0A43     		orrs	r2, r2, r1
 1319 0042 DA60     		str	r2, [r3, #12]
 1320              		.loc 1 801 0
 1321 0044 9DF80330 		ldrb	r3, [sp, #3]	@ zero_extendqisi2
 1322 0048 0222     		movs	r2, #2
 1323 004a 02FA03F3 		lsl	r3, r2, r3
 1324 004e DA43     		mvns	r2, r3
 1325 0050 019B     		ldr	r3, [sp, #4]
 1326 0052 9B69     		ldr	r3, [r3, #24]
 1327 0054 1A61     		str	r2, [r3, #16]
 1328              	.L85:
 1329              		.loc 1 803 0
 1330 0056 00BF     		nop
 1331 0058 044B     		ldr	r3, .L86
 1332 005a 039A     		ldr	r2, [sp, #12]
 1333 005c 1B68     		ldr	r3, [r3]
 1334 005e 9A42     		cmp	r2, r3
 1335 0060 01D0     		beq	.L84
 1336 0062 FFF7FEFF 		bl	__stack_chk_fail
 1337              	.L84:
 1338 0066 05B0     		add	sp, sp, #20
 1339              		.cfi_def_cfa_offset 4
 1340              		@ sp needed
 1341 0068 5DF804FB 		ldr	pc, [sp], #4
 1342              	.L87:
 1343              		.align	2
 1344              	.L86:
 1345 006c 00000000 		.word	__stack_chk_guard
 1346              		.cfi_endproc
 1347              	.LFE268:
 1348              		.size	pwm_lld_enable_channel_notification, .-pwm_lld_enable_channel_notification
 1349              		.section	.text.pwm_lld_disable_channel_notification,"ax",%progbits
 1350              		.align	1
 1351              		.p2align 4,,15
 1352              		.global	pwm_lld_disable_channel_notification
ARM GAS  C:\Users\PCHAUT~1\AppData\Local\Temp\ccTMeLh4.s 			page 25


 1353              		.syntax unified
 1354              		.thumb
 1355              		.thumb_func
 1356              		.fpu fpv4-sp-d16
 1357              		.type	pwm_lld_disable_channel_notification, %function
 1358              	pwm_lld_disable_channel_notification:
 1359              	.LFB269:
 1360              		.loc 1 817 0
 1361              		.cfi_startproc
 1362              		@ args = 0, pretend = 0, frame = 16
 1363              		@ frame_needed = 0, uses_anonymous_args = 0
 1364 0000 00B5     		push	{lr}
 1365              		.cfi_def_cfa_offset 4
 1366              		.cfi_offset 14, -4
 1367 0002 85B0     		sub	sp, sp, #20
 1368              		.cfi_def_cfa_offset 24
 1369 0004 0190     		str	r0, [sp, #4]
 1370 0006 0B46     		mov	r3, r1
 1371 0008 8DF80330 		strb	r3, [sp, #3]
 1372              		.loc 1 817 0
 1373 000c 0D4B     		ldr	r3, .L90
 1374 000e 1B68     		ldr	r3, [r3]
 1375 0010 0393     		str	r3, [sp, #12]
 1376              		.loc 1 819 0
 1377 0012 019B     		ldr	r3, [sp, #4]
 1378 0014 9B69     		ldr	r3, [r3, #24]
 1379 0016 DA68     		ldr	r2, [r3, #12]
 1380 0018 9DF80330 		ldrb	r3, [sp, #3]	@ zero_extendqisi2
 1381 001c 0221     		movs	r1, #2
 1382 001e 01FA03F3 		lsl	r3, r1, r3
 1383 0022 DB43     		mvns	r3, r3
 1384 0024 1946     		mov	r1, r3
 1385 0026 019B     		ldr	r3, [sp, #4]
 1386 0028 9B69     		ldr	r3, [r3, #24]
 1387 002a 0A40     		ands	r2, r2, r1
 1388 002c DA60     		str	r2, [r3, #12]
 1389              		.loc 1 820 0
 1390 002e 00BF     		nop
 1391 0030 044B     		ldr	r3, .L90
 1392 0032 039A     		ldr	r2, [sp, #12]
 1393 0034 1B68     		ldr	r3, [r3]
 1394 0036 9A42     		cmp	r2, r3
 1395 0038 01D0     		beq	.L89
 1396 003a FFF7FEFF 		bl	__stack_chk_fail
 1397              	.L89:
 1398 003e 05B0     		add	sp, sp, #20
 1399              		.cfi_def_cfa_offset 4
 1400              		@ sp needed
 1401 0040 5DF804FB 		ldr	pc, [sp], #4
 1402              	.L91:
 1403              		.align	2
 1404              	.L90:
 1405 0044 00000000 		.word	__stack_chk_guard
 1406              		.cfi_endproc
 1407              	.LFE269:
 1408              		.size	pwm_lld_disable_channel_notification, .-pwm_lld_disable_channel_notification
 1409              		.section	.rodata.__func__.9866,"a",%progbits
ARM GAS  C:\Users\PCHAUT~1\AppData\Local\Temp\ccTMeLh4.s 			page 26


 1410              		.align	2
 1411              		.type	__func__.9866, %object
 1412              		.size	__func__.9866, 14
 1413              	__func__.9866:
 1414 0000 70776D5F 		.ascii	"pwm_lld_start\000"
 1414      6C6C645F 
 1414      73746172 
 1414      7400
 1415              		.text
 1416              	.Letext0:
 1417              		.file 2 "c:\\users\\pchautems\\documents\\robotiquetp\\eclipse_e-puck2\\tools\\gcc-arm-none-eabi-7
 1418              		.file 3 "c:\\users\\pchautems\\documents\\robotiquetp\\eclipse_e-puck2\\tools\\gcc-arm-none-eabi-7
 1419              		.file 4 "c:\\users\\pchautems\\documents\\robotiquetp\\eclipse_e-puck2\\tools\\gcc-arm-none-eabi-7
 1420              		.file 5 "../lib/e-puck2_main-processor/ChibiOS//os/rt/ports/ARMCMx/compilers/GCC/chtypes.h"
 1421              		.file 6 "../lib/e-puck2_main-processor/ChibiOS//os/rt/include/chsystypes.h"
 1422              		.file 7 "../lib/e-puck2_main-processor/ChibiOS//os/rt/include/chschd.h"
 1423              		.file 8 "../lib/e-puck2_main-processor/ChibiOS//os/ext/CMSIS/include/core_cm4.h"
 1424              		.file 9 "../lib/e-puck2_main-processor/ChibiOS//os/ext/CMSIS/ST/system_stm32f4xx.h"
 1425              		.file 10 "../lib/e-puck2_main-processor/ChibiOS//os/ext/CMSIS/ST/stm32f407xx.h"
 1426              		.file 11 "../lib/e-puck2_main-processor/ChibiOS//os/rt/ports/ARMCMx/chcore.h"
 1427              		.file 12 "../lib/e-puck2_main-processor/ChibiOS//os/rt/ports/ARMCMx/chcore_v7m.h"
 1428              		.file 13 "../lib/e-puck2_main-processor/ChibiOS//os/rt/include/chdebug.h"
 1429              		.file 14 "../lib/e-puck2_main-processor/ChibiOS//os/rt/include/chtm.h"
 1430              		.file 15 "../lib/e-puck2_main-processor/ChibiOS//os/rt/include/chstats.h"
 1431              		.file 16 "../lib/e-puck2_main-processor/ChibiOS//os/rt/include/chsem.h"
 1432              		.file 17 "../lib/e-puck2_main-processor/ChibiOS//os/rt/include/chmtx.h"
 1433              		.file 18 "../lib/e-puck2_main-processor/ChibiOS//os/rt/include/chregistry.h"
 1434              		.file 19 "../lib/e-puck2_main-processor/ChibiOS//os/rt/include/chevents.h"
 1435              		.file 20 "../lib/e-puck2_main-processor/ChibiOS//os/rt/include/chqueues.h"
 1436              		.file 21 "../lib/e-puck2_main-processor/ChibiOS//os/hal/ports/STM32/STM32F4xx/stm32_dma.h"
 1437              		.file 22 "../lib/e-puck2_main-processor/ChibiOS//os/hal/include/hal_ioblock.h"
 1438              		.file 23 "../lib/e-puck2_main-processor/ChibiOS//os/hal/ports/STM32/LLD/GPIOv2/pal_lld.h"
 1439              		.file 24 "../lib/e-puck2_main-processor/ChibiOS//os/hal/include/adc.h"
 1440              		.file 25 "../lib/e-puck2_main-processor/ChibiOS//os/hal/ports/STM32/STM32F4xx/adc_lld.h"
 1441              		.file 26 "../lib/e-puck2_main-processor/ChibiOS//os/hal/include/can.h"
 1442              		.file 27 "../lib/e-puck2_main-processor/ChibiOS//os/hal/ports/STM32/LLD/can_lld.h"
 1443              		.file 28 "../lib/e-puck2_main-processor/ChibiOS//os/hal/include/dac.h"
 1444              		.file 29 "../lib/e-puck2_main-processor/ChibiOS//os/hal/ports/STM32/LLD/DACv1/dac_lld.h"
 1445              		.file 30 "../lib/e-puck2_main-processor/ChibiOS//os/hal/include/ext.h"
 1446              		.file 31 "../lib/e-puck2_main-processor/ChibiOS//os/hal/ports/STM32/LLD/ext_lld.h"
 1447              		.file 32 "../lib/e-puck2_main-processor/ChibiOS//os/hal/include/gpt.h"
 1448              		.file 33 "../lib/e-puck2_main-processor/ChibiOS//os/hal/ports/STM32/LLD/TIMv1/gpt_lld.h"
 1449              		.file 34 "../lib/e-puck2_main-processor/ChibiOS//os/hal/ports/STM32/LLD/TIMv1/stm32_tim.h"
 1450              		.file 35 "../lib/e-puck2_main-processor/ChibiOS//os/hal/include/i2c.h"
 1451              		.file 36 "../lib/e-puck2_main-processor/ChibiOS//os/hal/ports/STM32/LLD/I2Cv1/i2c_lld.h"
 1452              		.file 37 "../lib/e-puck2_main-processor/ChibiOS//os/hal/include/i2s.h"
 1453              		.file 38 "../lib/e-puck2_main-processor/ChibiOS//os/hal/ports/STM32/LLD/SPIv1/i2s_lld.h"
 1454              		.file 39 "../lib/e-puck2_main-processor/ChibiOS//os/hal/include/pwm.h"
 1455              		.file 40 "../lib/e-puck2_main-processor/ChibiOS//os/hal/ports/STM32/LLD/TIMv1/pwm_lld.h"
 1456              		.file 41 "../lib/e-puck2_main-processor/ChibiOS//os/hal/include/serial.h"
 1457              		.file 42 "../lib/e-puck2_main-processor/ChibiOS//os/hal/ports/STM32/LLD/USARTv1/serial_lld.h"
 1458              		.file 43 "../lib/e-puck2_main-processor/ChibiOS//os/hal/include/sdc.h"
 1459              		.file 44 "../lib/e-puck2_main-processor/ChibiOS//os/hal/ports/STM32/LLD/sdc_lld.h"
 1460              		.file 45 "../lib/e-puck2_main-processor/ChibiOS//os/hal/include/spi.h"
 1461              		.file 46 "../lib/e-puck2_main-processor/ChibiOS//os/hal/ports/STM32/LLD/SPIv1/spi_lld.h"
 1462              		.file 47 "../lib/e-puck2_main-processor/ChibiOS//os/hal/include/usb.h"
 1463              		.file 48 "../lib/e-puck2_main-processor/ChibiOS//os/hal/ports/STM32/LLD/OTGv1/usb_lld.h"
ARM GAS  C:\Users\PCHAUT~1\AppData\Local\Temp\ccTMeLh4.s 			page 27


 1464              		.file 49 "../lib/e-puck2_main-processor/ChibiOS//os/hal/ports/STM32/LLD/OTGv1/stm32_otg.h"