ARM GAS  C:\Users\PCHAUT~1\AppData\Local\Temp\ccjQKXWT.s 			page 1


   1              		.cpu cortex-m4
   2              		.eabi_attribute 27, 1
   3              		.eabi_attribute 28, 1
   4              		.eabi_attribute 20, 1
   5              		.eabi_attribute 21, 1
   6              		.eabi_attribute 23, 3
   7              		.eabi_attribute 24, 1
   8              		.eabi_attribute 25, 1
   9              		.eabi_attribute 26, 1
  10              		.eabi_attribute 30, 6
  11              		.eabi_attribute 34, 1
  12              		.eabi_attribute 18, 4
  13              		.file	"sdc.c"
  14              		.text
  15              	.Ltext0:
  16              		.cfi_sections	.debug_frame
  17              		.section	.text.port_lock,"ax",%progbits
  18              		.align	1
  19              		.p2align 4,,15
  20              		.syntax unified
  21              		.thumb
  22              		.thumb_func
  23              		.fpu fpv4-sp-d16
  24              		.type	port_lock, %function
  25              	port_lock:
  26              	.LFB116:
  27              		.file 1 "../lib/e-puck2_main-processor/ChibiOS//os/rt/ports/ARMCMx/chcore_v7m.h"
  28              		.loc 1 444 0
  29              		.cfi_startproc
  30              		@ args = 0, pretend = 0, frame = 8
  31              		@ frame_needed = 0, uses_anonymous_args = 0
  32 0000 00B5     		push	{lr}
  33              		.cfi_def_cfa_offset 4
  34              		.cfi_offset 14, -4
  35 0002 83B0     		sub	sp, sp, #12
  36              		.cfi_def_cfa_offset 16
  37              		.loc 1 444 0
  38 0004 094B     		ldr	r3, .L3
  39 0006 1B68     		ldr	r3, [r3]
  40 0008 0193     		str	r3, [sp, #4]
  41 000a 2023     		movs	r3, #32
  42 000c 0093     		str	r3, [sp]
  43              	.LBB6:
  44              	.LBB7:
  45              		.file 2 "../lib/e-puck2_main-processor/ChibiOS//os/ext/CMSIS/include/core_cmFunc.h"
  46              		.loc 2 546 0
  47 000e 009B     		ldr	r3, [sp]
  48              		.syntax unified
  49              	@ 546 "../lib/e-puck2_main-processor/ChibiOS//os/ext/CMSIS/include/core_cmFunc.h" 1
  50 0010 83F31188 		MSR basepri, r3
  51              	@ 0 "" 2
  52              		.thumb
  53              		.syntax unified
  54              	.LBE7:
  55              	.LBE6:
  56              		.loc 1 451 0
  57 0014 00BF     		nop
ARM GAS  C:\Users\PCHAUT~1\AppData\Local\Temp\ccjQKXWT.s 			page 2


  58 0016 054B     		ldr	r3, .L3
  59 0018 019A     		ldr	r2, [sp, #4]
  60 001a 1B68     		ldr	r3, [r3]
  61 001c 9A42     		cmp	r2, r3
  62 001e 01D0     		beq	.L2
  63 0020 FFF7FEFF 		bl	__stack_chk_fail
  64              	.L2:
  65 0024 03B0     		add	sp, sp, #12
  66              		.cfi_def_cfa_offset 4
  67              		@ sp needed
  68 0026 5DF804FB 		ldr	pc, [sp], #4
  69              	.L4:
  70 002a 00BF     		.align	2
  71              	.L3:
  72 002c 00000000 		.word	__stack_chk_guard
  73              		.cfi_endproc
  74              	.LFE116:
  75              		.size	port_lock, .-port_lock
  76              		.section	.text.port_unlock,"ax",%progbits
  77              		.align	1
  78              		.p2align 4,,15
  79              		.syntax unified
  80              		.thumb
  81              		.thumb_func
  82              		.fpu fpv4-sp-d16
  83              		.type	port_unlock, %function
  84              	port_unlock:
  85              	.LFB117:
  86              		.loc 1 458 0
  87              		.cfi_startproc
  88              		@ args = 0, pretend = 0, frame = 8
  89              		@ frame_needed = 0, uses_anonymous_args = 0
  90 0000 00B5     		push	{lr}
  91              		.cfi_def_cfa_offset 4
  92              		.cfi_offset 14, -4
  93 0002 83B0     		sub	sp, sp, #12
  94              		.cfi_def_cfa_offset 16
  95              		.loc 1 458 0
  96 0004 094B     		ldr	r3, .L7
  97 0006 1B68     		ldr	r3, [r3]
  98 0008 0193     		str	r3, [sp, #4]
  99 000a 0023     		movs	r3, #0
 100 000c 0093     		str	r3, [sp]
 101              	.LBB8:
 102              	.LBB9:
 103              		.loc 2 546 0
 104 000e 009B     		ldr	r3, [sp]
 105              		.syntax unified
 106              	@ 546 "../lib/e-puck2_main-processor/ChibiOS//os/ext/CMSIS/include/core_cmFunc.h" 1
 107 0010 83F31188 		MSR basepri, r3
 108              	@ 0 "" 2
 109              		.thumb
 110              		.syntax unified
 111              	.LBE9:
 112              	.LBE8:
 113              		.loc 1 465 0
 114 0014 00BF     		nop
ARM GAS  C:\Users\PCHAUT~1\AppData\Local\Temp\ccjQKXWT.s 			page 3


 115 0016 054B     		ldr	r3, .L7
 116 0018 019A     		ldr	r2, [sp, #4]
 117 001a 1B68     		ldr	r3, [r3]
 118 001c 9A42     		cmp	r2, r3
 119 001e 01D0     		beq	.L6
 120 0020 FFF7FEFF 		bl	__stack_chk_fail
 121              	.L6:
 122 0024 03B0     		add	sp, sp, #12
 123              		.cfi_def_cfa_offset 4
 124              		@ sp needed
 125 0026 5DF804FB 		ldr	pc, [sp], #4
 126              	.L8:
 127 002a 00BF     		.align	2
 128              	.L7:
 129 002c 00000000 		.word	__stack_chk_guard
 130              		.cfi_endproc
 131              	.LFE117:
 132              		.size	port_unlock, .-port_unlock
 133              		.section	.text.chSysLock,"ax",%progbits
 134              		.align	1
 135              		.p2align 4,,15
 136              		.syntax unified
 137              		.thumb
 138              		.thumb_func
 139              		.fpu fpv4-sp-d16
 140              		.type	chSysLock, %function
 141              	chSysLock:
 142              	.LFB145:
 143              		.file 3 "../lib/e-puck2_main-processor/ChibiOS//os/rt/include/chsys.h"
 144              		.loc 3 346 0
 145              		.cfi_startproc
 146              		@ args = 0, pretend = 0, frame = 8
 147              		@ frame_needed = 0, uses_anonymous_args = 0
 148 0000 00B5     		push	{lr}
 149              		.cfi_def_cfa_offset 4
 150              		.cfi_offset 14, -4
 151 0002 83B0     		sub	sp, sp, #12
 152              		.cfi_def_cfa_offset 16
 153              		.loc 3 346 0
 154 0004 094B     		ldr	r3, .L11
 155 0006 1B68     		ldr	r3, [r3]
 156 0008 0193     		str	r3, [sp, #4]
 157              		.loc 3 348 0
 158 000a FFF7FEFF 		bl	port_lock
 159              		.loc 3 349 0
 160 000e FFF7FEFF 		bl	_stats_start_measure_crit_thd
 161              		.loc 3 350 0
 162 0012 FFF7FEFF 		bl	_dbg_check_lock
 163              		.loc 3 351 0
 164 0016 00BF     		nop
 165 0018 044B     		ldr	r3, .L11
 166 001a 019A     		ldr	r2, [sp, #4]
 167 001c 1B68     		ldr	r3, [r3]
 168 001e 9A42     		cmp	r2, r3
 169 0020 01D0     		beq	.L10
 170 0022 FFF7FEFF 		bl	__stack_chk_fail
 171              	.L10:
ARM GAS  C:\Users\PCHAUT~1\AppData\Local\Temp\ccjQKXWT.s 			page 4


 172 0026 03B0     		add	sp, sp, #12
 173              		.cfi_def_cfa_offset 4
 174              		@ sp needed
 175 0028 5DF804FB 		ldr	pc, [sp], #4
 176              	.L12:
 177              		.align	2
 178              	.L11:
 179 002c 00000000 		.word	__stack_chk_guard
 180              		.cfi_endproc
 181              	.LFE145:
 182              		.size	chSysLock, .-chSysLock
 183              		.section	.text.chSysUnlock,"ax",%progbits
 184              		.align	1
 185              		.p2align 4,,15
 186              		.syntax unified
 187              		.thumb
 188              		.thumb_func
 189              		.fpu fpv4-sp-d16
 190              		.type	chSysUnlock, %function
 191              	chSysUnlock:
 192              	.LFB146:
 193              		.loc 3 358 0
 194              		.cfi_startproc
 195              		@ args = 0, pretend = 0, frame = 8
 196              		@ frame_needed = 0, uses_anonymous_args = 0
 197 0000 00B5     		push	{lr}
 198              		.cfi_def_cfa_offset 4
 199              		.cfi_offset 14, -4
 200 0002 83B0     		sub	sp, sp, #12
 201              		.cfi_def_cfa_offset 16
 202              		.loc 3 358 0
 203 0004 114B     		ldr	r3, .L16
 204 0006 1B68     		ldr	r3, [r3]
 205 0008 0193     		str	r3, [sp, #4]
 206              		.loc 3 360 0
 207 000a FFF7FEFF 		bl	_dbg_check_unlock
 208              		.loc 3 361 0
 209 000e FFF7FEFF 		bl	_stats_stop_measure_crit_thd
 210              		.loc 3 367 0
 211 0012 0F4B     		ldr	r3, .L16+4
 212 0014 1B68     		ldr	r3, [r3]
 213 0016 0E4A     		ldr	r2, .L16+4
 214 0018 9342     		cmp	r3, r2
 215 001a 0AD0     		beq	.L14
 216              		.loc 3 367 0 is_stmt 0 discriminator 2
 217 001c 0C4B     		ldr	r3, .L16+4
 218 001e 9B69     		ldr	r3, [r3, #24]
 219 0020 9A68     		ldr	r2, [r3, #8]
 220 0022 0B4B     		ldr	r3, .L16+4
 221 0024 1B68     		ldr	r3, [r3]
 222 0026 9B68     		ldr	r3, [r3, #8]
 223 0028 9A42     		cmp	r2, r3
 224 002a 02D2     		bcs	.L14
 225              		.loc 3 367 0 discriminator 3
 226 002c 0948     		ldr	r0, .L16+8
 227 002e FFF7FEFF 		bl	chSysHalt
 228              	.L14:
ARM GAS  C:\Users\PCHAUT~1\AppData\Local\Temp\ccjQKXWT.s 			page 5


 229              		.loc 3 371 0 is_stmt 1
 230 0032 FFF7FEFF 		bl	port_unlock
 231              		.loc 3 372 0
 232 0036 00BF     		nop
 233 0038 044B     		ldr	r3, .L16
 234 003a 019A     		ldr	r2, [sp, #4]
 235 003c 1B68     		ldr	r3, [r3]
 236 003e 9A42     		cmp	r2, r3
 237 0040 01D0     		beq	.L15
 238 0042 FFF7FEFF 		bl	__stack_chk_fail
 239              	.L15:
 240 0046 03B0     		add	sp, sp, #12
 241              		.cfi_def_cfa_offset 4
 242              		@ sp needed
 243 0048 5DF804FB 		ldr	pc, [sp], #4
 244              	.L17:
 245              		.align	2
 246              	.L16:
 247 004c 00000000 		.word	__stack_chk_guard
 248 0050 00000000 		.word	ch
 249 0054 00000000 		.word	__func__.7554
 250              		.cfi_endproc
 251              	.LFE146:
 252              		.size	chSysUnlock, .-chSysUnlock
 253              		.section	.text.osalSysLock,"ax",%progbits
 254              		.align	1
 255              		.p2align 4,,15
 256              		.syntax unified
 257              		.thumb
 258              		.thumb_func
 259              		.fpu fpv4-sp-d16
 260              		.type	osalSysLock, %function
 261              	osalSysLock:
 262              	.LFB223:
 263              		.file 4 "../lib/e-puck2_main-processor/ChibiOS//os/hal/osal/rt/osal.h"
 264              		.loc 4 445 0
 265              		.cfi_startproc
 266              		@ args = 0, pretend = 0, frame = 8
 267              		@ frame_needed = 0, uses_anonymous_args = 0
 268 0000 00B5     		push	{lr}
 269              		.cfi_def_cfa_offset 4
 270              		.cfi_offset 14, -4
 271 0002 83B0     		sub	sp, sp, #12
 272              		.cfi_def_cfa_offset 16
 273              		.loc 4 445 0
 274 0004 074B     		ldr	r3, .L20
 275 0006 1B68     		ldr	r3, [r3]
 276 0008 0193     		str	r3, [sp, #4]
 277              		.loc 4 447 0
 278 000a FFF7FEFF 		bl	chSysLock
 279              		.loc 4 448 0
 280 000e 00BF     		nop
 281 0010 044B     		ldr	r3, .L20
 282 0012 019A     		ldr	r2, [sp, #4]
 283 0014 1B68     		ldr	r3, [r3]
 284 0016 9A42     		cmp	r2, r3
 285 0018 01D0     		beq	.L19
ARM GAS  C:\Users\PCHAUT~1\AppData\Local\Temp\ccjQKXWT.s 			page 6


 286 001a FFF7FEFF 		bl	__stack_chk_fail
 287              	.L19:
 288 001e 03B0     		add	sp, sp, #12
 289              		.cfi_def_cfa_offset 4
 290              		@ sp needed
 291 0020 5DF804FB 		ldr	pc, [sp], #4
 292              	.L21:
 293              		.align	2
 294              	.L20:
 295 0024 00000000 		.word	__stack_chk_guard
 296              		.cfi_endproc
 297              	.LFE223:
 298              		.size	osalSysLock, .-osalSysLock
 299              		.section	.text.osalSysUnlock,"ax",%progbits
 300              		.align	1
 301              		.p2align 4,,15
 302              		.syntax unified
 303              		.thumb
 304              		.thumb_func
 305              		.fpu fpv4-sp-d16
 306              		.type	osalSysUnlock, %function
 307              	osalSysUnlock:
 308              	.LFB224:
 309              		.loc 4 456 0
 310              		.cfi_startproc
 311              		@ args = 0, pretend = 0, frame = 8
 312              		@ frame_needed = 0, uses_anonymous_args = 0
 313 0000 00B5     		push	{lr}
 314              		.cfi_def_cfa_offset 4
 315              		.cfi_offset 14, -4
 316 0002 83B0     		sub	sp, sp, #12
 317              		.cfi_def_cfa_offset 16
 318              		.loc 4 456 0
 319 0004 074B     		ldr	r3, .L24
 320 0006 1B68     		ldr	r3, [r3]
 321 0008 0193     		str	r3, [sp, #4]
 322              		.loc 4 458 0
 323 000a FFF7FEFF 		bl	chSysUnlock
 324              		.loc 4 459 0
 325 000e 00BF     		nop
 326 0010 044B     		ldr	r3, .L24
 327 0012 019A     		ldr	r2, [sp, #4]
 328 0014 1B68     		ldr	r3, [r3]
 329 0016 9A42     		cmp	r2, r3
 330 0018 01D0     		beq	.L23
 331 001a FFF7FEFF 		bl	__stack_chk_fail
 332              	.L23:
 333 001e 03B0     		add	sp, sp, #12
 334              		.cfi_def_cfa_offset 4
 335              		@ sp needed
 336 0020 5DF804FB 		ldr	pc, [sp], #4
 337              	.L25:
 338              		.align	2
 339              	.L24:
 340 0024 00000000 		.word	__stack_chk_guard
 341              		.cfi_endproc
 342              	.LFE224:
ARM GAS  C:\Users\PCHAUT~1\AppData\Local\Temp\ccjQKXWT.s 			page 7


 343              		.size	osalSysUnlock, .-osalSysUnlock
 344              		.section	.text.osalThreadSleep,"ax",%progbits
 345              		.align	1
 346              		.p2align 4,,15
 347              		.syntax unified
 348              		.thumb
 349              		.thumb_func
 350              		.fpu fpv4-sp-d16
 351              		.type	osalThreadSleep, %function
 352              	osalThreadSleep:
 353              	.LFB235:
 354              		.loc 4 625 0
 355              		.cfi_startproc
 356              		@ args = 0, pretend = 0, frame = 16
 357              		@ frame_needed = 0, uses_anonymous_args = 0
 358 0000 00B5     		push	{lr}
 359              		.cfi_def_cfa_offset 4
 360              		.cfi_offset 14, -4
 361 0002 85B0     		sub	sp, sp, #20
 362              		.cfi_def_cfa_offset 24
 363 0004 0190     		str	r0, [sp, #4]
 364              		.loc 4 625 0
 365 0006 084B     		ldr	r3, .L28
 366 0008 1B68     		ldr	r3, [r3]
 367 000a 0393     		str	r3, [sp, #12]
 368              		.loc 4 627 0
 369 000c 0198     		ldr	r0, [sp, #4]
 370 000e FFF7FEFF 		bl	chThdSleep
 371              		.loc 4 628 0
 372 0012 00BF     		nop
 373 0014 044B     		ldr	r3, .L28
 374 0016 039A     		ldr	r2, [sp, #12]
 375 0018 1B68     		ldr	r3, [r3]
 376 001a 9A42     		cmp	r2, r3
 377 001c 01D0     		beq	.L27
 378 001e FFF7FEFF 		bl	__stack_chk_fail
 379              	.L27:
 380 0022 05B0     		add	sp, sp, #20
 381              		.cfi_def_cfa_offset 4
 382              		@ sp needed
 383 0024 5DF804FB 		ldr	pc, [sp], #4
 384              	.L29:
 385              		.align	2
 386              	.L28:
 387 0028 00000000 		.word	__stack_chk_guard
 388              		.cfi_endproc
 389              	.LFE235:
 390              		.size	osalThreadSleep, .-osalThreadSleep
 391              		.section	.rodata.sdc_vmt,"a",%progbits
 392              		.align	2
 393              		.type	sdc_vmt, %object
 394              		.size	sdc_vmt, 32
 395              	sdc_vmt:
 396 0000 00000000 		.word	sdc_lld_is_card_inserted
 397 0004 00000000 		.word	sdc_lld_is_write_protected
 398 0008 00000000 		.word	sdcConnect
 399 000c 00000000 		.word	sdcDisconnect
ARM GAS  C:\Users\PCHAUT~1\AppData\Local\Temp\ccjQKXWT.s 			page 8


 400 0010 00000000 		.word	sdcRead
 401 0014 00000000 		.word	sdcWrite
 402 0018 00000000 		.word	sdcSync
 403 001c 00000000 		.word	sdcGetInfo
 404              		.section	.text.mode_detect,"ax",%progbits
 405              		.align	1
 406              		.p2align 4,,15
 407              		.syntax unified
 408              		.thumb
 409              		.thumb_func
 410              		.fpu fpv4-sp-d16
 411              		.type	mode_detect, %function
 412              	mode_detect:
 413              	.LFB256:
 414              		.file 5 "../lib/e-puck2_main-processor/ChibiOS//os/hal/src/sdc.c"
 415              		.loc 5 99 0
 416              		.cfi_startproc
 417              		@ args = 0, pretend = 0, frame = 16
 418              		@ frame_needed = 0, uses_anonymous_args = 0
 419 0000 00B5     		push	{lr}
 420              		.cfi_def_cfa_offset 4
 421              		.cfi_offset 14, -4
 422 0002 85B0     		sub	sp, sp, #20
 423              		.cfi_def_cfa_offset 24
 424 0004 0190     		str	r0, [sp, #4]
 425              		.loc 5 99 0
 426 0006 284B     		ldr	r3, .L40
 427 0008 1B68     		ldr	r3, [r3]
 428 000a 0393     		str	r3, [sp, #12]
 429              		.loc 5 103 0
 430 000c 02AB     		add	r3, sp, #8
 431 000e 4FF4D572 		mov	r2, #426
 432 0012 0821     		movs	r1, #8
 433 0014 0198     		ldr	r0, [sp, #4]
 434 0016 FFF7FEFF 		bl	sdc_lld_send_cmd_short_crc
 435 001a 0346     		mov	r3, r0
 436 001c 83F00103 		eor	r3, r3, #1
 437 0020 DBB2     		uxtb	r3, r3
 438 0022 002B     		cmp	r3, #0
 439 0024 1AD0     		beq	.L31
 440              		.loc 5 105 0
 441 0026 019B     		ldr	r3, [sp, #4]
 442 0028 0122     		movs	r2, #1
 443 002a 1A63     		str	r2, [r3, #48]
 444              		.loc 5 107 0
 445 002c 029B     		ldr	r3, [sp, #8]
 446 002e 1B0A     		lsrs	r3, r3, #8
 447 0030 03F00F03 		and	r3, r3, #15
 448 0034 012B     		cmp	r3, #1
 449 0036 01D0     		beq	.L32
 450              		.loc 5 108 0
 451 0038 0123     		movs	r3, #1
 452 003a 2AE0     		b	.L38
 453              	.L32:
 454              		.loc 5 110 0
 455 003c 02AB     		add	r3, sp, #8
 456 003e 0022     		movs	r2, #0
ARM GAS  C:\Users\PCHAUT~1\AppData\Local\Temp\ccjQKXWT.s 			page 9


 457 0040 3721     		movs	r1, #55
 458 0042 0198     		ldr	r0, [sp, #4]
 459 0044 FFF7FEFF 		bl	sdc_lld_send_cmd_short_crc
 460 0048 0346     		mov	r3, r0
 461 004a 002B     		cmp	r3, #0
 462 004c 04D1     		bne	.L34
 463              		.loc 5 111 0 discriminator 1
 464 004e 029A     		ldr	r2, [sp, #8]
 465 0050 164B     		ldr	r3, .L40+4
 466 0052 1340     		ands	r3, r3, r2
 467              		.loc 5 110 0 discriminator 1
 468 0054 002B     		cmp	r3, #0
 469 0056 1BD0     		beq	.L35
 470              	.L34:
 471              		.loc 5 112 0
 472 0058 0123     		movs	r3, #1
 473 005a 1AE0     		b	.L38
 474              	.L31:
 475              		.loc 5 117 0
 476 005c 02AB     		add	r3, sp, #8
 477 005e 0022     		movs	r2, #0
 478 0060 3721     		movs	r1, #55
 479 0062 0198     		ldr	r0, [sp, #4]
 480 0064 FFF7FEFF 		bl	sdc_lld_send_cmd_short_crc
 481 0068 0346     		mov	r3, r0
 482 006a 002B     		cmp	r3, #0
 483 006c 04D1     		bne	.L36
 484              		.loc 5 118 0 discriminator 1
 485 006e 029A     		ldr	r2, [sp, #8]
 486 0070 0E4B     		ldr	r3, .L40+4
 487 0072 1340     		ands	r3, r3, r2
 488              		.loc 5 117 0 discriminator 1
 489 0074 002B     		cmp	r3, #0
 490 0076 03D0     		beq	.L37
 491              	.L36:
 492              		.loc 5 119 0
 493 0078 019B     		ldr	r3, [sp, #4]
 494 007a 0222     		movs	r2, #2
 495 007c 1A63     		str	r2, [r3, #48]
 496 007e 07E0     		b	.L35
 497              	.L37:
 498              		.loc 5 122 0
 499 0080 019B     		ldr	r3, [sp, #4]
 500 0082 0022     		movs	r2, #0
 501 0084 1A63     		str	r2, [r3, #48]
 502              		.loc 5 125 0
 503 0086 0022     		movs	r2, #0
 504 0088 0021     		movs	r1, #0
 505 008a 0198     		ldr	r0, [sp, #4]
 506 008c FFF7FEFF 		bl	sdc_lld_send_cmd_none
 507              	.L35:
 508              		.loc 5 129 0
 509 0090 0023     		movs	r3, #0
 510              	.L38:
 511              		.loc 5 130 0 discriminator 1
 512 0092 1846     		mov	r0, r3
 513 0094 044B     		ldr	r3, .L40
ARM GAS  C:\Users\PCHAUT~1\AppData\Local\Temp\ccjQKXWT.s 			page 10


 514 0096 039A     		ldr	r2, [sp, #12]
 515 0098 1B68     		ldr	r3, [r3]
 516 009a 9A42     		cmp	r2, r3
 517 009c 01D0     		beq	.L39
 518              		.loc 5 130 0 is_stmt 0
 519 009e FFF7FEFF 		bl	__stack_chk_fail
 520              	.L39:
 521 00a2 05B0     		add	sp, sp, #20
 522              		.cfi_def_cfa_offset 4
 523              		@ sp needed
 524 00a4 5DF804FB 		ldr	pc, [sp], #4
 525              	.L41:
 526              		.align	2
 527              	.L40:
 528 00a8 00000000 		.word	__stack_chk_guard
 529 00ac 08E0FFFD 		.word	-33562616
 530              		.cfi_endproc
 531              	.LFE256:
 532              		.size	mode_detect, .-mode_detect
 533              		.section	.text.mmc_init,"ax",%progbits
 534              		.align	1
 535              		.p2align 4,,15
 536              		.syntax unified
 537              		.thumb
 538              		.thumb_func
 539              		.fpu fpv4-sp-d16
 540              		.type	mmc_init, %function
 541              	mmc_init:
 542              	.LFB257:
 543              		.loc 5 143 0 is_stmt 1
 544              		.cfi_startproc
 545              		@ args = 0, pretend = 0, frame = 24
 546              		@ frame_needed = 0, uses_anonymous_args = 0
 547 0000 00B5     		push	{lr}
 548              		.cfi_def_cfa_offset 4
 549              		.cfi_offset 14, -4
 550 0002 87B0     		sub	sp, sp, #28
 551              		.cfi_def_cfa_offset 32
 552 0004 0190     		str	r0, [sp, #4]
 553              		.loc 5 143 0
 554 0006 1D4B     		ldr	r3, .L53
 555 0008 1B68     		ldr	r3, [r3]
 556 000a 0593     		str	r3, [sp, #20]
 557              		.loc 5 148 0
 558 000c 1C4B     		ldr	r3, .L53+4
 559 000e 0393     		str	r3, [sp, #12]
 560              		.loc 5 149 0
 561 0010 0023     		movs	r3, #0
 562 0012 0293     		str	r3, [sp, #8]
 563              	.L49:
 564              		.loc 5 151 0
 565 0014 04AB     		add	r3, sp, #16
 566 0016 039A     		ldr	r2, [sp, #12]
 567 0018 0121     		movs	r1, #1
 568 001a 0198     		ldr	r0, [sp, #4]
 569 001c FFF7FEFF 		bl	sdc_lld_send_cmd_short
 570 0020 0346     		mov	r3, r0
ARM GAS  C:\Users\PCHAUT~1\AppData\Local\Temp\ccjQKXWT.s 			page 11


 571 0022 002B     		cmp	r3, #0
 572 0024 01D0     		beq	.L43
 573              		.loc 5 152 0
 574 0026 0123     		movs	r3, #1
 575 0028 1CE0     		b	.L50
 576              	.L43:
 577              		.loc 5 154 0
 578 002a 049B     		ldr	r3, [sp, #16]
 579 002c 002B     		cmp	r3, #0
 580 002e 0BDA     		bge	.L45
 581              		.loc 5 155 0
 582 0030 049B     		ldr	r3, [sp, #16]
 583 0032 03F08043 		and	r3, r3, #1073741824
 584 0036 002B     		cmp	r3, #0
 585 0038 12D0     		beq	.L52
 586              		.loc 5 156 0
 587 003a 019B     		ldr	r3, [sp, #4]
 588 003c 1B6B     		ldr	r3, [r3, #48]
 589 003e 43F01002 		orr	r2, r3, #16
 590 0042 019B     		ldr	r3, [sp, #4]
 591 0044 1A63     		str	r2, [r3, #48]
 592              		.loc 5 158 0
 593 0046 0BE0     		b	.L52
 594              	.L45:
 595              		.loc 5 160 0
 596 0048 029B     		ldr	r3, [sp, #8]
 597 004a 0133     		adds	r3, r3, #1
 598 004c 0293     		str	r3, [sp, #8]
 599 004e 029B     		ldr	r3, [sp, #8]
 600 0050 632B     		cmp	r3, #99
 601 0052 01D9     		bls	.L48
 602              		.loc 5 161 0
 603 0054 0123     		movs	r3, #1
 604 0056 05E0     		b	.L50
 605              	.L48:
 606              		.loc 5 163 0
 607 0058 0A20     		movs	r0, #10
 608 005a FFF7FEFF 		bl	osalThreadSleep
 609              		.loc 5 151 0
 610 005e D9E7     		b	.L49
 611              	.L52:
 612              		.loc 5 158 0
 613 0060 00BF     		nop
 614              		.loc 5 166 0
 615 0062 0023     		movs	r3, #0
 616              	.L50:
 617              		.loc 5 167 0 discriminator 1
 618 0064 1846     		mov	r0, r3
 619 0066 054B     		ldr	r3, .L53
 620 0068 059A     		ldr	r2, [sp, #20]
 621 006a 1B68     		ldr	r3, [r3]
 622 006c 9A42     		cmp	r2, r3
 623 006e 01D0     		beq	.L51
 624              		.loc 5 167 0 is_stmt 0
 625 0070 FFF7FEFF 		bl	__stack_chk_fail
 626              	.L51:
 627 0074 07B0     		add	sp, sp, #28
ARM GAS  C:\Users\PCHAUT~1\AppData\Local\Temp\ccjQKXWT.s 			page 12


 628              		.cfi_def_cfa_offset 4
 629              		@ sp needed
 630 0076 5DF804FB 		ldr	pc, [sp], #4
 631              	.L54:
 632 007a 00BF     		.align	2
 633              	.L53:
 634 007c 00000000 		.word	__stack_chk_guard
 635 0080 0080FFC0 		.word	-1056997376
 636              		.cfi_endproc
 637              	.LFE257:
 638              		.size	mmc_init, .-mmc_init
 639              		.section	.text.sdc_init,"ax",%progbits
 640              		.align	1
 641              		.p2align 4,,15
 642              		.syntax unified
 643              		.thumb
 644              		.thumb_func
 645              		.fpu fpv4-sp-d16
 646              		.type	sdc_init, %function
 647              	sdc_init:
 648              	.LFB258:
 649              		.loc 5 180 0 is_stmt 1
 650              		.cfi_startproc
 651              		@ args = 0, pretend = 0, frame = 24
 652              		@ frame_needed = 0, uses_anonymous_args = 0
 653 0000 00B5     		push	{lr}
 654              		.cfi_def_cfa_offset 4
 655              		.cfi_offset 14, -4
 656 0002 87B0     		sub	sp, sp, #28
 657              		.cfi_def_cfa_offset 32
 658 0004 0190     		str	r0, [sp, #4]
 659              		.loc 5 180 0
 660 0006 294B     		ldr	r3, .L70
 661 0008 1B68     		ldr	r3, [r3]
 662 000a 0593     		str	r3, [sp, #20]
 663              		.loc 5 185 0
 664 000c 019B     		ldr	r3, [sp, #4]
 665 000e 1B6B     		ldr	r3, [r3, #48]
 666 0010 03F00F03 		and	r3, r3, #15
 667 0014 012B     		cmp	r3, #1
 668 0016 02D1     		bne	.L56
 669              		.loc 5 186 0
 670 0018 254B     		ldr	r3, .L70+4
 671 001a 0393     		str	r3, [sp, #12]
 672 001c 01E0     		b	.L57
 673              	.L56:
 674              		.loc 5 189 0
 675 001e 254B     		ldr	r3, .L70+8
 676 0020 0393     		str	r3, [sp, #12]
 677              	.L57:
 678              		.loc 5 192 0
 679 0022 0023     		movs	r3, #0
 680 0024 0293     		str	r3, [sp, #8]
 681              	.L66:
 682              		.loc 5 194 0
 683 0026 04AB     		add	r3, sp, #16
 684 0028 0022     		movs	r2, #0
ARM GAS  C:\Users\PCHAUT~1\AppData\Local\Temp\ccjQKXWT.s 			page 13


 685 002a 3721     		movs	r1, #55
 686 002c 0198     		ldr	r0, [sp, #4]
 687 002e FFF7FEFF 		bl	sdc_lld_send_cmd_short_crc
 688 0032 0346     		mov	r3, r0
 689 0034 002B     		cmp	r3, #0
 690 0036 04D1     		bne	.L58
 691              		.loc 5 195 0 discriminator 1
 692 0038 049A     		ldr	r2, [sp, #16]
 693 003a 1F4B     		ldr	r3, .L70+12
 694 003c 1340     		ands	r3, r3, r2
 695              		.loc 5 194 0 discriminator 1
 696 003e 002B     		cmp	r3, #0
 697 0040 01D0     		beq	.L59
 698              	.L58:
 699              		.loc 5 196 0
 700 0042 0123     		movs	r3, #1
 701 0044 27E0     		b	.L67
 702              	.L59:
 703              		.loc 5 198 0
 704 0046 04AB     		add	r3, sp, #16
 705 0048 039A     		ldr	r2, [sp, #12]
 706 004a 2921     		movs	r1, #41
 707 004c 0198     		ldr	r0, [sp, #4]
 708 004e FFF7FEFF 		bl	sdc_lld_send_cmd_short
 709 0052 0346     		mov	r3, r0
 710 0054 002B     		cmp	r3, #0
 711 0056 01D0     		beq	.L61
 712              		.loc 5 199 0
 713 0058 0123     		movs	r3, #1
 714 005a 1CE0     		b	.L67
 715              	.L61:
 716              		.loc 5 201 0
 717 005c 049B     		ldr	r3, [sp, #16]
 718 005e 002B     		cmp	r3, #0
 719 0060 0BDA     		bge	.L62
 720              		.loc 5 202 0
 721 0062 049B     		ldr	r3, [sp, #16]
 722 0064 03F08043 		and	r3, r3, #1073741824
 723 0068 002B     		cmp	r3, #0
 724 006a 12D0     		beq	.L69
 725              		.loc 5 203 0
 726 006c 019B     		ldr	r3, [sp, #4]
 727 006e 1B6B     		ldr	r3, [r3, #48]
 728 0070 43F01002 		orr	r2, r3, #16
 729 0074 019B     		ldr	r3, [sp, #4]
 730 0076 1A63     		str	r2, [r3, #48]
 731              		.loc 5 205 0
 732 0078 0BE0     		b	.L69
 733              	.L62:
 734              		.loc 5 207 0
 735 007a 029B     		ldr	r3, [sp, #8]
 736 007c 0133     		adds	r3, r3, #1
 737 007e 0293     		str	r3, [sp, #8]
 738 0080 029B     		ldr	r3, [sp, #8]
 739 0082 632B     		cmp	r3, #99
 740 0084 01D9     		bls	.L65
 741              		.loc 5 208 0
ARM GAS  C:\Users\PCHAUT~1\AppData\Local\Temp\ccjQKXWT.s 			page 14


 742 0086 0123     		movs	r3, #1
 743 0088 05E0     		b	.L67
 744              	.L65:
 745              		.loc 5 210 0
 746 008a 0A20     		movs	r0, #10
 747 008c FFF7FEFF 		bl	osalThreadSleep
 748              		.loc 5 194 0
 749 0090 C9E7     		b	.L66
 750              	.L69:
 751              		.loc 5 205 0
 752 0092 00BF     		nop
 753              		.loc 5 213 0
 754 0094 0023     		movs	r3, #0
 755              	.L67:
 756              		.loc 5 214 0 discriminator 1
 757 0096 1846     		mov	r0, r3
 758 0098 044B     		ldr	r3, .L70
 759 009a 059A     		ldr	r2, [sp, #20]
 760 009c 1B68     		ldr	r3, [r3]
 761 009e 9A42     		cmp	r2, r3
 762 00a0 01D0     		beq	.L68
 763              		.loc 5 214 0 is_stmt 0
 764 00a2 FFF7FEFF 		bl	__stack_chk_fail
 765              	.L68:
 766 00a6 07B0     		add	sp, sp, #28
 767              		.cfi_def_cfa_offset 4
 768              		@ sp needed
 769 00a8 5DF804FB 		ldr	pc, [sp], #4
 770              	.L71:
 771              		.align	2
 772              	.L70:
 773 00ac 00000000 		.word	__stack_chk_guard
 774 00b0 000010C0 		.word	-1072693248
 775 00b4 00001080 		.word	-2146435072
 776 00b8 08E0FFFD 		.word	-33562616
 777              		.cfi_endproc
 778              	.LFE258:
 779              		.size	sdc_init, .-sdc_init
 780              		.section	.text.mmc_cmd6_construct,"ax",%progbits
 781              		.align	1
 782              		.p2align 4,,15
 783              		.syntax unified
 784              		.thumb
 785              		.thumb_func
 786              		.fpu fpv4-sp-d16
 787              		.type	mmc_cmd6_construct, %function
 788              	mmc_cmd6_construct:
 789              	.LFB259:
 790              		.loc 5 229 0 is_stmt 1
 791              		.cfi_startproc
 792              		@ args = 0, pretend = 0, frame = 24
 793              		@ frame_needed = 0, uses_anonymous_args = 0
 794 0000 00B5     		push	{lr}
 795              		.cfi_def_cfa_offset 4
 796              		.cfi_offset 14, -4
 797 0002 87B0     		sub	sp, sp, #28
 798              		.cfi_def_cfa_offset 32
ARM GAS  C:\Users\PCHAUT~1\AppData\Local\Temp\ccjQKXWT.s 			page 15


 799 0004 0291     		str	r1, [sp, #8]
 800 0006 0192     		str	r2, [sp, #4]
 801 0008 0093     		str	r3, [sp]
 802 000a 0346     		mov	r3, r0
 803 000c 8DF80F30 		strb	r3, [sp, #15]
 804              		.loc 5 229 0
 805 0010 124B     		ldr	r3, .L78
 806 0012 1B68     		ldr	r3, [r3]
 807 0014 0593     		str	r3, [sp, #20]
 808              		.loc 5 231 0
 809 0016 029B     		ldr	r3, [sp, #8]
 810 0018 BF2B     		cmp	r3, #191
 811 001a 02D9     		bls	.L77
 812              		.loc 5 231 0 is_stmt 0 discriminator 2
 813 001c 1048     		ldr	r0, .L78+4
 814 001e FFF7FEFF 		bl	chSysHalt
 815              	.L77:
 816              		.loc 5 232 0 is_stmt 1 discriminator 1
 817 0022 009B     		ldr	r3, [sp]
 818 0024 072B     		cmp	r3, #7
 819 0026 02D9     		bls	.L74
 820              		.loc 5 232 0 is_stmt 0 discriminator 2
 821 0028 0D48     		ldr	r0, .L78+4
 822 002a FFF7FEFF 		bl	chSysHalt
 823              	.L74:
 824              		.loc 5 234 0 is_stmt 1
 825 002e 9DF80F30 		ldrb	r3, [sp, #15]	@ zero_extendqisi2
 826 0032 1A06     		lsls	r2, r3, #24
 827 0034 029B     		ldr	r3, [sp, #8]
 828 0036 1B04     		lsls	r3, r3, #16
 829 0038 1A43     		orrs	r2, r2, r3
 830 003a 019B     		ldr	r3, [sp, #4]
 831 003c 1B02     		lsls	r3, r3, #8
 832 003e 1A43     		orrs	r2, r2, r3
 833 0040 009B     		ldr	r3, [sp]
 834 0042 1343     		orrs	r3, r3, r2
 835              		.loc 5 235 0
 836 0044 1846     		mov	r0, r3
 837 0046 054B     		ldr	r3, .L78
 838 0048 059A     		ldr	r2, [sp, #20]
 839 004a 1B68     		ldr	r3, [r3]
 840 004c 9A42     		cmp	r2, r3
 841 004e 01D0     		beq	.L76
 842 0050 FFF7FEFF 		bl	__stack_chk_fail
 843              	.L76:
 844 0054 07B0     		add	sp, sp, #28
 845              		.cfi_def_cfa_offset 4
 846              		@ sp needed
 847 0056 5DF804FB 		ldr	pc, [sp], #4
 848              	.L79:
 849 005a 00BF     		.align	2
 850              	.L78:
 851 005c 00000000 		.word	__stack_chk_guard
 852 0060 00000000 		.word	__func__.10297
 853              		.cfi_endproc
 854              	.LFE259:
 855              		.size	mmc_cmd6_construct, .-mmc_cmd6_construct
ARM GAS  C:\Users\PCHAUT~1\AppData\Local\Temp\ccjQKXWT.s 			page 16


 856              		.section	.text.sdc_cmd6_construct,"ax",%progbits
 857              		.align	1
 858              		.p2align 4,,15
 859              		.syntax unified
 860              		.thumb
 861              		.thumb_func
 862              		.fpu fpv4-sp-d16
 863              		.type	sdc_cmd6_construct, %function
 864              	sdc_cmd6_construct:
 865              	.LFB260:
 866              		.loc 5 250 0
 867              		.cfi_startproc
 868              		@ args = 0, pretend = 0, frame = 16
 869              		@ frame_needed = 0, uses_anonymous_args = 0
 870 0000 00B5     		push	{lr}
 871              		.cfi_def_cfa_offset 4
 872              		.cfi_offset 14, -4
 873 0002 85B0     		sub	sp, sp, #20
 874              		.cfi_def_cfa_offset 24
 875 0004 0346     		mov	r3, r0
 876 0006 0092     		str	r2, [sp]
 877 0008 8DF80730 		strb	r3, [sp, #7]
 878 000c 0B46     		mov	r3, r1
 879 000e 8DF80630 		strb	r3, [sp, #6]
 880              		.loc 5 250 0
 881 0012 174B     		ldr	r3, .L84
 882 0014 1B68     		ldr	r3, [r3]
 883 0016 0393     		str	r3, [sp, #12]
 884              		.loc 5 251 0
 885 0018 6FF07F43 		mvn	r3, #-16777216
 886 001c 0293     		str	r3, [sp, #8]
 887              		.loc 5 253 0
 888 001e 009B     		ldr	r3, [sp]
 889 0020 0F2B     		cmp	r3, #15
 890 0022 02D9     		bls	.L81
 891              		.loc 5 253 0 is_stmt 0 discriminator 2
 892 0024 1348     		ldr	r0, .L84+4
 893 0026 FFF7FEFF 		bl	chSysHalt
 894              	.L81:
 895              		.loc 5 255 0 is_stmt 1
 896 002a 9DF80630 		ldrb	r3, [sp, #6]	@ zero_extendqisi2
 897 002e 9B00     		lsls	r3, r3, #2
 898 0030 0F22     		movs	r2, #15
 899 0032 02FA03F3 		lsl	r3, r2, r3
 900 0036 DB43     		mvns	r3, r3
 901 0038 029A     		ldr	r2, [sp, #8]
 902 003a 1340     		ands	r3, r3, r2
 903 003c 0293     		str	r3, [sp, #8]
 904              		.loc 5 256 0
 905 003e 9DF80630 		ldrb	r3, [sp, #6]	@ zero_extendqisi2
 906 0042 9B00     		lsls	r3, r3, #2
 907 0044 009A     		ldr	r2, [sp]
 908 0046 02FA03F3 		lsl	r3, r2, r3
 909 004a 029A     		ldr	r2, [sp, #8]
 910 004c 1343     		orrs	r3, r3, r2
 911 004e 0293     		str	r3, [sp, #8]
 912              		.loc 5 257 0
ARM GAS  C:\Users\PCHAUT~1\AppData\Local\Temp\ccjQKXWT.s 			page 17


 913 0050 9DF80730 		ldrb	r3, [sp, #7]	@ zero_extendqisi2
 914 0054 DA07     		lsls	r2, r3, #31
 915 0056 029B     		ldr	r3, [sp, #8]
 916 0058 1343     		orrs	r3, r3, r2
 917              		.loc 5 258 0
 918 005a 1846     		mov	r0, r3
 919 005c 044B     		ldr	r3, .L84
 920 005e 039A     		ldr	r2, [sp, #12]
 921 0060 1B68     		ldr	r3, [r3]
 922 0062 9A42     		cmp	r2, r3
 923 0064 01D0     		beq	.L83
 924 0066 FFF7FEFF 		bl	__stack_chk_fail
 925              	.L83:
 926 006a 05B0     		add	sp, sp, #20
 927              		.cfi_def_cfa_offset 4
 928              		@ sp needed
 929 006c 5DF804FB 		ldr	pc, [sp], #4
 930              	.L85:
 931              		.align	2
 932              	.L84:
 933 0070 00000000 		.word	__stack_chk_guard
 934 0074 00000000 		.word	__func__.10304
 935              		.cfi_endproc
 936              	.LFE260:
 937              		.size	sdc_cmd6_construct, .-sdc_cmd6_construct
 938              		.section	.text.sdc_cmd6_extract_info,"ax",%progbits
 939              		.align	1
 940              		.p2align 4,,15
 941              		.syntax unified
 942              		.thumb
 943              		.thumb_func
 944              		.fpu fpv4-sp-d16
 945              		.type	sdc_cmd6_extract_info, %function
 946              	sdc_cmd6_extract_info:
 947              	.LFB261:
 948              		.loc 5 271 0
 949              		.cfi_startproc
 950              		@ args = 0, pretend = 0, frame = 16
 951              		@ frame_needed = 0, uses_anonymous_args = 0
 952 0000 00B5     		push	{lr}
 953              		.cfi_def_cfa_offset 4
 954              		.cfi_offset 14, -4
 955 0002 85B0     		sub	sp, sp, #20
 956              		.cfi_def_cfa_offset 24
 957 0004 0346     		mov	r3, r0
 958 0006 0091     		str	r1, [sp]
 959 0008 8DF80730 		strb	r3, [sp, #7]
 960              		.loc 5 271 0
 961 000c 124B     		ldr	r3, .L89
 962 000e 1B68     		ldr	r3, [r3]
 963 0010 0393     		str	r3, [sp, #12]
 964              		.loc 5 273 0
 965 0012 9DF80720 		ldrb	r2, [sp, #7]	@ zero_extendqisi2
 966 0016 1346     		mov	r3, r2
 967 0018 DB07     		lsls	r3, r3, #31
 968 001a 9B1A     		subs	r3, r3, r2
 969 001c 5B00     		lsls	r3, r3, #1
ARM GAS  C:\Users\PCHAUT~1\AppData\Local\Temp\ccjQKXWT.s 			page 18


 970 001e 0C33     		adds	r3, r3, #12
 971 0020 0293     		str	r3, [sp, #8]
 972              		.loc 5 275 0
 973 0022 009A     		ldr	r2, [sp]
 974 0024 029B     		ldr	r3, [sp, #8]
 975 0026 1344     		add	r3, r3, r2
 976 0028 1B78     		ldrb	r3, [r3]	@ zero_extendqisi2
 977 002a 1B02     		lsls	r3, r3, #8
 978 002c 1AB2     		sxth	r2, r3
 979 002e 029B     		ldr	r3, [sp, #8]
 980 0030 0133     		adds	r3, r3, #1
 981 0032 0099     		ldr	r1, [sp]
 982 0034 0B44     		add	r3, r3, r1
 983 0036 1B78     		ldrb	r3, [r3]	@ zero_extendqisi2
 984 0038 1BB2     		sxth	r3, r3
 985 003a 1343     		orrs	r3, r3, r2
 986 003c 1BB2     		sxth	r3, r3
 987 003e 9BB2     		uxth	r3, r3
 988              		.loc 5 276 0
 989 0040 1846     		mov	r0, r3
 990 0042 054B     		ldr	r3, .L89
 991 0044 039A     		ldr	r2, [sp, #12]
 992 0046 1B68     		ldr	r3, [r3]
 993 0048 9A42     		cmp	r2, r3
 994 004a 01D0     		beq	.L88
 995 004c FFF7FEFF 		bl	__stack_chk_fail
 996              	.L88:
 997 0050 05B0     		add	sp, sp, #20
 998              		.cfi_def_cfa_offset 4
 999              		@ sp needed
 1000 0052 5DF804FB 		ldr	pc, [sp], #4
 1001              	.L90:
 1002 0056 00BF     		.align	2
 1003              	.L89:
 1004 0058 00000000 		.word	__stack_chk_guard
 1005              		.cfi_endproc
 1006              	.LFE261:
 1007              		.size	sdc_cmd6_extract_info, .-sdc_cmd6_extract_info
 1008              		.section	.text.sdc_cmd6_check_status,"ax",%progbits
 1009              		.align	1
 1010              		.p2align 4,,15
 1011              		.syntax unified
 1012              		.thumb
 1013              		.thumb_func
 1014              		.fpu fpv4-sp-d16
 1015              		.type	sdc_cmd6_check_status, %function
 1016              	sdc_cmd6_check_status:
 1017              	.LFB262:
 1018              		.loc 5 291 0
 1019              		.cfi_startproc
 1020              		@ args = 0, pretend = 0, frame = 24
 1021              		@ frame_needed = 0, uses_anonymous_args = 0
 1022 0000 00B5     		push	{lr}
 1023              		.cfi_def_cfa_offset 4
 1024              		.cfi_offset 14, -4
 1025 0002 87B0     		sub	sp, sp, #28
 1026              		.cfi_def_cfa_offset 32
ARM GAS  C:\Users\PCHAUT~1\AppData\Local\Temp\ccjQKXWT.s 			page 19


 1027 0004 0346     		mov	r3, r0
 1028 0006 0091     		str	r1, [sp]
 1029 0008 8DF80730 		strb	r3, [sp, #7]
 1030              		.loc 5 291 0
 1031 000c 154B     		ldr	r3, .L95
 1032 000e 1B68     		ldr	r3, [r3]
 1033 0010 0593     		str	r3, [sp, #20]
 1034              		.loc 5 296 0
 1035 0012 009B     		ldr	r3, [sp]
 1036 0014 0E33     		adds	r3, r3, #14
 1037 0016 1B78     		ldrb	r3, [r3]	@ zero_extendqisi2
 1038 0018 1A04     		lsls	r2, r3, #16
 1039              		.loc 5 297 0
 1040 001a 009B     		ldr	r3, [sp]
 1041 001c 0F33     		adds	r3, r3, #15
 1042 001e 1B78     		ldrb	r3, [r3]	@ zero_extendqisi2
 1043 0020 1B02     		lsls	r3, r3, #8
 1044              		.loc 5 296 0
 1045 0022 1343     		orrs	r3, r3, r2
 1046              		.loc 5 298 0
 1047 0024 009A     		ldr	r2, [sp]
 1048 0026 1032     		adds	r2, r2, #16
 1049 0028 1278     		ldrb	r2, [r2]	@ zero_extendqisi2
 1050              		.loc 5 296 0
 1051 002a 1343     		orrs	r3, r3, r2
 1052 002c 0393     		str	r3, [sp, #12]
 1053              		.loc 5 299 0
 1054 002e 9DF80730 		ldrb	r3, [sp, #7]	@ zero_extendqisi2
 1055 0032 9B00     		lsls	r3, r3, #2
 1056 0034 039A     		ldr	r2, [sp, #12]
 1057 0036 22FA03F3 		lsr	r3, r2, r3
 1058 003a 03F00F03 		and	r3, r3, #15
 1059 003e 0493     		str	r3, [sp, #16]
 1060              		.loc 5 300 0
 1061 0040 049B     		ldr	r3, [sp, #16]
 1062 0042 0F2B     		cmp	r3, #15
 1063 0044 01D0     		beq	.L92
 1064              		.loc 5 301 0
 1065 0046 0023     		movs	r3, #0
 1066 0048 00E0     		b	.L93
 1067              	.L92:
 1068              		.loc 5 303 0
 1069 004a 0123     		movs	r3, #1
 1070              	.L93:
 1071              		.loc 5 304 0
 1072 004c 1846     		mov	r0, r3
 1073 004e 054B     		ldr	r3, .L95
 1074 0050 059A     		ldr	r2, [sp, #20]
 1075 0052 1B68     		ldr	r3, [r3]
 1076 0054 9A42     		cmp	r2, r3
 1077 0056 01D0     		beq	.L94
 1078 0058 FFF7FEFF 		bl	__stack_chk_fail
 1079              	.L94:
 1080 005c 07B0     		add	sp, sp, #28
 1081              		.cfi_def_cfa_offset 4
 1082              		@ sp needed
 1083 005e 5DF804FB 		ldr	pc, [sp], #4
ARM GAS  C:\Users\PCHAUT~1\AppData\Local\Temp\ccjQKXWT.s 			page 20


 1084              	.L96:
 1085 0062 00BF     		.align	2
 1086              	.L95:
 1087 0064 00000000 		.word	__stack_chk_guard
 1088              		.cfi_endproc
 1089              	.LFE262:
 1090              		.size	sdc_cmd6_check_status, .-sdc_cmd6_check_status
 1091              		.section	.text.sdc_detect_bus_clk,"ax",%progbits
 1092              		.align	1
 1093              		.p2align 4,,15
 1094              		.syntax unified
 1095              		.thumb
 1096              		.thumb_func
 1097              		.fpu fpv4-sp-d16
 1098              		.type	sdc_detect_bus_clk, %function
 1099              	sdc_detect_bus_clk:
 1100              	.LFB263:
 1101              		.loc 5 318 0
 1102              		.cfi_startproc
 1103              		@ args = 0, pretend = 0, frame = 32
 1104              		@ frame_needed = 1, uses_anonymous_args = 0
 1105 0000 B0B5     		push	{r4, r5, r7, lr}
 1106              		.cfi_def_cfa_offset 16
 1107              		.cfi_offset 4, -16
 1108              		.cfi_offset 5, -12
 1109              		.cfi_offset 7, -8
 1110              		.cfi_offset 14, -4
 1111 0002 8AB0     		sub	sp, sp, #40
 1112              		.cfi_def_cfa_offset 56
 1113 0004 02AF     		add	r7, sp, #8
 1114              		.cfi_def_cfa 7, 48
 1115 0006 7860     		str	r0, [r7, #4]
 1116 0008 3960     		str	r1, [r7]
 1117              		.loc 5 318 0
 1118 000a 434B     		ldr	r3, .L106
 1119 000c 1B68     		ldr	r3, [r3]
 1120 000e FB61     		str	r3, [r7, #28]
 1121 0010 6B46     		mov	r3, sp
 1122 0012 1D46     		mov	r5, r3
 1123              		.loc 5 320 0
 1124 0014 4023     		movs	r3, #64
 1125 0016 FB60     		str	r3, [r7, #12]
 1126              		.loc 5 321 0
 1127 0018 FB68     		ldr	r3, [r7, #12]
 1128 001a 013B     		subs	r3, r3, #1
 1129 001c 3B61     		str	r3, [r7, #16]
 1130 001e FB68     		ldr	r3, [r7, #12]
 1131 0020 1946     		mov	r1, r3
 1132 0022 4FF00002 		mov	r2, #0
 1133 0026 4FF00003 		mov	r3, #0
 1134 002a 4FF00004 		mov	r4, #0
 1135 002e D400     		lsls	r4, r2, #3
 1136 0030 44EA5174 		orr	r4, r4, r1, lsr #29
 1137 0034 CB00     		lsls	r3, r1, #3
 1138 0036 FB68     		ldr	r3, [r7, #12]
 1139 0038 1946     		mov	r1, r3
 1140 003a 4FF00002 		mov	r2, #0
ARM GAS  C:\Users\PCHAUT~1\AppData\Local\Temp\ccjQKXWT.s 			page 21


 1141 003e 4FF00003 		mov	r3, #0
 1142 0042 4FF00004 		mov	r4, #0
 1143 0046 D400     		lsls	r4, r2, #3
 1144 0048 44EA5174 		orr	r4, r4, r1, lsr #29
 1145 004c CB00     		lsls	r3, r1, #3
 1146 004e FB68     		ldr	r3, [r7, #12]
 1147 0050 0733     		adds	r3, r3, #7
 1148 0052 DB08     		lsrs	r3, r3, #3
 1149 0054 DB00     		lsls	r3, r3, #3
 1150 0056 ADEB030D 		sub	sp, sp, r3
 1151 005a 02AB     		add	r3, sp, #8
 1152 005c 0033     		adds	r3, r3, #0
 1153 005e 7B61     		str	r3, [r7, #20]
 1154              		.loc 5 324 0
 1155 0060 3B68     		ldr	r3, [r7]
 1156 0062 0022     		movs	r2, #0
 1157 0064 1A70     		strb	r2, [r3]
 1158              		.loc 5 328 0
 1159 0066 7B68     		ldr	r3, [r7, #4]
 1160 0068 1833     		adds	r3, r3, #24
 1161 006a 7E22     		movs	r2, #126
 1162 006c 7F21     		movs	r1, #127
 1163 006e 1846     		mov	r0, r3
 1164 0070 FFF7FEFF 		bl	_mmcsd_get_slice
 1165 0074 0346     		mov	r3, r0
 1166 0076 002B     		cmp	r3, #0
 1167 0078 04D1     		bne	.L98
 1168              		.loc 5 329 0
 1169 007a 3B68     		ldr	r3, [r7]
 1170 007c 0022     		movs	r2, #0
 1171 007e 1A70     		strb	r2, [r3]
 1172              		.loc 5 330 0
 1173 0080 0023     		movs	r3, #0
 1174 0082 3CE0     		b	.L99
 1175              	.L98:
 1176              		.loc 5 334 0
 1177 0084 7969     		ldr	r1, [r7, #20]
 1178 0086 0023     		movs	r3, #0
 1179 0088 0093     		str	r3, [sp]
 1180 008a 0623     		movs	r3, #6
 1181 008c FA68     		ldr	r2, [r7, #12]
 1182 008e 7868     		ldr	r0, [r7, #4]
 1183 0090 FFF7FEFF 		bl	sdc_lld_read_special
 1184 0094 0346     		mov	r3, r0
 1185 0096 002B     		cmp	r3, #0
 1186 0098 01D0     		beq	.L100
 1187              		.loc 5 335 0
 1188 009a 0123     		movs	r3, #1
 1189 009c 2FE0     		b	.L99
 1190              	.L100:
 1191              		.loc 5 339 0
 1192 009e 7B69     		ldr	r3, [r7, #20]
 1193 00a0 1946     		mov	r1, r3
 1194 00a2 0020     		movs	r0, #0
 1195 00a4 FFF7FEFF 		bl	sdc_cmd6_extract_info
 1196 00a8 0346     		mov	r3, r0
 1197 00aa 03F00203 		and	r3, r3, #2
ARM GAS  C:\Users\PCHAUT~1\AppData\Local\Temp\ccjQKXWT.s 			page 22


 1198 00ae 022B     		cmp	r3, #2
 1199 00b0 24D1     		bne	.L101
 1200              		.loc 5 341 0
 1201 00b2 0122     		movs	r2, #1
 1202 00b4 0021     		movs	r1, #0
 1203 00b6 0120     		movs	r0, #1
 1204 00b8 FFF7FEFF 		bl	sdc_cmd6_construct
 1205 00bc B861     		str	r0, [r7, #24]
 1206              		.loc 5 344 0
 1207 00be 7969     		ldr	r1, [r7, #20]
 1208 00c0 BB69     		ldr	r3, [r7, #24]
 1209 00c2 0093     		str	r3, [sp]
 1210 00c4 0623     		movs	r3, #6
 1211 00c6 FA68     		ldr	r2, [r7, #12]
 1212 00c8 7868     		ldr	r0, [r7, #4]
 1213 00ca FFF7FEFF 		bl	sdc_lld_read_special
 1214 00ce 0346     		mov	r3, r0
 1215 00d0 002B     		cmp	r3, #0
 1216 00d2 01D0     		beq	.L102
 1217              		.loc 5 345 0
 1218 00d4 0123     		movs	r3, #1
 1219 00d6 12E0     		b	.L99
 1220              	.L102:
 1221              		.loc 5 349 0
 1222 00d8 7B69     		ldr	r3, [r7, #20]
 1223 00da 1946     		mov	r1, r3
 1224 00dc 0020     		movs	r0, #0
 1225 00de FFF7FEFF 		bl	sdc_cmd6_check_status
 1226 00e2 0346     		mov	r3, r0
 1227 00e4 83F00103 		eor	r3, r3, #1
 1228 00e8 DBB2     		uxtb	r3, r3
 1229 00ea 002B     		cmp	r3, #0
 1230 00ec 03D0     		beq	.L103
 1231              		.loc 5 350 0
 1232 00ee 3B68     		ldr	r3, [r7]
 1233 00f0 0122     		movs	r2, #1
 1234 00f2 1A70     		strb	r2, [r3]
 1235 00f4 02E0     		b	.L101
 1236              	.L103:
 1237              		.loc 5 353 0
 1238 00f6 3B68     		ldr	r3, [r7]
 1239 00f8 0022     		movs	r2, #0
 1240 00fa 1A70     		strb	r2, [r3]
 1241              	.L101:
 1242              		.loc 5 357 0
 1243 00fc 0023     		movs	r3, #0
 1244              	.L99:
 1245 00fe AD46     		mov	sp, r5
 1246              		.loc 5 358 0
 1247 0100 1846     		mov	r0, r3
 1248 0102 054B     		ldr	r3, .L106
 1249 0104 FA69     		ldr	r2, [r7, #28]
 1250 0106 1B68     		ldr	r3, [r3]
 1251 0108 9A42     		cmp	r2, r3
 1252 010a 01D0     		beq	.L105
 1253 010c FFF7FEFF 		bl	__stack_chk_fail
 1254              	.L105:
ARM GAS  C:\Users\PCHAUT~1\AppData\Local\Temp\ccjQKXWT.s 			page 23


 1255 0110 2037     		adds	r7, r7, #32
 1256              		.cfi_def_cfa_offset 16
 1257 0112 BD46     		mov	sp, r7
 1258              		.cfi_def_cfa_register 13
 1259              		@ sp needed
 1260 0114 B0BD     		pop	{r4, r5, r7, pc}
 1261              	.L107:
 1262 0116 00BF     		.align	2
 1263              	.L106:
 1264 0118 00000000 		.word	__stack_chk_guard
 1265              		.cfi_endproc
 1266              	.LFE263:
 1267              		.size	sdc_detect_bus_clk, .-sdc_detect_bus_clk
 1268              		.section	.text.mmc_detect_bus_clk,"ax",%progbits
 1269              		.align	1
 1270              		.p2align 4,,15
 1271              		.syntax unified
 1272              		.thumb
 1273              		.thumb_func
 1274              		.fpu fpv4-sp-d16
 1275              		.type	mmc_detect_bus_clk, %function
 1276              	mmc_detect_bus_clk:
 1277              	.LFB264:
 1278              		.loc 5 372 0
 1279              		.cfi_startproc
 1280              		@ args = 0, pretend = 0, frame = 24
 1281              		@ frame_needed = 0, uses_anonymous_args = 0
 1282 0000 00B5     		push	{lr}
 1283              		.cfi_def_cfa_offset 4
 1284              		.cfi_offset 14, -4
 1285 0002 87B0     		sub	sp, sp, #28
 1286              		.cfi_def_cfa_offset 32
 1287 0004 0190     		str	r0, [sp, #4]
 1288 0006 0091     		str	r1, [sp]
 1289              		.loc 5 372 0
 1290 0008 1A4B     		ldr	r3, .L114
 1291 000a 1B68     		ldr	r3, [r3]
 1292 000c 0593     		str	r3, [sp, #20]
 1293              		.loc 5 375 0
 1294 000e 019B     		ldr	r3, [sp, #4]
 1295 0010 DB6A     		ldr	r3, [r3, #44]
 1296 0012 1B68     		ldr	r3, [r3]
 1297 0014 0293     		str	r3, [sp, #8]
 1298              		.loc 5 378 0
 1299 0016 009B     		ldr	r3, [sp]
 1300 0018 0022     		movs	r2, #0
 1301 001a 1A70     		strb	r2, [r3]
 1302              		.loc 5 381 0
 1303 001c 029B     		ldr	r3, [sp, #8]
 1304 001e 002B     		cmp	r3, #0
 1305 0020 01D1     		bne	.L109
 1306              		.loc 5 382 0
 1307 0022 0023     		movs	r3, #0
 1308 0024 1BE0     		b	.L112
 1309              	.L109:
 1310              		.loc 5 385 0
 1311 0026 0023     		movs	r3, #0
ARM GAS  C:\Users\PCHAUT~1\AppData\Local\Temp\ccjQKXWT.s 			page 24


 1312 0028 0122     		movs	r2, #1
 1313 002a B921     		movs	r1, #185
 1314 002c 0320     		movs	r0, #3
 1315 002e FFF7FEFF 		bl	mmc_cmd6_construct
 1316 0032 0390     		str	r0, [sp, #12]
 1317              		.loc 5 386 0
 1318 0034 04AB     		add	r3, sp, #16
 1319 0036 039A     		ldr	r2, [sp, #12]
 1320 0038 0621     		movs	r1, #6
 1321 003a 0198     		ldr	r0, [sp, #4]
 1322 003c FFF7FEFF 		bl	sdc_lld_send_cmd_short_crc
 1323 0040 0346     		mov	r3, r0
 1324 0042 83F00103 		eor	r3, r3, #1
 1325 0046 DBB2     		uxtb	r3, r3
 1326 0048 002B     		cmp	r3, #0
 1327 004a 07D0     		beq	.L111
 1328              		.loc 5 387 0 discriminator 1
 1329 004c 049A     		ldr	r2, [sp, #16]
 1330 004e 0A4B     		ldr	r3, .L114+4
 1331 0050 1340     		ands	r3, r3, r2
 1332              		.loc 5 386 0 discriminator 1
 1333 0052 002B     		cmp	r3, #0
 1334 0054 02D1     		bne	.L111
 1335              		.loc 5 388 0
 1336 0056 009B     		ldr	r3, [sp]
 1337 0058 0122     		movs	r2, #1
 1338 005a 1A70     		strb	r2, [r3]
 1339              	.L111:
 1340              		.loc 5 391 0
 1341 005c 0023     		movs	r3, #0
 1342              	.L112:
 1343              		.loc 5 392 0 discriminator 1
 1344 005e 1846     		mov	r0, r3
 1345 0060 044B     		ldr	r3, .L114
 1346 0062 059A     		ldr	r2, [sp, #20]
 1347 0064 1B68     		ldr	r3, [r3]
 1348 0066 9A42     		cmp	r2, r3
 1349 0068 01D0     		beq	.L113
 1350              		.loc 5 392 0 is_stmt 0
 1351 006a FFF7FEFF 		bl	__stack_chk_fail
 1352              	.L113:
 1353 006e 07B0     		add	sp, sp, #28
 1354              		.cfi_def_cfa_offset 4
 1355              		@ sp needed
 1356 0070 5DF804FB 		ldr	pc, [sp], #4
 1357              	.L115:
 1358              		.align	2
 1359              	.L114:
 1360 0074 00000000 		.word	__stack_chk_guard
 1361 0078 08E0FFFD 		.word	-33562616
 1362              		.cfi_endproc
 1363              	.LFE264:
 1364              		.size	mmc_detect_bus_clk, .-mmc_detect_bus_clk
 1365              		.section	.text.detect_bus_clk,"ax",%progbits
 1366              		.align	1
 1367              		.p2align 4,,15
 1368              		.syntax unified
ARM GAS  C:\Users\PCHAUT~1\AppData\Local\Temp\ccjQKXWT.s 			page 25


 1369              		.thumb
 1370              		.thumb_func
 1371              		.fpu fpv4-sp-d16
 1372              		.type	detect_bus_clk, %function
 1373              	detect_bus_clk:
 1374              	.LFB265:
 1375              		.loc 5 406 0 is_stmt 1
 1376              		.cfi_startproc
 1377              		@ args = 0, pretend = 0, frame = 16
 1378              		@ frame_needed = 0, uses_anonymous_args = 0
 1379 0000 00B5     		push	{lr}
 1380              		.cfi_def_cfa_offset 4
 1381              		.cfi_offset 14, -4
 1382 0002 85B0     		sub	sp, sp, #20
 1383              		.cfi_def_cfa_offset 24
 1384 0004 0190     		str	r0, [sp, #4]
 1385 0006 0091     		str	r1, [sp]
 1386              		.loc 5 406 0
 1387 0008 0F4B     		ldr	r3, .L120
 1388 000a 1B68     		ldr	r3, [r3]
 1389 000c 0393     		str	r3, [sp, #12]
 1390              		.loc 5 408 0
 1391 000e 019B     		ldr	r3, [sp, #4]
 1392 0010 1B6B     		ldr	r3, [r3, #48]
 1393 0012 03F00F03 		and	r3, r3, #15
 1394 0016 022B     		cmp	r3, #2
 1395 0018 05D1     		bne	.L117
 1396              		.loc 5 409 0
 1397 001a 0099     		ldr	r1, [sp]
 1398 001c 0198     		ldr	r0, [sp, #4]
 1399 001e FFF7FEFF 		bl	mmc_detect_bus_clk
 1400 0022 0346     		mov	r3, r0
 1401 0024 04E0     		b	.L118
 1402              	.L117:
 1403              		.loc 5 411 0
 1404 0026 0099     		ldr	r1, [sp]
 1405 0028 0198     		ldr	r0, [sp, #4]
 1406 002a FFF7FEFF 		bl	sdc_detect_bus_clk
 1407 002e 0346     		mov	r3, r0
 1408              	.L118:
 1409              		.loc 5 412 0
 1410 0030 1846     		mov	r0, r3
 1411 0032 054B     		ldr	r3, .L120
 1412 0034 039A     		ldr	r2, [sp, #12]
 1413 0036 1B68     		ldr	r3, [r3]
 1414 0038 9A42     		cmp	r2, r3
 1415 003a 01D0     		beq	.L119
 1416 003c FFF7FEFF 		bl	__stack_chk_fail
 1417              	.L119:
 1418 0040 05B0     		add	sp, sp, #20
 1419              		.cfi_def_cfa_offset 4
 1420              		@ sp needed
 1421 0042 5DF804FB 		ldr	pc, [sp], #4
 1422              	.L121:
 1423 0046 00BF     		.align	2
 1424              	.L120:
 1425 0048 00000000 		.word	__stack_chk_guard
ARM GAS  C:\Users\PCHAUT~1\AppData\Local\Temp\ccjQKXWT.s 			page 26


 1426              		.cfi_endproc
 1427              	.LFE265:
 1428              		.size	detect_bus_clk, .-detect_bus_clk
 1429              		.section	.text.sdc_set_bus_width,"ax",%progbits
 1430              		.align	1
 1431              		.p2align 4,,15
 1432              		.syntax unified
 1433              		.thumb
 1434              		.thumb_func
 1435              		.fpu fpv4-sp-d16
 1436              		.type	sdc_set_bus_width, %function
 1437              	sdc_set_bus_width:
 1438              	.LFB266:
 1439              		.loc 5 425 0
 1440              		.cfi_startproc
 1441              		@ args = 0, pretend = 0, frame = 16
 1442              		@ frame_needed = 0, uses_anonymous_args = 0
 1443 0000 00B5     		push	{lr}
 1444              		.cfi_def_cfa_offset 4
 1445              		.cfi_offset 14, -4
 1446 0002 85B0     		sub	sp, sp, #20
 1447              		.cfi_def_cfa_offset 24
 1448 0004 0190     		str	r0, [sp, #4]
 1449              		.loc 5 425 0
 1450 0006 214B     		ldr	r3, .L132
 1451 0008 1B68     		ldr	r3, [r3]
 1452 000a 0393     		str	r3, [sp, #12]
 1453              		.loc 5 428 0
 1454 000c 019B     		ldr	r3, [sp, #4]
 1455 000e DB6A     		ldr	r3, [r3, #44]
 1456 0010 1B79     		ldrb	r3, [r3, #4]	@ zero_extendqisi2
 1457 0012 002B     		cmp	r3, #0
 1458 0014 01D1     		bne	.L123
 1459              		.loc 5 430 0
 1460 0016 0023     		movs	r3, #0
 1461 0018 2CE0     		b	.L130
 1462              	.L123:
 1463              		.loc 5 432 0
 1464 001a 019B     		ldr	r3, [sp, #4]
 1465 001c DB6A     		ldr	r3, [r3, #44]
 1466 001e 1B79     		ldrb	r3, [r3, #4]	@ zero_extendqisi2
 1467 0020 012B     		cmp	r3, #1
 1468 0022 24D1     		bne	.L125
 1469              		.loc 5 433 0
 1470 0024 0121     		movs	r1, #1
 1471 0026 0198     		ldr	r0, [sp, #4]
 1472 0028 FFF7FEFF 		bl	sdc_lld_set_bus_mode
 1473              		.loc 5 434 0
 1474 002c 019B     		ldr	r3, [sp, #4]
 1475 002e 9A6B     		ldr	r2, [r3, #56]
 1476 0030 02AB     		add	r3, sp, #8
 1477 0032 3721     		movs	r1, #55
 1478 0034 0198     		ldr	r0, [sp, #4]
 1479 0036 FFF7FEFF 		bl	sdc_lld_send_cmd_short_crc
 1480 003a 0346     		mov	r3, r0
 1481 003c 002B     		cmp	r3, #0
 1482 003e 04D1     		bne	.L126
ARM GAS  C:\Users\PCHAUT~1\AppData\Local\Temp\ccjQKXWT.s 			page 27


 1483              		.loc 5 435 0 discriminator 1
 1484 0040 029A     		ldr	r2, [sp, #8]
 1485 0042 134B     		ldr	r3, .L132+4
 1486 0044 1340     		ands	r3, r3, r2
 1487              		.loc 5 434 0 discriminator 1
 1488 0046 002B     		cmp	r3, #0
 1489 0048 01D0     		beq	.L127
 1490              	.L126:
 1491              		.loc 5 436 0
 1492 004a 0123     		movs	r3, #1
 1493 004c 12E0     		b	.L130
 1494              	.L127:
 1495              		.loc 5 439 0
 1496 004e 02AB     		add	r3, sp, #8
 1497 0050 0222     		movs	r2, #2
 1498 0052 0621     		movs	r1, #6
 1499 0054 0198     		ldr	r0, [sp, #4]
 1500 0056 FFF7FEFF 		bl	sdc_lld_send_cmd_short_crc
 1501 005a 0346     		mov	r3, r0
 1502 005c 002B     		cmp	r3, #0
 1503 005e 04D1     		bne	.L128
 1504              		.loc 5 440 0 discriminator 1
 1505 0060 029A     		ldr	r2, [sp, #8]
 1506 0062 0B4B     		ldr	r3, .L132+4
 1507 0064 1340     		ands	r3, r3, r2
 1508              		.loc 5 439 0 discriminator 1
 1509 0066 002B     		cmp	r3, #0
 1510 0068 03D0     		beq	.L129
 1511              	.L128:
 1512              		.loc 5 441 0
 1513 006a 0123     		movs	r3, #1
 1514 006c 02E0     		b	.L130
 1515              	.L125:
 1516              		.loc 5 446 0
 1517 006e 0123     		movs	r3, #1
 1518 0070 00E0     		b	.L130
 1519              	.L129:
 1520              		.loc 5 449 0
 1521 0072 0023     		movs	r3, #0
 1522              	.L130:
 1523              		.loc 5 450 0 discriminator 1
 1524 0074 1846     		mov	r0, r3
 1525 0076 054B     		ldr	r3, .L132
 1526 0078 039A     		ldr	r2, [sp, #12]
 1527 007a 1B68     		ldr	r3, [r3]
 1528 007c 9A42     		cmp	r2, r3
 1529 007e 01D0     		beq	.L131
 1530              		.loc 5 450 0 is_stmt 0
 1531 0080 FFF7FEFF 		bl	__stack_chk_fail
 1532              	.L131:
 1533 0084 05B0     		add	sp, sp, #20
 1534              		.cfi_def_cfa_offset 4
 1535              		@ sp needed
 1536 0086 5DF804FB 		ldr	pc, [sp], #4
 1537              	.L133:
 1538 008a 00BF     		.align	2
 1539              	.L132:
ARM GAS  C:\Users\PCHAUT~1\AppData\Local\Temp\ccjQKXWT.s 			page 28


 1540 008c 00000000 		.word	__stack_chk_guard
 1541 0090 08E0FFFD 		.word	-33562616
 1542              		.cfi_endproc
 1543              	.LFE266:
 1544              		.size	sdc_set_bus_width, .-sdc_set_bus_width
 1545              		.section	.text.mmc_set_bus_width,"ax",%progbits
 1546              		.align	1
 1547              		.p2align 4,,15
 1548              		.syntax unified
 1549              		.thumb
 1550              		.thumb_func
 1551              		.fpu fpv4-sp-d16
 1552              		.type	mmc_set_bus_width, %function
 1553              	mmc_set_bus_width:
 1554              	.LFB267:
 1555              		.loc 5 463 0 is_stmt 1
 1556              		.cfi_startproc
 1557              		@ args = 0, pretend = 0, frame = 24
 1558              		@ frame_needed = 0, uses_anonymous_args = 0
 1559 0000 00B5     		push	{lr}
 1560              		.cfi_def_cfa_offset 4
 1561              		.cfi_offset 14, -4
 1562 0002 87B0     		sub	sp, sp, #28
 1563              		.cfi_def_cfa_offset 32
 1564 0004 0190     		str	r0, [sp, #4]
 1565              		.loc 5 463 0
 1566 0006 264B     		ldr	r3, .L147
 1567 0008 1B68     		ldr	r3, [r3]
 1568 000a 0593     		str	r3, [sp, #20]
 1569              		.loc 5 465 0
 1570 000c 0023     		movs	r3, #0
 1571 000e 0022     		movs	r2, #0
 1572 0010 B721     		movs	r1, #183
 1573 0012 0320     		movs	r0, #3
 1574 0014 FFF7FEFF 		bl	mmc_cmd6_construct
 1575 0018 0390     		str	r0, [sp, #12]
 1576              		.loc 5 467 0
 1577 001a 019B     		ldr	r3, [sp, #4]
 1578 001c DB6A     		ldr	r3, [r3, #44]
 1579 001e 1B79     		ldrb	r3, [r3, #4]	@ zero_extendqisi2
 1580 0020 012B     		cmp	r3, #1
 1581 0022 05D0     		beq	.L136
 1582 0024 022B     		cmp	r3, #2
 1583 0026 0BD0     		beq	.L137
 1584 0028 002B     		cmp	r3, #0
 1585 002a 11D1     		bne	.L146
 1586              		.loc 5 470 0
 1587 002c 0023     		movs	r3, #0
 1588 002e 2BE0     		b	.L143
 1589              	.L136:
 1590              		.loc 5 472 0
 1591 0030 0023     		movs	r3, #0
 1592 0032 0122     		movs	r2, #1
 1593 0034 B721     		movs	r1, #183
 1594 0036 0320     		movs	r0, #3
 1595 0038 FFF7FEFF 		bl	mmc_cmd6_construct
 1596 003c 0390     		str	r0, [sp, #12]
ARM GAS  C:\Users\PCHAUT~1\AppData\Local\Temp\ccjQKXWT.s 			page 29


 1597              		.loc 5 473 0
 1598 003e 0BE0     		b	.L140
 1599              	.L137:
 1600              		.loc 5 475 0
 1601 0040 0023     		movs	r3, #0
 1602 0042 0222     		movs	r2, #2
 1603 0044 B721     		movs	r1, #183
 1604 0046 0320     		movs	r0, #3
 1605 0048 FFF7FEFF 		bl	mmc_cmd6_construct
 1606 004c 0390     		str	r0, [sp, #12]
 1607              		.loc 5 476 0
 1608 004e 03E0     		b	.L140
 1609              	.L146:
 1610              		.loc 5 478 0 discriminator 2
 1611 0050 1448     		ldr	r0, .L147+4
 1612 0052 FFF7FEFF 		bl	chSysHalt
 1613              		.loc 5 479 0 discriminator 2
 1614 0056 00BF     		nop
 1615              	.L140:
 1616              		.loc 5 482 0
 1617 0058 019B     		ldr	r3, [sp, #4]
 1618 005a DB6A     		ldr	r3, [r3, #44]
 1619 005c 1B79     		ldrb	r3, [r3, #4]	@ zero_extendqisi2
 1620 005e 1946     		mov	r1, r3
 1621 0060 0198     		ldr	r0, [sp, #4]
 1622 0062 FFF7FEFF 		bl	sdc_lld_set_bus_mode
 1623              		.loc 5 483 0
 1624 0066 04AB     		add	r3, sp, #16
 1625 0068 039A     		ldr	r2, [sp, #12]
 1626 006a 0621     		movs	r1, #6
 1627 006c 0198     		ldr	r0, [sp, #4]
 1628 006e FFF7FEFF 		bl	sdc_lld_send_cmd_short_crc
 1629 0072 0346     		mov	r3, r0
 1630 0074 002B     		cmp	r3, #0
 1631 0076 04D1     		bne	.L141
 1632              		.loc 5 484 0 discriminator 1
 1633 0078 049A     		ldr	r2, [sp, #16]
 1634 007a 0B4B     		ldr	r3, .L147+8
 1635 007c 1340     		ands	r3, r3, r2
 1636              		.loc 5 483 0 discriminator 1
 1637 007e 002B     		cmp	r3, #0
 1638 0080 01D0     		beq	.L142
 1639              	.L141:
 1640              		.loc 5 485 0
 1641 0082 0123     		movs	r3, #1
 1642 0084 00E0     		b	.L143
 1643              	.L142:
 1644              		.loc 5 488 0
 1645 0086 0023     		movs	r3, #0
 1646              	.L143:
 1647              		.loc 5 489 0 discriminator 1
 1648 0088 1846     		mov	r0, r3
 1649 008a 054B     		ldr	r3, .L147
 1650 008c 059A     		ldr	r2, [sp, #20]
 1651 008e 1B68     		ldr	r3, [r3]
 1652 0090 9A42     		cmp	r2, r3
 1653 0092 01D0     		beq	.L144
ARM GAS  C:\Users\PCHAUT~1\AppData\Local\Temp\ccjQKXWT.s 			page 30


 1654              		.loc 5 489 0 is_stmt 0
 1655 0094 FFF7FEFF 		bl	__stack_chk_fail
 1656              	.L144:
 1657 0098 07B0     		add	sp, sp, #28
 1658              		.cfi_def_cfa_offset 4
 1659              		@ sp needed
 1660 009a 5DF804FB 		ldr	pc, [sp], #4
 1661              	.L148:
 1662 009e 00BF     		.align	2
 1663              	.L147:
 1664 00a0 00000000 		.word	__stack_chk_guard
 1665 00a4 00000000 		.word	__func__.10348
 1666 00a8 08E0FFFD 		.word	-33562616
 1667              		.cfi_endproc
 1668              	.LFE267:
 1669              		.size	mmc_set_bus_width, .-mmc_set_bus_width
 1670              		.section	.text._sdc_wait_for_transfer_state,"ax",%progbits
 1671              		.align	1
 1672              		.p2align 4,,15
 1673              		.global	_sdc_wait_for_transfer_state
 1674              		.syntax unified
 1675              		.thumb
 1676              		.thumb_func
 1677              		.fpu fpv4-sp-d16
 1678              		.type	_sdc_wait_for_transfer_state, %function
 1679              	_sdc_wait_for_transfer_state:
 1680              	.LFB268:
 1681              		.loc 5 502 0 is_stmt 1
 1682              		.cfi_startproc
 1683              		@ args = 0, pretend = 0, frame = 16
 1684              		@ frame_needed = 0, uses_anonymous_args = 0
 1685 0000 00B5     		push	{lr}
 1686              		.cfi_def_cfa_offset 4
 1687              		.cfi_offset 14, -4
 1688 0002 85B0     		sub	sp, sp, #20
 1689              		.cfi_def_cfa_offset 24
 1690 0004 0190     		str	r0, [sp, #4]
 1691              		.loc 5 502 0
 1692 0006 184B     		ldr	r3, .L160
 1693 0008 1B68     		ldr	r3, [r3]
 1694 000a 0393     		str	r3, [sp, #12]
 1695              	.L156:
 1696              		.loc 5 506 0
 1697 000c 019B     		ldr	r3, [sp, #4]
 1698 000e 9A6B     		ldr	r2, [r3, #56]
 1699 0010 02AB     		add	r3, sp, #8
 1700 0012 0D21     		movs	r1, #13
 1701 0014 0198     		ldr	r0, [sp, #4]
 1702 0016 FFF7FEFF 		bl	sdc_lld_send_cmd_short_crc
 1703 001a 0346     		mov	r3, r0
 1704 001c 002B     		cmp	r3, #0
 1705 001e 04D1     		bne	.L150
 1706              		.loc 5 508 0
 1707 0020 029A     		ldr	r2, [sp, #8]
 1708 0022 124B     		ldr	r3, .L160+4
 1709 0024 1340     		ands	r3, r3, r2
 1710              		.loc 5 507 0
ARM GAS  C:\Users\PCHAUT~1\AppData\Local\Temp\ccjQKXWT.s 			page 31


 1711 0026 002B     		cmp	r3, #0
 1712 0028 01D0     		beq	.L151
 1713              	.L150:
 1714              		.loc 5 509 0
 1715 002a 0123     		movs	r3, #1
 1716 002c 11E0     		b	.L157
 1717              	.L151:
 1718              		.loc 5 512 0
 1719 002e 029B     		ldr	r3, [sp, #8]
 1720 0030 5B0A     		lsrs	r3, r3, #9
 1721 0032 03F00F03 		and	r3, r3, #15
 1722 0036 042B     		cmp	r3, #4
 1723 0038 04D0     		beq	.L154
 1724 003a 042B     		cmp	r3, #4
 1725 003c 08D3     		bcc	.L153
 1726 003e 072B     		cmp	r3, #7
 1727 0040 06D8     		bhi	.L153
 1728 0042 01E0     		b	.L159
 1729              	.L154:
 1730              		.loc 5 514 0
 1731 0044 0023     		movs	r3, #0
 1732 0046 04E0     		b	.L157
 1733              	.L159:
 1734              		.loc 5 519 0
 1735 0048 0120     		movs	r0, #1
 1736 004a FFF7FEFF 		bl	osalThreadSleep
 1737              		.loc 5 506 0
 1738 004e DDE7     		b	.L156
 1739              	.L153:
 1740              		.loc 5 525 0
 1741 0050 0123     		movs	r3, #1
 1742              	.L157:
 1743              		.loc 5 528 0 discriminator 1
 1744 0052 1846     		mov	r0, r3
 1745 0054 044B     		ldr	r3, .L160
 1746 0056 039A     		ldr	r2, [sp, #12]
 1747 0058 1B68     		ldr	r3, [r3]
 1748 005a 9A42     		cmp	r2, r3
 1749 005c 01D0     		beq	.L158
 1750              		.loc 5 528 0 is_stmt 0
 1751 005e FFF7FEFF 		bl	__stack_chk_fail
 1752              	.L158:
 1753 0062 05B0     		add	sp, sp, #20
 1754              		.cfi_def_cfa_offset 4
 1755              		@ sp needed
 1756 0064 5DF804FB 		ldr	pc, [sp], #4
 1757              	.L161:
 1758              		.align	2
 1759              	.L160:
 1760 0068 00000000 		.word	__stack_chk_guard
 1761 006c 08E0FFFD 		.word	-33562616
 1762              		.cfi_endproc
 1763              	.LFE268:
 1764              		.size	_sdc_wait_for_transfer_state, .-_sdc_wait_for_transfer_state
 1765              		.section	.text.sdcInit,"ax",%progbits
 1766              		.align	1
 1767              		.p2align 4,,15
ARM GAS  C:\Users\PCHAUT~1\AppData\Local\Temp\ccjQKXWT.s 			page 32


 1768              		.global	sdcInit
 1769              		.syntax unified
 1770              		.thumb
 1771              		.thumb_func
 1772              		.fpu fpv4-sp-d16
 1773              		.type	sdcInit, %function
 1774              	sdcInit:
 1775              	.LFB269:
 1776              		.loc 5 541 0 is_stmt 1
 1777              		.cfi_startproc
 1778              		@ args = 0, pretend = 0, frame = 8
 1779              		@ frame_needed = 0, uses_anonymous_args = 0
 1780 0000 00B5     		push	{lr}
 1781              		.cfi_def_cfa_offset 4
 1782              		.cfi_offset 14, -4
 1783 0002 83B0     		sub	sp, sp, #12
 1784              		.cfi_def_cfa_offset 16
 1785              		.loc 5 541 0
 1786 0004 074B     		ldr	r3, .L164
 1787 0006 1B68     		ldr	r3, [r3]
 1788 0008 0193     		str	r3, [sp, #4]
 1789              		.loc 5 543 0
 1790 000a FFF7FEFF 		bl	sdc_lld_init
 1791              		.loc 5 544 0
 1792 000e 00BF     		nop
 1793 0010 044B     		ldr	r3, .L164
 1794 0012 019A     		ldr	r2, [sp, #4]
 1795 0014 1B68     		ldr	r3, [r3]
 1796 0016 9A42     		cmp	r2, r3
 1797 0018 01D0     		beq	.L163
 1798 001a FFF7FEFF 		bl	__stack_chk_fail
 1799              	.L163:
 1800 001e 03B0     		add	sp, sp, #12
 1801              		.cfi_def_cfa_offset 4
 1802              		@ sp needed
 1803 0020 5DF804FB 		ldr	pc, [sp], #4
 1804              	.L165:
 1805              		.align	2
 1806              	.L164:
 1807 0024 00000000 		.word	__stack_chk_guard
 1808              		.cfi_endproc
 1809              	.LFE269:
 1810              		.size	sdcInit, .-sdcInit
 1811              		.section	.text.sdcObjectInit,"ax",%progbits
 1812              		.align	1
 1813              		.p2align 4,,15
 1814              		.global	sdcObjectInit
 1815              		.syntax unified
 1816              		.thumb
 1817              		.thumb_func
 1818              		.fpu fpv4-sp-d16
 1819              		.type	sdcObjectInit, %function
 1820              	sdcObjectInit:
 1821              	.LFB270:
 1822              		.loc 5 553 0
 1823              		.cfi_startproc
 1824              		@ args = 0, pretend = 0, frame = 16
ARM GAS  C:\Users\PCHAUT~1\AppData\Local\Temp\ccjQKXWT.s 			page 33


 1825              		@ frame_needed = 0, uses_anonymous_args = 0
 1826 0000 00B5     		push	{lr}
 1827              		.cfi_def_cfa_offset 4
 1828              		.cfi_offset 14, -4
 1829 0002 85B0     		sub	sp, sp, #20
 1830              		.cfi_def_cfa_offset 24
 1831 0004 0190     		str	r0, [sp, #4]
 1832              		.loc 5 553 0
 1833 0006 0E4B     		ldr	r3, .L168
 1834 0008 1B68     		ldr	r3, [r3]
 1835 000a 0393     		str	r3, [sp, #12]
 1836              		.loc 5 555 0
 1837 000c 019B     		ldr	r3, [sp, #4]
 1838 000e 0D4A     		ldr	r2, .L168+4
 1839 0010 1A60     		str	r2, [r3]
 1840              		.loc 5 556 0
 1841 0012 019B     		ldr	r3, [sp, #4]
 1842 0014 0122     		movs	r2, #1
 1843 0016 1A71     		strb	r2, [r3, #4]
 1844              		.loc 5 557 0
 1845 0018 019B     		ldr	r3, [sp, #4]
 1846 001a 0022     		movs	r2, #0
 1847 001c 5A63     		str	r2, [r3, #52]
 1848              		.loc 5 558 0
 1849 001e 019B     		ldr	r3, [sp, #4]
 1850 0020 0022     		movs	r2, #0
 1851 0022 DA62     		str	r2, [r3, #44]
 1852              		.loc 5 559 0
 1853 0024 019B     		ldr	r3, [sp, #4]
 1854 0026 0022     		movs	r2, #0
 1855 0028 9A62     		str	r2, [r3, #40]
 1856              		.loc 5 560 0
 1857 002a 00BF     		nop
 1858 002c 044B     		ldr	r3, .L168
 1859 002e 039A     		ldr	r2, [sp, #12]
 1860 0030 1B68     		ldr	r3, [r3]
 1861 0032 9A42     		cmp	r2, r3
 1862 0034 01D0     		beq	.L167
 1863 0036 FFF7FEFF 		bl	__stack_chk_fail
 1864              	.L167:
 1865 003a 05B0     		add	sp, sp, #20
 1866              		.cfi_def_cfa_offset 4
 1867              		@ sp needed
 1868 003c 5DF804FB 		ldr	pc, [sp], #4
 1869              	.L169:
 1870              		.align	2
 1871              	.L168:
 1872 0040 00000000 		.word	__stack_chk_guard
 1873 0044 00000000 		.word	sdc_vmt
 1874              		.cfi_endproc
 1875              	.LFE270:
 1876              		.size	sdcObjectInit, .-sdcObjectInit
 1877              		.section	.text.sdcStart,"ax",%progbits
 1878              		.align	1
 1879              		.p2align 4,,15
 1880              		.global	sdcStart
 1881              		.syntax unified
ARM GAS  C:\Users\PCHAUT~1\AppData\Local\Temp\ccjQKXWT.s 			page 34


 1882              		.thumb
 1883              		.thumb_func
 1884              		.fpu fpv4-sp-d16
 1885              		.type	sdcStart, %function
 1886              	sdcStart:
 1887              	.LFB271:
 1888              		.loc 5 572 0
 1889              		.cfi_startproc
 1890              		@ args = 0, pretend = 0, frame = 16
 1891              		@ frame_needed = 0, uses_anonymous_args = 0
 1892 0000 00B5     		push	{lr}
 1893              		.cfi_def_cfa_offset 4
 1894              		.cfi_offset 14, -4
 1895 0002 85B0     		sub	sp, sp, #20
 1896              		.cfi_def_cfa_offset 24
 1897 0004 0190     		str	r0, [sp, #4]
 1898 0006 0091     		str	r1, [sp]
 1899              		.loc 5 572 0
 1900 0008 154B     		ldr	r3, .L174
 1901 000a 1B68     		ldr	r3, [r3]
 1902 000c 0393     		str	r3, [sp, #12]
 1903              		.loc 5 574 0
 1904 000e 019B     		ldr	r3, [sp, #4]
 1905 0010 002B     		cmp	r3, #0
 1906 0012 02D1     		bne	.L171
 1907              		.loc 5 574 0 is_stmt 0 discriminator 2
 1908 0014 1348     		ldr	r0, .L174+4
 1909 0016 FFF7FEFF 		bl	chSysHalt
 1910              	.L171:
 1911              		.loc 5 576 0 is_stmt 1
 1912 001a FFF7FEFF 		bl	osalSysLock
 1913              		.loc 5 577 0
 1914 001e 019B     		ldr	r3, [sp, #4]
 1915 0020 1B79     		ldrb	r3, [r3, #4]	@ zero_extendqisi2
 1916 0022 012B     		cmp	r3, #1
 1917 0024 06D0     		beq	.L172
 1918              		.loc 5 577 0 is_stmt 0 discriminator 2
 1919 0026 019B     		ldr	r3, [sp, #4]
 1920 0028 1B79     		ldrb	r3, [r3, #4]	@ zero_extendqisi2
 1921 002a 022B     		cmp	r3, #2
 1922 002c 02D0     		beq	.L172
 1923              		.loc 5 577 0 discriminator 3
 1924 002e 0D48     		ldr	r0, .L174+4
 1925 0030 FFF7FEFF 		bl	chSysHalt
 1926              	.L172:
 1927              		.loc 5 579 0 is_stmt 1
 1928 0034 019B     		ldr	r3, [sp, #4]
 1929 0036 009A     		ldr	r2, [sp]
 1930 0038 DA62     		str	r2, [r3, #44]
 1931              		.loc 5 580 0
 1932 003a 0198     		ldr	r0, [sp, #4]
 1933 003c FFF7FEFF 		bl	sdc_lld_start
 1934              		.loc 5 581 0
 1935 0040 019B     		ldr	r3, [sp, #4]
 1936 0042 0222     		movs	r2, #2
 1937 0044 1A71     		strb	r2, [r3, #4]
 1938              		.loc 5 582 0
ARM GAS  C:\Users\PCHAUT~1\AppData\Local\Temp\ccjQKXWT.s 			page 35


 1939 0046 FFF7FEFF 		bl	osalSysUnlock
 1940              		.loc 5 583 0
 1941 004a 00BF     		nop
 1942 004c 044B     		ldr	r3, .L174
 1943 004e 039A     		ldr	r2, [sp, #12]
 1944 0050 1B68     		ldr	r3, [r3]
 1945 0052 9A42     		cmp	r2, r3
 1946 0054 01D0     		beq	.L173
 1947 0056 FFF7FEFF 		bl	__stack_chk_fail
 1948              	.L173:
 1949 005a 05B0     		add	sp, sp, #20
 1950              		.cfi_def_cfa_offset 4
 1951              		@ sp needed
 1952 005c 5DF804FB 		ldr	pc, [sp], #4
 1953              	.L175:
 1954              		.align	2
 1955              	.L174:
 1956 0060 00000000 		.word	__stack_chk_guard
 1957 0064 00000000 		.word	__func__.10370
 1958              		.cfi_endproc
 1959              	.LFE271:
 1960              		.size	sdcStart, .-sdcStart
 1961              		.section	.text.sdcStop,"ax",%progbits
 1962              		.align	1
 1963              		.p2align 4,,15
 1964              		.global	sdcStop
 1965              		.syntax unified
 1966              		.thumb
 1967              		.thumb_func
 1968              		.fpu fpv4-sp-d16
 1969              		.type	sdcStop, %function
 1970              	sdcStop:
 1971              	.LFB272:
 1972              		.loc 5 592 0
 1973              		.cfi_startproc
 1974              		@ args = 0, pretend = 0, frame = 16
 1975              		@ frame_needed = 0, uses_anonymous_args = 0
 1976 0000 00B5     		push	{lr}
 1977              		.cfi_def_cfa_offset 4
 1978              		.cfi_offset 14, -4
 1979 0002 85B0     		sub	sp, sp, #20
 1980              		.cfi_def_cfa_offset 24
 1981 0004 0190     		str	r0, [sp, #4]
 1982              		.loc 5 592 0
 1983 0006 144B     		ldr	r3, .L180
 1984 0008 1B68     		ldr	r3, [r3]
 1985 000a 0393     		str	r3, [sp, #12]
 1986              		.loc 5 594 0
 1987 000c 019B     		ldr	r3, [sp, #4]
 1988 000e 002B     		cmp	r3, #0
 1989 0010 02D1     		bne	.L177
 1990              		.loc 5 594 0 is_stmt 0 discriminator 2
 1991 0012 1248     		ldr	r0, .L180+4
 1992 0014 FFF7FEFF 		bl	chSysHalt
 1993              	.L177:
 1994              		.loc 5 596 0 is_stmt 1
 1995 0018 FFF7FEFF 		bl	osalSysLock
ARM GAS  C:\Users\PCHAUT~1\AppData\Local\Temp\ccjQKXWT.s 			page 36


 1996              		.loc 5 597 0
 1997 001c 019B     		ldr	r3, [sp, #4]
 1998 001e 1B79     		ldrb	r3, [r3, #4]	@ zero_extendqisi2
 1999 0020 012B     		cmp	r3, #1
 2000 0022 06D0     		beq	.L178
 2001              		.loc 5 597 0 is_stmt 0 discriminator 2
 2002 0024 019B     		ldr	r3, [sp, #4]
 2003 0026 1B79     		ldrb	r3, [r3, #4]	@ zero_extendqisi2
 2004 0028 022B     		cmp	r3, #2
 2005 002a 02D0     		beq	.L178
 2006              		.loc 5 597 0 discriminator 3
 2007 002c 0B48     		ldr	r0, .L180+4
 2008 002e FFF7FEFF 		bl	chSysHalt
 2009              	.L178:
 2010              		.loc 5 599 0 is_stmt 1
 2011 0032 0198     		ldr	r0, [sp, #4]
 2012 0034 FFF7FEFF 		bl	sdc_lld_stop
 2013              		.loc 5 600 0
 2014 0038 019B     		ldr	r3, [sp, #4]
 2015 003a 0122     		movs	r2, #1
 2016 003c 1A71     		strb	r2, [r3, #4]
 2017              		.loc 5 601 0
 2018 003e FFF7FEFF 		bl	osalSysUnlock
 2019              		.loc 5 602 0
 2020 0042 00BF     		nop
 2021 0044 044B     		ldr	r3, .L180
 2022 0046 039A     		ldr	r2, [sp, #12]
 2023 0048 1B68     		ldr	r3, [r3]
 2024 004a 9A42     		cmp	r2, r3
 2025 004c 01D0     		beq	.L179
 2026 004e FFF7FEFF 		bl	__stack_chk_fail
 2027              	.L179:
 2028 0052 05B0     		add	sp, sp, #20
 2029              		.cfi_def_cfa_offset 4
 2030              		@ sp needed
 2031 0054 5DF804FB 		ldr	pc, [sp], #4
 2032              	.L181:
 2033              		.align	2
 2034              	.L180:
 2035 0058 00000000 		.word	__stack_chk_guard
 2036 005c 00000000 		.word	__func__.10374
 2037              		.cfi_endproc
 2038              	.LFE272:
 2039              		.size	sdcStop, .-sdcStop
 2040              		.section	.text.sdcConnect,"ax",%progbits
 2041              		.align	1
 2042              		.p2align 4,,15
 2043              		.global	sdcConnect
 2044              		.syntax unified
 2045              		.thumb
 2046              		.thumb_func
 2047              		.fpu fpv4-sp-d16
 2048              		.type	sdcConnect, %function
 2049              	sdcConnect:
 2050              	.LFB273:
 2051              		.loc 5 618 0
 2052              		.cfi_startproc
ARM GAS  C:\Users\PCHAUT~1\AppData\Local\Temp\ccjQKXWT.s 			page 37


 2053              		@ args = 0, pretend = 0, frame = 24
 2054              		@ frame_needed = 0, uses_anonymous_args = 0
 2055 0000 00B5     		push	{lr}
 2056              		.cfi_def_cfa_offset 4
 2057              		.cfi_offset 14, -4
 2058 0002 89B0     		sub	sp, sp, #36
 2059              		.cfi_def_cfa_offset 40
 2060 0004 0390     		str	r0, [sp, #12]
 2061              		.loc 5 618 0
 2062 0006 834B     		ldr	r3, .L222
 2063 0008 1B68     		ldr	r3, [r3]
 2064 000a 0793     		str	r3, [sp, #28]
 2065              		.loc 5 620 0
 2066 000c 0023     		movs	r3, #0
 2067 000e 8DF81330 		strb	r3, [sp, #19]
 2068              		.loc 5 622 0
 2069 0012 039B     		ldr	r3, [sp, #12]
 2070 0014 002B     		cmp	r3, #0
 2071 0016 02D1     		bne	.L209
 2072              		.loc 5 622 0 is_stmt 0 discriminator 2
 2073 0018 7F48     		ldr	r0, .L222+4
 2074 001a FFF7FEFF 		bl	chSysHalt
 2075              	.L209:
 2076              		.loc 5 623 0 is_stmt 1 discriminator 1
 2077 001e 039B     		ldr	r3, [sp, #12]
 2078 0020 1B79     		ldrb	r3, [r3, #4]	@ zero_extendqisi2
 2079 0022 022B     		cmp	r3, #2
 2080 0024 06D0     		beq	.L184
 2081              		.loc 5 623 0 is_stmt 0 discriminator 2
 2082 0026 039B     		ldr	r3, [sp, #12]
 2083 0028 1B79     		ldrb	r3, [r3, #4]	@ zero_extendqisi2
 2084 002a 052B     		cmp	r3, #5
 2085 002c 02D0     		beq	.L184
 2086              		.loc 5 623 0 discriminator 3
 2087 002e 7A48     		ldr	r0, .L222+4
 2088 0030 FFF7FEFF 		bl	chSysHalt
 2089              	.L184:
 2090              		.loc 5 627 0 is_stmt 1
 2091 0034 039B     		ldr	r3, [sp, #12]
 2092 0036 0322     		movs	r2, #3
 2093 0038 1A71     		strb	r2, [r3, #4]
 2094              		.loc 5 630 0
 2095 003a 0398     		ldr	r0, [sp, #12]
 2096 003c FFF7FEFF 		bl	sdc_lld_start_clk
 2097              		.loc 5 633 0
 2098 0040 0022     		movs	r2, #0
 2099 0042 0021     		movs	r1, #0
 2100 0044 0398     		ldr	r0, [sp, #12]
 2101 0046 FFF7FEFF 		bl	sdc_lld_send_cmd_none
 2102              		.loc 5 636 0
 2103 004a 0398     		ldr	r0, [sp, #12]
 2104 004c FFF7FEFF 		bl	mode_detect
 2105 0050 0346     		mov	r3, r0
 2106 0052 002B     		cmp	r3, #0
 2107 0054 40F0B680 		bne	.L210
 2108              		.loc 5 641 0
 2109 0058 039B     		ldr	r3, [sp, #12]
ARM GAS  C:\Users\PCHAUT~1\AppData\Local\Temp\ccjQKXWT.s 			page 38


 2110 005a 1B6B     		ldr	r3, [r3, #48]
 2111 005c 03F00F03 		and	r3, r3, #15
 2112 0060 022B     		cmp	r3, #2
 2113 0062 06D1     		bne	.L187
 2114              		.loc 5 642 0
 2115 0064 0398     		ldr	r0, [sp, #12]
 2116 0066 FFF7FEFF 		bl	mmc_init
 2117 006a 0346     		mov	r3, r0
 2118 006c 002B     		cmp	r3, #0
 2119 006e 07D0     		beq	.L188
 2120              		.loc 5 643 0
 2121 0070 BDE0     		b	.L186
 2122              	.L187:
 2123              		.loc 5 647 0
 2124 0072 0398     		ldr	r0, [sp, #12]
 2125 0074 FFF7FEFF 		bl	sdc_init
 2126 0078 0346     		mov	r3, r0
 2127 007a 002B     		cmp	r3, #0
 2128 007c 40F0A480 		bne	.L211
 2129              	.L188:
 2130              		.loc 5 653 0
 2131 0080 039B     		ldr	r3, [sp, #12]
 2132 0082 0833     		adds	r3, r3, #8
 2133 0084 0022     		movs	r2, #0
 2134 0086 0221     		movs	r1, #2
 2135 0088 0398     		ldr	r0, [sp, #12]
 2136 008a FFF7FEFF 		bl	sdc_lld_send_cmd_long_crc
 2137 008e 0346     		mov	r3, r0
 2138 0090 002B     		cmp	r3, #0
 2139 0092 40F09B80 		bne	.L212
 2140              		.loc 5 658 0
 2141 0096 039B     		ldr	r3, [sp, #12]
 2142 0098 3833     		adds	r3, r3, #56
 2143 009a 0022     		movs	r2, #0
 2144 009c 0321     		movs	r1, #3
 2145 009e 0398     		ldr	r0, [sp, #12]
 2146 00a0 FFF7FEFF 		bl	sdc_lld_send_cmd_short_crc
 2147 00a4 0346     		mov	r3, r0
 2148 00a6 002B     		cmp	r3, #0
 2149 00a8 40F09280 		bne	.L213
 2150              		.loc 5 664 0
 2151 00ac 039B     		ldr	r3, [sp, #12]
 2152 00ae 9A6B     		ldr	r2, [r3, #56]
 2153              		.loc 5 665 0
 2154 00b0 039B     		ldr	r3, [sp, #12]
 2155 00b2 1833     		adds	r3, r3, #24
 2156              		.loc 5 664 0
 2157 00b4 0921     		movs	r1, #9
 2158 00b6 0398     		ldr	r0, [sp, #12]
 2159 00b8 FFF7FEFF 		bl	sdc_lld_send_cmd_long_crc
 2160 00bc 0346     		mov	r3, r0
 2161 00be 002B     		cmp	r3, #0
 2162 00c0 40F08880 		bne	.L214
 2163              		.loc 5 670 0
 2164 00c4 039B     		ldr	r3, [sp, #12]
 2165 00c6 9A6B     		ldr	r2, [r3, #56]
 2166 00c8 06AB     		add	r3, sp, #24
ARM GAS  C:\Users\PCHAUT~1\AppData\Local\Temp\ccjQKXWT.s 			page 39


 2167 00ca 0721     		movs	r1, #7
 2168 00cc 0398     		ldr	r0, [sp, #12]
 2169 00ce FFF7FEFF 		bl	sdc_lld_send_cmd_short_crc
 2170 00d2 0346     		mov	r3, r0
 2171 00d4 002B     		cmp	r3, #0
 2172 00d6 7FD1     		bne	.L215
 2173              		.loc 5 676 0
 2174 00d8 0DF11303 		add	r3, sp, #19
 2175 00dc 1946     		mov	r1, r3
 2176 00de 0398     		ldr	r0, [sp, #12]
 2177 00e0 FFF7FEFF 		bl	detect_bus_clk
 2178 00e4 0346     		mov	r3, r0
 2179 00e6 002B     		cmp	r3, #0
 2180 00e8 78D1     		bne	.L216
 2181              		.loc 5 679 0
 2182 00ea 9DF81330 		ldrb	r3, [sp, #19]	@ zero_extendqisi2
 2183 00ee 1946     		mov	r1, r3
 2184 00f0 0398     		ldr	r0, [sp, #12]
 2185 00f2 FFF7FEFF 		bl	sdc_lld_set_data_clk
 2186              		.loc 5 682 0
 2187 00f6 039B     		ldr	r3, [sp, #12]
 2188 00f8 1B6B     		ldr	r3, [r3, #48]
 2189 00fa 03F00F03 		and	r3, r3, #15
 2190 00fe 022B     		cmp	r3, #2
 2191 0100 2CD1     		bne	.L194
 2192              		.loc 5 685 0
 2193 0102 039B     		ldr	r3, [sp, #12]
 2194 0104 1833     		adds	r3, r3, #24
 2195 0106 7E22     		movs	r2, #126
 2196 0108 7F21     		movs	r1, #127
 2197 010a 1846     		mov	r0, r3
 2198 010c FFF7FEFF 		bl	_mmcsd_get_slice
 2199 0110 0346     		mov	r3, r0
 2200 0112 012B     		cmp	r3, #1
 2201 0114 19D9     		bls	.L195
 2202              	.LBB10:
 2203              		.loc 5 686 0
 2204 0116 039B     		ldr	r3, [sp, #12]
 2205 0118 DB6A     		ldr	r3, [r3, #44]
 2206 011a 1B68     		ldr	r3, [r3]
 2207 011c 0593     		str	r3, [sp, #20]
 2208              		.loc 5 689 0
 2209 011e 059B     		ldr	r3, [sp, #20]
 2210 0120 002B     		cmp	r3, #0
 2211 0122 5DD0     		beq	.L217
 2212              		.loc 5 693 0
 2213 0124 0023     		movs	r3, #0
 2214 0126 0093     		str	r3, [sp]
 2215 0128 0823     		movs	r3, #8
 2216 012a 4FF40072 		mov	r2, #512
 2217 012e 0599     		ldr	r1, [sp, #20]
 2218 0130 0398     		ldr	r0, [sp, #12]
 2219 0132 FFF7FEFF 		bl	sdc_lld_read_special
 2220 0136 0346     		mov	r3, r0
 2221 0138 002B     		cmp	r3, #0
 2222 013a 53D1     		bne	.L218
 2223              		.loc 5 698 0
ARM GAS  C:\Users\PCHAUT~1\AppData\Local\Temp\ccjQKXWT.s 			page 40


 2224 013c 0598     		ldr	r0, [sp, #20]
 2225 013e FFF7FEFF 		bl	_mmcsd_get_capacity_ext
 2226 0142 0246     		mov	r2, r0
 2227 0144 039B     		ldr	r3, [sp, #12]
 2228 0146 9A62     		str	r2, [r3, #40]
 2229              	.LBE10:
 2230 0148 10E0     		b	.L199
 2231              	.L195:
 2232              		.loc 5 702 0
 2233 014a 039B     		ldr	r3, [sp, #12]
 2234 014c 1833     		adds	r3, r3, #24
 2235 014e 1846     		mov	r0, r3
 2236 0150 FFF7FEFF 		bl	_mmcsd_get_capacity
 2237 0154 0246     		mov	r2, r0
 2238 0156 039B     		ldr	r3, [sp, #12]
 2239 0158 9A62     		str	r2, [r3, #40]
 2240 015a 07E0     		b	.L199
 2241              	.L194:
 2242              		.loc 5 707 0
 2243 015c 039B     		ldr	r3, [sp, #12]
 2244 015e 1833     		adds	r3, r3, #24
 2245 0160 1846     		mov	r0, r3
 2246 0162 FFF7FEFF 		bl	_mmcsd_get_capacity
 2247 0166 0246     		mov	r2, r0
 2248 0168 039B     		ldr	r3, [sp, #12]
 2249 016a 9A62     		str	r2, [r3, #40]
 2250              	.L199:
 2251              		.loc 5 711 0
 2252 016c 06AB     		add	r3, sp, #24
 2253 016e 4FF40072 		mov	r2, #512
 2254 0172 1021     		movs	r1, #16
 2255 0174 0398     		ldr	r0, [sp, #12]
 2256 0176 FFF7FEFF 		bl	sdc_lld_send_cmd_short_crc
 2257 017a 0346     		mov	r3, r0
 2258 017c 002B     		cmp	r3, #0
 2259 017e 33D1     		bne	.L219
 2260              		.loc 5 713 0
 2261 0180 069A     		ldr	r2, [sp, #24]
 2262 0182 264B     		ldr	r3, .L222+8
 2263 0184 1340     		ands	r3, r3, r2
 2264              		.loc 5 712 0
 2265 0186 002B     		cmp	r3, #0
 2266 0188 2ED1     		bne	.L219
 2267              		.loc 5 718 0
 2268 018a 039B     		ldr	r3, [sp, #12]
 2269 018c 1B6B     		ldr	r3, [r3, #48]
 2270 018e 03F00F03 		and	r3, r3, #15
 2271 0192 012B     		cmp	r3, #1
 2272 0194 02D9     		bls	.L201
 2273 0196 022B     		cmp	r3, #2
 2274 0198 07D0     		beq	.L202
 2275              		.loc 5 732 0
 2276 019a 28E0     		b	.L186
 2277              	.L201:
 2278              		.loc 5 721 0
 2279 019c 0398     		ldr	r0, [sp, #12]
 2280 019e FFF7FEFF 		bl	sdc_set_bus_width
ARM GAS  C:\Users\PCHAUT~1\AppData\Local\Temp\ccjQKXWT.s 			page 41


 2281 01a2 0346     		mov	r3, r0
 2282 01a4 002B     		cmp	r3, #0
 2283 01a6 07D0     		beq	.L220
 2284              		.loc 5 722 0
 2285 01a8 21E0     		b	.L186
 2286              	.L202:
 2287              		.loc 5 726 0
 2288 01aa 0398     		ldr	r0, [sp, #12]
 2289 01ac FFF7FEFF 		bl	mmc_set_bus_width
 2290 01b0 0346     		mov	r3, r0
 2291 01b2 002B     		cmp	r3, #0
 2292 01b4 1AD1     		bne	.L221
 2293              		.loc 5 729 0
 2294 01b6 00E0     		b	.L204
 2295              	.L220:
 2296              		.loc 5 724 0
 2297 01b8 00BF     		nop
 2298              	.L204:
 2299              		.loc 5 736 0
 2300 01ba 039B     		ldr	r3, [sp, #12]
 2301 01bc 0522     		movs	r2, #5
 2302 01be 1A71     		strb	r2, [r3, #4]
 2303              		.loc 5 737 0
 2304 01c0 0023     		movs	r3, #0
 2305 01c2 1BE0     		b	.L207
 2306              	.L210:
 2307              		.loc 5 637 0
 2308 01c4 00BF     		nop
 2309 01c6 12E0     		b	.L186
 2310              	.L211:
 2311              		.loc 5 648 0
 2312 01c8 00BF     		nop
 2313 01ca 10E0     		b	.L186
 2314              	.L212:
 2315              		.loc 5 654 0
 2316 01cc 00BF     		nop
 2317 01ce 0EE0     		b	.L186
 2318              	.L213:
 2319              		.loc 5 660 0
 2320 01d0 00BF     		nop
 2321 01d2 0CE0     		b	.L186
 2322              	.L214:
 2323              		.loc 5 666 0
 2324 01d4 00BF     		nop
 2325 01d6 0AE0     		b	.L186
 2326              	.L215:
 2327              		.loc 5 672 0
 2328 01d8 00BF     		nop
 2329 01da 08E0     		b	.L186
 2330              	.L216:
 2331              		.loc 5 677 0
 2332 01dc 00BF     		nop
 2333 01de 06E0     		b	.L186
 2334              	.L217:
 2335              	.LBB11:
 2336              		.loc 5 690 0
 2337 01e0 00BF     		nop
ARM GAS  C:\Users\PCHAUT~1\AppData\Local\Temp\ccjQKXWT.s 			page 42


 2338 01e2 04E0     		b	.L186
 2339              	.L218:
 2340              		.loc 5 694 0
 2341 01e4 00BF     		nop
 2342 01e6 02E0     		b	.L186
 2343              	.L219:
 2344              	.LBE11:
 2345              		.loc 5 740 0
 2346 01e8 00BF     		nop
 2347 01ea 00E0     		b	.L186
 2348              	.L221:
 2349              		.loc 5 727 0
 2350 01ec 00BF     		nop
 2351              	.L186:
 2352              		.loc 5 741 0
 2353 01ee 0398     		ldr	r0, [sp, #12]
 2354 01f0 FFF7FEFF 		bl	sdc_lld_stop_clk
 2355              		.loc 5 742 0
 2356 01f4 039B     		ldr	r3, [sp, #12]
 2357 01f6 0222     		movs	r2, #2
 2358 01f8 1A71     		strb	r2, [r3, #4]
 2359              		.loc 5 743 0
 2360 01fa 0123     		movs	r3, #1
 2361              	.L207:
 2362              		.loc 5 744 0 discriminator 1
 2363 01fc 1846     		mov	r0, r3
 2364 01fe 054B     		ldr	r3, .L222
 2365 0200 079A     		ldr	r2, [sp, #28]
 2366 0202 1B68     		ldr	r3, [r3]
 2367 0204 9A42     		cmp	r2, r3
 2368 0206 01D0     		beq	.L208
 2369              		.loc 5 744 0 is_stmt 0
 2370 0208 FFF7FEFF 		bl	__stack_chk_fail
 2371              	.L208:
 2372 020c 09B0     		add	sp, sp, #36
 2373              		.cfi_def_cfa_offset 4
 2374              		@ sp needed
 2375 020e 5DF804FB 		ldr	pc, [sp], #4
 2376              	.L223:
 2377 0212 00BF     		.align	2
 2378              	.L222:
 2379 0214 00000000 		.word	__stack_chk_guard
 2380 0218 00000000 		.word	__func__.10380
 2381 021c 08E0FFFD 		.word	-33562616
 2382              		.cfi_endproc
 2383              	.LFE273:
 2384              		.size	sdcConnect, .-sdcConnect
 2385              		.section	.text.sdcDisconnect,"ax",%progbits
 2386              		.align	1
 2387              		.p2align 4,,15
 2388              		.global	sdcDisconnect
 2389              		.syntax unified
 2390              		.thumb
 2391              		.thumb_func
 2392              		.fpu fpv4-sp-d16
 2393              		.type	sdcDisconnect, %function
 2394              	sdcDisconnect:
ARM GAS  C:\Users\PCHAUT~1\AppData\Local\Temp\ccjQKXWT.s 			page 43


 2395              	.LFB274:
 2396              		.loc 5 757 0 is_stmt 1
 2397              		.cfi_startproc
 2398              		@ args = 0, pretend = 0, frame = 16
 2399              		@ frame_needed = 0, uses_anonymous_args = 0
 2400 0000 00B5     		push	{lr}
 2401              		.cfi_def_cfa_offset 4
 2402              		.cfi_offset 14, -4
 2403 0002 85B0     		sub	sp, sp, #20
 2404              		.cfi_def_cfa_offset 24
 2405 0004 0190     		str	r0, [sp, #4]
 2406              		.loc 5 757 0
 2407 0006 214B     		ldr	r3, .L231
 2408 0008 1B68     		ldr	r3, [r3]
 2409 000a 0393     		str	r3, [sp, #12]
 2410              		.loc 5 759 0
 2411 000c 019B     		ldr	r3, [sp, #4]
 2412 000e 002B     		cmp	r3, #0
 2413 0010 02D1     		bne	.L225
 2414              		.loc 5 759 0 is_stmt 0 discriminator 2
 2415 0012 1F48     		ldr	r0, .L231+4
 2416 0014 FFF7FEFF 		bl	chSysHalt
 2417              	.L225:
 2418              		.loc 5 761 0 is_stmt 1
 2419 0018 FFF7FEFF 		bl	osalSysLock
 2420              		.loc 5 762 0
 2421 001c 019B     		ldr	r3, [sp, #4]
 2422 001e 1B79     		ldrb	r3, [r3, #4]	@ zero_extendqisi2
 2423 0020 022B     		cmp	r3, #2
 2424 0022 06D0     		beq	.L226
 2425              		.loc 5 762 0 is_stmt 0 discriminator 2
 2426 0024 019B     		ldr	r3, [sp, #4]
 2427 0026 1B79     		ldrb	r3, [r3, #4]	@ zero_extendqisi2
 2428 0028 052B     		cmp	r3, #5
 2429 002a 02D0     		beq	.L226
 2430              		.loc 5 762 0 discriminator 3
 2431 002c 1848     		ldr	r0, .L231+4
 2432 002e FFF7FEFF 		bl	chSysHalt
 2433              	.L226:
 2434              		.loc 5 764 0 is_stmt 1
 2435 0032 019B     		ldr	r3, [sp, #4]
 2436 0034 1B79     		ldrb	r3, [r3, #4]	@ zero_extendqisi2
 2437 0036 022B     		cmp	r3, #2
 2438 0038 03D1     		bne	.L227
 2439              		.loc 5 765 0
 2440 003a FFF7FEFF 		bl	osalSysUnlock
 2441              		.loc 5 766 0
 2442 003e 0023     		movs	r3, #0
 2443 0040 19E0     		b	.L228
 2444              	.L227:
 2445              		.loc 5 768 0
 2446 0042 019B     		ldr	r3, [sp, #4]
 2447 0044 0422     		movs	r2, #4
 2448 0046 1A71     		strb	r2, [r3, #4]
 2449              		.loc 5 769 0
 2450 0048 FFF7FEFF 		bl	osalSysUnlock
 2451              		.loc 5 772 0
ARM GAS  C:\Users\PCHAUT~1\AppData\Local\Temp\ccjQKXWT.s 			page 44


 2452 004c 0198     		ldr	r0, [sp, #4]
 2453 004e FFF7FEFF 		bl	_sdc_wait_for_transfer_state
 2454 0052 0346     		mov	r3, r0
 2455 0054 002B     		cmp	r3, #0
 2456 0056 07D0     		beq	.L229
 2457              		.loc 5 773 0
 2458 0058 0198     		ldr	r0, [sp, #4]
 2459 005a FFF7FEFF 		bl	sdc_lld_stop_clk
 2460              		.loc 5 774 0
 2461 005e 019B     		ldr	r3, [sp, #4]
 2462 0060 0222     		movs	r2, #2
 2463 0062 1A71     		strb	r2, [r3, #4]
 2464              		.loc 5 775 0
 2465 0064 0123     		movs	r3, #1
 2466 0066 06E0     		b	.L228
 2467              	.L229:
 2468              		.loc 5 779 0
 2469 0068 0198     		ldr	r0, [sp, #4]
 2470 006a FFF7FEFF 		bl	sdc_lld_stop_clk
 2471              		.loc 5 780 0
 2472 006e 019B     		ldr	r3, [sp, #4]
 2473 0070 0222     		movs	r2, #2
 2474 0072 1A71     		strb	r2, [r3, #4]
 2475              		.loc 5 781 0
 2476 0074 0023     		movs	r3, #0
 2477              	.L228:
 2478              		.loc 5 782 0
 2479 0076 1846     		mov	r0, r3
 2480 0078 044B     		ldr	r3, .L231
 2481 007a 039A     		ldr	r2, [sp, #12]
 2482 007c 1B68     		ldr	r3, [r3]
 2483 007e 9A42     		cmp	r2, r3
 2484 0080 01D0     		beq	.L230
 2485 0082 FFF7FEFF 		bl	__stack_chk_fail
 2486              	.L230:
 2487 0086 05B0     		add	sp, sp, #20
 2488              		.cfi_def_cfa_offset 4
 2489              		@ sp needed
 2490 0088 5DF804FB 		ldr	pc, [sp], #4
 2491              	.L232:
 2492              		.align	2
 2493              	.L231:
 2494 008c 00000000 		.word	__stack_chk_guard
 2495 0090 00000000 		.word	__func__.10391
 2496              		.cfi_endproc
 2497              	.LFE274:
 2498              		.size	sdcDisconnect, .-sdcDisconnect
 2499              		.section	.text.sdcRead,"ax",%progbits
 2500              		.align	1
 2501              		.p2align 4,,15
 2502              		.global	sdcRead
 2503              		.syntax unified
 2504              		.thumb
 2505              		.thumb_func
 2506              		.fpu fpv4-sp-d16
 2507              		.type	sdcRead, %function
 2508              	sdcRead:
ARM GAS  C:\Users\PCHAUT~1\AppData\Local\Temp\ccjQKXWT.s 			page 45


 2509              	.LFB275:
 2510              		.loc 5 800 0
 2511              		.cfi_startproc
 2512              		@ args = 0, pretend = 0, frame = 24
 2513              		@ frame_needed = 0, uses_anonymous_args = 0
 2514 0000 00B5     		push	{lr}
 2515              		.cfi_def_cfa_offset 4
 2516              		.cfi_offset 14, -4
 2517 0002 87B0     		sub	sp, sp, #28
 2518              		.cfi_def_cfa_offset 32
 2519 0004 0390     		str	r0, [sp, #12]
 2520 0006 0291     		str	r1, [sp, #8]
 2521 0008 0192     		str	r2, [sp, #4]
 2522 000a 0093     		str	r3, [sp]
 2523              		.loc 5 800 0
 2524 000c 204B     		ldr	r3, .L241
 2525 000e 1B68     		ldr	r3, [r3]
 2526 0010 0593     		str	r3, [sp, #20]
 2527              		.loc 5 803 0
 2528 0012 039B     		ldr	r3, [sp, #12]
 2529 0014 002B     		cmp	r3, #0
 2530 0016 05D0     		beq	.L234
 2531              		.loc 5 803 0 is_stmt 0 discriminator 3
 2532 0018 019B     		ldr	r3, [sp, #4]
 2533 001a 002B     		cmp	r3, #0
 2534 001c 02D0     		beq	.L234
 2535              		.loc 5 803 0 discriminator 5
 2536 001e 009B     		ldr	r3, [sp]
 2537 0020 002B     		cmp	r3, #0
 2538 0022 02D1     		bne	.L240
 2539              	.L234:
 2540              		.loc 5 803 0 discriminator 6
 2541 0024 1B48     		ldr	r0, .L241+4
 2542 0026 FFF7FEFF 		bl	chSysHalt
 2543              	.L240:
 2544              		.loc 5 804 0 is_stmt 1 discriminator 1
 2545 002a 039B     		ldr	r3, [sp, #12]
 2546 002c 1B79     		ldrb	r3, [r3, #4]	@ zero_extendqisi2
 2547 002e 052B     		cmp	r3, #5
 2548 0030 02D0     		beq	.L236
 2549              		.loc 5 804 0 is_stmt 0 discriminator 2
 2550 0032 1848     		ldr	r0, .L241+4
 2551 0034 FFF7FEFF 		bl	chSysHalt
 2552              	.L236:
 2553              		.loc 5 806 0 is_stmt 1
 2554 0038 029A     		ldr	r2, [sp, #8]
 2555 003a 009B     		ldr	r3, [sp]
 2556 003c 1344     		add	r3, r3, r2
 2557 003e 5A1E     		subs	r2, r3, #1
 2558 0040 039B     		ldr	r3, [sp, #12]
 2559 0042 9B6A     		ldr	r3, [r3, #40]
 2560 0044 9A42     		cmp	r2, r3
 2561 0046 07D9     		bls	.L237
 2562              		.loc 5 807 0
 2563 0048 039B     		ldr	r3, [sp, #12]
 2564 004a 5B6B     		ldr	r3, [r3, #52]
 2565 004c 43F08002 		orr	r2, r3, #128
ARM GAS  C:\Users\PCHAUT~1\AppData\Local\Temp\ccjQKXWT.s 			page 46


 2566 0050 039B     		ldr	r3, [sp, #12]
 2567 0052 5A63     		str	r2, [r3, #52]
 2568              		.loc 5 808 0
 2569 0054 0123     		movs	r3, #1
 2570 0056 10E0     		b	.L238
 2571              	.L237:
 2572              		.loc 5 812 0
 2573 0058 039B     		ldr	r3, [sp, #12]
 2574 005a 0622     		movs	r2, #6
 2575 005c 1A71     		strb	r2, [r3, #4]
 2576              		.loc 5 814 0
 2577 005e 009B     		ldr	r3, [sp]
 2578 0060 019A     		ldr	r2, [sp, #4]
 2579 0062 0299     		ldr	r1, [sp, #8]
 2580 0064 0398     		ldr	r0, [sp, #12]
 2581 0066 FFF7FEFF 		bl	sdc_lld_read
 2582 006a 0346     		mov	r3, r0
 2583 006c 8DF81330 		strb	r3, [sp, #19]
 2584              		.loc 5 817 0
 2585 0070 039B     		ldr	r3, [sp, #12]
 2586 0072 0522     		movs	r2, #5
 2587 0074 1A71     		strb	r2, [r3, #4]
 2588              		.loc 5 818 0
 2589 0076 9DF81330 		ldrb	r3, [sp, #19]	@ zero_extendqisi2
 2590              	.L238:
 2591              		.loc 5 819 0
 2592 007a 1846     		mov	r0, r3
 2593 007c 044B     		ldr	r3, .L241
 2594 007e 059A     		ldr	r2, [sp, #20]
 2595 0080 1B68     		ldr	r3, [r3]
 2596 0082 9A42     		cmp	r2, r3
 2597 0084 01D0     		beq	.L239
 2598 0086 FFF7FEFF 		bl	__stack_chk_fail
 2599              	.L239:
 2600 008a 07B0     		add	sp, sp, #28
 2601              		.cfi_def_cfa_offset 4
 2602              		@ sp needed
 2603 008c 5DF804FB 		ldr	pc, [sp], #4
 2604              	.L242:
 2605              		.align	2
 2606              	.L241:
 2607 0090 00000000 		.word	__stack_chk_guard
 2608 0094 00000000 		.word	__func__.10399
 2609              		.cfi_endproc
 2610              	.LFE275:
 2611              		.size	sdcRead, .-sdcRead
 2612              		.section	.text.sdcWrite,"ax",%progbits
 2613              		.align	1
 2614              		.p2align 4,,15
 2615              		.global	sdcWrite
 2616              		.syntax unified
 2617              		.thumb
 2618              		.thumb_func
 2619              		.fpu fpv4-sp-d16
 2620              		.type	sdcWrite, %function
 2621              	sdcWrite:
 2622              	.LFB276:
ARM GAS  C:\Users\PCHAUT~1\AppData\Local\Temp\ccjQKXWT.s 			page 47


 2623              		.loc 5 838 0
 2624              		.cfi_startproc
 2625              		@ args = 0, pretend = 0, frame = 24
 2626              		@ frame_needed = 0, uses_anonymous_args = 0
 2627 0000 00B5     		push	{lr}
 2628              		.cfi_def_cfa_offset 4
 2629              		.cfi_offset 14, -4
 2630 0002 87B0     		sub	sp, sp, #28
 2631              		.cfi_def_cfa_offset 32
 2632 0004 0390     		str	r0, [sp, #12]
 2633 0006 0291     		str	r1, [sp, #8]
 2634 0008 0192     		str	r2, [sp, #4]
 2635 000a 0093     		str	r3, [sp]
 2636              		.loc 5 838 0
 2637 000c 204B     		ldr	r3, .L251
 2638 000e 1B68     		ldr	r3, [r3]
 2639 0010 0593     		str	r3, [sp, #20]
 2640              		.loc 5 841 0
 2641 0012 039B     		ldr	r3, [sp, #12]
 2642 0014 002B     		cmp	r3, #0
 2643 0016 05D0     		beq	.L244
 2644              		.loc 5 841 0 is_stmt 0 discriminator 3
 2645 0018 019B     		ldr	r3, [sp, #4]
 2646 001a 002B     		cmp	r3, #0
 2647 001c 02D0     		beq	.L244
 2648              		.loc 5 841 0 discriminator 5
 2649 001e 009B     		ldr	r3, [sp]
 2650 0020 002B     		cmp	r3, #0
 2651 0022 02D1     		bne	.L250
 2652              	.L244:
 2653              		.loc 5 841 0 discriminator 6
 2654 0024 1B48     		ldr	r0, .L251+4
 2655 0026 FFF7FEFF 		bl	chSysHalt
 2656              	.L250:
 2657              		.loc 5 842 0 is_stmt 1 discriminator 1
 2658 002a 039B     		ldr	r3, [sp, #12]
 2659 002c 1B79     		ldrb	r3, [r3, #4]	@ zero_extendqisi2
 2660 002e 052B     		cmp	r3, #5
 2661 0030 02D0     		beq	.L246
 2662              		.loc 5 842 0 is_stmt 0 discriminator 2
 2663 0032 1848     		ldr	r0, .L251+4
 2664 0034 FFF7FEFF 		bl	chSysHalt
 2665              	.L246:
 2666              		.loc 5 844 0 is_stmt 1
 2667 0038 029A     		ldr	r2, [sp, #8]
 2668 003a 009B     		ldr	r3, [sp]
 2669 003c 1344     		add	r3, r3, r2
 2670 003e 5A1E     		subs	r2, r3, #1
 2671 0040 039B     		ldr	r3, [sp, #12]
 2672 0042 9B6A     		ldr	r3, [r3, #40]
 2673 0044 9A42     		cmp	r2, r3
 2674 0046 07D9     		bls	.L247
 2675              		.loc 5 845 0
 2676 0048 039B     		ldr	r3, [sp, #12]
 2677 004a 5B6B     		ldr	r3, [r3, #52]
 2678 004c 43F08002 		orr	r2, r3, #128
 2679 0050 039B     		ldr	r3, [sp, #12]
ARM GAS  C:\Users\PCHAUT~1\AppData\Local\Temp\ccjQKXWT.s 			page 48


 2680 0052 5A63     		str	r2, [r3, #52]
 2681              		.loc 5 846 0
 2682 0054 0123     		movs	r3, #1
 2683 0056 10E0     		b	.L248
 2684              	.L247:
 2685              		.loc 5 850 0
 2686 0058 039B     		ldr	r3, [sp, #12]
 2687 005a 0722     		movs	r2, #7
 2688 005c 1A71     		strb	r2, [r3, #4]
 2689              		.loc 5 852 0
 2690 005e 009B     		ldr	r3, [sp]
 2691 0060 019A     		ldr	r2, [sp, #4]
 2692 0062 0299     		ldr	r1, [sp, #8]
 2693 0064 0398     		ldr	r0, [sp, #12]
 2694 0066 FFF7FEFF 		bl	sdc_lld_write
 2695 006a 0346     		mov	r3, r0
 2696 006c 8DF81330 		strb	r3, [sp, #19]
 2697              		.loc 5 855 0
 2698 0070 039B     		ldr	r3, [sp, #12]
 2699 0072 0522     		movs	r2, #5
 2700 0074 1A71     		strb	r2, [r3, #4]
 2701              		.loc 5 856 0
 2702 0076 9DF81330 		ldrb	r3, [sp, #19]	@ zero_extendqisi2
 2703              	.L248:
 2704              		.loc 5 857 0
 2705 007a 1846     		mov	r0, r3
 2706 007c 044B     		ldr	r3, .L251
 2707 007e 059A     		ldr	r2, [sp, #20]
 2708 0080 1B68     		ldr	r3, [r3]
 2709 0082 9A42     		cmp	r2, r3
 2710 0084 01D0     		beq	.L249
 2711 0086 FFF7FEFF 		bl	__stack_chk_fail
 2712              	.L249:
 2713 008a 07B0     		add	sp, sp, #28
 2714              		.cfi_def_cfa_offset 4
 2715              		@ sp needed
 2716 008c 5DF804FB 		ldr	pc, [sp], #4
 2717              	.L252:
 2718              		.align	2
 2719              	.L251:
 2720 0090 00000000 		.word	__stack_chk_guard
 2721 0094 00000000 		.word	__func__.10407
 2722              		.cfi_endproc
 2723              	.LFE276:
 2724              		.size	sdcWrite, .-sdcWrite
 2725              		.section	.text.sdcGetAndClearErrors,"ax",%progbits
 2726              		.align	1
 2727              		.p2align 4,,15
 2728              		.global	sdcGetAndClearErrors
 2729              		.syntax unified
 2730              		.thumb
 2731              		.thumb_func
 2732              		.fpu fpv4-sp-d16
 2733              		.type	sdcGetAndClearErrors, %function
 2734              	sdcGetAndClearErrors:
 2735              	.LFB277:
 2736              		.loc 5 867 0
ARM GAS  C:\Users\PCHAUT~1\AppData\Local\Temp\ccjQKXWT.s 			page 49


 2737              		.cfi_startproc
 2738              		@ args = 0, pretend = 0, frame = 16
 2739              		@ frame_needed = 0, uses_anonymous_args = 0
 2740 0000 00B5     		push	{lr}
 2741              		.cfi_def_cfa_offset 4
 2742              		.cfi_offset 14, -4
 2743 0002 85B0     		sub	sp, sp, #20
 2744              		.cfi_def_cfa_offset 24
 2745 0004 0190     		str	r0, [sp, #4]
 2746              		.loc 5 867 0
 2747 0006 134B     		ldr	r3, .L259
 2748 0008 1B68     		ldr	r3, [r3]
 2749 000a 0393     		str	r3, [sp, #12]
 2750              		.loc 5 870 0
 2751 000c 019B     		ldr	r3, [sp, #4]
 2752 000e 002B     		cmp	r3, #0
 2753 0010 02D1     		bne	.L258
 2754              		.loc 5 870 0 is_stmt 0 discriminator 2
 2755 0012 1148     		ldr	r0, .L259+4
 2756 0014 FFF7FEFF 		bl	chSysHalt
 2757              	.L258:
 2758              		.loc 5 871 0 is_stmt 1 discriminator 1
 2759 0018 019B     		ldr	r3, [sp, #4]
 2760 001a 1B79     		ldrb	r3, [r3, #4]	@ zero_extendqisi2
 2761 001c 052B     		cmp	r3, #5
 2762 001e 02D0     		beq	.L255
 2763              		.loc 5 871 0 is_stmt 0 discriminator 2
 2764 0020 0D48     		ldr	r0, .L259+4
 2765 0022 FFF7FEFF 		bl	chSysHalt
 2766              	.L255:
 2767              		.loc 5 873 0 is_stmt 1
 2768 0026 FFF7FEFF 		bl	osalSysLock
 2769              		.loc 5 874 0
 2770 002a 019B     		ldr	r3, [sp, #4]
 2771 002c 5B6B     		ldr	r3, [r3, #52]
 2772 002e 0293     		str	r3, [sp, #8]
 2773              		.loc 5 875 0
 2774 0030 019B     		ldr	r3, [sp, #4]
 2775 0032 0022     		movs	r2, #0
 2776 0034 5A63     		str	r2, [r3, #52]
 2777              		.loc 5 876 0
 2778 0036 FFF7FEFF 		bl	osalSysUnlock
 2779              		.loc 5 877 0
 2780 003a 029B     		ldr	r3, [sp, #8]
 2781              		.loc 5 878 0
 2782 003c 1846     		mov	r0, r3
 2783 003e 054B     		ldr	r3, .L259
 2784 0040 039A     		ldr	r2, [sp, #12]
 2785 0042 1B68     		ldr	r3, [r3]
 2786 0044 9A42     		cmp	r2, r3
 2787 0046 01D0     		beq	.L257
 2788 0048 FFF7FEFF 		bl	__stack_chk_fail
 2789              	.L257:
 2790 004c 05B0     		add	sp, sp, #20
 2791              		.cfi_def_cfa_offset 4
 2792              		@ sp needed
 2793 004e 5DF804FB 		ldr	pc, [sp], #4
ARM GAS  C:\Users\PCHAUT~1\AppData\Local\Temp\ccjQKXWT.s 			page 50


 2794              	.L260:
 2795 0052 00BF     		.align	2
 2796              	.L259:
 2797 0054 00000000 		.word	__stack_chk_guard
 2798 0058 00000000 		.word	__func__.10412
 2799              		.cfi_endproc
 2800              	.LFE277:
 2801              		.size	sdcGetAndClearErrors, .-sdcGetAndClearErrors
 2802              		.section	.text.sdcSync,"ax",%progbits
 2803              		.align	1
 2804              		.p2align 4,,15
 2805              		.global	sdcSync
 2806              		.syntax unified
 2807              		.thumb
 2808              		.thumb_func
 2809              		.fpu fpv4-sp-d16
 2810              		.type	sdcSync, %function
 2811              	sdcSync:
 2812              	.LFB278:
 2813              		.loc 5 891 0
 2814              		.cfi_startproc
 2815              		@ args = 0, pretend = 0, frame = 16
 2816              		@ frame_needed = 0, uses_anonymous_args = 0
 2817 0000 00B5     		push	{lr}
 2818              		.cfi_def_cfa_offset 4
 2819              		.cfi_offset 14, -4
 2820 0002 85B0     		sub	sp, sp, #20
 2821              		.cfi_def_cfa_offset 24
 2822 0004 0190     		str	r0, [sp, #4]
 2823              		.loc 5 891 0
 2824 0006 144B     		ldr	r3, .L266
 2825 0008 1B68     		ldr	r3, [r3]
 2826 000a 0393     		str	r3, [sp, #12]
 2827              		.loc 5 894 0
 2828 000c 019B     		ldr	r3, [sp, #4]
 2829 000e 002B     		cmp	r3, #0
 2830 0010 02D1     		bne	.L262
 2831              		.loc 5 894 0 is_stmt 0 discriminator 2
 2832 0012 1248     		ldr	r0, .L266+4
 2833 0014 FFF7FEFF 		bl	chSysHalt
 2834              	.L262:
 2835              		.loc 5 896 0 is_stmt 1
 2836 0018 019B     		ldr	r3, [sp, #4]
 2837 001a 1B79     		ldrb	r3, [r3, #4]	@ zero_extendqisi2
 2838 001c 052B     		cmp	r3, #5
 2839 001e 01D0     		beq	.L263
 2840              		.loc 5 897 0
 2841 0020 0123     		movs	r3, #1
 2842 0022 0DE0     		b	.L264
 2843              	.L263:
 2844              		.loc 5 901 0
 2845 0024 019B     		ldr	r3, [sp, #4]
 2846 0026 0822     		movs	r2, #8
 2847 0028 1A71     		strb	r2, [r3, #4]
 2848              		.loc 5 903 0
 2849 002a 0198     		ldr	r0, [sp, #4]
 2850 002c FFF7FEFF 		bl	sdc_lld_sync
ARM GAS  C:\Users\PCHAUT~1\AppData\Local\Temp\ccjQKXWT.s 			page 51


 2851 0030 0346     		mov	r3, r0
 2852 0032 8DF80B30 		strb	r3, [sp, #11]
 2853              		.loc 5 906 0
 2854 0036 019B     		ldr	r3, [sp, #4]
 2855 0038 0522     		movs	r2, #5
 2856 003a 1A71     		strb	r2, [r3, #4]
 2857              		.loc 5 907 0
 2858 003c 9DF80B30 		ldrb	r3, [sp, #11]	@ zero_extendqisi2
 2859              	.L264:
 2860              		.loc 5 908 0
 2861 0040 1846     		mov	r0, r3
 2862 0042 054B     		ldr	r3, .L266
 2863 0044 039A     		ldr	r2, [sp, #12]
 2864 0046 1B68     		ldr	r3, [r3]
 2865 0048 9A42     		cmp	r2, r3
 2866 004a 01D0     		beq	.L265
 2867 004c FFF7FEFF 		bl	__stack_chk_fail
 2868              	.L265:
 2869 0050 05B0     		add	sp, sp, #20
 2870              		.cfi_def_cfa_offset 4
 2871              		@ sp needed
 2872 0052 5DF804FB 		ldr	pc, [sp], #4
 2873              	.L267:
 2874 0056 00BF     		.align	2
 2875              	.L266:
 2876 0058 00000000 		.word	__stack_chk_guard
 2877 005c 00000000 		.word	__func__.10417
 2878              		.cfi_endproc
 2879              	.LFE278:
 2880              		.size	sdcSync, .-sdcSync
 2881              		.section	.text.sdcGetInfo,"ax",%progbits
 2882              		.align	1
 2883              		.p2align 4,,15
 2884              		.global	sdcGetInfo
 2885              		.syntax unified
 2886              		.thumb
 2887              		.thumb_func
 2888              		.fpu fpv4-sp-d16
 2889              		.type	sdcGetInfo, %function
 2890              	sdcGetInfo:
 2891              	.LFB279:
 2892              		.loc 5 922 0
 2893              		.cfi_startproc
 2894              		@ args = 0, pretend = 0, frame = 16
 2895              		@ frame_needed = 0, uses_anonymous_args = 0
 2896 0000 00B5     		push	{lr}
 2897              		.cfi_def_cfa_offset 4
 2898              		.cfi_offset 14, -4
 2899 0002 85B0     		sub	sp, sp, #20
 2900              		.cfi_def_cfa_offset 24
 2901 0004 0190     		str	r0, [sp, #4]
 2902 0006 0091     		str	r1, [sp]
 2903              		.loc 5 922 0
 2904 0008 124B     		ldr	r3, .L274
 2905 000a 1B68     		ldr	r3, [r3]
 2906 000c 0393     		str	r3, [sp, #12]
 2907              		.loc 5 924 0
ARM GAS  C:\Users\PCHAUT~1\AppData\Local\Temp\ccjQKXWT.s 			page 52


 2908 000e 019B     		ldr	r3, [sp, #4]
 2909 0010 002B     		cmp	r3, #0
 2910 0012 02D0     		beq	.L269
 2911              		.loc 5 924 0 is_stmt 0 discriminator 3
 2912 0014 009B     		ldr	r3, [sp]
 2913 0016 002B     		cmp	r3, #0
 2914 0018 02D1     		bne	.L270
 2915              	.L269:
 2916              		.loc 5 924 0 discriminator 4
 2917 001a 0F48     		ldr	r0, .L274+4
 2918 001c FFF7FEFF 		bl	chSysHalt
 2919              	.L270:
 2920              		.loc 5 926 0 is_stmt 1
 2921 0020 019B     		ldr	r3, [sp, #4]
 2922 0022 1B79     		ldrb	r3, [r3, #4]	@ zero_extendqisi2
 2923 0024 052B     		cmp	r3, #5
 2924 0026 01D0     		beq	.L271
 2925              		.loc 5 927 0
 2926 0028 0123     		movs	r3, #1
 2927 002a 08E0     		b	.L272
 2928              	.L271:
 2929              		.loc 5 930 0
 2930 002c 019B     		ldr	r3, [sp, #4]
 2931 002e 9A6A     		ldr	r2, [r3, #40]
 2932 0030 009B     		ldr	r3, [sp]
 2933 0032 5A60     		str	r2, [r3, #4]
 2934              		.loc 5 931 0
 2935 0034 009B     		ldr	r3, [sp]
 2936 0036 4FF40072 		mov	r2, #512
 2937 003a 1A60     		str	r2, [r3]
 2938              		.loc 5 933 0
 2939 003c 0023     		movs	r3, #0
 2940              	.L272:
 2941              		.loc 5 934 0
 2942 003e 1846     		mov	r0, r3
 2943 0040 044B     		ldr	r3, .L274
 2944 0042 039A     		ldr	r2, [sp, #12]
 2945 0044 1B68     		ldr	r3, [r3]
 2946 0046 9A42     		cmp	r2, r3
 2947 0048 01D0     		beq	.L273
 2948 004a FFF7FEFF 		bl	__stack_chk_fail
 2949              	.L273:
 2950 004e 05B0     		add	sp, sp, #20
 2951              		.cfi_def_cfa_offset 4
 2952              		@ sp needed
 2953 0050 5DF804FB 		ldr	pc, [sp], #4
 2954              	.L275:
 2955              		.align	2
 2956              	.L274:
 2957 0054 00000000 		.word	__stack_chk_guard
 2958 0058 00000000 		.word	__func__.10422
 2959              		.cfi_endproc
 2960              	.LFE279:
 2961              		.size	sdcGetInfo, .-sdcGetInfo
 2962              		.section	.text.sdcErase,"ax",%progbits
 2963              		.align	1
 2964              		.p2align 4,,15
ARM GAS  C:\Users\PCHAUT~1\AppData\Local\Temp\ccjQKXWT.s 			page 53


 2965              		.global	sdcErase
 2966              		.syntax unified
 2967              		.thumb
 2968              		.thumb_func
 2969              		.fpu fpv4-sp-d16
 2970              		.type	sdcErase, %function
 2971              	sdcErase:
 2972              	.LFB280:
 2973              		.loc 5 949 0
 2974              		.cfi_startproc
 2975              		@ args = 0, pretend = 0, frame = 24
 2976              		@ frame_needed = 0, uses_anonymous_args = 0
 2977 0000 00B5     		push	{lr}
 2978              		.cfi_def_cfa_offset 4
 2979              		.cfi_offset 14, -4
 2980 0002 87B0     		sub	sp, sp, #28
 2981              		.cfi_def_cfa_offset 32
 2982 0004 0390     		str	r0, [sp, #12]
 2983 0006 0291     		str	r1, [sp, #8]
 2984 0008 0192     		str	r2, [sp, #4]
 2985              		.loc 5 949 0
 2986 000a 374B     		ldr	r3, .L290
 2987 000c 1B68     		ldr	r3, [r3]
 2988 000e 0593     		str	r3, [sp, #20]
 2989              		.loc 5 952 0
 2990 0010 039B     		ldr	r3, [sp, #12]
 2991 0012 002B     		cmp	r3, #0
 2992 0014 02D1     		bne	.L286
 2993              		.loc 5 952 0 is_stmt 0 discriminator 2
 2994 0016 3548     		ldr	r0, .L290+4
 2995 0018 FFF7FEFF 		bl	chSysHalt
 2996              	.L286:
 2997              		.loc 5 953 0 is_stmt 1 discriminator 1
 2998 001c 039B     		ldr	r3, [sp, #12]
 2999 001e 1B79     		ldrb	r3, [r3, #4]	@ zero_extendqisi2
 3000 0020 052B     		cmp	r3, #5
 3001 0022 02D0     		beq	.L278
 3002              		.loc 5 953 0 is_stmt 0 discriminator 2
 3003 0024 3148     		ldr	r0, .L290+4
 3004 0026 FFF7FEFF 		bl	chSysHalt
 3005              	.L278:
 3006              		.loc 5 956 0 is_stmt 1
 3007 002a 039B     		ldr	r3, [sp, #12]
 3008 002c 0722     		movs	r2, #7
 3009 002e 1A71     		strb	r2, [r3, #4]
 3010              		.loc 5 959 0
 3011 0030 039B     		ldr	r3, [sp, #12]
 3012 0032 1B6B     		ldr	r3, [r3, #48]
 3013 0034 03F01003 		and	r3, r3, #16
 3014 0038 002B     		cmp	r3, #0
 3015 003a 05D0     		beq	.L279
 3016              		.loc 5 960 0
 3017 003c 029B     		ldr	r3, [sp, #8]
 3018 003e 5B02     		lsls	r3, r3, #9
 3019 0040 0293     		str	r3, [sp, #8]
 3020              		.loc 5 961 0
 3021 0042 019B     		ldr	r3, [sp, #4]
ARM GAS  C:\Users\PCHAUT~1\AppData\Local\Temp\ccjQKXWT.s 			page 54


 3022 0044 5B02     		lsls	r3, r3, #9
 3023 0046 0193     		str	r3, [sp, #4]
 3024              	.L279:
 3025              		.loc 5 964 0
 3026 0048 0398     		ldr	r0, [sp, #12]
 3027 004a FFF7FEFF 		bl	_sdc_wait_for_transfer_state
 3028 004e 0346     		mov	r3, r0
 3029 0050 002B     		cmp	r3, #0
 3030 0052 34D1     		bne	.L287
 3031              		.loc 5 968 0
 3032 0054 04AB     		add	r3, sp, #16
 3033 0056 029A     		ldr	r2, [sp, #8]
 3034 0058 2021     		movs	r1, #32
 3035 005a 0398     		ldr	r0, [sp, #12]
 3036 005c FFF7FEFF 		bl	sdc_lld_send_cmd_short_crc
 3037 0060 0346     		mov	r3, r0
 3038 0062 002B     		cmp	r3, #0
 3039 0064 2DD1     		bne	.L288
 3040              		.loc 5 970 0
 3041 0066 049A     		ldr	r2, [sp, #16]
 3042 0068 214B     		ldr	r3, .L290+8
 3043 006a 1340     		ands	r3, r3, r2
 3044              		.loc 5 969 0
 3045 006c 002B     		cmp	r3, #0
 3046 006e 28D1     		bne	.L288
 3047              		.loc 5 974 0
 3048 0070 04AB     		add	r3, sp, #16
 3049 0072 019A     		ldr	r2, [sp, #4]
 3050 0074 2121     		movs	r1, #33
 3051 0076 0398     		ldr	r0, [sp, #12]
 3052 0078 FFF7FEFF 		bl	sdc_lld_send_cmd_short_crc
 3053 007c 0346     		mov	r3, r0
 3054 007e 002B     		cmp	r3, #0
 3055 0080 1FD1     		bne	.L288
 3056              		.loc 5 976 0
 3057 0082 049A     		ldr	r2, [sp, #16]
 3058 0084 1A4B     		ldr	r3, .L290+8
 3059 0086 1340     		ands	r3, r3, r2
 3060              		.loc 5 975 0
 3061 0088 002B     		cmp	r3, #0
 3062 008a 1AD1     		bne	.L288
 3063              		.loc 5 980 0
 3064 008c 04AB     		add	r3, sp, #16
 3065 008e 0022     		movs	r2, #0
 3066 0090 2621     		movs	r1, #38
 3067 0092 0398     		ldr	r0, [sp, #12]
 3068 0094 FFF7FEFF 		bl	sdc_lld_send_cmd_short_crc
 3069 0098 0346     		mov	r3, r0
 3070 009a 002B     		cmp	r3, #0
 3071 009c 11D1     		bne	.L288
 3072              		.loc 5 982 0
 3073 009e 049A     		ldr	r2, [sp, #16]
 3074 00a0 134B     		ldr	r3, .L290+8
 3075 00a2 1340     		ands	r3, r3, r2
 3076              		.loc 5 981 0
 3077 00a4 002B     		cmp	r3, #0
 3078 00a6 0CD1     		bne	.L288
ARM GAS  C:\Users\PCHAUT~1\AppData\Local\Temp\ccjQKXWT.s 			page 55


 3079              		.loc 5 990 0
 3080 00a8 0398     		ldr	r0, [sp, #12]
 3081 00aa FFF7FEFF 		bl	_sdc_wait_for_transfer_state
 3082 00ae 0346     		mov	r3, r0
 3083 00b0 002B     		cmp	r3, #0
 3084 00b2 08D1     		bne	.L289
 3085              		.loc 5 994 0
 3086 00b4 039B     		ldr	r3, [sp, #12]
 3087 00b6 0522     		movs	r2, #5
 3088 00b8 1A71     		strb	r2, [r3, #4]
 3089              		.loc 5 995 0
 3090 00ba 0023     		movs	r3, #0
 3091 00bc 08E0     		b	.L284
 3092              	.L287:
 3093              		.loc 5 965 0
 3094 00be 00BF     		nop
 3095 00c0 02E0     		b	.L281
 3096              	.L288:
 3097              		.loc 5 997 0
 3098 00c2 00BF     		nop
 3099 00c4 00E0     		b	.L281
 3100              	.L289:
 3101              		.loc 5 991 0
 3102 00c6 00BF     		nop
 3103              	.L281:
 3104              		.loc 5 998 0
 3105 00c8 039B     		ldr	r3, [sp, #12]
 3106 00ca 0522     		movs	r2, #5
 3107 00cc 1A71     		strb	r2, [r3, #4]
 3108              		.loc 5 999 0
 3109 00ce 0123     		movs	r3, #1
 3110              	.L284:
 3111              		.loc 5 1000 0 discriminator 1
 3112 00d0 1846     		mov	r0, r3
 3113 00d2 054B     		ldr	r3, .L290
 3114 00d4 059A     		ldr	r2, [sp, #20]
 3115 00d6 1B68     		ldr	r3, [r3]
 3116 00d8 9A42     		cmp	r2, r3
 3117 00da 01D0     		beq	.L285
 3118              		.loc 5 1000 0 is_stmt 0
 3119 00dc FFF7FEFF 		bl	__stack_chk_fail
 3120              	.L285:
 3121 00e0 07B0     		add	sp, sp, #28
 3122              		.cfi_def_cfa_offset 4
 3123              		@ sp needed
 3124 00e2 5DF804FB 		ldr	pc, [sp], #4
 3125              	.L291:
 3126 00e6 00BF     		.align	2
 3127              	.L290:
 3128 00e8 00000000 		.word	__stack_chk_guard
 3129 00ec 00000000 		.word	__func__.10429
 3130 00f0 08E0FFFD 		.word	-33562616
 3131              		.cfi_endproc
 3132              	.LFE280:
 3133              		.size	sdcErase, .-sdcErase
 3134              		.section	.rodata.__func__.10297,"a",%progbits
 3135              		.align	2
ARM GAS  C:\Users\PCHAUT~1\AppData\Local\Temp\ccjQKXWT.s 			page 56


 3136              		.type	__func__.10297, %object
 3137              		.size	__func__.10297, 19
 3138              	__func__.10297:
 3139 0000 6D6D635F 		.ascii	"mmc_cmd6_construct\000"
 3139      636D6436 
 3139      5F636F6E 
 3139      73747275 
 3139      637400
 3140              		.section	.rodata.__func__.10304,"a",%progbits
 3141              		.align	2
 3142              		.type	__func__.10304, %object
 3143              		.size	__func__.10304, 19
 3144              	__func__.10304:
 3145 0000 7364635F 		.ascii	"sdc_cmd6_construct\000"
 3145      636D6436 
 3145      5F636F6E 
 3145      73747275 
 3145      637400
 3146              		.section	.rodata.__func__.10348,"a",%progbits
 3147              		.align	2
 3148              		.type	__func__.10348, %object
 3149              		.size	__func__.10348, 18
 3150              	__func__.10348:
 3151 0000 6D6D635F 		.ascii	"mmc_set_bus_width\000"
 3151      7365745F 
 3151      6275735F 
 3151      77696474 
 3151      6800
 3152              		.section	.rodata.__func__.10370,"a",%progbits
 3153              		.align	2
 3154              		.type	__func__.10370, %object
 3155              		.size	__func__.10370, 9
 3156              	__func__.10370:
 3157 0000 73646353 		.ascii	"sdcStart\000"
 3157      74617274 
 3157      00
 3158              		.section	.rodata.__func__.7554,"a",%progbits
 3159              		.align	2
 3160              		.type	__func__.7554, %object
 3161              		.size	__func__.7554, 12
 3162              	__func__.7554:
 3163 0000 63685379 		.ascii	"chSysUnlock\000"
 3163      73556E6C 
 3163      6F636B00 
 3164              		.section	.rodata.__func__.10374,"a",%progbits
 3165              		.align	2
 3166              		.type	__func__.10374, %object
 3167              		.size	__func__.10374, 8
 3168              	__func__.10374:
 3169 0000 73646353 		.ascii	"sdcStop\000"
 3169      746F7000 
 3170              		.section	.rodata.__func__.10380,"a",%progbits
 3171              		.align	2
 3172              		.type	__func__.10380, %object
 3173              		.size	__func__.10380, 11
 3174              	__func__.10380:
 3175 0000 73646343 		.ascii	"sdcConnect\000"
ARM GAS  C:\Users\PCHAUT~1\AppData\Local\Temp\ccjQKXWT.s 			page 57


 3175      6F6E6E65 
 3175      637400
 3176              		.section	.rodata.__func__.10391,"a",%progbits
 3177              		.align	2
 3178              		.type	__func__.10391, %object
 3179              		.size	__func__.10391, 14
 3180              	__func__.10391:
 3181 0000 73646344 		.ascii	"sdcDisconnect\000"
 3181      6973636F 
 3181      6E6E6563 
 3181      7400
 3182              		.section	.rodata.__func__.10399,"a",%progbits
 3183              		.align	2
 3184              		.type	__func__.10399, %object
 3185              		.size	__func__.10399, 8
 3186              	__func__.10399:
 3187 0000 73646352 		.ascii	"sdcRead\000"
 3187      65616400 
 3188              		.section	.rodata.__func__.10407,"a",%progbits
 3189              		.align	2
 3190              		.type	__func__.10407, %object
 3191              		.size	__func__.10407, 9
 3192              	__func__.10407:
 3193 0000 73646357 		.ascii	"sdcWrite\000"
 3193      72697465 
 3193      00
 3194              		.section	.rodata.__func__.10412,"a",%progbits
 3195              		.align	2
 3196              		.type	__func__.10412, %object
 3197              		.size	__func__.10412, 21
 3198              	__func__.10412:
 3199 0000 73646347 		.ascii	"sdcGetAndClearErrors\000"
 3199      6574416E 
 3199      64436C65 
 3199      61724572 
 3199      726F7273 
 3200              		.section	.rodata.__func__.10417,"a",%progbits
 3201              		.align	2
 3202              		.type	__func__.10417, %object
 3203              		.size	__func__.10417, 8
 3204              	__func__.10417:
 3205 0000 73646353 		.ascii	"sdcSync\000"
 3205      796E6300 
 3206              		.section	.rodata.__func__.10422,"a",%progbits
 3207              		.align	2
 3208              		.type	__func__.10422, %object
 3209              		.size	__func__.10422, 11
 3210              	__func__.10422:
 3211 0000 73646347 		.ascii	"sdcGetInfo\000"
 3211      6574496E 
 3211      666F00
 3212              		.section	.rodata.__func__.10429,"a",%progbits
 3213              		.align	2
 3214              		.type	__func__.10429, %object
 3215              		.size	__func__.10429, 9
 3216              	__func__.10429:
 3217 0000 73646345 		.ascii	"sdcErase\000"
ARM GAS  C:\Users\PCHAUT~1\AppData\Local\Temp\ccjQKXWT.s 			page 58


 3217      72617365 
 3217      00
 3218              		.text
 3219              	.Letext0:
 3220              		.file 6 "c:\\users\\pchautems\\documents\\robotiquetp\\eclipse_e-puck2\\tools\\gcc-arm-none-eabi-7
 3221              		.file 7 "c:\\users\\pchautems\\documents\\robotiquetp\\eclipse_e-puck2\\tools\\gcc-arm-none-eabi-7
 3222              		.file 8 "c:\\users\\pchautems\\documents\\robotiquetp\\eclipse_e-puck2\\tools\\gcc-arm-none-eabi-7
 3223              		.file 9 "c:\\users\\pchautems\\documents\\robotiquetp\\eclipse_e-puck2\\tools\\gcc-arm-none-eabi-7
 3224              		.file 10 "c:\\users\\pchautems\\documents\\robotiquetp\\eclipse_e-puck2\\tools\\gcc-arm-none-eabi-
 3225              		.file 11 "c:\\users\\pchautems\\documents\\robotiquetp\\eclipse_e-puck2\\tools\\gcc-arm-none-eabi-
 3226              		.file 12 "../lib/e-puck2_main-processor/ChibiOS//os/rt/ports/ARMCMx/compilers/GCC/chtypes.h"
 3227              		.file 13 "../lib/e-puck2_main-processor/ChibiOS//os/rt/include/chsystypes.h"
 3228              		.file 14 "../lib/e-puck2_main-processor/ChibiOS//os/rt/include/chschd.h"
 3229              		.file 15 "../lib/e-puck2_main-processor/ChibiOS//os/ext/CMSIS/include/core_cm4.h"
 3230              		.file 16 "../lib/e-puck2_main-processor/ChibiOS//os/ext/CMSIS/ST/system_stm32f4xx.h"
 3231              		.file 17 "../lib/e-puck2_main-processor/ChibiOS//os/ext/CMSIS/ST/stm32f407xx.h"
 3232              		.file 18 "../lib/e-puck2_main-processor/ChibiOS//os/rt/ports/ARMCMx/chcore.h"
 3233              		.file 19 "../lib/e-puck2_main-processor/ChibiOS//os/rt/include/chdebug.h"
 3234              		.file 20 "../lib/e-puck2_main-processor/ChibiOS//os/rt/include/chtm.h"
 3235              		.file 21 "../lib/e-puck2_main-processor/ChibiOS//os/rt/include/chstats.h"
 3236              		.file 22 "../lib/e-puck2_main-processor/ChibiOS//os/rt/include/chsem.h"
 3237              		.file 23 "../lib/e-puck2_main-processor/ChibiOS//os/rt/include/chmtx.h"
 3238              		.file 24 "../lib/e-puck2_main-processor/ChibiOS//os/rt/include/chregistry.h"
 3239              		.file 25 "../lib/e-puck2_main-processor/ChibiOS//os/rt/include/chevents.h"
 3240              		.file 26 "../lib/e-puck2_main-processor/ChibiOS//os/rt/include/chqueues.h"
 3241              		.file 27 "../lib/e-puck2_main-processor/ChibiOS//os/hal/ports/STM32/STM32F4xx/stm32_dma.h"
 3242              		.file 28 "../lib/e-puck2_main-processor/ChibiOS//os/hal/include/hal_ioblock.h"
 3243              		.file 29 "../lib/e-puck2_main-processor/ChibiOS//os/hal/ports/STM32/LLD/GPIOv2/pal_lld.h"
 3244              		.file 30 "../lib/e-puck2_main-processor/ChibiOS//os/hal/include/adc.h"
 3245              		.file 31 "../lib/e-puck2_main-processor/ChibiOS//os/hal/ports/STM32/STM32F4xx/adc_lld.h"
 3246              		.file 32 "../lib/e-puck2_main-processor/ChibiOS//os/hal/include/can.h"
 3247              		.file 33 "../lib/e-puck2_main-processor/ChibiOS//os/hal/ports/STM32/LLD/can_lld.h"
 3248              		.file 34 "../lib/e-puck2_main-processor/ChibiOS//os/hal/include/dac.h"
 3249              		.file 35 "../lib/e-puck2_main-processor/ChibiOS//os/hal/ports/STM32/LLD/DACv1/dac_lld.h"
 3250              		.file 36 "../lib/e-puck2_main-processor/ChibiOS//os/hal/include/ext.h"
 3251              		.file 37 "../lib/e-puck2_main-processor/ChibiOS//os/hal/ports/STM32/LLD/ext_lld.h"
 3252              		.file 38 "../lib/e-puck2_main-processor/ChibiOS//os/hal/include/gpt.h"
 3253              		.file 39 "../lib/e-puck2_main-processor/ChibiOS//os/hal/ports/STM32/LLD/TIMv1/gpt_lld.h"
 3254              		.file 40 "../lib/e-puck2_main-processor/ChibiOS//os/hal/ports/STM32/LLD/TIMv1/stm32_tim.h"
 3255              		.file 41 "../lib/e-puck2_main-processor/ChibiOS//os/hal/include/i2c.h"
 3256              		.file 42 "../lib/e-puck2_main-processor/ChibiOS//os/hal/ports/STM32/LLD/I2Cv1/i2c_lld.h"
 3257              		.file 43 "../lib/e-puck2_main-processor/ChibiOS//os/hal/include/i2s.h"
 3258              		.file 44 "../lib/e-puck2_main-processor/ChibiOS//os/hal/ports/STM32/LLD/SPIv1/i2s_lld.h"
 3259              		.file 45 "../lib/e-puck2_main-processor/ChibiOS//os/hal/include/pwm.h"
 3260              		.file 46 "../lib/e-puck2_main-processor/ChibiOS//os/hal/ports/STM32/LLD/TIMv1/pwm_lld.h"
 3261              		.file 47 "../lib/e-puck2_main-processor/ChibiOS//os/hal/include/serial.h"
 3262              		.file 48 "../lib/e-puck2_main-processor/ChibiOS//os/hal/ports/STM32/LLD/USARTv1/serial_lld.h"
 3263              		.file 49 "../lib/e-puck2_main-processor/ChibiOS//os/hal/include/sdc.h"
 3264              		.file 50 "../lib/e-puck2_main-processor/ChibiOS//os/hal/ports/STM32/LLD/sdc_lld.h"
 3265              		.file 51 "../lib/e-puck2_main-processor/ChibiOS//os/hal/include/spi.h"
 3266              		.file 52 "../lib/e-puck2_main-processor/ChibiOS//os/hal/ports/STM32/LLD/SPIv1/spi_lld.h"
 3267              		.file 53 "../lib/e-puck2_main-processor/ChibiOS//os/hal/include/usb.h"
 3268              		.file 54 "../lib/e-puck2_main-processor/ChibiOS//os/hal/ports/STM32/LLD/OTGv1/usb_lld.h"
 3269              		.file 55 "../lib/e-puck2_main-processor/ChibiOS//os/hal/ports/STM32/LLD/OTGv1/stm32_otg.h"
 3270              		.section	.debug_info,"",%progbits
 3271              	.Ldebug_info0:
 3272 0000 0D470000 		.4byte	0x470d
ARM GAS  C:\Users\PCHAUT~1\AppData\Local\Temp\ccjQKXWT.s 			page 59


 3273 0004 0400     		.2byte	0x4
 3274 0006 00000000 		.4byte	.Ldebug_abbrev0
 3275 000a 04       		.byte	0x4
 3276 000b 01       		.uleb128 0x1
 3277 000c 91080000 		.4byte	.LASF883
 3278 0010 0C       		.byte	0xc
 3279 0011 1F210000 		.4byte	.LASF884
 3280 0015 92000000 		.4byte	.LASF885
 3281 0019 18000000 		.4byte	.Ldebug_ranges0+0x18
 3282 001d 00000000 		.4byte	0
 3283 0021 00000000 		.4byte	.Ldebug_line0
 3284 0025 02       		.uleb128 0x2
 3285 0026 04       		.byte	0x4
 3286 0027 05       		.byte	0x5
 3287 0028 696E7400 		.ascii	"int\000"
 3288 002c 03       		.uleb128 0x3
 3289 002d 940D0000 		.4byte	.LASF4
 3290 0031 06       		.byte	0x6
 3291 0032 D8       		.byte	0xd8
 3292 0033 3C000000 		.4byte	0x3c
 3293 0037 04       		.uleb128 0x4
 3294 0038 2C000000 		.4byte	0x2c
 3295 003c 05       		.uleb128 0x5
 3296 003d 04       		.byte	0x4
 3297 003e 07       		.byte	0x7
 3298 003f FA220000 		.4byte	.LASF0
 3299 0043 05       		.uleb128 0x5
 3300 0044 08       		.byte	0x8
 3301 0045 05       		.byte	0x5
 3302 0046 BB200000 		.4byte	.LASF1
 3303 004a 05       		.uleb128 0x5
 3304 004b 08       		.byte	0x8
 3305 004c 04       		.byte	0x4
 3306 004d 17180000 		.4byte	.LASF2
 3307 0051 05       		.uleb128 0x5
 3308 0052 01       		.byte	0x1
 3309 0053 06       		.byte	0x6
 3310 0054 93140000 		.4byte	.LASF3
 3311 0058 03       		.uleb128 0x3
 3312 0059 18010000 		.4byte	.LASF5
 3313 005d 07       		.byte	0x7
 3314 005e 2B       		.byte	0x2b
 3315 005f 63000000 		.4byte	0x63
 3316 0063 05       		.uleb128 0x5
 3317 0064 01       		.byte	0x1
 3318 0065 08       		.byte	0x8
 3319 0066 390A0000 		.4byte	.LASF6
 3320 006a 03       		.uleb128 0x3
 3321 006b 6D070000 		.4byte	.LASF7
 3322 006f 07       		.byte	0x7
 3323 0070 37       		.byte	0x37
 3324 0071 75000000 		.4byte	0x75
 3325 0075 05       		.uleb128 0x5
 3326 0076 02       		.byte	0x2
 3327 0077 05       		.byte	0x5
 3328 0078 70230000 		.4byte	.LASF8
 3329 007c 03       		.uleb128 0x3
ARM GAS  C:\Users\PCHAUT~1\AppData\Local\Temp\ccjQKXWT.s 			page 60


 3330 007d 77070000 		.4byte	.LASF9
 3331 0081 07       		.byte	0x7
 3332 0082 39       		.byte	0x39
 3333 0083 87000000 		.4byte	0x87
 3334 0087 05       		.uleb128 0x5
 3335 0088 02       		.byte	0x2
 3336 0089 07       		.byte	0x7
 3337 008a 78140000 		.4byte	.LASF10
 3338 008e 03       		.uleb128 0x3
 3339 008f 811C0000 		.4byte	.LASF11
 3340 0093 07       		.byte	0x7
 3341 0094 4D       		.byte	0x4d
 3342 0095 99000000 		.4byte	0x99
 3343 0099 05       		.uleb128 0x5
 3344 009a 04       		.byte	0x4
 3345 009b 05       		.byte	0x5
 3346 009c E6160000 		.4byte	.LASF12
 3347 00a0 03       		.uleb128 0x3
 3348 00a1 8B1C0000 		.4byte	.LASF13
 3349 00a5 07       		.byte	0x7
 3350 00a6 4F       		.byte	0x4f
 3351 00a7 AB000000 		.4byte	0xab
 3352 00ab 05       		.uleb128 0x5
 3353 00ac 04       		.byte	0x4
 3354 00ad 07       		.byte	0x7
 3355 00ae 60180000 		.4byte	.LASF14
 3356 00b2 03       		.uleb128 0x3
 3357 00b3 8E100000 		.4byte	.LASF15
 3358 00b7 07       		.byte	0x7
 3359 00b8 69       		.byte	0x69
 3360 00b9 BD000000 		.4byte	0xbd
 3361 00bd 05       		.uleb128 0x5
 3362 00be 08       		.byte	0x8
 3363 00bf 07       		.byte	0x7
 3364 00c0 4C1E0000 		.4byte	.LASF16
 3365 00c4 03       		.uleb128 0x3
 3366 00c5 4C070000 		.4byte	.LASF17
 3367 00c9 08       		.byte	0x8
 3368 00ca 22       		.byte	0x22
 3369 00cb CF000000 		.4byte	0xcf
 3370 00cf 06       		.uleb128 0x6
 3371 00d0 04       		.byte	0x4
 3372 00d1 D5000000 		.4byte	0xd5
 3373 00d5 07       		.uleb128 0x7
 3374 00d6 71050000 		.4byte	.LASF124
 3375 00da 03       		.uleb128 0x3
 3376 00db 6F0D0000 		.4byte	.LASF18
 3377 00df 09       		.byte	0x9
 3378 00e0 2C       		.byte	0x2c
 3379 00e1 99000000 		.4byte	0x99
 3380 00e5 03       		.uleb128 0x3
 3381 00e6 B01B0000 		.4byte	.LASF19
 3382 00ea 09       		.byte	0x9
 3383 00eb 72       		.byte	0x72
 3384 00ec 99000000 		.4byte	0x99
 3385 00f0 08       		.uleb128 0x8
 3386 00f1 3D0F0000 		.4byte	.LASF20
ARM GAS  C:\Users\PCHAUT~1\AppData\Local\Temp\ccjQKXWT.s 			page 61


 3387 00f5 06       		.byte	0x6
 3388 00f6 6501     		.2byte	0x165
 3389 00f8 3C000000 		.4byte	0x3c
 3390 00fc 09       		.uleb128 0x9
 3391 00fd 04       		.byte	0x4
 3392 00fe 09       		.byte	0x9
 3393 00ff A6       		.byte	0xa6
 3394 0100 1B010000 		.4byte	0x11b
 3395 0104 0A       		.uleb128 0xa
 3396 0105 4F160000 		.4byte	.LASF21
 3397 0109 09       		.byte	0x9
 3398 010a A8       		.byte	0xa8
 3399 010b F0000000 		.4byte	0xf0
 3400 010f 0A       		.uleb128 0xa
 3401 0110 EB0E0000 		.4byte	.LASF22
 3402 0114 09       		.byte	0x9
 3403 0115 A9       		.byte	0xa9
 3404 0116 1B010000 		.4byte	0x11b
 3405 011a 00       		.byte	0
 3406 011b 0B       		.uleb128 0xb
 3407 011c 63000000 		.4byte	0x63
 3408 0120 2B010000 		.4byte	0x12b
 3409 0124 0C       		.uleb128 0xc
 3410 0125 3C000000 		.4byte	0x3c
 3411 0129 03       		.byte	0x3
 3412 012a 00       		.byte	0
 3413 012b 0D       		.uleb128 0xd
 3414 012c 08       		.byte	0x8
 3415 012d 09       		.byte	0x9
 3416 012e A3       		.byte	0xa3
 3417 012f 4C010000 		.4byte	0x14c
 3418 0133 0E       		.uleb128 0xe
 3419 0134 B80D0000 		.4byte	.LASF23
 3420 0138 09       		.byte	0x9
 3421 0139 A5       		.byte	0xa5
 3422 013a 25000000 		.4byte	0x25
 3423 013e 00       		.byte	0
 3424 013f 0E       		.uleb128 0xe
 3425 0140 C41C0000 		.4byte	.LASF24
 3426 0144 09       		.byte	0x9
 3427 0145 AA       		.byte	0xaa
 3428 0146 FC000000 		.4byte	0xfc
 3429 014a 04       		.byte	0x4
 3430 014b 00       		.byte	0
 3431 014c 03       		.uleb128 0x3
 3432 014d 341C0000 		.4byte	.LASF25
 3433 0151 09       		.byte	0x9
 3434 0152 AB       		.byte	0xab
 3435 0153 2B010000 		.4byte	0x12b
 3436 0157 03       		.uleb128 0x3
 3437 0158 17200000 		.4byte	.LASF26
 3438 015c 09       		.byte	0x9
 3439 015d AF       		.byte	0xaf
 3440 015e C4000000 		.4byte	0xc4
 3441 0162 0F       		.uleb128 0xf
 3442 0163 04       		.byte	0x4
 3443 0164 06       		.uleb128 0x6
ARM GAS  C:\Users\PCHAUT~1\AppData\Local\Temp\ccjQKXWT.s 			page 62


 3444 0165 04       		.byte	0x4
 3445 0166 6A010000 		.4byte	0x16a
 3446 016a 05       		.uleb128 0x5
 3447 016b 01       		.byte	0x1
 3448 016c 08       		.byte	0x8
 3449 016d F5180000 		.4byte	.LASF27
 3450 0171 04       		.uleb128 0x4
 3451 0172 6A010000 		.4byte	0x16a
 3452 0176 03       		.uleb128 0x3
 3453 0177 1B130000 		.4byte	.LASF28
 3454 017b 0A       		.byte	0xa
 3455 017c 16       		.byte	0x16
 3456 017d AB000000 		.4byte	0xab
 3457 0181 10       		.uleb128 0x10
 3458 0182 75190000 		.4byte	.LASF33
 3459 0186 18       		.byte	0x18
 3460 0187 0A       		.byte	0xa
 3461 0188 2F       		.byte	0x2f
 3462 0189 D4010000 		.4byte	0x1d4
 3463 018d 0E       		.uleb128 0xe
 3464 018e BC100000 		.4byte	.LASF29
 3465 0192 0A       		.byte	0xa
 3466 0193 31       		.byte	0x31
 3467 0194 D4010000 		.4byte	0x1d4
 3468 0198 00       		.byte	0
 3469 0199 11       		.uleb128 0x11
 3470 019a 5F6B00   		.ascii	"_k\000"
 3471 019d 0A       		.byte	0xa
 3472 019e 32       		.byte	0x32
 3473 019f 25000000 		.4byte	0x25
 3474 01a3 04       		.byte	0x4
 3475 01a4 0E       		.uleb128 0xe
 3476 01a5 F4170000 		.4byte	.LASF30
 3477 01a9 0A       		.byte	0xa
 3478 01aa 32       		.byte	0x32
 3479 01ab 25000000 		.4byte	0x25
 3480 01af 08       		.byte	0x8
 3481 01b0 0E       		.uleb128 0xe
 3482 01b1 7F220000 		.4byte	.LASF31
 3483 01b5 0A       		.byte	0xa
 3484 01b6 32       		.byte	0x32
 3485 01b7 25000000 		.4byte	0x25
 3486 01bb 0C       		.byte	0xc
 3487 01bc 0E       		.uleb128 0xe
 3488 01bd AE0A0000 		.4byte	.LASF32
 3489 01c1 0A       		.byte	0xa
 3490 01c2 32       		.byte	0x32
 3491 01c3 25000000 		.4byte	0x25
 3492 01c7 10       		.byte	0x10
 3493 01c8 11       		.uleb128 0x11
 3494 01c9 5F7800   		.ascii	"_x\000"
 3495 01cc 0A       		.byte	0xa
 3496 01cd 33       		.byte	0x33
 3497 01ce DA010000 		.4byte	0x1da
 3498 01d2 14       		.byte	0x14
 3499 01d3 00       		.byte	0
 3500 01d4 06       		.uleb128 0x6
ARM GAS  C:\Users\PCHAUT~1\AppData\Local\Temp\ccjQKXWT.s 			page 63


 3501 01d5 04       		.byte	0x4
 3502 01d6 81010000 		.4byte	0x181
 3503 01da 0B       		.uleb128 0xb
 3504 01db 76010000 		.4byte	0x176
 3505 01df EA010000 		.4byte	0x1ea
 3506 01e3 0C       		.uleb128 0xc
 3507 01e4 3C000000 		.4byte	0x3c
 3508 01e8 00       		.byte	0
 3509 01e9 00       		.byte	0
 3510 01ea 10       		.uleb128 0x10
 3511 01eb A5060000 		.4byte	.LASF34
 3512 01ef 24       		.byte	0x24
 3513 01f0 0A       		.byte	0xa
 3514 01f1 37       		.byte	0x37
 3515 01f2 63020000 		.4byte	0x263
 3516 01f6 0E       		.uleb128 0xe
 3517 01f7 FD110000 		.4byte	.LASF35
 3518 01fb 0A       		.byte	0xa
 3519 01fc 39       		.byte	0x39
 3520 01fd 25000000 		.4byte	0x25
 3521 0201 00       		.byte	0
 3522 0202 0E       		.uleb128 0xe
 3523 0203 8E220000 		.4byte	.LASF36
 3524 0207 0A       		.byte	0xa
 3525 0208 3A       		.byte	0x3a
 3526 0209 25000000 		.4byte	0x25
 3527 020d 04       		.byte	0x4
 3528 020e 0E       		.uleb128 0xe
 3529 020f 0C0F0000 		.4byte	.LASF37
 3530 0213 0A       		.byte	0xa
 3531 0214 3B       		.byte	0x3b
 3532 0215 25000000 		.4byte	0x25
 3533 0219 08       		.byte	0x8
 3534 021a 0E       		.uleb128 0xe
 3535 021b DD0F0000 		.4byte	.LASF38
 3536 021f 0A       		.byte	0xa
 3537 0220 3C       		.byte	0x3c
 3538 0221 25000000 		.4byte	0x25
 3539 0225 0C       		.byte	0xc
 3540 0226 0E       		.uleb128 0xe
 3541 0227 CC010000 		.4byte	.LASF39
 3542 022b 0A       		.byte	0xa
 3543 022c 3D       		.byte	0x3d
 3544 022d 25000000 		.4byte	0x25
 3545 0231 10       		.byte	0x10
 3546 0232 0E       		.uleb128 0xe
 3547 0233 B50B0000 		.4byte	.LASF40
 3548 0237 0A       		.byte	0xa
 3549 0238 3E       		.byte	0x3e
 3550 0239 25000000 		.4byte	0x25
 3551 023d 14       		.byte	0x14
 3552 023e 0E       		.uleb128 0xe
 3553 023f 0A0A0000 		.4byte	.LASF41
 3554 0243 0A       		.byte	0xa
 3555 0244 3F       		.byte	0x3f
 3556 0245 25000000 		.4byte	0x25
 3557 0249 18       		.byte	0x18
ARM GAS  C:\Users\PCHAUT~1\AppData\Local\Temp\ccjQKXWT.s 			page 64


 3558 024a 0E       		.uleb128 0xe
 3559 024b 07070000 		.4byte	.LASF42
 3560 024f 0A       		.byte	0xa
 3561 0250 40       		.byte	0x40
 3562 0251 25000000 		.4byte	0x25
 3563 0255 1C       		.byte	0x1c
 3564 0256 0E       		.uleb128 0xe
 3565 0257 D5090000 		.4byte	.LASF43
 3566 025b 0A       		.byte	0xa
 3567 025c 41       		.byte	0x41
 3568 025d 25000000 		.4byte	0x25
 3569 0261 20       		.byte	0x20
 3570 0262 00       		.byte	0
 3571 0263 12       		.uleb128 0x12
 3572 0264 1E120000 		.4byte	.LASF44
 3573 0268 0801     		.2byte	0x108
 3574 026a 0A       		.byte	0xa
 3575 026b 4A       		.byte	0x4a
 3576 026c A3020000 		.4byte	0x2a3
 3577 0270 0E       		.uleb128 0xe
 3578 0271 0B100000 		.4byte	.LASF45
 3579 0275 0A       		.byte	0xa
 3580 0276 4B       		.byte	0x4b
 3581 0277 A3020000 		.4byte	0x2a3
 3582 027b 00       		.byte	0
 3583 027c 0E       		.uleb128 0xe
 3584 027d 5D080000 		.4byte	.LASF46
 3585 0281 0A       		.byte	0xa
 3586 0282 4C       		.byte	0x4c
 3587 0283 A3020000 		.4byte	0x2a3
 3588 0287 80       		.byte	0x80
 3589 0288 13       		.uleb128 0x13
 3590 0289 D5010000 		.4byte	.LASF47
 3591 028d 0A       		.byte	0xa
 3592 028e 4E       		.byte	0x4e
 3593 028f 76010000 		.4byte	0x176
 3594 0293 0001     		.2byte	0x100
 3595 0295 13       		.uleb128 0x13
 3596 0296 E21C0000 		.4byte	.LASF48
 3597 029a 0A       		.byte	0xa
 3598 029b 51       		.byte	0x51
 3599 029c 76010000 		.4byte	0x176
 3600 02a0 0401     		.2byte	0x104
 3601 02a2 00       		.byte	0
 3602 02a3 0B       		.uleb128 0xb
 3603 02a4 62010000 		.4byte	0x162
 3604 02a8 B3020000 		.4byte	0x2b3
 3605 02ac 0C       		.uleb128 0xc
 3606 02ad 3C000000 		.4byte	0x3c
 3607 02b1 1F       		.byte	0x1f
 3608 02b2 00       		.byte	0
 3609 02b3 12       		.uleb128 0x12
 3610 02b4 47010000 		.4byte	.LASF49
 3611 02b8 9001     		.2byte	0x190
 3612 02ba 0A       		.byte	0xa
 3613 02bb 5D       		.byte	0x5d
 3614 02bc F1020000 		.4byte	0x2f1
ARM GAS  C:\Users\PCHAUT~1\AppData\Local\Temp\ccjQKXWT.s 			page 65


 3615 02c0 0E       		.uleb128 0xe
 3616 02c1 BC100000 		.4byte	.LASF29
 3617 02c5 0A       		.byte	0xa
 3618 02c6 5E       		.byte	0x5e
 3619 02c7 F1020000 		.4byte	0x2f1
 3620 02cb 00       		.byte	0
 3621 02cc 0E       		.uleb128 0xe
 3622 02cd F1010000 		.4byte	.LASF50
 3623 02d1 0A       		.byte	0xa
 3624 02d2 5F       		.byte	0x5f
 3625 02d3 25000000 		.4byte	0x25
 3626 02d7 04       		.byte	0x4
 3627 02d8 0E       		.uleb128 0xe
 3628 02d9 FF1B0000 		.4byte	.LASF51
 3629 02dd 0A       		.byte	0xa
 3630 02de 61       		.byte	0x61
 3631 02df F7020000 		.4byte	0x2f7
 3632 02e3 08       		.byte	0x8
 3633 02e4 0E       		.uleb128 0xe
 3634 02e5 1E120000 		.4byte	.LASF44
 3635 02e9 0A       		.byte	0xa
 3636 02ea 62       		.byte	0x62
 3637 02eb 63020000 		.4byte	0x263
 3638 02ef 88       		.byte	0x88
 3639 02f0 00       		.byte	0
 3640 02f1 06       		.uleb128 0x6
 3641 02f2 04       		.byte	0x4
 3642 02f3 B3020000 		.4byte	0x2b3
 3643 02f7 0B       		.uleb128 0xb
 3644 02f8 07030000 		.4byte	0x307
 3645 02fc 07030000 		.4byte	0x307
 3646 0300 0C       		.uleb128 0xc
 3647 0301 3C000000 		.4byte	0x3c
 3648 0305 1F       		.byte	0x1f
 3649 0306 00       		.byte	0
 3650 0307 06       		.uleb128 0x6
 3651 0308 04       		.byte	0x4
 3652 0309 0D030000 		.4byte	0x30d
 3653 030d 14       		.uleb128 0x14
 3654 030e 10       		.uleb128 0x10
 3655 030f B8150000 		.4byte	.LASF52
 3656 0313 08       		.byte	0x8
 3657 0314 0A       		.byte	0xa
 3658 0315 75       		.byte	0x75
 3659 0316 33030000 		.4byte	0x333
 3660 031a 0E       		.uleb128 0xe
 3661 031b F2050000 		.4byte	.LASF53
 3662 031f 0A       		.byte	0xa
 3663 0320 76       		.byte	0x76
 3664 0321 33030000 		.4byte	0x333
 3665 0325 00       		.byte	0
 3666 0326 0E       		.uleb128 0xe
 3667 0327 D10A0000 		.4byte	.LASF54
 3668 032b 0A       		.byte	0xa
 3669 032c 77       		.byte	0x77
 3670 032d 25000000 		.4byte	0x25
 3671 0331 04       		.byte	0x4
ARM GAS  C:\Users\PCHAUT~1\AppData\Local\Temp\ccjQKXWT.s 			page 66


 3672 0332 00       		.byte	0
 3673 0333 06       		.uleb128 0x6
 3674 0334 04       		.byte	0x4
 3675 0335 63000000 		.4byte	0x63
 3676 0339 10       		.uleb128 0x10
 3677 033a F71B0000 		.4byte	.LASF55
 3678 033e 68       		.byte	0x68
 3679 033f 0A       		.byte	0xa
 3680 0340 B5       		.byte	0xb5
 3681 0341 63040000 		.4byte	0x463
 3682 0345 11       		.uleb128 0x11
 3683 0346 5F7000   		.ascii	"_p\000"
 3684 0349 0A       		.byte	0xa
 3685 034a B6       		.byte	0xb6
 3686 034b 33030000 		.4byte	0x333
 3687 034f 00       		.byte	0
 3688 0350 11       		.uleb128 0x11
 3689 0351 5F7200   		.ascii	"_r\000"
 3690 0354 0A       		.byte	0xa
 3691 0355 B7       		.byte	0xb7
 3692 0356 25000000 		.4byte	0x25
 3693 035a 04       		.byte	0x4
 3694 035b 11       		.uleb128 0x11
 3695 035c 5F7700   		.ascii	"_w\000"
 3696 035f 0A       		.byte	0xa
 3697 0360 B8       		.byte	0xb8
 3698 0361 25000000 		.4byte	0x25
 3699 0365 08       		.byte	0x8
 3700 0366 0E       		.uleb128 0xe
 3701 0367 57020000 		.4byte	.LASF56
 3702 036b 0A       		.byte	0xa
 3703 036c B9       		.byte	0xb9
 3704 036d 75000000 		.4byte	0x75
 3705 0371 0C       		.byte	0xc
 3706 0372 0E       		.uleb128 0xe
 3707 0373 CD1B0000 		.4byte	.LASF57
 3708 0377 0A       		.byte	0xa
 3709 0378 BA       		.byte	0xba
 3710 0379 75000000 		.4byte	0x75
 3711 037d 0E       		.byte	0xe
 3712 037e 11       		.uleb128 0x11
 3713 037f 5F626600 		.ascii	"_bf\000"
 3714 0383 0A       		.byte	0xa
 3715 0384 BB       		.byte	0xbb
 3716 0385 0E030000 		.4byte	0x30e
 3717 0389 10       		.byte	0x10
 3718 038a 0E       		.uleb128 0xe
 3719 038b 5E040000 		.4byte	.LASF58
 3720 038f 0A       		.byte	0xa
 3721 0390 BC       		.byte	0xbc
 3722 0391 25000000 		.4byte	0x25
 3723 0395 18       		.byte	0x18
 3724 0396 0E       		.uleb128 0xe
 3725 0397 02110000 		.4byte	.LASF59
 3726 039b 0A       		.byte	0xa
 3727 039c C3       		.byte	0xc3
 3728 039d 62010000 		.4byte	0x162
ARM GAS  C:\Users\PCHAUT~1\AppData\Local\Temp\ccjQKXWT.s 			page 67


 3729 03a1 1C       		.byte	0x1c
 3730 03a2 0E       		.uleb128 0xe
 3731 03a3 88230000 		.4byte	.LASF60
 3732 03a7 0A       		.byte	0xa
 3733 03a8 C5       		.byte	0xc5
 3734 03a9 BE050000 		.4byte	0x5be
 3735 03ad 20       		.byte	0x20
 3736 03ae 0E       		.uleb128 0xe
 3737 03af 1E0B0000 		.4byte	.LASF61
 3738 03b3 0A       		.byte	0xa
 3739 03b4 C7       		.byte	0xc7
 3740 03b5 ED050000 		.4byte	0x5ed
 3741 03b9 24       		.byte	0x24
 3742 03ba 0E       		.uleb128 0xe
 3743 03bb 22140000 		.4byte	.LASF62
 3744 03bf 0A       		.byte	0xa
 3745 03c0 CA       		.byte	0xca
 3746 03c1 11060000 		.4byte	0x611
 3747 03c5 28       		.byte	0x28
 3748 03c6 0E       		.uleb128 0xe
 3749 03c7 EE180000 		.4byte	.LASF63
 3750 03cb 0A       		.byte	0xa
 3751 03cc CB       		.byte	0xcb
 3752 03cd 2B060000 		.4byte	0x62b
 3753 03d1 2C       		.byte	0x2c
 3754 03d2 11       		.uleb128 0x11
 3755 03d3 5F756200 		.ascii	"_ub\000"
 3756 03d7 0A       		.byte	0xa
 3757 03d8 CE       		.byte	0xce
 3758 03d9 0E030000 		.4byte	0x30e
 3759 03dd 30       		.byte	0x30
 3760 03de 11       		.uleb128 0x11
 3761 03df 5F757000 		.ascii	"_up\000"
 3762 03e3 0A       		.byte	0xa
 3763 03e4 CF       		.byte	0xcf
 3764 03e5 33030000 		.4byte	0x333
 3765 03e9 38       		.byte	0x38
 3766 03ea 11       		.uleb128 0x11
 3767 03eb 5F757200 		.ascii	"_ur\000"
 3768 03ef 0A       		.byte	0xa
 3769 03f0 D0       		.byte	0xd0
 3770 03f1 25000000 		.4byte	0x25
 3771 03f5 3C       		.byte	0x3c
 3772 03f6 0E       		.uleb128 0xe
 3773 03f7 111B0000 		.4byte	.LASF64
 3774 03fb 0A       		.byte	0xa
 3775 03fc D3       		.byte	0xd3
 3776 03fd 31060000 		.4byte	0x631
 3777 0401 40       		.byte	0x40
 3778 0402 0E       		.uleb128 0xe
 3779 0403 02030000 		.4byte	.LASF65
 3780 0407 0A       		.byte	0xa
 3781 0408 D4       		.byte	0xd4
 3782 0409 41060000 		.4byte	0x641
 3783 040d 43       		.byte	0x43
 3784 040e 11       		.uleb128 0x11
 3785 040f 5F6C6200 		.ascii	"_lb\000"
ARM GAS  C:\Users\PCHAUT~1\AppData\Local\Temp\ccjQKXWT.s 			page 68


 3786 0413 0A       		.byte	0xa
 3787 0414 D7       		.byte	0xd7
 3788 0415 0E030000 		.4byte	0x30e
 3789 0419 44       		.byte	0x44
 3790 041a 0E       		.uleb128 0xe
 3791 041b FF1A0000 		.4byte	.LASF66
 3792 041f 0A       		.byte	0xa
 3793 0420 DA       		.byte	0xda
 3794 0421 25000000 		.4byte	0x25
 3795 0425 4C       		.byte	0x4c
 3796 0426 0E       		.uleb128 0xe
 3797 0427 71150000 		.4byte	.LASF67
 3798 042b 0A       		.byte	0xa
 3799 042c DB       		.byte	0xdb
 3800 042d DA000000 		.4byte	0xda
 3801 0431 50       		.byte	0x50
 3802 0432 0E       		.uleb128 0xe
 3803 0433 D0040000 		.4byte	.LASF68
 3804 0437 0A       		.byte	0xa
 3805 0438 DE       		.byte	0xde
 3806 0439 81040000 		.4byte	0x481
 3807 043d 54       		.byte	0x54
 3808 043e 0E       		.uleb128 0xe
 3809 043f FC020000 		.4byte	.LASF69
 3810 0443 0A       		.byte	0xa
 3811 0444 E2       		.byte	0xe2
 3812 0445 57010000 		.4byte	0x157
 3813 0449 58       		.byte	0x58
 3814 044a 0E       		.uleb128 0xe
 3815 044b 3E010000 		.4byte	.LASF70
 3816 044f 0A       		.byte	0xa
 3817 0450 E4       		.byte	0xe4
 3818 0451 4C010000 		.4byte	0x14c
 3819 0455 5C       		.byte	0x5c
 3820 0456 0E       		.uleb128 0xe
 3821 0457 DE200000 		.4byte	.LASF71
 3822 045b 0A       		.byte	0xa
 3823 045c E5       		.byte	0xe5
 3824 045d 25000000 		.4byte	0x25
 3825 0461 64       		.byte	0x64
 3826 0462 00       		.byte	0
 3827 0463 15       		.uleb128 0x15
 3828 0464 25000000 		.4byte	0x25
 3829 0468 81040000 		.4byte	0x481
 3830 046c 16       		.uleb128 0x16
 3831 046d 81040000 		.4byte	0x481
 3832 0471 16       		.uleb128 0x16
 3833 0472 62010000 		.4byte	0x162
 3834 0476 16       		.uleb128 0x16
 3835 0477 64010000 		.4byte	0x164
 3836 047b 16       		.uleb128 0x16
 3837 047c 25000000 		.4byte	0x25
 3838 0480 00       		.byte	0
 3839 0481 06       		.uleb128 0x6
 3840 0482 04       		.byte	0x4
 3841 0483 8C040000 		.4byte	0x48c
 3842 0487 04       		.uleb128 0x4
ARM GAS  C:\Users\PCHAUT~1\AppData\Local\Temp\ccjQKXWT.s 			page 69


 3843 0488 81040000 		.4byte	0x481
 3844 048c 17       		.uleb128 0x17
 3845 048d 87050000 		.4byte	.LASF72
 3846 0491 2804     		.2byte	0x428
 3847 0493 0A       		.byte	0xa
 3848 0494 3902     		.2byte	0x239
 3849 0496 BE050000 		.4byte	0x5be
 3850 049a 18       		.uleb128 0x18
 3851 049b C20F0000 		.4byte	.LASF73
 3852 049f 0A       		.byte	0xa
 3853 04a0 3B02     		.2byte	0x23b
 3854 04a2 25000000 		.4byte	0x25
 3855 04a6 00       		.byte	0
 3856 04a7 18       		.uleb128 0x18
 3857 04a8 AD0C0000 		.4byte	.LASF74
 3858 04ac 0A       		.byte	0xa
 3859 04ad 4002     		.2byte	0x240
 3860 04af 98060000 		.4byte	0x698
 3861 04b3 04       		.byte	0x4
 3862 04b4 18       		.uleb128 0x18
 3863 04b5 470A0000 		.4byte	.LASF75
 3864 04b9 0A       		.byte	0xa
 3865 04ba 4002     		.2byte	0x240
 3866 04bc 98060000 		.4byte	0x698
 3867 04c0 08       		.byte	0x8
 3868 04c1 18       		.uleb128 0x18
 3869 04c2 3D080000 		.4byte	.LASF76
 3870 04c6 0A       		.byte	0xa
 3871 04c7 4002     		.2byte	0x240
 3872 04c9 98060000 		.4byte	0x698
 3873 04cd 0C       		.byte	0xc
 3874 04ce 18       		.uleb128 0x18
 3875 04cf EC010000 		.4byte	.LASF77
 3876 04d3 0A       		.byte	0xa
 3877 04d4 4202     		.2byte	0x242
 3878 04d6 25000000 		.4byte	0x25
 3879 04da 10       		.byte	0x10
 3880 04db 18       		.uleb128 0x18
 3881 04dc 81170000 		.4byte	.LASF78
 3882 04e0 0A       		.byte	0xa
 3883 04e1 4302     		.2byte	0x243
 3884 04e3 7A080000 		.4byte	0x87a
 3885 04e7 14       		.byte	0x14
 3886 04e8 18       		.uleb128 0x18
 3887 04e9 6E1F0000 		.4byte	.LASF79
 3888 04ed 0A       		.byte	0xa
 3889 04ee 4602     		.2byte	0x246
 3890 04f0 25000000 		.4byte	0x25
 3891 04f4 30       		.byte	0x30
 3892 04f5 18       		.uleb128 0x18
 3893 04f6 57210000 		.4byte	.LASF80
 3894 04fa 0A       		.byte	0xa
 3895 04fb 4702     		.2byte	0x247
 3896 04fd 8F080000 		.4byte	0x88f
 3897 0501 34       		.byte	0x34
 3898 0502 18       		.uleb128 0x18
 3899 0503 CD1F0000 		.4byte	.LASF81
ARM GAS  C:\Users\PCHAUT~1\AppData\Local\Temp\ccjQKXWT.s 			page 70


 3900 0507 0A       		.byte	0xa
 3901 0508 4902     		.2byte	0x249
 3902 050a 25000000 		.4byte	0x25
 3903 050e 38       		.byte	0x38
 3904 050f 18       		.uleb128 0x18
 3905 0510 541B0000 		.4byte	.LASF82
 3906 0514 0A       		.byte	0xa
 3907 0515 4B02     		.2byte	0x24b
 3908 0517 A0080000 		.4byte	0x8a0
 3909 051b 3C       		.byte	0x3c
 3910 051c 18       		.uleb128 0x18
 3911 051d 45080000 		.4byte	.LASF83
 3912 0521 0A       		.byte	0xa
 3913 0522 4E02     		.2byte	0x24e
 3914 0524 D4010000 		.4byte	0x1d4
 3915 0528 40       		.byte	0x40
 3916 0529 18       		.uleb128 0x18
 3917 052a 2E080000 		.4byte	.LASF84
 3918 052e 0A       		.byte	0xa
 3919 052f 4F02     		.2byte	0x24f
 3920 0531 25000000 		.4byte	0x25
 3921 0535 44       		.byte	0x44
 3922 0536 18       		.uleb128 0x18
 3923 0537 1C1D0000 		.4byte	.LASF85
 3924 053b 0A       		.byte	0xa
 3925 053c 5002     		.2byte	0x250
 3926 053e D4010000 		.4byte	0x1d4
 3927 0542 48       		.byte	0x48
 3928 0543 18       		.uleb128 0x18
 3929 0544 33150000 		.4byte	.LASF86
 3930 0548 0A       		.byte	0xa
 3931 0549 5102     		.2byte	0x251
 3932 054b A6080000 		.4byte	0x8a6
 3933 054f 4C       		.byte	0x4c
 3934 0550 18       		.uleb128 0x18
 3935 0551 87020000 		.4byte	.LASF87
 3936 0555 0A       		.byte	0xa
 3937 0556 5402     		.2byte	0x254
 3938 0558 25000000 		.4byte	0x25
 3939 055c 50       		.byte	0x50
 3940 055d 18       		.uleb128 0x18
 3941 055e 590E0000 		.4byte	.LASF88
 3942 0562 0A       		.byte	0xa
 3943 0563 5502     		.2byte	0x255
 3944 0565 64010000 		.4byte	0x164
 3945 0569 54       		.byte	0x54
 3946 056a 18       		.uleb128 0x18
 3947 056b 4C0F0000 		.4byte	.LASF89
 3948 056f 0A       		.byte	0xa
 3949 0570 7802     		.2byte	0x278
 3950 0572 58080000 		.4byte	0x858
 3951 0576 58       		.byte	0x58
 3952 0577 19       		.uleb128 0x19
 3953 0578 47010000 		.4byte	.LASF49
 3954 057c 0A       		.byte	0xa
 3955 057d 7C02     		.2byte	0x27c
 3956 057f F1020000 		.4byte	0x2f1
ARM GAS  C:\Users\PCHAUT~1\AppData\Local\Temp\ccjQKXWT.s 			page 71


 3957 0583 4801     		.2byte	0x148
 3958 0585 19       		.uleb128 0x19
 3959 0586 DB190000 		.4byte	.LASF90
 3960 058a 0A       		.byte	0xa
 3961 058b 7D02     		.2byte	0x27d
 3962 058d B3020000 		.4byte	0x2b3
 3963 0591 4C01     		.2byte	0x14c
 3964 0593 19       		.uleb128 0x19
 3965 0594 A9020000 		.4byte	.LASF91
 3966 0598 0A       		.byte	0xa
 3967 0599 8102     		.2byte	0x281
 3968 059b B7080000 		.4byte	0x8b7
 3969 059f DC02     		.2byte	0x2dc
 3970 05a1 19       		.uleb128 0x19
 3971 05a2 321B0000 		.4byte	.LASF92
 3972 05a6 0A       		.byte	0xa
 3973 05a7 8602     		.2byte	0x286
 3974 05a9 5D060000 		.4byte	0x65d
 3975 05ad E002     		.2byte	0x2e0
 3976 05af 19       		.uleb128 0x19
 3977 05b0 E4050000 		.4byte	.LASF93
 3978 05b4 0A       		.byte	0xa
 3979 05b5 8802     		.2byte	0x288
 3980 05b7 C3080000 		.4byte	0x8c3
 3981 05bb EC02     		.2byte	0x2ec
 3982 05bd 00       		.byte	0
 3983 05be 06       		.uleb128 0x6
 3984 05bf 04       		.byte	0x4
 3985 05c0 63040000 		.4byte	0x463
 3986 05c4 15       		.uleb128 0x15
 3987 05c5 25000000 		.4byte	0x25
 3988 05c9 E2050000 		.4byte	0x5e2
 3989 05cd 16       		.uleb128 0x16
 3990 05ce 81040000 		.4byte	0x481
 3991 05d2 16       		.uleb128 0x16
 3992 05d3 62010000 		.4byte	0x162
 3993 05d7 16       		.uleb128 0x16
 3994 05d8 E2050000 		.4byte	0x5e2
 3995 05dc 16       		.uleb128 0x16
 3996 05dd 25000000 		.4byte	0x25
 3997 05e1 00       		.byte	0
 3998 05e2 06       		.uleb128 0x6
 3999 05e3 04       		.byte	0x4
 4000 05e4 71010000 		.4byte	0x171
 4001 05e8 1A       		.uleb128 0x1a
 4002 05e9 E2050000 		.4byte	0x5e2
 4003 05ed 06       		.uleb128 0x6
 4004 05ee 04       		.byte	0x4
 4005 05ef C4050000 		.4byte	0x5c4
 4006 05f3 15       		.uleb128 0x15
 4007 05f4 E5000000 		.4byte	0xe5
 4008 05f8 11060000 		.4byte	0x611
 4009 05fc 16       		.uleb128 0x16
 4010 05fd 81040000 		.4byte	0x481
 4011 0601 16       		.uleb128 0x16
 4012 0602 62010000 		.4byte	0x162
 4013 0606 16       		.uleb128 0x16
ARM GAS  C:\Users\PCHAUT~1\AppData\Local\Temp\ccjQKXWT.s 			page 72


 4014 0607 E5000000 		.4byte	0xe5
 4015 060b 16       		.uleb128 0x16
 4016 060c 25000000 		.4byte	0x25
 4017 0610 00       		.byte	0
 4018 0611 06       		.uleb128 0x6
 4019 0612 04       		.byte	0x4
 4020 0613 F3050000 		.4byte	0x5f3
 4021 0617 15       		.uleb128 0x15
 4022 0618 25000000 		.4byte	0x25
 4023 061c 2B060000 		.4byte	0x62b
 4024 0620 16       		.uleb128 0x16
 4025 0621 81040000 		.4byte	0x481
 4026 0625 16       		.uleb128 0x16
 4027 0626 62010000 		.4byte	0x162
 4028 062a 00       		.byte	0
 4029 062b 06       		.uleb128 0x6
 4030 062c 04       		.byte	0x4
 4031 062d 17060000 		.4byte	0x617
 4032 0631 0B       		.uleb128 0xb
 4033 0632 63000000 		.4byte	0x63
 4034 0636 41060000 		.4byte	0x641
 4035 063a 0C       		.uleb128 0xc
 4036 063b 3C000000 		.4byte	0x3c
 4037 063f 02       		.byte	0x2
 4038 0640 00       		.byte	0
 4039 0641 0B       		.uleb128 0xb
 4040 0642 63000000 		.4byte	0x63
 4041 0646 51060000 		.4byte	0x651
 4042 064a 0C       		.uleb128 0xc
 4043 064b 3C000000 		.4byte	0x3c
 4044 064f 00       		.byte	0
 4045 0650 00       		.byte	0
 4046 0651 08       		.uleb128 0x8
 4047 0652 60220000 		.4byte	.LASF94
 4048 0656 0A       		.byte	0xa
 4049 0657 1F01     		.2byte	0x11f
 4050 0659 39030000 		.4byte	0x339
 4051 065d 1B       		.uleb128 0x1b
 4052 065e 13190000 		.4byte	.LASF95
 4053 0662 0C       		.byte	0xc
 4054 0663 0A       		.byte	0xa
 4055 0664 2301     		.2byte	0x123
 4056 0666 92060000 		.4byte	0x692
 4057 066a 18       		.uleb128 0x18
 4058 066b BC100000 		.4byte	.LASF29
 4059 066f 0A       		.byte	0xa
 4060 0670 2501     		.2byte	0x125
 4061 0672 92060000 		.4byte	0x692
 4062 0676 00       		.byte	0
 4063 0677 18       		.uleb128 0x18
 4064 0678 7B0F0000 		.4byte	.LASF96
 4065 067c 0A       		.byte	0xa
 4066 067d 2601     		.2byte	0x126
 4067 067f 25000000 		.4byte	0x25
 4068 0683 04       		.byte	0x4
 4069 0684 18       		.uleb128 0x18
 4070 0685 7B170000 		.4byte	.LASF97
ARM GAS  C:\Users\PCHAUT~1\AppData\Local\Temp\ccjQKXWT.s 			page 73


 4071 0689 0A       		.byte	0xa
 4072 068a 2701     		.2byte	0x127
 4073 068c 98060000 		.4byte	0x698
 4074 0690 08       		.byte	0x8
 4075 0691 00       		.byte	0
 4076 0692 06       		.uleb128 0x6
 4077 0693 04       		.byte	0x4
 4078 0694 5D060000 		.4byte	0x65d
 4079 0698 06       		.uleb128 0x6
 4080 0699 04       		.byte	0x4
 4081 069a 51060000 		.4byte	0x651
 4082 069e 1B       		.uleb128 0x1b
 4083 069f B3230000 		.4byte	.LASF98
 4084 06a3 0E       		.byte	0xe
 4085 06a4 0A       		.byte	0xa
 4086 06a5 3F01     		.2byte	0x13f
 4087 06a7 D3060000 		.4byte	0x6d3
 4088 06ab 18       		.uleb128 0x18
 4089 06ac 0D140000 		.4byte	.LASF99
 4090 06b0 0A       		.byte	0xa
 4091 06b1 4001     		.2byte	0x140
 4092 06b3 D3060000 		.4byte	0x6d3
 4093 06b7 00       		.byte	0
 4094 06b8 18       		.uleb128 0x18
 4095 06b9 0E0C0000 		.4byte	.LASF100
 4096 06bd 0A       		.byte	0xa
 4097 06be 4101     		.2byte	0x141
 4098 06c0 D3060000 		.4byte	0x6d3
 4099 06c4 06       		.byte	0x6
 4100 06c5 18       		.uleb128 0x18
 4101 06c6 EB030000 		.4byte	.LASF101
 4102 06ca 0A       		.byte	0xa
 4103 06cb 4201     		.2byte	0x142
 4104 06cd 87000000 		.4byte	0x87
 4105 06d1 0C       		.byte	0xc
 4106 06d2 00       		.byte	0
 4107 06d3 0B       		.uleb128 0xb
 4108 06d4 87000000 		.4byte	0x87
 4109 06d8 E3060000 		.4byte	0x6e3
 4110 06dc 0C       		.uleb128 0xc
 4111 06dd 3C000000 		.4byte	0x3c
 4112 06e1 02       		.byte	0x2
 4113 06e2 00       		.byte	0
 4114 06e3 1C       		.uleb128 0x1c
 4115 06e4 D0       		.byte	0xd0
 4116 06e5 0A       		.byte	0xa
 4117 06e6 5902     		.2byte	0x259
 4118 06e8 E4070000 		.4byte	0x7e4
 4119 06ec 18       		.uleb128 0x18
 4120 06ed A0070000 		.4byte	.LASF102
 4121 06f1 0A       		.byte	0xa
 4122 06f2 5B02     		.2byte	0x25b
 4123 06f4 3C000000 		.4byte	0x3c
 4124 06f8 00       		.byte	0
 4125 06f9 18       		.uleb128 0x18
 4126 06fa BC130000 		.4byte	.LASF103
 4127 06fe 0A       		.byte	0xa
ARM GAS  C:\Users\PCHAUT~1\AppData\Local\Temp\ccjQKXWT.s 			page 74


 4128 06ff 5C02     		.2byte	0x25c
 4129 0701 64010000 		.4byte	0x164
 4130 0705 04       		.byte	0x4
 4131 0706 18       		.uleb128 0x18
 4132 0707 1A160000 		.4byte	.LASF104
 4133 070b 0A       		.byte	0xa
 4134 070c 5D02     		.2byte	0x25d
 4135 070e E4070000 		.4byte	0x7e4
 4136 0712 08       		.byte	0x8
 4137 0713 18       		.uleb128 0x18
 4138 0714 9B0D0000 		.4byte	.LASF105
 4139 0718 0A       		.byte	0xa
 4140 0719 5E02     		.2byte	0x25e
 4141 071b EA010000 		.4byte	0x1ea
 4142 071f 24       		.byte	0x24
 4143 0720 18       		.uleb128 0x18
 4144 0721 A11E0000 		.4byte	.LASF106
 4145 0725 0A       		.byte	0xa
 4146 0726 5F02     		.2byte	0x25f
 4147 0728 25000000 		.4byte	0x25
 4148 072c 48       		.byte	0x48
 4149 072d 18       		.uleb128 0x18
 4150 072e AC170000 		.4byte	.LASF107
 4151 0732 0A       		.byte	0xa
 4152 0733 6002     		.2byte	0x260
 4153 0735 BD000000 		.4byte	0xbd
 4154 0739 50       		.byte	0x50
 4155 073a 18       		.uleb128 0x18
 4156 073b 11230000 		.4byte	.LASF108
 4157 073f 0A       		.byte	0xa
 4158 0740 6102     		.2byte	0x261
 4159 0742 9E060000 		.4byte	0x69e
 4160 0746 58       		.byte	0x58
 4161 0747 18       		.uleb128 0x18
 4162 0748 251B0000 		.4byte	.LASF109
 4163 074c 0A       		.byte	0xa
 4164 074d 6202     		.2byte	0x262
 4165 074f 4C010000 		.4byte	0x14c
 4166 0753 68       		.byte	0x68
 4167 0754 18       		.uleb128 0x18
 4168 0755 10060000 		.4byte	.LASF110
 4169 0759 0A       		.byte	0xa
 4170 075a 6302     		.2byte	0x263
 4171 075c 4C010000 		.4byte	0x14c
 4172 0760 70       		.byte	0x70
 4173 0761 18       		.uleb128 0x18
 4174 0762 12170000 		.4byte	.LASF111
 4175 0766 0A       		.byte	0xa
 4176 0767 6402     		.2byte	0x264
 4177 0769 4C010000 		.4byte	0x14c
 4178 076d 78       		.byte	0x78
 4179 076e 18       		.uleb128 0x18
 4180 076f E0150000 		.4byte	.LASF112
 4181 0773 0A       		.byte	0xa
 4182 0774 6502     		.2byte	0x265
 4183 0776 F4070000 		.4byte	0x7f4
 4184 077a 80       		.byte	0x80
ARM GAS  C:\Users\PCHAUT~1\AppData\Local\Temp\ccjQKXWT.s 			page 75


 4185 077b 18       		.uleb128 0x18
 4186 077c EB100000 		.4byte	.LASF113
 4187 0780 0A       		.byte	0xa
 4188 0781 6602     		.2byte	0x266
 4189 0783 04080000 		.4byte	0x804
 4190 0787 88       		.byte	0x88
 4191 0788 18       		.uleb128 0x18
 4192 0789 221A0000 		.4byte	.LASF114
 4193 078d 0A       		.byte	0xa
 4194 078e 6702     		.2byte	0x267
 4195 0790 25000000 		.4byte	0x25
 4196 0794 A0       		.byte	0xa0
 4197 0795 18       		.uleb128 0x18
 4198 0796 460C0000 		.4byte	.LASF115
 4199 079a 0A       		.byte	0xa
 4200 079b 6802     		.2byte	0x268
 4201 079d 4C010000 		.4byte	0x14c
 4202 07a1 A4       		.byte	0xa4
 4203 07a2 18       		.uleb128 0x18
 4204 07a3 F20E0000 		.4byte	.LASF116
 4205 07a7 0A       		.byte	0xa
 4206 07a8 6902     		.2byte	0x269
 4207 07aa 4C010000 		.4byte	0x14c
 4208 07ae AC       		.byte	0xac
 4209 07af 18       		.uleb128 0x18
 4210 07b0 950A0000 		.4byte	.LASF117
 4211 07b4 0A       		.byte	0xa
 4212 07b5 6A02     		.2byte	0x26a
 4213 07b7 4C010000 		.4byte	0x14c
 4214 07bb B4       		.byte	0xb4
 4215 07bc 18       		.uleb128 0x18
 4216 07bd 84120000 		.4byte	.LASF118
 4217 07c1 0A       		.byte	0xa
 4218 07c2 6B02     		.2byte	0x26b
 4219 07c4 4C010000 		.4byte	0x14c
 4220 07c8 BC       		.byte	0xbc
 4221 07c9 18       		.uleb128 0x18
 4222 07ca 62160000 		.4byte	.LASF119
 4223 07ce 0A       		.byte	0xa
 4224 07cf 6C02     		.2byte	0x26c
 4225 07d1 4C010000 		.4byte	0x14c
 4226 07d5 C4       		.byte	0xc4
 4227 07d6 18       		.uleb128 0x18
 4228 07d7 3F1C0000 		.4byte	.LASF120
 4229 07db 0A       		.byte	0xa
 4230 07dc 6D02     		.2byte	0x26d
 4231 07de 25000000 		.4byte	0x25
 4232 07e2 CC       		.byte	0xcc
 4233 07e3 00       		.byte	0
 4234 07e4 0B       		.uleb128 0xb
 4235 07e5 6A010000 		.4byte	0x16a
 4236 07e9 F4070000 		.4byte	0x7f4
 4237 07ed 0C       		.uleb128 0xc
 4238 07ee 3C000000 		.4byte	0x3c
 4239 07f2 19       		.byte	0x19
 4240 07f3 00       		.byte	0
 4241 07f4 0B       		.uleb128 0xb
ARM GAS  C:\Users\PCHAUT~1\AppData\Local\Temp\ccjQKXWT.s 			page 76


 4242 07f5 6A010000 		.4byte	0x16a
 4243 07f9 04080000 		.4byte	0x804
 4244 07fd 0C       		.uleb128 0xc
 4245 07fe 3C000000 		.4byte	0x3c
 4246 0802 07       		.byte	0x7
 4247 0803 00       		.byte	0
 4248 0804 0B       		.uleb128 0xb
 4249 0805 6A010000 		.4byte	0x16a
 4250 0809 14080000 		.4byte	0x814
 4251 080d 0C       		.uleb128 0xc
 4252 080e 3C000000 		.4byte	0x3c
 4253 0812 17       		.byte	0x17
 4254 0813 00       		.byte	0
 4255 0814 1C       		.uleb128 0x1c
 4256 0815 F0       		.byte	0xf0
 4257 0816 0A       		.byte	0xa
 4258 0817 7202     		.2byte	0x272
 4259 0819 38080000 		.4byte	0x838
 4260 081d 18       		.uleb128 0x18
 4261 081e 9F170000 		.4byte	.LASF121
 4262 0822 0A       		.byte	0xa
 4263 0823 7502     		.2byte	0x275
 4264 0825 38080000 		.4byte	0x838
 4265 0829 00       		.byte	0
 4266 082a 18       		.uleb128 0x18
 4267 082b B40C0000 		.4byte	.LASF122
 4268 082f 0A       		.byte	0xa
 4269 0830 7602     		.2byte	0x276
 4270 0832 48080000 		.4byte	0x848
 4271 0836 78       		.byte	0x78
 4272 0837 00       		.byte	0
 4273 0838 0B       		.uleb128 0xb
 4274 0839 33030000 		.4byte	0x333
 4275 083d 48080000 		.4byte	0x848
 4276 0841 0C       		.uleb128 0xc
 4277 0842 3C000000 		.4byte	0x3c
 4278 0846 1D       		.byte	0x1d
 4279 0847 00       		.byte	0
 4280 0848 0B       		.uleb128 0xb
 4281 0849 3C000000 		.4byte	0x3c
 4282 084d 58080000 		.4byte	0x858
 4283 0851 0C       		.uleb128 0xc
 4284 0852 3C000000 		.4byte	0x3c
 4285 0856 1D       		.byte	0x1d
 4286 0857 00       		.byte	0
 4287 0858 1D       		.uleb128 0x1d
 4288 0859 F0       		.byte	0xf0
 4289 085a 0A       		.byte	0xa
 4290 085b 5702     		.2byte	0x257
 4291 085d 7A080000 		.4byte	0x87a
 4292 0861 1E       		.uleb128 0x1e
 4293 0862 87050000 		.4byte	.LASF72
 4294 0866 0A       		.byte	0xa
 4295 0867 6E02     		.2byte	0x26e
 4296 0869 E3060000 		.4byte	0x6e3
 4297 086d 1E       		.uleb128 0x1e
 4298 086e 11030000 		.4byte	.LASF123
ARM GAS  C:\Users\PCHAUT~1\AppData\Local\Temp\ccjQKXWT.s 			page 77


 4299 0872 0A       		.byte	0xa
 4300 0873 7702     		.2byte	0x277
 4301 0875 14080000 		.4byte	0x814
 4302 0879 00       		.byte	0
 4303 087a 0B       		.uleb128 0xb
 4304 087b 6A010000 		.4byte	0x16a
 4305 087f 8A080000 		.4byte	0x88a
 4306 0883 0C       		.uleb128 0xc
 4307 0884 3C000000 		.4byte	0x3c
 4308 0888 18       		.byte	0x18
 4309 0889 00       		.byte	0
 4310 088a 07       		.uleb128 0x7
 4311 088b 3A1B0000 		.4byte	.LASF125
 4312 088f 06       		.uleb128 0x6
 4313 0890 04       		.byte	0x4
 4314 0891 8A080000 		.4byte	0x88a
 4315 0895 1F       		.uleb128 0x1f
 4316 0896 A0080000 		.4byte	0x8a0
 4317 089a 16       		.uleb128 0x16
 4318 089b 81040000 		.4byte	0x481
 4319 089f 00       		.byte	0
 4320 08a0 06       		.uleb128 0x6
 4321 08a1 04       		.byte	0x4
 4322 08a2 95080000 		.4byte	0x895
 4323 08a6 06       		.uleb128 0x6
 4324 08a7 04       		.byte	0x4
 4325 08a8 D4010000 		.4byte	0x1d4
 4326 08ac 1F       		.uleb128 0x1f
 4327 08ad B7080000 		.4byte	0x8b7
 4328 08b1 16       		.uleb128 0x16
 4329 08b2 25000000 		.4byte	0x25
 4330 08b6 00       		.byte	0
 4331 08b7 06       		.uleb128 0x6
 4332 08b8 04       		.byte	0x4
 4333 08b9 BD080000 		.4byte	0x8bd
 4334 08bd 06       		.uleb128 0x6
 4335 08be 04       		.byte	0x4
 4336 08bf AC080000 		.4byte	0x8ac
 4337 08c3 0B       		.uleb128 0xb
 4338 08c4 51060000 		.4byte	0x651
 4339 08c8 D3080000 		.4byte	0x8d3
 4340 08cc 0C       		.uleb128 0xc
 4341 08cd 3C000000 		.4byte	0x3c
 4342 08d1 02       		.byte	0x2
 4343 08d2 00       		.byte	0
 4344 08d3 20       		.uleb128 0x20
 4345 08d4 D71A0000 		.4byte	.LASF126
 4346 08d8 0A       		.byte	0xa
 4347 08d9 0703     		.2byte	0x307
 4348 08db 81040000 		.4byte	0x481
 4349 08df 20       		.uleb128 0x20
 4350 08e0 4B1F0000 		.4byte	.LASF127
 4351 08e4 0A       		.byte	0xa
 4352 08e5 0803     		.2byte	0x308
 4353 08e7 87040000 		.4byte	0x487
 4354 08eb 03       		.uleb128 0x3
 4355 08ec C00D0000 		.4byte	.LASF128
ARM GAS  C:\Users\PCHAUT~1\AppData\Local\Temp\ccjQKXWT.s 			page 78


 4356 08f0 0B       		.byte	0xb
 4357 08f1 18       		.byte	0x18
 4358 08f2 58000000 		.4byte	0x58
 4359 08f6 04       		.uleb128 0x4
 4360 08f7 EB080000 		.4byte	0x8eb
 4361 08fb 03       		.uleb128 0x3
 4362 08fc 53140000 		.4byte	.LASF129
 4363 0900 0B       		.byte	0xb
 4364 0901 20       		.byte	0x20
 4365 0902 6A000000 		.4byte	0x6a
 4366 0906 03       		.uleb128 0x3
 4367 0907 20020000 		.4byte	.LASF130
 4368 090b 0B       		.byte	0xb
 4369 090c 24       		.byte	0x24
 4370 090d 7C000000 		.4byte	0x7c
 4371 0911 03       		.uleb128 0x3
 4372 0912 BD030000 		.4byte	.LASF131
 4373 0916 0B       		.byte	0xb
 4374 0917 2C       		.byte	0x2c
 4375 0918 8E000000 		.4byte	0x8e
 4376 091c 1A       		.uleb128 0x1a
 4377 091d 11090000 		.4byte	0x911
 4378 0921 03       		.uleb128 0x3
 4379 0922 E0170000 		.4byte	.LASF132
 4380 0926 0B       		.byte	0xb
 4381 0927 30       		.byte	0x30
 4382 0928 A0000000 		.4byte	0xa0
 4383 092c 1A       		.uleb128 0x1a
 4384 092d 21090000 		.4byte	0x921
 4385 0931 04       		.uleb128 0x4
 4386 0932 2C090000 		.4byte	0x92c
 4387 0936 03       		.uleb128 0x3
 4388 0937 550B0000 		.4byte	.LASF133
 4389 093b 0B       		.byte	0xb
 4390 093c 3C       		.byte	0x3c
 4391 093d B2000000 		.4byte	0xb2
 4392 0941 03       		.uleb128 0x3
 4393 0942 130D0000 		.4byte	.LASF134
 4394 0946 0C       		.byte	0xc
 4395 0947 45       		.byte	0x45
 4396 0948 21090000 		.4byte	0x921
 4397 094c 03       		.uleb128 0x3
 4398 094d B1050000 		.4byte	.LASF135
 4399 0951 0C       		.byte	0xc
 4400 0952 46       		.byte	0x46
 4401 0953 36090000 		.4byte	0x936
 4402 0957 03       		.uleb128 0x3
 4403 0958 34120000 		.4byte	.LASF136
 4404 095c 0C       		.byte	0xc
 4405 095d 48       		.byte	0x48
 4406 095e EB080000 		.4byte	0x8eb
 4407 0962 03       		.uleb128 0x3
 4408 0963 421F0000 		.4byte	.LASF137
 4409 0967 0C       		.byte	0xc
 4410 0968 49       		.byte	0x49
 4411 0969 EB080000 		.4byte	0x8eb
 4412 096d 03       		.uleb128 0x3
ARM GAS  C:\Users\PCHAUT~1\AppData\Local\Temp\ccjQKXWT.s 			page 79


 4413 096e AE110000 		.4byte	.LASF138
 4414 0972 0C       		.byte	0xc
 4415 0973 4A       		.byte	0x4a
 4416 0974 EB080000 		.4byte	0x8eb
 4417 0978 03       		.uleb128 0x3
 4418 0979 B2130000 		.4byte	.LASF139
 4419 097d 0C       		.byte	0xc
 4420 097e 4B       		.byte	0x4b
 4421 097f EB080000 		.4byte	0x8eb
 4422 0983 03       		.uleb128 0x3
 4423 0984 88060000 		.4byte	.LASF140
 4424 0988 0C       		.byte	0xc
 4425 0989 4C       		.byte	0x4c
 4426 098a 21090000 		.4byte	0x921
 4427 098e 03       		.uleb128 0x3
 4428 098f 68000000 		.4byte	.LASF141
 4429 0993 0C       		.byte	0xc
 4430 0994 4D       		.byte	0x4d
 4431 0995 11090000 		.4byte	0x911
 4432 0999 03       		.uleb128 0x3
 4433 099a 2C180000 		.4byte	.LASF142
 4434 099e 0C       		.byte	0xc
 4435 099f 4F       		.byte	0x4f
 4436 09a0 21090000 		.4byte	0x921
 4437 09a4 03       		.uleb128 0x3
 4438 09a5 5F210000 		.4byte	.LASF143
 4439 09a9 0C       		.byte	0xc
 4440 09aa 50       		.byte	0x50
 4441 09ab 21090000 		.4byte	0x921
 4442 09af 03       		.uleb128 0x3
 4443 09b0 7F1A0000 		.4byte	.LASF144
 4444 09b4 0C       		.byte	0xc
 4445 09b5 51       		.byte	0x51
 4446 09b6 11090000 		.4byte	0x911
 4447 09ba 03       		.uleb128 0x3
 4448 09bb BF140000 		.4byte	.LASF145
 4449 09bf 0C       		.byte	0xc
 4450 09c0 52       		.byte	0x52
 4451 09c1 21090000 		.4byte	0x921
 4452 09c5 03       		.uleb128 0x3
 4453 09c6 D1030000 		.4byte	.LASF146
 4454 09ca 0D       		.byte	0xd
 4455 09cb 33       		.byte	0x33
 4456 09cc 21090000 		.4byte	0x921
 4457 09d0 1A       		.uleb128 0x1a
 4458 09d1 C5090000 		.4byte	0x9c5
 4459 09d5 03       		.uleb128 0x3
 4460 09d6 6D030000 		.4byte	.LASF147
 4461 09da 0D       		.byte	0xd
 4462 09db 3F       		.byte	0x3f
 4463 09dc E0090000 		.4byte	0x9e0
 4464 09e0 10       		.uleb128 0x10
 4465 09e1 790A0000 		.4byte	.LASF148
 4466 09e5 68       		.byte	0x68
 4467 09e6 0E       		.byte	0xe
 4468 09e7 C2       		.byte	0xc2
 4469 09e8 FE0A0000 		.4byte	0xafe
ARM GAS  C:\Users\PCHAUT~1\AppData\Local\Temp\ccjQKXWT.s 			page 80


 4470 09ec 0E       		.uleb128 0xe
 4471 09ed 51110000 		.4byte	.LASF149
 4472 09f1 0E       		.byte	0xe
 4473 09f2 C3       		.byte	0xc3
 4474 09f3 090B0000 		.4byte	0xb09
 4475 09f7 00       		.byte	0
 4476 09f8 0E       		.uleb128 0xe
 4477 09f9 EB0D0000 		.4byte	.LASF150
 4478 09fd 0E       		.byte	0xe
 4479 09fe C5       		.byte	0xc5
 4480 09ff 090B0000 		.4byte	0xb09
 4481 0a03 04       		.byte	0x4
 4482 0a04 0E       		.uleb128 0xe
 4483 0a05 77100000 		.4byte	.LASF151
 4484 0a09 0E       		.byte	0xe
 4485 0a0a C7       		.byte	0xc7
 4486 0a0b 83090000 		.4byte	0x983
 4487 0a0f 08       		.byte	0x8
 4488 0a10 0E       		.uleb128 0xe
 4489 0a11 FF0A0000 		.4byte	.LASF152
 4490 0a15 0E       		.byte	0xe
 4491 0a16 C8       		.byte	0xc8
 4492 0a17 21150000 		.4byte	0x1521
 4493 0a1b 0C       		.byte	0xc
 4494 0a1c 0E       		.uleb128 0xe
 4495 0a1d B3020000 		.4byte	.LASF153
 4496 0a21 0E       		.byte	0xe
 4497 0a22 CA       		.byte	0xca
 4498 0a23 090B0000 		.4byte	0xb09
 4499 0a27 10       		.byte	0x10
 4500 0a28 0E       		.uleb128 0xe
 4501 0a29 D3210000 		.4byte	.LASF154
 4502 0a2d 0E       		.byte	0xe
 4503 0a2e CB       		.byte	0xcb
 4504 0a2f 090B0000 		.4byte	0xb09
 4505 0a33 14       		.byte	0x14
 4506 0a34 0E       		.uleb128 0xe
 4507 0a35 C61F0000 		.4byte	.LASF155
 4508 0a39 0E       		.byte	0xe
 4509 0a3a D2       		.byte	0xd2
 4510 0a3b E2050000 		.4byte	0x5e2
 4511 0a3f 18       		.byte	0x18
 4512 0a40 0E       		.uleb128 0xe
 4513 0a41 741A0000 		.4byte	.LASF156
 4514 0a45 0E       		.byte	0xe
 4515 0a46 D8       		.byte	0xd8
 4516 0a47 97180000 		.4byte	0x1897
 4517 0a4b 1C       		.byte	0x1c
 4518 0a4c 0E       		.uleb128 0xe
 4519 0a4d 0F240000 		.4byte	.LASF157
 4520 0a51 0E       		.byte	0xe
 4521 0a52 DD       		.byte	0xdd
 4522 0a53 62090000 		.4byte	0x962
 4523 0a57 20       		.byte	0x20
 4524 0a58 0E       		.uleb128 0xe
 4525 0a59 011F0000 		.4byte	.LASF158
 4526 0a5d 0E       		.byte	0xe
ARM GAS  C:\Users\PCHAUT~1\AppData\Local\Temp\ccjQKXWT.s 			page 81


 4527 0a5e E1       		.byte	0xe1
 4528 0a5f 57090000 		.4byte	0x957
 4529 0a63 21       		.byte	0x21
 4530 0a64 0E       		.uleb128 0xe
 4531 0a65 C5160000 		.4byte	.LASF159
 4532 0a69 0E       		.byte	0xe
 4533 0a6a E6       		.byte	0xe6
 4534 0a6b 6D090000 		.4byte	0x96d
 4535 0a6f 22       		.byte	0x22
 4536 0a70 0E       		.uleb128 0xe
 4537 0a71 AB140000 		.4byte	.LASF160
 4538 0a75 0E       		.byte	0xe
 4539 0a76 EC       		.byte	0xec
 4540 0a77 78090000 		.4byte	0x978
 4541 0a7b 23       		.byte	0x23
 4542 0a7c 0E       		.uleb128 0xe
 4543 0a7d BE160000 		.4byte	.LASF161
 4544 0a81 0E       		.byte	0xe
 4545 0a82 F3       		.byte	0xf3
 4546 0a83 D0090000 		.4byte	0x9d0
 4547 0a87 24       		.byte	0x24
 4548 0a88 21       		.uleb128 0x21
 4549 0a89 705F7500 		.ascii	"p_u\000"
 4550 0a8d 0E       		.byte	0xe
 4551 0a8e 3101     		.2byte	0x131
 4552 0a90 C6170000 		.4byte	0x17c6
 4553 0a94 28       		.byte	0x28
 4554 0a95 18       		.uleb128 0x18
 4555 0a96 EC040000 		.4byte	.LASF162
 4556 0a9a 0E       		.byte	0xe
 4557 0a9b 3601     		.2byte	0x136
 4558 0a9d 0F0B0000 		.4byte	0xb0f
 4559 0aa1 2C       		.byte	0x2c
 4560 0aa2 18       		.uleb128 0x18
 4561 0aa3 45150000 		.4byte	.LASF163
 4562 0aa7 0E       		.byte	0xe
 4563 0aa8 3C01     		.2byte	0x13c
 4564 0aaa 330B0000 		.4byte	0xb33
 4565 0aae 30       		.byte	0x30
 4566 0aaf 18       		.uleb128 0x18
 4567 0ab0 9A070000 		.4byte	.LASF164
 4568 0ab4 0E       		.byte	0xe
 4569 0ab5 4001     		.2byte	0x140
 4570 0ab7 8E090000 		.4byte	0x98e
 4571 0abb 38       		.byte	0x38
 4572 0abc 18       		.uleb128 0x18
 4573 0abd 211D0000 		.4byte	.LASF165
 4574 0ac1 0E       		.byte	0xe
 4575 0ac2 4601     		.2byte	0x146
 4576 0ac4 99090000 		.4byte	0x999
 4577 0ac8 3C       		.byte	0x3c
 4578 0ac9 18       		.uleb128 0x18
 4579 0aca 2D1F0000 		.4byte	.LASF166
 4580 0ace 0E       		.byte	0xe
 4581 0acf 4D01     		.2byte	0x14d
 4582 0ad1 91180000 		.4byte	0x1891
 4583 0ad5 40       		.byte	0x40
ARM GAS  C:\Users\PCHAUT~1\AppData\Local\Temp\ccjQKXWT.s 			page 82


 4584 0ad6 18       		.uleb128 0x18
 4585 0ad7 D31B0000 		.4byte	.LASF167
 4586 0adb 0E       		.byte	0xe
 4587 0adc 5101     		.2byte	0x151
 4588 0ade 83090000 		.4byte	0x983
 4589 0ae2 44       		.byte	0x44
 4590 0ae3 18       		.uleb128 0x18
 4591 0ae4 B6110000 		.4byte	.LASF168
 4592 0ae8 0E       		.byte	0xe
 4593 0ae9 5801     		.2byte	0x158
 4594 0aeb 62010000 		.4byte	0x162
 4595 0aef 48       		.byte	0x48
 4596 0af0 18       		.uleb128 0x18
 4597 0af1 4A240000 		.4byte	.LASF169
 4598 0af5 0E       		.byte	0xe
 4599 0af6 5E01     		.2byte	0x15e
 4600 0af8 77170000 		.4byte	0x1777
 4601 0afc 50       		.byte	0x50
 4602 0afd 00       		.byte	0
 4603 0afe 03       		.uleb128 0x3
 4604 0aff 36220000 		.4byte	.LASF170
 4605 0b03 0D       		.byte	0xd
 4606 0b04 44       		.byte	0x44
 4607 0b05 090B0000 		.4byte	0xb09
 4608 0b09 06       		.uleb128 0x6
 4609 0b0a 04       		.byte	0x4
 4610 0b0b D5090000 		.4byte	0x9d5
 4611 0b0f 03       		.uleb128 0x3
 4612 0b10 2B050000 		.4byte	.LASF171
 4613 0b14 0D       		.byte	0xd
 4614 0b15 49       		.byte	0x49
 4615 0b16 1A0B0000 		.4byte	0xb1a
 4616 0b1a 10       		.uleb128 0x10
 4617 0b1b 29240000 		.4byte	.LASF172
 4618 0b1f 04       		.byte	0x4
 4619 0b20 0E       		.byte	0xe
 4620 0b21 B0       		.byte	0xb0
 4621 0b22 330B0000 		.4byte	0xb33
 4622 0b26 0E       		.uleb128 0xe
 4623 0b27 51110000 		.4byte	.LASF149
 4624 0b2b 0E       		.byte	0xe
 4625 0b2c B1       		.byte	0xb1
 4626 0b2d 090B0000 		.4byte	0xb09
 4627 0b31 00       		.byte	0
 4628 0b32 00       		.byte	0
 4629 0b33 03       		.uleb128 0x3
 4630 0b34 94160000 		.4byte	.LASF173
 4631 0b38 0D       		.byte	0xd
 4632 0b39 50       		.byte	0x50
 4633 0b3a 3E0B0000 		.4byte	0xb3e
 4634 0b3e 10       		.uleb128 0x10
 4635 0b3f 98020000 		.4byte	.LASF174
 4636 0b43 08       		.byte	0x8
 4637 0b44 0E       		.byte	0xe
 4638 0b45 B7       		.byte	0xb7
 4639 0b46 630B0000 		.4byte	0xb63
 4640 0b4a 0E       		.uleb128 0xe
ARM GAS  C:\Users\PCHAUT~1\AppData\Local\Temp\ccjQKXWT.s 			page 83


 4641 0b4b 51110000 		.4byte	.LASF149
 4642 0b4f 0E       		.byte	0xe
 4643 0b50 B8       		.byte	0xb8
 4644 0b51 090B0000 		.4byte	0xb09
 4645 0b55 00       		.byte	0
 4646 0b56 0E       		.uleb128 0xe
 4647 0b57 EB0D0000 		.4byte	.LASF150
 4648 0b5b 0E       		.byte	0xe
 4649 0b5c B9       		.byte	0xb9
 4650 0b5d 090B0000 		.4byte	0xb09
 4651 0b61 04       		.byte	0x4
 4652 0b62 00       		.byte	0
 4653 0b63 03       		.uleb128 0x3
 4654 0b64 6C0A0000 		.4byte	.LASF175
 4655 0b68 0D       		.byte	0xd
 4656 0b69 57       		.byte	0x57
 4657 0b6a 6E0B0000 		.4byte	0xb6e
 4658 0b6e 1B       		.uleb128 0x1b
 4659 0b6f 6D1C0000 		.4byte	.LASF176
 4660 0b73 1C       		.byte	0x1c
 4661 0b74 0E       		.byte	0xe
 4662 0b75 9001     		.2byte	0x190
 4663 0b77 CA0B0000 		.4byte	0xbca
 4664 0b7b 18       		.uleb128 0x18
 4665 0b7c 0B190000 		.4byte	.LASF177
 4666 0b80 0E       		.byte	0xe
 4667 0b81 9101     		.2byte	0x191
 4668 0b83 330B0000 		.4byte	0xb33
 4669 0b87 00       		.byte	0
 4670 0b88 18       		.uleb128 0x18
 4671 0b89 191E0000 		.4byte	.LASF178
 4672 0b8d 0E       		.byte	0xe
 4673 0b8e 9201     		.2byte	0x192
 4674 0b90 83090000 		.4byte	0x983
 4675 0b94 08       		.byte	0x8
 4676 0b95 18       		.uleb128 0x18
 4677 0b96 EB0C0000 		.4byte	.LASF179
 4678 0b9a 0E       		.byte	0xe
 4679 0b9b 9401     		.2byte	0x194
 4680 0b9d 21150000 		.4byte	0x1521
 4681 0ba1 0C       		.byte	0xc
 4682 0ba2 18       		.uleb128 0x18
 4683 0ba3 41130000 		.4byte	.LASF180
 4684 0ba7 0E       		.byte	0xe
 4685 0ba8 9701     		.2byte	0x197
 4686 0baa 090B0000 		.4byte	0xb09
 4687 0bae 10       		.byte	0x10
 4688 0baf 18       		.uleb128 0x18
 4689 0bb0 E30D0000 		.4byte	.LASF181
 4690 0bb4 0E       		.byte	0xe
 4691 0bb5 9801     		.2byte	0x198
 4692 0bb7 090B0000 		.4byte	0xb09
 4693 0bbb 14       		.byte	0x14
 4694 0bbc 18       		.uleb128 0x18
 4695 0bbd B80F0000 		.4byte	.LASF182
 4696 0bc1 0E       		.byte	0xe
 4697 0bc2 9B01     		.2byte	0x19b
ARM GAS  C:\Users\PCHAUT~1\AppData\Local\Temp\ccjQKXWT.s 			page 84


 4698 0bc4 090B0000 		.4byte	0xb09
 4699 0bc8 18       		.byte	0x18
 4700 0bc9 00       		.byte	0
 4701 0bca 03       		.uleb128 0x3
 4702 0bcb 7C1B0000 		.4byte	.LASF183
 4703 0bcf 0D       		.byte	0xd
 4704 0bd0 5C       		.byte	0x5c
 4705 0bd1 D50B0000 		.4byte	0xbd5
 4706 0bd5 06       		.uleb128 0x6
 4707 0bd6 04       		.byte	0x4
 4708 0bd7 DB0B0000 		.4byte	0xbdb
 4709 0bdb 1F       		.uleb128 0x1f
 4710 0bdc E60B0000 		.4byte	0xbe6
 4711 0be0 16       		.uleb128 0x16
 4712 0be1 62010000 		.4byte	0x162
 4713 0be5 00       		.byte	0
 4714 0be6 03       		.uleb128 0x3
 4715 0be7 CF0C0000 		.4byte	.LASF184
 4716 0beb 0D       		.byte	0xd
 4717 0bec 61       		.byte	0x61
 4718 0bed F10B0000 		.4byte	0xbf1
 4719 0bf1 1B       		.uleb128 0x1b
 4720 0bf2 F01E0000 		.4byte	.LASF185
 4721 0bf6 14       		.byte	0x14
 4722 0bf7 0E       		.byte	0xe
 4723 0bf8 6B01     		.2byte	0x16b
 4724 0bfa 400C0000 		.4byte	0xc40
 4725 0bfe 18       		.uleb128 0x18
 4726 0bff F10C0000 		.4byte	.LASF186
 4727 0c03 0E       		.byte	0xe
 4728 0c04 6C01     		.2byte	0x16c
 4729 0c06 9D180000 		.4byte	0x189d
 4730 0c0a 00       		.byte	0
 4731 0c0b 18       		.uleb128 0x18
 4732 0c0c 210A0000 		.4byte	.LASF187
 4733 0c10 0E       		.byte	0xe
 4734 0c11 6D01     		.2byte	0x16d
 4735 0c13 9D180000 		.4byte	0x189d
 4736 0c17 04       		.byte	0x4
 4737 0c18 18       		.uleb128 0x18
 4738 0c19 04140000 		.4byte	.LASF188
 4739 0c1d 0E       		.byte	0xe
 4740 0c1e 6E01     		.2byte	0x16e
 4741 0c20 C5090000 		.4byte	0x9c5
 4742 0c24 08       		.byte	0x8
 4743 0c25 18       		.uleb128 0x18
 4744 0c26 DB1E0000 		.4byte	.LASF189
 4745 0c2a 0E       		.byte	0xe
 4746 0c2b 6F01     		.2byte	0x16f
 4747 0c2d CA0B0000 		.4byte	0xbca
 4748 0c31 0C       		.byte	0xc
 4749 0c32 18       		.uleb128 0x18
 4750 0c33 050B0000 		.4byte	.LASF190
 4751 0c37 0E       		.byte	0xe
 4752 0c38 7101     		.2byte	0x171
 4753 0c3a 62010000 		.4byte	0x162
 4754 0c3e 10       		.byte	0x10
ARM GAS  C:\Users\PCHAUT~1\AppData\Local\Temp\ccjQKXWT.s 			page 85


 4755 0c3f 00       		.byte	0
 4756 0c40 03       		.uleb128 0x3
 4757 0c41 20200000 		.4byte	.LASF191
 4758 0c45 0D       		.byte	0xd
 4759 0c46 66       		.byte	0x66
 4760 0c47 4B0C0000 		.4byte	0xc4b
 4761 0c4b 1B       		.uleb128 0x1b
 4762 0c4c 97030000 		.4byte	.LASF192
 4763 0c50 10       		.byte	0x10
 4764 0c51 0E       		.byte	0xe
 4765 0c52 7B01     		.2byte	0x17b
 4766 0c54 8D0C0000 		.4byte	0xc8d
 4767 0c58 18       		.uleb128 0x18
 4768 0c59 F10C0000 		.4byte	.LASF186
 4769 0c5d 0E       		.byte	0xe
 4770 0c5e 7C01     		.2byte	0x17c
 4771 0c60 9D180000 		.4byte	0x189d
 4772 0c64 00       		.byte	0
 4773 0c65 18       		.uleb128 0x18
 4774 0c66 210A0000 		.4byte	.LASF187
 4775 0c6a 0E       		.byte	0xe
 4776 0c6b 7E01     		.2byte	0x17e
 4777 0c6d 9D180000 		.4byte	0x189d
 4778 0c71 04       		.byte	0x4
 4779 0c72 18       		.uleb128 0x18
 4780 0c73 04140000 		.4byte	.LASF188
 4781 0c77 0E       		.byte	0xe
 4782 0c78 8001     		.2byte	0x180
 4783 0c7a C5090000 		.4byte	0x9c5
 4784 0c7e 08       		.byte	0x8
 4785 0c7f 18       		.uleb128 0x18
 4786 0c80 9B010000 		.4byte	.LASF193
 4787 0c84 0E       		.byte	0xe
 4788 0c85 8201     		.2byte	0x182
 4789 0c87 D0090000 		.4byte	0x9d0
 4790 0c8b 0C       		.byte	0xc
 4791 0c8c 00       		.byte	0
 4792 0c8d 03       		.uleb128 0x3
 4793 0c8e DD0A0000 		.4byte	.LASF194
 4794 0c92 0D       		.byte	0xd
 4795 0c93 6B       		.byte	0x6b
 4796 0c94 980C0000 		.4byte	0xc98
 4797 0c98 17       		.uleb128 0x17
 4798 0c99 A11C0000 		.4byte	.LASF195
 4799 0c9d 1404     		.2byte	0x414
 4800 0c9f 0E       		.byte	0xe
 4801 0ca0 A201     		.2byte	0x1a2
 4802 0ca2 DB0C0000 		.4byte	0xcdb
 4803 0ca6 18       		.uleb128 0x18
 4804 0ca7 23130000 		.4byte	.LASF196
 4805 0cab 0E       		.byte	0xe
 4806 0cac AA01     		.2byte	0x1aa
 4807 0cae E8050000 		.4byte	0x5e8
 4808 0cb2 00       		.byte	0
 4809 0cb3 18       		.uleb128 0x18
 4810 0cb4 E9120000 		.4byte	.LASF197
 4811 0cb8 0E       		.byte	0xe
ARM GAS  C:\Users\PCHAUT~1\AppData\Local\Temp\ccjQKXWT.s 			page 86


 4812 0cb9 AF01     		.2byte	0x1af
 4813 0cbb AF090000 		.4byte	0x9af
 4814 0cbf 04       		.byte	0x4
 4815 0cc0 18       		.uleb128 0x18
 4816 0cc1 8F020000 		.4byte	.LASF198
 4817 0cc5 0E       		.byte	0xe
 4818 0cc6 B301     		.2byte	0x1b3
 4819 0cc8 AF090000 		.4byte	0x9af
 4820 0ccc 08       		.byte	0x8
 4821 0ccd 18       		.uleb128 0x18
 4822 0cce 0D160000 		.4byte	.LASF199
 4823 0cd2 0E       		.byte	0xe
 4824 0cd3 B901     		.2byte	0x1b9
 4825 0cd5 09170000 		.4byte	0x1709
 4826 0cd9 0C       		.byte	0xc
 4827 0cda 00       		.byte	0
 4828 0cdb 03       		.uleb128 0x3
 4829 0cdc 0C010000 		.4byte	.LASF200
 4830 0ce0 0D       		.byte	0xd
 4831 0ce1 70       		.byte	0x70
 4832 0ce2 E60C0000 		.4byte	0xce6
 4833 0ce6 17       		.uleb128 0x17
 4834 0ce7 FD150000 		.4byte	.LASF201
 4835 0ceb 7006     		.2byte	0x670
 4836 0ced 0E       		.byte	0xe
 4837 0cee C201     		.2byte	0x1c2
 4838 0cf0 530D0000 		.4byte	0xd53
 4839 0cf4 18       		.uleb128 0x18
 4840 0cf5 25050000 		.4byte	.LASF202
 4841 0cf9 0E       		.byte	0xe
 4842 0cfa C601     		.2byte	0x1c6
 4843 0cfc 630B0000 		.4byte	0xb63
 4844 0d00 00       		.byte	0
 4845 0d01 18       		.uleb128 0x18
 4846 0d02 D6040000 		.4byte	.LASF203
 4847 0d06 0E       		.byte	0xe
 4848 0d07 CA01     		.2byte	0x1ca
 4849 0d09 400C0000 		.4byte	0xc40
 4850 0d0d 1C       		.byte	0x1c
 4851 0d0e 21       		.uleb128 0x21
 4852 0d0f 64626700 		.ascii	"dbg\000"
 4853 0d13 0E       		.byte	0xe
 4854 0d14 CE01     		.2byte	0x1ce
 4855 0d16 8D0C0000 		.4byte	0xc8d
 4856 0d1a 2C       		.byte	0x2c
 4857 0d1b 19       		.uleb128 0x19
 4858 0d1c EF160000 		.4byte	.LASF204
 4859 0d20 0E       		.byte	0xe
 4860 0d21 D201     		.2byte	0x1d2
 4861 0d23 D5090000 		.4byte	0x9d5
 4862 0d27 4004     		.2byte	0x440
 4863 0d29 22       		.uleb128 0x22
 4864 0d2a 746D00   		.ascii	"tm\000"
 4865 0d2d 0E       		.byte	0xe
 4866 0d2e D701     		.2byte	0x1d7
 4867 0d30 29170000 		.4byte	0x1729
 4868 0d34 A804     		.2byte	0x4a8
ARM GAS  C:\Users\PCHAUT~1\AppData\Local\Temp\ccjQKXWT.s 			page 87


 4869 0d36 19       		.uleb128 0x19
 4870 0d37 591A0000 		.4byte	.LASF205
 4871 0d3b 0E       		.byte	0xe
 4872 0d3c DD01     		.2byte	0x1dd
 4873 0d3e BB170000 		.4byte	0x17bb
 4874 0d42 B004     		.2byte	0x4b0
 4875 0d44 19       		.uleb128 0x19
 4876 0d45 B81E0000 		.4byte	.LASF206
 4877 0d49 0E       		.byte	0xe
 4878 0d4a E301     		.2byte	0x1e3
 4879 0d4c A3180000 		.4byte	0x18a3
 4880 0d50 E804     		.2byte	0x4e8
 4881 0d52 00       		.byte	0
 4882 0d53 0B       		.uleb128 0xb
 4883 0d54 21090000 		.4byte	0x921
 4884 0d58 630D0000 		.4byte	0xd63
 4885 0d5c 0C       		.uleb128 0xc
 4886 0d5d 3C000000 		.4byte	0x3c
 4887 0d61 00       		.byte	0
 4888 0d62 00       		.byte	0
 4889 0d63 0B       		.uleb128 0xb
 4890 0d64 21090000 		.4byte	0x921
 4891 0d68 730D0000 		.4byte	0xd73
 4892 0d6c 0C       		.uleb128 0xc
 4893 0d6d 3C000000 		.4byte	0x3c
 4894 0d71 01       		.byte	0x1
 4895 0d72 00       		.byte	0
 4896 0d73 0B       		.uleb128 0xb
 4897 0d74 21090000 		.4byte	0x921
 4898 0d78 830D0000 		.4byte	0xd83
 4899 0d7c 0C       		.uleb128 0xc
 4900 0d7d 3C000000 		.4byte	0x3c
 4901 0d81 07       		.byte	0x7
 4902 0d82 00       		.byte	0
 4903 0d83 20       		.uleb128 0x20
 4904 0d84 2F1E0000 		.4byte	.LASF207
 4905 0d88 0F       		.byte	0xf
 4906 0d89 A706     		.2byte	0x6a7
 4907 0d8b 1C090000 		.4byte	0x91c
 4908 0d8f 23       		.uleb128 0x23
 4909 0d90 79150000 		.4byte	.LASF208
 4910 0d94 10       		.byte	0x10
 4911 0d95 4C       		.byte	0x4c
 4912 0d96 21090000 		.4byte	0x921
 4913 0d9a 0D       		.uleb128 0xd
 4914 0d9b 50       		.byte	0x50
 4915 0d9c 11       		.byte	0x11
 4916 0d9d C4       		.byte	0xc4
 4917 0d9e 910E0000 		.4byte	0xe91
 4918 0da2 11       		.uleb128 0x11
 4919 0da3 535200   		.ascii	"SR\000"
 4920 0da6 11       		.byte	0x11
 4921 0da7 C6       		.byte	0xc6
 4922 0da8 2C090000 		.4byte	0x92c
 4923 0dac 00       		.byte	0
 4924 0dad 11       		.uleb128 0x11
 4925 0dae 43523100 		.ascii	"CR1\000"
ARM GAS  C:\Users\PCHAUT~1\AppData\Local\Temp\ccjQKXWT.s 			page 88


 4926 0db2 11       		.byte	0x11
 4927 0db3 C7       		.byte	0xc7
 4928 0db4 2C090000 		.4byte	0x92c
 4929 0db8 04       		.byte	0x4
 4930 0db9 11       		.uleb128 0x11
 4931 0dba 43523200 		.ascii	"CR2\000"
 4932 0dbe 11       		.byte	0x11
 4933 0dbf C8       		.byte	0xc8
 4934 0dc0 2C090000 		.4byte	0x92c
 4935 0dc4 08       		.byte	0x8
 4936 0dc5 0E       		.uleb128 0xe
 4937 0dc6 E3020000 		.4byte	.LASF209
 4938 0dca 11       		.byte	0x11
 4939 0dcb C9       		.byte	0xc9
 4940 0dcc 2C090000 		.4byte	0x92c
 4941 0dd0 0C       		.byte	0xc
 4942 0dd1 0E       		.uleb128 0xe
 4943 0dd2 E9020000 		.4byte	.LASF210
 4944 0dd6 11       		.byte	0x11
 4945 0dd7 CA       		.byte	0xca
 4946 0dd8 2C090000 		.4byte	0x92c
 4947 0ddc 10       		.byte	0x10
 4948 0ddd 0E       		.uleb128 0xe
 4949 0dde 0C0B0000 		.4byte	.LASF211
 4950 0de2 11       		.byte	0x11
 4951 0de3 CB       		.byte	0xcb
 4952 0de4 2C090000 		.4byte	0x92c
 4953 0de8 14       		.byte	0x14
 4954 0de9 0E       		.uleb128 0xe
 4955 0dea 120B0000 		.4byte	.LASF212
 4956 0dee 11       		.byte	0x11
 4957 0def CC       		.byte	0xcc
 4958 0df0 2C090000 		.4byte	0x92c
 4959 0df4 18       		.byte	0x18
 4960 0df5 0E       		.uleb128 0xe
 4961 0df6 56100000 		.4byte	.LASF213
 4962 0dfa 11       		.byte	0x11
 4963 0dfb CD       		.byte	0xcd
 4964 0dfc 2C090000 		.4byte	0x92c
 4965 0e00 1C       		.byte	0x1c
 4966 0e01 0E       		.uleb128 0xe
 4967 0e02 180B0000 		.4byte	.LASF214
 4968 0e06 11       		.byte	0x11
 4969 0e07 CE       		.byte	0xce
 4970 0e08 2C090000 		.4byte	0x92c
 4971 0e0c 20       		.byte	0x20
 4972 0e0d 11       		.uleb128 0x11
 4973 0e0e 48545200 		.ascii	"HTR\000"
 4974 0e12 11       		.byte	0x11
 4975 0e13 CF       		.byte	0xcf
 4976 0e14 2C090000 		.4byte	0x92c
 4977 0e18 24       		.byte	0x24
 4978 0e19 11       		.uleb128 0x11
 4979 0e1a 4C545200 		.ascii	"LTR\000"
 4980 0e1e 11       		.byte	0x11
 4981 0e1f D0       		.byte	0xd0
 4982 0e20 2C090000 		.4byte	0x92c
ARM GAS  C:\Users\PCHAUT~1\AppData\Local\Temp\ccjQKXWT.s 			page 89


 4983 0e24 28       		.byte	0x28
 4984 0e25 0E       		.uleb128 0xe
 4985 0e26 47120000 		.4byte	.LASF215
 4986 0e2a 11       		.byte	0x11
 4987 0e2b D1       		.byte	0xd1
 4988 0e2c 2C090000 		.4byte	0x92c
 4989 0e30 2C       		.byte	0x2c
 4990 0e31 0E       		.uleb128 0xe
 4991 0e32 4C120000 		.4byte	.LASF216
 4992 0e36 11       		.byte	0x11
 4993 0e37 D2       		.byte	0xd2
 4994 0e38 2C090000 		.4byte	0x92c
 4995 0e3c 30       		.byte	0x30
 4996 0e3d 0E       		.uleb128 0xe
 4997 0e3e 51120000 		.4byte	.LASF217
 4998 0e42 11       		.byte	0x11
 4999 0e43 D3       		.byte	0xd3
 5000 0e44 2C090000 		.4byte	0x92c
 5001 0e48 34       		.byte	0x34
 5002 0e49 0E       		.uleb128 0xe
 5003 0e4a 9C0C0000 		.4byte	.LASF218
 5004 0e4e 11       		.byte	0x11
 5005 0e4f D4       		.byte	0xd4
 5006 0e50 2C090000 		.4byte	0x92c
 5007 0e54 38       		.byte	0x38
 5008 0e55 0E       		.uleb128 0xe
 5009 0e56 E51F0000 		.4byte	.LASF219
 5010 0e5a 11       		.byte	0x11
 5011 0e5b D5       		.byte	0xd5
 5012 0e5c 2C090000 		.4byte	0x92c
 5013 0e60 3C       		.byte	0x3c
 5014 0e61 0E       		.uleb128 0xe
 5015 0e62 EA1F0000 		.4byte	.LASF220
 5016 0e66 11       		.byte	0x11
 5017 0e67 D6       		.byte	0xd6
 5018 0e68 2C090000 		.4byte	0x92c
 5019 0e6c 40       		.byte	0x40
 5020 0e6d 0E       		.uleb128 0xe
 5021 0e6e EF1F0000 		.4byte	.LASF221
 5022 0e72 11       		.byte	0x11
 5023 0e73 D7       		.byte	0xd7
 5024 0e74 2C090000 		.4byte	0x92c
 5025 0e78 44       		.byte	0x44
 5026 0e79 0E       		.uleb128 0xe
 5027 0e7a F41F0000 		.4byte	.LASF222
 5028 0e7e 11       		.byte	0x11
 5029 0e7f D8       		.byte	0xd8
 5030 0e80 2C090000 		.4byte	0x92c
 5031 0e84 48       		.byte	0x48
 5032 0e85 11       		.uleb128 0x11
 5033 0e86 445200   		.ascii	"DR\000"
 5034 0e89 11       		.byte	0x11
 5035 0e8a D9       		.byte	0xd9
 5036 0e8b 2C090000 		.4byte	0x92c
 5037 0e8f 4C       		.byte	0x4c
 5038 0e90 00       		.byte	0
 5039 0e91 03       		.uleb128 0x3
ARM GAS  C:\Users\PCHAUT~1\AppData\Local\Temp\ccjQKXWT.s 			page 90


 5040 0e92 64140000 		.4byte	.LASF223
 5041 0e96 11       		.byte	0x11
 5042 0e97 DA       		.byte	0xda
 5043 0e98 9A0D0000 		.4byte	0xd9a
 5044 0e9c 0D       		.uleb128 0xd
 5045 0e9d 10       		.byte	0x10
 5046 0e9e 11       		.byte	0x11
 5047 0e9f E9       		.byte	0xe9
 5048 0ea0 D50E0000 		.4byte	0xed5
 5049 0ea4 11       		.uleb128 0x11
 5050 0ea5 54495200 		.ascii	"TIR\000"
 5051 0ea9 11       		.byte	0x11
 5052 0eaa EB       		.byte	0xeb
 5053 0eab 2C090000 		.4byte	0x92c
 5054 0eaf 00       		.byte	0
 5055 0eb0 0E       		.uleb128 0xe
 5056 0eb1 1D100000 		.4byte	.LASF224
 5057 0eb5 11       		.byte	0x11
 5058 0eb6 EC       		.byte	0xec
 5059 0eb7 2C090000 		.4byte	0x92c
 5060 0ebb 04       		.byte	0x4
 5061 0ebc 0E       		.uleb128 0xe
 5062 0ebd E1160000 		.4byte	.LASF225
 5063 0ec1 11       		.byte	0x11
 5064 0ec2 ED       		.byte	0xed
 5065 0ec3 2C090000 		.4byte	0x92c
 5066 0ec7 08       		.byte	0x8
 5067 0ec8 0E       		.uleb128 0xe
 5068 0ec9 C6140000 		.4byte	.LASF226
 5069 0ecd 11       		.byte	0x11
 5070 0ece EE       		.byte	0xee
 5071 0ecf 2C090000 		.4byte	0x92c
 5072 0ed3 0C       		.byte	0xc
 5073 0ed4 00       		.byte	0
 5074 0ed5 03       		.uleb128 0x3
 5075 0ed6 0F050000 		.4byte	.LASF227
 5076 0eda 11       		.byte	0x11
 5077 0edb EF       		.byte	0xef
 5078 0edc 9C0E0000 		.4byte	0xe9c
 5079 0ee0 0D       		.uleb128 0xd
 5080 0ee1 10       		.byte	0x10
 5081 0ee2 11       		.byte	0x11
 5082 0ee3 F5       		.byte	0xf5
 5083 0ee4 190F0000 		.4byte	0xf19
 5084 0ee8 11       		.uleb128 0x11
 5085 0ee9 52495200 		.ascii	"RIR\000"
 5086 0eed 11       		.byte	0x11
 5087 0eee F7       		.byte	0xf7
 5088 0eef 2C090000 		.4byte	0x92c
 5089 0ef3 00       		.byte	0
 5090 0ef4 0E       		.uleb128 0xe
 5091 0ef5 481C0000 		.4byte	.LASF228
 5092 0ef9 11       		.byte	0x11
 5093 0efa F8       		.byte	0xf8
 5094 0efb 2C090000 		.4byte	0x92c
 5095 0eff 04       		.byte	0x4
 5096 0f00 0E       		.uleb128 0xe
ARM GAS  C:\Users\PCHAUT~1\AppData\Local\Temp\ccjQKXWT.s 			page 91


 5097 0f01 08180000 		.4byte	.LASF229
 5098 0f05 11       		.byte	0x11
 5099 0f06 F9       		.byte	0xf9
 5100 0f07 2C090000 		.4byte	0x92c
 5101 0f0b 08       		.byte	0x8
 5102 0f0c 0E       		.uleb128 0xe
 5103 0f0d EA150000 		.4byte	.LASF230
 5104 0f11 11       		.byte	0x11
 5105 0f12 FA       		.byte	0xfa
 5106 0f13 2C090000 		.4byte	0x92c
 5107 0f17 0C       		.byte	0xc
 5108 0f18 00       		.byte	0
 5109 0f19 03       		.uleb128 0x3
 5110 0f1a 851B0000 		.4byte	.LASF231
 5111 0f1e 11       		.byte	0x11
 5112 0f1f FB       		.byte	0xfb
 5113 0f20 E00E0000 		.4byte	0xee0
 5114 0f24 1C       		.uleb128 0x1c
 5115 0f25 08       		.byte	0x8
 5116 0f26 11       		.byte	0x11
 5117 0f27 0101     		.2byte	0x101
 5118 0f29 480F0000 		.4byte	0xf48
 5119 0f2d 21       		.uleb128 0x21
 5120 0f2e 46523100 		.ascii	"FR1\000"
 5121 0f32 11       		.byte	0x11
 5122 0f33 0301     		.2byte	0x103
 5123 0f35 2C090000 		.4byte	0x92c
 5124 0f39 00       		.byte	0
 5125 0f3a 21       		.uleb128 0x21
 5126 0f3b 46523200 		.ascii	"FR2\000"
 5127 0f3f 11       		.byte	0x11
 5128 0f40 0401     		.2byte	0x104
 5129 0f42 2C090000 		.4byte	0x92c
 5130 0f46 04       		.byte	0x4
 5131 0f47 00       		.byte	0
 5132 0f48 08       		.uleb128 0x8
 5133 0f49 22100000 		.4byte	.LASF232
 5134 0f4d 11       		.byte	0x11
 5135 0f4e 0501     		.2byte	0x105
 5136 0f50 240F0000 		.4byte	0xf24
 5137 0f54 24       		.uleb128 0x24
 5138 0f55 2003     		.2byte	0x320
 5139 0f57 11       		.byte	0x11
 5140 0f58 0B01     		.2byte	0x10b
 5141 0f5a 8A100000 		.4byte	0x108a
 5142 0f5e 21       		.uleb128 0x21
 5143 0f5f 4D435200 		.ascii	"MCR\000"
 5144 0f63 11       		.byte	0x11
 5145 0f64 0D01     		.2byte	0x10d
 5146 0f66 2C090000 		.4byte	0x92c
 5147 0f6a 00       		.byte	0
 5148 0f6b 21       		.uleb128 0x21
 5149 0f6c 4D535200 		.ascii	"MSR\000"
 5150 0f70 11       		.byte	0x11
 5151 0f71 0E01     		.2byte	0x10e
 5152 0f73 2C090000 		.4byte	0x92c
 5153 0f77 04       		.byte	0x4
ARM GAS  C:\Users\PCHAUT~1\AppData\Local\Temp\ccjQKXWT.s 			page 92


 5154 0f78 21       		.uleb128 0x21
 5155 0f79 54535200 		.ascii	"TSR\000"
 5156 0f7d 11       		.byte	0x11
 5157 0f7e 0F01     		.2byte	0x10f
 5158 0f80 2C090000 		.4byte	0x92c
 5159 0f84 08       		.byte	0x8
 5160 0f85 18       		.uleb128 0x18
 5161 0f86 980E0000 		.4byte	.LASF233
 5162 0f8a 11       		.byte	0x11
 5163 0f8b 1001     		.2byte	0x110
 5164 0f8d 2C090000 		.4byte	0x92c
 5165 0f91 0C       		.byte	0xc
 5166 0f92 18       		.uleb128 0x18
 5167 0f93 44180000 		.4byte	.LASF234
 5168 0f97 11       		.byte	0x11
 5169 0f98 1101     		.2byte	0x111
 5170 0f9a 2C090000 		.4byte	0x92c
 5171 0f9e 10       		.byte	0x10
 5172 0f9f 21       		.uleb128 0x21
 5173 0fa0 49455200 		.ascii	"IER\000"
 5174 0fa4 11       		.byte	0x11
 5175 0fa5 1201     		.2byte	0x112
 5176 0fa7 2C090000 		.4byte	0x92c
 5177 0fab 14       		.byte	0x14
 5178 0fac 21       		.uleb128 0x21
 5179 0fad 45535200 		.ascii	"ESR\000"
 5180 0fb1 11       		.byte	0x11
 5181 0fb2 1301     		.2byte	0x113
 5182 0fb4 2C090000 		.4byte	0x92c
 5183 0fb8 18       		.byte	0x18
 5184 0fb9 21       		.uleb128 0x21
 5185 0fba 42545200 		.ascii	"BTR\000"
 5186 0fbe 11       		.byte	0x11
 5187 0fbf 1401     		.2byte	0x114
 5188 0fc1 2C090000 		.4byte	0x92c
 5189 0fc5 1C       		.byte	0x1c
 5190 0fc6 18       		.uleb128 0x18
 5191 0fc7 551D0000 		.4byte	.LASF235
 5192 0fcb 11       		.byte	0x11
 5193 0fcc 1501     		.2byte	0x115
 5194 0fce 8A100000 		.4byte	0x108a
 5195 0fd2 20       		.byte	0x20
 5196 0fd3 19       		.uleb128 0x19
 5197 0fd4 23110000 		.4byte	.LASF236
 5198 0fd8 11       		.byte	0x11
 5199 0fd9 1601     		.2byte	0x116
 5200 0fdb 9A100000 		.4byte	0x109a
 5201 0fdf 8001     		.2byte	0x180
 5202 0fe1 19       		.uleb128 0x19
 5203 0fe2 76210000 		.4byte	.LASF237
 5204 0fe6 11       		.byte	0x11
 5205 0fe7 1701     		.2byte	0x117
 5206 0fe9 AA100000 		.4byte	0x10aa
 5207 0fed B001     		.2byte	0x1b0
 5208 0fef 19       		.uleb128 0x19
 5209 0ff0 5F1D0000 		.4byte	.LASF238
 5210 0ff4 11       		.byte	0x11
ARM GAS  C:\Users\PCHAUT~1\AppData\Local\Temp\ccjQKXWT.s 			page 93


 5211 0ff5 1801     		.2byte	0x118
 5212 0ff7 BA100000 		.4byte	0x10ba
 5213 0ffb D001     		.2byte	0x1d0
 5214 0ffd 22       		.uleb128 0x22
 5215 0ffe 464D5200 		.ascii	"FMR\000"
 5216 1002 11       		.byte	0x11
 5217 1003 1901     		.2byte	0x119
 5218 1005 2C090000 		.4byte	0x92c
 5219 1009 0002     		.2byte	0x200
 5220 100b 19       		.uleb128 0x19
 5221 100c 750B0000 		.4byte	.LASF239
 5222 1010 11       		.byte	0x11
 5223 1011 1A01     		.2byte	0x11a
 5224 1013 2C090000 		.4byte	0x92c
 5225 1017 0402     		.2byte	0x204
 5226 1019 19       		.uleb128 0x19
 5227 101a 691D0000 		.4byte	.LASF240
 5228 101e 11       		.byte	0x11
 5229 101f 1B01     		.2byte	0x11b
 5230 1021 21090000 		.4byte	0x921
 5231 1025 0802     		.2byte	0x208
 5232 1027 19       		.uleb128 0x19
 5233 1028 3D1F0000 		.4byte	.LASF241
 5234 102c 11       		.byte	0x11
 5235 102d 1C01     		.2byte	0x11c
 5236 102f 2C090000 		.4byte	0x92c
 5237 1033 0C02     		.2byte	0x20c
 5238 1035 19       		.uleb128 0x19
 5239 1036 731D0000 		.4byte	.LASF242
 5240 103a 11       		.byte	0x11
 5241 103b 1D01     		.2byte	0x11d
 5242 103d 21090000 		.4byte	0x921
 5243 1041 1002     		.2byte	0x210
 5244 1043 19       		.uleb128 0x19
 5245 1044 3E180000 		.4byte	.LASF243
 5246 1048 11       		.byte	0x11
 5247 1049 1E01     		.2byte	0x11e
 5248 104b 2C090000 		.4byte	0x92c
 5249 104f 1402     		.2byte	0x214
 5250 1051 19       		.uleb128 0x19
 5251 1052 7D1D0000 		.4byte	.LASF244
 5252 1056 11       		.byte	0x11
 5253 1057 1F01     		.2byte	0x11f
 5254 1059 21090000 		.4byte	0x921
 5255 105d 1802     		.2byte	0x218
 5256 105f 19       		.uleb128 0x19
 5257 1060 0E040000 		.4byte	.LASF245
 5258 1064 11       		.byte	0x11
 5259 1065 2001     		.2byte	0x120
 5260 1067 2C090000 		.4byte	0x92c
 5261 106b 1C02     		.2byte	0x21c
 5262 106d 19       		.uleb128 0x19
 5263 106e 871D0000 		.4byte	.LASF246
 5264 1072 11       		.byte	0x11
 5265 1073 2101     		.2byte	0x121
 5266 1075 730D0000 		.4byte	0xd73
 5267 1079 2002     		.2byte	0x220
ARM GAS  C:\Users\PCHAUT~1\AppData\Local\Temp\ccjQKXWT.s 			page 94


 5268 107b 19       		.uleb128 0x19
 5269 107c D4050000 		.4byte	.LASF247
 5270 1080 11       		.byte	0x11
 5271 1081 2201     		.2byte	0x122
 5272 1083 CA100000 		.4byte	0x10ca
 5273 1087 4002     		.2byte	0x240
 5274 1089 00       		.byte	0
 5275 108a 0B       		.uleb128 0xb
 5276 108b 21090000 		.4byte	0x921
 5277 108f 9A100000 		.4byte	0x109a
 5278 1093 0C       		.uleb128 0xc
 5279 1094 3C000000 		.4byte	0x3c
 5280 1098 57       		.byte	0x57
 5281 1099 00       		.byte	0
 5282 109a 0B       		.uleb128 0xb
 5283 109b D50E0000 		.4byte	0xed5
 5284 109f AA100000 		.4byte	0x10aa
 5285 10a3 0C       		.uleb128 0xc
 5286 10a4 3C000000 		.4byte	0x3c
 5287 10a8 02       		.byte	0x2
 5288 10a9 00       		.byte	0
 5289 10aa 0B       		.uleb128 0xb
 5290 10ab 190F0000 		.4byte	0xf19
 5291 10af BA100000 		.4byte	0x10ba
 5292 10b3 0C       		.uleb128 0xc
 5293 10b4 3C000000 		.4byte	0x3c
 5294 10b8 01       		.byte	0x1
 5295 10b9 00       		.byte	0
 5296 10ba 0B       		.uleb128 0xb
 5297 10bb 21090000 		.4byte	0x921
 5298 10bf CA100000 		.4byte	0x10ca
 5299 10c3 0C       		.uleb128 0xc
 5300 10c4 3C000000 		.4byte	0x3c
 5301 10c8 0B       		.byte	0xb
 5302 10c9 00       		.byte	0
 5303 10ca 0B       		.uleb128 0xb
 5304 10cb 480F0000 		.4byte	0xf48
 5305 10cf DA100000 		.4byte	0x10da
 5306 10d3 0C       		.uleb128 0xc
 5307 10d4 3C000000 		.4byte	0x3c
 5308 10d8 1B       		.byte	0x1b
 5309 10d9 00       		.byte	0
 5310 10da 08       		.uleb128 0x8
 5311 10db 630D0000 		.4byte	.LASF248
 5312 10df 11       		.byte	0x11
 5313 10e0 2301     		.2byte	0x123
 5314 10e2 540F0000 		.4byte	0xf54
 5315 10e6 1C       		.uleb128 0x1c
 5316 10e7 38       		.byte	0x38
 5317 10e8 11       		.byte	0x11
 5318 10e9 3601     		.2byte	0x136
 5319 10eb A4110000 		.4byte	0x11a4
 5320 10ef 21       		.uleb128 0x21
 5321 10f0 435200   		.ascii	"CR\000"
 5322 10f3 11       		.byte	0x11
 5323 10f4 3801     		.2byte	0x138
 5324 10f6 2C090000 		.4byte	0x92c
ARM GAS  C:\Users\PCHAUT~1\AppData\Local\Temp\ccjQKXWT.s 			page 95


 5325 10fa 00       		.byte	0
 5326 10fb 18       		.uleb128 0x18
 5327 10fc C4150000 		.4byte	.LASF249
 5328 1100 11       		.byte	0x11
 5329 1101 3901     		.2byte	0x139
 5330 1103 2C090000 		.4byte	0x92c
 5331 1107 04       		.byte	0x4
 5332 1108 18       		.uleb128 0x18
 5333 1109 A31D0000 		.4byte	.LASF250
 5334 110d 11       		.byte	0x11
 5335 110e 3A01     		.2byte	0x13a
 5336 1110 2C090000 		.4byte	0x92c
 5337 1114 08       		.byte	0x8
 5338 1115 18       		.uleb128 0x18
 5339 1116 121A0000 		.4byte	.LASF251
 5340 111a 11       		.byte	0x11
 5341 111b 3B01     		.2byte	0x13b
 5342 111d 2C090000 		.4byte	0x92c
 5343 1121 0C       		.byte	0xc
 5344 1122 18       		.uleb128 0x18
 5345 1123 EC0A0000 		.4byte	.LASF252
 5346 1127 11       		.byte	0x11
 5347 1128 3C01     		.2byte	0x13c
 5348 112a 2C090000 		.4byte	0x92c
 5349 112e 10       		.byte	0x10
 5350 112f 18       		.uleb128 0x18
 5351 1130 AB1D0000 		.4byte	.LASF253
 5352 1134 11       		.byte	0x11
 5353 1135 3D01     		.2byte	0x13d
 5354 1137 2C090000 		.4byte	0x92c
 5355 113b 14       		.byte	0x14
 5356 113c 18       		.uleb128 0x18
 5357 113d 1A1A0000 		.4byte	.LASF254
 5358 1141 11       		.byte	0x11
 5359 1142 3E01     		.2byte	0x13e
 5360 1144 2C090000 		.4byte	0x92c
 5361 1148 18       		.byte	0x18
 5362 1149 18       		.uleb128 0x18
 5363 114a F30A0000 		.4byte	.LASF255
 5364 114e 11       		.byte	0x11
 5365 114f 3F01     		.2byte	0x13f
 5366 1151 2C090000 		.4byte	0x92c
 5367 1155 1C       		.byte	0x1c
 5368 1156 18       		.uleb128 0x18
 5369 1157 F21D0000 		.4byte	.LASF256
 5370 115b 11       		.byte	0x11
 5371 115c 4001     		.2byte	0x140
 5372 115e 2C090000 		.4byte	0x92c
 5373 1162 20       		.byte	0x20
 5374 1163 18       		.uleb128 0x18
 5375 1164 451A0000 		.4byte	.LASF257
 5376 1168 11       		.byte	0x11
 5377 1169 4101     		.2byte	0x141
 5378 116b 2C090000 		.4byte	0x92c
 5379 116f 24       		.byte	0x24
 5380 1170 18       		.uleb128 0x18
 5381 1171 8D210000 		.4byte	.LASF258
ARM GAS  C:\Users\PCHAUT~1\AppData\Local\Temp\ccjQKXWT.s 			page 96


 5382 1175 11       		.byte	0x11
 5383 1176 4201     		.2byte	0x142
 5384 1178 2C090000 		.4byte	0x92c
 5385 117c 28       		.byte	0x28
 5386 117d 18       		.uleb128 0x18
 5387 117e B8010000 		.4byte	.LASF259
 5388 1182 11       		.byte	0x11
 5389 1183 4301     		.2byte	0x143
 5390 1185 2C090000 		.4byte	0x92c
 5391 1189 2C       		.byte	0x2c
 5392 118a 18       		.uleb128 0x18
 5393 118b BD010000 		.4byte	.LASF260
 5394 118f 11       		.byte	0x11
 5395 1190 4401     		.2byte	0x144
 5396 1192 2C090000 		.4byte	0x92c
 5397 1196 30       		.byte	0x30
 5398 1197 21       		.uleb128 0x21
 5399 1198 535200   		.ascii	"SR\000"
 5400 119b 11       		.byte	0x11
 5401 119c 4501     		.2byte	0x145
 5402 119e 2C090000 		.4byte	0x92c
 5403 11a2 34       		.byte	0x34
 5404 11a3 00       		.byte	0
 5405 11a4 08       		.uleb128 0x8
 5406 11a5 9D1B0000 		.4byte	.LASF261
 5407 11a9 11       		.byte	0x11
 5408 11aa 4601     		.2byte	0x146
 5409 11ac E6100000 		.4byte	0x10e6
 5410 11b0 1C       		.uleb128 0x1c
 5411 11b1 18       		.byte	0x18
 5412 11b2 11       		.byte	0x11
 5413 11b3 6B01     		.2byte	0x16b
 5414 11b5 07120000 		.4byte	0x1207
 5415 11b9 21       		.uleb128 0x21
 5416 11ba 435200   		.ascii	"CR\000"
 5417 11bd 11       		.byte	0x11
 5418 11be 6D01     		.2byte	0x16d
 5419 11c0 2C090000 		.4byte	0x92c
 5420 11c4 00       		.byte	0
 5421 11c5 18       		.uleb128 0x18
 5422 11c6 941E0000 		.4byte	.LASF262
 5423 11ca 11       		.byte	0x11
 5424 11cb 6E01     		.2byte	0x16e
 5425 11cd 2C090000 		.4byte	0x92c
 5426 11d1 04       		.byte	0x4
 5427 11d2 21       		.uleb128 0x21
 5428 11d3 50415200 		.ascii	"PAR\000"
 5429 11d7 11       		.byte	0x11
 5430 11d8 6F01     		.2byte	0x16f
 5431 11da 2C090000 		.4byte	0x92c
 5432 11de 08       		.byte	0x8
 5433 11df 18       		.uleb128 0x18
 5434 11e0 F0030000 		.4byte	.LASF263
 5435 11e4 11       		.byte	0x11
 5436 11e5 7001     		.2byte	0x170
 5437 11e7 2C090000 		.4byte	0x92c
 5438 11eb 0C       		.byte	0xc
ARM GAS  C:\Users\PCHAUT~1\AppData\Local\Temp\ccjQKXWT.s 			page 97


 5439 11ec 18       		.uleb128 0x18
 5440 11ed D9070000 		.4byte	.LASF264
 5441 11f1 11       		.byte	0x11
 5442 11f2 7101     		.2byte	0x171
 5443 11f4 2C090000 		.4byte	0x92c
 5444 11f8 10       		.byte	0x10
 5445 11f9 21       		.uleb128 0x21
 5446 11fa 46435200 		.ascii	"FCR\000"
 5447 11fe 11       		.byte	0x11
 5448 11ff 7201     		.2byte	0x172
 5449 1201 2C090000 		.4byte	0x92c
 5450 1205 14       		.byte	0x14
 5451 1206 00       		.byte	0
 5452 1207 08       		.uleb128 0x8
 5453 1208 E3070000 		.4byte	.LASF265
 5454 120c 11       		.byte	0x11
 5455 120d 7301     		.2byte	0x173
 5456 120f B0110000 		.4byte	0x11b0
 5457 1213 0B       		.uleb128 0xb
 5458 1214 2C090000 		.4byte	0x92c
 5459 1218 23120000 		.4byte	0x1223
 5460 121c 0C       		.uleb128 0xc
 5461 121d 3C000000 		.4byte	0x3c
 5462 1221 01       		.byte	0x1
 5463 1222 00       		.byte	0
 5464 1223 1A       		.uleb128 0x1a
 5465 1224 13120000 		.4byte	0x1213
 5466 1228 0B       		.uleb128 0xb
 5467 1229 2C090000 		.4byte	0x92c
 5468 122d 38120000 		.4byte	0x1238
 5469 1231 0C       		.uleb128 0xc
 5470 1232 3C000000 		.4byte	0x3c
 5471 1236 03       		.byte	0x3
 5472 1237 00       		.byte	0
 5473 1238 1A       		.uleb128 0x1a
 5474 1239 28120000 		.4byte	0x1228
 5475 123d 1C       		.uleb128 0x1c
 5476 123e 28       		.byte	0x28
 5477 123f 11       		.byte	0x11
 5478 1240 3F02     		.2byte	0x23f
 5479 1242 C8120000 		.4byte	0x12c8
 5480 1246 21       		.uleb128 0x21
 5481 1247 43523100 		.ascii	"CR1\000"
 5482 124b 11       		.byte	0x11
 5483 124c 4102     		.2byte	0x241
 5484 124e 2C090000 		.4byte	0x92c
 5485 1252 00       		.byte	0
 5486 1253 21       		.uleb128 0x21
 5487 1254 43523200 		.ascii	"CR2\000"
 5488 1258 11       		.byte	0x11
 5489 1259 4202     		.2byte	0x242
 5490 125b 2C090000 		.4byte	0x92c
 5491 125f 04       		.byte	0x4
 5492 1260 18       		.uleb128 0x18
 5493 1261 40240000 		.4byte	.LASF266
 5494 1265 11       		.byte	0x11
 5495 1266 4302     		.2byte	0x243
ARM GAS  C:\Users\PCHAUT~1\AppData\Local\Temp\ccjQKXWT.s 			page 98


 5496 1268 2C090000 		.4byte	0x92c
 5497 126c 08       		.byte	0x8
 5498 126d 18       		.uleb128 0x18
 5499 126e 45240000 		.4byte	.LASF267
 5500 1272 11       		.byte	0x11
 5501 1273 4402     		.2byte	0x244
 5502 1275 2C090000 		.4byte	0x92c
 5503 1279 0C       		.byte	0xc
 5504 127a 21       		.uleb128 0x21
 5505 127b 445200   		.ascii	"DR\000"
 5506 127e 11       		.byte	0x11
 5507 127f 4502     		.2byte	0x245
 5508 1281 2C090000 		.4byte	0x92c
 5509 1285 10       		.byte	0x10
 5510 1286 21       		.uleb128 0x21
 5511 1287 53523100 		.ascii	"SR1\000"
 5512 128b 11       		.byte	0x11
 5513 128c 4602     		.2byte	0x246
 5514 128e 2C090000 		.4byte	0x92c
 5515 1292 14       		.byte	0x14
 5516 1293 21       		.uleb128 0x21
 5517 1294 53523200 		.ascii	"SR2\000"
 5518 1298 11       		.byte	0x11
 5519 1299 4702     		.2byte	0x247
 5520 129b 2C090000 		.4byte	0x92c
 5521 129f 18       		.byte	0x18
 5522 12a0 21       		.uleb128 0x21
 5523 12a1 43435200 		.ascii	"CCR\000"
 5524 12a5 11       		.byte	0x11
 5525 12a6 4802     		.2byte	0x248
 5526 12a8 2C090000 		.4byte	0x92c
 5527 12ac 1C       		.byte	0x1c
 5528 12ad 18       		.uleb128 0x18
 5529 12ae DD040000 		.4byte	.LASF268
 5530 12b2 11       		.byte	0x11
 5531 12b3 4902     		.2byte	0x249
 5532 12b5 2C090000 		.4byte	0x92c
 5533 12b9 20       		.byte	0x20
 5534 12ba 18       		.uleb128 0x18
 5535 12bb E3220000 		.4byte	.LASF269
 5536 12bf 11       		.byte	0x11
 5537 12c0 4A02     		.2byte	0x24a
 5538 12c2 2C090000 		.4byte	0x92c
 5539 12c6 24       		.byte	0x24
 5540 12c7 00       		.byte	0
 5541 12c8 08       		.uleb128 0x8
 5542 12c9 BE110000 		.4byte	.LASF270
 5543 12cd 11       		.byte	0x11
 5544 12ce 4B02     		.2byte	0x24b
 5545 12d0 3D120000 		.4byte	0x123d
 5546 12d4 1C       		.uleb128 0x1c
 5547 12d5 84       		.byte	0x84
 5548 12d6 11       		.byte	0x11
 5549 12d7 BF02     		.2byte	0x2bf
 5550 12d9 E2130000 		.4byte	0x13e2
 5551 12dd 18       		.uleb128 0x18
 5552 12de 07160000 		.4byte	.LASF271
ARM GAS  C:\Users\PCHAUT~1\AppData\Local\Temp\ccjQKXWT.s 			page 99


 5553 12e2 11       		.byte	0x11
 5554 12e3 C102     		.2byte	0x2c1
 5555 12e5 2C090000 		.4byte	0x92c
 5556 12e9 00       		.byte	0
 5557 12ea 18       		.uleb128 0x18
 5558 12eb B61F0000 		.4byte	.LASF272
 5559 12ef 11       		.byte	0x11
 5560 12f0 C202     		.2byte	0x2c2
 5561 12f2 2C090000 		.4byte	0x92c
 5562 12f6 04       		.byte	0x4
 5563 12f7 21       		.uleb128 0x21
 5564 12f8 41524700 		.ascii	"ARG\000"
 5565 12fc 11       		.byte	0x11
 5566 12fd C302     		.2byte	0x2c3
 5567 12ff 2C090000 		.4byte	0x92c
 5568 1303 08       		.byte	0x8
 5569 1304 21       		.uleb128 0x21
 5570 1305 434D4400 		.ascii	"CMD\000"
 5571 1309 11       		.byte	0x11
 5572 130a C402     		.2byte	0x2c4
 5573 130c 2C090000 		.4byte	0x92c
 5574 1310 0C       		.byte	0xc
 5575 1311 18       		.uleb128 0x18
 5576 1312 CE180000 		.4byte	.LASF273
 5577 1316 11       		.byte	0x11
 5578 1317 C502     		.2byte	0x2c5
 5579 1319 31090000 		.4byte	0x931
 5580 131d 10       		.byte	0x10
 5581 131e 18       		.uleb128 0x18
 5582 131f F8050000 		.4byte	.LASF274
 5583 1323 11       		.byte	0x11
 5584 1324 C602     		.2byte	0x2c6
 5585 1326 31090000 		.4byte	0x931
 5586 132a 14       		.byte	0x14
 5587 132b 18       		.uleb128 0x18
 5588 132c FE050000 		.4byte	.LASF275
 5589 1330 11       		.byte	0x11
 5590 1331 C702     		.2byte	0x2c7
 5591 1333 31090000 		.4byte	0x931
 5592 1337 18       		.byte	0x18
 5593 1338 18       		.uleb128 0x18
 5594 1339 04060000 		.4byte	.LASF276
 5595 133d 11       		.byte	0x11
 5596 133e C802     		.2byte	0x2c8
 5597 1340 31090000 		.4byte	0x931
 5598 1344 1C       		.byte	0x1c
 5599 1345 18       		.uleb128 0x18
 5600 1346 0A060000 		.4byte	.LASF277
 5601 134a 11       		.byte	0x11
 5602 134b C902     		.2byte	0x2c9
 5603 134d 31090000 		.4byte	0x931
 5604 1351 20       		.byte	0x20
 5605 1352 18       		.uleb128 0x18
 5606 1353 3A130000 		.4byte	.LASF278
 5607 1357 11       		.byte	0x11
 5608 1358 CA02     		.2byte	0x2ca
 5609 135a 2C090000 		.4byte	0x92c
ARM GAS  C:\Users\PCHAUT~1\AppData\Local\Temp\ccjQKXWT.s 			page 100


 5610 135e 24       		.byte	0x24
 5611 135f 18       		.uleb128 0x18
 5612 1360 F0140000 		.4byte	.LASF279
 5613 1364 11       		.byte	0x11
 5614 1365 CB02     		.2byte	0x2cb
 5615 1367 2C090000 		.4byte	0x92c
 5616 136b 28       		.byte	0x28
 5617 136c 18       		.uleb128 0x18
 5618 136d CF220000 		.4byte	.LASF280
 5619 1371 11       		.byte	0x11
 5620 1372 CC02     		.2byte	0x2cc
 5621 1374 2C090000 		.4byte	0x92c
 5622 1378 2C       		.byte	0x2c
 5623 1379 18       		.uleb128 0x18
 5624 137a 39240000 		.4byte	.LASF281
 5625 137e 11       		.byte	0x11
 5626 137f CD02     		.2byte	0x2cd
 5627 1381 31090000 		.4byte	0x931
 5628 1385 30       		.byte	0x30
 5629 1386 21       		.uleb128 0x21
 5630 1387 53544100 		.ascii	"STA\000"
 5631 138b 11       		.byte	0x11
 5632 138c CE02     		.2byte	0x2ce
 5633 138e 31090000 		.4byte	0x931
 5634 1392 34       		.byte	0x34
 5635 1393 21       		.uleb128 0x21
 5636 1394 49435200 		.ascii	"ICR\000"
 5637 1398 11       		.byte	0x11
 5638 1399 CF02     		.2byte	0x2cf
 5639 139b 2C090000 		.4byte	0x92c
 5640 139f 38       		.byte	0x38
 5641 13a0 18       		.uleb128 0x18
 5642 13a1 F6010000 		.4byte	.LASF282
 5643 13a5 11       		.byte	0x11
 5644 13a6 D002     		.2byte	0x2d0
 5645 13a8 2C090000 		.4byte	0x92c
 5646 13ac 3C       		.byte	0x3c
 5647 13ad 18       		.uleb128 0x18
 5648 13ae 551D0000 		.4byte	.LASF235
 5649 13b2 11       		.byte	0x11
 5650 13b3 D102     		.2byte	0x2d1
 5651 13b5 630D0000 		.4byte	0xd63
 5652 13b9 40       		.byte	0x40
 5653 13ba 18       		.uleb128 0x18
 5654 13bb E4130000 		.4byte	.LASF283
 5655 13bf 11       		.byte	0x11
 5656 13c0 D202     		.2byte	0x2d2
 5657 13c2 31090000 		.4byte	0x931
 5658 13c6 48       		.byte	0x48
 5659 13c7 18       		.uleb128 0x18
 5660 13c8 5F1D0000 		.4byte	.LASF238
 5661 13cc 11       		.byte	0x11
 5662 13cd D302     		.2byte	0x2d3
 5663 13cf E2130000 		.4byte	0x13e2
 5664 13d3 4C       		.byte	0x4c
 5665 13d4 18       		.uleb128 0x18
 5666 13d5 4F0A0000 		.4byte	.LASF284
ARM GAS  C:\Users\PCHAUT~1\AppData\Local\Temp\ccjQKXWT.s 			page 101


 5667 13d9 11       		.byte	0x11
 5668 13da D402     		.2byte	0x2d4
 5669 13dc 2C090000 		.4byte	0x92c
 5670 13e0 80       		.byte	0x80
 5671 13e1 00       		.byte	0
 5672 13e2 0B       		.uleb128 0xb
 5673 13e3 21090000 		.4byte	0x921
 5674 13e7 F2130000 		.4byte	0x13f2
 5675 13eb 0C       		.uleb128 0xc
 5676 13ec 3C000000 		.4byte	0x3c
 5677 13f0 0C       		.byte	0xc
 5678 13f1 00       		.byte	0
 5679 13f2 08       		.uleb128 0x8
 5680 13f3 631E0000 		.4byte	.LASF285
 5681 13f7 11       		.byte	0x11
 5682 13f8 D502     		.2byte	0x2d5
 5683 13fa D4120000 		.4byte	0x12d4
 5684 13fe 1C       		.uleb128 0x1c
 5685 13ff 24       		.byte	0x24
 5686 1400 11       		.byte	0x11
 5687 1401 DB02     		.2byte	0x2db
 5688 1403 7B140000 		.4byte	0x147b
 5689 1407 21       		.uleb128 0x21
 5690 1408 43523100 		.ascii	"CR1\000"
 5691 140c 11       		.byte	0x11
 5692 140d DD02     		.2byte	0x2dd
 5693 140f 2C090000 		.4byte	0x92c
 5694 1413 00       		.byte	0
 5695 1414 21       		.uleb128 0x21
 5696 1415 43523200 		.ascii	"CR2\000"
 5697 1419 11       		.byte	0x11
 5698 141a DE02     		.2byte	0x2de
 5699 141c 2C090000 		.4byte	0x92c
 5700 1420 04       		.byte	0x4
 5701 1421 21       		.uleb128 0x21
 5702 1422 535200   		.ascii	"SR\000"
 5703 1425 11       		.byte	0x11
 5704 1426 DF02     		.2byte	0x2df
 5705 1428 2C090000 		.4byte	0x92c
 5706 142c 08       		.byte	0x8
 5707 142d 21       		.uleb128 0x21
 5708 142e 445200   		.ascii	"DR\000"
 5709 1431 11       		.byte	0x11
 5710 1432 E002     		.2byte	0x2e0
 5711 1434 2C090000 		.4byte	0x92c
 5712 1438 0C       		.byte	0xc
 5713 1439 18       		.uleb128 0x18
 5714 143a 5D070000 		.4byte	.LASF286
 5715 143e 11       		.byte	0x11
 5716 143f E102     		.2byte	0x2e1
 5717 1441 2C090000 		.4byte	0x92c
 5718 1445 10       		.byte	0x10
 5719 1446 18       		.uleb128 0x18
 5720 1447 010C0000 		.4byte	.LASF287
 5721 144b 11       		.byte	0x11
 5722 144c E202     		.2byte	0x2e2
 5723 144e 2C090000 		.4byte	0x92c
ARM GAS  C:\Users\PCHAUT~1\AppData\Local\Temp\ccjQKXWT.s 			page 102


 5724 1452 14       		.byte	0x14
 5725 1453 18       		.uleb128 0x18
 5726 1454 250B0000 		.4byte	.LASF288
 5727 1458 11       		.byte	0x11
 5728 1459 E302     		.2byte	0x2e3
 5729 145b 2C090000 		.4byte	0x92c
 5730 145f 18       		.byte	0x18
 5731 1460 18       		.uleb128 0x18
 5732 1461 88200000 		.4byte	.LASF289
 5733 1465 11       		.byte	0x11
 5734 1466 E402     		.2byte	0x2e4
 5735 1468 2C090000 		.4byte	0x92c
 5736 146c 1C       		.byte	0x1c
 5737 146d 18       		.uleb128 0x18
 5738 146e 20070000 		.4byte	.LASF290
 5739 1472 11       		.byte	0x11
 5740 1473 E502     		.2byte	0x2e5
 5741 1475 2C090000 		.4byte	0x92c
 5742 1479 20       		.byte	0x20
 5743 147a 00       		.byte	0
 5744 147b 08       		.uleb128 0x8
 5745 147c CF1E0000 		.4byte	.LASF291
 5746 1480 11       		.byte	0x11
 5747 1481 E602     		.2byte	0x2e6
 5748 1483 FE130000 		.4byte	0x13fe
 5749 1487 1C       		.uleb128 0x1c
 5750 1488 1C       		.byte	0x1c
 5751 1489 11       		.byte	0x11
 5752 148a 0903     		.2byte	0x309
 5753 148c EA140000 		.4byte	0x14ea
 5754 1490 21       		.uleb128 0x21
 5755 1491 535200   		.ascii	"SR\000"
 5756 1494 11       		.byte	0x11
 5757 1495 0B03     		.2byte	0x30b
 5758 1497 2C090000 		.4byte	0x92c
 5759 149b 00       		.byte	0
 5760 149c 21       		.uleb128 0x21
 5761 149d 445200   		.ascii	"DR\000"
 5762 14a0 11       		.byte	0x11
 5763 14a1 0C03     		.2byte	0x30c
 5764 14a3 2C090000 		.4byte	0x92c
 5765 14a7 04       		.byte	0x4
 5766 14a8 21       		.uleb128 0x21
 5767 14a9 42525200 		.ascii	"BRR\000"
 5768 14ad 11       		.byte	0x11
 5769 14ae 0D03     		.2byte	0x30d
 5770 14b0 2C090000 		.4byte	0x92c
 5771 14b4 08       		.byte	0x8
 5772 14b5 21       		.uleb128 0x21
 5773 14b6 43523100 		.ascii	"CR1\000"
 5774 14ba 11       		.byte	0x11
 5775 14bb 0E03     		.2byte	0x30e
 5776 14bd 2C090000 		.4byte	0x92c
 5777 14c1 0C       		.byte	0xc
 5778 14c2 21       		.uleb128 0x21
 5779 14c3 43523200 		.ascii	"CR2\000"
 5780 14c7 11       		.byte	0x11
ARM GAS  C:\Users\PCHAUT~1\AppData\Local\Temp\ccjQKXWT.s 			page 103


 5781 14c8 0F03     		.2byte	0x30f
 5782 14ca 2C090000 		.4byte	0x92c
 5783 14ce 10       		.byte	0x10
 5784 14cf 21       		.uleb128 0x21
 5785 14d0 43523300 		.ascii	"CR3\000"
 5786 14d4 11       		.byte	0x11
 5787 14d5 1003     		.2byte	0x310
 5788 14d7 2C090000 		.4byte	0x92c
 5789 14db 14       		.byte	0x14
 5790 14dc 18       		.uleb128 0x18
 5791 14dd BB0E0000 		.4byte	.LASF292
 5792 14e1 11       		.byte	0x11
 5793 14e2 1103     		.2byte	0x311
 5794 14e4 2C090000 		.4byte	0x92c
 5795 14e8 18       		.byte	0x18
 5796 14e9 00       		.byte	0
 5797 14ea 08       		.uleb128 0x8
 5798 14eb 96230000 		.4byte	.LASF293
 5799 14ef 11       		.byte	0x11
 5800 14f0 1203     		.2byte	0x312
 5801 14f2 87140000 		.4byte	0x1487
 5802 14f6 0B       		.uleb128 0xb
 5803 14f7 2C090000 		.4byte	0x92c
 5804 14fb 06150000 		.4byte	0x1506
 5805 14ff 0C       		.uleb128 0xc
 5806 1500 3C000000 		.4byte	0x3c
 5807 1504 0E       		.byte	0xe
 5808 1505 00       		.byte	0
 5809 1506 1A       		.uleb128 0x1a
 5810 1507 F6140000 		.4byte	0x14f6
 5811 150b 03       		.uleb128 0x3
 5812 150c 23180000 		.4byte	.LASF294
 5813 1510 12       		.byte	0x12
 5814 1511 65       		.byte	0x65
 5815 1512 62010000 		.4byte	0x162
 5816 1516 03       		.uleb128 0x3
 5817 1517 ED090000 		.4byte	.LASF295
 5818 151b 12       		.byte	0x12
 5819 151c 6D       		.byte	0x6d
 5820 151d 36090000 		.4byte	0x936
 5821 1521 10       		.uleb128 0x10
 5822 1522 2C120000 		.4byte	.LASF296
 5823 1526 04       		.byte	0x4
 5824 1527 12       		.byte	0x12
 5825 1528 89       		.byte	0x89
 5826 1529 3A150000 		.4byte	0x153a
 5827 152d 11       		.uleb128 0x11
 5828 152e 72313300 		.ascii	"r13\000"
 5829 1532 12       		.byte	0x12
 5830 1533 8A       		.byte	0x8a
 5831 1534 7B160000 		.4byte	0x167b
 5832 1538 00       		.byte	0
 5833 1539 00       		.byte	0
 5834 153a 10       		.uleb128 0x10
 5835 153b 1B000000 		.4byte	.LASF297
 5836 153f 64       		.byte	0x64
 5837 1540 01       		.byte	0x1
ARM GAS  C:\Users\PCHAUT~1\AppData\Local\Temp\ccjQKXWT.s 			page 104


 5838 1541 F4       		.byte	0xf4
 5839 1542 7B160000 		.4byte	0x167b
 5840 1546 11       		.uleb128 0x11
 5841 1547 73313600 		.ascii	"s16\000"
 5842 154b 01       		.byte	0x1
 5843 154c F6       		.byte	0xf6
 5844 154d 0B150000 		.4byte	0x150b
 5845 1551 00       		.byte	0
 5846 1552 11       		.uleb128 0x11
 5847 1553 73313700 		.ascii	"s17\000"
 5848 1557 01       		.byte	0x1
 5849 1558 F7       		.byte	0xf7
 5850 1559 0B150000 		.4byte	0x150b
 5851 155d 04       		.byte	0x4
 5852 155e 11       		.uleb128 0x11
 5853 155f 73313800 		.ascii	"s18\000"
 5854 1563 01       		.byte	0x1
 5855 1564 F8       		.byte	0xf8
 5856 1565 0B150000 		.4byte	0x150b
 5857 1569 08       		.byte	0x8
 5858 156a 11       		.uleb128 0x11
 5859 156b 73313900 		.ascii	"s19\000"
 5860 156f 01       		.byte	0x1
 5861 1570 F9       		.byte	0xf9
 5862 1571 0B150000 		.4byte	0x150b
 5863 1575 0C       		.byte	0xc
 5864 1576 11       		.uleb128 0x11
 5865 1577 73323000 		.ascii	"s20\000"
 5866 157b 01       		.byte	0x1
 5867 157c FA       		.byte	0xfa
 5868 157d 0B150000 		.4byte	0x150b
 5869 1581 10       		.byte	0x10
 5870 1582 11       		.uleb128 0x11
 5871 1583 73323100 		.ascii	"s21\000"
 5872 1587 01       		.byte	0x1
 5873 1588 FB       		.byte	0xfb
 5874 1589 0B150000 		.4byte	0x150b
 5875 158d 14       		.byte	0x14
 5876 158e 11       		.uleb128 0x11
 5877 158f 73323200 		.ascii	"s22\000"
 5878 1593 01       		.byte	0x1
 5879 1594 FC       		.byte	0xfc
 5880 1595 0B150000 		.4byte	0x150b
 5881 1599 18       		.byte	0x18
 5882 159a 11       		.uleb128 0x11
 5883 159b 73323300 		.ascii	"s23\000"
 5884 159f 01       		.byte	0x1
 5885 15a0 FD       		.byte	0xfd
 5886 15a1 0B150000 		.4byte	0x150b
 5887 15a5 1C       		.byte	0x1c
 5888 15a6 11       		.uleb128 0x11
 5889 15a7 73323400 		.ascii	"s24\000"
 5890 15ab 01       		.byte	0x1
 5891 15ac FE       		.byte	0xfe
 5892 15ad 0B150000 		.4byte	0x150b
 5893 15b1 20       		.byte	0x20
 5894 15b2 11       		.uleb128 0x11
ARM GAS  C:\Users\PCHAUT~1\AppData\Local\Temp\ccjQKXWT.s 			page 105


 5895 15b3 73323500 		.ascii	"s25\000"
 5896 15b7 01       		.byte	0x1
 5897 15b8 FF       		.byte	0xff
 5898 15b9 0B150000 		.4byte	0x150b
 5899 15bd 24       		.byte	0x24
 5900 15be 21       		.uleb128 0x21
 5901 15bf 73323600 		.ascii	"s26\000"
 5902 15c3 01       		.byte	0x1
 5903 15c4 0001     		.2byte	0x100
 5904 15c6 0B150000 		.4byte	0x150b
 5905 15ca 28       		.byte	0x28
 5906 15cb 21       		.uleb128 0x21
 5907 15cc 73323700 		.ascii	"s27\000"
 5908 15d0 01       		.byte	0x1
 5909 15d1 0101     		.2byte	0x101
 5910 15d3 0B150000 		.4byte	0x150b
 5911 15d7 2C       		.byte	0x2c
 5912 15d8 21       		.uleb128 0x21
 5913 15d9 73323800 		.ascii	"s28\000"
 5914 15dd 01       		.byte	0x1
 5915 15de 0201     		.2byte	0x102
 5916 15e0 0B150000 		.4byte	0x150b
 5917 15e4 30       		.byte	0x30
 5918 15e5 21       		.uleb128 0x21
 5919 15e6 73323900 		.ascii	"s29\000"
 5920 15ea 01       		.byte	0x1
 5921 15eb 0301     		.2byte	0x103
 5922 15ed 0B150000 		.4byte	0x150b
 5923 15f1 34       		.byte	0x34
 5924 15f2 21       		.uleb128 0x21
 5925 15f3 73333000 		.ascii	"s30\000"
 5926 15f7 01       		.byte	0x1
 5927 15f8 0401     		.2byte	0x104
 5928 15fa 0B150000 		.4byte	0x150b
 5929 15fe 38       		.byte	0x38
 5930 15ff 21       		.uleb128 0x21
 5931 1600 73333100 		.ascii	"s31\000"
 5932 1604 01       		.byte	0x1
 5933 1605 0501     		.2byte	0x105
 5934 1607 0B150000 		.4byte	0x150b
 5935 160b 3C       		.byte	0x3c
 5936 160c 21       		.uleb128 0x21
 5937 160d 723400   		.ascii	"r4\000"
 5938 1610 01       		.byte	0x1
 5939 1611 0701     		.2byte	0x107
 5940 1613 0B150000 		.4byte	0x150b
 5941 1617 40       		.byte	0x40
 5942 1618 21       		.uleb128 0x21
 5943 1619 723500   		.ascii	"r5\000"
 5944 161c 01       		.byte	0x1
 5945 161d 0801     		.2byte	0x108
 5946 161f 0B150000 		.4byte	0x150b
 5947 1623 44       		.byte	0x44
 5948 1624 21       		.uleb128 0x21
 5949 1625 723600   		.ascii	"r6\000"
 5950 1628 01       		.byte	0x1
 5951 1629 0901     		.2byte	0x109
ARM GAS  C:\Users\PCHAUT~1\AppData\Local\Temp\ccjQKXWT.s 			page 106


 5952 162b 0B150000 		.4byte	0x150b
 5953 162f 48       		.byte	0x48
 5954 1630 21       		.uleb128 0x21
 5955 1631 723700   		.ascii	"r7\000"
 5956 1634 01       		.byte	0x1
 5957 1635 0A01     		.2byte	0x10a
 5958 1637 0B150000 		.4byte	0x150b
 5959 163b 4C       		.byte	0x4c
 5960 163c 21       		.uleb128 0x21
 5961 163d 723800   		.ascii	"r8\000"
 5962 1640 01       		.byte	0x1
 5963 1641 0B01     		.2byte	0x10b
 5964 1643 0B150000 		.4byte	0x150b
 5965 1647 50       		.byte	0x50
 5966 1648 21       		.uleb128 0x21
 5967 1649 723900   		.ascii	"r9\000"
 5968 164c 01       		.byte	0x1
 5969 164d 0C01     		.2byte	0x10c
 5970 164f 0B150000 		.4byte	0x150b
 5971 1653 54       		.byte	0x54
 5972 1654 21       		.uleb128 0x21
 5973 1655 72313000 		.ascii	"r10\000"
 5974 1659 01       		.byte	0x1
 5975 165a 0D01     		.2byte	0x10d
 5976 165c 0B150000 		.4byte	0x150b
 5977 1660 58       		.byte	0x58
 5978 1661 21       		.uleb128 0x21
 5979 1662 72313100 		.ascii	"r11\000"
 5980 1666 01       		.byte	0x1
 5981 1667 0E01     		.2byte	0x10e
 5982 1669 0B150000 		.4byte	0x150b
 5983 166d 5C       		.byte	0x5c
 5984 166e 21       		.uleb128 0x21
 5985 166f 6C7200   		.ascii	"lr\000"
 5986 1672 01       		.byte	0x1
 5987 1673 0F01     		.2byte	0x10f
 5988 1675 0B150000 		.4byte	0x150b
 5989 1679 60       		.byte	0x60
 5990 167a 00       		.byte	0
 5991 167b 06       		.uleb128 0x6
 5992 167c 04       		.byte	0x4
 5993 167d 3A150000 		.4byte	0x153a
 5994 1681 0D       		.uleb128 0xd
 5995 1682 10       		.byte	0x10
 5996 1683 13       		.byte	0x13
 5997 1684 51       		.byte	0x51
 5998 1685 BA160000 		.4byte	0x16ba
 5999 1689 0E       		.uleb128 0xe
 6000 168a C91D0000 		.4byte	.LASF298
 6001 168e 13       		.byte	0x13
 6002 168f 55       		.byte	0x55
 6003 1690 C5090000 		.4byte	0x9c5
 6004 1694 00       		.byte	0
 6005 1695 0E       		.uleb128 0xe
 6006 1696 92180000 		.4byte	.LASF299
 6007 169a 13       		.byte	0x13
 6008 169b 59       		.byte	0x59
ARM GAS  C:\Users\PCHAUT~1\AppData\Local\Temp\ccjQKXWT.s 			page 107


 6009 169c 090B0000 		.4byte	0xb09
 6010 16a0 04       		.byte	0x4
 6011 16a1 0E       		.uleb128 0xe
 6012 16a2 920C0000 		.4byte	.LASF300
 6013 16a6 13       		.byte	0x13
 6014 16a7 5D       		.byte	0x5d
 6015 16a8 62010000 		.4byte	0x162
 6016 16ac 08       		.byte	0x8
 6017 16ad 0E       		.uleb128 0xe
 6018 16ae C80A0000 		.4byte	.LASF301
 6019 16b2 13       		.byte	0x13
 6020 16b3 61       		.byte	0x61
 6021 16b4 EB080000 		.4byte	0x8eb
 6022 16b8 0C       		.byte	0xc
 6023 16b9 00       		.byte	0
 6024 16ba 03       		.uleb128 0x3
 6025 16bb 760D0000 		.4byte	.LASF302
 6026 16bf 13       		.byte	0x13
 6027 16c0 62       		.byte	0x62
 6028 16c1 81160000 		.4byte	0x1681
 6029 16c5 25       		.uleb128 0x25
 6030 16c6 0804     		.2byte	0x408
 6031 16c8 13       		.byte	0x13
 6032 16c9 67       		.byte	0x67
 6033 16ca F3160000 		.4byte	0x16f3
 6034 16ce 0E       		.uleb128 0xe
 6035 16cf 3F0E0000 		.4byte	.LASF303
 6036 16d3 13       		.byte	0x13
 6037 16d4 6B       		.byte	0x6b
 6038 16d5 3C000000 		.4byte	0x3c
 6039 16d9 00       		.byte	0
 6040 16da 0E       		.uleb128 0xe
 6041 16db 13140000 		.4byte	.LASF304
 6042 16df 13       		.byte	0x13
 6043 16e0 6F       		.byte	0x6f
 6044 16e1 F3160000 		.4byte	0x16f3
 6045 16e5 04       		.byte	0x4
 6046 16e6 0E       		.uleb128 0xe
 6047 16e7 540A0000 		.4byte	.LASF305
 6048 16eb 13       		.byte	0x13
 6049 16ec 73       		.byte	0x73
 6050 16ed F9160000 		.4byte	0x16f9
 6051 16f1 08       		.byte	0x8
 6052 16f2 00       		.byte	0
 6053 16f3 06       		.uleb128 0x6
 6054 16f4 04       		.byte	0x4
 6055 16f5 BA160000 		.4byte	0x16ba
 6056 16f9 0B       		.uleb128 0xb
 6057 16fa BA160000 		.4byte	0x16ba
 6058 16fe 09170000 		.4byte	0x1709
 6059 1702 0C       		.uleb128 0xc
 6060 1703 3C000000 		.4byte	0x3c
 6061 1707 3F       		.byte	0x3f
 6062 1708 00       		.byte	0
 6063 1709 03       		.uleb128 0x3
 6064 170a 27000000 		.4byte	.LASF306
 6065 170e 13       		.byte	0x13
ARM GAS  C:\Users\PCHAUT~1\AppData\Local\Temp\ccjQKXWT.s 			page 108


 6066 170f 74       		.byte	0x74
 6067 1710 C5160000 		.4byte	0x16c5
 6068 1714 0D       		.uleb128 0xd
 6069 1715 04       		.byte	0x4
 6070 1716 14       		.byte	0x14
 6071 1717 38       		.byte	0x38
 6072 1718 29170000 		.4byte	0x1729
 6073 171c 0E       		.uleb128 0xe
 6074 171d 701E0000 		.4byte	.LASF307
 6075 1721 14       		.byte	0x14
 6076 1722 3C       		.byte	0x3c
 6077 1723 41090000 		.4byte	0x941
 6078 1727 00       		.byte	0
 6079 1728 00       		.byte	0
 6080 1729 03       		.uleb128 0x3
 6081 172a 3A050000 		.4byte	.LASF308
 6082 172e 14       		.byte	0x14
 6083 172f 3D       		.byte	0x3d
 6084 1730 14170000 		.4byte	0x1714
 6085 1734 0D       		.uleb128 0xd
 6086 1735 18       		.byte	0x18
 6087 1736 14       		.byte	0x14
 6088 1737 48       		.byte	0x48
 6089 1738 77170000 		.4byte	0x1777
 6090 173c 0E       		.uleb128 0xe
 6091 173d 31070000 		.4byte	.LASF309
 6092 1741 14       		.byte	0x14
 6093 1742 49       		.byte	0x49
 6094 1743 41090000 		.4byte	0x941
 6095 1747 00       		.byte	0
 6096 1748 0E       		.uleb128 0xe
 6097 1749 95010000 		.4byte	.LASF310
 6098 174d 14       		.byte	0x14
 6099 174e 4A       		.byte	0x4a
 6100 174f 41090000 		.4byte	0x941
 6101 1753 04       		.byte	0x4
 6102 1754 0E       		.uleb128 0xe
 6103 1755 CC170000 		.4byte	.LASF311
 6104 1759 14       		.byte	0x14
 6105 175a 4B       		.byte	0x4b
 6106 175b 41090000 		.4byte	0x941
 6107 175f 08       		.byte	0x8
 6108 1760 11       		.uleb128 0x11
 6109 1761 6E00     		.ascii	"n\000"
 6110 1763 14       		.byte	0x14
 6111 1764 4C       		.byte	0x4c
 6112 1765 BA090000 		.4byte	0x9ba
 6113 1769 0C       		.byte	0xc
 6114 176a 0E       		.uleb128 0xe
 6115 176b 70170000 		.4byte	.LASF312
 6116 176f 14       		.byte	0x14
 6117 1770 4D       		.byte	0x4d
 6118 1771 4C090000 		.4byte	0x94c
 6119 1775 10       		.byte	0x10
 6120 1776 00       		.byte	0
 6121 1777 03       		.uleb128 0x3
 6122 1778 E6200000 		.4byte	.LASF313
ARM GAS  C:\Users\PCHAUT~1\AppData\Local\Temp\ccjQKXWT.s 			page 109


 6123 177c 14       		.byte	0x14
 6124 177d 4E       		.byte	0x4e
 6125 177e 34170000 		.4byte	0x1734
 6126 1782 0D       		.uleb128 0xd
 6127 1783 38       		.byte	0x38
 6128 1784 15       		.byte	0x15
 6129 1785 38       		.byte	0x38
 6130 1786 BB170000 		.4byte	0x17bb
 6131 178a 0E       		.uleb128 0xe
 6132 178b 90060000 		.4byte	.LASF314
 6133 178f 15       		.byte	0x15
 6134 1790 39       		.byte	0x39
 6135 1791 BA090000 		.4byte	0x9ba
 6136 1795 00       		.byte	0
 6137 1796 0E       		.uleb128 0xe
 6138 1797 5E0B0000 		.4byte	.LASF315
 6139 179b 15       		.byte	0x15
 6140 179c 3A       		.byte	0x3a
 6141 179d BA090000 		.4byte	0x9ba
 6142 17a1 04       		.byte	0x4
 6143 17a2 0E       		.uleb128 0xe
 6144 17a3 6B200000 		.4byte	.LASF316
 6145 17a7 15       		.byte	0x15
 6146 17a8 3B       		.byte	0x3b
 6147 17a9 77170000 		.4byte	0x1777
 6148 17ad 08       		.byte	0x8
 6149 17ae 0E       		.uleb128 0xe
 6150 17af 87000000 		.4byte	.LASF317
 6151 17b3 15       		.byte	0x15
 6152 17b4 3D       		.byte	0x3d
 6153 17b5 77170000 		.4byte	0x1777
 6154 17b9 20       		.byte	0x20
 6155 17ba 00       		.byte	0
 6156 17bb 03       		.uleb128 0x3
 6157 17bc F6040000 		.4byte	.LASF318
 6158 17c0 15       		.byte	0x15
 6159 17c1 3F       		.byte	0x3f
 6160 17c2 82170000 		.4byte	0x1782
 6161 17c6 09       		.uleb128 0x9
 6162 17c7 04       		.byte	0x4
 6163 17c8 0E       		.byte	0xe
 6164 17c9 FA       		.byte	0xfa
 6165 17ca 23180000 		.4byte	0x1823
 6166 17ce 1E       		.uleb128 0x1e
 6167 17cf 04100000 		.4byte	.LASF319
 6168 17d3 0E       		.byte	0xe
 6169 17d4 0101     		.2byte	0x101
 6170 17d6 8E090000 		.4byte	0x98e
 6171 17da 1E       		.uleb128 0x1e
 6172 17db D0070000 		.4byte	.LASF320
 6173 17df 0E       		.byte	0xe
 6174 17e0 0801     		.2byte	0x108
 6175 17e2 8E090000 		.4byte	0x98e
 6176 17e6 1E       		.uleb128 0x1e
 6177 17e7 A91B0000 		.4byte	.LASF321
 6178 17eb 0E       		.byte	0xe
 6179 17ec 0F01     		.2byte	0x10f
ARM GAS  C:\Users\PCHAUT~1\AppData\Local\Temp\ccjQKXWT.s 			page 110


 6180 17ee 62010000 		.4byte	0x162
 6181 17f2 1E       		.uleb128 0x1e
 6182 17f3 91170000 		.4byte	.LASF322
 6183 17f7 0E       		.byte	0xe
 6184 17f8 1601     		.2byte	0x116
 6185 17fa 23180000 		.4byte	0x1823
 6186 17fe 1E       		.uleb128 0x1e
 6187 17ff 22010000 		.4byte	.LASF323
 6188 1803 0E       		.byte	0xe
 6189 1804 1E01     		.2byte	0x11e
 6190 1806 4E180000 		.4byte	0x184e
 6191 180a 1E       		.uleb128 0x1e
 6192 180b F01B0000 		.4byte	.LASF324
 6193 180f 0E       		.byte	0xe
 6194 1810 2701     		.2byte	0x127
 6195 1812 91180000 		.4byte	0x1891
 6196 1816 1E       		.uleb128 0x1e
 6197 1817 101F0000 		.4byte	.LASF325
 6198 181b 0E       		.byte	0xe
 6199 181c 2F01     		.2byte	0x12f
 6200 181e 99090000 		.4byte	0x999
 6201 1822 00       		.byte	0
 6202 1823 06       		.uleb128 0x6
 6203 1824 04       		.byte	0x4
 6204 1825 FE0A0000 		.4byte	0xafe
 6205 1829 10       		.uleb128 0x10
 6206 182a 55160000 		.4byte	.LASF326
 6207 182e 0C       		.byte	0xc
 6208 182f 16       		.byte	0x16
 6209 1830 34       		.byte	0x34
 6210 1831 4E180000 		.4byte	0x184e
 6211 1835 0E       		.uleb128 0xe
 6212 1836 63200000 		.4byte	.LASF327
 6213 183a 16       		.byte	0x16
 6214 183b 35       		.byte	0x35
 6215 183c 330B0000 		.4byte	0xb33
 6216 1840 00       		.byte	0
 6217 1841 0E       		.uleb128 0xe
 6218 1842 660A0000 		.4byte	.LASF328
 6219 1846 16       		.byte	0x16
 6220 1847 37       		.byte	0x37
 6221 1848 AF090000 		.4byte	0x9af
 6222 184c 08       		.byte	0x8
 6223 184d 00       		.byte	0
 6224 184e 06       		.uleb128 0x6
 6225 184f 04       		.byte	0x4
 6226 1850 29180000 		.4byte	0x1829
 6227 1854 10       		.uleb128 0x10
 6228 1855 140C0000 		.4byte	.LASF329
 6229 1859 14       		.byte	0x14
 6230 185a 17       		.byte	0x17
 6231 185b 39       		.byte	0x39
 6232 185c 91180000 		.4byte	0x1891
 6233 1860 0E       		.uleb128 0xe
 6234 1861 C3120000 		.4byte	.LASF330
 6235 1865 17       		.byte	0x17
 6236 1866 3A       		.byte	0x3a
ARM GAS  C:\Users\PCHAUT~1\AppData\Local\Temp\ccjQKXWT.s 			page 111


 6237 1867 330B0000 		.4byte	0xb33
 6238 186b 00       		.byte	0
 6239 186c 0E       		.uleb128 0xe
 6240 186d 69150000 		.4byte	.LASF331
 6241 1871 17       		.byte	0x17
 6242 1872 3C       		.byte	0x3c
 6243 1873 090B0000 		.4byte	0xb09
 6244 1877 08       		.byte	0x8
 6245 1878 0E       		.uleb128 0xe
 6246 1879 DE010000 		.4byte	.LASF332
 6247 187d 17       		.byte	0x17
 6248 187e 3E       		.byte	0x3e
 6249 187f D5190000 		.4byte	0x19d5
 6250 1883 0C       		.byte	0xc
 6251 1884 0E       		.uleb128 0xe
 6252 1885 4D080000 		.4byte	.LASF333
 6253 1889 17       		.byte	0x17
 6254 188a 41       		.byte	0x41
 6255 188b AF090000 		.4byte	0x9af
 6256 188f 10       		.byte	0x10
 6257 1890 00       		.byte	0
 6258 1891 06       		.uleb128 0x6
 6259 1892 04       		.byte	0x4
 6260 1893 54180000 		.4byte	0x1854
 6261 1897 06       		.uleb128 0x6
 6262 1898 04       		.byte	0x4
 6263 1899 16150000 		.4byte	0x1516
 6264 189d 06       		.uleb128 0x6
 6265 189e 04       		.byte	0x4
 6266 189f E60B0000 		.4byte	0xbe6
 6267 18a3 0B       		.uleb128 0xb
 6268 18a4 16150000 		.4byte	0x1516
 6269 18a8 B3180000 		.4byte	0x18b3
 6270 18ac 0C       		.uleb128 0xc
 6271 18ad 3C000000 		.4byte	0x3c
 6272 18b1 30       		.byte	0x30
 6273 18b2 00       		.byte	0
 6274 18b3 26       		.uleb128 0x26
 6275 18b4 636800   		.ascii	"ch\000"
 6276 18b7 0E       		.byte	0xe
 6277 18b8 0902     		.2byte	0x209
 6278 18ba DB0C0000 		.4byte	0xcdb
 6279 18be 0D       		.uleb128 0xd
 6280 18bf 16       		.byte	0x16
 6281 18c0 18       		.byte	0x18
 6282 18c1 34       		.byte	0x34
 6283 18c2 9F190000 		.4byte	0x199f
 6284 18c6 0E       		.uleb128 0xe
 6285 18c7 90200000 		.4byte	.LASF334
 6286 18cb 18       		.byte	0x18
 6287 18cc 35       		.byte	0x35
 6288 18cd 9F190000 		.4byte	0x199f
 6289 18d1 00       		.byte	0
 6290 18d2 0E       		.uleb128 0xe
 6291 18d3 A0220000 		.4byte	.LASF335
 6292 18d7 18       		.byte	0x18
 6293 18d8 36       		.byte	0x36
ARM GAS  C:\Users\PCHAUT~1\AppData\Local\Temp\ccjQKXWT.s 			page 112


 6294 18d9 EB080000 		.4byte	0x8eb
 6295 18dd 04       		.byte	0x4
 6296 18de 0E       		.uleb128 0xe
 6297 18df 20030000 		.4byte	.LASF336
 6298 18e3 18       		.byte	0x18
 6299 18e4 37       		.byte	0x37
 6300 18e5 EB080000 		.4byte	0x8eb
 6301 18e9 05       		.byte	0x5
 6302 18ea 0E       		.uleb128 0xe
 6303 18eb AD150000 		.4byte	.LASF337
 6304 18ef 18       		.byte	0x18
 6305 18f0 38       		.byte	0x38
 6306 18f1 06090000 		.4byte	0x906
 6307 18f5 06       		.byte	0x6
 6308 18f6 0E       		.uleb128 0xe
 6309 18f7 39000000 		.4byte	.LASF338
 6310 18fb 18       		.byte	0x18
 6311 18fc 39       		.byte	0x39
 6312 18fd EB080000 		.4byte	0x8eb
 6313 1901 08       		.byte	0x8
 6314 1902 0E       		.uleb128 0xe
 6315 1903 C9130000 		.4byte	.LASF339
 6316 1907 18       		.byte	0x18
 6317 1908 3A       		.byte	0x3a
 6318 1909 EB080000 		.4byte	0x8eb
 6319 190d 09       		.byte	0x9
 6320 190e 0E       		.uleb128 0xe
 6321 190f D5220000 		.4byte	.LASF340
 6322 1913 18       		.byte	0x18
 6323 1914 3B       		.byte	0x3b
 6324 1915 EB080000 		.4byte	0x8eb
 6325 1919 0A       		.byte	0xa
 6326 191a 0E       		.uleb128 0xe
 6327 191b D2200000 		.4byte	.LASF341
 6328 191f 18       		.byte	0x18
 6329 1920 3C       		.byte	0x3c
 6330 1921 EB080000 		.4byte	0x8eb
 6331 1925 0B       		.byte	0xb
 6332 1926 0E       		.uleb128 0xe
 6333 1927 0C200000 		.4byte	.LASF342
 6334 192b 18       		.byte	0x18
 6335 192c 3D       		.byte	0x3d
 6336 192d EB080000 		.4byte	0x8eb
 6337 1931 0C       		.byte	0xc
 6338 1932 0E       		.uleb128 0xe
 6339 1933 5A0C0000 		.4byte	.LASF343
 6340 1937 18       		.byte	0x18
 6341 1938 3E       		.byte	0x3e
 6342 1939 EB080000 		.4byte	0x8eb
 6343 193d 0D       		.byte	0xd
 6344 193e 0E       		.uleb128 0xe
 6345 193f A4050000 		.4byte	.LASF344
 6346 1943 18       		.byte	0x18
 6347 1944 3F       		.byte	0x3f
 6348 1945 EB080000 		.4byte	0x8eb
 6349 1949 0E       		.byte	0xe
 6350 194a 0E       		.uleb128 0xe
ARM GAS  C:\Users\PCHAUT~1\AppData\Local\Temp\ccjQKXWT.s 			page 113


 6351 194b F20D0000 		.4byte	.LASF345
 6352 194f 18       		.byte	0x18
 6353 1950 40       		.byte	0x40
 6354 1951 EB080000 		.4byte	0x8eb
 6355 1955 0F       		.byte	0xf
 6356 1956 0E       		.uleb128 0xe
 6357 1957 820F0000 		.4byte	.LASF346
 6358 195b 18       		.byte	0x18
 6359 195c 41       		.byte	0x41
 6360 195d EB080000 		.4byte	0x8eb
 6361 1961 10       		.byte	0x10
 6362 1962 0E       		.uleb128 0xe
 6363 1963 5C150000 		.4byte	.LASF347
 6364 1967 18       		.byte	0x18
 6365 1968 43       		.byte	0x43
 6366 1969 EB080000 		.4byte	0x8eb
 6367 196d 11       		.byte	0x11
 6368 196e 0E       		.uleb128 0xe
 6369 196f EF020000 		.4byte	.LASF348
 6370 1973 18       		.byte	0x18
 6371 1974 44       		.byte	0x44
 6372 1975 EB080000 		.4byte	0x8eb
 6373 1979 12       		.byte	0x12
 6374 197a 0E       		.uleb128 0xe
 6375 197b 50150000 		.4byte	.LASF349
 6376 197f 18       		.byte	0x18
 6377 1980 45       		.byte	0x45
 6378 1981 EB080000 		.4byte	0x8eb
 6379 1985 13       		.byte	0x13
 6380 1986 0E       		.uleb128 0xe
 6381 1987 E31A0000 		.4byte	.LASF350
 6382 198b 18       		.byte	0x18
 6383 198c 46       		.byte	0x46
 6384 198d EB080000 		.4byte	0x8eb
 6385 1991 14       		.byte	0x14
 6386 1992 0E       		.uleb128 0xe
 6387 1993 00010000 		.4byte	.LASF351
 6388 1997 18       		.byte	0x18
 6389 1998 48       		.byte	0x48
 6390 1999 EB080000 		.4byte	0x8eb
 6391 199d 15       		.byte	0x15
 6392 199e 00       		.byte	0
 6393 199f 0B       		.uleb128 0xb
 6394 19a0 6A010000 		.4byte	0x16a
 6395 19a4 AF190000 		.4byte	0x19af
 6396 19a8 0C       		.uleb128 0xc
 6397 19a9 3C000000 		.4byte	0x3c
 6398 19ad 03       		.byte	0x3
 6399 19ae 00       		.byte	0
 6400 19af 03       		.uleb128 0x3
 6401 19b0 5B130000 		.4byte	.LASF352
 6402 19b4 18       		.byte	0x18
 6403 19b5 49       		.byte	0x49
 6404 19b6 BE180000 		.4byte	0x18be
 6405 19ba 04       		.uleb128 0x4
 6406 19bb AF190000 		.4byte	0x19af
 6407 19bf 23       		.uleb128 0x23
ARM GAS  C:\Users\PCHAUT~1\AppData\Local\Temp\ccjQKXWT.s 			page 114


 6408 19c0 670B0000 		.4byte	.LASF353
 6409 19c4 18       		.byte	0x18
 6410 19c5 6E       		.byte	0x6e
 6411 19c6 BA190000 		.4byte	0x19ba
 6412 19ca 03       		.uleb128 0x3
 6413 19cb 141D0000 		.4byte	.LASF354
 6414 19cf 17       		.byte	0x17
 6415 19d0 34       		.byte	0x34
 6416 19d1 54180000 		.4byte	0x1854
 6417 19d5 06       		.uleb128 0x6
 6418 19d6 04       		.byte	0x4
 6419 19d7 CA190000 		.4byte	0x19ca
 6420 19db 03       		.uleb128 0x3
 6421 19dc BF0B0000 		.4byte	.LASF355
 6422 19e0 19       		.byte	0x19
 6423 19e1 34       		.byte	0x34
 6424 19e2 E6190000 		.4byte	0x19e6
 6425 19e6 10       		.uleb128 0x10
 6426 19e7 61230000 		.4byte	.LASF356
 6427 19eb 14       		.byte	0x14
 6428 19ec 19       		.byte	0x19
 6429 19ed 39       		.byte	0x39
 6430 19ee 2F1A0000 		.4byte	0x1a2f
 6431 19f2 0E       		.uleb128 0xe
 6432 19f3 6E020000 		.4byte	.LASF357
 6433 19f7 19       		.byte	0x19
 6434 19f8 3A       		.byte	0x3a
 6435 19f9 2F1A0000 		.4byte	0x1a2f
 6436 19fd 00       		.byte	0
 6437 19fe 0E       		.uleb128 0xe
 6438 19ff FA1D0000 		.4byte	.LASF358
 6439 1a03 19       		.byte	0x19
 6440 1a04 3D       		.byte	0x3d
 6441 1a05 090B0000 		.4byte	0xb09
 6442 1a09 04       		.byte	0x4
 6443 1a0a 0E       		.uleb128 0xe
 6444 1a0b 76030000 		.4byte	.LASF359
 6445 1a0f 19       		.byte	0x19
 6446 1a10 3F       		.byte	0x3f
 6447 1a11 99090000 		.4byte	0x999
 6448 1a15 08       		.byte	0x8
 6449 1a16 0E       		.uleb128 0xe
 6450 1a17 171F0000 		.4byte	.LASF360
 6451 1a1b 19       		.byte	0x19
 6452 1a1c 41       		.byte	0x41
 6453 1a1d A4090000 		.4byte	0x9a4
 6454 1a21 0C       		.byte	0xc
 6455 1a22 0E       		.uleb128 0xe
 6456 1a23 2B0E0000 		.4byte	.LASF361
 6457 1a27 19       		.byte	0x19
 6458 1a28 43       		.byte	0x43
 6459 1a29 A4090000 		.4byte	0x9a4
 6460 1a2d 10       		.byte	0x10
 6461 1a2e 00       		.byte	0
 6462 1a2f 06       		.uleb128 0x6
 6463 1a30 04       		.byte	0x4
 6464 1a31 DB190000 		.4byte	0x19db
ARM GAS  C:\Users\PCHAUT~1\AppData\Local\Temp\ccjQKXWT.s 			page 115


 6465 1a35 10       		.uleb128 0x10
 6466 1a36 201F0000 		.4byte	.LASF362
 6467 1a3a 04       		.byte	0x4
 6468 1a3b 19       		.byte	0x19
 6469 1a3c 4A       		.byte	0x4a
 6470 1a3d 4E1A0000 		.4byte	0x1a4e
 6471 1a41 0E       		.uleb128 0xe
 6472 1a42 991E0000 		.4byte	.LASF363
 6473 1a46 19       		.byte	0x19
 6474 1a47 4B       		.byte	0x4b
 6475 1a48 2F1A0000 		.4byte	0x1a2f
 6476 1a4c 00       		.byte	0
 6477 1a4d 00       		.byte	0
 6478 1a4e 03       		.uleb128 0x3
 6479 1a4f EC130000 		.4byte	.LASF364
 6480 1a53 19       		.byte	0x19
 6481 1a54 4E       		.byte	0x4e
 6482 1a55 351A0000 		.4byte	0x1a35
 6483 1a59 03       		.uleb128 0x3
 6484 1a5a 6B0E0000 		.4byte	.LASF365
 6485 1a5e 1A       		.byte	0x1a
 6486 1a5f 3F       		.byte	0x3f
 6487 1a60 641A0000 		.4byte	0x1a64
 6488 1a64 10       		.uleb128 0x10
 6489 1a65 7E100000 		.4byte	.LASF366
 6490 1a69 24       		.byte	0x24
 6491 1a6a 1A       		.byte	0x1a
 6492 1a6b 4D       		.byte	0x4d
 6493 1a6c D11A0000 		.4byte	0x1ad1
 6494 1a70 0E       		.uleb128 0xe
 6495 1a71 05050000 		.4byte	.LASF367
 6496 1a75 1A       		.byte	0x1a
 6497 1a76 4E       		.byte	0x4e
 6498 1a77 330B0000 		.4byte	0xb33
 6499 1a7b 00       		.byte	0
 6500 1a7c 0E       		.uleb128 0xe
 6501 1a7d 35170000 		.4byte	.LASF368
 6502 1a81 1A       		.byte	0x1a
 6503 1a82 4F       		.byte	0x4f
 6504 1a83 2C000000 		.4byte	0x2c
 6505 1a87 08       		.byte	0x8
 6506 1a88 0E       		.uleb128 0xe
 6507 1a89 48110000 		.4byte	.LASF369
 6508 1a8d 1A       		.byte	0x1a
 6509 1a8e 50       		.byte	0x50
 6510 1a8f F31A0000 		.4byte	0x1af3
 6511 1a93 0C       		.byte	0xc
 6512 1a94 0E       		.uleb128 0xe
 6513 1a95 58040000 		.4byte	.LASF370
 6514 1a99 1A       		.byte	0x1a
 6515 1a9a 51       		.byte	0x51
 6516 1a9b F31A0000 		.4byte	0x1af3
 6517 1a9f 10       		.byte	0x10
 6518 1aa0 0E       		.uleb128 0xe
 6519 1aa1 A0180000 		.4byte	.LASF371
 6520 1aa5 1A       		.byte	0x1a
 6521 1aa6 53       		.byte	0x53
ARM GAS  C:\Users\PCHAUT~1\AppData\Local\Temp\ccjQKXWT.s 			page 116


 6522 1aa7 F31A0000 		.4byte	0x1af3
 6523 1aab 14       		.byte	0x14
 6524 1aac 0E       		.uleb128 0xe
 6525 1aad 97170000 		.4byte	.LASF372
 6526 1ab1 1A       		.byte	0x1a
 6527 1ab2 54       		.byte	0x54
 6528 1ab3 F31A0000 		.4byte	0x1af3
 6529 1ab7 18       		.byte	0x18
 6530 1ab8 0E       		.uleb128 0xe
 6531 1ab9 E71B0000 		.4byte	.LASF373
 6532 1abd 1A       		.byte	0x1a
 6533 1abe 55       		.byte	0x55
 6534 1abf D11A0000 		.4byte	0x1ad1
 6535 1ac3 1C       		.byte	0x1c
 6536 1ac4 0E       		.uleb128 0xe
 6537 1ac5 69190000 		.4byte	.LASF374
 6538 1ac9 1A       		.byte	0x1a
 6539 1aca 56       		.byte	0x56
 6540 1acb 62010000 		.4byte	0x162
 6541 1acf 20       		.byte	0x20
 6542 1ad0 00       		.byte	0
 6543 1ad1 03       		.uleb128 0x3
 6544 1ad2 19040000 		.4byte	.LASF375
 6545 1ad6 1A       		.byte	0x1a
 6546 1ad7 42       		.byte	0x42
 6547 1ad8 DC1A0000 		.4byte	0x1adc
 6548 1adc 06       		.uleb128 0x6
 6549 1add 04       		.byte	0x4
 6550 1ade E21A0000 		.4byte	0x1ae2
 6551 1ae2 1F       		.uleb128 0x1f
 6552 1ae3 ED1A0000 		.4byte	0x1aed
 6553 1ae7 16       		.uleb128 0x16
 6554 1ae8 ED1A0000 		.4byte	0x1aed
 6555 1aec 00       		.byte	0
 6556 1aed 06       		.uleb128 0x6
 6557 1aee 04       		.byte	0x4
 6558 1aef 591A0000 		.4byte	0x1a59
 6559 1af3 06       		.uleb128 0x6
 6560 1af4 04       		.byte	0x4
 6561 1af5 EB080000 		.4byte	0x8eb
 6562 1af9 03       		.uleb128 0x3
 6563 1afa 4B050000 		.4byte	.LASF376
 6564 1afe 1A       		.byte	0x1a
 6565 1aff 64       		.byte	0x64
 6566 1b00 591A0000 		.4byte	0x1a59
 6567 1b04 03       		.uleb128 0x3
 6568 1b05 A4230000 		.4byte	.LASF377
 6569 1b09 1A       		.byte	0x1a
 6570 1b0a 71       		.byte	0x71
 6571 1b0b 591A0000 		.4byte	0x1a59
 6572 1b0f 15       		.uleb128 0x15
 6573 1b10 2C000000 		.4byte	0x2c
 6574 1b14 281B0000 		.4byte	0x1b28
 6575 1b18 16       		.uleb128 0x16
 6576 1b19 62010000 		.4byte	0x162
 6577 1b1d 16       		.uleb128 0x16
 6578 1b1e 281B0000 		.4byte	0x1b28
ARM GAS  C:\Users\PCHAUT~1\AppData\Local\Temp\ccjQKXWT.s 			page 117


 6579 1b22 16       		.uleb128 0x16
 6580 1b23 2C000000 		.4byte	0x2c
 6581 1b27 00       		.byte	0
 6582 1b28 06       		.uleb128 0x6
 6583 1b29 04       		.byte	0x4
 6584 1b2a F6080000 		.4byte	0x8f6
 6585 1b2e 06       		.uleb128 0x6
 6586 1b2f 04       		.byte	0x4
 6587 1b30 0F1B0000 		.4byte	0x1b0f
 6588 1b34 15       		.uleb128 0x15
 6589 1b35 2C000000 		.4byte	0x2c
 6590 1b39 4D1B0000 		.4byte	0x1b4d
 6591 1b3d 16       		.uleb128 0x16
 6592 1b3e 62010000 		.4byte	0x162
 6593 1b42 16       		.uleb128 0x16
 6594 1b43 F31A0000 		.4byte	0x1af3
 6595 1b47 16       		.uleb128 0x16
 6596 1b48 2C000000 		.4byte	0x2c
 6597 1b4c 00       		.byte	0
 6598 1b4d 06       		.uleb128 0x6
 6599 1b4e 04       		.byte	0x4
 6600 1b4f 341B0000 		.4byte	0x1b34
 6601 1b53 15       		.uleb128 0x15
 6602 1b54 8E090000 		.4byte	0x98e
 6603 1b58 671B0000 		.4byte	0x1b67
 6604 1b5c 16       		.uleb128 0x16
 6605 1b5d 62010000 		.4byte	0x162
 6606 1b61 16       		.uleb128 0x16
 6607 1b62 EB080000 		.4byte	0x8eb
 6608 1b66 00       		.byte	0
 6609 1b67 06       		.uleb128 0x6
 6610 1b68 04       		.byte	0x4
 6611 1b69 531B0000 		.4byte	0x1b53
 6612 1b6d 15       		.uleb128 0x15
 6613 1b6e 8E090000 		.4byte	0x98e
 6614 1b72 7C1B0000 		.4byte	0x1b7c
 6615 1b76 16       		.uleb128 0x16
 6616 1b77 62010000 		.4byte	0x162
 6617 1b7b 00       		.byte	0
 6618 1b7c 06       		.uleb128 0x6
 6619 1b7d 04       		.byte	0x4
 6620 1b7e 6D1B0000 		.4byte	0x1b6d
 6621 1b82 0D       		.uleb128 0xd
 6622 1b83 0C       		.byte	0xc
 6623 1b84 1B       		.byte	0x1b
 6624 1b85 DA       		.byte	0xda
 6625 1b86 C71B0000 		.4byte	0x1bc7
 6626 1b8a 0E       		.uleb128 0xe
 6627 1b8b 26230000 		.4byte	.LASF378
 6628 1b8f 1B       		.byte	0x1b
 6629 1b90 DB       		.byte	0xdb
 6630 1b91 C71B0000 		.4byte	0x1bc7
 6631 1b95 00       		.byte	0
 6632 1b96 0E       		.uleb128 0xe
 6633 1b97 E70F0000 		.4byte	.LASF379
 6634 1b9b 1B       		.byte	0x1b
 6635 1b9c DC       		.byte	0xdc
ARM GAS  C:\Users\PCHAUT~1\AppData\Local\Temp\ccjQKXWT.s 			page 118


 6636 1b9d CD1B0000 		.4byte	0x1bcd
 6637 1ba1 04       		.byte	0x4
 6638 1ba2 0E       		.uleb128 0xe
 6639 1ba3 37040000 		.4byte	.LASF380
 6640 1ba7 1B       		.byte	0x1b
 6641 1ba8 DD       		.byte	0xdd
 6642 1ba9 EB080000 		.4byte	0x8eb
 6643 1bad 08       		.byte	0x8
 6644 1bae 0E       		.uleb128 0xe
 6645 1baf 0A1D0000 		.4byte	.LASF381
 6646 1bb3 1B       		.byte	0x1b
 6647 1bb4 DF       		.byte	0xdf
 6648 1bb5 EB080000 		.4byte	0x8eb
 6649 1bb9 09       		.byte	0x9
 6650 1bba 0E       		.uleb128 0xe
 6651 1bbb AE030000 		.4byte	.LASF382
 6652 1bbf 1B       		.byte	0x1b
 6653 1bc0 E0       		.byte	0xe0
 6654 1bc1 EB080000 		.4byte	0x8eb
 6655 1bc5 0A       		.byte	0xa
 6656 1bc6 00       		.byte	0
 6657 1bc7 06       		.uleb128 0x6
 6658 1bc8 04       		.byte	0x4
 6659 1bc9 07120000 		.4byte	0x1207
 6660 1bcd 06       		.uleb128 0x6
 6661 1bce 04       		.byte	0x4
 6662 1bcf 2C090000 		.4byte	0x92c
 6663 1bd3 03       		.uleb128 0x3
 6664 1bd4 60120000 		.4byte	.LASF383
 6665 1bd8 1B       		.byte	0x1b
 6666 1bd9 E1       		.byte	0xe1
 6667 1bda 821B0000 		.4byte	0x1b82
 6668 1bde 04       		.uleb128 0x4
 6669 1bdf D31B0000 		.4byte	0x1bd3
 6670 1be3 0B       		.uleb128 0xb
 6671 1be4 DE1B0000 		.4byte	0x1bde
 6672 1be8 F31B0000 		.4byte	0x1bf3
 6673 1bec 0C       		.uleb128 0xc
 6674 1bed 3C000000 		.4byte	0x3c
 6675 1bf1 0F       		.byte	0xf
 6676 1bf2 00       		.byte	0
 6677 1bf3 04       		.uleb128 0x4
 6678 1bf4 E31B0000 		.4byte	0x1be3
 6679 1bf8 20       		.uleb128 0x20
 6680 1bf9 FF190000 		.4byte	.LASF384
 6681 1bfd 1B       		.byte	0x1b
 6682 1bfe BB01     		.2byte	0x1bb
 6683 1c00 F31B0000 		.4byte	0x1bf3
 6684 1c04 15       		.uleb128 0x15
 6685 1c05 8E090000 		.4byte	0x98e
 6686 1c09 1D1C0000 		.4byte	0x1c1d
 6687 1c0d 16       		.uleb128 0x16
 6688 1c0e 62010000 		.4byte	0x162
 6689 1c12 16       		.uleb128 0x16
 6690 1c13 EB080000 		.4byte	0x8eb
 6691 1c17 16       		.uleb128 0x16
 6692 1c18 C5090000 		.4byte	0x9c5
ARM GAS  C:\Users\PCHAUT~1\AppData\Local\Temp\ccjQKXWT.s 			page 119


 6693 1c1c 00       		.byte	0
 6694 1c1d 06       		.uleb128 0x6
 6695 1c1e 04       		.byte	0x4
 6696 1c1f 041C0000 		.4byte	0x1c04
 6697 1c23 15       		.uleb128 0x15
 6698 1c24 8E090000 		.4byte	0x98e
 6699 1c28 371C0000 		.4byte	0x1c37
 6700 1c2c 16       		.uleb128 0x16
 6701 1c2d 62010000 		.4byte	0x162
 6702 1c31 16       		.uleb128 0x16
 6703 1c32 C5090000 		.4byte	0x9c5
 6704 1c36 00       		.byte	0
 6705 1c37 06       		.uleb128 0x6
 6706 1c38 04       		.byte	0x4
 6707 1c39 231C0000 		.4byte	0x1c23
 6708 1c3d 15       		.uleb128 0x15
 6709 1c3e 2C000000 		.4byte	0x2c
 6710 1c42 5B1C0000 		.4byte	0x1c5b
 6711 1c46 16       		.uleb128 0x16
 6712 1c47 62010000 		.4byte	0x162
 6713 1c4b 16       		.uleb128 0x16
 6714 1c4c 281B0000 		.4byte	0x1b28
 6715 1c50 16       		.uleb128 0x16
 6716 1c51 2C000000 		.4byte	0x2c
 6717 1c55 16       		.uleb128 0x16
 6718 1c56 C5090000 		.4byte	0x9c5
 6719 1c5a 00       		.byte	0
 6720 1c5b 06       		.uleb128 0x6
 6721 1c5c 04       		.byte	0x4
 6722 1c5d 3D1C0000 		.4byte	0x1c3d
 6723 1c61 15       		.uleb128 0x15
 6724 1c62 2C000000 		.4byte	0x2c
 6725 1c66 7F1C0000 		.4byte	0x1c7f
 6726 1c6a 16       		.uleb128 0x16
 6727 1c6b 62010000 		.4byte	0x162
 6728 1c6f 16       		.uleb128 0x16
 6729 1c70 F31A0000 		.4byte	0x1af3
 6730 1c74 16       		.uleb128 0x16
 6731 1c75 2C000000 		.4byte	0x2c
 6732 1c79 16       		.uleb128 0x16
 6733 1c7a C5090000 		.4byte	0x9c5
 6734 1c7e 00       		.byte	0
 6735 1c7f 06       		.uleb128 0x6
 6736 1c80 04       		.byte	0x4
 6737 1c81 611C0000 		.4byte	0x1c61
 6738 1c85 27       		.uleb128 0x27
 6739 1c86 07       		.byte	0x7
 6740 1c87 01       		.byte	0x1
 6741 1c88 63000000 		.4byte	0x63
 6742 1c8c 1C       		.byte	0x1c
 6743 1c8d 28       		.byte	0x28
 6744 1c8e C91C0000 		.4byte	0x1cc9
 6745 1c92 28       		.uleb128 0x28
 6746 1c93 6B010000 		.4byte	.LASF385
 6747 1c97 00       		.byte	0
 6748 1c98 28       		.uleb128 0x28
 6749 1c99 160F0000 		.4byte	.LASF386
ARM GAS  C:\Users\PCHAUT~1\AppData\Local\Temp\ccjQKXWT.s 			page 120


 6750 1c9d 01       		.byte	0x1
 6751 1c9e 28       		.uleb128 0x28
 6752 1c9f AA0B0000 		.4byte	.LASF387
 6753 1ca3 02       		.byte	0x2
 6754 1ca4 28       		.uleb128 0x28
 6755 1ca5 451B0000 		.4byte	.LASF388
 6756 1ca9 03       		.byte	0x3
 6757 1caa 28       		.uleb128 0x28
 6758 1cab 18220000 		.4byte	.LASF389
 6759 1caf 04       		.byte	0x4
 6760 1cb0 28       		.uleb128 0x28
 6761 1cb1 63070000 		.4byte	.LASF390
 6762 1cb5 05       		.byte	0x5
 6763 1cb6 28       		.uleb128 0x28
 6764 1cb7 EA1C0000 		.4byte	.LASF391
 6765 1cbb 06       		.byte	0x6
 6766 1cbc 28       		.uleb128 0x28
 6767 1cbd FC170000 		.4byte	.LASF392
 6768 1cc1 07       		.byte	0x7
 6769 1cc2 28       		.uleb128 0x28
 6770 1cc3 DB210000 		.4byte	.LASF393
 6771 1cc7 08       		.byte	0x8
 6772 1cc8 00       		.byte	0
 6773 1cc9 03       		.uleb128 0x3
 6774 1cca A4160000 		.4byte	.LASF394
 6775 1cce 1C       		.byte	0x1c
 6776 1ccf 32       		.byte	0x32
 6777 1cd0 851C0000 		.4byte	0x1c85
 6778 1cd4 0D       		.uleb128 0xd
 6779 1cd5 08       		.byte	0x8
 6780 1cd6 1C       		.byte	0x1c
 6781 1cd7 37       		.byte	0x37
 6782 1cd8 F51C0000 		.4byte	0x1cf5
 6783 1cdc 0E       		.uleb128 0xe
 6784 1cdd F4060000 		.4byte	.LASF395
 6785 1ce1 1C       		.byte	0x1c
 6786 1ce2 38       		.byte	0x38
 6787 1ce3 21090000 		.4byte	0x921
 6788 1ce7 00       		.byte	0
 6789 1ce8 0E       		.uleb128 0xe
 6790 1ce9 4D1C0000 		.4byte	.LASF396
 6791 1ced 1C       		.byte	0x1c
 6792 1cee 39       		.byte	0x39
 6793 1cef 21090000 		.4byte	0x921
 6794 1cf3 04       		.byte	0x4
 6795 1cf4 00       		.byte	0
 6796 1cf5 03       		.uleb128 0x3
 6797 1cf6 3C1E0000 		.4byte	.LASF397
 6798 1cfa 1C       		.byte	0x1c
 6799 1cfb 3A       		.byte	0x3a
 6800 1cfc D41C0000 		.4byte	0x1cd4
 6801 1d00 15       		.uleb128 0x15
 6802 1d01 0F1D0000 		.4byte	0x1d0f
 6803 1d05 0F1D0000 		.4byte	0x1d0f
 6804 1d09 16       		.uleb128 0x16
 6805 1d0a 62010000 		.4byte	0x162
 6806 1d0e 00       		.byte	0
ARM GAS  C:\Users\PCHAUT~1\AppData\Local\Temp\ccjQKXWT.s 			page 121


 6807 1d0f 05       		.uleb128 0x5
 6808 1d10 01       		.byte	0x1
 6809 1d11 02       		.byte	0x2
 6810 1d12 29010000 		.4byte	.LASF398
 6811 1d16 06       		.uleb128 0x6
 6812 1d17 04       		.byte	0x4
 6813 1d18 001D0000 		.4byte	0x1d00
 6814 1d1c 15       		.uleb128 0x15
 6815 1d1d 0F1D0000 		.4byte	0x1d0f
 6816 1d21 3A1D0000 		.4byte	0x1d3a
 6817 1d25 16       		.uleb128 0x16
 6818 1d26 62010000 		.4byte	0x162
 6819 1d2a 16       		.uleb128 0x16
 6820 1d2b 21090000 		.4byte	0x921
 6821 1d2f 16       		.uleb128 0x16
 6822 1d30 F31A0000 		.4byte	0x1af3
 6823 1d34 16       		.uleb128 0x16
 6824 1d35 21090000 		.4byte	0x921
 6825 1d39 00       		.byte	0
 6826 1d3a 06       		.uleb128 0x6
 6827 1d3b 04       		.byte	0x4
 6828 1d3c 1C1D0000 		.4byte	0x1d1c
 6829 1d40 15       		.uleb128 0x15
 6830 1d41 0F1D0000 		.4byte	0x1d0f
 6831 1d45 5E1D0000 		.4byte	0x1d5e
 6832 1d49 16       		.uleb128 0x16
 6833 1d4a 62010000 		.4byte	0x162
 6834 1d4e 16       		.uleb128 0x16
 6835 1d4f 21090000 		.4byte	0x921
 6836 1d53 16       		.uleb128 0x16
 6837 1d54 281B0000 		.4byte	0x1b28
 6838 1d58 16       		.uleb128 0x16
 6839 1d59 21090000 		.4byte	0x921
 6840 1d5d 00       		.byte	0
 6841 1d5e 06       		.uleb128 0x6
 6842 1d5f 04       		.byte	0x4
 6843 1d60 401D0000 		.4byte	0x1d40
 6844 1d64 15       		.uleb128 0x15
 6845 1d65 0F1D0000 		.4byte	0x1d0f
 6846 1d69 781D0000 		.4byte	0x1d78
 6847 1d6d 16       		.uleb128 0x16
 6848 1d6e 62010000 		.4byte	0x162
 6849 1d72 16       		.uleb128 0x16
 6850 1d73 781D0000 		.4byte	0x1d78
 6851 1d77 00       		.byte	0
 6852 1d78 06       		.uleb128 0x6
 6853 1d79 04       		.byte	0x4
 6854 1d7a F51C0000 		.4byte	0x1cf5
 6855 1d7e 06       		.uleb128 0x6
 6856 1d7f 04       		.byte	0x4
 6857 1d80 641D0000 		.4byte	0x1d64
 6858 1d84 0B       		.uleb128 0xb
 6859 1d85 21090000 		.4byte	0x921
 6860 1d89 941D0000 		.4byte	0x1d94
 6861 1d8d 0C       		.uleb128 0xc
 6862 1d8e 3C000000 		.4byte	0x3c
 6863 1d92 03       		.byte	0x3
ARM GAS  C:\Users\PCHAUT~1\AppData\Local\Temp\ccjQKXWT.s 			page 122


 6864 1d93 00       		.byte	0
 6865 1d94 0D       		.uleb128 0xd
 6866 1d95 04       		.byte	0x4
 6867 1d96 1D       		.byte	0x1d
 6868 1d97 B3       		.byte	0xb3
 6869 1d98 B51D0000 		.4byte	0x1db5
 6870 1d9c 11       		.uleb128 0x11
 6871 1d9d 73657400 		.ascii	"set\000"
 6872 1da1 1D       		.byte	0x1d
 6873 1da2 B4       		.byte	0xb4
 6874 1da3 06090000 		.4byte	0x906
 6875 1da7 00       		.byte	0
 6876 1da8 0E       		.uleb128 0xe
 6877 1da9 510D0000 		.4byte	.LASF399
 6878 1dad 1D       		.byte	0x1d
 6879 1dae B5       		.byte	0xb5
 6880 1daf 06090000 		.4byte	0x906
 6881 1db3 02       		.byte	0x2
 6882 1db4 00       		.byte	0
 6883 1db5 09       		.uleb128 0x9
 6884 1db6 04       		.byte	0x4
 6885 1db7 1D       		.byte	0x1d
 6886 1db8 B1       		.byte	0xb1
 6887 1db9 D01D0000 		.4byte	0x1dd0
 6888 1dbd 29       		.uleb128 0x29
 6889 1dbe 5700     		.ascii	"W\000"
 6890 1dc0 1D       		.byte	0x1d
 6891 1dc1 B2       		.byte	0xb2
 6892 1dc2 21090000 		.4byte	0x921
 6893 1dc6 29       		.uleb128 0x29
 6894 1dc7 4800     		.ascii	"H\000"
 6895 1dc9 1D       		.byte	0x1d
 6896 1dca B6       		.byte	0xb6
 6897 1dcb 941D0000 		.4byte	0x1d94
 6898 1dcf 00       		.byte	0
 6899 1dd0 1A       		.uleb128 0x1a
 6900 1dd1 B51D0000 		.4byte	0x1db5
 6901 1dd5 0D       		.uleb128 0xd
 6902 1dd6 2C       		.byte	0x2c
 6903 1dd7 1D       		.byte	0x1d
 6904 1dd8 A9       		.byte	0xa9
 6905 1dd9 621E0000 		.4byte	0x1e62
 6906 1ddd 0E       		.uleb128 0xe
 6907 1dde 421D0000 		.4byte	.LASF400
 6908 1de2 1D       		.byte	0x1d
 6909 1de3 AB       		.byte	0xab
 6910 1de4 2C090000 		.4byte	0x92c
 6911 1de8 00       		.byte	0
 6912 1de9 0E       		.uleb128 0xe
 6913 1dea 37030000 		.4byte	.LASF401
 6914 1dee 1D       		.byte	0x1d
 6915 1def AC       		.byte	0xac
 6916 1df0 2C090000 		.4byte	0x92c
 6917 1df4 04       		.byte	0x4
 6918 1df5 0E       		.uleb128 0xe
 6919 1df6 D10E0000 		.4byte	.LASF402
 6920 1dfa 1D       		.byte	0x1d
ARM GAS  C:\Users\PCHAUT~1\AppData\Local\Temp\ccjQKXWT.s 			page 123


 6921 1dfb AD       		.byte	0xad
 6922 1dfc 2C090000 		.4byte	0x92c
 6923 1e00 08       		.byte	0x8
 6924 1e01 0E       		.uleb128 0xe
 6925 1e02 7B1C0000 		.4byte	.LASF403
 6926 1e06 1D       		.byte	0x1d
 6927 1e07 AE       		.byte	0xae
 6928 1e08 2C090000 		.4byte	0x92c
 6929 1e0c 0C       		.byte	0xc
 6930 1e0d 11       		.uleb128 0x11
 6931 1e0e 49445200 		.ascii	"IDR\000"
 6932 1e12 1D       		.byte	0x1d
 6933 1e13 AF       		.byte	0xaf
 6934 1e14 2C090000 		.4byte	0x92c
 6935 1e18 10       		.byte	0x10
 6936 1e19 11       		.uleb128 0x11
 6937 1e1a 4F445200 		.ascii	"ODR\000"
 6938 1e1e 1D       		.byte	0x1d
 6939 1e1f B0       		.byte	0xb0
 6940 1e20 2C090000 		.4byte	0x92c
 6941 1e24 14       		.byte	0x14
 6942 1e25 0E       		.uleb128 0xe
 6943 1e26 5B120000 		.4byte	.LASF404
 6944 1e2a 1D       		.byte	0x1d
 6945 1e2b B7       		.byte	0xb7
 6946 1e2c D01D0000 		.4byte	0x1dd0
 6947 1e30 18       		.byte	0x18
 6948 1e31 0E       		.uleb128 0xe
 6949 1e32 D1170000 		.4byte	.LASF405
 6950 1e36 1D       		.byte	0x1d
 6951 1e37 B8       		.byte	0xb8
 6952 1e38 2C090000 		.4byte	0x92c
 6953 1e3c 1C       		.byte	0x1c
 6954 1e3d 0E       		.uleb128 0xe
 6955 1e3e D21A0000 		.4byte	.LASF406
 6956 1e42 1D       		.byte	0x1d
 6957 1e43 B9       		.byte	0xb9
 6958 1e44 2C090000 		.4byte	0x92c
 6959 1e48 20       		.byte	0x20
 6960 1e49 0E       		.uleb128 0xe
 6961 1e4a CD1A0000 		.4byte	.LASF407
 6962 1e4e 1D       		.byte	0x1d
 6963 1e4f BA       		.byte	0xba
 6964 1e50 2C090000 		.4byte	0x92c
 6965 1e54 24       		.byte	0x24
 6966 1e55 11       		.uleb128 0x11
 6967 1e56 42525200 		.ascii	"BRR\000"
 6968 1e5a 1D       		.byte	0x1d
 6969 1e5b BB       		.byte	0xbb
 6970 1e5c 2C090000 		.4byte	0x92c
 6971 1e60 28       		.byte	0x28
 6972 1e61 00       		.byte	0
 6973 1e62 03       		.uleb128 0x3
 6974 1e63 F70F0000 		.4byte	.LASF408
 6975 1e67 1D       		.byte	0x1d
 6976 1e68 BC       		.byte	0xbc
 6977 1e69 D51D0000 		.4byte	0x1dd5
ARM GAS  C:\Users\PCHAUT~1\AppData\Local\Temp\ccjQKXWT.s 			page 124


 6978 1e6d 0D       		.uleb128 0xd
 6979 1e6e 1C       		.byte	0x1c
 6980 1e6f 1D       		.byte	0x1d
 6981 1e70 C1       		.byte	0xc1
 6982 1e71 CA1E0000 		.4byte	0x1eca
 6983 1e75 0E       		.uleb128 0xe
 6984 1e76 53200000 		.4byte	.LASF409
 6985 1e7a 1D       		.byte	0x1d
 6986 1e7b C3       		.byte	0xc3
 6987 1e7c 21090000 		.4byte	0x921
 6988 1e80 00       		.byte	0
 6989 1e81 0E       		.uleb128 0xe
 6990 1e82 30030000 		.4byte	.LASF410
 6991 1e86 1D       		.byte	0x1d
 6992 1e87 C5       		.byte	0xc5
 6993 1e88 21090000 		.4byte	0x921
 6994 1e8c 04       		.byte	0x4
 6995 1e8d 0E       		.uleb128 0xe
 6996 1e8e 5E020000 		.4byte	.LASF411
 6997 1e92 1D       		.byte	0x1d
 6998 1e93 C7       		.byte	0xc7
 6999 1e94 21090000 		.4byte	0x921
 7000 1e98 08       		.byte	0x8
 7001 1e99 0E       		.uleb128 0xe
 7002 1e9a 871F0000 		.4byte	.LASF412
 7003 1e9e 1D       		.byte	0x1d
 7004 1e9f C9       		.byte	0xc9
 7005 1ea0 21090000 		.4byte	0x921
 7006 1ea4 0C       		.byte	0xc
 7007 1ea5 11       		.uleb128 0x11
 7008 1ea6 6F647200 		.ascii	"odr\000"
 7009 1eaa 1D       		.byte	0x1d
 7010 1eab CB       		.byte	0xcb
 7011 1eac 21090000 		.4byte	0x921
 7012 1eb0 10       		.byte	0x10
 7013 1eb1 0E       		.uleb128 0xe
 7014 1eb2 F61C0000 		.4byte	.LASF413
 7015 1eb6 1D       		.byte	0x1d
 7016 1eb7 CD       		.byte	0xcd
 7017 1eb8 21090000 		.4byte	0x921
 7018 1ebc 14       		.byte	0x14
 7019 1ebd 0E       		.uleb128 0xe
 7020 1ebe 6E000000 		.4byte	.LASF414
 7021 1ec2 1D       		.byte	0x1d
 7022 1ec3 CF       		.byte	0xcf
 7023 1ec4 21090000 		.4byte	0x921
 7024 1ec8 18       		.byte	0x18
 7025 1ec9 00       		.byte	0
 7026 1eca 03       		.uleb128 0x3
 7027 1ecb E4190000 		.4byte	.LASF415
 7028 1ecf 1D       		.byte	0x1d
 7029 1ed0 D0       		.byte	0xd0
 7030 1ed1 6D1E0000 		.4byte	0x1e6d
 7031 1ed5 0D       		.uleb128 0xd
 7032 1ed6 FC       		.byte	0xfc
 7033 1ed7 1D       		.byte	0x1d
 7034 1ed8 D9       		.byte	0xd9
ARM GAS  C:\Users\PCHAUT~1\AppData\Local\Temp\ccjQKXWT.s 			page 125


 7035 1ed9 4A1F0000 		.4byte	0x1f4a
 7036 1edd 0E       		.uleb128 0xe
 7037 1ede 87100000 		.4byte	.LASF416
 7038 1ee2 1D       		.byte	0x1d
 7039 1ee3 DC       		.byte	0xdc
 7040 1ee4 CA1E0000 		.4byte	0x1eca
 7041 1ee8 00       		.byte	0
 7042 1ee9 0E       		.uleb128 0xe
 7043 1eea 19030000 		.4byte	.LASF417
 7044 1eee 1D       		.byte	0x1d
 7045 1eef E0       		.byte	0xe0
 7046 1ef0 CA1E0000 		.4byte	0x1eca
 7047 1ef4 1C       		.byte	0x1c
 7048 1ef5 0E       		.uleb128 0xe
 7049 1ef6 E5010000 		.4byte	.LASF418
 7050 1efa 1D       		.byte	0x1d
 7051 1efb E4       		.byte	0xe4
 7052 1efc CA1E0000 		.4byte	0x1eca
 7053 1f00 38       		.byte	0x38
 7054 1f01 0E       		.uleb128 0xe
 7055 1f02 470E0000 		.4byte	.LASF419
 7056 1f06 1D       		.byte	0x1d
 7057 1f07 E8       		.byte	0xe8
 7058 1f08 CA1E0000 		.4byte	0x1eca
 7059 1f0c 54       		.byte	0x54
 7060 1f0d 0E       		.uleb128 0xe
 7061 1f0e 04190000 		.4byte	.LASF420
 7062 1f12 1D       		.byte	0x1d
 7063 1f13 EC       		.byte	0xec
 7064 1f14 CA1E0000 		.4byte	0x1eca
 7065 1f18 70       		.byte	0x70
 7066 1f19 0E       		.uleb128 0xe
 7067 1f1a F9230000 		.4byte	.LASF421
 7068 1f1e 1D       		.byte	0x1d
 7069 1f1f F0       		.byte	0xf0
 7070 1f20 CA1E0000 		.4byte	0x1eca
 7071 1f24 8C       		.byte	0x8c
 7072 1f25 0E       		.uleb128 0xe
 7073 1f26 350C0000 		.4byte	.LASF422
 7074 1f2a 1D       		.byte	0x1d
 7075 1f2b F4       		.byte	0xf4
 7076 1f2c CA1E0000 		.4byte	0x1eca
 7077 1f30 A8       		.byte	0xa8
 7078 1f31 0E       		.uleb128 0xe
 7079 1f32 3F170000 		.4byte	.LASF423
 7080 1f36 1D       		.byte	0x1d
 7081 1f37 F8       		.byte	0xf8
 7082 1f38 CA1E0000 		.4byte	0x1eca
 7083 1f3c C4       		.byte	0xc4
 7084 1f3d 0E       		.uleb128 0xe
 7085 1f3e E7210000 		.4byte	.LASF424
 7086 1f42 1D       		.byte	0x1d
 7087 1f43 FC       		.byte	0xfc
 7088 1f44 CA1E0000 		.4byte	0x1eca
 7089 1f48 E0       		.byte	0xe0
 7090 1f49 00       		.byte	0
 7091 1f4a 03       		.uleb128 0x3
ARM GAS  C:\Users\PCHAUT~1\AppData\Local\Temp\ccjQKXWT.s 			page 126


 7092 1f4b 7A0B0000 		.4byte	.LASF425
 7093 1f4f 1D       		.byte	0x1d
 7094 1f50 FE       		.byte	0xfe
 7095 1f51 D51E0000 		.4byte	0x1ed5
 7096 1f55 04       		.uleb128 0x4
 7097 1f56 4A1F0000 		.4byte	0x1f4a
 7098 1f5a 08       		.uleb128 0x8
 7099 1f5b 46170000 		.4byte	.LASF426
 7100 1f5f 1D       		.byte	0x1d
 7101 1f60 1B01     		.2byte	0x11b
 7102 1f62 661F0000 		.4byte	0x1f66
 7103 1f66 06       		.uleb128 0x6
 7104 1f67 04       		.byte	0x4
 7105 1f68 621E0000 		.4byte	0x1e62
 7106 1f6c 20       		.uleb128 0x20
 7107 1f6d DA1D0000 		.4byte	.LASF427
 7108 1f71 1D       		.byte	0x1d
 7109 1f72 DA01     		.2byte	0x1da
 7110 1f74 551F0000 		.4byte	0x1f55
 7111 1f78 27       		.uleb128 0x27
 7112 1f79 07       		.byte	0x7
 7113 1f7a 01       		.byte	0x1
 7114 1f7b 63000000 		.4byte	0x63
 7115 1f7f 1E       		.byte	0x1e
 7116 1f80 46       		.byte	0x46
 7117 1f81 AA1F0000 		.4byte	0x1faa
 7118 1f85 28       		.uleb128 0x28
 7119 1f86 19080000 		.4byte	.LASF428
 7120 1f8a 00       		.byte	0
 7121 1f8b 28       		.uleb128 0x28
 7122 1f8c CB140000 		.4byte	.LASF429
 7123 1f90 01       		.byte	0x1
 7124 1f91 28       		.uleb128 0x28
 7125 1f92 02200000 		.4byte	.LASF430
 7126 1f96 02       		.byte	0x2
 7127 1f97 28       		.uleb128 0x28
 7128 1f98 3C120000 		.4byte	.LASF431
 7129 1f9c 03       		.byte	0x3
 7130 1f9d 28       		.uleb128 0x28
 7131 1f9e 49060000 		.4byte	.LASF432
 7132 1fa2 04       		.byte	0x4
 7133 1fa3 28       		.uleb128 0x28
 7134 1fa4 14120000 		.4byte	.LASF433
 7135 1fa8 05       		.byte	0x5
 7136 1fa9 00       		.byte	0
 7137 1faa 03       		.uleb128 0x3
 7138 1fab 23040000 		.4byte	.LASF434
 7139 1faf 1E       		.byte	0x1e
 7140 1fb0 4D       		.byte	0x4d
 7141 1fb1 781F0000 		.4byte	0x1f78
 7142 1fb5 08       		.uleb128 0x8
 7143 1fb6 2E110000 		.4byte	.LASF435
 7144 1fba 1F       		.byte	0x1f
 7145 1fbb 2701     		.2byte	0x127
 7146 1fbd 06090000 		.4byte	0x906
 7147 1fc1 08       		.uleb128 0x8
 7148 1fc2 691B0000 		.4byte	.LASF436
ARM GAS  C:\Users\PCHAUT~1\AppData\Local\Temp\ccjQKXWT.s 			page 127


 7149 1fc6 1F       		.byte	0x1f
 7150 1fc7 2C01     		.2byte	0x12c
 7151 1fc9 06090000 		.4byte	0x906
 7152 1fcd 2A       		.uleb128 0x2a
 7153 1fce 07       		.byte	0x7
 7154 1fcf 01       		.byte	0x1
 7155 1fd0 63000000 		.4byte	0x63
 7156 1fd4 1F       		.byte	0x1f
 7157 1fd5 3301     		.2byte	0x133
 7158 1fd7 E81F0000 		.4byte	0x1fe8
 7159 1fdb 28       		.uleb128 0x28
 7160 1fdc 9D0E0000 		.4byte	.LASF437
 7161 1fe0 00       		.byte	0
 7162 1fe1 28       		.uleb128 0x28
 7163 1fe2 76020000 		.4byte	.LASF438
 7164 1fe6 01       		.byte	0x1
 7165 1fe7 00       		.byte	0
 7166 1fe8 08       		.uleb128 0x8
 7167 1fe9 02210000 		.4byte	.LASF439
 7168 1fed 1F       		.byte	0x1f
 7169 1fee 3601     		.2byte	0x136
 7170 1ff0 CD1F0000 		.4byte	0x1fcd
 7171 1ff4 08       		.uleb128 0x8
 7172 1ff5 510F0000 		.4byte	.LASF440
 7173 1ff9 1F       		.byte	0x1f
 7174 1ffa 3B01     		.2byte	0x13b
 7175 1ffc 00200000 		.4byte	0x2000
 7176 2000 1B       		.uleb128 0x1b
 7177 2001 510F0000 		.4byte	.LASF440
 7178 2005 38       		.byte	0x38
 7179 2006 1F       		.byte	0x1f
 7180 2007 9F01     		.2byte	0x19f
 7181 2009 90200000 		.4byte	0x2090
 7182 200d 18       		.uleb128 0x18
 7183 200e A7150000 		.4byte	.LASF441
 7184 2012 1F       		.byte	0x1f
 7185 2013 A301     		.2byte	0x1a3
 7186 2015 AA1F0000 		.4byte	0x1faa
 7187 2019 00       		.byte	0
 7188 201a 18       		.uleb128 0x18
 7189 201b 171B0000 		.4byte	.LASF442
 7190 201f 1F       		.byte	0x1f
 7191 2020 A701     		.2byte	0x1a7
 7192 2022 B7210000 		.4byte	0x21b7
 7193 2026 04       		.byte	0x4
 7194 2027 18       		.uleb128 0x18
 7195 2028 FB010000 		.4byte	.LASF443
 7196 202c 1F       		.byte	0x1f
 7197 202d AB01     		.2byte	0x1ab
 7198 202f BD200000 		.4byte	0x20bd
 7199 2033 08       		.byte	0x8
 7200 2034 18       		.uleb128 0x18
 7201 2035 38180000 		.4byte	.LASF444
 7202 2039 1F       		.byte	0x1f
 7203 203a AF01     		.2byte	0x1af
 7204 203c 2C000000 		.4byte	0x2c
 7205 2040 0C       		.byte	0xc
ARM GAS  C:\Users\PCHAUT~1\AppData\Local\Temp\ccjQKXWT.s 			page 128


 7206 2041 18       		.uleb128 0x18
 7207 2042 ED1D0000 		.4byte	.LASF445
 7208 2046 1F       		.byte	0x1f
 7209 2047 B301     		.2byte	0x1b3
 7210 2049 BD210000 		.4byte	0x21bd
 7211 204d 10       		.byte	0x10
 7212 204e 18       		.uleb128 0x18
 7213 204f CB060000 		.4byte	.LASF446
 7214 2053 1F       		.byte	0x1f
 7215 2054 B801     		.2byte	0x1b8
 7216 2056 FE0A0000 		.4byte	0xafe
 7217 205a 14       		.byte	0x14
 7218 205b 18       		.uleb128 0x18
 7219 205c 1B0D0000 		.4byte	.LASF447
 7220 2060 1F       		.byte	0x1f
 7221 2061 BE01     		.2byte	0x1be
 7222 2063 CA190000 		.4byte	0x19ca
 7223 2067 18       		.byte	0x18
 7224 2068 21       		.uleb128 0x21
 7225 2069 61646300 		.ascii	"adc\000"
 7226 206d 1F       		.byte	0x1f
 7227 206e C701     		.2byte	0x1c7
 7228 2070 C3210000 		.4byte	0x21c3
 7229 2074 2C       		.byte	0x2c
 7230 2075 18       		.uleb128 0x18
 7231 2076 390B0000 		.4byte	.LASF448
 7232 207a 1F       		.byte	0x1f
 7233 207b CB01     		.2byte	0x1cb
 7234 207d C9210000 		.4byte	0x21c9
 7235 2081 30       		.byte	0x30
 7236 2082 18       		.uleb128 0x18
 7237 2083 68170000 		.4byte	.LASF449
 7238 2087 1F       		.byte	0x1f
 7239 2088 CF01     		.2byte	0x1cf
 7240 208a 21090000 		.4byte	0x921
 7241 208e 34       		.byte	0x34
 7242 208f 00       		.byte	0
 7243 2090 08       		.uleb128 0x8
 7244 2091 661A0000 		.4byte	.LASF450
 7245 2095 1F       		.byte	0x1f
 7246 2096 4501     		.2byte	0x145
 7247 2098 9C200000 		.4byte	0x209c
 7248 209c 06       		.uleb128 0x6
 7249 209d 04       		.byte	0x4
 7250 209e A2200000 		.4byte	0x20a2
 7251 20a2 1F       		.uleb128 0x1f
 7252 20a3 B7200000 		.4byte	0x20b7
 7253 20a7 16       		.uleb128 0x16
 7254 20a8 B7200000 		.4byte	0x20b7
 7255 20ac 16       		.uleb128 0x16
 7256 20ad BD200000 		.4byte	0x20bd
 7257 20b1 16       		.uleb128 0x16
 7258 20b2 2C000000 		.4byte	0x2c
 7259 20b6 00       		.byte	0
 7260 20b7 06       		.uleb128 0x6
 7261 20b8 04       		.byte	0x4
 7262 20b9 F41F0000 		.4byte	0x1ff4
ARM GAS  C:\Users\PCHAUT~1\AppData\Local\Temp\ccjQKXWT.s 			page 129


 7263 20bd 06       		.uleb128 0x6
 7264 20be 04       		.byte	0x4
 7265 20bf B51F0000 		.4byte	0x1fb5
 7266 20c3 08       		.uleb128 0x8
 7267 20c4 89150000 		.4byte	.LASF451
 7268 20c8 1F       		.byte	0x1f
 7269 20c9 4E01     		.2byte	0x14e
 7270 20cb CF200000 		.4byte	0x20cf
 7271 20cf 06       		.uleb128 0x6
 7272 20d0 04       		.byte	0x4
 7273 20d1 D5200000 		.4byte	0x20d5
 7274 20d5 1F       		.uleb128 0x1f
 7275 20d6 E5200000 		.4byte	0x20e5
 7276 20da 16       		.uleb128 0x16
 7277 20db B7200000 		.4byte	0x20b7
 7278 20df 16       		.uleb128 0x16
 7279 20e0 E81F0000 		.4byte	0x1fe8
 7280 20e4 00       		.byte	0
 7281 20e5 1C       		.uleb128 0x1c
 7282 20e6 28       		.byte	0x28
 7283 20e7 1F       		.byte	0x1f
 7284 20e8 5801     		.2byte	0x158
 7285 20ea 7E210000 		.4byte	0x217e
 7286 20ee 18       		.uleb128 0x18
 7287 20ef 3F200000 		.4byte	.LASF452
 7288 20f3 1F       		.byte	0x1f
 7289 20f4 5C01     		.2byte	0x15c
 7290 20f6 0F1D0000 		.4byte	0x1d0f
 7291 20fa 00       		.byte	0
 7292 20fb 18       		.uleb128 0x18
 7293 20fc 49100000 		.4byte	.LASF453
 7294 2100 1F       		.byte	0x1f
 7295 2101 6001     		.2byte	0x160
 7296 2103 C11F0000 		.4byte	0x1fc1
 7297 2107 02       		.byte	0x2
 7298 2108 18       		.uleb128 0x18
 7299 2109 290A0000 		.4byte	.LASF454
 7300 210d 1F       		.byte	0x1f
 7301 210e 6401     		.2byte	0x164
 7302 2110 90200000 		.4byte	0x2090
 7303 2114 04       		.byte	0x4
 7304 2115 18       		.uleb128 0x18
 7305 2116 06220000 		.4byte	.LASF455
 7306 211a 1F       		.byte	0x1f
 7307 211b 6801     		.2byte	0x168
 7308 211d C3200000 		.4byte	0x20c3
 7309 2121 08       		.byte	0x8
 7310 2122 21       		.uleb128 0x21
 7311 2123 63723100 		.ascii	"cr1\000"
 7312 2127 1F       		.byte	0x1f
 7313 2128 6F01     		.2byte	0x16f
 7314 212a 21090000 		.4byte	0x921
 7315 212e 0C       		.byte	0xc
 7316 212f 21       		.uleb128 0x21
 7317 2130 63723200 		.ascii	"cr2\000"
 7318 2134 1F       		.byte	0x1f
 7319 2135 7601     		.2byte	0x176
ARM GAS  C:\Users\PCHAUT~1\AppData\Local\Temp\ccjQKXWT.s 			page 130


 7320 2137 21090000 		.4byte	0x921
 7321 213b 10       		.byte	0x10
 7322 213c 18       		.uleb128 0x18
 7323 213d 88160000 		.4byte	.LASF456
 7324 2141 1F       		.byte	0x1f
 7325 2142 7C01     		.2byte	0x17c
 7326 2144 21090000 		.4byte	0x921
 7327 2148 14       		.byte	0x14
 7328 2149 18       		.uleb128 0x18
 7329 214a 8E160000 		.4byte	.LASF457
 7330 214e 1F       		.byte	0x1f
 7331 214f 8201     		.2byte	0x182
 7332 2151 21090000 		.4byte	0x921
 7333 2155 18       		.byte	0x18
 7334 2156 18       		.uleb128 0x18
 7335 2157 66010000 		.4byte	.LASF458
 7336 215b 1F       		.byte	0x1f
 7337 215c 8701     		.2byte	0x187
 7338 215e 21090000 		.4byte	0x921
 7339 2162 1C       		.byte	0x1c
 7340 2163 18       		.uleb128 0x18
 7341 2164 07230000 		.4byte	.LASF459
 7342 2168 1F       		.byte	0x1f
 7343 2169 8C01     		.2byte	0x18c
 7344 216b 21090000 		.4byte	0x921
 7345 216f 20       		.byte	0x20
 7346 2170 18       		.uleb128 0x18
 7347 2171 0C230000 		.4byte	.LASF460
 7348 2175 1F       		.byte	0x1f
 7349 2176 9101     		.2byte	0x191
 7350 2178 21090000 		.4byte	0x921
 7351 217c 24       		.byte	0x24
 7352 217d 00       		.byte	0
 7353 217e 08       		.uleb128 0x8
 7354 217f 59050000 		.4byte	.LASF461
 7355 2183 1F       		.byte	0x1f
 7356 2184 9201     		.2byte	0x192
 7357 2186 E5200000 		.4byte	0x20e5
 7358 218a 04       		.uleb128 0x4
 7359 218b 7E210000 		.4byte	0x217e
 7360 218f 1C       		.uleb128 0x1c
 7361 2190 04       		.byte	0x4
 7362 2191 1F       		.byte	0x1f
 7363 2192 9801     		.2byte	0x198
 7364 2194 A6210000 		.4byte	0x21a6
 7365 2198 18       		.uleb128 0x18
 7366 2199 2D230000 		.4byte	.LASF462
 7367 219d 1F       		.byte	0x1f
 7368 219e 9901     		.2byte	0x199
 7369 21a0 21090000 		.4byte	0x921
 7370 21a4 00       		.byte	0
 7371 21a5 00       		.byte	0
 7372 21a6 08       		.uleb128 0x8
 7373 21a7 690F0000 		.4byte	.LASF463
 7374 21ab 1F       		.byte	0x1f
 7375 21ac 9A01     		.2byte	0x19a
 7376 21ae 8F210000 		.4byte	0x218f
ARM GAS  C:\Users\PCHAUT~1\AppData\Local\Temp\ccjQKXWT.s 			page 131


 7377 21b2 04       		.uleb128 0x4
 7378 21b3 A6210000 		.4byte	0x21a6
 7379 21b7 06       		.uleb128 0x6
 7380 21b8 04       		.byte	0x4
 7381 21b9 B2210000 		.4byte	0x21b2
 7382 21bd 06       		.uleb128 0x6
 7383 21be 04       		.byte	0x4
 7384 21bf 8A210000 		.4byte	0x218a
 7385 21c3 06       		.uleb128 0x6
 7386 21c4 04       		.byte	0x4
 7387 21c5 910E0000 		.4byte	0xe91
 7388 21c9 06       		.uleb128 0x6
 7389 21ca 04       		.byte	0x4
 7390 21cb DE1B0000 		.4byte	0x1bde
 7391 21cf 20       		.uleb128 0x20
 7392 21d0 51170000 		.4byte	.LASF464
 7393 21d4 1F       		.byte	0x1f
 7394 21d5 1402     		.2byte	0x214
 7395 21d7 F41F0000 		.4byte	0x1ff4
 7396 21db 20       		.uleb128 0x20
 7397 21dc 57170000 		.4byte	.LASF465
 7398 21e0 1F       		.byte	0x1f
 7399 21e1 1802     		.2byte	0x218
 7400 21e3 F41F0000 		.4byte	0x1ff4
 7401 21e7 20       		.uleb128 0x20
 7402 21e8 5D170000 		.4byte	.LASF466
 7403 21ec 1F       		.byte	0x1f
 7404 21ed 1C02     		.2byte	0x21c
 7405 21ef F41F0000 		.4byte	0x1ff4
 7406 21f3 27       		.uleb128 0x27
 7407 21f4 07       		.byte	0x7
 7408 21f5 01       		.byte	0x1
 7409 21f6 63000000 		.4byte	0x63
 7410 21fa 20       		.byte	0x20
 7411 21fb 5F       		.byte	0x5f
 7412 21fc 1F220000 		.4byte	0x221f
 7413 2200 28       		.uleb128 0x28
 7414 2201 D00D0000 		.4byte	.LASF467
 7415 2205 00       		.byte	0
 7416 2206 28       		.uleb128 0x28
 7417 2207 F7000000 		.4byte	.LASF468
 7418 220b 01       		.byte	0x1
 7419 220c 28       		.uleb128 0x28
 7420 220d 4A000000 		.4byte	.LASF469
 7421 2211 02       		.byte	0x2
 7422 2212 28       		.uleb128 0x28
 7423 2213 56180000 		.4byte	.LASF470
 7424 2217 03       		.byte	0x3
 7425 2218 28       		.uleb128 0x28
 7426 2219 BE0A0000 		.4byte	.LASF471
 7427 221d 04       		.byte	0x4
 7428 221e 00       		.byte	0
 7429 221f 03       		.uleb128 0x3
 7430 2220 C9050000 		.4byte	.LASF472
 7431 2224 20       		.byte	0x20
 7432 2225 65       		.byte	0x65
 7433 2226 F3210000 		.4byte	0x21f3
ARM GAS  C:\Users\PCHAUT~1\AppData\Local\Temp\ccjQKXWT.s 			page 132


 7434 222a 0B       		.uleb128 0xb
 7435 222b EB080000 		.4byte	0x8eb
 7436 222f 3A220000 		.4byte	0x223a
 7437 2233 0C       		.uleb128 0xc
 7438 2234 3C000000 		.4byte	0x3c
 7439 2238 07       		.byte	0x7
 7440 2239 00       		.byte	0
 7441 223a 0D       		.uleb128 0xd
 7442 223b 08       		.byte	0x8
 7443 223c 21       		.byte	0x21
 7444 223d F4       		.byte	0xf4
 7445 223e 5C220000 		.4byte	0x225c
 7446 2242 11       		.uleb128 0x11
 7447 2243 6D637200 		.ascii	"mcr\000"
 7448 2247 21       		.byte	0x21
 7449 2248 FA       		.byte	0xfa
 7450 2249 21090000 		.4byte	0x921
 7451 224d 00       		.byte	0
 7452 224e 21       		.uleb128 0x21
 7453 224f 62747200 		.ascii	"btr\000"
 7454 2253 21       		.byte	0x21
 7455 2254 0001     		.2byte	0x100
 7456 2256 21090000 		.4byte	0x921
 7457 225a 04       		.byte	0x4
 7458 225b 00       		.byte	0
 7459 225c 08       		.uleb128 0x8
 7460 225d FA180000 		.4byte	.LASF473
 7461 2261 21       		.byte	0x21
 7462 2262 0101     		.2byte	0x101
 7463 2264 3A220000 		.4byte	0x223a
 7464 2268 04       		.uleb128 0x4
 7465 2269 5C220000 		.4byte	0x225c
 7466 226d 1C       		.uleb128 0x1c
 7467 226e 30       		.byte	0x30
 7468 226f 21       		.byte	0x21
 7469 2270 0601     		.2byte	0x106
 7470 2272 F9220000 		.4byte	0x22f9
 7471 2276 18       		.uleb128 0x18
 7472 2277 A7150000 		.4byte	.LASF441
 7473 227b 21       		.byte	0x21
 7474 227c 0A01     		.2byte	0x10a
 7475 227e 1F220000 		.4byte	0x221f
 7476 2282 00       		.byte	0
 7477 2283 18       		.uleb128 0x18
 7478 2284 171B0000 		.4byte	.LASF442
 7479 2288 21       		.byte	0x21
 7480 2289 0E01     		.2byte	0x10e
 7481 228b F9220000 		.4byte	0x22f9
 7482 228f 04       		.byte	0x4
 7483 2290 18       		.uleb128 0x18
 7484 2291 5E0A0000 		.4byte	.LASF474
 7485 2295 21       		.byte	0x21
 7486 2296 1201     		.2byte	0x112
 7487 2298 330B0000 		.4byte	0xb33
 7488 229c 08       		.byte	0x8
 7489 229d 18       		.uleb128 0x18
 7490 229e C11D0000 		.4byte	.LASF475
ARM GAS  C:\Users\PCHAUT~1\AppData\Local\Temp\ccjQKXWT.s 			page 133


 7491 22a2 21       		.byte	0x21
 7492 22a3 1601     		.2byte	0x116
 7493 22a5 330B0000 		.4byte	0xb33
 7494 22a9 10       		.byte	0x10
 7495 22aa 18       		.uleb128 0x18
 7496 22ab D6180000 		.4byte	.LASF476
 7497 22af 21       		.byte	0x21
 7498 22b0 2301     		.2byte	0x123
 7499 22b2 4E1A0000 		.4byte	0x1a4e
 7500 22b6 18       		.byte	0x18
 7501 22b7 18       		.uleb128 0x18
 7502 22b8 1D0C0000 		.4byte	.LASF477
 7503 22bc 21       		.byte	0x21
 7504 22bd 2A01     		.2byte	0x12a
 7505 22bf 4E1A0000 		.4byte	0x1a4e
 7506 22c3 1C       		.byte	0x1c
 7507 22c4 18       		.uleb128 0x18
 7508 22c5 3D100000 		.4byte	.LASF478
 7509 22c9 21       		.byte	0x21
 7510 22ca 3001     		.2byte	0x130
 7511 22cc 4E1A0000 		.4byte	0x1a4e
 7512 22d0 20       		.byte	0x20
 7513 22d1 18       		.uleb128 0x18
 7514 22d2 8B030000 		.4byte	.LASF479
 7515 22d6 21       		.byte	0x21
 7516 22d7 3501     		.2byte	0x135
 7517 22d9 4E1A0000 		.4byte	0x1a4e
 7518 22dd 24       		.byte	0x24
 7519 22de 18       		.uleb128 0x18
 7520 22df 140A0000 		.4byte	.LASF480
 7521 22e3 21       		.byte	0x21
 7522 22e4 3901     		.2byte	0x139
 7523 22e6 4E1A0000 		.4byte	0x1a4e
 7524 22ea 28       		.byte	0x28
 7525 22eb 21       		.uleb128 0x21
 7526 22ec 63616E00 		.ascii	"can\000"
 7527 22f0 21       		.byte	0x21
 7528 22f1 3F01     		.2byte	0x13f
 7529 22f3 FF220000 		.4byte	0x22ff
 7530 22f7 2C       		.byte	0x2c
 7531 22f8 00       		.byte	0
 7532 22f9 06       		.uleb128 0x6
 7533 22fa 04       		.byte	0x4
 7534 22fb 68220000 		.4byte	0x2268
 7535 22ff 06       		.uleb128 0x6
 7536 2300 04       		.byte	0x4
 7537 2301 DA100000 		.4byte	0x10da
 7538 2305 08       		.uleb128 0x8
 7539 2306 E1030000 		.4byte	.LASF481
 7540 230a 21       		.byte	0x21
 7541 230b 4001     		.2byte	0x140
 7542 230d 6D220000 		.4byte	0x226d
 7543 2311 20       		.uleb128 0x20
 7544 2312 371F0000 		.4byte	.LASF482
 7545 2316 21       		.byte	0x21
 7546 2317 4B01     		.2byte	0x14b
 7547 2319 05230000 		.4byte	0x2305
ARM GAS  C:\Users\PCHAUT~1\AppData\Local\Temp\ccjQKXWT.s 			page 134


 7548 231d 27       		.uleb128 0x27
 7549 231e 07       		.byte	0x7
 7550 231f 01       		.byte	0x1
 7551 2320 63000000 		.4byte	0x63
 7552 2324 22       		.byte	0x22
 7553 2325 46       		.byte	0x46
 7554 2326 4F230000 		.4byte	0x234f
 7555 232a 28       		.uleb128 0x28
 7556 232b 5E1B0000 		.4byte	.LASF483
 7557 232f 00       		.byte	0
 7558 2330 28       		.uleb128 0x28
 7559 2331 76200000 		.4byte	.LASF484
 7560 2335 01       		.byte	0x1
 7561 2336 28       		.uleb128 0x28
 7562 2337 D90E0000 		.4byte	.LASF485
 7563 233b 02       		.byte	0x2
 7564 233c 28       		.uleb128 0x28
 7565 233d 9C150000 		.4byte	.LASF486
 7566 2341 03       		.byte	0x3
 7567 2342 28       		.uleb128 0x28
 7568 2343 F21A0000 		.4byte	.LASF487
 7569 2347 04       		.byte	0x4
 7570 2348 28       		.uleb128 0x28
 7571 2349 AE0F0000 		.4byte	.LASF488
 7572 234d 05       		.byte	0x5
 7573 234e 00       		.byte	0
 7574 234f 03       		.uleb128 0x3
 7575 2350 87180000 		.4byte	.LASF489
 7576 2354 22       		.byte	0x22
 7577 2355 4D       		.byte	0x4d
 7578 2356 1D230000 		.4byte	0x231d
 7579 235a 0D       		.uleb128 0xd
 7580 235b 1C       		.byte	0x1c
 7581 235c 23       		.byte	0x23
 7582 235d F9       		.byte	0xf9
 7583 235e BD230000 		.4byte	0x23bd
 7584 2362 11       		.uleb128 0x11
 7585 2363 64616300 		.ascii	"dac\000"
 7586 2367 23       		.byte	0x23
 7587 2368 FD       		.byte	0xfd
 7588 2369 BD230000 		.4byte	0x23bd
 7589 236d 00       		.byte	0
 7590 236e 18       		.uleb128 0x18
 7591 236f E9170000 		.4byte	.LASF490
 7592 2373 23       		.byte	0x23
 7593 2374 0101     		.2byte	0x101
 7594 2376 21090000 		.4byte	0x921
 7595 237a 04       		.byte	0x4
 7596 237b 18       		.uleb128 0x18
 7597 237c D2060000 		.4byte	.LASF491
 7598 2380 23       		.byte	0x23
 7599 2381 0501     		.2byte	0x105
 7600 2383 21090000 		.4byte	0x921
 7601 2387 08       		.byte	0x8
 7602 2388 18       		.uleb128 0x18
 7603 2389 0E020000 		.4byte	.LASF492
 7604 238d 23       		.byte	0x23
ARM GAS  C:\Users\PCHAUT~1\AppData\Local\Temp\ccjQKXWT.s 			page 135


 7605 238e 0901     		.2byte	0x109
 7606 2390 21090000 		.4byte	0x921
 7607 2394 0C       		.byte	0xc
 7608 2395 21       		.uleb128 0x21
 7609 2396 646D6100 		.ascii	"dma\000"
 7610 239a 23       		.byte	0x23
 7611 239b 0D01     		.2byte	0x10d
 7612 239d C9210000 		.4byte	0x21c9
 7613 23a1 10       		.byte	0x10
 7614 23a2 18       		.uleb128 0x18
 7615 23a3 68170000 		.4byte	.LASF449
 7616 23a7 23       		.byte	0x23
 7617 23a8 1101     		.2byte	0x111
 7618 23aa 21090000 		.4byte	0x921
 7619 23ae 14       		.byte	0x14
 7620 23af 18       		.uleb128 0x18
 7621 23b0 20170000 		.4byte	.LASF493
 7622 23b4 23       		.byte	0x23
 7623 23b5 1501     		.2byte	0x115
 7624 23b7 21090000 		.4byte	0x921
 7625 23bb 18       		.byte	0x18
 7626 23bc 00       		.byte	0
 7627 23bd 06       		.uleb128 0x6
 7628 23be 04       		.byte	0x4
 7629 23bf A4110000 		.4byte	0x11a4
 7630 23c3 08       		.uleb128 0x8
 7631 23c4 3E030000 		.4byte	.LASF494
 7632 23c8 23       		.byte	0x23
 7633 23c9 1601     		.2byte	0x116
 7634 23cb 5A230000 		.4byte	0x235a
 7635 23cf 04       		.uleb128 0x4
 7636 23d0 C3230000 		.4byte	0x23c3
 7637 23d4 08       		.uleb128 0x8
 7638 23d5 260D0000 		.4byte	.LASF495
 7639 23d9 23       		.byte	0x23
 7640 23da 1B01     		.2byte	0x11b
 7641 23dc E0230000 		.4byte	0x23e0
 7642 23e0 1B       		.uleb128 0x1b
 7643 23e1 260D0000 		.4byte	.LASF495
 7644 23e5 30       		.byte	0x30
 7645 23e6 23       		.byte	0x23
 7646 23e7 7B01     		.2byte	0x17b
 7647 23e9 56240000 		.4byte	0x2456
 7648 23ed 18       		.uleb128 0x18
 7649 23ee A7150000 		.4byte	.LASF441
 7650 23f2 23       		.byte	0x23
 7651 23f3 7F01     		.2byte	0x17f
 7652 23f5 4F230000 		.4byte	0x234f
 7653 23f9 00       		.byte	0
 7654 23fa 18       		.uleb128 0x18
 7655 23fb ED1D0000 		.4byte	.LASF445
 7656 23ff 23       		.byte	0x23
 7657 2400 8301     		.2byte	0x183
 7658 2402 94250000 		.4byte	0x2594
 7659 2406 04       		.byte	0x4
 7660 2407 18       		.uleb128 0x18
 7661 2408 FB010000 		.4byte	.LASF443
ARM GAS  C:\Users\PCHAUT~1\AppData\Local\Temp\ccjQKXWT.s 			page 136


 7662 240c 23       		.byte	0x23
 7663 240d 8701     		.2byte	0x187
 7664 240f BB240000 		.4byte	0x24bb
 7665 2413 08       		.byte	0x8
 7666 2414 18       		.uleb128 0x18
 7667 2415 38180000 		.4byte	.LASF444
 7668 2419 23       		.byte	0x23
 7669 241a 8B01     		.2byte	0x18b
 7670 241c 06090000 		.4byte	0x906
 7671 2420 0C       		.byte	0xc
 7672 2421 18       		.uleb128 0x18
 7673 2422 171B0000 		.4byte	.LASF442
 7674 2426 23       		.byte	0x23
 7675 2427 8F01     		.2byte	0x18f
 7676 2429 9A250000 		.4byte	0x259a
 7677 242d 10       		.byte	0x10
 7678 242e 18       		.uleb128 0x18
 7679 242f CB060000 		.4byte	.LASF446
 7680 2433 23       		.byte	0x23
 7681 2434 9401     		.2byte	0x194
 7682 2436 FE0A0000 		.4byte	0xafe
 7683 243a 14       		.byte	0x14
 7684 243b 18       		.uleb128 0x18
 7685 243c 1B0D0000 		.4byte	.LASF447
 7686 2440 23       		.byte	0x23
 7687 2441 9A01     		.2byte	0x19a
 7688 2443 CA190000 		.4byte	0x19ca
 7689 2447 18       		.byte	0x18
 7690 2448 18       		.uleb128 0x18
 7691 2449 D0100000 		.4byte	.LASF496
 7692 244d 23       		.byte	0x23
 7693 244e A301     		.2byte	0x1a3
 7694 2450 A0250000 		.4byte	0x25a0
 7695 2454 2C       		.byte	0x2c
 7696 2455 00       		.byte	0
 7697 2456 08       		.uleb128 0x8
 7698 2457 A8180000 		.4byte	.LASF497
 7699 245b 23       		.byte	0x23
 7700 245c 2001     		.2byte	0x120
 7701 245e 06090000 		.4byte	0x906
 7702 2462 04       		.uleb128 0x4
 7703 2463 56240000 		.4byte	0x2456
 7704 2467 2A       		.uleb128 0x2a
 7705 2468 07       		.byte	0x7
 7706 2469 01       		.byte	0x1
 7707 246a 63000000 		.4byte	0x63
 7708 246e 23       		.byte	0x23
 7709 246f 2701     		.2byte	0x127
 7710 2471 82240000 		.4byte	0x2482
 7711 2475 28       		.uleb128 0x28
 7712 2476 2B190000 		.4byte	.LASF498
 7713 247a 00       		.byte	0
 7714 247b 28       		.uleb128 0x28
 7715 247c F8090000 		.4byte	.LASF499
 7716 2480 01       		.byte	0x1
 7717 2481 00       		.byte	0
 7718 2482 08       		.uleb128 0x8
ARM GAS  C:\Users\PCHAUT~1\AppData\Local\Temp\ccjQKXWT.s 			page 137


 7719 2483 18110000 		.4byte	.LASF500
 7720 2487 23       		.byte	0x23
 7721 2488 2A01     		.2byte	0x12a
 7722 248a 67240000 		.4byte	0x2467
 7723 248e 08       		.uleb128 0x8
 7724 248f 3E070000 		.4byte	.LASF501
 7725 2493 23       		.byte	0x23
 7726 2494 3401     		.2byte	0x134
 7727 2496 9A240000 		.4byte	0x249a
 7728 249a 06       		.uleb128 0x6
 7729 249b 04       		.byte	0x4
 7730 249c A0240000 		.4byte	0x24a0
 7731 24a0 1F       		.uleb128 0x1f
 7732 24a1 B5240000 		.4byte	0x24b5
 7733 24a5 16       		.uleb128 0x16
 7734 24a6 B5240000 		.4byte	0x24b5
 7735 24aa 16       		.uleb128 0x16
 7736 24ab BB240000 		.4byte	0x24bb
 7737 24af 16       		.uleb128 0x16
 7738 24b0 2C000000 		.4byte	0x2c
 7739 24b4 00       		.byte	0
 7740 24b5 06       		.uleb128 0x6
 7741 24b6 04       		.byte	0x4
 7742 24b7 D4230000 		.4byte	0x23d4
 7743 24bb 06       		.uleb128 0x6
 7744 24bc 04       		.byte	0x4
 7745 24bd 62240000 		.4byte	0x2462
 7746 24c1 08       		.uleb128 0x8
 7747 24c2 8D1F0000 		.4byte	.LASF502
 7748 24c6 23       		.byte	0x23
 7749 24c7 3F01     		.2byte	0x13f
 7750 24c9 CD240000 		.4byte	0x24cd
 7751 24cd 06       		.uleb128 0x6
 7752 24ce 04       		.byte	0x4
 7753 24cf D3240000 		.4byte	0x24d3
 7754 24d3 1F       		.uleb128 0x1f
 7755 24d4 E3240000 		.4byte	0x24e3
 7756 24d8 16       		.uleb128 0x16
 7757 24d9 B5240000 		.4byte	0x24b5
 7758 24dd 16       		.uleb128 0x16
 7759 24de 82240000 		.4byte	0x2482
 7760 24e2 00       		.byte	0
 7761 24e3 2A       		.uleb128 0x2a
 7762 24e4 07       		.byte	0x7
 7763 24e5 01       		.byte	0x1
 7764 24e6 63000000 		.4byte	0x63
 7765 24ea 23       		.byte	0x23
 7766 24eb 4401     		.2byte	0x144
 7767 24ed 04250000 		.4byte	0x2504
 7768 24f1 28       		.uleb128 0x28
 7769 24f2 B81B0000 		.4byte	.LASF503
 7770 24f6 00       		.byte	0
 7771 24f7 28       		.uleb128 0x28
 7772 24f8 A8120000 		.4byte	.LASF504
 7773 24fc 01       		.byte	0x1
 7774 24fd 28       		.uleb128 0x28
 7775 24fe 30160000 		.4byte	.LASF505
ARM GAS  C:\Users\PCHAUT~1\AppData\Local\Temp\ccjQKXWT.s 			page 138


 7776 2502 02       		.byte	0x2
 7777 2503 00       		.byte	0
 7778 2504 08       		.uleb128 0x8
 7779 2505 2C0B0000 		.4byte	.LASF506
 7780 2509 23       		.byte	0x23
 7781 250a 4D01     		.2byte	0x14d
 7782 250c E3240000 		.4byte	0x24e3
 7783 2510 1C       		.uleb128 0x1c
 7784 2511 10       		.byte	0x10
 7785 2512 23       		.byte	0x23
 7786 2513 5201     		.2byte	0x152
 7787 2515 4E250000 		.4byte	0x254e
 7788 2519 18       		.uleb128 0x18
 7789 251a 49100000 		.4byte	.LASF453
 7790 251e 23       		.byte	0x23
 7791 251f 5601     		.2byte	0x156
 7792 2521 21090000 		.4byte	0x921
 7793 2525 00       		.byte	0
 7794 2526 18       		.uleb128 0x18
 7795 2527 290A0000 		.4byte	.LASF454
 7796 252b 23       		.byte	0x23
 7797 252c 5A01     		.2byte	0x15a
 7798 252e 8E240000 		.4byte	0x248e
 7799 2532 04       		.byte	0x4
 7800 2533 18       		.uleb128 0x18
 7801 2534 06220000 		.4byte	.LASF455
 7802 2538 23       		.byte	0x23
 7803 2539 5E01     		.2byte	0x15e
 7804 253b C1240000 		.4byte	0x24c1
 7805 253f 08       		.byte	0x8
 7806 2540 18       		.uleb128 0x18
 7807 2541 1A140000 		.4byte	.LASF507
 7808 2545 23       		.byte	0x23
 7809 2546 6601     		.2byte	0x166
 7810 2548 21090000 		.4byte	0x921
 7811 254c 0C       		.byte	0xc
 7812 254d 00       		.byte	0
 7813 254e 08       		.uleb128 0x8
 7814 254f E1110000 		.4byte	.LASF508
 7815 2553 23       		.byte	0x23
 7816 2554 6701     		.2byte	0x167
 7817 2556 10250000 		.4byte	0x2510
 7818 255a 04       		.uleb128 0x4
 7819 255b 4E250000 		.4byte	0x254e
 7820 255f 1C       		.uleb128 0x1c
 7821 2560 04       		.byte	0x4
 7822 2561 23       		.byte	0x23
 7823 2562 6C01     		.2byte	0x16c
 7824 2564 83250000 		.4byte	0x2583
 7825 2568 18       		.uleb128 0x18
 7826 2569 700B0000 		.4byte	.LASF509
 7827 256d 23       		.byte	0x23
 7828 256e 7101     		.2byte	0x171
 7829 2570 56240000 		.4byte	0x2456
 7830 2574 00       		.byte	0
 7831 2575 18       		.uleb128 0x18
 7832 2576 2F010000 		.4byte	.LASF510
ARM GAS  C:\Users\PCHAUT~1\AppData\Local\Temp\ccjQKXWT.s 			page 139


 7833 257a 23       		.byte	0x23
 7834 257b 7501     		.2byte	0x175
 7835 257d 04250000 		.4byte	0x2504
 7836 2581 02       		.byte	0x2
 7837 2582 00       		.byte	0
 7838 2583 08       		.uleb128 0x8
 7839 2584 300D0000 		.4byte	.LASF511
 7840 2588 23       		.byte	0x23
 7841 2589 7601     		.2byte	0x176
 7842 258b 5F250000 		.4byte	0x255f
 7843 258f 04       		.uleb128 0x4
 7844 2590 83250000 		.4byte	0x2583
 7845 2594 06       		.uleb128 0x6
 7846 2595 04       		.byte	0x4
 7847 2596 5A250000 		.4byte	0x255a
 7848 259a 06       		.uleb128 0x6
 7849 259b 04       		.byte	0x4
 7850 259c 8F250000 		.4byte	0x258f
 7851 25a0 06       		.uleb128 0x6
 7852 25a1 04       		.byte	0x4
 7853 25a2 CF230000 		.4byte	0x23cf
 7854 25a6 20       		.uleb128 0x20
 7855 25a7 DB030000 		.4byte	.LASF512
 7856 25ab 23       		.byte	0x23
 7857 25ac B301     		.2byte	0x1b3
 7858 25ae D4230000 		.4byte	0x23d4
 7859 25b2 27       		.uleb128 0x27
 7860 25b3 07       		.byte	0x7
 7861 25b4 01       		.byte	0x1
 7862 25b5 63000000 		.4byte	0x63
 7863 25b9 24       		.byte	0x24
 7864 25ba 3F       		.byte	0x3f
 7865 25bb D2250000 		.4byte	0x25d2
 7866 25bf 28       		.uleb128 0x28
 7867 25c0 B30A0000 		.4byte	.LASF513
 7868 25c4 00       		.byte	0
 7869 25c5 28       		.uleb128 0x28
 7870 25c6 00240000 		.4byte	.LASF514
 7871 25ca 01       		.byte	0x1
 7872 25cb 28       		.uleb128 0x28
 7873 25cc 4C020000 		.4byte	.LASF515
 7874 25d0 02       		.byte	0x2
 7875 25d1 00       		.byte	0
 7876 25d2 03       		.uleb128 0x3
 7877 25d3 851A0000 		.4byte	.LASF516
 7878 25d7 24       		.byte	0x24
 7879 25d8 43       		.byte	0x43
 7880 25d9 B2250000 		.4byte	0x25b2
 7881 25dd 03       		.uleb128 0x3
 7882 25de 53080000 		.4byte	.LASF517
 7883 25e2 24       		.byte	0x24
 7884 25e3 48       		.byte	0x48
 7885 25e4 E8250000 		.4byte	0x25e8
 7886 25e8 10       		.uleb128 0x10
 7887 25e9 53080000 		.4byte	.LASF517
 7888 25ed 08       		.byte	0x8
 7889 25ee 25       		.byte	0x25
ARM GAS  C:\Users\PCHAUT~1\AppData\Local\Temp\ccjQKXWT.s 			page 140


 7890 25ef 71       		.byte	0x71
 7891 25f0 0D260000 		.4byte	0x260d
 7892 25f4 0E       		.uleb128 0xe
 7893 25f5 A7150000 		.4byte	.LASF441
 7894 25f9 25       		.byte	0x25
 7895 25fa 75       		.byte	0x75
 7896 25fb D2250000 		.4byte	0x25d2
 7897 25ff 00       		.byte	0
 7898 2600 0E       		.uleb128 0xe
 7899 2601 171B0000 		.4byte	.LASF442
 7900 2605 25       		.byte	0x25
 7901 2606 79       		.byte	0x79
 7902 2607 9F260000 		.4byte	0x269f
 7903 260b 04       		.byte	0x4
 7904 260c 00       		.byte	0
 7905 260d 03       		.uleb128 0x3
 7906 260e 49220000 		.4byte	.LASF518
 7907 2612 25       		.byte	0x25
 7908 2613 47       		.byte	0x47
 7909 2614 21090000 		.4byte	0x921
 7910 2618 03       		.uleb128 0x3
 7911 2619 B31D0000 		.4byte	.LASF519
 7912 261d 25       		.byte	0x25
 7913 261e 4F       		.byte	0x4f
 7914 261f 23260000 		.4byte	0x2623
 7915 2623 06       		.uleb128 0x6
 7916 2624 04       		.byte	0x4
 7917 2625 29260000 		.4byte	0x2629
 7918 2629 1F       		.uleb128 0x1f
 7919 262a 39260000 		.4byte	0x2639
 7920 262e 16       		.uleb128 0x16
 7921 262f 39260000 		.4byte	0x2639
 7922 2633 16       		.uleb128 0x16
 7923 2634 0D260000 		.4byte	0x260d
 7924 2638 00       		.byte	0
 7925 2639 06       		.uleb128 0x6
 7926 263a 04       		.byte	0x4
 7927 263b DD250000 		.4byte	0x25dd
 7928 263f 0D       		.uleb128 0xd
 7929 2640 08       		.byte	0x8
 7930 2641 25       		.byte	0x25
 7931 2642 54       		.byte	0x54
 7932 2643 5F260000 		.4byte	0x265f
 7933 2647 0E       		.uleb128 0xe
 7934 2648 38080000 		.4byte	.LASF520
 7935 264c 25       		.byte	0x25
 7936 264d 58       		.byte	0x58
 7937 264e 21090000 		.4byte	0x921
 7938 2652 00       		.byte	0
 7939 2653 11       		.uleb128 0x11
 7940 2654 636200   		.ascii	"cb\000"
 7941 2657 25       		.byte	0x25
 7942 2658 5F       		.byte	0x5f
 7943 2659 18260000 		.4byte	0x2618
 7944 265d 04       		.byte	0x4
 7945 265e 00       		.byte	0
 7946 265f 03       		.uleb128 0x3
ARM GAS  C:\Users\PCHAUT~1\AppData\Local\Temp\ccjQKXWT.s 			page 141


 7947 2660 C00E0000 		.4byte	.LASF521
 7948 2664 25       		.byte	0x25
 7949 2665 60       		.byte	0x60
 7950 2666 3F260000 		.4byte	0x263f
 7951 266a 0D       		.uleb128 0xd
 7952 266b B8       		.byte	0xb8
 7953 266c 25       		.byte	0x25
 7954 266d 66       		.byte	0x66
 7955 266e 7F260000 		.4byte	0x267f
 7956 2672 0E       		.uleb128 0xe
 7957 2673 AD1F0000 		.4byte	.LASF522
 7958 2677 25       		.byte	0x25
 7959 2678 6A       		.byte	0x6a
 7960 2679 7F260000 		.4byte	0x267f
 7961 267d 00       		.byte	0
 7962 267e 00       		.byte	0
 7963 267f 0B       		.uleb128 0xb
 7964 2680 5F260000 		.4byte	0x265f
 7965 2684 8F260000 		.4byte	0x268f
 7966 2688 0C       		.uleb128 0xc
 7967 2689 3C000000 		.4byte	0x3c
 7968 268d 16       		.byte	0x16
 7969 268e 00       		.byte	0
 7970 268f 03       		.uleb128 0x3
 7971 2690 BA1C0000 		.4byte	.LASF523
 7972 2694 25       		.byte	0x25
 7973 2695 6C       		.byte	0x6c
 7974 2696 6A260000 		.4byte	0x266a
 7975 269a 04       		.uleb128 0x4
 7976 269b 8F260000 		.4byte	0x268f
 7977 269f 06       		.uleb128 0x6
 7978 26a0 04       		.byte	0x4
 7979 26a1 9A260000 		.4byte	0x269a
 7980 26a5 23       		.uleb128 0x23
 7981 26a6 BA050000 		.4byte	.LASF524
 7982 26aa 25       		.byte	0x25
 7983 26ab 86       		.byte	0x86
 7984 26ac DD250000 		.4byte	0x25dd
 7985 26b0 27       		.uleb128 0x27
 7986 26b1 07       		.byte	0x7
 7987 26b2 01       		.byte	0x1
 7988 26b3 63000000 		.4byte	0x63
 7989 26b7 26       		.byte	0x26
 7990 26b8 31       		.byte	0x31
 7991 26b9 DC260000 		.4byte	0x26dc
 7992 26bd 28       		.uleb128 0x28
 7993 26be 44160000 		.4byte	.LASF525
 7994 26c2 00       		.byte	0
 7995 26c3 28       		.uleb128 0x28
 7996 26c4 5B140000 		.4byte	.LASF526
 7997 26c8 01       		.byte	0x1
 7998 26c9 28       		.uleb128 0x28
 7999 26ca 7D180000 		.4byte	.LASF527
 8000 26ce 02       		.byte	0x2
 8001 26cf 28       		.uleb128 0x28
 8002 26d0 82070000 		.4byte	.LASF528
 8003 26d4 03       		.byte	0x3
ARM GAS  C:\Users\PCHAUT~1\AppData\Local\Temp\ccjQKXWT.s 			page 142


 8004 26d5 28       		.uleb128 0x28
 8005 26d6 4C040000 		.4byte	.LASF529
 8006 26da 04       		.byte	0x4
 8007 26db 00       		.byte	0
 8008 26dc 03       		.uleb128 0x3
 8009 26dd 10130000 		.4byte	.LASF530
 8010 26e1 26       		.byte	0x26
 8011 26e2 37       		.byte	0x37
 8012 26e3 B0260000 		.4byte	0x26b0
 8013 26e7 03       		.uleb128 0x3
 8014 26e8 2B170000 		.4byte	.LASF531
 8015 26ec 26       		.byte	0x26
 8016 26ed 3C       		.byte	0x3c
 8017 26ee F2260000 		.4byte	0x26f2
 8018 26f2 1B       		.uleb128 0x1b
 8019 26f3 2B170000 		.4byte	.LASF531
 8020 26f7 10       		.byte	0x10
 8021 26f8 27       		.byte	0x27
 8022 26f9 9701     		.2byte	0x197
 8023 26fb 34270000 		.4byte	0x2734
 8024 26ff 18       		.uleb128 0x18
 8025 2700 A7150000 		.4byte	.LASF441
 8026 2704 27       		.byte	0x27
 8027 2705 9B01     		.2byte	0x19b
 8028 2707 DC260000 		.4byte	0x26dc
 8029 270b 00       		.byte	0
 8030 270c 18       		.uleb128 0x18
 8031 270d 171B0000 		.4byte	.LASF442
 8032 2711 27       		.byte	0x27
 8033 2712 9F01     		.2byte	0x19f
 8034 2714 C9280000 		.4byte	0x28c9
 8035 2718 04       		.byte	0x4
 8036 2719 18       		.uleb128 0x18
 8037 271a 440D0000 		.4byte	.LASF532
 8038 271e 27       		.byte	0x27
 8039 271f A701     		.2byte	0x1a7
 8040 2721 21090000 		.4byte	0x921
 8041 2725 08       		.byte	0x8
 8042 2726 21       		.uleb128 0x21
 8043 2727 74696D00 		.ascii	"tim\000"
 8044 272b 27       		.byte	0x27
 8045 272c AB01     		.2byte	0x1ab
 8046 272e CF280000 		.4byte	0x28cf
 8047 2732 0C       		.byte	0xc
 8048 2733 00       		.byte	0
 8049 2734 03       		.uleb128 0x3
 8050 2735 3A110000 		.4byte	.LASF533
 8051 2739 26       		.byte	0x26
 8052 273a 43       		.byte	0x43
 8053 273b 3F270000 		.4byte	0x273f
 8054 273f 06       		.uleb128 0x6
 8055 2740 04       		.byte	0x4
 8056 2741 45270000 		.4byte	0x2745
 8057 2745 1F       		.uleb128 0x1f
 8058 2746 50270000 		.4byte	0x2750
 8059 274a 16       		.uleb128 0x16
 8060 274b 50270000 		.4byte	0x2750
ARM GAS  C:\Users\PCHAUT~1\AppData\Local\Temp\ccjQKXWT.s 			page 143


 8061 274f 00       		.byte	0
 8062 2750 06       		.uleb128 0x6
 8063 2751 04       		.byte	0x4
 8064 2752 E7260000 		.4byte	0x26e7
 8065 2756 1C       		.uleb128 0x1c
 8066 2757 60       		.byte	0x60
 8067 2758 28       		.byte	0x28
 8068 2759 9E01     		.2byte	0x19e
 8069 275b 62280000 		.4byte	0x2862
 8070 275f 21       		.uleb128 0x21
 8071 2760 43523100 		.ascii	"CR1\000"
 8072 2764 28       		.byte	0x28
 8073 2765 9F01     		.2byte	0x19f
 8074 2767 2C090000 		.4byte	0x92c
 8075 276b 00       		.byte	0
 8076 276c 21       		.uleb128 0x21
 8077 276d 43523200 		.ascii	"CR2\000"
 8078 2771 28       		.byte	0x28
 8079 2772 A001     		.2byte	0x1a0
 8080 2774 2C090000 		.4byte	0x92c
 8081 2778 04       		.byte	0x4
 8082 2779 18       		.uleb128 0x18
 8083 277a E31E0000 		.4byte	.LASF534
 8084 277e 28       		.byte	0x28
 8085 277f A101     		.2byte	0x1a1
 8086 2781 2C090000 		.4byte	0x92c
 8087 2785 08       		.byte	0x8
 8088 2786 18       		.uleb128 0x18
 8089 2787 FA0A0000 		.4byte	.LASF535
 8090 278b 28       		.byte	0x28
 8091 278c A201     		.2byte	0x1a2
 8092 278e 2C090000 		.4byte	0x92c
 8093 2792 0C       		.byte	0xc
 8094 2793 21       		.uleb128 0x21
 8095 2794 535200   		.ascii	"SR\000"
 8096 2797 28       		.byte	0x28
 8097 2798 A301     		.2byte	0x1a3
 8098 279a 2C090000 		.4byte	0x92c
 8099 279e 10       		.byte	0x10
 8100 279f 21       		.uleb128 0x21
 8101 27a0 45475200 		.ascii	"EGR\000"
 8102 27a4 28       		.byte	0x28
 8103 27a5 A401     		.2byte	0x1a4
 8104 27a7 2C090000 		.4byte	0x92c
 8105 27ab 14       		.byte	0x14
 8106 27ac 18       		.uleb128 0x18
 8107 27ad E8220000 		.4byte	.LASF536
 8108 27b1 28       		.byte	0x28
 8109 27b2 A501     		.2byte	0x1a5
 8110 27b4 2C090000 		.4byte	0x92c
 8111 27b8 18       		.byte	0x18
 8112 27b9 18       		.uleb128 0x18
 8113 27ba EE220000 		.4byte	.LASF537
 8114 27be 28       		.byte	0x28
 8115 27bf A601     		.2byte	0x1a6
 8116 27c1 2C090000 		.4byte	0x92c
 8117 27c5 1C       		.byte	0x1c
ARM GAS  C:\Users\PCHAUT~1\AppData\Local\Temp\ccjQKXWT.s 			page 144


 8118 27c6 18       		.uleb128 0x18
 8119 27c7 1B070000 		.4byte	.LASF538
 8120 27cb 28       		.byte	0x28
 8121 27cc A701     		.2byte	0x1a7
 8122 27ce 2C090000 		.4byte	0x92c
 8123 27d2 20       		.byte	0x20
 8124 27d3 21       		.uleb128 0x21
 8125 27d4 434E5400 		.ascii	"CNT\000"
 8126 27d8 28       		.byte	0x28
 8127 27d9 A801     		.2byte	0x1a8
 8128 27db 2C090000 		.4byte	0x92c
 8129 27df 24       		.byte	0x24
 8130 27e0 21       		.uleb128 0x21
 8131 27e1 50534300 		.ascii	"PSC\000"
 8132 27e5 28       		.byte	0x28
 8133 27e6 A901     		.2byte	0x1a9
 8134 27e8 2C090000 		.4byte	0x92c
 8135 27ec 28       		.byte	0x28
 8136 27ed 21       		.uleb128 0x21
 8137 27ee 41525200 		.ascii	"ARR\000"
 8138 27f2 28       		.byte	0x28
 8139 27f3 AA01     		.2byte	0x1aa
 8140 27f5 2C090000 		.4byte	0x92c
 8141 27f9 2C       		.byte	0x2c
 8142 27fa 21       		.uleb128 0x21
 8143 27fb 52435200 		.ascii	"RCR\000"
 8144 27ff 28       		.byte	0x28
 8145 2800 AB01     		.2byte	0x1ab
 8146 2802 2C090000 		.4byte	0x92c
 8147 2806 30       		.byte	0x30
 8148 2807 21       		.uleb128 0x21
 8149 2808 43435200 		.ascii	"CCR\000"
 8150 280c 28       		.byte	0x28
 8151 280d AC01     		.2byte	0x1ac
 8152 280f 38120000 		.4byte	0x1238
 8153 2813 34       		.byte	0x34
 8154 2814 18       		.uleb128 0x18
 8155 2815 09020000 		.4byte	.LASF539
 8156 2819 28       		.byte	0x28
 8157 281a AD01     		.2byte	0x1ad
 8158 281c 2C090000 		.4byte	0x92c
 8159 2820 44       		.byte	0x44
 8160 2821 21       		.uleb128 0x21
 8161 2822 44435200 		.ascii	"DCR\000"
 8162 2826 28       		.byte	0x28
 8163 2827 AE01     		.2byte	0x1ae
 8164 2829 2C090000 		.4byte	0x92c
 8165 282d 48       		.byte	0x48
 8166 282e 18       		.uleb128 0x18
 8167 282f EF150000 		.4byte	.LASF540
 8168 2833 28       		.byte	0x28
 8169 2834 AF01     		.2byte	0x1af
 8170 2836 2C090000 		.4byte	0x92c
 8171 283a 4C       		.byte	0x4c
 8172 283b 21       		.uleb128 0x21
 8173 283c 4F5200   		.ascii	"OR\000"
 8174 283f 28       		.byte	0x28
ARM GAS  C:\Users\PCHAUT~1\AppData\Local\Temp\ccjQKXWT.s 			page 145


 8175 2840 B001     		.2byte	0x1b0
 8176 2842 2C090000 		.4byte	0x92c
 8177 2846 50       		.byte	0x50
 8178 2847 18       		.uleb128 0x18
 8179 2848 F4220000 		.4byte	.LASF541
 8180 284c 28       		.byte	0x28
 8181 284d B101     		.2byte	0x1b1
 8182 284f 2C090000 		.4byte	0x92c
 8183 2853 54       		.byte	0x54
 8184 2854 18       		.uleb128 0x18
 8185 2855 5E0D0000 		.4byte	.LASF542
 8186 2859 28       		.byte	0x28
 8187 285a B201     		.2byte	0x1b2
 8188 285c 23120000 		.4byte	0x1223
 8189 2860 58       		.byte	0x58
 8190 2861 00       		.byte	0
 8191 2862 08       		.uleb128 0x8
 8192 2863 0D1E0000 		.4byte	.LASF543
 8193 2867 28       		.byte	0x28
 8194 2868 B301     		.2byte	0x1b3
 8195 286a 56270000 		.4byte	0x2756
 8196 286e 08       		.uleb128 0x8
 8197 286f 87080000 		.4byte	.LASF544
 8198 2873 27       		.byte	0x27
 8199 2874 6D01     		.2byte	0x16d
 8200 2876 21090000 		.4byte	0x921
 8201 287a 1C       		.uleb128 0x1c
 8202 287b 10       		.byte	0x10
 8203 287c 27       		.byte	0x27
 8204 287d 7801     		.2byte	0x178
 8205 287f B8280000 		.4byte	0x28b8
 8206 2883 18       		.uleb128 0x18
 8207 2884 67220000 		.4byte	.LASF545
 8208 2888 27       		.byte	0x27
 8209 2889 7E01     		.2byte	0x17e
 8210 288b 6E280000 		.4byte	0x286e
 8211 288f 00       		.byte	0
 8212 2890 18       		.uleb128 0x18
 8213 2891 F4150000 		.4byte	.LASF546
 8214 2895 27       		.byte	0x27
 8215 2896 8501     		.2byte	0x185
 8216 2898 34270000 		.4byte	0x2734
 8217 289c 04       		.byte	0x4
 8218 289d 21       		.uleb128 0x21
 8219 289e 63723200 		.ascii	"cr2\000"
 8220 28a2 27       		.byte	0x27
 8221 28a3 8B01     		.2byte	0x18b
 8222 28a5 21090000 		.4byte	0x921
 8223 28a9 08       		.byte	0x8
 8224 28aa 18       		.uleb128 0x18
 8225 28ab BD0C0000 		.4byte	.LASF547
 8226 28af 27       		.byte	0x27
 8227 28b0 9101     		.2byte	0x191
 8228 28b2 21090000 		.4byte	0x921
 8229 28b6 0C       		.byte	0xc
 8230 28b7 00       		.byte	0
 8231 28b8 08       		.uleb128 0x8
ARM GAS  C:\Users\PCHAUT~1\AppData\Local\Temp\ccjQKXWT.s 			page 146


 8232 28b9 56060000 		.4byte	.LASF548
 8233 28bd 27       		.byte	0x27
 8234 28be 9201     		.2byte	0x192
 8235 28c0 7A280000 		.4byte	0x287a
 8236 28c4 04       		.uleb128 0x4
 8237 28c5 B8280000 		.4byte	0x28b8
 8238 28c9 06       		.uleb128 0x6
 8239 28ca 04       		.byte	0x4
 8240 28cb C4280000 		.4byte	0x28c4
 8241 28cf 06       		.uleb128 0x6
 8242 28d0 04       		.byte	0x4
 8243 28d1 62280000 		.4byte	0x2862
 8244 28d5 20       		.uleb128 0x20
 8245 28d6 00220000 		.4byte	.LASF549
 8246 28da 27       		.byte	0x27
 8247 28db F201     		.2byte	0x1f2
 8248 28dd E7260000 		.4byte	0x26e7
 8249 28e1 20       		.uleb128 0x20
 8250 28e2 1E1B0000 		.4byte	.LASF550
 8251 28e6 27       		.byte	0x27
 8252 28e7 0202     		.2byte	0x202
 8253 28e9 E7260000 		.4byte	0x26e7
 8254 28ed 27       		.uleb128 0x27
 8255 28ee 07       		.byte	0x7
 8256 28ef 01       		.byte	0x1
 8257 28f0 63000000 		.4byte	0x63
 8258 28f4 29       		.byte	0x29
 8259 28f5 4C       		.byte	0x4c
 8260 28f6 1F290000 		.4byte	0x291f
 8261 28fa 28       		.uleb128 0x28
 8262 28fb 2E060000 		.4byte	.LASF551
 8263 28ff 00       		.byte	0
 8264 2900 28       		.uleb128 0x28
 8265 2901 8A0E0000 		.4byte	.LASF552
 8266 2905 01       		.byte	0x1
 8267 2906 28       		.uleb128 0x28
 8268 2907 FD060000 		.4byte	.LASF553
 8269 290b 02       		.byte	0x2
 8270 290c 28       		.uleb128 0x28
 8271 290d 7B040000 		.4byte	.LASF554
 8272 2911 03       		.byte	0x3
 8273 2912 28       		.uleb128 0x28
 8274 2913 5F030000 		.4byte	.LASF555
 8275 2917 04       		.byte	0x4
 8276 2918 28       		.uleb128 0x28
 8277 2919 DE120000 		.4byte	.LASF556
 8278 291d 05       		.byte	0x5
 8279 291e 00       		.byte	0
 8280 291f 03       		.uleb128 0x3
 8281 2920 F7100000 		.4byte	.LASF557
 8282 2924 29       		.byte	0x29
 8283 2925 53       		.byte	0x53
 8284 2926 ED280000 		.4byte	0x28ed
 8285 292a 08       		.uleb128 0x8
 8286 292b 08170000 		.4byte	.LASF558
 8287 292f 2A       		.byte	0x2a
 8288 2930 6A01     		.2byte	0x16a
ARM GAS  C:\Users\PCHAUT~1\AppData\Local\Temp\ccjQKXWT.s 			page 147


 8289 2932 06090000 		.4byte	0x906
 8290 2936 08       		.uleb128 0x8
 8291 2937 FD030000 		.4byte	.LASF559
 8292 293b 2A       		.byte	0x2a
 8293 293c 6F01     		.2byte	0x16f
 8294 293e 21090000 		.4byte	0x921
 8295 2942 2A       		.uleb128 0x2a
 8296 2943 07       		.byte	0x7
 8297 2944 01       		.byte	0x1
 8298 2945 63000000 		.4byte	0x63
 8299 2949 2A       		.byte	0x2a
 8300 294a 7401     		.2byte	0x174
 8301 294c 63290000 		.4byte	0x2963
 8302 2950 28       		.uleb128 0x28
 8303 2951 8E040000 		.4byte	.LASF560
 8304 2955 01       		.byte	0x1
 8305 2956 28       		.uleb128 0x28
 8306 2957 73000000 		.4byte	.LASF561
 8307 295b 02       		.byte	0x2
 8308 295c 28       		.uleb128 0x28
 8309 295d 830A0000 		.4byte	.LASF562
 8310 2961 03       		.byte	0x3
 8311 2962 00       		.byte	0
 8312 2963 08       		.uleb128 0x8
 8313 2964 33230000 		.4byte	.LASF563
 8314 2968 2A       		.byte	0x2a
 8315 2969 7801     		.2byte	0x178
 8316 296b 42290000 		.4byte	0x2942
 8317 296f 2A       		.uleb128 0x2a
 8318 2970 07       		.byte	0x7
 8319 2971 01       		.byte	0x1
 8320 2972 63000000 		.4byte	0x63
 8321 2976 2A       		.byte	0x2a
 8322 2977 7D01     		.2byte	0x17d
 8323 2979 90290000 		.4byte	0x2990
 8324 297d 28       		.uleb128 0x28
 8325 297e 78050000 		.4byte	.LASF564
 8326 2982 01       		.byte	0x1
 8327 2983 28       		.uleb128 0x28
 8328 2984 BD220000 		.4byte	.LASF565
 8329 2988 02       		.byte	0x2
 8330 2989 28       		.uleb128 0x28
 8331 298a 400B0000 		.4byte	.LASF566
 8332 298e 03       		.byte	0x3
 8333 298f 00       		.byte	0
 8334 2990 08       		.uleb128 0x8
 8335 2991 B3060000 		.4byte	.LASF567
 8336 2995 2A       		.byte	0x2a
 8337 2996 8101     		.2byte	0x181
 8338 2998 6F290000 		.4byte	0x296f
 8339 299c 1C       		.uleb128 0x1c
 8340 299d 0C       		.byte	0xc
 8341 299e 2A       		.byte	0x2a
 8342 299f 8601     		.2byte	0x186
 8343 29a1 CD290000 		.4byte	0x29cd
 8344 29a5 18       		.uleb128 0x18
 8345 29a6 8B140000 		.4byte	.LASF568
ARM GAS  C:\Users\PCHAUT~1\AppData\Local\Temp\ccjQKXWT.s 			page 148


 8346 29aa 2A       		.byte	0x2a
 8347 29ab 8801     		.2byte	0x188
 8348 29ad 63290000 		.4byte	0x2963
 8349 29b1 00       		.byte	0
 8350 29b2 18       		.uleb128 0x18
 8351 29b3 C5030000 		.4byte	.LASF569
 8352 29b7 2A       		.byte	0x2a
 8353 29b8 8901     		.2byte	0x189
 8354 29ba 21090000 		.4byte	0x921
 8355 29be 04       		.byte	0x4
 8356 29bf 18       		.uleb128 0x18
 8357 29c0 D1230000 		.4byte	.LASF570
 8358 29c4 2A       		.byte	0x2a
 8359 29c5 8C01     		.2byte	0x18c
 8360 29c7 90290000 		.4byte	0x2990
 8361 29cb 08       		.byte	0x8
 8362 29cc 00       		.byte	0
 8363 29cd 08       		.uleb128 0x8
 8364 29ce 16020000 		.4byte	.LASF571
 8365 29d2 2A       		.byte	0x2a
 8366 29d3 8E01     		.2byte	0x18e
 8367 29d5 9C290000 		.4byte	0x299c
 8368 29d9 04       		.uleb128 0x4
 8369 29da CD290000 		.4byte	0x29cd
 8370 29de 08       		.uleb128 0x8
 8371 29df 71040000 		.4byte	.LASF572
 8372 29e3 2A       		.byte	0x2a
 8373 29e4 9301     		.2byte	0x193
 8374 29e6 EA290000 		.4byte	0x29ea
 8375 29ea 1B       		.uleb128 0x1b
 8376 29eb 71040000 		.4byte	.LASF572
 8377 29ef 3C       		.byte	0x3c
 8378 29f0 2A       		.byte	0x2a
 8379 29f1 9801     		.2byte	0x198
 8380 29f3 872A0000 		.4byte	0x2a87
 8381 29f7 18       		.uleb128 0x18
 8382 29f8 A7150000 		.4byte	.LASF441
 8383 29fc 2A       		.byte	0x2a
 8384 29fd 9C01     		.2byte	0x19c
 8385 29ff 1F290000 		.4byte	0x291f
 8386 2a03 00       		.byte	0
 8387 2a04 18       		.uleb128 0x18
 8388 2a05 171B0000 		.4byte	.LASF442
 8389 2a09 2A       		.byte	0x2a
 8390 2a0a A001     		.2byte	0x1a0
 8391 2a0c 872A0000 		.4byte	0x2a87
 8392 2a10 04       		.byte	0x4
 8393 2a11 18       		.uleb128 0x18
 8394 2a12 80010000 		.4byte	.LASF573
 8395 2a16 2A       		.byte	0x2a
 8396 2a17 A401     		.2byte	0x1a4
 8397 2a19 36290000 		.4byte	0x2936
 8398 2a1d 08       		.byte	0x8
 8399 2a1e 18       		.uleb128 0x18
 8400 2a1f 1B0D0000 		.4byte	.LASF447
 8401 2a23 2A       		.byte	0x2a
 8402 2a24 A901     		.2byte	0x1a9
ARM GAS  C:\Users\PCHAUT~1\AppData\Local\Temp\ccjQKXWT.s 			page 149


 8403 2a26 CA190000 		.4byte	0x19ca
 8404 2a2a 0C       		.byte	0xc
 8405 2a2b 18       		.uleb128 0x18
 8406 2a2c CB060000 		.4byte	.LASF446
 8407 2a30 2A       		.byte	0x2a
 8408 2a31 B201     		.2byte	0x1b2
 8409 2a33 FE0A0000 		.4byte	0xafe
 8410 2a37 20       		.byte	0x20
 8411 2a38 18       		.uleb128 0x18
 8412 2a39 930E0000 		.4byte	.LASF574
 8413 2a3d 2A       		.byte	0x2a
 8414 2a3e B601     		.2byte	0x1b6
 8415 2a40 2A290000 		.4byte	0x292a
 8416 2a44 24       		.byte	0x24
 8417 2a45 18       		.uleb128 0x18
 8418 2a46 24080000 		.4byte	.LASF575
 8419 2a4a 2A       		.byte	0x2a
 8420 2a4b BA01     		.2byte	0x1ba
 8421 2a4d 21090000 		.4byte	0x921
 8422 2a51 28       		.byte	0x28
 8423 2a52 18       		.uleb128 0x18
 8424 2a53 7D080000 		.4byte	.LASF576
 8425 2a57 2A       		.byte	0x2a
 8426 2a58 BE01     		.2byte	0x1be
 8427 2a5a 21090000 		.4byte	0x921
 8428 2a5e 2C       		.byte	0x2c
 8429 2a5f 18       		.uleb128 0x18
 8430 2a60 38010000 		.4byte	.LASF577
 8431 2a64 2A       		.byte	0x2a
 8432 2a65 C201     		.2byte	0x1c2
 8433 2a67 C9210000 		.4byte	0x21c9
 8434 2a6b 30       		.byte	0x30
 8435 2a6c 18       		.uleb128 0x18
 8436 2a6d 29020000 		.4byte	.LASF578
 8437 2a71 2A       		.byte	0x2a
 8438 2a72 C601     		.2byte	0x1c6
 8439 2a74 C9210000 		.4byte	0x21c9
 8440 2a78 34       		.byte	0x34
 8441 2a79 21       		.uleb128 0x21
 8442 2a7a 69326300 		.ascii	"i2c\000"
 8443 2a7e 2A       		.byte	0x2a
 8444 2a7f CA01     		.2byte	0x1ca
 8445 2a81 8D2A0000 		.4byte	0x2a8d
 8446 2a85 38       		.byte	0x38
 8447 2a86 00       		.byte	0
 8448 2a87 06       		.uleb128 0x6
 8449 2a88 04       		.byte	0x4
 8450 2a89 D9290000 		.4byte	0x29d9
 8451 2a8d 06       		.uleb128 0x6
 8452 2a8e 04       		.byte	0x4
 8453 2a8f C8120000 		.4byte	0x12c8
 8454 2a93 20       		.uleb128 0x20
 8455 2a94 58110000 		.4byte	.LASF579
 8456 2a98 2A       		.byte	0x2a
 8457 2a99 E001     		.2byte	0x1e0
 8458 2a9b DE290000 		.4byte	0x29de
 8459 2a9f 27       		.uleb128 0x27
ARM GAS  C:\Users\PCHAUT~1\AppData\Local\Temp\ccjQKXWT.s 			page 150


 8460 2aa0 07       		.byte	0x7
 8461 2aa1 01       		.byte	0x1
 8462 2aa2 63000000 		.4byte	0x63
 8463 2aa6 2B       		.byte	0x2b
 8464 2aa7 39       		.byte	0x39
 8465 2aa8 CB2A0000 		.4byte	0x2acb
 8466 2aac 28       		.uleb128 0x28
 8467 2aad EC0F0000 		.4byte	.LASF580
 8468 2ab1 00       		.byte	0
 8469 2ab2 28       		.uleb128 0x28
 8470 2ab3 F90C0000 		.4byte	.LASF581
 8471 2ab7 01       		.byte	0x1
 8472 2ab8 28       		.uleb128 0x28
 8473 2ab9 B5140000 		.4byte	.LASF582
 8474 2abd 02       		.byte	0x2
 8475 2abe 28       		.uleb128 0x28
 8476 2abf 72180000 		.4byte	.LASF583
 8477 2ac3 03       		.byte	0x3
 8478 2ac4 28       		.uleb128 0x28
 8479 2ac5 481D0000 		.4byte	.LASF584
 8480 2ac9 04       		.byte	0x4
 8481 2aca 00       		.byte	0
 8482 2acb 03       		.uleb128 0x3
 8483 2acc 48200000 		.4byte	.LASF585
 8484 2ad0 2B       		.byte	0x2b
 8485 2ad1 3F       		.byte	0x3f
 8486 2ad2 9F2A0000 		.4byte	0x2a9f
 8487 2ad6 03       		.uleb128 0x3
 8488 2ad7 C7230000 		.4byte	.LASF586
 8489 2adb 2C       		.byte	0x2c
 8490 2adc E2       		.byte	0xe2
 8491 2add E12A0000 		.4byte	0x2ae1
 8492 2ae1 1B       		.uleb128 0x1b
 8493 2ae2 C7230000 		.4byte	.LASF586
 8494 2ae6 20       		.byte	0x20
 8495 2ae7 2C       		.byte	0x2c
 8496 2ae8 1B01     		.2byte	0x11b
 8497 2aea 572B0000 		.4byte	0x2b57
 8498 2aee 18       		.uleb128 0x18
 8499 2aef A7150000 		.4byte	.LASF441
 8500 2af3 2C       		.byte	0x2c
 8501 2af4 1F01     		.2byte	0x11f
 8502 2af6 CB2A0000 		.4byte	0x2acb
 8503 2afa 00       		.byte	0
 8504 2afb 18       		.uleb128 0x18
 8505 2afc 171B0000 		.4byte	.LASF442
 8506 2b00 2C       		.byte	0x2c
 8507 2b01 2301     		.2byte	0x123
 8508 2b03 EF2B0000 		.4byte	0x2bef
 8509 2b07 04       		.byte	0x4
 8510 2b08 21       		.uleb128 0x21
 8511 2b09 73706900 		.ascii	"spi\000"
 8512 2b0d 2C       		.byte	0x2c
 8513 2b0e 2801     		.2byte	0x128
 8514 2b10 F52B0000 		.4byte	0x2bf5
 8515 2b14 08       		.byte	0x8
 8516 2b15 21       		.uleb128 0x21
ARM GAS  C:\Users\PCHAUT~1\AppData\Local\Temp\ccjQKXWT.s 			page 151


 8517 2b16 63666700 		.ascii	"cfg\000"
 8518 2b1a 2C       		.byte	0x2c
 8519 2b1b 2C01     		.2byte	0x12c
 8520 2b1d 06090000 		.4byte	0x906
 8521 2b21 0C       		.byte	0xc
 8522 2b22 18       		.uleb128 0x18
 8523 2b23 38010000 		.4byte	.LASF577
 8524 2b27 2C       		.byte	0x2c
 8525 2b28 3001     		.2byte	0x130
 8526 2b2a C9210000 		.4byte	0x21c9
 8527 2b2e 10       		.byte	0x10
 8528 2b2f 18       		.uleb128 0x18
 8529 2b30 29020000 		.4byte	.LASF578
 8530 2b34 2C       		.byte	0x2c
 8531 2b35 3401     		.2byte	0x134
 8532 2b37 C9210000 		.4byte	0x21c9
 8533 2b3b 14       		.byte	0x14
 8534 2b3c 18       		.uleb128 0x18
 8535 2b3d 24080000 		.4byte	.LASF575
 8536 2b41 2C       		.byte	0x2c
 8537 2b42 3801     		.2byte	0x138
 8538 2b44 21090000 		.4byte	0x921
 8539 2b48 18       		.byte	0x18
 8540 2b49 18       		.uleb128 0x18
 8541 2b4a 7D080000 		.4byte	.LASF576
 8542 2b4e 2C       		.byte	0x2c
 8543 2b4f 3C01     		.2byte	0x13c
 8544 2b51 21090000 		.4byte	0x921
 8545 2b55 1C       		.byte	0x1c
 8546 2b56 00       		.byte	0
 8547 2b57 03       		.uleb128 0x3
 8548 2b58 69080000 		.4byte	.LASF587
 8549 2b5c 2C       		.byte	0x2c
 8550 2b5d EB       		.byte	0xeb
 8551 2b5e 622B0000 		.4byte	0x2b62
 8552 2b62 06       		.uleb128 0x6
 8553 2b63 04       		.byte	0x4
 8554 2b64 682B0000 		.4byte	0x2b68
 8555 2b68 1F       		.uleb128 0x1f
 8556 2b69 7D2B0000 		.4byte	0x2b7d
 8557 2b6d 16       		.uleb128 0x16
 8558 2b6e 7D2B0000 		.4byte	0x2b7d
 8559 2b72 16       		.uleb128 0x16
 8560 2b73 2C000000 		.4byte	0x2c
 8561 2b77 16       		.uleb128 0x16
 8562 2b78 2C000000 		.4byte	0x2c
 8563 2b7c 00       		.byte	0
 8564 2b7d 06       		.uleb128 0x6
 8565 2b7e 04       		.byte	0x4
 8566 2b7f D62A0000 		.4byte	0x2ad6
 8567 2b83 0D       		.uleb128 0xd
 8568 2b84 14       		.byte	0x14
 8569 2b85 2C       		.byte	0x2c
 8570 2b86 F1       		.byte	0xf1
 8571 2b87 D72B0000 		.4byte	0x2bd7
 8572 2b8b 0E       		.uleb128 0xe
 8573 2b8c C2010000 		.4byte	.LASF588
ARM GAS  C:\Users\PCHAUT~1\AppData\Local\Temp\ccjQKXWT.s 			page 152


 8574 2b90 2C       		.byte	0x2c
 8575 2b91 F6       		.byte	0xf6
 8576 2b92 D72B0000 		.4byte	0x2bd7
 8577 2b96 00       		.byte	0
 8578 2b97 0E       		.uleb128 0xe
 8579 2b98 76010000 		.4byte	.LASF589
 8580 2b9c 2C       		.byte	0x2c
 8581 2b9d FB       		.byte	0xfb
 8582 2b9e 62010000 		.4byte	0x162
 8583 2ba2 04       		.byte	0x4
 8584 2ba3 0E       		.uleb128 0xe
 8585 2ba4 210D0000 		.4byte	.LASF590
 8586 2ba8 2C       		.byte	0x2c
 8587 2ba9 FF       		.byte	0xff
 8588 2baa 2C000000 		.4byte	0x2c
 8589 2bae 08       		.byte	0x8
 8590 2baf 18       		.uleb128 0x18
 8591 2bb0 290A0000 		.4byte	.LASF454
 8592 2bb4 2C       		.byte	0x2c
 8593 2bb5 0301     		.2byte	0x103
 8594 2bb7 572B0000 		.4byte	0x2b57
 8595 2bbb 0C       		.byte	0xc
 8596 2bbc 18       		.uleb128 0x18
 8597 2bbd C6180000 		.4byte	.LASF591
 8598 2bc1 2C       		.byte	0x2c
 8599 2bc2 0F01     		.2byte	0x10f
 8600 2bc4 FB080000 		.4byte	0x8fb
 8601 2bc8 10       		.byte	0x10
 8602 2bc9 18       		.uleb128 0x18
 8603 2bca 96060000 		.4byte	.LASF592
 8604 2bce 2C       		.byte	0x2c
 8605 2bcf 1501     		.2byte	0x115
 8606 2bd1 FB080000 		.4byte	0x8fb
 8607 2bd5 12       		.byte	0x12
 8608 2bd6 00       		.byte	0
 8609 2bd7 06       		.uleb128 0x6
 8610 2bd8 04       		.byte	0x4
 8611 2bd9 DD2B0000 		.4byte	0x2bdd
 8612 2bdd 2B       		.uleb128 0x2b
 8613 2bde 08       		.uleb128 0x8
 8614 2bdf DC230000 		.4byte	.LASF593
 8615 2be3 2C       		.byte	0x2c
 8616 2be4 1601     		.2byte	0x116
 8617 2be6 832B0000 		.4byte	0x2b83
 8618 2bea 04       		.uleb128 0x4
 8619 2beb DE2B0000 		.4byte	0x2bde
 8620 2bef 06       		.uleb128 0x6
 8621 2bf0 04       		.byte	0x4
 8622 2bf1 EA2B0000 		.4byte	0x2bea
 8623 2bf5 06       		.uleb128 0x6
 8624 2bf6 04       		.byte	0x4
 8625 2bf7 7B140000 		.4byte	0x147b
 8626 2bfb 20       		.uleb128 0x20
 8627 2bfc 17240000 		.4byte	.LASF594
 8628 2c00 2C       		.byte	0x2c
 8629 2c01 4801     		.2byte	0x148
 8630 2c03 D62A0000 		.4byte	0x2ad6
ARM GAS  C:\Users\PCHAUT~1\AppData\Local\Temp\ccjQKXWT.s 			page 153


 8631 2c07 27       		.uleb128 0x27
 8632 2c08 07       		.byte	0x7
 8633 2c09 01       		.byte	0x1
 8634 2c0a 63000000 		.4byte	0x63
 8635 2c0e 2D       		.byte	0x2d
 8636 2c0f 4A       		.byte	0x4a
 8637 2c10 272C0000 		.4byte	0x2c27
 8638 2c14 28       		.uleb128 0x28
 8639 2c15 26070000 		.4byte	.LASF595
 8640 2c19 00       		.byte	0
 8641 2c1a 28       		.uleb128 0x28
 8642 2c1b 020D0000 		.4byte	.LASF596
 8643 2c1f 01       		.byte	0x1
 8644 2c20 28       		.uleb128 0x28
 8645 2c21 13100000 		.4byte	.LASF597
 8646 2c25 02       		.byte	0x2
 8647 2c26 00       		.byte	0
 8648 2c27 03       		.uleb128 0x3
 8649 2c28 80030000 		.4byte	.LASF598
 8650 2c2c 2D       		.byte	0x2d
 8651 2c2d 4E       		.byte	0x4e
 8652 2c2e 072C0000 		.4byte	0x2c07
 8653 2c32 03       		.uleb128 0x3
 8654 2c33 2B0C0000 		.4byte	.LASF599
 8655 2c37 2D       		.byte	0x2d
 8656 2c38 53       		.byte	0x53
 8657 2c39 3D2C0000 		.4byte	0x2c3d
 8658 2c3d 1B       		.uleb128 0x1b
 8659 2c3e 2B0C0000 		.4byte	.LASF599
 8660 2c42 1C       		.byte	0x1c
 8661 2c43 2E       		.byte	0x2e
 8662 2c44 7901     		.2byte	0x179
 8663 2c46 A62C0000 		.4byte	0x2ca6
 8664 2c4a 18       		.uleb128 0x18
 8665 2c4b A7150000 		.4byte	.LASF441
 8666 2c4f 2E       		.byte	0x2e
 8667 2c50 7D01     		.2byte	0x17d
 8668 2c52 272C0000 		.4byte	0x2c27
 8669 2c56 00       		.byte	0
 8670 2c57 18       		.uleb128 0x18
 8671 2c58 171B0000 		.4byte	.LASF442
 8672 2c5c 2E       		.byte	0x2e
 8673 2c5d 8101     		.2byte	0x181
 8674 2c5f A12D0000 		.4byte	0x2da1
 8675 2c63 04       		.byte	0x4
 8676 2c64 18       		.uleb128 0x18
 8677 2c65 BC120000 		.4byte	.LASF600
 8678 2c69 2E       		.byte	0x2e
 8679 2c6a 8501     		.2byte	0x185
 8680 2c6c EC2C0000 		.4byte	0x2cec
 8681 2c70 08       		.byte	0x8
 8682 2c71 18       		.uleb128 0x18
 8683 2c72 23190000 		.4byte	.LASF601
 8684 2c76 2E       		.byte	0x2e
 8685 2c77 8901     		.2byte	0x189
 8686 2c79 E02C0000 		.4byte	0x2ce0
 8687 2c7d 0C       		.byte	0xc
ARM GAS  C:\Users\PCHAUT~1\AppData\Local\Temp\ccjQKXWT.s 			page 154


 8688 2c7e 18       		.uleb128 0x18
 8689 2c7f AD1F0000 		.4byte	.LASF522
 8690 2c83 2E       		.byte	0x2e
 8691 2c84 8D01     		.2byte	0x18d
 8692 2c86 D42C0000 		.4byte	0x2cd4
 8693 2c8a 10       		.byte	0x10
 8694 2c8b 18       		.uleb128 0x18
 8695 2c8c 440D0000 		.4byte	.LASF532
 8696 2c90 2E       		.byte	0x2e
 8697 2c91 9501     		.2byte	0x195
 8698 2c93 21090000 		.4byte	0x921
 8699 2c97 14       		.byte	0x14
 8700 2c98 21       		.uleb128 0x21
 8701 2c99 74696D00 		.ascii	"tim\000"
 8702 2c9d 2E       		.byte	0x2e
 8703 2c9e 9901     		.2byte	0x199
 8704 2ca0 CF280000 		.4byte	0x28cf
 8705 2ca4 18       		.byte	0x18
 8706 2ca5 00       		.byte	0
 8707 2ca6 03       		.uleb128 0x3
 8708 2ca7 C2100000 		.4byte	.LASF602
 8709 2cab 2D       		.byte	0x2d
 8710 2cac 5A       		.byte	0x5a
 8711 2cad B12C0000 		.4byte	0x2cb1
 8712 2cb1 06       		.uleb128 0x6
 8713 2cb2 04       		.byte	0x4
 8714 2cb3 B72C0000 		.4byte	0x2cb7
 8715 2cb7 1F       		.uleb128 0x1f
 8716 2cb8 C22C0000 		.4byte	0x2cc2
 8717 2cbc 16       		.uleb128 0x16
 8718 2cbd C22C0000 		.4byte	0x2cc2
 8719 2cc1 00       		.byte	0
 8720 2cc2 06       		.uleb128 0x6
 8721 2cc3 04       		.byte	0x4
 8722 2cc4 322C0000 		.4byte	0x2c32
 8723 2cc8 08       		.uleb128 0x8
 8724 2cc9 DF140000 		.4byte	.LASF603
 8725 2ccd 2E       		.byte	0x2e
 8726 2cce 2501     		.2byte	0x125
 8727 2cd0 21090000 		.4byte	0x921
 8728 2cd4 08       		.uleb128 0x8
 8729 2cd5 D4160000 		.4byte	.LASF604
 8730 2cd9 2E       		.byte	0x2e
 8731 2cda 2A01     		.2byte	0x12a
 8732 2cdc EB080000 		.4byte	0x8eb
 8733 2ce0 08       		.uleb128 0x8
 8734 2ce1 9F140000 		.4byte	.LASF605
 8735 2ce5 2E       		.byte	0x2e
 8736 2ce6 2F01     		.2byte	0x12f
 8737 2ce8 21090000 		.4byte	0x921
 8738 2cec 08       		.uleb128 0x8
 8739 2ced 0F0E0000 		.4byte	.LASF606
 8740 2cf1 2E       		.byte	0x2e
 8741 2cf2 3401     		.2byte	0x134
 8742 2cf4 21090000 		.4byte	0x921
 8743 2cf8 1C       		.uleb128 0x1c
 8744 2cf9 08       		.byte	0x8
ARM GAS  C:\Users\PCHAUT~1\AppData\Local\Temp\ccjQKXWT.s 			page 155


 8745 2cfa 2E       		.byte	0x2e
 8746 2cfb 3901     		.2byte	0x139
 8747 2cfd 1C2D0000 		.4byte	0x2d1c
 8748 2d01 18       		.uleb128 0x18
 8749 2d02 38080000 		.4byte	.LASF520
 8750 2d06 2E       		.byte	0x2e
 8751 2d07 3D01     		.2byte	0x13d
 8752 2d09 C82C0000 		.4byte	0x2cc8
 8753 2d0d 00       		.byte	0
 8754 2d0e 18       		.uleb128 0x18
 8755 2d0f F4150000 		.4byte	.LASF546
 8756 2d13 2E       		.byte	0x2e
 8757 2d14 4301     		.2byte	0x143
 8758 2d16 A62C0000 		.4byte	0x2ca6
 8759 2d1a 04       		.byte	0x4
 8760 2d1b 00       		.byte	0
 8761 2d1c 08       		.uleb128 0x8
 8762 2d1d FE0D0000 		.4byte	.LASF607
 8763 2d21 2E       		.byte	0x2e
 8764 2d22 4501     		.2byte	0x145
 8765 2d24 F82C0000 		.4byte	0x2cf8
 8766 2d28 1C       		.uleb128 0x1c
 8767 2d29 34       		.byte	0x34
 8768 2d2a 2E       		.byte	0x2e
 8769 2d2b 4A01     		.2byte	0x14a
 8770 2d2d 802D0000 		.4byte	0x2d80
 8771 2d31 18       		.uleb128 0x18
 8772 2d32 67220000 		.4byte	.LASF545
 8773 2d36 2E       		.byte	0x2e
 8774 2d37 5001     		.2byte	0x150
 8775 2d39 21090000 		.4byte	0x921
 8776 2d3d 00       		.byte	0
 8777 2d3e 18       		.uleb128 0x18
 8778 2d3f BC120000 		.4byte	.LASF600
 8779 2d43 2E       		.byte	0x2e
 8780 2d44 5601     		.2byte	0x156
 8781 2d46 EC2C0000 		.4byte	0x2cec
 8782 2d4a 04       		.byte	0x4
 8783 2d4b 18       		.uleb128 0x18
 8784 2d4c F4150000 		.4byte	.LASF546
 8785 2d50 2E       		.byte	0x2e
 8786 2d51 5C01     		.2byte	0x15c
 8787 2d53 A62C0000 		.4byte	0x2ca6
 8788 2d57 08       		.byte	0x8
 8789 2d58 18       		.uleb128 0x18
 8790 2d59 AD1F0000 		.4byte	.LASF522
 8791 2d5d 2E       		.byte	0x2e
 8792 2d5e 6001     		.2byte	0x160
 8793 2d60 802D0000 		.4byte	0x2d80
 8794 2d64 0C       		.byte	0xc
 8795 2d65 21       		.uleb128 0x21
 8796 2d66 63723200 		.ascii	"cr2\000"
 8797 2d6a 2E       		.byte	0x2e
 8798 2d6b 6601     		.2byte	0x166
 8799 2d6d 21090000 		.4byte	0x921
 8800 2d71 2C       		.byte	0x2c
 8801 2d72 18       		.uleb128 0x18
ARM GAS  C:\Users\PCHAUT~1\AppData\Local\Temp\ccjQKXWT.s 			page 156


 8802 2d73 BD0C0000 		.4byte	.LASF547
 8803 2d77 2E       		.byte	0x2e
 8804 2d78 7301     		.2byte	0x173
 8805 2d7a 21090000 		.4byte	0x921
 8806 2d7e 30       		.byte	0x30
 8807 2d7f 00       		.byte	0
 8808 2d80 0B       		.uleb128 0xb
 8809 2d81 1C2D0000 		.4byte	0x2d1c
 8810 2d85 902D0000 		.4byte	0x2d90
 8811 2d89 0C       		.uleb128 0xc
 8812 2d8a 3C000000 		.4byte	0x3c
 8813 2d8e 03       		.byte	0x3
 8814 2d8f 00       		.byte	0
 8815 2d90 08       		.uleb128 0x8
 8816 2d91 3C0C0000 		.4byte	.LASF608
 8817 2d95 2E       		.byte	0x2e
 8818 2d96 7401     		.2byte	0x174
 8819 2d98 282D0000 		.4byte	0x2d28
 8820 2d9c 04       		.uleb128 0x4
 8821 2d9d 902D0000 		.4byte	0x2d90
 8822 2da1 06       		.uleb128 0x6
 8823 2da2 04       		.byte	0x4
 8824 2da3 9C2D0000 		.4byte	0x2d9c
 8825 2da7 20       		.uleb128 0x20
 8826 2da8 89110000 		.4byte	.LASF609
 8827 2dac 2E       		.byte	0x2e
 8828 2dad BC01     		.2byte	0x1bc
 8829 2daf 322C0000 		.4byte	0x2c32
 8830 2db3 20       		.uleb128 0x20
 8831 2db4 8F110000 		.4byte	.LASF610
 8832 2db8 2E       		.byte	0x2e
 8833 2db9 C001     		.2byte	0x1c0
 8834 2dbb 322C0000 		.4byte	0x2c32
 8835 2dbf 20       		.uleb128 0x20
 8836 2dc0 95110000 		.4byte	.LASF611
 8837 2dc4 2E       		.byte	0x2e
 8838 2dc5 C401     		.2byte	0x1c4
 8839 2dc7 322C0000 		.4byte	0x2c32
 8840 2dcb 20       		.uleb128 0x20
 8841 2dcc 9B110000 		.4byte	.LASF612
 8842 2dd0 2E       		.byte	0x2e
 8843 2dd1 C801     		.2byte	0x1c8
 8844 2dd3 322C0000 		.4byte	0x2c32
 8845 2dd7 27       		.uleb128 0x27
 8846 2dd8 07       		.byte	0x7
 8847 2dd9 01       		.byte	0x1
 8848 2dda 63000000 		.4byte	0x63
 8849 2dde 2F       		.byte	0x2f
 8850 2ddf 55       		.byte	0x55
 8851 2de0 F72D0000 		.4byte	0x2df7
 8852 2de4 28       		.uleb128 0x28
 8853 2de5 60060000 		.4byte	.LASF613
 8854 2de9 00       		.byte	0
 8855 2dea 28       		.uleb128 0x28
 8856 2deb 850D0000 		.4byte	.LASF614
 8857 2def 01       		.byte	0x1
 8858 2df0 28       		.uleb128 0x28
ARM GAS  C:\Users\PCHAUT~1\AppData\Local\Temp\ccjQKXWT.s 			page 157


 8859 2df1 920F0000 		.4byte	.LASF615
 8860 2df5 02       		.byte	0x2
 8861 2df6 00       		.byte	0
 8862 2df7 03       		.uleb128 0x3
 8863 2df8 D6170000 		.4byte	.LASF616
 8864 2dfc 2F       		.byte	0x2f
 8865 2dfd 59       		.byte	0x59
 8866 2dfe D72D0000 		.4byte	0x2dd7
 8867 2e02 03       		.uleb128 0x3
 8868 2e03 D81F0000 		.4byte	.LASF617
 8869 2e07 2F       		.byte	0x2f
 8870 2e08 5E       		.byte	0x5e
 8871 2e09 0D2E0000 		.4byte	0x2e0d
 8872 2e0d 10       		.uleb128 0x10
 8873 2e0e D81F0000 		.4byte	.LASF617
 8874 2e12 78       		.byte	0x78
 8875 2e13 2F       		.byte	0x2f
 8876 2e14 78       		.byte	0x78
 8877 2e15 782E0000 		.4byte	0x2e78
 8878 2e19 11       		.uleb128 0x11
 8879 2e1a 766D7400 		.ascii	"vmt\000"
 8880 2e1e 2F       		.byte	0x2f
 8881 2e1f 7A       		.byte	0x7a
 8882 2e20 F62E0000 		.4byte	0x2ef6
 8883 2e24 00       		.byte	0
 8884 2e25 0E       		.uleb128 0xe
 8885 2e26 44000000 		.4byte	.LASF618
 8886 2e2a 2F       		.byte	0x2f
 8887 2e2b 7B       		.byte	0x7b
 8888 2e2c 4E1A0000 		.4byte	0x1a4e
 8889 2e30 04       		.byte	0x4
 8890 2e31 0E       		.uleb128 0xe
 8891 2e32 A7150000 		.4byte	.LASF441
 8892 2e36 2F       		.byte	0x2f
 8893 2e37 7B       		.byte	0x7b
 8894 2e38 F72D0000 		.4byte	0x2df7
 8895 2e3c 08       		.byte	0x8
 8896 2e3d 0E       		.uleb128 0xe
 8897 2e3e B7170000 		.4byte	.LASF619
 8898 2e42 2F       		.byte	0x2f
 8899 2e43 7B       		.byte	0x7b
 8900 2e44 F91A0000 		.4byte	0x1af9
 8901 2e48 0C       		.byte	0xc
 8902 2e49 0E       		.uleb128 0xe
 8903 2e4a A7110000 		.4byte	.LASF620
 8904 2e4e 2F       		.byte	0x2f
 8905 2e4f 7B       		.byte	0x7b
 8906 2e50 041B0000 		.4byte	0x1b04
 8907 2e54 30       		.byte	0x30
 8908 2e55 11       		.uleb128 0x11
 8909 2e56 696200   		.ascii	"ib\000"
 8910 2e59 2F       		.byte	0x2f
 8911 2e5a 7B       		.byte	0x7b
 8912 2e5b FC2E0000 		.4byte	0x2efc
 8913 2e5f 54       		.byte	0x54
 8914 2e60 11       		.uleb128 0x11
 8915 2e61 6F6200   		.ascii	"ob\000"
ARM GAS  C:\Users\PCHAUT~1\AppData\Local\Temp\ccjQKXWT.s 			page 158


 8916 2e64 2F       		.byte	0x2f
 8917 2e65 7B       		.byte	0x7b
 8918 2e66 FC2E0000 		.4byte	0x2efc
 8919 2e6a 64       		.byte	0x64
 8920 2e6b 0E       		.uleb128 0xe
 8921 2e6c 4B190000 		.4byte	.LASF621
 8922 2e70 2F       		.byte	0x2f
 8923 2e71 7B       		.byte	0x7b
 8924 2e72 0C2F0000 		.4byte	0x2f0c
 8925 2e76 74       		.byte	0x74
 8926 2e77 00       		.byte	0
 8927 2e78 26       		.uleb128 0x26
 8928 2e79 53443300 		.ascii	"SD3\000"
 8929 2e7d 30       		.byte	0x30
 8930 2e7e 1501     		.2byte	0x115
 8931 2e80 022E0000 		.4byte	0x2e02
 8932 2e84 10       		.uleb128 0x10
 8933 2e85 1F0F0000 		.4byte	.LASF622
 8934 2e89 20       		.byte	0x20
 8935 2e8a 2F       		.byte	0x2f
 8936 2e8b 6D       		.byte	0x6d
 8937 2e8c F12E0000 		.4byte	0x2ef1
 8938 2e90 0E       		.uleb128 0xe
 8939 2e91 A6170000 		.4byte	.LASF623
 8940 2e95 2F       		.byte	0x2f
 8941 2e96 6E       		.byte	0x6e
 8942 2e97 2E1B0000 		.4byte	0x1b2e
 8943 2e9b 00       		.byte	0
 8944 2e9c 0E       		.uleb128 0xe
 8945 2e9d 89040000 		.4byte	.LASF624
 8946 2ea1 2F       		.byte	0x2f
 8947 2ea2 6E       		.byte	0x6e
 8948 2ea3 4D1B0000 		.4byte	0x1b4d
 8949 2ea7 04       		.byte	0x4
 8950 2ea8 11       		.uleb128 0x11
 8951 2ea9 70757400 		.ascii	"put\000"
 8952 2ead 2F       		.byte	0x2f
 8953 2eae 6E       		.byte	0x6e
 8954 2eaf 671B0000 		.4byte	0x1b67
 8955 2eb3 08       		.byte	0x8
 8956 2eb4 11       		.uleb128 0x11
 8957 2eb5 67657400 		.ascii	"get\000"
 8958 2eb9 2F       		.byte	0x2f
 8959 2eba 6E       		.byte	0x6e
 8960 2ebb 7C1B0000 		.4byte	0x1b7c
 8961 2ebf 0C       		.byte	0xc
 8962 2ec0 0E       		.uleb128 0xe
 8963 2ec1 A1130000 		.4byte	.LASF625
 8964 2ec5 2F       		.byte	0x2f
 8965 2ec6 6E       		.byte	0x6e
 8966 2ec7 1D1C0000 		.4byte	0x1c1d
 8967 2ecb 10       		.byte	0x10
 8968 2ecc 0E       		.uleb128 0xe
 8969 2ecd 8C170000 		.4byte	.LASF626
 8970 2ed1 2F       		.byte	0x2f
 8971 2ed2 6E       		.byte	0x6e
 8972 2ed3 371C0000 		.4byte	0x1c37
ARM GAS  C:\Users\PCHAUT~1\AppData\Local\Temp\ccjQKXWT.s 			page 159


 8973 2ed7 14       		.byte	0x14
 8974 2ed8 0E       		.uleb128 0xe
 8975 2ed9 9E200000 		.4byte	.LASF627
 8976 2edd 2F       		.byte	0x2f
 8977 2ede 6E       		.byte	0x6e
 8978 2edf 5B1C0000 		.4byte	0x1c5b
 8979 2ee3 18       		.byte	0x18
 8980 2ee4 0E       		.uleb128 0xe
 8981 2ee5 02130000 		.4byte	.LASF628
 8982 2ee9 2F       		.byte	0x2f
 8983 2eea 6E       		.byte	0x6e
 8984 2eeb 7F1C0000 		.4byte	0x1c7f
 8985 2eef 1C       		.byte	0x1c
 8986 2ef0 00       		.byte	0
 8987 2ef1 04       		.uleb128 0x4
 8988 2ef2 842E0000 		.4byte	0x2e84
 8989 2ef6 06       		.uleb128 0x6
 8990 2ef7 04       		.byte	0x4
 8991 2ef8 F12E0000 		.4byte	0x2ef1
 8992 2efc 0B       		.uleb128 0xb
 8993 2efd EB080000 		.4byte	0x8eb
 8994 2f01 0C2F0000 		.4byte	0x2f0c
 8995 2f05 0C       		.uleb128 0xc
 8996 2f06 3C000000 		.4byte	0x3c
 8997 2f0a 0F       		.byte	0xf
 8998 2f0b 00       		.byte	0
 8999 2f0c 06       		.uleb128 0x6
 9000 2f0d 04       		.byte	0x4
 9001 2f0e EA140000 		.4byte	0x14ea
 9002 2f12 27       		.uleb128 0x27
 9003 2f13 07       		.byte	0x7
 9004 2f14 01       		.byte	0x1
 9005 2f15 63000000 		.4byte	0x63
 9006 2f19 31       		.byte	0x31
 9007 2f1a 6C       		.byte	0x6c
 9008 2f1b 322F0000 		.4byte	0x2f32
 9009 2f1f 28       		.uleb128 0x28
 9010 2f20 4A030000 		.4byte	.LASF629
 9011 2f24 00       		.byte	0
 9012 2f25 28       		.uleb128 0x28
 9013 2f26 F5140000 		.4byte	.LASF630
 9014 2f2a 01       		.byte	0x1
 9015 2f2b 28       		.uleb128 0x28
 9016 2f2c 93120000 		.4byte	.LASF631
 9017 2f30 02       		.byte	0x2
 9018 2f31 00       		.byte	0
 9019 2f32 03       		.uleb128 0x3
 9020 2f33 2F1A0000 		.4byte	.LASF632
 9021 2f37 31       		.byte	0x31
 9022 2f38 70       		.byte	0x70
 9023 2f39 122F0000 		.4byte	0x2f12
 9024 2f3d 27       		.uleb128 0x27
 9025 2f3e 07       		.byte	0x7
 9026 2f3f 01       		.byte	0x1
 9027 2f40 63000000 		.4byte	0x63
 9028 2f44 31       		.byte	0x31
 9029 2f45 75       		.byte	0x75
ARM GAS  C:\Users\PCHAUT~1\AppData\Local\Temp\ccjQKXWT.s 			page 160


 9030 2f46 572F0000 		.4byte	0x2f57
 9031 2f4a 28       		.uleb128 0x28
 9032 2f4b 93130000 		.4byte	.LASF633
 9033 2f4f 00       		.byte	0
 9034 2f50 28       		.uleb128 0x28
 9035 2f51 87010000 		.4byte	.LASF634
 9036 2f55 01       		.byte	0x1
 9037 2f56 00       		.byte	0
 9038 2f57 03       		.uleb128 0x3
 9039 2f58 A10C0000 		.4byte	.LASF635
 9040 2f5c 31       		.byte	0x31
 9041 2f5d 78       		.byte	0x78
 9042 2f5e 3D2F0000 		.4byte	0x2f3d
 9043 2f62 03       		.uleb128 0x3
 9044 2f63 5F190000 		.4byte	.LASF636
 9045 2f67 32       		.byte	0x32
 9046 2f68 BF       		.byte	0xbf
 9047 2f69 21090000 		.4byte	0x921
 9048 2f6d 03       		.uleb128 0x3
 9049 2f6e CD000000 		.4byte	.LASF637
 9050 2f72 32       		.byte	0x32
 9051 2f73 C4       		.byte	0xc4
 9052 2f74 21090000 		.4byte	0x921
 9053 2f78 03       		.uleb128 0x3
 9054 2f79 BC1F0000 		.4byte	.LASF638
 9055 2f7d 32       		.byte	0x32
 9056 2f7e C9       		.byte	0xc9
 9057 2f7f 832F0000 		.4byte	0x2f83
 9058 2f83 10       		.uleb128 0x10
 9059 2f84 BC1F0000 		.4byte	.LASF638
 9060 2f88 4C       		.byte	0x4c
 9061 2f89 32       		.byte	0x32
 9062 2f8a F2       		.byte	0xf2
 9063 2f8b 32300000 		.4byte	0x3032
 9064 2f8f 11       		.uleb128 0x11
 9065 2f90 766D7400 		.ascii	"vmt\000"
 9066 2f94 32       		.byte	0x32
 9067 2f95 F6       		.byte	0xf6
 9068 2f96 D5300000 		.4byte	0x30d5
 9069 2f9a 00       		.byte	0
 9070 2f9b 0E       		.uleb128 0xe
 9071 2f9c A7150000 		.4byte	.LASF441
 9072 2fa0 32       		.byte	0x32
 9073 2fa1 F7       		.byte	0xf7
 9074 2fa2 C91C0000 		.4byte	0x1cc9
 9075 2fa6 04       		.byte	0x4
 9076 2fa7 11       		.uleb128 0x11
 9077 2fa8 63696400 		.ascii	"cid\000"
 9078 2fac 32       		.byte	0x32
 9079 2fad F7       		.byte	0xf7
 9080 2fae 841D0000 		.4byte	0x1d84
 9081 2fb2 08       		.byte	0x8
 9082 2fb3 11       		.uleb128 0x11
 9083 2fb4 63736400 		.ascii	"csd\000"
 9084 2fb8 32       		.byte	0x32
 9085 2fb9 F7       		.byte	0xf7
 9086 2fba 841D0000 		.4byte	0x1d84
ARM GAS  C:\Users\PCHAUT~1\AppData\Local\Temp\ccjQKXWT.s 			page 161


 9087 2fbe 18       		.byte	0x18
 9088 2fbf 0E       		.uleb128 0xe
 9089 2fc0 DE1B0000 		.4byte	.LASF639
 9090 2fc4 32       		.byte	0x32
 9091 2fc5 F7       		.byte	0xf7
 9092 2fc6 21090000 		.4byte	0x921
 9093 2fca 28       		.byte	0x28
 9094 2fcb 0E       		.uleb128 0xe
 9095 2fcc 171B0000 		.4byte	.LASF442
 9096 2fd0 32       		.byte	0x32
 9097 2fd1 FB       		.byte	0xfb
 9098 2fd2 DB300000 		.4byte	0x30db
 9099 2fd6 2C       		.byte	0x2c
 9100 2fd7 0E       		.uleb128 0xe
 9101 2fd8 2E040000 		.4byte	.LASF640
 9102 2fdc 32       		.byte	0x32
 9103 2fdd FF       		.byte	0xff
 9104 2fde 622F0000 		.4byte	0x2f62
 9105 2fe2 30       		.byte	0x30
 9106 2fe3 18       		.uleb128 0x18
 9107 2fe4 80010000 		.4byte	.LASF573
 9108 2fe8 32       		.byte	0x32
 9109 2fe9 0301     		.2byte	0x103
 9110 2feb 6D2F0000 		.4byte	0x2f6d
 9111 2fef 34       		.byte	0x34
 9112 2ff0 21       		.uleb128 0x21
 9113 2ff1 72636100 		.ascii	"rca\000"
 9114 2ff5 32       		.byte	0x32
 9115 2ff6 0701     		.2byte	0x107
 9116 2ff8 21090000 		.4byte	0x921
 9117 2ffc 38       		.byte	0x38
 9118 2ffd 18       		.uleb128 0x18
 9119 2ffe CB060000 		.4byte	.LASF446
 9120 3002 32       		.byte	0x32
 9121 3003 0C01     		.2byte	0x10c
 9122 3005 FE0A0000 		.4byte	0xafe
 9123 3009 3C       		.byte	0x3c
 9124 300a 18       		.uleb128 0x18
 9125 300b 68170000 		.4byte	.LASF449
 9126 300f 32       		.byte	0x32
 9127 3010 1001     		.2byte	0x110
 9128 3012 21090000 		.4byte	0x921
 9129 3016 40       		.byte	0x40
 9130 3017 21       		.uleb128 0x21
 9131 3018 646D6100 		.ascii	"dma\000"
 9132 301c 32       		.byte	0x32
 9133 301d 1401     		.2byte	0x114
 9134 301f C9210000 		.4byte	0x21c9
 9135 3023 44       		.byte	0x44
 9136 3024 18       		.uleb128 0x18
 9137 3025 BF150000 		.4byte	.LASF641
 9138 3029 32       		.byte	0x32
 9139 302a 1901     		.2byte	0x119
 9140 302c E1300000 		.4byte	0x30e1
 9141 3030 48       		.byte	0x48
 9142 3031 00       		.byte	0
 9143 3032 0D       		.uleb128 0xd
ARM GAS  C:\Users\PCHAUT~1\AppData\Local\Temp\ccjQKXWT.s 			page 162


 9144 3033 08       		.byte	0x8
 9145 3034 32       		.byte	0x32
 9146 3035 CF       		.byte	0xcf
 9147 3036 53300000 		.4byte	0x3053
 9148 303a 0E       		.uleb128 0xe
 9149 303b 4E0E0000 		.4byte	.LASF642
 9150 303f 32       		.byte	0x32
 9151 3040 D8       		.byte	0xd8
 9152 3041 F31A0000 		.4byte	0x1af3
 9153 3045 00       		.byte	0
 9154 3046 0E       		.uleb128 0xe
 9155 3047 83210000 		.4byte	.LASF643
 9156 304b 32       		.byte	0x32
 9157 304c DC       		.byte	0xdc
 9158 304d 322F0000 		.4byte	0x2f32
 9159 3051 04       		.byte	0x4
 9160 3052 00       		.byte	0
 9161 3053 03       		.uleb128 0x3
 9162 3054 19190000 		.4byte	.LASF644
 9163 3058 32       		.byte	0x32
 9164 3059 DE       		.byte	0xde
 9165 305a 32300000 		.4byte	0x3032
 9166 305e 04       		.uleb128 0x4
 9167 305f 53300000 		.4byte	0x3053
 9168 3063 10       		.uleb128 0x10
 9169 3064 99210000 		.4byte	.LASF645
 9170 3068 20       		.byte	0x20
 9171 3069 32       		.byte	0x32
 9172 306a EB       		.byte	0xeb
 9173 306b D0300000 		.4byte	0x30d0
 9174 306f 0E       		.uleb128 0xe
 9175 3070 1D240000 		.4byte	.LASF646
 9176 3074 32       		.byte	0x32
 9177 3075 EC       		.byte	0xec
 9178 3076 161D0000 		.4byte	0x1d16
 9179 307a 00       		.byte	0
 9180 307b 0E       		.uleb128 0xe
 9181 307c C20C0000 		.4byte	.LASF647
 9182 3080 32       		.byte	0x32
 9183 3081 EC       		.byte	0xec
 9184 3082 161D0000 		.4byte	0x1d16
 9185 3086 04       		.byte	0x4
 9186 3087 0E       		.uleb128 0xe
 9187 3088 440F0000 		.4byte	.LASF648
 9188 308c 32       		.byte	0x32
 9189 308d EC       		.byte	0xec
 9190 308e 161D0000 		.4byte	0x1d16
 9191 3092 08       		.byte	0x8
 9192 3093 0E       		.uleb128 0xe
 9193 3094 88130000 		.4byte	.LASF649
 9194 3098 32       		.byte	0x32
 9195 3099 EC       		.byte	0xec
 9196 309a 161D0000 		.4byte	0x1d16
 9197 309e 0C       		.byte	0xc
 9198 309f 0E       		.uleb128 0xe
 9199 30a0 89040000 		.4byte	.LASF624
 9200 30a4 32       		.byte	0x32
ARM GAS  C:\Users\PCHAUT~1\AppData\Local\Temp\ccjQKXWT.s 			page 163


 9201 30a5 EC       		.byte	0xec
 9202 30a6 3A1D0000 		.4byte	0x1d3a
 9203 30aa 10       		.byte	0x10
 9204 30ab 0E       		.uleb128 0xe
 9205 30ac A6170000 		.4byte	.LASF623
 9206 30b0 32       		.byte	0x32
 9207 30b1 EC       		.byte	0xec
 9208 30b2 5E1D0000 		.4byte	0x1d5e
 9209 30b6 14       		.byte	0x14
 9210 30b7 0E       		.uleb128 0xe
 9211 30b8 46190000 		.4byte	.LASF650
 9212 30bc 32       		.byte	0x32
 9213 30bd EC       		.byte	0xec
 9214 30be 161D0000 		.4byte	0x1d16
 9215 30c2 18       		.byte	0x18
 9216 30c3 0E       		.uleb128 0xe
 9217 30c4 F9200000 		.4byte	.LASF651
 9218 30c8 32       		.byte	0x32
 9219 30c9 EC       		.byte	0xec
 9220 30ca 7E1D0000 		.4byte	0x1d7e
 9221 30ce 1C       		.byte	0x1c
 9222 30cf 00       		.byte	0
 9223 30d0 04       		.uleb128 0x4
 9224 30d1 63300000 		.4byte	0x3063
 9225 30d5 06       		.uleb128 0x6
 9226 30d6 04       		.byte	0x4
 9227 30d7 D0300000 		.4byte	0x30d0
 9228 30db 06       		.uleb128 0x6
 9229 30dc 04       		.byte	0x4
 9230 30dd 5E300000 		.4byte	0x305e
 9231 30e1 06       		.uleb128 0x6
 9232 30e2 04       		.byte	0x4
 9233 30e3 F2130000 		.4byte	0x13f2
 9234 30e7 20       		.uleb128 0x20
 9235 30e8 D70A0000 		.4byte	.LASF652
 9236 30ec 32       		.byte	0x32
 9237 30ed 2501     		.2byte	0x125
 9238 30ef 782F0000 		.4byte	0x2f78
 9239 30f3 27       		.uleb128 0x27
 9240 30f4 07       		.byte	0x7
 9241 30f5 01       		.byte	0x1
 9242 30f6 63000000 		.4byte	0x63
 9243 30fa 33       		.byte	0x33
 9244 30fb 46       		.byte	0x46
 9245 30fc 1F310000 		.4byte	0x311f
 9246 3100 28       		.uleb128 0x28
 9247 3101 E1060000 		.4byte	.LASF653
 9248 3105 00       		.byte	0
 9249 3106 28       		.uleb128 0x28
 9250 3107 08030000 		.4byte	.LASF654
 9251 310b 01       		.byte	0x1
 9252 310c 28       		.uleb128 0x28
 9253 310d 6C210000 		.4byte	.LASF655
 9254 3111 02       		.byte	0x2
 9255 3112 28       		.uleb128 0x28
 9256 3113 B00E0000 		.4byte	.LASF656
 9257 3117 03       		.byte	0x3
ARM GAS  C:\Users\PCHAUT~1\AppData\Local\Temp\ccjQKXWT.s 			page 164


 9258 3118 28       		.uleb128 0x28
 9259 3119 2D130000 		.4byte	.LASF657
 9260 311d 04       		.byte	0x4
 9261 311e 00       		.byte	0
 9262 311f 03       		.uleb128 0x3
 9263 3120 760E0000 		.4byte	.LASF658
 9264 3124 33       		.byte	0x33
 9265 3125 4C       		.byte	0x4c
 9266 3126 F3300000 		.4byte	0x30f3
 9267 312a 08       		.uleb128 0x8
 9268 312b 59200000 		.4byte	.LASF659
 9269 312f 34       		.byte	0x34
 9270 3130 9601     		.2byte	0x196
 9271 3132 36310000 		.4byte	0x3136
 9272 3136 1B       		.uleb128 0x1b
 9273 3137 59200000 		.4byte	.LASF659
 9274 313b 34       		.byte	0x34
 9275 313c 34       		.byte	0x34
 9276 313d BA01     		.2byte	0x1ba
 9277 313f B9310000 		.4byte	0x31b9
 9278 3143 18       		.uleb128 0x18
 9279 3144 A7150000 		.4byte	.LASF441
 9280 3148 34       		.byte	0x34
 9281 3149 BE01     		.2byte	0x1be
 9282 314b 1F310000 		.4byte	0x311f
 9283 314f 00       		.byte	0
 9284 3150 18       		.uleb128 0x18
 9285 3151 171B0000 		.4byte	.LASF442
 9286 3155 34       		.byte	0x34
 9287 3156 C201     		.2byte	0x1c2
 9288 3158 2B320000 		.4byte	0x322b
 9289 315c 04       		.byte	0x4
 9290 315d 18       		.uleb128 0x18
 9291 315e CB060000 		.4byte	.LASF446
 9292 3162 34       		.byte	0x34
 9293 3163 C701     		.2byte	0x1c7
 9294 3165 FE0A0000 		.4byte	0xafe
 9295 3169 08       		.byte	0x8
 9296 316a 18       		.uleb128 0x18
 9297 316b 1B0D0000 		.4byte	.LASF447
 9298 316f 34       		.byte	0x34
 9299 3170 CD01     		.2byte	0x1cd
 9300 3172 CA190000 		.4byte	0x19ca
 9301 3176 0C       		.byte	0xc
 9302 3177 21       		.uleb128 0x21
 9303 3178 73706900 		.ascii	"spi\000"
 9304 317c 34       		.byte	0x34
 9305 317d D601     		.2byte	0x1d6
 9306 317f F52B0000 		.4byte	0x2bf5
 9307 3183 20       		.byte	0x20
 9308 3184 18       		.uleb128 0x18
 9309 3185 38010000 		.4byte	.LASF577
 9310 3189 34       		.byte	0x34
 9311 318a DA01     		.2byte	0x1da
 9312 318c C9210000 		.4byte	0x21c9
 9313 3190 24       		.byte	0x24
 9314 3191 18       		.uleb128 0x18
ARM GAS  C:\Users\PCHAUT~1\AppData\Local\Temp\ccjQKXWT.s 			page 165


 9315 3192 29020000 		.4byte	.LASF578
 9316 3196 34       		.byte	0x34
 9317 3197 DE01     		.2byte	0x1de
 9318 3199 C9210000 		.4byte	0x21c9
 9319 319d 28       		.byte	0x28
 9320 319e 18       		.uleb128 0x18
 9321 319f 24080000 		.4byte	.LASF575
 9322 31a3 34       		.byte	0x34
 9323 31a4 E201     		.2byte	0x1e2
 9324 31a6 21090000 		.4byte	0x921
 9325 31aa 2C       		.byte	0x2c
 9326 31ab 18       		.uleb128 0x18
 9327 31ac 7D080000 		.4byte	.LASF576
 9328 31b0 34       		.byte	0x34
 9329 31b1 E601     		.2byte	0x1e6
 9330 31b3 21090000 		.4byte	0x921
 9331 31b7 30       		.byte	0x30
 9332 31b8 00       		.byte	0
 9333 31b9 08       		.uleb128 0x8
 9334 31ba 11150000 		.4byte	.LASF660
 9335 31be 34       		.byte	0x34
 9336 31bf 9E01     		.2byte	0x19e
 9337 31c1 C5310000 		.4byte	0x31c5
 9338 31c5 06       		.uleb128 0x6
 9339 31c6 04       		.byte	0x4
 9340 31c7 CB310000 		.4byte	0x31cb
 9341 31cb 1F       		.uleb128 0x1f
 9342 31cc D6310000 		.4byte	0x31d6
 9343 31d0 16       		.uleb128 0x16
 9344 31d1 D6310000 		.4byte	0x31d6
 9345 31d5 00       		.byte	0
 9346 31d6 06       		.uleb128 0x6
 9347 31d7 04       		.byte	0x4
 9348 31d8 2A310000 		.4byte	0x312a
 9349 31dc 1C       		.uleb128 0x1c
 9350 31dd 0C       		.byte	0xc
 9351 31de 34       		.byte	0x34
 9352 31df A301     		.2byte	0x1a3
 9353 31e1 1A320000 		.4byte	0x321a
 9354 31e5 18       		.uleb128 0x18
 9355 31e6 290A0000 		.4byte	.LASF454
 9356 31ea 34       		.byte	0x34
 9357 31eb A701     		.2byte	0x1a7
 9358 31ed B9310000 		.4byte	0x31b9
 9359 31f1 00       		.byte	0
 9360 31f2 18       		.uleb128 0x18
 9361 31f3 2A220000 		.4byte	.LASF661
 9362 31f7 34       		.byte	0x34
 9363 31f8 AC01     		.2byte	0x1ac
 9364 31fa 5A1F0000 		.4byte	0x1f5a
 9365 31fe 04       		.byte	0x4
 9366 31ff 18       		.uleb128 0x18
 9367 3200 77080000 		.4byte	.LASF662
 9368 3204 34       		.byte	0x34
 9369 3205 B001     		.2byte	0x1b0
 9370 3207 06090000 		.4byte	0x906
 9371 320b 08       		.byte	0x8
ARM GAS  C:\Users\PCHAUT~1\AppData\Local\Temp\ccjQKXWT.s 			page 166


 9372 320c 21       		.uleb128 0x21
 9373 320d 63723100 		.ascii	"cr1\000"
 9374 3211 34       		.byte	0x34
 9375 3212 B401     		.2byte	0x1b4
 9376 3214 06090000 		.4byte	0x906
 9377 3218 0A       		.byte	0xa
 9378 3219 00       		.byte	0
 9379 321a 08       		.uleb128 0x8
 9380 321b 641F0000 		.4byte	.LASF663
 9381 321f 34       		.byte	0x34
 9382 3220 B501     		.2byte	0x1b5
 9383 3222 DC310000 		.4byte	0x31dc
 9384 3226 04       		.uleb128 0x4
 9385 3227 1A320000 		.4byte	0x321a
 9386 322b 06       		.uleb128 0x6
 9387 322c 04       		.byte	0x4
 9388 322d 26320000 		.4byte	0x3226
 9389 3231 20       		.uleb128 0x20
 9390 3232 821E0000 		.4byte	.LASF664
 9391 3236 34       		.byte	0x34
 9392 3237 F201     		.2byte	0x1f2
 9393 3239 2A310000 		.4byte	0x312a
 9394 323d 03       		.uleb128 0x3
 9395 323e 65110000 		.4byte	.LASF665
 9396 3242 35       		.byte	0x35
 9397 3243 FA       		.byte	0xfa
 9398 3244 48320000 		.4byte	0x3248
 9399 3248 17       		.uleb128 0x17
 9400 3249 65110000 		.4byte	.LASF665
 9401 324d 6002     		.2byte	0x260
 9402 324f 36       		.byte	0x36
 9403 3250 7701     		.2byte	0x177
 9404 3252 74330000 		.4byte	0x3374
 9405 3256 18       		.uleb128 0x18
 9406 3257 A7150000 		.4byte	.LASF441
 9407 325b 36       		.byte	0x36
 9408 325c 7B01     		.2byte	0x17b
 9409 325e AC330000 		.4byte	0x33ac
 9410 3262 00       		.byte	0
 9411 3263 18       		.uleb128 0x18
 9412 3264 171B0000 		.4byte	.LASF442
 9413 3268 36       		.byte	0x36
 9414 3269 7F01     		.2byte	0x17f
 9415 326b CF3C0000 		.4byte	0x3ccf
 9416 326f 04       		.byte	0x4
 9417 3270 18       		.uleb128 0x18
 9418 3271 A01F0000 		.4byte	.LASF666
 9419 3275 36       		.byte	0x36
 9420 3276 8301     		.2byte	0x183
 9421 3278 06090000 		.4byte	0x906
 9422 327c 08       		.byte	0x8
 9423 327d 18       		.uleb128 0x18
 9424 327e 56220000 		.4byte	.LASF667
 9425 3282 36       		.byte	0x36
 9426 3283 8701     		.2byte	0x187
 9427 3285 06090000 		.4byte	0x906
 9428 3289 0A       		.byte	0xa
ARM GAS  C:\Users\PCHAUT~1\AppData\Local\Temp\ccjQKXWT.s 			page 167


 9429 328a 21       		.uleb128 0x21
 9430 328b 65706300 		.ascii	"epc\000"
 9431 328f 36       		.byte	0x36
 9432 3290 8B01     		.2byte	0x18b
 9433 3292 D53C0000 		.4byte	0x3cd5
 9434 3296 0C       		.byte	0xc
 9435 3297 18       		.uleb128 0x18
 9436 3298 11070000 		.4byte	.LASF668
 9437 329c 36       		.byte	0x36
 9438 329d 9201     		.2byte	0x192
 9439 329f EB3C0000 		.4byte	0x3ceb
 9440 32a3 1C       		.byte	0x1c
 9441 32a4 18       		.uleb128 0x18
 9442 32a5 870C0000 		.4byte	.LASF669
 9443 32a9 36       		.byte	0x36
 9444 32aa 9901     		.2byte	0x199
 9445 32ac EB3C0000 		.4byte	0x3ceb
 9446 32b0 28       		.byte	0x28
 9447 32b1 18       		.uleb128 0x18
 9448 32b2 D40F0000 		.4byte	.LASF670
 9449 32b6 36       		.byte	0x36
 9450 32b7 9D01     		.2byte	0x19d
 9451 32b9 F1330000 		.4byte	0x33f1
 9452 32bd 34       		.byte	0x34
 9453 32be 18       		.uleb128 0x18
 9454 32bf A41A0000 		.4byte	.LASF671
 9455 32c3 36       		.byte	0x36
 9456 32c4 A101     		.2byte	0x1a1
 9457 32c6 F31A0000 		.4byte	0x1af3
 9458 32ca 38       		.byte	0x38
 9459 32cb 18       		.uleb128 0x18
 9460 32cc FA160000 		.4byte	.LASF672
 9461 32d0 36       		.byte	0x36
 9462 32d1 A501     		.2byte	0x1a5
 9463 32d3 2C000000 		.4byte	0x2c
 9464 32d7 3C       		.byte	0x3c
 9465 32d8 18       		.uleb128 0x18
 9466 32d9 011D0000 		.4byte	.LASF673
 9467 32dd 36       		.byte	0x36
 9468 32de A901     		.2byte	0x1a9
 9469 32e0 71340000 		.4byte	0x3471
 9470 32e4 40       		.byte	0x40
 9471 32e5 18       		.uleb128 0x18
 9472 32e6 DB060000 		.4byte	.LASF674
 9473 32ea 36       		.byte	0x36
 9474 32eb AD01     		.2byte	0x1ad
 9475 32ed 2A220000 		.4byte	0x222a
 9476 32f1 44       		.byte	0x44
 9477 32f2 18       		.uleb128 0x18
 9478 32f3 E9140000 		.4byte	.LASF675
 9479 32f7 36       		.byte	0x36
 9480 32f8 B101     		.2byte	0x1b1
 9481 32fa 06090000 		.4byte	0x906
 9482 32fe 4C       		.byte	0x4c
 9483 32ff 18       		.uleb128 0x18
 9484 3300 3D150000 		.4byte	.LASF676
 9485 3304 36       		.byte	0x36
ARM GAS  C:\Users\PCHAUT~1\AppData\Local\Temp\ccjQKXWT.s 			page 168


 9486 3305 B501     		.2byte	0x1b5
 9487 3307 EB080000 		.4byte	0x8eb
 9488 330b 4E       		.byte	0x4e
 9489 330c 18       		.uleb128 0x18
 9490 330d CD190000 		.4byte	.LASF677
 9491 3311 36       		.byte	0x36
 9492 3312 B901     		.2byte	0x1b9
 9493 3314 EB080000 		.4byte	0x8eb
 9494 3318 4F       		.byte	0x4f
 9495 3319 21       		.uleb128 0x21
 9496 331a 6F746700 		.ascii	"otg\000"
 9497 331e 36       		.byte	0x36
 9498 331f C101     		.2byte	0x1c1
 9499 3321 FB3C0000 		.4byte	0x3cfb
 9500 3325 50       		.byte	0x50
 9501 3326 18       		.uleb128 0x18
 9502 3327 350E0000 		.4byte	.LASF678
 9503 332b 36       		.byte	0x36
 9504 332c C501     		.2byte	0x1c5
 9505 332e 013D0000 		.4byte	0x3d01
 9506 3332 54       		.byte	0x54
 9507 3333 18       		.uleb128 0x18
 9508 3334 281E0000 		.4byte	.LASF679
 9509 3338 36       		.byte	0x36
 9510 3339 C901     		.2byte	0x1c9
 9511 333b 21090000 		.4byte	0x921
 9512 333f 58       		.byte	0x58
 9513 3340 18       		.uleb128 0x18
 9514 3341 3A0D0000 		.4byte	.LASF680
 9515 3345 36       		.byte	0x36
 9516 3346 CD01     		.2byte	0x1cd
 9517 3348 21090000 		.4byte	0x921
 9518 334c 5C       		.byte	0x5c
 9519 334d 18       		.uleb128 0x18
 9520 334e DE070000 		.4byte	.LASF681
 9521 3352 36       		.byte	0x36
 9522 3353 D101     		.2byte	0x1d1
 9523 3355 FE0A0000 		.4byte	0xafe
 9524 3359 60       		.byte	0x60
 9525 335a 21       		.uleb128 0x21
 9526 335b 747200   		.ascii	"tr\000"
 9527 335e 36       		.byte	0x36
 9528 335f D601     		.2byte	0x1d6
 9529 3361 FE0A0000 		.4byte	0xafe
 9530 3365 64       		.byte	0x64
 9531 3366 18       		.uleb128 0x18
 9532 3367 DC130000 		.4byte	.LASF682
 9533 336b 36       		.byte	0x36
 9534 336c DA01     		.2byte	0x1da
 9535 336e 073D0000 		.4byte	0x3d07
 9536 3372 68       		.byte	0x68
 9537 3373 00       		.byte	0
 9538 3374 03       		.uleb128 0x3
 9539 3375 A60A0000 		.4byte	.LASF683
 9540 3379 35       		.byte	0x35
 9541 337a FF       		.byte	0xff
 9542 337b EB080000 		.4byte	0x8eb
ARM GAS  C:\Users\PCHAUT~1\AppData\Local\Temp\ccjQKXWT.s 			page 169


 9543 337f 2A       		.uleb128 0x2a
 9544 3380 07       		.byte	0x7
 9545 3381 01       		.byte	0x1
 9546 3382 63000000 		.4byte	0x63
 9547 3386 35       		.byte	0x35
 9548 3387 0401     		.2byte	0x104
 9549 3389 AC330000 		.4byte	0x33ac
 9550 338d 28       		.uleb128 0x28
 9551 338e 1B230000 		.4byte	.LASF684
 9552 3392 00       		.byte	0
 9553 3393 28       		.uleb128 0x28
 9554 3394 00000000 		.4byte	.LASF685
 9555 3398 01       		.byte	0x1
 9556 3399 28       		.uleb128 0x28
 9557 339a F8120000 		.4byte	.LASF686
 9558 339e 02       		.byte	0x2
 9559 339f 28       		.uleb128 0x28
 9560 33a0 49180000 		.4byte	.LASF687
 9561 33a4 03       		.byte	0x3
 9562 33a5 28       		.uleb128 0x28
 9563 33a6 F6070000 		.4byte	.LASF688
 9564 33aa 04       		.byte	0x4
 9565 33ab 00       		.byte	0
 9566 33ac 08       		.uleb128 0x8
 9567 33ad 52240000 		.4byte	.LASF689
 9568 33b1 35       		.byte	0x35
 9569 33b2 0A01     		.2byte	0x10a
 9570 33b4 7F330000 		.4byte	0x337f
 9571 33b8 2A       		.uleb128 0x2a
 9572 33b9 07       		.byte	0x7
 9573 33ba 01       		.byte	0x1
 9574 33bb 63000000 		.4byte	0x63
 9575 33bf 35       		.byte	0x35
 9576 33c0 1801     		.2byte	0x118
 9577 33c2 F1330000 		.4byte	0x33f1
 9578 33c6 28       		.uleb128 0x28
 9579 33c7 CC1C0000 		.4byte	.LASF690
 9580 33cb 00       		.byte	0
 9581 33cc 28       		.uleb128 0x28
 9582 33cd C90F0000 		.4byte	.LASF691
 9583 33d1 01       		.byte	0x1
 9584 33d2 28       		.uleb128 0x28
 9585 33d3 901A0000 		.4byte	.LASF692
 9586 33d7 02       		.byte	0x2
 9587 33d8 28       		.uleb128 0x28
 9588 33d9 CC150000 		.4byte	.LASF693
 9589 33dd 03       		.byte	0x3
 9590 33de 28       		.uleb128 0x28
 9591 33df D4140000 		.4byte	.LASF694
 9592 33e3 04       		.byte	0x4
 9593 33e4 28       		.uleb128 0x28
 9594 33e5 D7100000 		.4byte	.LASF695
 9595 33e9 05       		.byte	0x5
 9596 33ea 28       		.uleb128 0x28
 9597 33eb 2F0F0000 		.4byte	.LASF696
 9598 33ef 06       		.byte	0x6
 9599 33f0 00       		.byte	0
ARM GAS  C:\Users\PCHAUT~1\AppData\Local\Temp\ccjQKXWT.s 			page 170


 9600 33f1 08       		.uleb128 0x8
 9601 33f2 0A110000 		.4byte	.LASF697
 9602 33f6 35       		.byte	0x35
 9603 33f7 2001     		.2byte	0x120
 9604 33f9 B8330000 		.4byte	0x33b8
 9605 33fd 2A       		.uleb128 0x2a
 9606 33fe 07       		.byte	0x7
 9607 33ff 01       		.byte	0x1
 9608 3400 63000000 		.4byte	0x63
 9609 3404 35       		.byte	0x35
 9610 3405 2501     		.2byte	0x125
 9611 3407 30340000 		.4byte	0x3430
 9612 340b 28       		.uleb128 0x28
 9613 340c 5D1C0000 		.4byte	.LASF698
 9614 3410 00       		.byte	0
 9615 3411 28       		.uleb128 0x28
 9616 3412 B4180000 		.4byte	.LASF699
 9617 3416 01       		.byte	0x1
 9618 3417 28       		.uleb128 0x28
 9619 3418 73130000 		.4byte	.LASF700
 9620 341c 02       		.byte	0x2
 9621 341d 28       		.uleb128 0x28
 9622 341e 28140000 		.4byte	.LASF701
 9623 3422 03       		.byte	0x3
 9624 3423 28       		.uleb128 0x28
 9625 3424 B4210000 		.4byte	.LASF702
 9626 3428 04       		.byte	0x4
 9627 3429 28       		.uleb128 0x28
 9628 342a 49130000 		.4byte	.LASF703
 9629 342e 05       		.byte	0x5
 9630 342f 00       		.byte	0
 9631 3430 08       		.uleb128 0x8
 9632 3431 E3180000 		.4byte	.LASF704
 9633 3435 35       		.byte	0x35
 9634 3436 2C01     		.2byte	0x12c
 9635 3438 FD330000 		.4byte	0x33fd
 9636 343c 1C       		.uleb128 0x1c
 9637 343d 08       		.byte	0x8
 9638 343e 35       		.byte	0x35
 9639 343f 3101     		.2byte	0x131
 9640 3441 60340000 		.4byte	0x3460
 9641 3445 18       		.uleb128 0x18
 9642 3446 E6230000 		.4byte	.LASF705
 9643 344a 35       		.byte	0x35
 9644 344b 3501     		.2byte	0x135
 9645 344d 2C000000 		.4byte	0x2c
 9646 3451 00       		.byte	0
 9647 3452 18       		.uleb128 0x18
 9648 3453 67040000 		.4byte	.LASF706
 9649 3457 35       		.byte	0x35
 9650 3458 3901     		.2byte	0x139
 9651 345a 281B0000 		.4byte	0x1b28
 9652 345e 04       		.byte	0x4
 9653 345f 00       		.byte	0
 9654 3460 08       		.uleb128 0x8
 9655 3461 03150000 		.4byte	.LASF707
 9656 3465 35       		.byte	0x35
ARM GAS  C:\Users\PCHAUT~1\AppData\Local\Temp\ccjQKXWT.s 			page 171


 9657 3466 3A01     		.2byte	0x13a
 9658 3468 3C340000 		.4byte	0x343c
 9659 346c 04       		.uleb128 0x4
 9660 346d 60340000 		.4byte	0x3460
 9661 3471 08       		.uleb128 0x8
 9662 3472 7A230000 		.4byte	.LASF708
 9663 3476 35       		.byte	0x35
 9664 3477 4201     		.2byte	0x142
 9665 3479 7D340000 		.4byte	0x347d
 9666 347d 06       		.uleb128 0x6
 9667 347e 04       		.byte	0x4
 9668 347f 83340000 		.4byte	0x3483
 9669 3483 1F       		.uleb128 0x1f
 9670 3484 8E340000 		.4byte	0x348e
 9671 3488 16       		.uleb128 0x16
 9672 3489 8E340000 		.4byte	0x348e
 9673 348d 00       		.byte	0
 9674 348e 06       		.uleb128 0x6
 9675 348f 04       		.byte	0x4
 9676 3490 3D320000 		.4byte	0x323d
 9677 3494 08       		.uleb128 0x8
 9678 3495 B3040000 		.4byte	.LASF709
 9679 3499 35       		.byte	0x35
 9680 349a 4B01     		.2byte	0x14b
 9681 349c A0340000 		.4byte	0x34a0
 9682 34a0 06       		.uleb128 0x6
 9683 34a1 04       		.byte	0x4
 9684 34a2 A6340000 		.4byte	0x34a6
 9685 34a6 1F       		.uleb128 0x1f
 9686 34a7 B6340000 		.4byte	0x34b6
 9687 34ab 16       		.uleb128 0x16
 9688 34ac 8E340000 		.4byte	0x348e
 9689 34b0 16       		.uleb128 0x16
 9690 34b1 74330000 		.4byte	0x3374
 9691 34b5 00       		.byte	0
 9692 34b6 08       		.uleb128 0x8
 9693 34b7 8A0B0000 		.4byte	.LASF710
 9694 34bb 35       		.byte	0x35
 9695 34bc 5401     		.2byte	0x154
 9696 34be C2340000 		.4byte	0x34c2
 9697 34c2 06       		.uleb128 0x6
 9698 34c3 04       		.byte	0x4
 9699 34c4 C8340000 		.4byte	0x34c8
 9700 34c8 1F       		.uleb128 0x1f
 9701 34c9 D8340000 		.4byte	0x34d8
 9702 34cd 16       		.uleb128 0x16
 9703 34ce 8E340000 		.4byte	0x348e
 9704 34d2 16       		.uleb128 0x16
 9705 34d3 30340000 		.4byte	0x3430
 9706 34d7 00       		.byte	0
 9707 34d8 08       		.uleb128 0x8
 9708 34d9 39060000 		.4byte	.LASF711
 9709 34dd 35       		.byte	0x35
 9710 34de 6001     		.2byte	0x160
 9711 34e0 E4340000 		.4byte	0x34e4
 9712 34e4 06       		.uleb128 0x6
 9713 34e5 04       		.byte	0x4
ARM GAS  C:\Users\PCHAUT~1\AppData\Local\Temp\ccjQKXWT.s 			page 172


 9714 34e6 EA340000 		.4byte	0x34ea
 9715 34ea 15       		.uleb128 0x15
 9716 34eb 0F1D0000 		.4byte	0x1d0f
 9717 34ef F9340000 		.4byte	0x34f9
 9718 34f3 16       		.uleb128 0x16
 9719 34f4 8E340000 		.4byte	0x348e
 9720 34f8 00       		.byte	0
 9721 34f9 08       		.uleb128 0x8
 9722 34fa 9B0F0000 		.4byte	.LASF712
 9723 34fe 35       		.byte	0x35
 9724 34ff 6501     		.2byte	0x165
 9725 3501 05350000 		.4byte	0x3505
 9726 3505 06       		.uleb128 0x6
 9727 3506 04       		.byte	0x4
 9728 3507 0B350000 		.4byte	0x350b
 9729 350b 15       		.uleb128 0x15
 9730 350c 29350000 		.4byte	0x3529
 9731 3510 29350000 		.4byte	0x3529
 9732 3514 16       		.uleb128 0x16
 9733 3515 8E340000 		.4byte	0x348e
 9734 3519 16       		.uleb128 0x16
 9735 351a EB080000 		.4byte	0x8eb
 9736 351e 16       		.uleb128 0x16
 9737 351f EB080000 		.4byte	0x8eb
 9738 3523 16       		.uleb128 0x16
 9739 3524 06090000 		.4byte	0x906
 9740 3528 00       		.byte	0
 9741 3529 06       		.uleb128 0x6
 9742 352a 04       		.byte	0x4
 9743 352b 6C340000 		.4byte	0x346c
 9744 352f 0D       		.uleb128 0xd
 9745 3530 20       		.byte	0x20
 9746 3531 37       		.byte	0x37
 9747 3532 35       		.byte	0x35
 9748 3533 98350000 		.4byte	0x3598
 9749 3537 0E       		.uleb128 0xe
 9750 3538 58030000 		.4byte	.LASF713
 9751 353c 37       		.byte	0x37
 9752 353d 36       		.byte	0x36
 9753 353e 2C090000 		.4byte	0x92c
 9754 3542 00       		.byte	0
 9755 3543 0E       		.uleb128 0xe
 9756 3544 8D0D0000 		.4byte	.LASF714
 9757 3548 37       		.byte	0x37
 9758 3549 38       		.byte	0x38
 9759 354a 2C090000 		.4byte	0x92c
 9760 354e 04       		.byte	0x4
 9761 354f 0E       		.uleb128 0xe
 9762 3550 C0020000 		.4byte	.LASF715
 9763 3554 37       		.byte	0x37
 9764 3555 39       		.byte	0x39
 9765 3556 2C090000 		.4byte	0x92c
 9766 355a 08       		.byte	0x8
 9767 355b 0E       		.uleb128 0xe
 9768 355c 081B0000 		.4byte	.LASF716
 9769 3560 37       		.byte	0x37
 9770 3561 3A       		.byte	0x3a
ARM GAS  C:\Users\PCHAUT~1\AppData\Local\Temp\ccjQKXWT.s 			page 173


 9771 3562 2C090000 		.4byte	0x92c
 9772 3566 0C       		.byte	0xc
 9773 3567 0E       		.uleb128 0xe
 9774 3568 6C130000 		.4byte	.LASF717
 9775 356c 37       		.byte	0x37
 9776 356d 3C       		.byte	0x3c
 9777 356e 2C090000 		.4byte	0x92c
 9778 3572 10       		.byte	0x10
 9779 3573 0E       		.uleb128 0xe
 9780 3574 C80D0000 		.4byte	.LASF718
 9781 3578 37       		.byte	0x37
 9782 3579 3E       		.byte	0x3e
 9783 357a 2C090000 		.4byte	0x92c
 9784 357e 14       		.byte	0x14
 9785 357f 0E       		.uleb128 0xe
 9786 3580 DB0D0000 		.4byte	.LASF719
 9787 3584 37       		.byte	0x37
 9788 3585 3F       		.byte	0x3f
 9789 3586 2C090000 		.4byte	0x92c
 9790 358a 18       		.byte	0x18
 9791 358b 0E       		.uleb128 0xe
 9792 358c F5030000 		.4byte	.LASF720
 9793 3590 37       		.byte	0x37
 9794 3591 40       		.byte	0x40
 9795 3592 2C090000 		.4byte	0x92c
 9796 3596 1C       		.byte	0x1c
 9797 3597 00       		.byte	0
 9798 3598 03       		.uleb128 0x3
 9799 3599 AC1A0000 		.4byte	.LASF721
 9800 359d 37       		.byte	0x37
 9801 359e 41       		.byte	0x41
 9802 359f 2F350000 		.4byte	0x352f
 9803 35a3 0D       		.uleb128 0xd
 9804 35a4 20       		.byte	0x20
 9805 35a5 37       		.byte	0x37
 9806 35a6 46       		.byte	0x46
 9807 35a7 0C360000 		.4byte	0x360c
 9808 35ab 0E       		.uleb128 0xe
 9809 35ac 230E0000 		.4byte	.LASF722
 9810 35b0 37       		.byte	0x37
 9811 35b1 47       		.byte	0x47
 9812 35b2 2C090000 		.4byte	0x92c
 9813 35b6 00       		.byte	0
 9814 35b7 0E       		.uleb128 0xe
 9815 35b8 5E110000 		.4byte	.LASF723
 9816 35bc 37       		.byte	0x37
 9817 35bd 49       		.byte	0x49
 9818 35be 2C090000 		.4byte	0x92c
 9819 35c2 04       		.byte	0x4
 9820 35c3 0E       		.uleb128 0xe
 9821 35c4 C71E0000 		.4byte	.LASF724
 9822 35c8 37       		.byte	0x37
 9823 35c9 4A       		.byte	0x4a
 9824 35ca 2C090000 		.4byte	0x92c
 9825 35ce 08       		.byte	0x8
 9826 35cf 0E       		.uleb128 0xe
 9827 35d0 82110000 		.4byte	.LASF725
ARM GAS  C:\Users\PCHAUT~1\AppData\Local\Temp\ccjQKXWT.s 			page 174


 9828 35d4 37       		.byte	0x37
 9829 35d5 4C       		.byte	0x4c
 9830 35d6 2C090000 		.4byte	0x92c
 9831 35da 0C       		.byte	0xc
 9832 35db 0E       		.uleb128 0xe
 9833 35dc 73160000 		.4byte	.LASF726
 9834 35e0 37       		.byte	0x37
 9835 35e1 4D       		.byte	0x4d
 9836 35e2 2C090000 		.4byte	0x92c
 9837 35e6 10       		.byte	0x10
 9838 35e7 0E       		.uleb128 0xe
 9839 35e8 C80D0000 		.4byte	.LASF718
 9840 35ec 37       		.byte	0x37
 9841 35ed 4F       		.byte	0x4f
 9842 35ee 2C090000 		.4byte	0x92c
 9843 35f2 14       		.byte	0x14
 9844 35f3 0E       		.uleb128 0xe
 9845 35f4 EC060000 		.4byte	.LASF727
 9846 35f8 37       		.byte	0x37
 9847 35f9 50       		.byte	0x50
 9848 35fa 2C090000 		.4byte	0x92c
 9849 35fe 18       		.byte	0x18
 9850 35ff 0E       		.uleb128 0xe
 9851 3600 B01E0000 		.4byte	.LASF728
 9852 3604 37       		.byte	0x37
 9853 3605 52       		.byte	0x52
 9854 3606 2C090000 		.4byte	0x92c
 9855 360a 1C       		.byte	0x1c
 9856 360b 00       		.byte	0
 9857 360c 03       		.uleb128 0x3
 9858 360d 01080000 		.4byte	.LASF729
 9859 3611 37       		.byte	0x37
 9860 3612 53       		.byte	0x53
 9861 3613 A3350000 		.4byte	0x35a3
 9862 3617 0D       		.uleb128 0xd
 9863 3618 20       		.byte	0x20
 9864 3619 37       		.byte	0x37
 9865 361a 58       		.byte	0x58
 9866 361b 80360000 		.4byte	0x3680
 9867 361f 0E       		.uleb128 0xe
 9868 3620 70140000 		.4byte	.LASF730
 9869 3624 37       		.byte	0x37
 9870 3625 59       		.byte	0x59
 9871 3626 2C090000 		.4byte	0x92c
 9872 362a 00       		.byte	0
 9873 362b 0E       		.uleb128 0xe
 9874 362c 5E110000 		.4byte	.LASF723
 9875 3630 37       		.byte	0x37
 9876 3631 5B       		.byte	0x5b
 9877 3632 2C090000 		.4byte	0x92c
 9878 3636 04       		.byte	0x4
 9879 3637 0E       		.uleb128 0xe
 9880 3638 C4170000 		.4byte	.LASF731
 9881 363c 37       		.byte	0x37
 9882 363d 5C       		.byte	0x5c
 9883 363e 2C090000 		.4byte	0x92c
 9884 3642 08       		.byte	0x8
ARM GAS  C:\Users\PCHAUT~1\AppData\Local\Temp\ccjQKXWT.s 			page 175


 9885 3643 0E       		.uleb128 0xe
 9886 3644 82110000 		.4byte	.LASF725
 9887 3648 37       		.byte	0x37
 9888 3649 5E       		.byte	0x5e
 9889 364a 2C090000 		.4byte	0x92c
 9890 364e 0C       		.byte	0xc
 9891 364f 0E       		.uleb128 0xe
 9892 3650 F91F0000 		.4byte	.LASF732
 9893 3654 37       		.byte	0x37
 9894 3655 5F       		.byte	0x5f
 9895 3656 2C090000 		.4byte	0x92c
 9896 365a 10       		.byte	0x10
 9897 365b 0E       		.uleb128 0xe
 9898 365c C80D0000 		.4byte	.LASF718
 9899 3660 37       		.byte	0x37
 9900 3661 61       		.byte	0x61
 9901 3662 2C090000 		.4byte	0x92c
 9902 3666 14       		.byte	0x14
 9903 3667 0E       		.uleb128 0xe
 9904 3668 DB0D0000 		.4byte	.LASF719
 9905 366c 37       		.byte	0x37
 9906 366d 62       		.byte	0x62
 9907 366e 2C090000 		.4byte	0x92c
 9908 3672 18       		.byte	0x18
 9909 3673 0E       		.uleb128 0xe
 9910 3674 B01E0000 		.4byte	.LASF728
 9911 3678 37       		.byte	0x37
 9912 3679 63       		.byte	0x63
 9913 367a 2C090000 		.4byte	0x92c
 9914 367e 1C       		.byte	0x1c
 9915 367f 00       		.byte	0
 9916 3680 03       		.uleb128 0x3
 9917 3681 AD070000 		.4byte	.LASF733
 9918 3685 37       		.byte	0x37
 9919 3686 64       		.byte	0x64
 9920 3687 17360000 		.4byte	0x3617
 9921 368b 2C       		.uleb128 0x2c
 9922 368c 00100100 		.4byte	0x11000
 9923 3690 37       		.byte	0x37
 9924 3691 69       		.byte	0x69
 9925 3692 68390000 		.4byte	0x3968
 9926 3696 0E       		.uleb128 0xe
 9927 3697 AB040000 		.4byte	.LASF734
 9928 369b 37       		.byte	0x37
 9929 369c 6A       		.byte	0x6a
 9930 369d 2C090000 		.4byte	0x92c
 9931 36a1 00       		.byte	0
 9932 36a2 0E       		.uleb128 0xe
 9933 36a3 6F0C0000 		.4byte	.LASF735
 9934 36a7 37       		.byte	0x37
 9935 36a8 6B       		.byte	0x6b
 9936 36a9 2C090000 		.4byte	0x92c
 9937 36ad 04       		.byte	0x4
 9938 36ae 0E       		.uleb128 0xe
 9939 36af 36070000 		.4byte	.LASF736
 9940 36b3 37       		.byte	0x37
 9941 36b4 6C       		.byte	0x6c
ARM GAS  C:\Users\PCHAUT~1\AppData\Local\Temp\ccjQKXWT.s 			page 176


 9942 36b5 2C090000 		.4byte	0x92c
 9943 36b9 08       		.byte	0x8
 9944 36ba 0E       		.uleb128 0xe
 9945 36bb 8E230000 		.4byte	.LASF737
 9946 36bf 37       		.byte	0x37
 9947 36c0 6D       		.byte	0x6d
 9948 36c1 2C090000 		.4byte	0x92c
 9949 36c5 0C       		.byte	0xc
 9950 36c6 0E       		.uleb128 0xe
 9951 36c7 08130000 		.4byte	.LASF738
 9952 36cb 37       		.byte	0x37
 9953 36cc 6E       		.byte	0x6e
 9954 36cd 2C090000 		.4byte	0x92c
 9955 36d1 10       		.byte	0x10
 9956 36d2 0E       		.uleb128 0xe
 9957 36d3 B5030000 		.4byte	.LASF739
 9958 36d7 37       		.byte	0x37
 9959 36d8 6F       		.byte	0x6f
 9960 36d9 2C090000 		.4byte	0x92c
 9961 36dd 14       		.byte	0x14
 9962 36de 0E       		.uleb128 0xe
 9963 36df A7190000 		.4byte	.LASF740
 9964 36e3 37       		.byte	0x37
 9965 36e4 70       		.byte	0x70
 9966 36e5 2C090000 		.4byte	0x92c
 9967 36e9 18       		.byte	0x18
 9968 36ea 0E       		.uleb128 0xe
 9969 36eb C8070000 		.4byte	.LASF741
 9970 36ef 37       		.byte	0x37
 9971 36f0 71       		.byte	0x71
 9972 36f1 2C090000 		.4byte	0x92c
 9973 36f5 1C       		.byte	0x1c
 9974 36f6 0E       		.uleb128 0xe
 9975 36f7 C0070000 		.4byte	.LASF742
 9976 36fb 37       		.byte	0x37
 9977 36fc 73       		.byte	0x73
 9978 36fd 2C090000 		.4byte	0x92c
 9979 3701 20       		.byte	0x20
 9980 3702 0E       		.uleb128 0xe
 9981 3703 3E190000 		.4byte	.LASF743
 9982 3707 37       		.byte	0x37
 9983 3708 75       		.byte	0x75
 9984 3709 2C090000 		.4byte	0x92c
 9985 370d 24       		.byte	0x24
 9986 370e 0E       		.uleb128 0xe
 9987 370f D8000000 		.4byte	.LASF744
 9988 3713 37       		.byte	0x37
 9989 3714 76       		.byte	0x76
 9990 3715 2C090000 		.4byte	0x92c
 9991 3719 28       		.byte	0x28
 9992 371a 0E       		.uleb128 0xe
 9993 371b C4190000 		.4byte	.LASF745
 9994 371f 37       		.byte	0x37
 9995 3720 78       		.byte	0x78
 9996 3721 2C090000 		.4byte	0x92c
 9997 3725 2C       		.byte	0x2c
 9998 3726 0E       		.uleb128 0xe
ARM GAS  C:\Users\PCHAUT~1\AppData\Local\Temp\ccjQKXWT.s 			page 177


 9999 3727 E30E0000 		.4byte	.LASF746
 10000 372b 37       		.byte	0x37
 10001 372c 7A       		.byte	0x7a
 10002 372d 2C090000 		.4byte	0x92c
 10003 3731 30       		.byte	0x30
 10004 3732 0E       		.uleb128 0xe
 10005 3733 F8210000 		.4byte	.LASF747
 10006 3737 37       		.byte	0x37
 10007 3738 7B       		.byte	0x7b
 10008 3739 2C090000 		.4byte	0x92c
 10009 373d 34       		.byte	0x34
 10010 373e 0E       		.uleb128 0xe
 10011 373f 03020000 		.4byte	.LASF748
 10012 3743 37       		.byte	0x37
 10013 3744 7C       		.byte	0x7c
 10014 3745 2C090000 		.4byte	0x92c
 10015 3749 38       		.byte	0x38
 10016 374a 11       		.uleb128 0x11
 10017 374b 43494400 		.ascii	"CID\000"
 10018 374f 37       		.byte	0x37
 10019 3750 7D       		.byte	0x7d
 10020 3751 2C090000 		.4byte	0x92c
 10021 3755 3C       		.byte	0x3c
 10022 3756 0E       		.uleb128 0xe
 10023 3757 5C100000 		.4byte	.LASF749
 10024 375b 37       		.byte	0x37
 10025 375c 7E       		.byte	0x7e
 10026 375d 78390000 		.4byte	0x3978
 10027 3761 40       		.byte	0x40
 10028 3762 13       		.uleb128 0x13
 10029 3763 C9200000 		.4byte	.LASF750
 10030 3767 37       		.byte	0x37
 10031 3768 7F       		.byte	0x7f
 10032 3769 2C090000 		.4byte	0x92c
 10033 376d 0001     		.2byte	0x100
 10034 376f 13       		.uleb128 0x13
 10035 3770 66020000 		.4byte	.LASF751
 10036 3774 37       		.byte	0x37
 10037 3775 81       		.byte	0x81
 10038 3776 06150000 		.4byte	0x1506
 10039 377a 0401     		.2byte	0x104
 10040 377c 13       		.uleb128 0x13
 10041 377d FB130000 		.4byte	.LASF752
 10042 3781 37       		.byte	0x37
 10043 3782 83       		.byte	0x83
 10044 3783 8D390000 		.4byte	0x398d
 10045 3787 4001     		.2byte	0x140
 10046 3789 13       		.uleb128 0x13
 10047 378a 63170000 		.4byte	.LASF753
 10048 378e 37       		.byte	0x37
 10049 378f 84       		.byte	0x84
 10050 3790 2C090000 		.4byte	0x92c
 10051 3794 0004     		.2byte	0x400
 10052 3796 13       		.uleb128 0x13
 10053 3797 16230000 		.4byte	.LASF754
 10054 379b 37       		.byte	0x37
 10055 379c 85       		.byte	0x85
ARM GAS  C:\Users\PCHAUT~1\AppData\Local\Temp\ccjQKXWT.s 			page 178


 10056 379d 2C090000 		.4byte	0x92c
 10057 37a1 0404     		.2byte	0x404
 10058 37a3 13       		.uleb128 0x13
 10059 37a4 13040000 		.4byte	.LASF755
 10060 37a8 37       		.byte	0x37
 10061 37a9 86       		.byte	0x86
 10062 37aa 2C090000 		.4byte	0x92c
 10063 37ae 0804     		.2byte	0x408
 10064 37b0 13       		.uleb128 0x13
 10065 37b1 36200000 		.4byte	.LASF756
 10066 37b5 37       		.byte	0x37
 10067 37b6 88       		.byte	0x88
 10068 37b7 2C090000 		.4byte	0x92c
 10069 37bb 0C04     		.2byte	0x40c
 10070 37bd 13       		.uleb128 0x13
 10071 37be 28030000 		.4byte	.LASF757
 10072 37c2 37       		.byte	0x37
 10073 37c3 89       		.byte	0x89
 10074 37c4 2C090000 		.4byte	0x92c
 10075 37c8 1004     		.2byte	0x410
 10076 37ca 13       		.uleb128 0x13
 10077 37cb 08040000 		.4byte	.LASF758
 10078 37cf 37       		.byte	0x37
 10079 37d0 8B       		.byte	0x8b
 10080 37d1 2C090000 		.4byte	0x92c
 10081 37d5 1404     		.2byte	0x414
 10082 37d7 13       		.uleb128 0x13
 10083 37d8 7E0C0000 		.4byte	.LASF759
 10084 37dc 37       		.byte	0x37
 10085 37dd 8D       		.byte	0x8d
 10086 37de 2C090000 		.4byte	0x92c
 10087 37e2 1804     		.2byte	0x418
 10088 37e4 13       		.uleb128 0x13
 10089 37e5 2B1C0000 		.4byte	.LASF760
 10090 37e9 37       		.byte	0x37
 10091 37ea 8F       		.byte	0x8f
 10092 37eb A2390000 		.4byte	0x39a2
 10093 37ef 1C04     		.2byte	0x41c
 10094 37f1 13       		.uleb128 0x13
 10095 37f2 BB020000 		.4byte	.LASF761
 10096 37f6 37       		.byte	0x37
 10097 37f7 90       		.byte	0x90
 10098 37f8 2C090000 		.4byte	0x92c
 10099 37fc 4004     		.2byte	0x440
 10100 37fe 13       		.uleb128 0x13
 10101 37ff D11D0000 		.4byte	.LASF762
 10102 3803 37       		.byte	0x37
 10103 3804 92       		.byte	0x92
 10104 3805 B7390000 		.4byte	0x39b7
 10105 3809 4404     		.2byte	0x444
 10106 380b 2D       		.uleb128 0x2d
 10107 380c 686300   		.ascii	"hc\000"
 10108 380f 37       		.byte	0x37
 10109 3810 93       		.byte	0x93
 10110 3811 BC390000 		.4byte	0x39bc
 10111 3815 0005     		.2byte	0x500
 10112 3817 13       		.uleb128 0x13
ARM GAS  C:\Users\PCHAUT~1\AppData\Local\Temp\ccjQKXWT.s 			page 179


 10113 3818 7F200000 		.4byte	.LASF763
 10114 381c 37       		.byte	0x37
 10115 381d 94       		.byte	0x94
 10116 381e DC390000 		.4byte	0x39dc
 10117 3822 0007     		.2byte	0x700
 10118 3824 13       		.uleb128 0x13
 10119 3825 70190000 		.4byte	.LASF764
 10120 3829 37       		.byte	0x37
 10121 382a 95       		.byte	0x95
 10122 382b 2C090000 		.4byte	0x92c
 10123 382f 0008     		.2byte	0x800
 10124 3831 13       		.uleb128 0x13
 10125 3832 94210000 		.4byte	.LASF765
 10126 3836 37       		.byte	0x37
 10127 3837 96       		.byte	0x96
 10128 3838 2C090000 		.4byte	0x92c
 10129 383c 0408     		.2byte	0x804
 10130 383e 13       		.uleb128 0x13
 10131 383f 6C050000 		.4byte	.LASF766
 10132 3843 37       		.byte	0x37
 10133 3844 97       		.byte	0x97
 10134 3845 2C090000 		.4byte	0x92c
 10135 3849 0808     		.2byte	0x808
 10136 384b 13       		.uleb128 0x13
 10137 384c 99040000 		.4byte	.LASF767
 10138 3850 37       		.byte	0x37
 10139 3851 98       		.byte	0x98
 10140 3852 2C090000 		.4byte	0x92c
 10141 3856 0C08     		.2byte	0x80c
 10142 3858 13       		.uleb128 0x13
 10143 3859 670C0000 		.4byte	.LASF768
 10144 385d 37       		.byte	0x37
 10145 385e 99       		.byte	0x99
 10146 385f 2C090000 		.4byte	0x92c
 10147 3863 1008     		.2byte	0x810
 10148 3865 13       		.uleb128 0x13
 10149 3866 E81E0000 		.4byte	.LASF769
 10150 386a 37       		.byte	0x37
 10151 386b 9B       		.byte	0x9b
 10152 386c 2C090000 		.4byte	0x92c
 10153 3870 1408     		.2byte	0x814
 10154 3872 13       		.uleb128 0x13
 10155 3873 5E1F0000 		.4byte	.LASF770
 10156 3877 37       		.byte	0x37
 10157 3878 9D       		.byte	0x9d
 10158 3879 2C090000 		.4byte	0x92c
 10159 387d 1808     		.2byte	0x818
 10160 387f 13       		.uleb128 0x13
 10161 3880 B11C0000 		.4byte	.LASF771
 10162 3884 37       		.byte	0x37
 10163 3885 9F       		.byte	0x9f
 10164 3886 2C090000 		.4byte	0x92c
 10165 388a 1C08     		.2byte	0x81c
 10166 388c 13       		.uleb128 0x13
 10167 388d E9050000 		.4byte	.LASF772
 10168 3891 37       		.byte	0x37
 10169 3892 A1       		.byte	0xa1
ARM GAS  C:\Users\PCHAUT~1\AppData\Local\Temp\ccjQKXWT.s 			page 180


 10170 3893 2C090000 		.4byte	0x92c
 10171 3897 2008     		.2byte	0x820
 10172 3899 13       		.uleb128 0x13
 10173 389a E3040000 		.4byte	.LASF773
 10174 389e 37       		.byte	0x37
 10175 389f A2       		.byte	0xa2
 10176 38a0 2C090000 		.4byte	0x92c
 10177 38a4 2408     		.2byte	0x824
 10178 38a6 13       		.uleb128 0x13
 10179 38a7 9E190000 		.4byte	.LASF774
 10180 38ab 37       		.byte	0x37
 10181 38ac A3       		.byte	0xa3
 10182 38ad 2C090000 		.4byte	0x92c
 10183 38b1 2808     		.2byte	0x828
 10184 38b3 13       		.uleb128 0x13
 10185 38b4 010F0000 		.4byte	.LASF775
 10186 38b8 37       		.byte	0x37
 10187 38b9 A5       		.byte	0xa5
 10188 38ba 2C090000 		.4byte	0x92c
 10189 38be 2C08     		.2byte	0x82c
 10190 38c0 13       		.uleb128 0x13
 10191 38c1 9C060000 		.4byte	.LASF776
 10192 38c5 37       		.byte	0x37
 10193 38c6 A7       		.byte	0xa7
 10194 38c7 2C090000 		.4byte	0x92c
 10195 38cb 3008     		.2byte	0x830
 10196 38cd 13       		.uleb128 0x13
 10197 38ce 180E0000 		.4byte	.LASF777
 10198 38d2 37       		.byte	0x37
 10199 38d3 A8       		.byte	0xa8
 10200 38d4 2C090000 		.4byte	0x92c
 10201 38d8 3408     		.2byte	0x834
 10202 38da 13       		.uleb128 0x13
 10203 38db AA060000 		.4byte	.LASF778
 10204 38df 37       		.byte	0x37
 10205 38e0 AA       		.byte	0xaa
 10206 38e1 2C090000 		.4byte	0x92c
 10207 38e5 3808     		.2byte	0x838
 10208 38e7 13       		.uleb128 0x13
 10209 38e8 C2060000 		.4byte	.LASF779
 10210 38ec 37       		.byte	0x37
 10211 38ed AB       		.byte	0xab
 10212 38ee 2C090000 		.4byte	0x92c
 10213 38f2 3C08     		.2byte	0x83c
 10214 38f4 13       		.uleb128 0x13
 10215 38f5 54070000 		.4byte	.LASF780
 10216 38f9 37       		.byte	0x37
 10217 38fa AC       		.byte	0xac
 10218 38fb F1390000 		.4byte	0x39f1
 10219 38ff 4008     		.2byte	0x840
 10220 3901 13       		.uleb128 0x13
 10221 3902 AA0D0000 		.4byte	.LASF781
 10222 3906 37       		.byte	0x37
 10223 3907 AD       		.byte	0xad
 10224 3908 F1390000 		.4byte	0x39f1
 10225 390c 8008     		.2byte	0x880
 10226 390e 13       		.uleb128 0x13
ARM GAS  C:\Users\PCHAUT~1\AppData\Local\Temp\ccjQKXWT.s 			page 181


 10227 390f 6F110000 		.4byte	.LASF782
 10228 3913 37       		.byte	0x37
 10229 3914 AE       		.byte	0xae
 10230 3915 F1390000 		.4byte	0x39f1
 10231 3919 C008     		.2byte	0x8c0
 10232 391b 2D       		.uleb128 0x2d
 10233 391c 696500   		.ascii	"ie\000"
 10234 391f 37       		.byte	0x37
 10235 3920 AF       		.byte	0xaf
 10236 3921 F6390000 		.4byte	0x39f6
 10237 3925 0009     		.2byte	0x900
 10238 3927 2D       		.uleb128 0x2d
 10239 3928 6F6500   		.ascii	"oe\000"
 10240 392b 37       		.byte	0x37
 10241 392c B0       		.byte	0xb0
 10242 392d 063A0000 		.4byte	0x3a06
 10243 3931 000B     		.2byte	0xb00
 10244 3933 13       		.uleb128 0x13
 10245 3934 F80B0000 		.4byte	.LASF783
 10246 3938 37       		.byte	0x37
 10247 3939 B1       		.byte	0xb1
 10248 393a DC390000 		.4byte	0x39dc
 10249 393e 000D     		.2byte	0xd00
 10250 3940 13       		.uleb128 0x13
 10251 3941 AC210000 		.4byte	.LASF784
 10252 3945 37       		.byte	0x37
 10253 3946 B2       		.byte	0xb2
 10254 3947 2C090000 		.4byte	0x92c
 10255 394b 000E     		.2byte	0xe00
 10256 394d 13       		.uleb128 0x13
 10257 394e FF160000 		.4byte	.LASF785
 10258 3952 37       		.byte	0x37
 10259 3953 B4       		.byte	0xb4
 10260 3954 263A0000 		.4byte	0x3a26
 10261 3958 040E     		.2byte	0xe04
 10262 395a 13       		.uleb128 0x13
 10263 395b 4F0A0000 		.4byte	.LASF284
 10264 395f 37       		.byte	0x37
 10265 3960 B5       		.byte	0xb5
 10266 3961 423A0000 		.4byte	0x3a42
 10267 3965 0010     		.2byte	0x1000
 10268 3967 00       		.byte	0
 10269 3968 0B       		.uleb128 0xb
 10270 3969 2C090000 		.4byte	0x92c
 10271 396d 78390000 		.4byte	0x3978
 10272 3971 0C       		.uleb128 0xc
 10273 3972 3C000000 		.4byte	0x3c
 10274 3976 2F       		.byte	0x2f
 10275 3977 00       		.byte	0
 10276 3978 1A       		.uleb128 0x1a
 10277 3979 68390000 		.4byte	0x3968
 10278 397d 0B       		.uleb128 0xb
 10279 397e 2C090000 		.4byte	0x92c
 10280 3982 8D390000 		.4byte	0x398d
 10281 3986 0C       		.uleb128 0xc
 10282 3987 3C000000 		.4byte	0x3c
 10283 398b AF       		.byte	0xaf
ARM GAS  C:\Users\PCHAUT~1\AppData\Local\Temp\ccjQKXWT.s 			page 182


 10284 398c 00       		.byte	0
 10285 398d 1A       		.uleb128 0x1a
 10286 398e 7D390000 		.4byte	0x397d
 10287 3992 0B       		.uleb128 0xb
 10288 3993 2C090000 		.4byte	0x92c
 10289 3997 A2390000 		.4byte	0x39a2
 10290 399b 0C       		.uleb128 0xc
 10291 399c 3C000000 		.4byte	0x3c
 10292 39a0 08       		.byte	0x8
 10293 39a1 00       		.byte	0
 10294 39a2 1A       		.uleb128 0x1a
 10295 39a3 92390000 		.4byte	0x3992
 10296 39a7 0B       		.uleb128 0xb
 10297 39a8 2C090000 		.4byte	0x92c
 10298 39ac B7390000 		.4byte	0x39b7
 10299 39b0 0C       		.uleb128 0xc
 10300 39b1 3C000000 		.4byte	0x3c
 10301 39b5 2E       		.byte	0x2e
 10302 39b6 00       		.byte	0
 10303 39b7 1A       		.uleb128 0x1a
 10304 39b8 A7390000 		.4byte	0x39a7
 10305 39bc 0B       		.uleb128 0xb
 10306 39bd 98350000 		.4byte	0x3598
 10307 39c1 CC390000 		.4byte	0x39cc
 10308 39c5 0C       		.uleb128 0xc
 10309 39c6 3C000000 		.4byte	0x3c
 10310 39ca 0F       		.byte	0xf
 10311 39cb 00       		.byte	0
 10312 39cc 0B       		.uleb128 0xb
 10313 39cd 2C090000 		.4byte	0x92c
 10314 39d1 DC390000 		.4byte	0x39dc
 10315 39d5 0C       		.uleb128 0xc
 10316 39d6 3C000000 		.4byte	0x3c
 10317 39da 3F       		.byte	0x3f
 10318 39db 00       		.byte	0
 10319 39dc 1A       		.uleb128 0x1a
 10320 39dd CC390000 		.4byte	0x39cc
 10321 39e1 0B       		.uleb128 0xb
 10322 39e2 2C090000 		.4byte	0x92c
 10323 39e6 F1390000 		.4byte	0x39f1
 10324 39ea 0C       		.uleb128 0xc
 10325 39eb 3C000000 		.4byte	0x3c
 10326 39ef 0F       		.byte	0xf
 10327 39f0 00       		.byte	0
 10328 39f1 1A       		.uleb128 0x1a
 10329 39f2 E1390000 		.4byte	0x39e1
 10330 39f6 0B       		.uleb128 0xb
 10331 39f7 0C360000 		.4byte	0x360c
 10332 39fb 063A0000 		.4byte	0x3a06
 10333 39ff 0C       		.uleb128 0xc
 10334 3a00 3C000000 		.4byte	0x3c
 10335 3a04 0F       		.byte	0xf
 10336 3a05 00       		.byte	0
 10337 3a06 0B       		.uleb128 0xb
 10338 3a07 80360000 		.4byte	0x3680
 10339 3a0b 163A0000 		.4byte	0x3a16
 10340 3a0f 0C       		.uleb128 0xc
ARM GAS  C:\Users\PCHAUT~1\AppData\Local\Temp\ccjQKXWT.s 			page 183


 10341 3a10 3C000000 		.4byte	0x3c
 10342 3a14 0F       		.byte	0xf
 10343 3a15 00       		.byte	0
 10344 3a16 0B       		.uleb128 0xb
 10345 3a17 2C090000 		.4byte	0x92c
 10346 3a1b 263A0000 		.4byte	0x3a26
 10347 3a1f 0C       		.uleb128 0xc
 10348 3a20 3C000000 		.4byte	0x3c
 10349 3a24 7E       		.byte	0x7e
 10350 3a25 00       		.byte	0
 10351 3a26 1A       		.uleb128 0x1a
 10352 3a27 163A0000 		.4byte	0x3a16
 10353 3a2b 0B       		.uleb128 0xb
 10354 3a2c 2C090000 		.4byte	0x92c
 10355 3a30 423A0000 		.4byte	0x3a42
 10356 3a34 0C       		.uleb128 0xc
 10357 3a35 3C000000 		.4byte	0x3c
 10358 3a39 0F       		.byte	0xf
 10359 3a3a 2E       		.uleb128 0x2e
 10360 3a3b 3C000000 		.4byte	0x3c
 10361 3a3f FF03     		.2byte	0x3ff
 10362 3a41 00       		.byte	0
 10363 3a42 1A       		.uleb128 0x1a
 10364 3a43 2B3A0000 		.4byte	0x3a2b
 10365 3a47 03       		.uleb128 0x3
 10366 3a48 BB230000 		.4byte	.LASF786
 10367 3a4c 37       		.byte	0x37
 10368 3a4d B6       		.byte	0xb6
 10369 3a4e 8B360000 		.4byte	0x368b
 10370 3a52 0D       		.uleb128 0xd
 10371 3a53 0C       		.byte	0xc
 10372 3a54 36       		.byte	0x36
 10373 3a55 C6       		.byte	0xc6
 10374 3a56 7F3A0000 		.4byte	0x3a7f
 10375 3a5a 0E       		.uleb128 0xe
 10376 3a5b E0090000 		.4byte	.LASF787
 10377 3a5f 36       		.byte	0x36
 10378 3a60 C7       		.byte	0xc7
 10379 3a61 21090000 		.4byte	0x921
 10380 3a65 00       		.byte	0
 10381 3a66 0E       		.uleb128 0xe
 10382 3a67 D00B0000 		.4byte	.LASF788
 10383 3a6b 36       		.byte	0x36
 10384 3a6c C8       		.byte	0xc8
 10385 3a6d 21090000 		.4byte	0x921
 10386 3a71 04       		.byte	0x4
 10387 3a72 0E       		.uleb128 0xe
 10388 3a73 5B0F0000 		.4byte	.LASF789
 10389 3a77 36       		.byte	0x36
 10390 3a78 C9       		.byte	0xc9
 10391 3a79 21090000 		.4byte	0x921
 10392 3a7d 08       		.byte	0x8
 10393 3a7e 00       		.byte	0
 10394 3a7f 03       		.uleb128 0x3
 10395 3a80 E50B0000 		.4byte	.LASF790
 10396 3a84 36       		.byte	0x36
 10397 3a85 CA       		.byte	0xca
ARM GAS  C:\Users\PCHAUT~1\AppData\Local\Temp\ccjQKXWT.s 			page 184


 10398 3a86 523A0000 		.4byte	0x3a52
 10399 3a8a 04       		.uleb128 0x4
 10400 3a8b 7F3A0000 		.4byte	0x3a7f
 10401 3a8f 0D       		.uleb128 0xd
 10402 3a90 04       		.byte	0x4
 10403 3a91 36       		.byte	0x36
 10404 3a92 DD       		.byte	0xdd
 10405 3a93 A43A0000 		.4byte	0x3aa4
 10406 3a97 0E       		.uleb128 0xe
 10407 3a98 A6210000 		.4byte	.LASF791
 10408 3a9c 36       		.byte	0x36
 10409 3a9d E1       		.byte	0xe1
 10410 3a9e 281B0000 		.4byte	0x1b28
 10411 3aa2 00       		.byte	0
 10412 3aa3 00       		.byte	0
 10413 3aa4 0D       		.uleb128 0xd
 10414 3aa5 04       		.byte	0x4
 10415 3aa6 36       		.byte	0x36
 10416 3aa7 E3       		.byte	0xe3
 10417 3aa8 B93A0000 		.4byte	0x3ab9
 10418 3aac 0E       		.uleb128 0xe
 10419 3aad 5E0A0000 		.4byte	.LASF474
 10420 3ab1 36       		.byte	0x36
 10421 3ab2 E7       		.byte	0xe7
 10422 3ab3 B93A0000 		.4byte	0x3ab9
 10423 3ab7 00       		.byte	0
 10424 3ab8 00       		.byte	0
 10425 3ab9 06       		.uleb128 0x6
 10426 3aba 04       		.byte	0x4
 10427 3abb 041B0000 		.4byte	0x1b04
 10428 3abf 09       		.uleb128 0x9
 10429 3ac0 04       		.byte	0x4
 10430 3ac1 36       		.byte	0x36
 10431 3ac2 DC       		.byte	0xdc
 10432 3ac3 DE3A0000 		.4byte	0x3ade
 10433 3ac7 0A       		.uleb128 0xa
 10434 3ac8 061E0000 		.4byte	.LASF792
 10435 3acc 36       		.byte	0x36
 10436 3acd E2       		.byte	0xe2
 10437 3ace 8F3A0000 		.4byte	0x3a8f
 10438 3ad2 0A       		.uleb128 0xa
 10439 3ad3 FB1C0000 		.4byte	.LASF793
 10440 3ad7 36       		.byte	0x36
 10441 3ad8 E8       		.byte	0xe8
 10442 3ad9 A43A0000 		.4byte	0x3aa4
 10443 3add 00       		.byte	0
 10444 3ade 0D       		.uleb128 0xd
 10445 3adf 14       		.byte	0x14
 10446 3ae0 36       		.byte	0x36
 10447 3ae1 CF       		.byte	0xcf
 10448 3ae2 233B0000 		.4byte	0x3b23
 10449 3ae6 0E       		.uleb128 0xe
 10450 3ae7 91070000 		.4byte	.LASF794
 10451 3aeb 36       		.byte	0x36
 10452 3aec D3       		.byte	0xd3
 10453 3aed 0F1D0000 		.4byte	0x1d0f
 10454 3af1 00       		.byte	0
ARM GAS  C:\Users\PCHAUT~1\AppData\Local\Temp\ccjQKXWT.s 			page 185


 10455 3af2 0E       		.uleb128 0xe
 10456 3af3 A1120000 		.4byte	.LASF795
 10457 3af7 36       		.byte	0x36
 10458 3af8 D7       		.byte	0xd7
 10459 3af9 2C000000 		.4byte	0x2c
 10460 3afd 04       		.byte	0x4
 10461 3afe 0E       		.uleb128 0xe
 10462 3aff 840B0000 		.4byte	.LASF796
 10463 3b03 36       		.byte	0x36
 10464 3b04 DB       		.byte	0xdb
 10465 3b05 2C000000 		.4byte	0x2c
 10466 3b09 08       		.byte	0x8
 10467 3b0a 0E       		.uleb128 0xe
 10468 3b0b 38080000 		.4byte	.LASF520
 10469 3b0f 36       		.byte	0x36
 10470 3b10 E9       		.byte	0xe9
 10471 3b11 BF3A0000 		.4byte	0x3abf
 10472 3b15 0C       		.byte	0xc
 10473 3b16 0E       		.uleb128 0xe
 10474 3b17 730F0000 		.4byte	.LASF797
 10475 3b1b 36       		.byte	0x36
 10476 3b1c ED       		.byte	0xed
 10477 3b1d 2C000000 		.4byte	0x2c
 10478 3b21 10       		.byte	0x10
 10479 3b22 00       		.byte	0
 10480 3b23 03       		.uleb128 0x3
 10481 3b24 64100000 		.4byte	.LASF798
 10482 3b28 36       		.byte	0x36
 10483 3b29 EE       		.byte	0xee
 10484 3b2a DE3A0000 		.4byte	0x3ade
 10485 3b2e 1C       		.uleb128 0x1c
 10486 3b2f 04       		.byte	0x4
 10487 3b30 36       		.byte	0x36
 10488 3b31 0101     		.2byte	0x101
 10489 3b33 453B0000 		.4byte	0x3b45
 10490 3b37 18       		.uleb128 0x18
 10491 3b38 080C0000 		.4byte	.LASF799
 10492 3b3c 36       		.byte	0x36
 10493 3b3d 0501     		.2byte	0x105
 10494 3b3f F31A0000 		.4byte	0x1af3
 10495 3b43 00       		.byte	0
 10496 3b44 00       		.byte	0
 10497 3b45 1C       		.uleb128 0x1c
 10498 3b46 04       		.byte	0x4
 10499 3b47 36       		.byte	0x36
 10500 3b48 0701     		.2byte	0x107
 10501 3b4a 5C3B0000 		.4byte	0x3b5c
 10502 3b4e 18       		.uleb128 0x18
 10503 3b4f C11D0000 		.4byte	.LASF475
 10504 3b53 36       		.byte	0x36
 10505 3b54 0B01     		.2byte	0x10b
 10506 3b56 5C3B0000 		.4byte	0x3b5c
 10507 3b5a 00       		.byte	0
 10508 3b5b 00       		.byte	0
 10509 3b5c 06       		.uleb128 0x6
 10510 3b5d 04       		.byte	0x4
 10511 3b5e F91A0000 		.4byte	0x1af9
ARM GAS  C:\Users\PCHAUT~1\AppData\Local\Temp\ccjQKXWT.s 			page 186


 10512 3b62 1D       		.uleb128 0x1d
 10513 3b63 04       		.byte	0x4
 10514 3b64 36       		.byte	0x36
 10515 3b65 0001     		.2byte	0x100
 10516 3b67 843B0000 		.4byte	0x3b84
 10517 3b6b 1E       		.uleb128 0x1e
 10518 3b6c 061E0000 		.4byte	.LASF792
 10519 3b70 36       		.byte	0x36
 10520 3b71 0601     		.2byte	0x106
 10521 3b73 2E3B0000 		.4byte	0x3b2e
 10522 3b77 1E       		.uleb128 0x1e
 10523 3b78 FB1C0000 		.4byte	.LASF793
 10524 3b7c 36       		.byte	0x36
 10525 3b7d 0C01     		.2byte	0x10c
 10526 3b7f 453B0000 		.4byte	0x3b45
 10527 3b83 00       		.byte	0
 10528 3b84 0D       		.uleb128 0xd
 10529 3b85 14       		.byte	0x14
 10530 3b86 36       		.byte	0x36
 10531 3b87 F3       		.byte	0xf3
 10532 3b88 CB3B0000 		.4byte	0x3bcb
 10533 3b8c 0E       		.uleb128 0xe
 10534 3b8d C0050000 		.4byte	.LASF800
 10535 3b91 36       		.byte	0x36
 10536 3b92 F7       		.byte	0xf7
 10537 3b93 0F1D0000 		.4byte	0x1d0f
 10538 3b97 00       		.byte	0
 10539 3b98 0E       		.uleb128 0xe
 10540 3b99 65130000 		.4byte	.LASF801
 10541 3b9d 36       		.byte	0x36
 10542 3b9e FB       		.byte	0xfb
 10543 3b9f 2C000000 		.4byte	0x2c
 10544 3ba3 04       		.byte	0x4
 10545 3ba4 0E       		.uleb128 0xe
 10546 3ba5 13080000 		.4byte	.LASF802
 10547 3ba9 36       		.byte	0x36
 10548 3baa FF       		.byte	0xff
 10549 3bab 2C000000 		.4byte	0x2c
 10550 3baf 08       		.byte	0x8
 10551 3bb0 18       		.uleb128 0x18
 10552 3bb1 38080000 		.4byte	.LASF520
 10553 3bb5 36       		.byte	0x36
 10554 3bb6 0D01     		.2byte	0x10d
 10555 3bb8 623B0000 		.4byte	0x3b62
 10556 3bbc 0C       		.byte	0xc
 10557 3bbd 18       		.uleb128 0x18
 10558 3bbe 730F0000 		.4byte	.LASF797
 10559 3bc2 36       		.byte	0x36
 10560 3bc3 1101     		.2byte	0x111
 10561 3bc5 2C000000 		.4byte	0x2c
 10562 3bc9 10       		.byte	0x10
 10563 3bca 00       		.byte	0
 10564 3bcb 08       		.uleb128 0x8
 10565 3bcc 041C0000 		.4byte	.LASF803
 10566 3bd0 36       		.byte	0x36
 10567 3bd1 1201     		.2byte	0x112
 10568 3bd3 843B0000 		.4byte	0x3b84
ARM GAS  C:\Users\PCHAUT~1\AppData\Local\Temp\ccjQKXWT.s 			page 187


 10569 3bd7 1C       		.uleb128 0x1c
 10570 3bd8 24       		.byte	0x24
 10571 3bd9 36       		.byte	0x36
 10572 3bda 1801     		.2byte	0x118
 10573 3bdc 633C0000 		.4byte	0x3c63
 10574 3be0 18       		.uleb128 0x18
 10575 3be1 CC160000 		.4byte	.LASF804
 10576 3be5 36       		.byte	0x36
 10577 3be6 1C01     		.2byte	0x11c
 10578 3be8 21090000 		.4byte	0x921
 10579 3bec 00       		.byte	0
 10580 3bed 18       		.uleb128 0x18
 10581 3bee 300A0000 		.4byte	.LASF805
 10582 3bf2 36       		.byte	0x36
 10583 3bf3 2701     		.2byte	0x127
 10584 3bf5 94340000 		.4byte	0x3494
 10585 3bf9 04       		.byte	0x4
 10586 3bfa 18       		.uleb128 0x18
 10587 3bfb BE170000 		.4byte	.LASF806
 10588 3bff 36       		.byte	0x36
 10589 3c00 2D01     		.2byte	0x12d
 10590 3c02 94340000 		.4byte	0x3494
 10591 3c06 08       		.byte	0x8
 10592 3c07 18       		.uleb128 0x18
 10593 3c08 770C0000 		.4byte	.LASF807
 10594 3c0c 36       		.byte	0x36
 10595 3c0d 3301     		.2byte	0x133
 10596 3c0f 94340000 		.4byte	0x3494
 10597 3c13 0C       		.byte	0xc
 10598 3c14 18       		.uleb128 0x18
 10599 3c15 EE230000 		.4byte	.LASF808
 10600 3c19 36       		.byte	0x36
 10601 3c1a 3901     		.2byte	0x139
 10602 3c1c 06090000 		.4byte	0x906
 10603 3c20 10       		.byte	0x10
 10604 3c21 18       		.uleb128 0x18
 10605 3c22 DF0C0000 		.4byte	.LASF809
 10606 3c26 36       		.byte	0x36
 10607 3c27 3F01     		.2byte	0x13f
 10608 3c29 06090000 		.4byte	0x906
 10609 3c2d 12       		.byte	0x12
 10610 3c2e 18       		.uleb128 0x18
 10611 3c2f 85220000 		.4byte	.LASF810
 10612 3c33 36       		.byte	0x36
 10613 3c34 4401     		.2byte	0x144
 10614 3c36 633C0000 		.4byte	0x3c63
 10615 3c3a 14       		.byte	0x14
 10616 3c3b 18       		.uleb128 0x18
 10617 3c3c 610E0000 		.4byte	.LASF811
 10618 3c40 36       		.byte	0x36
 10619 3c41 4901     		.2byte	0x149
 10620 3c43 693C0000 		.4byte	0x3c69
 10621 3c47 18       		.byte	0x18
 10622 3c48 18       		.uleb128 0x18
 10623 3c49 06120000 		.4byte	.LASF812
 10624 3c4d 36       		.byte	0x36
 10625 3c4e 5001     		.2byte	0x150
ARM GAS  C:\Users\PCHAUT~1\AppData\Local\Temp\ccjQKXWT.s 			page 188


 10626 3c50 06090000 		.4byte	0x906
 10627 3c54 1C       		.byte	0x1c
 10628 3c55 18       		.uleb128 0x18
 10629 3c56 EE210000 		.4byte	.LASF813
 10630 3c5a 36       		.byte	0x36
 10631 3c5b 5601     		.2byte	0x156
 10632 3c5d F31A0000 		.4byte	0x1af3
 10633 3c61 20       		.byte	0x20
 10634 3c62 00       		.byte	0
 10635 3c63 06       		.uleb128 0x6
 10636 3c64 04       		.byte	0x4
 10637 3c65 233B0000 		.4byte	0x3b23
 10638 3c69 06       		.uleb128 0x6
 10639 3c6a 04       		.byte	0x4
 10640 3c6b CB3B0000 		.4byte	0x3bcb
 10641 3c6f 08       		.uleb128 0x8
 10642 3c70 911D0000 		.4byte	.LASF814
 10643 3c74 36       		.byte	0x36
 10644 3c75 5701     		.2byte	0x157
 10645 3c77 D73B0000 		.4byte	0x3bd7
 10646 3c7b 04       		.uleb128 0x4
 10647 3c7c 6F3C0000 		.4byte	0x3c6f
 10648 3c80 1C       		.uleb128 0x1c
 10649 3c81 10       		.byte	0x10
 10650 3c82 36       		.byte	0x36
 10651 3c83 5C01     		.2byte	0x15c
 10652 3c85 BE3C0000 		.4byte	0x3cbe
 10653 3c89 18       		.uleb128 0x18
 10654 3c8a A2040000 		.4byte	.LASF815
 10655 3c8e 36       		.byte	0x36
 10656 3c8f 6101     		.2byte	0x161
 10657 3c91 B6340000 		.4byte	0x34b6
 10658 3c95 00       		.byte	0
 10659 3c96 18       		.uleb128 0x18
 10660 3c97 0D210000 		.4byte	.LASF816
 10661 3c9b 36       		.byte	0x36
 10662 3c9c 6601     		.2byte	0x166
 10663 3c9e F9340000 		.4byte	0x34f9
 10664 3ca2 04       		.byte	0x4
 10665 3ca3 18       		.uleb128 0x18
 10666 3ca4 73120000 		.4byte	.LASF817
 10667 3ca8 36       		.byte	0x36
 10668 3ca9 6C01     		.2byte	0x16c
 10669 3cab D8340000 		.4byte	0x34d8
 10670 3caf 08       		.byte	0x8
 10671 3cb0 18       		.uleb128 0x18
 10672 3cb1 2F020000 		.4byte	.LASF818
 10673 3cb5 36       		.byte	0x36
 10674 3cb6 7001     		.2byte	0x170
 10675 3cb8 71340000 		.4byte	0x3471
 10676 3cbc 0C       		.byte	0xc
 10677 3cbd 00       		.byte	0
 10678 3cbe 08       		.uleb128 0x8
 10679 3cbf 78110000 		.4byte	.LASF819
 10680 3cc3 36       		.byte	0x36
 10681 3cc4 7201     		.2byte	0x172
 10682 3cc6 803C0000 		.4byte	0x3c80
ARM GAS  C:\Users\PCHAUT~1\AppData\Local\Temp\ccjQKXWT.s 			page 189


 10683 3cca 04       		.uleb128 0x4
 10684 3ccb BE3C0000 		.4byte	0x3cbe
 10685 3ccf 06       		.uleb128 0x6
 10686 3cd0 04       		.byte	0x4
 10687 3cd1 CA3C0000 		.4byte	0x3cca
 10688 3cd5 0B       		.uleb128 0xb
 10689 3cd6 E53C0000 		.4byte	0x3ce5
 10690 3cda E53C0000 		.4byte	0x3ce5
 10691 3cde 0C       		.uleb128 0xc
 10692 3cdf 3C000000 		.4byte	0x3c
 10693 3ce3 03       		.byte	0x3
 10694 3ce4 00       		.byte	0
 10695 3ce5 06       		.uleb128 0x6
 10696 3ce6 04       		.byte	0x4
 10697 3ce7 7B3C0000 		.4byte	0x3c7b
 10698 3ceb 0B       		.uleb128 0xb
 10699 3cec 62010000 		.4byte	0x162
 10700 3cf0 FB3C0000 		.4byte	0x3cfb
 10701 3cf4 0C       		.uleb128 0xc
 10702 3cf5 3C000000 		.4byte	0x3c
 10703 3cf9 02       		.byte	0x2
 10704 3cfa 00       		.byte	0
 10705 3cfb 06       		.uleb128 0x6
 10706 3cfc 04       		.byte	0x4
 10707 3cfd 473A0000 		.4byte	0x3a47
 10708 3d01 06       		.uleb128 0x6
 10709 3d02 04       		.byte	0x4
 10710 3d03 8A3A0000 		.4byte	0x3a8a
 10711 3d07 0B       		.uleb128 0xb
 10712 3d08 16150000 		.4byte	0x1516
 10713 3d0c 173D0000 		.4byte	0x3d17
 10714 3d10 0C       		.uleb128 0xc
 10715 3d11 3C000000 		.4byte	0x3c
 10716 3d15 3E       		.byte	0x3e
 10717 3d16 00       		.byte	0
 10718 3d17 20       		.uleb128 0x20
 10719 3d18 F1000000 		.4byte	.LASF820
 10720 3d1c 36       		.byte	0x36
 10721 3d1d 0602     		.2byte	0x206
 10722 3d1f 3D320000 		.4byte	0x323d
 10723 3d23 27       		.uleb128 0x27
 10724 3d24 07       		.byte	0x7
 10725 3d25 01       		.byte	0x1
 10726 3d26 63000000 		.4byte	0x63
 10727 3d2a 05       		.byte	0x5
 10728 3d2b 26       		.byte	0x26
 10729 3d2c 493D0000 		.4byte	0x3d49
 10730 3d30 28       		.uleb128 0x28
 10731 3d31 CA110000 		.4byte	.LASF821
 10732 3d35 00       		.byte	0
 10733 3d36 28       		.uleb128 0x28
 10734 3d37 1F150000 		.4byte	.LASF822
 10735 3d3b 01       		.byte	0x1
 10736 3d3c 28       		.uleb128 0x28
 10737 3d3d 36020000 		.4byte	.LASF823
 10738 3d41 02       		.byte	0x2
 10739 3d42 28       		.uleb128 0x28
ARM GAS  C:\Users\PCHAUT~1\AppData\Local\Temp\ccjQKXWT.s 			page 190


 10740 3d43 2C1D0000 		.4byte	.LASF824
 10741 3d47 03       		.byte	0x3
 10742 3d48 00       		.byte	0
 10743 3d49 03       		.uleb128 0x3
 10744 3d4a C3040000 		.4byte	.LASF825
 10745 3d4e 05       		.byte	0x5
 10746 3d4f 2B       		.byte	0x2b
 10747 3d50 233D0000 		.4byte	0x3d23
 10748 3d54 27       		.uleb128 0x27
 10749 3d55 07       		.byte	0x7
 10750 3d56 01       		.byte	0x1
 10751 3d57 63000000 		.4byte	0x63
 10752 3d5b 05       		.byte	0x5
 10753 3d5c 30       		.byte	0x30
 10754 3d5d 6E3D0000 		.4byte	0x3d6e
 10755 3d61 28       		.uleb128 0x28
 10756 3d62 E1000000 		.4byte	.LASF826
 10757 3d66 00       		.byte	0
 10758 3d67 28       		.uleb128 0x28
 10759 3d68 3E040000 		.4byte	.LASF827
 10760 3d6c 01       		.byte	0x1
 10761 3d6d 00       		.byte	0
 10762 3d6e 03       		.uleb128 0x3
 10763 3d6f A6130000 		.4byte	.LASF828
 10764 3d73 05       		.byte	0x5
 10765 3d74 33       		.byte	0x33
 10766 3d75 543D0000 		.4byte	0x3d54
 10767 3d79 27       		.uleb128 0x27
 10768 3d7a 07       		.byte	0x7
 10769 3d7b 01       		.byte	0x1
 10770 3d7c 63000000 		.4byte	0x63
 10771 3d80 05       		.byte	0x5
 10772 3d81 38       		.byte	0x38
 10773 3d82 9F3D0000 		.4byte	0x3d9f
 10774 3d86 28       		.uleb128 0x28
 10775 3d87 3A140000 		.4byte	.LASF829
 10776 3d8b 00       		.byte	0
 10777 3d8c 28       		.uleb128 0x28
 10778 3d8d 6A060000 		.4byte	.LASF830
 10779 3d91 01       		.byte	0x1
 10780 3d92 28       		.uleb128 0x28
 10781 3d93 99100000 		.4byte	.LASF831
 10782 3d97 02       		.byte	0x2
 10783 3d98 28       		.uleb128 0x28
 10784 3d99 7D190000 		.4byte	.LASF832
 10785 3d9d 03       		.byte	0x3
 10786 3d9e 00       		.byte	0
 10787 3d9f 03       		.uleb128 0x3
 10788 3da0 A8220000 		.4byte	.LASF833
 10789 3da4 05       		.byte	0x5
 10790 3da5 3D       		.byte	0x3d
 10791 3da6 793D0000 		.4byte	0x3d79
 10792 3daa 2F       		.uleb128 0x2f
 10793 3dab 551C0000 		.4byte	.LASF837
 10794 3daf 05       		.byte	0x5
 10795 3db0 4A       		.byte	0x4a
 10796 3db1 D0300000 		.4byte	0x30d0
ARM GAS  C:\Users\PCHAUT~1\AppData\Local\Temp\ccjQKXWT.s 			page 191


 10797 3db5 05       		.uleb128 0x5
 10798 3db6 03       		.byte	0x3
 10799 3db7 00000000 		.4byte	sdc_vmt
 10800 3dbb 30       		.uleb128 0x30
 10801 3dbc 4F010000 		.4byte	.LASF839
 10802 3dc0 05       		.byte	0x5
 10803 3dc1 B503     		.2byte	0x3b5
 10804 3dc3 0F1D0000 		.4byte	0x1d0f
 10805 3dc7 00000000 		.4byte	.LFB280
 10806 3dcb F4000000 		.4byte	.LFE280-.LFB280
 10807 3dcf 01       		.uleb128 0x1
 10808 3dd0 9C       		.byte	0x9c
 10809 3dd1 2D3E0000 		.4byte	0x3e2d
 10810 3dd5 31       		.uleb128 0x31
 10811 3dd6 56120000 		.4byte	.LASF834
 10812 3dda 05       		.byte	0x5
 10813 3ddb B503     		.2byte	0x3b5
 10814 3ddd 2D3E0000 		.4byte	0x3e2d
 10815 3de1 02       		.uleb128 0x2
 10816 3de2 91       		.byte	0x91
 10817 3de3 6C       		.sleb128 -20
 10818 3de4 31       		.uleb128 0x31
 10819 3de5 97220000 		.4byte	.LASF835
 10820 3de9 05       		.byte	0x5
 10821 3dea B503     		.2byte	0x3b5
 10822 3dec 21090000 		.4byte	0x921
 10823 3df0 02       		.uleb128 0x2
 10824 3df1 91       		.byte	0x91
 10825 3df2 68       		.sleb128 -24
 10826 3df3 31       		.uleb128 0x31
 10827 3df4 D5130000 		.4byte	.LASF836
 10828 3df8 05       		.byte	0x5
 10829 3df9 B503     		.2byte	0x3b5
 10830 3dfb 21090000 		.4byte	0x921
 10831 3dff 02       		.uleb128 0x2
 10832 3e00 91       		.byte	0x91
 10833 3e01 64       		.sleb128 -28
 10834 3e02 32       		.uleb128 0x32
 10835 3e03 B30D0000 		.4byte	.LASF838
 10836 3e07 05       		.byte	0x5
 10837 3e08 B603     		.2byte	0x3b6
 10838 3e0a 530D0000 		.4byte	0xd53
 10839 3e0e 02       		.uleb128 0x2
 10840 3e0f 91       		.byte	0x91
 10841 3e10 70       		.sleb128 -16
 10842 3e11 33       		.uleb128 0x33
 10843 3e12 5F000000 		.4byte	.LASF842
 10844 3e16 433E0000 		.4byte	0x3e43
 10845 3e1a 05       		.uleb128 0x5
 10846 3e1b 03       		.byte	0x3
 10847 3e1c 00000000 		.4byte	__func__.10429
 10848 3e20 34       		.uleb128 0x34
 10849 3e21 091F0000 		.4byte	.LASF851
 10850 3e25 05       		.byte	0x5
 10851 3e26 E503     		.2byte	0x3e5
 10852 3e28 C8000000 		.4byte	.L281
 10853 3e2c 00       		.byte	0
ARM GAS  C:\Users\PCHAUT~1\AppData\Local\Temp\ccjQKXWT.s 			page 192


 10854 3e2d 06       		.uleb128 0x6
 10855 3e2e 04       		.byte	0x4
 10856 3e2f 782F0000 		.4byte	0x2f78
 10857 3e33 0B       		.uleb128 0xb
 10858 3e34 71010000 		.4byte	0x171
 10859 3e38 433E0000 		.4byte	0x3e43
 10860 3e3c 0C       		.uleb128 0xc
 10861 3e3d 3C000000 		.4byte	0x3c
 10862 3e41 08       		.byte	0x8
 10863 3e42 00       		.byte	0
 10864 3e43 04       		.uleb128 0x4
 10865 3e44 333E0000 		.4byte	0x3e33
 10866 3e48 30       		.uleb128 0x30
 10867 3e49 961C0000 		.4byte	.LASF840
 10868 3e4d 05       		.byte	0x5
 10869 3e4e 9A03     		.2byte	0x39a
 10870 3e50 0F1D0000 		.4byte	0x1d0f
 10871 3e54 00000000 		.4byte	.LFB279
 10872 3e58 5C000000 		.4byte	.LFE279-.LFB279
 10873 3e5c 01       		.uleb128 0x1
 10874 3e5d 9C       		.byte	0x9c
 10875 3e5e 903E0000 		.4byte	0x3e90
 10876 3e62 31       		.uleb128 0x31
 10877 3e63 56120000 		.4byte	.LASF834
 10878 3e67 05       		.byte	0x5
 10879 3e68 9A03     		.2byte	0x39a
 10880 3e6a 2D3E0000 		.4byte	0x3e2d
 10881 3e6e 02       		.uleb128 0x2
 10882 3e6f 91       		.byte	0x91
 10883 3e70 6C       		.sleb128 -20
 10884 3e71 31       		.uleb128 0x31
 10885 3e72 31220000 		.4byte	.LASF841
 10886 3e76 05       		.byte	0x5
 10887 3e77 9A03     		.2byte	0x39a
 10888 3e79 781D0000 		.4byte	0x1d78
 10889 3e7d 02       		.uleb128 0x2
 10890 3e7e 91       		.byte	0x91
 10891 3e7f 68       		.sleb128 -24
 10892 3e80 33       		.uleb128 0x33
 10893 3e81 5F000000 		.4byte	.LASF842
 10894 3e85 A03E0000 		.4byte	0x3ea0
 10895 3e89 05       		.uleb128 0x5
 10896 3e8a 03       		.byte	0x3
 10897 3e8b 00000000 		.4byte	__func__.10422
 10898 3e8f 00       		.byte	0
 10899 3e90 0B       		.uleb128 0xb
 10900 3e91 71010000 		.4byte	0x171
 10901 3e95 A03E0000 		.4byte	0x3ea0
 10902 3e99 0C       		.uleb128 0xc
 10903 3e9a 3C000000 		.4byte	0x3c
 10904 3e9e 0A       		.byte	0xa
 10905 3e9f 00       		.byte	0
 10906 3ea0 04       		.uleb128 0x4
 10907 3ea1 903E0000 		.4byte	0x3e90
 10908 3ea5 30       		.uleb128 0x30
 10909 3ea6 DD0B0000 		.4byte	.LASF843
 10910 3eaa 05       		.byte	0x5
ARM GAS  C:\Users\PCHAUT~1\AppData\Local\Temp\ccjQKXWT.s 			page 193


 10911 3eab 7B03     		.2byte	0x37b
 10912 3ead 0F1D0000 		.4byte	0x1d0f
 10913 3eb1 00000000 		.4byte	.LFB278
 10914 3eb5 60000000 		.4byte	.LFE278-.LFB278
 10915 3eb9 01       		.uleb128 0x1
 10916 3eba 9C       		.byte	0x9c
 10917 3ebb ED3E0000 		.4byte	0x3eed
 10918 3ebf 31       		.uleb128 0x31
 10919 3ec0 56120000 		.4byte	.LASF834
 10920 3ec4 05       		.byte	0x5
 10921 3ec5 7B03     		.2byte	0x37b
 10922 3ec7 2D3E0000 		.4byte	0x3e2d
 10923 3ecb 02       		.uleb128 0x2
 10924 3ecc 91       		.byte	0x91
 10925 3ecd 6C       		.sleb128 -20
 10926 3ece 32       		.uleb128 0x32
 10927 3ecf F1120000 		.4byte	.LASF844
 10928 3ed3 05       		.byte	0x5
 10929 3ed4 7C03     		.2byte	0x37c
 10930 3ed6 0F1D0000 		.4byte	0x1d0f
 10931 3eda 02       		.uleb128 0x2
 10932 3edb 91       		.byte	0x91
 10933 3edc 73       		.sleb128 -13
 10934 3edd 33       		.uleb128 0x33
 10935 3ede 5F000000 		.4byte	.LASF842
 10936 3ee2 FD3E0000 		.4byte	0x3efd
 10937 3ee6 05       		.uleb128 0x5
 10938 3ee7 03       		.byte	0x3
 10939 3ee8 00000000 		.4byte	__func__.10417
 10940 3eec 00       		.byte	0
 10941 3eed 0B       		.uleb128 0xb
 10942 3eee 71010000 		.4byte	0x171
 10943 3ef2 FD3E0000 		.4byte	0x3efd
 10944 3ef6 0C       		.uleb128 0xc
 10945 3ef7 3C000000 		.4byte	0x3c
 10946 3efb 07       		.byte	0x7
 10947 3efc 00       		.byte	0
 10948 3efd 04       		.uleb128 0x4
 10949 3efe ED3E0000 		.4byte	0x3eed
 10950 3f02 30       		.uleb128 0x30
 10951 3f03 AF190000 		.4byte	.LASF845
 10952 3f07 05       		.byte	0x5
 10953 3f08 6303     		.2byte	0x363
 10954 3f0a 6D2F0000 		.4byte	0x2f6d
 10955 3f0e 00000000 		.4byte	.LFB277
 10956 3f12 5C000000 		.4byte	.LFE277-.LFB277
 10957 3f16 01       		.uleb128 0x1
 10958 3f17 9C       		.byte	0x9c
 10959 3f18 4A3F0000 		.4byte	0x3f4a
 10960 3f1c 31       		.uleb128 0x31
 10961 3f1d 56120000 		.4byte	.LASF834
 10962 3f21 05       		.byte	0x5
 10963 3f22 6303     		.2byte	0x363
 10964 3f24 2D3E0000 		.4byte	0x3e2d
 10965 3f28 02       		.uleb128 0x2
 10966 3f29 91       		.byte	0x91
 10967 3f2a 6C       		.sleb128 -20
ARM GAS  C:\Users\PCHAUT~1\AppData\Local\Temp\ccjQKXWT.s 			page 194


 10968 3f2b 32       		.uleb128 0x32
 10969 3f2c 09240000 		.4byte	.LASF846
 10970 3f30 05       		.byte	0x5
 10971 3f31 6403     		.2byte	0x364
 10972 3f33 6D2F0000 		.4byte	0x2f6d
 10973 3f37 02       		.uleb128 0x2
 10974 3f38 91       		.byte	0x91
 10975 3f39 70       		.sleb128 -16
 10976 3f3a 33       		.uleb128 0x33
 10977 3f3b 5F000000 		.4byte	.LASF842
 10978 3f3f 5A3F0000 		.4byte	0x3f5a
 10979 3f43 05       		.uleb128 0x5
 10980 3f44 03       		.byte	0x3
 10981 3f45 00000000 		.4byte	__func__.10412
 10982 3f49 00       		.byte	0
 10983 3f4a 0B       		.uleb128 0xb
 10984 3f4b 71010000 		.4byte	0x171
 10985 3f4f 5A3F0000 		.4byte	0x3f5a
 10986 3f53 0C       		.uleb128 0xc
 10987 3f54 3C000000 		.4byte	0x3c
 10988 3f58 14       		.byte	0x14
 10989 3f59 00       		.byte	0
 10990 3f5a 04       		.uleb128 0x4
 10991 3f5b 4A3F0000 		.4byte	0x3f4a
 10992 3f5f 30       		.uleb128 0x30
 10993 3f60 F4110000 		.4byte	.LASF847
 10994 3f64 05       		.byte	0x5
 10995 3f65 4503     		.2byte	0x345
 10996 3f67 0F1D0000 		.4byte	0x1d0f
 10997 3f6b 00000000 		.4byte	.LFB276
 10998 3f6f 98000000 		.4byte	.LFE276-.LFB276
 10999 3f73 01       		.uleb128 0x1
 11000 3f74 9C       		.byte	0x9c
 11001 3f75 D23F0000 		.4byte	0x3fd2
 11002 3f79 31       		.uleb128 0x31
 11003 3f7a 56120000 		.4byte	.LASF834
 11004 3f7e 05       		.byte	0x5
 11005 3f7f 4503     		.2byte	0x345
 11006 3f81 2D3E0000 		.4byte	0x3e2d
 11007 3f85 02       		.uleb128 0x2
 11008 3f86 91       		.byte	0x91
 11009 3f87 6C       		.sleb128 -20
 11010 3f88 31       		.uleb128 0x31
 11011 3f89 97220000 		.4byte	.LASF835
 11012 3f8d 05       		.byte	0x5
 11013 3f8e 4503     		.2byte	0x345
 11014 3f90 21090000 		.4byte	0x921
 11015 3f94 02       		.uleb128 0x2
 11016 3f95 91       		.byte	0x91
 11017 3f96 68       		.sleb128 -24
 11018 3f97 35       		.uleb128 0x35
 11019 3f98 62756600 		.ascii	"buf\000"
 11020 3f9c 05       		.byte	0x5
 11021 3f9d 4603     		.2byte	0x346
 11022 3f9f 281B0000 		.4byte	0x1b28
 11023 3fa3 02       		.uleb128 0x2
 11024 3fa4 91       		.byte	0x91
ARM GAS  C:\Users\PCHAUT~1\AppData\Local\Temp\ccjQKXWT.s 			page 195


 11025 3fa5 64       		.sleb128 -28
 11026 3fa6 35       		.uleb128 0x35
 11027 3fa7 6E00     		.ascii	"n\000"
 11028 3fa9 05       		.byte	0x5
 11029 3faa 4603     		.2byte	0x346
 11030 3fac 21090000 		.4byte	0x921
 11031 3fb0 02       		.uleb128 0x2
 11032 3fb1 91       		.byte	0x91
 11033 3fb2 60       		.sleb128 -32
 11034 3fb3 32       		.uleb128 0x32
 11035 3fb4 E9140000 		.4byte	.LASF675
 11036 3fb8 05       		.byte	0x5
 11037 3fb9 4703     		.2byte	0x347
 11038 3fbb 0F1D0000 		.4byte	0x1d0f
 11039 3fbf 02       		.uleb128 0x2
 11040 3fc0 91       		.byte	0x91
 11041 3fc1 73       		.sleb128 -13
 11042 3fc2 33       		.uleb128 0x33
 11043 3fc3 5F000000 		.4byte	.LASF842
 11044 3fc7 433E0000 		.4byte	0x3e43
 11045 3fcb 05       		.uleb128 0x5
 11046 3fcc 03       		.byte	0x3
 11047 3fcd 00000000 		.4byte	__func__.10407
 11048 3fd1 00       		.byte	0
 11049 3fd2 30       		.uleb128 0x30
 11050 3fd3 98180000 		.4byte	.LASF848
 11051 3fd7 05       		.byte	0x5
 11052 3fd8 2003     		.2byte	0x320
 11053 3fda 0F1D0000 		.4byte	0x1d0f
 11054 3fde 00000000 		.4byte	.LFB275
 11055 3fe2 98000000 		.4byte	.LFE275-.LFB275
 11056 3fe6 01       		.uleb128 0x1
 11057 3fe7 9C       		.byte	0x9c
 11058 3fe8 45400000 		.4byte	0x4045
 11059 3fec 31       		.uleb128 0x31
 11060 3fed 56120000 		.4byte	.LASF834
 11061 3ff1 05       		.byte	0x5
 11062 3ff2 2003     		.2byte	0x320
 11063 3ff4 2D3E0000 		.4byte	0x3e2d
 11064 3ff8 02       		.uleb128 0x2
 11065 3ff9 91       		.byte	0x91
 11066 3ffa 6C       		.sleb128 -20
 11067 3ffb 31       		.uleb128 0x31
 11068 3ffc 97220000 		.4byte	.LASF835
 11069 4000 05       		.byte	0x5
 11070 4001 2003     		.2byte	0x320
 11071 4003 21090000 		.4byte	0x921
 11072 4007 02       		.uleb128 0x2
 11073 4008 91       		.byte	0x91
 11074 4009 68       		.sleb128 -24
 11075 400a 35       		.uleb128 0x35
 11076 400b 62756600 		.ascii	"buf\000"
 11077 400f 05       		.byte	0x5
 11078 4010 2003     		.2byte	0x320
 11079 4012 F31A0000 		.4byte	0x1af3
 11080 4016 02       		.uleb128 0x2
 11081 4017 91       		.byte	0x91
ARM GAS  C:\Users\PCHAUT~1\AppData\Local\Temp\ccjQKXWT.s 			page 196


 11082 4018 64       		.sleb128 -28
 11083 4019 35       		.uleb128 0x35
 11084 401a 6E00     		.ascii	"n\000"
 11085 401c 05       		.byte	0x5
 11086 401d 2003     		.2byte	0x320
 11087 401f 21090000 		.4byte	0x921
 11088 4023 02       		.uleb128 0x2
 11089 4024 91       		.byte	0x91
 11090 4025 60       		.sleb128 -32
 11091 4026 32       		.uleb128 0x32
 11092 4027 E9140000 		.4byte	.LASF675
 11093 402b 05       		.byte	0x5
 11094 402c 2103     		.2byte	0x321
 11095 402e 0F1D0000 		.4byte	0x1d0f
 11096 4032 02       		.uleb128 0x2
 11097 4033 91       		.byte	0x91
 11098 4034 73       		.sleb128 -13
 11099 4035 33       		.uleb128 0x33
 11100 4036 5F000000 		.4byte	.LASF842
 11101 403a FD3E0000 		.4byte	0x3efd
 11102 403e 05       		.uleb128 0x5
 11103 403f 03       		.byte	0x3
 11104 4040 00000000 		.4byte	__func__.10399
 11105 4044 00       		.byte	0
 11106 4045 30       		.uleb128 0x30
 11107 4046 71220000 		.4byte	.LASF849
 11108 404a 05       		.byte	0x5
 11109 404b F502     		.2byte	0x2f5
 11110 404d 0F1D0000 		.4byte	0x1d0f
 11111 4051 00000000 		.4byte	.LFB274
 11112 4055 94000000 		.4byte	.LFE274-.LFB274
 11113 4059 01       		.uleb128 0x1
 11114 405a 9C       		.byte	0x9c
 11115 405b 7E400000 		.4byte	0x407e
 11116 405f 31       		.uleb128 0x31
 11117 4060 56120000 		.4byte	.LASF834
 11118 4064 05       		.byte	0x5
 11119 4065 F502     		.2byte	0x2f5
 11120 4067 2D3E0000 		.4byte	0x3e2d
 11121 406b 02       		.uleb128 0x2
 11122 406c 91       		.byte	0x91
 11123 406d 6C       		.sleb128 -20
 11124 406e 33       		.uleb128 0x33
 11125 406f 5F000000 		.4byte	.LASF842
 11126 4073 8E400000 		.4byte	0x408e
 11127 4077 05       		.uleb128 0x5
 11128 4078 03       		.byte	0x3
 11129 4079 00000000 		.4byte	__func__.10391
 11130 407d 00       		.byte	0
 11131 407e 0B       		.uleb128 0xb
 11132 407f 71010000 		.4byte	0x171
 11133 4083 8E400000 		.4byte	0x408e
 11134 4087 0C       		.uleb128 0xc
 11135 4088 3C000000 		.4byte	0x3c
 11136 408c 0D       		.byte	0xd
 11137 408d 00       		.byte	0
 11138 408e 04       		.uleb128 0x4
ARM GAS  C:\Users\PCHAUT~1\AppData\Local\Temp\ccjQKXWT.s 			page 197


 11139 408f 7E400000 		.4byte	0x407e
 11140 4093 30       		.uleb128 0x30
 11141 4094 771E0000 		.4byte	.LASF850
 11142 4098 05       		.byte	0x5
 11143 4099 6A02     		.2byte	0x26a
 11144 409b 0F1D0000 		.4byte	0x1d0f
 11145 409f 00000000 		.4byte	.LFB273
 11146 40a3 20020000 		.4byte	.LFE273-.LFB273
 11147 40a7 01       		.uleb128 0x1
 11148 40a8 9C       		.byte	0x9c
 11149 40a9 0B410000 		.4byte	0x410b
 11150 40ad 31       		.uleb128 0x31
 11151 40ae 56120000 		.4byte	.LASF834
 11152 40b2 05       		.byte	0x5
 11153 40b3 6A02     		.2byte	0x26a
 11154 40b5 2D3E0000 		.4byte	0x3e2d
 11155 40b9 02       		.uleb128 0x2
 11156 40ba 91       		.byte	0x91
 11157 40bb 64       		.sleb128 -28
 11158 40bc 32       		.uleb128 0x32
 11159 40bd B30D0000 		.4byte	.LASF838
 11160 40c1 05       		.byte	0x5
 11161 40c2 6B02     		.2byte	0x26b
 11162 40c4 530D0000 		.4byte	0xd53
 11163 40c8 02       		.uleb128 0x2
 11164 40c9 91       		.byte	0x91
 11165 40ca 70       		.sleb128 -16
 11166 40cb 36       		.uleb128 0x36
 11167 40cc 636C6B00 		.ascii	"clk\000"
 11168 40d0 05       		.byte	0x5
 11169 40d1 6C02     		.2byte	0x26c
 11170 40d3 572F0000 		.4byte	0x2f57
 11171 40d7 02       		.uleb128 0x2
 11172 40d8 91       		.byte	0x91
 11173 40d9 6B       		.sleb128 -21
 11174 40da 33       		.uleb128 0x33
 11175 40db 5F000000 		.4byte	.LASF842
 11176 40df A03E0000 		.4byte	0x3ea0
 11177 40e3 05       		.uleb128 0x5
 11178 40e4 03       		.byte	0x3
 11179 40e5 00000000 		.4byte	__func__.10380
 11180 40e9 34       		.uleb128 0x34
 11181 40ea 091F0000 		.4byte	.LASF851
 11182 40ee 05       		.byte	0x5
 11183 40ef E402     		.2byte	0x2e4
 11184 40f1 EE010000 		.4byte	.L186
 11185 40f5 37       		.uleb128 0x37
 11186 40f6 00000000 		.4byte	.Ldebug_ranges0+0
 11187 40fa 32       		.uleb128 0x32
 11188 40fb F7190000 		.4byte	.LASF852
 11189 40ff 05       		.byte	0x5
 11190 4100 AE02     		.2byte	0x2ae
 11191 4102 F31A0000 		.4byte	0x1af3
 11192 4106 02       		.uleb128 0x2
 11193 4107 91       		.byte	0x91
 11194 4108 6C       		.sleb128 -20
 11195 4109 00       		.byte	0
ARM GAS  C:\Users\PCHAUT~1\AppData\Local\Temp\ccjQKXWT.s 			page 198


 11196 410a 00       		.byte	0
 11197 410b 38       		.uleb128 0x38
 11198 410c 201E0000 		.4byte	.LASF853
 11199 4110 05       		.byte	0x5
 11200 4111 5002     		.2byte	0x250
 11201 4113 00000000 		.4byte	.LFB272
 11202 4117 60000000 		.4byte	.LFE272-.LFB272
 11203 411b 01       		.uleb128 0x1
 11204 411c 9C       		.byte	0x9c
 11205 411d 40410000 		.4byte	0x4140
 11206 4121 31       		.uleb128 0x31
 11207 4122 56120000 		.4byte	.LASF834
 11208 4126 05       		.byte	0x5
 11209 4127 5002     		.2byte	0x250
 11210 4129 2D3E0000 		.4byte	0x3e2d
 11211 412d 02       		.uleb128 0x2
 11212 412e 91       		.byte	0x91
 11213 412f 6C       		.sleb128 -20
 11214 4130 33       		.uleb128 0x33
 11215 4131 5F000000 		.4byte	.LASF842
 11216 4135 FD3E0000 		.4byte	0x3efd
 11217 4139 05       		.uleb128 0x5
 11218 413a 03       		.byte	0x3
 11219 413b 00000000 		.4byte	__func__.10374
 11220 413f 00       		.byte	0
 11221 4140 38       		.uleb128 0x38
 11222 4141 810E0000 		.4byte	.LASF854
 11223 4145 05       		.byte	0x5
 11224 4146 3C02     		.2byte	0x23c
 11225 4148 00000000 		.4byte	.LFB271
 11226 414c 68000000 		.4byte	.LFE271-.LFB271
 11227 4150 01       		.uleb128 0x1
 11228 4151 9C       		.byte	0x9c
 11229 4152 84410000 		.4byte	0x4184
 11230 4156 31       		.uleb128 0x31
 11231 4157 56120000 		.4byte	.LASF834
 11232 415b 05       		.byte	0x5
 11233 415c 3C02     		.2byte	0x23c
 11234 415e 2D3E0000 		.4byte	0x3e2d
 11235 4162 02       		.uleb128 0x2
 11236 4163 91       		.byte	0x91
 11237 4164 6C       		.sleb128 -20
 11238 4165 31       		.uleb128 0x31
 11239 4166 171B0000 		.4byte	.LASF442
 11240 416a 05       		.byte	0x5
 11241 416b 3C02     		.2byte	0x23c
 11242 416d DB300000 		.4byte	0x30db
 11243 4171 02       		.uleb128 0x2
 11244 4172 91       		.byte	0x91
 11245 4173 68       		.sleb128 -24
 11246 4174 33       		.uleb128 0x33
 11247 4175 5F000000 		.4byte	.LASF842
 11248 4179 433E0000 		.4byte	0x3e43
 11249 417d 05       		.uleb128 0x5
 11250 417e 03       		.byte	0x3
 11251 417f 00000000 		.4byte	__func__.10370
 11252 4183 00       		.byte	0
ARM GAS  C:\Users\PCHAUT~1\AppData\Local\Temp\ccjQKXWT.s 			page 199


 11253 4184 38       		.uleb128 0x38
 11254 4185 51190000 		.4byte	.LASF855
 11255 4189 05       		.byte	0x5
 11256 418a 2902     		.2byte	0x229
 11257 418c 00000000 		.4byte	.LFB270
 11258 4190 48000000 		.4byte	.LFE270-.LFB270
 11259 4194 01       		.uleb128 0x1
 11260 4195 9C       		.byte	0x9c
 11261 4196 AA410000 		.4byte	0x41aa
 11262 419a 31       		.uleb128 0x31
 11263 419b 56120000 		.4byte	.LASF834
 11264 419f 05       		.byte	0x5
 11265 41a0 2902     		.2byte	0x229
 11266 41a2 2D3E0000 		.4byte	0x3e2d
 11267 41a6 02       		.uleb128 0x2
 11268 41a7 91       		.byte	0x91
 11269 41a8 6C       		.sleb128 -20
 11270 41a9 00       		.byte	0
 11271 41aa 39       		.uleb128 0x39
 11272 41ab 0B0D0000 		.4byte	.LASF886
 11273 41af 05       		.byte	0x5
 11274 41b0 1D02     		.2byte	0x21d
 11275 41b2 00000000 		.4byte	.LFB269
 11276 41b6 28000000 		.4byte	.LFE269-.LFB269
 11277 41ba 01       		.uleb128 0x1
 11278 41bb 9C       		.byte	0x9c
 11279 41bc 30       		.uleb128 0x30
 11280 41bd C6020000 		.4byte	.LASF856
 11281 41c1 05       		.byte	0x5
 11282 41c2 F601     		.2byte	0x1f6
 11283 41c4 0F1D0000 		.4byte	0x1d0f
 11284 41c8 00000000 		.4byte	.LFB268
 11285 41cc 70000000 		.4byte	.LFE268-.LFB268
 11286 41d0 01       		.uleb128 0x1
 11287 41d1 9C       		.byte	0x9c
 11288 41d2 F5410000 		.4byte	0x41f5
 11289 41d6 31       		.uleb128 0x31
 11290 41d7 56120000 		.4byte	.LASF834
 11291 41db 05       		.byte	0x5
 11292 41dc F601     		.2byte	0x1f6
 11293 41de 2D3E0000 		.4byte	0x3e2d
 11294 41e2 02       		.uleb128 0x2
 11295 41e3 91       		.byte	0x91
 11296 41e4 6C       		.sleb128 -20
 11297 41e5 32       		.uleb128 0x32
 11298 41e6 B30D0000 		.4byte	.LASF838
 11299 41ea 05       		.byte	0x5
 11300 41eb F701     		.2byte	0x1f7
 11301 41ed 530D0000 		.4byte	0xd53
 11302 41f1 02       		.uleb128 0x2
 11303 41f2 91       		.byte	0x91
 11304 41f3 70       		.sleb128 -16
 11305 41f4 00       		.byte	0
 11306 41f5 3A       		.uleb128 0x3a
 11307 41f6 09000000 		.4byte	.LASF858
 11308 41fa 05       		.byte	0x5
 11309 41fb CF01     		.2byte	0x1cf
ARM GAS  C:\Users\PCHAUT~1\AppData\Local\Temp\ccjQKXWT.s 			page 200


 11310 41fd 0F1D0000 		.4byte	0x1d0f
 11311 4201 00000000 		.4byte	.LFB267
 11312 4205 AC000000 		.4byte	.LFE267-.LFB267
 11313 4209 01       		.uleb128 0x1
 11314 420a 9C       		.byte	0x9c
 11315 420b 4C420000 		.4byte	0x424c
 11316 420f 31       		.uleb128 0x31
 11317 4210 56120000 		.4byte	.LASF834
 11318 4214 05       		.byte	0x5
 11319 4215 CF01     		.2byte	0x1cf
 11320 4217 2D3E0000 		.4byte	0x3e2d
 11321 421b 02       		.uleb128 0x2
 11322 421c 91       		.byte	0x91
 11323 421d 64       		.sleb128 -28
 11324 421e 32       		.uleb128 0x32
 11325 421f B30D0000 		.4byte	.LASF838
 11326 4223 05       		.byte	0x5
 11327 4224 D001     		.2byte	0x1d0
 11328 4226 530D0000 		.4byte	0xd53
 11329 422a 02       		.uleb128 0x2
 11330 422b 91       		.byte	0x91
 11331 422c 70       		.sleb128 -16
 11332 422d 32       		.uleb128 0x32
 11333 422e 570D0000 		.4byte	.LASF857
 11334 4232 05       		.byte	0x5
 11335 4233 D101     		.2byte	0x1d1
 11336 4235 21090000 		.4byte	0x921
 11337 4239 02       		.uleb128 0x2
 11338 423a 91       		.byte	0x91
 11339 423b 6C       		.sleb128 -20
 11340 423c 33       		.uleb128 0x33
 11341 423d 5F000000 		.4byte	.LASF842
 11342 4241 5C420000 		.4byte	0x425c
 11343 4245 05       		.uleb128 0x5
 11344 4246 03       		.byte	0x3
 11345 4247 00000000 		.4byte	__func__.10348
 11346 424b 00       		.byte	0
 11347 424c 0B       		.uleb128 0xb
 11348 424d 71010000 		.4byte	0x171
 11349 4251 5C420000 		.4byte	0x425c
 11350 4255 0C       		.uleb128 0xc
 11351 4256 3C000000 		.4byte	0x3c
 11352 425a 11       		.byte	0x11
 11353 425b 00       		.byte	0
 11354 425c 04       		.uleb128 0x4
 11355 425d 4C420000 		.4byte	0x424c
 11356 4261 3A       		.uleb128 0x3a
 11357 4262 A6010000 		.4byte	.LASF859
 11358 4266 05       		.byte	0x5
 11359 4267 A901     		.2byte	0x1a9
 11360 4269 0F1D0000 		.4byte	0x1d0f
 11361 426d 00000000 		.4byte	.LFB266
 11362 4271 94000000 		.4byte	.LFE266-.LFB266
 11363 4275 01       		.uleb128 0x1
 11364 4276 9C       		.byte	0x9c
 11365 4277 9A420000 		.4byte	0x429a
 11366 427b 31       		.uleb128 0x31
ARM GAS  C:\Users\PCHAUT~1\AppData\Local\Temp\ccjQKXWT.s 			page 201


 11367 427c 56120000 		.4byte	.LASF834
 11368 4280 05       		.byte	0x5
 11369 4281 A901     		.2byte	0x1a9
 11370 4283 2D3E0000 		.4byte	0x3e2d
 11371 4287 02       		.uleb128 0x2
 11372 4288 91       		.byte	0x91
 11373 4289 6C       		.sleb128 -20
 11374 428a 32       		.uleb128 0x32
 11375 428b B30D0000 		.4byte	.LASF838
 11376 428f 05       		.byte	0x5
 11377 4290 AA01     		.2byte	0x1aa
 11378 4292 530D0000 		.4byte	0xd53
 11379 4296 02       		.uleb128 0x2
 11380 4297 91       		.byte	0x91
 11381 4298 70       		.sleb128 -16
 11382 4299 00       		.byte	0
 11383 429a 3A       		.uleb128 0x3a
 11384 429b 3F230000 		.4byte	.LASF860
 11385 429f 05       		.byte	0x5
 11386 42a0 9601     		.2byte	0x196
 11387 42a2 0F1D0000 		.4byte	0x1d0f
 11388 42a6 00000000 		.4byte	.LFB265
 11389 42aa 4C000000 		.4byte	.LFE265-.LFB265
 11390 42ae 01       		.uleb128 0x1
 11391 42af 9C       		.byte	0x9c
 11392 42b0 D3420000 		.4byte	0x42d3
 11393 42b4 31       		.uleb128 0x31
 11394 42b5 56120000 		.4byte	.LASF834
 11395 42b9 05       		.byte	0x5
 11396 42ba 9601     		.2byte	0x196
 11397 42bc 2D3E0000 		.4byte	0x3e2d
 11398 42c0 02       		.uleb128 0x2
 11399 42c1 91       		.byte	0x91
 11400 42c2 6C       		.sleb128 -20
 11401 42c3 35       		.uleb128 0x35
 11402 42c4 636C6B00 		.ascii	"clk\000"
 11403 42c8 05       		.byte	0x5
 11404 42c9 9601     		.2byte	0x196
 11405 42cb D3420000 		.4byte	0x42d3
 11406 42cf 02       		.uleb128 0x2
 11407 42d0 91       		.byte	0x91
 11408 42d1 68       		.sleb128 -24
 11409 42d2 00       		.byte	0
 11410 42d3 06       		.uleb128 0x6
 11411 42d4 04       		.byte	0x4
 11412 42d5 572F0000 		.4byte	0x2f57
 11413 42d9 3A       		.uleb128 0x3a
 11414 42da CB120000 		.4byte	.LASF861
 11415 42de 05       		.byte	0x5
 11416 42df 7401     		.2byte	0x174
 11417 42e1 0F1D0000 		.4byte	0x1d0f
 11418 42e5 00000000 		.4byte	.LFB264
 11419 42e9 7C000000 		.4byte	.LFE264-.LFB264
 11420 42ed 01       		.uleb128 0x1
 11421 42ee 9C       		.byte	0x9c
 11422 42ef 3F430000 		.4byte	0x433f
 11423 42f3 31       		.uleb128 0x31
ARM GAS  C:\Users\PCHAUT~1\AppData\Local\Temp\ccjQKXWT.s 			page 202


 11424 42f4 56120000 		.4byte	.LASF834
 11425 42f8 05       		.byte	0x5
 11426 42f9 7401     		.2byte	0x174
 11427 42fb 2D3E0000 		.4byte	0x3e2d
 11428 42ff 02       		.uleb128 0x2
 11429 4300 91       		.byte	0x91
 11430 4301 64       		.sleb128 -28
 11431 4302 35       		.uleb128 0x35
 11432 4303 636C6B00 		.ascii	"clk\000"
 11433 4307 05       		.byte	0x5
 11434 4308 7401     		.2byte	0x174
 11435 430a D3420000 		.4byte	0x42d3
 11436 430e 02       		.uleb128 0x2
 11437 430f 91       		.byte	0x91
 11438 4310 60       		.sleb128 -32
 11439 4311 32       		.uleb128 0x32
 11440 4312 570D0000 		.4byte	.LASF857
 11441 4316 05       		.byte	0x5
 11442 4317 7501     		.2byte	0x175
 11443 4319 21090000 		.4byte	0x921
 11444 431d 02       		.uleb128 0x2
 11445 431e 91       		.byte	0x91
 11446 431f 6C       		.sleb128 -20
 11447 4320 32       		.uleb128 0x32
 11448 4321 B30D0000 		.4byte	.LASF838
 11449 4325 05       		.byte	0x5
 11450 4326 7601     		.2byte	0x176
 11451 4328 530D0000 		.4byte	0xd53
 11452 432c 02       		.uleb128 0x2
 11453 432d 91       		.byte	0x91
 11454 432e 70       		.sleb128 -16
 11455 432f 32       		.uleb128 0x32
 11456 4330 4E0E0000 		.4byte	.LASF642
 11457 4334 05       		.byte	0x5
 11458 4335 7701     		.2byte	0x177
 11459 4337 F31A0000 		.4byte	0x1af3
 11460 433b 02       		.uleb128 0x2
 11461 433c 91       		.byte	0x91
 11462 433d 68       		.sleb128 -24
 11463 433e 00       		.byte	0
 11464 433f 3A       		.uleb128 0x3a
 11465 4340 970B0000 		.4byte	.LASF862
 11466 4344 05       		.byte	0x5
 11467 4345 3E01     		.2byte	0x13e
 11468 4347 0F1D0000 		.4byte	0x1d0f
 11469 434b 00000000 		.4byte	.LFB263
 11470 434f 1C010000 		.4byte	.LFE263-.LFB263
 11471 4353 01       		.uleb128 0x1
 11472 4354 9C       		.byte	0x9c
 11473 4355 A4430000 		.4byte	0x43a4
 11474 4359 31       		.uleb128 0x31
 11475 435a 56120000 		.4byte	.LASF834
 11476 435e 05       		.byte	0x5
 11477 435f 3E01     		.2byte	0x13e
 11478 4361 2D3E0000 		.4byte	0x3e2d
 11479 4365 02       		.uleb128 0x2
 11480 4366 91       		.byte	0x91
ARM GAS  C:\Users\PCHAUT~1\AppData\Local\Temp\ccjQKXWT.s 			page 203


 11481 4367 54       		.sleb128 -44
 11482 4368 35       		.uleb128 0x35
 11483 4369 636C6B00 		.ascii	"clk\000"
 11484 436d 05       		.byte	0x5
 11485 436e 3E01     		.2byte	0x13e
 11486 4370 D3420000 		.4byte	0x42d3
 11487 4374 02       		.uleb128 0x2
 11488 4375 91       		.byte	0x91
 11489 4376 50       		.sleb128 -48
 11490 4377 32       		.uleb128 0x32
 11491 4378 570D0000 		.4byte	.LASF857
 11492 437c 05       		.byte	0x5
 11493 437d 3F01     		.2byte	0x13f
 11494 437f 21090000 		.4byte	0x921
 11495 4383 02       		.uleb128 0x2
 11496 4384 91       		.byte	0x91
 11497 4385 68       		.sleb128 -24
 11498 4386 36       		.uleb128 0x36
 11499 4387 4E00     		.ascii	"N\000"
 11500 4389 05       		.byte	0x5
 11501 438a 4001     		.2byte	0x140
 11502 438c 37000000 		.4byte	0x37
 11503 4390 02       		.uleb128 0x2
 11504 4391 91       		.byte	0x91
 11505 4392 5C       		.sleb128 -36
 11506 4393 36       		.uleb128 0x36
 11507 4394 746D7000 		.ascii	"tmp\000"
 11508 4398 05       		.byte	0x5
 11509 4399 4101     		.2byte	0x141
 11510 439b A4430000 		.4byte	0x43a4
 11511 439f 03       		.uleb128 0x3
 11512 43a0 91       		.byte	0x91
 11513 43a1 64       		.sleb128 -28
 11514 43a2 06       		.byte	0x6
 11515 43a3 00       		.byte	0
 11516 43a4 0B       		.uleb128 0xb
 11517 43a5 EB080000 		.4byte	0x8eb
 11518 43a9 B7430000 		.4byte	0x43b7
 11519 43ad 3B       		.uleb128 0x3b
 11520 43ae 3C000000 		.4byte	0x3c
 11521 43b2 03       		.uleb128 0x3
 11522 43b3 91       		.byte	0x91
 11523 43b4 60       		.sleb128 -32
 11524 43b5 06       		.byte	0x6
 11525 43b6 00       		.byte	0
 11526 43b7 3A       		.uleb128 0x3a
 11527 43b8 8E050000 		.4byte	.LASF863
 11528 43bc 05       		.byte	0x5
 11529 43bd 2201     		.2byte	0x122
 11530 43bf 0F1D0000 		.4byte	0x1d0f
 11531 43c3 00000000 		.4byte	.LFB262
 11532 43c7 68000000 		.4byte	.LFE262-.LFB262
 11533 43cb 01       		.uleb128 0x1
 11534 43cc 9C       		.byte	0x9c
 11535 43cd 0E440000 		.4byte	0x440e
 11536 43d1 31       		.uleb128 0x31
 11537 43d2 27160000 		.4byte	.LASF864
ARM GAS  C:\Users\PCHAUT~1\AppData\Local\Temp\ccjQKXWT.s 			page 204


 11538 43d6 05       		.byte	0x5
 11539 43d7 2201     		.2byte	0x122
 11540 43d9 9F3D0000 		.4byte	0x3d9f
 11541 43dd 02       		.uleb128 0x2
 11542 43de 91       		.byte	0x91
 11543 43df 67       		.sleb128 -25
 11544 43e0 35       		.uleb128 0x35
 11545 43e1 62756600 		.ascii	"buf\000"
 11546 43e5 05       		.byte	0x5
 11547 43e6 2301     		.2byte	0x123
 11548 43e8 281B0000 		.4byte	0x1b28
 11549 43ec 02       		.uleb128 0x2
 11550 43ed 91       		.byte	0x91
 11551 43ee 60       		.sleb128 -32
 11552 43ef 36       		.uleb128 0x36
 11553 43f0 746D7000 		.ascii	"tmp\000"
 11554 43f4 05       		.byte	0x5
 11555 43f5 2501     		.2byte	0x125
 11556 43f7 21090000 		.4byte	0x921
 11557 43fb 02       		.uleb128 0x2
 11558 43fc 91       		.byte	0x91
 11559 43fd 6C       		.sleb128 -20
 11560 43fe 32       		.uleb128 0x32
 11561 43ff E9140000 		.4byte	.LASF675
 11562 4403 05       		.byte	0x5
 11563 4404 2601     		.2byte	0x126
 11564 4406 21090000 		.4byte	0x921
 11565 440a 02       		.uleb128 0x2
 11566 440b 91       		.byte	0x91
 11567 440c 70       		.sleb128 -16
 11568 440d 00       		.byte	0
 11569 440e 3A       		.uleb128 0x3a
 11570 440f A5200000 		.4byte	.LASF865
 11571 4413 05       		.byte	0x5
 11572 4414 0E01     		.2byte	0x10e
 11573 4416 06090000 		.4byte	0x906
 11574 441a 00000000 		.4byte	.LFB261
 11575 441e 5C000000 		.4byte	.LFE261-.LFB261
 11576 4422 01       		.uleb128 0x1
 11577 4423 9C       		.byte	0x9c
 11578 4424 56440000 		.4byte	0x4456
 11579 4428 31       		.uleb128 0x31
 11580 4429 27160000 		.4byte	.LASF864
 11581 442d 05       		.byte	0x5
 11582 442e 0E01     		.2byte	0x10e
 11583 4430 9F3D0000 		.4byte	0x3d9f
 11584 4434 02       		.uleb128 0x2
 11585 4435 91       		.byte	0x91
 11586 4436 6F       		.sleb128 -17
 11587 4437 35       		.uleb128 0x35
 11588 4438 62756600 		.ascii	"buf\000"
 11589 443c 05       		.byte	0x5
 11590 443d 0F01     		.2byte	0x10f
 11591 443f 281B0000 		.4byte	0x1b28
 11592 4443 02       		.uleb128 0x2
 11593 4444 91       		.byte	0x91
 11594 4445 68       		.sleb128 -24
ARM GAS  C:\Users\PCHAUT~1\AppData\Local\Temp\ccjQKXWT.s 			page 205


 11595 4446 32       		.uleb128 0x32
 11596 4447 A1110000 		.4byte	.LASF866
 11597 444b 05       		.byte	0x5
 11598 444c 1101     		.2byte	0x111
 11599 444e 3C000000 		.4byte	0x3c
 11600 4452 02       		.uleb128 0x2
 11601 4453 91       		.byte	0x91
 11602 4454 70       		.sleb128 -16
 11603 4455 00       		.byte	0
 11604 4456 3C       		.uleb128 0x3c
 11605 4457 181C0000 		.4byte	.LASF867
 11606 445b 05       		.byte	0x5
 11607 445c F8       		.byte	0xf8
 11608 445d 21090000 		.4byte	0x921
 11609 4461 00000000 		.4byte	.LFB260
 11610 4465 78000000 		.4byte	.LFE260-.LFB260
 11611 4469 01       		.uleb128 0x1
 11612 446a 9C       		.byte	0x9c
 11613 446b B7440000 		.4byte	0x44b7
 11614 446f 3D       		.uleb128 0x3d
 11615 4470 38080000 		.4byte	.LASF520
 11616 4474 05       		.byte	0x5
 11617 4475 F8       		.byte	0xf8
 11618 4476 6E3D0000 		.4byte	0x3d6e
 11619 447a 02       		.uleb128 0x2
 11620 447b 91       		.byte	0x91
 11621 447c 6F       		.sleb128 -17
 11622 447d 3D       		.uleb128 0x3d
 11623 447e 27160000 		.4byte	.LASF864
 11624 4482 05       		.byte	0x5
 11625 4483 F9       		.byte	0xf9
 11626 4484 9F3D0000 		.4byte	0x3d9f
 11627 4488 02       		.uleb128 0x2
 11628 4489 91       		.byte	0x91
 11629 448a 6E       		.sleb128 -18
 11630 448b 3D       		.uleb128 0x3d
 11631 448c 540C0000 		.4byte	.LASF868
 11632 4490 05       		.byte	0x5
 11633 4491 FA       		.byte	0xfa
 11634 4492 21090000 		.4byte	0x921
 11635 4496 02       		.uleb128 0x2
 11636 4497 91       		.byte	0x91
 11637 4498 68       		.sleb128 -24
 11638 4499 3E       		.uleb128 0x3e
 11639 449a 72657400 		.ascii	"ret\000"
 11640 449e 05       		.byte	0x5
 11641 449f FB       		.byte	0xfb
 11642 44a0 21090000 		.4byte	0x921
 11643 44a4 02       		.uleb128 0x2
 11644 44a5 91       		.byte	0x91
 11645 44a6 70       		.sleb128 -16
 11646 44a7 33       		.uleb128 0x33
 11647 44a8 5F000000 		.4byte	.LASF842
 11648 44ac C7440000 		.4byte	0x44c7
 11649 44b0 05       		.uleb128 0x5
 11650 44b1 03       		.byte	0x3
 11651 44b2 00000000 		.4byte	__func__.10304
ARM GAS  C:\Users\PCHAUT~1\AppData\Local\Temp\ccjQKXWT.s 			page 206


 11652 44b6 00       		.byte	0
 11653 44b7 0B       		.uleb128 0xb
 11654 44b8 71010000 		.4byte	0x171
 11655 44bc C7440000 		.4byte	0x44c7
 11656 44c0 0C       		.uleb128 0xc
 11657 44c1 3C000000 		.4byte	0x3c
 11658 44c5 12       		.byte	0x12
 11659 44c6 00       		.byte	0
 11660 44c7 04       		.uleb128 0x4
 11661 44c8 B7440000 		.4byte	0x44b7
 11662 44cc 3C       		.uleb128 0x3c
 11663 44cd 4E230000 		.4byte	.LASF869
 11664 44d1 05       		.byte	0x5
 11665 44d2 E4       		.byte	0xe4
 11666 44d3 21090000 		.4byte	0x921
 11667 44d7 00000000 		.4byte	.LFB259
 11668 44db 64000000 		.4byte	.LFE259-.LFB259
 11669 44df 01       		.uleb128 0x1
 11670 44e0 9C       		.byte	0x9c
 11671 44e1 2D450000 		.4byte	0x452d
 11672 44e5 3D       		.uleb128 0x3d
 11673 44e6 4A0D0000 		.4byte	.LASF870
 11674 44ea 05       		.byte	0x5
 11675 44eb E4       		.byte	0xe4
 11676 44ec 493D0000 		.4byte	0x3d49
 11677 44f0 02       		.uleb128 0x2
 11678 44f1 91       		.byte	0x91
 11679 44f2 6F       		.sleb128 -17
 11680 44f3 3F       		.uleb128 0x3f
 11681 44f4 69647800 		.ascii	"idx\000"
 11682 44f8 05       		.byte	0x5
 11683 44f9 E4       		.byte	0xe4
 11684 44fa 21090000 		.4byte	0x921
 11685 44fe 02       		.uleb128 0x2
 11686 44ff 91       		.byte	0x91
 11687 4500 68       		.sleb128 -24
 11688 4501 3D       		.uleb128 0x3d
 11689 4502 540C0000 		.4byte	.LASF868
 11690 4506 05       		.byte	0x5
 11691 4507 E5       		.byte	0xe5
 11692 4508 21090000 		.4byte	0x921
 11693 450c 02       		.uleb128 0x2
 11694 450d 91       		.byte	0x91
 11695 450e 64       		.sleb128 -28
 11696 450f 3D       		.uleb128 0x3d
 11697 4510 57000000 		.4byte	.LASF871
 11698 4514 05       		.byte	0x5
 11699 4515 E5       		.byte	0xe5
 11700 4516 21090000 		.4byte	0x921
 11701 451a 02       		.uleb128 0x2
 11702 451b 91       		.byte	0x91
 11703 451c 60       		.sleb128 -32
 11704 451d 33       		.uleb128 0x33
 11705 451e 5F000000 		.4byte	.LASF842
 11706 4522 C7440000 		.4byte	0x44c7
 11707 4526 05       		.uleb128 0x5
 11708 4527 03       		.byte	0x3
ARM GAS  C:\Users\PCHAUT~1\AppData\Local\Temp\ccjQKXWT.s 			page 207


 11709 4528 00000000 		.4byte	__func__.10297
 11710 452c 00       		.byte	0
 11711 452d 3C       		.uleb128 0x3c
 11712 452e 0F220000 		.4byte	.LASF872
 11713 4532 05       		.byte	0x5
 11714 4533 B4       		.byte	0xb4
 11715 4534 0F1D0000 		.4byte	0x1d0f
 11716 4538 00000000 		.4byte	.LFB258
 11717 453c BC000000 		.4byte	.LFE258-.LFB258
 11718 4540 01       		.uleb128 0x1
 11719 4541 9C       		.byte	0x9c
 11720 4542 7D450000 		.4byte	0x457d
 11721 4546 3D       		.uleb128 0x3d
 11722 4547 56120000 		.4byte	.LASF834
 11723 454b 05       		.byte	0x5
 11724 454c B4       		.byte	0xb4
 11725 454d 2D3E0000 		.4byte	0x3e2d
 11726 4551 02       		.uleb128 0x2
 11727 4552 91       		.byte	0x91
 11728 4553 64       		.sleb128 -28
 11729 4554 3E       		.uleb128 0x3e
 11730 4555 6900     		.ascii	"i\000"
 11731 4557 05       		.byte	0x5
 11732 4558 B5       		.byte	0xb5
 11733 4559 3C000000 		.4byte	0x3c
 11734 455d 02       		.uleb128 0x2
 11735 455e 91       		.byte	0x91
 11736 455f 68       		.sleb128 -24
 11737 4560 3E       		.uleb128 0x3e
 11738 4561 6F637200 		.ascii	"ocr\000"
 11739 4565 05       		.byte	0x5
 11740 4566 B6       		.byte	0xb6
 11741 4567 21090000 		.4byte	0x921
 11742 456b 02       		.uleb128 0x2
 11743 456c 91       		.byte	0x91
 11744 456d 6C       		.sleb128 -20
 11745 456e 2F       		.uleb128 0x2f
 11746 456f B30D0000 		.4byte	.LASF838
 11747 4573 05       		.byte	0x5
 11748 4574 B7       		.byte	0xb7
 11749 4575 530D0000 		.4byte	0xd53
 11750 4579 02       		.uleb128 0x2
 11751 457a 91       		.byte	0x91
 11752 457b 70       		.sleb128 -16
 11753 457c 00       		.byte	0
 11754 457d 3C       		.uleb128 0x3c
 11755 457e 3C1A0000 		.4byte	.LASF873
 11756 4582 05       		.byte	0x5
 11757 4583 8F       		.byte	0x8f
 11758 4584 0F1D0000 		.4byte	0x1d0f
 11759 4588 00000000 		.4byte	.LFB257
 11760 458c 84000000 		.4byte	.LFE257-.LFB257
 11761 4590 01       		.uleb128 0x1
 11762 4591 9C       		.byte	0x9c
 11763 4592 CD450000 		.4byte	0x45cd
 11764 4596 3D       		.uleb128 0x3d
 11765 4597 56120000 		.4byte	.LASF834
ARM GAS  C:\Users\PCHAUT~1\AppData\Local\Temp\ccjQKXWT.s 			page 208


 11766 459b 05       		.byte	0x5
 11767 459c 8F       		.byte	0x8f
 11768 459d 2D3E0000 		.4byte	0x3e2d
 11769 45a1 02       		.uleb128 0x2
 11770 45a2 91       		.byte	0x91
 11771 45a3 64       		.sleb128 -28
 11772 45a4 3E       		.uleb128 0x3e
 11773 45a5 6F637200 		.ascii	"ocr\000"
 11774 45a9 05       		.byte	0x5
 11775 45aa 90       		.byte	0x90
 11776 45ab 21090000 		.4byte	0x921
 11777 45af 02       		.uleb128 0x2
 11778 45b0 91       		.byte	0x91
 11779 45b1 6C       		.sleb128 -20
 11780 45b2 3E       		.uleb128 0x3e
 11781 45b3 6900     		.ascii	"i\000"
 11782 45b5 05       		.byte	0x5
 11783 45b6 91       		.byte	0x91
 11784 45b7 3C000000 		.4byte	0x3c
 11785 45bb 02       		.uleb128 0x2
 11786 45bc 91       		.byte	0x91
 11787 45bd 68       		.sleb128 -24
 11788 45be 2F       		.uleb128 0x2f
 11789 45bf B30D0000 		.4byte	.LASF838
 11790 45c3 05       		.byte	0x5
 11791 45c4 92       		.byte	0x92
 11792 45c5 530D0000 		.4byte	0xd53
 11793 45c9 02       		.uleb128 0x2
 11794 45ca 91       		.byte	0x91
 11795 45cb 70       		.sleb128 -16
 11796 45cc 00       		.byte	0
 11797 45cd 3C       		.uleb128 0x3c
 11798 45ce 4D1A0000 		.4byte	.LASF874
 11799 45d2 05       		.byte	0x5
 11800 45d3 63       		.byte	0x63
 11801 45d4 0F1D0000 		.4byte	0x1d0f
 11802 45d8 00000000 		.4byte	.LFB256
 11803 45dc B0000000 		.4byte	.LFE256-.LFB256
 11804 45e0 01       		.uleb128 0x1
 11805 45e1 9C       		.byte	0x9c
 11806 45e2 03460000 		.4byte	0x4603
 11807 45e6 3D       		.uleb128 0x3d
 11808 45e7 56120000 		.4byte	.LASF834
 11809 45eb 05       		.byte	0x5
 11810 45ec 63       		.byte	0x63
 11811 45ed 2D3E0000 		.4byte	0x3e2d
 11812 45f1 02       		.uleb128 0x2
 11813 45f2 91       		.byte	0x91
 11814 45f3 6C       		.sleb128 -20
 11815 45f4 2F       		.uleb128 0x2f
 11816 45f5 B30D0000 		.4byte	.LASF838
 11817 45f9 05       		.byte	0x5
 11818 45fa 64       		.byte	0x64
 11819 45fb 530D0000 		.4byte	0xd53
 11820 45ff 02       		.uleb128 0x2
 11821 4600 91       		.byte	0x91
 11822 4601 70       		.sleb128 -16
ARM GAS  C:\Users\PCHAUT~1\AppData\Local\Temp\ccjQKXWT.s 			page 209


 11823 4602 00       		.byte	0
 11824 4603 40       		.uleb128 0x40
 11825 4604 1E060000 		.4byte	.LASF878
 11826 4608 04       		.byte	0x4
 11827 4609 7102     		.2byte	0x271
 11828 460b 00000000 		.4byte	.LFB235
 11829 460f 2C000000 		.4byte	.LFE235-.LFB235
 11830 4613 01       		.uleb128 0x1
 11831 4614 9C       		.byte	0x9c
 11832 4615 29460000 		.4byte	0x4629
 11833 4619 31       		.uleb128 0x31
 11834 461a AF160000 		.4byte	.LASF875
 11835 461e 04       		.byte	0x4
 11836 461f 7102     		.2byte	0x271
 11837 4621 C5090000 		.4byte	0x9c5
 11838 4625 02       		.uleb128 0x2
 11839 4626 91       		.byte	0x91
 11840 4627 6C       		.sleb128 -20
 11841 4628 00       		.byte	0
 11842 4629 41       		.uleb128 0x41
 11843 462a 58010000 		.4byte	.LASF876
 11844 462e 04       		.byte	0x4
 11845 462f C801     		.2byte	0x1c8
 11846 4631 00000000 		.4byte	.LFB224
 11847 4635 28000000 		.4byte	.LFE224-.LFB224
 11848 4639 01       		.uleb128 0x1
 11849 463a 9C       		.byte	0x9c
 11850 463b 41       		.uleb128 0x41
 11851 463c C11A0000 		.4byte	.LASF877
 11852 4640 04       		.byte	0x4
 11853 4641 BD01     		.2byte	0x1bd
 11854 4643 00000000 		.4byte	.LFB223
 11855 4647 28000000 		.4byte	.LFE223-.LFB223
 11856 464b 01       		.uleb128 0x1
 11857 464c 9C       		.byte	0x9c
 11858 464d 40       		.uleb128 0x40
 11859 464e 881E0000 		.4byte	.LASF879
 11860 4652 03       		.byte	0x3
 11861 4653 6601     		.2byte	0x166
 11862 4655 00000000 		.4byte	.LFB146
 11863 4659 58000000 		.4byte	.LFE146-.LFB146
 11864 465d 01       		.uleb128 0x1
 11865 465e 9C       		.byte	0x9c
 11866 465f 73460000 		.4byte	0x4673
 11867 4663 33       		.uleb128 0x33
 11868 4664 5F000000 		.4byte	.LASF842
 11869 4668 83460000 		.4byte	0x4683
 11870 466c 05       		.uleb128 0x5
 11871 466d 03       		.byte	0x3
 11872 466e 00000000 		.4byte	__func__.7554
 11873 4672 00       		.byte	0
 11874 4673 0B       		.uleb128 0xb
 11875 4674 71010000 		.4byte	0x171
 11876 4678 83460000 		.4byte	0x4683
 11877 467c 0C       		.uleb128 0xc
 11878 467d 3C000000 		.4byte	0x3c
 11879 4681 0B       		.byte	0xb
ARM GAS  C:\Users\PCHAUT~1\AppData\Local\Temp\ccjQKXWT.s 			page 210


 11880 4682 00       		.byte	0
 11881 4683 04       		.uleb128 0x4
 11882 4684 73460000 		.4byte	0x4673
 11883 4688 41       		.uleb128 0x41
 11884 4689 B4160000 		.4byte	.LASF880
 11885 468d 03       		.byte	0x3
 11886 468e 5A01     		.2byte	0x15a
 11887 4690 00000000 		.4byte	.LFB145
 11888 4694 30000000 		.4byte	.LFE145-.LFB145
 11889 4698 01       		.uleb128 0x1
 11890 4699 9C       		.byte	0x9c
 11891 469a 40       		.uleb128 0x40
 11892 469b 7C160000 		.4byte	.LASF881
 11893 469f 01       		.byte	0x1
 11894 46a0 CA01     		.2byte	0x1ca
 11895 46a2 00000000 		.4byte	.LFB117
 11896 46a6 30000000 		.4byte	.LFE117-.LFB117
 11897 46aa 01       		.uleb128 0x1
 11898 46ab 9C       		.byte	0x9c
 11899 46ac CA460000 		.4byte	0x46ca
 11900 46b0 42       		.uleb128 0x42
 11901 46b1 FA460000 		.4byte	0x46fa
 11902 46b5 0E000000 		.4byte	.LBB8
 11903 46b9 06000000 		.4byte	.LBE8-.LBB8
 11904 46bd 01       		.byte	0x1
 11905 46be CD01     		.2byte	0x1cd
 11906 46c0 43       		.uleb128 0x43
 11907 46c1 03470000 		.4byte	0x4703
 11908 46c5 02       		.uleb128 0x2
 11909 46c6 91       		.byte	0x91
 11910 46c7 70       		.sleb128 -16
 11911 46c8 00       		.byte	0
 11912 46c9 00       		.byte	0
 11913 46ca 40       		.uleb128 0x40
 11914 46cb 0D180000 		.4byte	.LASF882
 11915 46cf 01       		.byte	0x1
 11916 46d0 BC01     		.2byte	0x1bc
 11917 46d2 00000000 		.4byte	.LFB116
 11918 46d6 30000000 		.4byte	.LFE116-.LFB116
 11919 46da 01       		.uleb128 0x1
 11920 46db 9C       		.byte	0x9c
 11921 46dc FA460000 		.4byte	0x46fa
 11922 46e0 42       		.uleb128 0x42
 11923 46e1 FA460000 		.4byte	0x46fa
 11924 46e5 0E000000 		.4byte	.LBB6
 11925 46e9 06000000 		.4byte	.LBE6-.LBB6
 11926 46ed 01       		.byte	0x1
 11927 46ee BF01     		.2byte	0x1bf
 11928 46f0 43       		.uleb128 0x43
 11929 46f1 03470000 		.4byte	0x4703
 11930 46f5 02       		.uleb128 0x2
 11931 46f6 91       		.byte	0x91
 11932 46f7 70       		.sleb128 -16
 11933 46f8 00       		.byte	0
 11934 46f9 00       		.byte	0
 11935 46fa 44       		.uleb128 0x44
 11936 46fb C5210000 		.4byte	.LASF887
ARM GAS  C:\Users\PCHAUT~1\AppData\Local\Temp\ccjQKXWT.s 			page 211


 11937 46ff 02       		.byte	0x2
 11938 4700 2002     		.2byte	0x220
 11939 4702 03       		.byte	0x3
 11940 4703 45       		.uleb128 0x45
 11941 4704 540C0000 		.4byte	.LASF868
 11942 4708 02       		.byte	0x2
 11943 4709 2002     		.2byte	0x220
 11944 470b 21090000 		.4byte	0x921
 11945 470f 00       		.byte	0
 11946 4710 00       		.byte	0
 11947              		.section	.debug_abbrev,"",%progbits
 11948              	.Ldebug_abbrev0:
 11949 0000 01       		.uleb128 0x1
 11950 0001 11       		.uleb128 0x11
 11951 0002 01       		.byte	0x1
 11952 0003 25       		.uleb128 0x25
 11953 0004 0E       		.uleb128 0xe
 11954 0005 13       		.uleb128 0x13
 11955 0006 0B       		.uleb128 0xb
 11956 0007 03       		.uleb128 0x3
 11957 0008 0E       		.uleb128 0xe
 11958 0009 1B       		.uleb128 0x1b
 11959 000a 0E       		.uleb128 0xe
 11960 000b 55       		.uleb128 0x55
 11961 000c 17       		.uleb128 0x17
 11962 000d 11       		.uleb128 0x11
 11963 000e 01       		.uleb128 0x1
 11964 000f 10       		.uleb128 0x10
 11965 0010 17       		.uleb128 0x17
 11966 0011 00       		.byte	0
 11967 0012 00       		.byte	0
 11968 0013 02       		.uleb128 0x2
 11969 0014 24       		.uleb128 0x24
 11970 0015 00       		.byte	0
 11971 0016 0B       		.uleb128 0xb
 11972 0017 0B       		.uleb128 0xb
 11973 0018 3E       		.uleb128 0x3e
 11974 0019 0B       		.uleb128 0xb
 11975 001a 03       		.uleb128 0x3
 11976 001b 08       		.uleb128 0x8
 11977 001c 00       		.byte	0
 11978 001d 00       		.byte	0
 11979 001e 03       		.uleb128 0x3
 11980 001f 16       		.uleb128 0x16
 11981 0020 00       		.byte	0
 11982 0021 03       		.uleb128 0x3
 11983 0022 0E       		.uleb128 0xe
 11984 0023 3A       		.uleb128 0x3a
 11985 0024 0B       		.uleb128 0xb
 11986 0025 3B       		.uleb128 0x3b
 11987 0026 0B       		.uleb128 0xb
 11988 0027 49       		.uleb128 0x49
 11989 0028 13       		.uleb128 0x13
 11990 0029 00       		.byte	0
 11991 002a 00       		.byte	0
 11992 002b 04       		.uleb128 0x4
 11993 002c 26       		.uleb128 0x26
ARM GAS  C:\Users\PCHAUT~1\AppData\Local\Temp\ccjQKXWT.s 			page 212


 11994 002d 00       		.byte	0
 11995 002e 49       		.uleb128 0x49
 11996 002f 13       		.uleb128 0x13
 11997 0030 00       		.byte	0
 11998 0031 00       		.byte	0
 11999 0032 05       		.uleb128 0x5
 12000 0033 24       		.uleb128 0x24
 12001 0034 00       		.byte	0
 12002 0035 0B       		.uleb128 0xb
 12003 0036 0B       		.uleb128 0xb
 12004 0037 3E       		.uleb128 0x3e
 12005 0038 0B       		.uleb128 0xb
 12006 0039 03       		.uleb128 0x3
 12007 003a 0E       		.uleb128 0xe
 12008 003b 00       		.byte	0
 12009 003c 00       		.byte	0
 12010 003d 06       		.uleb128 0x6
 12011 003e 0F       		.uleb128 0xf
 12012 003f 00       		.byte	0
 12013 0040 0B       		.uleb128 0xb
 12014 0041 0B       		.uleb128 0xb
 12015 0042 49       		.uleb128 0x49
 12016 0043 13       		.uleb128 0x13
 12017 0044 00       		.byte	0
 12018 0045 00       		.byte	0
 12019 0046 07       		.uleb128 0x7
 12020 0047 13       		.uleb128 0x13
 12021 0048 00       		.byte	0
 12022 0049 03       		.uleb128 0x3
 12023 004a 0E       		.uleb128 0xe
 12024 004b 3C       		.uleb128 0x3c
 12025 004c 19       		.uleb128 0x19
 12026 004d 00       		.byte	0
 12027 004e 00       		.byte	0
 12028 004f 08       		.uleb128 0x8
 12029 0050 16       		.uleb128 0x16
 12030 0051 00       		.byte	0
 12031 0052 03       		.uleb128 0x3
 12032 0053 0E       		.uleb128 0xe
 12033 0054 3A       		.uleb128 0x3a
 12034 0055 0B       		.uleb128 0xb
 12035 0056 3B       		.uleb128 0x3b
 12036 0057 05       		.uleb128 0x5
 12037 0058 49       		.uleb128 0x49
 12038 0059 13       		.uleb128 0x13
 12039 005a 00       		.byte	0
 12040 005b 00       		.byte	0
 12041 005c 09       		.uleb128 0x9
 12042 005d 17       		.uleb128 0x17
 12043 005e 01       		.byte	0x1
 12044 005f 0B       		.uleb128 0xb
 12045 0060 0B       		.uleb128 0xb
 12046 0061 3A       		.uleb128 0x3a
 12047 0062 0B       		.uleb128 0xb
 12048 0063 3B       		.uleb128 0x3b
 12049 0064 0B       		.uleb128 0xb
 12050 0065 01       		.uleb128 0x1
ARM GAS  C:\Users\PCHAUT~1\AppData\Local\Temp\ccjQKXWT.s 			page 213


 12051 0066 13       		.uleb128 0x13
 12052 0067 00       		.byte	0
 12053 0068 00       		.byte	0
 12054 0069 0A       		.uleb128 0xa
 12055 006a 0D       		.uleb128 0xd
 12056 006b 00       		.byte	0
 12057 006c 03       		.uleb128 0x3
 12058 006d 0E       		.uleb128 0xe
 12059 006e 3A       		.uleb128 0x3a
 12060 006f 0B       		.uleb128 0xb
 12061 0070 3B       		.uleb128 0x3b
 12062 0071 0B       		.uleb128 0xb
 12063 0072 49       		.uleb128 0x49
 12064 0073 13       		.uleb128 0x13
 12065 0074 00       		.byte	0
 12066 0075 00       		.byte	0
 12067 0076 0B       		.uleb128 0xb
 12068 0077 01       		.uleb128 0x1
 12069 0078 01       		.byte	0x1
 12070 0079 49       		.uleb128 0x49
 12071 007a 13       		.uleb128 0x13
 12072 007b 01       		.uleb128 0x1
 12073 007c 13       		.uleb128 0x13
 12074 007d 00       		.byte	0
 12075 007e 00       		.byte	0
 12076 007f 0C       		.uleb128 0xc
 12077 0080 21       		.uleb128 0x21
 12078 0081 00       		.byte	0
 12079 0082 49       		.uleb128 0x49
 12080 0083 13       		.uleb128 0x13
 12081 0084 2F       		.uleb128 0x2f
 12082 0085 0B       		.uleb128 0xb
 12083 0086 00       		.byte	0
 12084 0087 00       		.byte	0
 12085 0088 0D       		.uleb128 0xd
 12086 0089 13       		.uleb128 0x13
 12087 008a 01       		.byte	0x1
 12088 008b 0B       		.uleb128 0xb
 12089 008c 0B       		.uleb128 0xb
 12090 008d 3A       		.uleb128 0x3a
 12091 008e 0B       		.uleb128 0xb
 12092 008f 3B       		.uleb128 0x3b
 12093 0090 0B       		.uleb128 0xb
 12094 0091 01       		.uleb128 0x1
 12095 0092 13       		.uleb128 0x13
 12096 0093 00       		.byte	0
 12097 0094 00       		.byte	0
 12098 0095 0E       		.uleb128 0xe
 12099 0096 0D       		.uleb128 0xd
 12100 0097 00       		.byte	0
 12101 0098 03       		.uleb128 0x3
 12102 0099 0E       		.uleb128 0xe
 12103 009a 3A       		.uleb128 0x3a
 12104 009b 0B       		.uleb128 0xb
 12105 009c 3B       		.uleb128 0x3b
 12106 009d 0B       		.uleb128 0xb
 12107 009e 49       		.uleb128 0x49
ARM GAS  C:\Users\PCHAUT~1\AppData\Local\Temp\ccjQKXWT.s 			page 214


 12108 009f 13       		.uleb128 0x13
 12109 00a0 38       		.uleb128 0x38
 12110 00a1 0B       		.uleb128 0xb
 12111 00a2 00       		.byte	0
 12112 00a3 00       		.byte	0
 12113 00a4 0F       		.uleb128 0xf
 12114 00a5 0F       		.uleb128 0xf
 12115 00a6 00       		.byte	0
 12116 00a7 0B       		.uleb128 0xb
 12117 00a8 0B       		.uleb128 0xb
 12118 00a9 00       		.byte	0
 12119 00aa 00       		.byte	0
 12120 00ab 10       		.uleb128 0x10
 12121 00ac 13       		.uleb128 0x13
 12122 00ad 01       		.byte	0x1
 12123 00ae 03       		.uleb128 0x3
 12124 00af 0E       		.uleb128 0xe
 12125 00b0 0B       		.uleb128 0xb
 12126 00b1 0B       		.uleb128 0xb
 12127 00b2 3A       		.uleb128 0x3a
 12128 00b3 0B       		.uleb128 0xb
 12129 00b4 3B       		.uleb128 0x3b
 12130 00b5 0B       		.uleb128 0xb
 12131 00b6 01       		.uleb128 0x1
 12132 00b7 13       		.uleb128 0x13
 12133 00b8 00       		.byte	0
 12134 00b9 00       		.byte	0
 12135 00ba 11       		.uleb128 0x11
 12136 00bb 0D       		.uleb128 0xd
 12137 00bc 00       		.byte	0
 12138 00bd 03       		.uleb128 0x3
 12139 00be 08       		.uleb128 0x8
 12140 00bf 3A       		.uleb128 0x3a
 12141 00c0 0B       		.uleb128 0xb
 12142 00c1 3B       		.uleb128 0x3b
 12143 00c2 0B       		.uleb128 0xb
 12144 00c3 49       		.uleb128 0x49
 12145 00c4 13       		.uleb128 0x13
 12146 00c5 38       		.uleb128 0x38
 12147 00c6 0B       		.uleb128 0xb
 12148 00c7 00       		.byte	0
 12149 00c8 00       		.byte	0
 12150 00c9 12       		.uleb128 0x12
 12151 00ca 13       		.uleb128 0x13
 12152 00cb 01       		.byte	0x1
 12153 00cc 03       		.uleb128 0x3
 12154 00cd 0E       		.uleb128 0xe
 12155 00ce 0B       		.uleb128 0xb
 12156 00cf 05       		.uleb128 0x5
 12157 00d0 3A       		.uleb128 0x3a
 12158 00d1 0B       		.uleb128 0xb
 12159 00d2 3B       		.uleb128 0x3b
 12160 00d3 0B       		.uleb128 0xb
 12161 00d4 01       		.uleb128 0x1
 12162 00d5 13       		.uleb128 0x13
 12163 00d6 00       		.byte	0
 12164 00d7 00       		.byte	0
ARM GAS  C:\Users\PCHAUT~1\AppData\Local\Temp\ccjQKXWT.s 			page 215


 12165 00d8 13       		.uleb128 0x13
 12166 00d9 0D       		.uleb128 0xd
 12167 00da 00       		.byte	0
 12168 00db 03       		.uleb128 0x3
 12169 00dc 0E       		.uleb128 0xe
 12170 00dd 3A       		.uleb128 0x3a
 12171 00de 0B       		.uleb128 0xb
 12172 00df 3B       		.uleb128 0x3b
 12173 00e0 0B       		.uleb128 0xb
 12174 00e1 49       		.uleb128 0x49
 12175 00e2 13       		.uleb128 0x13
 12176 00e3 38       		.uleb128 0x38
 12177 00e4 05       		.uleb128 0x5
 12178 00e5 00       		.byte	0
 12179 00e6 00       		.byte	0
 12180 00e7 14       		.uleb128 0x14
 12181 00e8 15       		.uleb128 0x15
 12182 00e9 00       		.byte	0
 12183 00ea 27       		.uleb128 0x27
 12184 00eb 19       		.uleb128 0x19
 12185 00ec 00       		.byte	0
 12186 00ed 00       		.byte	0
 12187 00ee 15       		.uleb128 0x15
 12188 00ef 15       		.uleb128 0x15
 12189 00f0 01       		.byte	0x1
 12190 00f1 27       		.uleb128 0x27
 12191 00f2 19       		.uleb128 0x19
 12192 00f3 49       		.uleb128 0x49
 12193 00f4 13       		.uleb128 0x13
 12194 00f5 01       		.uleb128 0x1
 12195 00f6 13       		.uleb128 0x13
 12196 00f7 00       		.byte	0
 12197 00f8 00       		.byte	0
 12198 00f9 16       		.uleb128 0x16
 12199 00fa 05       		.uleb128 0x5
 12200 00fb 00       		.byte	0
 12201 00fc 49       		.uleb128 0x49
 12202 00fd 13       		.uleb128 0x13
 12203 00fe 00       		.byte	0
 12204 00ff 00       		.byte	0
 12205 0100 17       		.uleb128 0x17
 12206 0101 13       		.uleb128 0x13
 12207 0102 01       		.byte	0x1
 12208 0103 03       		.uleb128 0x3
 12209 0104 0E       		.uleb128 0xe
 12210 0105 0B       		.uleb128 0xb
 12211 0106 05       		.uleb128 0x5
 12212 0107 3A       		.uleb128 0x3a
 12213 0108 0B       		.uleb128 0xb
 12214 0109 3B       		.uleb128 0x3b
 12215 010a 05       		.uleb128 0x5
 12216 010b 01       		.uleb128 0x1
 12217 010c 13       		.uleb128 0x13
 12218 010d 00       		.byte	0
 12219 010e 00       		.byte	0
 12220 010f 18       		.uleb128 0x18
 12221 0110 0D       		.uleb128 0xd
ARM GAS  C:\Users\PCHAUT~1\AppData\Local\Temp\ccjQKXWT.s 			page 216


 12222 0111 00       		.byte	0
 12223 0112 03       		.uleb128 0x3
 12224 0113 0E       		.uleb128 0xe
 12225 0114 3A       		.uleb128 0x3a
 12226 0115 0B       		.uleb128 0xb
 12227 0116 3B       		.uleb128 0x3b
 12228 0117 05       		.uleb128 0x5
 12229 0118 49       		.uleb128 0x49
 12230 0119 13       		.uleb128 0x13
 12231 011a 38       		.uleb128 0x38
 12232 011b 0B       		.uleb128 0xb
 12233 011c 00       		.byte	0
 12234 011d 00       		.byte	0
 12235 011e 19       		.uleb128 0x19
 12236 011f 0D       		.uleb128 0xd
 12237 0120 00       		.byte	0
 12238 0121 03       		.uleb128 0x3
 12239 0122 0E       		.uleb128 0xe
 12240 0123 3A       		.uleb128 0x3a
 12241 0124 0B       		.uleb128 0xb
 12242 0125 3B       		.uleb128 0x3b
 12243 0126 05       		.uleb128 0x5
 12244 0127 49       		.uleb128 0x49
 12245 0128 13       		.uleb128 0x13
 12246 0129 38       		.uleb128 0x38
 12247 012a 05       		.uleb128 0x5
 12248 012b 00       		.byte	0
 12249 012c 00       		.byte	0
 12250 012d 1A       		.uleb128 0x1a
 12251 012e 35       		.uleb128 0x35
 12252 012f 00       		.byte	0
 12253 0130 49       		.uleb128 0x49
 12254 0131 13       		.uleb128 0x13
 12255 0132 00       		.byte	0
 12256 0133 00       		.byte	0
 12257 0134 1B       		.uleb128 0x1b
 12258 0135 13       		.uleb128 0x13
 12259 0136 01       		.byte	0x1
 12260 0137 03       		.uleb128 0x3
 12261 0138 0E       		.uleb128 0xe
 12262 0139 0B       		.uleb128 0xb
 12263 013a 0B       		.uleb128 0xb
 12264 013b 3A       		.uleb128 0x3a
 12265 013c 0B       		.uleb128 0xb
 12266 013d 3B       		.uleb128 0x3b
 12267 013e 05       		.uleb128 0x5
 12268 013f 01       		.uleb128 0x1
 12269 0140 13       		.uleb128 0x13
 12270 0141 00       		.byte	0
 12271 0142 00       		.byte	0
 12272 0143 1C       		.uleb128 0x1c
 12273 0144 13       		.uleb128 0x13
 12274 0145 01       		.byte	0x1
 12275 0146 0B       		.uleb128 0xb
 12276 0147 0B       		.uleb128 0xb
 12277 0148 3A       		.uleb128 0x3a
 12278 0149 0B       		.uleb128 0xb
ARM GAS  C:\Users\PCHAUT~1\AppData\Local\Temp\ccjQKXWT.s 			page 217


 12279 014a 3B       		.uleb128 0x3b
 12280 014b 05       		.uleb128 0x5
 12281 014c 01       		.uleb128 0x1
 12282 014d 13       		.uleb128 0x13
 12283 014e 00       		.byte	0
 12284 014f 00       		.byte	0
 12285 0150 1D       		.uleb128 0x1d
 12286 0151 17       		.uleb128 0x17
 12287 0152 01       		.byte	0x1
 12288 0153 0B       		.uleb128 0xb
 12289 0154 0B       		.uleb128 0xb
 12290 0155 3A       		.uleb128 0x3a
 12291 0156 0B       		.uleb128 0xb
 12292 0157 3B       		.uleb128 0x3b
 12293 0158 05       		.uleb128 0x5
 12294 0159 01       		.uleb128 0x1
 12295 015a 13       		.uleb128 0x13
 12296 015b 00       		.byte	0
 12297 015c 00       		.byte	0
 12298 015d 1E       		.uleb128 0x1e
 12299 015e 0D       		.uleb128 0xd
 12300 015f 00       		.byte	0
 12301 0160 03       		.uleb128 0x3
 12302 0161 0E       		.uleb128 0xe
 12303 0162 3A       		.uleb128 0x3a
 12304 0163 0B       		.uleb128 0xb
 12305 0164 3B       		.uleb128 0x3b
 12306 0165 05       		.uleb128 0x5
 12307 0166 49       		.uleb128 0x49
 12308 0167 13       		.uleb128 0x13
 12309 0168 00       		.byte	0
 12310 0169 00       		.byte	0
 12311 016a 1F       		.uleb128 0x1f
 12312 016b 15       		.uleb128 0x15
 12313 016c 01       		.byte	0x1
 12314 016d 27       		.uleb128 0x27
 12315 016e 19       		.uleb128 0x19
 12316 016f 01       		.uleb128 0x1
 12317 0170 13       		.uleb128 0x13
 12318 0171 00       		.byte	0
 12319 0172 00       		.byte	0
 12320 0173 20       		.uleb128 0x20
 12321 0174 34       		.uleb128 0x34
 12322 0175 00       		.byte	0
 12323 0176 03       		.uleb128 0x3
 12324 0177 0E       		.uleb128 0xe
 12325 0178 3A       		.uleb128 0x3a
 12326 0179 0B       		.uleb128 0xb
 12327 017a 3B       		.uleb128 0x3b
 12328 017b 05       		.uleb128 0x5
 12329 017c 49       		.uleb128 0x49
 12330 017d 13       		.uleb128 0x13
 12331 017e 3F       		.uleb128 0x3f
 12332 017f 19       		.uleb128 0x19
 12333 0180 3C       		.uleb128 0x3c
 12334 0181 19       		.uleb128 0x19
 12335 0182 00       		.byte	0
ARM GAS  C:\Users\PCHAUT~1\AppData\Local\Temp\ccjQKXWT.s 			page 218


 12336 0183 00       		.byte	0
 12337 0184 21       		.uleb128 0x21
 12338 0185 0D       		.uleb128 0xd
 12339 0186 00       		.byte	0
 12340 0187 03       		.uleb128 0x3
 12341 0188 08       		.uleb128 0x8
 12342 0189 3A       		.uleb128 0x3a
 12343 018a 0B       		.uleb128 0xb
 12344 018b 3B       		.uleb128 0x3b
 12345 018c 05       		.uleb128 0x5
 12346 018d 49       		.uleb128 0x49
 12347 018e 13       		.uleb128 0x13
 12348 018f 38       		.uleb128 0x38
 12349 0190 0B       		.uleb128 0xb
 12350 0191 00       		.byte	0
 12351 0192 00       		.byte	0
 12352 0193 22       		.uleb128 0x22
 12353 0194 0D       		.uleb128 0xd
 12354 0195 00       		.byte	0
 12355 0196 03       		.uleb128 0x3
 12356 0197 08       		.uleb128 0x8
 12357 0198 3A       		.uleb128 0x3a
 12358 0199 0B       		.uleb128 0xb
 12359 019a 3B       		.uleb128 0x3b
 12360 019b 05       		.uleb128 0x5
 12361 019c 49       		.uleb128 0x49
 12362 019d 13       		.uleb128 0x13
 12363 019e 38       		.uleb128 0x38
 12364 019f 05       		.uleb128 0x5
 12365 01a0 00       		.byte	0
 12366 01a1 00       		.byte	0
 12367 01a2 23       		.uleb128 0x23
 12368 01a3 34       		.uleb128 0x34
 12369 01a4 00       		.byte	0
 12370 01a5 03       		.uleb128 0x3
 12371 01a6 0E       		.uleb128 0xe
 12372 01a7 3A       		.uleb128 0x3a
 12373 01a8 0B       		.uleb128 0xb
 12374 01a9 3B       		.uleb128 0x3b
 12375 01aa 0B       		.uleb128 0xb
 12376 01ab 49       		.uleb128 0x49
 12377 01ac 13       		.uleb128 0x13
 12378 01ad 3F       		.uleb128 0x3f
 12379 01ae 19       		.uleb128 0x19
 12380 01af 3C       		.uleb128 0x3c
 12381 01b0 19       		.uleb128 0x19
 12382 01b1 00       		.byte	0
 12383 01b2 00       		.byte	0
 12384 01b3 24       		.uleb128 0x24
 12385 01b4 13       		.uleb128 0x13
 12386 01b5 01       		.byte	0x1
 12387 01b6 0B       		.uleb128 0xb
 12388 01b7 05       		.uleb128 0x5
 12389 01b8 3A       		.uleb128 0x3a
 12390 01b9 0B       		.uleb128 0xb
 12391 01ba 3B       		.uleb128 0x3b
 12392 01bb 05       		.uleb128 0x5
ARM GAS  C:\Users\PCHAUT~1\AppData\Local\Temp\ccjQKXWT.s 			page 219


 12393 01bc 01       		.uleb128 0x1
 12394 01bd 13       		.uleb128 0x13
 12395 01be 00       		.byte	0
 12396 01bf 00       		.byte	0
 12397 01c0 25       		.uleb128 0x25
 12398 01c1 13       		.uleb128 0x13
 12399 01c2 01       		.byte	0x1
 12400 01c3 0B       		.uleb128 0xb
 12401 01c4 05       		.uleb128 0x5
 12402 01c5 3A       		.uleb128 0x3a
 12403 01c6 0B       		.uleb128 0xb
 12404 01c7 3B       		.uleb128 0x3b
 12405 01c8 0B       		.uleb128 0xb
 12406 01c9 01       		.uleb128 0x1
 12407 01ca 13       		.uleb128 0x13
 12408 01cb 00       		.byte	0
 12409 01cc 00       		.byte	0
 12410 01cd 26       		.uleb128 0x26
 12411 01ce 34       		.uleb128 0x34
 12412 01cf 00       		.byte	0
 12413 01d0 03       		.uleb128 0x3
 12414 01d1 08       		.uleb128 0x8
 12415 01d2 3A       		.uleb128 0x3a
 12416 01d3 0B       		.uleb128 0xb
 12417 01d4 3B       		.uleb128 0x3b
 12418 01d5 05       		.uleb128 0x5
 12419 01d6 49       		.uleb128 0x49
 12420 01d7 13       		.uleb128 0x13
 12421 01d8 3F       		.uleb128 0x3f
 12422 01d9 19       		.uleb128 0x19
 12423 01da 3C       		.uleb128 0x3c
 12424 01db 19       		.uleb128 0x19
 12425 01dc 00       		.byte	0
 12426 01dd 00       		.byte	0
 12427 01de 27       		.uleb128 0x27
 12428 01df 04       		.uleb128 0x4
 12429 01e0 01       		.byte	0x1
 12430 01e1 3E       		.uleb128 0x3e
 12431 01e2 0B       		.uleb128 0xb
 12432 01e3 0B       		.uleb128 0xb
 12433 01e4 0B       		.uleb128 0xb
 12434 01e5 49       		.uleb128 0x49
 12435 01e6 13       		.uleb128 0x13
 12436 01e7 3A       		.uleb128 0x3a
 12437 01e8 0B       		.uleb128 0xb
 12438 01e9 3B       		.uleb128 0x3b
 12439 01ea 0B       		.uleb128 0xb
 12440 01eb 01       		.uleb128 0x1
 12441 01ec 13       		.uleb128 0x13
 12442 01ed 00       		.byte	0
 12443 01ee 00       		.byte	0
 12444 01ef 28       		.uleb128 0x28
 12445 01f0 28       		.uleb128 0x28
 12446 01f1 00       		.byte	0
 12447 01f2 03       		.uleb128 0x3
 12448 01f3 0E       		.uleb128 0xe
 12449 01f4 1C       		.uleb128 0x1c
ARM GAS  C:\Users\PCHAUT~1\AppData\Local\Temp\ccjQKXWT.s 			page 220


 12450 01f5 0B       		.uleb128 0xb
 12451 01f6 00       		.byte	0
 12452 01f7 00       		.byte	0
 12453 01f8 29       		.uleb128 0x29
 12454 01f9 0D       		.uleb128 0xd
 12455 01fa 00       		.byte	0
 12456 01fb 03       		.uleb128 0x3
 12457 01fc 08       		.uleb128 0x8
 12458 01fd 3A       		.uleb128 0x3a
 12459 01fe 0B       		.uleb128 0xb
 12460 01ff 3B       		.uleb128 0x3b
 12461 0200 0B       		.uleb128 0xb
 12462 0201 49       		.uleb128 0x49
 12463 0202 13       		.uleb128 0x13
 12464 0203 00       		.byte	0
 12465 0204 00       		.byte	0
 12466 0205 2A       		.uleb128 0x2a
 12467 0206 04       		.uleb128 0x4
 12468 0207 01       		.byte	0x1
 12469 0208 3E       		.uleb128 0x3e
 12470 0209 0B       		.uleb128 0xb
 12471 020a 0B       		.uleb128 0xb
 12472 020b 0B       		.uleb128 0xb
 12473 020c 49       		.uleb128 0x49
 12474 020d 13       		.uleb128 0x13
 12475 020e 3A       		.uleb128 0x3a
 12476 020f 0B       		.uleb128 0xb
 12477 0210 3B       		.uleb128 0x3b
 12478 0211 05       		.uleb128 0x5
 12479 0212 01       		.uleb128 0x1
 12480 0213 13       		.uleb128 0x13
 12481 0214 00       		.byte	0
 12482 0215 00       		.byte	0
 12483 0216 2B       		.uleb128 0x2b
 12484 0217 26       		.uleb128 0x26
 12485 0218 00       		.byte	0
 12486 0219 00       		.byte	0
 12487 021a 00       		.byte	0
 12488 021b 2C       		.uleb128 0x2c
 12489 021c 13       		.uleb128 0x13
 12490 021d 01       		.byte	0x1
 12491 021e 0B       		.uleb128 0xb
 12492 021f 06       		.uleb128 0x6
 12493 0220 3A       		.uleb128 0x3a
 12494 0221 0B       		.uleb128 0xb
 12495 0222 3B       		.uleb128 0x3b
 12496 0223 0B       		.uleb128 0xb
 12497 0224 01       		.uleb128 0x1
 12498 0225 13       		.uleb128 0x13
 12499 0226 00       		.byte	0
 12500 0227 00       		.byte	0
 12501 0228 2D       		.uleb128 0x2d
 12502 0229 0D       		.uleb128 0xd
 12503 022a 00       		.byte	0
 12504 022b 03       		.uleb128 0x3
 12505 022c 08       		.uleb128 0x8
 12506 022d 3A       		.uleb128 0x3a
ARM GAS  C:\Users\PCHAUT~1\AppData\Local\Temp\ccjQKXWT.s 			page 221


 12507 022e 0B       		.uleb128 0xb
 12508 022f 3B       		.uleb128 0x3b
 12509 0230 0B       		.uleb128 0xb
 12510 0231 49       		.uleb128 0x49
 12511 0232 13       		.uleb128 0x13
 12512 0233 38       		.uleb128 0x38
 12513 0234 05       		.uleb128 0x5
 12514 0235 00       		.byte	0
 12515 0236 00       		.byte	0
 12516 0237 2E       		.uleb128 0x2e
 12517 0238 21       		.uleb128 0x21
 12518 0239 00       		.byte	0
 12519 023a 49       		.uleb128 0x49
 12520 023b 13       		.uleb128 0x13
 12521 023c 2F       		.uleb128 0x2f
 12522 023d 05       		.uleb128 0x5
 12523 023e 00       		.byte	0
 12524 023f 00       		.byte	0
 12525 0240 2F       		.uleb128 0x2f
 12526 0241 34       		.uleb128 0x34
 12527 0242 00       		.byte	0
 12528 0243 03       		.uleb128 0x3
 12529 0244 0E       		.uleb128 0xe
 12530 0245 3A       		.uleb128 0x3a
 12531 0246 0B       		.uleb128 0xb
 12532 0247 3B       		.uleb128 0x3b
 12533 0248 0B       		.uleb128 0xb
 12534 0249 49       		.uleb128 0x49
 12535 024a 13       		.uleb128 0x13
 12536 024b 02       		.uleb128 0x2
 12537 024c 18       		.uleb128 0x18
 12538 024d 00       		.byte	0
 12539 024e 00       		.byte	0
 12540 024f 30       		.uleb128 0x30
 12541 0250 2E       		.uleb128 0x2e
 12542 0251 01       		.byte	0x1
 12543 0252 3F       		.uleb128 0x3f
 12544 0253 19       		.uleb128 0x19
 12545 0254 03       		.uleb128 0x3
 12546 0255 0E       		.uleb128 0xe
 12547 0256 3A       		.uleb128 0x3a
 12548 0257 0B       		.uleb128 0xb
 12549 0258 3B       		.uleb128 0x3b
 12550 0259 05       		.uleb128 0x5
 12551 025a 27       		.uleb128 0x27
 12552 025b 19       		.uleb128 0x19
 12553 025c 49       		.uleb128 0x49
 12554 025d 13       		.uleb128 0x13
 12555 025e 11       		.uleb128 0x11
 12556 025f 01       		.uleb128 0x1
 12557 0260 12       		.uleb128 0x12
 12558 0261 06       		.uleb128 0x6
 12559 0262 40       		.uleb128 0x40
 12560 0263 18       		.uleb128 0x18
 12561 0264 9642     		.uleb128 0x2116
 12562 0266 19       		.uleb128 0x19
 12563 0267 01       		.uleb128 0x1
ARM GAS  C:\Users\PCHAUT~1\AppData\Local\Temp\ccjQKXWT.s 			page 222


 12564 0268 13       		.uleb128 0x13
 12565 0269 00       		.byte	0
 12566 026a 00       		.byte	0
 12567 026b 31       		.uleb128 0x31
 12568 026c 05       		.uleb128 0x5
 12569 026d 00       		.byte	0
 12570 026e 03       		.uleb128 0x3
 12571 026f 0E       		.uleb128 0xe
 12572 0270 3A       		.uleb128 0x3a
 12573 0271 0B       		.uleb128 0xb
 12574 0272 3B       		.uleb128 0x3b
 12575 0273 05       		.uleb128 0x5
 12576 0274 49       		.uleb128 0x49
 12577 0275 13       		.uleb128 0x13
 12578 0276 02       		.uleb128 0x2
 12579 0277 18       		.uleb128 0x18
 12580 0278 00       		.byte	0
 12581 0279 00       		.byte	0
 12582 027a 32       		.uleb128 0x32
 12583 027b 34       		.uleb128 0x34
 12584 027c 00       		.byte	0
 12585 027d 03       		.uleb128 0x3
 12586 027e 0E       		.uleb128 0xe
 12587 027f 3A       		.uleb128 0x3a
 12588 0280 0B       		.uleb128 0xb
 12589 0281 3B       		.uleb128 0x3b
 12590 0282 05       		.uleb128 0x5
 12591 0283 49       		.uleb128 0x49
 12592 0284 13       		.uleb128 0x13
 12593 0285 02       		.uleb128 0x2
 12594 0286 18       		.uleb128 0x18
 12595 0287 00       		.byte	0
 12596 0288 00       		.byte	0
 12597 0289 33       		.uleb128 0x33
 12598 028a 34       		.uleb128 0x34
 12599 028b 00       		.byte	0
 12600 028c 03       		.uleb128 0x3
 12601 028d 0E       		.uleb128 0xe
 12602 028e 49       		.uleb128 0x49
 12603 028f 13       		.uleb128 0x13
 12604 0290 34       		.uleb128 0x34
 12605 0291 19       		.uleb128 0x19
 12606 0292 02       		.uleb128 0x2
 12607 0293 18       		.uleb128 0x18
 12608 0294 00       		.byte	0
 12609 0295 00       		.byte	0
 12610 0296 34       		.uleb128 0x34
 12611 0297 0A       		.uleb128 0xa
 12612 0298 00       		.byte	0
 12613 0299 03       		.uleb128 0x3
 12614 029a 0E       		.uleb128 0xe
 12615 029b 3A       		.uleb128 0x3a
 12616 029c 0B       		.uleb128 0xb
 12617 029d 3B       		.uleb128 0x3b
 12618 029e 05       		.uleb128 0x5
 12619 029f 11       		.uleb128 0x11
 12620 02a0 01       		.uleb128 0x1
ARM GAS  C:\Users\PCHAUT~1\AppData\Local\Temp\ccjQKXWT.s 			page 223


 12621 02a1 00       		.byte	0
 12622 02a2 00       		.byte	0
 12623 02a3 35       		.uleb128 0x35
 12624 02a4 05       		.uleb128 0x5
 12625 02a5 00       		.byte	0
 12626 02a6 03       		.uleb128 0x3
 12627 02a7 08       		.uleb128 0x8
 12628 02a8 3A       		.uleb128 0x3a
 12629 02a9 0B       		.uleb128 0xb
 12630 02aa 3B       		.uleb128 0x3b
 12631 02ab 05       		.uleb128 0x5
 12632 02ac 49       		.uleb128 0x49
 12633 02ad 13       		.uleb128 0x13
 12634 02ae 02       		.uleb128 0x2
 12635 02af 18       		.uleb128 0x18
 12636 02b0 00       		.byte	0
 12637 02b1 00       		.byte	0
 12638 02b2 36       		.uleb128 0x36
 12639 02b3 34       		.uleb128 0x34
 12640 02b4 00       		.byte	0
 12641 02b5 03       		.uleb128 0x3
 12642 02b6 08       		.uleb128 0x8
 12643 02b7 3A       		.uleb128 0x3a
 12644 02b8 0B       		.uleb128 0xb
 12645 02b9 3B       		.uleb128 0x3b
 12646 02ba 05       		.uleb128 0x5
 12647 02bb 49       		.uleb128 0x49
 12648 02bc 13       		.uleb128 0x13
 12649 02bd 02       		.uleb128 0x2
 12650 02be 18       		.uleb128 0x18
 12651 02bf 00       		.byte	0
 12652 02c0 00       		.byte	0
 12653 02c1 37       		.uleb128 0x37
 12654 02c2 0B       		.uleb128 0xb
 12655 02c3 01       		.byte	0x1
 12656 02c4 55       		.uleb128 0x55
 12657 02c5 17       		.uleb128 0x17
 12658 02c6 00       		.byte	0
 12659 02c7 00       		.byte	0
 12660 02c8 38       		.uleb128 0x38
 12661 02c9 2E       		.uleb128 0x2e
 12662 02ca 01       		.byte	0x1
 12663 02cb 3F       		.uleb128 0x3f
 12664 02cc 19       		.uleb128 0x19
 12665 02cd 03       		.uleb128 0x3
 12666 02ce 0E       		.uleb128 0xe
 12667 02cf 3A       		.uleb128 0x3a
 12668 02d0 0B       		.uleb128 0xb
 12669 02d1 3B       		.uleb128 0x3b
 12670 02d2 05       		.uleb128 0x5
 12671 02d3 27       		.uleb128 0x27
 12672 02d4 19       		.uleb128 0x19
 12673 02d5 11       		.uleb128 0x11
 12674 02d6 01       		.uleb128 0x1
 12675 02d7 12       		.uleb128 0x12
 12676 02d8 06       		.uleb128 0x6
 12677 02d9 40       		.uleb128 0x40
ARM GAS  C:\Users\PCHAUT~1\AppData\Local\Temp\ccjQKXWT.s 			page 224


 12678 02da 18       		.uleb128 0x18
 12679 02db 9642     		.uleb128 0x2116
 12680 02dd 19       		.uleb128 0x19
 12681 02de 01       		.uleb128 0x1
 12682 02df 13       		.uleb128 0x13
 12683 02e0 00       		.byte	0
 12684 02e1 00       		.byte	0
 12685 02e2 39       		.uleb128 0x39
 12686 02e3 2E       		.uleb128 0x2e
 12687 02e4 00       		.byte	0
 12688 02e5 3F       		.uleb128 0x3f
 12689 02e6 19       		.uleb128 0x19
 12690 02e7 03       		.uleb128 0x3
 12691 02e8 0E       		.uleb128 0xe
 12692 02e9 3A       		.uleb128 0x3a
 12693 02ea 0B       		.uleb128 0xb
 12694 02eb 3B       		.uleb128 0x3b
 12695 02ec 05       		.uleb128 0x5
 12696 02ed 27       		.uleb128 0x27
 12697 02ee 19       		.uleb128 0x19
 12698 02ef 11       		.uleb128 0x11
 12699 02f0 01       		.uleb128 0x1
 12700 02f1 12       		.uleb128 0x12
 12701 02f2 06       		.uleb128 0x6
 12702 02f3 40       		.uleb128 0x40
 12703 02f4 18       		.uleb128 0x18
 12704 02f5 9642     		.uleb128 0x2116
 12705 02f7 19       		.uleb128 0x19
 12706 02f8 00       		.byte	0
 12707 02f9 00       		.byte	0
 12708 02fa 3A       		.uleb128 0x3a
 12709 02fb 2E       		.uleb128 0x2e
 12710 02fc 01       		.byte	0x1
 12711 02fd 03       		.uleb128 0x3
 12712 02fe 0E       		.uleb128 0xe
 12713 02ff 3A       		.uleb128 0x3a
 12714 0300 0B       		.uleb128 0xb
 12715 0301 3B       		.uleb128 0x3b
 12716 0302 05       		.uleb128 0x5
 12717 0303 27       		.uleb128 0x27
 12718 0304 19       		.uleb128 0x19
 12719 0305 49       		.uleb128 0x49
 12720 0306 13       		.uleb128 0x13
 12721 0307 11       		.uleb128 0x11
 12722 0308 01       		.uleb128 0x1
 12723 0309 12       		.uleb128 0x12
 12724 030a 06       		.uleb128 0x6
 12725 030b 40       		.uleb128 0x40
 12726 030c 18       		.uleb128 0x18
 12727 030d 9642     		.uleb128 0x2116
 12728 030f 19       		.uleb128 0x19
 12729 0310 01       		.uleb128 0x1
 12730 0311 13       		.uleb128 0x13
 12731 0312 00       		.byte	0
 12732 0313 00       		.byte	0
 12733 0314 3B       		.uleb128 0x3b
 12734 0315 21       		.uleb128 0x21
ARM GAS  C:\Users\PCHAUT~1\AppData\Local\Temp\ccjQKXWT.s 			page 225


 12735 0316 00       		.byte	0
 12736 0317 49       		.uleb128 0x49
 12737 0318 13       		.uleb128 0x13
 12738 0319 2F       		.uleb128 0x2f
 12739 031a 18       		.uleb128 0x18
 12740 031b 00       		.byte	0
 12741 031c 00       		.byte	0
 12742 031d 3C       		.uleb128 0x3c
 12743 031e 2E       		.uleb128 0x2e
 12744 031f 01       		.byte	0x1
 12745 0320 03       		.uleb128 0x3
 12746 0321 0E       		.uleb128 0xe
 12747 0322 3A       		.uleb128 0x3a
 12748 0323 0B       		.uleb128 0xb
 12749 0324 3B       		.uleb128 0x3b
 12750 0325 0B       		.uleb128 0xb
 12751 0326 27       		.uleb128 0x27
 12752 0327 19       		.uleb128 0x19
 12753 0328 49       		.uleb128 0x49
 12754 0329 13       		.uleb128 0x13
 12755 032a 11       		.uleb128 0x11
 12756 032b 01       		.uleb128 0x1
 12757 032c 12       		.uleb128 0x12
 12758 032d 06       		.uleb128 0x6
 12759 032e 40       		.uleb128 0x40
 12760 032f 18       		.uleb128 0x18
 12761 0330 9642     		.uleb128 0x2116
 12762 0332 19       		.uleb128 0x19
 12763 0333 01       		.uleb128 0x1
 12764 0334 13       		.uleb128 0x13
 12765 0335 00       		.byte	0
 12766 0336 00       		.byte	0
 12767 0337 3D       		.uleb128 0x3d
 12768 0338 05       		.uleb128 0x5
 12769 0339 00       		.byte	0
 12770 033a 03       		.uleb128 0x3
 12771 033b 0E       		.uleb128 0xe
 12772 033c 3A       		.uleb128 0x3a
 12773 033d 0B       		.uleb128 0xb
 12774 033e 3B       		.uleb128 0x3b
 12775 033f 0B       		.uleb128 0xb
 12776 0340 49       		.uleb128 0x49
 12777 0341 13       		.uleb128 0x13
 12778 0342 02       		.uleb128 0x2
 12779 0343 18       		.uleb128 0x18
 12780 0344 00       		.byte	0
 12781 0345 00       		.byte	0
 12782 0346 3E       		.uleb128 0x3e
 12783 0347 34       		.uleb128 0x34
 12784 0348 00       		.byte	0
 12785 0349 03       		.uleb128 0x3
 12786 034a 08       		.uleb128 0x8
 12787 034b 3A       		.uleb128 0x3a
 12788 034c 0B       		.uleb128 0xb
 12789 034d 3B       		.uleb128 0x3b
 12790 034e 0B       		.uleb128 0xb
 12791 034f 49       		.uleb128 0x49
ARM GAS  C:\Users\PCHAUT~1\AppData\Local\Temp\ccjQKXWT.s 			page 226


 12792 0350 13       		.uleb128 0x13
 12793 0351 02       		.uleb128 0x2
 12794 0352 18       		.uleb128 0x18
 12795 0353 00       		.byte	0
 12796 0354 00       		.byte	0
 12797 0355 3F       		.uleb128 0x3f
 12798 0356 05       		.uleb128 0x5
 12799 0357 00       		.byte	0
 12800 0358 03       		.uleb128 0x3
 12801 0359 08       		.uleb128 0x8
 12802 035a 3A       		.uleb128 0x3a
 12803 035b 0B       		.uleb128 0xb
 12804 035c 3B       		.uleb128 0x3b
 12805 035d 0B       		.uleb128 0xb
 12806 035e 49       		.uleb128 0x49
 12807 035f 13       		.uleb128 0x13
 12808 0360 02       		.uleb128 0x2
 12809 0361 18       		.uleb128 0x18
 12810 0362 00       		.byte	0
 12811 0363 00       		.byte	0
 12812 0364 40       		.uleb128 0x40
 12813 0365 2E       		.uleb128 0x2e
 12814 0366 01       		.byte	0x1
 12815 0367 03       		.uleb128 0x3
 12816 0368 0E       		.uleb128 0xe
 12817 0369 3A       		.uleb128 0x3a
 12818 036a 0B       		.uleb128 0xb
 12819 036b 3B       		.uleb128 0x3b
 12820 036c 05       		.uleb128 0x5
 12821 036d 27       		.uleb128 0x27
 12822 036e 19       		.uleb128 0x19
 12823 036f 11       		.uleb128 0x11
 12824 0370 01       		.uleb128 0x1
 12825 0371 12       		.uleb128 0x12
 12826 0372 06       		.uleb128 0x6
 12827 0373 40       		.uleb128 0x40
 12828 0374 18       		.uleb128 0x18
 12829 0375 9642     		.uleb128 0x2116
 12830 0377 19       		.uleb128 0x19
 12831 0378 01       		.uleb128 0x1
 12832 0379 13       		.uleb128 0x13
 12833 037a 00       		.byte	0
 12834 037b 00       		.byte	0
 12835 037c 41       		.uleb128 0x41
 12836 037d 2E       		.uleb128 0x2e
 12837 037e 00       		.byte	0
 12838 037f 03       		.uleb128 0x3
 12839 0380 0E       		.uleb128 0xe
 12840 0381 3A       		.uleb128 0x3a
 12841 0382 0B       		.uleb128 0xb
 12842 0383 3B       		.uleb128 0x3b
 12843 0384 05       		.uleb128 0x5
 12844 0385 27       		.uleb128 0x27
 12845 0386 19       		.uleb128 0x19
 12846 0387 11       		.uleb128 0x11
 12847 0388 01       		.uleb128 0x1
 12848 0389 12       		.uleb128 0x12
ARM GAS  C:\Users\PCHAUT~1\AppData\Local\Temp\ccjQKXWT.s 			page 227


 12849 038a 06       		.uleb128 0x6
 12850 038b 40       		.uleb128 0x40
 12851 038c 18       		.uleb128 0x18
 12852 038d 9642     		.uleb128 0x2116
 12853 038f 19       		.uleb128 0x19
 12854 0390 00       		.byte	0
 12855 0391 00       		.byte	0
 12856 0392 42       		.uleb128 0x42
 12857 0393 1D       		.uleb128 0x1d
 12858 0394 01       		.byte	0x1
 12859 0395 31       		.uleb128 0x31
 12860 0396 13       		.uleb128 0x13
 12861 0397 11       		.uleb128 0x11
 12862 0398 01       		.uleb128 0x1
 12863 0399 12       		.uleb128 0x12
 12864 039a 06       		.uleb128 0x6
 12865 039b 58       		.uleb128 0x58
 12866 039c 0B       		.uleb128 0xb
 12867 039d 59       		.uleb128 0x59
 12868 039e 05       		.uleb128 0x5
 12869 039f 00       		.byte	0
 12870 03a0 00       		.byte	0
 12871 03a1 43       		.uleb128 0x43
 12872 03a2 05       		.uleb128 0x5
 12873 03a3 00       		.byte	0
 12874 03a4 31       		.uleb128 0x31
 12875 03a5 13       		.uleb128 0x13
 12876 03a6 02       		.uleb128 0x2
 12877 03a7 18       		.uleb128 0x18
 12878 03a8 00       		.byte	0
 12879 03a9 00       		.byte	0
 12880 03aa 44       		.uleb128 0x44
 12881 03ab 2E       		.uleb128 0x2e
 12882 03ac 01       		.byte	0x1
 12883 03ad 03       		.uleb128 0x3
 12884 03ae 0E       		.uleb128 0xe
 12885 03af 3A       		.uleb128 0x3a
 12886 03b0 0B       		.uleb128 0xb
 12887 03b1 3B       		.uleb128 0x3b
 12888 03b2 05       		.uleb128 0x5
 12889 03b3 27       		.uleb128 0x27
 12890 03b4 19       		.uleb128 0x19
 12891 03b5 20       		.uleb128 0x20
 12892 03b6 0B       		.uleb128 0xb
 12893 03b7 00       		.byte	0
 12894 03b8 00       		.byte	0
 12895 03b9 45       		.uleb128 0x45
 12896 03ba 05       		.uleb128 0x5
 12897 03bb 00       		.byte	0
 12898 03bc 03       		.uleb128 0x3
 12899 03bd 0E       		.uleb128 0xe
 12900 03be 3A       		.uleb128 0x3a
 12901 03bf 0B       		.uleb128 0xb
 12902 03c0 3B       		.uleb128 0x3b
 12903 03c1 05       		.uleb128 0x5
 12904 03c2 49       		.uleb128 0x49
 12905 03c3 13       		.uleb128 0x13
ARM GAS  C:\Users\PCHAUT~1\AppData\Local\Temp\ccjQKXWT.s 			page 228


 12906 03c4 00       		.byte	0
 12907 03c5 00       		.byte	0
 12908 03c6 00       		.byte	0
 12909              		.section	.debug_aranges,"",%progbits
 12910 0000 14010000 		.4byte	0x114
 12911 0004 0200     		.2byte	0x2
 12912 0006 00000000 		.4byte	.Ldebug_info0
 12913 000a 04       		.byte	0x4
 12914 000b 00       		.byte	0
 12915 000c 0000     		.2byte	0
 12916 000e 0000     		.2byte	0
 12917 0010 00000000 		.4byte	.LFB116
 12918 0014 30000000 		.4byte	.LFE116-.LFB116
 12919 0018 00000000 		.4byte	.LFB117
 12920 001c 30000000 		.4byte	.LFE117-.LFB117
 12921 0020 00000000 		.4byte	.LFB145
 12922 0024 30000000 		.4byte	.LFE145-.LFB145
 12923 0028 00000000 		.4byte	.LFB146
 12924 002c 58000000 		.4byte	.LFE146-.LFB146
 12925 0030 00000000 		.4byte	.LFB223
 12926 0034 28000000 		.4byte	.LFE223-.LFB223
 12927 0038 00000000 		.4byte	.LFB224
 12928 003c 28000000 		.4byte	.LFE224-.LFB224
 12929 0040 00000000 		.4byte	.LFB235
 12930 0044 2C000000 		.4byte	.LFE235-.LFB235
 12931 0048 00000000 		.4byte	.LFB256
 12932 004c B0000000 		.4byte	.LFE256-.LFB256
 12933 0050 00000000 		.4byte	.LFB257
 12934 0054 84000000 		.4byte	.LFE257-.LFB257
 12935 0058 00000000 		.4byte	.LFB258
 12936 005c BC000000 		.4byte	.LFE258-.LFB258
 12937 0060 00000000 		.4byte	.LFB259
 12938 0064 64000000 		.4byte	.LFE259-.LFB259
 12939 0068 00000000 		.4byte	.LFB260
 12940 006c 78000000 		.4byte	.LFE260-.LFB260
 12941 0070 00000000 		.4byte	.LFB261
 12942 0074 5C000000 		.4byte	.LFE261-.LFB261
 12943 0078 00000000 		.4byte	.LFB262
 12944 007c 68000000 		.4byte	.LFE262-.LFB262
 12945 0080 00000000 		.4byte	.LFB263
 12946 0084 1C010000 		.4byte	.LFE263-.LFB263
 12947 0088 00000000 		.4byte	.LFB264
 12948 008c 7C000000 		.4byte	.LFE264-.LFB264
 12949 0090 00000000 		.4byte	.LFB265
 12950 0094 4C000000 		.4byte	.LFE265-.LFB265
 12951 0098 00000000 		.4byte	.LFB266
 12952 009c 94000000 		.4byte	.LFE266-.LFB266
 12953 00a0 00000000 		.4byte	.LFB267
 12954 00a4 AC000000 		.4byte	.LFE267-.LFB267
 12955 00a8 00000000 		.4byte	.LFB268
 12956 00ac 70000000 		.4byte	.LFE268-.LFB268
 12957 00b0 00000000 		.4byte	.LFB269
 12958 00b4 28000000 		.4byte	.LFE269-.LFB269
 12959 00b8 00000000 		.4byte	.LFB270
 12960 00bc 48000000 		.4byte	.LFE270-.LFB270
 12961 00c0 00000000 		.4byte	.LFB271
 12962 00c4 68000000 		.4byte	.LFE271-.LFB271
ARM GAS  C:\Users\PCHAUT~1\AppData\Local\Temp\ccjQKXWT.s 			page 229


 12963 00c8 00000000 		.4byte	.LFB272
 12964 00cc 60000000 		.4byte	.LFE272-.LFB272
 12965 00d0 00000000 		.4byte	.LFB273
 12966 00d4 20020000 		.4byte	.LFE273-.LFB273
 12967 00d8 00000000 		.4byte	.LFB274
 12968 00dc 94000000 		.4byte	.LFE274-.LFB274
 12969 00e0 00000000 		.4byte	.LFB275
 12970 00e4 98000000 		.4byte	.LFE275-.LFB275
 12971 00e8 00000000 		.4byte	.LFB276
 12972 00ec 98000000 		.4byte	.LFE276-.LFB276
 12973 00f0 00000000 		.4byte	.LFB277
 12974 00f4 5C000000 		.4byte	.LFE277-.LFB277
 12975 00f8 00000000 		.4byte	.LFB278
 12976 00fc 60000000 		.4byte	.LFE278-.LFB278
 12977 0100 00000000 		.4byte	.LFB279
 12978 0104 5C000000 		.4byte	.LFE279-.LFB279
 12979 0108 00000000 		.4byte	.LFB280
 12980 010c F4000000 		.4byte	.LFE280-.LFB280
 12981 0110 00000000 		.4byte	0
 12982 0114 00000000 		.4byte	0
 12983              		.section	.debug_ranges,"",%progbits
 12984              	.Ldebug_ranges0:
 12985 0000 16010000 		.4byte	.LBB10
 12986 0004 48010000 		.4byte	.LBE10
 12987 0008 E0010000 		.4byte	.LBB11
 12988 000c E8010000 		.4byte	.LBE11
 12989 0010 00000000 		.4byte	0
 12990 0014 00000000 		.4byte	0
 12991 0018 00000000 		.4byte	.LFB116
 12992 001c 30000000 		.4byte	.LFE116
 12993 0020 00000000 		.4byte	.LFB117
 12994 0024 30000000 		.4byte	.LFE117
 12995 0028 00000000 		.4byte	.LFB145
 12996 002c 30000000 		.4byte	.LFE145
 12997 0030 00000000 		.4byte	.LFB146
 12998 0034 58000000 		.4byte	.LFE146
 12999 0038 00000000 		.4byte	.LFB223
 13000 003c 28000000 		.4byte	.LFE223
 13001 0040 00000000 		.4byte	.LFB224
 13002 0044 28000000 		.4byte	.LFE224
 13003 0048 00000000 		.4byte	.LFB235
 13004 004c 2C000000 		.4byte	.LFE235
 13005 0050 00000000 		.4byte	.LFB256
 13006 0054 B0000000 		.4byte	.LFE256
 13007 0058 00000000 		.4byte	.LFB257
 13008 005c 84000000 		.4byte	.LFE257
 13009 0060 00000000 		.4byte	.LFB258
 13010 0064 BC000000 		.4byte	.LFE258
 13011 0068 00000000 		.4byte	.LFB259
 13012 006c 64000000 		.4byte	.LFE259
 13013 0070 00000000 		.4byte	.LFB260
 13014 0074 78000000 		.4byte	.LFE260
 13015 0078 00000000 		.4byte	.LFB261
 13016 007c 5C000000 		.4byte	.LFE261
 13017 0080 00000000 		.4byte	.LFB262
 13018 0084 68000000 		.4byte	.LFE262
 13019 0088 00000000 		.4byte	.LFB263
ARM GAS  C:\Users\PCHAUT~1\AppData\Local\Temp\ccjQKXWT.s 			page 230


 13020 008c 1C010000 		.4byte	.LFE263
 13021 0090 00000000 		.4byte	.LFB264
 13022 0094 7C000000 		.4byte	.LFE264
 13023 0098 00000000 		.4byte	.LFB265
 13024 009c 4C000000 		.4byte	.LFE265
 13025 00a0 00000000 		.4byte	.LFB266
 13026 00a4 94000000 		.4byte	.LFE266
 13027 00a8 00000000 		.4byte	.LFB267
 13028 00ac AC000000 		.4byte	.LFE267
 13029 00b0 00000000 		.4byte	.LFB268
 13030 00b4 70000000 		.4byte	.LFE268
 13031 00b8 00000000 		.4byte	.LFB269
 13032 00bc 28000000 		.4byte	.LFE269
 13033 00c0 00000000 		.4byte	.LFB270
 13034 00c4 48000000 		.4byte	.LFE270
 13035 00c8 00000000 		.4byte	.LFB271
 13036 00cc 68000000 		.4byte	.LFE271
 13037 00d0 00000000 		.4byte	.LFB272
 13038 00d4 60000000 		.4byte	.LFE272
 13039 00d8 00000000 		.4byte	.LFB273
 13040 00dc 20020000 		.4byte	.LFE273
 13041 00e0 00000000 		.4byte	.LFB274
 13042 00e4 94000000 		.4byte	.LFE274
 13043 00e8 00000000 		.4byte	.LFB275
 13044 00ec 98000000 		.4byte	.LFE275
 13045 00f0 00000000 		.4byte	.LFB276
 13046 00f4 98000000 		.4byte	.LFE276
 13047 00f8 00000000 		.4byte	.LFB277
 13048 00fc 5C000000 		.4byte	.LFE277
 13049 0100 00000000 		.4byte	.LFB278
 13050 0104 60000000 		.4byte	.LFE278
 13051 0108 00000000 		.4byte	.LFB279
 13052 010c 5C000000 		.4byte	.LFE279
 13053 0110 00000000 		.4byte	.LFB280
 13054 0114 F4000000 		.4byte	.LFE280
 13055 0118 00000000 		.4byte	0
 13056 011c 00000000 		.4byte	0
 13057              		.section	.debug_line,"",%progbits
 13058              	.Ldebug_line0:
 13059 0000 C10D0000 		.section	.debug_str,"MS",%progbits,1
 13059      02008308 
 13059      00000201 
 13059      FB0E0D00 
 13059      01010101 
 13060              	.LASF685:
 13061 0000 5553425F 		.ascii	"USB_STOP\000"
 13061      53544F50 
 13061      00
 13062              	.LASF858:
 13063 0009 6D6D635F 		.ascii	"mmc_set_bus_width\000"
 13063      7365745F 
 13063      6275735F 
 13063      77696474 
 13063      6800
 13064              	.LASF297:
 13065 001b 706F7274 		.ascii	"port_intctx\000"
 13065      5F696E74 
ARM GAS  C:\Users\PCHAUT~1\AppData\Local\Temp\ccjQKXWT.s 			page 231


 13065      63747800 
 13066              	.LASF306:
 13067 0027 63685F74 		.ascii	"ch_trace_buffer_t\000"
 13067      72616365 
 13067      5F627566 
 13067      6665725F 
 13067      7400
 13068              	.LASF338:
 13069 0039 63685F70 		.ascii	"ch_ptrsize\000"
 13069      74727369 
 13069      7A6500
 13070              	.LASF618:
 13071 0044 6576656E 		.ascii	"event\000"
 13071      7400
 13072              	.LASF469:
 13073 004a 43414E5F 		.ascii	"CAN_STARTING\000"
 13073      53544152 
 13073      54494E47 
 13073      00
 13074              	.LASF871:
 13075 0057 636D645F 		.ascii	"cmd_set\000"
 13075      73657400 
 13076              	.LASF842:
 13077 005f 5F5F6675 		.ascii	"__func__\000"
 13077      6E635F5F 
 13077      00
 13078              	.LASF141:
 13079 0068 6D73675F 		.ascii	"msg_t\000"
 13079      7400
 13080              	.LASF414:
 13081 006e 61667268 		.ascii	"afrh\000"
 13081      00
 13082              	.LASF561:
 13083 0073 4F504D4F 		.ascii	"OPMODE_SMBUS_DEVICE\000"
 13083      44455F53 
 13083      4D425553 
 13083      5F444556 
 13083      49434500 
 13084              	.LASF317:
 13085 0087 6D5F6372 		.ascii	"m_crit_isr\000"
 13085      69745F69 
 13085      737200
 13086              	.LASF885:
 13087 0092 433A5C55 		.ascii	"C:\\Users\\Pchautems\\Documents\\RobotiqueTP\\Proje"
 13087      73657273 
 13087      5C506368 
 13087      61757465 
 13087      6D735C44 
 13088 00c0 745C6D69 		.ascii	"t\\miniprojet\000"
 13088      6E697072 
 13088      6F6A6574 
 13088      00
 13089              	.LASF637:
 13090 00cd 73646366 		.ascii	"sdcflags_t\000"
 13090      6C616773 
 13090      5F7400
 13091              	.LASF744:
ARM GAS  C:\Users\PCHAUT~1\AppData\Local\Temp\ccjQKXWT.s 			page 232


 13092 00d8 44494550 		.ascii	"DIEPTXF0\000"
 13092      54584630 
 13092      00
 13093              	.LASF826:
 13094 00e1 53445F53 		.ascii	"SD_SWITCH_CHECK\000"
 13094      57495443 
 13094      485F4348 
 13094      45434B00 
 13095              	.LASF820:
 13096 00f1 55534244 		.ascii	"USBD1\000"
 13096      3100
 13097              	.LASF468:
 13098 00f7 43414E5F 		.ascii	"CAN_STOP\000"
 13098      53544F50 
 13098      00
 13099              	.LASF351:
 13100 0100 63665F6F 		.ascii	"cf_off_time\000"
 13100      66665F74 
 13100      696D6500 
 13101              	.LASF200:
 13102 010c 63685F73 		.ascii	"ch_system_t\000"
 13102      79737465 
 13102      6D5F7400 
 13103              	.LASF5:
 13104 0118 5F5F7569 		.ascii	"__uint8_t\000"
 13104      6E74385F 
 13104      7400
 13105              	.LASF323:
 13106 0122 77747365 		.ascii	"wtsemp\000"
 13106      6D7000
 13107              	.LASF398:
 13108 0129 5F426F6F 		.ascii	"_Bool\000"
 13108      6C00
 13109              	.LASF510:
 13110 012f 64617461 		.ascii	"datamode\000"
 13110      6D6F6465 
 13110      00
 13111              	.LASF577:
 13112 0138 646D6172 		.ascii	"dmarx\000"
 13112      7800
 13113              	.LASF70:
 13114 013e 5F6D6273 		.ascii	"_mbstate\000"
 13114      74617465 
 13114      00
 13115              	.LASF49:
 13116 0147 5F617465 		.ascii	"_atexit\000"
 13116      78697400 
 13117              	.LASF839:
 13118 014f 73646345 		.ascii	"sdcErase\000"
 13118      72617365 
 13118      00
 13119              	.LASF876:
 13120 0158 6F73616C 		.ascii	"osalSysUnlock\000"
 13120      53797355 
 13120      6E6C6F63 
 13120      6B00
 13121              	.LASF458:
ARM GAS  C:\Users\PCHAUT~1\AppData\Local\Temp\ccjQKXWT.s 			page 233


 13122 0166 73717231 		.ascii	"sqr1\000"
 13122      00
 13123              	.LASF385:
 13124 016b 424C4B5F 		.ascii	"BLK_UNINIT\000"
 13124      554E494E 
 13124      495400
 13125              	.LASF589:
 13126 0176 72785F62 		.ascii	"rx_buffer\000"
 13126      75666665 
 13126      7200
 13127              	.LASF573:
 13128 0180 6572726F 		.ascii	"errors\000"
 13128      727300
 13129              	.LASF634:
 13130 0187 5344435F 		.ascii	"SDC_CLK_50MHz\000"
 13130      434C4B5F 
 13130      35304D48 
 13130      7A00
 13131              	.LASF310:
 13132 0195 776F7273 		.ascii	"worst\000"
 13132      7400
 13133              	.LASF193:
 13134 019b 76745F73 		.ascii	"vt_systime\000"
 13134      79737469 
 13134      6D6500
 13135              	.LASF859:
 13136 01a6 7364635F 		.ascii	"sdc_set_bus_width\000"
 13136      7365745F 
 13136      6275735F 
 13136      77696474 
 13136      6800
 13137              	.LASF259:
 13138 01b8 444F5231 		.ascii	"DOR1\000"
 13138      00
 13139              	.LASF260:
 13140 01bd 444F5232 		.ascii	"DOR2\000"
 13140      00
 13141              	.LASF588:
 13142 01c2 74785F62 		.ascii	"tx_buffer\000"
 13142      75666665 
 13142      7200
 13143              	.LASF39:
 13144 01cc 5F5F746D 		.ascii	"__tm_mon\000"
 13144      5F6D6F6E 
 13144      00
 13145              	.LASF47:
 13146 01d5 5F666E74 		.ascii	"_fntypes\000"
 13146      79706573 
 13146      00
 13147              	.LASF332:
 13148 01de 6D5F6E65 		.ascii	"m_next\000"
 13148      787400
 13149              	.LASF418:
 13150 01e5 50434461 		.ascii	"PCData\000"
 13150      746100
 13151              	.LASF77:
 13152 01ec 5F696E63 		.ascii	"_inc\000"
ARM GAS  C:\Users\PCHAUT~1\AppData\Local\Temp\ccjQKXWT.s 			page 234


 13152      00
 13153              	.LASF50:
 13154 01f1 5F696E64 		.ascii	"_ind\000"
 13154      00
 13155              	.LASF282:
 13156 01f6 4D41534B 		.ascii	"MASK\000"
 13156      00
 13157              	.LASF443:
 13158 01fb 73616D70 		.ascii	"samples\000"
 13158      6C657300 
 13159              	.LASF748:
 13160 0203 47434346 		.ascii	"GCCFG\000"
 13160      4700
 13161              	.LASF539:
 13162 0209 42445452 		.ascii	"BDTR\000"
 13162      00
 13163              	.LASF492:
 13164 020e 7265676D 		.ascii	"regmask\000"
 13164      61736B00 
 13165              	.LASF571:
 13166 0216 49324343 		.ascii	"I2CConfig\000"
 13166      6F6E6669 
 13166      6700
 13167              	.LASF130:
 13168 0220 75696E74 		.ascii	"uint16_t\000"
 13168      31365F74 
 13168      00
 13169              	.LASF578:
 13170 0229 646D6174 		.ascii	"dmatx\000"
 13170      7800
 13171              	.LASF818:
 13172 022f 736F665F 		.ascii	"sof_cb\000"
 13172      636200
 13173              	.LASF823:
 13174 0236 4D4D435F 		.ascii	"MMC_SWITCH_CLEAR_BITS\000"
 13174      53574954 
 13174      43485F43 
 13174      4C454152 
 13174      5F424954 
 13175              	.LASF515:
 13176 024c 4558545F 		.ascii	"EXT_ACTIVE\000"
 13176      41435449 
 13176      564500
 13177              	.LASF56:
 13178 0257 5F666C61 		.ascii	"_flags\000"
 13178      677300
 13179              	.LASF411:
 13180 025e 6F737065 		.ascii	"ospeedr\000"
 13180      65647200 
 13181              	.LASF751:
 13182 0266 44494550 		.ascii	"DIEPTXF\000"
 13182      54584600 
 13183              	.LASF357:
 13184 026e 656C5F6E 		.ascii	"el_next\000"
 13184      65787400 
 13185              	.LASF438:
 13186 0276 4144435F 		.ascii	"ADC_ERR_OVERFLOW\000"
ARM GAS  C:\Users\PCHAUT~1\AppData\Local\Temp\ccjQKXWT.s 			page 235


 13186      4552525F 
 13186      4F564552 
 13186      464C4F57 
 13186      00
 13187              	.LASF87:
 13188 0287 5F637674 		.ascii	"_cvtlen\000"
 13188      6C656E00 
 13189              	.LASF198:
 13190 028f 6C6F636B 		.ascii	"lock_cnt\000"
 13190      5F636E74 
 13190      00
 13191              	.LASF174:
 13192 0298 63685F74 		.ascii	"ch_threads_queue\000"
 13192      68726561 
 13192      64735F71 
 13192      75657565 
 13192      00
 13193              	.LASF91:
 13194 02a9 5F736967 		.ascii	"_sig_func\000"
 13194      5F66756E 
 13194      6300
 13195              	.LASF153:
 13196 02b3 705F6E65 		.ascii	"p_newer\000"
 13196      77657200 
 13197              	.LASF761:
 13198 02bb 48505254 		.ascii	"HPRT\000"
 13198      00
 13199              	.LASF715:
 13200 02c0 4843494E 		.ascii	"HCINT\000"
 13200      5400
 13201              	.LASF856:
 13202 02c6 5F736463 		.ascii	"_sdc_wait_for_transfer_state\000"
 13202      5F776169 
 13202      745F666F 
 13202      725F7472 
 13202      616E7366 
 13203              	.LASF209:
 13204 02e3 534D5052 		.ascii	"SMPR1\000"
 13204      3100
 13205              	.LASF210:
 13206 02e9 534D5052 		.ascii	"SMPR2\000"
 13206      3200
 13207              	.LASF348:
 13208 02ef 63665F6F 		.ascii	"cf_off_flags\000"
 13208      66665F66 
 13208      6C616773 
 13208      00
 13209              	.LASF69:
 13210 02fc 5F6C6F63 		.ascii	"_lock\000"
 13210      6B00
 13211              	.LASF65:
 13212 0302 5F6E6275 		.ascii	"_nbuf\000"
 13212      6600
 13213              	.LASF654:
 13214 0308 5350495F 		.ascii	"SPI_STOP\000"
 13214      53544F50 
 13214      00
ARM GAS  C:\Users\PCHAUT~1\AppData\Local\Temp\ccjQKXWT.s 			page 236


 13215              	.LASF123:
 13216 0311 5F756E75 		.ascii	"_unused\000"
 13216      73656400 
 13217              	.LASF417:
 13218 0319 50424461 		.ascii	"PBData\000"
 13218      746100
 13219              	.LASF336:
 13220 0320 63685F73 		.ascii	"ch_size\000"
 13220      697A6500 
 13221              	.LASF757:
 13222 0328 48505458 		.ascii	"HPTXSTS\000"
 13222      53545300 
 13223              	.LASF410:
 13224 0330 6F747970 		.ascii	"otyper\000"
 13224      657200
 13225              	.LASF401:
 13226 0337 4F545950 		.ascii	"OTYPER\000"
 13226      455200
 13227              	.LASF494:
 13228 033e 64616370 		.ascii	"dacparams_t\000"
 13228      6172616D 
 13228      735F7400 
 13229              	.LASF629:
 13230 034a 5344435F 		.ascii	"SDC_MODE_1BIT\000"
 13230      4D4F4445 
 13230      5F314249 
 13230      5400
 13231              	.LASF713:
 13232 0358 48434348 		.ascii	"HCCHAR\000"
 13232      415200
 13233              	.LASF555:
 13234 035f 4932435F 		.ascii	"I2C_ACTIVE_RX\000"
 13234      41435449 
 13234      56455F52 
 13234      5800
 13235              	.LASF147:
 13236 036d 74687265 		.ascii	"thread_t\000"
 13236      61645F74 
 13236      00
 13237              	.LASF359:
 13238 0376 656C5F65 		.ascii	"el_events\000"
 13238      76656E74 
 13238      7300
 13239              	.LASF598:
 13240 0380 70776D73 		.ascii	"pwmstate_t\000"
 13240      74617465 
 13240      5F7400
 13241              	.LASF479:
 13242 038b 736C6565 		.ascii	"sleep_event\000"
 13242      705F6576 
 13242      656E7400 
 13243              	.LASF192:
 13244 0397 63685F76 		.ascii	"ch_virtual_timers_list\000"
 13244      69727475 
 13244      616C5F74 
 13244      696D6572 
 13244      735F6C69 
ARM GAS  C:\Users\PCHAUT~1\AppData\Local\Temp\ccjQKXWT.s 			page 237


 13245              	.LASF382:
 13246 03ae 76656374 		.ascii	"vector\000"
 13246      6F7200
 13247              	.LASF739:
 13248 03b5 47494E54 		.ascii	"GINTSTS\000"
 13248      53545300 
 13249              	.LASF131:
 13250 03bd 696E7433 		.ascii	"int32_t\000"
 13250      325F7400 
 13251              	.LASF569:
 13252 03c5 636C6F63 		.ascii	"clock_speed\000"
 13252      6B5F7370 
 13252      65656400 
 13253              	.LASF146:
 13254 03d1 73797374 		.ascii	"systime_t\000"
 13254      696D655F 
 13254      7400
 13255              	.LASF512:
 13256 03db 44414344 		.ascii	"DACD2\000"
 13256      3200
 13257              	.LASF481:
 13258 03e1 43414E44 		.ascii	"CANDriver\000"
 13258      72697665 
 13258      7200
 13259              	.LASF101:
 13260 03eb 5F616464 		.ascii	"_add\000"
 13260      00
 13261              	.LASF263:
 13262 03f0 4D304152 		.ascii	"M0AR\000"
 13262      00
 13263              	.LASF720:
 13264 03f5 72657376 		.ascii	"resvd1c\000"
 13264      64316300 
 13265              	.LASF559:
 13266 03fd 69326366 		.ascii	"i2cflags_t\000"
 13266      6C616773 
 13266      5F7400
 13267              	.LASF758:
 13268 0408 4841494E 		.ascii	"HAINT\000"
 13268      5400
 13269              	.LASF245:
 13270 040e 46413152 		.ascii	"FA1R\000"
 13270      00
 13271              	.LASF755:
 13272 0413 48464E55 		.ascii	"HFNUM\000"
 13272      4D00
 13273              	.LASF375:
 13274 0419 716E6F74 		.ascii	"qnotify_t\000"
 13274      6966795F 
 13274      7400
 13275              	.LASF434:
 13276 0423 61646373 		.ascii	"adcstate_t\000"
 13276      74617465 
 13276      5F7400
 13277              	.LASF640:
 13278 042e 63617264 		.ascii	"cardmode\000"
 13278      6D6F6465 
ARM GAS  C:\Users\PCHAUT~1\AppData\Local\Temp\ccjQKXWT.s 			page 238


 13278      00
 13279              	.LASF380:
 13280 0437 69736869 		.ascii	"ishift\000"
 13280      667400
 13281              	.LASF827:
 13282 043e 53445F53 		.ascii	"SD_SWITCH_SET\000"
 13282      57495443 
 13282      485F5345 
 13282      5400
 13283              	.LASF529:
 13284 044c 4750545F 		.ascii	"GPT_ONESHOT\000"
 13284      4F4E4553 
 13284      484F5400 
 13285              	.LASF370:
 13286 0458 715F746F 		.ascii	"q_top\000"
 13286      7000
 13287              	.LASF58:
 13288 045e 5F6C6266 		.ascii	"_lbfsize\000"
 13288      73697A65 
 13288      00
 13289              	.LASF706:
 13290 0467 75645F73 		.ascii	"ud_string\000"
 13290      7472696E 
 13290      6700
 13291              	.LASF572:
 13292 0471 49324344 		.ascii	"I2CDriver\000"
 13292      72697665 
 13292      7200
 13293              	.LASF554:
 13294 047b 4932435F 		.ascii	"I2C_ACTIVE_TX\000"
 13294      41435449 
 13294      56455F54 
 13294      5800
 13295              	.LASF624:
 13296 0489 72656164 		.ascii	"read\000"
 13296      00
 13297              	.LASF560:
 13298 048e 4F504D4F 		.ascii	"OPMODE_I2C\000"
 13298      44455F49 
 13298      324300
 13299              	.LASF767:
 13300 0499 72657376 		.ascii	"resvd80C\000"
 13300      64383043 
 13300      00
 13301              	.LASF815:
 13302 04a2 6576656E 		.ascii	"event_cb\000"
 13302      745F6362 
 13302      00
 13303              	.LASF734:
 13304 04ab 474F5447 		.ascii	"GOTGCTL\000"
 13304      43544C00 
 13305              	.LASF709:
 13306 04b3 75736265 		.ascii	"usbepcallback_t\000"
 13306      7063616C 
 13306      6C626163 
 13306      6B5F7400 
 13307              	.LASF825:
ARM GAS  C:\Users\PCHAUT~1\AppData\Local\Temp\ccjQKXWT.s 			page 239


 13308 04c3 6D6D635F 		.ascii	"mmc_switch_t\000"
 13308      73776974 
 13308      63685F74 
 13308      00
 13309              	.LASF68:
 13310 04d0 5F646174 		.ascii	"_data\000"
 13310      6100
 13311              	.LASF203:
 13312 04d6 76746C69 		.ascii	"vtlist\000"
 13312      737400
 13313              	.LASF268:
 13314 04dd 54524953 		.ascii	"TRISE\000"
 13314      4500
 13315              	.LASF773:
 13316 04e3 72657376 		.ascii	"resvd824\000"
 13316      64383234 
 13316      00
 13317              	.LASF162:
 13318 04ec 705F7761 		.ascii	"p_waiting\000"
 13318      6974696E 
 13318      6700
 13319              	.LASF318:
 13320 04f6 6B65726E 		.ascii	"kernel_stats_t\000"
 13320      656C5F73 
 13320      74617473 
 13320      5F7400
 13321              	.LASF367:
 13322 0505 715F7761 		.ascii	"q_waiting\000"
 13322      6974696E 
 13322      6700
 13323              	.LASF227:
 13324 050f 43414E5F 		.ascii	"CAN_TxMailBox_TypeDef\000"
 13324      54784D61 
 13324      696C426F 
 13324      785F5479 
 13324      70654465 
 13325              	.LASF202:
 13326 0525 726C6973 		.ascii	"rlist\000"
 13326      7400
 13327              	.LASF171:
 13328 052b 74687265 		.ascii	"threads_list_t\000"
 13328      6164735F 
 13328      6C697374 
 13328      5F7400
 13329              	.LASF308:
 13330 053a 746D5F63 		.ascii	"tm_calibration_t\000"
 13330      616C6962 
 13330      72617469 
 13330      6F6E5F74 
 13330      00
 13331              	.LASF376:
 13332 054b 696E7075 		.ascii	"input_queue_t\000"
 13332      745F7175 
 13332      6575655F 
 13332      7400
 13333              	.LASF461:
 13334 0559 41444343 		.ascii	"ADCConversionGroup\000"
ARM GAS  C:\Users\PCHAUT~1\AppData\Local\Temp\ccjQKXWT.s 			page 240


 13334      6F6E7665 
 13334      7273696F 
 13334      6E47726F 
 13334      757000
 13335              	.LASF766:
 13336 056c 44535453 		.ascii	"DSTS\000"
 13336      00
 13337              	.LASF124:
 13338 0571 5F5F6C6F 		.ascii	"__lock\000"
 13338      636B00
 13339              	.LASF564:
 13340 0578 5354445F 		.ascii	"STD_DUTY_CYCLE\000"
 13340      44555459 
 13340      5F435943 
 13340      4C4500
 13341              	.LASF72:
 13342 0587 5F726565 		.ascii	"_reent\000"
 13342      6E7400
 13343              	.LASF863:
 13344 058e 7364635F 		.ascii	"sdc_cmd6_check_status\000"
 13344      636D6436 
 13344      5F636865 
 13344      636B5F73 
 13344      74617475 
 13345              	.LASF344:
 13346 05a4 63665F6F 		.ascii	"cf_off_older\000"
 13346      66665F6F 
 13346      6C646572 
 13346      00
 13347              	.LASF135:
 13348 05b1 72747469 		.ascii	"rttime_t\000"
 13348      6D655F74 
 13348      00
 13349              	.LASF524:
 13350 05ba 45585444 		.ascii	"EXTD1\000"
 13350      3100
 13351              	.LASF800:
 13352 05c0 72787175 		.ascii	"rxqueued\000"
 13352      65756564 
 13352      00
 13353              	.LASF472:
 13354 05c9 63616E73 		.ascii	"canstate_t\000"
 13354      74617465 
 13354      5F7400
 13355              	.LASF247:
 13356 05d4 7346696C 		.ascii	"sFilterRegister\000"
 13356      74657252 
 13356      65676973 
 13356      74657200 
 13357              	.LASF93:
 13358 05e4 5F5F7366 		.ascii	"__sf\000"
 13358      00
 13359              	.LASF772:
 13360 05e9 72657376 		.ascii	"resvd820\000"
 13360      64383230 
 13360      00
 13361              	.LASF53:
ARM GAS  C:\Users\PCHAUT~1\AppData\Local\Temp\ccjQKXWT.s 			page 241


 13362 05f2 5F626173 		.ascii	"_base\000"
 13362      6500
 13363              	.LASF274:
 13364 05f8 52455350 		.ascii	"RESP1\000"
 13364      3100
 13365              	.LASF275:
 13366 05fe 52455350 		.ascii	"RESP2\000"
 13366      3200
 13367              	.LASF276:
 13368 0604 52455350 		.ascii	"RESP3\000"
 13368      3300
 13369              	.LASF277:
 13370 060a 52455350 		.ascii	"RESP4\000"
 13370      3400
 13371              	.LASF110:
 13372 0610 5F6D6274 		.ascii	"_mbtowc_state\000"
 13372      6F77635F 
 13372      73746174 
 13372      6500
 13373              	.LASF878:
 13374 061e 6F73616C 		.ascii	"osalThreadSleep\000"
 13374      54687265 
 13374      6164536C 
 13374      65657000 
 13375              	.LASF551:
 13376 062e 4932435F 		.ascii	"I2C_UNINIT\000"
 13376      554E494E 
 13376      495400
 13377              	.LASF711:
 13378 0639 75736272 		.ascii	"usbreqhandler_t\000"
 13378      65716861 
 13378      6E646C65 
 13378      725F7400 
 13379              	.LASF432:
 13380 0649 4144435F 		.ascii	"ADC_COMPLETE\000"
 13380      434F4D50 
 13380      4C455445 
 13380      00
 13381              	.LASF548:
 13382 0656 47505443 		.ascii	"GPTConfig\000"
 13382      6F6E6669 
 13382      6700
 13383              	.LASF613:
 13384 0660 53445F55 		.ascii	"SD_UNINIT\000"
 13384      4E494E49 
 13384      5400
 13385              	.LASF830:
 13386 066a 53445F53 		.ascii	"SD_SWITCH_FUNCTION_CMD_SYSTEM\000"
 13386      57495443 
 13386      485F4655 
 13386      4E435449 
 13386      4F4E5F43 
 13387              	.LASF140:
 13388 0688 74707269 		.ascii	"tprio_t\000"
 13388      6F5F7400 
 13389              	.LASF314:
 13390 0690 6E5F6972 		.ascii	"n_irq\000"
ARM GAS  C:\Users\PCHAUT~1\AppData\Local\Temp\ccjQKXWT.s 			page 242


 13390      7100
 13391              	.LASF592:
 13392 0696 69327370 		.ascii	"i2spr\000"
 13392      7200
 13393              	.LASF776:
 13394 069c 72657376 		.ascii	"resvd830\000"
 13394      64383330 
 13394      00
 13395              	.LASF34:
 13396 06a5 5F5F746D 		.ascii	"__tm\000"
 13396      00
 13397              	.LASF778:
 13398 06aa 72657376 		.ascii	"resvd838\000"
 13398      64383338 
 13398      00
 13399              	.LASF567:
 13400 06b3 69326364 		.ascii	"i2cdutycycle_t\000"
 13400      75747963 
 13400      79636C65 
 13400      5F7400
 13401              	.LASF779:
 13402 06c2 72657376 		.ascii	"resvd83C\000"
 13402      64383343 
 13402      00
 13403              	.LASF446:
 13404 06cb 74687265 		.ascii	"thread\000"
 13404      616400
 13405              	.LASF491:
 13406 06d2 72656773 		.ascii	"regshift\000"
 13406      68696674 
 13406      00
 13407              	.LASF674:
 13408 06db 73657475 		.ascii	"setup\000"
 13408      7000
 13409              	.LASF653:
 13410 06e1 5350495F 		.ascii	"SPI_UNINIT\000"
 13410      554E494E 
 13410      495400
 13411              	.LASF727:
 13412 06ec 44545846 		.ascii	"DTXFSTS\000"
 13412      53545300 
 13413              	.LASF395:
 13414 06f4 626C6B5F 		.ascii	"blk_size\000"
 13414      73697A65 
 13414      00
 13415              	.LASF553:
 13416 06fd 4932435F 		.ascii	"I2C_READY\000"
 13416      52454144 
 13416      5900
 13417              	.LASF42:
 13418 0707 5F5F746D 		.ascii	"__tm_yday\000"
 13418      5F796461 
 13418      7900
 13419              	.LASF668:
 13420 0711 696E5F70 		.ascii	"in_params\000"
 13420      6172616D 
 13420      7300
ARM GAS  C:\Users\PCHAUT~1\AppData\Local\Temp\ccjQKXWT.s 			page 243


 13421              	.LASF538:
 13422 071b 43434552 		.ascii	"CCER\000"
 13422      00
 13423              	.LASF290:
 13424 0720 49325350 		.ascii	"I2SPR\000"
 13424      5200
 13425              	.LASF595:
 13426 0726 50574D5F 		.ascii	"PWM_UNINIT\000"
 13426      554E494E 
 13426      495400
 13427              	.LASF309:
 13428 0731 62657374 		.ascii	"best\000"
 13428      00
 13429              	.LASF736:
 13430 0736 47414842 		.ascii	"GAHBCFG\000"
 13430      43464700 
 13431              	.LASF501:
 13432 073e 64616363 		.ascii	"daccallback_t\000"
 13432      616C6C62 
 13432      61636B5F 
 13432      7400
 13433              	.LASF17:
 13434 074c 5F4C4F43 		.ascii	"_LOCK_T\000"
 13434      4B5F5400 
 13435              	.LASF780:
 13436 0754 72657376 		.ascii	"resvd840\000"
 13436      64383430 
 13436      00
 13437              	.LASF286:
 13438 075d 43524350 		.ascii	"CRCPR\000"
 13438      5200
 13439              	.LASF390:
 13440 0763 424C4B5F 		.ascii	"BLK_READY\000"
 13440      52454144 
 13440      5900
 13441              	.LASF7:
 13442 076d 5F5F696E 		.ascii	"__int16_t\000"
 13442      7431365F 
 13442      7400
 13443              	.LASF9:
 13444 0777 5F5F7569 		.ascii	"__uint16_t\000"
 13444      6E743136 
 13444      5F7400
 13445              	.LASF528:
 13446 0782 4750545F 		.ascii	"GPT_CONTINUOUS\000"
 13446      434F4E54 
 13446      494E554F 
 13446      555300
 13447              	.LASF794:
 13448 0791 74787175 		.ascii	"txqueued\000"
 13448      65756564 
 13448      00
 13449              	.LASF164:
 13450 079a 705F6D73 		.ascii	"p_msg\000"
 13450      6700
 13451              	.LASF102:
 13452 07a0 5F756E75 		.ascii	"_unused_rand\000"
ARM GAS  C:\Users\PCHAUT~1\AppData\Local\Temp\ccjQKXWT.s 			page 244


 13452      7365645F 
 13452      72616E64 
 13452      00
 13453              	.LASF733:
 13454 07ad 73746D33 		.ascii	"stm32_otg_out_ep_t\000"
 13454      325F6F74 
 13454      675F6F75 
 13454      745F6570 
 13454      5F7400
 13455              	.LASF742:
 13456 07c0 47525853 		.ascii	"GRXSTSP\000"
 13456      54535000 
 13457              	.LASF741:
 13458 07c8 47525853 		.ascii	"GRXSTSR\000"
 13458      54535200 
 13459              	.LASF320:
 13460 07d0 65786974 		.ascii	"exitcode\000"
 13460      636F6465 
 13460      00
 13461              	.LASF264:
 13462 07d9 4D314152 		.ascii	"M1AR\000"
 13462      00
 13463              	.LASF681:
 13464 07de 77616974 		.ascii	"wait\000"
 13464      00
 13465              	.LASF265:
 13466 07e3 444D415F 		.ascii	"DMA_Stream_TypeDef\000"
 13466      53747265 
 13466      616D5F54 
 13466      79706544 
 13466      656600
 13467              	.LASF688:
 13468 07f6 5553425F 		.ascii	"USB_ACTIVE\000"
 13468      41435449 
 13468      564500
 13469              	.LASF729:
 13470 0801 73746D33 		.ascii	"stm32_otg_in_ep_t\000"
 13470      325F6F74 
 13470      675F696E 
 13470      5F65705F 
 13470      7400
 13471              	.LASF802:
 13472 0813 7278636E 		.ascii	"rxcnt\000"
 13472      7400
 13473              	.LASF428:
 13474 0819 4144435F 		.ascii	"ADC_UNINIT\000"
 13474      554E494E 
 13474      495400
 13475              	.LASF575:
 13476 0824 7278646D 		.ascii	"rxdmamode\000"
 13476      616D6F64 
 13476      6500
 13477              	.LASF84:
 13478 082e 5F726573 		.ascii	"_result_k\000"
 13478      756C745F 
 13478      6B00
 13479              	.LASF520:
ARM GAS  C:\Users\PCHAUT~1\AppData\Local\Temp\ccjQKXWT.s 			page 245


 13480 0838 6D6F6465 		.ascii	"mode\000"
 13480      00
 13481              	.LASF76:
 13482 083d 5F737464 		.ascii	"_stderr\000"
 13482      65727200 
 13483              	.LASF83:
 13484 0845 5F726573 		.ascii	"_result\000"
 13484      756C7400 
 13485              	.LASF333:
 13486 084d 6D5F636E 		.ascii	"m_cnt\000"
 13486      7400
 13487              	.LASF517:
 13488 0853 45585444 		.ascii	"EXTDriver\000"
 13488      72697665 
 13488      7200
 13489              	.LASF46:
 13490 085d 5F64736F 		.ascii	"_dso_handle\000"
 13490      5F68616E 
 13490      646C6500 
 13491              	.LASF587:
 13492 0869 69327363 		.ascii	"i2scallback_t\000"
 13492      616C6C62 
 13492      61636B5F 
 13492      7400
 13493              	.LASF662:
 13494 0877 73737061 		.ascii	"sspad\000"
 13494      6400
 13495              	.LASF576:
 13496 087d 7478646D 		.ascii	"txdmamode\000"
 13496      616D6F64 
 13496      6500
 13497              	.LASF544:
 13498 0887 67707466 		.ascii	"gptfreq_t\000"
 13498      7265715F 
 13498      7400
 13499              	.LASF883:
 13500 0891 474E5520 		.ascii	"GNU C11 7.2.1 20170904 (release) [ARM/embedded-7-br"
 13500      43313120 
 13500      372E322E 
 13500      31203230 
 13500      31373039 
 13501 08c4 616E6368 		.ascii	"anch revision 255204] -mcpu=cortex-m4 -mfloat-abi=h"
 13501      20726576 
 13501      6973696F 
 13501      6E203235 
 13501      35323034 
 13502 08f7 61726420 		.ascii	"ard -mfpu=fpv4-sp-d16 -mno-thumb-interwork -mthumb "
 13502      2D6D6670 
 13502      753D6670 
 13502      76342D73 
 13502      702D6431 
 13503 092a 2D676764 		.ascii	"-ggdb -O0 -fomit-frame-pointer -falign-functions=16"
 13503      62202D4F 
 13503      30202D66 
 13503      6F6D6974 
 13503      2D667261 
 13504 095d 202D666E 		.ascii	" -fno-strict-aliasing -fstack-protector-all -ffunct"
ARM GAS  C:\Users\PCHAUT~1\AppData\Local\Temp\ccjQKXWT.s 			page 246


 13504      6F2D7374 
 13504      72696374 
 13504      2D616C69 
 13504      6173696E 
 13505 0990 696F6E2D 		.ascii	"ion-sections -fdata-sections -fno-common -fsingle-p"
 13505      73656374 
 13505      696F6E73 
 13505      202D6664 
 13505      6174612D 
 13506 09c3 72656369 		.ascii	"recision-constant\000"
 13506      73696F6E 
 13506      2D636F6E 
 13506      7374616E 
 13506      7400
 13507              	.LASF43:
 13508 09d5 5F5F746D 		.ascii	"__tm_isdst\000"
 13508      5F697364 
 13508      737400
 13509              	.LASF787:
 13510 09e0 72785F66 		.ascii	"rx_fifo_size\000"
 13510      69666F5F 
 13510      73697A65 
 13510      00
 13511              	.LASF295:
 13512 09ed 73746B61 		.ascii	"stkalign_t\000"
 13512      6C69676E 
 13512      5F7400
 13513              	.LASF499:
 13514 09f8 4441435F 		.ascii	"DAC_ERR_UNDERFLOW\000"
 13514      4552525F 
 13514      554E4445 
 13514      52464C4F 
 13514      5700
 13515              	.LASF41:
 13516 0a0a 5F5F746D 		.ascii	"__tm_wday\000"
 13516      5F776461 
 13516      7900
 13517              	.LASF480:
 13518 0a14 77616B65 		.ascii	"wakeup_event\000"
 13518      75705F65 
 13518      76656E74 
 13518      00
 13519              	.LASF187:
 13520 0a21 76745F70 		.ascii	"vt_prev\000"
 13520      72657600 
 13521              	.LASF454:
 13522 0a29 656E645F 		.ascii	"end_cb\000"
 13522      636200
 13523              	.LASF805:
 13524 0a30 73657475 		.ascii	"setup_cb\000"
 13524      705F6362 
 13524      00
 13525              	.LASF6:
 13526 0a39 756E7369 		.ascii	"unsigned char\000"
 13526      676E6564 
 13526      20636861 
 13526      7200
ARM GAS  C:\Users\PCHAUT~1\AppData\Local\Temp\ccjQKXWT.s 			page 247


 13527              	.LASF75:
 13528 0a47 5F737464 		.ascii	"_stdout\000"
 13528      6F757400 
 13529              	.LASF284:
 13530 0a4f 4649464F 		.ascii	"FIFO\000"
 13530      00
 13531              	.LASF305:
 13532 0a54 74625F62 		.ascii	"tb_buffer\000"
 13532      75666665 
 13532      7200
 13533              	.LASF474:
 13534 0a5e 74787175 		.ascii	"txqueue\000"
 13534      65756500 
 13535              	.LASF328:
 13536 0a66 735F636E 		.ascii	"s_cnt\000"
 13536      7400
 13537              	.LASF175:
 13538 0a6c 72656164 		.ascii	"ready_list_t\000"
 13538      795F6C69 
 13538      73745F74 
 13538      00
 13539              	.LASF148:
 13540 0a79 63685F74 		.ascii	"ch_thread\000"
 13540      68726561 
 13540      6400
 13541              	.LASF562:
 13542 0a83 4F504D4F 		.ascii	"OPMODE_SMBUS_HOST\000"
 13542      44455F53 
 13542      4D425553 
 13542      5F484F53 
 13542      5400
 13543              	.LASF117:
 13544 0a95 5F6D6273 		.ascii	"_mbsrtowcs_state\000"
 13544      72746F77 
 13544      63735F73 
 13544      74617465 
 13544      00
 13545              	.LASF683:
 13546 0aa6 75736265 		.ascii	"usbep_t\000"
 13546      705F7400 
 13547              	.LASF32:
 13548 0aae 5F776473 		.ascii	"_wds\000"
 13548      00
 13549              	.LASF513:
 13550 0ab3 4558545F 		.ascii	"EXT_UNINIT\000"
 13550      554E494E 
 13550      495400
 13551              	.LASF471:
 13552 0abe 43414E5F 		.ascii	"CAN_SLEEP\000"
 13552      534C4545 
 13552      5000
 13553              	.LASF301:
 13554 0ac8 73655F73 		.ascii	"se_state\000"
 13554      74617465 
 13554      00
 13555              	.LASF54:
 13556 0ad1 5F73697A 		.ascii	"_size\000"
ARM GAS  C:\Users\PCHAUT~1\AppData\Local\Temp\ccjQKXWT.s 			page 248


 13556      6500
 13557              	.LASF652:
 13558 0ad7 53444344 		.ascii	"SDCD1\000"
 13558      3100
 13559              	.LASF194:
 13560 0add 73797374 		.ascii	"system_debug_t\000"
 13560      656D5F64 
 13560      65627567 
 13560      5F7400
 13561              	.LASF252:
 13562 0aec 44485238 		.ascii	"DHR8R1\000"
 13562      523100
 13563              	.LASF255:
 13564 0af3 44485238 		.ascii	"DHR8R2\000"
 13564      523200
 13565              	.LASF535:
 13566 0afa 44494552 		.ascii	"DIER\000"
 13566      00
 13567              	.LASF152:
 13568 0aff 705F6374 		.ascii	"p_ctx\000"
 13568      7800
 13569              	.LASF190:
 13570 0b05 76745F70 		.ascii	"vt_par\000"
 13570      617200
 13571              	.LASF211:
 13572 0b0c 4A4F4652 		.ascii	"JOFR1\000"
 13572      3100
 13573              	.LASF212:
 13574 0b12 4A4F4652 		.ascii	"JOFR2\000"
 13574      3200
 13575              	.LASF214:
 13576 0b18 4A4F4652 		.ascii	"JOFR4\000"
 13576      3400
 13577              	.LASF61:
 13578 0b1e 5F777269 		.ascii	"_write\000"
 13578      746500
 13579              	.LASF288:
 13580 0b25 54584352 		.ascii	"TXCRCR\000"
 13580      435200
 13581              	.LASF506:
 13582 0b2c 64616364 		.ascii	"dacdhrmode_t\000"
 13582      68726D6F 
 13582      64655F74 
 13582      00
 13583              	.LASF448:
 13584 0b39 646D6173 		.ascii	"dmastp\000"
 13584      747000
 13585              	.LASF566:
 13586 0b40 46415354 		.ascii	"FAST_DUTY_CYCLE_16_9\000"
 13586      5F445554 
 13586      595F4359 
 13586      434C455F 
 13586      31365F39 
 13587              	.LASF133:
 13588 0b55 75696E74 		.ascii	"uint64_t\000"
 13588      36345F74 
 13588      00
ARM GAS  C:\Users\PCHAUT~1\AppData\Local\Temp\ccjQKXWT.s 			page 249


 13589              	.LASF315:
 13590 0b5e 6E5F6374 		.ascii	"n_ctxswc\000"
 13590      78737763 
 13590      00
 13591              	.LASF353:
 13592 0b67 63685F64 		.ascii	"ch_debug\000"
 13592      65627567 
 13592      00
 13593              	.LASF509:
 13594 0b70 696E6974 		.ascii	"init\000"
 13594      00
 13595              	.LASF239:
 13596 0b75 464D3152 		.ascii	"FM1R\000"
 13596      00
 13597              	.LASF425:
 13598 0b7a 50414C43 		.ascii	"PALConfig\000"
 13598      6F6E6669 
 13598      6700
 13599              	.LASF796:
 13600 0b84 7478636E 		.ascii	"txcnt\000"
 13600      7400
 13601              	.LASF710:
 13602 0b8a 75736265 		.ascii	"usbeventcb_t\000"
 13602      76656E74 
 13602      63625F74 
 13602      00
 13603              	.LASF862:
 13604 0b97 7364635F 		.ascii	"sdc_detect_bus_clk\000"
 13604      64657465 
 13604      63745F62 
 13604      75735F63 
 13604      6C6B00
 13605              	.LASF387:
 13606 0baa 424C4B5F 		.ascii	"BLK_ACTIVE\000"
 13606      41435449 
 13606      564500
 13607              	.LASF40:
 13608 0bb5 5F5F746D 		.ascii	"__tm_year\000"
 13608      5F796561 
 13608      7200
 13609              	.LASF355:
 13610 0bbf 6576656E 		.ascii	"event_listener_t\000"
 13610      745F6C69 
 13610      7374656E 
 13610      65725F74 
 13610      00
 13611              	.LASF788:
 13612 0bd0 6F74675F 		.ascii	"otg_ram_size\000"
 13612      72616D5F 
 13612      73697A65 
 13612      00
 13613              	.LASF843:
 13614 0bdd 73646353 		.ascii	"sdcSync\000"
 13614      796E6300 
 13615              	.LASF790:
 13616 0be5 73746D33 		.ascii	"stm32_otg_params_t\000"
 13616      325F6F74 
ARM GAS  C:\Users\PCHAUT~1\AppData\Local\Temp\ccjQKXWT.s 			page 250


 13616      675F7061 
 13616      72616D73 
 13616      5F7400
 13617              	.LASF783:
 13618 0bf8 72657376 		.ascii	"resvdD00\000"
 13618      64443030 
 13618      00
 13619              	.LASF287:
 13620 0c01 52584352 		.ascii	"RXCRCR\000"
 13620      435200
 13621              	.LASF799:
 13622 0c08 72786275 		.ascii	"rxbuf\000"
 13622      6600
 13623              	.LASF100:
 13624 0c0e 5F6D756C 		.ascii	"_mult\000"
 13624      7400
 13625              	.LASF329:
 13626 0c14 63685F6D 		.ascii	"ch_mutex\000"
 13626      75746578 
 13626      00
 13627              	.LASF477:
 13628 0c1d 7478656D 		.ascii	"txempty_event\000"
 13628      7074795F 
 13628      6576656E 
 13628      7400
 13629              	.LASF599:
 13630 0c2b 50574D44 		.ascii	"PWMDriver\000"
 13630      72697665 
 13630      7200
 13631              	.LASF422:
 13632 0c35 50474461 		.ascii	"PGData\000"
 13632      746100
 13633              	.LASF608:
 13634 0c3c 50574D43 		.ascii	"PWMConfig\000"
 13634      6F6E6669 
 13634      6700
 13635              	.LASF115:
 13636 0c46 5F6D6272 		.ascii	"_mbrlen_state\000"
 13636      6C656E5F 
 13636      73746174 
 13636      6500
 13637              	.LASF868:
 13638 0c54 76616C75 		.ascii	"value\000"
 13638      6500
 13639              	.LASF343:
 13640 0c5a 63665F6F 		.ascii	"cf_off_newer\000"
 13640      66665F6E 
 13640      65776572 
 13640      00
 13641              	.LASF768:
 13642 0c67 44494550 		.ascii	"DIEPMSK\000"
 13642      4D534B00 
 13643              	.LASF735:
 13644 0c6f 474F5447 		.ascii	"GOTGINT\000"
 13644      494E5400 
 13645              	.LASF807:
 13646 0c77 6F75745F 		.ascii	"out_cb\000"
ARM GAS  C:\Users\PCHAUT~1\AppData\Local\Temp\ccjQKXWT.s 			page 251


 13646      636200
 13647              	.LASF759:
 13648 0c7e 4841494E 		.ascii	"HAINTMSK\000"
 13648      544D534B 
 13648      00
 13649              	.LASF669:
 13650 0c87 6F75745F 		.ascii	"out_params\000"
 13650      70617261 
 13650      6D7300
 13651              	.LASF300:
 13652 0c92 73655F77 		.ascii	"se_wtobjp\000"
 13652      746F626A 
 13652      7000
 13653              	.LASF218:
 13654 0c9c 4A535152 		.ascii	"JSQR\000"
 13654      00
 13655              	.LASF635:
 13656 0ca1 73646362 		.ascii	"sdcbusclk_t\000"
 13656      7573636C 
 13656      6B5F7400 
 13657              	.LASF74:
 13658 0cad 5F737464 		.ascii	"_stdin\000"
 13658      696E00
 13659              	.LASF122:
 13660 0cb4 5F6E6D61 		.ascii	"_nmalloc\000"
 13660      6C6C6F63 
 13660      00
 13661              	.LASF547:
 13662 0cbd 64696572 		.ascii	"dier\000"
 13662      00
 13663              	.LASF647:
 13664 0cc2 69735F70 		.ascii	"is_protected\000"
 13664      726F7465 
 13664      63746564 
 13664      00
 13665              	.LASF184:
 13666 0ccf 76697274 		.ascii	"virtual_timer_t\000"
 13666      75616C5F 
 13666      74696D65 
 13666      725F7400 
 13667              	.LASF809:
 13668 0cdf 6F75745F 		.ascii	"out_maxsize\000"
 13668      6D617873 
 13668      697A6500 
 13669              	.LASF179:
 13670 0ceb 725F6374 		.ascii	"r_ctx\000"
 13670      7800
 13671              	.LASF186:
 13672 0cf1 76745F6E 		.ascii	"vt_next\000"
 13672      65787400 
 13673              	.LASF581:
 13674 0cf9 4932535F 		.ascii	"I2S_STOP\000"
 13674      53544F50 
 13674      00
 13675              	.LASF596:
 13676 0d02 50574D5F 		.ascii	"PWM_STOP\000"
 13676      53544F50 
ARM GAS  C:\Users\PCHAUT~1\AppData\Local\Temp\ccjQKXWT.s 			page 252


 13676      00
 13677              	.LASF886:
 13678 0d0b 73646349 		.ascii	"sdcInit\000"
 13678      6E697400 
 13679              	.LASF134:
 13680 0d13 7274636E 		.ascii	"rtcnt_t\000"
 13680      745F7400 
 13681              	.LASF447:
 13682 0d1b 6D757465 		.ascii	"mutex\000"
 13682      7800
 13683              	.LASF590:
 13684 0d21 73697A65 		.ascii	"size\000"
 13684      00
 13685              	.LASF495:
 13686 0d26 44414344 		.ascii	"DACDriver\000"
 13686      72697665 
 13686      7200
 13687              	.LASF511:
 13688 0d30 44414343 		.ascii	"DACConfig\000"
 13688      6F6E6669 
 13688      6700
 13689              	.LASF680:
 13690 0d3a 74787065 		.ascii	"txpending\000"
 13690      6E64696E 
 13690      6700
 13691              	.LASF532:
 13692 0d44 636C6F63 		.ascii	"clock\000"
 13692      6B00
 13693              	.LASF870:
 13694 0d4a 61636365 		.ascii	"access\000"
 13694      737300
 13695              	.LASF399:
 13696 0d51 636C6561 		.ascii	"clear\000"
 13696      7200
 13697              	.LASF857:
 13698 0d57 636D6461 		.ascii	"cmdarg\000"
 13698      726700
 13699              	.LASF542:
 13700 0d5e 43435852 		.ascii	"CCXR\000"
 13700      00
 13701              	.LASF248:
 13702 0d63 43414E5F 		.ascii	"CAN_TypeDef\000"
 13702      54797065 
 13702      44656600 
 13703              	.LASF18:
 13704 0d6f 5F6F6666 		.ascii	"_off_t\000"
 13704      5F7400
 13705              	.LASF302:
 13706 0d76 63685F73 		.ascii	"ch_swc_event_t\000"
 13706      77635F65 
 13706      76656E74 
 13706      5F7400
 13707              	.LASF614:
 13708 0d85 53445F53 		.ascii	"SD_STOP\000"
 13708      544F5000 
 13709              	.LASF714:
 13710 0d8d 72657376 		.ascii	"resvd8\000"
ARM GAS  C:\Users\PCHAUT~1\AppData\Local\Temp\ccjQKXWT.s 			page 253


 13710      643800
 13711              	.LASF4:
 13712 0d94 73697A65 		.ascii	"size_t\000"
 13712      5F7400
 13713              	.LASF105:
 13714 0d9b 5F6C6F63 		.ascii	"_localtime_buf\000"
 13714      616C7469 
 13714      6D655F62 
 13714      756600
 13715              	.LASF781:
 13716 0daa 72657376 		.ascii	"resvd880\000"
 13716      64383830 
 13716      00
 13717              	.LASF838:
 13718 0db3 72657370 		.ascii	"resp\000"
 13718      00
 13719              	.LASF23:
 13720 0db8 5F5F636F 		.ascii	"__count\000"
 13720      756E7400 
 13721              	.LASF128:
 13722 0dc0 75696E74 		.ascii	"uint8_t\000"
 13722      385F7400 
 13723              	.LASF718:
 13724 0dc8 72657376 		.ascii	"resvd14\000"
 13724      64313400 
 13725              	.LASF467:
 13726 0dd0 43414E5F 		.ascii	"CAN_UNINIT\000"
 13726      554E494E 
 13726      495400
 13727              	.LASF719:
 13728 0ddb 72657376 		.ascii	"resvd18\000"
 13728      64313800 
 13729              	.LASF181:
 13730 0de3 725F6F6C 		.ascii	"r_older\000"
 13730      64657200 
 13731              	.LASF150:
 13732 0deb 705F7072 		.ascii	"p_prev\000"
 13732      657600
 13733              	.LASF345:
 13734 0df2 63665F6F 		.ascii	"cf_off_name\000"
 13734      66665F6E 
 13734      616D6500 
 13735              	.LASF607:
 13736 0dfe 50574D43 		.ascii	"PWMChannelConfig\000"
 13736      68616E6E 
 13736      656C436F 
 13736      6E666967 
 13736      00
 13737              	.LASF606:
 13738 0e0f 70776D63 		.ascii	"pwmcnt_t\000"
 13738      6E745F74 
 13738      00
 13739              	.LASF777:
 13740 0e18 44494550 		.ascii	"DIEPEMPMSK\000"
 13740      454D504D 
 13740      534B00
 13741              	.LASF722:
ARM GAS  C:\Users\PCHAUT~1\AppData\Local\Temp\ccjQKXWT.s 			page 254


 13742 0e23 44494550 		.ascii	"DIEPCTL\000"
 13742      43544C00 
 13743              	.LASF361:
 13744 0e2b 656C5F77 		.ascii	"el_wflags\000"
 13744      666C6167 
 13744      7300
 13745              	.LASF678:
 13746 0e35 6F746770 		.ascii	"otgparams\000"
 13746      6172616D 
 13746      7300
 13747              	.LASF303:
 13748 0e3f 74625F73 		.ascii	"tb_size\000"
 13748      697A6500 
 13749              	.LASF419:
 13750 0e47 50444461 		.ascii	"PDData\000"
 13750      746100
 13751              	.LASF642:
 13752 0e4e 73637261 		.ascii	"scratchpad\000"
 13752      74636870 
 13752      616400
 13753              	.LASF88:
 13754 0e59 5F637674 		.ascii	"_cvtbuf\000"
 13754      62756600 
 13755              	.LASF811:
 13756 0e61 6F75745F 		.ascii	"out_state\000"
 13756      73746174 
 13756      6500
 13757              	.LASF365:
 13758 0e6b 696F5F71 		.ascii	"io_queue_t\000"
 13758      75657565 
 13758      5F7400
 13759              	.LASF658:
 13760 0e76 73706973 		.ascii	"spistate_t\000"
 13760      74617465 
 13760      5F7400
 13761              	.LASF854:
 13762 0e81 73646353 		.ascii	"sdcStart\000"
 13762      74617274 
 13762      00
 13763              	.LASF552:
 13764 0e8a 4932435F 		.ascii	"I2C_STOP\000"
 13764      53544F50 
 13764      00
 13765              	.LASF574:
 13766 0e93 61646472 		.ascii	"addr\000"
 13766      00
 13767              	.LASF233:
 13768 0e98 52463052 		.ascii	"RF0R\000"
 13768      00
 13769              	.LASF437:
 13770 0e9d 4144435F 		.ascii	"ADC_ERR_DMAFAILURE\000"
 13770      4552525F 
 13770      444D4146 
 13770      41494C55 
 13770      524500
 13771              	.LASF656:
 13772 0eb0 5350495F 		.ascii	"SPI_ACTIVE\000"
ARM GAS  C:\Users\PCHAUT~1\AppData\Local\Temp\ccjQKXWT.s 			page 255


 13772      41435449 
 13772      564500
 13773              	.LASF292:
 13774 0ebb 47545052 		.ascii	"GTPR\000"
 13774      00
 13775              	.LASF521:
 13776 0ec0 45585443 		.ascii	"EXTChannelConfig\000"
 13776      68616E6E 
 13776      656C436F 
 13776      6E666967 
 13776      00
 13777              	.LASF402:
 13778 0ed1 4F535045 		.ascii	"OSPEEDR\000"
 13778      45445200 
 13779              	.LASF485:
 13780 0ed9 4441435F 		.ascii	"DAC_READY\000"
 13780      52454144 
 13780      5900
 13781              	.LASF746:
 13782 0ee3 72657376 		.ascii	"resvd30\000"
 13782      64333000 
 13783              	.LASF22:
 13784 0eeb 5F5F7763 		.ascii	"__wchb\000"
 13784      686200
 13785              	.LASF116:
 13786 0ef2 5F6D6272 		.ascii	"_mbrtowc_state\000"
 13786      746F7763 
 13786      5F737461 
 13786      746500
 13787              	.LASF775:
 13788 0f01 44564255 		.ascii	"DVBUSPULSE\000"
 13788      5350554C 
 13788      534500
 13789              	.LASF37:
 13790 0f0c 5F5F746D 		.ascii	"__tm_hour\000"
 13790      5F686F75 
 13790      7200
 13791              	.LASF386:
 13792 0f16 424C4B5F 		.ascii	"BLK_STOP\000"
 13792      53544F50 
 13792      00
 13793              	.LASF622:
 13794 0f1f 53657269 		.ascii	"SerialDriverVMT\000"
 13794      616C4472 
 13794      69766572 
 13794      564D5400 
 13795              	.LASF696:
 13796 0f2f 5553425F 		.ascii	"USB_EP0_ERROR\000"
 13796      4550305F 
 13796      4552524F 
 13796      5200
 13797              	.LASF20:
 13798 0f3d 77696E74 		.ascii	"wint_t\000"
 13798      5F7400
 13799              	.LASF648:
 13800 0f44 636F6E6E 		.ascii	"connect\000"
 13800      65637400 
ARM GAS  C:\Users\PCHAUT~1\AppData\Local\Temp\ccjQKXWT.s 			page 256


 13801              	.LASF89:
 13802 0f4c 5F6E6577 		.ascii	"_new\000"
 13802      00
 13803              	.LASF440:
 13804 0f51 41444344 		.ascii	"ADCDriver\000"
 13804      72697665 
 13804      7200
 13805              	.LASF789:
 13806 0f5b 6E756D5F 		.ascii	"num_endpoints\000"
 13806      656E6470 
 13806      6F696E74 
 13806      7300
 13807              	.LASF463:
 13808 0f69 41444343 		.ascii	"ADCConfig\000"
 13808      6F6E6669 
 13808      6700
 13809              	.LASF797:
 13810 0f73 746F7473 		.ascii	"totsize\000"
 13810      697A6500 
 13811              	.LASF96:
 13812 0f7b 5F6E696F 		.ascii	"_niobs\000"
 13812      627300
 13813              	.LASF346:
 13814 0f82 63665F6F 		.ascii	"cf_off_stklimit\000"
 13814      66665F73 
 13814      746B6C69 
 13814      6D697400 
 13815              	.LASF615:
 13816 0f92 53445F52 		.ascii	"SD_READY\000"
 13816      45414459 
 13816      00
 13817              	.LASF712:
 13818 0f9b 75736267 		.ascii	"usbgetdescriptor_t\000"
 13818      65746465 
 13818      73637269 
 13818      70746F72 
 13818      5F7400
 13819              	.LASF488:
 13820 0fae 4441435F 		.ascii	"DAC_ERROR\000"
 13820      4552524F 
 13820      5200
 13821              	.LASF182:
 13822 0fb8 725F6375 		.ascii	"r_current\000"
 13822      7272656E 
 13822      7400
 13823              	.LASF73:
 13824 0fc2 5F657272 		.ascii	"_errno\000"
 13824      6E6F00
 13825              	.LASF691:
 13826 0fc9 5553425F 		.ascii	"USB_EP0_TX\000"
 13826      4550305F 
 13826      545800
 13827              	.LASF670:
 13828 0fd4 65703073 		.ascii	"ep0state\000"
 13828      74617465 
 13828      00
 13829              	.LASF38:
ARM GAS  C:\Users\PCHAUT~1\AppData\Local\Temp\ccjQKXWT.s 			page 257


 13830 0fdd 5F5F746D 		.ascii	"__tm_mday\000"
 13830      5F6D6461 
 13830      7900
 13831              	.LASF379:
 13832 0fe7 69666372 		.ascii	"ifcr\000"
 13832      00
 13833              	.LASF580:
 13834 0fec 4932535F 		.ascii	"I2S_UNINIT\000"
 13834      554E494E 
 13834      495400
 13835              	.LASF408:
 13836 0ff7 73746D33 		.ascii	"stm32_gpio_t\000"
 13836      325F6770 
 13836      696F5F74 
 13836      00
 13837              	.LASF319:
 13838 1004 7264796D 		.ascii	"rdymsg\000"
 13838      736700
 13839              	.LASF45:
 13840 100b 5F666E61 		.ascii	"_fnargs\000"
 13840      72677300 
 13841              	.LASF597:
 13842 1013 50574D5F 		.ascii	"PWM_READY\000"
 13842      52454144 
 13842      5900
 13843              	.LASF224:
 13844 101d 54445452 		.ascii	"TDTR\000"
 13844      00
 13845              	.LASF232:
 13846 1022 43414E5F 		.ascii	"CAN_FilterRegister_TypeDef\000"
 13846      46696C74 
 13846      65725265 
 13846      67697374 
 13846      65725F54 
 13847              	.LASF478:
 13848 103d 6572726F 		.ascii	"error_event\000"
 13848      725F6576 
 13848      656E7400 
 13849              	.LASF453:
 13850 1049 6E756D5F 		.ascii	"num_channels\000"
 13850      6368616E 
 13850      6E656C73 
 13850      00
 13851              	.LASF213:
 13852 1056 4A4F4652 		.ascii	"JOFR3\000"
 13852      3300
 13853              	.LASF749:
 13854 105c 72657376 		.ascii	"resvd58\000"
 13854      64353800 
 13855              	.LASF798:
 13856 1064 55534249 		.ascii	"USBInEndpointState\000"
 13856      6E456E64 
 13856      706F696E 
 13856      74537461 
 13856      746500
 13857              	.LASF151:
 13858 1077 705F7072 		.ascii	"p_prio\000"
ARM GAS  C:\Users\PCHAUT~1\AppData\Local\Temp\ccjQKXWT.s 			page 258


 13858      696F00
 13859              	.LASF366:
 13860 107e 696F5F71 		.ascii	"io_queue\000"
 13860      75657565 
 13860      00
 13861              	.LASF416:
 13862 1087 50414461 		.ascii	"PAData\000"
 13862      746100
 13863              	.LASF15:
 13864 108e 5F5F7569 		.ascii	"__uint64_t\000"
 13864      6E743634 
 13864      5F7400
 13865              	.LASF831:
 13866 1099 53445F53 		.ascii	"SD_SWITCH_FUNCTION_DRIVER_STRENGTH\000"
 13866      57495443 
 13866      485F4655 
 13866      4E435449 
 13866      4F4E5F44 
 13867              	.LASF29:
 13868 10bc 5F6E6578 		.ascii	"_next\000"
 13868      7400
 13869              	.LASF602:
 13870 10c2 70776D63 		.ascii	"pwmcallback_t\000"
 13870      616C6C62 
 13870      61636B5F 
 13870      7400
 13871              	.LASF496:
 13872 10d0 70617261 		.ascii	"params\000"
 13872      6D7300
 13873              	.LASF695:
 13874 10d7 5553425F 		.ascii	"USB_EP0_SENDING_STS\000"
 13874      4550305F 
 13874      53454E44 
 13874      494E475F 
 13874      53545300 
 13875              	.LASF113:
 13876 10eb 5F736967 		.ascii	"_signal_buf\000"
 13876      6E616C5F 
 13876      62756600 
 13877              	.LASF557:
 13878 10f7 69326373 		.ascii	"i2cstate_t\000"
 13878      74617465 
 13878      5F7400
 13879              	.LASF59:
 13880 1102 5F636F6F 		.ascii	"_cookie\000"
 13880      6B696500 
 13881              	.LASF697:
 13882 110a 75736265 		.ascii	"usbep0state_t\000"
 13882      70307374 
 13882      6174655F 
 13882      7400
 13883              	.LASF500:
 13884 1118 64616365 		.ascii	"dacerror_t\000"
 13884      72726F72 
 13884      5F7400
 13885              	.LASF236:
 13886 1123 7354784D 		.ascii	"sTxMailBox\000"
ARM GAS  C:\Users\PCHAUT~1\AppData\Local\Temp\ccjQKXWT.s 			page 259


 13886      61696C42 
 13886      6F7800
 13887              	.LASF435:
 13888 112e 61646373 		.ascii	"adcsample_t\000"
 13888      616D706C 
 13888      655F7400 
 13889              	.LASF533:
 13890 113a 67707463 		.ascii	"gptcallback_t\000"
 13890      616C6C62 
 13890      61636B5F 
 13890      7400
 13891              	.LASF369:
 13892 1148 715F6275 		.ascii	"q_buffer\000"
 13892      66666572 
 13892      00
 13893              	.LASF149:
 13894 1151 705F6E65 		.ascii	"p_next\000"
 13894      787400
 13895              	.LASF579:
 13896 1158 49324344 		.ascii	"I2CD1\000"
 13896      3100
 13897              	.LASF723:
 13898 115e 72657376 		.ascii	"resvd4\000"
 13898      643400
 13899              	.LASF665:
 13900 1165 55534244 		.ascii	"USBDriver\000"
 13900      72697665 
 13900      7200
 13901              	.LASF782:
 13902 116f 72657376 		.ascii	"resvd8C0\000"
 13902      64384330 
 13902      00
 13903              	.LASF819:
 13904 1178 55534243 		.ascii	"USBConfig\000"
 13904      6F6E6669 
 13904      6700
 13905              	.LASF725:
 13906 1182 72657376 		.ascii	"resvdC\000"
 13906      644300
 13907              	.LASF609:
 13908 1189 50574D44 		.ascii	"PWMD2\000"
 13908      3200
 13909              	.LASF610:
 13910 118f 50574D44 		.ascii	"PWMD3\000"
 13910      3300
 13911              	.LASF611:
 13912 1195 50574D44 		.ascii	"PWMD4\000"
 13912      3400
 13913              	.LASF612:
 13914 119b 50574D44 		.ascii	"PWMD5\000"
 13914      3500
 13915              	.LASF866:
 13916 11a1 73746172 		.ascii	"start\000"
 13916      7400
 13917              	.LASF620:
 13918 11a7 6F717565 		.ascii	"oqueue\000"
 13918      756500
ARM GAS  C:\Users\PCHAUT~1\AppData\Local\Temp\ccjQKXWT.s 			page 260


 13919              	.LASF138:
 13920 11ae 74726566 		.ascii	"trefs_t\000"
 13920      735F7400 
 13921              	.LASF168:
 13922 11b6 705F6D70 		.ascii	"p_mpool\000"
 13922      6F6F6C00 
 13923              	.LASF270:
 13924 11be 4932435F 		.ascii	"I2C_TypeDef\000"
 13924      54797065 
 13924      44656600 
 13925              	.LASF821:
 13926 11ca 4D4D435F 		.ascii	"MMC_SWITCH_COMMAND_SET\000"
 13926      53574954 
 13926      43485F43 
 13926      4F4D4D41 
 13926      4E445F53 
 13927              	.LASF508:
 13928 11e1 44414343 		.ascii	"DACConversionGroup\000"
 13928      6F6E7665 
 13928      7273696F 
 13928      6E47726F 
 13928      757000
 13929              	.LASF847:
 13930 11f4 73646357 		.ascii	"sdcWrite\000"
 13930      72697465 
 13930      00
 13931              	.LASF35:
 13932 11fd 5F5F746D 		.ascii	"__tm_sec\000"
 13932      5F736563 
 13932      00
 13933              	.LASF812:
 13934 1206 696E5F6D 		.ascii	"in_multiplier\000"
 13934      756C7469 
 13934      706C6965 
 13934      7200
 13935              	.LASF433:
 13936 1214 4144435F 		.ascii	"ADC_ERROR\000"
 13936      4552524F 
 13936      5200
 13937              	.LASF44:
 13938 121e 5F6F6E5F 		.ascii	"_on_exit_args\000"
 13938      65786974 
 13938      5F617267 
 13938      7300
 13939              	.LASF296:
 13940 122c 636F6E74 		.ascii	"context\000"
 13940      65787400 
 13941              	.LASF136:
 13942 1234 746D6F64 		.ascii	"tmode_t\000"
 13942      655F7400 
 13943              	.LASF431:
 13944 123c 4144435F 		.ascii	"ADC_ACTIVE\000"
 13944      41435449 
 13944      564500
 13945              	.LASF215:
 13946 1247 53515231 		.ascii	"SQR1\000"
 13946      00
ARM GAS  C:\Users\PCHAUT~1\AppData\Local\Temp\ccjQKXWT.s 			page 261


 13947              	.LASF216:
 13948 124c 53515232 		.ascii	"SQR2\000"
 13948      00
 13949              	.LASF217:
 13950 1251 53515233 		.ascii	"SQR3\000"
 13950      00
 13951              	.LASF834:
 13952 1256 73646370 		.ascii	"sdcp\000"
 13952      00
 13953              	.LASF404:
 13954 125b 42535252 		.ascii	"BSRR\000"
 13954      00
 13955              	.LASF383:
 13956 1260 73746D33 		.ascii	"stm32_dma_stream_t\000"
 13956      325F646D 
 13956      615F7374 
 13956      7265616D 
 13956      5F7400
 13957              	.LASF817:
 13958 1273 72657175 		.ascii	"requests_hook_cb\000"
 13958      65737473 
 13958      5F686F6F 
 13958      6B5F6362 
 13958      00
 13959              	.LASF118:
 13960 1284 5F776372 		.ascii	"_wcrtomb_state\000"
 13960      746F6D62 
 13960      5F737461 
 13960      746500
 13961              	.LASF631:
 13962 1293 5344435F 		.ascii	"SDC_MODE_8BIT\000"
 13962      4D4F4445 
 13962      5F384249 
 13962      5400
 13963              	.LASF795:
 13964 12a1 74787369 		.ascii	"txsize\000"
 13964      7A6500
 13965              	.LASF504:
 13966 12a8 4441435F 		.ascii	"DAC_DHRM_12BIT_LEFT\000"
 13966      4448524D 
 13966      5F313242 
 13966      49545F4C 
 13966      45465400 
 13967              	.LASF600:
 13968 12bc 70657269 		.ascii	"period\000"
 13968      6F6400
 13969              	.LASF330:
 13970 12c3 6D5F7175 		.ascii	"m_queue\000"
 13970      65756500 
 13971              	.LASF861:
 13972 12cb 6D6D635F 		.ascii	"mmc_detect_bus_clk\000"
 13972      64657465 
 13972      63745F62 
 13972      75735F63 
 13972      6C6B00
 13973              	.LASF556:
 13974 12de 4932435F 		.ascii	"I2C_LOCKED\000"
ARM GAS  C:\Users\PCHAUT~1\AppData\Local\Temp\ccjQKXWT.s 			page 262


 13974      4C4F434B 
 13974      454400
 13975              	.LASF197:
 13976 12e9 6973725F 		.ascii	"isr_cnt\000"
 13976      636E7400 
 13977              	.LASF844:
 13978 12f1 72657375 		.ascii	"result\000"
 13978      6C7400
 13979              	.LASF686:
 13980 12f8 5553425F 		.ascii	"USB_READY\000"
 13980      52454144 
 13980      5900
 13981              	.LASF628:
 13982 1302 72656164 		.ascii	"readt\000"
 13982      7400
 13983              	.LASF738:
 13984 1308 47525354 		.ascii	"GRSTCTL\000"
 13984      43544C00 
 13985              	.LASF530:
 13986 1310 67707473 		.ascii	"gptstate_t\000"
 13986      74617465 
 13986      5F7400
 13987              	.LASF28:
 13988 131b 5F5F554C 		.ascii	"__ULong\000"
 13988      6F6E6700 
 13989              	.LASF196:
 13990 1323 70616E69 		.ascii	"panic_msg\000"
 13990      635F6D73 
 13990      6700
 13991              	.LASF657:
 13992 132d 5350495F 		.ascii	"SPI_COMPLETE\000"
 13992      434F4D50 
 13992      4C455445 
 13992      00
 13993              	.LASF278:
 13994 133a 4454494D 		.ascii	"DTIMER\000"
 13994      455200
 13995              	.LASF180:
 13996 1341 725F6E65 		.ascii	"r_newer\000"
 13996      77657200 
 13997              	.LASF703:
 13998 1349 5553425F 		.ascii	"USB_EVENT_STALLED\000"
 13998      4556454E 
 13998      545F5354 
 13998      414C4C45 
 13998      4400
 13999              	.LASF352:
 14000 135b 63686465 		.ascii	"chdebug_t\000"
 14000      6275675F 
 14000      7400
 14001              	.LASF801:
 14002 1365 72787369 		.ascii	"rxsize\000"
 14002      7A6500
 14003              	.LASF717:
 14004 136c 48435453 		.ascii	"HCTSIZ\000"
 14004      495A00
 14005              	.LASF700:
ARM GAS  C:\Users\PCHAUT~1\AppData\Local\Temp\ccjQKXWT.s 			page 263


 14006 1373 5553425F 		.ascii	"USB_EVENT_CONFIGURED\000"
 14006      4556454E 
 14006      545F434F 
 14006      4E464947 
 14006      55524544 
 14007              	.LASF649:
 14008 1388 64697363 		.ascii	"disconnect\000"
 14008      6F6E6E65 
 14008      637400
 14009              	.LASF633:
 14010 1393 5344435F 		.ascii	"SDC_CLK_25MHz\000"
 14010      434C4B5F 
 14010      32354D48 
 14010      7A00
 14011              	.LASF625:
 14012 13a1 70757474 		.ascii	"putt\000"
 14012      00
 14013              	.LASF828:
 14014 13a6 73645F73 		.ascii	"sd_switch_t\000"
 14014      77697463 
 14014      685F7400 
 14015              	.LASF139:
 14016 13b2 74736C69 		.ascii	"tslices_t\000"
 14016      6365735F 
 14016      7400
 14017              	.LASF103:
 14018 13bc 5F737472 		.ascii	"_strtok_last\000"
 14018      746F6B5F 
 14018      6C617374 
 14018      00
 14019              	.LASF339:
 14020 13c9 63685F74 		.ascii	"ch_timesize\000"
 14020      696D6573 
 14020      697A6500 
 14021              	.LASF836:
 14022 13d5 656E6462 		.ascii	"endblk\000"
 14022      6C6B00
 14023              	.LASF682:
 14024 13dc 77615F70 		.ascii	"wa_pump\000"
 14024      756D7000 
 14025              	.LASF283:
 14026 13e4 4649464F 		.ascii	"FIFOCNT\000"
 14026      434E5400 
 14027              	.LASF364:
 14028 13ec 6576656E 		.ascii	"event_source_t\000"
 14028      745F736F 
 14028      75726365 
 14028      5F7400
 14029              	.LASF752:
 14030 13fb 72657376 		.ascii	"resvd140\000"
 14030      64313430 
 14030      00
 14031              	.LASF188:
 14032 1404 76745F64 		.ascii	"vt_delta\000"
 14032      656C7461 
 14032      00
 14033              	.LASF99:
ARM GAS  C:\Users\PCHAUT~1\AppData\Local\Temp\ccjQKXWT.s 			page 264


 14034 140d 5F736565 		.ascii	"_seed\000"
 14034      6400
 14035              	.LASF304:
 14036 1413 74625F70 		.ascii	"tb_ptr\000"
 14036      747200
 14037              	.LASF507:
 14038 141a 74726967 		.ascii	"trigger\000"
 14038      67657200 
 14039              	.LASF62:
 14040 1422 5F736565 		.ascii	"_seek\000"
 14040      6B00
 14041              	.LASF701:
 14042 1428 5553425F 		.ascii	"USB_EVENT_SUSPEND\000"
 14042      4556454E 
 14042      545F5355 
 14042      5350454E 
 14042      4400
 14043              	.LASF829:
 14044 143a 53445F53 		.ascii	"SD_SWITCH_FUNCTION_SPEED\000"
 14044      57495443 
 14044      485F4655 
 14044      4E435449 
 14044      4F4E5F53 
 14045              	.LASF129:
 14046 1453 696E7431 		.ascii	"int16_t\000"
 14046      365F7400 
 14047              	.LASF526:
 14048 145b 4750545F 		.ascii	"GPT_STOP\000"
 14048      53544F50 
 14048      00
 14049              	.LASF223:
 14050 1464 4144435F 		.ascii	"ADC_TypeDef\000"
 14050      54797065 
 14050      44656600 
 14051              	.LASF730:
 14052 1470 444F4550 		.ascii	"DOEPCTL\000"
 14052      43544C00 
 14053              	.LASF10:
 14054 1478 73686F72 		.ascii	"short unsigned int\000"
 14054      7420756E 
 14054      7369676E 
 14054      65642069 
 14054      6E7400
 14055              	.LASF568:
 14056 148b 6F705F6D 		.ascii	"op_mode\000"
 14056      6F646500 
 14057              	.LASF3:
 14058 1493 7369676E 		.ascii	"signed char\000"
 14058      65642063 
 14058      68617200 
 14059              	.LASF605:
 14060 149f 70776D63 		.ascii	"pwmchnmsk_t\000"
 14060      686E6D73 
 14060      6B5F7400 
 14061              	.LASF160:
 14062 14ab 705F7072 		.ascii	"p_preempt\000"
 14062      65656D70 
ARM GAS  C:\Users\PCHAUT~1\AppData\Local\Temp\ccjQKXWT.s 			page 265


 14062      7400
 14063              	.LASF582:
 14064 14b5 4932535F 		.ascii	"I2S_READY\000"
 14064      52454144 
 14064      5900
 14065              	.LASF145:
 14066 14bf 75636E74 		.ascii	"ucnt_t\000"
 14066      5F7400
 14067              	.LASF226:
 14068 14c6 54444852 		.ascii	"TDHR\000"
 14068      00
 14069              	.LASF429:
 14070 14cb 4144435F 		.ascii	"ADC_STOP\000"
 14070      53544F50 
 14070      00
 14071              	.LASF694:
 14072 14d4 5553425F 		.ascii	"USB_EP0_RX\000"
 14072      4550305F 
 14072      525800
 14073              	.LASF603:
 14074 14df 70776D6D 		.ascii	"pwmmode_t\000"
 14074      6F64655F 
 14074      7400
 14075              	.LASF675:
 14076 14e9 73746174 		.ascii	"status\000"
 14076      757300
 14077              	.LASF279:
 14078 14f0 444C454E 		.ascii	"DLEN\000"
 14078      00
 14079              	.LASF630:
 14080 14f5 5344435F 		.ascii	"SDC_MODE_4BIT\000"
 14080      4D4F4445 
 14080      5F344249 
 14080      5400
 14081              	.LASF707:
 14082 1503 55534244 		.ascii	"USBDescriptor\000"
 14082      65736372 
 14082      6970746F 
 14082      7200
 14083              	.LASF660:
 14084 1511 73706963 		.ascii	"spicallback_t\000"
 14084      616C6C62 
 14084      61636B5F 
 14084      7400
 14085              	.LASF822:
 14086 151f 4D4D435F 		.ascii	"MMC_SWITCH_SET_BITS\000"
 14086      53574954 
 14086      43485F53 
 14086      45545F42 
 14086      49545300 
 14087              	.LASF86:
 14088 1533 5F667265 		.ascii	"_freelist\000"
 14088      656C6973 
 14088      7400
 14089              	.LASF676:
 14090 153d 61646472 		.ascii	"address\000"
 14090      65737300 
ARM GAS  C:\Users\PCHAUT~1\AppData\Local\Temp\ccjQKXWT.s 			page 266


 14091              	.LASF163:
 14092 1545 705F6D73 		.ascii	"p_msgqueue\000"
 14092      67717565 
 14092      756500
 14093              	.LASF349:
 14094 1550 63665F6F 		.ascii	"cf_off_refs\000"
 14094      66665F72 
 14094      65667300 
 14095              	.LASF347:
 14096 155c 63665F6F 		.ascii	"cf_off_state\000"
 14096      66665F73 
 14096      74617465 
 14096      00
 14097              	.LASF331:
 14098 1569 6D5F6F77 		.ascii	"m_owner\000"
 14098      6E657200 
 14099              	.LASF67:
 14100 1571 5F6F6666 		.ascii	"_offset\000"
 14100      73657400 
 14101              	.LASF208:
 14102 1579 53797374 		.ascii	"SystemCoreClock\000"
 14102      656D436F 
 14102      7265436C 
 14102      6F636B00 
 14103              	.LASF451:
 14104 1589 61646365 		.ascii	"adcerrorcallback_t\000"
 14104      72726F72 
 14104      63616C6C 
 14104      6261636B 
 14104      5F7400
 14105              	.LASF486:
 14106 159c 4441435F 		.ascii	"DAC_ACTIVE\000"
 14106      41435449 
 14106      564500
 14107              	.LASF441:
 14108 15a7 73746174 		.ascii	"state\000"
 14108      6500
 14109              	.LASF337:
 14110 15ad 63685F76 		.ascii	"ch_version\000"
 14110      65727369 
 14110      6F6E00
 14111              	.LASF52:
 14112 15b8 5F5F7362 		.ascii	"__sbuf\000"
 14112      756600
 14113              	.LASF641:
 14114 15bf 7364696F 		.ascii	"sdio\000"
 14114      00
 14115              	.LASF249:
 14116 15c4 53575452 		.ascii	"SWTRIGR\000"
 14116      49475200 
 14117              	.LASF693:
 14118 15cc 5553425F 		.ascii	"USB_EP0_WAITING_STS\000"
 14118      4550305F 
 14118      57414954 
 14118      494E475F 
 14118      53545300 
 14119              	.LASF112:
ARM GAS  C:\Users\PCHAUT~1\AppData\Local\Temp\ccjQKXWT.s 			page 267


 14120 15e0 5F6C3634 		.ascii	"_l64a_buf\000"
 14120      615F6275 
 14120      6600
 14121              	.LASF230:
 14122 15ea 52444852 		.ascii	"RDHR\000"
 14122      00
 14123              	.LASF540:
 14124 15ef 444D4152 		.ascii	"DMAR\000"
 14124      00
 14125              	.LASF546:
 14126 15f4 63616C6C 		.ascii	"callback\000"
 14126      6261636B 
 14126      00
 14127              	.LASF201:
 14128 15fd 63685F73 		.ascii	"ch_system\000"
 14128      79737465 
 14128      6D00
 14129              	.LASF271:
 14130 1607 504F5745 		.ascii	"POWER\000"
 14130      5200
 14131              	.LASF199:
 14132 160d 74726163 		.ascii	"trace_buffer\000"
 14132      655F6275 
 14132      66666572 
 14132      00
 14133              	.LASF104:
 14134 161a 5F617363 		.ascii	"_asctime_buf\000"
 14134      74696D65 
 14134      5F627566 
 14134      00
 14135              	.LASF864:
 14136 1627 66756E63 		.ascii	"function\000"
 14136      74696F6E 
 14136      00
 14137              	.LASF505:
 14138 1630 4441435F 		.ascii	"DAC_DHRM_8BIT_RIGHT\000"
 14138      4448524D 
 14138      5F384249 
 14138      545F5249 
 14138      47485400 
 14139              	.LASF525:
 14140 1644 4750545F 		.ascii	"GPT_UNINIT\000"
 14140      554E494E 
 14140      495400
 14141              	.LASF21:
 14142 164f 5F5F7763 		.ascii	"__wch\000"
 14142      6800
 14143              	.LASF326:
 14144 1655 63685F73 		.ascii	"ch_semaphore\000"
 14144      656D6170 
 14144      686F7265 
 14144      00
 14145              	.LASF119:
 14146 1662 5F776373 		.ascii	"_wcsrtombs_state\000"
 14146      72746F6D 
 14146      62735F73 
 14146      74617465 
ARM GAS  C:\Users\PCHAUT~1\AppData\Local\Temp\ccjQKXWT.s 			page 268


 14146      00
 14147              	.LASF726:
 14148 1673 44494550 		.ascii	"DIEPTSIZ\000"
 14148      5453495A 
 14148      00
 14149              	.LASF881:
 14150 167c 706F7274 		.ascii	"port_unlock\000"
 14150      5F756E6C 
 14150      6F636B00 
 14151              	.LASF456:
 14152 1688 736D7072 		.ascii	"smpr1\000"
 14152      3100
 14153              	.LASF457:
 14154 168e 736D7072 		.ascii	"smpr2\000"
 14154      3200
 14155              	.LASF173:
 14156 1694 74687265 		.ascii	"threads_queue_t\000"
 14156      6164735F 
 14156      71756575 
 14156      655F7400 
 14157              	.LASF394:
 14158 16a4 626C6B73 		.ascii	"blkstate_t\000"
 14158      74617465 
 14158      5F7400
 14159              	.LASF875:
 14160 16af 74696D65 		.ascii	"time\000"
 14160      00
 14161              	.LASF880:
 14162 16b4 63685379 		.ascii	"chSysLock\000"
 14162      734C6F63 
 14162      6B00
 14163              	.LASF161:
 14164 16be 705F7469 		.ascii	"p_time\000"
 14164      6D6500
 14165              	.LASF159:
 14166 16c5 705F7265 		.ascii	"p_refs\000"
 14166      667300
 14167              	.LASF804:
 14168 16cc 65705F6D 		.ascii	"ep_mode\000"
 14168      6F646500 
 14169              	.LASF604:
 14170 16d4 70776D63 		.ascii	"pwmchannel_t\000"
 14170      68616E6E 
 14170      656C5F74 
 14170      00
 14171              	.LASF225:
 14172 16e1 54444C52 		.ascii	"TDLR\000"
 14172      00
 14173              	.LASF12:
 14174 16e6 6C6F6E67 		.ascii	"long int\000"
 14174      20696E74 
 14174      00
 14175              	.LASF204:
 14176 16ef 6D61696E 		.ascii	"mainthread\000"
 14176      74687265 
 14176      616400
 14177              	.LASF672:
ARM GAS  C:\Users\PCHAUT~1\AppData\Local\Temp\ccjQKXWT.s 			page 269


 14178 16fa 6570306E 		.ascii	"ep0n\000"
 14178      00
 14179              	.LASF785:
 14180 16ff 72657376 		.ascii	"resvdE04\000"
 14180      64453034 
 14180      00
 14181              	.LASF558:
 14182 1708 69326361 		.ascii	"i2caddr_t\000"
 14182      6464725F 
 14182      7400
 14183              	.LASF111:
 14184 1712 5F776374 		.ascii	"_wctomb_state\000"
 14184      6F6D625F 
 14184      73746174 
 14184      6500
 14185              	.LASF493:
 14186 1720 646D6169 		.ascii	"dmairqprio\000"
 14186      72717072 
 14186      696F00
 14187              	.LASF531:
 14188 172b 47505444 		.ascii	"GPTDriver\000"
 14188      72697665 
 14188      7200
 14189              	.LASF368:
 14190 1735 715F636F 		.ascii	"q_counter\000"
 14190      756E7465 
 14190      7200
 14191              	.LASF423:
 14192 173f 50484461 		.ascii	"PHData\000"
 14192      746100
 14193              	.LASF426:
 14194 1746 696F706F 		.ascii	"ioportid_t\000"
 14194      72746964 
 14194      5F7400
 14195              	.LASF464:
 14196 1751 41444344 		.ascii	"ADCD1\000"
 14196      3100
 14197              	.LASF465:
 14198 1757 41444344 		.ascii	"ADCD2\000"
 14198      3200
 14199              	.LASF466:
 14200 175d 41444344 		.ascii	"ADCD3\000"
 14200      3300
 14201              	.LASF753:
 14202 1763 48434647 		.ascii	"HCFG\000"
 14202      00
 14203              	.LASF449:
 14204 1768 646D616D 		.ascii	"dmamode\000"
 14204      6F646500 
 14205              	.LASF312:
 14206 1770 63756D75 		.ascii	"cumulative\000"
 14206      6C617469 
 14206      766500
 14207              	.LASF97:
 14208 177b 5F696F62 		.ascii	"_iobs\000"
 14208      7300
 14209              	.LASF78:
ARM GAS  C:\Users\PCHAUT~1\AppData\Local\Temp\ccjQKXWT.s 			page 270


 14210 1781 5F656D65 		.ascii	"_emergency\000"
 14210      7267656E 
 14210      637900
 14211              	.LASF626:
 14212 178c 67657474 		.ascii	"gett\000"
 14212      00
 14213              	.LASF322:
 14214 1791 77747472 		.ascii	"wttrp\000"
 14214      7000
 14215              	.LASF372:
 14216 1797 715F7264 		.ascii	"q_rdptr\000"
 14216      70747200 
 14217              	.LASF121:
 14218 179f 5F6E6578 		.ascii	"_nextf\000"
 14218      746600
 14219              	.LASF623:
 14220 17a6 77726974 		.ascii	"write\000"
 14220      6500
 14221              	.LASF107:
 14222 17ac 5F72616E 		.ascii	"_rand_next\000"
 14222      645F6E65 
 14222      787400
 14223              	.LASF619:
 14224 17b7 69717565 		.ascii	"iqueue\000"
 14224      756500
 14225              	.LASF806:
 14226 17be 696E5F63 		.ascii	"in_cb\000"
 14226      6200
 14227              	.LASF731:
 14228 17c4 444F4550 		.ascii	"DOEPINT\000"
 14228      494E5400 
 14229              	.LASF311:
 14230 17cc 6C617374 		.ascii	"last\000"
 14230      00
 14231              	.LASF405:
 14232 17d1 4C434B52 		.ascii	"LCKR\000"
 14232      00
 14233              	.LASF616:
 14234 17d6 73647374 		.ascii	"sdstate_t\000"
 14234      6174655F 
 14234      7400
 14235              	.LASF132:
 14236 17e0 75696E74 		.ascii	"uint32_t\000"
 14236      33325F74 
 14236      00
 14237              	.LASF490:
 14238 17e9 64617461 		.ascii	"dataoffset\000"
 14238      6F666673 
 14238      657400
 14239              	.LASF30:
 14240 17f4 5F6D6178 		.ascii	"_maxwds\000"
 14240      77647300 
 14241              	.LASF392:
 14242 17fc 424C4B5F 		.ascii	"BLK_WRITING\000"
 14242      57524954 
 14242      494E4700 
 14243              	.LASF229:
ARM GAS  C:\Users\PCHAUT~1\AppData\Local\Temp\ccjQKXWT.s 			page 271


 14244 1808 52444C52 		.ascii	"RDLR\000"
 14244      00
 14245              	.LASF882:
 14246 180d 706F7274 		.ascii	"port_lock\000"
 14246      5F6C6F63 
 14246      6B00
 14247              	.LASF2:
 14248 1817 6C6F6E67 		.ascii	"long double\000"
 14248      20646F75 
 14248      626C6500 
 14249              	.LASF294:
 14250 1823 72656761 		.ascii	"regarm_t\000"
 14250      726D5F74 
 14250      00
 14251              	.LASF142:
 14252 182c 6576656E 		.ascii	"eventmask_t\000"
 14252      746D6173 
 14252      6B5F7400 
 14253              	.LASF444:
 14254 1838 64657074 		.ascii	"depth\000"
 14254      6800
 14255              	.LASF243:
 14256 183e 46464131 		.ascii	"FFA1R\000"
 14256      5200
 14257              	.LASF234:
 14258 1844 52463152 		.ascii	"RF1R\000"
 14258      00
 14259              	.LASF687:
 14260 1849 5553425F 		.ascii	"USB_SELECTED\000"
 14260      53454C45 
 14260      43544544 
 14260      00
 14261              	.LASF470:
 14262 1856 43414E5F 		.ascii	"CAN_READY\000"
 14262      52454144 
 14262      5900
 14263              	.LASF14:
 14264 1860 6C6F6E67 		.ascii	"long unsigned int\000"
 14264      20756E73 
 14264      69676E65 
 14264      6420696E 
 14264      7400
 14265              	.LASF583:
 14266 1872 4932535F 		.ascii	"I2S_ACTIVE\000"
 14266      41435449 
 14266      564500
 14267              	.LASF527:
 14268 187d 4750545F 		.ascii	"GPT_READY\000"
 14268      52454144 
 14268      5900
 14269              	.LASF489:
 14270 1887 64616373 		.ascii	"dacstate_t\000"
 14270      74617465 
 14270      5F7400
 14271              	.LASF299:
 14272 1892 73655F74 		.ascii	"se_tp\000"
 14272      7000
ARM GAS  C:\Users\PCHAUT~1\AppData\Local\Temp\ccjQKXWT.s 			page 272


 14273              	.LASF848:
 14274 1898 73646352 		.ascii	"sdcRead\000"
 14274      65616400 
 14275              	.LASF371:
 14276 18a0 715F7772 		.ascii	"q_wrptr\000"
 14276      70747200 
 14277              	.LASF497:
 14278 18a8 64616373 		.ascii	"dacsample_t\000"
 14278      616D706C 
 14278      655F7400 
 14279              	.LASF699:
 14280 18b4 5553425F 		.ascii	"USB_EVENT_ADDRESS\000"
 14280      4556454E 
 14280      545F4144 
 14280      44524553 
 14280      5300
 14281              	.LASF591:
 14282 18c6 69327363 		.ascii	"i2scfgr\000"
 14282      66677200 
 14283              	.LASF273:
 14284 18ce 52455350 		.ascii	"RESPCMD\000"
 14284      434D4400 
 14285              	.LASF476:
 14286 18d6 72786675 		.ascii	"rxfull_event\000"
 14286      6C6C5F65 
 14286      76656E74 
 14286      00
 14287              	.LASF704:
 14288 18e3 75736265 		.ascii	"usbevent_t\000"
 14288      76656E74 
 14288      5F7400
 14289              	.LASF63:
 14290 18ee 5F636C6F 		.ascii	"_close\000"
 14290      736500
 14291              	.LASF27:
 14292 18f5 63686172 		.ascii	"char\000"
 14292      00
 14293              	.LASF473:
 14294 18fa 43414E43 		.ascii	"CANConfig\000"
 14294      6F6E6669 
 14294      6700
 14295              	.LASF420:
 14296 1904 50454461 		.ascii	"PEData\000"
 14296      746100
 14297              	.LASF177:
 14298 190b 725F7175 		.ascii	"r_queue\000"
 14298      65756500 
 14299              	.LASF95:
 14300 1913 5F676C75 		.ascii	"_glue\000"
 14300      6500
 14301              	.LASF644:
 14302 1919 53444343 		.ascii	"SDCConfig\000"
 14302      6F6E6669 
 14302      6700
 14303              	.LASF601:
 14304 1923 656E6162 		.ascii	"enabled\000"
 14304      6C656400 
ARM GAS  C:\Users\PCHAUT~1\AppData\Local\Temp\ccjQKXWT.s 			page 273


 14305              	.LASF498:
 14306 192b 4441435F 		.ascii	"DAC_ERR_DMAFAILURE\000"
 14306      4552525F 
 14306      444D4146 
 14306      41494C55 
 14306      524500
 14307              	.LASF743:
 14308 193e 47525846 		.ascii	"GRXFSIZ\000"
 14308      53495A00 
 14309              	.LASF650:
 14310 1946 73796E63 		.ascii	"sync\000"
 14310      00
 14311              	.LASF621:
 14312 194b 75736172 		.ascii	"usart\000"
 14312      7400
 14313              	.LASF855:
 14314 1951 7364634F 		.ascii	"sdcObjectInit\000"
 14314      626A6563 
 14314      74496E69 
 14314      7400
 14315              	.LASF636:
 14316 195f 7364636D 		.ascii	"sdcmode_t\000"
 14316      6F64655F 
 14316      7400
 14317              	.LASF374:
 14318 1969 715F6C69 		.ascii	"q_link\000"
 14318      6E6B00
 14319              	.LASF764:
 14320 1970 44434647 		.ascii	"DCFG\000"
 14320      00
 14321              	.LASF33:
 14322 1975 5F426967 		.ascii	"_Bigint\000"
 14322      696E7400 
 14323              	.LASF832:
 14324 197d 53445F53 		.ascii	"SD_SWITCH_FUNCTION_CURRENT_LIMIT\000"
 14324      57495443 
 14324      485F4655 
 14324      4E435449 
 14324      4F4E5F43 
 14325              	.LASF774:
 14326 199e 44564255 		.ascii	"DVBUSDIS\000"
 14326      53444953 
 14326      00
 14327              	.LASF740:
 14328 19a7 47494E54 		.ascii	"GINTMSK\000"
 14328      4D534B00 
 14329              	.LASF845:
 14330 19af 73646347 		.ascii	"sdcGetAndClearErrors\000"
 14330      6574416E 
 14330      64436C65 
 14330      61724572 
 14330      726F7273 
 14331              	.LASF745:
 14332 19c4 484E5054 		.ascii	"HNPTXSTS\000"
 14332      58535453 
 14332      00
 14333              	.LASF677:
ARM GAS  C:\Users\PCHAUT~1\AppData\Local\Temp\ccjQKXWT.s 			page 274


 14334 19cd 636F6E66 		.ascii	"configuration\000"
 14334      69677572 
 14334      6174696F 
 14334      6E00
 14335              	.LASF90:
 14336 19db 5F617465 		.ascii	"_atexit0\000"
 14336      78697430 
 14336      00
 14337              	.LASF415:
 14338 19e4 73746D33 		.ascii	"stm32_gpio_setup_t\000"
 14338      325F6770 
 14338      696F5F73 
 14338      65747570 
 14338      5F7400
 14339              	.LASF852:
 14340 19f7 6578745F 		.ascii	"ext_csd\000"
 14340      63736400 
 14341              	.LASF384:
 14342 19ff 5F73746D 		.ascii	"_stm32_dma_streams\000"
 14342      33325F64 
 14342      6D615F73 
 14342      74726561 
 14342      6D7300
 14343              	.LASF251:
 14344 1a12 44485231 		.ascii	"DHR12L1\000"
 14344      324C3100 
 14345              	.LASF254:
 14346 1a1a 44485231 		.ascii	"DHR12L2\000"
 14346      324C3200 
 14347              	.LASF114:
 14348 1a22 5F676574 		.ascii	"_getdate_err\000"
 14348      64617465 
 14348      5F657272 
 14348      00
 14349              	.LASF632:
 14350 1a2f 73646362 		.ascii	"sdcbusmode_t\000"
 14350      75736D6F 
 14350      64655F74 
 14350      00
 14351              	.LASF873:
 14352 1a3c 6D6D635F 		.ascii	"mmc_init\000"
 14352      696E6974 
 14352      00
 14353              	.LASF257:
 14354 1a45 44485231 		.ascii	"DHR12LD\000"
 14354      324C4400 
 14355              	.LASF874:
 14356 1a4d 6D6F6465 		.ascii	"mode_detect\000"
 14356      5F646574 
 14356      65637400 
 14357              	.LASF205:
 14358 1a59 6B65726E 		.ascii	"kernel_stats\000"
 14358      656C5F73 
 14358      74617473 
 14358      00
 14359              	.LASF450:
 14360 1a66 61646363 		.ascii	"adccallback_t\000"
ARM GAS  C:\Users\PCHAUT~1\AppData\Local\Temp\ccjQKXWT.s 			page 275


 14360      616C6C62 
 14360      61636B5F 
 14360      7400
 14361              	.LASF156:
 14362 1a74 705F7374 		.ascii	"p_stklimit\000"
 14362      6B6C696D 
 14362      697400
 14363              	.LASF144:
 14364 1a7f 636E745F 		.ascii	"cnt_t\000"
 14364      7400
 14365              	.LASF516:
 14366 1a85 65787473 		.ascii	"extstate_t\000"
 14366      74617465 
 14366      5F7400
 14367              	.LASF692:
 14368 1a90 5553425F 		.ascii	"USB_EP0_WAITING_TX0\000"
 14368      4550305F 
 14368      57414954 
 14368      494E475F 
 14368      54583000 
 14369              	.LASF671:
 14370 1aa4 6570306E 		.ascii	"ep0next\000"
 14370      65787400 
 14371              	.LASF721:
 14372 1aac 73746D33 		.ascii	"stm32_otg_host_chn_t\000"
 14372      325F6F74 
 14372      675F686F 
 14372      73745F63 
 14372      686E5F74 
 14373              	.LASF877:
 14374 1ac1 6F73616C 		.ascii	"osalSysLock\000"
 14374      5379734C 
 14374      6F636B00 
 14375              	.LASF407:
 14376 1acd 41465248 		.ascii	"AFRH\000"
 14376      00
 14377              	.LASF406:
 14378 1ad2 4146524C 		.ascii	"AFRL\000"
 14378      00
 14379              	.LASF126:
 14380 1ad7 5F696D70 		.ascii	"_impure_ptr\000"
 14380      7572655F 
 14380      70747200 
 14381              	.LASF350:
 14382 1ae3 63665F6F 		.ascii	"cf_off_preempt\000"
 14382      66665F70 
 14382      7265656D 
 14382      707400
 14383              	.LASF487:
 14384 1af2 4441435F 		.ascii	"DAC_COMPLETE\000"
 14384      434F4D50 
 14384      4C455445 
 14384      00
 14385              	.LASF66:
 14386 1aff 5F626C6B 		.ascii	"_blksize\000"
 14386      73697A65 
 14386      00
ARM GAS  C:\Users\PCHAUT~1\AppData\Local\Temp\ccjQKXWT.s 			page 276


 14387              	.LASF716:
 14388 1b08 4843494E 		.ascii	"HCINTMSK\000"
 14388      544D534B 
 14388      00
 14389              	.LASF64:
 14390 1b11 5F756275 		.ascii	"_ubuf\000"
 14390      6600
 14391              	.LASF442:
 14392 1b17 636F6E66 		.ascii	"config\000"
 14392      696700
 14393              	.LASF550:
 14394 1b1e 47505444 		.ascii	"GPTD11\000"
 14394      313100
 14395              	.LASF109:
 14396 1b25 5F6D626C 		.ascii	"_mblen_state\000"
 14396      656E5F73 
 14396      74617465 
 14396      00
 14397              	.LASF92:
 14398 1b32 5F5F7367 		.ascii	"__sglue\000"
 14398      6C756500 
 14399              	.LASF125:
 14400 1b3a 5F5F6C6F 		.ascii	"__locale_t\000"
 14400      63616C65 
 14400      5F7400
 14401              	.LASF388:
 14402 1b45 424C4B5F 		.ascii	"BLK_CONNECTING\000"
 14402      434F4E4E 
 14402      45435449 
 14402      4E4700
 14403              	.LASF82:
 14404 1b54 5F5F636C 		.ascii	"__cleanup\000"
 14404      65616E75 
 14404      7000
 14405              	.LASF483:
 14406 1b5e 4441435F 		.ascii	"DAC_UNINIT\000"
 14406      554E494E 
 14406      495400
 14407              	.LASF436:
 14408 1b69 6164635F 		.ascii	"adc_channels_num_t\000"
 14408      6368616E 
 14408      6E656C73 
 14408      5F6E756D 
 14408      5F7400
 14409              	.LASF183:
 14410 1b7c 76746675 		.ascii	"vtfunc_t\000"
 14410      6E635F74 
 14410      00
 14411              	.LASF231:
 14412 1b85 43414E5F 		.ascii	"CAN_FIFOMailBox_TypeDef\000"
 14412      4649464F 
 14412      4D61696C 
 14412      426F785F 
 14412      54797065 
 14413              	.LASF261:
 14414 1b9d 4441435F 		.ascii	"DAC_TypeDef\000"
 14414      54797065 
ARM GAS  C:\Users\PCHAUT~1\AppData\Local\Temp\ccjQKXWT.s 			page 277


 14414      44656600 
 14415              	.LASF321:
 14416 1ba9 77746F62 		.ascii	"wtobjp\000"
 14416      6A7000
 14417              	.LASF19:
 14418 1bb0 5F66706F 		.ascii	"_fpos_t\000"
 14418      735F7400 
 14419              	.LASF503:
 14420 1bb8 4441435F 		.ascii	"DAC_DHRM_12BIT_RIGHT\000"
 14420      4448524D 
 14420      5F313242 
 14420      49545F52 
 14420      49474854 
 14421              	.LASF57:
 14422 1bcd 5F66696C 		.ascii	"_file\000"
 14422      6500
 14423              	.LASF167:
 14424 1bd3 705F7265 		.ascii	"p_realprio\000"
 14424      616C7072 
 14424      696F00
 14425              	.LASF639:
 14426 1bde 63617061 		.ascii	"capacity\000"
 14426      63697479 
 14426      00
 14427              	.LASF373:
 14428 1be7 715F6E6F 		.ascii	"q_notify\000"
 14428      74696679 
 14428      00
 14429              	.LASF324:
 14430 1bf0 77746D74 		.ascii	"wtmtxp\000"
 14430      787000
 14431              	.LASF55:
 14432 1bf7 5F5F7346 		.ascii	"__sFILE\000"
 14432      494C4500 
 14433              	.LASF51:
 14434 1bff 5F666E73 		.ascii	"_fns\000"
 14434      00
 14435              	.LASF803:
 14436 1c04 5553424F 		.ascii	"USBOutEndpointState\000"
 14436      7574456E 
 14436      64706F69 
 14436      6E745374 
 14436      61746500 
 14437              	.LASF867:
 14438 1c18 7364635F 		.ascii	"sdc_cmd6_construct\000"
 14438      636D6436 
 14438      5F636F6E 
 14438      73747275 
 14438      637400
 14439              	.LASF760:
 14440 1c2b 72657376 		.ascii	"resvd41C\000"
 14440      64343143 
 14440      00
 14441              	.LASF25:
 14442 1c34 5F6D6273 		.ascii	"_mbstate_t\000"
 14442      74617465 
 14442      5F7400
ARM GAS  C:\Users\PCHAUT~1\AppData\Local\Temp\ccjQKXWT.s 			page 278


 14443              	.LASF120:
 14444 1c3f 5F685F65 		.ascii	"_h_errno\000"
 14444      72726E6F 
 14444      00
 14445              	.LASF228:
 14446 1c48 52445452 		.ascii	"RDTR\000"
 14446      00
 14447              	.LASF396:
 14448 1c4d 626C6B5F 		.ascii	"blk_num\000"
 14448      6E756D00 
 14449              	.LASF837:
 14450 1c55 7364635F 		.ascii	"sdc_vmt\000"
 14450      766D7400 
 14451              	.LASF698:
 14452 1c5d 5553425F 		.ascii	"USB_EVENT_RESET\000"
 14452      4556454E 
 14452      545F5245 
 14452      53455400 
 14453              	.LASF176:
 14454 1c6d 63685F72 		.ascii	"ch_ready_list\000"
 14454      65616479 
 14454      5F6C6973 
 14454      7400
 14455              	.LASF403:
 14456 1c7b 50555044 		.ascii	"PUPDR\000"
 14456      5200
 14457              	.LASF11:
 14458 1c81 5F5F696E 		.ascii	"__int32_t\000"
 14458      7433325F 
 14458      7400
 14459              	.LASF13:
 14460 1c8b 5F5F7569 		.ascii	"__uint32_t\000"
 14460      6E743332 
 14460      5F7400
 14461              	.LASF840:
 14462 1c96 73646347 		.ascii	"sdcGetInfo\000"
 14462      6574496E 
 14462      666F00
 14463              	.LASF195:
 14464 1ca1 63685F73 		.ascii	"ch_system_debug\000"
 14464      79737465 
 14464      6D5F6465 
 14464      62756700 
 14465              	.LASF771:
 14466 1cb1 4441494E 		.ascii	"DAINTMSK\000"
 14466      544D534B 
 14466      00
 14467              	.LASF523:
 14468 1cba 45585443 		.ascii	"EXTConfig\000"
 14468      6F6E6669 
 14468      6700
 14469              	.LASF24:
 14470 1cc4 5F5F7661 		.ascii	"__value\000"
 14470      6C756500 
 14471              	.LASF690:
 14472 1ccc 5553425F 		.ascii	"USB_EP0_WAITING_SETUP\000"
 14472      4550305F 
ARM GAS  C:\Users\PCHAUT~1\AppData\Local\Temp\ccjQKXWT.s 			page 279


 14472      57414954 
 14472      494E475F 
 14472      53455455 
 14473              	.LASF48:
 14474 1ce2 5F69735F 		.ascii	"_is_cxa\000"
 14474      63786100 
 14475              	.LASF391:
 14476 1cea 424C4B5F 		.ascii	"BLK_READING\000"
 14476      52454144 
 14476      494E4700 
 14477              	.LASF413:
 14478 1cf6 6166726C 		.ascii	"afrl\000"
 14478      00
 14479              	.LASF793:
 14480 1cfb 71756575 		.ascii	"queue\000"
 14480      6500
 14481              	.LASF673:
 14482 1d01 65703065 		.ascii	"ep0endcb\000"
 14482      6E646362 
 14482      00
 14483              	.LASF381:
 14484 1d0a 73656C66 		.ascii	"selfindex\000"
 14484      696E6465 
 14484      7800
 14485              	.LASF354:
 14486 1d14 6D757465 		.ascii	"mutex_t\000"
 14486      785F7400 
 14487              	.LASF85:
 14488 1d1c 5F703573 		.ascii	"_p5s\000"
 14488      00
 14489              	.LASF165:
 14490 1d21 705F6570 		.ascii	"p_epending\000"
 14490      656E6469 
 14490      6E6700
 14491              	.LASF824:
 14492 1d2c 4D4D435F 		.ascii	"MMC_SWITCH_WRITE_BYTE\000"
 14492      53574954 
 14492      43485F57 
 14492      52495445 
 14492      5F425954 
 14493              	.LASF400:
 14494 1d42 4D4F4445 		.ascii	"MODER\000"
 14494      5200
 14495              	.LASF584:
 14496 1d48 4932535F 		.ascii	"I2S_COMPLETE\000"
 14496      434F4D50 
 14496      4C455445 
 14496      00
 14497              	.LASF235:
 14498 1d55 52455345 		.ascii	"RESERVED0\000"
 14498      52564544 
 14498      3000
 14499              	.LASF238:
 14500 1d5f 52455345 		.ascii	"RESERVED1\000"
 14500      52564544 
 14500      3100
 14501              	.LASF240:
ARM GAS  C:\Users\PCHAUT~1\AppData\Local\Temp\ccjQKXWT.s 			page 280


 14502 1d69 52455345 		.ascii	"RESERVED2\000"
 14502      52564544 
 14502      3200
 14503              	.LASF242:
 14504 1d73 52455345 		.ascii	"RESERVED3\000"
 14504      52564544 
 14504      3300
 14505              	.LASF244:
 14506 1d7d 52455345 		.ascii	"RESERVED4\000"
 14506      52564544 
 14506      3400
 14507              	.LASF246:
 14508 1d87 52455345 		.ascii	"RESERVED5\000"
 14508      52564544 
 14508      3500
 14509              	.LASF814:
 14510 1d91 55534245 		.ascii	"USBEndpointConfig\000"
 14510      6E64706F 
 14510      696E7443 
 14510      6F6E6669 
 14510      6700
 14511              	.LASF250:
 14512 1da3 44485231 		.ascii	"DHR12R1\000"
 14512      32523100 
 14513              	.LASF253:
 14514 1dab 44485231 		.ascii	"DHR12R2\000"
 14514      32523200 
 14515              	.LASF519:
 14516 1db3 65787463 		.ascii	"extcallback_t\000"
 14516      616C6C62 
 14516      61636B5F 
 14516      7400
 14517              	.LASF475:
 14518 1dc1 72787175 		.ascii	"rxqueue\000"
 14518      65756500 
 14519              	.LASF298:
 14520 1dc9 73655F74 		.ascii	"se_time\000"
 14520      696D6500 
 14521              	.LASF762:
 14522 1dd1 72657376 		.ascii	"resvd444\000"
 14522      64343434 
 14522      00
 14523              	.LASF427:
 14524 1dda 70616C5F 		.ascii	"pal_default_config\000"
 14524      64656661 
 14524      756C745F 
 14524      636F6E66 
 14524      696700
 14525              	.LASF445:
 14526 1ded 67727070 		.ascii	"grpp\000"
 14526      00
 14527              	.LASF256:
 14528 1df2 44485231 		.ascii	"DHR12RD\000"
 14528      32524400 
 14529              	.LASF358:
 14530 1dfa 656C5F6C 		.ascii	"el_listener\000"
 14530      69737465 
ARM GAS  C:\Users\PCHAUT~1\AppData\Local\Temp\ccjQKXWT.s 			page 281


 14530      6E657200 
 14531              	.LASF792:
 14532 1e06 6C696E65 		.ascii	"linear\000"
 14532      617200
 14533              	.LASF543:
 14534 1e0d 73746D33 		.ascii	"stm32_tim_t\000"
 14534      325F7469 
 14534      6D5F7400 
 14535              	.LASF178:
 14536 1e19 725F7072 		.ascii	"r_prio\000"
 14536      696F00
 14537              	.LASF853:
 14538 1e20 73646353 		.ascii	"sdcStop\000"
 14538      746F7000 
 14539              	.LASF679:
 14540 1e28 706D6E65 		.ascii	"pmnext\000"
 14540      787400
 14541              	.LASF207:
 14542 1e2f 49544D5F 		.ascii	"ITM_RxBuffer\000"
 14542      52784275 
 14542      66666572 
 14542      00
 14543              	.LASF397:
 14544 1e3c 426C6F63 		.ascii	"BlockDeviceInfo\000"
 14544      6B446576 
 14544      69636549 
 14544      6E666F00 
 14545              	.LASF16:
 14546 1e4c 6C6F6E67 		.ascii	"long long unsigned int\000"
 14546      206C6F6E 
 14546      6720756E 
 14546      7369676E 
 14546      65642069 
 14547              	.LASF285:
 14548 1e63 5344494F 		.ascii	"SDIO_TypeDef\000"
 14548      5F547970 
 14548      65446566 
 14548      00
 14549              	.LASF307:
 14550 1e70 6F666673 		.ascii	"offset\000"
 14550      657400
 14551              	.LASF850:
 14552 1e77 73646343 		.ascii	"sdcConnect\000"
 14552      6F6E6E65 
 14552      637400
 14553              	.LASF664:
 14554 1e82 53504944 		.ascii	"SPID1\000"
 14554      3100
 14555              	.LASF879:
 14556 1e88 63685379 		.ascii	"chSysUnlock\000"
 14556      73556E6C 
 14556      6F636B00 
 14557              	.LASF262:
 14558 1e94 4E445452 		.ascii	"NDTR\000"
 14558      00
 14559              	.LASF363:
 14560 1e99 65735F6E 		.ascii	"es_next\000"
ARM GAS  C:\Users\PCHAUT~1\AppData\Local\Temp\ccjQKXWT.s 			page 282


 14560      65787400 
 14561              	.LASF106:
 14562 1ea1 5F67616D 		.ascii	"_gamma_signgam\000"
 14562      6D615F73 
 14562      69676E67 
 14562      616D00
 14563              	.LASF728:
 14564 1eb0 72657376 		.ascii	"resvd1C\000"
 14564      64314300 
 14565              	.LASF206:
 14566 1eb8 69646C65 		.ascii	"idle_thread_wa\000"
 14566      5F746872 
 14566      6561645F 
 14566      776100
 14567              	.LASF724:
 14568 1ec7 44494550 		.ascii	"DIEPINT\000"
 14568      494E5400 
 14569              	.LASF291:
 14570 1ecf 5350495F 		.ascii	"SPI_TypeDef\000"
 14570      54797065 
 14570      44656600 
 14571              	.LASF189:
 14572 1edb 76745F66 		.ascii	"vt_func\000"
 14572      756E6300 
 14573              	.LASF534:
 14574 1ee3 534D4352 		.ascii	"SMCR\000"
 14574      00
 14575              	.LASF769:
 14576 1ee8 444F4550 		.ascii	"DOEPMSK\000"
 14576      4D534B00 
 14577              	.LASF185:
 14578 1ef0 63685F76 		.ascii	"ch_virtual_timer\000"
 14578      69727475 
 14578      616C5F74 
 14578      696D6572 
 14578      00
 14579              	.LASF158:
 14580 1f01 705F666C 		.ascii	"p_flags\000"
 14580      61677300 
 14581              	.LASF851:
 14582 1f09 6661696C 		.ascii	"failed\000"
 14582      656400
 14583              	.LASF325:
 14584 1f10 65776D61 		.ascii	"ewmask\000"
 14584      736B00
 14585              	.LASF360:
 14586 1f17 656C5F66 		.ascii	"el_flags\000"
 14586      6C616773 
 14586      00
 14587              	.LASF362:
 14588 1f20 6576656E 		.ascii	"event_source\000"
 14588      745F736F 
 14588      75726365 
 14588      00
 14589              	.LASF166:
 14590 1f2d 705F6D74 		.ascii	"p_mtxlist\000"
 14590      786C6973 
ARM GAS  C:\Users\PCHAUT~1\AppData\Local\Temp\ccjQKXWT.s 			page 283


 14590      7400
 14591              	.LASF482:
 14592 1f37 43414E44 		.ascii	"CAND1\000"
 14592      3100
 14593              	.LASF241:
 14594 1f3d 46533152 		.ascii	"FS1R\000"
 14594      00
 14595              	.LASF137:
 14596 1f42 74737461 		.ascii	"tstate_t\000"
 14596      74655F74 
 14596      00
 14597              	.LASF127:
 14598 1f4b 5F676C6F 		.ascii	"_global_impure_ptr\000"
 14598      62616C5F 
 14598      696D7075 
 14598      72655F70 
 14598      747200
 14599              	.LASF770:
 14600 1f5e 4441494E 		.ascii	"DAINT\000"
 14600      5400
 14601              	.LASF663:
 14602 1f64 53504943 		.ascii	"SPIConfig\000"
 14602      6F6E6669 
 14602      6700
 14603              	.LASF79:
 14604 1f6e 5F756E73 		.ascii	"_unspecified_locale_info\000"
 14604      70656369 
 14604      66696564 
 14604      5F6C6F63 
 14604      616C655F 
 14605              	.LASF412:
 14606 1f87 70757064 		.ascii	"pupdr\000"
 14606      7200
 14607              	.LASF502:
 14608 1f8d 64616365 		.ascii	"dacerrorcallback_t\000"
 14608      72726F72 
 14608      63616C6C 
 14608      6261636B 
 14608      5F7400
 14609              	.LASF666:
 14610 1fa0 7472616E 		.ascii	"transmitting\000"
 14610      736D6974 
 14610      74696E67 
 14610      00
 14611              	.LASF522:
 14612 1fad 6368616E 		.ascii	"channels\000"
 14612      6E656C73 
 14612      00
 14613              	.LASF272:
 14614 1fb6 434C4B43 		.ascii	"CLKCR\000"
 14614      5200
 14615              	.LASF638:
 14616 1fbc 53444344 		.ascii	"SDCDriver\000"
 14616      72697665 
 14616      7200
 14617              	.LASF155:
 14618 1fc6 705F6E61 		.ascii	"p_name\000"
ARM GAS  C:\Users\PCHAUT~1\AppData\Local\Temp\ccjQKXWT.s 			page 284


 14618      6D6500
 14619              	.LASF81:
 14620 1fcd 5F5F7364 		.ascii	"__sdidinit\000"
 14620      6964696E 
 14620      697400
 14621              	.LASF617:
 14622 1fd8 53657269 		.ascii	"SerialDriver\000"
 14622      616C4472 
 14622      69766572 
 14622      00
 14623              	.LASF219:
 14624 1fe5 4A445231 		.ascii	"JDR1\000"
 14624      00
 14625              	.LASF220:
 14626 1fea 4A445232 		.ascii	"JDR2\000"
 14626      00
 14627              	.LASF221:
 14628 1fef 4A445233 		.ascii	"JDR3\000"
 14628      00
 14629              	.LASF222:
 14630 1ff4 4A445234 		.ascii	"JDR4\000"
 14630      00
 14631              	.LASF732:
 14632 1ff9 444F4550 		.ascii	"DOEPTSIZ\000"
 14632      5453495A 
 14632      00
 14633              	.LASF430:
 14634 2002 4144435F 		.ascii	"ADC_READY\000"
 14634      52454144 
 14634      5900
 14635              	.LASF342:
 14636 200c 63665F6F 		.ascii	"cf_off_ctx\000"
 14636      66665F63 
 14636      747800
 14637              	.LASF26:
 14638 2017 5F666C6F 		.ascii	"_flock_t\000"
 14638      636B5F74 
 14638      00
 14639              	.LASF191:
 14640 2020 76697274 		.ascii	"virtual_timers_list_t\000"
 14640      75616C5F 
 14640      74696D65 
 14640      72735F6C 
 14640      6973745F 
 14641              	.LASF756:
 14642 2036 72657376 		.ascii	"resvd40C\000"
 14642      64343043 
 14642      00
 14643              	.LASF452:
 14644 203f 63697263 		.ascii	"circular\000"
 14644      756C6172 
 14644      00
 14645              	.LASF585:
 14646 2048 69327373 		.ascii	"i2sstate_t\000"
 14646      74617465 
 14646      5F7400
 14647              	.LASF409:
ARM GAS  C:\Users\PCHAUT~1\AppData\Local\Temp\ccjQKXWT.s 			page 285


 14648 2053 6D6F6465 		.ascii	"moder\000"
 14648      7200
 14649              	.LASF659:
 14650 2059 53504944 		.ascii	"SPIDriver\000"
 14650      72697665 
 14650      7200
 14651              	.LASF327:
 14652 2063 735F7175 		.ascii	"s_queue\000"
 14652      65756500 
 14653              	.LASF316:
 14654 206b 6D5F6372 		.ascii	"m_crit_thd\000"
 14654      69745F74 
 14654      686400
 14655              	.LASF484:
 14656 2076 4441435F 		.ascii	"DAC_STOP\000"
 14656      53544F50 
 14656      00
 14657              	.LASF763:
 14658 207f 72657376 		.ascii	"resvd700\000"
 14658      64373030 
 14658      00
 14659              	.LASF289:
 14660 2088 49325343 		.ascii	"I2SCFGR\000"
 14660      46475200 
 14661              	.LASF334:
 14662 2090 63685F69 		.ascii	"ch_identifier\000"
 14662      64656E74 
 14662      69666965 
 14662      7200
 14663              	.LASF627:
 14664 209e 77726974 		.ascii	"writet\000"
 14664      657400
 14665              	.LASF865:
 14666 20a5 7364635F 		.ascii	"sdc_cmd6_extract_info\000"
 14666      636D6436 
 14666      5F657874 
 14666      72616374 
 14666      5F696E66 
 14667              	.LASF1:
 14668 20bb 6C6F6E67 		.ascii	"long long int\000"
 14668      206C6F6E 
 14668      6720696E 
 14668      7400
 14669              	.LASF750:
 14670 20c9 48505458 		.ascii	"HPTXFSIZ\000"
 14670      4653495A 
 14670      00
 14671              	.LASF341:
 14672 20d2 63665F6F 		.ascii	"cf_off_prio\000"
 14672      66665F70 
 14672      72696F00 
 14673              	.LASF71:
 14674 20de 5F666C61 		.ascii	"_flags2\000"
 14674      67733200 
 14675              	.LASF313:
 14676 20e6 74696D65 		.ascii	"time_measurement_t\000"
 14676      5F6D6561 
ARM GAS  C:\Users\PCHAUT~1\AppData\Local\Temp\ccjQKXWT.s 			page 286


 14676      73757265 
 14676      6D656E74 
 14676      5F7400
 14677              	.LASF651:
 14678 20f9 6765745F 		.ascii	"get_info\000"
 14678      696E666F 
 14678      00
 14679              	.LASF439:
 14680 2102 61646365 		.ascii	"adcerror_t\000"
 14680      72726F72 
 14680      5F7400
 14681              	.LASF816:
 14682 210d 6765745F 		.ascii	"get_descriptor_cb\000"
 14682      64657363 
 14682      72697074 
 14682      6F725F63 
 14682      6200
 14683              	.LASF884:
 14684 211f 2E2E2F6C 		.ascii	"../lib/e-puck2_main-processor/ChibiOS//os/hal/src/s"
 14684      69622F65 
 14684      2D707563 
 14684      6B325F6D 
 14684      61696E2D 
 14685 2152 64632E63 		.ascii	"dc.c\000"
 14685      00
 14686              	.LASF80:
 14687 2157 5F6C6F63 		.ascii	"_locale\000"
 14687      616C6500 
 14688              	.LASF143:
 14689 215f 6576656E 		.ascii	"eventflags_t\000"
 14689      74666C61 
 14689      67735F74 
 14689      00
 14690              	.LASF655:
 14691 216c 5350495F 		.ascii	"SPI_READY\000"
 14691      52454144 
 14691      5900
 14692              	.LASF237:
 14693 2176 73464946 		.ascii	"sFIFOMailBox\000"
 14693      4F4D6169 
 14693      6C426F78 
 14693      00
 14694              	.LASF643:
 14695 2183 6275735F 		.ascii	"bus_width\000"
 14695      77696474 
 14695      6800
 14696              	.LASF258:
 14697 218d 44485238 		.ascii	"DHR8RD\000"
 14697      524400
 14698              	.LASF765:
 14699 2194 4443544C 		.ascii	"DCTL\000"
 14699      00
 14700              	.LASF645:
 14701 2199 53444344 		.ascii	"SDCDriverVMT\000"
 14701      72697665 
 14701      72564D54 
 14701      00
ARM GAS  C:\Users\PCHAUT~1\AppData\Local\Temp\ccjQKXWT.s 			page 287


 14702              	.LASF791:
 14703 21a6 74786275 		.ascii	"txbuf\000"
 14703      6600
 14704              	.LASF784:
 14705 21ac 50434743 		.ascii	"PCGCCTL\000"
 14705      43544C00 
 14706              	.LASF702:
 14707 21b4 5553425F 		.ascii	"USB_EVENT_WAKEUP\000"
 14707      4556454E 
 14707      545F5741 
 14707      4B455550 
 14707      00
 14708              	.LASF887:
 14709 21c5 5F5F7365 		.ascii	"__set_BASEPRI\000"
 14709      745F4241 
 14709      53455052 
 14709      4900
 14710              	.LASF154:
 14711 21d3 705F6F6C 		.ascii	"p_older\000"
 14711      64657200 
 14712              	.LASF393:
 14713 21db 424C4B5F 		.ascii	"BLK_SYNCING\000"
 14713      53594E43 
 14713      494E4700 
 14714              	.LASF424:
 14715 21e7 50494461 		.ascii	"PIData\000"
 14715      746100
 14716              	.LASF813:
 14717 21ee 73657475 		.ascii	"setup_buf\000"
 14717      705F6275 
 14717      6600
 14718              	.LASF747:
 14719 21f8 72657376 		.ascii	"resvd34\000"
 14719      64333400 
 14720              	.LASF549:
 14721 2200 47505444 		.ascii	"GPTD6\000"
 14721      3600
 14722              	.LASF455:
 14723 2206 6572726F 		.ascii	"error_cb\000"
 14723      725F6362 
 14723      00
 14724              	.LASF872:
 14725 220f 7364635F 		.ascii	"sdc_init\000"
 14725      696E6974 
 14725      00
 14726              	.LASF389:
 14727 2218 424C4B5F 		.ascii	"BLK_DISCONNECTING\000"
 14727      44495343 
 14727      4F4E4E45 
 14727      4354494E 
 14727      4700
 14728              	.LASF661:
 14729 222a 7373706F 		.ascii	"ssport\000"
 14729      727400
 14730              	.LASF841:
 14731 2231 62646970 		.ascii	"bdip\000"
 14731      00
ARM GAS  C:\Users\PCHAUT~1\AppData\Local\Temp\ccjQKXWT.s 			page 288


 14732              	.LASF170:
 14733 2236 74687265 		.ascii	"thread_reference_t\000"
 14733      61645F72 
 14733      65666572 
 14733      656E6365 
 14733      5F7400
 14734              	.LASF518:
 14735 2249 65787063 		.ascii	"expchannel_t\000"
 14735      68616E6E 
 14735      656C5F74 
 14735      00
 14736              	.LASF667:
 14737 2256 72656365 		.ascii	"receiving\000"
 14737      6976696E 
 14737      6700
 14738              	.LASF94:
 14739 2260 5F5F4649 		.ascii	"__FILE\000"
 14739      4C4500
 14740              	.LASF545:
 14741 2267 66726571 		.ascii	"frequency\000"
 14741      75656E63 
 14741      7900
 14742              	.LASF849:
 14743 2271 73646344 		.ascii	"sdcDisconnect\000"
 14743      6973636F 
 14743      6E6E6563 
 14743      7400
 14744              	.LASF31:
 14745 227f 5F736967 		.ascii	"_sign\000"
 14745      6E00
 14746              	.LASF810:
 14747 2285 696E5F73 		.ascii	"in_state\000"
 14747      74617465 
 14747      00
 14748              	.LASF36:
 14749 228e 5F5F746D 		.ascii	"__tm_min\000"
 14749      5F6D696E 
 14749      00
 14750              	.LASF835:
 14751 2297 73746172 		.ascii	"startblk\000"
 14751      74626C6B 
 14751      00
 14752              	.LASF335:
 14753 22a0 63685F7A 		.ascii	"ch_zero\000"
 14753      65726F00 
 14754              	.LASF833:
 14755 22a8 73645F73 		.ascii	"sd_switch_function_t\000"
 14755      77697463 
 14755      685F6675 
 14755      6E637469 
 14755      6F6E5F74 
 14756              	.LASF565:
 14757 22bd 46415354 		.ascii	"FAST_DUTY_CYCLE_2\000"
 14757      5F445554 
 14757      595F4359 
 14757      434C455F 
 14757      3200
ARM GAS  C:\Users\PCHAUT~1\AppData\Local\Temp\ccjQKXWT.s 			page 289


 14758              	.LASF280:
 14759 22cf 44435452 		.ascii	"DCTRL\000"
 14759      4C00
 14760              	.LASF340:
 14761 22d5 63685F74 		.ascii	"ch_threadsize\000"
 14761      68726561 
 14761      6473697A 
 14761      6500
 14762              	.LASF269:
 14763 22e3 464C5452 		.ascii	"FLTR\000"
 14763      00
 14764              	.LASF536:
 14765 22e8 43434D52 		.ascii	"CCMR1\000"
 14765      3100
 14766              	.LASF537:
 14767 22ee 43434D52 		.ascii	"CCMR2\000"
 14767      3200
 14768              	.LASF541:
 14769 22f4 43434D52 		.ascii	"CCMR3\000"
 14769      3300
 14770              	.LASF0:
 14771 22fa 756E7369 		.ascii	"unsigned int\000"
 14771      676E6564 
 14771      20696E74 
 14771      00
 14772              	.LASF459:
 14773 2307 73717232 		.ascii	"sqr2\000"
 14773      00
 14774              	.LASF460:
 14775 230c 73717233 		.ascii	"sqr3\000"
 14775      00
 14776              	.LASF108:
 14777 2311 5F723438 		.ascii	"_r48\000"
 14777      00
 14778              	.LASF754:
 14779 2316 48464952 		.ascii	"HFIR\000"
 14779      00
 14780              	.LASF684:
 14781 231b 5553425F 		.ascii	"USB_UNINIT\000"
 14781      554E494E 
 14781      495400
 14782              	.LASF378:
 14783 2326 73747265 		.ascii	"stream\000"
 14783      616D00
 14784              	.LASF462:
 14785 232d 64756D6D 		.ascii	"dummy\000"
 14785      7900
 14786              	.LASF563:
 14787 2333 6932636F 		.ascii	"i2copmode_t\000"
 14787      706D6F64 
 14787      655F7400 
 14788              	.LASF860:
 14789 233f 64657465 		.ascii	"detect_bus_clk\000"
 14789      63745F62 
 14789      75735F63 
 14789      6C6B00
 14790              	.LASF869:
ARM GAS  C:\Users\PCHAUT~1\AppData\Local\Temp\ccjQKXWT.s 			page 290


 14791 234e 6D6D635F 		.ascii	"mmc_cmd6_construct\000"
 14791      636D6436 
 14791      5F636F6E 
 14791      73747275 
 14791      637400
 14792              	.LASF356:
 14793 2361 6576656E 		.ascii	"event_listener\000"
 14793      745F6C69 
 14793      7374656E 
 14793      657200
 14794              	.LASF8:
 14795 2370 73686F72 		.ascii	"short int\000"
 14795      7420696E 
 14795      7400
 14796              	.LASF708:
 14797 237a 75736263 		.ascii	"usbcallback_t\000"
 14797      616C6C62 
 14797      61636B5F 
 14797      7400
 14798              	.LASF60:
 14799 2388 5F726561 		.ascii	"_read\000"
 14799      6400
 14800              	.LASF737:
 14801 238e 47555342 		.ascii	"GUSBCFG\000"
 14801      43464700 
 14802              	.LASF293:
 14803 2396 55534152 		.ascii	"USART_TypeDef\000"
 14803      545F5479 
 14803      70654465 
 14803      6600
 14804              	.LASF377:
 14805 23a4 6F757470 		.ascii	"output_queue_t\000"
 14805      75745F71 
 14805      75657565 
 14805      5F7400
 14806              	.LASF98:
 14807 23b3 5F72616E 		.ascii	"_rand48\000"
 14807      64343800 
 14808              	.LASF786:
 14809 23bb 73746D33 		.ascii	"stm32_otg_t\000"
 14809      325F6F74 
 14809      675F7400 
 14810              	.LASF586:
 14811 23c7 49325344 		.ascii	"I2SDriver\000"
 14811      72697665 
 14811      7200
 14812              	.LASF570:
 14813 23d1 64757479 		.ascii	"duty_cycle\000"
 14813      5F637963 
 14813      6C6500
 14814              	.LASF593:
 14815 23dc 49325343 		.ascii	"I2SConfig\000"
 14815      6F6E6669 
 14815      6700
 14816              	.LASF705:
 14817 23e6 75645F73 		.ascii	"ud_size\000"
 14817      697A6500 
ARM GAS  C:\Users\PCHAUT~1\AppData\Local\Temp\ccjQKXWT.s 			page 291


 14818              	.LASF808:
 14819 23ee 696E5F6D 		.ascii	"in_maxsize\000"
 14819      61787369 
 14819      7A6500
 14820              	.LASF421:
 14821 23f9 50464461 		.ascii	"PFData\000"
 14821      746100
 14822              	.LASF514:
 14823 2400 4558545F 		.ascii	"EXT_STOP\000"
 14823      53544F50 
 14823      00
 14824              	.LASF846:
 14825 2409 666C6167 		.ascii	"flags\000"
 14825      7300
 14826              	.LASF157:
 14827 240f 705F7374 		.ascii	"p_state\000"
 14827      61746500 
 14828              	.LASF594:
 14829 2417 49325344 		.ascii	"I2SD2\000"
 14829      3200
 14830              	.LASF646:
 14831 241d 69735F69 		.ascii	"is_inserted\000"
 14831      6E736572 
 14831      74656400 
 14832              	.LASF172:
 14833 2429 63685F74 		.ascii	"ch_threads_list\000"
 14833      68726561 
 14833      64735F6C 
 14833      69737400 
 14834              	.LASF281:
 14835 2439 44434F55 		.ascii	"DCOUNT\000"
 14835      4E5400
 14836              	.LASF266:
 14837 2440 4F415231 		.ascii	"OAR1\000"
 14837      00
 14838              	.LASF267:
 14839 2445 4F415232 		.ascii	"OAR2\000"
 14839      00
 14840              	.LASF169:
 14841 244a 705F7374 		.ascii	"p_stats\000"
 14841      61747300 
 14842              	.LASF689:
 14843 2452 75736273 		.ascii	"usbstate_t\000"
 14843      74617465 
 14843      5F7400
 14844              		.ident	"GCC: (GNU Tools for Arm Embedded Processors 7-2017-q4-major) 7.2.1 20170904 (release) [ARM
ARM GAS  C:\Users\PCHAUT~1\AppData\Local\Temp\ccjQKXWT.s 			page 292


DEFINED SYMBOLS
                            *ABS*:00000000 sdc.c
C:\Users\PCHAUT~1\AppData\Local\Temp\ccjQKXWT.s:18     .text.port_lock:00000000 $t
C:\Users\PCHAUT~1\AppData\Local\Temp\ccjQKXWT.s:25     .text.port_lock:00000000 port_lock
C:\Users\PCHAUT~1\AppData\Local\Temp\ccjQKXWT.s:72     .text.port_lock:0000002c $d
C:\Users\PCHAUT~1\AppData\Local\Temp\ccjQKXWT.s:77     .text.port_unlock:00000000 $t
C:\Users\PCHAUT~1\AppData\Local\Temp\ccjQKXWT.s:84     .text.port_unlock:00000000 port_unlock
C:\Users\PCHAUT~1\AppData\Local\Temp\ccjQKXWT.s:129    .text.port_unlock:0000002c $d
C:\Users\PCHAUT~1\AppData\Local\Temp\ccjQKXWT.s:134    .text.chSysLock:00000000 $t
C:\Users\PCHAUT~1\AppData\Local\Temp\ccjQKXWT.s:141    .text.chSysLock:00000000 chSysLock
C:\Users\PCHAUT~1\AppData\Local\Temp\ccjQKXWT.s:179    .text.chSysLock:0000002c $d
C:\Users\PCHAUT~1\AppData\Local\Temp\ccjQKXWT.s:184    .text.chSysUnlock:00000000 $t
C:\Users\PCHAUT~1\AppData\Local\Temp\ccjQKXWT.s:191    .text.chSysUnlock:00000000 chSysUnlock
C:\Users\PCHAUT~1\AppData\Local\Temp\ccjQKXWT.s:247    .text.chSysUnlock:0000004c $d
C:\Users\PCHAUT~1\AppData\Local\Temp\ccjQKXWT.s:3162   .rodata.__func__.7554:00000000 __func__.7554
C:\Users\PCHAUT~1\AppData\Local\Temp\ccjQKXWT.s:254    .text.osalSysLock:00000000 $t
C:\Users\PCHAUT~1\AppData\Local\Temp\ccjQKXWT.s:261    .text.osalSysLock:00000000 osalSysLock
C:\Users\PCHAUT~1\AppData\Local\Temp\ccjQKXWT.s:295    .text.osalSysLock:00000024 $d
C:\Users\PCHAUT~1\AppData\Local\Temp\ccjQKXWT.s:300    .text.osalSysUnlock:00000000 $t
C:\Users\PCHAUT~1\AppData\Local\Temp\ccjQKXWT.s:307    .text.osalSysUnlock:00000000 osalSysUnlock
C:\Users\PCHAUT~1\AppData\Local\Temp\ccjQKXWT.s:340    .text.osalSysUnlock:00000024 $d
C:\Users\PCHAUT~1\AppData\Local\Temp\ccjQKXWT.s:345    .text.osalThreadSleep:00000000 $t
C:\Users\PCHAUT~1\AppData\Local\Temp\ccjQKXWT.s:352    .text.osalThreadSleep:00000000 osalThreadSleep
C:\Users\PCHAUT~1\AppData\Local\Temp\ccjQKXWT.s:387    .text.osalThreadSleep:00000028 $d
C:\Users\PCHAUT~1\AppData\Local\Temp\ccjQKXWT.s:392    .rodata.sdc_vmt:00000000 $d
C:\Users\PCHAUT~1\AppData\Local\Temp\ccjQKXWT.s:395    .rodata.sdc_vmt:00000000 sdc_vmt
C:\Users\PCHAUT~1\AppData\Local\Temp\ccjQKXWT.s:2049   .text.sdcConnect:00000000 sdcConnect
C:\Users\PCHAUT~1\AppData\Local\Temp\ccjQKXWT.s:2394   .text.sdcDisconnect:00000000 sdcDisconnect
C:\Users\PCHAUT~1\AppData\Local\Temp\ccjQKXWT.s:2508   .text.sdcRead:00000000 sdcRead
C:\Users\PCHAUT~1\AppData\Local\Temp\ccjQKXWT.s:2621   .text.sdcWrite:00000000 sdcWrite
C:\Users\PCHAUT~1\AppData\Local\Temp\ccjQKXWT.s:2811   .text.sdcSync:00000000 sdcSync
C:\Users\PCHAUT~1\AppData\Local\Temp\ccjQKXWT.s:2890   .text.sdcGetInfo:00000000 sdcGetInfo
C:\Users\PCHAUT~1\AppData\Local\Temp\ccjQKXWT.s:405    .text.mode_detect:00000000 $t
C:\Users\PCHAUT~1\AppData\Local\Temp\ccjQKXWT.s:412    .text.mode_detect:00000000 mode_detect
C:\Users\PCHAUT~1\AppData\Local\Temp\ccjQKXWT.s:528    .text.mode_detect:000000a8 $d
C:\Users\PCHAUT~1\AppData\Local\Temp\ccjQKXWT.s:534    .text.mmc_init:00000000 $t
C:\Users\PCHAUT~1\AppData\Local\Temp\ccjQKXWT.s:541    .text.mmc_init:00000000 mmc_init
C:\Users\PCHAUT~1\AppData\Local\Temp\ccjQKXWT.s:634    .text.mmc_init:0000007c $d
C:\Users\PCHAUT~1\AppData\Local\Temp\ccjQKXWT.s:640    .text.sdc_init:00000000 $t
C:\Users\PCHAUT~1\AppData\Local\Temp\ccjQKXWT.s:647    .text.sdc_init:00000000 sdc_init
C:\Users\PCHAUT~1\AppData\Local\Temp\ccjQKXWT.s:773    .text.sdc_init:000000ac $d
C:\Users\PCHAUT~1\AppData\Local\Temp\ccjQKXWT.s:781    .text.mmc_cmd6_construct:00000000 $t
C:\Users\PCHAUT~1\AppData\Local\Temp\ccjQKXWT.s:788    .text.mmc_cmd6_construct:00000000 mmc_cmd6_construct
C:\Users\PCHAUT~1\AppData\Local\Temp\ccjQKXWT.s:851    .text.mmc_cmd6_construct:0000005c $d
C:\Users\PCHAUT~1\AppData\Local\Temp\ccjQKXWT.s:3138   .rodata.__func__.10297:00000000 __func__.10297
C:\Users\PCHAUT~1\AppData\Local\Temp\ccjQKXWT.s:857    .text.sdc_cmd6_construct:00000000 $t
C:\Users\PCHAUT~1\AppData\Local\Temp\ccjQKXWT.s:864    .text.sdc_cmd6_construct:00000000 sdc_cmd6_construct
C:\Users\PCHAUT~1\AppData\Local\Temp\ccjQKXWT.s:933    .text.sdc_cmd6_construct:00000070 $d
C:\Users\PCHAUT~1\AppData\Local\Temp\ccjQKXWT.s:3144   .rodata.__func__.10304:00000000 __func__.10304
C:\Users\PCHAUT~1\AppData\Local\Temp\ccjQKXWT.s:939    .text.sdc_cmd6_extract_info:00000000 $t
C:\Users\PCHAUT~1\AppData\Local\Temp\ccjQKXWT.s:946    .text.sdc_cmd6_extract_info:00000000 sdc_cmd6_extract_info
C:\Users\PCHAUT~1\AppData\Local\Temp\ccjQKXWT.s:1004   .text.sdc_cmd6_extract_info:00000058 $d
C:\Users\PCHAUT~1\AppData\Local\Temp\ccjQKXWT.s:1009   .text.sdc_cmd6_check_status:00000000 $t
C:\Users\PCHAUT~1\AppData\Local\Temp\ccjQKXWT.s:1016   .text.sdc_cmd6_check_status:00000000 sdc_cmd6_check_status
C:\Users\PCHAUT~1\AppData\Local\Temp\ccjQKXWT.s:1087   .text.sdc_cmd6_check_status:00000064 $d
C:\Users\PCHAUT~1\AppData\Local\Temp\ccjQKXWT.s:1092   .text.sdc_detect_bus_clk:00000000 $t
C:\Users\PCHAUT~1\AppData\Local\Temp\ccjQKXWT.s:1099   .text.sdc_detect_bus_clk:00000000 sdc_detect_bus_clk
ARM GAS  C:\Users\PCHAUT~1\AppData\Local\Temp\ccjQKXWT.s 			page 293


C:\Users\PCHAUT~1\AppData\Local\Temp\ccjQKXWT.s:1264   .text.sdc_detect_bus_clk:00000118 $d
C:\Users\PCHAUT~1\AppData\Local\Temp\ccjQKXWT.s:1269   .text.mmc_detect_bus_clk:00000000 $t
C:\Users\PCHAUT~1\AppData\Local\Temp\ccjQKXWT.s:1276   .text.mmc_detect_bus_clk:00000000 mmc_detect_bus_clk
C:\Users\PCHAUT~1\AppData\Local\Temp\ccjQKXWT.s:1360   .text.mmc_detect_bus_clk:00000074 $d
C:\Users\PCHAUT~1\AppData\Local\Temp\ccjQKXWT.s:1366   .text.detect_bus_clk:00000000 $t
C:\Users\PCHAUT~1\AppData\Local\Temp\ccjQKXWT.s:1373   .text.detect_bus_clk:00000000 detect_bus_clk
C:\Users\PCHAUT~1\AppData\Local\Temp\ccjQKXWT.s:1425   .text.detect_bus_clk:00000048 $d
C:\Users\PCHAUT~1\AppData\Local\Temp\ccjQKXWT.s:1430   .text.sdc_set_bus_width:00000000 $t
C:\Users\PCHAUT~1\AppData\Local\Temp\ccjQKXWT.s:1437   .text.sdc_set_bus_width:00000000 sdc_set_bus_width
C:\Users\PCHAUT~1\AppData\Local\Temp\ccjQKXWT.s:1540   .text.sdc_set_bus_width:0000008c $d
C:\Users\PCHAUT~1\AppData\Local\Temp\ccjQKXWT.s:1546   .text.mmc_set_bus_width:00000000 $t
C:\Users\PCHAUT~1\AppData\Local\Temp\ccjQKXWT.s:1553   .text.mmc_set_bus_width:00000000 mmc_set_bus_width
C:\Users\PCHAUT~1\AppData\Local\Temp\ccjQKXWT.s:1664   .text.mmc_set_bus_width:000000a0 $d
C:\Users\PCHAUT~1\AppData\Local\Temp\ccjQKXWT.s:3150   .rodata.__func__.10348:00000000 __func__.10348
C:\Users\PCHAUT~1\AppData\Local\Temp\ccjQKXWT.s:1671   .text._sdc_wait_for_transfer_state:00000000 $t
C:\Users\PCHAUT~1\AppData\Local\Temp\ccjQKXWT.s:1679   .text._sdc_wait_for_transfer_state:00000000 _sdc_wait_for_transfer_state
C:\Users\PCHAUT~1\AppData\Local\Temp\ccjQKXWT.s:1760   .text._sdc_wait_for_transfer_state:00000068 $d
C:\Users\PCHAUT~1\AppData\Local\Temp\ccjQKXWT.s:1766   .text.sdcInit:00000000 $t
C:\Users\PCHAUT~1\AppData\Local\Temp\ccjQKXWT.s:1774   .text.sdcInit:00000000 sdcInit
C:\Users\PCHAUT~1\AppData\Local\Temp\ccjQKXWT.s:1807   .text.sdcInit:00000024 $d
C:\Users\PCHAUT~1\AppData\Local\Temp\ccjQKXWT.s:1812   .text.sdcObjectInit:00000000 $t
C:\Users\PCHAUT~1\AppData\Local\Temp\ccjQKXWT.s:1820   .text.sdcObjectInit:00000000 sdcObjectInit
C:\Users\PCHAUT~1\AppData\Local\Temp\ccjQKXWT.s:1872   .text.sdcObjectInit:00000040 $d
C:\Users\PCHAUT~1\AppData\Local\Temp\ccjQKXWT.s:1878   .text.sdcStart:00000000 $t
C:\Users\PCHAUT~1\AppData\Local\Temp\ccjQKXWT.s:1886   .text.sdcStart:00000000 sdcStart
C:\Users\PCHAUT~1\AppData\Local\Temp\ccjQKXWT.s:1956   .text.sdcStart:00000060 $d
C:\Users\PCHAUT~1\AppData\Local\Temp\ccjQKXWT.s:3156   .rodata.__func__.10370:00000000 __func__.10370
C:\Users\PCHAUT~1\AppData\Local\Temp\ccjQKXWT.s:1962   .text.sdcStop:00000000 $t
C:\Users\PCHAUT~1\AppData\Local\Temp\ccjQKXWT.s:1970   .text.sdcStop:00000000 sdcStop
C:\Users\PCHAUT~1\AppData\Local\Temp\ccjQKXWT.s:2035   .text.sdcStop:00000058 $d
C:\Users\PCHAUT~1\AppData\Local\Temp\ccjQKXWT.s:3168   .rodata.__func__.10374:00000000 __func__.10374
C:\Users\PCHAUT~1\AppData\Local\Temp\ccjQKXWT.s:2041   .text.sdcConnect:00000000 $t
C:\Users\PCHAUT~1\AppData\Local\Temp\ccjQKXWT.s:2379   .text.sdcConnect:00000214 $d
C:\Users\PCHAUT~1\AppData\Local\Temp\ccjQKXWT.s:3174   .rodata.__func__.10380:00000000 __func__.10380
C:\Users\PCHAUT~1\AppData\Local\Temp\ccjQKXWT.s:2386   .text.sdcDisconnect:00000000 $t
C:\Users\PCHAUT~1\AppData\Local\Temp\ccjQKXWT.s:2494   .text.sdcDisconnect:0000008c $d
C:\Users\PCHAUT~1\AppData\Local\Temp\ccjQKXWT.s:3180   .rodata.__func__.10391:00000000 __func__.10391
C:\Users\PCHAUT~1\AppData\Local\Temp\ccjQKXWT.s:2500   .text.sdcRead:00000000 $t
C:\Users\PCHAUT~1\AppData\Local\Temp\ccjQKXWT.s:2607   .text.sdcRead:00000090 $d
C:\Users\PCHAUT~1\AppData\Local\Temp\ccjQKXWT.s:3186   .rodata.__func__.10399:00000000 __func__.10399
C:\Users\PCHAUT~1\AppData\Local\Temp\ccjQKXWT.s:2613   .text.sdcWrite:00000000 $t
C:\Users\PCHAUT~1\AppData\Local\Temp\ccjQKXWT.s:2720   .text.sdcWrite:00000090 $d
C:\Users\PCHAUT~1\AppData\Local\Temp\ccjQKXWT.s:3192   .rodata.__func__.10407:00000000 __func__.10407
C:\Users\PCHAUT~1\AppData\Local\Temp\ccjQKXWT.s:2726   .text.sdcGetAndClearErrors:00000000 $t
C:\Users\PCHAUT~1\AppData\Local\Temp\ccjQKXWT.s:2734   .text.sdcGetAndClearErrors:00000000 sdcGetAndClearErrors
C:\Users\PCHAUT~1\AppData\Local\Temp\ccjQKXWT.s:2797   .text.sdcGetAndClearErrors:00000054 $d
C:\Users\PCHAUT~1\AppData\Local\Temp\ccjQKXWT.s:3198   .rodata.__func__.10412:00000000 __func__.10412
C:\Users\PCHAUT~1\AppData\Local\Temp\ccjQKXWT.s:2803   .text.sdcSync:00000000 $t
C:\Users\PCHAUT~1\AppData\Local\Temp\ccjQKXWT.s:2876   .text.sdcSync:00000058 $d
C:\Users\PCHAUT~1\AppData\Local\Temp\ccjQKXWT.s:3204   .rodata.__func__.10417:00000000 __func__.10417
C:\Users\PCHAUT~1\AppData\Local\Temp\ccjQKXWT.s:2882   .text.sdcGetInfo:00000000 $t
C:\Users\PCHAUT~1\AppData\Local\Temp\ccjQKXWT.s:2957   .text.sdcGetInfo:00000054 $d
C:\Users\PCHAUT~1\AppData\Local\Temp\ccjQKXWT.s:3210   .rodata.__func__.10422:00000000 __func__.10422
C:\Users\PCHAUT~1\AppData\Local\Temp\ccjQKXWT.s:2963   .text.sdcErase:00000000 $t
C:\Users\PCHAUT~1\AppData\Local\Temp\ccjQKXWT.s:2971   .text.sdcErase:00000000 sdcErase
C:\Users\PCHAUT~1\AppData\Local\Temp\ccjQKXWT.s:3128   .text.sdcErase:000000e8 $d
C:\Users\PCHAUT~1\AppData\Local\Temp\ccjQKXWT.s:3216   .rodata.__func__.10429:00000000 __func__.10429
ARM GAS  C:\Users\PCHAUT~1\AppData\Local\Temp\ccjQKXWT.s 			page 294


C:\Users\PCHAUT~1\AppData\Local\Temp\ccjQKXWT.s:3135   .rodata.__func__.10297:00000000 $d
C:\Users\PCHAUT~1\AppData\Local\Temp\ccjQKXWT.s:3141   .rodata.__func__.10304:00000000 $d
C:\Users\PCHAUT~1\AppData\Local\Temp\ccjQKXWT.s:3147   .rodata.__func__.10348:00000000 $d
C:\Users\PCHAUT~1\AppData\Local\Temp\ccjQKXWT.s:3153   .rodata.__func__.10370:00000000 $d
C:\Users\PCHAUT~1\AppData\Local\Temp\ccjQKXWT.s:3159   .rodata.__func__.7554:00000000 $d
C:\Users\PCHAUT~1\AppData\Local\Temp\ccjQKXWT.s:3165   .rodata.__func__.10374:00000000 $d
C:\Users\PCHAUT~1\AppData\Local\Temp\ccjQKXWT.s:3171   .rodata.__func__.10380:00000000 $d
C:\Users\PCHAUT~1\AppData\Local\Temp\ccjQKXWT.s:3177   .rodata.__func__.10391:00000000 $d
C:\Users\PCHAUT~1\AppData\Local\Temp\ccjQKXWT.s:3183   .rodata.__func__.10399:00000000 $d
C:\Users\PCHAUT~1\AppData\Local\Temp\ccjQKXWT.s:3189   .rodata.__func__.10407:00000000 $d
C:\Users\PCHAUT~1\AppData\Local\Temp\ccjQKXWT.s:3195   .rodata.__func__.10412:00000000 $d
C:\Users\PCHAUT~1\AppData\Local\Temp\ccjQKXWT.s:3201   .rodata.__func__.10417:00000000 $d
C:\Users\PCHAUT~1\AppData\Local\Temp\ccjQKXWT.s:3207   .rodata.__func__.10422:00000000 $d
C:\Users\PCHAUT~1\AppData\Local\Temp\ccjQKXWT.s:3213   .rodata.__func__.10429:00000000 $d

UNDEFINED SYMBOLS
__stack_chk_fail
__stack_chk_guard
_stats_start_measure_crit_thd
_dbg_check_lock
_dbg_check_unlock
_stats_stop_measure_crit_thd
chSysHalt
ch
chThdSleep
sdc_lld_is_card_inserted
sdc_lld_is_write_protected
sdc_lld_send_cmd_short_crc
sdc_lld_send_cmd_none
sdc_lld_send_cmd_short
_mmcsd_get_slice
sdc_lld_read_special
sdc_lld_set_bus_mode
sdc_lld_init
sdc_lld_start
sdc_lld_stop
sdc_lld_start_clk
sdc_lld_send_cmd_long_crc
sdc_lld_set_data_clk
_mmcsd_get_capacity_ext
_mmcsd_get_capacity
sdc_lld_stop_clk
sdc_lld_read
sdc_lld_write
sdc_lld_sync
