ARM GAS  C:\Users\PCHAUT~1\AppData\Local\Temp\ccjQKXWT.s 			page 1


   1              		.cpu cortex-m4
   2              		.eabi_attribute 27, 1
   3              		.eabi_attribute 28, 1
   4              		.eabi_attribute 20, 1
   5              		.eabi_attribute 21, 1
   6              		.eabi_attribute 23, 3
   7              		.eabi_attribute 24, 1
   8              		.eabi_attribute 25, 1
   9              		.eabi_attribute 26, 1
  10              		.eabi_attribute 30, 6
  11              		.eabi_attribute 34, 1
  12              		.eabi_attribute 18, 4
  13              		.file	"sdc.c"
  14              		.text
  15              	.Ltext0:
  16              		.cfi_sections	.debug_frame
  17              		.section	.text.port_lock,"ax",%progbits
  18              		.align	1
  19              		.p2align 4,,15
  20              		.syntax unified
  21              		.thumb
  22              		.thumb_func
  23              		.fpu fpv4-sp-d16
  24              		.type	port_lock, %function
  25              	port_lock:
  26              	.LFB116:
  27              		.file 1 "../lib/e-puck2_main-processor/ChibiOS//os/rt/ports/ARMCMx/chcore_v7m.h"
  28              		.loc 1 444 0
  29              		.cfi_startproc
  30              		@ args = 0, pretend = 0, frame = 8
  31              		@ frame_needed = 0, uses_anonymous_args = 0
  32 0000 00B5     		push	{lr}
  33              		.cfi_def_cfa_offset 4
  34              		.cfi_offset 14, -4
  35 0002 83B0     		sub	sp, sp, #12
  36              		.cfi_def_cfa_offset 16
  37              		.loc 1 444 0
  38 0004 094B     		ldr	r3, .L3
  39 0006 1B68     		ldr	r3, [r3]
  40 0008 0193     		str	r3, [sp, #4]
  41 000a 2023     		movs	r3, #32
  42 000c 0093     		str	r3, [sp]
  43              	.LBB6:
  44              	.LBB7:
  45              		.file 2 "../lib/e-puck2_main-processor/ChibiOS//os/ext/CMSIS/include/core_cmFunc.h"
  46              		.loc 2 546 0
  47 000e 009B     		ldr	r3, [sp]
  48              		.syntax unified
  49              	@ 546 "../lib/e-puck2_main-processor/ChibiOS//os/ext/CMSIS/include/core_cmFunc.h" 1
  50 0010 83F31188 		MSR basepri, r3
  51              	@ 0 "" 2
  52              		.thumb
  53              		.syntax unified
  54              	.LBE7:
  55              	.LBE6:
  56              		.loc 1 451 0
  57 0014 00BF     		nop
ARM GAS  C:\Users\PCHAUT~1\AppData\Local\Temp\ccjQKXWT.s 			page 2


  58 0016 054B     		ldr	r3, .L3
  59 0018 019A     		ldr	r2, [sp, #4]
  60 001a 1B68     		ldr	r3, [r3]
  61 001c 9A42     		cmp	r2, r3
  62 001e 01D0     		beq	.L2
  63 0020 FFF7FEFF 		bl	__stack_chk_fail
  64              	.L2:
  65 0024 03B0     		add	sp, sp, #12
  66              		.cfi_def_cfa_offset 4
  67              		@ sp needed
  68 0026 5DF804FB 		ldr	pc, [sp], #4
  69              	.L4:
  70 002a 00BF     		.align	2
  71              	.L3:
  72 002c 00000000 		.word	__stack_chk_guard
  73              		.cfi_endproc
  74              	.LFE116:
  75              		.size	port_lock, .-port_lock
  76              		.section	.text.port_unlock,"ax",%progbits
  77              		.align	1
  78              		.p2align 4,,15
  79              		.syntax unified
  80              		.thumb
  81              		.thumb_func
  82              		.fpu fpv4-sp-d16
  83              		.type	port_unlock, %function
  84              	port_unlock:
  85              	.LFB117:
  86              		.loc 1 458 0
  87              		.cfi_startproc
  88              		@ args = 0, pretend = 0, frame = 8
  89              		@ frame_needed = 0, uses_anonymous_args = 0
  90 0000 00B5     		push	{lr}
  91              		.cfi_def_cfa_offset 4
  92              		.cfi_offset 14, -4
  93 0002 83B0     		sub	sp, sp, #12
  94              		.cfi_def_cfa_offset 16
  95              		.loc 1 458 0
  96 0004 094B     		ldr	r3, .L7
  97 0006 1B68     		ldr	r3, [r3]
  98 0008 0193     		str	r3, [sp, #4]
  99 000a 0023     		movs	r3, #0
 100 000c 0093     		str	r3, [sp]
 101              	.LBB8:
 102              	.LBB9:
 103              		.loc 2 546 0
 104 000e 009B     		ldr	r3, [sp]
 105              		.syntax unified
 106              	@ 546 "../lib/e-puck2_main-processor/ChibiOS//os/ext/CMSIS/include/core_cmFunc.h" 1
 107 0010 83F31188 		MSR basepri, r3
 108              	@ 0 "" 2
 109              		.thumb
 110              		.syntax unified
 111              	.LBE9:
 112              	.LBE8:
 113              		.loc 1 465 0
 114 0014 00BF     		nop
ARM GAS  C:\Users\PCHAUT~1\AppData\Local\Temp\ccjQKXWT.s 			page 3


 115 0016 054B     		ldr	r3, .L7
 116 0018 019A     		ldr	r2, [sp, #4]
 117 001a 1B68     		ldr	r3, [r3]
 118 001c 9A42     		cmp	r2, r3
 119 001e 01D0     		beq	.L6
 120 0020 FFF7FEFF 		bl	__stack_chk_fail
 121              	.L6:
 122 0024 03B0     		add	sp, sp, #12
 123              		.cfi_def_cfa_offset 4
 124              		@ sp needed
 125 0026 5DF804FB 		ldr	pc, [sp], #4
 126              	.L8:
 127 002a 00BF     		.align	2
 128              	.L7:
 129 002c 00000000 		.word	__stack_chk_guard
 130              		.cfi_endproc
 131              	.LFE117:
 132              		.size	port_unlock, .-port_unlock
 133              		.section	.text.chSysLock,"ax",%progbits
 134              		.align	1
 135              		.p2align 4,,15
 136              		.syntax unified
 137              		.thumb
 138              		.thumb_func
 139              		.fpu fpv4-sp-d16
 140              		.type	chSysLock, %function
 141              	chSysLock:
 142              	.LFB145:
 143              		.file 3 "../lib/e-puck2_main-processor/ChibiOS//os/rt/include/chsys.h"
 144              		.loc 3 346 0
 145              		.cfi_startproc
 146              		@ args = 0, pretend = 0, frame = 8
 147              		@ frame_needed = 0, uses_anonymous_args = 0
 148 0000 00B5     		push	{lr}
 149              		.cfi_def_cfa_offset 4
 150              		.cfi_offset 14, -4
 151 0002 83B0     		sub	sp, sp, #12
 152              		.cfi_def_cfa_offset 16
 153              		.loc 3 346 0
 154 0004 094B     		ldr	r3, .L11
 155 0006 1B68     		ldr	r3, [r3]
 156 0008 0193     		str	r3, [sp, #4]
 157              		.loc 3 348 0
 158 000a FFF7FEFF 		bl	port_lock
 159              		.loc 3 349 0
 160 000e FFF7FEFF 		bl	_stats_start_measure_crit_thd
 161              		.loc 3 350 0
 162 0012 FFF7FEFF 		bl	_dbg_check_lock
 163              		.loc 3 351 0
 164 0016 00BF     		nop
 165 0018 044B     		ldr	r3, .L11
 166 001a 019A     		ldr	r2, [sp, #4]
 167 001c 1B68     		ldr	r3, [r3]
 168 001e 9A42     		cmp	r2, r3
 169 0020 01D0     		beq	.L10
 170 0022 FFF7FEFF 		bl	__stack_chk_fail
 171              	.L10:
ARM GAS  C:\Users\PCHAUT~1\AppData\Local\Temp\ccjQKXWT.s 			page 4


 172 0026 03B0     		add	sp, sp, #12
 173              		.cfi_def_cfa_offset 4
 174              		@ sp needed
 175 0028 5DF804FB 		ldr	pc, [sp], #4
 176              	.L12:
 177              		.align	2
 178              	.L11:
 179 002c 00000000 		.word	__stack_chk_guard
 180              		.cfi_endproc
 181              	.LFE145:
 182              		.size	chSysLock, .-chSysLock
 183              		.section	.text.chSysUnlock,"ax",%progbits
 184              		.align	1
 185              		.p2align 4,,15
 186              		.syntax unified
 187              		.thumb
 188              		.thumb_func
 189              		.fpu fpv4-sp-d16
 190              		.type	chSysUnlock, %function
 191              	chSysUnlock:
 192              	.LFB146:
 193              		.loc 3 358 0
 194              		.cfi_startproc
 195              		@ args = 0, pretend = 0, frame = 8
 196              		@ frame_needed = 0, uses_anonymous_args = 0
 197 0000 00B5     		push	{lr}
 198              		.cfi_def_cfa_offset 4
 199              		.cfi_offset 14, -4
 200 0002 83B0     		sub	sp, sp, #12
 201              		.cfi_def_cfa_offset 16
 202              		.loc 3 358 0
 203 0004 114B     		ldr	r3, .L16
 204 0006 1B68     		ldr	r3, [r3]
 205 0008 0193     		str	r3, [sp, #4]
 206              		.loc 3 360 0
 207 000a FFF7FEFF 		bl	_dbg_check_unlock
 208              		.loc 3 361 0
 209 000e FFF7FEFF 		bl	_stats_stop_measure_crit_thd
 210              		.loc 3 367 0
 211 0012 0F4B     		ldr	r3, .L16+4
 212 0014 1B68     		ldr	r3, [r3]
 213 0016 0E4A     		ldr	r2, .L16+4
 214 0018 9342     		cmp	r3, r2
 215 001a 0AD0     		beq	.L14
 216              		.loc 3 367 0 is_stmt 0 discriminator 2
 217 001c 0C4B     		ldr	r3, .L16+4
 218 001e 9B69     		ldr	r3, [r3, #24]
 219 0020 9A68     		ldr	r2, [r3, #8]
 220 0022 0B4B     		ldr	r3, .L16+4
 221 0024 1B68     		ldr	r3, [r3]
 222 0026 9B68     		ldr	r3, [r3, #8]
 223 0028 9A42     		cmp	r2, r3
 224 002a 02D2     		bcs	.L14
 225              		.loc 3 367 0 discriminator 3
 226 002c 0948     		ldr	r0, .L16+8
 227 002e FFF7FEFF 		bl	chSysHalt
 228              	.L14:
ARM GAS  C:\Users\PCHAUT~1\AppData\Local\Temp\ccjQKXWT.s 			page 5


 229              		.loc 3 371 0 is_stmt 1
 230 0032 FFF7FEFF 		bl	port_unlock
 231              		.loc 3 372 0
 232 0036 00BF     		nop
 233 0038 044B     		ldr	r3, .L16
 234 003a 019A     		ldr	r2, [sp, #4]
 235 003c 1B68     		ldr	r3, [r3]
 236 003e 9A42     		cmp	r2, r3
 237 0040 01D0     		beq	.L15
 238 0042 FFF7FEFF 		bl	__stack_chk_fail
 239              	.L15:
 240 0046 03B0     		add	sp, sp, #12
 241              		.cfi_def_cfa_offset 4
 242              		@ sp needed
 243 0048 5DF804FB 		ldr	pc, [sp], #4
 244              	.L17:
 245              		.align	2
 246              	.L16:
 247 004c 00000000 		.word	__stack_chk_guard
 248 0050 00000000 		.word	ch
 249 0054 00000000 		.word	__func__.7554
 250              		.cfi_endproc
 251              	.LFE146:
 252              		.size	chSysUnlock, .-chSysUnlock
 253              		.section	.text.osalSysLock,"ax",%progbits
 254              		.align	1
 255              		.p2align 4,,15
 256              		.syntax unified
 257              		.thumb
 258              		.thumb_func
 259              		.fpu fpv4-sp-d16
 260              		.type	osalSysLock, %function
 261              	osalSysLock:
 262              	.LFB223:
 263              		.file 4 "../lib/e-puck2_main-processor/ChibiOS//os/hal/osal/rt/osal.h"
 264              		.loc 4 445 0
 265              		.cfi_startproc
 266              		@ args = 0, pretend = 0, frame = 8
 267              		@ frame_needed = 0, uses_anonymous_args = 0
 268 0000 00B5     		push	{lr}
 269              		.cfi_def_cfa_offset 4
 270              		.cfi_offset 14, -4
 271 0002 83B0     		sub	sp, sp, #12
 272              		.cfi_def_cfa_offset 16
 273              		.loc 4 445 0
 274 0004 074B     		ldr	r3, .L20
 275 0006 1B68     		ldr	r3, [r3]
 276 0008 0193     		str	r3, [sp, #4]
 277              		.loc 4 447 0
 278 000a FFF7FEFF 		bl	chSysLock
 279              		.loc 4 448 0
 280 000e 00BF     		nop
 281 0010 044B     		ldr	r3, .L20
 282 0012 019A     		ldr	r2, [sp, #4]
 283 0014 1B68     		ldr	r3, [r3]
 284 0016 9A42     		cmp	r2, r3
 285 0018 01D0     		beq	.L19
ARM GAS  C:\Users\PCHAUT~1\AppData\Local\Temp\ccjQKXWT.s 			page 6


 286 001a FFF7FEFF 		bl	__stack_chk_fail
 287              	.L19:
 288 001e 03B0     		add	sp, sp, #12
 289              		.cfi_def_cfa_offset 4
 290              		@ sp needed
 291 0020 5DF804FB 		ldr	pc, [sp], #4
 292              	.L21:
 293              		.align	2
 294              	.L20:
 295 0024 00000000 		.word	__stack_chk_guard
 296              		.cfi_endproc
 297              	.LFE223:
 298              		.size	osalSysLock, .-osalSysLock
 299              		.section	.text.osalSysUnlock,"ax",%progbits
 300              		.align	1
 301              		.p2align 4,,15
 302              		.syntax unified
 303              		.thumb
 304              		.thumb_func
 305              		.fpu fpv4-sp-d16
 306              		.type	osalSysUnlock, %function
 307              	osalSysUnlock:
 308              	.LFB224:
 309              		.loc 4 456 0
 310              		.cfi_startproc
 311              		@ args = 0, pretend = 0, frame = 8
 312              		@ frame_needed = 0, uses_anonymous_args = 0
 313 0000 00B5     		push	{lr}
 314              		.cfi_def_cfa_offset 4
 315              		.cfi_offset 14, -4
 316 0002 83B0     		sub	sp, sp, #12
 317              		.cfi_def_cfa_offset 16
 318              		.loc 4 456 0
 319 0004 074B     		ldr	r3, .L24
 320 0006 1B68     		ldr	r3, [r3]
 321 0008 0193     		str	r3, [sp, #4]
 322              		.loc 4 458 0
 323 000a FFF7FEFF 		bl	chSysUnlock
 324              		.loc 4 459 0
 325 000e 00BF     		nop
 326 0010 044B     		ldr	r3, .L24
 327 0012 019A     		ldr	r2, [sp, #4]
 328 0014 1B68     		ldr	r3, [r3]
 329 0016 9A42     		cmp	r2, r3
 330 0018 01D0     		beq	.L23
 331 001a FFF7FEFF 		bl	__stack_chk_fail
 332              	.L23:
 333 001e 03B0     		add	sp, sp, #12
 334              		.cfi_def_cfa_offset 4
 335              		@ sp needed
 336 0020 5DF804FB 		ldr	pc, [sp], #4
 337              	.L25:
 338              		.align	2
 339              	.L24:
 340 0024 00000000 		.word	__stack_chk_guard
 341              		.cfi_endproc
 342              	.LFE224:
ARM GAS  C:\Users\PCHAUT~1\AppData\Local\Temp\ccjQKXWT.s 			page 7


 343              		.size	osalSysUnlock, .-osalSysUnlock
 344              		.section	.text.osalThreadSleep,"ax",%progbits
 345              		.align	1
 346              		.p2align 4,,15
 347              		.syntax unified
 348              		.thumb
 349              		.thumb_func
 350              		.fpu fpv4-sp-d16
 351              		.type	osalThreadSleep, %function
 352              	osalThreadSleep:
 353              	.LFB235:
 354              		.loc 4 625 0
 355              		.cfi_startproc
 356              		@ args = 0, pretend = 0, frame = 16
 357              		@ frame_needed = 0, uses_anonymous_args = 0
 358 0000 00B5     		push	{lr}
 359              		.cfi_def_cfa_offset 4
 360              		.cfi_offset 14, -4
 361 0002 85B0     		sub	sp, sp, #20
 362              		.cfi_def_cfa_offset 24
 363 0004 0190     		str	r0, [sp, #4]
 364              		.loc 4 625 0
 365 0006 084B     		ldr	r3, .L28
 366 0008 1B68     		ldr	r3, [r3]
 367 000a 0393     		str	r3, [sp, #12]
 368              		.loc 4 627 0
 369 000c 0198     		ldr	r0, [sp, #4]
 370 000e FFF7FEFF 		bl	chThdSleep
 371              		.loc 4 628 0
 372 0012 00BF     		nop
 373 0014 044B     		ldr	r3, .L28
 374 0016 039A     		ldr	r2, [sp, #12]
 375 0018 1B68     		ldr	r3, [r3]
 376 001a 9A42     		cmp	r2, r3
 377 001c 01D0     		beq	.L27
 378 001e FFF7FEFF 		bl	__stack_chk_fail
 379              	.L27:
 380 0022 05B0     		add	sp, sp, #20
 381              		.cfi_def_cfa_offset 4
 382              		@ sp needed
 383 0024 5DF804FB 		ldr	pc, [sp], #4
 384              	.L29:
 385              		.align	2
 386              	.L28:
 387 0028 00000000 		.word	__stack_chk_guard
 388              		.cfi_endproc
 389              	.LFE235:
 390              		.size	osalThreadSleep, .-osalThreadSleep
 391              		.section	.rodata.sdc_vmt,"a",%progbits
 392              		.align	2
 393              		.type	sdc_vmt, %object
 394              		.size	sdc_vmt, 32
 395              	sdc_vmt:
 396 0000 00000000 		.word	sdc_lld_is_card_inserted
 397 0004 00000000 		.word	sdc_lld_is_write_protected
 398 0008 00000000 		.word	sdcConnect
 399 000c 00000000 		.word	sdcDisconnect
ARM GAS  C:\Users\PCHAUT~1\AppData\Local\Temp\ccjQKXWT.s 			page 8


 400 0010 00000000 		.word	sdcRead
 401 0014 00000000 		.word	sdcWrite
 402 0018 00000000 		.word	sdcSync
 403 001c 00000000 		.word	sdcGetInfo
 404              		.section	.text.mode_detect,"ax",%progbits
 405              		.align	1
 406              		.p2align 4,,15
 407              		.syntax unified
 408              		.thumb
 409              		.thumb_func
 410              		.fpu fpv4-sp-d16
 411              		.type	mode_detect, %function
 412              	mode_detect:
 413              	.LFB256:
 414              		.file 5 "../lib/e-puck2_main-processor/ChibiOS//os/hal/src/sdc.c"
 415              		.loc 5 99 0
 416              		.cfi_startproc
 417              		@ args = 0, pretend = 0, frame = 16
 418              		@ frame_needed = 0, uses_anonymous_args = 0
 419 0000 00B5     		push	{lr}
 420              		.cfi_def_cfa_offset 4
 421              		.cfi_offset 14, -4
 422 0002 85B0     		sub	sp, sp, #20
 423              		.cfi_def_cfa_offset 24
 424 0004 0190     		str	r0, [sp, #4]
 425              		.loc 5 99 0
 426 0006 284B     		ldr	r3, .L40
 427 0008 1B68     		ldr	r3, [r3]
 428 000a 0393     		str	r3, [sp, #12]
 429              		.loc 5 103 0
 430 000c 02AB     		add	r3, sp, #8
 431 000e 4FF4D572 		mov	r2, #426
 432 0012 0821     		movs	r1, #8
 433 0014 0198     		ldr	r0, [sp, #4]
 434 0016 FFF7FEFF 		bl	sdc_lld_send_cmd_short_crc
 435 001a 0346     		mov	r3, r0
 436 001c 83F00103 		eor	r3, r3, #1
 437 0020 DBB2     		uxtb	r3, r3
 438 0022 002B     		cmp	r3, #0
 439 0024 1AD0     		beq	.L31
 440              		.loc 5 105 0
 441 0026 019B     		ldr	r3, [sp, #4]
 442 0028 0122     		movs	r2, #1
 443 002a 1A63     		str	r2, [r3, #48]
 444              		.loc 5 107 0
 445 002c 029B     		ldr	r3, [sp, #8]
 446 002e 1B0A     		lsrs	r3, r3, #8
 447 0030 03F00F03 		and	r3, r3, #15
 448 0034 012B     		cmp	r3, #1
 449 0036 01D0     		beq	.L32
 450              		.loc 5 108 0
 451 0038 0123     		movs	r3, #1
 452 003a 2AE0     		b	.L38
 453              	.L32:
 454              		.loc 5 110 0
 455 003c 02AB     		add	r3, sp, #8
 456 003e 0022     		movs	r2, #0
ARM GAS  C:\Users\PCHAUT~1\AppData\Local\Temp\ccjQKXWT.s 			page 9


 457 0040 3721     		movs	r1, #55
 458 0042 0198     		ldr	r0, [sp, #4]
 459 0044 FFF7FEFF 		bl	sdc_lld_send_cmd_short_crc
 460 0048 0346     		mov	r3, r0
 461 004a 002B     		cmp	r3, #0
 462 004c 04D1     		bne	.L34
 463              		.loc 5 111 0 discriminator 1
 464 004e 029A     		ldr	r2, [sp, #8]
 465 0050 164B     		ldr	r3, .L40+4
 466 0052 1340     		ands	r3, r3, r2
 467              		.loc 5 110 0 discriminator 1
 468 0054 002B     		cmp	r3, #0
 469 0056 1BD0     		beq	.L35
 470              	.L34:
 471              		.loc 5 112 0
 472 0058 0123     		movs	r3, #1
 473 005a 1AE0     		b	.L38
 474              	.L31:
 475              		.loc 5 117 0
 476 005c 02AB     		add	r3, sp, #8
 477 005e 0022     		movs	r2, #0
 478 0060 3721     		movs	r1, #55
 479 0062 0198     		ldr	r0, [sp, #4]
 480 0064 FFF7FEFF 		bl	sdc_lld_send_cmd_short_crc
 481 0068 0346     		mov	r3, r0
 482 006a 002B     		cmp	r3, #0
 483 006c 04D1     		bne	.L36
 484              		.loc 5 118 0 discriminator 1
 485 006e 029A     		ldr	r2, [sp, #8]
 486 0070 0E4B     		ldr	r3, .L40+4
 487 0072 1340     		ands	r3, r3, r2
 488              		.loc 5 117 0 discriminator 1
 489 0074 002B     		cmp	r3, #0
 490 0076 03D0     		beq	.L37
 491              	.L36:
 492              		.loc 5 119 0
 493 0078 019B     		ldr	r3, [sp, #4]
 494 007a 0222     		movs	r2, #2
 495 007c 1A63     		str	r2, [r3, #48]
 496 007e 07E0     		b	.L35
 497              	.L37:
 498              		.loc 5 122 0
 499 0080 019B     		ldr	r3, [sp, #4]
 500 0082 0022     		movs	r2, #0
 501 0084 1A63     		str	r2, [r3, #48]
 502              		.loc 5 125 0
 503 0086 0022     		movs	r2, #0
 504 0088 0021     		movs	r1, #0
 505 008a 0198     		ldr	r0, [sp, #4]
 506 008c FFF7FEFF 		bl	sdc_lld_send_cmd_none
 507              	.L35:
 508              		.loc 5 129 0
 509 0090 0023     		movs	r3, #0
 510              	.L38:
 511              		.loc 5 130 0 discriminator 1
 512 0092 1846     		mov	r0, r3
 513 0094 044B     		ldr	r3, .L40
ARM GAS  C:\Users\PCHAUT~1\AppData\Local\Temp\ccjQKXWT.s 			page 10


 514 0096 039A     		ldr	r2, [sp, #12]
 515 0098 1B68     		ldr	r3, [r3]
 516 009a 9A42     		cmp	r2, r3
 517 009c 01D0     		beq	.L39
 518              		.loc 5 130 0 is_stmt 0
 519 009e FFF7FEFF 		bl	__stack_chk_fail
 520              	.L39:
 521 00a2 05B0     		add	sp, sp, #20
 522              		.cfi_def_cfa_offset 4
 523              		@ sp needed
 524 00a4 5DF804FB 		ldr	pc, [sp], #4
 525              	.L41:
 526              		.align	2
 527              	.L40:
 528 00a8 00000000 		.word	__stack_chk_guard
 529 00ac 08E0FFFD 		.word	-33562616
 530              		.cfi_endproc
 531              	.LFE256:
 532              		.size	mode_detect, .-mode_detect
 533              		.section	.text.mmc_init,"ax",%progbits
 534              		.align	1
 535              		.p2align 4,,15
 536              		.syntax unified
 537              		.thumb
 538              		.thumb_func
 539              		.fpu fpv4-sp-d16
 540              		.type	mmc_init, %function
 541              	mmc_init:
 542              	.LFB257:
 543              		.loc 5 143 0 is_stmt 1
 544              		.cfi_startproc
 545              		@ args = 0, pretend = 0, frame = 24
 546              		@ frame_needed = 0, uses_anonymous_args = 0
 547 0000 00B5     		push	{lr}
 548              		.cfi_def_cfa_offset 4
 549              		.cfi_offset 14, -4
 550 0002 87B0     		sub	sp, sp, #28
 551              		.cfi_def_cfa_offset 32
 552 0004 0190     		str	r0, [sp, #4]
 553              		.loc 5 143 0
 554 0006 1D4B     		ldr	r3, .L53
 555 0008 1B68     		ldr	r3, [r3]
 556 000a 0593     		str	r3, [sp, #20]
 557              		.loc 5 148 0
 558 000c 1C4B     		ldr	r3, .L53+4
 559 000e 0393     		str	r3, [sp, #12]
 560              		.loc 5 149 0
 561 0010 0023     		movs	r3, #0
 562 0012 0293     		str	r3, [sp, #8]
 563              	.L49:
 564              		.loc 5 151 0
 565 0014 04AB     		add	r3, sp, #16
 566 0016 039A     		ldr	r2, [sp, #12]
 567 0018 0121     		movs	r1, #1
 568 001a 0198     		ldr	r0, [sp, #4]
 569 001c FFF7FEFF 		bl	sdc_lld_send_cmd_short
 570 0020 0346     		mov	r3, r0
ARM GAS  C:\Users\PCHAUT~1\AppData\Local\Temp\ccjQKXWT.s 			page 11


 571 0022 002B     		cmp	r3, #0
 572 0024 01D0     		beq	.L43
 573              		.loc 5 152 0
 574 0026 0123     		movs	r3, #1
 575 0028 1CE0     		b	.L50
 576              	.L43:
 577              		.loc 5 154 0
 578 002a 049B     		ldr	r3, [sp, #16]
 579 002c 002B     		cmp	r3, #0
 580 002e 0BDA     		bge	.L45
 581              		.loc 5 155 0
 582 0030 049B     		ldr	r3, [sp, #16]
 583 0032 03F08043 		and	r3, r3, #1073741824
 584 0036 002B     		cmp	r3, #0
 585 0038 12D0     		beq	.L52
 586              		.loc 5 156 0
 587 003a 019B     		ldr	r3, [sp, #4]
 588 003c 1B6B     		ldr	r3, [r3, #48]
 589 003e 43F01002 		orr	r2, r3, #16
 590 0042 019B     		ldr	r3, [sp, #4]
 591 0044 1A63     		str	r2, [r3, #48]
 592              		.loc 5 158 0
 593 0046 0BE0     		b	.L52
 594              	.L45:
 595              		.loc 5 160 0
 596 0048 029B     		ldr	r3, [sp, #8]
 597 004a 0133     		adds	r3, r3, #1
 598 004c 0293     		str	r3, [sp, #8]
 599 004e 029B     		ldr	r3, [sp, #8]
 600 0050 632B     		cmp	r3, #99
 601 0052 01D9     		bls	.L48
 602              		.loc 5 161 0
 603 0054 0123     		movs	r3, #1
 604 0056 05E0     		b	.L50
 605              	.L48:
 606              		.loc 5 163 0
 607 0058 0A20     		movs	r0, #10
 608 005a FFF7FEFF 		bl	osalThreadSleep
 609              		.loc 5 151 0
 610 005e D9E7     		b	.L49
 611              	.L52:
 612              		.loc 5 158 0
 613 0060 00BF     		nop
 614              		.loc 5 166 0
 615 0062 0023     		movs	r3, #0
 616              	.L50:
 617              		.loc 5 167 0 discriminator 1
 618 0064 1846     		mov	r0, r3
 619 0066 054B     		ldr	r3, .L53
 620 0068 059A     		ldr	r2, [sp, #20]
 621 006a 1B68     		ldr	r3, [r3]
 622 006c 9A42     		cmp	r2, r3
 623 006e 01D0     		beq	.L51
 624              		.loc 5 167 0 is_stmt 0
 625 0070 FFF7FEFF 		bl	__stack_chk_fail
 626              	.L51:
 627 0074 07B0     		add	sp, sp, #28
ARM GAS  C:\Users\PCHAUT~1\AppData\Local\Temp\ccjQKXWT.s 			page 12


 628              		.cfi_def_cfa_offset 4
 629              		@ sp needed
 630 0076 5DF804FB 		ldr	pc, [sp], #4
 631              	.L54:
 632 007a 00BF     		.align	2
 633              	.L53:
 634 007c 00000000 		.word	__stack_chk_guard
 635 0080 0080FFC0 		.word	-1056997376
 636              		.cfi_endproc
 637              	.LFE257:
 638              		.size	mmc_init, .-mmc_init
 639              		.section	.text.sdc_init,"ax",%progbits
 640              		.align	1
 641              		.p2align 4,,15
 642              		.syntax unified
 643              		.thumb
 644              		.thumb_func
 645              		.fpu fpv4-sp-d16
 646              		.type	sdc_init, %function
 647              	sdc_init:
 648              	.LFB258:
 649              		.loc 5 180 0 is_stmt 1
 650              		.cfi_startproc
 651              		@ args = 0, pretend = 0, frame = 24
 652              		@ frame_needed = 0, uses_anonymous_args = 0
 653 0000 00B5     		push	{lr}
 654              		.cfi_def_cfa_offset 4
 655              		.cfi_offset 14, -4
 656 0002 87B0     		sub	sp, sp, #28
 657              		.cfi_def_cfa_offset 32
 658 0004 0190     		str	r0, [sp, #4]
 659              		.loc 5 180 0
 660 0006 294B     		ldr	r3, .L70
 661 0008 1B68     		ldr	r3, [r3]
 662 000a 0593     		str	r3, [sp, #20]
 663              		.loc 5 185 0
 664 000c 019B     		ldr	r3, [sp, #4]
 665 000e 1B6B     		ldr	r3, [r3, #48]
 666 0010 03F00F03 		and	r3, r3, #15
 667 0014 012B     		cmp	r3, #1
 668 0016 02D1     		bne	.L56
 669              		.loc 5 186 0
 670 0018 254B     		ldr	r3, .L70+4
 671 001a 0393     		str	r3, [sp, #12]
 672 001c 01E0     		b	.L57
 673              	.L56:
 674              		.loc 5 189 0
 675 001e 254B     		ldr	r3, .L70+8
 676 0020 0393     		str	r3, [sp, #12]
 677              	.L57:
 678              		.loc 5 192 0
 679 0022 0023     		movs	r3, #0
 680 0024 0293     		str	r3, [sp, #8]
 681              	.L66:
 682              		.loc 5 194 0
 683 0026 04AB     		add	r3, sp, #16
 684 0028 0022     		movs	r2, #0
ARM GAS  C:\Users\PCHAUT~1\AppData\Local\Temp\ccjQKXWT.s 			page 13


 685 002a 3721     		movs	r1, #55
 686 002c 0198     		ldr	r0, [sp, #4]
 687 002e FFF7FEFF 		bl	sdc_lld_send_cmd_short_crc
 688 0032 0346     		mov	r3, r0
 689 0034 002B     		cmp	r3, #0
 690 0036 04D1     		bne	.L58
 691              		.loc 5 195 0 discriminator 1
 692 0038 049A     		ldr	r2, [sp, #16]
 693 003a 1F4B     		ldr	r3, .L70+12
 694 003c 1340     		ands	r3, r3, r2
 695              		.loc 5 194 0 discriminator 1
 696 003e 002B     		cmp	r3, #0
 697 0040 01D0     		beq	.L59
 698              	.L58:
 699              		.loc 5 196 0
 700 0042 0123     		movs	r3, #1
 701 0044 27E0     		b	.L67
 702              	.L59:
 703              		.loc 5 198 0
 704 0046 04AB     		add	r3, sp, #16
 705 0048 039A     		ldr	r2, [sp, #12]
 706 004a 2921     		movs	r1, #41
 707 004c 0198     		ldr	r0, [sp, #4]
 708 004e FFF7FEFF 		bl	sdc_lld_send_cmd_short
 709 0052 0346     		mov	r3, r0
 710 0054 002B     		cmp	r3, #0
 711 0056 01D0     		beq	.L61
 712              		.loc 5 199 0
 713 0058 0123     		movs	r3, #1
 714 005a 1CE0     		b	.L67
 715              	.L61:
 716              		.loc 5 201 0
 717 005c 049B     		ldr	r3, [sp, #16]
 718 005e 002B     		cmp	r3, #0
 719 0060 0BDA     		bge	.L62
 720              		.loc 5 202 0
 721 0062 049B     		ldr	r3, [sp, #16]
 722 0064 03F08043 		and	r3, r3, #1073741824
 723 0068 002B     		cmp	r3, #0
 724 006a 12D0     		beq	.L69
 725              		.loc 5 203 0
 726 006c 019B     		ldr	r3, [sp, #4]
 727 006e 1B6B     		ldr	r3, [r3, #48]
 728 0070 43F01002 		orr	r2, r3, #16
 729 0074 019B     		ldr	r3, [sp, #4]
 730 0076 1A63     		str	r2, [r3, #48]
 731              		.loc 5 205 0
 732 0078 0BE0     		b	.L69
 733              	.L62:
 734              		.loc 5 207 0
 735 007a 029B     		ldr	r3, [sp, #8]
 736 007c 0133     		adds	r3, r3, #1
 737 007e 0293     		str	r3, [sp, #8]
 738 0080 029B     		ldr	r3, [sp, #8]
 739 0082 632B     		cmp	r3, #99
 740 0084 01D9     		bls	.L65
 741              		.loc 5 208 0
ARM GAS  C:\Users\PCHAUT~1\AppData\Local\Temp\ccjQKXWT.s 			page 14


 742 0086 0123     		movs	r3, #1
 743 0088 05E0     		b	.L67
 744              	.L65:
 745              		.loc 5 210 0
 746 008a 0A20     		movs	r0, #10
 747 008c FFF7FEFF 		bl	osalThreadSleep
 748              		.loc 5 194 0
 749 0090 C9E7     		b	.L66
 750              	.L69:
 751              		.loc 5 205 0
 752 0092 00BF     		nop
 753              		.loc 5 213 0
 754 0094 0023     		movs	r3, #0
 755              	.L67:
 756              		.loc 5 214 0 discriminator 1
 757 0096 1846     		mov	r0, r3
 758 0098 044B     		ldr	r3, .L70
 759 009a 059A     		ldr	r2, [sp, #20]
 760 009c 1B68     		ldr	r3, [r3]
 761 009e 9A42     		cmp	r2, r3
 762 00a0 01D0     		beq	.L68
 763              		.loc 5 214 0 is_stmt 0
 764 00a2 FFF7FEFF 		bl	__stack_chk_fail
 765              	.L68:
 766 00a6 07B0     		add	sp, sp, #28
 767              		.cfi_def_cfa_offset 4
 768              		@ sp needed
 769 00a8 5DF804FB 		ldr	pc, [sp], #4
 770              	.L71:
 771              		.align	2
 772              	.L70:
 773 00ac 00000000 		.word	__stack_chk_guard
 774 00b0 000010C0 		.word	-1072693248
 775 00b4 00001080 		.word	-2146435072
 776 00b8 08E0FFFD 		.word	-33562616
 777              		.cfi_endproc
 778              	.LFE258:
 779              		.size	sdc_init, .-sdc_init
 780              		.section	.text.mmc_cmd6_construct,"ax",%progbits
 781              		.align	1
 782              		.p2align 4,,15
 783              		.syntax unified
 784              		.thumb
 785              		.thumb_func
 786              		.fpu fpv4-sp-d16
 787              		.type	mmc_cmd6_construct, %function
 788              	mmc_cmd6_construct:
 789              	.LFB259:
 790              		.loc 5 229 0 is_stmt 1
 791              		.cfi_startproc
 792              		@ args = 0, pretend = 0, frame = 24
 793              		@ frame_needed = 0, uses_anonymous_args = 0
 794 0000 00B5     		push	{lr}
 795              		.cfi_def_cfa_offset 4
 796              		.cfi_offset 14, -4
 797 0002 87B0     		sub	sp, sp, #28
 798              		.cfi_def_cfa_offset 32
ARM GAS  C:\Users\PCHAUT~1\AppData\Local\Temp\ccjQKXWT.s 			page 15


 799 0004 0291     		str	r1, [sp, #8]
 800 0006 0192     		str	r2, [sp, #4]
 801 0008 0093     		str	r3, [sp]
 802 000a 0346     		mov	r3, r0
 803 000c 8DF80F30 		strb	r3, [sp, #15]
 804              		.loc 5 229 0
 805 0010 124B     		ldr	r3, .L78
 806 0012 1B68     		ldr	r3, [r3]
 807 0014 0593     		str	r3, [sp, #20]
 808              		.loc 5 231 0
 809 0016 029B     		ldr	r3, [sp, #8]
 810 0018 BF2B     		cmp	r3, #191
 811 001a 02D9     		bls	.L77
 812              		.loc 5 231 0 is_stmt 0 discriminator 2
 813 001c 1048     		ldr	r0, .L78+4
 814 001e FFF7FEFF 		bl	chSysHalt
 815              	.L77:
 816              		.loc 5 232 0 is_stmt 1 discriminator 1
 817 0022 009B     		ldr	r3, [sp]
 818 0024 072B     		cmp	r3, #7
 819 0026 02D9     		bls	.L74
 820              		.loc 5 232 0 is_stmt 0 discriminator 2
 821 0028 0D48     		ldr	r0, .L78+4
 822 002a FFF7FEFF 		bl	chSysHalt
 823              	.L74:
 824              		.loc 5 234 0 is_stmt 1
 825 002e 9DF80F30 		ldrb	r3, [sp, #15]	@ zero_extendqisi2
 826 0032 1A06     		lsls	r2, r3, #24
 827 0034 029B     		ldr	r3, [sp, #8]
 828 0036 1B04     		lsls	r3, r3, #16
 829 0038 1A43     		orrs	r2, r2, r3
 830 003a 019B     		ldr	r3, [sp, #4]
 831 003c 1B02     		lsls	r3, r3, #8
 832 003e 1A43     		orrs	r2, r2, r3
 833 0040 009B     		ldr	r3, [sp]
 834 0042 1343     		orrs	r3, r3, r2
 835              		.loc 5 235 0
 836 0044 1846     		mov	r0, r3
 837 0046 054B     		ldr	r3, .L78
 838 0048 059A     		ldr	r2, [sp, #20]
 839 004a 1B68     		ldr	r3, [r3]
 840 004c 9A42     		cmp	r2, r3
 841 004e 01D0     		beq	.L76
 842 0050 FFF7FEFF 		bl	__stack_chk_fail
 843              	.L76:
 844 0054 07B0     		add	sp, sp, #28
 845              		.cfi_def_cfa_offset 4
 846              		@ sp needed
 847 0056 5DF804FB 		ldr	pc, [sp], #4
 848              	.L79:
 849 005a 00BF     		.align	2
 850              	.L78:
 851 005c 00000000 		.word	__stack_chk_guard
 852 0060 00000000 		.word	__func__.10297
 853              		.cfi_endproc
 854              	.LFE259:
 855              		.size	mmc_cmd6_construct, .-mmc_cmd6_construct
ARM GAS  C:\Users\PCHAUT~1\AppData\Local\Temp\ccjQKXWT.s 			page 16


 856              		.section	.text.sdc_cmd6_construct,"ax",%progbits
 857              		.align	1
 858              		.p2align 4,,15
 859              		.syntax unified
 860              		.thumb
 861              		.thumb_func
 862              		.fpu fpv4-sp-d16
 863              		.type	sdc_cmd6_construct, %function
 864              	sdc_cmd6_construct:
 865              	.LFB260:
 866              		.loc 5 250 0
 867              		.cfi_startproc
 868              		@ args = 0, pretend = 0, frame = 16
 869              		@ frame_needed = 0, uses_anonymous_args = 0
 870 0000 00B5     		push	{lr}
 871              		.cfi_def_cfa_offset 4
 872              		.cfi_offset 14, -4
 873 0002 85B0     		sub	sp, sp, #20
 874              		.cfi_def_cfa_offset 24
 875 0004 0346     		mov	r3, r0
 876 0006 0092     		str	r2, [sp]
 877 0008 8DF80730 		strb	r3, [sp, #7]
 878 000c 0B46     		mov	r3, r1
 879 000e 8DF80630 		strb	r3, [sp, #6]
 880              		.loc 5 250 0
 881 0012 174B     		ldr	r3, .L84
 882 0014 1B68     		ldr	r3, [r3]
 883 0016 0393     		str	r3, [sp, #12]
 884              		.loc 5 251 0
 885 0018 6FF07F43 		mvn	r3, #-16777216
 886 001c 0293     		str	r3, [sp, #8]
 887              		.loc 5 253 0
 888 001e 009B     		ldr	r3, [sp]
 889 0020 0F2B     		cmp	r3, #15
 890 0022 02D9     		bls	.L81
 891              		.loc 5 253 0 is_stmt 0 discriminator 2
 892 0024 1348     		ldr	r0, .L84+4
 893 0026 FFF7FEFF 		bl	chSysHalt
 894              	.L81:
 895              		.loc 5 255 0 is_stmt 1
 896 002a 9DF80630 		ldrb	r3, [sp, #6]	@ zero_extendqisi2
 897 002e 9B00     		lsls	r3, r3, #2
 898 0030 0F22     		movs	r2, #15
 899 0032 02FA03F3 		lsl	r3, r2, r3
 900 0036 DB43     		mvns	r3, r3
 901 0038 029A     		ldr	r2, [sp, #8]
 902 003a 1340     		ands	r3, r3, r2
 903 003c 0293     		str	r3, [sp, #8]
 904              		.loc 5 256 0
 905 003e 9DF80630 		ldrb	r3, [sp, #6]	@ zero_extendqisi2
 906 0042 9B00     		lsls	r3, r3, #2
 907 0044 009A     		ldr	r2, [sp]
 908 0046 02FA03F3 		lsl	r3, r2, r3
 909 004a 029A     		ldr	r2, [sp, #8]
 910 004c 1343     		orrs	r3, r3, r2
 911 004e 0293     		str	r3, [sp, #8]
 912              		.loc 5 257 0
ARM GAS  C:\Users\PCHAUT~1\AppData\Local\Temp\ccjQKXWT.s 			page 17


 913 0050 9DF80730 		ldrb	r3, [sp, #7]	@ zero_extendqisi2
 914 0054 DA07     		lsls	r2, r3, #31
 915 0056 029B     		ldr	r3, [sp, #8]
 916 0058 1343     		orrs	r3, r3, r2
 917              		.loc 5 258 0
 918 005a 1846     		mov	r0, r3
 919 005c 044B     		ldr	r3, .L84
 920 005e 039A     		ldr	r2, [sp, #12]
 921 0060 1B68     		ldr	r3, [r3]
 922 0062 9A42     		cmp	r2, r3
 923 0064 01D0     		beq	.L83
 924 0066 FFF7FEFF 		bl	__stack_chk_fail
 925              	.L83:
 926 006a 05B0     		add	sp, sp, #20
 927              		.cfi_def_cfa_offset 4
 928              		@ sp needed
 929 006c 5DF804FB 		ldr	pc, [sp], #4
 930              	.L85:
 931              		.align	2
 932              	.L84:
 933 0070 00000000 		.word	__stack_chk_guard
 934 0074 00000000 		.word	__func__.10304
 935              		.cfi_endproc
 936              	.LFE260:
 937              		.size	sdc_cmd6_construct, .-sdc_cmd6_construct
 938              		.section	.text.sdc_cmd6_extract_info,"ax",%progbits
 939              		.align	1
 940              		.p2align 4,,15
 941              		.syntax unified
 942              		.thumb
 943              		.thumb_func
 944              		.fpu fpv4-sp-d16
 945              		.type	sdc_cmd6_extract_info, %function
 946              	sdc_cmd6_extract_info:
 947              	.LFB261:
 948              		.loc 5 271 0
 949              		.cfi_startproc
 950              		@ args = 0, pretend = 0, frame = 16
 951              		@ frame_needed = 0, uses_anonymous_args = 0
 952 0000 00B5     		push	{lr}
 953              		.cfi_def_cfa_offset 4
 954              		.cfi_offset 14, -4
 955 0002 85B0     		sub	sp, sp, #20
 956              		.cfi_def_cfa_offset 24
 957 0004 0346     		mov	r3, r0
 958 0006 0091     		str	r1, [sp]
 959 0008 8DF80730 		strb	r3, [sp, #7]
 960              		.loc 5 271 0
 961 000c 124B     		ldr	r3, .L89
 962 000e 1B68     		ldr	r3, [r3]
 963 0010 0393     		str	r3, [sp, #12]
 964              		.loc 5 273 0
 965 0012 9DF80720 		ldrb	r2, [sp, #7]	@ zero_extendqisi2
 966 0016 1346     		mov	r3, r2
 967 0018 DB07     		lsls	r3, r3, #31
 968 001a 9B1A     		subs	r3, r3, r2
 969 001c 5B00     		lsls	r3, r3, #1
ARM GAS  C:\Users\PCHAUT~1\AppData\Local\Temp\ccjQKXWT.s 			page 18


 970 001e 0C33     		adds	r3, r3, #12
 971 0020 0293     		str	r3, [sp, #8]
 972              		.loc 5 275 0
 973 0022 009A     		ldr	r2, [sp]
 974 0024 029B     		ldr	r3, [sp, #8]
 975 0026 1344     		add	r3, r3, r2
 976 0028 1B78     		ldrb	r3, [r3]	@ zero_extendqisi2
 977 002a 1B02     		lsls	r3, r3, #8
 978 002c 1AB2     		sxth	r2, r3
 979 002e 029B     		ldr	r3, [sp, #8]
 980 0030 0133     		adds	r3, r3, #1
 981 0032 0099     		ldr	r1, [sp]
 982 0034 0B44     		add	r3, r3, r1
 983 0036 1B78     		ldrb	r3, [r3]	@ zero_extendqisi2
 984 0038 1BB2     		sxth	r3, r3
 985 003a 1343     		orrs	r3, r3, r2
 986 003c 1BB2     		sxth	r3, r3
 987 003e 9BB2     		uxth	r3, r3
 988              		.loc 5 276 0
 989 0040 1846     		mov	r0, r3
 990 0042 054B     		ldr	r3, .L89
 991 0044 039A     		ldr	r2, [sp, #12]
 992 0046 1B68     		ldr	r3, [r3]
 993 0048 9A42     		cmp	r2, r3
 994 004a 01D0     		beq	.L88
 995 004c FFF7FEFF 		bl	__stack_chk_fail
 996              	.L88:
 997 0050 05B0     		add	sp, sp, #20
 998              		.cfi_def_cfa_offset 4
 999              		@ sp needed
 1000 0052 5DF804FB 		ldr	pc, [sp], #4
 1001              	.L90:
 1002 0056 00BF     		.align	2
 1003              	.L89:
 1004 0058 00000000 		.word	__stack_chk_guard
 1005              		.cfi_endproc
 1006              	.LFE261:
 1007              		.size	sdc_cmd6_extract_info, .-sdc_cmd6_extract_info
 1008              		.section	.text.sdc_cmd6_check_status,"ax",%progbits
 1009              		.align	1
 1010              		.p2align 4,,15
 1011              		.syntax unified
 1012              		.thumb
 1013              		.thumb_func
 1014              		.fpu fpv4-sp-d16
 1015              		.type	sdc_cmd6_check_status, %function
 1016              	sdc_cmd6_check_status:
 1017              	.LFB262:
 1018              		.loc 5 291 0
 1019              		.cfi_startproc
 1020              		@ args = 0, pretend = 0, frame = 24
 1021              		@ frame_needed = 0, uses_anonymous_args = 0
 1022 0000 00B5     		push	{lr}
 1023              		.cfi_def_cfa_offset 4
 1024              		.cfi_offset 14, -4
 1025 0002 87B0     		sub	sp, sp, #28
 1026              		.cfi_def_cfa_offset 32
ARM GAS  C:\Users\PCHAUT~1\AppData\Local\Temp\ccjQKXWT.s 			page 19


 1027 0004 0346     		mov	r3, r0
 1028 0006 0091     		str	r1, [sp]
 1029 0008 8DF80730 		strb	r3, [sp, #7]
 1030              		.loc 5 291 0
 1031 000c 154B     		ldr	r3, .L95
 1032 000e 1B68     		ldr	r3, [r3]
 1033 0010 0593     		str	r3, [sp, #20]
 1034              		.loc 5 296 0
 1035 0012 009B     		ldr	r3, [sp]
 1036 0014 0E33     		adds	r3, r3, #14
 1037 0016 1B78     		ldrb	r3, [r3]	@ zero_extendqisi2
 1038 0018 1A04     		lsls	r2, r3, #16
 1039              		.loc 5 297 0
 1040 001a 009B     		ldr	r3, [sp]
 1041 001c 0F33     		adds	r3, r3, #15
 1042 001e 1B78     		ldrb	r3, [r3]	@ zero_extendqisi2
 1043 0020 1B02     		lsls	r3, r3, #8
 1044              		.loc 5 296 0
 1045 0022 1343     		orrs	r3, r3, r2
 1046              		.loc 5 298 0
 1047 0024 009A     		ldr	r2, [sp]
 1048 0026 1032     		adds	r2, r2, #16
 1049 0028 1278     		ldrb	r2, [r2]	@ zero_extendqisi2
 1050              		.loc 5 296 0
 1051 002a 1343     		orrs	r3, r3, r2
 1052 002c 0393     		str	r3, [sp, #12]
 1053              		.loc 5 299 0
 1054 002e 9DF80730 		ldrb	r3, [sp, #7]	@ zero_extendqisi2
 1055 0032 9B00     		lsls	r3, r3, #2
 1056 0034 039A     		ldr	r2, [sp, #12]
 1057 0036 22FA03F3 		lsr	r3, r2, r3
 1058 003a 03F00F03 		and	r3, r3, #15
 1059 003e 0493     		str	r3, [sp, #16]
 1060              		.loc 5 300 0
 1061 0040 049B     		ldr	r3, [sp, #16]
 1062 0042 0F2B     		cmp	r3, #15
 1063 0044 01D0     		beq	.L92
 1064              		.loc 5 301 0
 1065 0046 0023     		movs	r3, #0
 1066 0048 00E0     		b	.L93
 1067              	.L92:
 1068              		.loc 5 303 0
 1069 004a 0123     		movs	r3, #1
 1070              	.L93:
 1071              		.loc 5 304 0
 1072 004c 1846     		mov	r0, r3
 1073 004e 054B     		ldr	r3, .L95
 1074 0050 059A     		ldr	r2, [sp, #20]
 1075 0052 1B68     		ldr	r3, [r3]
 1076 0054 9A42     		cmp	r2, r3
 1077 0056 01D0     		beq	.L94
 1078 0058 FFF7FEFF 		bl	__stack_chk_fail
 1079              	.L94:
 1080 005c 07B0     		add	sp, sp, #28
 1081              		.cfi_def_cfa_offset 4
 1082              		@ sp needed
 1083 005e 5DF804FB 		ldr	pc, [sp], #4
ARM GAS  C:\Users\PCHAUT~1\AppData\Local\Temp\ccjQKXWT.s 			page 20


 1084              	.L96:
 1085 0062 00BF     		.align	2
 1086              	.L95:
 1087 0064 00000000 		.word	__stack_chk_guard
 1088              		.cfi_endproc
 1089              	.LFE262:
 1090              		.size	sdc_cmd6_check_status, .-sdc_cmd6_check_status
 1091              		.section	.text.sdc_detect_bus_clk,"ax",%progbits
 1092              		.align	1
 1093              		.p2align 4,,15
 1094              		.syntax unified
 1095              		.thumb
 1096              		.thumb_func
 1097              		.fpu fpv4-sp-d16
 1098              		.type	sdc_detect_bus_clk, %function
 1099              	sdc_detect_bus_clk:
 1100              	.LFB263:
 1101              		.loc 5 318 0
 1102              		.cfi_startproc
 1103              		@ args = 0, pretend = 0, frame = 32
 1104              		@ frame_needed = 1, uses_anonymous_args = 0
 1105 0000 B0B5     		push	{r4, r5, r7, lr}
 1106              		.cfi_def_cfa_offset 16
 1107              		.cfi_offset 4, -16
 1108              		.cfi_offset 5, -12
 1109              		.cfi_offset 7, -8
 1110              		.cfi_offset 14, -4
 1111 0002 8AB0     		sub	sp, sp, #40
 1112              		.cfi_def_cfa_offset 56
 1113 0004 02AF     		add	r7, sp, #8
 1114              		.cfi_def_cfa 7, 48
 1115 0006 7860     		str	r0, [r7, #4]
 1116 0008 3960     		str	r1, [r7]
 1117              		.loc 5 318 0
 1118 000a 434B     		ldr	r3, .L106
 1119 000c 1B68     		ldr	r3, [r3]
 1120 000e FB61     		str	r3, [r7, #28]
 1121 0010 6B46     		mov	r3, sp
 1122 0012 1D46     		mov	r5, r3
 1123              		.loc 5 320 0
 1124 0014 4023     		movs	r3, #64
 1125 0016 FB60     		str	r3, [r7, #12]
 1126              		.loc 5 321 0
 1127 0018 FB68     		ldr	r3, [r7, #12]
 1128 001a 013B     		subs	r3, r3, #1
 1129 001c 3B61     		str	r3, [r7, #16]
 1130 001e FB68     		ldr	r3, [r7, #12]
 1131 0020 1946     		mov	r1, r3
 1132 0022 4FF00002 		mov	r2, #0
 1133 0026 4FF00003 		mov	r3, #0
 1134 002a 4FF00004 		mov	r4, #0
 1135 002e D400     		lsls	r4, r2, #3
 1136 0030 44EA5174 		orr	r4, r4, r1, lsr #29
 1137 0034 CB00     		lsls	r3, r1, #3
 1138 0036 FB68     		ldr	r3, [r7, #12]
 1139 0038 1946     		mov	r1, r3
 1140 003a 4FF00002 		mov	r2, #0
ARM GAS  C:\Users\PCHAUT~1\AppData\Local\Temp\ccjQKXWT.s 			page 21


 1141 003e 4FF00003 		mov	r3, #0
 1142 0042 4FF00004 		mov	r4, #0
 1143 0046 D400     		lsls	r4, r2, #3
 1144 0048 44EA5174 		orr	r4, r4, r1, lsr #29
 1145 004c CB00     		lsls	r3, r1, #3
 1146 004e FB68     		ldr	r3, [r7, #12]
 1147 0050 0733     		adds	r3, r3, #7
 1148 0052 DB08     		lsrs	r3, r3, #3
 1149 0054 DB00     		lsls	r3, r3, #3
 1150 0056 ADEB030D 		sub	sp, sp, r3
 1151 005a 02AB     		add	r3, sp, #8
 1152 005c 0033     		adds	r3, r3, #0
 1153 005e 7B61     		str	r3, [r7, #20]
 1154              		.loc 5 324 0
 1155 0060 3B68     		ldr	r3, [r7]
 1156 0062 0022     		movs	r2, #0
 1157 0064 1A70     		strb	r2, [r3]
 1158              		.loc 5 328 0
 1159 0066 7B68     		ldr	r3, [r7, #4]
 1160 0068 1833     		adds	r3, r3, #24
 1161 006a 7E22     		movs	r2, #126
 1162 006c 7F21     		movs	r1, #127
 1163 006e 1846     		mov	r0, r3
 1164 0070 FFF7FEFF 		bl	_mmcsd_get_slice
 1165 0074 0346     		mov	r3, r0
 1166 0076 002B     		cmp	r3, #0
 1167 0078 04D1     		bne	.L98
 1168              		.loc 5 329 0
 1169 007a 3B68     		ldr	r3, [r7]
 1170 007c 0022     		movs	r2, #0
 1171 007e 1A70     		strb	r2, [r3]
 1172              		.loc 5 330 0
 1173 0080 0023     		movs	r3, #0
 1174 0082 3CE0     		b	.L99
 1175              	.L98:
 1176              		.loc 5 334 0
 1177 0084 7969     		ldr	r1, [r7, #20]
 1178 0086 0023     		movs	r3, #0
 1179 0088 0093     		str	r3, [sp]
 1180 008a 0623     		movs	r3, #6
 1181 008c FA68     		ldr	r2, [r7, #12]
 1182 008e 7868     		ldr	r0, [r7, #4]
 1183 0090 FFF7FEFF 		bl	sdc_lld_read_special
 1184 0094 0346     		mov	r3, r0
 1185 0096 002B     		cmp	r3, #0
 1186 0098 01D0     		beq	.L100
 1187              		.loc 5 335 0
 1188 009a 0123     		movs	r3, #1
 1189 009c 2FE0     		b	.L99
 1190              	.L100:
 1191              		.loc 5 339 0
 1192 009e 7B69     		ldr	r3, [r7, #20]
 1193 00a0 1946     		mov	r1, r3
 1194 00a2 0020     		movs	r0, #0
 1195 00a4 FFF7FEFF 		bl	sdc_cmd6_extract_info
 1196 00a8 0346     		mov	r3, r0
 1197 00aa 03F00203 		and	r3, r3, #2
ARM GAS  C:\Users\PCHAUT~1\AppData\Local\Temp\ccjQKXWT.s 			page 22


 1198 00ae 022B     		cmp	r3, #2
 1199 00b0 24D1     		bne	.L101
 1200              		.loc 5 341 0
 1201 00b2 0122     		movs	r2, #1
 1202 00b4 0021     		movs	r1, #0
 1203 00b6 0120     		movs	r0, #1
 1204 00b8 FFF7FEFF 		bl	sdc_cmd6_construct
 1205 00bc B861     		str	r0, [r7, #24]
 1206              		.loc 5 344 0
 1207 00be 7969     		ldr	r1, [r7, #20]
 1208 00c0 BB69     		ldr	r3, [r7, #24]
 1209 00c2 0093     		str	r3, [sp]
 1210 00c4 0623     		movs	r3, #6
 1211 00c6 FA68     		ldr	r2, [r7, #12]
 1212 00c8 7868     		ldr	r0, [r7, #4]
 1213 00ca FFF7FEFF 		bl	sdc_lld_read_special
 1214 00ce 0346     		mov	r3, r0
 1215 00d0 002B     		cmp	r3, #0
 1216 00d2 01D0     		beq	.L102
 1217              		.loc 5 345 0
 1218 00d4 0123     		movs	r3, #1
 1219 00d6 12E0     		b	.L99
 1220              	.L102:
 1221              		.loc 5 349 0
 1222 00d8 7B69     		ldr	r3, [r7, #20]
 1223 00da 1946     		mov	r1, r3
 1224 00dc 0020     		movs	r0, #0
 1225 00de FFF7FEFF 		bl	sdc_cmd6_check_status
 1226 00e2 0346     		mov	r3, r0
 1227 00e4 83F00103 		eor	r3, r3, #1
 1228 00e8 DBB2     		uxtb	r3, r3
 1229 00ea 002B     		cmp	r3, #0
 1230 00ec 03D0     		beq	.L103
 1231              		.loc 5 350 0
 1232 00ee 3B68     		ldr	r3, [r7]
 1233 00f0 0122     		movs	r2, #1
 1234 00f2 1A70     		strb	r2, [r3]
 1235 00f4 02E0     		b	.L101
 1236              	.L103:
 1237              		.loc 5 353 0
 1238 00f6 3B68     		ldr	r3, [r7]
 1239 00f8 0022     		movs	r2, #0
 1240 00fa 1A70     		strb	r2, [r3]
 1241              	.L101:
 1242              		.loc 5 357 0
 1243 00fc 0023     		movs	r3, #0
 1244              	.L99:
 1245 00fe AD46     		mov	sp, r5
 1246              		.loc 5 358 0
 1247 0100 1846     		mov	r0, r3
 1248 0102 054B     		ldr	r3, .L106
 1249 0104 FA69     		ldr	r2, [r7, #28]
 1250 0106 1B68     		ldr	r3, [r3]
 1251 0108 9A42     		cmp	r2, r3
 1252 010a 01D0     		beq	.L105
 1253 010c FFF7FEFF 		bl	__stack_chk_fail
 1254              	.L105:
ARM GAS  C:\Users\PCHAUT~1\AppData\Local\Temp\ccjQKXWT.s 			page 23


 1255 0110 2037     		adds	r7, r7, #32
 1256              		.cfi_def_cfa_offset 16
 1257 0112 BD46     		mov	sp, r7
 1258              		.cfi_def_cfa_register 13
 1259              		@ sp needed
 1260 0114 B0BD     		pop	{r4, r5, r7, pc}
 1261              	.L107:
 1262 0116 00BF     		.align	2
 1263              	.L106:
 1264 0118 00000000 		.word	__stack_chk_guard
 1265              		.cfi_endproc
 1266              	.LFE263:
 1267              		.size	sdc_detect_bus_clk, .-sdc_detect_bus_clk
 1268              		.section	.text.mmc_detect_bus_clk,"ax",%progbits
 1269              		.align	1
 1270              		.p2align 4,,15
 1271              		.syntax unified
 1272              		.thumb
 1273              		.thumb_func
 1274              		.fpu fpv4-sp-d16
 1275              		.type	mmc_detect_bus_clk, %function
 1276              	mmc_detect_bus_clk:
 1277              	.LFB264:
 1278              		.loc 5 372 0
 1279              		.cfi_startproc
 1280              		@ args = 0, pretend = 0, frame = 24
 1281              		@ frame_needed = 0, uses_anonymous_args = 0
 1282 0000 00B5     		push	{lr}
 1283              		.cfi_def_cfa_offset 4
 1284              		.cfi_offset 14, -4
 1285 0002 87B0     		sub	sp, sp, #28
 1286              		.cfi_def_cfa_offset 32
 1287 0004 0190     		str	r0, [sp, #4]
 1288 0006 0091     		str	r1, [sp]
 1289              		.loc 5 372 0
 1290 0008 1A4B     		ldr	r3, .L114
 1291 000a 1B68     		ldr	r3, [r3]
 1292 000c 0593     		str	r3, [sp, #20]
 1293              		.loc 5 375 0
 1294 000e 019B     		ldr	r3, [sp, #4]
 1295 0010 DB6A     		ldr	r3, [r3, #44]
 1296 0012 1B68     		ldr	r3, [r3]
 1297 0014 0293     		str	r3, [sp, #8]
 1298              		.loc 5 378 0
 1299 0016 009B     		ldr	r3, [sp]
 1300 0018 0022     		movs	r2, #0
 1301 001a 1A70     		strb	r2, [r3]
 1302              		.loc 5 381 0
 1303 001c 029B     		ldr	r3, [sp, #8]
 1304 001e 002B     		cmp	r3, #0
 1305 0020 01D1     		bne	.L109
 1306              		.loc 5 382 0
 1307 0022 0023     		movs	r3, #0
 1308 0024 1BE0     		b	.L112
 1309              	.L109:
 1310              		.loc 5 385 0
 1311 0026 0023     		movs	r3, #0
ARM GAS  C:\Users\PCHAUT~1\AppData\Local\Temp\ccjQKXWT.s 			page 24


 1312 0028 0122     		movs	r2, #1
 1313 002a B921     		movs	r1, #185
 1314 002c 0320     		movs	r0, #3
 1315 002e FFF7FEFF 		bl	mmc_cmd6_construct
 1316 0032 0390     		str	r0, [sp, #12]
 1317              		.loc 5 386 0
 1318 0034 04AB     		add	r3, sp, #16
 1319 0036 039A     		ldr	r2, [sp, #12]
 1320 0038 0621     		movs	r1, #6
 1321 003a 0198     		ldr	r0, [sp, #4]
 1322 003c FFF7FEFF 		bl	sdc_lld_send_cmd_short_crc
 1323 0040 0346     		mov	r3, r0
 1324 0042 83F00103 		eor	r3, r3, #1
 1325 0046 DBB2     		uxtb	r3, r3
 1326 0048 002B     		cmp	r3, #0
 1327 004a 07D0     		beq	.L111
 1328              		.loc 5 387 0 discriminator 1
 1329 004c 049A     		ldr	r2, [sp, #16]
 1330 004e 0A4B     		ldr	r3, .L114+4
 1331 0050 1340     		ands	r3, r3, r2
 1332              		.loc 5 386 0 discriminator 1
 1333 0052 002B     		cmp	r3, #0
 1334 0054 02D1     		bne	.L111
 1335              		.loc 5 388 0
 1336 0056 009B     		ldr	r3, [sp]
 1337 0058 0122     		movs	r2, #1
 1338 005a 1A70     		strb	r2, [r3]
 1339              	.L111:
 1340              		.loc 5 391 0
 1341 005c 0023     		movs	r3, #0
 1342              	.L112:
 1343              		.loc 5 392 0 discriminator 1
 1344 005e 1846     		mov	r0, r3
 1345 0060 044B     		ldr	r3, .L114
 1346 0062 059A     		ldr	r2, [sp, #20]
 1347 0064 1B68     		ldr	r3, [r3]
 1348 0066 9A42     		cmp	r2, r3
 1349 0068 01D0     		beq	.L113
 1350              		.loc 5 392 0 is_stmt 0
 1351 006a FFF7FEFF 		bl	__stack_chk_fail
 1352              	.L113:
 1353 006e 07B0     		add	sp, sp, #28
 1354              		.cfi_def_cfa_offset 4
 1355              		@ sp needed
 1356 0070 5DF804FB 		ldr	pc, [sp], #4
 1357              	.L115:
 1358              		.align	2
 1359              	.L114:
 1360 0074 00000000 		.word	__stack_chk_guard
 1361 0078 08E0FFFD 		.word	-33562616
 1362              		.cfi_endproc
 1363              	.LFE264:
 1364              		.size	mmc_detect_bus_clk, .-mmc_detect_bus_clk
 1365              		.section	.text.detect_bus_clk,"ax",%progbits
 1366              		.align	1
 1367              		.p2align 4,,15
 1368              		.syntax unified
ARM GAS  C:\Users\PCHAUT~1\AppData\Local\Temp\ccjQKXWT.s 			page 25


 1369              		.thumb
 1370              		.thumb_func
 1371              		.fpu fpv4-sp-d16
 1372              		.type	detect_bus_clk, %function
 1373              	detect_bus_clk:
 1374              	.LFB265:
 1375              		.loc 5 406 0 is_stmt 1
 1376              		.cfi_startproc
 1377              		@ args = 0, pretend = 0, frame = 16
 1378              		@ frame_needed = 0, uses_anonymous_args = 0
 1379 0000 00B5     		push	{lr}
 1380              		.cfi_def_cfa_offset 4
 1381              		.cfi_offset 14, -4
 1382 0002 85B0     		sub	sp, sp, #20
 1383              		.cfi_def_cfa_offset 24
 1384 0004 0190     		str	r0, [sp, #4]
 1385 0006 0091     		str	r1, [sp]
 1386              		.loc 5 406 0
 1387 0008 0F4B     		ldr	r3, .L120
 1388 000a 1B68     		ldr	r3, [r3]
 1389 000c 0393     		str	r3, [sp, #12]
 1390              		.loc 5 408 0
 1391 000e 019B     		ldr	r3, [sp, #4]
 1392 0010 1B6B     		ldr	r3, [r3, #48]
 1393 0012 03F00F03 		and	r3, r3, #15
 1394 0016 022B     		cmp	r3, #2
 1395 0018 05D1     		bne	.L117
 1396              		.loc 5 409 0
 1397 001a 0099     		ldr	r1, [sp]
 1398 001c 0198     		ldr	r0, [sp, #4]
 1399 001e FFF7FEFF 		bl	mmc_detect_bus_clk
 1400 0022 0346     		mov	r3, r0
 1401 0024 04E0     		b	.L118
 1402              	.L117:
 1403              		.loc 5 411 0
 1404 0026 0099     		ldr	r1, [sp]
 1405 0028 0198     		ldr	r0, [sp, #4]
 1406 002a FFF7FEFF 		bl	sdc_detect_bus_clk
 1407 002e 0346     		mov	r3, r0
 1408              	.L118:
 1409              		.loc 5 412 0
 1410 0030 1846     		mov	r0, r3
 1411 0032 054B     		ldr	r3, .L120
 1412 0034 039A     		ldr	r2, [sp, #12]
 1413 0036 1B68     		ldr	r3, [r3]
 1414 0038 9A42     		cmp	r2, r3
 1415 003a 01D0     		beq	.L119
 1416 003c FFF7FEFF 		bl	__stack_chk_fail
 1417              	.L119:
 1418 0040 05B0     		add	sp, sp, #20
 1419              		.cfi_def_cfa_offset 4
 1420              		@ sp needed
 1421 0042 5DF804FB 		ldr	pc, [sp], #4
 1422              	.L121:
 1423 0046 00BF     		.align	2
 1424              	.L120:
 1425 0048 00000000 		.word	__stack_chk_guard
ARM GAS  C:\Users\PCHAUT~1\AppData\Local\Temp\ccjQKXWT.s 			page 26


 1426              		.cfi_endproc
 1427              	.LFE265:
 1428              		.size	detect_bus_clk, .-detect_bus_clk
 1429              		.section	.text.sdc_set_bus_width,"ax",%progbits
 1430              		.align	1
 1431              		.p2align 4,,15
 1432              		.syntax unified
 1433              		.thumb
 1434              		.thumb_func
 1435              		.fpu fpv4-sp-d16
 1436              		.type	sdc_set_bus_width, %function
 1437              	sdc_set_bus_width:
 1438              	.LFB266:
 1439              		.loc 5 425 0
 1440              		.cfi_startproc
 1441              		@ args = 0, pretend = 0, frame = 16
 1442              		@ frame_needed = 0, uses_anonymous_args = 0
 1443 0000 00B5     		push	{lr}
 1444              		.cfi_def_cfa_offset 4
 1445              		.cfi_offset 14, -4
 1446 0002 85B0     		sub	sp, sp, #20
 1447              		.cfi_def_cfa_offset 24
 1448 0004 0190     		str	r0, [sp, #4]
 1449              		.loc 5 425 0
 1450 0006 214B     		ldr	r3, .L132
 1451 0008 1B68     		ldr	r3, [r3]
 1452 000a 0393     		str	r3, [sp, #12]
 1453              		.loc 5 428 0
 1454 000c 019B     		ldr	r3, [sp, #4]
 1455 000e DB6A     		ldr	r3, [r3, #44]
 1456 0010 1B79     		ldrb	r3, [r3, #4]	@ zero_extendqisi2
 1457 0012 002B     		cmp	r3, #0
 1458 0014 01D1     		bne	.L123
 1459              		.loc 5 430 0
 1460 0016 0023     		movs	r3, #0
 1461 0018 2CE0     		b	.L130
 1462              	.L123:
 1463              		.loc 5 432 0
 1464 001a 019B     		ldr	r3, [sp, #4]
 1465 001c DB6A     		ldr	r3, [r3, #44]
 1466 001e 1B79     		ldrb	r3, [r3, #4]	@ zero_extendqisi2
 1467 0020 012B     		cmp	r3, #1
 1468 0022 24D1     		bne	.L125
 1469              		.loc 5 433 0
 1470 0024 0121     		movs	r1, #1
 1471 0026 0198     		ldr	r0, [sp, #4]
 1472 0028 FFF7FEFF 		bl	sdc_lld_set_bus_mode
 1473              		.loc 5 434 0
 1474 002c 019B     		ldr	r3, [sp, #4]
 1475 002e 9A6B     		ldr	r2, [r3, #56]
 1476 0030 02AB     		add	r3, sp, #8
 1477 0032 3721     		movs	r1, #55
 1478 0034 0198     		ldr	r0, [sp, #4]
 1479 0036 FFF7FEFF 		bl	sdc_lld_send_cmd_short_crc
 1480 003a 0346     		mov	r3, r0
 1481 003c 002B     		cmp	r3, #0
 1482 003e 04D1     		bne	.L126
ARM GAS  C:\Users\PCHAUT~1\AppData\Local\Temp\ccjQKXWT.s 			page 27


 1483              		.loc 5 435 0 discriminator 1
 1484 0040 029A     		ldr	r2, [sp, #8]
 1485 0042 134B     		ldr	r3, .L132+4
 1486 0044 1340     		ands	r3, r3, r2
 1487              		.loc 5 434 0 discriminator 1
 1488 0046 002B     		cmp	r3, #0
 1489 0048 01D0     		beq	.L127
 1490              	.L126:
 1491              		.loc 5 436 0
 1492 004a 0123     		movs	r3, #1
 1493 004c 12E0     		b	.L130
 1494              	.L127:
 1495              		.loc 5 439 0
 1496 004e 02AB     		add	r3, sp, #8
 1497 0050 0222     		movs	r2, #2
 1498 0052 0621     		movs	r1, #6
 1499 0054 0198     		ldr	r0, [sp, #4]
 1500 0056 FFF7FEFF 		bl	sdc_lld_send_cmd_short_crc
 1501 005a 0346     		mov	r3, r0
 1502 005c 002B     		cmp	r3, #0
 1503 005e 04D1     		bne	.L128
 1504              		.loc 5 440 0 discriminator 1
 1505 0060 029A     		ldr	r2, [sp, #8]
 1506 0062 0B4B     		ldr	r3, .L132+4
 1507 0064 1340     		ands	r3, r3, r2
 1508              		.loc 5 439 0 discriminator 1
 1509 0066 002B     		cmp	r3, #0
 1510 0068 03D0     		beq	.L129
 1511              	.L128:
 1512              		.loc 5 441 0
 1513 006a 0123     		movs	r3, #1
 1514 006c 02E0     		b	.L130
 1515              	.L125:
 1516              		.loc 5 446 0
 1517 006e 0123     		movs	r3, #1
 1518 0070 00E0     		b	.L130
 1519              	.L129:
 1520              		.loc 5 449 0
 1521 0072 0023     		movs	r3, #0
 1522              	.L130:
 1523              		.loc 5 450 0 discriminator 1
 1524 0074 1846     		mov	r0, r3
 1525 0076 054B     		ldr	r3, .L132
 1526 0078 039A     		ldr	r2, [sp, #12]
 1527 007a 1B68     		ldr	r3, [r3]
 1528 007c 9A42     		cmp	r2, r3
 1529 007e 01D0     		beq	.L131
 1530              		.loc 5 450 0 is_stmt 0
 1531 0080 FFF7FEFF 		bl	__stack_chk_fail
 1532              	.L131:
 1533 0084 05B0     		add	sp, sp, #20
 1534              		.cfi_def_cfa_offset 4
 1535              		@ sp needed
 1536 0086 5DF804FB 		ldr	pc, [sp], #4
 1537              	.L133:
 1538 008a 00BF     		.align	2
 1539              	.L132:
ARM GAS  C:\Users\PCHAUT~1\AppData\Local\Temp\ccjQKXWT.s 			page 28


 1540 008c 00000000 		.word	__stack_chk_guard
 1541 0090 08E0FFFD 		.word	-33562616
 1542              		.cfi_endproc
 1543              	.LFE266:
 1544              		.size	sdc_set_bus_width, .-sdc_set_bus_width
 1545              		.section	.text.mmc_set_bus_width,"ax",%progbits
 1546              		.align	1
 1547              		.p2align 4,,15
 1548              		.syntax unified
 1549              		.thumb
 1550              		.thumb_func
 1551              		.fpu fpv4-sp-d16
 1552              		.type	mmc_set_bus_width, %function
 1553              	mmc_set_bus_width:
 1554              	.LFB267:
 1555              		.loc 5 463 0 is_stmt 1
 1556              		.cfi_startproc
 1557              		@ args = 0, pretend = 0, frame = 24
 1558              		@ frame_needed = 0, uses_anonymous_args = 0
 1559 0000 00B5     		push	{lr}
 1560              		.cfi_def_cfa_offset 4
 1561              		.cfi_offset 14, -4
 1562 0002 87B0     		sub	sp, sp, #28
 1563              		.cfi_def_cfa_offset 32
 1564 0004 0190     		str	r0, [sp, #4]
 1565              		.loc 5 463 0
 1566 0006 264B     		ldr	r3, .L147
 1567 0008 1B68     		ldr	r3, [r3]
 1568 000a 0593     		str	r3, [sp, #20]
 1569              		.loc 5 465 0
 1570 000c 0023     		movs	r3, #0
 1571 000e 0022     		movs	r2, #0
 1572 0010 B721     		movs	r1, #183
 1573 0012 0320     		movs	r0, #3
 1574 0014 FFF7FEFF 		bl	mmc_cmd6_construct
 1575 0018 0390     		str	r0, [sp, #12]
 1576              		.loc 5 467 0
 1577 001a 019B     		ldr	r3, [sp, #4]
 1578 001c DB6A     		ldr	r3, [r3, #44]
 1579 001e 1B79     		ldrb	r3, [r3, #4]	@ zero_extendqisi2
 1580 0020 012B     		cmp	r3, #1
 1581 0022 05D0     		beq	.L136
 1582 0024 022B     		cmp	r3, #2
 1583 0026 0BD0     		beq	.L137
 1584 0028 002B     		cmp	r3, #0
 1585 002a 11D1     		bne	.L146
 1586              		.loc 5 470 0
 1587 002c 0023     		movs	r3, #0
 1588 002e 2BE0     		b	.L143
 1589              	.L136:
 1590              		.loc 5 472 0
 1591 0030 0023     		movs	r3, #0
 1592 0032 0122     		movs	r2, #1
 1593 0034 B721     		movs	r1, #183
 1594 0036 0320     		movs	r0, #3
 1595 0038 FFF7FEFF 		bl	mmc_cmd6_construct
 1596 003c 0390     		str	r0, [sp, #12]
ARM GAS  C:\Users\PCHAUT~1\AppData\Local\Temp\ccjQKXWT.s 			page 29


 1597              		.loc 5 473 0
 1598 003e 0BE0     		b	.L140
 1599              	.L137:
 1600              		.loc 5 475 0
 1601 0040 0023     		movs	r3, #0
 1602 0042 0222     		movs	r2, #2
 1603 0044 B721     		movs	r1, #183
 1604 0046 0320     		movs	r0, #3
 1605 0048 FFF7FEFF 		bl	mmc_cmd6_construct
 1606 004c 0390     		str	r0, [sp, #12]
 1607              		.loc 5 476 0
 1608 004e 03E0     		b	.L140
 1609              	.L146:
 1610              		.loc 5 478 0 discriminator 2
 1611 0050 1448     		ldr	r0, .L147+4
 1612 0052 FFF7FEFF 		bl	chSysHalt
 1613              		.loc 5 479 0 discriminator 2
 1614 0056 00BF     		nop
 1615              	.L140:
 1616              		.loc 5 482 0
 1617 0058 019B     		ldr	r3, [sp, #4]
 1618 005a DB6A     		ldr	r3, [r3, #44]
 1619 005c 1B79     		ldrb	r3, [r3, #4]	@ zero_extendqisi2
 1620 005e 1946     		mov	r1, r3
 1621 0060 0198     		ldr	r0, [sp, #4]
 1622 0062 FFF7FEFF 		bl	sdc_lld_set_bus_mode
 1623              		.loc 5 483 0
 1624 0066 04AB     		add	r3, sp, #16
 1625 0068 039A     		ldr	r2, [sp, #12]
 1626 006a 0621     		movs	r1, #6
 1627 006c 0198     		ldr	r0, [sp, #4]
 1628 006e FFF7FEFF 		bl	sdc_lld_send_cmd_short_crc
 1629 0072 0346     		mov	r3, r0
 1630 0074 002B     		cmp	r3, #0
 1631 0076 04D1     		bne	.L141
 1632              		.loc 5 484 0 discriminator 1
 1633 0078 049A     		ldr	r2, [sp, #16]
 1634 007a 0B4B     		ldr	r3, .L147+8
 1635 007c 1340     		ands	r3, r3, r2
 1636              		.loc 5 483 0 discriminator 1
 1637 007e 002B     		cmp	r3, #0
 1638 0080 01D0     		beq	.L142
 1639              	.L141:
 1640              		.loc 5 485 0
 1641 0082 0123     		movs	r3, #1
 1642 0084 00E0     		b	.L143
 1643              	.L142:
 1644              		.loc 5 488 0
 1645 0086 0023     		movs	r3, #0
 1646              	.L143:
 1647              		.loc 5 489 0 discriminator 1
 1648 0088 1846     		mov	r0, r3
 1649 008a 054B     		ldr	r3, .L147
 1650 008c 059A     		ldr	r2, [sp, #20]
 1651 008e 1B68     		ldr	r3, [r3]
 1652 0090 9A42     		cmp	r2, r3
 1653 0092 01D0     		beq	.L144
ARM GAS  C:\Users\PCHAUT~1\AppData\Local\Temp\ccjQKXWT.s 			page 30


 1654              		.loc 5 489 0 is_stmt 0
 1655 0094 FFF7FEFF 		bl	__stack_chk_fail
 1656              	.L144:
 1657 0098 07B0     		add	sp, sp, #28
 1658              		.cfi_def_cfa_offset 4
 1659              		@ sp needed
 1660 009a 5DF804FB 		ldr	pc, [sp], #4
 1661              	.L148:
 1662 009e 00BF     		.align	2
 1663              	.L147:
 1664 00a0 00000000 		.word	__stack_chk_guard
 1665 00a4 00000000 		.word	__func__.10348
 1666 00a8 08E0FFFD 		.word	-33562616
 1667              		.cfi_endproc
 1668              	.LFE267:
 1669              		.size	mmc_set_bus_width, .-mmc_set_bus_width
 1670              		.section	.text._sdc_wait_for_transfer_state,"ax",%progbits
 1671              		.align	1
 1672              		.p2align 4,,15
 1673              		.global	_sdc_wait_for_transfer_state
 1674              		.syntax unified
 1675              		.thumb
 1676              		.thumb_func
 1677              		.fpu fpv4-sp-d16
 1678              		.type	_sdc_wait_for_transfer_state, %function
 1679              	_sdc_wait_for_transfer_state:
 1680              	.LFB268:
 1681              		.loc 5 502 0 is_stmt 1
 1682              		.cfi_startproc
 1683              		@ args = 0, pretend = 0, frame = 16
 1684              		@ frame_needed = 0, uses_anonymous_args = 0
 1685 0000 00B5     		push	{lr}
 1686              		.cfi_def_cfa_offset 4
 1687              		.cfi_offset 14, -4
 1688 0002 85B0     		sub	sp, sp, #20
 1689              		.cfi_def_cfa_offset 24
 1690 0004 0190     		str	r0, [sp, #4]
 1691              		.loc 5 502 0
 1692 0006 184B     		ldr	r3, .L160
 1693 0008 1B68     		ldr	r3, [r3]
 1694 000a 0393     		str	r3, [sp, #12]
 1695              	.L156:
 1696              		.loc 5 506 0
 1697 000c 019B     		ldr	r3, [sp, #4]
 1698 000e 9A6B     		ldr	r2, [r3, #56]
 1699 0010 02AB     		add	r3, sp, #8
 1700 0012 0D21     		movs	r1, #13
 1701 0014 0198     		ldr	r0, [sp, #4]
 1702 0016 FFF7FEFF 		bl	sdc_lld_send_cmd_short_crc
 1703 001a 0346     		mov	r3, r0
 1704 001c 002B     		cmp	r3, #0
 1705 001e 04D1     		bne	.L150
 1706              		.loc 5 508 0
 1707 0020 029A     		ldr	r2, [sp, #8]
 1708 0022 124B     		ldr	r3, .L160+4
 1709 0024 1340     		ands	r3, r3, r2
 1710              		.loc 5 507 0
ARM GAS  C:\Users\PCHAUT~1\AppData\Local\Temp\ccjQKXWT.s 			page 31


 1711 0026 002B     		cmp	r3, #0
 1712 0028 01D0     		beq	.L151
 1713              	.L150:
 1714              		.loc 5 509 0
 1715 002a 0123     		movs	r3, #1
 1716 002c 11E0     		b	.L157
 1717              	.L151:
 1718              		.loc 5 512 0
 1719 002e 029B     		ldr	r3, [sp, #8]
 1720 0030 5B0A     		lsrs	r3, r3, #9
 1721 0032 03F00F03 		and	r3, r3, #15
 1722 0036 042B     		cmp	r3, #4
 1723 0038 04D0     		beq	.L154
 1724 003a 042B     		cmp	r3, #4
 1725 003c 08D3     		bcc	.L153
 1726 003e 072B     		cmp	r3, #7
 1727 0040 06D8     		bhi	.L153
 1728 0042 01E0     		b	.L159
 1729              	.L154:
 1730              		.loc 5 514 0
 1731 0044 0023     		movs	r3, #0
 1732 0046 04E0     		b	.L157
 1733              	.L159:
 1734              		.loc 5 519 0
 1735 0048 0120     		movs	r0, #1
 1736 004a FFF7FEFF 		bl	osalThreadSleep
 1737              		.loc 5 506 0
 1738 004e DDE7     		b	.L156
 1739              	.L153:
 1740              		.loc 5 525 0
 1741 0050 0123     		movs	r3, #1
 1742              	.L157:
 1743              		.loc 5 528 0 discriminator 1
 1744 0052 1846     		mov	r0, r3
 1745 0054 044B     		ldr	r3, .L160
 1746 0056 039A     		ldr	r2, [sp, #12]
 1747 0058 1B68     		ldr	r3, [r3]
 1748 005a 9A42     		cmp	r2, r3
 1749 005c 01D0     		beq	.L158
 1750              		.loc 5 528 0 is_stmt 0
 1751 005e FFF7FEFF 		bl	__stack_chk_fail
 1752              	.L158:
 1753 0062 05B0     		add	sp, sp, #20
 1754              		.cfi_def_cfa_offset 4
 1755              		@ sp needed
 1756 0064 5DF804FB 		ldr	pc, [sp], #4
 1757              	.L161:
 1758              		.align	2
 1759              	.L160:
 1760 0068 00000000 		.word	__stack_chk_guard
 1761 006c 08E0FFFD 		.word	-33562616
 1762              		.cfi_endproc
 1763              	.LFE268:
 1764              		.size	_sdc_wait_for_transfer_state, .-_sdc_wait_for_transfer_state
 1765              		.section	.text.sdcInit,"ax",%progbits
 1766              		.align	1
 1767              		.p2align 4,,15
ARM GAS  C:\Users\PCHAUT~1\AppData\Local\Temp\ccjQKXWT.s 			page 32


 1768              		.global	sdcInit
 1769              		.syntax unified
 1770              		.thumb
 1771              		.thumb_func
 1772              		.fpu fpv4-sp-d16
 1773              		.type	sdcInit, %function
 1774              	sdcInit:
 1775              	.LFB269:
 1776              		.loc 5 541 0 is_stmt 1
 1777              		.cfi_startproc
 1778              		@ args = 0, pretend = 0, frame = 8
 1779              		@ frame_needed = 0, uses_anonymous_args = 0
 1780 0000 00B5     		push	{lr}
 1781              		.cfi_def_cfa_offset 4
 1782              		.cfi_offset 14, -4
 1783 0002 83B0     		sub	sp, sp, #12
 1784              		.cfi_def_cfa_offset 16
 1785              		.loc 5 541 0
 1786 0004 074B     		ldr	r3, .L164
 1787 0006 1B68     		ldr	r3, [r3]
 1788 0008 0193     		str	r3, [sp, #4]
 1789              		.loc 5 543 0
 1790 000a FFF7FEFF 		bl	sdc_lld_init
 1791              		.loc 5 544 0
 1792 000e 00BF     		nop
 1793 0010 044B     		ldr	r3, .L164
 1794 0012 019A     		ldr	r2, [sp, #4]
 1795 0014 1B68     		ldr	r3, [r3]
 1796 0016 9A42     		cmp	r2, r3
 1797 0018 01D0     		beq	.L163
 1798 001a FFF7FEFF 		bl	__stack_chk_fail
 1799              	.L163:
 1800 001e 03B0     		add	sp, sp, #12
 1801              		.cfi_def_cfa_offset 4
 1802              		@ sp needed
 1803 0020 5DF804FB 		ldr	pc, [sp], #4
 1804              	.L165:
 1805              		.align	2
 1806              	.L164:
 1807 0024 00000000 		.word	__stack_chk_guard
 1808              		.cfi_endproc
 1809              	.LFE269:
 1810              		.size	sdcInit, .-sdcInit
 1811              		.section	.text.sdcObjectInit,"ax",%progbits
 1812              		.align	1
 1813              		.p2align 4,,15
 1814              		.global	sdcObjectInit
 1815              		.syntax unified
 1816              		.thumb
 1817              		.thumb_func
 1818              		.fpu fpv4-sp-d16
 1819              		.type	sdcObjectInit, %function
 1820              	sdcObjectInit:
 1821              	.LFB270:
 1822              		.loc 5 553 0
 1823              		.cfi_startproc
 1824              		@ args = 0, pretend = 0, frame = 16
ARM GAS  C:\Users\PCHAUT~1\AppData\Local\Temp\ccjQKXWT.s 			page 33


 1825              		@ frame_needed = 0, uses_anonymous_args = 0
 1826 0000 00B5     		push	{lr}
 1827              		.cfi_def_cfa_offset 4
 1828              		.cfi_offset 14, -4
 1829 0002 85B0     		sub	sp, sp, #20
 1830              		.cfi_def_cfa_offset 24
 1831 0004 0190     		str	r0, [sp, #4]
 1832              		.loc 5 553 0
 1833 0006 0E4B     		ldr	r3, .L168
 1834 0008 1B68     		ldr	r3, [r3]
 1835 000a 0393     		str	r3, [sp, #12]
 1836              		.loc 5 555 0
 1837 000c 019B     		ldr	r3, [sp, #4]
 1838 000e 0D4A     		ldr	r2, .L168+4
 1839 0010 1A60     		str	r2, [r3]
 1840              		.loc 5 556 0
 1841 0012 019B     		ldr	r3, [sp, #4]
 1842 0014 0122     		movs	r2, #1
 1843 0016 1A71     		strb	r2, [r3, #4]
 1844              		.loc 5 557 0
 1845 0018 019B     		ldr	r3, [sp, #4]
 1846 001a 0022     		movs	r2, #0
 1847 001c 5A63     		str	r2, [r3, #52]
 1848              		.loc 5 558 0
 1849 001e 019B     		ldr	r3, [sp, #4]
 1850 0020 0022     		movs	r2, #0
 1851 0022 DA62     		str	r2, [r3, #44]
 1852              		.loc 5 559 0
 1853 0024 019B     		ldr	r3, [sp, #4]
 1854 0026 0022     		movs	r2, #0
 1855 0028 9A62     		str	r2, [r3, #40]
 1856              		.loc 5 560 0
 1857 002a 00BF     		nop
 1858 002c 044B     		ldr	r3, .L168
 1859 002e 039A     		ldr	r2, [sp, #12]
 1860 0030 1B68     		ldr	r3, [r3]
 1861 0032 9A42     		cmp	r2, r3
 1862 0034 01D0     		beq	.L167
 1863 0036 FFF7FEFF 		bl	__stack_chk_fail
 1864              	.L167:
 1865 003a 05B0     		add	sp, sp, #20
 1866              		.cfi_def_cfa_offset 4
 1867              		@ sp needed
 1868 003c 5DF804FB 		ldr	pc, [sp], #4
 1869              	.L169:
 1870              		.align	2
 1871              	.L168:
 1872 0040 00000000 		.word	__stack_chk_guard
 1873 0044 00000000 		.word	sdc_vmt
 1874              		.cfi_endproc
 1875              	.LFE270:
 1876              		.size	sdcObjectInit, .-sdcObjectInit
 1877              		.section	.text.sdcStart,"ax",%progbits
 1878              		.align	1
 1879              		.p2align 4,,15
 1880              		.global	sdcStart
 1881              		.syntax unified
ARM GAS  C:\Users\PCHAUT~1\AppData\Local\Temp\ccjQKXWT.s 			page 34


 1882              		.thumb
 1883              		.thumb_func
 1884              		.fpu fpv4-sp-d16
 1885              		.type	sdcStart, %function
 1886              	sdcStart:
 1887              	.LFB271:
 1888              		.loc 5 572 0
 1889              		.cfi_startproc
 1890              		@ args = 0, pretend = 0, frame = 16
 1891              		@ frame_needed = 0, uses_anonymous_args = 0
 1892 0000 00B5     		push	{lr}
 1893              		.cfi_def_cfa_offset 4
 1894              		.cfi_offset 14, -4
 1895 0002 85B0     		sub	sp, sp, #20
 1896              		.cfi_def_cfa_offset 24
 1897 0004 0190     		str	r0, [sp, #4]
 1898 0006 0091     		str	r1, [sp]
 1899              		.loc 5 572 0
 1900 0008 154B     		ldr	r3, .L174
 1901 000a 1B68     		ldr	r3, [r3]
 1902 000c 0393     		str	r3, [sp, #12]
 1903              		.loc 5 574 0
 1904 000e 019B     		ldr	r3, [sp, #4]
 1905 0010 002B     		cmp	r3, #0
 1906 0012 02D1     		bne	.L171
 1907              		.loc 5 574 0 is_stmt 0 discriminator 2
 1908 0014 1348     		ldr	r0, .L174+4
 1909 0016 FFF7FEFF 		bl	chSysHalt
 1910              	.L171:
 1911              		.loc 5 576 0 is_stmt 1
 1912 001a FFF7FEFF 		bl	osalSysLock
 1913              		.loc 5 577 0
 1914 001e 019B     		ldr	r3, [sp, #4]
 1915 0020 1B79     		ldrb	r3, [r3, #4]	@ zero_extendqisi2
 1916 0022 012B     		cmp	r3, #1
 1917 0024 06D0     		beq	.L172
 1918              		.loc 5 577 0 is_stmt 0 discriminator 2
 1919 0026 019B     		ldr	r3, [sp, #4]
 1920 0028 1B79     		ldrb	r3, [r3, #4]	@ zero_extendqisi2
 1921 002a 022B     		cmp	r3, #2
 1922 002c 02D0     		beq	.L172
 1923              		.loc 5 577 0 discriminator 3
 1924 002e 0D48     		ldr	r0, .L174+4
 1925 0030 FFF7FEFF 		bl	chSysHalt
 1926              	.L172:
 1927              		.loc 5 579 0 is_stmt 1
 1928 0034 019B     		ldr	r3, [sp, #4]
 1929 0036 009A     		ldr	r2, [sp]
 1930 0038 DA62     		str	r2, [r3, #44]
 1931              		.loc 5 580 0
 1932 003a 0198     		ldr	r0, [sp, #4]
 1933 003c FFF7FEFF 		bl	sdc_lld_start
 1934              		.loc 5 581 0
 1935 0040 019B     		ldr	r3, [sp, #4]
 1936 0042 0222     		movs	r2, #2
 1937 0044 1A71     		strb	r2, [r3, #4]
 1938              		.loc 5 582 0
ARM GAS  C:\Users\PCHAUT~1\AppData\Local\Temp\ccjQKXWT.s 			page 35


 1939 0046 FFF7FEFF 		bl	osalSysUnlock
 1940              		.loc 5 583 0
 1941 004a 00BF     		nop
 1942 004c 044B     		ldr	r3, .L174
 1943 004e 039A     		ldr	r2, [sp, #12]
 1944 0050 1B68     		ldr	r3, [r3]
 1945 0052 9A42     		cmp	r2, r3
 1946 0054 01D0     		beq	.L173
 1947 0056 FFF7FEFF 		bl	__stack_chk_fail
 1948              	.L173:
 1949 005a 05B0     		add	sp, sp, #20
 1950              		.cfi_def_cfa_offset 4
 1951              		@ sp needed
 1952 005c 5DF804FB 		ldr	pc, [sp], #4
 1953              	.L175:
 1954              		.align	2
 1955              	.L174:
 1956 0060 00000000 		.word	__stack_chk_guard
 1957 0064 00000000 		.word	__func__.10370
 1958              		.cfi_endproc
 1959              	.LFE271:
 1960              		.size	sdcStart, .-sdcStart
 1961              		.section	.text.sdcStop,"ax",%progbits
 1962              		.align	1
 1963              		.p2align 4,,15
 1964              		.global	sdcStop
 1965              		.syntax unified
 1966              		.thumb
 1967              		.thumb_func
 1968              		.fpu fpv4-sp-d16
 1969              		.type	sdcStop, %function
 1970              	sdcStop:
 1971              	.LFB272:
 1972              		.loc 5 592 0
 1973              		.cfi_startproc
 1974              		@ args = 0, pretend = 0, frame = 16
 1975              		@ frame_needed = 0, uses_anonymous_args = 0
 1976 0000 00B5     		push	{lr}
 1977              		.cfi_def_cfa_offset 4
 1978              		.cfi_offset 14, -4
 1979 0002 85B0     		sub	sp, sp, #20
 1980              		.cfi_def_cfa_offset 24
 1981 0004 0190     		str	r0, [sp, #4]
 1982              		.loc 5 592 0
 1983 0006 144B     		ldr	r3, .L180
 1984 0008 1B68     		ldr	r3, [r3]
 1985 000a 0393     		str	r3, [sp, #12]
 1986              		.loc 5 594 0
 1987 000c 019B     		ldr	r3, [sp, #4]
 1988 000e 002B     		cmp	r3, #0
 1989 0010 02D1     		bne	.L177
 1990              		.loc 5 594 0 is_stmt 0 discriminator 2
 1991 0012 1248     		ldr	r0, .L180+4
 1992 0014 FFF7FEFF 		bl	chSysHalt
 1993              	.L177:
 1994              		.loc 5 596 0 is_stmt 1
 1995 0018 FFF7FEFF 		bl	osalSysLock
ARM GAS  C:\Users\PCHAUT~1\AppData\Local\Temp\ccjQKXWT.s 			page 36


 1996              		.loc 5 597 0
 1997 001c 019B     		ldr	r3, [sp, #4]
 1998 001e 1B79     		ldrb	r3, [r3, #4]	@ zero_extendqisi2
 1999 0020 012B     		cmp	r3, #1
 2000 0022 06D0     		beq	.L178
 2001              		.loc 5 597 0 is_stmt 0 discriminator 2
 2002 0024 019B     		ldr	r3, [sp, #4]
 2003 0026 1B79     		ldrb	r3, [r3, #4]	@ zero_extendqisi2
 2004 0028 022B     		cmp	r3, #2
 2005 002a 02D0     		beq	.L178
 2006              		.loc 5 597 0 discriminator 3
 2007 002c 0B48     		ldr	r0, .L180+4
 2008 002e FFF7FEFF 		bl	chSysHalt
 2009              	.L178:
 2010              		.loc 5 599 0 is_stmt 1
 2011 0032 0198     		ldr	r0, [sp, #4]
 2012 0034 FFF7FEFF 		bl	sdc_lld_stop
 2013              		.loc 5 600 0
 2014 0038 019B     		ldr	r3, [sp, #4]
 2015 003a 0122     		movs	r2, #1
 2016 003c 1A71     		strb	r2, [r3, #4]
 2017              		.loc 5 601 0
 2018 003e FFF7FEFF 		bl	osalSysUnlock
 2019              		.loc 5 602 0
 2020 0042 00BF     		nop
 2021 0044 044B     		ldr	r3, .L180
 2022 0046 039A     		ldr	r2, [sp, #12]
 2023 0048 1B68     		ldr	r3, [r3]
 2024 004a 9A42     		cmp	r2, r3
 2025 004c 01D0     		beq	.L179
 2026 004e FFF7FEFF 		bl	__stack_chk_fail
 2027              	.L179:
 2028 0052 05B0     		add	sp, sp, #20
 2029              		.cfi_def_cfa_offset 4
 2030              		@ sp needed
 2031 0054 5DF804FB 		ldr	pc, [sp], #4
 2032              	.L181:
 2033              		.align	2
 2034              	.L180:
 2035 0058 00000000 		.word	__stack_chk_guard
 2036 005c 00000000 		.word	__func__.10374
 2037              		.cfi_endproc
 2038              	.LFE272:
 2039              		.size	sdcStop, .-sdcStop
 2040              		.section	.text.sdcConnect,"ax",%progbits
 2041              		.align	1
 2042              		.p2align 4,,15
 2043              		.global	sdcConnect
 2044              		.syntax unified
 2045              		.thumb
 2046              		.thumb_func
 2047              		.fpu fpv4-sp-d16
 2048              		.type	sdcConnect, %function
 2049              	sdcConnect:
 2050              	.LFB273:
 2051              		.loc 5 618 0
 2052              		.cfi_startproc
ARM GAS  C:\Users\PCHAUT~1\AppData\Local\Temp\ccjQKXWT.s 			page 37


 2053              		@ args = 0, pretend = 0, frame = 24
 2054              		@ frame_needed = 0, uses_anonymous_args = 0
 2055 0000 00B5     		push	{lr}
 2056              		.cfi_def_cfa_offset 4
 2057              		.cfi_offset 14, -4
 2058 0002 89B0     		sub	sp, sp, #36
 2059              		.cfi_def_cfa_offset 40
 2060 0004 0390     		str	r0, [sp, #12]
 2061              		.loc 5 618 0
 2062 0006 834B     		ldr	r3, .L222
 2063 0008 1B68     		ldr	r3, [r3]
 2064 000a 0793     		str	r3, [sp, #28]
 2065              		.loc 5 620 0
 2066 000c 0023     		movs	r3, #0
 2067 000e 8DF81330 		strb	r3, [sp, #19]
 2068              		.loc 5 622 0
 2069 0012 039B     		ldr	r3, [sp, #12]
 2070 0014 002B     		cmp	r3, #0
 2071 0016 02D1     		bne	.L209
 2072              		.loc 5 622 0 is_stmt 0 discriminator 2
 2073 0018 7F48     		ldr	r0, .L222+4
 2074 001a FFF7FEFF 		bl	chSysHalt
 2075              	.L209:
 2076              		.loc 5 623 0 is_stmt 1 discriminator 1
 2077 001e 039B     		ldr	r3, [sp, #12]
 2078 0020 1B79     		ldrb	r3, [r3, #4]	@ zero_extendqisi2
 2079 0022 022B     		cmp	r3, #2
 2080 0024 06D0     		beq	.L184
 2081              		.loc 5 623 0 is_stmt 0 discriminator 2
 2082 0026 039B     		ldr	r3, [sp, #12]
 2083 0028 1B79     		ldrb	r3, [r3, #4]	@ zero_extendqisi2
 2084 002a 052B     		cmp	r3, #5
 2085 002c 02D0     		beq	.L184
 2086              		.loc 5 623 0 discriminator 3
 2087 002e 7A48     		ldr	r0, .L222+4
 2088 0030 FFF7FEFF 		bl	chSysHalt
 2089              	.L184:
 2090              		.loc 5 627 0 is_stmt 1
 2091 0034 039B     		ldr	r3, [sp, #12]
 2092 0036 0322     		movs	r2, #3
 2093 0038 1A71     		strb	r2, [r3, #4]
 2094              		.loc 5 630 0
 2095 003a 0398     		ldr	r0, [sp, #12]
 2096 003c FFF7FEFF 		bl	sdc_lld_start_clk
 2097              		.loc 5 633 0
 2098 0040 0022     		movs	r2, #0
 2099 0042 0021     		movs	r1, #0
 2100 0044 0398     		ldr	r0, [sp, #12]
 2101 0046 FFF7FEFF 		bl	sdc_lld_send_cmd_none
 2102              		.loc 5 636 0
 2103 004a 0398     		ldr	r0, [sp, #12]
 2104 004c FFF7FEFF 		bl	mode_detect
 2105 0050 0346     		mov	r3, r0
 2106 0052 002B     		cmp	r3, #0
 2107 0054 40F0B680 		bne	.L210
 2108              		.loc 5 641 0
 2109 0058 039B     		ldr	r3, [sp, #12]
ARM GAS  C:\Users\PCHAUT~1\AppData\Local\Temp\ccjQKXWT.s 			page 38


 2110 005a 1B6B     		ldr	r3, [r3, #48]
 2111 005c 03F00F03 		and	r3, r3, #15
 2112 0060 022B     		cmp	r3, #2
 2113 0062 06D1     		bne	.L187
 2114              		.loc 5 642 0
 2115 0064 0398     		ldr	r0, [sp, #12]
 2116 0066 FFF7FEFF 		bl	mmc_init
 2117 006a 0346     		mov	r3, r0
 2118 006c 002B     		cmp	r3, #0
 2119 006e 07D0     		beq	.L188
 2120              		.loc 5 643 0
 2121 0070 BDE0     		b	.L186
 2122              	.L187:
 2123              		.loc 5 647 0
 2124 0072 0398     		ldr	r0, [sp, #12]
 2125 0074 FFF7FEFF 		bl	sdc_init
 2126 0078 0346     		mov	r3, r0
 2127 007a 002B     		cmp	r3, #0
 2128 007c 40F0A480 		bne	.L211
 2129              	.L188:
 2130              		.loc 5 653 0
 2131 0080 039B     		ldr	r3, [sp, #12]
 2132 0082 0833     		adds	r3, r3, #8
 2133 0084 0022     		movs	r2, #0
 2134 0086 0221     		movs	r1, #2
 2135 0088 0398     		ldr	r0, [sp, #12]
 2136 008a FFF7FEFF 		bl	sdc_lld_send_cmd_long_crc
 2137 008e 0346     		mov	r3, r0
 2138 0090 002B     		cmp	r3, #0
 2139 0092 40F09B80 		bne	.L212
 2140              		.loc 5 658 0
 2141 0096 039B     		ldr	r3, [sp, #12]
 2142 0098 3833     		adds	r3, r3, #56
 2143 009a 0022     		movs	r2, #0
 2144 009c 0321     		movs	r1, #3
 2145 009e 0398     		ldr	r0, [sp, #12]
 2146 00a0 FFF7FEFF 		bl	sdc_lld_send_cmd_short_crc
 2147 00a4 0346     		mov	r3, r0
 2148 00a6 002B     		cmp	r3, #0
 2149 00a8 40F09280 		bne	.L213
 2150              		.loc 5 664 0
 2151 00ac 039B     		ldr	r3, [sp, #12]
 2152 00ae 9A6B     		ldr	r2, [r3, #56]
 2153              		.loc 5 665 0
 2154 00b0 039B     		ldr	r3, [sp, #12]
 2155 00b2 1833     		adds	r3, r3, #24
 2156              		.loc 5 664 0
 2157 00b4 0921     		movs	r1, #9
 2158 00b6 0398     		ldr	r0, [sp, #12]
 2159 00b8 FFF7FEFF 		bl	sdc_lld_send_cmd_long_crc
 2160 00bc 0346     		mov	r3, r0
 2161 00be 002B     		cmp	r3, #0
 2162 00c0 40F08880 		bne	.L214
 2163              		.loc 5 670 0
 2164 00c4 039B     		ldr	r3, [sp, #12]
 2165 00c6 9A6B     		ldr	r2, [r3, #56]
 2166 00c8 06AB     		add	r3, sp, #24
ARM GAS  C:\Users\PCHAUT~1\AppData\Local\Temp\ccjQKXWT.s 			page 39


 2167 00ca 0721     		movs	r1, #7
 2168 00cc 0398     		ldr	r0, [sp, #12]
 2169 00ce FFF7FEFF 		bl	sdc_lld_send_cmd_short_crc
 2170 00d2 0346     		mov	r3, r0
 2171 00d4 002B     		cmp	r3, #0
 2172 00d6 7FD1     		bne	.L215
 2173              		.loc 5 676 0
 2174 00d8 0DF11303 		add	r3, sp, #19
 2175 00dc 1946     		mov	r1, r3
 2176 00de 0398     		ldr	r0, [sp, #12]
 2177 00e0 FFF7FEFF 		bl	detect_bus_clk
 2178 00e4 0346     		mov	r3, r0
 2179 00e6 002B     		cmp	r3, #0
 2180 00e8 78D1     		bne	.L216
 2181              		.loc 5 679 0
 2182 00ea 9DF81330 		ldrb	r3, [sp, #19]	@ zero_extendqisi2
 2183 00ee 1946     		mov	r1, r3
 2184 00f0 0398     		ldr	r0, [sp, #12]
 2185 00f2 FFF7FEFF 		bl	sdc_lld_set_data_clk
 2186              		.loc 5 682 0
 2187 00f6 039B     		ldr	r3, [sp, #12]
 2188 00f8 1B6B     		ldr	r3, [r3, #48]
 2189 00fa 03F00F03 		and	r3, r3, #15
 2190 00fe 022B     		cmp	r3, #2
 2191 0100 2CD1     		bne	.L194
 2192              		.loc 5 685 0
 2193 0102 039B     		ldr	r3, [sp, #12]
 2194 0104 1833     		adds	r3, r3, #24
 2195 0106 7E22     		movs	r2, #126
 2196 0108 7F21     		movs	r1, #127
 2197 010a 1846     		mov	r0, r3
 2198 010c FFF7FEFF 		bl	_mmcsd_get_slice
 2199 0110 0346     		mov	r3, r0
 2200 0112 012B     		cmp	r3, #1
 2201 0114 19D9     		bls	.L195
 2202              	.LBB10:
 2203              		.loc 5 686 0
 2204 0116 039B     		ldr	r3, [sp, #12]
 2205 0118 DB6A     		ldr	r3, [r3, #44]
 2206 011a 1B68     		ldr	r3, [r3]
 2207 011c 0593     		str	r3, [sp, #20]
 2208              		.loc 5 689 0
 2209 011e 059B     		ldr	r3, [sp, #20]
 2210 0120 002B     		cmp	r3, #0
 2211 0122 5DD0     		beq	.L217
 2212              		.loc 5 693 0
 2213 0124 0023     		movs	r3, #0
 2214 0126 0093     		str	r3, [sp]
 2215 0128 0823     		movs	r3, #8
 2216 012a 4FF40072 		mov	r2, #512
 2217 012e 0599     		ldr	r1, [sp, #20]
 2218 0130 0398     		ldr	r0, [sp, #12]
 2219 0132 FFF7FEFF 		bl	sdc_lld_read_special
 2220 0136 0346     		mov	r3, r0
 2221 0138 002B     		cmp	r3, #0
 2222 013a 53D1     		bne	.L218
 2223              		.loc 5 698 0
ARM GAS  C:\Users\PCHAUT~1\AppData\Local\Temp\ccjQKXWT.s 			page 40


 2224 013c 0598     		ldr	r0, [sp, #20]
 2225 013e FFF7FEFF 		bl	_mmcsd_get_capacity_ext
 2226 0142 0246     		mov	r2, r0
 2227 0144 039B     		ldr	r3, [sp, #12]
 2228 0146 9A62     		str	r2, [r3, #40]
 2229              	.LBE10:
 2230 0148 10E0     		b	.L199
 2231              	.L195:
 2232              		.loc 5 702 0
 2233 014a 039B     		ldr	r3, [sp, #12]
 2234 014c 1833     		adds	r3, r3, #24
 2235 014e 1846     		mov	r0, r3
 2236 0150 FFF7FEFF 		bl	_mmcsd_get_capacity
 2237 0154 0246     		mov	r2, r0
 2238 0156 039B     		ldr	r3, [sp, #12]
 2239 0158 9A62     		str	r2, [r3, #40]
 2240 015a 07E0     		b	.L199
 2241              	.L194:
 2242              		.loc 5 707 0
 2243 015c 039B     		ldr	r3, [sp, #12]
 2244 015e 1833     		adds	r3, r3, #24
 2245 0160 1846     		mov	r0, r3
 2246 0162 FFF7FEFF 		bl	_mmcsd_get_capacity
 2247 0166 0246     		mov	r2, r0
 2248 0168 039B     		ldr	r3, [sp, #12]
 2249 016a 9A62     		str	r2, [r3, #40]
 2250              	.L199:
 2251              		.loc 5 711 0
 2252 016c 06AB     		add	r3, sp, #24
 2253 016e 4FF40072 		mov	r2, #512
 2254 0172 1021     		movs	r1, #16
 2255 0174 0398     		ldr	r0, [sp, #12]
 2256 0176 FFF7FEFF 		bl	sdc_lld_send_cmd_short_crc
 2257 017a 0346     		mov	r3, r0
 2258 017c 002B     		cmp	r3, #0
 2259 017e 33D1     		bne	.L219
 2260              		.loc 5 713 0
 2261 0180 069A     		ldr	r2, [sp, #24]
 2262 0182 264B     		ldr	r3, .L222+8
 2263 0184 1340     		ands	r3, r3, r2
 2264              		.loc 5 712 0
 2265 0186 002B     		cmp	r3, #0
 2266 0188 2ED1     		bne	.L219
 2267              		.loc 5 718 0
 2268 018a 039B     		ldr	r3, [sp, #12]
 2269 018c 1B6B     		ldr	r3, [r3, #48]
 2270 018e 03F00F03 		and	r3, r3, #15
 2271 0192 012B     		cmp	r3, #1
 2272 0194 02D9     		bls	.L201
 2273 0196 022B     		cmp	r3, #2
 2274 0198 07D0     		beq	.L202
 2275              		.loc 5 732 0
 2276 019a 28E0     		b	.L186
 2277              	.L201:
 2278              		.loc 5 721 0
 2279 019c 0398     		ldr	r0, [sp, #12]
 2280 019e FFF7FEFF 		bl	sdc_set_bus_width
ARM GAS  C:\Users\PCHAUT~1\AppData\Local\Temp\ccjQKXWT.s 			page 41


 2281 01a2 0346     		mov	r3, r0
 2282 01a4 002B     		cmp	r3, #0
 2283 01a6 07D0     		beq	.L220
 2284              		.loc 5 722 0
 2285 01a8 21E0     		b	.L186
 2286              	.L202:
 2287              		.loc 5 726 0
 2288 01aa 0398     		ldr	r0, [sp, #12]
 2289 01ac FFF7FEFF 		bl	mmc_set_bus_width
 2290 01b0 0346     		mov	r3, r0
 2291 01b2 002B     		cmp	r3, #0
 2292 01b4 1AD1     		bne	.L221
 2293              		.loc 5 729 0
 2294 01b6 00E0     		b	.L204
 2295              	.L220:
 2296              		.loc 5 724 0
 2297 01b8 00BF     		nop
 2298              	.L204:
 2299              		.loc 5 736 0
 2300 01ba 039B     		ldr	r3, [sp, #12]
 2301 01bc 0522     		movs	r2, #5
 2302 01be 1A71     		strb	r2, [r3, #4]
 2303              		.loc 5 737 0
 2304 01c0 0023     		movs	r3, #0
 2305 01c2 1BE0     		b	.L207
 2306              	.L210:
 2307              		.loc 5 637 0
 2308 01c4 00BF     		nop
 2309 01c6 12E0     		b	.L186
 2310              	.L211:
 2311              		.loc 5 648 0
 2312 01c8 00BF     		nop
 2313 01ca 10E0     		b	.L186
 2314              	.L212:
 2315              		.loc 5 654 0
 2316 01cc 00BF     		nop
 2317 01ce 0EE0     		b	.L186
 2318              	.L213:
 2319              		.loc 5 660 0
 2320 01d0 00BF     		nop
 2321 01d2 0CE0     		b	.L186
 2322              	.L214:
 2323              		.loc 5 666 0
 2324 01d4 00BF     		nop
 2325 01d6 0AE0     		b	.L186
 2326              	.L215:
 2327              		.loc 5 672 0
 2328 01d8 00BF     		nop
 2329 01da 08E0     		b	.L186
 2330              	.L216:
 2331              		.loc 5 677 0
 2332 01dc 00BF     		nop
 2333 01de 06E0     		b	.L186
 2334              	.L217:
 2335              	.LBB11:
 2336              		.loc 5 690 0
 2337 01e0 00BF     		nop
ARM GAS  C:\Users\PCHAUT~1\AppData\Local\Temp\ccjQKXWT.s 			page 42


 2338 01e2 04E0     		b	.L186
 2339              	.L218:
 2340              		.loc 5 694 0
 2341 01e4 00BF     		nop
 2342 01e6 02E0     		b	.L186
 2343              	.L219:
 2344              	.LBE11:
 2345              		.loc 5 740 0
 2346 01e8 00BF     		nop
 2347 01ea 00E0     		b	.L186
 2348              	.L221:
 2349              		.loc 5 727 0
 2350 01ec 00BF     		nop
 2351              	.L186:
 2352              		.loc 5 741 0
 2353 01ee 0398     		ldr	r0, [sp, #12]
 2354 01f0 FFF7FEFF 		bl	sdc_lld_stop_clk
 2355              		.loc 5 742 0
 2356 01f4 039B     		ldr	r3, [sp, #12]
 2357 01f6 0222     		movs	r2, #2
 2358 01f8 1A71     		strb	r2, [r3, #4]
 2359              		.loc 5 743 0
 2360 01fa 0123     		movs	r3, #1
 2361              	.L207:
 2362              		.loc 5 744 0 discriminator 1
 2363 01fc 1846     		mov	r0, r3
 2364 01fe 054B     		ldr	r3, .L222
 2365 0200 079A     		ldr	r2, [sp, #28]
 2366 0202 1B68     		ldr	r3, [r3]
 2367 0204 9A42     		cmp	r2, r3
 2368 0206 01D0     		beq	.L208
 2369              		.loc 5 744 0 is_stmt 0
 2370 0208 FFF7FEFF 		bl	__stack_chk_fail
 2371              	.L208:
 2372 020c 09B0     		add	sp, sp, #36
 2373              		.cfi_def_cfa_offset 4
 2374              		@ sp needed
 2375 020e 5DF804FB 		ldr	pc, [sp], #4
 2376              	.L223:
 2377 0212 00BF     		.align	2
 2378              	.L222:
 2379 0214 00000000 		.word	__stack_chk_guard
 2380 0218 00000000 		.word	__func__.10380
 2381 021c 08E0FFFD 		.word	-33562616
 2382              		.cfi_endproc
 2383              	.LFE273:
 2384              		.size	sdcConnect, .-sdcConnect
 2385              		.section	.text.sdcDisconnect,"ax",%progbits
 2386              		.align	1
 2387              		.p2align 4,,15
 2388              		.global	sdcDisconnect
 2389              		.syntax unified
 2390              		.thumb
 2391              		.thumb_func
 2392              		.fpu fpv4-sp-d16
 2393              		.type	sdcDisconnect, %function
 2394              	sdcDisconnect:
ARM GAS  C:\Users\PCHAUT~1\AppData\Local\Temp\ccjQKXWT.s 			page 43


 2395              	.LFB274:
 2396              		.loc 5 757 0 is_stmt 1
 2397              		.cfi_startproc
 2398              		@ args = 0, pretend = 0, frame = 16
 2399              		@ frame_needed = 0, uses_anonymous_args = 0
 2400 0000 00B5     		push	{lr}
 2401              		.cfi_def_cfa_offset 4
 2402              		.cfi_offset 14, -4
 2403 0002 85B0     		sub	sp, sp, #20
 2404              		.cfi_def_cfa_offset 24
 2405 0004 0190     		str	r0, [sp, #4]
 2406              		.loc 5 757 0
 2407 0006 214B     		ldr	r3, .L231
 2408 0008 1B68     		ldr	r3, [r3]
 2409 000a 0393     		str	r3, [sp, #12]
 2410              		.loc 5 759 0
 2411 000c 019B     		ldr	r3, [sp, #4]
 2412 000e 002B     		cmp	r3, #0
 2413 0010 02D1     		bne	.L225
 2414              		.loc 5 759 0 is_stmt 0 discriminator 2
 2415 0012 1F48     		ldr	r0, .L231+4
 2416 0014 FFF7FEFF 		bl	chSysHalt
 2417              	.L225:
 2418              		.loc 5 761 0 is_stmt 1
 2419 0018 FFF7FEFF 		bl	osalSysLock
 2420              		.loc 5 762 0
 2421 001c 019B     		ldr	r3, [sp, #4]
 2422 001e 1B79     		ldrb	r3, [r3, #4]	@ zero_extendqisi2
 2423 0020 022B     		cmp	r3, #2
 2424 0022 06D0     		beq	.L226
 2425              		.loc 5 762 0 is_stmt 0 discriminator 2
 2426 0024 019B     		ldr	r3, [sp, #4]
 2427 0026 1B79     		ldrb	r3, [r3, #4]	@ zero_extendqisi2
 2428 0028 052B     		cmp	r3, #5
 2429 002a 02D0     		beq	.L226
 2430              		.loc 5 762 0 discriminator 3
 2431 002c 1848     		ldr	r0, .L231+4
 2432 002e FFF7FEFF 		bl	chSysHalt
 2433              	.L226:
 2434              		.loc 5 764 0 is_stmt 1
 2435 0032 019B     		ldr	r3, [sp, #4]
 2436 0034 1B79     		ldrb	r3, [r3, #4]	@ zero_extendqisi2
 2437 0036 022B     		cmp	r3, #2
 2438 0038 03D1     		bne	.L227
 2439              		.loc 5 765 0
 2440 003a FFF7FEFF 		bl	osalSysUnlock
 2441              		.loc 5 766 0
 2442 003e 0023     		movs	r3, #0
 2443 0040 19E0     		b	.L228
 2444              	.L227:
 2445              		.loc 5 768 0
 2446 0042 019B     		ldr	r3, [sp, #4]
 2447 0044 0422     		movs	r2, #4
 2448 0046 1A71     		strb	r2, [r3, #4]
 2449              		.loc 5 769 0
 2450 0048 FFF7FEFF 		bl	osalSysUnlock
 2451              		.loc 5 772 0
ARM GAS  C:\Users\PCHAUT~1\AppData\Local\Temp\ccjQKXWT.s 			page 44


 2452 004c 0198     		ldr	r0, [sp, #4]
 2453 004e FFF7FEFF 		bl	_sdc_wait_for_transfer_state
 2454 0052 0346     		mov	r3, r0
 2455 0054 002B     		cmp	r3, #0
 2456 0056 07D0     		beq	.L229
 2457              		.loc 5 773 0
 2458 0058 0198     		ldr	r0, [sp, #4]
 2459 005a FFF7FEFF 		bl	sdc_lld_stop_clk
 2460              		.loc 5 774 0
 2461 005e 019B     		ldr	r3, [sp, #4]
 2462 0060 0222     		movs	r2, #2
 2463 0062 1A71     		strb	r2, [r3, #4]
 2464              		.loc 5 775 0
 2465 0064 0123     		movs	r3, #1
 2466 0066 06E0     		b	.L228
 2467              	.L229:
 2468              		.loc 5 779 0
 2469 0068 0198     		ldr	r0, [sp, #4]
 2470 006a FFF7FEFF 		bl	sdc_lld_stop_clk
 2471              		.loc 5 780 0
 2472 006e 019B     		ldr	r3, [sp, #4]
 2473 0070 0222     		movs	r2, #2
 2474 0072 1A71     		strb	r2, [r3, #4]
 2475              		.loc 5 781 0
 2476 0074 0023     		movs	r3, #0
 2477              	.L228:
 2478              		.loc 5 782 0
 2479 0076 1846     		mov	r0, r3
 2480 0078 044B     		ldr	r3, .L231
 2481 007a 039A     		ldr	r2, [sp, #12]
 2482 007c 1B68     		ldr	r3, [r3]
 2483 007e 9A42     		cmp	r2, r3
 2484 0080 01D0     		beq	.L230
 2485 0082 FFF7FEFF 		bl	__stack_chk_fail
 2486              	.L230:
 2487 0086 05B0     		add	sp, sp, #20
 2488              		.cfi_def_cfa_offset 4
 2489              		@ sp needed
 2490 0088 5DF804FB 		ldr	pc, [sp], #4
 2491              	.L232:
 2492              		.align	2
 2493              	.L231:
 2494 008c 00000000 		.word	__stack_chk_guard
 2495 0090 00000000 		.word	__func__.10391
 2496              		.cfi_endproc
 2497              	.LFE274:
 2498              		.size	sdcDisconnect, .-sdcDisconnect
 2499              		.section	.text.sdcRead,"ax",%progbits
 2500              		.align	1
 2501              		.p2align 4,,15
 2502              		.global	sdcRead
 2503              		.syntax unified
 2504              		.thumb
 2505              		.thumb_func
 2506              		.fpu fpv4-sp-d16
 2507              		.type	sdcRead, %function
 2508              	sdcRead:
ARM GAS  C:\Users\PCHAUT~1\AppData\Local\Temp\ccjQKXWT.s 			page 45


 2509              	.LFB275:
 2510              		.loc 5 800 0
 2511              		.cfi_startproc
 2512              		@ args = 0, pretend = 0, frame = 24
 2513              		@ frame_needed = 0, uses_anonymous_args = 0
 2514 0000 00B5     		push	{lr}
 2515              		.cfi_def_cfa_offset 4
 2516              		.cfi_offset 14, -4
 2517 0002 87B0     		sub	sp, sp, #28
 2518              		.cfi_def_cfa_offset 32
 2519 0004 0390     		str	r0, [sp, #12]
 2520 0006 0291     		str	r1, [sp, #8]
 2521 0008 0192     		str	r2, [sp, #4]
 2522 000a 0093     		str	r3, [sp]
 2523              		.loc 5 800 0
 2524 000c 204B     		ldr	r3, .L241
 2525 000e 1B68     		ldr	r3, [r3]
 2526 0010 0593     		str	r3, [sp, #20]
 2527              		.loc 5 803 0
 2528 0012 039B     		ldr	r3, [sp, #12]
 2529 0014 002B     		cmp	r3, #0
 2530 0016 05D0     		beq	.L234
 2531              		.loc 5 803 0 is_stmt 0 discriminator 3
 2532 0018 019B     		ldr	r3, [sp, #4]
 2533 001a 002B     		cmp	r3, #0
 2534 001c 02D0     		beq	.L234
 2535              		.loc 5 803 0 discriminator 5
 2536 001e 009B     		ldr	r3, [sp]
 2537 0020 002B     		cmp	r3, #0
 2538 0022 02D1     		bne	.L240
 2539              	.L234:
 2540              		.loc 5 803 0 discriminator 6
 2541 0024 1B48     		ldr	r0, .L241+4
 2542 0026 FFF7FEFF 		bl	chSysHalt
 2543              	.L240:
 2544              		.loc 5 804 0 is_stmt 1 discriminator 1
 2545 002a 039B     		ldr	r3, [sp, #12]
 2546 002c 1B79     		ldrb	r3, [r3, #4]	@ zero_extendqisi2
 2547 002e 052B     		cmp	r3, #5
 2548 0030 02D0     		beq	.L236
 2549              		.loc 5 804 0 is_stmt 0 discriminator 2
 2550 0032 1848     		ldr	r0, .L241+4
 2551 0034 FFF7FEFF 		bl	chSysHalt
 2552              	.L236:
 2553              		.loc 5 806 0 is_stmt 1
 2554 0038 029A     		ldr	r2, [sp, #8]
 2555 003a 009B     		ldr	r3, [sp]
 2556 003c 1344     		add	r3, r3, r2
 2557 003e 5A1E     		subs	r2, r3, #1
 2558 0040 039B     		ldr	r3, [sp, #12]
 2559 0042 9B6A     		ldr	r3, [r3, #40]
 2560 0044 9A42     		cmp	r2, r3
 2561 0046 07D9     		bls	.L237
 2562              		.loc 5 807 0
 2563 0048 039B     		ldr	r3, [sp, #12]
 2564 004a 5B6B     		ldr	r3, [r3, #52]
 2565 004c 43F08002 		orr	r2, r3, #128
ARM GAS  C:\Users\PCHAUT~1\AppData\Local\Temp\ccjQKXWT.s 			page 46


 2566 0050 039B     		ldr	r3, [sp, #12]
 2567 0052 5A63     		str	r2, [r3, #52]
 2568              		.loc 5 808 0
 2569 0054 0123     		movs	r3, #1
 2570 0056 10E0     		b	.L238
 2571              	.L237:
 2572              		.loc 5 812 0
 2573 0058 039B     		ldr	r3, [sp, #12]
 2574 005a 0622     		movs	r2, #6
 2575 005c 1A71     		strb	r2, [r3, #4]
 2576              		.loc 5 814 0
 2577 005e 009B     		ldr	r3, [sp]
 2578 0060 019A     		ldr	r2, [sp, #4]
 2579 0062 0299     		ldr	r1, [sp, #8]
 2580 0064 0398     		ldr	r0, [sp, #12]
 2581 0066 FFF7FEFF 		bl	sdc_lld_read
 2582 006a 0346     		mov	r3, r0
 2583 006c 8DF81330 		strb	r3, [sp, #19]
 2584              		.loc 5 817 0
 2585 0070 039B     		ldr	r3, [sp, #12]
 2586 0072 0522     		movs	r2, #5
 2587 0074 1A71     		strb	r2, [r3, #4]
 2588              		.loc 5 818 0
 2589 0076 9DF81330 		ldrb	r3, [sp, #19]	@ zero_extendqisi2
 2590              	.L238:
 2591              		.loc 5 819 0
 2592 007a 1846     		mov	r0, r3
 2593 007c 044B     		ldr	r3, .L241
 2594 007e 059A     		ldr	r2, [sp, #20]
 2595 0080 1B68     		ldr	r3, [r3]
 2596 0082 9A42     		cmp	r2, r3
 2597 0084 01D0     		beq	.L239
 2598 0086 FFF7FEFF 		bl	__stack_chk_fail
 2599              	.L239:
 2600 008a 07B0     		add	sp, sp, #28
 2601              		.cfi_def_cfa_offset 4
 2602              		@ sp needed
 2603 008c 5DF804FB 		ldr	pc, [sp], #4
 2604              	.L242:
 2605              		.align	2
 2606              	.L241:
 2607 0090 00000000 		.word	__stack_chk_guard
 2608 0094 00000000 		.word	__func__.10399
 2609              		.cfi_endproc
 2610              	.LFE275:
 2611              		.size	sdcRead, .-sdcRead
 2612              		.section	.text.sdcWrite,"ax",%progbits
 2613              		.align	1
 2614              		.p2align 4,,15
 2615              		.global	sdcWrite
 2616              		.syntax unified
 2617              		.thumb
 2618              		.thumb_func
 2619              		.fpu fpv4-sp-d16
 2620              		.type	sdcWrite, %function
 2621              	sdcWrite:
 2622              	.LFB276:
ARM GAS  C:\Users\PCHAUT~1\AppData\Local\Temp\ccjQKXWT.s 			page 47


 2623              		.loc 5 838 0
 2624              		.cfi_startproc
 2625              		@ args = 0, pretend = 0, frame = 24
 2626              		@ frame_needed = 0, uses_anonymous_args = 0
 2627 0000 00B5     		push	{lr}
 2628              		.cfi_def_cfa_offset 4
 2629              		.cfi_offset 14, -4
 2630 0002 87B0     		sub	sp, sp, #28
 2631              		.cfi_def_cfa_offset 32
 2632 0004 0390     		str	r0, [sp, #12]
 2633 0006 0291     		str	r1, [sp, #8]
 2634 0008 0192     		str	r2, [sp, #4]
 2635 000a 0093     		str	r3, [sp]
 2636              		.loc 5 838 0
 2637 000c 204B     		ldr	r3, .L251
 2638 000e 1B68     		ldr	r3, [r3]
 2639 0010 0593     		str	r3, [sp, #20]
 2640              		.loc 5 841 0
 2641 0012 039B     		ldr	r3, [sp, #12]
 2642 0014 002B     		cmp	r3, #0
 2643 0016 05D0     		beq	.L244
 2644              		.loc 5 841 0 is_stmt 0 discriminator 3
 2645 0018 019B     		ldr	r3, [sp, #4]
 2646 001a 002B     		cmp	r3, #0
 2647 001c 02D0     		beq	.L244
 2648              		.loc 5 841 0 discriminator 5
 2649 001e 009B     		ldr	r3, [sp]
 2650 0020 002B     		cmp	r3, #0
 2651 0022 02D1     		bne	.L250
 2652              	.L244:
 2653              		.loc 5 841 0 discriminator 6
 2654 0024 1B48     		ldr	r0, .L251+4
 2655 0026 FFF7FEFF 		bl	chSysHalt
 2656              	.L250:
 2657              		.loc 5 842 0 is_stmt 1 discriminator 1
 2658 002a 039B     		ldr	r3, [sp, #12]
 2659 002c 1B79     		ldrb	r3, [r3, #4]	@ zero_extendqisi2
 2660 002e 052B     		cmp	r3, #5
 2661 0030 02D0     		beq	.L246
 2662              		.loc 5 842 0 is_stmt 0 discriminator 2
 2663 0032 1848     		ldr	r0, .L251+4
 2664 0034 FFF7FEFF 		bl	chSysHalt
 2665              	.L246:
 2666              		.loc 5 844 0 is_stmt 1
 2667 0038 029A     		ldr	r2, [sp, #8]
 2668 003a 009B     		ldr	r3, [sp]
 2669 003c 1344     		add	r3, r3, r2
 2670 003e 5A1E     		subs	r2, r3, #1
 2671 0040 039B     		ldr	r3, [sp, #12]
 2672 0042 9B6A     		ldr	r3, [r3, #40]
 2673 0044 9A42     		cmp	r2, r3
 2674 0046 07D9     		bls	.L247
 2675              		.loc 5 845 0
 2676 0048 039B     		ldr	r3, [sp, #12]
 2677 004a 5B6B     		ldr	r3, [r3, #52]
 2678 004c 43F08002 		orr	r2, r3, #128
 2679 0050 039B     		ldr	r3, [sp, #12]
ARM GAS  C:\Users\PCHAUT~1\AppData\Local\Temp\ccjQKXWT.s 			page 48


 2680 0052 5A63     		str	r2, [r3, #52]
 2681              		.loc 5 846 0
 2682 0054 0123     		movs	r3, #1
 2683 0056 10E0     		b	.L248
 2684              	.L247:
 2685              		.loc 5 850 0
 2686 0058 039B     		ldr	r3, [sp, #12]
 2687 005a 0722     		movs	r2, #7
 2688 005c 1A71     		strb	r2, [r3, #4]
 2689              		.loc 5 852 0
 2690 005e 009B     		ldr	r3, [sp]
 2691 0060 019A     		ldr	r2, [sp, #4]
 2692 0062 0299     		ldr	r1, [sp, #8]
 2693 0064 0398     		ldr	r0, [sp, #12]
 2694 0066 FFF7FEFF 		bl	sdc_lld_write
 2695 006a 0346     		mov	r3, r0
 2696 006c 8DF81330 		strb	r3, [sp, #19]
 2697              		.loc 5 855 0
 2698 0070 039B     		ldr	r3, [sp, #12]
 2699 0072 0522     		movs	r2, #5
 2700 0074 1A71     		strb	r2, [r3, #4]
 2701              		.loc 5 856 0
 2702 0076 9DF81330 		ldrb	r3, [sp, #19]	@ zero_extendqisi2
 2703              	.L248:
 2704              		.loc 5 857 0
 2705 007a 1846     		mov	r0, r3
 2706 007c 044B     		ldr	r3, .L251
 2707 007e 059A     		ldr	r2, [sp, #20]
 2708 0080 1B68     		ldr	r3, [r3]
 2709 0082 9A42     		cmp	r2, r3
 2710 0084 01D0     		beq	.L249
 2711 0086 FFF7FEFF 		bl	__stack_chk_fail
 2712              	.L249:
 2713 008a 07B0     		add	sp, sp, #28
 2714              		.cfi_def_cfa_offset 4
 2715              		@ sp needed
 2716 008c 5DF804FB 		ldr	pc, [sp], #4
 2717              	.L252:
 2718              		.align	2
 2719              	.L251:
 2720 0090 00000000 		.word	__stack_chk_guard
 2721 0094 00000000 		.word	__func__.10407
 2722              		.cfi_endproc
 2723              	.LFE276:
 2724              		.size	sdcWrite, .-sdcWrite
 2725              		.section	.text.sdcGetAndClearErrors,"ax",%progbits
 2726              		.align	1
 2727              		.p2align 4,,15
 2728              		.global	sdcGetAndClearErrors
 2729              		.syntax unified
 2730              		.thumb
 2731              		.thumb_func
 2732              		.fpu fpv4-sp-d16
 2733              		.type	sdcGetAndClearErrors, %function
 2734              	sdcGetAndClearErrors:
 2735              	.LFB277:
 2736              		.loc 5 867 0
ARM GAS  C:\Users\PCHAUT~1\AppData\Local\Temp\ccjQKXWT.s 			page 49


 2737              		.cfi_startproc
 2738              		@ args = 0, pretend = 0, frame = 16
 2739              		@ frame_needed = 0, uses_anonymous_args = 0
 2740 0000 00B5     		push	{lr}
 2741              		.cfi_def_cfa_offset 4
 2742              		.cfi_offset 14, -4
 2743 0002 85B0     		sub	sp, sp, #20
 2744              		.cfi_def_cfa_offset 24
 2745 0004 0190     		str	r0, [sp, #4]
 2746              		.loc 5 867 0
 2747 0006 134B     		ldr	r3, .L259
 2748 0008 1B68     		ldr	r3, [r3]
 2749 000a 0393     		str	r3, [sp, #12]
 2750              		.loc 5 870 0
 2751 000c 019B     		ldr	r3, [sp, #4]
 2752 000e 002B     		cmp	r3, #0
 2753 0010 02D1     		bne	.L258
 2754              		.loc 5 870 0 is_stmt 0 discriminator 2
 2755 0012 1148     		ldr	r0, .L259+4
 2756 0014 FFF7FEFF 		bl	chSysHalt
 2757              	.L258:
 2758              		.loc 5 871 0 is_stmt 1 discriminator 1
 2759 0018 019B     		ldr	r3, [sp, #4]
 2760 001a 1B79     		ldrb	r3, [r3, #4]	@ zero_extendqisi2
 2761 001c 052B     		cmp	r3, #5
 2762 001e 02D0     		beq	.L255
 2763              		.loc 5 871 0 is_stmt 0 discriminator 2
 2764 0020 0D48     		ldr	r0, .L259+4
 2765 0022 FFF7FEFF 		bl	chSysHalt
 2766              	.L255:
 2767              		.loc 5 873 0 is_stmt 1
 2768 0026 FFF7FEFF 		bl	osalSysLock
 2769              		.loc 5 874 0
 2770 002a 019B     		ldr	r3, [sp, #4]
 2771 002c 5B6B     		ldr	r3, [r3, #52]
 2772 002e 0293     		str	r3, [sp, #8]
 2773              		.loc 5 875 0
 2774 0030 019B     		ldr	r3, [sp, #4]
 2775 0032 0022     		movs	r2, #0
 2776 0034 5A63     		str	r2, [r3, #52]
 2777              		.loc 5 876 0
 2778 0036 FFF7FEFF 		bl	osalSysUnlock
 2779              		.loc 5 877 0
 2780 003a 029B     		ldr	r3, [sp, #8]
 2781              		.loc 5 878 0
 2782 003c 1846     		mov	r0, r3
 2783 003e 054B     		ldr	r3, .L259
 2784 0040 039A     		ldr	r2, [sp, #12]
 2785 0042 1B68     		ldr	r3, [r3]
 2786 0044 9A42     		cmp	r2, r3
 2787 0046 01D0     		beq	.L257
 2788 0048 FFF7FEFF 		bl	__stack_chk_fail
 2789              	.L257:
 2790 004c 05B0     		add	sp, sp, #20
 2791              		.cfi_def_cfa_offset 4
 2792              		@ sp needed
 2793 004e 5DF804FB 		ldr	pc, [sp], #4
ARM GAS  C:\Users\PCHAUT~1\AppData\Local\Temp\ccjQKXWT.s 			page 50


 2794              	.L260:
 2795 0052 00BF     		.align	2
 2796              	.L259:
 2797 0054 00000000 		.word	__stack_chk_guard
 2798 0058 00000000 		.word	__func__.10412
 2799              		.cfi_endproc
 2800              	.LFE277:
 2801              		.size	sdcGetAndClearErrors, .-sdcGetAndClearErrors
 2802              		.section	.text.sdcSync,"ax",%progbits
 2803              		.align	1
 2804              		.p2align 4,,15
 2805              		.global	sdcSync
 2806              		.syntax unified
 2807              		.thumb
 2808              		.thumb_func
 2809              		.fpu fpv4-sp-d16
 2810              		.type	sdcSync, %function
 2811              	sdcSync:
 2812              	.LFB278:
 2813              		.loc 5 891 0
 2814              		.cfi_startproc
 2815              		@ args = 0, pretend = 0, frame = 16
 2816              		@ frame_needed = 0, uses_anonymous_args = 0
 2817 0000 00B5     		push	{lr}
 2818              		.cfi_def_cfa_offset 4
 2819              		.cfi_offset 14, -4
 2820 0002 85B0     		sub	sp, sp, #20
 2821              		.cfi_def_cfa_offset 24
 2822 0004 0190     		str	r0, [sp, #4]
 2823              		.loc 5 891 0
 2824 0006 144B     		ldr	r3, .L266
 2825 0008 1B68     		ldr	r3, [r3]
 2826 000a 0393     		str	r3, [sp, #12]
 2827              		.loc 5 894 0
 2828 000c 019B     		ldr	r3, [sp, #4]
 2829 000e 002B     		cmp	r3, #0
 2830 0010 02D1     		bne	.L262
 2831              		.loc 5 894 0 is_stmt 0 discriminator 2
 2832 0012 1248     		ldr	r0, .L266+4
 2833 0014 FFF7FEFF 		bl	chSysHalt
 2834              	.L262:
 2835              		.loc 5 896 0 is_stmt 1
 2836 0018 019B     		ldr	r3, [sp, #4]
 2837 001a 1B79     		ldrb	r3, [r3, #4]	@ zero_extendqisi2
 2838 001c 052B     		cmp	r3, #5
 2839 001e 01D0     		beq	.L263
 2840              		.loc 5 897 0
 2841 0020 0123     		movs	r3, #1
 2842 0022 0DE0     		b	.L264
 2843              	.L263:
 2844              		.loc 5 901 0
 2845 0024 019B     		ldr	r3, [sp, #4]
 2846 0026 0822     		movs	r2, #8
 2847 0028 1A71     		strb	r2, [r3, #4]
 2848              		.loc 5 903 0
 2849 002a 0198     		ldr	r0, [sp, #4]
 2850 002c FFF7FEFF 		bl	sdc_lld_sync
ARM GAS  C:\Users\PCHAUT~1\AppData\Local\Temp\ccjQKXWT.s 			page 51


 2851 0030 0346     		mov	r3, r0
 2852 0032 8DF80B30 		strb	r3, [sp, #11]
 2853              		.loc 5 906 0
 2854 0036 019B     		ldr	r3, [sp, #4]
 2855 0038 0522     		movs	r2, #5
 2856 003a 1A71     		strb	r2, [r3, #4]
 2857              		.loc 5 907 0
 2858 003c 9DF80B30 		ldrb	r3, [sp, #11]	@ zero_extendqisi2
 2859              	.L264:
 2860              		.loc 5 908 0
 2861 0040 1846     		mov	r0, r3
 2862 0042 054B     		ldr	r3, .L266
 2863 0044 039A     		ldr	r2, [sp, #12]
 2864 0046 1B68     		ldr	r3, [r3]
 2865 0048 9A42     		cmp	r2, r3
 2866 004a 01D0     		beq	.L265
 2867 004c FFF7FEFF 		bl	__stack_chk_fail
 2868              	.L265:
 2869 0050 05B0     		add	sp, sp, #20
 2870              		.cfi_def_cfa_offset 4
 2871              		@ sp needed
 2872 0052 5DF804FB 		ldr	pc, [sp], #4
 2873              	.L267:
 2874 0056 00BF     		.align	2
 2875              	.L266:
 2876 0058 00000000 		.word	__stack_chk_guard
 2877 005c 00000000 		.word	__func__.10417
 2878              		.cfi_endproc
 2879              	.LFE278:
 2880              		.size	sdcSync, .-sdcSync
 2881              		.section	.text.sdcGetInfo,"ax",%progbits
 2882              		.align	1
 2883              		.p2align 4,,15
 2884              		.global	sdcGetInfo
 2885              		.syntax unified
 2886              		.thumb
 2887              		.thumb_func
 2888              		.fpu fpv4-sp-d16
 2889              		.type	sdcGetInfo, %function
 2890              	sdcGetInfo:
 2891              	.LFB279:
 2892              		.loc 5 922 0
 2893              		.cfi_startproc
 2894              		@ args = 0, pretend = 0, frame = 16
 2895              		@ frame_needed = 0, uses_anonymous_args = 0
 2896 0000 00B5     		push	{lr}
 2897              		.cfi_def_cfa_offset 4
 2898              		.cfi_offset 14, -4
 2899 0002 85B0     		sub	sp, sp, #20
 2900              		.cfi_def_cfa_offset 24
 2901 0004 0190     		str	r0, [sp, #4]
 2902 0006 0091     		str	r1, [sp]
 2903              		.loc 5 922 0
 2904 0008 124B     		ldr	r3, .L274
 2905 000a 1B68     		ldr	r3, [r3]
 2906 000c 0393     		str	r3, [sp, #12]
 2907              		.loc 5 924 0
ARM GAS  C:\Users\PCHAUT~1\AppData\Local\Temp\ccjQKXWT.s 			page 52


 2908 000e 019B     		ldr	r3, [sp, #4]
 2909 0010 002B     		cmp	r3, #0
 2910 0012 02D0     		beq	.L269
 2911              		.loc 5 924 0 is_stmt 0 discriminator 3
 2912 0014 009B     		ldr	r3, [sp]
 2913 0016 002B     		cmp	r3, #0
 2914 0018 02D1     		bne	.L270
 2915              	.L269:
 2916              		.loc 5 924 0 discriminator 4
 2917 001a 0F48     		ldr	r0, .L274+4
 2918 001c FFF7FEFF 		bl	chSysHalt
 2919              	.L270:
 2920              		.loc 5 926 0 is_stmt 1
 2921 0020 019B     		ldr	r3, [sp, #4]
 2922 0022 1B79     		ldrb	r3, [r3, #4]	@ zero_extendqisi2
 2923 0024 052B     		cmp	r3, #5
 2924 0026 01D0     		beq	.L271
 2925              		.loc 5 927 0
 2926 0028 0123     		movs	r3, #1
 2927 002a 08E0     		b	.L272
 2928              	.L271:
 2929              		.loc 5 930 0
 2930 002c 019B     		ldr	r3, [sp, #4]
 2931 002e 9A6A     		ldr	r2, [r3, #40]
 2932 0030 009B     		ldr	r3, [sp]
 2933 0032 5A60     		str	r2, [r3, #4]
 2934              		.loc 5 931 0
 2935 0034 009B     		ldr	r3, [sp]
 2936 0036 4FF40072 		mov	r2, #512
 2937 003a 1A60     		str	r2, [r3]
 2938              		.loc 5 933 0
 2939 003c 0023     		movs	r3, #0
 2940              	.L272:
 2941              		.loc 5 934 0
 2942 003e 1846     		mov	r0, r3
 2943 0040 044B     		ldr	r3, .L274
 2944 0042 039A     		ldr	r2, [sp, #12]
 2945 0044 1B68     		ldr	r3, [r3]
 2946 0046 9A42     		cmp	r2, r3
 2947 0048 01D0     		beq	.L273
 2948 004a FFF7FEFF 		bl	__stack_chk_fail
 2949              	.L273:
 2950 004e 05B0     		add	sp, sp, #20
 2951              		.cfi_def_cfa_offset 4
 2952              		@ sp needed
 2953 0050 5DF804FB 		ldr	pc, [sp], #4
 2954              	.L275:
 2955              		.align	2
 2956              	.L274:
 2957 0054 00000000 		.word	__stack_chk_guard
 2958 0058 00000000 		.word	__func__.10422
 2959              		.cfi_endproc
 2960              	.LFE279:
 2961              		.size	sdcGetInfo, .-sdcGetInfo
 2962              		.section	.text.sdcErase,"ax",%progbits
 2963              		.align	1
 2964              		.p2align 4,,15
ARM GAS  C:\Users\PCHAUT~1\AppData\Local\Temp\ccjQKXWT.s 			page 53


 2965              		.global	sdcErase
 2966              		.syntax unified
 2967              		.thumb
 2968              		.thumb_func
 2969              		.fpu fpv4-sp-d16
 2970              		.type	sdcErase, %function
 2971              	sdcErase:
 2972              	.LFB280:
 2973              		.loc 5 949 0
 2974              		.cfi_startproc
 2975              		@ args = 0, pretend = 0, frame = 24
 2976              		@ frame_needed = 0, uses_anonymous_args = 0
 2977 0000 00B5     		push	{lr}
 2978              		.cfi_def_cfa_offset 4
 2979              		.cfi_offset 14, -4
 2980 0002 87B0     		sub	sp, sp, #28
 2981              		.cfi_def_cfa_offset 32
 2982 0004 0390     		str	r0, [sp, #12]
 2983 0006 0291     		str	r1, [sp, #8]
 2984 0008 0192     		str	r2, [sp, #4]
 2985              		.loc 5 949 0
 2986 000a 374B     		ldr	r3, .L290
 2987 000c 1B68     		ldr	r3, [r3]
 2988 000e 0593     		str	r3, [sp, #20]
 2989              		.loc 5 952 0
 2990 0010 039B     		ldr	r3, [sp, #12]
 2991 0012 002B     		cmp	r3, #0
 2992 0014 02D1     		bne	.L286
 2993              		.loc 5 952 0 is_stmt 0 discriminator 2
 2994 0016 3548     		ldr	r0, .L290+4
 2995 0018 FFF7FEFF 		bl	chSysHalt
 2996              	.L286:
 2997              		.loc 5 953 0 is_stmt 1 discriminator 1
 2998 001c 039B     		ldr	r3, [sp, #12]
 2999 001e 1B79     		ldrb	r3, [r3, #4]	@ zero_extendqisi2
 3000 0020 052B     		cmp	r3, #5
 3001 0022 02D0     		beq	.L278
 3002              		.loc 5 953 0 is_stmt 0 discriminator 2
 3003 0024 3148     		ldr	r0, .L290+4
 3004 0026 FFF7FEFF 		bl	chSysHalt
 3005              	.L278:
 3006              		.loc 5 956 0 is_stmt 1
 3007 002a 039B     		ldr	r3, [sp, #12]
 3008 002c 0722     		movs	r2, #7
 3009 002e 1A71     		strb	r2, [r3, #4]
 3010              		.loc 5 959 0
 3011 0030 039B     		ldr	r3, [sp, #12]
 3012 0032 1B6B     		ldr	r3, [r3, #48]
 3013 0034 03F01003 		and	r3, r3, #16
 3014 0038 002B     		cmp	r3, #0
 3015 003a 05D0     		beq	.L279
 3016              		.loc 5 960 0
 3017 003c 029B     		ldr	r3, [sp, #8]
 3018 003e 5B02     		lsls	r3, r3, #9
 3019 0040 0293     		str	r3, [sp, #8]
 3020              		.loc 5 961 0
 3021 0042 019B     		ldr	r3, [sp, #4]
ARM GAS  C:\Users\PCHAUT~1\AppData\Local\Temp\ccjQKXWT.s 			page 54


 3022 0044 5B02     		lsls	r3, r3, #9
 3023 0046 0193     		str	r3, [sp, #4]
 3024              	.L279:
 3025              		.loc 5 964 0
 3026 0048 0398     		ldr	r0, [sp, #12]
 3027 004a FFF7FEFF 		bl	_sdc_wait_for_transfer_state
 3028 004e 0346     		mov	r3, r0
 3029 0050 002B     		cmp	r3, #0
 3030 0052 34D1     		bne	.L287
 3031              		.loc 5 968 0
 3032 0054 04AB     		add	r3, sp, #16
 3033 0056 029A     		ldr	r2, [sp, #8]
 3034 0058 2021     		movs	r1, #32
 3035 005a 0398     		ldr	r0, [sp, #12]
 3036 005c FFF7FEFF 		bl	sdc_lld_send_cmd_short_crc
 3037 0060 0346     		mov	r3, r0
 3038 0062 002B     		cmp	r3, #0
 3039 0064 2DD1     		bne	.L288
 3040              		.loc 5 970 0
 3041 0066 049A     		ldr	r2, [sp, #16]
 3042 0068 214B     		ldr	r3, .L290+8
 3043 006a 1340     		ands	r3, r3, r2
 3044              		.loc 5 969 0
 3045 006c 002B     		cmp	r3, #0
 3046 006e 28D1     		bne	.L288
 3047              		.loc 5 974 0
 3048 0070 04AB     		add	r3, sp, #16
 3049 0072 019A     		ldr	r2, [sp, #4]
 3050 0074 2121     		movs	r1, #33
 3051 0076 0398     		ldr	r0, [sp, #12]
 3052 0078 FFF7FEFF 		bl	sdc_lld_send_cmd_short_crc
 3053 007c 0346     		mov	r3, r0
 3054 007e 002B     		cmp	r3, #0
 3055 0080 1FD1     		bne	.L288
 3056              		.loc 5 976 0
 3057 0082 049A     		ldr	r2, [sp, #16]
 3058 0084 1A4B     		ldr	r3, .L290+8
 3059 0086 1340     		ands	r3, r3, r2
 3060              		.loc 5 975 0
 3061 0088 002B     		cmp	r3, #0
 3062 008a 1AD1     		bne	.L288
 3063              		.loc 5 980 0
 3064 008c 04AB     		add	r3, sp, #16
 3065 008e 0022     		movs	r2, #0
 3066 0090 2621     		movs	r1, #38
 3067 0092 0398     		ldr	r0, [sp, #12]
 3068 0094 FFF7FEFF 		bl	sdc_lld_send_cmd_short_crc
 3069 0098 0346     		mov	r3, r0
 3070 009a 002B     		cmp	r3, #0
 3071 009c 11D1     		bne	.L288
 3072              		.loc 5 982 0
 3073 009e 049A     		ldr	r2, [sp, #16]
 3074 00a0 134B     		ldr	r3, .L290+8
 3075 00a2 1340     		ands	r3, r3, r2
 3076              		.loc 5 981 0
 3077 00a4 002B     		cmp	r3, #0
 3078 00a6 0CD1     		bne	.L288
ARM GAS  C:\Users\PCHAUT~1\AppData\Local\Temp\ccjQKXWT.s 			page 55


 3079              		.loc 5 990 0
 3080 00a8 0398     		ldr	r0, [sp, #12]
 3081 00aa FFF7FEFF 		bl	_sdc_wait_for_transfer_state
 3082 00ae 0346     		mov	r3, r0
 3083 00b0 002B     		cmp	r3, #0
 3084 00b2 08D1     		bne	.L289
 3085              		.loc 5 994 0
 3086 00b4 039B     		ldr	r3, [sp, #12]
 3087 00b6 0522     		movs	r2, #5
 3088 00b8 1A71     		strb	r2, [r3, #4]
 3089              		.loc 5 995 0
 3090 00ba 0023     		movs	r3, #0
 3091 00bc 08E0     		b	.L284
 3092              	.L287:
 3093              		.loc 5 965 0
 3094 00be 00BF     		nop
 3095 00c0 02E0     		b	.L281
 3096              	.L288:
 3097              		.loc 5 997 0
 3098 00c2 00BF     		nop
 3099 00c4 00E0     		b	.L281
 3100              	.L289:
 3101              		.loc 5 991 0
 3102 00c6 00BF     		nop
 3103              	.L281:
 3104              		.loc 5 998 0
 3105 00c8 039B     		ldr	r3, [sp, #12]
 3106 00ca 0522     		movs	r2, #5
 3107 00cc 1A71     		strb	r2, [r3, #4]
 3108              		.loc 5 999 0
 3109 00ce 0123     		movs	r3, #1
 3110              	.L284:
 3111              		.loc 5 1000 0 discriminator 1
 3112 00d0 1846     		mov	r0, r3
 3113 00d2 054B     		ldr	r3, .L290
 3114 00d4 059A     		ldr	r2, [sp, #20]
 3115 00d6 1B68     		ldr	r3, [r3]
 3116 00d8 9A42     		cmp	r2, r3
 3117 00da 01D0     		beq	.L285
 3118              		.loc 5 1000 0 is_stmt 0
 3119 00dc FFF7FEFF 		bl	__stack_chk_fail
 3120              	.L285:
 3121 00e0 07B0     		add	sp, sp, #28
 3122              		.cfi_def_cfa_offset 4
 3123              		@ sp needed
 3124 00e2 5DF804FB 		ldr	pc, [sp], #4
 3125              	.L291:
 3126 00e6 00BF     		.align	2
 3127              	.L290:
 3128 00e8 00000000 		.word	__stack_chk_guard
 3129 00ec 00000000 		.word	__func__.10429
 3130 00f0 08E0FFFD 		.word	-33562616
 3131              		.cfi_endproc
 3132              	.LFE280:
 3133              		.size	sdcErase, .-sdcErase
 3134              		.section	.rodata.__func__.10297,"a",%progbits
 3135              		.align	2
ARM GAS  C:\Users\PCHAUT~1\AppData\Local\Temp\ccjQKXWT.s 			page 56


 3136              		.type	__func__.10297, %object
 3137              		.size	__func__.10297, 19
 3138              	__func__.10297:
 3139 0000 6D6D635F 		.ascii	"mmc_cmd6_construct\000"
 3139      636D6436 
 3139      5F636F6E 
 3139      73747275 
 3139      637400
 3140              		.section	.rodata.__func__.10304,"a",%progbits
 3141              		.align	2
 3142              		.type	__func__.10304, %object
 3143              		.size	__func__.10304, 19
 3144              	__func__.10304:
 3145 0000 7364635F 		.ascii	"sdc_cmd6_construct\000"
 3145      636D6436 
 3145      5F636F6E 
 3145      73747275 
 3145      637400
 3146              		.section	.rodata.__func__.10348,"a",%progbits
 3147              		.align	2
 3148              		.type	__func__.10348, %object
 3149              		.size	__func__.10348, 18
 3150              	__func__.10348:
 3151 0000 6D6D635F 		.ascii	"mmc_set_bus_width\000"
 3151      7365745F 
 3151      6275735F 
 3151      77696474 
 3151      6800
 3152              		.section	.rodata.__func__.10370,"a",%progbits
 3153              		.align	2
 3154              		.type	__func__.10370, %object
 3155              		.size	__func__.10370, 9
 3156              	__func__.10370:
 3157 0000 73646353 		.ascii	"sdcStart\000"
 3157      74617274 
 3157      00
 3158              		.section	.rodata.__func__.7554,"a",%progbits
 3159              		.align	2
 3160              		.type	__func__.7554, %object
 3161              		.size	__func__.7554, 12
 3162              	__func__.7554:
 3163 0000 63685379 		.ascii	"chSysUnlock\000"
 3163      73556E6C 
 3163      6F636B00 
 3164              		.section	.rodata.__func__.10374,"a",%progbits
 3165              		.align	2
 3166              		.type	__func__.10374, %object
 3167              		.size	__func__.10374, 8
 3168              	__func__.10374:
 3169 0000 73646353 		.ascii	"sdcStop\000"
 3169      746F7000 
 3170              		.section	.rodata.__func__.10380,"a",%progbits
 3171              		.align	2
 3172              		.type	__func__.10380, %object
 3173              		.size	__func__.10380, 11
 3174              	__func__.10380:
 3175 0000 73646343 		.ascii	"sdcConnect\000"
ARM GAS  C:\Users\PCHAUT~1\AppData\Local\Temp\ccjQKXWT.s 			page 57


 3175      6F6E6E65 
 3175      637400
 3176              		.section	.rodata.__func__.10391,"a",%progbits
 3177              		.align	2
 3178              		.type	__func__.10391, %object
 3179              		.size	__func__.10391, 14
 3180              	__func__.10391:
 3181 0000 73646344 		.ascii	"sdcDisconnect\000"
 3181      6973636F 
 3181      6E6E6563 
 3181      7400
 3182              		.section	.rodata.__func__.10399,"a",%progbits
 3183              		.align	2
 3184              		.type	__func__.10399, %object
 3185              		.size	__func__.10399, 8
 3186              	__func__.10399:
 3187 0000 73646352 		.ascii	"sdcRead\000"
 3187      65616400 
 3188              		.section	.rodata.__func__.10407,"a",%progbits
 3189              		.align	2
 3190              		.type	__func__.10407, %object
 3191              		.size	__func__.10407, 9
 3192              	__func__.10407:
 3193 0000 73646357 		.ascii	"sdcWrite\000"
 3193      72697465 
 3193      00
 3194              		.section	.rodata.__func__.10412,"a",%progbits
 3195              		.align	2
 3196              		.type	__func__.10412, %object
 3197              		.size	__func__.10412, 21
 3198              	__func__.10412:
 3199 0000 73646347 		.ascii	"sdcGetAndClearErrors\000"
 3199      6574416E 
 3199      64436C65 
 3199      61724572 
 3199      726F7273 
 3200              		.section	.rodata.__func__.10417,"a",%progbits
 3201              		.align	2
 3202              		.type	__func__.10417, %object
 3203              		.size	__func__.10417, 8
 3204              	__func__.10417:
 3205 0000 73646353 		.ascii	"sdcSync\000"
 3205      796E6300 
 3206              		.section	.rodata.__func__.10422,"a",%progbits
 3207              		.align	2
 3208              		.type	__func__.10422, %object
 3209              		.size	__func__.10422, 11
 3210              	__func__.10422:
 3211 0000 73646347 		.ascii	"sdcGetInfo\000"
 3211      6574496E 
 3211      666F00
 3212              		.section	.rodata.__func__.10429,"a",%progbits
 3213              		.align	2
 3214              		.type	__func__.10429, %object
 3215              		.size	__func__.10429, 9
 3216              	__func__.10429:
 3217 0000 73646345 		.ascii	"sdcErase\000"
ARM GAS  C:\Users\PCHAUT~1\AppData\Local\Temp\ccjQKXWT.s 			page 58


 3217      72617365 
 3217      00
 3218              		.text
 3219              	.Letext0:
 3220              		.file 6 "c:\\users\\pchautems\\documents\\robotiquetp\\eclipse_e-puck2\\tools\\gcc-arm-none-eabi-7
 3221              		.file 7 "c:\\users\\pchautems\\documents\\robotiquetp\\eclipse_e-puck2\\tools\\gcc-arm-none-eabi-7
 3222              		.file 8 "c:\\users\\pchautems\\documents\\robotiquetp\\eclipse_e-puck2\\tools\\gcc-arm-none-eabi-7
 3223              		.file 9 "c:\\users\\pchautems\\documents\\robotiquetp\\eclipse_e-puck2\\tools\\gcc-arm-none-eabi-7
 3224              		.file 10 "c:\\users\\pchautems\\documents\\robotiquetp\\eclipse_e-puck2\\tools\\gcc-arm-none-eabi-
 3225              		.file 11 "c:\\users\\pchautems\\documents\\robotiquetp\\eclipse_e-puck2\\tools\\gcc-arm-none-eabi-
 3226              		.file 12 "../lib/e-puck2_main-processor/ChibiOS//os/rt/ports/ARMCMx/compilers/GCC/chtypes.h"
 3227              		.file 13 "../lib/e-puck2_main-processor/ChibiOS//os/rt/include/chsystypes.h"
 3228              		.file 14 "../lib/e-puck2_main-processor/ChibiOS//os/rt/include/chschd.h"
 3229              		.file 15 "../lib/e-puck2_main-processor/ChibiOS//os/ext/CMSIS/include/core_cm4.h"
 3230              		.file 16 "../lib/e-puck2_main-processor/ChibiOS//os/ext/CMSIS/ST/system_stm32f4xx.h"
 3231              		.file 17 "../lib/e-puck2_main-processor/ChibiOS//os/ext/CMSIS/ST/stm32f407xx.h"
 3232              		.file 18 "../lib/e-puck2_main-processor/ChibiOS//os/rt/ports/ARMCMx/chcore.h"
 3233              		.file 19 "../lib/e-puck2_main-processor/ChibiOS//os/rt/include/chdebug.h"
 3234              		.file 20 "../lib/e-puck2_main-processor/ChibiOS//os/rt/include/chtm.h"
 3235              		.file 21 "../lib/e-puck2_main-processor/ChibiOS//os/rt/include/chstats.h"
 3236              		.file 22 "../lib/e-puck2_main-processor/ChibiOS//os/rt/include/chsem.h"
 3237              		.file 23 "../lib/e-puck2_main-processor/ChibiOS//os/rt/include/chmtx.h"
 3238              		.file 24 "../lib/e-puck2_main-processor/ChibiOS//os/rt/include/chregistry.h"
 3239              		.file 25 "../lib/e-puck2_main-processor/ChibiOS//os/rt/include/chevents.h"
 3240              		.file 26 "../lib/e-puck2_main-processor/ChibiOS//os/rt/include/chqueues.h"
 3241              		.file 27 "../lib/e-puck2_main-processor/ChibiOS//os/hal/ports/STM32/STM32F4xx/stm32_dma.h"
 3242              		.file 28 "../lib/e-puck2_main-processor/ChibiOS//os/hal/include/hal_ioblock.h"
 3243              		.file 29 "../lib/e-puck2_main-processor/ChibiOS//os/hal/ports/STM32/LLD/GPIOv2/pal_lld.h"
 3244              		.file 30 "../lib/e-puck2_main-processor/ChibiOS//os/hal/include/adc.h"
 3245              		.file 31 "../lib/e-puck2_main-processor/ChibiOS//os/hal/ports/STM32/STM32F4xx/adc_lld.h"
 3246              		.file 32 "../lib/e-puck2_main-processor/ChibiOS//os/hal/include/can.h"
 3247              		.file 33 "../lib/e-puck2_main-processor/ChibiOS//os/hal/ports/STM32/LLD/can_lld.h"
 3248              		.file 34 "../lib/e-puck2_main-processor/ChibiOS//os/hal/include/dac.h"
 3249              		.file 35 "../lib/e-puck2_main-processor/ChibiOS//os/hal/ports/STM32/LLD/DACv1/dac_lld.h"
 3250              		.file 36 "../lib/e-puck2_main-processor/ChibiOS//os/hal/include/ext.h"
 3251              		.file 37 "../lib/e-puck2_main-processor/ChibiOS//os/hal/ports/STM32/LLD/ext_lld.h"
 3252              		.file 38 "../lib/e-puck2_main-processor/ChibiOS//os/hal/include/gpt.h"
 3253              		.file 39 "../lib/e-puck2_main-processor/ChibiOS//os/hal/ports/STM32/LLD/TIMv1/gpt_lld.h"
 3254              		.file 40 "../lib/e-puck2_main-processor/ChibiOS//os/hal/ports/STM32/LLD/TIMv1/stm32_tim.h"
 3255              		.file 41 "../lib/e-puck2_main-processor/ChibiOS//os/hal/include/i2c.h"
 3256              		.file 42 "../lib/e-puck2_main-processor/ChibiOS//os/hal/ports/STM32/LLD/I2Cv1/i2c_lld.h"
 3257              		.file 43 "../lib/e-puck2_main-processor/ChibiOS//os/hal/include/i2s.h"
 3258              		.file 44 "../lib/e-puck2_main-processor/ChibiOS//os/hal/ports/STM32/LLD/SPIv1/i2s_lld.h"
 3259              		.file 45 "../lib/e-puck2_main-processor/ChibiOS//os/hal/include/pwm.h"
 3260              		.file 46 "../lib/e-puck2_main-processor/ChibiOS//os/hal/ports/STM32/LLD/TIMv1/pwm_lld.h"
 3261              		.file 47 "../lib/e-puck2_main-processor/ChibiOS//os/hal/include/serial.h"
 3262              		.file 48 "../lib/e-puck2_main-processor/ChibiOS//os/hal/ports/STM32/LLD/USARTv1/serial_lld.h"
 3263              		.file 49 "../lib/e-puck2_main-processor/ChibiOS//os/hal/include/sdc.h"
 3264              		.file 50 "../lib/e-puck2_main-processor/ChibiOS//os/hal/ports/STM32/LLD/sdc_lld.h"
 3265              		.file 51 "../lib/e-puck2_main-processor/ChibiOS//os/hal/include/spi.h"
 3266              		.file 52 "../lib/e-puck2_main-processor/ChibiOS//os/hal/ports/STM32/LLD/SPIv1/spi_lld.h"
 3267              		.file 53 "../lib/e-puck2_main-processor/ChibiOS//os/hal/include/usb.h"
 3268              		.file 54 "../lib/e-puck2_main-processor/ChibiOS//os/hal/ports/STM32/LLD/OTGv1/usb_lld.h"
 3269              		.file 55 "../lib/e-puck2_main-processor/ChibiOS//os/hal/ports/STM32/LLD/OTGv1/stm32_otg.h"