ARM GAS  C:\Users\PCHAUT~1\AppData\Local\Temp\ccORgsmL.s 			page 1


   1              		.cpu cortex-m4
   2              		.eabi_attribute 27, 1
   3              		.eabi_attribute 28, 1
   4              		.eabi_attribute 20, 1
   5              		.eabi_attribute 21, 1
   6              		.eabi_attribute 23, 3
   7              		.eabi_attribute 24, 1
   8              		.eabi_attribute 25, 1
   9              		.eabi_attribute 26, 1
  10              		.eabi_attribute 30, 6
  11              		.eabi_attribute 34, 1
  12              		.eabi_attribute 18, 4
  13              		.file	"sdc_lld.c"
  14              		.text
  15              	.Ltext0:
  16              		.cfi_sections	.debug_frame
  17              		.section	.text.port_lock,"ax",%progbits
  18              		.align	1
  19              		.p2align 4,,15
  20              		.syntax unified
  21              		.thumb
  22              		.thumb_func
  23              		.fpu fpv4-sp-d16
  24              		.type	port_lock, %function
  25              	port_lock:
  26              	.LFB116:
  27              		.file 1 "../lib/e-puck2_main-processor/ChibiOS//os/rt/ports/ARMCMx/chcore_v7m.h"
  28              		.loc 1 444 0
  29              		.cfi_startproc
  30              		@ args = 0, pretend = 0, frame = 8
  31              		@ frame_needed = 0, uses_anonymous_args = 0
  32 0000 00B5     		push	{lr}
  33              		.cfi_def_cfa_offset 4
  34              		.cfi_offset 14, -4
  35 0002 83B0     		sub	sp, sp, #12
  36              		.cfi_def_cfa_offset 16
  37              		.loc 1 444 0
  38 0004 094B     		ldr	r3, .L3
  39 0006 1B68     		ldr	r3, [r3]
  40 0008 0193     		str	r3, [sp, #4]
  41 000a 2023     		movs	r3, #32
  42 000c 0093     		str	r3, [sp]
  43              	.LBB6:
  44              	.LBB7:
  45              		.file 2 "../lib/e-puck2_main-processor/ChibiOS//os/ext/CMSIS/include/core_cmFunc.h"
  46              		.loc 2 546 0
  47 000e 009B     		ldr	r3, [sp]
  48              		.syntax unified
  49              	@ 546 "../lib/e-puck2_main-processor/ChibiOS//os/ext/CMSIS/include/core_cmFunc.h" 1
  50 0010 83F31188 		MSR basepri, r3
  51              	@ 0 "" 2
  52              		.thumb
  53              		.syntax unified
  54              	.LBE7:
  55              	.LBE6:
  56              		.loc 1 451 0
  57 0014 00BF     		nop
ARM GAS  C:\Users\PCHAUT~1\AppData\Local\Temp\ccORgsmL.s 			page 2


  58 0016 054B     		ldr	r3, .L3
  59 0018 019A     		ldr	r2, [sp, #4]
  60 001a 1B68     		ldr	r3, [r3]
  61 001c 9A42     		cmp	r2, r3
  62 001e 01D0     		beq	.L2
  63 0020 FFF7FEFF 		bl	__stack_chk_fail
  64              	.L2:
  65 0024 03B0     		add	sp, sp, #12
  66              		.cfi_def_cfa_offset 4
  67              		@ sp needed
  68 0026 5DF804FB 		ldr	pc, [sp], #4
  69              	.L4:
  70 002a 00BF     		.align	2
  71              	.L3:
  72 002c 00000000 		.word	__stack_chk_guard
  73              		.cfi_endproc
  74              	.LFE116:
  75              		.size	port_lock, .-port_lock
  76              		.section	.text.port_unlock,"ax",%progbits
  77              		.align	1
  78              		.p2align 4,,15
  79              		.syntax unified
  80              		.thumb
  81              		.thumb_func
  82              		.fpu fpv4-sp-d16
  83              		.type	port_unlock, %function
  84              	port_unlock:
  85              	.LFB117:
  86              		.loc 1 458 0
  87              		.cfi_startproc
  88              		@ args = 0, pretend = 0, frame = 8
  89              		@ frame_needed = 0, uses_anonymous_args = 0
  90 0000 00B5     		push	{lr}
  91              		.cfi_def_cfa_offset 4
  92              		.cfi_offset 14, -4
  93 0002 83B0     		sub	sp, sp, #12
  94              		.cfi_def_cfa_offset 16
  95              		.loc 1 458 0
  96 0004 094B     		ldr	r3, .L7
  97 0006 1B68     		ldr	r3, [r3]
  98 0008 0193     		str	r3, [sp, #4]
  99 000a 0023     		movs	r3, #0
 100 000c 0093     		str	r3, [sp]
 101              	.LBB8:
 102              	.LBB9:
 103              		.loc 2 546 0
 104 000e 009B     		ldr	r3, [sp]
 105              		.syntax unified
 106              	@ 546 "../lib/e-puck2_main-processor/ChibiOS//os/ext/CMSIS/include/core_cmFunc.h" 1
 107 0010 83F31188 		MSR basepri, r3
 108              	@ 0 "" 2
 109              		.thumb
 110              		.syntax unified
 111              	.LBE9:
 112              	.LBE8:
 113              		.loc 1 465 0
 114 0014 00BF     		nop
ARM GAS  C:\Users\PCHAUT~1\AppData\Local\Temp\ccORgsmL.s 			page 3


 115 0016 054B     		ldr	r3, .L7
 116 0018 019A     		ldr	r2, [sp, #4]
 117 001a 1B68     		ldr	r3, [r3]
 118 001c 9A42     		cmp	r2, r3
 119 001e 01D0     		beq	.L6
 120 0020 FFF7FEFF 		bl	__stack_chk_fail
 121              	.L6:
 122 0024 03B0     		add	sp, sp, #12
 123              		.cfi_def_cfa_offset 4
 124              		@ sp needed
 125 0026 5DF804FB 		ldr	pc, [sp], #4
 126              	.L8:
 127 002a 00BF     		.align	2
 128              	.L7:
 129 002c 00000000 		.word	__stack_chk_guard
 130              		.cfi_endproc
 131              	.LFE117:
 132              		.size	port_unlock, .-port_unlock
 133              		.section	.text.port_lock_from_isr,"ax",%progbits
 134              		.align	1
 135              		.p2align 4,,15
 136              		.syntax unified
 137              		.thumb
 138              		.thumb_func
 139              		.fpu fpv4-sp-d16
 140              		.type	port_lock_from_isr, %function
 141              	port_lock_from_isr:
 142              	.LFB118:
 143              		.loc 1 473 0
 144              		.cfi_startproc
 145              		@ args = 0, pretend = 0, frame = 8
 146              		@ frame_needed = 0, uses_anonymous_args = 0
 147 0000 00B5     		push	{lr}
 148              		.cfi_def_cfa_offset 4
 149              		.cfi_offset 14, -4
 150 0002 83B0     		sub	sp, sp, #12
 151              		.cfi_def_cfa_offset 16
 152              		.loc 1 473 0
 153 0004 074B     		ldr	r3, .L11
 154 0006 1B68     		ldr	r3, [r3]
 155 0008 0193     		str	r3, [sp, #4]
 156              		.loc 1 475 0
 157 000a FFF7FEFF 		bl	port_lock
 158              		.loc 1 476 0
 159 000e 00BF     		nop
 160 0010 044B     		ldr	r3, .L11
 161 0012 019A     		ldr	r2, [sp, #4]
 162 0014 1B68     		ldr	r3, [r3]
 163 0016 9A42     		cmp	r2, r3
 164 0018 01D0     		beq	.L10
 165 001a FFF7FEFF 		bl	__stack_chk_fail
 166              	.L10:
 167 001e 03B0     		add	sp, sp, #12
 168              		.cfi_def_cfa_offset 4
 169              		@ sp needed
 170 0020 5DF804FB 		ldr	pc, [sp], #4
 171              	.L12:
ARM GAS  C:\Users\PCHAUT~1\AppData\Local\Temp\ccORgsmL.s 			page 4


 172              		.align	2
 173              	.L11:
 174 0024 00000000 		.word	__stack_chk_guard
 175              		.cfi_endproc
 176              	.LFE118:
 177              		.size	port_lock_from_isr, .-port_lock_from_isr
 178              		.section	.text.port_unlock_from_isr,"ax",%progbits
 179              		.align	1
 180              		.p2align 4,,15
 181              		.syntax unified
 182              		.thumb
 183              		.thumb_func
 184              		.fpu fpv4-sp-d16
 185              		.type	port_unlock_from_isr, %function
 186              	port_unlock_from_isr:
 187              	.LFB119:
 188              		.loc 1 484 0
 189              		.cfi_startproc
 190              		@ args = 0, pretend = 0, frame = 8
 191              		@ frame_needed = 0, uses_anonymous_args = 0
 192 0000 00B5     		push	{lr}
 193              		.cfi_def_cfa_offset 4
 194              		.cfi_offset 14, -4
 195 0002 83B0     		sub	sp, sp, #12
 196              		.cfi_def_cfa_offset 16
 197              		.loc 1 484 0
 198 0004 074B     		ldr	r3, .L15
 199 0006 1B68     		ldr	r3, [r3]
 200 0008 0193     		str	r3, [sp, #4]
 201              		.loc 1 486 0
 202 000a FFF7FEFF 		bl	port_unlock
 203              		.loc 1 487 0
 204 000e 00BF     		nop
 205 0010 044B     		ldr	r3, .L15
 206 0012 019A     		ldr	r2, [sp, #4]
 207 0014 1B68     		ldr	r3, [r3]
 208 0016 9A42     		cmp	r2, r3
 209 0018 01D0     		beq	.L14
 210 001a FFF7FEFF 		bl	__stack_chk_fail
 211              	.L14:
 212 001e 03B0     		add	sp, sp, #12
 213              		.cfi_def_cfa_offset 4
 214              		@ sp needed
 215 0020 5DF804FB 		ldr	pc, [sp], #4
 216              	.L16:
 217              		.align	2
 218              	.L15:
 219 0024 00000000 		.word	__stack_chk_guard
 220              		.cfi_endproc
 221              	.LFE119:
 222              		.size	port_unlock_from_isr, .-port_unlock_from_isr
 223              		.section	.text.chSysLock,"ax",%progbits
 224              		.align	1
 225              		.p2align 4,,15
 226              		.syntax unified
 227              		.thumb
 228              		.thumb_func
ARM GAS  C:\Users\PCHAUT~1\AppData\Local\Temp\ccORgsmL.s 			page 5


 229              		.fpu fpv4-sp-d16
 230              		.type	chSysLock, %function
 231              	chSysLock:
 232              	.LFB145:
 233              		.file 3 "../lib/e-puck2_main-processor/ChibiOS//os/rt/include/chsys.h"
 234              		.loc 3 346 0
 235              		.cfi_startproc
 236              		@ args = 0, pretend = 0, frame = 8
 237              		@ frame_needed = 0, uses_anonymous_args = 0
 238 0000 00B5     		push	{lr}
 239              		.cfi_def_cfa_offset 4
 240              		.cfi_offset 14, -4
 241 0002 83B0     		sub	sp, sp, #12
 242              		.cfi_def_cfa_offset 16
 243              		.loc 3 346 0
 244 0004 094B     		ldr	r3, .L19
 245 0006 1B68     		ldr	r3, [r3]
 246 0008 0193     		str	r3, [sp, #4]
 247              		.loc 3 348 0
 248 000a FFF7FEFF 		bl	port_lock
 249              		.loc 3 349 0
 250 000e FFF7FEFF 		bl	_stats_start_measure_crit_thd
 251              		.loc 3 350 0
 252 0012 FFF7FEFF 		bl	_dbg_check_lock
 253              		.loc 3 351 0
 254 0016 00BF     		nop
 255 0018 044B     		ldr	r3, .L19
 256 001a 019A     		ldr	r2, [sp, #4]
 257 001c 1B68     		ldr	r3, [r3]
 258 001e 9A42     		cmp	r2, r3
 259 0020 01D0     		beq	.L18
 260 0022 FFF7FEFF 		bl	__stack_chk_fail
 261              	.L18:
 262 0026 03B0     		add	sp, sp, #12
 263              		.cfi_def_cfa_offset 4
 264              		@ sp needed
 265 0028 5DF804FB 		ldr	pc, [sp], #4
 266              	.L20:
 267              		.align	2
 268              	.L19:
 269 002c 00000000 		.word	__stack_chk_guard
 270              		.cfi_endproc
 271              	.LFE145:
 272              		.size	chSysLock, .-chSysLock
 273              		.section	.text.chSysUnlock,"ax",%progbits
 274              		.align	1
 275              		.p2align 4,,15
 276              		.syntax unified
 277              		.thumb
 278              		.thumb_func
 279              		.fpu fpv4-sp-d16
 280              		.type	chSysUnlock, %function
 281              	chSysUnlock:
 282              	.LFB146:
 283              		.loc 3 358 0
 284              		.cfi_startproc
 285              		@ args = 0, pretend = 0, frame = 8
ARM GAS  C:\Users\PCHAUT~1\AppData\Local\Temp\ccORgsmL.s 			page 6


 286              		@ frame_needed = 0, uses_anonymous_args = 0
 287 0000 00B5     		push	{lr}
 288              		.cfi_def_cfa_offset 4
 289              		.cfi_offset 14, -4
 290 0002 83B0     		sub	sp, sp, #12
 291              		.cfi_def_cfa_offset 16
 292              		.loc 3 358 0
 293 0004 114B     		ldr	r3, .L24
 294 0006 1B68     		ldr	r3, [r3]
 295 0008 0193     		str	r3, [sp, #4]
 296              		.loc 3 360 0
 297 000a FFF7FEFF 		bl	_dbg_check_unlock
 298              		.loc 3 361 0
 299 000e FFF7FEFF 		bl	_stats_stop_measure_crit_thd
 300              		.loc 3 367 0
 301 0012 0F4B     		ldr	r3, .L24+4
 302 0014 1B68     		ldr	r3, [r3]
 303 0016 0E4A     		ldr	r2, .L24+4
 304 0018 9342     		cmp	r3, r2
 305 001a 0AD0     		beq	.L22
 306              		.loc 3 367 0 is_stmt 0 discriminator 2
 307 001c 0C4B     		ldr	r3, .L24+4
 308 001e 9B69     		ldr	r3, [r3, #24]
 309 0020 9A68     		ldr	r2, [r3, #8]
 310 0022 0B4B     		ldr	r3, .L24+4
 311 0024 1B68     		ldr	r3, [r3]
 312 0026 9B68     		ldr	r3, [r3, #8]
 313 0028 9A42     		cmp	r2, r3
 314 002a 02D2     		bcs	.L22
 315              		.loc 3 367 0 discriminator 3
 316 002c 0948     		ldr	r0, .L24+8
 317 002e FFF7FEFF 		bl	chSysHalt
 318              	.L22:
 319              		.loc 3 371 0 is_stmt 1
 320 0032 FFF7FEFF 		bl	port_unlock
 321              		.loc 3 372 0
 322 0036 00BF     		nop
 323 0038 044B     		ldr	r3, .L24
 324 003a 019A     		ldr	r2, [sp, #4]
 325 003c 1B68     		ldr	r3, [r3]
 326 003e 9A42     		cmp	r2, r3
 327 0040 01D0     		beq	.L23
 328 0042 FFF7FEFF 		bl	__stack_chk_fail
 329              	.L23:
 330 0046 03B0     		add	sp, sp, #12
 331              		.cfi_def_cfa_offset 4
 332              		@ sp needed
 333 0048 5DF804FB 		ldr	pc, [sp], #4
 334              	.L25:
 335              		.align	2
 336              	.L24:
 337 004c 00000000 		.word	__stack_chk_guard
 338 0050 00000000 		.word	ch
 339 0054 00000000 		.word	__func__.7554
 340              		.cfi_endproc
 341              	.LFE146:
 342              		.size	chSysUnlock, .-chSysUnlock
ARM GAS  C:\Users\PCHAUT~1\AppData\Local\Temp\ccORgsmL.s 			page 7


 343              		.section	.text.chSysLockFromISR,"ax",%progbits
 344              		.align	1
 345              		.p2align 4,,15
 346              		.syntax unified
 347              		.thumb
 348              		.thumb_func
 349              		.fpu fpv4-sp-d16
 350              		.type	chSysLockFromISR, %function
 351              	chSysLockFromISR:
 352              	.LFB147:
 353              		.loc 3 386 0
 354              		.cfi_startproc
 355              		@ args = 0, pretend = 0, frame = 8
 356              		@ frame_needed = 0, uses_anonymous_args = 0
 357 0000 00B5     		push	{lr}
 358              		.cfi_def_cfa_offset 4
 359              		.cfi_offset 14, -4
 360 0002 83B0     		sub	sp, sp, #12
 361              		.cfi_def_cfa_offset 16
 362              		.loc 3 386 0
 363 0004 094B     		ldr	r3, .L28
 364 0006 1B68     		ldr	r3, [r3]
 365 0008 0193     		str	r3, [sp, #4]
 366              		.loc 3 388 0
 367 000a FFF7FEFF 		bl	port_lock_from_isr
 368              		.loc 3 389 0
 369 000e FFF7FEFF 		bl	_stats_start_measure_crit_isr
 370              		.loc 3 390 0
 371 0012 FFF7FEFF 		bl	_dbg_check_lock_from_isr
 372              		.loc 3 391 0
 373 0016 00BF     		nop
 374 0018 044B     		ldr	r3, .L28
 375 001a 019A     		ldr	r2, [sp, #4]
 376 001c 1B68     		ldr	r3, [r3]
 377 001e 9A42     		cmp	r2, r3
 378 0020 01D0     		beq	.L27
 379 0022 FFF7FEFF 		bl	__stack_chk_fail
 380              	.L27:
 381 0026 03B0     		add	sp, sp, #12
 382              		.cfi_def_cfa_offset 4
 383              		@ sp needed
 384 0028 5DF804FB 		ldr	pc, [sp], #4
 385              	.L29:
 386              		.align	2
 387              	.L28:
 388 002c 00000000 		.word	__stack_chk_guard
 389              		.cfi_endproc
 390              	.LFE147:
 391              		.size	chSysLockFromISR, .-chSysLockFromISR
 392              		.section	.text.chSysUnlockFromISR,"ax",%progbits
 393              		.align	1
 394              		.p2align 4,,15
 395              		.syntax unified
 396              		.thumb
 397              		.thumb_func
 398              		.fpu fpv4-sp-d16
 399              		.type	chSysUnlockFromISR, %function
ARM GAS  C:\Users\PCHAUT~1\AppData\Local\Temp\ccORgsmL.s 			page 8


 400              	chSysUnlockFromISR:
 401              	.LFB148:
 402              		.loc 3 406 0
 403              		.cfi_startproc
 404              		@ args = 0, pretend = 0, frame = 8
 405              		@ frame_needed = 0, uses_anonymous_args = 0
 406 0000 00B5     		push	{lr}
 407              		.cfi_def_cfa_offset 4
 408              		.cfi_offset 14, -4
 409 0002 83B0     		sub	sp, sp, #12
 410              		.cfi_def_cfa_offset 16
 411              		.loc 3 406 0
 412 0004 094B     		ldr	r3, .L32
 413 0006 1B68     		ldr	r3, [r3]
 414 0008 0193     		str	r3, [sp, #4]
 415              		.loc 3 408 0
 416 000a FFF7FEFF 		bl	_dbg_check_unlock_from_isr
 417              		.loc 3 409 0
 418 000e FFF7FEFF 		bl	_stats_stop_measure_crit_isr
 419              		.loc 3 410 0
 420 0012 FFF7FEFF 		bl	port_unlock_from_isr
 421              		.loc 3 411 0
 422 0016 00BF     		nop
 423 0018 044B     		ldr	r3, .L32
 424 001a 019A     		ldr	r2, [sp, #4]
 425 001c 1B68     		ldr	r3, [r3]
 426 001e 9A42     		cmp	r2, r3
 427 0020 01D0     		beq	.L31
 428 0022 FFF7FEFF 		bl	__stack_chk_fail
 429              	.L31:
 430 0026 03B0     		add	sp, sp, #12
 431              		.cfi_def_cfa_offset 4
 432              		@ sp needed
 433 0028 5DF804FB 		ldr	pc, [sp], #4
 434              	.L33:
 435              		.align	2
 436              	.L32:
 437 002c 00000000 		.word	__stack_chk_guard
 438              		.cfi_endproc
 439              	.LFE148:
 440              		.size	chSysUnlockFromISR, .-chSysUnlockFromISR
 441              		.section	.text.osalSysLock,"ax",%progbits
 442              		.align	1
 443              		.p2align 4,,15
 444              		.syntax unified
 445              		.thumb
 446              		.thumb_func
 447              		.fpu fpv4-sp-d16
 448              		.type	osalSysLock, %function
 449              	osalSysLock:
 450              	.LFB223:
 451              		.file 4 "../lib/e-puck2_main-processor/ChibiOS//os/hal/osal/rt/osal.h"
 452              		.loc 4 445 0
 453              		.cfi_startproc
 454              		@ args = 0, pretend = 0, frame = 8
 455              		@ frame_needed = 0, uses_anonymous_args = 0
 456 0000 00B5     		push	{lr}
ARM GAS  C:\Users\PCHAUT~1\AppData\Local\Temp\ccORgsmL.s 			page 9


 457              		.cfi_def_cfa_offset 4
 458              		.cfi_offset 14, -4
 459 0002 83B0     		sub	sp, sp, #12
 460              		.cfi_def_cfa_offset 16
 461              		.loc 4 445 0
 462 0004 074B     		ldr	r3, .L36
 463 0006 1B68     		ldr	r3, [r3]
 464 0008 0193     		str	r3, [sp, #4]
 465              		.loc 4 447 0
 466 000a FFF7FEFF 		bl	chSysLock
 467              		.loc 4 448 0
 468 000e 00BF     		nop
 469 0010 044B     		ldr	r3, .L36
 470 0012 019A     		ldr	r2, [sp, #4]
 471 0014 1B68     		ldr	r3, [r3]
 472 0016 9A42     		cmp	r2, r3
 473 0018 01D0     		beq	.L35
 474 001a FFF7FEFF 		bl	__stack_chk_fail
 475              	.L35:
 476 001e 03B0     		add	sp, sp, #12
 477              		.cfi_def_cfa_offset 4
 478              		@ sp needed
 479 0020 5DF804FB 		ldr	pc, [sp], #4
 480              	.L37:
 481              		.align	2
 482              	.L36:
 483 0024 00000000 		.word	__stack_chk_guard
 484              		.cfi_endproc
 485              	.LFE223:
 486              		.size	osalSysLock, .-osalSysLock
 487              		.section	.text.osalSysUnlock,"ax",%progbits
 488              		.align	1
 489              		.p2align 4,,15
 490              		.syntax unified
 491              		.thumb
 492              		.thumb_func
 493              		.fpu fpv4-sp-d16
 494              		.type	osalSysUnlock, %function
 495              	osalSysUnlock:
 496              	.LFB224:
 497              		.loc 4 456 0
 498              		.cfi_startproc
 499              		@ args = 0, pretend = 0, frame = 8
 500              		@ frame_needed = 0, uses_anonymous_args = 0
 501 0000 00B5     		push	{lr}
 502              		.cfi_def_cfa_offset 4
 503              		.cfi_offset 14, -4
 504 0002 83B0     		sub	sp, sp, #12
 505              		.cfi_def_cfa_offset 16
 506              		.loc 4 456 0
 507 0004 074B     		ldr	r3, .L40
 508 0006 1B68     		ldr	r3, [r3]
 509 0008 0193     		str	r3, [sp, #4]
 510              		.loc 4 458 0
 511 000a FFF7FEFF 		bl	chSysUnlock
 512              		.loc 4 459 0
 513 000e 00BF     		nop
ARM GAS  C:\Users\PCHAUT~1\AppData\Local\Temp\ccORgsmL.s 			page 10


 514 0010 044B     		ldr	r3, .L40
 515 0012 019A     		ldr	r2, [sp, #4]
 516 0014 1B68     		ldr	r3, [r3]
 517 0016 9A42     		cmp	r2, r3
 518 0018 01D0     		beq	.L39
 519 001a FFF7FEFF 		bl	__stack_chk_fail
 520              	.L39:
 521 001e 03B0     		add	sp, sp, #12
 522              		.cfi_def_cfa_offset 4
 523              		@ sp needed
 524 0020 5DF804FB 		ldr	pc, [sp], #4
 525              	.L41:
 526              		.align	2
 527              	.L40:
 528 0024 00000000 		.word	__stack_chk_guard
 529              		.cfi_endproc
 530              	.LFE224:
 531              		.size	osalSysUnlock, .-osalSysUnlock
 532              		.section	.text.osalSysLockFromISR,"ax",%progbits
 533              		.align	1
 534              		.p2align 4,,15
 535              		.syntax unified
 536              		.thumb
 537              		.thumb_func
 538              		.fpu fpv4-sp-d16
 539              		.type	osalSysLockFromISR, %function
 540              	osalSysLockFromISR:
 541              	.LFB225:
 542              		.loc 4 467 0
 543              		.cfi_startproc
 544              		@ args = 0, pretend = 0, frame = 8
 545              		@ frame_needed = 0, uses_anonymous_args = 0
 546 0000 00B5     		push	{lr}
 547              		.cfi_def_cfa_offset 4
 548              		.cfi_offset 14, -4
 549 0002 83B0     		sub	sp, sp, #12
 550              		.cfi_def_cfa_offset 16
 551              		.loc 4 467 0
 552 0004 074B     		ldr	r3, .L44
 553 0006 1B68     		ldr	r3, [r3]
 554 0008 0193     		str	r3, [sp, #4]
 555              		.loc 4 469 0
 556 000a FFF7FEFF 		bl	chSysLockFromISR
 557              		.loc 4 470 0
 558 000e 00BF     		nop
 559 0010 044B     		ldr	r3, .L44
 560 0012 019A     		ldr	r2, [sp, #4]
 561 0014 1B68     		ldr	r3, [r3]
 562 0016 9A42     		cmp	r2, r3
 563 0018 01D0     		beq	.L43
 564 001a FFF7FEFF 		bl	__stack_chk_fail
 565              	.L43:
 566 001e 03B0     		add	sp, sp, #12
 567              		.cfi_def_cfa_offset 4
 568              		@ sp needed
 569 0020 5DF804FB 		ldr	pc, [sp], #4
 570              	.L45:
ARM GAS  C:\Users\PCHAUT~1\AppData\Local\Temp\ccORgsmL.s 			page 11


 571              		.align	2
 572              	.L44:
 573 0024 00000000 		.word	__stack_chk_guard
 574              		.cfi_endproc
 575              	.LFE225:
 576              		.size	osalSysLockFromISR, .-osalSysLockFromISR
 577              		.section	.text.osalSysUnlockFromISR,"ax",%progbits
 578              		.align	1
 579              		.p2align 4,,15
 580              		.syntax unified
 581              		.thumb
 582              		.thumb_func
 583              		.fpu fpv4-sp-d16
 584              		.type	osalSysUnlockFromISR, %function
 585              	osalSysUnlockFromISR:
 586              	.LFB226:
 587              		.loc 4 478 0
 588              		.cfi_startproc
 589              		@ args = 0, pretend = 0, frame = 8
 590              		@ frame_needed = 0, uses_anonymous_args = 0
 591 0000 00B5     		push	{lr}
 592              		.cfi_def_cfa_offset 4
 593              		.cfi_offset 14, -4
 594 0002 83B0     		sub	sp, sp, #12
 595              		.cfi_def_cfa_offset 16
 596              		.loc 4 478 0
 597 0004 074B     		ldr	r3, .L48
 598 0006 1B68     		ldr	r3, [r3]
 599 0008 0193     		str	r3, [sp, #4]
 600              		.loc 4 480 0
 601 000a FFF7FEFF 		bl	chSysUnlockFromISR
 602              		.loc 4 481 0
 603 000e 00BF     		nop
 604 0010 044B     		ldr	r3, .L48
 605 0012 019A     		ldr	r2, [sp, #4]
 606 0014 1B68     		ldr	r3, [r3]
 607 0016 9A42     		cmp	r2, r3
 608 0018 01D0     		beq	.L47
 609 001a FFF7FEFF 		bl	__stack_chk_fail
 610              	.L47:
 611 001e 03B0     		add	sp, sp, #12
 612              		.cfi_def_cfa_offset 4
 613              		@ sp needed
 614 0020 5DF804FB 		ldr	pc, [sp], #4
 615              	.L49:
 616              		.align	2
 617              	.L48:
 618 0024 00000000 		.word	__stack_chk_guard
 619              		.cfi_endproc
 620              	.LFE226:
 621              		.size	osalSysUnlockFromISR, .-osalSysUnlockFromISR
 622              		.section	.text.osalThreadSleep,"ax",%progbits
 623              		.align	1
 624              		.p2align 4,,15
 625              		.syntax unified
 626              		.thumb
 627              		.thumb_func
ARM GAS  C:\Users\PCHAUT~1\AppData\Local\Temp\ccORgsmL.s 			page 12


 628              		.fpu fpv4-sp-d16
 629              		.type	osalThreadSleep, %function
 630              	osalThreadSleep:
 631              	.LFB235:
 632              		.loc 4 625 0
 633              		.cfi_startproc
 634              		@ args = 0, pretend = 0, frame = 16
 635              		@ frame_needed = 0, uses_anonymous_args = 0
 636 0000 00B5     		push	{lr}
 637              		.cfi_def_cfa_offset 4
 638              		.cfi_offset 14, -4
 639 0002 85B0     		sub	sp, sp, #20
 640              		.cfi_def_cfa_offset 24
 641 0004 0190     		str	r0, [sp, #4]
 642              		.loc 4 625 0
 643 0006 084B     		ldr	r3, .L52
 644 0008 1B68     		ldr	r3, [r3]
 645 000a 0393     		str	r3, [sp, #12]
 646              		.loc 4 627 0
 647 000c 0198     		ldr	r0, [sp, #4]
 648 000e FFF7FEFF 		bl	chThdSleep
 649              		.loc 4 628 0
 650 0012 00BF     		nop
 651 0014 044B     		ldr	r3, .L52
 652 0016 039A     		ldr	r2, [sp, #12]
 653 0018 1B68     		ldr	r3, [r3]
 654 001a 9A42     		cmp	r2, r3
 655 001c 01D0     		beq	.L51
 656 001e FFF7FEFF 		bl	__stack_chk_fail
 657              	.L51:
 658 0022 05B0     		add	sp, sp, #20
 659              		.cfi_def_cfa_offset 4
 660              		@ sp needed
 661 0024 5DF804FB 		ldr	pc, [sp], #4
 662              	.L53:
 663              		.align	2
 664              	.L52:
 665 0028 00000000 		.word	__stack_chk_guard
 666              		.cfi_endproc
 667              	.LFE235:
 668              		.size	osalThreadSleep, .-osalThreadSleep
 669              		.section	.text.osalThreadSuspendS,"ax",%progbits
 670              		.align	1
 671              		.p2align 4,,15
 672              		.syntax unified
 673              		.thumb
 674              		.thumb_func
 675              		.fpu fpv4-sp-d16
 676              		.type	osalThreadSuspendS, %function
 677              	osalThreadSuspendS:
 678              	.LFB236:
 679              		.loc 4 640 0
 680              		.cfi_startproc
 681              		@ args = 0, pretend = 0, frame = 16
 682              		@ frame_needed = 0, uses_anonymous_args = 0
 683 0000 00B5     		push	{lr}
 684              		.cfi_def_cfa_offset 4
ARM GAS  C:\Users\PCHAUT~1\AppData\Local\Temp\ccORgsmL.s 			page 13


 685              		.cfi_offset 14, -4
 686 0002 85B0     		sub	sp, sp, #20
 687              		.cfi_def_cfa_offset 24
 688 0004 0190     		str	r0, [sp, #4]
 689              		.loc 4 640 0
 690 0006 094B     		ldr	r3, .L57
 691 0008 1B68     		ldr	r3, [r3]
 692 000a 0393     		str	r3, [sp, #12]
 693              		.loc 4 642 0
 694 000c 0198     		ldr	r0, [sp, #4]
 695 000e FFF7FEFF 		bl	chThdSuspendS
 696 0012 0346     		mov	r3, r0
 697              		.loc 4 643 0
 698 0014 1846     		mov	r0, r3
 699 0016 054B     		ldr	r3, .L57
 700 0018 039A     		ldr	r2, [sp, #12]
 701 001a 1B68     		ldr	r3, [r3]
 702 001c 9A42     		cmp	r2, r3
 703 001e 01D0     		beq	.L56
 704 0020 FFF7FEFF 		bl	__stack_chk_fail
 705              	.L56:
 706 0024 05B0     		add	sp, sp, #20
 707              		.cfi_def_cfa_offset 4
 708              		@ sp needed
 709 0026 5DF804FB 		ldr	pc, [sp], #4
 710              	.L58:
 711 002a 00BF     		.align	2
 712              	.L57:
 713 002c 00000000 		.word	__stack_chk_guard
 714              		.cfi_endproc
 715              	.LFE236:
 716              		.size	osalThreadSuspendS, .-osalThreadSuspendS
 717              		.section	.text.osalThreadResumeI,"ax",%progbits
 718              		.align	1
 719              		.p2align 4,,15
 720              		.syntax unified
 721              		.thumb
 722              		.thumb_func
 723              		.fpu fpv4-sp-d16
 724              		.type	osalThreadResumeI, %function
 725              	osalThreadResumeI:
 726              	.LFB238:
 727              		.loc 4 680 0
 728              		.cfi_startproc
 729              		@ args = 0, pretend = 0, frame = 16
 730              		@ frame_needed = 0, uses_anonymous_args = 0
 731 0000 00B5     		push	{lr}
 732              		.cfi_def_cfa_offset 4
 733              		.cfi_offset 14, -4
 734 0002 85B0     		sub	sp, sp, #20
 735              		.cfi_def_cfa_offset 24
 736 0004 0190     		str	r0, [sp, #4]
 737 0006 0091     		str	r1, [sp]
 738              		.loc 4 680 0
 739 0008 084B     		ldr	r3, .L61
 740 000a 1B68     		ldr	r3, [r3]
 741 000c 0393     		str	r3, [sp, #12]
ARM GAS  C:\Users\PCHAUT~1\AppData\Local\Temp\ccORgsmL.s 			page 14


 742              		.loc 4 682 0
 743 000e 0099     		ldr	r1, [sp]
 744 0010 0198     		ldr	r0, [sp, #4]
 745 0012 FFF7FEFF 		bl	chThdResumeI
 746              		.loc 4 683 0
 747 0016 00BF     		nop
 748 0018 044B     		ldr	r3, .L61
 749 001a 039A     		ldr	r2, [sp, #12]
 750 001c 1B68     		ldr	r3, [r3]
 751 001e 9A42     		cmp	r2, r3
 752 0020 01D0     		beq	.L60
 753 0022 FFF7FEFF 		bl	__stack_chk_fail
 754              	.L60:
 755 0026 05B0     		add	sp, sp, #20
 756              		.cfi_def_cfa_offset 4
 757              		@ sp needed
 758 0028 5DF804FB 		ldr	pc, [sp], #4
 759              	.L62:
 760              		.align	2
 761              	.L61:
 762 002c 00000000 		.word	__stack_chk_guard
 763              		.cfi_endproc
 764              	.LFE238:
 765              		.size	osalThreadResumeI, .-osalThreadResumeI
 766              		.global	SDCD1
 767              		.section	.bss.SDCD1,"aw",%nobits
 768              		.align	2
 769              		.type	SDCD1, %object
 770              		.size	SDCD1, 76
 771              	SDCD1:
 772 0000 00000000 		.space	76
 772      00000000 
 772      00000000 
 772      00000000 
 772      00000000 
 773              		.section	.bss.u,"aw",%nobits
 774              		.align	2
 775              		.type	u, %object
 776              		.size	u, 512
 777              	u:
 778 0000 00000000 		.space	512
 778      00000000 
 778      00000000 
 778      00000000 
 778      00000000 
 779              		.section	.rodata.sdc_default_cfg,"a",%progbits
 780              		.align	2
 781              		.type	sdc_default_cfg, %object
 782              		.size	sdc_default_cfg, 8
 783              	sdc_default_cfg:
 784 0000 00000000 		.word	0
 785 0004 01       		.byte	1
 786 0005 000000   		.space	3
 787              		.section	.text.sdc_lld_prepare_read_bytes,"ax",%progbits
 788              		.align	1
 789              		.p2align 4,,15
 790              		.syntax unified
ARM GAS  C:\Users\PCHAUT~1\AppData\Local\Temp\ccORgsmL.s 			page 15


 791              		.thumb
 792              		.thumb_func
 793              		.fpu fpv4-sp-d16
 794              		.type	sdc_lld_prepare_read_bytes, %function
 795              	sdc_lld_prepare_read_bytes:
 796              	.LFB256:
 797              		.file 5 "../lib/e-puck2_main-processor/ChibiOS//os/hal/ports/STM32/LLD/sdc_lld.c"
 798              		.loc 5 88 0
 799              		.cfi_startproc
 800              		@ args = 0, pretend = 0, frame = 24
 801              		@ frame_needed = 0, uses_anonymous_args = 0
 802 0000 00B5     		push	{lr}
 803              		.cfi_def_cfa_offset 4
 804              		.cfi_offset 14, -4
 805 0002 87B0     		sub	sp, sp, #28
 806              		.cfi_def_cfa_offset 32
 807 0004 0390     		str	r0, [sp, #12]
 808 0006 0291     		str	r1, [sp, #8]
 809 0008 0192     		str	r2, [sp, #4]
 810              		.loc 5 88 0
 811 000a 274B     		ldr	r3, .L68
 812 000c 1B68     		ldr	r3, [r3]
 813 000e 0593     		str	r3, [sp, #20]
 814              		.loc 5 89 0
 815 0010 019B     		ldr	r3, [sp, #4]
 816 0012 B3F1807F 		cmp	r3, #16777216
 817 0016 02D3     		bcc	.L64
 818              		.loc 5 89 0 is_stmt 0 discriminator 2
 819 0018 2448     		ldr	r0, .L68+4
 820 001a FFF7FEFF 		bl	chSysHalt
 821              	.L64:
 822              		.loc 5 91 0 is_stmt 1
 823 001e 039B     		ldr	r3, [sp, #12]
 824 0020 9B6C     		ldr	r3, [r3, #72]
 825 0022 234A     		ldr	r2, .L68+8
 826 0024 5A62     		str	r2, [r3, #36]
 827              		.loc 5 94 0
 828 0026 0398     		ldr	r0, [sp, #12]
 829 0028 FFF7FEFF 		bl	_sdc_wait_for_transfer_state
 830 002c 0346     		mov	r3, r0
 831 002e 002B     		cmp	r3, #0
 832 0030 01D0     		beq	.L65
 833              		.loc 5 95 0
 834 0032 0123     		movs	r3, #1
 835 0034 2CE0     		b	.L66
 836              	.L65:
 837              		.loc 5 98 0
 838 0036 039B     		ldr	r3, [sp, #12]
 839 0038 5B6C     		ldr	r3, [r3, #68]
 840 003a 1B68     		ldr	r3, [r3]
 841 003c 029A     		ldr	r2, [sp, #8]
 842 003e DA60     		str	r2, [r3, #12]
 843              		.loc 5 99 0
 844 0040 039B     		ldr	r3, [sp, #12]
 845 0042 5B6C     		ldr	r3, [r3, #68]
 846 0044 1B68     		ldr	r3, [r3]
 847 0046 019A     		ldr	r2, [sp, #4]
ARM GAS  C:\Users\PCHAUT~1\AppData\Local\Temp\ccORgsmL.s 			page 16


 848 0048 9208     		lsrs	r2, r2, #2
 849 004a 5A60     		str	r2, [r3, #4]
 850              		.loc 5 100 0
 851 004c 039B     		ldr	r3, [sp, #12]
 852 004e 5B6C     		ldr	r3, [r3, #68]
 853 0050 1B68     		ldr	r3, [r3]
 854 0052 039A     		ldr	r2, [sp, #12]
 855 0054 126C     		ldr	r2, [r2, #64]
 856 0056 1A60     		str	r2, [r3]
 857              		.loc 5 101 0
 858 0058 039B     		ldr	r3, [sp, #12]
 859 005a 5B6C     		ldr	r3, [r3, #68]
 860 005c 1B68     		ldr	r3, [r3]
 861 005e 1A68     		ldr	r2, [r3]
 862 0060 039B     		ldr	r3, [sp, #12]
 863 0062 5B6C     		ldr	r3, [r3, #68]
 864 0064 1B68     		ldr	r3, [r3]
 865 0066 42F00102 		orr	r2, r2, #1
 866 006a 1A60     		str	r2, [r3]
 867              		.loc 5 104 0
 868 006c 039B     		ldr	r3, [sp, #12]
 869 006e 9B6C     		ldr	r3, [r3, #72]
 870 0070 104A     		ldr	r2, .L68+12
 871 0072 9A63     		str	r2, [r3, #56]
 872              		.loc 5 105 0
 873 0074 039B     		ldr	r3, [sp, #12]
 874 0076 9B6C     		ldr	r3, [r3, #72]
 875 0078 40F22A32 		movw	r2, #810
 876 007c DA63     		str	r2, [r3, #60]
 877              		.loc 5 110 0
 878 007e 039B     		ldr	r3, [sp, #12]
 879 0080 9B6C     		ldr	r3, [r3, #72]
 880 0082 019A     		ldr	r2, [sp, #4]
 881 0084 9A62     		str	r2, [r3, #40]
 882              		.loc 5 113 0
 883 0086 039B     		ldr	r3, [sp, #12]
 884 0088 9B6C     		ldr	r3, [r3, #72]
 885 008a 0F22     		movs	r2, #15
 886 008c DA62     		str	r2, [r3, #44]
 887              		.loc 5 118 0
 888 008e 0023     		movs	r3, #0
 889              	.L66:
 890              		.loc 5 119 0
 891 0090 1846     		mov	r0, r3
 892 0092 054B     		ldr	r3, .L68
 893 0094 059A     		ldr	r2, [sp, #20]
 894 0096 1B68     		ldr	r3, [r3]
 895 0098 9A42     		cmp	r2, r3
 896 009a 01D0     		beq	.L67
 897 009c FFF7FEFF 		bl	__stack_chk_fail
 898              	.L67:
 899 00a0 07B0     		add	sp, sp, #28
 900              		.cfi_def_cfa_offset 4
 901              		@ sp needed
 902 00a2 5DF804FB 		ldr	pc, [sp], #4
 903              	.L69:
 904 00a6 00BF     		.align	2
ARM GAS  C:\Users\PCHAUT~1\AppData\Local\Temp\ccORgsmL.s 			page 17


 905              	.L68:
 906 00a8 00000000 		.word	__stack_chk_guard
 907 00ac 00000000 		.word	__func__.10250
 908 00b0 C0270900 		.word	600000
 909 00b4 FF07C000 		.word	12584959
 910              		.cfi_endproc
 911              	.LFE256:
 912              		.size	sdc_lld_prepare_read_bytes, .-sdc_lld_prepare_read_bytes
 913              		.section	.text.sdc_lld_prepare_read,"ax",%progbits
 914              		.align	1
 915              		.p2align 4,,15
 916              		.syntax unified
 917              		.thumb
 918              		.thumb_func
 919              		.fpu fpv4-sp-d16
 920              		.type	sdc_lld_prepare_read, %function
 921              	sdc_lld_prepare_read:
 922              	.LFB257:
 923              		.loc 5 136 0
 924              		.cfi_startproc
 925              		@ args = 0, pretend = 0, frame = 24
 926              		@ frame_needed = 0, uses_anonymous_args = 0
 927 0000 00B5     		push	{lr}
 928              		.cfi_def_cfa_offset 4
 929              		.cfi_offset 14, -4
 930 0002 87B0     		sub	sp, sp, #28
 931              		.cfi_def_cfa_offset 32
 932 0004 0390     		str	r0, [sp, #12]
 933 0006 0291     		str	r1, [sp, #8]
 934 0008 0192     		str	r2, [sp, #4]
 935 000a 0093     		str	r3, [sp]
 936              		.loc 5 136 0
 937 000c 1E4B     		ldr	r3, .L78
 938 000e 1B68     		ldr	r3, [r3]
 939 0010 0593     		str	r3, [sp, #20]
 940              		.loc 5 140 0
 941 0012 039B     		ldr	r3, [sp, #12]
 942 0014 1B6B     		ldr	r3, [r3, #48]
 943 0016 03F01003 		and	r3, r3, #16
 944 001a 002B     		cmp	r3, #0
 945 001c 02D1     		bne	.L71
 946              		.loc 5 141 0
 947 001e 029B     		ldr	r3, [sp, #8]
 948 0020 5B02     		lsls	r3, r3, #9
 949 0022 0293     		str	r3, [sp, #8]
 950              	.L71:
 951              		.loc 5 143 0
 952 0024 019B     		ldr	r3, [sp, #4]
 953 0026 012B     		cmp	r3, #1
 954 0028 10D9     		bls	.L72
 955              		.loc 5 145 0
 956 002a 009B     		ldr	r3, [sp]
 957 002c 029A     		ldr	r2, [sp, #8]
 958 002e 1221     		movs	r1, #18
 959 0030 0398     		ldr	r0, [sp, #12]
 960 0032 FFF7FEFF 		bl	sdc_lld_send_cmd_short_crc
 961 0036 0346     		mov	r3, r0
ARM GAS  C:\Users\PCHAUT~1\AppData\Local\Temp\ccORgsmL.s 			page 18


 962 0038 002B     		cmp	r3, #0
 963 003a 05D1     		bne	.L73
 964              		.loc 5 146 0
 965 003c 009B     		ldr	r3, [sp]
 966 003e 1A68     		ldr	r2, [r3]
 967 0040 124B     		ldr	r3, .L78+4
 968 0042 1340     		ands	r3, r3, r2
 969 0044 002B     		cmp	r3, #0
 970 0046 12D0     		beq	.L74
 971              	.L73:
 972              		.loc 5 147 0
 973 0048 0123     		movs	r3, #1
 974 004a 11E0     		b	.L75
 975              	.L72:
 976              		.loc 5 151 0
 977 004c 009B     		ldr	r3, [sp]
 978 004e 029A     		ldr	r2, [sp, #8]
 979 0050 1121     		movs	r1, #17
 980 0052 0398     		ldr	r0, [sp, #12]
 981 0054 FFF7FEFF 		bl	sdc_lld_send_cmd_short_crc
 982 0058 0346     		mov	r3, r0
 983 005a 002B     		cmp	r3, #0
 984 005c 05D1     		bne	.L76
 985              		.loc 5 152 0
 986 005e 009B     		ldr	r3, [sp]
 987 0060 1A68     		ldr	r2, [r3]
 988 0062 0A4B     		ldr	r3, .L78+4
 989 0064 1340     		ands	r3, r3, r2
 990 0066 002B     		cmp	r3, #0
 991 0068 01D0     		beq	.L74
 992              	.L76:
 993              		.loc 5 153 0
 994 006a 0123     		movs	r3, #1
 995 006c 00E0     		b	.L75
 996              	.L74:
 997              		.loc 5 156 0
 998 006e 0023     		movs	r3, #0
 999              	.L75:
 1000              		.loc 5 157 0
 1001 0070 1846     		mov	r0, r3
 1002 0072 054B     		ldr	r3, .L78
 1003 0074 059A     		ldr	r2, [sp, #20]
 1004 0076 1B68     		ldr	r3, [r3]
 1005 0078 9A42     		cmp	r2, r3
 1006 007a 01D0     		beq	.L77
 1007 007c FFF7FEFF 		bl	__stack_chk_fail
 1008              	.L77:
 1009 0080 07B0     		add	sp, sp, #28
 1010              		.cfi_def_cfa_offset 4
 1011              		@ sp needed
 1012 0082 5DF804FB 		ldr	pc, [sp], #4
 1013              	.L79:
 1014 0086 00BF     		.align	2
 1015              	.L78:
 1016 0088 00000000 		.word	__stack_chk_guard
 1017 008c 08E0FFFD 		.word	-33562616
 1018              		.cfi_endproc
ARM GAS  C:\Users\PCHAUT~1\AppData\Local\Temp\ccORgsmL.s 			page 19


 1019              	.LFE257:
 1020              		.size	sdc_lld_prepare_read, .-sdc_lld_prepare_read
 1021              		.section	.text.sdc_lld_prepare_write,"ax",%progbits
 1022              		.align	1
 1023              		.p2align 4,,15
 1024              		.syntax unified
 1025              		.thumb
 1026              		.thumb_func
 1027              		.fpu fpv4-sp-d16
 1028              		.type	sdc_lld_prepare_write, %function
 1029              	sdc_lld_prepare_write:
 1030              	.LFB258:
 1031              		.loc 5 174 0
 1032              		.cfi_startproc
 1033              		@ args = 0, pretend = 0, frame = 24
 1034              		@ frame_needed = 0, uses_anonymous_args = 0
 1035 0000 00B5     		push	{lr}
 1036              		.cfi_def_cfa_offset 4
 1037              		.cfi_offset 14, -4
 1038 0002 87B0     		sub	sp, sp, #28
 1039              		.cfi_def_cfa_offset 32
 1040 0004 0390     		str	r0, [sp, #12]
 1041 0006 0291     		str	r1, [sp, #8]
 1042 0008 0192     		str	r2, [sp, #4]
 1043 000a 0093     		str	r3, [sp]
 1044              		.loc 5 174 0
 1045 000c 1E4B     		ldr	r3, .L88
 1046 000e 1B68     		ldr	r3, [r3]
 1047 0010 0593     		str	r3, [sp, #20]
 1048              		.loc 5 178 0
 1049 0012 039B     		ldr	r3, [sp, #12]
 1050 0014 1B6B     		ldr	r3, [r3, #48]
 1051 0016 03F01003 		and	r3, r3, #16
 1052 001a 002B     		cmp	r3, #0
 1053 001c 02D1     		bne	.L81
 1054              		.loc 5 179 0
 1055 001e 029B     		ldr	r3, [sp, #8]
 1056 0020 5B02     		lsls	r3, r3, #9
 1057 0022 0293     		str	r3, [sp, #8]
 1058              	.L81:
 1059              		.loc 5 181 0
 1060 0024 019B     		ldr	r3, [sp, #4]
 1061 0026 012B     		cmp	r3, #1
 1062 0028 10D9     		bls	.L82
 1063              		.loc 5 183 0
 1064 002a 009B     		ldr	r3, [sp]
 1065 002c 029A     		ldr	r2, [sp, #8]
 1066 002e 1921     		movs	r1, #25
 1067 0030 0398     		ldr	r0, [sp, #12]
 1068 0032 FFF7FEFF 		bl	sdc_lld_send_cmd_short_crc
 1069 0036 0346     		mov	r3, r0
 1070 0038 002B     		cmp	r3, #0
 1071 003a 05D1     		bne	.L83
 1072              		.loc 5 184 0
 1073 003c 009B     		ldr	r3, [sp]
 1074 003e 1A68     		ldr	r2, [r3]
 1075 0040 124B     		ldr	r3, .L88+4
ARM GAS  C:\Users\PCHAUT~1\AppData\Local\Temp\ccORgsmL.s 			page 20


 1076 0042 1340     		ands	r3, r3, r2
 1077 0044 002B     		cmp	r3, #0
 1078 0046 12D0     		beq	.L84
 1079              	.L83:
 1080              		.loc 5 185 0
 1081 0048 0123     		movs	r3, #1
 1082 004a 11E0     		b	.L85
 1083              	.L82:
 1084              		.loc 5 189 0
 1085 004c 009B     		ldr	r3, [sp]
 1086 004e 029A     		ldr	r2, [sp, #8]
 1087 0050 1821     		movs	r1, #24
 1088 0052 0398     		ldr	r0, [sp, #12]
 1089 0054 FFF7FEFF 		bl	sdc_lld_send_cmd_short_crc
 1090 0058 0346     		mov	r3, r0
 1091 005a 002B     		cmp	r3, #0
 1092 005c 05D1     		bne	.L86
 1093              		.loc 5 190 0
 1094 005e 009B     		ldr	r3, [sp]
 1095 0060 1A68     		ldr	r2, [r3]
 1096 0062 0A4B     		ldr	r3, .L88+4
 1097 0064 1340     		ands	r3, r3, r2
 1098 0066 002B     		cmp	r3, #0
 1099 0068 01D0     		beq	.L84
 1100              	.L86:
 1101              		.loc 5 191 0
 1102 006a 0123     		movs	r3, #1
 1103 006c 00E0     		b	.L85
 1104              	.L84:
 1105              		.loc 5 194 0
 1106 006e 0023     		movs	r3, #0
 1107              	.L85:
 1108              		.loc 5 195 0
 1109 0070 1846     		mov	r0, r3
 1110 0072 054B     		ldr	r3, .L88
 1111 0074 059A     		ldr	r2, [sp, #20]
 1112 0076 1B68     		ldr	r3, [r3]
 1113 0078 9A42     		cmp	r2, r3
 1114 007a 01D0     		beq	.L87
 1115 007c FFF7FEFF 		bl	__stack_chk_fail
 1116              	.L87:
 1117 0080 07B0     		add	sp, sp, #28
 1118              		.cfi_def_cfa_offset 4
 1119              		@ sp needed
 1120 0082 5DF804FB 		ldr	pc, [sp], #4
 1121              	.L89:
 1122 0086 00BF     		.align	2
 1123              	.L88:
 1124 0088 00000000 		.word	__stack_chk_guard
 1125 008c 08E0FFFD 		.word	-33562616
 1126              		.cfi_endproc
 1127              	.LFE258:
 1128              		.size	sdc_lld_prepare_write, .-sdc_lld_prepare_write
 1129              		.section	.text.sdc_lld_wait_transaction_end,"ax",%progbits
 1130              		.align	1
 1131              		.p2align 4,,15
 1132              		.syntax unified
ARM GAS  C:\Users\PCHAUT~1\AppData\Local\Temp\ccORgsmL.s 			page 21


 1133              		.thumb
 1134              		.thumb_func
 1135              		.fpu fpv4-sp-d16
 1136              		.type	sdc_lld_wait_transaction_end, %function
 1137              	sdc_lld_wait_transaction_end:
 1138              	.LFB259:
 1139              		.loc 5 209 0
 1140              		.cfi_startproc
 1141              		@ args = 0, pretend = 0, frame = 24
 1142              		@ frame_needed = 0, uses_anonymous_args = 0
 1143 0000 00B5     		push	{lr}
 1144              		.cfi_def_cfa_offset 4
 1145              		.cfi_offset 14, -4
 1146 0002 87B0     		sub	sp, sp, #28
 1147              		.cfi_def_cfa_offset 32
 1148 0004 0390     		str	r0, [sp, #12]
 1149 0006 0291     		str	r1, [sp, #8]
 1150 0008 0192     		str	r2, [sp, #4]
 1151              		.loc 5 209 0
 1152 000a 274B     		ldr	r3, .L98
 1153 000c 1B68     		ldr	r3, [r3]
 1154 000e 0593     		str	r3, [sp, #20]
 1155              		.loc 5 213 0
 1156 0010 FFF7FEFF 		bl	osalSysLock
 1157              		.loc 5 214 0
 1158 0014 039B     		ldr	r3, [sp, #12]
 1159 0016 9B6C     		ldr	r3, [r3, #72]
 1160 0018 DB6B     		ldr	r3, [r3, #60]
 1161 001a 002B     		cmp	r3, #0
 1162 001c 04D0     		beq	.L91
 1163              		.loc 5 215 0
 1164 001e 039B     		ldr	r3, [sp, #12]
 1165 0020 3C33     		adds	r3, r3, #60
 1166 0022 1846     		mov	r0, r3
 1167 0024 FFF7FEFF 		bl	osalThreadSuspendS
 1168              	.L91:
 1169              		.loc 5 216 0
 1170 0028 039B     		ldr	r3, [sp, #12]
 1171 002a 9B6C     		ldr	r3, [r3, #72]
 1172 002c 5B6B     		ldr	r3, [r3, #52]
 1173 002e 03F48073 		and	r3, r3, #256
 1174 0032 002B     		cmp	r3, #0
 1175 0034 03D1     		bne	.L97
 1176              		.loc 5 217 0
 1177 0036 FFF7FEFF 		bl	osalSysUnlock
 1178              		.loc 5 218 0
 1179 003a 0123     		movs	r3, #1
 1180 003c 29E0     		b	.L93
 1181              	.L97:
 1182              		.loc 5 223 0
 1183 003e 00BF     		nop
 1184              	.L94:
 1185              		.loc 5 223 0 is_stmt 0 discriminator 1
 1186 0040 039B     		ldr	r3, [sp, #12]
 1187 0042 5B6C     		ldr	r3, [r3, #68]
 1188 0044 1B68     		ldr	r3, [r3]
 1189 0046 1B68     		ldr	r3, [r3]
ARM GAS  C:\Users\PCHAUT~1\AppData\Local\Temp\ccORgsmL.s 			page 22


 1190 0048 03F00103 		and	r3, r3, #1
 1191 004c 002B     		cmp	r3, #0
 1192 004e F7D1     		bne	.L94
 1193              		.loc 5 227 0 is_stmt 1
 1194 0050 039B     		ldr	r3, [sp, #12]
 1195 0052 5B6C     		ldr	r3, [r3, #68]
 1196 0054 1B7A     		ldrb	r3, [r3, #8]	@ zero_extendqisi2
 1197 0056 1A46     		mov	r2, r3
 1198 0058 3D23     		movs	r3, #61
 1199 005a 03FA02F2 		lsl	r2, r3, r2
 1200 005e 039B     		ldr	r3, [sp, #12]
 1201 0060 5B6C     		ldr	r3, [r3, #68]
 1202 0062 5B68     		ldr	r3, [r3, #4]
 1203 0064 1A60     		str	r2, [r3]
 1204              		.loc 5 229 0
 1205 0066 039B     		ldr	r3, [sp, #12]
 1206 0068 9B6C     		ldr	r3, [r3, #72]
 1207 006a 104A     		ldr	r2, .L98+4
 1208 006c 9A63     		str	r2, [r3, #56]
 1209              		.loc 5 230 0
 1210 006e 039B     		ldr	r3, [sp, #12]
 1211 0070 9B6C     		ldr	r3, [r3, #72]
 1212 0072 0022     		movs	r2, #0
 1213 0074 DA62     		str	r2, [r3, #44]
 1214              		.loc 5 231 0
 1215 0076 FFF7FEFF 		bl	osalSysUnlock
 1216              		.loc 5 247 0
 1217 007a 029B     		ldr	r3, [sp, #8]
 1218 007c 012B     		cmp	r3, #1
 1219 007e 07D9     		bls	.L95
 1220              		.loc 5 248 0
 1221 0080 019B     		ldr	r3, [sp, #4]
 1222 0082 0022     		movs	r2, #0
 1223 0084 0C21     		movs	r1, #12
 1224 0086 0398     		ldr	r0, [sp, #12]
 1225 0088 FFF7FEFF 		bl	sdc_lld_send_cmd_short_crc
 1226 008c 0346     		mov	r3, r0
 1227 008e 00E0     		b	.L93
 1228              	.L95:
 1229              		.loc 5 250 0
 1230 0090 0023     		movs	r3, #0
 1231              	.L93:
 1232              		.loc 5 251 0
 1233 0092 1846     		mov	r0, r3
 1234 0094 044B     		ldr	r3, .L98
 1235 0096 059A     		ldr	r2, [sp, #20]
 1236 0098 1B68     		ldr	r3, [r3]
 1237 009a 9A42     		cmp	r2, r3
 1238 009c 01D0     		beq	.L96
 1239 009e FFF7FEFF 		bl	__stack_chk_fail
 1240              	.L96:
 1241 00a2 07B0     		add	sp, sp, #28
 1242              		.cfi_def_cfa_offset 4
 1243              		@ sp needed
 1244 00a4 5DF804FB 		ldr	pc, [sp], #4
 1245              	.L99:
 1246              		.align	2
ARM GAS  C:\Users\PCHAUT~1\AppData\Local\Temp\ccORgsmL.s 			page 23


 1247              	.L98:
 1248 00a8 00000000 		.word	__stack_chk_guard
 1249 00ac FF07C000 		.word	12584959
 1250              		.cfi_endproc
 1251              	.LFE259:
 1252              		.size	sdc_lld_wait_transaction_end, .-sdc_lld_wait_transaction_end
 1253              		.section	.text.sdc_lld_collect_errors,"ax",%progbits
 1254              		.align	1
 1255              		.p2align 4,,15
 1256              		.syntax unified
 1257              		.thumb
 1258              		.thumb_func
 1259              		.fpu fpv4-sp-d16
 1260              		.type	sdc_lld_collect_errors, %function
 1261              	sdc_lld_collect_errors:
 1262              	.LFB260:
 1263              		.loc 5 261 0
 1264              		.cfi_startproc
 1265              		@ args = 0, pretend = 0, frame = 16
 1266              		@ frame_needed = 0, uses_anonymous_args = 0
 1267 0000 00B5     		push	{lr}
 1268              		.cfi_def_cfa_offset 4
 1269              		.cfi_offset 14, -4
 1270 0002 85B0     		sub	sp, sp, #20
 1271              		.cfi_def_cfa_offset 24
 1272 0004 0190     		str	r0, [sp, #4]
 1273 0006 0091     		str	r1, [sp]
 1274              		.loc 5 261 0
 1275 0008 2A4B     		ldr	r3, .L109
 1276 000a 1B68     		ldr	r3, [r3]
 1277 000c 0393     		str	r3, [sp, #12]
 1278              		.loc 5 262 0
 1279 000e 0023     		movs	r3, #0
 1280 0010 0293     		str	r3, [sp, #8]
 1281              		.loc 5 264 0
 1282 0012 009B     		ldr	r3, [sp]
 1283 0014 03F00103 		and	r3, r3, #1
 1284 0018 002B     		cmp	r3, #0
 1285 001a 03D0     		beq	.L101
 1286              		.loc 5 265 0
 1287 001c 029B     		ldr	r3, [sp, #8]
 1288 001e 43F00103 		orr	r3, r3, #1
 1289 0022 0293     		str	r3, [sp, #8]
 1290              	.L101:
 1291              		.loc 5 266 0
 1292 0024 009B     		ldr	r3, [sp]
 1293 0026 03F00203 		and	r3, r3, #2
 1294 002a 002B     		cmp	r3, #0
 1295 002c 03D0     		beq	.L102
 1296              		.loc 5 267 0
 1297 002e 029B     		ldr	r3, [sp, #8]
 1298 0030 43F00203 		orr	r3, r3, #2
 1299 0034 0293     		str	r3, [sp, #8]
 1300              	.L102:
 1301              		.loc 5 268 0
 1302 0036 009B     		ldr	r3, [sp]
 1303 0038 03F00403 		and	r3, r3, #4
ARM GAS  C:\Users\PCHAUT~1\AppData\Local\Temp\ccORgsmL.s 			page 24


 1304 003c 002B     		cmp	r3, #0
 1305 003e 03D0     		beq	.L103
 1306              		.loc 5 269 0
 1307 0040 029B     		ldr	r3, [sp, #8]
 1308 0042 43F00803 		orr	r3, r3, #8
 1309 0046 0293     		str	r3, [sp, #8]
 1310              	.L103:
 1311              		.loc 5 270 0
 1312 0048 009B     		ldr	r3, [sp]
 1313 004a 03F00803 		and	r3, r3, #8
 1314 004e 002B     		cmp	r3, #0
 1315 0050 03D0     		beq	.L104
 1316              		.loc 5 271 0
 1317 0052 029B     		ldr	r3, [sp, #8]
 1318 0054 43F00403 		orr	r3, r3, #4
 1319 0058 0293     		str	r3, [sp, #8]
 1320              	.L104:
 1321              		.loc 5 272 0
 1322 005a 009B     		ldr	r3, [sp]
 1323 005c 03F01003 		and	r3, r3, #16
 1324 0060 002B     		cmp	r3, #0
 1325 0062 03D0     		beq	.L105
 1326              		.loc 5 273 0
 1327 0064 029B     		ldr	r3, [sp, #8]
 1328 0066 43F01003 		orr	r3, r3, #16
 1329 006a 0293     		str	r3, [sp, #8]
 1330              	.L105:
 1331              		.loc 5 274 0
 1332 006c 009B     		ldr	r3, [sp]
 1333 006e 03F02003 		and	r3, r3, #32
 1334 0072 002B     		cmp	r3, #0
 1335 0074 03D0     		beq	.L106
 1336              		.loc 5 275 0
 1337 0076 029B     		ldr	r3, [sp, #8]
 1338 0078 43F02003 		orr	r3, r3, #32
 1339 007c 0293     		str	r3, [sp, #8]
 1340              	.L106:
 1341              		.loc 5 276 0
 1342 007e 009B     		ldr	r3, [sp]
 1343 0080 03F40073 		and	r3, r3, #512
 1344 0084 002B     		cmp	r3, #0
 1345 0086 03D0     		beq	.L107
 1346              		.loc 5 277 0
 1347 0088 029B     		ldr	r3, [sp, #8]
 1348 008a 43F04003 		orr	r3, r3, #64
 1349 008e 0293     		str	r3, [sp, #8]
 1350              	.L107:
 1351              		.loc 5 279 0
 1352 0090 019B     		ldr	r3, [sp, #4]
 1353 0092 5A6B     		ldr	r2, [r3, #52]
 1354 0094 029B     		ldr	r3, [sp, #8]
 1355 0096 1A43     		orrs	r2, r2, r3
 1356 0098 019B     		ldr	r3, [sp, #4]
 1357 009a 5A63     		str	r2, [r3, #52]
 1358              		.loc 5 280 0
 1359 009c 00BF     		nop
 1360 009e 054B     		ldr	r3, .L109
ARM GAS  C:\Users\PCHAUT~1\AppData\Local\Temp\ccORgsmL.s 			page 25


 1361 00a0 039A     		ldr	r2, [sp, #12]
 1362 00a2 1B68     		ldr	r3, [r3]
 1363 00a4 9A42     		cmp	r2, r3
 1364 00a6 01D0     		beq	.L108
 1365 00a8 FFF7FEFF 		bl	__stack_chk_fail
 1366              	.L108:
 1367 00ac 05B0     		add	sp, sp, #20
 1368              		.cfi_def_cfa_offset 4
 1369              		@ sp needed
 1370 00ae 5DF804FB 		ldr	pc, [sp], #4
 1371              	.L110:
 1372 00b2 00BF     		.align	2
 1373              	.L109:
 1374 00b4 00000000 		.word	__stack_chk_guard
 1375              		.cfi_endproc
 1376              	.LFE260:
 1377              		.size	sdc_lld_collect_errors, .-sdc_lld_collect_errors
 1378              		.section	.text.sdc_lld_error_cleanup,"ax",%progbits
 1379              		.align	1
 1380              		.p2align 4,,15
 1381              		.syntax unified
 1382              		.thumb
 1383              		.thumb_func
 1384              		.fpu fpv4-sp-d16
 1385              		.type	sdc_lld_error_cleanup, %function
 1386              	sdc_lld_error_cleanup:
 1387              	.LFB261:
 1388              		.loc 5 293 0
 1389              		.cfi_startproc
 1390              		@ args = 0, pretend = 0, frame = 24
 1391              		@ frame_needed = 0, uses_anonymous_args = 0
 1392 0000 00B5     		push	{lr}
 1393              		.cfi_def_cfa_offset 4
 1394              		.cfi_offset 14, -4
 1395 0002 87B0     		sub	sp, sp, #28
 1396              		.cfi_def_cfa_offset 32
 1397 0004 0390     		str	r0, [sp, #12]
 1398 0006 0291     		str	r1, [sp, #8]
 1399 0008 0192     		str	r2, [sp, #4]
 1400              		.loc 5 293 0
 1401 000a 2A4B     		ldr	r3, .L116
 1402 000c 1B68     		ldr	r3, [r3]
 1403 000e 0593     		str	r3, [sp, #20]
 1404              		.loc 5 294 0
 1405 0010 039B     		ldr	r3, [sp, #12]
 1406 0012 9B6C     		ldr	r3, [r3, #72]
 1407 0014 5B6B     		ldr	r3, [r3, #52]
 1408 0016 0493     		str	r3, [sp, #16]
 1409              		.loc 5 296 0
 1410 0018 039B     		ldr	r3, [sp, #12]
 1411 001a 5B6C     		ldr	r3, [r3, #68]
 1412 001c 1B7A     		ldrb	r3, [r3, #8]	@ zero_extendqisi2
 1413 001e 1A46     		mov	r2, r3
 1414 0020 3D23     		movs	r3, #61
 1415 0022 03FA02F2 		lsl	r2, r3, r2
 1416 0026 039B     		ldr	r3, [sp, #12]
 1417 0028 5B6C     		ldr	r3, [r3, #68]
ARM GAS  C:\Users\PCHAUT~1\AppData\Local\Temp\ccORgsmL.s 			page 26


 1418 002a 5B68     		ldr	r3, [r3, #4]
 1419 002c 1A60     		str	r2, [r3]
 1420              		.loc 5 297 0
 1421 002e 039B     		ldr	r3, [sp, #12]
 1422 0030 5B6C     		ldr	r3, [r3, #68]
 1423 0032 1B68     		ldr	r3, [r3]
 1424 0034 1A68     		ldr	r2, [r3]
 1425 0036 039B     		ldr	r3, [sp, #12]
 1426 0038 5B6C     		ldr	r3, [r3, #68]
 1427 003a 1B68     		ldr	r3, [r3]
 1428 003c 22F01F02 		bic	r2, r2, #31
 1429 0040 1A60     		str	r2, [r3]
 1430 0042 00BF     		nop
 1431              	.L112:
 1432              		.loc 5 297 0 is_stmt 0 discriminator 2
 1433 0044 039B     		ldr	r3, [sp, #12]
 1434 0046 5B6C     		ldr	r3, [r3, #68]
 1435 0048 1B68     		ldr	r3, [r3]
 1436 004a 1B68     		ldr	r3, [r3]
 1437 004c 03F00103 		and	r3, r3, #1
 1438 0050 002B     		cmp	r3, #0
 1439 0052 F7D1     		bne	.L112
 1440              		.loc 5 297 0 discriminator 3
 1441 0054 039B     		ldr	r3, [sp, #12]
 1442 0056 5B6C     		ldr	r3, [r3, #68]
 1443 0058 1B7A     		ldrb	r3, [r3, #8]	@ zero_extendqisi2
 1444 005a 1A46     		mov	r2, r3
 1445 005c 3D23     		movs	r3, #61
 1446 005e 03FA02F2 		lsl	r2, r3, r2
 1447 0062 039B     		ldr	r3, [sp, #12]
 1448 0064 5B6C     		ldr	r3, [r3, #68]
 1449 0066 5B68     		ldr	r3, [r3, #4]
 1450 0068 1A60     		str	r2, [r3]
 1451              		.loc 5 298 0 is_stmt 1 discriminator 3
 1452 006a 039B     		ldr	r3, [sp, #12]
 1453 006c 9B6C     		ldr	r3, [r3, #72]
 1454 006e 124A     		ldr	r2, .L116+4
 1455 0070 9A63     		str	r2, [r3, #56]
 1456              		.loc 5 299 0 discriminator 3
 1457 0072 039B     		ldr	r3, [sp, #12]
 1458 0074 9B6C     		ldr	r3, [r3, #72]
 1459 0076 0022     		movs	r2, #0
 1460 0078 DA63     		str	r2, [r3, #60]
 1461              		.loc 5 300 0 discriminator 3
 1462 007a 039B     		ldr	r3, [sp, #12]
 1463 007c 9B6C     		ldr	r3, [r3, #72]
 1464 007e 0022     		movs	r2, #0
 1465 0080 DA62     		str	r2, [r3, #44]
 1466              		.loc 5 301 0 discriminator 3
 1467 0082 0499     		ldr	r1, [sp, #16]
 1468 0084 0398     		ldr	r0, [sp, #12]
 1469 0086 FFF7FEFF 		bl	sdc_lld_collect_errors
 1470              		.loc 5 302 0 discriminator 3
 1471 008a 029B     		ldr	r3, [sp, #8]
 1472 008c 012B     		cmp	r3, #1
 1473 008e 05D9     		bls	.L115
 1474              		.loc 5 303 0
ARM GAS  C:\Users\PCHAUT~1\AppData\Local\Temp\ccORgsmL.s 			page 27


 1475 0090 019B     		ldr	r3, [sp, #4]
 1476 0092 0022     		movs	r2, #0
 1477 0094 0C21     		movs	r1, #12
 1478 0096 0398     		ldr	r0, [sp, #12]
 1479 0098 FFF7FEFF 		bl	sdc_lld_send_cmd_short_crc
 1480              	.L115:
 1481              		.loc 5 304 0
 1482 009c 00BF     		nop
 1483 009e 054B     		ldr	r3, .L116
 1484 00a0 059A     		ldr	r2, [sp, #20]
 1485 00a2 1B68     		ldr	r3, [r3]
 1486 00a4 9A42     		cmp	r2, r3
 1487 00a6 01D0     		beq	.L114
 1488 00a8 FFF7FEFF 		bl	__stack_chk_fail
 1489              	.L114:
 1490 00ac 07B0     		add	sp, sp, #28
 1491              		.cfi_def_cfa_offset 4
 1492              		@ sp needed
 1493 00ae 5DF804FB 		ldr	pc, [sp], #4
 1494              	.L117:
 1495 00b2 00BF     		.align	2
 1496              	.L116:
 1497 00b4 00000000 		.word	__stack_chk_guard
 1498 00b8 FF07C000 		.word	12584959
 1499              		.cfi_endproc
 1500              	.LFE261:
 1501              		.size	sdc_lld_error_cleanup, .-sdc_lld_error_cleanup
 1502              		.section	.text.Vector104,"ax",%progbits
 1503              		.align	1
 1504              		.p2align 4,,15
 1505              		.global	Vector104
 1506              		.syntax unified
 1507              		.thumb
 1508              		.thumb_func
 1509              		.fpu fpv4-sp-d16
 1510              		.type	Vector104, %function
 1511              	Vector104:
 1512              	.LFB262:
 1513              		.loc 5 320 0
 1514              		.cfi_startproc
 1515              		@ args = 0, pretend = 0, frame = 8
 1516              		@ frame_needed = 0, uses_anonymous_args = 0
 1517 0000 00B5     		push	{lr}
 1518              		.cfi_def_cfa_offset 4
 1519              		.cfi_offset 14, -4
 1520 0002 83B0     		sub	sp, sp, #12
 1521              		.cfi_def_cfa_offset 16
 1522              		.loc 5 320 0
 1523 0004 104B     		ldr	r3, .L120
 1524 0006 1B68     		ldr	r3, [r3]
 1525 0008 0193     		str	r3, [sp, #4]
 1526              		.loc 5 322 0
 1527 000a FFF7FEFF 		bl	_stats_increase_irq
 1528 000e FFF7FEFF 		bl	_dbg_check_enter_isr
 1529              		.loc 5 324 0
 1530 0012 FFF7FEFF 		bl	osalSysLockFromISR
 1531              		.loc 5 328 0
ARM GAS  C:\Users\PCHAUT~1\AppData\Local\Temp\ccORgsmL.s 			page 28


 1532 0016 0D4B     		ldr	r3, .L120+4
 1533 0018 0022     		movs	r2, #0
 1534 001a DA63     		str	r2, [r3, #60]
 1535              		.loc 5 330 0
 1536 001c 0021     		movs	r1, #0
 1537 001e 0C48     		ldr	r0, .L120+8
 1538 0020 FFF7FEFF 		bl	osalThreadResumeI
 1539              		.loc 5 332 0
 1540 0024 FFF7FEFF 		bl	osalSysUnlockFromISR
 1541              		.loc 5 334 0
 1542 0028 FFF7FEFF 		bl	_dbg_check_leave_isr
 1543 002c FFF7FEFF 		bl	_port_irq_epilogue
 1544              		.loc 5 335 0
 1545 0030 00BF     		nop
 1546 0032 054B     		ldr	r3, .L120
 1547 0034 019A     		ldr	r2, [sp, #4]
 1548 0036 1B68     		ldr	r3, [r3]
 1549 0038 9A42     		cmp	r2, r3
 1550 003a 01D0     		beq	.L119
 1551 003c FFF7FEFF 		bl	__stack_chk_fail
 1552              	.L119:
 1553 0040 03B0     		add	sp, sp, #12
 1554              		.cfi_def_cfa_offset 4
 1555              		@ sp needed
 1556 0042 5DF804FB 		ldr	pc, [sp], #4
 1557              	.L121:
 1558 0046 00BF     		.align	2
 1559              	.L120:
 1560 0048 00000000 		.word	__stack_chk_guard
 1561 004c 002C0140 		.word	1073818624
 1562 0050 3C000000 		.word	SDCD1+60
 1563              		.cfi_endproc
 1564              	.LFE262:
 1565              		.size	Vector104, .-Vector104
 1566              		.section	.text.sdc_lld_init,"ax",%progbits
 1567              		.align	1
 1568              		.p2align 4,,15
 1569              		.global	sdc_lld_init
 1570              		.syntax unified
 1571              		.thumb
 1572              		.thumb_func
 1573              		.fpu fpv4-sp-d16
 1574              		.type	sdc_lld_init, %function
 1575              	sdc_lld_init:
 1576              	.LFB263:
 1577              		.loc 5 346 0
 1578              		.cfi_startproc
 1579              		@ args = 0, pretend = 0, frame = 8
 1580              		@ frame_needed = 0, uses_anonymous_args = 0
 1581 0000 00B5     		push	{lr}
 1582              		.cfi_def_cfa_offset 4
 1583              		.cfi_offset 14, -4
 1584 0002 83B0     		sub	sp, sp, #12
 1585              		.cfi_def_cfa_offset 16
 1586              		.loc 5 346 0
 1587 0004 0C4B     		ldr	r3, .L124
 1588 0006 1B68     		ldr	r3, [r3]
ARM GAS  C:\Users\PCHAUT~1\AppData\Local\Temp\ccORgsmL.s 			page 29


 1589 0008 0193     		str	r3, [sp, #4]
 1590              		.loc 5 348 0
 1591 000a 0C48     		ldr	r0, .L124+4
 1592 000c FFF7FEFF 		bl	sdcObjectInit
 1593              		.loc 5 349 0
 1594 0010 0A4B     		ldr	r3, .L124+4
 1595 0012 0022     		movs	r2, #0
 1596 0014 DA63     		str	r2, [r3, #60]
 1597              		.loc 5 350 0
 1598 0016 094B     		ldr	r3, .L124+4
 1599 0018 094A     		ldr	r2, .L124+8
 1600 001a 5A64     		str	r2, [r3, #68]
 1601              		.loc 5 351 0
 1602 001c 074B     		ldr	r3, .L124+4
 1603 001e 094A     		ldr	r2, .L124+12
 1604 0020 9A64     		str	r2, [r3, #72]
 1605              		.loc 5 352 0
 1606 0022 00BF     		nop
 1607 0024 044B     		ldr	r3, .L124
 1608 0026 019A     		ldr	r2, [sp, #4]
 1609 0028 1B68     		ldr	r3, [r3]
 1610 002a 9A42     		cmp	r2, r3
 1611 002c 01D0     		beq	.L123
 1612 002e FFF7FEFF 		bl	__stack_chk_fail
 1613              	.L123:
 1614 0032 03B0     		add	sp, sp, #12
 1615              		.cfi_def_cfa_offset 4
 1616              		@ sp needed
 1617 0034 5DF804FB 		ldr	pc, [sp], #4
 1618              	.L125:
 1619              		.align	2
 1620              	.L124:
 1621 0038 00000000 		.word	__stack_chk_guard
 1622 003c 00000000 		.word	SDCD1
 1623 0040 84000000 		.word	_stm32_dma_streams+132
 1624 0044 002C0140 		.word	1073818624
 1625              		.cfi_endproc
 1626              	.LFE263:
 1627              		.size	sdc_lld_init, .-sdc_lld_init
 1628              		.section	.text.sdc_lld_start,"ax",%progbits
 1629              		.align	1
 1630              		.p2align 4,,15
 1631              		.global	sdc_lld_start
 1632              		.syntax unified
 1633              		.thumb
 1634              		.thumb_func
 1635              		.fpu fpv4-sp-d16
 1636              		.type	sdc_lld_start, %function
 1637              	sdc_lld_start:
 1638              	.LFB264:
 1639              		.loc 5 361 0
 1640              		.cfi_startproc
 1641              		@ args = 0, pretend = 0, frame = 16
 1642              		@ frame_needed = 0, uses_anonymous_args = 0
 1643 0000 00B5     		push	{lr}
 1644              		.cfi_def_cfa_offset 4
 1645              		.cfi_offset 14, -4
ARM GAS  C:\Users\PCHAUT~1\AppData\Local\Temp\ccORgsmL.s 			page 30


 1646 0002 85B0     		sub	sp, sp, #20
 1647              		.cfi_def_cfa_offset 24
 1648 0004 0190     		str	r0, [sp, #4]
 1649              		.loc 5 361 0
 1650 0006 2E4B     		ldr	r3, .L131
 1651 0008 1B68     		ldr	r3, [r3]
 1652 000a 0393     		str	r3, [sp, #12]
 1653              		.loc 5 364 0
 1654 000c 019B     		ldr	r3, [sp, #4]
 1655 000e DB6A     		ldr	r3, [r3, #44]
 1656 0010 002B     		cmp	r3, #0
 1657 0012 02D1     		bne	.L127
 1658              		.loc 5 365 0
 1659 0014 019B     		ldr	r3, [sp, #4]
 1660 0016 2B4A     		ldr	r2, .L131+4
 1661 0018 DA62     		str	r2, [r3, #44]
 1662              	.L127:
 1663              		.loc 5 368 0
 1664 001a 019B     		ldr	r3, [sp, #4]
 1665 001c 2A4A     		ldr	r2, .L131+8
 1666 001e 1A64     		str	r2, [r3, #64]
 1667              		.loc 5 375 0
 1668 0020 019B     		ldr	r3, [sp, #4]
 1669 0022 1B6C     		ldr	r3, [r3, #64]
 1670 0024 43F42003 		orr	r3, r3, #10485760
 1671 0028 43F02003 		orr	r3, r3, #32
 1672 002c 019A     		ldr	r2, [sp, #4]
 1673 002e 1364     		str	r3, [r2, #64]
 1674              		.loc 5 380 0
 1675 0030 019B     		ldr	r3, [sp, #4]
 1676 0032 1B79     		ldrb	r3, [r3, #4]	@ zero_extendqisi2
 1677 0034 012B     		cmp	r3, #1
 1678 0036 27D1     		bne	.L128
 1679              	.LBB10:
 1680              		.loc 5 383 0
 1681 0038 019B     		ldr	r3, [sp, #4]
 1682 003a 586C     		ldr	r0, [r3, #68]
 1683 003c 0023     		movs	r3, #0
 1684 003e 0022     		movs	r2, #0
 1685 0040 0921     		movs	r1, #9
 1686 0042 FFF7FEFF 		bl	dmaStreamAllocate
 1687 0046 0346     		mov	r3, r0
 1688 0048 8DF80B30 		strb	r3, [sp, #11]
 1689              		.loc 5 384 0
 1690 004c 9DF80B30 		ldrb	r3, [sp, #11]	@ zero_extendqisi2
 1691 0050 002B     		cmp	r3, #0
 1692 0052 02D0     		beq	.L129
 1693              		.loc 5 384 0 is_stmt 0 discriminator 2
 1694 0054 1D48     		ldr	r0, .L131+12
 1695 0056 FFF7FEFF 		bl	chSysHalt
 1696              	.L129:
 1697              		.loc 5 385 0 is_stmt 1
 1698 005a 019B     		ldr	r3, [sp, #4]
 1699 005c 9B6C     		ldr	r3, [r3, #72]
 1700 005e 03F18002 		add	r2, r3, #128
 1701 0062 019B     		ldr	r3, [sp, #4]
 1702 0064 5B6C     		ldr	r3, [r3, #68]
ARM GAS  C:\Users\PCHAUT~1\AppData\Local\Temp\ccORgsmL.s 			page 31


 1703 0066 1B68     		ldr	r3, [r3]
 1704 0068 9A60     		str	r2, [r3, #8]
 1705              		.loc 5 387 0
 1706 006a 019B     		ldr	r3, [sp, #4]
 1707 006c 5B6C     		ldr	r3, [r3, #68]
 1708 006e 1B68     		ldr	r3, [r3]
 1709 0070 0722     		movs	r2, #7
 1710 0072 5A61     		str	r2, [r3, #20]
 1711              		.loc 5 389 0
 1712 0074 0921     		movs	r1, #9
 1713 0076 3120     		movs	r0, #49
 1714 0078 FFF7FEFF 		bl	nvicEnableVector
 1715              		.loc 5 390 0
 1716 007c 144B     		ldr	r3, .L131+16
 1717 007e 5B6C     		ldr	r3, [r3, #68]
 1718 0080 134A     		ldr	r2, .L131+16
 1719 0082 43F40063 		orr	r3, r3, #2048
 1720 0086 5364     		str	r3, [r2, #68]
 1721              	.L128:
 1722              	.LBE10:
 1723              		.loc 5 394 0
 1724 0088 019B     		ldr	r3, [sp, #4]
 1725 008a 9B6C     		ldr	r3, [r3, #72]
 1726 008c 0022     		movs	r2, #0
 1727 008e 1A60     		str	r2, [r3]
 1728              		.loc 5 395 0
 1729 0090 019B     		ldr	r3, [sp, #4]
 1730 0092 9B6C     		ldr	r3, [r3, #72]
 1731 0094 0022     		movs	r2, #0
 1732 0096 5A60     		str	r2, [r3, #4]
 1733              		.loc 5 396 0
 1734 0098 019B     		ldr	r3, [sp, #4]
 1735 009a 9B6C     		ldr	r3, [r3, #72]
 1736 009c 0022     		movs	r2, #0
 1737 009e DA62     		str	r2, [r3, #44]
 1738              		.loc 5 397 0
 1739 00a0 019B     		ldr	r3, [sp, #4]
 1740 00a2 9B6C     		ldr	r3, [r3, #72]
 1741 00a4 0022     		movs	r2, #0
 1742 00a6 5A62     		str	r2, [r3, #36]
 1743              		.loc 5 398 0
 1744 00a8 00BF     		nop
 1745 00aa 054B     		ldr	r3, .L131
 1746 00ac 039A     		ldr	r2, [sp, #12]
 1747 00ae 1B68     		ldr	r3, [r3]
 1748 00b0 9A42     		cmp	r2, r3
 1749 00b2 01D0     		beq	.L130
 1750 00b4 FFF7FEFF 		bl	__stack_chk_fail
 1751              	.L130:
 1752 00b8 05B0     		add	sp, sp, #20
 1753              		.cfi_def_cfa_offset 4
 1754              		@ sp needed
 1755 00ba 5DF804FB 		ldr	pc, [sp], #4
 1756              	.L132:
 1757 00be 00BF     		.align	2
 1758              	.L131:
 1759 00c0 00000000 		.word	__stack_chk_guard
ARM GAS  C:\Users\PCHAUT~1\AppData\Local\Temp\ccORgsmL.s 			page 32


 1760 00c4 00000000 		.word	sdc_default_cfg
 1761 00c8 00540308 		.word	134435840
 1762 00cc 00000000 		.word	__func__.10295
 1763 00d0 00380240 		.word	1073887232
 1764              		.cfi_endproc
 1765              	.LFE264:
 1766              		.size	sdc_lld_start, .-sdc_lld_start
 1767              		.section	.text.sdc_lld_stop,"ax",%progbits
 1768              		.align	1
 1769              		.p2align 4,,15
 1770              		.global	sdc_lld_stop
 1771              		.syntax unified
 1772              		.thumb
 1773              		.thumb_func
 1774              		.fpu fpv4-sp-d16
 1775              		.type	sdc_lld_stop, %function
 1776              	sdc_lld_stop:
 1777              	.LFB265:
 1778              		.loc 5 407 0
 1779              		.cfi_startproc
 1780              		@ args = 0, pretend = 0, frame = 16
 1781              		@ frame_needed = 0, uses_anonymous_args = 0
 1782 0000 00B5     		push	{lr}
 1783              		.cfi_def_cfa_offset 4
 1784              		.cfi_offset 14, -4
 1785 0002 85B0     		sub	sp, sp, #20
 1786              		.cfi_def_cfa_offset 24
 1787 0004 0190     		str	r0, [sp, #4]
 1788              		.loc 5 407 0
 1789 0006 184B     		ldr	r3, .L137
 1790 0008 1B68     		ldr	r3, [r3]
 1791 000a 0393     		str	r3, [sp, #12]
 1792              		.loc 5 409 0
 1793 000c 019B     		ldr	r3, [sp, #4]
 1794 000e 1B79     		ldrb	r3, [r3, #4]	@ zero_extendqisi2
 1795 0010 012B     		cmp	r3, #1
 1796 0012 1DD0     		beq	.L136
 1797              		.loc 5 412 0
 1798 0014 019B     		ldr	r3, [sp, #4]
 1799 0016 9B6C     		ldr	r3, [r3, #72]
 1800 0018 0022     		movs	r2, #0
 1801 001a 1A60     		str	r2, [r3]
 1802              		.loc 5 413 0
 1803 001c 019B     		ldr	r3, [sp, #4]
 1804 001e 9B6C     		ldr	r3, [r3, #72]
 1805 0020 0022     		movs	r2, #0
 1806 0022 5A60     		str	r2, [r3, #4]
 1807              		.loc 5 414 0
 1808 0024 019B     		ldr	r3, [sp, #4]
 1809 0026 9B6C     		ldr	r3, [r3, #72]
 1810 0028 0022     		movs	r2, #0
 1811 002a DA62     		str	r2, [r3, #44]
 1812              		.loc 5 415 0
 1813 002c 019B     		ldr	r3, [sp, #4]
 1814 002e 9B6C     		ldr	r3, [r3, #72]
 1815 0030 0022     		movs	r2, #0
 1816 0032 5A62     		str	r2, [r3, #36]
ARM GAS  C:\Users\PCHAUT~1\AppData\Local\Temp\ccORgsmL.s 			page 33


 1817              		.loc 5 418 0
 1818 0034 3120     		movs	r0, #49
 1819 0036 FFF7FEFF 		bl	nvicDisableVector
 1820              		.loc 5 419 0
 1821 003a 019B     		ldr	r3, [sp, #4]
 1822 003c 5B6C     		ldr	r3, [r3, #68]
 1823 003e 1846     		mov	r0, r3
 1824 0040 FFF7FEFF 		bl	dmaStreamRelease
 1825              		.loc 5 420 0
 1826 0044 094B     		ldr	r3, .L137+4
 1827 0046 5B6C     		ldr	r3, [r3, #68]
 1828 0048 084A     		ldr	r2, .L137+4
 1829 004a 23F40063 		bic	r3, r3, #2048
 1830 004e 5364     		str	r3, [r2, #68]
 1831              	.L136:
 1832              		.loc 5 422 0
 1833 0050 00BF     		nop
 1834 0052 054B     		ldr	r3, .L137
 1835 0054 039A     		ldr	r2, [sp, #12]
 1836 0056 1B68     		ldr	r3, [r3]
 1837 0058 9A42     		cmp	r2, r3
 1838 005a 01D0     		beq	.L135
 1839 005c FFF7FEFF 		bl	__stack_chk_fail
 1840              	.L135:
 1841 0060 05B0     		add	sp, sp, #20
 1842              		.cfi_def_cfa_offset 4
 1843              		@ sp needed
 1844 0062 5DF804FB 		ldr	pc, [sp], #4
 1845              	.L138:
 1846 0066 00BF     		.align	2
 1847              	.L137:
 1848 0068 00000000 		.word	__stack_chk_guard
 1849 006c 00380240 		.word	1073887232
 1850              		.cfi_endproc
 1851              	.LFE265:
 1852              		.size	sdc_lld_stop, .-sdc_lld_stop
 1853              		.section	.text.sdc_lld_start_clk,"ax",%progbits
 1854              		.align	1
 1855              		.p2align 4,,15
 1856              		.global	sdc_lld_start_clk
 1857              		.syntax unified
 1858              		.thumb
 1859              		.thumb_func
 1860              		.fpu fpv4-sp-d16
 1861              		.type	sdc_lld_start_clk, %function
 1862              	sdc_lld_start_clk:
 1863              	.LFB266:
 1864              		.loc 5 431 0
 1865              		.cfi_startproc
 1866              		@ args = 0, pretend = 0, frame = 16
 1867              		@ frame_needed = 0, uses_anonymous_args = 0
 1868 0000 00B5     		push	{lr}
 1869              		.cfi_def_cfa_offset 4
 1870              		.cfi_offset 14, -4
 1871 0002 85B0     		sub	sp, sp, #20
 1872              		.cfi_def_cfa_offset 24
 1873 0004 0190     		str	r0, [sp, #4]
ARM GAS  C:\Users\PCHAUT~1\AppData\Local\Temp\ccORgsmL.s 			page 34


 1874              		.loc 5 431 0
 1875 0006 124B     		ldr	r3, .L141
 1876 0008 1B68     		ldr	r3, [r3]
 1877 000a 0393     		str	r3, [sp, #12]
 1878              		.loc 5 434 0
 1879 000c 019B     		ldr	r3, [sp, #4]
 1880 000e 9B6C     		ldr	r3, [r3, #72]
 1881 0010 7822     		movs	r2, #120
 1882 0012 5A60     		str	r2, [r3, #4]
 1883              		.loc 5 435 0
 1884 0014 019B     		ldr	r3, [sp, #4]
 1885 0016 9B6C     		ldr	r3, [r3, #72]
 1886 0018 1A68     		ldr	r2, [r3]
 1887 001a 019B     		ldr	r3, [sp, #4]
 1888 001c 9B6C     		ldr	r3, [r3, #72]
 1889 001e 42F00302 		orr	r2, r2, #3
 1890 0022 1A60     		str	r2, [r3]
 1891              		.loc 5 436 0
 1892 0024 019B     		ldr	r3, [sp, #4]
 1893 0026 9B6C     		ldr	r3, [r3, #72]
 1894 0028 5A68     		ldr	r2, [r3, #4]
 1895 002a 019B     		ldr	r3, [sp, #4]
 1896 002c 9B6C     		ldr	r3, [r3, #72]
 1897 002e 42F48072 		orr	r2, r2, #256
 1898 0032 5A60     		str	r2, [r3, #4]
 1899              		.loc 5 439 0
 1900 0034 0A20     		movs	r0, #10
 1901 0036 FFF7FEFF 		bl	osalThreadSleep
 1902              		.loc 5 440 0
 1903 003a 00BF     		nop
 1904 003c 044B     		ldr	r3, .L141
 1905 003e 039A     		ldr	r2, [sp, #12]
 1906 0040 1B68     		ldr	r3, [r3]
 1907 0042 9A42     		cmp	r2, r3
 1908 0044 01D0     		beq	.L140
 1909 0046 FFF7FEFF 		bl	__stack_chk_fail
 1910              	.L140:
 1911 004a 05B0     		add	sp, sp, #20
 1912              		.cfi_def_cfa_offset 4
 1913              		@ sp needed
 1914 004c 5DF804FB 		ldr	pc, [sp], #4
 1915              	.L142:
 1916              		.align	2
 1917              	.L141:
 1918 0050 00000000 		.word	__stack_chk_guard
 1919              		.cfi_endproc
 1920              	.LFE266:
 1921              		.size	sdc_lld_start_clk, .-sdc_lld_start_clk
 1922              		.section	.text.sdc_lld_set_data_clk,"ax",%progbits
 1923              		.align	1
 1924              		.p2align 4,,15
 1925              		.global	sdc_lld_set_data_clk
 1926              		.syntax unified
 1927              		.thumb
 1928              		.thumb_func
 1929              		.fpu fpv4-sp-d16
 1930              		.type	sdc_lld_set_data_clk, %function
ARM GAS  C:\Users\PCHAUT~1\AppData\Local\Temp\ccORgsmL.s 			page 35


 1931              	sdc_lld_set_data_clk:
 1932              	.LFB267:
 1933              		.loc 5 450 0
 1934              		.cfi_startproc
 1935              		@ args = 0, pretend = 0, frame = 16
 1936              		@ frame_needed = 0, uses_anonymous_args = 0
 1937 0000 00B5     		push	{lr}
 1938              		.cfi_def_cfa_offset 4
 1939              		.cfi_offset 14, -4
 1940 0002 85B0     		sub	sp, sp, #20
 1941              		.cfi_def_cfa_offset 24
 1942 0004 0190     		str	r0, [sp, #4]
 1943 0006 0B46     		mov	r3, r1
 1944 0008 8DF80330 		strb	r3, [sp, #3]
 1945              		.loc 5 450 0
 1946 000c 0A4B     		ldr	r3, .L145
 1947 000e 1B68     		ldr	r3, [r3]
 1948 0010 0393     		str	r3, [sp, #12]
 1949              		.loc 5 461 0
 1950 0012 019B     		ldr	r3, [sp, #4]
 1951 0014 9B6C     		ldr	r3, [r3, #72]
 1952 0016 5A68     		ldr	r2, [r3, #4]
 1953 0018 019B     		ldr	r3, [sp, #4]
 1954 001a 9B6C     		ldr	r3, [r3, #72]
 1955 001c 22F0FF02 		bic	r2, r2, #255
 1956 0020 5A60     		str	r2, [r3, #4]
 1957              		.loc 5 463 0
 1958 0022 00BF     		nop
 1959 0024 044B     		ldr	r3, .L145
 1960 0026 039A     		ldr	r2, [sp, #12]
 1961 0028 1B68     		ldr	r3, [r3]
 1962 002a 9A42     		cmp	r2, r3
 1963 002c 01D0     		beq	.L144
 1964 002e FFF7FEFF 		bl	__stack_chk_fail
 1965              	.L144:
 1966 0032 05B0     		add	sp, sp, #20
 1967              		.cfi_def_cfa_offset 4
 1968              		@ sp needed
 1969 0034 5DF804FB 		ldr	pc, [sp], #4
 1970              	.L146:
 1971              		.align	2
 1972              	.L145:
 1973 0038 00000000 		.word	__stack_chk_guard
 1974              		.cfi_endproc
 1975              	.LFE267:
 1976              		.size	sdc_lld_set_data_clk, .-sdc_lld_set_data_clk
 1977              		.section	.text.sdc_lld_stop_clk,"ax",%progbits
 1978              		.align	1
 1979              		.p2align 4,,15
 1980              		.global	sdc_lld_stop_clk
 1981              		.syntax unified
 1982              		.thumb
 1983              		.thumb_func
 1984              		.fpu fpv4-sp-d16
 1985              		.type	sdc_lld_stop_clk, %function
 1986              	sdc_lld_stop_clk:
 1987              	.LFB268:
ARM GAS  C:\Users\PCHAUT~1\AppData\Local\Temp\ccORgsmL.s 			page 36


 1988              		.loc 5 472 0
 1989              		.cfi_startproc
 1990              		@ args = 0, pretend = 0, frame = 16
 1991              		@ frame_needed = 0, uses_anonymous_args = 0
 1992 0000 00B5     		push	{lr}
 1993              		.cfi_def_cfa_offset 4
 1994              		.cfi_offset 14, -4
 1995 0002 85B0     		sub	sp, sp, #20
 1996              		.cfi_def_cfa_offset 24
 1997 0004 0190     		str	r0, [sp, #4]
 1998              		.loc 5 472 0
 1999 0006 0B4B     		ldr	r3, .L149
 2000 0008 1B68     		ldr	r3, [r3]
 2001 000a 0393     		str	r3, [sp, #12]
 2002              		.loc 5 474 0
 2003 000c 019B     		ldr	r3, [sp, #4]
 2004 000e 9B6C     		ldr	r3, [r3, #72]
 2005 0010 0022     		movs	r2, #0
 2006 0012 5A60     		str	r2, [r3, #4]
 2007              		.loc 5 475 0
 2008 0014 019B     		ldr	r3, [sp, #4]
 2009 0016 9B6C     		ldr	r3, [r3, #72]
 2010 0018 0022     		movs	r2, #0
 2011 001a 1A60     		str	r2, [r3]
 2012              		.loc 5 476 0
 2013 001c 00BF     		nop
 2014 001e 054B     		ldr	r3, .L149
 2015 0020 039A     		ldr	r2, [sp, #12]
 2016 0022 1B68     		ldr	r3, [r3]
 2017 0024 9A42     		cmp	r2, r3
 2018 0026 01D0     		beq	.L148
 2019 0028 FFF7FEFF 		bl	__stack_chk_fail
 2020              	.L148:
 2021 002c 05B0     		add	sp, sp, #20
 2022              		.cfi_def_cfa_offset 4
 2023              		@ sp needed
 2024 002e 5DF804FB 		ldr	pc, [sp], #4
 2025              	.L150:
 2026 0032 00BF     		.align	2
 2027              	.L149:
 2028 0034 00000000 		.word	__stack_chk_guard
 2029              		.cfi_endproc
 2030              	.LFE268:
 2031              		.size	sdc_lld_stop_clk, .-sdc_lld_stop_clk
 2032              		.section	.text.sdc_lld_set_bus_mode,"ax",%progbits
 2033              		.align	1
 2034              		.p2align 4,,15
 2035              		.global	sdc_lld_set_bus_mode
 2036              		.syntax unified
 2037              		.thumb
 2038              		.thumb_func
 2039              		.fpu fpv4-sp-d16
 2040              		.type	sdc_lld_set_bus_mode, %function
 2041              	sdc_lld_set_bus_mode:
 2042              	.LFB269:
 2043              		.loc 5 486 0
 2044              		.cfi_startproc
ARM GAS  C:\Users\PCHAUT~1\AppData\Local\Temp\ccORgsmL.s 			page 37


 2045              		@ args = 0, pretend = 0, frame = 16
 2046              		@ frame_needed = 0, uses_anonymous_args = 0
 2047 0000 00B5     		push	{lr}
 2048              		.cfi_def_cfa_offset 4
 2049              		.cfi_offset 14, -4
 2050 0002 85B0     		sub	sp, sp, #20
 2051              		.cfi_def_cfa_offset 24
 2052 0004 0190     		str	r0, [sp, #4]
 2053 0006 0B46     		mov	r3, r1
 2054 0008 8DF80330 		strb	r3, [sp, #3]
 2055              		.loc 5 486 0
 2056 000c 174B     		ldr	r3, .L158
 2057 000e 1B68     		ldr	r3, [r3]
 2058 0010 0393     		str	r3, [sp, #12]
 2059              		.loc 5 487 0
 2060 0012 019B     		ldr	r3, [sp, #4]
 2061 0014 9B6C     		ldr	r3, [r3, #72]
 2062 0016 5B68     		ldr	r3, [r3, #4]
 2063 0018 23F4C053 		bic	r3, r3, #6144
 2064 001c 0293     		str	r3, [sp, #8]
 2065              		.loc 5 489 0
 2066 001e 9DF80330 		ldrb	r3, [sp, #3]	@ zero_extendqisi2
 2067 0022 012B     		cmp	r3, #1
 2068 0024 09D0     		beq	.L153
 2069 0026 022B     		cmp	r3, #2
 2070 0028 0ED0     		beq	.L154
 2071 002a 002B     		cmp	r3, #0
 2072 002c 00D0     		beq	.L155
 2073              		.loc 5 500 0
 2074 002e 12E0     		b	.L157
 2075              	.L155:
 2076              		.loc 5 491 0
 2077 0030 019B     		ldr	r3, [sp, #4]
 2078 0032 9B6C     		ldr	r3, [r3, #72]
 2079 0034 029A     		ldr	r2, [sp, #8]
 2080 0036 5A60     		str	r2, [r3, #4]
 2081              		.loc 5 492 0
 2082 0038 0DE0     		b	.L152
 2083              	.L153:
 2084              		.loc 5 494 0
 2085 003a 019B     		ldr	r3, [sp, #4]
 2086 003c 9B6C     		ldr	r3, [r3, #72]
 2087 003e 029A     		ldr	r2, [sp, #8]
 2088 0040 42F40062 		orr	r2, r2, #2048
 2089 0044 5A60     		str	r2, [r3, #4]
 2090              		.loc 5 495 0
 2091 0046 06E0     		b	.L152
 2092              	.L154:
 2093              		.loc 5 497 0
 2094 0048 019B     		ldr	r3, [sp, #4]
 2095 004a 9B6C     		ldr	r3, [r3, #72]
 2096 004c 029A     		ldr	r2, [sp, #8]
 2097 004e 42F48052 		orr	r2, r2, #4096
 2098 0052 5A60     		str	r2, [r3, #4]
 2099              		.loc 5 498 0
 2100 0054 00BF     		nop
 2101              	.L152:
ARM GAS  C:\Users\PCHAUT~1\AppData\Local\Temp\ccORgsmL.s 			page 38


 2102              	.L157:
 2103              		.loc 5 500 0
 2104 0056 00BF     		nop
 2105 0058 044B     		ldr	r3, .L158
 2106 005a 039A     		ldr	r2, [sp, #12]
 2107 005c 1B68     		ldr	r3, [r3]
 2108 005e 9A42     		cmp	r2, r3
 2109 0060 01D0     		beq	.L156
 2110 0062 FFF7FEFF 		bl	__stack_chk_fail
 2111              	.L156:
 2112 0066 05B0     		add	sp, sp, #20
 2113              		.cfi_def_cfa_offset 4
 2114              		@ sp needed
 2115 0068 5DF804FB 		ldr	pc, [sp], #4
 2116              	.L159:
 2117              		.align	2
 2118              	.L158:
 2119 006c 00000000 		.word	__stack_chk_guard
 2120              		.cfi_endproc
 2121              	.LFE269:
 2122              		.size	sdc_lld_set_bus_mode, .-sdc_lld_set_bus_mode
 2123              		.section	.text.sdc_lld_send_cmd_none,"ax",%progbits
 2124              		.align	1
 2125              		.p2align 4,,15
 2126              		.global	sdc_lld_send_cmd_none
 2127              		.syntax unified
 2128              		.thumb
 2129              		.thumb_func
 2130              		.fpu fpv4-sp-d16
 2131              		.type	sdc_lld_send_cmd_none, %function
 2132              	sdc_lld_send_cmd_none:
 2133              	.LFB270:
 2134              		.loc 5 511 0
 2135              		.cfi_startproc
 2136              		@ args = 0, pretend = 0, frame = 24
 2137              		@ frame_needed = 0, uses_anonymous_args = 0
 2138 0000 00B5     		push	{lr}
 2139              		.cfi_def_cfa_offset 4
 2140              		.cfi_offset 14, -4
 2141 0002 87B0     		sub	sp, sp, #28
 2142              		.cfi_def_cfa_offset 32
 2143 0004 0390     		str	r0, [sp, #12]
 2144 0006 0B46     		mov	r3, r1
 2145 0008 0192     		str	r2, [sp, #4]
 2146 000a 8DF80B30 		strb	r3, [sp, #11]
 2147              		.loc 5 511 0
 2148 000e 124B     		ldr	r3, .L163
 2149 0010 1B68     		ldr	r3, [r3]
 2150 0012 0593     		str	r3, [sp, #20]
 2151              		.loc 5 513 0
 2152 0014 039B     		ldr	r3, [sp, #12]
 2153 0016 9B6C     		ldr	r3, [r3, #72]
 2154 0018 019A     		ldr	r2, [sp, #4]
 2155 001a 9A60     		str	r2, [r3, #8]
 2156              		.loc 5 514 0
 2157 001c 9DF80B20 		ldrb	r2, [sp, #11]	@ zero_extendqisi2
 2158 0020 039B     		ldr	r3, [sp, #12]
ARM GAS  C:\Users\PCHAUT~1\AppData\Local\Temp\ccORgsmL.s 			page 39


 2159 0022 9B6C     		ldr	r3, [r3, #72]
 2160 0024 42F48062 		orr	r2, r2, #1024
 2161 0028 DA60     		str	r2, [r3, #12]
 2162              		.loc 5 515 0
 2163 002a 00BF     		nop
 2164              	.L161:
 2165              		.loc 5 515 0 is_stmt 0 discriminator 1
 2166 002c 039B     		ldr	r3, [sp, #12]
 2167 002e 9B6C     		ldr	r3, [r3, #72]
 2168 0030 5B6B     		ldr	r3, [r3, #52]
 2169 0032 03F08003 		and	r3, r3, #128
 2170 0036 002B     		cmp	r3, #0
 2171 0038 F8D0     		beq	.L161
 2172              		.loc 5 517 0 is_stmt 1
 2173 003a 039B     		ldr	r3, [sp, #12]
 2174 003c 9B6C     		ldr	r3, [r3, #72]
 2175 003e 8022     		movs	r2, #128
 2176 0040 9A63     		str	r2, [r3, #56]
 2177              		.loc 5 518 0
 2178 0042 00BF     		nop
 2179 0044 044B     		ldr	r3, .L163
 2180 0046 059A     		ldr	r2, [sp, #20]
 2181 0048 1B68     		ldr	r3, [r3]
 2182 004a 9A42     		cmp	r2, r3
 2183 004c 01D0     		beq	.L162
 2184 004e FFF7FEFF 		bl	__stack_chk_fail
 2185              	.L162:
 2186 0052 07B0     		add	sp, sp, #28
 2187              		.cfi_def_cfa_offset 4
 2188              		@ sp needed
 2189 0054 5DF804FB 		ldr	pc, [sp], #4
 2190              	.L164:
 2191              		.align	2
 2192              	.L163:
 2193 0058 00000000 		.word	__stack_chk_guard
 2194              		.cfi_endproc
 2195              	.LFE270:
 2196              		.size	sdc_lld_send_cmd_none, .-sdc_lld_send_cmd_none
 2197              		.section	.text.sdc_lld_send_cmd_short,"ax",%progbits
 2198              		.align	1
 2199              		.p2align 4,,15
 2200              		.global	sdc_lld_send_cmd_short
 2201              		.syntax unified
 2202              		.thumb
 2203              		.thumb_func
 2204              		.fpu fpv4-sp-d16
 2205              		.type	sdc_lld_send_cmd_short, %function
 2206              	sdc_lld_send_cmd_short:
 2207              	.LFB271:
 2208              		.loc 5 536 0
 2209              		.cfi_startproc
 2210              		@ args = 0, pretend = 0, frame = 24
 2211              		@ frame_needed = 0, uses_anonymous_args = 0
 2212 0000 00B5     		push	{lr}
 2213              		.cfi_def_cfa_offset 4
 2214              		.cfi_offset 14, -4
 2215 0002 87B0     		sub	sp, sp, #28
ARM GAS  C:\Users\PCHAUT~1\AppData\Local\Temp\ccORgsmL.s 			page 40


 2216              		.cfi_def_cfa_offset 32
 2217 0004 0390     		str	r0, [sp, #12]
 2218 0006 0192     		str	r2, [sp, #4]
 2219 0008 0093     		str	r3, [sp]
 2220 000a 0B46     		mov	r3, r1
 2221 000c 8DF80B30 		strb	r3, [sp, #11]
 2222              		.loc 5 536 0
 2223 0010 1E4B     		ldr	r3, .L170
 2224 0012 1B68     		ldr	r3, [r3]
 2225 0014 0593     		str	r3, [sp, #20]
 2226              		.loc 5 539 0
 2227 0016 039B     		ldr	r3, [sp, #12]
 2228 0018 9B6C     		ldr	r3, [r3, #72]
 2229 001a 019A     		ldr	r2, [sp, #4]
 2230 001c 9A60     		str	r2, [r3, #8]
 2231              		.loc 5 540 0
 2232 001e 9DF80B30 		ldrb	r3, [sp, #11]
 2233 0022 43F04003 		orr	r3, r3, #64
 2234 0026 DBB2     		uxtb	r3, r3
 2235 0028 1A46     		mov	r2, r3
 2236 002a 039B     		ldr	r3, [sp, #12]
 2237 002c 9B6C     		ldr	r3, [r3, #72]
 2238 002e 42F48062 		orr	r2, r2, #1024
 2239 0032 DA60     		str	r2, [r3, #12]
 2240              		.loc 5 541 0
 2241 0034 00BF     		nop
 2242              	.L166:
 2243              		.loc 5 541 0 is_stmt 0 discriminator 1
 2244 0036 039B     		ldr	r3, [sp, #12]
 2245 0038 9B6C     		ldr	r3, [r3, #72]
 2246 003a 5B6B     		ldr	r3, [r3, #52]
 2247 003c 0493     		str	r3, [sp, #16]
 2248 003e 049B     		ldr	r3, [sp, #16]
 2249 0040 03F04503 		and	r3, r3, #69
 2250 0044 002B     		cmp	r3, #0
 2251 0046 F6D0     		beq	.L166
 2252              		.loc 5 544 0 is_stmt 1
 2253 0048 039B     		ldr	r3, [sp, #12]
 2254 004a 9B6C     		ldr	r3, [r3, #72]
 2255 004c 049A     		ldr	r2, [sp, #16]
 2256 004e 02F04502 		and	r2, r2, #69
 2257 0052 9A63     		str	r2, [r3, #56]
 2258              		.loc 5 546 0
 2259 0054 049B     		ldr	r3, [sp, #16]
 2260 0056 03F00403 		and	r3, r3, #4
 2261 005a 002B     		cmp	r3, #0
 2262 005c 05D0     		beq	.L167
 2263              		.loc 5 547 0
 2264 005e 0499     		ldr	r1, [sp, #16]
 2265 0060 0398     		ldr	r0, [sp, #12]
 2266 0062 FFF7FEFF 		bl	sdc_lld_collect_errors
 2267              		.loc 5 548 0
 2268 0066 0123     		movs	r3, #1
 2269 0068 05E0     		b	.L168
 2270              	.L167:
 2271              		.loc 5 550 0
 2272 006a 039B     		ldr	r3, [sp, #12]
ARM GAS  C:\Users\PCHAUT~1\AppData\Local\Temp\ccORgsmL.s 			page 41


 2273 006c 9B6C     		ldr	r3, [r3, #72]
 2274 006e 5A69     		ldr	r2, [r3, #20]
 2275 0070 009B     		ldr	r3, [sp]
 2276 0072 1A60     		str	r2, [r3]
 2277              		.loc 5 551 0
 2278 0074 0023     		movs	r3, #0
 2279              	.L168:
 2280              		.loc 5 552 0
 2281 0076 1846     		mov	r0, r3
 2282 0078 044B     		ldr	r3, .L170
 2283 007a 059A     		ldr	r2, [sp, #20]
 2284 007c 1B68     		ldr	r3, [r3]
 2285 007e 9A42     		cmp	r2, r3
 2286 0080 01D0     		beq	.L169
 2287 0082 FFF7FEFF 		bl	__stack_chk_fail
 2288              	.L169:
 2289 0086 07B0     		add	sp, sp, #28
 2290              		.cfi_def_cfa_offset 4
 2291              		@ sp needed
 2292 0088 5DF804FB 		ldr	pc, [sp], #4
 2293              	.L171:
 2294              		.align	2
 2295              	.L170:
 2296 008c 00000000 		.word	__stack_chk_guard
 2297              		.cfi_endproc
 2298              	.LFE271:
 2299              		.size	sdc_lld_send_cmd_short, .-sdc_lld_send_cmd_short
 2300              		.section	.text.sdc_lld_send_cmd_short_crc,"ax",%progbits
 2301              		.align	1
 2302              		.p2align 4,,15
 2303              		.global	sdc_lld_send_cmd_short_crc
 2304              		.syntax unified
 2305              		.thumb
 2306              		.thumb_func
 2307              		.fpu fpv4-sp-d16
 2308              		.type	sdc_lld_send_cmd_short_crc, %function
 2309              	sdc_lld_send_cmd_short_crc:
 2310              	.LFB272:
 2311              		.loc 5 569 0
 2312              		.cfi_startproc
 2313              		@ args = 0, pretend = 0, frame = 24
 2314              		@ frame_needed = 0, uses_anonymous_args = 0
 2315 0000 00B5     		push	{lr}
 2316              		.cfi_def_cfa_offset 4
 2317              		.cfi_offset 14, -4
 2318 0002 87B0     		sub	sp, sp, #28
 2319              		.cfi_def_cfa_offset 32
 2320 0004 0390     		str	r0, [sp, #12]
 2321 0006 0192     		str	r2, [sp, #4]
 2322 0008 0093     		str	r3, [sp]
 2323 000a 0B46     		mov	r3, r1
 2324 000c 8DF80B30 		strb	r3, [sp, #11]
 2325              		.loc 5 569 0
 2326 0010 1E4B     		ldr	r3, .L177
 2327 0012 1B68     		ldr	r3, [r3]
 2328 0014 0593     		str	r3, [sp, #20]
 2329              		.loc 5 572 0
ARM GAS  C:\Users\PCHAUT~1\AppData\Local\Temp\ccORgsmL.s 			page 42


 2330 0016 039B     		ldr	r3, [sp, #12]
 2331 0018 9B6C     		ldr	r3, [r3, #72]
 2332 001a 019A     		ldr	r2, [sp, #4]
 2333 001c 9A60     		str	r2, [r3, #8]
 2334              		.loc 5 573 0
 2335 001e 9DF80B30 		ldrb	r3, [sp, #11]
 2336 0022 43F04003 		orr	r3, r3, #64
 2337 0026 DBB2     		uxtb	r3, r3
 2338 0028 1A46     		mov	r2, r3
 2339 002a 039B     		ldr	r3, [sp, #12]
 2340 002c 9B6C     		ldr	r3, [r3, #72]
 2341 002e 42F48062 		orr	r2, r2, #1024
 2342 0032 DA60     		str	r2, [r3, #12]
 2343              		.loc 5 574 0
 2344 0034 00BF     		nop
 2345              	.L173:
 2346              		.loc 5 574 0 is_stmt 0 discriminator 1
 2347 0036 039B     		ldr	r3, [sp, #12]
 2348 0038 9B6C     		ldr	r3, [r3, #72]
 2349 003a 5B6B     		ldr	r3, [r3, #52]
 2350 003c 0493     		str	r3, [sp, #16]
 2351 003e 049B     		ldr	r3, [sp, #16]
 2352 0040 03F04503 		and	r3, r3, #69
 2353 0044 002B     		cmp	r3, #0
 2354 0046 F6D0     		beq	.L173
 2355              		.loc 5 577 0 is_stmt 1
 2356 0048 039B     		ldr	r3, [sp, #12]
 2357 004a 9B6C     		ldr	r3, [r3, #72]
 2358 004c 049A     		ldr	r2, [sp, #16]
 2359 004e 02F04502 		and	r2, r2, #69
 2360 0052 9A63     		str	r2, [r3, #56]
 2361              		.loc 5 578 0
 2362 0054 049B     		ldr	r3, [sp, #16]
 2363 0056 03F00503 		and	r3, r3, #5
 2364 005a 002B     		cmp	r3, #0
 2365 005c 05D0     		beq	.L174
 2366              		.loc 5 579 0
 2367 005e 0499     		ldr	r1, [sp, #16]
 2368 0060 0398     		ldr	r0, [sp, #12]
 2369 0062 FFF7FEFF 		bl	sdc_lld_collect_errors
 2370              		.loc 5 580 0
 2371 0066 0123     		movs	r3, #1
 2372 0068 05E0     		b	.L175
 2373              	.L174:
 2374              		.loc 5 582 0
 2375 006a 039B     		ldr	r3, [sp, #12]
 2376 006c 9B6C     		ldr	r3, [r3, #72]
 2377 006e 5A69     		ldr	r2, [r3, #20]
 2378 0070 009B     		ldr	r3, [sp]
 2379 0072 1A60     		str	r2, [r3]
 2380              		.loc 5 583 0
 2381 0074 0023     		movs	r3, #0
 2382              	.L175:
 2383              		.loc 5 584 0
 2384 0076 1846     		mov	r0, r3
 2385 0078 044B     		ldr	r3, .L177
 2386 007a 059A     		ldr	r2, [sp, #20]
ARM GAS  C:\Users\PCHAUT~1\AppData\Local\Temp\ccORgsmL.s 			page 43


 2387 007c 1B68     		ldr	r3, [r3]
 2388 007e 9A42     		cmp	r2, r3
 2389 0080 01D0     		beq	.L176
 2390 0082 FFF7FEFF 		bl	__stack_chk_fail
 2391              	.L176:
 2392 0086 07B0     		add	sp, sp, #28
 2393              		.cfi_def_cfa_offset 4
 2394              		@ sp needed
 2395 0088 5DF804FB 		ldr	pc, [sp], #4
 2396              	.L178:
 2397              		.align	2
 2398              	.L177:
 2399 008c 00000000 		.word	__stack_chk_guard
 2400              		.cfi_endproc
 2401              	.LFE272:
 2402              		.size	sdc_lld_send_cmd_short_crc, .-sdc_lld_send_cmd_short_crc
 2403              		.section	.text.sdc_lld_send_cmd_long_crc,"ax",%progbits
 2404              		.align	1
 2405              		.p2align 4,,15
 2406              		.global	sdc_lld_send_cmd_long_crc
 2407              		.syntax unified
 2408              		.thumb
 2409              		.thumb_func
 2410              		.fpu fpv4-sp-d16
 2411              		.type	sdc_lld_send_cmd_long_crc, %function
 2412              	sdc_lld_send_cmd_long_crc:
 2413              	.LFB273:
 2414              		.loc 5 601 0
 2415              		.cfi_startproc
 2416              		@ args = 0, pretend = 0, frame = 24
 2417              		@ frame_needed = 0, uses_anonymous_args = 0
 2418 0000 00B5     		push	{lr}
 2419              		.cfi_def_cfa_offset 4
 2420              		.cfi_offset 14, -4
 2421 0002 87B0     		sub	sp, sp, #28
 2422              		.cfi_def_cfa_offset 32
 2423 0004 0390     		str	r0, [sp, #12]
 2424 0006 0192     		str	r2, [sp, #4]
 2425 0008 0093     		str	r3, [sp]
 2426 000a 0B46     		mov	r3, r1
 2427 000c 8DF80B30 		strb	r3, [sp, #11]
 2428              		.loc 5 601 0
 2429 0010 294B     		ldr	r3, .L184
 2430 0012 1B68     		ldr	r3, [r3]
 2431 0014 0593     		str	r3, [sp, #20]
 2432              		.loc 5 606 0
 2433 0016 039B     		ldr	r3, [sp, #12]
 2434 0018 9B6C     		ldr	r3, [r3, #72]
 2435 001a 019A     		ldr	r2, [sp, #4]
 2436 001c 9A60     		str	r2, [r3, #8]
 2437              		.loc 5 607 0
 2438 001e 9DF80B30 		ldrb	r3, [sp, #11]
 2439 0022 63F03F03 		orn	r3, r3, #63
 2440 0026 DBB2     		uxtb	r3, r3
 2441 0028 1A46     		mov	r2, r3
 2442 002a 039B     		ldr	r3, [sp, #12]
 2443 002c 9B6C     		ldr	r3, [r3, #72]
ARM GAS  C:\Users\PCHAUT~1\AppData\Local\Temp\ccORgsmL.s 			page 44


 2444 002e 42F48062 		orr	r2, r2, #1024
 2445 0032 DA60     		str	r2, [r3, #12]
 2446              		.loc 5 609 0
 2447 0034 00BF     		nop
 2448              	.L180:
 2449              		.loc 5 609 0 is_stmt 0 discriminator 1
 2450 0036 039B     		ldr	r3, [sp, #12]
 2451 0038 9B6C     		ldr	r3, [r3, #72]
 2452 003a 5B6B     		ldr	r3, [r3, #52]
 2453 003c 0493     		str	r3, [sp, #16]
 2454 003e 049B     		ldr	r3, [sp, #16]
 2455 0040 03F04503 		and	r3, r3, #69
 2456 0044 002B     		cmp	r3, #0
 2457 0046 F6D0     		beq	.L180
 2458              		.loc 5 612 0 is_stmt 1
 2459 0048 039B     		ldr	r3, [sp, #12]
 2460 004a 9B6C     		ldr	r3, [r3, #72]
 2461 004c 049A     		ldr	r2, [sp, #16]
 2462 004e 02F04502 		and	r2, r2, #69
 2463 0052 9A63     		str	r2, [r3, #56]
 2464              		.loc 5 614 0
 2465 0054 049B     		ldr	r3, [sp, #16]
 2466 0056 03F03F03 		and	r3, r3, #63
 2467 005a 002B     		cmp	r3, #0
 2468 005c 05D0     		beq	.L181
 2469              		.loc 5 615 0
 2470 005e 0499     		ldr	r1, [sp, #16]
 2471 0060 0398     		ldr	r0, [sp, #12]
 2472 0062 FFF7FEFF 		bl	sdc_lld_collect_errors
 2473              		.loc 5 616 0
 2474 0066 0123     		movs	r3, #1
 2475 0068 1AE0     		b	.L182
 2476              	.L181:
 2477              		.loc 5 619 0
 2478 006a 039B     		ldr	r3, [sp, #12]
 2479 006c 9A6C     		ldr	r2, [r3, #72]
 2480 006e 009B     		ldr	r3, [sp]
 2481 0070 191D     		adds	r1, r3, #4
 2482 0072 0091     		str	r1, [sp]
 2483 0074 126A     		ldr	r2, [r2, #32]
 2484 0076 1A60     		str	r2, [r3]
 2485              		.loc 5 620 0
 2486 0078 039B     		ldr	r3, [sp, #12]
 2487 007a 9A6C     		ldr	r2, [r3, #72]
 2488 007c 009B     		ldr	r3, [sp]
 2489 007e 191D     		adds	r1, r3, #4
 2490 0080 0091     		str	r1, [sp]
 2491 0082 D269     		ldr	r2, [r2, #28]
 2492 0084 1A60     		str	r2, [r3]
 2493              		.loc 5 621 0
 2494 0086 039B     		ldr	r3, [sp, #12]
 2495 0088 9A6C     		ldr	r2, [r3, #72]
 2496 008a 009B     		ldr	r3, [sp]
 2497 008c 191D     		adds	r1, r3, #4
 2498 008e 0091     		str	r1, [sp]
 2499 0090 9269     		ldr	r2, [r2, #24]
 2500 0092 1A60     		str	r2, [r3]
ARM GAS  C:\Users\PCHAUT~1\AppData\Local\Temp\ccORgsmL.s 			page 45


 2501              		.loc 5 622 0
 2502 0094 039B     		ldr	r3, [sp, #12]
 2503 0096 9B6C     		ldr	r3, [r3, #72]
 2504 0098 5A69     		ldr	r2, [r3, #20]
 2505 009a 009B     		ldr	r3, [sp]
 2506 009c 1A60     		str	r2, [r3]
 2507              		.loc 5 623 0
 2508 009e 0023     		movs	r3, #0
 2509              	.L182:
 2510              		.loc 5 624 0
 2511 00a0 1846     		mov	r0, r3
 2512 00a2 054B     		ldr	r3, .L184
 2513 00a4 059A     		ldr	r2, [sp, #20]
 2514 00a6 1B68     		ldr	r3, [r3]
 2515 00a8 9A42     		cmp	r2, r3
 2516 00aa 01D0     		beq	.L183
 2517 00ac FFF7FEFF 		bl	__stack_chk_fail
 2518              	.L183:
 2519 00b0 07B0     		add	sp, sp, #28
 2520              		.cfi_def_cfa_offset 4
 2521              		@ sp needed
 2522 00b2 5DF804FB 		ldr	pc, [sp], #4
 2523              	.L185:
 2524 00b6 00BF     		.align	2
 2525              	.L184:
 2526 00b8 00000000 		.word	__stack_chk_guard
 2527              		.cfi_endproc
 2528              	.LFE273:
 2529              		.size	sdc_lld_send_cmd_long_crc, .-sdc_lld_send_cmd_long_crc
 2530              		.section	.text.sdc_lld_read_special,"ax",%progbits
 2531              		.align	1
 2532              		.p2align 4,,15
 2533              		.global	sdc_lld_read_special
 2534              		.syntax unified
 2535              		.thumb
 2536              		.thumb_func
 2537              		.fpu fpv4-sp-d16
 2538              		.type	sdc_lld_read_special, %function
 2539              	sdc_lld_read_special:
 2540              	.LFB274:
 2541              		.loc 5 643 0
 2542              		.cfi_startproc
 2543              		@ args = 4, pretend = 0, frame = 32
 2544              		@ frame_needed = 0, uses_anonymous_args = 0
 2545 0000 00B5     		push	{lr}
 2546              		.cfi_def_cfa_offset 4
 2547              		.cfi_offset 14, -4
 2548 0002 89B0     		sub	sp, sp, #36
 2549              		.cfi_def_cfa_offset 40
 2550 0004 0590     		str	r0, [sp, #20]
 2551 0006 0491     		str	r1, [sp, #16]
 2552 0008 0392     		str	r2, [sp, #12]
 2553 000a 8DF80B30 		strb	r3, [sp, #11]
 2554 000e 0A9B     		ldr	r3, [sp, #40]
 2555 0010 0193     		str	r3, [sp, #4]
 2556              		.loc 5 643 0
 2557 0012 1E4B     		ldr	r3, .L196
ARM GAS  C:\Users\PCHAUT~1\AppData\Local\Temp\ccORgsmL.s 			page 46


 2558 0014 1B68     		ldr	r3, [r3]
 2559 0016 0793     		str	r3, [sp, #28]
 2560              		.loc 5 646 0
 2561 0018 039A     		ldr	r2, [sp, #12]
 2562 001a 0499     		ldr	r1, [sp, #16]
 2563 001c 0598     		ldr	r0, [sp, #20]
 2564 001e FFF7FEFF 		bl	sdc_lld_prepare_read_bytes
 2565 0022 0346     		mov	r3, r0
 2566 0024 002B     		cmp	r3, #0
 2567 0026 19D1     		bne	.L193
 2568              		.loc 5 649 0
 2569 0028 06AB     		add	r3, sp, #24
 2570 002a 9DF80B10 		ldrb	r1, [sp, #11]	@ zero_extendqisi2
 2571 002e 019A     		ldr	r2, [sp, #4]
 2572 0030 0598     		ldr	r0, [sp, #20]
 2573 0032 FFF7FEFF 		bl	sdc_lld_send_cmd_short_crc
 2574 0036 0346     		mov	r3, r0
 2575 0038 002B     		cmp	r3, #0
 2576 003a 11D1     		bne	.L194
 2577              		.loc 5 650 0
 2578 003c 069A     		ldr	r2, [sp, #24]
 2579 003e 144B     		ldr	r3, .L196+4
 2580 0040 1340     		ands	r3, r3, r2
 2581 0042 002B     		cmp	r3, #0
 2582 0044 0CD1     		bne	.L194
 2583              		.loc 5 653 0
 2584 0046 06AB     		add	r3, sp, #24
 2585 0048 1A46     		mov	r2, r3
 2586 004a 0121     		movs	r1, #1
 2587 004c 0598     		ldr	r0, [sp, #20]
 2588 004e FFF7FEFF 		bl	sdc_lld_wait_transaction_end
 2589 0052 0346     		mov	r3, r0
 2590 0054 002B     		cmp	r3, #0
 2591 0056 05D1     		bne	.L195
 2592              		.loc 5 656 0
 2593 0058 0023     		movs	r3, #0
 2594 005a 0BE0     		b	.L191
 2595              	.L193:
 2596              		.loc 5 647 0
 2597 005c 00BF     		nop
 2598 005e 02E0     		b	.L188
 2599              	.L194:
 2600              		.loc 5 658 0
 2601 0060 00BF     		nop
 2602 0062 00E0     		b	.L188
 2603              	.L195:
 2604              		.loc 5 654 0
 2605 0064 00BF     		nop
 2606              	.L188:
 2607              		.loc 5 659 0
 2608 0066 06AB     		add	r3, sp, #24
 2609 0068 1A46     		mov	r2, r3
 2610 006a 0121     		movs	r1, #1
 2611 006c 0598     		ldr	r0, [sp, #20]
 2612 006e FFF7FEFF 		bl	sdc_lld_error_cleanup
 2613              		.loc 5 660 0
 2614 0072 0123     		movs	r3, #1
ARM GAS  C:\Users\PCHAUT~1\AppData\Local\Temp\ccORgsmL.s 			page 47


 2615              	.L191:
 2616              		.loc 5 661 0 discriminator 1
 2617 0074 1846     		mov	r0, r3
 2618 0076 054B     		ldr	r3, .L196
 2619 0078 079A     		ldr	r2, [sp, #28]
 2620 007a 1B68     		ldr	r3, [r3]
 2621 007c 9A42     		cmp	r2, r3
 2622 007e 01D0     		beq	.L192
 2623              		.loc 5 661 0 is_stmt 0
 2624 0080 FFF7FEFF 		bl	__stack_chk_fail
 2625              	.L192:
 2626 0084 09B0     		add	sp, sp, #36
 2627              		.cfi_def_cfa_offset 4
 2628              		@ sp needed
 2629 0086 5DF804FB 		ldr	pc, [sp], #4
 2630              	.L197:
 2631 008a 00BF     		.align	2
 2632              	.L196:
 2633 008c 00000000 		.word	__stack_chk_guard
 2634 0090 08E0FFFD 		.word	-33562616
 2635              		.cfi_endproc
 2636              	.LFE274:
 2637              		.size	sdc_lld_read_special, .-sdc_lld_read_special
 2638              		.section	.text.sdc_lld_read_aligned,"ax",%progbits
 2639              		.align	1
 2640              		.p2align 4,,15
 2641              		.global	sdc_lld_read_aligned
 2642              		.syntax unified
 2643              		.thumb
 2644              		.thumb_func
 2645              		.fpu fpv4-sp-d16
 2646              		.type	sdc_lld_read_aligned, %function
 2647              	sdc_lld_read_aligned:
 2648              	.LFB275:
 2649              		.loc 5 678 0 is_stmt 1
 2650              		.cfi_startproc
 2651              		@ args = 0, pretend = 0, frame = 24
 2652              		@ frame_needed = 0, uses_anonymous_args = 0
 2653 0000 00B5     		push	{lr}
 2654              		.cfi_def_cfa_offset 4
 2655              		.cfi_offset 14, -4
 2656 0002 87B0     		sub	sp, sp, #28
 2657              		.cfi_def_cfa_offset 32
 2658 0004 0390     		str	r0, [sp, #12]
 2659 0006 0291     		str	r1, [sp, #8]
 2660 0008 0192     		str	r2, [sp, #4]
 2661 000a 0093     		str	r3, [sp]
 2662              		.loc 5 678 0
 2663 000c 364B     		ldr	r3, .L209
 2664 000e 1B68     		ldr	r3, [r3]
 2665 0010 0593     		str	r3, [sp, #20]
 2666              		.loc 5 681 0
 2667 0012 009B     		ldr	r3, [sp]
 2668 0014 B3F5004F 		cmp	r3, #32768
 2669 0018 02D3     		bcc	.L199
 2670              		.loc 5 681 0 is_stmt 0 discriminator 2
 2671 001a 3448     		ldr	r0, .L209+4
ARM GAS  C:\Users\PCHAUT~1\AppData\Local\Temp\ccORgsmL.s 			page 48


 2672 001c FFF7FEFF 		bl	chSysHalt
 2673              	.L199:
 2674              		.loc 5 683 0 is_stmt 1
 2675 0020 039B     		ldr	r3, [sp, #12]
 2676 0022 9B6C     		ldr	r3, [r3, #72]
 2677 0024 324A     		ldr	r2, .L209+8
 2678 0026 5A62     		str	r2, [r3, #36]
 2679              		.loc 5 686 0
 2680 0028 0398     		ldr	r0, [sp, #12]
 2681 002a FFF7FEFF 		bl	_sdc_wait_for_transfer_state
 2682 002e 0346     		mov	r3, r0
 2683 0030 002B     		cmp	r3, #0
 2684 0032 01D0     		beq	.L200
 2685              		.loc 5 687 0
 2686 0034 0123     		movs	r3, #1
 2687 0036 4BE0     		b	.L205
 2688              	.L200:
 2689              		.loc 5 690 0
 2690 0038 039B     		ldr	r3, [sp, #12]
 2691 003a 5B6C     		ldr	r3, [r3, #68]
 2692 003c 1B68     		ldr	r3, [r3]
 2693 003e 019A     		ldr	r2, [sp, #4]
 2694 0040 DA60     		str	r2, [r3, #12]
 2695              		.loc 5 691 0
 2696 0042 009B     		ldr	r3, [sp]
 2697 0044 5A02     		lsls	r2, r3, #9
 2698 0046 039B     		ldr	r3, [sp, #12]
 2699 0048 5B6C     		ldr	r3, [r3, #68]
 2700 004a 1B68     		ldr	r3, [r3]
 2701 004c 9208     		lsrs	r2, r2, #2
 2702 004e 5A60     		str	r2, [r3, #4]
 2703              		.loc 5 693 0
 2704 0050 039B     		ldr	r3, [sp, #12]
 2705 0052 5B6C     		ldr	r3, [r3, #68]
 2706 0054 1B68     		ldr	r3, [r3]
 2707 0056 039A     		ldr	r2, [sp, #12]
 2708 0058 126C     		ldr	r2, [r2, #64]
 2709 005a 1A60     		str	r2, [r3]
 2710              		.loc 5 694 0
 2711 005c 039B     		ldr	r3, [sp, #12]
 2712 005e 5B6C     		ldr	r3, [r3, #68]
 2713 0060 1B68     		ldr	r3, [r3]
 2714 0062 1A68     		ldr	r2, [r3]
 2715 0064 039B     		ldr	r3, [sp, #12]
 2716 0066 5B6C     		ldr	r3, [r3, #68]
 2717 0068 1B68     		ldr	r3, [r3]
 2718 006a 42F00102 		orr	r2, r2, #1
 2719 006e 1A60     		str	r2, [r3]
 2720              		.loc 5 697 0
 2721 0070 039B     		ldr	r3, [sp, #12]
 2722 0072 9B6C     		ldr	r3, [r3, #72]
 2723 0074 1F4A     		ldr	r2, .L209+12
 2724 0076 9A63     		str	r2, [r3, #56]
 2725              		.loc 5 698 0
 2726 0078 039B     		ldr	r3, [sp, #12]
 2727 007a 9B6C     		ldr	r3, [r3, #72]
 2728 007c 40F22A32 		movw	r2, #810
ARM GAS  C:\Users\PCHAUT~1\AppData\Local\Temp\ccORgsmL.s 			page 49


 2729 0080 DA63     		str	r2, [r3, #60]
 2730              		.loc 5 703 0
 2731 0082 039B     		ldr	r3, [sp, #12]
 2732 0084 9B6C     		ldr	r3, [r3, #72]
 2733 0086 009A     		ldr	r2, [sp]
 2734 0088 5202     		lsls	r2, r2, #9
 2735 008a 9A62     		str	r2, [r3, #40]
 2736              		.loc 5 706 0
 2737 008c 039B     		ldr	r3, [sp, #12]
 2738 008e 9B6C     		ldr	r3, [r3, #72]
 2739 0090 9B22     		movs	r2, #155
 2740 0092 DA62     		str	r2, [r3, #44]
 2741              		.loc 5 712 0
 2742 0094 04AB     		add	r3, sp, #16
 2743 0096 009A     		ldr	r2, [sp]
 2744 0098 0299     		ldr	r1, [sp, #8]
 2745 009a 0398     		ldr	r0, [sp, #12]
 2746 009c FFF7FEFF 		bl	sdc_lld_prepare_read
 2747 00a0 0346     		mov	r3, r0
 2748 00a2 002B     		cmp	r3, #0
 2749 00a4 0AD1     		bne	.L207
 2750              		.loc 5 715 0
 2751 00a6 04AB     		add	r3, sp, #16
 2752 00a8 1A46     		mov	r2, r3
 2753 00aa 0099     		ldr	r1, [sp]
 2754 00ac 0398     		ldr	r0, [sp, #12]
 2755 00ae FFF7FEFF 		bl	sdc_lld_wait_transaction_end
 2756 00b2 0346     		mov	r3, r0
 2757 00b4 002B     		cmp	r3, #0
 2758 00b6 03D1     		bne	.L208
 2759              		.loc 5 718 0
 2760 00b8 0023     		movs	r3, #0
 2761 00ba 09E0     		b	.L205
 2762              	.L207:
 2763              		.loc 5 713 0
 2764 00bc 00BF     		nop
 2765 00be 00E0     		b	.L203
 2766              	.L208:
 2767              		.loc 5 716 0
 2768 00c0 00BF     		nop
 2769              	.L203:
 2770              		.loc 5 721 0
 2771 00c2 04AB     		add	r3, sp, #16
 2772 00c4 1A46     		mov	r2, r3
 2773 00c6 0099     		ldr	r1, [sp]
 2774 00c8 0398     		ldr	r0, [sp, #12]
 2775 00ca FFF7FEFF 		bl	sdc_lld_error_cleanup
 2776              		.loc 5 722 0
 2777 00ce 0123     		movs	r3, #1
 2778              	.L205:
 2779              		.loc 5 723 0 discriminator 1
 2780 00d0 1846     		mov	r0, r3
 2781 00d2 054B     		ldr	r3, .L209
 2782 00d4 059A     		ldr	r2, [sp, #20]
 2783 00d6 1B68     		ldr	r3, [r3]
 2784 00d8 9A42     		cmp	r2, r3
 2785 00da 01D0     		beq	.L206
ARM GAS  C:\Users\PCHAUT~1\AppData\Local\Temp\ccORgsmL.s 			page 50


 2786              		.loc 5 723 0 is_stmt 0
 2787 00dc FFF7FEFF 		bl	__stack_chk_fail
 2788              	.L206:
 2789 00e0 07B0     		add	sp, sp, #28
 2790              		.cfi_def_cfa_offset 4
 2791              		@ sp needed
 2792 00e2 5DF804FB 		ldr	pc, [sp], #4
 2793              	.L210:
 2794 00e6 00BF     		.align	2
 2795              	.L209:
 2796 00e8 00000000 		.word	__stack_chk_guard
 2797 00ec 00000000 		.word	__func__.10372
 2798 00f0 C0270900 		.word	600000
 2799 00f4 FF07C000 		.word	12584959
 2800              		.cfi_endproc
 2801              	.LFE275:
 2802              		.size	sdc_lld_read_aligned, .-sdc_lld_read_aligned
 2803              		.section	.text.sdc_lld_write_aligned,"ax",%progbits
 2804              		.align	1
 2805              		.p2align 4,,15
 2806              		.global	sdc_lld_write_aligned
 2807              		.syntax unified
 2808              		.thumb
 2809              		.thumb_func
 2810              		.fpu fpv4-sp-d16
 2811              		.type	sdc_lld_write_aligned, %function
 2812              	sdc_lld_write_aligned:
 2813              	.LFB276:
 2814              		.loc 5 740 0 is_stmt 1
 2815              		.cfi_startproc
 2816              		@ args = 0, pretend = 0, frame = 24
 2817              		@ frame_needed = 0, uses_anonymous_args = 0
 2818 0000 00B5     		push	{lr}
 2819              		.cfi_def_cfa_offset 4
 2820              		.cfi_offset 14, -4
 2821 0002 87B0     		sub	sp, sp, #28
 2822              		.cfi_def_cfa_offset 32
 2823 0004 0390     		str	r0, [sp, #12]
 2824 0006 0291     		str	r1, [sp, #8]
 2825 0008 0192     		str	r2, [sp, #4]
 2826 000a 0093     		str	r3, [sp]
 2827              		.loc 5 740 0
 2828 000c 374B     		ldr	r3, .L222
 2829 000e 1B68     		ldr	r3, [r3]
 2830 0010 0593     		str	r3, [sp, #20]
 2831              		.loc 5 743 0
 2832 0012 009B     		ldr	r3, [sp]
 2833 0014 B3F5004F 		cmp	r3, #32768
 2834 0018 02D3     		bcc	.L212
 2835              		.loc 5 743 0 is_stmt 0 discriminator 2
 2836 001a 3548     		ldr	r0, .L222+4
 2837 001c FFF7FEFF 		bl	chSysHalt
 2838              	.L212:
 2839              		.loc 5 745 0 is_stmt 1
 2840 0020 039B     		ldr	r3, [sp, #12]
 2841 0022 9B6C     		ldr	r3, [r3, #72]
 2842 0024 334A     		ldr	r2, .L222+8
ARM GAS  C:\Users\PCHAUT~1\AppData\Local\Temp\ccORgsmL.s 			page 51


 2843 0026 5A62     		str	r2, [r3, #36]
 2844              		.loc 5 748 0
 2845 0028 0398     		ldr	r0, [sp, #12]
 2846 002a FFF7FEFF 		bl	_sdc_wait_for_transfer_state
 2847 002e 0346     		mov	r3, r0
 2848 0030 002B     		cmp	r3, #0
 2849 0032 01D0     		beq	.L213
 2850              		.loc 5 749 0
 2851 0034 0123     		movs	r3, #1
 2852 0036 4DE0     		b	.L218
 2853              	.L213:
 2854              		.loc 5 752 0
 2855 0038 039B     		ldr	r3, [sp, #12]
 2856 003a 5B6C     		ldr	r3, [r3, #68]
 2857 003c 1B68     		ldr	r3, [r3]
 2858 003e 019A     		ldr	r2, [sp, #4]
 2859 0040 DA60     		str	r2, [r3, #12]
 2860              		.loc 5 753 0
 2861 0042 009B     		ldr	r3, [sp]
 2862 0044 5A02     		lsls	r2, r3, #9
 2863 0046 039B     		ldr	r3, [sp, #12]
 2864 0048 5B6C     		ldr	r3, [r3, #68]
 2865 004a 1B68     		ldr	r3, [r3]
 2866 004c 9208     		lsrs	r2, r2, #2
 2867 004e 5A60     		str	r2, [r3, #4]
 2868              		.loc 5 755 0
 2869 0050 039B     		ldr	r3, [sp, #12]
 2870 0052 1A6C     		ldr	r2, [r3, #64]
 2871 0054 039B     		ldr	r3, [sp, #12]
 2872 0056 5B6C     		ldr	r3, [r3, #68]
 2873 0058 1B68     		ldr	r3, [r3]
 2874 005a 42F04002 		orr	r2, r2, #64
 2875 005e 1A60     		str	r2, [r3]
 2876              		.loc 5 756 0
 2877 0060 039B     		ldr	r3, [sp, #12]
 2878 0062 5B6C     		ldr	r3, [r3, #68]
 2879 0064 1B68     		ldr	r3, [r3]
 2880 0066 1A68     		ldr	r2, [r3]
 2881 0068 039B     		ldr	r3, [sp, #12]
 2882 006a 5B6C     		ldr	r3, [r3, #68]
 2883 006c 1B68     		ldr	r3, [r3]
 2884 006e 42F00102 		orr	r2, r2, #1
 2885 0072 1A60     		str	r2, [r3]
 2886              		.loc 5 759 0
 2887 0074 039B     		ldr	r3, [sp, #12]
 2888 0076 9B6C     		ldr	r3, [r3, #72]
 2889 0078 1F4A     		ldr	r2, .L222+12
 2890 007a 9A63     		str	r2, [r3, #56]
 2891              		.loc 5 760 0
 2892 007c 039B     		ldr	r3, [sp, #12]
 2893 007e 9B6C     		ldr	r3, [r3, #72]
 2894 0080 40F21A32 		movw	r2, #794
 2895 0084 DA63     		str	r2, [r3, #60]
 2896              		.loc 5 765 0
 2897 0086 039B     		ldr	r3, [sp, #12]
 2898 0088 9B6C     		ldr	r3, [r3, #72]
 2899 008a 009A     		ldr	r2, [sp]
ARM GAS  C:\Users\PCHAUT~1\AppData\Local\Temp\ccORgsmL.s 			page 52


 2900 008c 5202     		lsls	r2, r2, #9
 2901 008e 9A62     		str	r2, [r3, #40]
 2902              		.loc 5 768 0
 2903 0090 04AB     		add	r3, sp, #16
 2904 0092 009A     		ldr	r2, [sp]
 2905 0094 0299     		ldr	r1, [sp, #8]
 2906 0096 0398     		ldr	r0, [sp, #12]
 2907 0098 FFF7FEFF 		bl	sdc_lld_prepare_write
 2908 009c 0346     		mov	r3, r0
 2909 009e 002B     		cmp	r3, #0
 2910 00a0 0ED1     		bne	.L220
 2911              		.loc 5 772 0
 2912 00a2 039B     		ldr	r3, [sp, #12]
 2913 00a4 9B6C     		ldr	r3, [r3, #72]
 2914 00a6 9922     		movs	r2, #153
 2915 00a8 DA62     		str	r2, [r3, #44]
 2916              		.loc 5 777 0
 2917 00aa 04AB     		add	r3, sp, #16
 2918 00ac 1A46     		mov	r2, r3
 2919 00ae 0099     		ldr	r1, [sp]
 2920 00b0 0398     		ldr	r0, [sp, #12]
 2921 00b2 FFF7FEFF 		bl	sdc_lld_wait_transaction_end
 2922 00b6 0346     		mov	r3, r0
 2923 00b8 002B     		cmp	r3, #0
 2924 00ba 03D1     		bne	.L221
 2925              		.loc 5 780 0
 2926 00bc 0023     		movs	r3, #0
 2927 00be 09E0     		b	.L218
 2928              	.L220:
 2929              		.loc 5 769 0
 2930 00c0 00BF     		nop
 2931 00c2 00E0     		b	.L216
 2932              	.L221:
 2933              		.loc 5 778 0
 2934 00c4 00BF     		nop
 2935              	.L216:
 2936              		.loc 5 783 0
 2937 00c6 04AB     		add	r3, sp, #16
 2938 00c8 1A46     		mov	r2, r3
 2939 00ca 0099     		ldr	r1, [sp]
 2940 00cc 0398     		ldr	r0, [sp, #12]
 2941 00ce FFF7FEFF 		bl	sdc_lld_error_cleanup
 2942              		.loc 5 784 0
 2943 00d2 0123     		movs	r3, #1
 2944              	.L218:
 2945              		.loc 5 785 0 discriminator 1
 2946 00d4 1846     		mov	r0, r3
 2947 00d6 054B     		ldr	r3, .L222
 2948 00d8 059A     		ldr	r2, [sp, #20]
 2949 00da 1B68     		ldr	r3, [r3]
 2950 00dc 9A42     		cmp	r2, r3
 2951 00de 01D0     		beq	.L219
 2952              		.loc 5 785 0 is_stmt 0
 2953 00e0 FFF7FEFF 		bl	__stack_chk_fail
 2954              	.L219:
 2955 00e4 07B0     		add	sp, sp, #28
 2956              		.cfi_def_cfa_offset 4
ARM GAS  C:\Users\PCHAUT~1\AppData\Local\Temp\ccORgsmL.s 			page 53


 2957              		@ sp needed
 2958 00e6 5DF804FB 		ldr	pc, [sp], #4
 2959              	.L223:
 2960 00ea 00BF     		.align	2
 2961              	.L222:
 2962 00ec 00000000 		.word	__stack_chk_guard
 2963 00f0 00000000 		.word	__func__.10381
 2964 00f4 808D5B00 		.word	6000000
 2965 00f8 FF07C000 		.word	12584959
 2966              		.cfi_endproc
 2967              	.LFE276:
 2968              		.size	sdc_lld_write_aligned, .-sdc_lld_write_aligned
 2969              		.section	.text.sdc_lld_read,"ax",%progbits
 2970              		.align	1
 2971              		.p2align 4,,15
 2972              		.global	sdc_lld_read
 2973              		.syntax unified
 2974              		.thumb
 2975              		.thumb_func
 2976              		.fpu fpv4-sp-d16
 2977              		.type	sdc_lld_read, %function
 2978              	sdc_lld_read:
 2979              	.LFB277:
 2980              		.loc 5 802 0 is_stmt 1
 2981              		.cfi_startproc
 2982              		@ args = 0, pretend = 0, frame = 24
 2983              		@ frame_needed = 0, uses_anonymous_args = 0
 2984 0000 00B5     		push	{lr}
 2985              		.cfi_def_cfa_offset 4
 2986              		.cfi_offset 14, -4
 2987 0002 87B0     		sub	sp, sp, #28
 2988              		.cfi_def_cfa_offset 32
 2989 0004 0390     		str	r0, [sp, #12]
 2990 0006 0291     		str	r1, [sp, #8]
 2991 0008 0192     		str	r2, [sp, #4]
 2992 000a 0093     		str	r3, [sp]
 2993              		.loc 5 802 0
 2994 000c 204B     		ldr	r3, .L231
 2995 000e 1B68     		ldr	r3, [r3]
 2996 0010 0593     		str	r3, [sp, #20]
 2997              		.loc 5 805 0
 2998 0012 019B     		ldr	r3, [sp, #4]
 2999 0014 03F00303 		and	r3, r3, #3
 3000 0018 002B     		cmp	r3, #0
 3001 001a 26D0     		beq	.L225
 3002              	.LBB11:
 3003              		.loc 5 807 0
 3004 001c 0023     		movs	r3, #0
 3005 001e 0493     		str	r3, [sp, #16]
 3006 0020 1DE0     		b	.L226
 3007              	.L229:
 3008              		.loc 5 808 0
 3009 0022 0123     		movs	r3, #1
 3010 0024 1B4A     		ldr	r2, .L231+4
 3011 0026 0299     		ldr	r1, [sp, #8]
 3012 0028 0398     		ldr	r0, [sp, #12]
 3013 002a FFF7FEFF 		bl	sdc_lld_read_aligned
ARM GAS  C:\Users\PCHAUT~1\AppData\Local\Temp\ccORgsmL.s 			page 54


 3014 002e 0346     		mov	r3, r0
 3015 0030 002B     		cmp	r3, #0
 3016 0032 01D0     		beq	.L227
 3017              		.loc 5 809 0
 3018 0034 0123     		movs	r3, #1
 3019 0036 1FE0     		b	.L228
 3020              	.L227:
 3021              		.loc 5 810 0 discriminator 2
 3022 0038 019B     		ldr	r3, [sp, #4]
 3023 003a 164A     		ldr	r2, .L231+4
 3024 003c 1846     		mov	r0, r3
 3025 003e 1146     		mov	r1, r2
 3026 0040 4FF40073 		mov	r3, #512
 3027 0044 1A46     		mov	r2, r3
 3028 0046 FFF7FEFF 		bl	memcpy
 3029              		.loc 5 811 0 discriminator 2
 3030 004a 019B     		ldr	r3, [sp, #4]
 3031 004c 03F50073 		add	r3, r3, #512
 3032 0050 0193     		str	r3, [sp, #4]
 3033              		.loc 5 812 0 discriminator 2
 3034 0052 029B     		ldr	r3, [sp, #8]
 3035 0054 0133     		adds	r3, r3, #1
 3036 0056 0293     		str	r3, [sp, #8]
 3037              		.loc 5 807 0 discriminator 2
 3038 0058 049B     		ldr	r3, [sp, #16]
 3039 005a 0133     		adds	r3, r3, #1
 3040 005c 0493     		str	r3, [sp, #16]
 3041              	.L226:
 3042              		.loc 5 807 0 is_stmt 0 discriminator 1
 3043 005e 049A     		ldr	r2, [sp, #16]
 3044 0060 009B     		ldr	r3, [sp]
 3045 0062 9A42     		cmp	r2, r3
 3046 0064 DDD3     		bcc	.L229
 3047              		.loc 5 814 0 is_stmt 1
 3048 0066 0023     		movs	r3, #0
 3049 0068 06E0     		b	.L228
 3050              	.L225:
 3051              	.LBE11:
 3052              		.loc 5 817 0
 3053 006a 009B     		ldr	r3, [sp]
 3054 006c 019A     		ldr	r2, [sp, #4]
 3055 006e 0299     		ldr	r1, [sp, #8]
 3056 0070 0398     		ldr	r0, [sp, #12]
 3057 0072 FFF7FEFF 		bl	sdc_lld_read_aligned
 3058 0076 0346     		mov	r3, r0
 3059              	.L228:
 3060              		.loc 5 818 0
 3061 0078 1846     		mov	r0, r3
 3062 007a 054B     		ldr	r3, .L231
 3063 007c 059A     		ldr	r2, [sp, #20]
 3064 007e 1B68     		ldr	r3, [r3]
 3065 0080 9A42     		cmp	r2, r3
 3066 0082 01D0     		beq	.L230
 3067 0084 FFF7FEFF 		bl	__stack_chk_fail
 3068              	.L230:
 3069 0088 07B0     		add	sp, sp, #28
 3070              		.cfi_def_cfa_offset 4
ARM GAS  C:\Users\PCHAUT~1\AppData\Local\Temp\ccORgsmL.s 			page 55


 3071              		@ sp needed
 3072 008a 5DF804FB 		ldr	pc, [sp], #4
 3073              	.L232:
 3074 008e 00BF     		.align	2
 3075              	.L231:
 3076 0090 00000000 		.word	__stack_chk_guard
 3077 0094 00000000 		.word	u
 3078              		.cfi_endproc
 3079              	.LFE277:
 3080              		.size	sdc_lld_read, .-sdc_lld_read
 3081              		.section	.text.sdc_lld_write,"ax",%progbits
 3082              		.align	1
 3083              		.p2align 4,,15
 3084              		.global	sdc_lld_write
 3085              		.syntax unified
 3086              		.thumb
 3087              		.thumb_func
 3088              		.fpu fpv4-sp-d16
 3089              		.type	sdc_lld_write, %function
 3090              	sdc_lld_write:
 3091              	.LFB278:
 3092              		.loc 5 835 0
 3093              		.cfi_startproc
 3094              		@ args = 0, pretend = 0, frame = 24
 3095              		@ frame_needed = 0, uses_anonymous_args = 0
 3096 0000 00B5     		push	{lr}
 3097              		.cfi_def_cfa_offset 4
 3098              		.cfi_offset 14, -4
 3099 0002 87B0     		sub	sp, sp, #28
 3100              		.cfi_def_cfa_offset 32
 3101 0004 0390     		str	r0, [sp, #12]
 3102 0006 0291     		str	r1, [sp, #8]
 3103 0008 0192     		str	r2, [sp, #4]
 3104 000a 0093     		str	r3, [sp]
 3105              		.loc 5 835 0
 3106 000c 204B     		ldr	r3, .L240
 3107 000e 1B68     		ldr	r3, [r3]
 3108 0010 0593     		str	r3, [sp, #20]
 3109              		.loc 5 838 0
 3110 0012 019B     		ldr	r3, [sp, #4]
 3111 0014 03F00303 		and	r3, r3, #3
 3112 0018 002B     		cmp	r3, #0
 3113 001a 26D0     		beq	.L234
 3114              	.LBB12:
 3115              		.loc 5 840 0
 3116 001c 0023     		movs	r3, #0
 3117 001e 0493     		str	r3, [sp, #16]
 3118 0020 1DE0     		b	.L235
 3119              	.L238:
 3120              		.loc 5 841 0
 3121 0022 1C4A     		ldr	r2, .L240+4
 3122 0024 019B     		ldr	r3, [sp, #4]
 3123 0026 1046     		mov	r0, r2
 3124 0028 1946     		mov	r1, r3
 3125 002a 4FF40073 		mov	r3, #512
 3126 002e 1A46     		mov	r2, r3
 3127 0030 FFF7FEFF 		bl	memcpy
ARM GAS  C:\Users\PCHAUT~1\AppData\Local\Temp\ccORgsmL.s 			page 56


 3128              		.loc 5 842 0
 3129 0034 019B     		ldr	r3, [sp, #4]
 3130 0036 03F50073 		add	r3, r3, #512
 3131 003a 0193     		str	r3, [sp, #4]
 3132              		.loc 5 843 0
 3133 003c 0123     		movs	r3, #1
 3134 003e 154A     		ldr	r2, .L240+4
 3135 0040 0299     		ldr	r1, [sp, #8]
 3136 0042 0398     		ldr	r0, [sp, #12]
 3137 0044 FFF7FEFF 		bl	sdc_lld_write_aligned
 3138 0048 0346     		mov	r3, r0
 3139 004a 002B     		cmp	r3, #0
 3140 004c 01D0     		beq	.L236
 3141              		.loc 5 844 0
 3142 004e 0123     		movs	r3, #1
 3143 0050 12E0     		b	.L237
 3144              	.L236:
 3145              		.loc 5 845 0 discriminator 2
 3146 0052 029B     		ldr	r3, [sp, #8]
 3147 0054 0133     		adds	r3, r3, #1
 3148 0056 0293     		str	r3, [sp, #8]
 3149              		.loc 5 840 0 discriminator 2
 3150 0058 049B     		ldr	r3, [sp, #16]
 3151 005a 0133     		adds	r3, r3, #1
 3152 005c 0493     		str	r3, [sp, #16]
 3153              	.L235:
 3154              		.loc 5 840 0 is_stmt 0 discriminator 1
 3155 005e 049A     		ldr	r2, [sp, #16]
 3156 0060 009B     		ldr	r3, [sp]
 3157 0062 9A42     		cmp	r2, r3
 3158 0064 DDD3     		bcc	.L238
 3159              		.loc 5 847 0 is_stmt 1
 3160 0066 0023     		movs	r3, #0
 3161 0068 06E0     		b	.L237
 3162              	.L234:
 3163              	.LBE12:
 3164              		.loc 5 850 0
 3165 006a 009B     		ldr	r3, [sp]
 3166 006c 019A     		ldr	r2, [sp, #4]
 3167 006e 0299     		ldr	r1, [sp, #8]
 3168 0070 0398     		ldr	r0, [sp, #12]
 3169 0072 FFF7FEFF 		bl	sdc_lld_write_aligned
 3170 0076 0346     		mov	r3, r0
 3171              	.L237:
 3172              		.loc 5 851 0
 3173 0078 1846     		mov	r0, r3
 3174 007a 054B     		ldr	r3, .L240
 3175 007c 059A     		ldr	r2, [sp, #20]
 3176 007e 1B68     		ldr	r3, [r3]
 3177 0080 9A42     		cmp	r2, r3
 3178 0082 01D0     		beq	.L239
 3179 0084 FFF7FEFF 		bl	__stack_chk_fail
 3180              	.L239:
 3181 0088 07B0     		add	sp, sp, #28
 3182              		.cfi_def_cfa_offset 4
 3183              		@ sp needed
 3184 008a 5DF804FB 		ldr	pc, [sp], #4
ARM GAS  C:\Users\PCHAUT~1\AppData\Local\Temp\ccORgsmL.s 			page 57


 3185              	.L241:
 3186 008e 00BF     		.align	2
 3187              	.L240:
 3188 0090 00000000 		.word	__stack_chk_guard
 3189 0094 00000000 		.word	u
 3190              		.cfi_endproc
 3191              	.LFE278:
 3192              		.size	sdc_lld_write, .-sdc_lld_write
 3193              		.section	.text.sdc_lld_sync,"ax",%progbits
 3194              		.align	1
 3195              		.p2align 4,,15
 3196              		.global	sdc_lld_sync
 3197              		.syntax unified
 3198              		.thumb
 3199              		.thumb_func
 3200              		.fpu fpv4-sp-d16
 3201              		.type	sdc_lld_sync, %function
 3202              	sdc_lld_sync:
 3203              	.LFB279:
 3204              		.loc 5 864 0
 3205              		.cfi_startproc
 3206              		@ args = 0, pretend = 0, frame = 16
 3207              		@ frame_needed = 0, uses_anonymous_args = 0
 3208 0000 00B5     		push	{lr}
 3209              		.cfi_def_cfa_offset 4
 3210              		.cfi_offset 14, -4
 3211 0002 85B0     		sub	sp, sp, #20
 3212              		.cfi_def_cfa_offset 24
 3213 0004 0190     		str	r0, [sp, #4]
 3214              		.loc 5 864 0
 3215 0006 074B     		ldr	r3, .L245
 3216 0008 1B68     		ldr	r3, [r3]
 3217 000a 0393     		str	r3, [sp, #12]
 3218              		.loc 5 868 0
 3219 000c 0023     		movs	r3, #0
 3220              		.loc 5 869 0
 3221 000e 1846     		mov	r0, r3
 3222 0010 044B     		ldr	r3, .L245
 3223 0012 039A     		ldr	r2, [sp, #12]
 3224 0014 1B68     		ldr	r3, [r3]
 3225 0016 9A42     		cmp	r2, r3
 3226 0018 01D0     		beq	.L244
 3227 001a FFF7FEFF 		bl	__stack_chk_fail
 3228              	.L244:
 3229 001e 05B0     		add	sp, sp, #20
 3230              		.cfi_def_cfa_offset 4
 3231              		@ sp needed
 3232 0020 5DF804FB 		ldr	pc, [sp], #4
 3233              	.L246:
 3234              		.align	2
 3235              	.L245:
 3236 0024 00000000 		.word	__stack_chk_guard
 3237              		.cfi_endproc
 3238              	.LFE279:
 3239              		.size	sdc_lld_sync, .-sdc_lld_sync
 3240              		.section	.rodata.__func__.10250,"a",%progbits
 3241              		.align	2
ARM GAS  C:\Users\PCHAUT~1\AppData\Local\Temp\ccORgsmL.s 			page 58


 3242              		.type	__func__.10250, %object
 3243              		.size	__func__.10250, 27
 3244              	__func__.10250:
 3245 0000 7364635F 		.ascii	"sdc_lld_prepare_read_bytes\000"
 3245      6C6C645F 
 3245      70726570 
 3245      6172655F 
 3245      72656164 
 3246              		.section	.rodata.__func__.7554,"a",%progbits
 3247              		.align	2
 3248              		.type	__func__.7554, %object
 3249              		.size	__func__.7554, 12
 3250              	__func__.7554:
 3251 0000 63685379 		.ascii	"chSysUnlock\000"
 3251      73556E6C 
 3251      6F636B00 
 3252              		.section	.rodata.__func__.10295,"a",%progbits
 3253              		.align	2
 3254              		.type	__func__.10295, %object
 3255              		.size	__func__.10295, 14
 3256              	__func__.10295:
 3257 0000 7364635F 		.ascii	"sdc_lld_start\000"
 3257      6C6C645F 
 3257      73746172 
 3257      7400
 3258              		.section	.rodata.__func__.10372,"a",%progbits
 3259              		.align	2
 3260              		.type	__func__.10372, %object
 3261              		.size	__func__.10372, 21
 3262              	__func__.10372:
 3263 0000 7364635F 		.ascii	"sdc_lld_read_aligned\000"
 3263      6C6C645F 
 3263      72656164 
 3263      5F616C69 
 3263      676E6564 
 3264              		.section	.rodata.__func__.10381,"a",%progbits
 3265              		.align	2
 3266              		.type	__func__.10381, %object
 3267              		.size	__func__.10381, 22
 3268              	__func__.10381:
 3269 0000 7364635F 		.ascii	"sdc_lld_write_aligned\000"
 3269      6C6C645F 
 3269      77726974 
 3269      655F616C 
 3269      69676E65 
 3270              		.text
 3271              	.Letext0:
 3272              		.file 6 "c:\\users\\pchautems\\documents\\robotiquetp\\eclipse_e-puck2\\tools\\gcc-arm-none-eabi-7
 3273              		.file 7 "c:\\users\\pchautems\\documents\\robotiquetp\\eclipse_e-puck2\\tools\\gcc-arm-none-eabi-7
 3274              		.file 8 "c:\\users\\pchautems\\documents\\robotiquetp\\eclipse_e-puck2\\tools\\gcc-arm-none-eabi-7
 3275              		.file 9 "c:\\users\\pchautems\\documents\\robotiquetp\\eclipse_e-puck2\\tools\\gcc-arm-none-eabi-7
 3276              		.file 10 "c:\\users\\pchautems\\documents\\robotiquetp\\eclipse_e-puck2\\tools\\gcc-arm-none-eabi-
 3277              		.file 11 "c:\\users\\pchautems\\documents\\robotiquetp\\eclipse_e-puck2\\tools\\gcc-arm-none-eabi-
 3278              		.file 12 "../lib/e-puck2_main-processor/ChibiOS//os/rt/ports/ARMCMx/compilers/GCC/chtypes.h"
 3279              		.file 13 "../lib/e-puck2_main-processor/ChibiOS//os/rt/include/chsystypes.h"
 3280              		.file 14 "../lib/e-puck2_main-processor/ChibiOS//os/rt/include/chschd.h"
 3281              		.file 15 "../lib/e-puck2_main-processor/ChibiOS//os/ext/CMSIS/include/core_cm4.h"
ARM GAS  C:\Users\PCHAUT~1\AppData\Local\Temp\ccORgsmL.s 			page 59


 3282              		.file 16 "../lib/e-puck2_main-processor/ChibiOS//os/ext/CMSIS/ST/system_stm32f4xx.h"
 3283              		.file 17 "../lib/e-puck2_main-processor/ChibiOS//os/ext/CMSIS/ST/stm32f407xx.h"
 3284              		.file 18 "../lib/e-puck2_main-processor/ChibiOS//os/rt/ports/ARMCMx/chcore.h"
 3285              		.file 19 "../lib/e-puck2_main-processor/ChibiOS//os/rt/include/chdebug.h"
 3286              		.file 20 "../lib/e-puck2_main-processor/ChibiOS//os/rt/include/chtm.h"
 3287              		.file 21 "../lib/e-puck2_main-processor/ChibiOS//os/rt/include/chstats.h"
 3288              		.file 22 "../lib/e-puck2_main-processor/ChibiOS//os/rt/include/chsem.h"
 3289              		.file 23 "../lib/e-puck2_main-processor/ChibiOS//os/rt/include/chmtx.h"
 3290              		.file 24 "../lib/e-puck2_main-processor/ChibiOS//os/rt/include/chregistry.h"
 3291              		.file 25 "../lib/e-puck2_main-processor/ChibiOS//os/rt/include/chevents.h"
 3292              		.file 26 "../lib/e-puck2_main-processor/ChibiOS//os/rt/include/chqueues.h"
 3293              		.file 27 "../lib/e-puck2_main-processor/ChibiOS//os/hal/ports/STM32/STM32F4xx/stm32_dma.h"
 3294              		.file 28 "../lib/e-puck2_main-processor/ChibiOS//os/hal/include/hal_ioblock.h"
 3295              		.file 29 "../lib/e-puck2_main-processor/ChibiOS//os/hal/ports/STM32/LLD/GPIOv2/pal_lld.h"
 3296              		.file 30 "../lib/e-puck2_main-processor/ChibiOS//os/hal/include/adc.h"
 3297              		.file 31 "../lib/e-puck2_main-processor/ChibiOS//os/hal/ports/STM32/STM32F4xx/adc_lld.h"
 3298              		.file 32 "../lib/e-puck2_main-processor/ChibiOS//os/hal/include/can.h"
 3299              		.file 33 "../lib/e-puck2_main-processor/ChibiOS//os/hal/ports/STM32/LLD/can_lld.h"
 3300              		.file 34 "../lib/e-puck2_main-processor/ChibiOS//os/hal/include/dac.h"
 3301              		.file 35 "../lib/e-puck2_main-processor/ChibiOS//os/hal/ports/STM32/LLD/DACv1/dac_lld.h"
 3302              		.file 36 "../lib/e-puck2_main-processor/ChibiOS//os/hal/include/ext.h"
 3303              		.file 37 "../lib/e-puck2_main-processor/ChibiOS//os/hal/ports/STM32/LLD/ext_lld.h"
 3304              		.file 38 "../lib/e-puck2_main-processor/ChibiOS//os/hal/include/gpt.h"
 3305              		.file 39 "../lib/e-puck2_main-processor/ChibiOS//os/hal/ports/STM32/LLD/TIMv1/gpt_lld.h"
 3306              		.file 40 "../lib/e-puck2_main-processor/ChibiOS//os/hal/ports/STM32/LLD/TIMv1/stm32_tim.h"
 3307              		.file 41 "../lib/e-puck2_main-processor/ChibiOS//os/hal/include/i2c.h"
 3308              		.file 42 "../lib/e-puck2_main-processor/ChibiOS//os/hal/ports/STM32/LLD/I2Cv1/i2c_lld.h"
 3309              		.file 43 "../lib/e-puck2_main-processor/ChibiOS//os/hal/include/i2s.h"
 3310              		.file 44 "../lib/e-puck2_main-processor/ChibiOS//os/hal/ports/STM32/LLD/SPIv1/i2s_lld.h"
 3311              		.file 45 "../lib/e-puck2_main-processor/ChibiOS//os/hal/include/pwm.h"
 3312              		.file 46 "../lib/e-puck2_main-processor/ChibiOS//os/hal/ports/STM32/LLD/TIMv1/pwm_lld.h"
 3313              		.file 47 "../lib/e-puck2_main-processor/ChibiOS//os/hal/include/serial.h"
 3314              		.file 48 "../lib/e-puck2_main-processor/ChibiOS//os/hal/ports/STM32/LLD/USARTv1/serial_lld.h"
 3315              		.file 49 "../lib/e-puck2_main-processor/ChibiOS//os/hal/include/sdc.h"
 3316              		.file 50 "../lib/e-puck2_main-processor/ChibiOS//os/hal/ports/STM32/LLD/sdc_lld.h"
 3317              		.file 51 "../lib/e-puck2_main-processor/ChibiOS//os/hal/include/spi.h"
 3318              		.file 52 "../lib/e-puck2_main-processor/ChibiOS//os/hal/ports/STM32/LLD/SPIv1/spi_lld.h"
 3319              		.file 53 "../lib/e-puck2_main-processor/ChibiOS//os/hal/include/usb.h"
 3320              		.file 54 "../lib/e-puck2_main-processor/ChibiOS//os/hal/ports/STM32/LLD/OTGv1/usb_lld.h"
 3321              		.file 55 "../lib/e-puck2_main-processor/ChibiOS//os/hal/ports/STM32/LLD/OTGv1/stm32_otg.h"