ARM GAS  C:\Users\PCHAUT~1\AppData\Local\Temp\ccORgsmL.s 			page 1


   1              		.cpu cortex-m4
   2              		.eabi_attribute 27, 1
   3              		.eabi_attribute 28, 1
   4              		.eabi_attribute 20, 1
   5              		.eabi_attribute 21, 1
   6              		.eabi_attribute 23, 3
   7              		.eabi_attribute 24, 1
   8              		.eabi_attribute 25, 1
   9              		.eabi_attribute 26, 1
  10              		.eabi_attribute 30, 6
  11              		.eabi_attribute 34, 1
  12              		.eabi_attribute 18, 4
  13              		.file	"sdc_lld.c"
  14              		.text
  15              	.Ltext0:
  16              		.cfi_sections	.debug_frame
  17              		.section	.text.port_lock,"ax",%progbits
  18              		.align	1
  19              		.p2align 4,,15
  20              		.syntax unified
  21              		.thumb
  22              		.thumb_func
  23              		.fpu fpv4-sp-d16
  24              		.type	port_lock, %function
  25              	port_lock:
  26              	.LFB116:
  27              		.file 1 "../lib/e-puck2_main-processor/ChibiOS//os/rt/ports/ARMCMx/chcore_v7m.h"
  28              		.loc 1 444 0
  29              		.cfi_startproc
  30              		@ args = 0, pretend = 0, frame = 8
  31              		@ frame_needed = 0, uses_anonymous_args = 0
  32 0000 00B5     		push	{lr}
  33              		.cfi_def_cfa_offset 4
  34              		.cfi_offset 14, -4
  35 0002 83B0     		sub	sp, sp, #12
  36              		.cfi_def_cfa_offset 16
  37              		.loc 1 444 0
  38 0004 094B     		ldr	r3, .L3
  39 0006 1B68     		ldr	r3, [r3]
  40 0008 0193     		str	r3, [sp, #4]
  41 000a 2023     		movs	r3, #32
  42 000c 0093     		str	r3, [sp]
  43              	.LBB6:
  44              	.LBB7:
  45              		.file 2 "../lib/e-puck2_main-processor/ChibiOS//os/ext/CMSIS/include/core_cmFunc.h"
  46              		.loc 2 546 0
  47 000e 009B     		ldr	r3, [sp]
  48              		.syntax unified
  49              	@ 546 "../lib/e-puck2_main-processor/ChibiOS//os/ext/CMSIS/include/core_cmFunc.h" 1
  50 0010 83F31188 		MSR basepri, r3
  51              	@ 0 "" 2
  52              		.thumb
  53              		.syntax unified
  54              	.LBE7:
  55              	.LBE6:
  56              		.loc 1 451 0
  57 0014 00BF     		nop
ARM GAS  C:\Users\PCHAUT~1\AppData\Local\Temp\ccORgsmL.s 			page 2


  58 0016 054B     		ldr	r3, .L3
  59 0018 019A     		ldr	r2, [sp, #4]
  60 001a 1B68     		ldr	r3, [r3]
  61 001c 9A42     		cmp	r2, r3
  62 001e 01D0     		beq	.L2
  63 0020 FFF7FEFF 		bl	__stack_chk_fail
  64              	.L2:
  65 0024 03B0     		add	sp, sp, #12
  66              		.cfi_def_cfa_offset 4
  67              		@ sp needed
  68 0026 5DF804FB 		ldr	pc, [sp], #4
  69              	.L4:
  70 002a 00BF     		.align	2
  71              	.L3:
  72 002c 00000000 		.word	__stack_chk_guard
  73              		.cfi_endproc
  74              	.LFE116:
  75              		.size	port_lock, .-port_lock
  76              		.section	.text.port_unlock,"ax",%progbits
  77              		.align	1
  78              		.p2align 4,,15
  79              		.syntax unified
  80              		.thumb
  81              		.thumb_func
  82              		.fpu fpv4-sp-d16
  83              		.type	port_unlock, %function
  84              	port_unlock:
  85              	.LFB117:
  86              		.loc 1 458 0
  87              		.cfi_startproc
  88              		@ args = 0, pretend = 0, frame = 8
  89              		@ frame_needed = 0, uses_anonymous_args = 0
  90 0000 00B5     		push	{lr}
  91              		.cfi_def_cfa_offset 4
  92              		.cfi_offset 14, -4
  93 0002 83B0     		sub	sp, sp, #12
  94              		.cfi_def_cfa_offset 16
  95              		.loc 1 458 0
  96 0004 094B     		ldr	r3, .L7
  97 0006 1B68     		ldr	r3, [r3]
  98 0008 0193     		str	r3, [sp, #4]
  99 000a 0023     		movs	r3, #0
 100 000c 0093     		str	r3, [sp]
 101              	.LBB8:
 102              	.LBB9:
 103              		.loc 2 546 0
 104 000e 009B     		ldr	r3, [sp]
 105              		.syntax unified
 106              	@ 546 "../lib/e-puck2_main-processor/ChibiOS//os/ext/CMSIS/include/core_cmFunc.h" 1
 107 0010 83F31188 		MSR basepri, r3
 108              	@ 0 "" 2
 109              		.thumb
 110              		.syntax unified
 111              	.LBE9:
 112              	.LBE8:
 113              		.loc 1 465 0
 114 0014 00BF     		nop
ARM GAS  C:\Users\PCHAUT~1\AppData\Local\Temp\ccORgsmL.s 			page 3


 115 0016 054B     		ldr	r3, .L7
 116 0018 019A     		ldr	r2, [sp, #4]
 117 001a 1B68     		ldr	r3, [r3]
 118 001c 9A42     		cmp	r2, r3
 119 001e 01D0     		beq	.L6
 120 0020 FFF7FEFF 		bl	__stack_chk_fail
 121              	.L6:
 122 0024 03B0     		add	sp, sp, #12
 123              		.cfi_def_cfa_offset 4
 124              		@ sp needed
 125 0026 5DF804FB 		ldr	pc, [sp], #4
 126              	.L8:
 127 002a 00BF     		.align	2
 128              	.L7:
 129 002c 00000000 		.word	__stack_chk_guard
 130              		.cfi_endproc
 131              	.LFE117:
 132              		.size	port_unlock, .-port_unlock
 133              		.section	.text.port_lock_from_isr,"ax",%progbits
 134              		.align	1
 135              		.p2align 4,,15
 136              		.syntax unified
 137              		.thumb
 138              		.thumb_func
 139              		.fpu fpv4-sp-d16
 140              		.type	port_lock_from_isr, %function
 141              	port_lock_from_isr:
 142              	.LFB118:
 143              		.loc 1 473 0
 144              		.cfi_startproc
 145              		@ args = 0, pretend = 0, frame = 8
 146              		@ frame_needed = 0, uses_anonymous_args = 0
 147 0000 00B5     		push	{lr}
 148              		.cfi_def_cfa_offset 4
 149              		.cfi_offset 14, -4
 150 0002 83B0     		sub	sp, sp, #12
 151              		.cfi_def_cfa_offset 16
 152              		.loc 1 473 0
 153 0004 074B     		ldr	r3, .L11
 154 0006 1B68     		ldr	r3, [r3]
 155 0008 0193     		str	r3, [sp, #4]
 156              		.loc 1 475 0
 157 000a FFF7FEFF 		bl	port_lock
 158              		.loc 1 476 0
 159 000e 00BF     		nop
 160 0010 044B     		ldr	r3, .L11
 161 0012 019A     		ldr	r2, [sp, #4]
 162 0014 1B68     		ldr	r3, [r3]
 163 0016 9A42     		cmp	r2, r3
 164 0018 01D0     		beq	.L10
 165 001a FFF7FEFF 		bl	__stack_chk_fail
 166              	.L10:
 167 001e 03B0     		add	sp, sp, #12
 168              		.cfi_def_cfa_offset 4
 169              		@ sp needed
 170 0020 5DF804FB 		ldr	pc, [sp], #4
 171              	.L12:
ARM GAS  C:\Users\PCHAUT~1\AppData\Local\Temp\ccORgsmL.s 			page 4


 172              		.align	2
 173              	.L11:
 174 0024 00000000 		.word	__stack_chk_guard
 175              		.cfi_endproc
 176              	.LFE118:
 177              		.size	port_lock_from_isr, .-port_lock_from_isr
 178              		.section	.text.port_unlock_from_isr,"ax",%progbits
 179              		.align	1
 180              		.p2align 4,,15
 181              		.syntax unified
 182              		.thumb
 183              		.thumb_func
 184              		.fpu fpv4-sp-d16
 185              		.type	port_unlock_from_isr, %function
 186              	port_unlock_from_isr:
 187              	.LFB119:
 188              		.loc 1 484 0
 189              		.cfi_startproc
 190              		@ args = 0, pretend = 0, frame = 8
 191              		@ frame_needed = 0, uses_anonymous_args = 0
 192 0000 00B5     		push	{lr}
 193              		.cfi_def_cfa_offset 4
 194              		.cfi_offset 14, -4
 195 0002 83B0     		sub	sp, sp, #12
 196              		.cfi_def_cfa_offset 16
 197              		.loc 1 484 0
 198 0004 074B     		ldr	r3, .L15
 199 0006 1B68     		ldr	r3, [r3]
 200 0008 0193     		str	r3, [sp, #4]
 201              		.loc 1 486 0
 202 000a FFF7FEFF 		bl	port_unlock
 203              		.loc 1 487 0
 204 000e 00BF     		nop
 205 0010 044B     		ldr	r3, .L15
 206 0012 019A     		ldr	r2, [sp, #4]
 207 0014 1B68     		ldr	r3, [r3]
 208 0016 9A42     		cmp	r2, r3
 209 0018 01D0     		beq	.L14
 210 001a FFF7FEFF 		bl	__stack_chk_fail
 211              	.L14:
 212 001e 03B0     		add	sp, sp, #12
 213              		.cfi_def_cfa_offset 4
 214              		@ sp needed
 215 0020 5DF804FB 		ldr	pc, [sp], #4
 216              	.L16:
 217              		.align	2
 218              	.L15:
 219 0024 00000000 		.word	__stack_chk_guard
 220              		.cfi_endproc
 221              	.LFE119:
 222              		.size	port_unlock_from_isr, .-port_unlock_from_isr
 223              		.section	.text.chSysLock,"ax",%progbits
 224              		.align	1
 225              		.p2align 4,,15
 226              		.syntax unified
 227              		.thumb
 228              		.thumb_func
ARM GAS  C:\Users\PCHAUT~1\AppData\Local\Temp\ccORgsmL.s 			page 5


 229              		.fpu fpv4-sp-d16
 230              		.type	chSysLock, %function
 231              	chSysLock:
 232              	.LFB145:
 233              		.file 3 "../lib/e-puck2_main-processor/ChibiOS//os/rt/include/chsys.h"
 234              		.loc 3 346 0
 235              		.cfi_startproc
 236              		@ args = 0, pretend = 0, frame = 8
 237              		@ frame_needed = 0, uses_anonymous_args = 0
 238 0000 00B5     		push	{lr}
 239              		.cfi_def_cfa_offset 4
 240              		.cfi_offset 14, -4
 241 0002 83B0     		sub	sp, sp, #12
 242              		.cfi_def_cfa_offset 16
 243              		.loc 3 346 0
 244 0004 094B     		ldr	r3, .L19
 245 0006 1B68     		ldr	r3, [r3]
 246 0008 0193     		str	r3, [sp, #4]
 247              		.loc 3 348 0
 248 000a FFF7FEFF 		bl	port_lock
 249              		.loc 3 349 0
 250 000e FFF7FEFF 		bl	_stats_start_measure_crit_thd
 251              		.loc 3 350 0
 252 0012 FFF7FEFF 		bl	_dbg_check_lock
 253              		.loc 3 351 0
 254 0016 00BF     		nop
 255 0018 044B     		ldr	r3, .L19
 256 001a 019A     		ldr	r2, [sp, #4]
 257 001c 1B68     		ldr	r3, [r3]
 258 001e 9A42     		cmp	r2, r3
 259 0020 01D0     		beq	.L18
 260 0022 FFF7FEFF 		bl	__stack_chk_fail
 261              	.L18:
 262 0026 03B0     		add	sp, sp, #12
 263              		.cfi_def_cfa_offset 4
 264              		@ sp needed
 265 0028 5DF804FB 		ldr	pc, [sp], #4
 266              	.L20:
 267              		.align	2
 268              	.L19:
 269 002c 00000000 		.word	__stack_chk_guard
 270              		.cfi_endproc
 271              	.LFE145:
 272              		.size	chSysLock, .-chSysLock
 273              		.section	.text.chSysUnlock,"ax",%progbits
 274              		.align	1
 275              		.p2align 4,,15
 276              		.syntax unified
 277              		.thumb
 278              		.thumb_func
 279              		.fpu fpv4-sp-d16
 280              		.type	chSysUnlock, %function
 281              	chSysUnlock:
 282              	.LFB146:
 283              		.loc 3 358 0
 284              		.cfi_startproc
 285              		@ args = 0, pretend = 0, frame = 8
ARM GAS  C:\Users\PCHAUT~1\AppData\Local\Temp\ccORgsmL.s 			page 6


 286              		@ frame_needed = 0, uses_anonymous_args = 0
 287 0000 00B5     		push	{lr}
 288              		.cfi_def_cfa_offset 4
 289              		.cfi_offset 14, -4
 290 0002 83B0     		sub	sp, sp, #12
 291              		.cfi_def_cfa_offset 16
 292              		.loc 3 358 0
 293 0004 114B     		ldr	r3, .L24
 294 0006 1B68     		ldr	r3, [r3]
 295 0008 0193     		str	r3, [sp, #4]
 296              		.loc 3 360 0
 297 000a FFF7FEFF 		bl	_dbg_check_unlock
 298              		.loc 3 361 0
 299 000e FFF7FEFF 		bl	_stats_stop_measure_crit_thd
 300              		.loc 3 367 0
 301 0012 0F4B     		ldr	r3, .L24+4
 302 0014 1B68     		ldr	r3, [r3]
 303 0016 0E4A     		ldr	r2, .L24+4
 304 0018 9342     		cmp	r3, r2
 305 001a 0AD0     		beq	.L22
 306              		.loc 3 367 0 is_stmt 0 discriminator 2
 307 001c 0C4B     		ldr	r3, .L24+4
 308 001e 9B69     		ldr	r3, [r3, #24]
 309 0020 9A68     		ldr	r2, [r3, #8]
 310 0022 0B4B     		ldr	r3, .L24+4
 311 0024 1B68     		ldr	r3, [r3]
 312 0026 9B68     		ldr	r3, [r3, #8]
 313 0028 9A42     		cmp	r2, r3
 314 002a 02D2     		bcs	.L22
 315              		.loc 3 367 0 discriminator 3
 316 002c 0948     		ldr	r0, .L24+8
 317 002e FFF7FEFF 		bl	chSysHalt
 318              	.L22:
 319              		.loc 3 371 0 is_stmt 1
 320 0032 FFF7FEFF 		bl	port_unlock
 321              		.loc 3 372 0
 322 0036 00BF     		nop
 323 0038 044B     		ldr	r3, .L24
 324 003a 019A     		ldr	r2, [sp, #4]
 325 003c 1B68     		ldr	r3, [r3]
 326 003e 9A42     		cmp	r2, r3
 327 0040 01D0     		beq	.L23
 328 0042 FFF7FEFF 		bl	__stack_chk_fail
 329              	.L23:
 330 0046 03B0     		add	sp, sp, #12
 331              		.cfi_def_cfa_offset 4
 332              		@ sp needed
 333 0048 5DF804FB 		ldr	pc, [sp], #4
 334              	.L25:
 335              		.align	2
 336              	.L24:
 337 004c 00000000 		.word	__stack_chk_guard
 338 0050 00000000 		.word	ch
 339 0054 00000000 		.word	__func__.7554
 340              		.cfi_endproc
 341              	.LFE146:
 342              		.size	chSysUnlock, .-chSysUnlock
ARM GAS  C:\Users\PCHAUT~1\AppData\Local\Temp\ccORgsmL.s 			page 7


 343              		.section	.text.chSysLockFromISR,"ax",%progbits
 344              		.align	1
 345              		.p2align 4,,15
 346              		.syntax unified
 347              		.thumb
 348              		.thumb_func
 349              		.fpu fpv4-sp-d16
 350              		.type	chSysLockFromISR, %function
 351              	chSysLockFromISR:
 352              	.LFB147:
 353              		.loc 3 386 0
 354              		.cfi_startproc
 355              		@ args = 0, pretend = 0, frame = 8
 356              		@ frame_needed = 0, uses_anonymous_args = 0
 357 0000 00B5     		push	{lr}
 358              		.cfi_def_cfa_offset 4
 359              		.cfi_offset 14, -4
 360 0002 83B0     		sub	sp, sp, #12
 361              		.cfi_def_cfa_offset 16
 362              		.loc 3 386 0
 363 0004 094B     		ldr	r3, .L28
 364 0006 1B68     		ldr	r3, [r3]
 365 0008 0193     		str	r3, [sp, #4]
 366              		.loc 3 388 0
 367 000a FFF7FEFF 		bl	port_lock_from_isr
 368              		.loc 3 389 0
 369 000e FFF7FEFF 		bl	_stats_start_measure_crit_isr
 370              		.loc 3 390 0
 371 0012 FFF7FEFF 		bl	_dbg_check_lock_from_isr
 372              		.loc 3 391 0
 373 0016 00BF     		nop
 374 0018 044B     		ldr	r3, .L28
 375 001a 019A     		ldr	r2, [sp, #4]
 376 001c 1B68     		ldr	r3, [r3]
 377 001e 9A42     		cmp	r2, r3
 378 0020 01D0     		beq	.L27
 379 0022 FFF7FEFF 		bl	__stack_chk_fail
 380              	.L27:
 381 0026 03B0     		add	sp, sp, #12
 382              		.cfi_def_cfa_offset 4
 383              		@ sp needed
 384 0028 5DF804FB 		ldr	pc, [sp], #4
 385              	.L29:
 386              		.align	2
 387              	.L28:
 388 002c 00000000 		.word	__stack_chk_guard
 389              		.cfi_endproc
 390              	.LFE147:
 391              		.size	chSysLockFromISR, .-chSysLockFromISR
 392              		.section	.text.chSysUnlockFromISR,"ax",%progbits
 393              		.align	1
 394              		.p2align 4,,15
 395              		.syntax unified
 396              		.thumb
 397              		.thumb_func
 398              		.fpu fpv4-sp-d16
 399              		.type	chSysUnlockFromISR, %function
ARM GAS  C:\Users\PCHAUT~1\AppData\Local\Temp\ccORgsmL.s 			page 8


 400              	chSysUnlockFromISR:
 401              	.LFB148:
 402              		.loc 3 406 0
 403              		.cfi_startproc
 404              		@ args = 0, pretend = 0, frame = 8
 405              		@ frame_needed = 0, uses_anonymous_args = 0
 406 0000 00B5     		push	{lr}
 407              		.cfi_def_cfa_offset 4
 408              		.cfi_offset 14, -4
 409 0002 83B0     		sub	sp, sp, #12
 410              		.cfi_def_cfa_offset 16
 411              		.loc 3 406 0
 412 0004 094B     		ldr	r3, .L32
 413 0006 1B68     		ldr	r3, [r3]
 414 0008 0193     		str	r3, [sp, #4]
 415              		.loc 3 408 0
 416 000a FFF7FEFF 		bl	_dbg_check_unlock_from_isr
 417              		.loc 3 409 0
 418 000e FFF7FEFF 		bl	_stats_stop_measure_crit_isr
 419              		.loc 3 410 0
 420 0012 FFF7FEFF 		bl	port_unlock_from_isr
 421              		.loc 3 411 0
 422 0016 00BF     		nop
 423 0018 044B     		ldr	r3, .L32
 424 001a 019A     		ldr	r2, [sp, #4]
 425 001c 1B68     		ldr	r3, [r3]
 426 001e 9A42     		cmp	r2, r3
 427 0020 01D0     		beq	.L31
 428 0022 FFF7FEFF 		bl	__stack_chk_fail
 429              	.L31:
 430 0026 03B0     		add	sp, sp, #12
 431              		.cfi_def_cfa_offset 4
 432              		@ sp needed
 433 0028 5DF804FB 		ldr	pc, [sp], #4
 434              	.L33:
 435              		.align	2
 436              	.L32:
 437 002c 00000000 		.word	__stack_chk_guard
 438              		.cfi_endproc
 439              	.LFE148:
 440              		.size	chSysUnlockFromISR, .-chSysUnlockFromISR
 441              		.section	.text.osalSysLock,"ax",%progbits
 442              		.align	1
 443              		.p2align 4,,15
 444              		.syntax unified
 445              		.thumb
 446              		.thumb_func
 447              		.fpu fpv4-sp-d16
 448              		.type	osalSysLock, %function
 449              	osalSysLock:
 450              	.LFB223:
 451              		.file 4 "../lib/e-puck2_main-processor/ChibiOS//os/hal/osal/rt/osal.h"
 452              		.loc 4 445 0
 453              		.cfi_startproc
 454              		@ args = 0, pretend = 0, frame = 8
 455              		@ frame_needed = 0, uses_anonymous_args = 0
 456 0000 00B5     		push	{lr}
ARM GAS  C:\Users\PCHAUT~1\AppData\Local\Temp\ccORgsmL.s 			page 9


 457              		.cfi_def_cfa_offset 4
 458              		.cfi_offset 14, -4
 459 0002 83B0     		sub	sp, sp, #12
 460              		.cfi_def_cfa_offset 16
 461              		.loc 4 445 0
 462 0004 074B     		ldr	r3, .L36
 463 0006 1B68     		ldr	r3, [r3]
 464 0008 0193     		str	r3, [sp, #4]
 465              		.loc 4 447 0
 466 000a FFF7FEFF 		bl	chSysLock
 467              		.loc 4 448 0
 468 000e 00BF     		nop
 469 0010 044B     		ldr	r3, .L36
 470 0012 019A     		ldr	r2, [sp, #4]
 471 0014 1B68     		ldr	r3, [r3]
 472 0016 9A42     		cmp	r2, r3
 473 0018 01D0     		beq	.L35
 474 001a FFF7FEFF 		bl	__stack_chk_fail
 475              	.L35:
 476 001e 03B0     		add	sp, sp, #12
 477              		.cfi_def_cfa_offset 4
 478              		@ sp needed
 479 0020 5DF804FB 		ldr	pc, [sp], #4
 480              	.L37:
 481              		.align	2
 482              	.L36:
 483 0024 00000000 		.word	__stack_chk_guard
 484              		.cfi_endproc
 485              	.LFE223:
 486              		.size	osalSysLock, .-osalSysLock
 487              		.section	.text.osalSysUnlock,"ax",%progbits
 488              		.align	1
 489              		.p2align 4,,15
 490              		.syntax unified
 491              		.thumb
 492              		.thumb_func
 493              		.fpu fpv4-sp-d16
 494              		.type	osalSysUnlock, %function
 495              	osalSysUnlock:
 496              	.LFB224:
 497              		.loc 4 456 0
 498              		.cfi_startproc
 499              		@ args = 0, pretend = 0, frame = 8
 500              		@ frame_needed = 0, uses_anonymous_args = 0
 501 0000 00B5     		push	{lr}
 502              		.cfi_def_cfa_offset 4
 503              		.cfi_offset 14, -4
 504 0002 83B0     		sub	sp, sp, #12
 505              		.cfi_def_cfa_offset 16
 506              		.loc 4 456 0
 507 0004 074B     		ldr	r3, .L40
 508 0006 1B68     		ldr	r3, [r3]
 509 0008 0193     		str	r3, [sp, #4]
 510              		.loc 4 458 0
 511 000a FFF7FEFF 		bl	chSysUnlock
 512              		.loc 4 459 0
 513 000e 00BF     		nop
ARM GAS  C:\Users\PCHAUT~1\AppData\Local\Temp\ccORgsmL.s 			page 10


 514 0010 044B     		ldr	r3, .L40
 515 0012 019A     		ldr	r2, [sp, #4]
 516 0014 1B68     		ldr	r3, [r3]
 517 0016 9A42     		cmp	r2, r3
 518 0018 01D0     		beq	.L39
 519 001a FFF7FEFF 		bl	__stack_chk_fail
 520              	.L39:
 521 001e 03B0     		add	sp, sp, #12
 522              		.cfi_def_cfa_offset 4
 523              		@ sp needed
 524 0020 5DF804FB 		ldr	pc, [sp], #4
 525              	.L41:
 526              		.align	2
 527              	.L40:
 528 0024 00000000 		.word	__stack_chk_guard
 529              		.cfi_endproc
 530              	.LFE224:
 531              		.size	osalSysUnlock, .-osalSysUnlock
 532              		.section	.text.osalSysLockFromISR,"ax",%progbits
 533              		.align	1
 534              		.p2align 4,,15
 535              		.syntax unified
 536              		.thumb
 537              		.thumb_func
 538              		.fpu fpv4-sp-d16
 539              		.type	osalSysLockFromISR, %function
 540              	osalSysLockFromISR:
 541              	.LFB225:
 542              		.loc 4 467 0
 543              		.cfi_startproc
 544              		@ args = 0, pretend = 0, frame = 8
 545              		@ frame_needed = 0, uses_anonymous_args = 0
 546 0000 00B5     		push	{lr}
 547              		.cfi_def_cfa_offset 4
 548              		.cfi_offset 14, -4
 549 0002 83B0     		sub	sp, sp, #12
 550              		.cfi_def_cfa_offset 16
 551              		.loc 4 467 0
 552 0004 074B     		ldr	r3, .L44
 553 0006 1B68     		ldr	r3, [r3]
 554 0008 0193     		str	r3, [sp, #4]
 555              		.loc 4 469 0
 556 000a FFF7FEFF 		bl	chSysLockFromISR
 557              		.loc 4 470 0
 558 000e 00BF     		nop
 559 0010 044B     		ldr	r3, .L44
 560 0012 019A     		ldr	r2, [sp, #4]
 561 0014 1B68     		ldr	r3, [r3]
 562 0016 9A42     		cmp	r2, r3
 563 0018 01D0     		beq	.L43
 564 001a FFF7FEFF 		bl	__stack_chk_fail
 565              	.L43:
 566 001e 03B0     		add	sp, sp, #12
 567              		.cfi_def_cfa_offset 4
 568              		@ sp needed
 569 0020 5DF804FB 		ldr	pc, [sp], #4
 570              	.L45:
ARM GAS  C:\Users\PCHAUT~1\AppData\Local\Temp\ccORgsmL.s 			page 11


 571              		.align	2
 572              	.L44:
 573 0024 00000000 		.word	__stack_chk_guard
 574              		.cfi_endproc
 575              	.LFE225:
 576              		.size	osalSysLockFromISR, .-osalSysLockFromISR
 577              		.section	.text.osalSysUnlockFromISR,"ax",%progbits
 578              		.align	1
 579              		.p2align 4,,15
 580              		.syntax unified
 581              		.thumb
 582              		.thumb_func
 583              		.fpu fpv4-sp-d16
 584              		.type	osalSysUnlockFromISR, %function
 585              	osalSysUnlockFromISR:
 586              	.LFB226:
 587              		.loc 4 478 0
 588              		.cfi_startproc
 589              		@ args = 0, pretend = 0, frame = 8
 590              		@ frame_needed = 0, uses_anonymous_args = 0
 591 0000 00B5     		push	{lr}
 592              		.cfi_def_cfa_offset 4
 593              		.cfi_offset 14, -4
 594 0002 83B0     		sub	sp, sp, #12
 595              		.cfi_def_cfa_offset 16
 596              		.loc 4 478 0
 597 0004 074B     		ldr	r3, .L48
 598 0006 1B68     		ldr	r3, [r3]
 599 0008 0193     		str	r3, [sp, #4]
 600              		.loc 4 480 0
 601 000a FFF7FEFF 		bl	chSysUnlockFromISR
 602              		.loc 4 481 0
 603 000e 00BF     		nop
 604 0010 044B     		ldr	r3, .L48
 605 0012 019A     		ldr	r2, [sp, #4]
 606 0014 1B68     		ldr	r3, [r3]
 607 0016 9A42     		cmp	r2, r3
 608 0018 01D0     		beq	.L47
 609 001a FFF7FEFF 		bl	__stack_chk_fail
 610              	.L47:
 611 001e 03B0     		add	sp, sp, #12
 612              		.cfi_def_cfa_offset 4
 613              		@ sp needed
 614 0020 5DF804FB 		ldr	pc, [sp], #4
 615              	.L49:
 616              		.align	2
 617              	.L48:
 618 0024 00000000 		.word	__stack_chk_guard
 619              		.cfi_endproc
 620              	.LFE226:
 621              		.size	osalSysUnlockFromISR, .-osalSysUnlockFromISR
 622              		.section	.text.osalThreadSleep,"ax",%progbits
 623              		.align	1
 624              		.p2align 4,,15
 625              		.syntax unified
 626              		.thumb
 627              		.thumb_func
ARM GAS  C:\Users\PCHAUT~1\AppData\Local\Temp\ccORgsmL.s 			page 12


 628              		.fpu fpv4-sp-d16
 629              		.type	osalThreadSleep, %function
 630              	osalThreadSleep:
 631              	.LFB235:
 632              		.loc 4 625 0
 633              		.cfi_startproc
 634              		@ args = 0, pretend = 0, frame = 16
 635              		@ frame_needed = 0, uses_anonymous_args = 0
 636 0000 00B5     		push	{lr}
 637              		.cfi_def_cfa_offset 4
 638              		.cfi_offset 14, -4
 639 0002 85B0     		sub	sp, sp, #20
 640              		.cfi_def_cfa_offset 24
 641 0004 0190     		str	r0, [sp, #4]
 642              		.loc 4 625 0
 643 0006 084B     		ldr	r3, .L52
 644 0008 1B68     		ldr	r3, [r3]
 645 000a 0393     		str	r3, [sp, #12]
 646              		.loc 4 627 0
 647 000c 0198     		ldr	r0, [sp, #4]
 648 000e FFF7FEFF 		bl	chThdSleep
 649              		.loc 4 628 0
 650 0012 00BF     		nop
 651 0014 044B     		ldr	r3, .L52
 652 0016 039A     		ldr	r2, [sp, #12]
 653 0018 1B68     		ldr	r3, [r3]
 654 001a 9A42     		cmp	r2, r3
 655 001c 01D0     		beq	.L51
 656 001e FFF7FEFF 		bl	__stack_chk_fail
 657              	.L51:
 658 0022 05B0     		add	sp, sp, #20
 659              		.cfi_def_cfa_offset 4
 660              		@ sp needed
 661 0024 5DF804FB 		ldr	pc, [sp], #4
 662              	.L53:
 663              		.align	2
 664              	.L52:
 665 0028 00000000 		.word	__stack_chk_guard
 666              		.cfi_endproc
 667              	.LFE235:
 668              		.size	osalThreadSleep, .-osalThreadSleep
 669              		.section	.text.osalThreadSuspendS,"ax",%progbits
 670              		.align	1
 671              		.p2align 4,,15
 672              		.syntax unified
 673              		.thumb
 674              		.thumb_func
 675              		.fpu fpv4-sp-d16
 676              		.type	osalThreadSuspendS, %function
 677              	osalThreadSuspendS:
 678              	.LFB236:
 679              		.loc 4 640 0
 680              		.cfi_startproc
 681              		@ args = 0, pretend = 0, frame = 16
 682              		@ frame_needed = 0, uses_anonymous_args = 0
 683 0000 00B5     		push	{lr}
 684              		.cfi_def_cfa_offset 4
ARM GAS  C:\Users\PCHAUT~1\AppData\Local\Temp\ccORgsmL.s 			page 13


 685              		.cfi_offset 14, -4
 686 0002 85B0     		sub	sp, sp, #20
 687              		.cfi_def_cfa_offset 24
 688 0004 0190     		str	r0, [sp, #4]
 689              		.loc 4 640 0
 690 0006 094B     		ldr	r3, .L57
 691 0008 1B68     		ldr	r3, [r3]
 692 000a 0393     		str	r3, [sp, #12]
 693              		.loc 4 642 0
 694 000c 0198     		ldr	r0, [sp, #4]
 695 000e FFF7FEFF 		bl	chThdSuspendS
 696 0012 0346     		mov	r3, r0
 697              		.loc 4 643 0
 698 0014 1846     		mov	r0, r3
 699 0016 054B     		ldr	r3, .L57
 700 0018 039A     		ldr	r2, [sp, #12]
 701 001a 1B68     		ldr	r3, [r3]
 702 001c 9A42     		cmp	r2, r3
 703 001e 01D0     		beq	.L56
 704 0020 FFF7FEFF 		bl	__stack_chk_fail
 705              	.L56:
 706 0024 05B0     		add	sp, sp, #20
 707              		.cfi_def_cfa_offset 4
 708              		@ sp needed
 709 0026 5DF804FB 		ldr	pc, [sp], #4
 710              	.L58:
 711 002a 00BF     		.align	2
 712              	.L57:
 713 002c 00000000 		.word	__stack_chk_guard
 714              		.cfi_endproc
 715              	.LFE236:
 716              		.size	osalThreadSuspendS, .-osalThreadSuspendS
 717              		.section	.text.osalThreadResumeI,"ax",%progbits
 718              		.align	1
 719              		.p2align 4,,15
 720              		.syntax unified
 721              		.thumb
 722              		.thumb_func
 723              		.fpu fpv4-sp-d16
 724              		.type	osalThreadResumeI, %function
 725              	osalThreadResumeI:
 726              	.LFB238:
 727              		.loc 4 680 0
 728              		.cfi_startproc
 729              		@ args = 0, pretend = 0, frame = 16
 730              		@ frame_needed = 0, uses_anonymous_args = 0
 731 0000 00B5     		push	{lr}
 732              		.cfi_def_cfa_offset 4
 733              		.cfi_offset 14, -4
 734 0002 85B0     		sub	sp, sp, #20
 735              		.cfi_def_cfa_offset 24
 736 0004 0190     		str	r0, [sp, #4]
 737 0006 0091     		str	r1, [sp]
 738              		.loc 4 680 0
 739 0008 084B     		ldr	r3, .L61
 740 000a 1B68     		ldr	r3, [r3]
 741 000c 0393     		str	r3, [sp, #12]
ARM GAS  C:\Users\PCHAUT~1\AppData\Local\Temp\ccORgsmL.s 			page 14


 742              		.loc 4 682 0
 743 000e 0099     		ldr	r1, [sp]
 744 0010 0198     		ldr	r0, [sp, #4]
 745 0012 FFF7FEFF 		bl	chThdResumeI
 746              		.loc 4 683 0
 747 0016 00BF     		nop
 748 0018 044B     		ldr	r3, .L61
 749 001a 039A     		ldr	r2, [sp, #12]
 750 001c 1B68     		ldr	r3, [r3]
 751 001e 9A42     		cmp	r2, r3
 752 0020 01D0     		beq	.L60
 753 0022 FFF7FEFF 		bl	__stack_chk_fail
 754              	.L60:
 755 0026 05B0     		add	sp, sp, #20
 756              		.cfi_def_cfa_offset 4
 757              		@ sp needed
 758 0028 5DF804FB 		ldr	pc, [sp], #4
 759              	.L62:
 760              		.align	2
 761              	.L61:
 762 002c 00000000 		.word	__stack_chk_guard
 763              		.cfi_endproc
 764              	.LFE238:
 765              		.size	osalThreadResumeI, .-osalThreadResumeI
 766              		.global	SDCD1
 767              		.section	.bss.SDCD1,"aw",%nobits
 768              		.align	2
 769              		.type	SDCD1, %object
 770              		.size	SDCD1, 76
 771              	SDCD1:
 772 0000 00000000 		.space	76
 772      00000000 
 772      00000000 
 772      00000000 
 772      00000000 
 773              		.section	.bss.u,"aw",%nobits
 774              		.align	2
 775              		.type	u, %object
 776              		.size	u, 512
 777              	u:
 778 0000 00000000 		.space	512
 778      00000000 
 778      00000000 
 778      00000000 
 778      00000000 
 779              		.section	.rodata.sdc_default_cfg,"a",%progbits
 780              		.align	2
 781              		.type	sdc_default_cfg, %object
 782              		.size	sdc_default_cfg, 8
 783              	sdc_default_cfg:
 784 0000 00000000 		.word	0
 785 0004 01       		.byte	1
 786 0005 000000   		.space	3
 787              		.section	.text.sdc_lld_prepare_read_bytes,"ax",%progbits
 788              		.align	1
 789              		.p2align 4,,15
 790              		.syntax unified
ARM GAS  C:\Users\PCHAUT~1\AppData\Local\Temp\ccORgsmL.s 			page 15


 791              		.thumb
 792              		.thumb_func
 793              		.fpu fpv4-sp-d16
 794              		.type	sdc_lld_prepare_read_bytes, %function
 795              	sdc_lld_prepare_read_bytes:
 796              	.LFB256:
 797              		.file 5 "../lib/e-puck2_main-processor/ChibiOS//os/hal/ports/STM32/LLD/sdc_lld.c"
 798              		.loc 5 88 0
 799              		.cfi_startproc
 800              		@ args = 0, pretend = 0, frame = 24
 801              		@ frame_needed = 0, uses_anonymous_args = 0
 802 0000 00B5     		push	{lr}
 803              		.cfi_def_cfa_offset 4
 804              		.cfi_offset 14, -4
 805 0002 87B0     		sub	sp, sp, #28
 806              		.cfi_def_cfa_offset 32
 807 0004 0390     		str	r0, [sp, #12]
 808 0006 0291     		str	r1, [sp, #8]
 809 0008 0192     		str	r2, [sp, #4]
 810              		.loc 5 88 0
 811 000a 274B     		ldr	r3, .L68
 812 000c 1B68     		ldr	r3, [r3]
 813 000e 0593     		str	r3, [sp, #20]
 814              		.loc 5 89 0
 815 0010 019B     		ldr	r3, [sp, #4]
 816 0012 B3F1807F 		cmp	r3, #16777216
 817 0016 02D3     		bcc	.L64
 818              		.loc 5 89 0 is_stmt 0 discriminator 2
 819 0018 2448     		ldr	r0, .L68+4
 820 001a FFF7FEFF 		bl	chSysHalt
 821              	.L64:
 822              		.loc 5 91 0 is_stmt 1
 823 001e 039B     		ldr	r3, [sp, #12]
 824 0020 9B6C     		ldr	r3, [r3, #72]
 825 0022 234A     		ldr	r2, .L68+8
 826 0024 5A62     		str	r2, [r3, #36]
 827              		.loc 5 94 0
 828 0026 0398     		ldr	r0, [sp, #12]
 829 0028 FFF7FEFF 		bl	_sdc_wait_for_transfer_state
 830 002c 0346     		mov	r3, r0
 831 002e 002B     		cmp	r3, #0
 832 0030 01D0     		beq	.L65
 833              		.loc 5 95 0
 834 0032 0123     		movs	r3, #1
 835 0034 2CE0     		b	.L66
 836              	.L65:
 837              		.loc 5 98 0
 838 0036 039B     		ldr	r3, [sp, #12]
 839 0038 5B6C     		ldr	r3, [r3, #68]
 840 003a 1B68     		ldr	r3, [r3]
 841 003c 029A     		ldr	r2, [sp, #8]
 842 003e DA60     		str	r2, [r3, #12]
 843              		.loc 5 99 0
 844 0040 039B     		ldr	r3, [sp, #12]
 845 0042 5B6C     		ldr	r3, [r3, #68]
 846 0044 1B68     		ldr	r3, [r3]
 847 0046 019A     		ldr	r2, [sp, #4]
ARM GAS  C:\Users\PCHAUT~1\AppData\Local\Temp\ccORgsmL.s 			page 16


 848 0048 9208     		lsrs	r2, r2, #2
 849 004a 5A60     		str	r2, [r3, #4]
 850              		.loc 5 100 0
 851 004c 039B     		ldr	r3, [sp, #12]
 852 004e 5B6C     		ldr	r3, [r3, #68]
 853 0050 1B68     		ldr	r3, [r3]
 854 0052 039A     		ldr	r2, [sp, #12]
 855 0054 126C     		ldr	r2, [r2, #64]
 856 0056 1A60     		str	r2, [r3]
 857              		.loc 5 101 0
 858 0058 039B     		ldr	r3, [sp, #12]
 859 005a 5B6C     		ldr	r3, [r3, #68]
 860 005c 1B68     		ldr	r3, [r3]
 861 005e 1A68     		ldr	r2, [r3]
 862 0060 039B     		ldr	r3, [sp, #12]
 863 0062 5B6C     		ldr	r3, [r3, #68]
 864 0064 1B68     		ldr	r3, [r3]
 865 0066 42F00102 		orr	r2, r2, #1
 866 006a 1A60     		str	r2, [r3]
 867              		.loc 5 104 0
 868 006c 039B     		ldr	r3, [sp, #12]
 869 006e 9B6C     		ldr	r3, [r3, #72]
 870 0070 104A     		ldr	r2, .L68+12
 871 0072 9A63     		str	r2, [r3, #56]
 872              		.loc 5 105 0
 873 0074 039B     		ldr	r3, [sp, #12]
 874 0076 9B6C     		ldr	r3, [r3, #72]
 875 0078 40F22A32 		movw	r2, #810
 876 007c DA63     		str	r2, [r3, #60]
 877              		.loc 5 110 0
 878 007e 039B     		ldr	r3, [sp, #12]
 879 0080 9B6C     		ldr	r3, [r3, #72]
 880 0082 019A     		ldr	r2, [sp, #4]
 881 0084 9A62     		str	r2, [r3, #40]
 882              		.loc 5 113 0
 883 0086 039B     		ldr	r3, [sp, #12]
 884 0088 9B6C     		ldr	r3, [r3, #72]
 885 008a 0F22     		movs	r2, #15
 886 008c DA62     		str	r2, [r3, #44]
 887              		.loc 5 118 0
 888 008e 0023     		movs	r3, #0
 889              	.L66:
 890              		.loc 5 119 0
 891 0090 1846     		mov	r0, r3
 892 0092 054B     		ldr	r3, .L68
 893 0094 059A     		ldr	r2, [sp, #20]
 894 0096 1B68     		ldr	r3, [r3]
 895 0098 9A42     		cmp	r2, r3
 896 009a 01D0     		beq	.L67
 897 009c FFF7FEFF 		bl	__stack_chk_fail
 898              	.L67:
 899 00a0 07B0     		add	sp, sp, #28
 900              		.cfi_def_cfa_offset 4
 901              		@ sp needed
 902 00a2 5DF804FB 		ldr	pc, [sp], #4
 903              	.L69:
 904 00a6 00BF     		.align	2
ARM GAS  C:\Users\PCHAUT~1\AppData\Local\Temp\ccORgsmL.s 			page 17


 905              	.L68:
 906 00a8 00000000 		.word	__stack_chk_guard
 907 00ac 00000000 		.word	__func__.10250
 908 00b0 C0270900 		.word	600000
 909 00b4 FF07C000 		.word	12584959
 910              		.cfi_endproc
 911              	.LFE256:
 912              		.size	sdc_lld_prepare_read_bytes, .-sdc_lld_prepare_read_bytes
 913              		.section	.text.sdc_lld_prepare_read,"ax",%progbits
 914              		.align	1
 915              		.p2align 4,,15
 916              		.syntax unified
 917              		.thumb
 918              		.thumb_func
 919              		.fpu fpv4-sp-d16
 920              		.type	sdc_lld_prepare_read, %function
 921              	sdc_lld_prepare_read:
 922              	.LFB257:
 923              		.loc 5 136 0
 924              		.cfi_startproc
 925              		@ args = 0, pretend = 0, frame = 24
 926              		@ frame_needed = 0, uses_anonymous_args = 0
 927 0000 00B5     		push	{lr}
 928              		.cfi_def_cfa_offset 4
 929              		.cfi_offset 14, -4
 930 0002 87B0     		sub	sp, sp, #28
 931              		.cfi_def_cfa_offset 32
 932 0004 0390     		str	r0, [sp, #12]
 933 0006 0291     		str	r1, [sp, #8]
 934 0008 0192     		str	r2, [sp, #4]
 935 000a 0093     		str	r3, [sp]
 936              		.loc 5 136 0
 937 000c 1E4B     		ldr	r3, .L78
 938 000e 1B68     		ldr	r3, [r3]
 939 0010 0593     		str	r3, [sp, #20]
 940              		.loc 5 140 0
 941 0012 039B     		ldr	r3, [sp, #12]
 942 0014 1B6B     		ldr	r3, [r3, #48]
 943 0016 03F01003 		and	r3, r3, #16
 944 001a 002B     		cmp	r3, #0
 945 001c 02D1     		bne	.L71
 946              		.loc 5 141 0
 947 001e 029B     		ldr	r3, [sp, #8]
 948 0020 5B02     		lsls	r3, r3, #9
 949 0022 0293     		str	r3, [sp, #8]
 950              	.L71:
 951              		.loc 5 143 0
 952 0024 019B     		ldr	r3, [sp, #4]
 953 0026 012B     		cmp	r3, #1
 954 0028 10D9     		bls	.L72
 955              		.loc 5 145 0
 956 002a 009B     		ldr	r3, [sp]
 957 002c 029A     		ldr	r2, [sp, #8]
 958 002e 1221     		movs	r1, #18
 959 0030 0398     		ldr	r0, [sp, #12]
 960 0032 FFF7FEFF 		bl	sdc_lld_send_cmd_short_crc
 961 0036 0346     		mov	r3, r0
ARM GAS  C:\Users\PCHAUT~1\AppData\Local\Temp\ccORgsmL.s 			page 18


 962 0038 002B     		cmp	r3, #0
 963 003a 05D1     		bne	.L73
 964              		.loc 5 146 0
 965 003c 009B     		ldr	r3, [sp]
 966 003e 1A68     		ldr	r2, [r3]
 967 0040 124B     		ldr	r3, .L78+4
 968 0042 1340     		ands	r3, r3, r2
 969 0044 002B     		cmp	r3, #0
 970 0046 12D0     		beq	.L74
 971              	.L73:
 972              		.loc 5 147 0
 973 0048 0123     		movs	r3, #1
 974 004a 11E0     		b	.L75
 975              	.L72:
 976              		.loc 5 151 0
 977 004c 009B     		ldr	r3, [sp]
 978 004e 029A     		ldr	r2, [sp, #8]
 979 0050 1121     		movs	r1, #17
 980 0052 0398     		ldr	r0, [sp, #12]
 981 0054 FFF7FEFF 		bl	sdc_lld_send_cmd_short_crc
 982 0058 0346     		mov	r3, r0
 983 005a 002B     		cmp	r3, #0
 984 005c 05D1     		bne	.L76
 985              		.loc 5 152 0
 986 005e 009B     		ldr	r3, [sp]
 987 0060 1A68     		ldr	r2, [r3]
 988 0062 0A4B     		ldr	r3, .L78+4
 989 0064 1340     		ands	r3, r3, r2
 990 0066 002B     		cmp	r3, #0
 991 0068 01D0     		beq	.L74
 992              	.L76:
 993              		.loc 5 153 0
 994 006a 0123     		movs	r3, #1
 995 006c 00E0     		b	.L75
 996              	.L74:
 997              		.loc 5 156 0
 998 006e 0023     		movs	r3, #0
 999              	.L75:
 1000              		.loc 5 157 0
 1001 0070 1846     		mov	r0, r3
 1002 0072 054B     		ldr	r3, .L78
 1003 0074 059A     		ldr	r2, [sp, #20]
 1004 0076 1B68     		ldr	r3, [r3]
 1005 0078 9A42     		cmp	r2, r3
 1006 007a 01D0     		beq	.L77
 1007 007c FFF7FEFF 		bl	__stack_chk_fail
 1008              	.L77:
 1009 0080 07B0     		add	sp, sp, #28
 1010              		.cfi_def_cfa_offset 4
 1011              		@ sp needed
 1012 0082 5DF804FB 		ldr	pc, [sp], #4
 1013              	.L79:
 1014 0086 00BF     		.align	2
 1015              	.L78:
 1016 0088 00000000 		.word	__stack_chk_guard
 1017 008c 08E0FFFD 		.word	-33562616
 1018              		.cfi_endproc
ARM GAS  C:\Users\PCHAUT~1\AppData\Local\Temp\ccORgsmL.s 			page 19


 1019              	.LFE257:
 1020              		.size	sdc_lld_prepare_read, .-sdc_lld_prepare_read
 1021              		.section	.text.sdc_lld_prepare_write,"ax",%progbits
 1022              		.align	1
 1023              		.p2align 4,,15
 1024              		.syntax unified
 1025              		.thumb
 1026              		.thumb_func
 1027              		.fpu fpv4-sp-d16
 1028              		.type	sdc_lld_prepare_write, %function
 1029              	sdc_lld_prepare_write:
 1030              	.LFB258:
 1031              		.loc 5 174 0
 1032              		.cfi_startproc
 1033              		@ args = 0, pretend = 0, frame = 24
 1034              		@ frame_needed = 0, uses_anonymous_args = 0
 1035 0000 00B5     		push	{lr}
 1036              		.cfi_def_cfa_offset 4
 1037              		.cfi_offset 14, -4
 1038 0002 87B0     		sub	sp, sp, #28
 1039              		.cfi_def_cfa_offset 32
 1040 0004 0390     		str	r0, [sp, #12]
 1041 0006 0291     		str	r1, [sp, #8]
 1042 0008 0192     		str	r2, [sp, #4]
 1043 000a 0093     		str	r3, [sp]
 1044              		.loc 5 174 0
 1045 000c 1E4B     		ldr	r3, .L88
 1046 000e 1B68     		ldr	r3, [r3]
 1047 0010 0593     		str	r3, [sp, #20]
 1048              		.loc 5 178 0
 1049 0012 039B     		ldr	r3, [sp, #12]
 1050 0014 1B6B     		ldr	r3, [r3, #48]
 1051 0016 03F01003 		and	r3, r3, #16
 1052 001a 002B     		cmp	r3, #0
 1053 001c 02D1     		bne	.L81
 1054              		.loc 5 179 0
 1055 001e 029B     		ldr	r3, [sp, #8]
 1056 0020 5B02     		lsls	r3, r3, #9
 1057 0022 0293     		str	r3, [sp, #8]
 1058              	.L81:
 1059              		.loc 5 181 0
 1060 0024 019B     		ldr	r3, [sp, #4]
 1061 0026 012B     		cmp	r3, #1
 1062 0028 10D9     		bls	.L82
 1063              		.loc 5 183 0
 1064 002a 009B     		ldr	r3, [sp]
 1065 002c 029A     		ldr	r2, [sp, #8]
 1066 002e 1921     		movs	r1, #25
 1067 0030 0398     		ldr	r0, [sp, #12]
 1068 0032 FFF7FEFF 		bl	sdc_lld_send_cmd_short_crc
 1069 0036 0346     		mov	r3, r0
 1070 0038 002B     		cmp	r3, #0
 1071 003a 05D1     		bne	.L83
 1072              		.loc 5 184 0
 1073 003c 009B     		ldr	r3, [sp]
 1074 003e 1A68     		ldr	r2, [r3]
 1075 0040 124B     		ldr	r3, .L88+4
ARM GAS  C:\Users\PCHAUT~1\AppData\Local\Temp\ccORgsmL.s 			page 20


 1076 0042 1340     		ands	r3, r3, r2
 1077 0044 002B     		cmp	r3, #0
 1078 0046 12D0     		beq	.L84
 1079              	.L83:
 1080              		.loc 5 185 0
 1081 0048 0123     		movs	r3, #1
 1082 004a 11E0     		b	.L85
 1083              	.L82:
 1084              		.loc 5 189 0
 1085 004c 009B     		ldr	r3, [sp]
 1086 004e 029A     		ldr	r2, [sp, #8]
 1087 0050 1821     		movs	r1, #24
 1088 0052 0398     		ldr	r0, [sp, #12]
 1089 0054 FFF7FEFF 		bl	sdc_lld_send_cmd_short_crc
 1090 0058 0346     		mov	r3, r0
 1091 005a 002B     		cmp	r3, #0
 1092 005c 05D1     		bne	.L86
 1093              		.loc 5 190 0
 1094 005e 009B     		ldr	r3, [sp]
 1095 0060 1A68     		ldr	r2, [r3]
 1096 0062 0A4B     		ldr	r3, .L88+4
 1097 0064 1340     		ands	r3, r3, r2
 1098 0066 002B     		cmp	r3, #0
 1099 0068 01D0     		beq	.L84
 1100              	.L86:
 1101              		.loc 5 191 0
 1102 006a 0123     		movs	r3, #1
 1103 006c 00E0     		b	.L85
 1104              	.L84:
 1105              		.loc 5 194 0
 1106 006e 0023     		movs	r3, #0
 1107              	.L85:
 1108              		.loc 5 195 0
 1109 0070 1846     		mov	r0, r3
 1110 0072 054B     		ldr	r3, .L88
 1111 0074 059A     		ldr	r2, [sp, #20]
 1112 0076 1B68     		ldr	r3, [r3]
 1113 0078 9A42     		cmp	r2, r3
 1114 007a 01D0     		beq	.L87
 1115 007c FFF7FEFF 		bl	__stack_chk_fail
 1116              	.L87:
 1117 0080 07B0     		add	sp, sp, #28
 1118              		.cfi_def_cfa_offset 4
 1119              		@ sp needed
 1120 0082 5DF804FB 		ldr	pc, [sp], #4
 1121              	.L89:
 1122 0086 00BF     		.align	2
 1123              	.L88:
 1124 0088 00000000 		.word	__stack_chk_guard
 1125 008c 08E0FFFD 		.word	-33562616
 1126              		.cfi_endproc
 1127              	.LFE258:
 1128              		.size	sdc_lld_prepare_write, .-sdc_lld_prepare_write
 1129              		.section	.text.sdc_lld_wait_transaction_end,"ax",%progbits
 1130              		.align	1
 1131              		.p2align 4,,15
 1132              		.syntax unified
ARM GAS  C:\Users\PCHAUT~1\AppData\Local\Temp\ccORgsmL.s 			page 21


 1133              		.thumb
 1134              		.thumb_func
 1135              		.fpu fpv4-sp-d16
 1136              		.type	sdc_lld_wait_transaction_end, %function
 1137              	sdc_lld_wait_transaction_end:
 1138              	.LFB259:
 1139              		.loc 5 209 0
 1140              		.cfi_startproc
 1141              		@ args = 0, pretend = 0, frame = 24
 1142              		@ frame_needed = 0, uses_anonymous_args = 0
 1143 0000 00B5     		push	{lr}
 1144              		.cfi_def_cfa_offset 4
 1145              		.cfi_offset 14, -4
 1146 0002 87B0     		sub	sp, sp, #28
 1147              		.cfi_def_cfa_offset 32
 1148 0004 0390     		str	r0, [sp, #12]
 1149 0006 0291     		str	r1, [sp, #8]
 1150 0008 0192     		str	r2, [sp, #4]
 1151              		.loc 5 209 0
 1152 000a 274B     		ldr	r3, .L98
 1153 000c 1B68     		ldr	r3, [r3]
 1154 000e 0593     		str	r3, [sp, #20]
 1155              		.loc 5 213 0
 1156 0010 FFF7FEFF 		bl	osalSysLock
 1157              		.loc 5 214 0
 1158 0014 039B     		ldr	r3, [sp, #12]
 1159 0016 9B6C     		ldr	r3, [r3, #72]
 1160 0018 DB6B     		ldr	r3, [r3, #60]
 1161 001a 002B     		cmp	r3, #0
 1162 001c 04D0     		beq	.L91
 1163              		.loc 5 215 0
 1164 001e 039B     		ldr	r3, [sp, #12]
 1165 0020 3C33     		adds	r3, r3, #60
 1166 0022 1846     		mov	r0, r3
 1167 0024 FFF7FEFF 		bl	osalThreadSuspendS
 1168              	.L91:
 1169              		.loc 5 216 0
 1170 0028 039B     		ldr	r3, [sp, #12]
 1171 002a 9B6C     		ldr	r3, [r3, #72]
 1172 002c 5B6B     		ldr	r3, [r3, #52]
 1173 002e 03F48073 		and	r3, r3, #256
 1174 0032 002B     		cmp	r3, #0
 1175 0034 03D1     		bne	.L97
 1176              		.loc 5 217 0
 1177 0036 FFF7FEFF 		bl	osalSysUnlock
 1178              		.loc 5 218 0
 1179 003a 0123     		movs	r3, #1
 1180 003c 29E0     		b	.L93
 1181              	.L97:
 1182              		.loc 5 223 0
 1183 003e 00BF     		nop
 1184              	.L94:
 1185              		.loc 5 223 0 is_stmt 0 discriminator 1
 1186 0040 039B     		ldr	r3, [sp, #12]
 1187 0042 5B6C     		ldr	r3, [r3, #68]
 1188 0044 1B68     		ldr	r3, [r3]
 1189 0046 1B68     		ldr	r3, [r3]
ARM GAS  C:\Users\PCHAUT~1\AppData\Local\Temp\ccORgsmL.s 			page 22


 1190 0048 03F00103 		and	r3, r3, #1
 1191 004c 002B     		cmp	r3, #0
 1192 004e F7D1     		bne	.L94
 1193              		.loc 5 227 0 is_stmt 1
 1194 0050 039B     		ldr	r3, [sp, #12]
 1195 0052 5B6C     		ldr	r3, [r3, #68]
 1196 0054 1B7A     		ldrb	r3, [r3, #8]	@ zero_extendqisi2
 1197 0056 1A46     		mov	r2, r3
 1198 0058 3D23     		movs	r3, #61
 1199 005a 03FA02F2 		lsl	r2, r3, r2
 1200 005e 039B     		ldr	r3, [sp, #12]
 1201 0060 5B6C     		ldr	r3, [r3, #68]
 1202 0062 5B68     		ldr	r3, [r3, #4]
 1203 0064 1A60     		str	r2, [r3]
 1204              		.loc 5 229 0
 1205 0066 039B     		ldr	r3, [sp, #12]
 1206 0068 9B6C     		ldr	r3, [r3, #72]
 1207 006a 104A     		ldr	r2, .L98+4
 1208 006c 9A63     		str	r2, [r3, #56]
 1209              		.loc 5 230 0
 1210 006e 039B     		ldr	r3, [sp, #12]
 1211 0070 9B6C     		ldr	r3, [r3, #72]
 1212 0072 0022     		movs	r2, #0
 1213 0074 DA62     		str	r2, [r3, #44]
 1214              		.loc 5 231 0
 1215 0076 FFF7FEFF 		bl	osalSysUnlock
 1216              		.loc 5 247 0
 1217 007a 029B     		ldr	r3, [sp, #8]
 1218 007c 012B     		cmp	r3, #1
 1219 007e 07D9     		bls	.L95
 1220              		.loc 5 248 0
 1221 0080 019B     		ldr	r3, [sp, #4]
 1222 0082 0022     		movs	r2, #0
 1223 0084 0C21     		movs	r1, #12
 1224 0086 0398     		ldr	r0, [sp, #12]
 1225 0088 FFF7FEFF 		bl	sdc_lld_send_cmd_short_crc
 1226 008c 0346     		mov	r3, r0
 1227 008e 00E0     		b	.L93
 1228              	.L95:
 1229              		.loc 5 250 0
 1230 0090 0023     		movs	r3, #0
 1231              	.L93:
 1232              		.loc 5 251 0
 1233 0092 1846     		mov	r0, r3
 1234 0094 044B     		ldr	r3, .L98
 1235 0096 059A     		ldr	r2, [sp, #20]
 1236 0098 1B68     		ldr	r3, [r3]
 1237 009a 9A42     		cmp	r2, r3
 1238 009c 01D0     		beq	.L96
 1239 009e FFF7FEFF 		bl	__stack_chk_fail
 1240              	.L96:
 1241 00a2 07B0     		add	sp, sp, #28
 1242              		.cfi_def_cfa_offset 4
 1243              		@ sp needed
 1244 00a4 5DF804FB 		ldr	pc, [sp], #4
 1245              	.L99:
 1246              		.align	2
ARM GAS  C:\Users\PCHAUT~1\AppData\Local\Temp\ccORgsmL.s 			page 23


 1247              	.L98:
 1248 00a8 00000000 		.word	__stack_chk_guard
 1249 00ac FF07C000 		.word	12584959
 1250              		.cfi_endproc
 1251              	.LFE259:
 1252              		.size	sdc_lld_wait_transaction_end, .-sdc_lld_wait_transaction_end
 1253              		.section	.text.sdc_lld_collect_errors,"ax",%progbits
 1254              		.align	1
 1255              		.p2align 4,,15
 1256              		.syntax unified
 1257              		.thumb
 1258              		.thumb_func
 1259              		.fpu fpv4-sp-d16
 1260              		.type	sdc_lld_collect_errors, %function
 1261              	sdc_lld_collect_errors:
 1262              	.LFB260:
 1263              		.loc 5 261 0
 1264              		.cfi_startproc
 1265              		@ args = 0, pretend = 0, frame = 16
 1266              		@ frame_needed = 0, uses_anonymous_args = 0
 1267 0000 00B5     		push	{lr}
 1268              		.cfi_def_cfa_offset 4
 1269              		.cfi_offset 14, -4
 1270 0002 85B0     		sub	sp, sp, #20
 1271              		.cfi_def_cfa_offset 24
 1272 0004 0190     		str	r0, [sp, #4]
 1273 0006 0091     		str	r1, [sp]
 1274              		.loc 5 261 0
 1275 0008 2A4B     		ldr	r3, .L109
 1276 000a 1B68     		ldr	r3, [r3]
 1277 000c 0393     		str	r3, [sp, #12]
 1278              		.loc 5 262 0
 1279 000e 0023     		movs	r3, #0
 1280 0010 0293     		str	r3, [sp, #8]
 1281              		.loc 5 264 0
 1282 0012 009B     		ldr	r3, [sp]
 1283 0014 03F00103 		and	r3, r3, #1
 1284 0018 002B     		cmp	r3, #0
 1285 001a 03D0     		beq	.L101
 1286              		.loc 5 265 0
 1287 001c 029B     		ldr	r3, [sp, #8]
 1288 001e 43F00103 		orr	r3, r3, #1
 1289 0022 0293     		str	r3, [sp, #8]
 1290              	.L101:
 1291              		.loc 5 266 0
 1292 0024 009B     		ldr	r3, [sp]
 1293 0026 03F00203 		and	r3, r3, #2
 1294 002a 002B     		cmp	r3, #0
 1295 002c 03D0     		beq	.L102
 1296              		.loc 5 267 0
 1297 002e 029B     		ldr	r3, [sp, #8]
 1298 0030 43F00203 		orr	r3, r3, #2
 1299 0034 0293     		str	r3, [sp, #8]
 1300              	.L102:
 1301              		.loc 5 268 0
 1302 0036 009B     		ldr	r3, [sp]
 1303 0038 03F00403 		and	r3, r3, #4
ARM GAS  C:\Users\PCHAUT~1\AppData\Local\Temp\ccORgsmL.s 			page 24


 1304 003c 002B     		cmp	r3, #0
 1305 003e 03D0     		beq	.L103
 1306              		.loc 5 269 0
 1307 0040 029B     		ldr	r3, [sp, #8]
 1308 0042 43F00803 		orr	r3, r3, #8
 1309 0046 0293     		str	r3, [sp, #8]
 1310              	.L103:
 1311              		.loc 5 270 0
 1312 0048 009B     		ldr	r3, [sp]
 1313 004a 03F00803 		and	r3, r3, #8
 1314 004e 002B     		cmp	r3, #0
 1315 0050 03D0     		beq	.L104
 1316              		.loc 5 271 0
 1317 0052 029B     		ldr	r3, [sp, #8]
 1318 0054 43F00403 		orr	r3, r3, #4
 1319 0058 0293     		str	r3, [sp, #8]
 1320              	.L104:
 1321              		.loc 5 272 0
 1322 005a 009B     		ldr	r3, [sp]
 1323 005c 03F01003 		and	r3, r3, #16
 1324 0060 002B     		cmp	r3, #0
 1325 0062 03D0     		beq	.L105
 1326              		.loc 5 273 0
 1327 0064 029B     		ldr	r3, [sp, #8]
 1328 0066 43F01003 		orr	r3, r3, #16
 1329 006a 0293     		str	r3, [sp, #8]
 1330              	.L105:
 1331              		.loc 5 274 0
 1332 006c 009B     		ldr	r3, [sp]
 1333 006e 03F02003 		and	r3, r3, #32
 1334 0072 002B     		cmp	r3, #0
 1335 0074 03D0     		beq	.L106
 1336              		.loc 5 275 0
 1337 0076 029B     		ldr	r3, [sp, #8]
 1338 0078 43F02003 		orr	r3, r3, #32
 1339 007c 0293     		str	r3, [sp, #8]
 1340              	.L106:
 1341              		.loc 5 276 0
 1342 007e 009B     		ldr	r3, [sp]
 1343 0080 03F40073 		and	r3, r3, #512
 1344 0084 002B     		cmp	r3, #0
 1345 0086 03D0     		beq	.L107
 1346              		.loc 5 277 0
 1347 0088 029B     		ldr	r3, [sp, #8]
 1348 008a 43F04003 		orr	r3, r3, #64
 1349 008e 0293     		str	r3, [sp, #8]
 1350              	.L107:
 1351              		.loc 5 279 0
 1352 0090 019B     		ldr	r3, [sp, #4]
 1353 0092 5A6B     		ldr	r2, [r3, #52]
 1354 0094 029B     		ldr	r3, [sp, #8]
 1355 0096 1A43     		orrs	r2, r2, r3
 1356 0098 019B     		ldr	r3, [sp, #4]
 1357 009a 5A63     		str	r2, [r3, #52]
 1358              		.loc 5 280 0
 1359 009c 00BF     		nop
 1360 009e 054B     		ldr	r3, .L109
ARM GAS  C:\Users\PCHAUT~1\AppData\Local\Temp\ccORgsmL.s 			page 25


 1361 00a0 039A     		ldr	r2, [sp, #12]
 1362 00a2 1B68     		ldr	r3, [r3]
 1363 00a4 9A42     		cmp	r2, r3
 1364 00a6 01D0     		beq	.L108
 1365 00a8 FFF7FEFF 		bl	__stack_chk_fail
 1366              	.L108:
 1367 00ac 05B0     		add	sp, sp, #20
 1368              		.cfi_def_cfa_offset 4
 1369              		@ sp needed
 1370 00ae 5DF804FB 		ldr	pc, [sp], #4
 1371              	.L110:
 1372 00b2 00BF     		.align	2
 1373              	.L109:
 1374 00b4 00000000 		.word	__stack_chk_guard
 1375              		.cfi_endproc
 1376              	.LFE260:
 1377              		.size	sdc_lld_collect_errors, .-sdc_lld_collect_errors
 1378              		.section	.text.sdc_lld_error_cleanup,"ax",%progbits
 1379              		.align	1
 1380              		.p2align 4,,15
 1381              		.syntax unified
 1382              		.thumb
 1383              		.thumb_func
 1384              		.fpu fpv4-sp-d16
 1385              		.type	sdc_lld_error_cleanup, %function
 1386              	sdc_lld_error_cleanup:
 1387              	.LFB261:
 1388              		.loc 5 293 0
 1389              		.cfi_startproc
 1390              		@ args = 0, pretend = 0, frame = 24
 1391              		@ frame_needed = 0, uses_anonymous_args = 0
 1392 0000 00B5     		push	{lr}
 1393              		.cfi_def_cfa_offset 4
 1394              		.cfi_offset 14, -4
 1395 0002 87B0     		sub	sp, sp, #28
 1396              		.cfi_def_cfa_offset 32
 1397 0004 0390     		str	r0, [sp, #12]
 1398 0006 0291     		str	r1, [sp, #8]
 1399 0008 0192     		str	r2, [sp, #4]
 1400              		.loc 5 293 0
 1401 000a 2A4B     		ldr	r3, .L116
 1402 000c 1B68     		ldr	r3, [r3]
 1403 000e 0593     		str	r3, [sp, #20]
 1404              		.loc 5 294 0
 1405 0010 039B     		ldr	r3, [sp, #12]
 1406 0012 9B6C     		ldr	r3, [r3, #72]
 1407 0014 5B6B     		ldr	r3, [r3, #52]
 1408 0016 0493     		str	r3, [sp, #16]
 1409              		.loc 5 296 0
 1410 0018 039B     		ldr	r3, [sp, #12]
 1411 001a 5B6C     		ldr	r3, [r3, #68]
 1412 001c 1B7A     		ldrb	r3, [r3, #8]	@ zero_extendqisi2
 1413 001e 1A46     		mov	r2, r3
 1414 0020 3D23     		movs	r3, #61
 1415 0022 03FA02F2 		lsl	r2, r3, r2
 1416 0026 039B     		ldr	r3, [sp, #12]
 1417 0028 5B6C     		ldr	r3, [r3, #68]
ARM GAS  C:\Users\PCHAUT~1\AppData\Local\Temp\ccORgsmL.s 			page 26


 1418 002a 5B68     		ldr	r3, [r3, #4]
 1419 002c 1A60     		str	r2, [r3]
 1420              		.loc 5 297 0
 1421 002e 039B     		ldr	r3, [sp, #12]
 1422 0030 5B6C     		ldr	r3, [r3, #68]
 1423 0032 1B68     		ldr	r3, [r3]
 1424 0034 1A68     		ldr	r2, [r3]
 1425 0036 039B     		ldr	r3, [sp, #12]
 1426 0038 5B6C     		ldr	r3, [r3, #68]
 1427 003a 1B68     		ldr	r3, [r3]
 1428 003c 22F01F02 		bic	r2, r2, #31
 1429 0040 1A60     		str	r2, [r3]
 1430 0042 00BF     		nop
 1431              	.L112:
 1432              		.loc 5 297 0 is_stmt 0 discriminator 2
 1433 0044 039B     		ldr	r3, [sp, #12]
 1434 0046 5B6C     		ldr	r3, [r3, #68]
 1435 0048 1B68     		ldr	r3, [r3]
 1436 004a 1B68     		ldr	r3, [r3]
 1437 004c 03F00103 		and	r3, r3, #1
 1438 0050 002B     		cmp	r3, #0
 1439 0052 F7D1     		bne	.L112
 1440              		.loc 5 297 0 discriminator 3
 1441 0054 039B     		ldr	r3, [sp, #12]
 1442 0056 5B6C     		ldr	r3, [r3, #68]
 1443 0058 1B7A     		ldrb	r3, [r3, #8]	@ zero_extendqisi2
 1444 005a 1A46     		mov	r2, r3
 1445 005c 3D23     		movs	r3, #61
 1446 005e 03FA02F2 		lsl	r2, r3, r2
 1447 0062 039B     		ldr	r3, [sp, #12]
 1448 0064 5B6C     		ldr	r3, [r3, #68]
 1449 0066 5B68     		ldr	r3, [r3, #4]
 1450 0068 1A60     		str	r2, [r3]
 1451              		.loc 5 298 0 is_stmt 1 discriminator 3
 1452 006a 039B     		ldr	r3, [sp, #12]
 1453 006c 9B6C     		ldr	r3, [r3, #72]
 1454 006e 124A     		ldr	r2, .L116+4
 1455 0070 9A63     		str	r2, [r3, #56]
 1456              		.loc 5 299 0 discriminator 3
 1457 0072 039B     		ldr	r3, [sp, #12]
 1458 0074 9B6C     		ldr	r3, [r3, #72]
 1459 0076 0022     		movs	r2, #0
 1460 0078 DA63     		str	r2, [r3, #60]
 1461              		.loc 5 300 0 discriminator 3
 1462 007a 039B     		ldr	r3, [sp, #12]
 1463 007c 9B6C     		ldr	r3, [r3, #72]
 1464 007e 0022     		movs	r2, #0
 1465 0080 DA62     		str	r2, [r3, #44]
 1466              		.loc 5 301 0 discriminator 3
 1467 0082 0499     		ldr	r1, [sp, #16]
 1468 0084 0398     		ldr	r0, [sp, #12]
 1469 0086 FFF7FEFF 		bl	sdc_lld_collect_errors
 1470              		.loc 5 302 0 discriminator 3
 1471 008a 029B     		ldr	r3, [sp, #8]
 1472 008c 012B     		cmp	r3, #1
 1473 008e 05D9     		bls	.L115
 1474              		.loc 5 303 0
ARM GAS  C:\Users\PCHAUT~1\AppData\Local\Temp\ccORgsmL.s 			page 27


 1475 0090 019B     		ldr	r3, [sp, #4]
 1476 0092 0022     		movs	r2, #0
 1477 0094 0C21     		movs	r1, #12
 1478 0096 0398     		ldr	r0, [sp, #12]
 1479 0098 FFF7FEFF 		bl	sdc_lld_send_cmd_short_crc
 1480              	.L115:
 1481              		.loc 5 304 0
 1482 009c 00BF     		nop
 1483 009e 054B     		ldr	r3, .L116
 1484 00a0 059A     		ldr	r2, [sp, #20]
 1485 00a2 1B68     		ldr	r3, [r3]
 1486 00a4 9A42     		cmp	r2, r3
 1487 00a6 01D0     		beq	.L114
 1488 00a8 FFF7FEFF 		bl	__stack_chk_fail
 1489              	.L114:
 1490 00ac 07B0     		add	sp, sp, #28
 1491              		.cfi_def_cfa_offset 4
 1492              		@ sp needed
 1493 00ae 5DF804FB 		ldr	pc, [sp], #4
 1494              	.L117:
 1495 00b2 00BF     		.align	2
 1496              	.L116:
 1497 00b4 00000000 		.word	__stack_chk_guard
 1498 00b8 FF07C000 		.word	12584959
 1499              		.cfi_endproc
 1500              	.LFE261:
 1501              		.size	sdc_lld_error_cleanup, .-sdc_lld_error_cleanup
 1502              		.section	.text.Vector104,"ax",%progbits
 1503              		.align	1
 1504              		.p2align 4,,15
 1505              		.global	Vector104
 1506              		.syntax unified
 1507              		.thumb
 1508              		.thumb_func
 1509              		.fpu fpv4-sp-d16
 1510              		.type	Vector104, %function
 1511              	Vector104:
 1512              	.LFB262:
 1513              		.loc 5 320 0
 1514              		.cfi_startproc
 1515              		@ args = 0, pretend = 0, frame = 8
 1516              		@ frame_needed = 0, uses_anonymous_args = 0
 1517 0000 00B5     		push	{lr}
 1518              		.cfi_def_cfa_offset 4
 1519              		.cfi_offset 14, -4
 1520 0002 83B0     		sub	sp, sp, #12
 1521              		.cfi_def_cfa_offset 16
 1522              		.loc 5 320 0
 1523 0004 104B     		ldr	r3, .L120
 1524 0006 1B68     		ldr	r3, [r3]
 1525 0008 0193     		str	r3, [sp, #4]
 1526              		.loc 5 322 0
 1527 000a FFF7FEFF 		bl	_stats_increase_irq
 1528 000e FFF7FEFF 		bl	_dbg_check_enter_isr
 1529              		.loc 5 324 0
 1530 0012 FFF7FEFF 		bl	osalSysLockFromISR
 1531              		.loc 5 328 0
ARM GAS  C:\Users\PCHAUT~1\AppData\Local\Temp\ccORgsmL.s 			page 28


 1532 0016 0D4B     		ldr	r3, .L120+4
 1533 0018 0022     		movs	r2, #0
 1534 001a DA63     		str	r2, [r3, #60]
 1535              		.loc 5 330 0
 1536 001c 0021     		movs	r1, #0
 1537 001e 0C48     		ldr	r0, .L120+8
 1538 0020 FFF7FEFF 		bl	osalThreadResumeI
 1539              		.loc 5 332 0
 1540 0024 FFF7FEFF 		bl	osalSysUnlockFromISR
 1541              		.loc 5 334 0
 1542 0028 FFF7FEFF 		bl	_dbg_check_leave_isr
 1543 002c FFF7FEFF 		bl	_port_irq_epilogue
 1544              		.loc 5 335 0
 1545 0030 00BF     		nop
 1546 0032 054B     		ldr	r3, .L120
 1547 0034 019A     		ldr	r2, [sp, #4]
 1548 0036 1B68     		ldr	r3, [r3]
 1549 0038 9A42     		cmp	r2, r3
 1550 003a 01D0     		beq	.L119
 1551 003c FFF7FEFF 		bl	__stack_chk_fail
 1552              	.L119:
 1553 0040 03B0     		add	sp, sp, #12
 1554              		.cfi_def_cfa_offset 4
 1555              		@ sp needed
 1556 0042 5DF804FB 		ldr	pc, [sp], #4
 1557              	.L121:
 1558 0046 00BF     		.align	2
 1559              	.L120:
 1560 0048 00000000 		.word	__stack_chk_guard
 1561 004c 002C0140 		.word	1073818624
 1562 0050 3C000000 		.word	SDCD1+60
 1563              		.cfi_endproc
 1564              	.LFE262:
 1565              		.size	Vector104, .-Vector104
 1566              		.section	.text.sdc_lld_init,"ax",%progbits
 1567              		.align	1
 1568              		.p2align 4,,15
 1569              		.global	sdc_lld_init
 1570              		.syntax unified
 1571              		.thumb
 1572              		.thumb_func
 1573              		.fpu fpv4-sp-d16
 1574              		.type	sdc_lld_init, %function
 1575              	sdc_lld_init:
 1576              	.LFB263:
 1577              		.loc 5 346 0
 1578              		.cfi_startproc
 1579              		@ args = 0, pretend = 0, frame = 8
 1580              		@ frame_needed = 0, uses_anonymous_args = 0
 1581 0000 00B5     		push	{lr}
 1582              		.cfi_def_cfa_offset 4
 1583              		.cfi_offset 14, -4
 1584 0002 83B0     		sub	sp, sp, #12
 1585              		.cfi_def_cfa_offset 16
 1586              		.loc 5 346 0
 1587 0004 0C4B     		ldr	r3, .L124
 1588 0006 1B68     		ldr	r3, [r3]
ARM GAS  C:\Users\PCHAUT~1\AppData\Local\Temp\ccORgsmL.s 			page 29


 1589 0008 0193     		str	r3, [sp, #4]
 1590              		.loc 5 348 0
 1591 000a 0C48     		ldr	r0, .L124+4
 1592 000c FFF7FEFF 		bl	sdcObjectInit
 1593              		.loc 5 349 0
 1594 0010 0A4B     		ldr	r3, .L124+4
 1595 0012 0022     		movs	r2, #0
 1596 0014 DA63     		str	r2, [r3, #60]
 1597              		.loc 5 350 0
 1598 0016 094B     		ldr	r3, .L124+4
 1599 0018 094A     		ldr	r2, .L124+8
 1600 001a 5A64     		str	r2, [r3, #68]
 1601              		.loc 5 351 0
 1602 001c 074B     		ldr	r3, .L124+4
 1603 001e 094A     		ldr	r2, .L124+12
 1604 0020 9A64     		str	r2, [r3, #72]
 1605              		.loc 5 352 0
 1606 0022 00BF     		nop
 1607 0024 044B     		ldr	r3, .L124
 1608 0026 019A     		ldr	r2, [sp, #4]
 1609 0028 1B68     		ldr	r3, [r3]
 1610 002a 9A42     		cmp	r2, r3
 1611 002c 01D0     		beq	.L123
 1612 002e FFF7FEFF 		bl	__stack_chk_fail
 1613              	.L123:
 1614 0032 03B0     		add	sp, sp, #12
 1615              		.cfi_def_cfa_offset 4
 1616              		@ sp needed
 1617 0034 5DF804FB 		ldr	pc, [sp], #4
 1618              	.L125:
 1619              		.align	2
 1620              	.L124:
 1621 0038 00000000 		.word	__stack_chk_guard
 1622 003c 00000000 		.word	SDCD1
 1623 0040 84000000 		.word	_stm32_dma_streams+132
 1624 0044 002C0140 		.word	1073818624
 1625              		.cfi_endproc
 1626              	.LFE263:
 1627              		.size	sdc_lld_init, .-sdc_lld_init
 1628              		.section	.text.sdc_lld_start,"ax",%progbits
 1629              		.align	1
 1630              		.p2align 4,,15
 1631              		.global	sdc_lld_start
 1632              		.syntax unified
 1633              		.thumb
 1634              		.thumb_func
 1635              		.fpu fpv4-sp-d16
 1636              		.type	sdc_lld_start, %function
 1637              	sdc_lld_start:
 1638              	.LFB264:
 1639              		.loc 5 361 0
 1640              		.cfi_startproc
 1641              		@ args = 0, pretend = 0, frame = 16
 1642              		@ frame_needed = 0, uses_anonymous_args = 0
 1643 0000 00B5     		push	{lr}
 1644              		.cfi_def_cfa_offset 4
 1645              		.cfi_offset 14, -4
ARM GAS  C:\Users\PCHAUT~1\AppData\Local\Temp\ccORgsmL.s 			page 30


 1646 0002 85B0     		sub	sp, sp, #20
 1647              		.cfi_def_cfa_offset 24
 1648 0004 0190     		str	r0, [sp, #4]
 1649              		.loc 5 361 0
 1650 0006 2E4B     		ldr	r3, .L131
 1651 0008 1B68     		ldr	r3, [r3]
 1652 000a 0393     		str	r3, [sp, #12]
 1653              		.loc 5 364 0
 1654 000c 019B     		ldr	r3, [sp, #4]
 1655 000e DB6A     		ldr	r3, [r3, #44]
 1656 0010 002B     		cmp	r3, #0
 1657 0012 02D1     		bne	.L127
 1658              		.loc 5 365 0
 1659 0014 019B     		ldr	r3, [sp, #4]
 1660 0016 2B4A     		ldr	r2, .L131+4
 1661 0018 DA62     		str	r2, [r3, #44]
 1662              	.L127:
 1663              		.loc 5 368 0
 1664 001a 019B     		ldr	r3, [sp, #4]
 1665 001c 2A4A     		ldr	r2, .L131+8
 1666 001e 1A64     		str	r2, [r3, #64]
 1667              		.loc 5 375 0
 1668 0020 019B     		ldr	r3, [sp, #4]
 1669 0022 1B6C     		ldr	r3, [r3, #64]
 1670 0024 43F42003 		orr	r3, r3, #10485760
 1671 0028 43F02003 		orr	r3, r3, #32
 1672 002c 019A     		ldr	r2, [sp, #4]
 1673 002e 1364     		str	r3, [r2, #64]
 1674              		.loc 5 380 0
 1675 0030 019B     		ldr	r3, [sp, #4]
 1676 0032 1B79     		ldrb	r3, [r3, #4]	@ zero_extendqisi2
 1677 0034 012B     		cmp	r3, #1
 1678 0036 27D1     		bne	.L128
 1679              	.LBB10:
 1680              		.loc 5 383 0
 1681 0038 019B     		ldr	r3, [sp, #4]
 1682 003a 586C     		ldr	r0, [r3, #68]
 1683 003c 0023     		movs	r3, #0
 1684 003e 0022     		movs	r2, #0
 1685 0040 0921     		movs	r1, #9
 1686 0042 FFF7FEFF 		bl	dmaStreamAllocate
 1687 0046 0346     		mov	r3, r0
 1688 0048 8DF80B30 		strb	r3, [sp, #11]
 1689              		.loc 5 384 0
 1690 004c 9DF80B30 		ldrb	r3, [sp, #11]	@ zero_extendqisi2
 1691 0050 002B     		cmp	r3, #0
 1692 0052 02D0     		beq	.L129
 1693              		.loc 5 384 0 is_stmt 0 discriminator 2
 1694 0054 1D48     		ldr	r0, .L131+12
 1695 0056 FFF7FEFF 		bl	chSysHalt
 1696              	.L129:
 1697              		.loc 5 385 0 is_stmt 1
 1698 005a 019B     		ldr	r3, [sp, #4]
 1699 005c 9B6C     		ldr	r3, [r3, #72]
 1700 005e 03F18002 		add	r2, r3, #128
 1701 0062 019B     		ldr	r3, [sp, #4]
 1702 0064 5B6C     		ldr	r3, [r3, #68]
ARM GAS  C:\Users\PCHAUT~1\AppData\Local\Temp\ccORgsmL.s 			page 31


 1703 0066 1B68     		ldr	r3, [r3]
 1704 0068 9A60     		str	r2, [r3, #8]
 1705              		.loc 5 387 0
 1706 006a 019B     		ldr	r3, [sp, #4]
 1707 006c 5B6C     		ldr	r3, [r3, #68]
 1708 006e 1B68     		ldr	r3, [r3]
 1709 0070 0722     		movs	r2, #7
 1710 0072 5A61     		str	r2, [r3, #20]
 1711              		.loc 5 389 0
 1712 0074 0921     		movs	r1, #9
 1713 0076 3120     		movs	r0, #49
 1714 0078 FFF7FEFF 		bl	nvicEnableVector
 1715              		.loc 5 390 0
 1716 007c 144B     		ldr	r3, .L131+16
 1717 007e 5B6C     		ldr	r3, [r3, #68]
 1718 0080 134A     		ldr	r2, .L131+16
 1719 0082 43F40063 		orr	r3, r3, #2048
 1720 0086 5364     		str	r3, [r2, #68]
 1721              	.L128:
 1722              	.LBE10:
 1723              		.loc 5 394 0
 1724 0088 019B     		ldr	r3, [sp, #4]
 1725 008a 9B6C     		ldr	r3, [r3, #72]
 1726 008c 0022     		movs	r2, #0
 1727 008e 1A60     		str	r2, [r3]
 1728              		.loc 5 395 0
 1729 0090 019B     		ldr	r3, [sp, #4]
 1730 0092 9B6C     		ldr	r3, [r3, #72]
 1731 0094 0022     		movs	r2, #0
 1732 0096 5A60     		str	r2, [r3, #4]
 1733              		.loc 5 396 0
 1734 0098 019B     		ldr	r3, [sp, #4]
 1735 009a 9B6C     		ldr	r3, [r3, #72]
 1736 009c 0022     		movs	r2, #0
 1737 009e DA62     		str	r2, [r3, #44]
 1738              		.loc 5 397 0
 1739 00a0 019B     		ldr	r3, [sp, #4]
 1740 00a2 9B6C     		ldr	r3, [r3, #72]
 1741 00a4 0022     		movs	r2, #0
 1742 00a6 5A62     		str	r2, [r3, #36]
 1743              		.loc 5 398 0
 1744 00a8 00BF     		nop
 1745 00aa 054B     		ldr	r3, .L131
 1746 00ac 039A     		ldr	r2, [sp, #12]
 1747 00ae 1B68     		ldr	r3, [r3]
 1748 00b0 9A42     		cmp	r2, r3
 1749 00b2 01D0     		beq	.L130
 1750 00b4 FFF7FEFF 		bl	__stack_chk_fail
 1751              	.L130:
 1752 00b8 05B0     		add	sp, sp, #20
 1753              		.cfi_def_cfa_offset 4
 1754              		@ sp needed
 1755 00ba 5DF804FB 		ldr	pc, [sp], #4
 1756              	.L132:
 1757 00be 00BF     		.align	2
 1758              	.L131:
 1759 00c0 00000000 		.word	__stack_chk_guard
ARM GAS  C:\Users\PCHAUT~1\AppData\Local\Temp\ccORgsmL.s 			page 32


 1760 00c4 00000000 		.word	sdc_default_cfg
 1761 00c8 00540308 		.word	134435840
 1762 00cc 00000000 		.word	__func__.10295
 1763 00d0 00380240 		.word	1073887232
 1764              		.cfi_endproc
 1765              	.LFE264:
 1766              		.size	sdc_lld_start, .-sdc_lld_start
 1767              		.section	.text.sdc_lld_stop,"ax",%progbits
 1768              		.align	1
 1769              		.p2align 4,,15
 1770              		.global	sdc_lld_stop
 1771              		.syntax unified
 1772              		.thumb
 1773              		.thumb_func
 1774              		.fpu fpv4-sp-d16
 1775              		.type	sdc_lld_stop, %function
 1776              	sdc_lld_stop:
 1777              	.LFB265:
 1778              		.loc 5 407 0
 1779              		.cfi_startproc
 1780              		@ args = 0, pretend = 0, frame = 16
 1781              		@ frame_needed = 0, uses_anonymous_args = 0
 1782 0000 00B5     		push	{lr}
 1783              		.cfi_def_cfa_offset 4
 1784              		.cfi_offset 14, -4
 1785 0002 85B0     		sub	sp, sp, #20
 1786              		.cfi_def_cfa_offset 24
 1787 0004 0190     		str	r0, [sp, #4]
 1788              		.loc 5 407 0
 1789 0006 184B     		ldr	r3, .L137
 1790 0008 1B68     		ldr	r3, [r3]
 1791 000a 0393     		str	r3, [sp, #12]
 1792              		.loc 5 409 0
 1793 000c 019B     		ldr	r3, [sp, #4]
 1794 000e 1B79     		ldrb	r3, [r3, #4]	@ zero_extendqisi2
 1795 0010 012B     		cmp	r3, #1
 1796 0012 1DD0     		beq	.L136
 1797              		.loc 5 412 0
 1798 0014 019B     		ldr	r3, [sp, #4]
 1799 0016 9B6C     		ldr	r3, [r3, #72]
 1800 0018 0022     		movs	r2, #0
 1801 001a 1A60     		str	r2, [r3]
 1802              		.loc 5 413 0
 1803 001c 019B     		ldr	r3, [sp, #4]
 1804 001e 9B6C     		ldr	r3, [r3, #72]
 1805 0020 0022     		movs	r2, #0
 1806 0022 5A60     		str	r2, [r3, #4]
 1807              		.loc 5 414 0
 1808 0024 019B     		ldr	r3, [sp, #4]
 1809 0026 9B6C     		ldr	r3, [r3, #72]
 1810 0028 0022     		movs	r2, #0
 1811 002a DA62     		str	r2, [r3, #44]
 1812              		.loc 5 415 0
 1813 002c 019B     		ldr	r3, [sp, #4]
 1814 002e 9B6C     		ldr	r3, [r3, #72]
 1815 0030 0022     		movs	r2, #0
 1816 0032 5A62     		str	r2, [r3, #36]
ARM GAS  C:\Users\PCHAUT~1\AppData\Local\Temp\ccORgsmL.s 			page 33


 1817              		.loc 5 418 0
 1818 0034 3120     		movs	r0, #49
 1819 0036 FFF7FEFF 		bl	nvicDisableVector
 1820              		.loc 5 419 0
 1821 003a 019B     		ldr	r3, [sp, #4]
 1822 003c 5B6C     		ldr	r3, [r3, #68]
 1823 003e 1846     		mov	r0, r3
 1824 0040 FFF7FEFF 		bl	dmaStreamRelease
 1825              		.loc 5 420 0
 1826 0044 094B     		ldr	r3, .L137+4
 1827 0046 5B6C     		ldr	r3, [r3, #68]
 1828 0048 084A     		ldr	r2, .L137+4
 1829 004a 23F40063 		bic	r3, r3, #2048
 1830 004e 5364     		str	r3, [r2, #68]
 1831              	.L136:
 1832              		.loc 5 422 0
 1833 0050 00BF     		nop
 1834 0052 054B     		ldr	r3, .L137
 1835 0054 039A     		ldr	r2, [sp, #12]
 1836 0056 1B68     		ldr	r3, [r3]
 1837 0058 9A42     		cmp	r2, r3
 1838 005a 01D0     		beq	.L135
 1839 005c FFF7FEFF 		bl	__stack_chk_fail
 1840              	.L135:
 1841 0060 05B0     		add	sp, sp, #20
 1842              		.cfi_def_cfa_offset 4
 1843              		@ sp needed
 1844 0062 5DF804FB 		ldr	pc, [sp], #4
 1845              	.L138:
 1846 0066 00BF     		.align	2
 1847              	.L137:
 1848 0068 00000000 		.word	__stack_chk_guard
 1849 006c 00380240 		.word	1073887232
 1850              		.cfi_endproc
 1851              	.LFE265:
 1852              		.size	sdc_lld_stop, .-sdc_lld_stop
 1853              		.section	.text.sdc_lld_start_clk,"ax",%progbits
 1854              		.align	1
 1855              		.p2align 4,,15
 1856              		.global	sdc_lld_start_clk
 1857              		.syntax unified
 1858              		.thumb
 1859              		.thumb_func
 1860              		.fpu fpv4-sp-d16
 1861              		.type	sdc_lld_start_clk, %function
 1862              	sdc_lld_start_clk:
 1863              	.LFB266:
 1864              		.loc 5 431 0
 1865              		.cfi_startproc
 1866              		@ args = 0, pretend = 0, frame = 16
 1867              		@ frame_needed = 0, uses_anonymous_args = 0
 1868 0000 00B5     		push	{lr}
 1869              		.cfi_def_cfa_offset 4
 1870              		.cfi_offset 14, -4
 1871 0002 85B0     		sub	sp, sp, #20
 1872              		.cfi_def_cfa_offset 24
 1873 0004 0190     		str	r0, [sp, #4]
ARM GAS  C:\Users\PCHAUT~1\AppData\Local\Temp\ccORgsmL.s 			page 34


 1874              		.loc 5 431 0
 1875 0006 124B     		ldr	r3, .L141
 1876 0008 1B68     		ldr	r3, [r3]
 1877 000a 0393     		str	r3, [sp, #12]
 1878              		.loc 5 434 0
 1879 000c 019B     		ldr	r3, [sp, #4]
 1880 000e 9B6C     		ldr	r3, [r3, #72]
 1881 0010 7822     		movs	r2, #120
 1882 0012 5A60     		str	r2, [r3, #4]
 1883              		.loc 5 435 0
 1884 0014 019B     		ldr	r3, [sp, #4]
 1885 0016 9B6C     		ldr	r3, [r3, #72]
 1886 0018 1A68     		ldr	r2, [r3]
 1887 001a 019B     		ldr	r3, [sp, #4]
 1888 001c 9B6C     		ldr	r3, [r3, #72]
 1889 001e 42F00302 		orr	r2, r2, #3
 1890 0022 1A60     		str	r2, [r3]
 1891              		.loc 5 436 0
 1892 0024 019B     		ldr	r3, [sp, #4]
 1893 0026 9B6C     		ldr	r3, [r3, #72]
 1894 0028 5A68     		ldr	r2, [r3, #4]
 1895 002a 019B     		ldr	r3, [sp, #4]
 1896 002c 9B6C     		ldr	r3, [r3, #72]
 1897 002e 42F48072 		orr	r2, r2, #256
 1898 0032 5A60     		str	r2, [r3, #4]
 1899              		.loc 5 439 0
 1900 0034 0A20     		movs	r0, #10
 1901 0036 FFF7FEFF 		bl	osalThreadSleep
 1902              		.loc 5 440 0
 1903 003a 00BF     		nop
 1904 003c 044B     		ldr	r3, .L141
 1905 003e 039A     		ldr	r2, [sp, #12]
 1906 0040 1B68     		ldr	r3, [r3]
 1907 0042 9A42     		cmp	r2, r3
 1908 0044 01D0     		beq	.L140
 1909 0046 FFF7FEFF 		bl	__stack_chk_fail
 1910              	.L140:
 1911 004a 05B0     		add	sp, sp, #20
 1912              		.cfi_def_cfa_offset 4
 1913              		@ sp needed
 1914 004c 5DF804FB 		ldr	pc, [sp], #4
 1915              	.L142:
 1916              		.align	2
 1917              	.L141:
 1918 0050 00000000 		.word	__stack_chk_guard
 1919              		.cfi_endproc
 1920              	.LFE266:
 1921              		.size	sdc_lld_start_clk, .-sdc_lld_start_clk
 1922              		.section	.text.sdc_lld_set_data_clk,"ax",%progbits
 1923              		.align	1
 1924              		.p2align 4,,15
 1925              		.global	sdc_lld_set_data_clk
 1926              		.syntax unified
 1927              		.thumb
 1928              		.thumb_func
 1929              		.fpu fpv4-sp-d16
 1930              		.type	sdc_lld_set_data_clk, %function
ARM GAS  C:\Users\PCHAUT~1\AppData\Local\Temp\ccORgsmL.s 			page 35


 1931              	sdc_lld_set_data_clk:
 1932              	.LFB267:
 1933              		.loc 5 450 0
 1934              		.cfi_startproc
 1935              		@ args = 0, pretend = 0, frame = 16
 1936              		@ frame_needed = 0, uses_anonymous_args = 0
 1937 0000 00B5     		push	{lr}
 1938              		.cfi_def_cfa_offset 4
 1939              		.cfi_offset 14, -4
 1940 0002 85B0     		sub	sp, sp, #20
 1941              		.cfi_def_cfa_offset 24
 1942 0004 0190     		str	r0, [sp, #4]
 1943 0006 0B46     		mov	r3, r1
 1944 0008 8DF80330 		strb	r3, [sp, #3]
 1945              		.loc 5 450 0
 1946 000c 0A4B     		ldr	r3, .L145
 1947 000e 1B68     		ldr	r3, [r3]
 1948 0010 0393     		str	r3, [sp, #12]
 1949              		.loc 5 461 0
 1950 0012 019B     		ldr	r3, [sp, #4]
 1951 0014 9B6C     		ldr	r3, [r3, #72]
 1952 0016 5A68     		ldr	r2, [r3, #4]
 1953 0018 019B     		ldr	r3, [sp, #4]
 1954 001a 9B6C     		ldr	r3, [r3, #72]
 1955 001c 22F0FF02 		bic	r2, r2, #255
 1956 0020 5A60     		str	r2, [r3, #4]
 1957              		.loc 5 463 0
 1958 0022 00BF     		nop
 1959 0024 044B     		ldr	r3, .L145
 1960 0026 039A     		ldr	r2, [sp, #12]
 1961 0028 1B68     		ldr	r3, [r3]
 1962 002a 9A42     		cmp	r2, r3
 1963 002c 01D0     		beq	.L144
 1964 002e FFF7FEFF 		bl	__stack_chk_fail
 1965              	.L144:
 1966 0032 05B0     		add	sp, sp, #20
 1967              		.cfi_def_cfa_offset 4
 1968              		@ sp needed
 1969 0034 5DF804FB 		ldr	pc, [sp], #4
 1970              	.L146:
 1971              		.align	2
 1972              	.L145:
 1973 0038 00000000 		.word	__stack_chk_guard
 1974              		.cfi_endproc
 1975              	.LFE267:
 1976              		.size	sdc_lld_set_data_clk, .-sdc_lld_set_data_clk
 1977              		.section	.text.sdc_lld_stop_clk,"ax",%progbits
 1978              		.align	1
 1979              		.p2align 4,,15
 1980              		.global	sdc_lld_stop_clk
 1981              		.syntax unified
 1982              		.thumb
 1983              		.thumb_func
 1984              		.fpu fpv4-sp-d16
 1985              		.type	sdc_lld_stop_clk, %function
 1986              	sdc_lld_stop_clk:
 1987              	.LFB268:
ARM GAS  C:\Users\PCHAUT~1\AppData\Local\Temp\ccORgsmL.s 			page 36


 1988              		.loc 5 472 0
 1989              		.cfi_startproc
 1990              		@ args = 0, pretend = 0, frame = 16
 1991              		@ frame_needed = 0, uses_anonymous_args = 0
 1992 0000 00B5     		push	{lr}
 1993              		.cfi_def_cfa_offset 4
 1994              		.cfi_offset 14, -4
 1995 0002 85B0     		sub	sp, sp, #20
 1996              		.cfi_def_cfa_offset 24
 1997 0004 0190     		str	r0, [sp, #4]
 1998              		.loc 5 472 0
 1999 0006 0B4B     		ldr	r3, .L149
 2000 0008 1B68     		ldr	r3, [r3]
 2001 000a 0393     		str	r3, [sp, #12]
 2002              		.loc 5 474 0
 2003 000c 019B     		ldr	r3, [sp, #4]
 2004 000e 9B6C     		ldr	r3, [r3, #72]
 2005 0010 0022     		movs	r2, #0
 2006 0012 5A60     		str	r2, [r3, #4]
 2007              		.loc 5 475 0
 2008 0014 019B     		ldr	r3, [sp, #4]
 2009 0016 9B6C     		ldr	r3, [r3, #72]
 2010 0018 0022     		movs	r2, #0
 2011 001a 1A60     		str	r2, [r3]
 2012              		.loc 5 476 0
 2013 001c 00BF     		nop
 2014 001e 054B     		ldr	r3, .L149
 2015 0020 039A     		ldr	r2, [sp, #12]
 2016 0022 1B68     		ldr	r3, [r3]
 2017 0024 9A42     		cmp	r2, r3
 2018 0026 01D0     		beq	.L148
 2019 0028 FFF7FEFF 		bl	__stack_chk_fail
 2020              	.L148:
 2021 002c 05B0     		add	sp, sp, #20
 2022              		.cfi_def_cfa_offset 4
 2023              		@ sp needed
 2024 002e 5DF804FB 		ldr	pc, [sp], #4
 2025              	.L150:
 2026 0032 00BF     		.align	2
 2027              	.L149:
 2028 0034 00000000 		.word	__stack_chk_guard
 2029              		.cfi_endproc
 2030              	.LFE268:
 2031              		.size	sdc_lld_stop_clk, .-sdc_lld_stop_clk
 2032              		.section	.text.sdc_lld_set_bus_mode,"ax",%progbits
 2033              		.align	1
 2034              		.p2align 4,,15
 2035              		.global	sdc_lld_set_bus_mode
 2036              		.syntax unified
 2037              		.thumb
 2038              		.thumb_func
 2039              		.fpu fpv4-sp-d16
 2040              		.type	sdc_lld_set_bus_mode, %function
 2041              	sdc_lld_set_bus_mode:
 2042              	.LFB269:
 2043              		.loc 5 486 0
 2044              		.cfi_startproc
ARM GAS  C:\Users\PCHAUT~1\AppData\Local\Temp\ccORgsmL.s 			page 37


 2045              		@ args = 0, pretend = 0, frame = 16
 2046              		@ frame_needed = 0, uses_anonymous_args = 0
 2047 0000 00B5     		push	{lr}
 2048              		.cfi_def_cfa_offset 4
 2049              		.cfi_offset 14, -4
 2050 0002 85B0     		sub	sp, sp, #20
 2051              		.cfi_def_cfa_offset 24
 2052 0004 0190     		str	r0, [sp, #4]
 2053 0006 0B46     		mov	r3, r1
 2054 0008 8DF80330 		strb	r3, [sp, #3]
 2055              		.loc 5 486 0
 2056 000c 174B     		ldr	r3, .L158
 2057 000e 1B68     		ldr	r3, [r3]
 2058 0010 0393     		str	r3, [sp, #12]
 2059              		.loc 5 487 0
 2060 0012 019B     		ldr	r3, [sp, #4]
 2061 0014 9B6C     		ldr	r3, [r3, #72]
 2062 0016 5B68     		ldr	r3, [r3, #4]
 2063 0018 23F4C053 		bic	r3, r3, #6144
 2064 001c 0293     		str	r3, [sp, #8]
 2065              		.loc 5 489 0
 2066 001e 9DF80330 		ldrb	r3, [sp, #3]	@ zero_extendqisi2
 2067 0022 012B     		cmp	r3, #1
 2068 0024 09D0     		beq	.L153
 2069 0026 022B     		cmp	r3, #2
 2070 0028 0ED0     		beq	.L154
 2071 002a 002B     		cmp	r3, #0
 2072 002c 00D0     		beq	.L155
 2073              		.loc 5 500 0
 2074 002e 12E0     		b	.L157
 2075              	.L155:
 2076              		.loc 5 491 0
 2077 0030 019B     		ldr	r3, [sp, #4]
 2078 0032 9B6C     		ldr	r3, [r3, #72]
 2079 0034 029A     		ldr	r2, [sp, #8]
 2080 0036 5A60     		str	r2, [r3, #4]
 2081              		.loc 5 492 0
 2082 0038 0DE0     		b	.L152
 2083              	.L153:
 2084              		.loc 5 494 0
 2085 003a 019B     		ldr	r3, [sp, #4]
 2086 003c 9B6C     		ldr	r3, [r3, #72]
 2087 003e 029A     		ldr	r2, [sp, #8]
 2088 0040 42F40062 		orr	r2, r2, #2048
 2089 0044 5A60     		str	r2, [r3, #4]
 2090              		.loc 5 495 0
 2091 0046 06E0     		b	.L152
 2092              	.L154:
 2093              		.loc 5 497 0
 2094 0048 019B     		ldr	r3, [sp, #4]
 2095 004a 9B6C     		ldr	r3, [r3, #72]
 2096 004c 029A     		ldr	r2, [sp, #8]
 2097 004e 42F48052 		orr	r2, r2, #4096
 2098 0052 5A60     		str	r2, [r3, #4]
 2099              		.loc 5 498 0
 2100 0054 00BF     		nop
 2101              	.L152:
ARM GAS  C:\Users\PCHAUT~1\AppData\Local\Temp\ccORgsmL.s 			page 38


 2102              	.L157:
 2103              		.loc 5 500 0
 2104 0056 00BF     		nop
 2105 0058 044B     		ldr	r3, .L158
 2106 005a 039A     		ldr	r2, [sp, #12]
 2107 005c 1B68     		ldr	r3, [r3]
 2108 005e 9A42     		cmp	r2, r3
 2109 0060 01D0     		beq	.L156
 2110 0062 FFF7FEFF 		bl	__stack_chk_fail
 2111              	.L156:
 2112 0066 05B0     		add	sp, sp, #20
 2113              		.cfi_def_cfa_offset 4
 2114              		@ sp needed
 2115 0068 5DF804FB 		ldr	pc, [sp], #4
 2116              	.L159:
 2117              		.align	2
 2118              	.L158:
 2119 006c 00000000 		.word	__stack_chk_guard
 2120              		.cfi_endproc
 2121              	.LFE269:
 2122              		.size	sdc_lld_set_bus_mode, .-sdc_lld_set_bus_mode
 2123              		.section	.text.sdc_lld_send_cmd_none,"ax",%progbits
 2124              		.align	1
 2125              		.p2align 4,,15
 2126              		.global	sdc_lld_send_cmd_none
 2127              		.syntax unified
 2128              		.thumb
 2129              		.thumb_func
 2130              		.fpu fpv4-sp-d16
 2131              		.type	sdc_lld_send_cmd_none, %function
 2132              	sdc_lld_send_cmd_none:
 2133              	.LFB270:
 2134              		.loc 5 511 0
 2135              		.cfi_startproc
 2136              		@ args = 0, pretend = 0, frame = 24
 2137              		@ frame_needed = 0, uses_anonymous_args = 0
 2138 0000 00B5     		push	{lr}
 2139              		.cfi_def_cfa_offset 4
 2140              		.cfi_offset 14, -4
 2141 0002 87B0     		sub	sp, sp, #28
 2142              		.cfi_def_cfa_offset 32
 2143 0004 0390     		str	r0, [sp, #12]
 2144 0006 0B46     		mov	r3, r1
 2145 0008 0192     		str	r2, [sp, #4]
 2146 000a 8DF80B30 		strb	r3, [sp, #11]
 2147              		.loc 5 511 0
 2148 000e 124B     		ldr	r3, .L163
 2149 0010 1B68     		ldr	r3, [r3]
 2150 0012 0593     		str	r3, [sp, #20]
 2151              		.loc 5 513 0
 2152 0014 039B     		ldr	r3, [sp, #12]
 2153 0016 9B6C     		ldr	r3, [r3, #72]
 2154 0018 019A     		ldr	r2, [sp, #4]
 2155 001a 9A60     		str	r2, [r3, #8]
 2156              		.loc 5 514 0
 2157 001c 9DF80B20 		ldrb	r2, [sp, #11]	@ zero_extendqisi2
 2158 0020 039B     		ldr	r3, [sp, #12]
ARM GAS  C:\Users\PCHAUT~1\AppData\Local\Temp\ccORgsmL.s 			page 39


 2159 0022 9B6C     		ldr	r3, [r3, #72]
 2160 0024 42F48062 		orr	r2, r2, #1024
 2161 0028 DA60     		str	r2, [r3, #12]
 2162              		.loc 5 515 0
 2163 002a 00BF     		nop
 2164              	.L161:
 2165              		.loc 5 515 0 is_stmt 0 discriminator 1
 2166 002c 039B     		ldr	r3, [sp, #12]
 2167 002e 9B6C     		ldr	r3, [r3, #72]
 2168 0030 5B6B     		ldr	r3, [r3, #52]
 2169 0032 03F08003 		and	r3, r3, #128
 2170 0036 002B     		cmp	r3, #0
 2171 0038 F8D0     		beq	.L161
 2172              		.loc 5 517 0 is_stmt 1
 2173 003a 039B     		ldr	r3, [sp, #12]
 2174 003c 9B6C     		ldr	r3, [r3, #72]
 2175 003e 8022     		movs	r2, #128
 2176 0040 9A63     		str	r2, [r3, #56]
 2177              		.loc 5 518 0
 2178 0042 00BF     		nop
 2179 0044 044B     		ldr	r3, .L163
 2180 0046 059A     		ldr	r2, [sp, #20]
 2181 0048 1B68     		ldr	r3, [r3]
 2182 004a 9A42     		cmp	r2, r3
 2183 004c 01D0     		beq	.L162
 2184 004e FFF7FEFF 		bl	__stack_chk_fail
 2185              	.L162:
 2186 0052 07B0     		add	sp, sp, #28
 2187              		.cfi_def_cfa_offset 4
 2188              		@ sp needed
 2189 0054 5DF804FB 		ldr	pc, [sp], #4
 2190              	.L164:
 2191              		.align	2
 2192              	.L163:
 2193 0058 00000000 		.word	__stack_chk_guard
 2194              		.cfi_endproc
 2195              	.LFE270:
 2196              		.size	sdc_lld_send_cmd_none, .-sdc_lld_send_cmd_none
 2197              		.section	.text.sdc_lld_send_cmd_short,"ax",%progbits
 2198              		.align	1
 2199              		.p2align 4,,15
 2200              		.global	sdc_lld_send_cmd_short
 2201              		.syntax unified
 2202              		.thumb
 2203              		.thumb_func
 2204              		.fpu fpv4-sp-d16
 2205              		.type	sdc_lld_send_cmd_short, %function
 2206              	sdc_lld_send_cmd_short:
 2207              	.LFB271:
 2208              		.loc 5 536 0
 2209              		.cfi_startproc
 2210              		@ args = 0, pretend = 0, frame = 24
 2211              		@ frame_needed = 0, uses_anonymous_args = 0
 2212 0000 00B5     		push	{lr}
 2213              		.cfi_def_cfa_offset 4
 2214              		.cfi_offset 14, -4
 2215 0002 87B0     		sub	sp, sp, #28
ARM GAS  C:\Users\PCHAUT~1\AppData\Local\Temp\ccORgsmL.s 			page 40


 2216              		.cfi_def_cfa_offset 32
 2217 0004 0390     		str	r0, [sp, #12]
 2218 0006 0192     		str	r2, [sp, #4]
 2219 0008 0093     		str	r3, [sp]
 2220 000a 0B46     		mov	r3, r1
 2221 000c 8DF80B30 		strb	r3, [sp, #11]
 2222              		.loc 5 536 0
 2223 0010 1E4B     		ldr	r3, .L170
 2224 0012 1B68     		ldr	r3, [r3]
 2225 0014 0593     		str	r3, [sp, #20]
 2226              		.loc 5 539 0
 2227 0016 039B     		ldr	r3, [sp, #12]
 2228 0018 9B6C     		ldr	r3, [r3, #72]
 2229 001a 019A     		ldr	r2, [sp, #4]
 2230 001c 9A60     		str	r2, [r3, #8]
 2231              		.loc 5 540 0
 2232 001e 9DF80B30 		ldrb	r3, [sp, #11]
 2233 0022 43F04003 		orr	r3, r3, #64
 2234 0026 DBB2     		uxtb	r3, r3
 2235 0028 1A46     		mov	r2, r3
 2236 002a 039B     		ldr	r3, [sp, #12]
 2237 002c 9B6C     		ldr	r3, [r3, #72]
 2238 002e 42F48062 		orr	r2, r2, #1024
 2239 0032 DA60     		str	r2, [r3, #12]
 2240              		.loc 5 541 0
 2241 0034 00BF     		nop
 2242              	.L166:
 2243              		.loc 5 541 0 is_stmt 0 discriminator 1
 2244 0036 039B     		ldr	r3, [sp, #12]
 2245 0038 9B6C     		ldr	r3, [r3, #72]
 2246 003a 5B6B     		ldr	r3, [r3, #52]
 2247 003c 0493     		str	r3, [sp, #16]
 2248 003e 049B     		ldr	r3, [sp, #16]
 2249 0040 03F04503 		and	r3, r3, #69
 2250 0044 002B     		cmp	r3, #0
 2251 0046 F6D0     		beq	.L166
 2252              		.loc 5 544 0 is_stmt 1
 2253 0048 039B     		ldr	r3, [sp, #12]
 2254 004a 9B6C     		ldr	r3, [r3, #72]
 2255 004c 049A     		ldr	r2, [sp, #16]
 2256 004e 02F04502 		and	r2, r2, #69
 2257 0052 9A63     		str	r2, [r3, #56]
 2258              		.loc 5 546 0
 2259 0054 049B     		ldr	r3, [sp, #16]
 2260 0056 03F00403 		and	r3, r3, #4
 2261 005a 002B     		cmp	r3, #0
 2262 005c 05D0     		beq	.L167
 2263              		.loc 5 547 0
 2264 005e 0499     		ldr	r1, [sp, #16]
 2265 0060 0398     		ldr	r0, [sp, #12]
 2266 0062 FFF7FEFF 		bl	sdc_lld_collect_errors
 2267              		.loc 5 548 0
 2268 0066 0123     		movs	r3, #1
 2269 0068 05E0     		b	.L168
 2270              	.L167:
 2271              		.loc 5 550 0
 2272 006a 039B     		ldr	r3, [sp, #12]
ARM GAS  C:\Users\PCHAUT~1\AppData\Local\Temp\ccORgsmL.s 			page 41


 2273 006c 9B6C     		ldr	r3, [r3, #72]
 2274 006e 5A69     		ldr	r2, [r3, #20]
 2275 0070 009B     		ldr	r3, [sp]
 2276 0072 1A60     		str	r2, [r3]
 2277              		.loc 5 551 0
 2278 0074 0023     		movs	r3, #0
 2279              	.L168:
 2280              		.loc 5 552 0
 2281 0076 1846     		mov	r0, r3
 2282 0078 044B     		ldr	r3, .L170
 2283 007a 059A     		ldr	r2, [sp, #20]
 2284 007c 1B68     		ldr	r3, [r3]
 2285 007e 9A42     		cmp	r2, r3
 2286 0080 01D0     		beq	.L169
 2287 0082 FFF7FEFF 		bl	__stack_chk_fail
 2288              	.L169:
 2289 0086 07B0     		add	sp, sp, #28
 2290              		.cfi_def_cfa_offset 4
 2291              		@ sp needed
 2292 0088 5DF804FB 		ldr	pc, [sp], #4
 2293              	.L171:
 2294              		.align	2
 2295              	.L170:
 2296 008c 00000000 		.word	__stack_chk_guard
 2297              		.cfi_endproc
 2298              	.LFE271:
 2299              		.size	sdc_lld_send_cmd_short, .-sdc_lld_send_cmd_short
 2300              		.section	.text.sdc_lld_send_cmd_short_crc,"ax",%progbits
 2301              		.align	1
 2302              		.p2align 4,,15
 2303              		.global	sdc_lld_send_cmd_short_crc
 2304              		.syntax unified
 2305              		.thumb
 2306              		.thumb_func
 2307              		.fpu fpv4-sp-d16
 2308              		.type	sdc_lld_send_cmd_short_crc, %function
 2309              	sdc_lld_send_cmd_short_crc:
 2310              	.LFB272:
 2311              		.loc 5 569 0
 2312              		.cfi_startproc
 2313              		@ args = 0, pretend = 0, frame = 24
 2314              		@ frame_needed = 0, uses_anonymous_args = 0
 2315 0000 00B5     		push	{lr}
 2316              		.cfi_def_cfa_offset 4
 2317              		.cfi_offset 14, -4
 2318 0002 87B0     		sub	sp, sp, #28
 2319              		.cfi_def_cfa_offset 32
 2320 0004 0390     		str	r0, [sp, #12]
 2321 0006 0192     		str	r2, [sp, #4]
 2322 0008 0093     		str	r3, [sp]
 2323 000a 0B46     		mov	r3, r1
 2324 000c 8DF80B30 		strb	r3, [sp, #11]
 2325              		.loc 5 569 0
 2326 0010 1E4B     		ldr	r3, .L177
 2327 0012 1B68     		ldr	r3, [r3]
 2328 0014 0593     		str	r3, [sp, #20]
 2329              		.loc 5 572 0
ARM GAS  C:\Users\PCHAUT~1\AppData\Local\Temp\ccORgsmL.s 			page 42


 2330 0016 039B     		ldr	r3, [sp, #12]
 2331 0018 9B6C     		ldr	r3, [r3, #72]
 2332 001a 019A     		ldr	r2, [sp, #4]
 2333 001c 9A60     		str	r2, [r3, #8]
 2334              		.loc 5 573 0
 2335 001e 9DF80B30 		ldrb	r3, [sp, #11]
 2336 0022 43F04003 		orr	r3, r3, #64
 2337 0026 DBB2     		uxtb	r3, r3
 2338 0028 1A46     		mov	r2, r3
 2339 002a 039B     		ldr	r3, [sp, #12]
 2340 002c 9B6C     		ldr	r3, [r3, #72]
 2341 002e 42F48062 		orr	r2, r2, #1024
 2342 0032 DA60     		str	r2, [r3, #12]
 2343              		.loc 5 574 0
 2344 0034 00BF     		nop
 2345              	.L173:
 2346              		.loc 5 574 0 is_stmt 0 discriminator 1
 2347 0036 039B     		ldr	r3, [sp, #12]
 2348 0038 9B6C     		ldr	r3, [r3, #72]
 2349 003a 5B6B     		ldr	r3, [r3, #52]
 2350 003c 0493     		str	r3, [sp, #16]
 2351 003e 049B     		ldr	r3, [sp, #16]
 2352 0040 03F04503 		and	r3, r3, #69
 2353 0044 002B     		cmp	r3, #0
 2354 0046 F6D0     		beq	.L173
 2355              		.loc 5 577 0 is_stmt 1
 2356 0048 039B     		ldr	r3, [sp, #12]
 2357 004a 9B6C     		ldr	r3, [r3, #72]
 2358 004c 049A     		ldr	r2, [sp, #16]
 2359 004e 02F04502 		and	r2, r2, #69
 2360 0052 9A63     		str	r2, [r3, #56]
 2361              		.loc 5 578 0
 2362 0054 049B     		ldr	r3, [sp, #16]
 2363 0056 03F00503 		and	r3, r3, #5
 2364 005a 002B     		cmp	r3, #0
 2365 005c 05D0     		beq	.L174
 2366              		.loc 5 579 0
 2367 005e 0499     		ldr	r1, [sp, #16]
 2368 0060 0398     		ldr	r0, [sp, #12]
 2369 0062 FFF7FEFF 		bl	sdc_lld_collect_errors
 2370              		.loc 5 580 0
 2371 0066 0123     		movs	r3, #1
 2372 0068 05E0     		b	.L175
 2373              	.L174:
 2374              		.loc 5 582 0
 2375 006a 039B     		ldr	r3, [sp, #12]
 2376 006c 9B6C     		ldr	r3, [r3, #72]
 2377 006e 5A69     		ldr	r2, [r3, #20]
 2378 0070 009B     		ldr	r3, [sp]
 2379 0072 1A60     		str	r2, [r3]
 2380              		.loc 5 583 0
 2381 0074 0023     		movs	r3, #0
 2382              	.L175:
 2383              		.loc 5 584 0
 2384 0076 1846     		mov	r0, r3
 2385 0078 044B     		ldr	r3, .L177
 2386 007a 059A     		ldr	r2, [sp, #20]
ARM GAS  C:\Users\PCHAUT~1\AppData\Local\Temp\ccORgsmL.s 			page 43


 2387 007c 1B68     		ldr	r3, [r3]
 2388 007e 9A42     		cmp	r2, r3
 2389 0080 01D0     		beq	.L176
 2390 0082 FFF7FEFF 		bl	__stack_chk_fail
 2391              	.L176:
 2392 0086 07B0     		add	sp, sp, #28
 2393              		.cfi_def_cfa_offset 4
 2394              		@ sp needed
 2395 0088 5DF804FB 		ldr	pc, [sp], #4
 2396              	.L178:
 2397              		.align	2
 2398              	.L177:
 2399 008c 00000000 		.word	__stack_chk_guard
 2400              		.cfi_endproc
 2401              	.LFE272:
 2402              		.size	sdc_lld_send_cmd_short_crc, .-sdc_lld_send_cmd_short_crc
 2403              		.section	.text.sdc_lld_send_cmd_long_crc,"ax",%progbits
 2404              		.align	1
 2405              		.p2align 4,,15
 2406              		.global	sdc_lld_send_cmd_long_crc
 2407              		.syntax unified
 2408              		.thumb
 2409              		.thumb_func
 2410              		.fpu fpv4-sp-d16
 2411              		.type	sdc_lld_send_cmd_long_crc, %function
 2412              	sdc_lld_send_cmd_long_crc:
 2413              	.LFB273:
 2414              		.loc 5 601 0
 2415              		.cfi_startproc
 2416              		@ args = 0, pretend = 0, frame = 24
 2417              		@ frame_needed = 0, uses_anonymous_args = 0
 2418 0000 00B5     		push	{lr}
 2419              		.cfi_def_cfa_offset 4
 2420              		.cfi_offset 14, -4
 2421 0002 87B0     		sub	sp, sp, #28
 2422              		.cfi_def_cfa_offset 32
 2423 0004 0390     		str	r0, [sp, #12]
 2424 0006 0192     		str	r2, [sp, #4]
 2425 0008 0093     		str	r3, [sp]
 2426 000a 0B46     		mov	r3, r1
 2427 000c 8DF80B30 		strb	r3, [sp, #11]
 2428              		.loc 5 601 0
 2429 0010 294B     		ldr	r3, .L184
 2430 0012 1B68     		ldr	r3, [r3]
 2431 0014 0593     		str	r3, [sp, #20]
 2432              		.loc 5 606 0
 2433 0016 039B     		ldr	r3, [sp, #12]
 2434 0018 9B6C     		ldr	r3, [r3, #72]
 2435 001a 019A     		ldr	r2, [sp, #4]
 2436 001c 9A60     		str	r2, [r3, #8]
 2437              		.loc 5 607 0
 2438 001e 9DF80B30 		ldrb	r3, [sp, #11]
 2439 0022 63F03F03 		orn	r3, r3, #63
 2440 0026 DBB2     		uxtb	r3, r3
 2441 0028 1A46     		mov	r2, r3
 2442 002a 039B     		ldr	r3, [sp, #12]
 2443 002c 9B6C     		ldr	r3, [r3, #72]
ARM GAS  C:\Users\PCHAUT~1\AppData\Local\Temp\ccORgsmL.s 			page 44


 2444 002e 42F48062 		orr	r2, r2, #1024
 2445 0032 DA60     		str	r2, [r3, #12]
 2446              		.loc 5 609 0
 2447 0034 00BF     		nop
 2448              	.L180:
 2449              		.loc 5 609 0 is_stmt 0 discriminator 1
 2450 0036 039B     		ldr	r3, [sp, #12]
 2451 0038 9B6C     		ldr	r3, [r3, #72]
 2452 003a 5B6B     		ldr	r3, [r3, #52]
 2453 003c 0493     		str	r3, [sp, #16]
 2454 003e 049B     		ldr	r3, [sp, #16]
 2455 0040 03F04503 		and	r3, r3, #69
 2456 0044 002B     		cmp	r3, #0
 2457 0046 F6D0     		beq	.L180
 2458              		.loc 5 612 0 is_stmt 1
 2459 0048 039B     		ldr	r3, [sp, #12]
 2460 004a 9B6C     		ldr	r3, [r3, #72]
 2461 004c 049A     		ldr	r2, [sp, #16]
 2462 004e 02F04502 		and	r2, r2, #69
 2463 0052 9A63     		str	r2, [r3, #56]
 2464              		.loc 5 614 0
 2465 0054 049B     		ldr	r3, [sp, #16]
 2466 0056 03F03F03 		and	r3, r3, #63
 2467 005a 002B     		cmp	r3, #0
 2468 005c 05D0     		beq	.L181
 2469              		.loc 5 615 0
 2470 005e 0499     		ldr	r1, [sp, #16]
 2471 0060 0398     		ldr	r0, [sp, #12]
 2472 0062 FFF7FEFF 		bl	sdc_lld_collect_errors
 2473              		.loc 5 616 0
 2474 0066 0123     		movs	r3, #1
 2475 0068 1AE0     		b	.L182
 2476              	.L181:
 2477              		.loc 5 619 0
 2478 006a 039B     		ldr	r3, [sp, #12]
 2479 006c 9A6C     		ldr	r2, [r3, #72]
 2480 006e 009B     		ldr	r3, [sp]
 2481 0070 191D     		adds	r1, r3, #4
 2482 0072 0091     		str	r1, [sp]
 2483 0074 126A     		ldr	r2, [r2, #32]
 2484 0076 1A60     		str	r2, [r3]
 2485              		.loc 5 620 0
 2486 0078 039B     		ldr	r3, [sp, #12]
 2487 007a 9A6C     		ldr	r2, [r3, #72]
 2488 007c 009B     		ldr	r3, [sp]
 2489 007e 191D     		adds	r1, r3, #4
 2490 0080 0091     		str	r1, [sp]
 2491 0082 D269     		ldr	r2, [r2, #28]
 2492 0084 1A60     		str	r2, [r3]
 2493              		.loc 5 621 0
 2494 0086 039B     		ldr	r3, [sp, #12]
 2495 0088 9A6C     		ldr	r2, [r3, #72]
 2496 008a 009B     		ldr	r3, [sp]
 2497 008c 191D     		adds	r1, r3, #4
 2498 008e 0091     		str	r1, [sp]
 2499 0090 9269     		ldr	r2, [r2, #24]
 2500 0092 1A60     		str	r2, [r3]
ARM GAS  C:\Users\PCHAUT~1\AppData\Local\Temp\ccORgsmL.s 			page 45


 2501              		.loc 5 622 0
 2502 0094 039B     		ldr	r3, [sp, #12]
 2503 0096 9B6C     		ldr	r3, [r3, #72]
 2504 0098 5A69     		ldr	r2, [r3, #20]
 2505 009a 009B     		ldr	r3, [sp]
 2506 009c 1A60     		str	r2, [r3]
 2507              		.loc 5 623 0
 2508 009e 0023     		movs	r3, #0
 2509              	.L182:
 2510              		.loc 5 624 0
 2511 00a0 1846     		mov	r0, r3
 2512 00a2 054B     		ldr	r3, .L184
 2513 00a4 059A     		ldr	r2, [sp, #20]
 2514 00a6 1B68     		ldr	r3, [r3]
 2515 00a8 9A42     		cmp	r2, r3
 2516 00aa 01D0     		beq	.L183
 2517 00ac FFF7FEFF 		bl	__stack_chk_fail
 2518              	.L183:
 2519 00b0 07B0     		add	sp, sp, #28
 2520              		.cfi_def_cfa_offset 4
 2521              		@ sp needed
 2522 00b2 5DF804FB 		ldr	pc, [sp], #4
 2523              	.L185:
 2524 00b6 00BF     		.align	2
 2525              	.L184:
 2526 00b8 00000000 		.word	__stack_chk_guard
 2527              		.cfi_endproc
 2528              	.LFE273:
 2529              		.size	sdc_lld_send_cmd_long_crc, .-sdc_lld_send_cmd_long_crc
 2530              		.section	.text.sdc_lld_read_special,"ax",%progbits
 2531              		.align	1
 2532              		.p2align 4,,15
 2533              		.global	sdc_lld_read_special
 2534              		.syntax unified
 2535              		.thumb
 2536              		.thumb_func
 2537              		.fpu fpv4-sp-d16
 2538              		.type	sdc_lld_read_special, %function
 2539              	sdc_lld_read_special:
 2540              	.LFB274:
 2541              		.loc 5 643 0
 2542              		.cfi_startproc
 2543              		@ args = 4, pretend = 0, frame = 32
 2544              		@ frame_needed = 0, uses_anonymous_args = 0
 2545 0000 00B5     		push	{lr}
 2546              		.cfi_def_cfa_offset 4
 2547              		.cfi_offset 14, -4
 2548 0002 89B0     		sub	sp, sp, #36
 2549              		.cfi_def_cfa_offset 40
 2550 0004 0590     		str	r0, [sp, #20]
 2551 0006 0491     		str	r1, [sp, #16]
 2552 0008 0392     		str	r2, [sp, #12]
 2553 000a 8DF80B30 		strb	r3, [sp, #11]
 2554 000e 0A9B     		ldr	r3, [sp, #40]
 2555 0010 0193     		str	r3, [sp, #4]
 2556              		.loc 5 643 0
 2557 0012 1E4B     		ldr	r3, .L196
ARM GAS  C:\Users\PCHAUT~1\AppData\Local\Temp\ccORgsmL.s 			page 46


 2558 0014 1B68     		ldr	r3, [r3]
 2559 0016 0793     		str	r3, [sp, #28]
 2560              		.loc 5 646 0
 2561 0018 039A     		ldr	r2, [sp, #12]
 2562 001a 0499     		ldr	r1, [sp, #16]
 2563 001c 0598     		ldr	r0, [sp, #20]
 2564 001e FFF7FEFF 		bl	sdc_lld_prepare_read_bytes
 2565 0022 0346     		mov	r3, r0
 2566 0024 002B     		cmp	r3, #0
 2567 0026 19D1     		bne	.L193
 2568              		.loc 5 649 0
 2569 0028 06AB     		add	r3, sp, #24
 2570 002a 9DF80B10 		ldrb	r1, [sp, #11]	@ zero_extendqisi2
 2571 002e 019A     		ldr	r2, [sp, #4]
 2572 0030 0598     		ldr	r0, [sp, #20]
 2573 0032 FFF7FEFF 		bl	sdc_lld_send_cmd_short_crc
 2574 0036 0346     		mov	r3, r0
 2575 0038 002B     		cmp	r3, #0
 2576 003a 11D1     		bne	.L194
 2577              		.loc 5 650 0
 2578 003c 069A     		ldr	r2, [sp, #24]
 2579 003e 144B     		ldr	r3, .L196+4
 2580 0040 1340     		ands	r3, r3, r2
 2581 0042 002B     		cmp	r3, #0
 2582 0044 0CD1     		bne	.L194
 2583              		.loc 5 653 0
 2584 0046 06AB     		add	r3, sp, #24
 2585 0048 1A46     		mov	r2, r3
 2586 004a 0121     		movs	r1, #1
 2587 004c 0598     		ldr	r0, [sp, #20]
 2588 004e FFF7FEFF 		bl	sdc_lld_wait_transaction_end
 2589 0052 0346     		mov	r3, r0
 2590 0054 002B     		cmp	r3, #0
 2591 0056 05D1     		bne	.L195
 2592              		.loc 5 656 0
 2593 0058 0023     		movs	r3, #0
 2594 005a 0BE0     		b	.L191
 2595              	.L193:
 2596              		.loc 5 647 0
 2597 005c 00BF     		nop
 2598 005e 02E0     		b	.L188
 2599              	.L194:
 2600              		.loc 5 658 0
 2601 0060 00BF     		nop
 2602 0062 00E0     		b	.L188
 2603              	.L195:
 2604              		.loc 5 654 0
 2605 0064 00BF     		nop
 2606              	.L188:
 2607              		.loc 5 659 0
 2608 0066 06AB     		add	r3, sp, #24
 2609 0068 1A46     		mov	r2, r3
 2610 006a 0121     		movs	r1, #1
 2611 006c 0598     		ldr	r0, [sp, #20]
 2612 006e FFF7FEFF 		bl	sdc_lld_error_cleanup
 2613              		.loc 5 660 0
 2614 0072 0123     		movs	r3, #1
ARM GAS  C:\Users\PCHAUT~1\AppData\Local\Temp\ccORgsmL.s 			page 47


 2615              	.L191:
 2616              		.loc 5 661 0 discriminator 1
 2617 0074 1846     		mov	r0, r3
 2618 0076 054B     		ldr	r3, .L196
 2619 0078 079A     		ldr	r2, [sp, #28]
 2620 007a 1B68     		ldr	r3, [r3]
 2621 007c 9A42     		cmp	r2, r3
 2622 007e 01D0     		beq	.L192
 2623              		.loc 5 661 0 is_stmt 0
 2624 0080 FFF7FEFF 		bl	__stack_chk_fail
 2625              	.L192:
 2626 0084 09B0     		add	sp, sp, #36
 2627              		.cfi_def_cfa_offset 4
 2628              		@ sp needed
 2629 0086 5DF804FB 		ldr	pc, [sp], #4
 2630              	.L197:
 2631 008a 00BF     		.align	2
 2632              	.L196:
 2633 008c 00000000 		.word	__stack_chk_guard
 2634 0090 08E0FFFD 		.word	-33562616
 2635              		.cfi_endproc
 2636              	.LFE274:
 2637              		.size	sdc_lld_read_special, .-sdc_lld_read_special
 2638              		.section	.text.sdc_lld_read_aligned,"ax",%progbits
 2639              		.align	1
 2640              		.p2align 4,,15
 2641              		.global	sdc_lld_read_aligned
 2642              		.syntax unified
 2643              		.thumb
 2644              		.thumb_func
 2645              		.fpu fpv4-sp-d16
 2646              		.type	sdc_lld_read_aligned, %function
 2647              	sdc_lld_read_aligned:
 2648              	.LFB275:
 2649              		.loc 5 678 0 is_stmt 1
 2650              		.cfi_startproc
 2651              		@ args = 0, pretend = 0, frame = 24
 2652              		@ frame_needed = 0, uses_anonymous_args = 0
 2653 0000 00B5     		push	{lr}
 2654              		.cfi_def_cfa_offset 4
 2655              		.cfi_offset 14, -4
 2656 0002 87B0     		sub	sp, sp, #28
 2657              		.cfi_def_cfa_offset 32
 2658 0004 0390     		str	r0, [sp, #12]
 2659 0006 0291     		str	r1, [sp, #8]
 2660 0008 0192     		str	r2, [sp, #4]
 2661 000a 0093     		str	r3, [sp]
 2662              		.loc 5 678 0
 2663 000c 364B     		ldr	r3, .L209
 2664 000e 1B68     		ldr	r3, [r3]
 2665 0010 0593     		str	r3, [sp, #20]
 2666              		.loc 5 681 0
 2667 0012 009B     		ldr	r3, [sp]
 2668 0014 B3F5004F 		cmp	r3, #32768
 2669 0018 02D3     		bcc	.L199
 2670              		.loc 5 681 0 is_stmt 0 discriminator 2
 2671 001a 3448     		ldr	r0, .L209+4
ARM GAS  C:\Users\PCHAUT~1\AppData\Local\Temp\ccORgsmL.s 			page 48


 2672 001c FFF7FEFF 		bl	chSysHalt
 2673              	.L199:
 2674              		.loc 5 683 0 is_stmt 1
 2675 0020 039B     		ldr	r3, [sp, #12]
 2676 0022 9B6C     		ldr	r3, [r3, #72]
 2677 0024 324A     		ldr	r2, .L209+8
 2678 0026 5A62     		str	r2, [r3, #36]
 2679              		.loc 5 686 0
 2680 0028 0398     		ldr	r0, [sp, #12]
 2681 002a FFF7FEFF 		bl	_sdc_wait_for_transfer_state
 2682 002e 0346     		mov	r3, r0
 2683 0030 002B     		cmp	r3, #0
 2684 0032 01D0     		beq	.L200
 2685              		.loc 5 687 0
 2686 0034 0123     		movs	r3, #1
 2687 0036 4BE0     		b	.L205
 2688              	.L200:
 2689              		.loc 5 690 0
 2690 0038 039B     		ldr	r3, [sp, #12]
 2691 003a 5B6C     		ldr	r3, [r3, #68]
 2692 003c 1B68     		ldr	r3, [r3]
 2693 003e 019A     		ldr	r2, [sp, #4]
 2694 0040 DA60     		str	r2, [r3, #12]
 2695              		.loc 5 691 0
 2696 0042 009B     		ldr	r3, [sp]
 2697 0044 5A02     		lsls	r2, r3, #9
 2698 0046 039B     		ldr	r3, [sp, #12]
 2699 0048 5B6C     		ldr	r3, [r3, #68]
 2700 004a 1B68     		ldr	r3, [r3]
 2701 004c 9208     		lsrs	r2, r2, #2
 2702 004e 5A60     		str	r2, [r3, #4]
 2703              		.loc 5 693 0
 2704 0050 039B     		ldr	r3, [sp, #12]
 2705 0052 5B6C     		ldr	r3, [r3, #68]
 2706 0054 1B68     		ldr	r3, [r3]
 2707 0056 039A     		ldr	r2, [sp, #12]
 2708 0058 126C     		ldr	r2, [r2, #64]
 2709 005a 1A60     		str	r2, [r3]
 2710              		.loc 5 694 0
 2711 005c 039B     		ldr	r3, [sp, #12]
 2712 005e 5B6C     		ldr	r3, [r3, #68]
 2713 0060 1B68     		ldr	r3, [r3]
 2714 0062 1A68     		ldr	r2, [r3]
 2715 0064 039B     		ldr	r3, [sp, #12]
 2716 0066 5B6C     		ldr	r3, [r3, #68]
 2717 0068 1B68     		ldr	r3, [r3]
 2718 006a 42F00102 		orr	r2, r2, #1
 2719 006e 1A60     		str	r2, [r3]
 2720              		.loc 5 697 0
 2721 0070 039B     		ldr	r3, [sp, #12]
 2722 0072 9B6C     		ldr	r3, [r3, #72]
 2723 0074 1F4A     		ldr	r2, .L209+12
 2724 0076 9A63     		str	r2, [r3, #56]
 2725              		.loc 5 698 0
 2726 0078 039B     		ldr	r3, [sp, #12]
 2727 007a 9B6C     		ldr	r3, [r3, #72]
 2728 007c 40F22A32 		movw	r2, #810
ARM GAS  C:\Users\PCHAUT~1\AppData\Local\Temp\ccORgsmL.s 			page 49


 2729 0080 DA63     		str	r2, [r3, #60]
 2730              		.loc 5 703 0
 2731 0082 039B     		ldr	r3, [sp, #12]
 2732 0084 9B6C     		ldr	r3, [r3, #72]
 2733 0086 009A     		ldr	r2, [sp]
 2734 0088 5202     		lsls	r2, r2, #9
 2735 008a 9A62     		str	r2, [r3, #40]
 2736              		.loc 5 706 0
 2737 008c 039B     		ldr	r3, [sp, #12]
 2738 008e 9B6C     		ldr	r3, [r3, #72]
 2739 0090 9B22     		movs	r2, #155
 2740 0092 DA62     		str	r2, [r3, #44]
 2741              		.loc 5 712 0
 2742 0094 04AB     		add	r3, sp, #16
 2743 0096 009A     		ldr	r2, [sp]
 2744 0098 0299     		ldr	r1, [sp, #8]
 2745 009a 0398     		ldr	r0, [sp, #12]
 2746 009c FFF7FEFF 		bl	sdc_lld_prepare_read
 2747 00a0 0346     		mov	r3, r0
 2748 00a2 002B     		cmp	r3, #0
 2749 00a4 0AD1     		bne	.L207
 2750              		.loc 5 715 0
 2751 00a6 04AB     		add	r3, sp, #16
 2752 00a8 1A46     		mov	r2, r3
 2753 00aa 0099     		ldr	r1, [sp]
 2754 00ac 0398     		ldr	r0, [sp, #12]
 2755 00ae FFF7FEFF 		bl	sdc_lld_wait_transaction_end
 2756 00b2 0346     		mov	r3, r0
 2757 00b4 002B     		cmp	r3, #0
 2758 00b6 03D1     		bne	.L208
 2759              		.loc 5 718 0
 2760 00b8 0023     		movs	r3, #0
 2761 00ba 09E0     		b	.L205
 2762              	.L207:
 2763              		.loc 5 713 0
 2764 00bc 00BF     		nop
 2765 00be 00E0     		b	.L203
 2766              	.L208:
 2767              		.loc 5 716 0
 2768 00c0 00BF     		nop
 2769              	.L203:
 2770              		.loc 5 721 0
 2771 00c2 04AB     		add	r3, sp, #16
 2772 00c4 1A46     		mov	r2, r3
 2773 00c6 0099     		ldr	r1, [sp]
 2774 00c8 0398     		ldr	r0, [sp, #12]
 2775 00ca FFF7FEFF 		bl	sdc_lld_error_cleanup
 2776              		.loc 5 722 0
 2777 00ce 0123     		movs	r3, #1
 2778              	.L205:
 2779              		.loc 5 723 0 discriminator 1
 2780 00d0 1846     		mov	r0, r3
 2781 00d2 054B     		ldr	r3, .L209
 2782 00d4 059A     		ldr	r2, [sp, #20]
 2783 00d6 1B68     		ldr	r3, [r3]
 2784 00d8 9A42     		cmp	r2, r3
 2785 00da 01D0     		beq	.L206
ARM GAS  C:\Users\PCHAUT~1\AppData\Local\Temp\ccORgsmL.s 			page 50


 2786              		.loc 5 723 0 is_stmt 0
 2787 00dc FFF7FEFF 		bl	__stack_chk_fail
 2788              	.L206:
 2789 00e0 07B0     		add	sp, sp, #28
 2790              		.cfi_def_cfa_offset 4
 2791              		@ sp needed
 2792 00e2 5DF804FB 		ldr	pc, [sp], #4
 2793              	.L210:
 2794 00e6 00BF     		.align	2
 2795              	.L209:
 2796 00e8 00000000 		.word	__stack_chk_guard
 2797 00ec 00000000 		.word	__func__.10372
 2798 00f0 C0270900 		.word	600000
 2799 00f4 FF07C000 		.word	12584959
 2800              		.cfi_endproc
 2801              	.LFE275:
 2802              		.size	sdc_lld_read_aligned, .-sdc_lld_read_aligned
 2803              		.section	.text.sdc_lld_write_aligned,"ax",%progbits
 2804              		.align	1
 2805              		.p2align 4,,15
 2806              		.global	sdc_lld_write_aligned
 2807              		.syntax unified
 2808              		.thumb
 2809              		.thumb_func
 2810              		.fpu fpv4-sp-d16
 2811              		.type	sdc_lld_write_aligned, %function
 2812              	sdc_lld_write_aligned:
 2813              	.LFB276:
 2814              		.loc 5 740 0 is_stmt 1
 2815              		.cfi_startproc
 2816              		@ args = 0, pretend = 0, frame = 24
 2817              		@ frame_needed = 0, uses_anonymous_args = 0
 2818 0000 00B5     		push	{lr}
 2819              		.cfi_def_cfa_offset 4
 2820              		.cfi_offset 14, -4
 2821 0002 87B0     		sub	sp, sp, #28
 2822              		.cfi_def_cfa_offset 32
 2823 0004 0390     		str	r0, [sp, #12]
 2824 0006 0291     		str	r1, [sp, #8]
 2825 0008 0192     		str	r2, [sp, #4]
 2826 000a 0093     		str	r3, [sp]
 2827              		.loc 5 740 0
 2828 000c 374B     		ldr	r3, .L222
 2829 000e 1B68     		ldr	r3, [r3]
 2830 0010 0593     		str	r3, [sp, #20]
 2831              		.loc 5 743 0
 2832 0012 009B     		ldr	r3, [sp]
 2833 0014 B3F5004F 		cmp	r3, #32768
 2834 0018 02D3     		bcc	.L212
 2835              		.loc 5 743 0 is_stmt 0 discriminator 2
 2836 001a 3548     		ldr	r0, .L222+4
 2837 001c FFF7FEFF 		bl	chSysHalt
 2838              	.L212:
 2839              		.loc 5 745 0 is_stmt 1
 2840 0020 039B     		ldr	r3, [sp, #12]
 2841 0022 9B6C     		ldr	r3, [r3, #72]
 2842 0024 334A     		ldr	r2, .L222+8
ARM GAS  C:\Users\PCHAUT~1\AppData\Local\Temp\ccORgsmL.s 			page 51


 2843 0026 5A62     		str	r2, [r3, #36]
 2844              		.loc 5 748 0
 2845 0028 0398     		ldr	r0, [sp, #12]
 2846 002a FFF7FEFF 		bl	_sdc_wait_for_transfer_state
 2847 002e 0346     		mov	r3, r0
 2848 0030 002B     		cmp	r3, #0
 2849 0032 01D0     		beq	.L213
 2850              		.loc 5 749 0
 2851 0034 0123     		movs	r3, #1
 2852 0036 4DE0     		b	.L218
 2853              	.L213:
 2854              		.loc 5 752 0
 2855 0038 039B     		ldr	r3, [sp, #12]
 2856 003a 5B6C     		ldr	r3, [r3, #68]
 2857 003c 1B68     		ldr	r3, [r3]
 2858 003e 019A     		ldr	r2, [sp, #4]
 2859 0040 DA60     		str	r2, [r3, #12]
 2860              		.loc 5 753 0
 2861 0042 009B     		ldr	r3, [sp]
 2862 0044 5A02     		lsls	r2, r3, #9
 2863 0046 039B     		ldr	r3, [sp, #12]
 2864 0048 5B6C     		ldr	r3, [r3, #68]
 2865 004a 1B68     		ldr	r3, [r3]
 2866 004c 9208     		lsrs	r2, r2, #2
 2867 004e 5A60     		str	r2, [r3, #4]
 2868              		.loc 5 755 0
 2869 0050 039B     		ldr	r3, [sp, #12]
 2870 0052 1A6C     		ldr	r2, [r3, #64]
 2871 0054 039B     		ldr	r3, [sp, #12]
 2872 0056 5B6C     		ldr	r3, [r3, #68]
 2873 0058 1B68     		ldr	r3, [r3]
 2874 005a 42F04002 		orr	r2, r2, #64
 2875 005e 1A60     		str	r2, [r3]
 2876              		.loc 5 756 0
 2877 0060 039B     		ldr	r3, [sp, #12]
 2878 0062 5B6C     		ldr	r3, [r3, #68]
 2879 0064 1B68     		ldr	r3, [r3]
 2880 0066 1A68     		ldr	r2, [r3]
 2881 0068 039B     		ldr	r3, [sp, #12]
 2882 006a 5B6C     		ldr	r3, [r3, #68]
 2883 006c 1B68     		ldr	r3, [r3]
 2884 006e 42F00102 		orr	r2, r2, #1
 2885 0072 1A60     		str	r2, [r3]
 2886              		.loc 5 759 0
 2887 0074 039B     		ldr	r3, [sp, #12]
 2888 0076 9B6C     		ldr	r3, [r3, #72]
 2889 0078 1F4A     		ldr	r2, .L222+12
 2890 007a 9A63     		str	r2, [r3, #56]
 2891              		.loc 5 760 0
 2892 007c 039B     		ldr	r3, [sp, #12]
 2893 007e 9B6C     		ldr	r3, [r3, #72]
 2894 0080 40F21A32 		movw	r2, #794
 2895 0084 DA63     		str	r2, [r3, #60]
 2896              		.loc 5 765 0
 2897 0086 039B     		ldr	r3, [sp, #12]
 2898 0088 9B6C     		ldr	r3, [r3, #72]
 2899 008a 009A     		ldr	r2, [sp]
ARM GAS  C:\Users\PCHAUT~1\AppData\Local\Temp\ccORgsmL.s 			page 52


 2900 008c 5202     		lsls	r2, r2, #9
 2901 008e 9A62     		str	r2, [r3, #40]
 2902              		.loc 5 768 0
 2903 0090 04AB     		add	r3, sp, #16
 2904 0092 009A     		ldr	r2, [sp]
 2905 0094 0299     		ldr	r1, [sp, #8]
 2906 0096 0398     		ldr	r0, [sp, #12]
 2907 0098 FFF7FEFF 		bl	sdc_lld_prepare_write
 2908 009c 0346     		mov	r3, r0
 2909 009e 002B     		cmp	r3, #0
 2910 00a0 0ED1     		bne	.L220
 2911              		.loc 5 772 0
 2912 00a2 039B     		ldr	r3, [sp, #12]
 2913 00a4 9B6C     		ldr	r3, [r3, #72]
 2914 00a6 9922     		movs	r2, #153
 2915 00a8 DA62     		str	r2, [r3, #44]
 2916              		.loc 5 777 0
 2917 00aa 04AB     		add	r3, sp, #16
 2918 00ac 1A46     		mov	r2, r3
 2919 00ae 0099     		ldr	r1, [sp]
 2920 00b0 0398     		ldr	r0, [sp, #12]
 2921 00b2 FFF7FEFF 		bl	sdc_lld_wait_transaction_end
 2922 00b6 0346     		mov	r3, r0
 2923 00b8 002B     		cmp	r3, #0
 2924 00ba 03D1     		bne	.L221
 2925              		.loc 5 780 0
 2926 00bc 0023     		movs	r3, #0
 2927 00be 09E0     		b	.L218
 2928              	.L220:
 2929              		.loc 5 769 0
 2930 00c0 00BF     		nop
 2931 00c2 00E0     		b	.L216
 2932              	.L221:
 2933              		.loc 5 778 0
 2934 00c4 00BF     		nop
 2935              	.L216:
 2936              		.loc 5 783 0
 2937 00c6 04AB     		add	r3, sp, #16
 2938 00c8 1A46     		mov	r2, r3
 2939 00ca 0099     		ldr	r1, [sp]
 2940 00cc 0398     		ldr	r0, [sp, #12]
 2941 00ce FFF7FEFF 		bl	sdc_lld_error_cleanup
 2942              		.loc 5 784 0
 2943 00d2 0123     		movs	r3, #1
 2944              	.L218:
 2945              		.loc 5 785 0 discriminator 1
 2946 00d4 1846     		mov	r0, r3
 2947 00d6 054B     		ldr	r3, .L222
 2948 00d8 059A     		ldr	r2, [sp, #20]
 2949 00da 1B68     		ldr	r3, [r3]
 2950 00dc 9A42     		cmp	r2, r3
 2951 00de 01D0     		beq	.L219
 2952              		.loc 5 785 0 is_stmt 0
 2953 00e0 FFF7FEFF 		bl	__stack_chk_fail
 2954              	.L219:
 2955 00e4 07B0     		add	sp, sp, #28
 2956              		.cfi_def_cfa_offset 4
ARM GAS  C:\Users\PCHAUT~1\AppData\Local\Temp\ccORgsmL.s 			page 53


 2957              		@ sp needed
 2958 00e6 5DF804FB 		ldr	pc, [sp], #4
 2959              	.L223:
 2960 00ea 00BF     		.align	2
 2961              	.L222:
 2962 00ec 00000000 		.word	__stack_chk_guard
 2963 00f0 00000000 		.word	__func__.10381
 2964 00f4 808D5B00 		.word	6000000
 2965 00f8 FF07C000 		.word	12584959
 2966              		.cfi_endproc
 2967              	.LFE276:
 2968              		.size	sdc_lld_write_aligned, .-sdc_lld_write_aligned
 2969              		.section	.text.sdc_lld_read,"ax",%progbits
 2970              		.align	1
 2971              		.p2align 4,,15
 2972              		.global	sdc_lld_read
 2973              		.syntax unified
 2974              		.thumb
 2975              		.thumb_func
 2976              		.fpu fpv4-sp-d16
 2977              		.type	sdc_lld_read, %function
 2978              	sdc_lld_read:
 2979              	.LFB277:
 2980              		.loc 5 802 0 is_stmt 1
 2981              		.cfi_startproc
 2982              		@ args = 0, pretend = 0, frame = 24
 2983              		@ frame_needed = 0, uses_anonymous_args = 0
 2984 0000 00B5     		push	{lr}
 2985              		.cfi_def_cfa_offset 4
 2986              		.cfi_offset 14, -4
 2987 0002 87B0     		sub	sp, sp, #28
 2988              		.cfi_def_cfa_offset 32
 2989 0004 0390     		str	r0, [sp, #12]
 2990 0006 0291     		str	r1, [sp, #8]
 2991 0008 0192     		str	r2, [sp, #4]
 2992 000a 0093     		str	r3, [sp]
 2993              		.loc 5 802 0
 2994 000c 204B     		ldr	r3, .L231
 2995 000e 1B68     		ldr	r3, [r3]
 2996 0010 0593     		str	r3, [sp, #20]
 2997              		.loc 5 805 0
 2998 0012 019B     		ldr	r3, [sp, #4]
 2999 0014 03F00303 		and	r3, r3, #3
 3000 0018 002B     		cmp	r3, #0
 3001 001a 26D0     		beq	.L225
 3002              	.LBB11:
 3003              		.loc 5 807 0
 3004 001c 0023     		movs	r3, #0
 3005 001e 0493     		str	r3, [sp, #16]
 3006 0020 1DE0     		b	.L226
 3007              	.L229:
 3008              		.loc 5 808 0
 3009 0022 0123     		movs	r3, #1
 3010 0024 1B4A     		ldr	r2, .L231+4
 3011 0026 0299     		ldr	r1, [sp, #8]
 3012 0028 0398     		ldr	r0, [sp, #12]
 3013 002a FFF7FEFF 		bl	sdc_lld_read_aligned
ARM GAS  C:\Users\PCHAUT~1\AppData\Local\Temp\ccORgsmL.s 			page 54


 3014 002e 0346     		mov	r3, r0
 3015 0030 002B     		cmp	r3, #0
 3016 0032 01D0     		beq	.L227
 3017              		.loc 5 809 0
 3018 0034 0123     		movs	r3, #1
 3019 0036 1FE0     		b	.L228
 3020              	.L227:
 3021              		.loc 5 810 0 discriminator 2
 3022 0038 019B     		ldr	r3, [sp, #4]
 3023 003a 164A     		ldr	r2, .L231+4
 3024 003c 1846     		mov	r0, r3
 3025 003e 1146     		mov	r1, r2
 3026 0040 4FF40073 		mov	r3, #512
 3027 0044 1A46     		mov	r2, r3
 3028 0046 FFF7FEFF 		bl	memcpy
 3029              		.loc 5 811 0 discriminator 2
 3030 004a 019B     		ldr	r3, [sp, #4]
 3031 004c 03F50073 		add	r3, r3, #512
 3032 0050 0193     		str	r3, [sp, #4]
 3033              		.loc 5 812 0 discriminator 2
 3034 0052 029B     		ldr	r3, [sp, #8]
 3035 0054 0133     		adds	r3, r3, #1
 3036 0056 0293     		str	r3, [sp, #8]
 3037              		.loc 5 807 0 discriminator 2
 3038 0058 049B     		ldr	r3, [sp, #16]
 3039 005a 0133     		adds	r3, r3, #1
 3040 005c 0493     		str	r3, [sp, #16]
 3041              	.L226:
 3042              		.loc 5 807 0 is_stmt 0 discriminator 1
 3043 005e 049A     		ldr	r2, [sp, #16]
 3044 0060 009B     		ldr	r3, [sp]
 3045 0062 9A42     		cmp	r2, r3
 3046 0064 DDD3     		bcc	.L229
 3047              		.loc 5 814 0 is_stmt 1
 3048 0066 0023     		movs	r3, #0
 3049 0068 06E0     		b	.L228
 3050              	.L225:
 3051              	.LBE11:
 3052              		.loc 5 817 0
 3053 006a 009B     		ldr	r3, [sp]
 3054 006c 019A     		ldr	r2, [sp, #4]
 3055 006e 0299     		ldr	r1, [sp, #8]
 3056 0070 0398     		ldr	r0, [sp, #12]
 3057 0072 FFF7FEFF 		bl	sdc_lld_read_aligned
 3058 0076 0346     		mov	r3, r0
 3059              	.L228:
 3060              		.loc 5 818 0
 3061 0078 1846     		mov	r0, r3
 3062 007a 054B     		ldr	r3, .L231
 3063 007c 059A     		ldr	r2, [sp, #20]
 3064 007e 1B68     		ldr	r3, [r3]
 3065 0080 9A42     		cmp	r2, r3
 3066 0082 01D0     		beq	.L230
 3067 0084 FFF7FEFF 		bl	__stack_chk_fail
 3068              	.L230:
 3069 0088 07B0     		add	sp, sp, #28
 3070              		.cfi_def_cfa_offset 4
ARM GAS  C:\Users\PCHAUT~1\AppData\Local\Temp\ccORgsmL.s 			page 55


 3071              		@ sp needed
 3072 008a 5DF804FB 		ldr	pc, [sp], #4
 3073              	.L232:
 3074 008e 00BF     		.align	2
 3075              	.L231:
 3076 0090 00000000 		.word	__stack_chk_guard
 3077 0094 00000000 		.word	u
 3078              		.cfi_endproc
 3079              	.LFE277:
 3080              		.size	sdc_lld_read, .-sdc_lld_read
 3081              		.section	.text.sdc_lld_write,"ax",%progbits
 3082              		.align	1
 3083              		.p2align 4,,15
 3084              		.global	sdc_lld_write
 3085              		.syntax unified
 3086              		.thumb
 3087              		.thumb_func
 3088              		.fpu fpv4-sp-d16
 3089              		.type	sdc_lld_write, %function
 3090              	sdc_lld_write:
 3091              	.LFB278:
 3092              		.loc 5 835 0
 3093              		.cfi_startproc
 3094              		@ args = 0, pretend = 0, frame = 24
 3095              		@ frame_needed = 0, uses_anonymous_args = 0
 3096 0000 00B5     		push	{lr}
 3097              		.cfi_def_cfa_offset 4
 3098              		.cfi_offset 14, -4
 3099 0002 87B0     		sub	sp, sp, #28
 3100              		.cfi_def_cfa_offset 32
 3101 0004 0390     		str	r0, [sp, #12]
 3102 0006 0291     		str	r1, [sp, #8]
 3103 0008 0192     		str	r2, [sp, #4]
 3104 000a 0093     		str	r3, [sp]
 3105              		.loc 5 835 0
 3106 000c 204B     		ldr	r3, .L240
 3107 000e 1B68     		ldr	r3, [r3]
 3108 0010 0593     		str	r3, [sp, #20]
 3109              		.loc 5 838 0
 3110 0012 019B     		ldr	r3, [sp, #4]
 3111 0014 03F00303 		and	r3, r3, #3
 3112 0018 002B     		cmp	r3, #0
 3113 001a 26D0     		beq	.L234
 3114              	.LBB12:
 3115              		.loc 5 840 0
 3116 001c 0023     		movs	r3, #0
 3117 001e 0493     		str	r3, [sp, #16]
 3118 0020 1DE0     		b	.L235
 3119              	.L238:
 3120              		.loc 5 841 0
 3121 0022 1C4A     		ldr	r2, .L240+4
 3122 0024 019B     		ldr	r3, [sp, #4]
 3123 0026 1046     		mov	r0, r2
 3124 0028 1946     		mov	r1, r3
 3125 002a 4FF40073 		mov	r3, #512
 3126 002e 1A46     		mov	r2, r3
 3127 0030 FFF7FEFF 		bl	memcpy
ARM GAS  C:\Users\PCHAUT~1\AppData\Local\Temp\ccORgsmL.s 			page 56


 3128              		.loc 5 842 0
 3129 0034 019B     		ldr	r3, [sp, #4]
 3130 0036 03F50073 		add	r3, r3, #512
 3131 003a 0193     		str	r3, [sp, #4]
 3132              		.loc 5 843 0
 3133 003c 0123     		movs	r3, #1
 3134 003e 154A     		ldr	r2, .L240+4
 3135 0040 0299     		ldr	r1, [sp, #8]
 3136 0042 0398     		ldr	r0, [sp, #12]
 3137 0044 FFF7FEFF 		bl	sdc_lld_write_aligned
 3138 0048 0346     		mov	r3, r0
 3139 004a 002B     		cmp	r3, #0
 3140 004c 01D0     		beq	.L236
 3141              		.loc 5 844 0
 3142 004e 0123     		movs	r3, #1
 3143 0050 12E0     		b	.L237
 3144              	.L236:
 3145              		.loc 5 845 0 discriminator 2
 3146 0052 029B     		ldr	r3, [sp, #8]
 3147 0054 0133     		adds	r3, r3, #1
 3148 0056 0293     		str	r3, [sp, #8]
 3149              		.loc 5 840 0 discriminator 2
 3150 0058 049B     		ldr	r3, [sp, #16]
 3151 005a 0133     		adds	r3, r3, #1
 3152 005c 0493     		str	r3, [sp, #16]
 3153              	.L235:
 3154              		.loc 5 840 0 is_stmt 0 discriminator 1
 3155 005e 049A     		ldr	r2, [sp, #16]
 3156 0060 009B     		ldr	r3, [sp]
 3157 0062 9A42     		cmp	r2, r3
 3158 0064 DDD3     		bcc	.L238
 3159              		.loc 5 847 0 is_stmt 1
 3160 0066 0023     		movs	r3, #0
 3161 0068 06E0     		b	.L237
 3162              	.L234:
 3163              	.LBE12:
 3164              		.loc 5 850 0
 3165 006a 009B     		ldr	r3, [sp]
 3166 006c 019A     		ldr	r2, [sp, #4]
 3167 006e 0299     		ldr	r1, [sp, #8]
 3168 0070 0398     		ldr	r0, [sp, #12]
 3169 0072 FFF7FEFF 		bl	sdc_lld_write_aligned
 3170 0076 0346     		mov	r3, r0
 3171              	.L237:
 3172              		.loc 5 851 0
 3173 0078 1846     		mov	r0, r3
 3174 007a 054B     		ldr	r3, .L240
 3175 007c 059A     		ldr	r2, [sp, #20]
 3176 007e 1B68     		ldr	r3, [r3]
 3177 0080 9A42     		cmp	r2, r3
 3178 0082 01D0     		beq	.L239
 3179 0084 FFF7FEFF 		bl	__stack_chk_fail
 3180              	.L239:
 3181 0088 07B0     		add	sp, sp, #28
 3182              		.cfi_def_cfa_offset 4
 3183              		@ sp needed
 3184 008a 5DF804FB 		ldr	pc, [sp], #4
ARM GAS  C:\Users\PCHAUT~1\AppData\Local\Temp\ccORgsmL.s 			page 57


 3185              	.L241:
 3186 008e 00BF     		.align	2
 3187              	.L240:
 3188 0090 00000000 		.word	__stack_chk_guard
 3189 0094 00000000 		.word	u
 3190              		.cfi_endproc
 3191              	.LFE278:
 3192              		.size	sdc_lld_write, .-sdc_lld_write
 3193              		.section	.text.sdc_lld_sync,"ax",%progbits
 3194              		.align	1
 3195              		.p2align 4,,15
 3196              		.global	sdc_lld_sync
 3197              		.syntax unified
 3198              		.thumb
 3199              		.thumb_func
 3200              		.fpu fpv4-sp-d16
 3201              		.type	sdc_lld_sync, %function
 3202              	sdc_lld_sync:
 3203              	.LFB279:
 3204              		.loc 5 864 0
 3205              		.cfi_startproc
 3206              		@ args = 0, pretend = 0, frame = 16
 3207              		@ frame_needed = 0, uses_anonymous_args = 0
 3208 0000 00B5     		push	{lr}
 3209              		.cfi_def_cfa_offset 4
 3210              		.cfi_offset 14, -4
 3211 0002 85B0     		sub	sp, sp, #20
 3212              		.cfi_def_cfa_offset 24
 3213 0004 0190     		str	r0, [sp, #4]
 3214              		.loc 5 864 0
 3215 0006 074B     		ldr	r3, .L245
 3216 0008 1B68     		ldr	r3, [r3]
 3217 000a 0393     		str	r3, [sp, #12]
 3218              		.loc 5 868 0
 3219 000c 0023     		movs	r3, #0
 3220              		.loc 5 869 0
 3221 000e 1846     		mov	r0, r3
 3222 0010 044B     		ldr	r3, .L245
 3223 0012 039A     		ldr	r2, [sp, #12]
 3224 0014 1B68     		ldr	r3, [r3]
 3225 0016 9A42     		cmp	r2, r3
 3226 0018 01D0     		beq	.L244
 3227 001a FFF7FEFF 		bl	__stack_chk_fail
 3228              	.L244:
 3229 001e 05B0     		add	sp, sp, #20
 3230              		.cfi_def_cfa_offset 4
 3231              		@ sp needed
 3232 0020 5DF804FB 		ldr	pc, [sp], #4
 3233              	.L246:
 3234              		.align	2
 3235              	.L245:
 3236 0024 00000000 		.word	__stack_chk_guard
 3237              		.cfi_endproc
 3238              	.LFE279:
 3239              		.size	sdc_lld_sync, .-sdc_lld_sync
 3240              		.section	.rodata.__func__.10250,"a",%progbits
 3241              		.align	2
ARM GAS  C:\Users\PCHAUT~1\AppData\Local\Temp\ccORgsmL.s 			page 58


 3242              		.type	__func__.10250, %object
 3243              		.size	__func__.10250, 27
 3244              	__func__.10250:
 3245 0000 7364635F 		.ascii	"sdc_lld_prepare_read_bytes\000"
 3245      6C6C645F 
 3245      70726570 
 3245      6172655F 
 3245      72656164 
 3246              		.section	.rodata.__func__.7554,"a",%progbits
 3247              		.align	2
 3248              		.type	__func__.7554, %object
 3249              		.size	__func__.7554, 12
 3250              	__func__.7554:
 3251 0000 63685379 		.ascii	"chSysUnlock\000"
 3251      73556E6C 
 3251      6F636B00 
 3252              		.section	.rodata.__func__.10295,"a",%progbits
 3253              		.align	2
 3254              		.type	__func__.10295, %object
 3255              		.size	__func__.10295, 14
 3256              	__func__.10295:
 3257 0000 7364635F 		.ascii	"sdc_lld_start\000"
 3257      6C6C645F 
 3257      73746172 
 3257      7400
 3258              		.section	.rodata.__func__.10372,"a",%progbits
 3259              		.align	2
 3260              		.type	__func__.10372, %object
 3261              		.size	__func__.10372, 21
 3262              	__func__.10372:
 3263 0000 7364635F 		.ascii	"sdc_lld_read_aligned\000"
 3263      6C6C645F 
 3263      72656164 
 3263      5F616C69 
 3263      676E6564 
 3264              		.section	.rodata.__func__.10381,"a",%progbits
 3265              		.align	2
 3266              		.type	__func__.10381, %object
 3267              		.size	__func__.10381, 22
 3268              	__func__.10381:
 3269 0000 7364635F 		.ascii	"sdc_lld_write_aligned\000"
 3269      6C6C645F 
 3269      77726974 
 3269      655F616C 
 3269      69676E65 
 3270              		.text
 3271              	.Letext0:
 3272              		.file 6 "c:\\users\\pchautems\\documents\\robotiquetp\\eclipse_e-puck2\\tools\\gcc-arm-none-eabi-7
 3273              		.file 7 "c:\\users\\pchautems\\documents\\robotiquetp\\eclipse_e-puck2\\tools\\gcc-arm-none-eabi-7
 3274              		.file 8 "c:\\users\\pchautems\\documents\\robotiquetp\\eclipse_e-puck2\\tools\\gcc-arm-none-eabi-7
 3275              		.file 9 "c:\\users\\pchautems\\documents\\robotiquetp\\eclipse_e-puck2\\tools\\gcc-arm-none-eabi-7
 3276              		.file 10 "c:\\users\\pchautems\\documents\\robotiquetp\\eclipse_e-puck2\\tools\\gcc-arm-none-eabi-
 3277              		.file 11 "c:\\users\\pchautems\\documents\\robotiquetp\\eclipse_e-puck2\\tools\\gcc-arm-none-eabi-
 3278              		.file 12 "../lib/e-puck2_main-processor/ChibiOS//os/rt/ports/ARMCMx/compilers/GCC/chtypes.h"
 3279              		.file 13 "../lib/e-puck2_main-processor/ChibiOS//os/rt/include/chsystypes.h"
 3280              		.file 14 "../lib/e-puck2_main-processor/ChibiOS//os/rt/include/chschd.h"
 3281              		.file 15 "../lib/e-puck2_main-processor/ChibiOS//os/ext/CMSIS/include/core_cm4.h"
ARM GAS  C:\Users\PCHAUT~1\AppData\Local\Temp\ccORgsmL.s 			page 59


 3282              		.file 16 "../lib/e-puck2_main-processor/ChibiOS//os/ext/CMSIS/ST/system_stm32f4xx.h"
 3283              		.file 17 "../lib/e-puck2_main-processor/ChibiOS//os/ext/CMSIS/ST/stm32f407xx.h"
 3284              		.file 18 "../lib/e-puck2_main-processor/ChibiOS//os/rt/ports/ARMCMx/chcore.h"
 3285              		.file 19 "../lib/e-puck2_main-processor/ChibiOS//os/rt/include/chdebug.h"
 3286              		.file 20 "../lib/e-puck2_main-processor/ChibiOS//os/rt/include/chtm.h"
 3287              		.file 21 "../lib/e-puck2_main-processor/ChibiOS//os/rt/include/chstats.h"
 3288              		.file 22 "../lib/e-puck2_main-processor/ChibiOS//os/rt/include/chsem.h"
 3289              		.file 23 "../lib/e-puck2_main-processor/ChibiOS//os/rt/include/chmtx.h"
 3290              		.file 24 "../lib/e-puck2_main-processor/ChibiOS//os/rt/include/chregistry.h"
 3291              		.file 25 "../lib/e-puck2_main-processor/ChibiOS//os/rt/include/chevents.h"
 3292              		.file 26 "../lib/e-puck2_main-processor/ChibiOS//os/rt/include/chqueues.h"
 3293              		.file 27 "../lib/e-puck2_main-processor/ChibiOS//os/hal/ports/STM32/STM32F4xx/stm32_dma.h"
 3294              		.file 28 "../lib/e-puck2_main-processor/ChibiOS//os/hal/include/hal_ioblock.h"
 3295              		.file 29 "../lib/e-puck2_main-processor/ChibiOS//os/hal/ports/STM32/LLD/GPIOv2/pal_lld.h"
 3296              		.file 30 "../lib/e-puck2_main-processor/ChibiOS//os/hal/include/adc.h"
 3297              		.file 31 "../lib/e-puck2_main-processor/ChibiOS//os/hal/ports/STM32/STM32F4xx/adc_lld.h"
 3298              		.file 32 "../lib/e-puck2_main-processor/ChibiOS//os/hal/include/can.h"
 3299              		.file 33 "../lib/e-puck2_main-processor/ChibiOS//os/hal/ports/STM32/LLD/can_lld.h"
 3300              		.file 34 "../lib/e-puck2_main-processor/ChibiOS//os/hal/include/dac.h"
 3301              		.file 35 "../lib/e-puck2_main-processor/ChibiOS//os/hal/ports/STM32/LLD/DACv1/dac_lld.h"
 3302              		.file 36 "../lib/e-puck2_main-processor/ChibiOS//os/hal/include/ext.h"
 3303              		.file 37 "../lib/e-puck2_main-processor/ChibiOS//os/hal/ports/STM32/LLD/ext_lld.h"
 3304              		.file 38 "../lib/e-puck2_main-processor/ChibiOS//os/hal/include/gpt.h"
 3305              		.file 39 "../lib/e-puck2_main-processor/ChibiOS//os/hal/ports/STM32/LLD/TIMv1/gpt_lld.h"
 3306              		.file 40 "../lib/e-puck2_main-processor/ChibiOS//os/hal/ports/STM32/LLD/TIMv1/stm32_tim.h"
 3307              		.file 41 "../lib/e-puck2_main-processor/ChibiOS//os/hal/include/i2c.h"
 3308              		.file 42 "../lib/e-puck2_main-processor/ChibiOS//os/hal/ports/STM32/LLD/I2Cv1/i2c_lld.h"
 3309              		.file 43 "../lib/e-puck2_main-processor/ChibiOS//os/hal/include/i2s.h"
 3310              		.file 44 "../lib/e-puck2_main-processor/ChibiOS//os/hal/ports/STM32/LLD/SPIv1/i2s_lld.h"
 3311              		.file 45 "../lib/e-puck2_main-processor/ChibiOS//os/hal/include/pwm.h"
 3312              		.file 46 "../lib/e-puck2_main-processor/ChibiOS//os/hal/ports/STM32/LLD/TIMv1/pwm_lld.h"
 3313              		.file 47 "../lib/e-puck2_main-processor/ChibiOS//os/hal/include/serial.h"
 3314              		.file 48 "../lib/e-puck2_main-processor/ChibiOS//os/hal/ports/STM32/LLD/USARTv1/serial_lld.h"
 3315              		.file 49 "../lib/e-puck2_main-processor/ChibiOS//os/hal/include/sdc.h"
 3316              		.file 50 "../lib/e-puck2_main-processor/ChibiOS//os/hal/ports/STM32/LLD/sdc_lld.h"
 3317              		.file 51 "../lib/e-puck2_main-processor/ChibiOS//os/hal/include/spi.h"
 3318              		.file 52 "../lib/e-puck2_main-processor/ChibiOS//os/hal/ports/STM32/LLD/SPIv1/spi_lld.h"
 3319              		.file 53 "../lib/e-puck2_main-processor/ChibiOS//os/hal/include/usb.h"
 3320              		.file 54 "../lib/e-puck2_main-processor/ChibiOS//os/hal/ports/STM32/LLD/OTGv1/usb_lld.h"
 3321              		.file 55 "../lib/e-puck2_main-processor/ChibiOS//os/hal/ports/STM32/LLD/OTGv1/stm32_otg.h"
 3322              		.section	.debug_info,"",%progbits
 3323              	.Ldebug_info0:
 3324 0000 70480000 		.4byte	0x4870
 3325 0004 0400     		.2byte	0x4
 3326 0006 00000000 		.4byte	.Ldebug_abbrev0
 3327 000a 04       		.byte	0x4
 3328 000b 01       		.uleb128 0x1
 3329 000c 17090000 		.4byte	.LASF892
 3330 0010 0C       		.byte	0xc
 3331 0011 67040000 		.4byte	.LASF893
 3332 0015 8D000000 		.4byte	.LASF894
 3333 0019 00000000 		.4byte	.Ldebug_ranges0+0
 3334 001d 00000000 		.4byte	0
 3335 0021 00000000 		.4byte	.Ldebug_line0
 3336 0025 02       		.uleb128 0x2
 3337 0026 04       		.byte	0x4
 3338 0027 05       		.byte	0x5
ARM GAS  C:\Users\PCHAUT~1\AppData\Local\Temp\ccORgsmL.s 			page 60


 3339 0028 696E7400 		.ascii	"int\000"
 3340 002c 03       		.uleb128 0x3
 3341 002d 210E0000 		.4byte	.LASF4
 3342 0031 06       		.byte	0x6
 3343 0032 D8       		.byte	0xd8
 3344 0033 37000000 		.4byte	0x37
 3345 0037 04       		.uleb128 0x4
 3346 0038 04       		.byte	0x4
 3347 0039 07       		.byte	0x7
 3348 003a 80230000 		.4byte	.LASF0
 3349 003e 04       		.uleb128 0x4
 3350 003f 08       		.byte	0x8
 3351 0040 05       		.byte	0x5
 3352 0041 4F210000 		.4byte	.LASF1
 3353 0045 04       		.uleb128 0x4
 3354 0046 08       		.byte	0x8
 3355 0047 04       		.byte	0x4
 3356 0048 D6180000 		.4byte	.LASF2
 3357 004c 04       		.uleb128 0x4
 3358 004d 01       		.byte	0x1
 3359 004e 06       		.byte	0x6
 3360 004f 2D150000 		.4byte	.LASF3
 3361 0053 03       		.uleb128 0x3
 3362 0054 1B010000 		.4byte	.LASF5
 3363 0058 07       		.byte	0x7
 3364 0059 2B       		.byte	0x2b
 3365 005a 5E000000 		.4byte	0x5e
 3366 005e 04       		.uleb128 0x4
 3367 005f 01       		.byte	0x1
 3368 0060 08       		.byte	0x8
 3369 0061 BF0A0000 		.4byte	.LASF6
 3370 0065 03       		.uleb128 0x3
 3371 0066 DC070000 		.4byte	.LASF7
 3372 006a 07       		.byte	0x7
 3373 006b 37       		.byte	0x37
 3374 006c 70000000 		.4byte	0x70
 3375 0070 04       		.uleb128 0x4
 3376 0071 02       		.byte	0x2
 3377 0072 05       		.byte	0x5
 3378 0073 E9230000 		.4byte	.LASF8
 3379 0077 03       		.uleb128 0x3
 3380 0078 E6070000 		.4byte	.LASF9
 3381 007c 07       		.byte	0x7
 3382 007d 39       		.byte	0x39
 3383 007e 82000000 		.4byte	0x82
 3384 0082 04       		.uleb128 0x4
 3385 0083 02       		.byte	0x2
 3386 0084 07       		.byte	0x7
 3387 0085 12150000 		.4byte	.LASF10
 3388 0089 03       		.uleb128 0x3
 3389 008a 191D0000 		.4byte	.LASF11
 3390 008e 07       		.byte	0x7
 3391 008f 4D       		.byte	0x4d
 3392 0090 94000000 		.4byte	0x94
 3393 0094 04       		.uleb128 0x4
 3394 0095 04       		.byte	0x4
 3395 0096 05       		.byte	0x5
ARM GAS  C:\Users\PCHAUT~1\AppData\Local\Temp\ccORgsmL.s 			page 61


 3396 0097 9C170000 		.4byte	.LASF12
 3397 009b 03       		.uleb128 0x3
 3398 009c 231D0000 		.4byte	.LASF13
 3399 00a0 07       		.byte	0x7
 3400 00a1 4F       		.byte	0x4f
 3401 00a2 A6000000 		.4byte	0xa6
 3402 00a6 04       		.uleb128 0x4
 3403 00a7 04       		.byte	0x4
 3404 00a8 07       		.byte	0x7
 3405 00a9 1F190000 		.4byte	.LASF14
 3406 00ad 03       		.uleb128 0x3
 3407 00ae 3F110000 		.4byte	.LASF15
 3408 00b2 07       		.byte	0x7
 3409 00b3 69       		.byte	0x69
 3410 00b4 B8000000 		.4byte	0xb8
 3411 00b8 04       		.uleb128 0x4
 3412 00b9 08       		.byte	0x8
 3413 00ba 07       		.byte	0x7
 3414 00bb E11E0000 		.4byte	.LASF16
 3415 00bf 03       		.uleb128 0x3
 3416 00c0 BB070000 		.4byte	.LASF17
 3417 00c4 08       		.byte	0x8
 3418 00c5 22       		.byte	0x22
 3419 00c6 CA000000 		.4byte	0xca
 3420 00ca 05       		.uleb128 0x5
 3421 00cb 04       		.byte	0x4
 3422 00cc D0000000 		.4byte	0xd0
 3423 00d0 06       		.uleb128 0x6
 3424 00d1 E0050000 		.4byte	.LASF124
 3425 00d5 03       		.uleb128 0x3
 3426 00d6 FC0D0000 		.4byte	.LASF18
 3427 00da 09       		.byte	0x9
 3428 00db 2C       		.byte	0x2c
 3429 00dc 94000000 		.4byte	0x94
 3430 00e0 03       		.uleb128 0x3
 3431 00e1 481C0000 		.4byte	.LASF19
 3432 00e5 09       		.byte	0x9
 3433 00e6 72       		.byte	0x72
 3434 00e7 94000000 		.4byte	0x94
 3435 00eb 07       		.uleb128 0x7
 3436 00ec E10F0000 		.4byte	.LASF20
 3437 00f0 06       		.byte	0x6
 3438 00f1 6501     		.2byte	0x165
 3439 00f3 37000000 		.4byte	0x37
 3440 00f7 08       		.uleb128 0x8
 3441 00f8 04       		.byte	0x4
 3442 00f9 09       		.byte	0x9
 3443 00fa A6       		.byte	0xa6
 3444 00fb 16010000 		.4byte	0x116
 3445 00ff 09       		.uleb128 0x9
 3446 0100 05170000 		.4byte	.LASF21
 3447 0104 09       		.byte	0x9
 3448 0105 A8       		.byte	0xa8
 3449 0106 EB000000 		.4byte	0xeb
 3450 010a 09       		.uleb128 0x9
 3451 010b 8F0F0000 		.4byte	.LASF22
 3452 010f 09       		.byte	0x9
ARM GAS  C:\Users\PCHAUT~1\AppData\Local\Temp\ccORgsmL.s 			page 62


 3453 0110 A9       		.byte	0xa9
 3454 0111 16010000 		.4byte	0x116
 3455 0115 00       		.byte	0
 3456 0116 0A       		.uleb128 0xa
 3457 0117 5E000000 		.4byte	0x5e
 3458 011b 26010000 		.4byte	0x126
 3459 011f 0B       		.uleb128 0xb
 3460 0120 37000000 		.4byte	0x37
 3461 0124 03       		.byte	0x3
 3462 0125 00       		.byte	0
 3463 0126 0C       		.uleb128 0xc
 3464 0127 08       		.byte	0x8
 3465 0128 09       		.byte	0x9
 3466 0129 A3       		.byte	0xa3
 3467 012a 47010000 		.4byte	0x147
 3468 012e 0D       		.uleb128 0xd
 3469 012f 450E0000 		.4byte	.LASF23
 3470 0133 09       		.byte	0x9
 3471 0134 A5       		.byte	0xa5
 3472 0135 25000000 		.4byte	0x25
 3473 0139 00       		.byte	0
 3474 013a 0D       		.uleb128 0xd
 3475 013b 511D0000 		.4byte	.LASF24
 3476 013f 09       		.byte	0x9
 3477 0140 AA       		.byte	0xaa
 3478 0141 F7000000 		.4byte	0xf7
 3479 0145 04       		.byte	0x4
 3480 0146 00       		.byte	0
 3481 0147 03       		.uleb128 0x3
 3482 0148 CF1C0000 		.4byte	.LASF25
 3483 014c 09       		.byte	0x9
 3484 014d AB       		.byte	0xab
 3485 014e 26010000 		.4byte	0x126
 3486 0152 03       		.uleb128 0x3
 3487 0153 B4200000 		.4byte	.LASF26
 3488 0157 09       		.byte	0x9
 3489 0158 AF       		.byte	0xaf
 3490 0159 BF000000 		.4byte	0xbf
 3491 015d 0E       		.uleb128 0xe
 3492 015e 04       		.byte	0x4
 3493 015f 05       		.uleb128 0x5
 3494 0160 04       		.byte	0x4
 3495 0161 65010000 		.4byte	0x165
 3496 0165 04       		.uleb128 0x4
 3497 0166 01       		.byte	0x1
 3498 0167 08       		.byte	0x8
 3499 0168 C1190000 		.4byte	.LASF27
 3500 016c 0F       		.uleb128 0xf
 3501 016d 65010000 		.4byte	0x165
 3502 0171 03       		.uleb128 0x3
 3503 0172 C1130000 		.4byte	.LASF28
 3504 0176 0A       		.byte	0xa
 3505 0177 16       		.byte	0x16
 3506 0178 A6000000 		.4byte	0xa6
 3507 017c 10       		.uleb128 0x10
 3508 017d 461A0000 		.4byte	.LASF33
 3509 0181 18       		.byte	0x18
ARM GAS  C:\Users\PCHAUT~1\AppData\Local\Temp\ccORgsmL.s 			page 63


 3510 0182 0A       		.byte	0xa
 3511 0183 2F       		.byte	0x2f
 3512 0184 CF010000 		.4byte	0x1cf
 3513 0188 0D       		.uleb128 0xd
 3514 0189 4A110000 		.4byte	.LASF29
 3515 018d 0A       		.byte	0xa
 3516 018e 31       		.byte	0x31
 3517 018f CF010000 		.4byte	0x1cf
 3518 0193 00       		.byte	0
 3519 0194 11       		.uleb128 0x11
 3520 0195 5F6B00   		.ascii	"_k\000"
 3521 0198 0A       		.byte	0xa
 3522 0199 32       		.byte	0x32
 3523 019a 25000000 		.4byte	0x25
 3524 019e 04       		.byte	0x4
 3525 019f 0D       		.uleb128 0xd
 3526 01a0 B3180000 		.4byte	.LASF30
 3527 01a4 0A       		.byte	0xa
 3528 01a5 32       		.byte	0x32
 3529 01a6 25000000 		.4byte	0x25
 3530 01aa 08       		.byte	0x8
 3531 01ab 0D       		.uleb128 0xd
 3532 01ac 1A230000 		.4byte	.LASF31
 3533 01b0 0A       		.byte	0xa
 3534 01b1 32       		.byte	0x32
 3535 01b2 25000000 		.4byte	0x25
 3536 01b6 0C       		.byte	0xc
 3537 01b7 0D       		.uleb128 0xd
 3538 01b8 3E0B0000 		.4byte	.LASF32
 3539 01bc 0A       		.byte	0xa
 3540 01bd 32       		.byte	0x32
 3541 01be 25000000 		.4byte	0x25
 3542 01c2 10       		.byte	0x10
 3543 01c3 11       		.uleb128 0x11
 3544 01c4 5F7800   		.ascii	"_x\000"
 3545 01c7 0A       		.byte	0xa
 3546 01c8 33       		.byte	0x33
 3547 01c9 D5010000 		.4byte	0x1d5
 3548 01cd 14       		.byte	0x14
 3549 01ce 00       		.byte	0
 3550 01cf 05       		.uleb128 0x5
 3551 01d0 04       		.byte	0x4
 3552 01d1 7C010000 		.4byte	0x17c
 3553 01d5 0A       		.uleb128 0xa
 3554 01d6 71010000 		.4byte	0x171
 3555 01da E5010000 		.4byte	0x1e5
 3556 01de 0B       		.uleb128 0xb
 3557 01df 37000000 		.4byte	0x37
 3558 01e3 00       		.byte	0
 3559 01e4 00       		.byte	0
 3560 01e5 10       		.uleb128 0x10
 3561 01e6 14070000 		.4byte	.LASF34
 3562 01ea 24       		.byte	0x24
 3563 01eb 0A       		.byte	0xa
 3564 01ec 37       		.byte	0x37
 3565 01ed 5E020000 		.4byte	0x25e
 3566 01f1 0D       		.uleb128 0xd
ARM GAS  C:\Users\PCHAUT~1\AppData\Local\Temp\ccORgsmL.s 			page 64


 3567 01f2 78120000 		.4byte	.LASF35
 3568 01f6 0A       		.byte	0xa
 3569 01f7 39       		.byte	0x39
 3570 01f8 25000000 		.4byte	0x25
 3571 01fc 00       		.byte	0
 3572 01fd 0D       		.uleb128 0xd
 3573 01fe 29230000 		.4byte	.LASF36
 3574 0202 0A       		.byte	0xa
 3575 0203 3A       		.byte	0x3a
 3576 0204 25000000 		.4byte	0x25
 3577 0208 04       		.byte	0x4
 3578 0209 0D       		.uleb128 0xd
 3579 020a B00F0000 		.4byte	.LASF37
 3580 020e 0A       		.byte	0xa
 3581 020f 3B       		.byte	0x3b
 3582 0210 25000000 		.4byte	0x25
 3583 0214 08       		.byte	0x8
 3584 0215 0D       		.uleb128 0xd
 3585 0216 8E100000 		.4byte	.LASF38
 3586 021a 0A       		.byte	0xa
 3587 021b 3C       		.byte	0x3c
 3588 021c 25000000 		.4byte	0x25
 3589 0220 0C       		.byte	0xc
 3590 0221 0D       		.uleb128 0xd
 3591 0222 D9010000 		.4byte	.LASF39
 3592 0226 0A       		.byte	0xa
 3593 0227 3D       		.byte	0x3d
 3594 0228 25000000 		.4byte	0x25
 3595 022c 10       		.byte	0x10
 3596 022d 0D       		.uleb128 0xd
 3597 022e 570C0000 		.4byte	.LASF40
 3598 0232 0A       		.byte	0xa
 3599 0233 3E       		.byte	0x3e
 3600 0234 25000000 		.4byte	0x25
 3601 0238 14       		.byte	0x14
 3602 0239 0D       		.uleb128 0xd
 3603 023a 900A0000 		.4byte	.LASF41
 3604 023e 0A       		.byte	0xa
 3605 023f 3F       		.byte	0x3f
 3606 0240 25000000 		.4byte	0x25
 3607 0244 18       		.byte	0x18
 3608 0245 0D       		.uleb128 0xd
 3609 0246 76070000 		.4byte	.LASF42
 3610 024a 0A       		.byte	0xa
 3611 024b 40       		.byte	0x40
 3612 024c 25000000 		.4byte	0x25
 3613 0250 1C       		.byte	0x1c
 3614 0251 0D       		.uleb128 0xd
 3615 0252 5B0A0000 		.4byte	.LASF43
 3616 0256 0A       		.byte	0xa
 3617 0257 41       		.byte	0x41
 3618 0258 25000000 		.4byte	0x25
 3619 025c 20       		.byte	0x20
 3620 025d 00       		.byte	0
 3621 025e 12       		.uleb128 0x12
 3622 025f 99120000 		.4byte	.LASF44
 3623 0263 0801     		.2byte	0x108
ARM GAS  C:\Users\PCHAUT~1\AppData\Local\Temp\ccORgsmL.s 			page 65


 3624 0265 0A       		.byte	0xa
 3625 0266 4A       		.byte	0x4a
 3626 0267 9E020000 		.4byte	0x29e
 3627 026b 0D       		.uleb128 0xd
 3628 026c BC100000 		.4byte	.LASF45
 3629 0270 0A       		.byte	0xa
 3630 0271 4B       		.byte	0x4b
 3631 0272 9E020000 		.4byte	0x29e
 3632 0276 00       		.byte	0
 3633 0277 0D       		.uleb128 0xd
 3634 0278 E3080000 		.4byte	.LASF46
 3635 027c 0A       		.byte	0xa
 3636 027d 4C       		.byte	0x4c
 3637 027e 9E020000 		.4byte	0x29e
 3638 0282 80       		.byte	0x80
 3639 0283 13       		.uleb128 0x13
 3640 0284 E2010000 		.4byte	.LASF47
 3641 0288 0A       		.byte	0xa
 3642 0289 4E       		.byte	0x4e
 3643 028a 71010000 		.4byte	0x171
 3644 028e 0001     		.2byte	0x100
 3645 0290 13       		.uleb128 0x13
 3646 0291 6F1D0000 		.4byte	.LASF48
 3647 0295 0A       		.byte	0xa
 3648 0296 51       		.byte	0x51
 3649 0297 71010000 		.4byte	0x171
 3650 029b 0401     		.2byte	0x104
 3651 029d 00       		.byte	0
 3652 029e 0A       		.uleb128 0xa
 3653 029f 5D010000 		.4byte	0x15d
 3654 02a3 AE020000 		.4byte	0x2ae
 3655 02a7 0B       		.uleb128 0xb
 3656 02a8 37000000 		.4byte	0x37
 3657 02ac 1F       		.byte	0x1f
 3658 02ad 00       		.byte	0
 3659 02ae 12       		.uleb128 0x12
 3660 02af 5C010000 		.4byte	.LASF49
 3661 02b3 9001     		.2byte	0x190
 3662 02b5 0A       		.byte	0xa
 3663 02b6 5D       		.byte	0x5d
 3664 02b7 EC020000 		.4byte	0x2ec
 3665 02bb 0D       		.uleb128 0xd
 3666 02bc 4A110000 		.4byte	.LASF29
 3667 02c0 0A       		.byte	0xa
 3668 02c1 5E       		.byte	0x5e
 3669 02c2 EC020000 		.4byte	0x2ec
 3670 02c6 00       		.byte	0
 3671 02c7 0D       		.uleb128 0xd
 3672 02c8 FE010000 		.4byte	.LASF50
 3673 02cc 0A       		.byte	0xa
 3674 02cd 5F       		.byte	0x5f
 3675 02ce 25000000 		.4byte	0x25
 3676 02d2 04       		.byte	0x4
 3677 02d3 0D       		.uleb128 0xd
 3678 02d4 971C0000 		.4byte	.LASF51
 3679 02d8 0A       		.byte	0xa
 3680 02d9 61       		.byte	0x61
ARM GAS  C:\Users\PCHAUT~1\AppData\Local\Temp\ccORgsmL.s 			page 66


 3681 02da F2020000 		.4byte	0x2f2
 3682 02de 08       		.byte	0x8
 3683 02df 0D       		.uleb128 0xd
 3684 02e0 99120000 		.4byte	.LASF44
 3685 02e4 0A       		.byte	0xa
 3686 02e5 62       		.byte	0x62
 3687 02e6 5E020000 		.4byte	0x25e
 3688 02ea 88       		.byte	0x88
 3689 02eb 00       		.byte	0
 3690 02ec 05       		.uleb128 0x5
 3691 02ed 04       		.byte	0x4
 3692 02ee AE020000 		.4byte	0x2ae
 3693 02f2 0A       		.uleb128 0xa
 3694 02f3 02030000 		.4byte	0x302
 3695 02f7 02030000 		.4byte	0x302
 3696 02fb 0B       		.uleb128 0xb
 3697 02fc 37000000 		.4byte	0x37
 3698 0300 1F       		.byte	0x1f
 3699 0301 00       		.byte	0
 3700 0302 05       		.uleb128 0x5
 3701 0303 04       		.byte	0x4
 3702 0304 08030000 		.4byte	0x308
 3703 0308 14       		.uleb128 0x14
 3704 0309 10       		.uleb128 0x10
 3705 030a 57160000 		.4byte	.LASF52
 3706 030e 08       		.byte	0x8
 3707 030f 0A       		.byte	0xa
 3708 0310 75       		.byte	0x75
 3709 0311 2E030000 		.4byte	0x32e
 3710 0315 0D       		.uleb128 0xd
 3711 0316 62060000 		.4byte	.LASF53
 3712 031a 0A       		.byte	0xa
 3713 031b 76       		.byte	0x76
 3714 031c 2E030000 		.4byte	0x32e
 3715 0320 00       		.byte	0
 3716 0321 0D       		.uleb128 0xd
 3717 0322 610B0000 		.4byte	.LASF54
 3718 0326 0A       		.byte	0xa
 3719 0327 77       		.byte	0x77
 3720 0328 25000000 		.4byte	0x25
 3721 032c 04       		.byte	0x4
 3722 032d 00       		.byte	0
 3723 032e 05       		.uleb128 0x5
 3724 032f 04       		.byte	0x4
 3725 0330 5E000000 		.4byte	0x5e
 3726 0334 10       		.uleb128 0x10
 3727 0335 8F1C0000 		.4byte	.LASF55
 3728 0339 68       		.byte	0x68
 3729 033a 0A       		.byte	0xa
 3730 033b B5       		.byte	0xb5
 3731 033c 5E040000 		.4byte	0x45e
 3732 0340 11       		.uleb128 0x11
 3733 0341 5F7000   		.ascii	"_p\000"
 3734 0344 0A       		.byte	0xa
 3735 0345 B6       		.byte	0xb6
 3736 0346 2E030000 		.4byte	0x32e
 3737 034a 00       		.byte	0
ARM GAS  C:\Users\PCHAUT~1\AppData\Local\Temp\ccORgsmL.s 			page 67


 3738 034b 11       		.uleb128 0x11
 3739 034c 5F7200   		.ascii	"_r\000"
 3740 034f 0A       		.byte	0xa
 3741 0350 B7       		.byte	0xb7
 3742 0351 25000000 		.4byte	0x25
 3743 0355 04       		.byte	0x4
 3744 0356 11       		.uleb128 0x11
 3745 0357 5F7700   		.ascii	"_w\000"
 3746 035a 0A       		.byte	0xa
 3747 035b B8       		.byte	0xb8
 3748 035c 25000000 		.4byte	0x25
 3749 0360 08       		.byte	0x8
 3750 0361 0D       		.uleb128 0xd
 3751 0362 4E020000 		.4byte	.LASF56
 3752 0366 0A       		.byte	0xa
 3753 0367 B9       		.byte	0xb9
 3754 0368 70000000 		.4byte	0x70
 3755 036c 0C       		.byte	0xc
 3756 036d 0D       		.uleb128 0xd
 3757 036e 651C0000 		.4byte	.LASF57
 3758 0372 0A       		.byte	0xa
 3759 0373 BA       		.byte	0xba
 3760 0374 70000000 		.4byte	0x70
 3761 0378 0E       		.byte	0xe
 3762 0379 11       		.uleb128 0x11
 3763 037a 5F626600 		.ascii	"_bf\000"
 3764 037e 0A       		.byte	0xa
 3765 037f BB       		.byte	0xbb
 3766 0380 09030000 		.4byte	0x309
 3767 0384 10       		.byte	0x10
 3768 0385 0D       		.uleb128 0xd
 3769 0386 DA040000 		.4byte	.LASF58
 3770 038a 0A       		.byte	0xa
 3771 038b BC       		.byte	0xbc
 3772 038c 25000000 		.4byte	0x25
 3773 0390 18       		.byte	0x18
 3774 0391 0D       		.uleb128 0xd
 3775 0392 90110000 		.4byte	.LASF59
 3776 0396 0A       		.byte	0xa
 3777 0397 C3       		.byte	0xc3
 3778 0398 5D010000 		.4byte	0x15d
 3779 039c 1C       		.byte	0x1c
 3780 039d 0D       		.uleb128 0xd
 3781 039e 01240000 		.4byte	.LASF60
 3782 03a2 0A       		.byte	0xa
 3783 03a3 C5       		.byte	0xc5
 3784 03a4 B9050000 		.4byte	0x5b9
 3785 03a8 20       		.byte	0x20
 3786 03a9 0D       		.uleb128 0xd
 3787 03aa D30B0000 		.4byte	.LASF61
 3788 03ae 0A       		.byte	0xa
 3789 03af C7       		.byte	0xc7
 3790 03b0 E8050000 		.4byte	0x5e8
 3791 03b4 24       		.byte	0x24
 3792 03b5 0D       		.uleb128 0xd
 3793 03b6 D5140000 		.4byte	.LASF62
 3794 03ba 0A       		.byte	0xa
ARM GAS  C:\Users\PCHAUT~1\AppData\Local\Temp\ccORgsmL.s 			page 68


 3795 03bb CA       		.byte	0xca
 3796 03bc 0C060000 		.4byte	0x60c
 3797 03c0 28       		.byte	0x28
 3798 03c1 0D       		.uleb128 0xd
 3799 03c2 BA190000 		.4byte	.LASF63
 3800 03c6 0A       		.byte	0xa
 3801 03c7 CB       		.byte	0xcb
 3802 03c8 26060000 		.4byte	0x626
 3803 03cc 2C       		.byte	0x2c
 3804 03cd 11       		.uleb128 0x11
 3805 03ce 5F756200 		.ascii	"_ub\000"
 3806 03d2 0A       		.byte	0xa
 3807 03d3 CE       		.byte	0xce
 3808 03d4 09030000 		.4byte	0x309
 3809 03d8 30       		.byte	0x30
 3810 03d9 11       		.uleb128 0x11
 3811 03da 5F757000 		.ascii	"_up\000"
 3812 03de 0A       		.byte	0xa
 3813 03df CF       		.byte	0xcf
 3814 03e0 2E030000 		.4byte	0x32e
 3815 03e4 38       		.byte	0x38
 3816 03e5 11       		.uleb128 0x11
 3817 03e6 5F757200 		.ascii	"_ur\000"
 3818 03ea 0A       		.byte	0xa
 3819 03eb D0       		.byte	0xd0
 3820 03ec 25000000 		.4byte	0x25
 3821 03f0 3C       		.byte	0x3c
 3822 03f1 0D       		.uleb128 0xd
 3823 03f2 A11B0000 		.4byte	.LASF64
 3824 03f6 0A       		.byte	0xa
 3825 03f7 D3       		.byte	0xd3
 3826 03f8 2C060000 		.4byte	0x62c
 3827 03fc 40       		.byte	0x40
 3828 03fd 0D       		.uleb128 0xd
 3829 03fe F7020000 		.4byte	.LASF65
 3830 0402 0A       		.byte	0xa
 3831 0403 D4       		.byte	0xd4
 3832 0404 3C060000 		.4byte	0x63c
 3833 0408 43       		.byte	0x43
 3834 0409 11       		.uleb128 0x11
 3835 040a 5F6C6200 		.ascii	"_lb\000"
 3836 040e 0A       		.byte	0xa
 3837 040f D7       		.byte	0xd7
 3838 0410 09030000 		.4byte	0x309
 3839 0414 44       		.byte	0x44
 3840 0415 0D       		.uleb128 0xd
 3841 0416 8F1B0000 		.4byte	.LASF66
 3842 041a 0A       		.byte	0xa
 3843 041b DA       		.byte	0xda
 3844 041c 25000000 		.4byte	0x25
 3845 0420 4C       		.byte	0x4c
 3846 0421 0D       		.uleb128 0xd
 3847 0422 FD150000 		.4byte	.LASF67
 3848 0426 0A       		.byte	0xa
 3849 0427 DB       		.byte	0xdb
 3850 0428 D5000000 		.4byte	0xd5
 3851 042c 50       		.byte	0x50
ARM GAS  C:\Users\PCHAUT~1\AppData\Local\Temp\ccORgsmL.s 			page 69


 3852 042d 0D       		.uleb128 0xd
 3853 042e 3F050000 		.4byte	.LASF68
 3854 0432 0A       		.byte	0xa
 3855 0433 DE       		.byte	0xde
 3856 0434 7C040000 		.4byte	0x47c
 3857 0438 54       		.byte	0x54
 3858 0439 0D       		.uleb128 0xd
 3859 043a F1020000 		.4byte	.LASF69
 3860 043e 0A       		.byte	0xa
 3861 043f E2       		.byte	0xe2
 3862 0440 52010000 		.4byte	0x152
 3863 0444 58       		.byte	0x58
 3864 0445 0D       		.uleb128 0xd
 3865 0446 53010000 		.4byte	.LASF70
 3866 044a 0A       		.byte	0xa
 3867 044b E4       		.byte	0xe4
 3868 044c 47010000 		.4byte	0x147
 3869 0450 5C       		.byte	0x5c
 3870 0451 0D       		.uleb128 0xd
 3871 0452 72210000 		.4byte	.LASF71
 3872 0456 0A       		.byte	0xa
 3873 0457 E5       		.byte	0xe5
 3874 0458 25000000 		.4byte	0x25
 3875 045c 64       		.byte	0x64
 3876 045d 00       		.byte	0
 3877 045e 15       		.uleb128 0x15
 3878 045f 25000000 		.4byte	0x25
 3879 0463 7C040000 		.4byte	0x47c
 3880 0467 16       		.uleb128 0x16
 3881 0468 7C040000 		.4byte	0x47c
 3882 046c 16       		.uleb128 0x16
 3883 046d 5D010000 		.4byte	0x15d
 3884 0471 16       		.uleb128 0x16
 3885 0472 5F010000 		.4byte	0x15f
 3886 0476 16       		.uleb128 0x16
 3887 0477 25000000 		.4byte	0x25
 3888 047b 00       		.byte	0
 3889 047c 05       		.uleb128 0x5
 3890 047d 04       		.byte	0x4
 3891 047e 87040000 		.4byte	0x487
 3892 0482 0F       		.uleb128 0xf
 3893 0483 7C040000 		.4byte	0x47c
 3894 0487 17       		.uleb128 0x17
 3895 0488 F6050000 		.4byte	.LASF72
 3896 048c 2804     		.2byte	0x428
 3897 048e 0A       		.byte	0xa
 3898 048f 3902     		.2byte	0x239
 3899 0491 B9050000 		.4byte	0x5b9
 3900 0495 18       		.uleb128 0x18
 3901 0496 73100000 		.4byte	.LASF73
 3902 049a 0A       		.byte	0xa
 3903 049b 3B02     		.2byte	0x23b
 3904 049d 25000000 		.4byte	0x25
 3905 04a1 00       		.byte	0
 3906 04a2 18       		.uleb128 0x18
 3907 04a3 500D0000 		.4byte	.LASF74
 3908 04a7 0A       		.byte	0xa
ARM GAS  C:\Users\PCHAUT~1\AppData\Local\Temp\ccORgsmL.s 			page 70


 3909 04a8 4002     		.2byte	0x240
 3910 04aa 93060000 		.4byte	0x693
 3911 04ae 04       		.byte	0x4
 3912 04af 18       		.uleb128 0x18
 3913 04b0 CD0A0000 		.4byte	.LASF75
 3914 04b4 0A       		.byte	0xa
 3915 04b5 4002     		.2byte	0x240
 3916 04b7 93060000 		.4byte	0x693
 3917 04bb 08       		.byte	0x8
 3918 04bc 18       		.uleb128 0x18
 3919 04bd C3080000 		.4byte	.LASF76
 3920 04c1 0A       		.byte	0xa
 3921 04c2 4002     		.2byte	0x240
 3922 04c4 93060000 		.4byte	0x693
 3923 04c8 0C       		.byte	0xc
 3924 04c9 18       		.uleb128 0x18
 3925 04ca F9010000 		.4byte	.LASF77
 3926 04ce 0A       		.byte	0xa
 3927 04cf 4202     		.2byte	0x242
 3928 04d1 25000000 		.4byte	0x25
 3929 04d5 10       		.byte	0x10
 3930 04d6 18       		.uleb128 0x18
 3931 04d7 40180000 		.4byte	.LASF78
 3932 04db 0A       		.byte	0xa
 3933 04dc 4302     		.2byte	0x243
 3934 04de 75080000 		.4byte	0x875
 3935 04e2 14       		.byte	0x14
 3936 04e3 18       		.uleb128 0x18
 3937 04e4 01200000 		.4byte	.LASF79
 3938 04e8 0A       		.byte	0xa
 3939 04e9 4602     		.2byte	0x246
 3940 04eb 25000000 		.4byte	0x25
 3941 04ef 30       		.byte	0x30
 3942 04f0 18       		.uleb128 0x18
 3943 04f1 C4210000 		.4byte	.LASF80
 3944 04f5 0A       		.byte	0xa
 3945 04f6 4702     		.2byte	0x247
 3946 04f8 8A080000 		.4byte	0x88a
 3947 04fc 34       		.byte	0x34
 3948 04fd 18       		.uleb128 0x18
 3949 04fe 60200000 		.4byte	.LASF81
 3950 0502 0A       		.byte	0xa
 3951 0503 4902     		.2byte	0x249
 3952 0505 25000000 		.4byte	0x25
 3953 0509 38       		.byte	0x38
 3954 050a 18       		.uleb128 0x18
 3955 050b E41B0000 		.4byte	.LASF82
 3956 050f 0A       		.byte	0xa
 3957 0510 4B02     		.2byte	0x24b
 3958 0512 9B080000 		.4byte	0x89b
 3959 0516 3C       		.byte	0x3c
 3960 0517 18       		.uleb128 0x18
 3961 0518 CB080000 		.4byte	.LASF83
 3962 051c 0A       		.byte	0xa
 3963 051d 4E02     		.2byte	0x24e
 3964 051f CF010000 		.4byte	0x1cf
 3965 0523 40       		.byte	0x40
ARM GAS  C:\Users\PCHAUT~1\AppData\Local\Temp\ccORgsmL.s 			page 71


 3966 0524 18       		.uleb128 0x18
 3967 0525 B4080000 		.4byte	.LASF84
 3968 0529 0A       		.byte	0xa
 3969 052a 4F02     		.2byte	0x24f
 3970 052c 25000000 		.4byte	0x25
 3971 0530 44       		.byte	0x44
 3972 0531 18       		.uleb128 0x18
 3973 0532 BF1D0000 		.4byte	.LASF85
 3974 0536 0A       		.byte	0xa
 3975 0537 5002     		.2byte	0x250
 3976 0539 CF010000 		.4byte	0x1cf
 3977 053d 48       		.byte	0x48
 3978 053e 18       		.uleb128 0x18
 3979 053f BF150000 		.4byte	.LASF86
 3980 0543 0A       		.byte	0xa
 3981 0544 5102     		.2byte	0x251
 3982 0546 A1080000 		.4byte	0x8a1
 3983 054a 4C       		.byte	0x4c
 3984 054b 18       		.uleb128 0x18
 3985 054c 7E020000 		.4byte	.LASF87
 3986 0550 0A       		.byte	0xa
 3987 0551 5402     		.2byte	0x254
 3988 0553 25000000 		.4byte	0x25
 3989 0557 50       		.byte	0x50
 3990 0558 18       		.uleb128 0x18
 3991 0559 F30E0000 		.4byte	.LASF88
 3992 055d 0A       		.byte	0xa
 3993 055e 5502     		.2byte	0x255
 3994 0560 5F010000 		.4byte	0x15f
 3995 0564 54       		.byte	0x54
 3996 0565 18       		.uleb128 0x18
 3997 0566 F00F0000 		.4byte	.LASF89
 3998 056a 0A       		.byte	0xa
 3999 056b 7802     		.2byte	0x278
 4000 056d 53080000 		.4byte	0x853
 4001 0571 58       		.byte	0x58
 4002 0572 19       		.uleb128 0x19
 4003 0573 5C010000 		.4byte	.LASF49
 4004 0577 0A       		.byte	0xa
 4005 0578 7C02     		.2byte	0x27c
 4006 057a EC020000 		.4byte	0x2ec
 4007 057e 4801     		.2byte	0x148
 4008 0580 19       		.uleb128 0x19
 4009 0581 7E1A0000 		.4byte	.LASF90
 4010 0585 0A       		.byte	0xa
 4011 0586 7D02     		.2byte	0x27d
 4012 0588 AE020000 		.4byte	0x2ae
 4013 058c 4C01     		.2byte	0x14c
 4014 058e 19       		.uleb128 0x19
 4015 058f A0020000 		.4byte	.LASF91
 4016 0593 0A       		.byte	0xa
 4017 0594 8102     		.2byte	0x281
 4018 0596 B2080000 		.4byte	0x8b2
 4019 059a DC02     		.2byte	0x2dc
 4020 059c 19       		.uleb128 0x19
 4021 059d C21B0000 		.4byte	.LASF92
 4022 05a1 0A       		.byte	0xa
ARM GAS  C:\Users\PCHAUT~1\AppData\Local\Temp\ccORgsmL.s 			page 72


 4023 05a2 8602     		.2byte	0x286
 4024 05a4 58060000 		.4byte	0x658
 4025 05a8 E002     		.2byte	0x2e0
 4026 05aa 19       		.uleb128 0x19
 4027 05ab 54060000 		.4byte	.LASF93
 4028 05af 0A       		.byte	0xa
 4029 05b0 8802     		.2byte	0x288
 4030 05b2 BE080000 		.4byte	0x8be
 4031 05b6 EC02     		.2byte	0x2ec
 4032 05b8 00       		.byte	0
 4033 05b9 05       		.uleb128 0x5
 4034 05ba 04       		.byte	0x4
 4035 05bb 5E040000 		.4byte	0x45e
 4036 05bf 15       		.uleb128 0x15
 4037 05c0 25000000 		.4byte	0x25
 4038 05c4 DD050000 		.4byte	0x5dd
 4039 05c8 16       		.uleb128 0x16
 4040 05c9 7C040000 		.4byte	0x47c
 4041 05cd 16       		.uleb128 0x16
 4042 05ce 5D010000 		.4byte	0x15d
 4043 05d2 16       		.uleb128 0x16
 4044 05d3 DD050000 		.4byte	0x5dd
 4045 05d7 16       		.uleb128 0x16
 4046 05d8 25000000 		.4byte	0x25
 4047 05dc 00       		.byte	0
 4048 05dd 05       		.uleb128 0x5
 4049 05de 04       		.byte	0x4
 4050 05df 6C010000 		.4byte	0x16c
 4051 05e3 1A       		.uleb128 0x1a
 4052 05e4 DD050000 		.4byte	0x5dd
 4053 05e8 05       		.uleb128 0x5
 4054 05e9 04       		.byte	0x4
 4055 05ea BF050000 		.4byte	0x5bf
 4056 05ee 15       		.uleb128 0x15
 4057 05ef E0000000 		.4byte	0xe0
 4058 05f3 0C060000 		.4byte	0x60c
 4059 05f7 16       		.uleb128 0x16
 4060 05f8 7C040000 		.4byte	0x47c
 4061 05fc 16       		.uleb128 0x16
 4062 05fd 5D010000 		.4byte	0x15d
 4063 0601 16       		.uleb128 0x16
 4064 0602 E0000000 		.4byte	0xe0
 4065 0606 16       		.uleb128 0x16
 4066 0607 25000000 		.4byte	0x25
 4067 060b 00       		.byte	0
 4068 060c 05       		.uleb128 0x5
 4069 060d 04       		.byte	0x4
 4070 060e EE050000 		.4byte	0x5ee
 4071 0612 15       		.uleb128 0x15
 4072 0613 25000000 		.4byte	0x25
 4073 0617 26060000 		.4byte	0x626
 4074 061b 16       		.uleb128 0x16
 4075 061c 7C040000 		.4byte	0x47c
 4076 0620 16       		.uleb128 0x16
 4077 0621 5D010000 		.4byte	0x15d
 4078 0625 00       		.byte	0
 4079 0626 05       		.uleb128 0x5
ARM GAS  C:\Users\PCHAUT~1\AppData\Local\Temp\ccORgsmL.s 			page 73


 4080 0627 04       		.byte	0x4
 4081 0628 12060000 		.4byte	0x612
 4082 062c 0A       		.uleb128 0xa
 4083 062d 5E000000 		.4byte	0x5e
 4084 0631 3C060000 		.4byte	0x63c
 4085 0635 0B       		.uleb128 0xb
 4086 0636 37000000 		.4byte	0x37
 4087 063a 02       		.byte	0x2
 4088 063b 00       		.byte	0
 4089 063c 0A       		.uleb128 0xa
 4090 063d 5E000000 		.4byte	0x5e
 4091 0641 4C060000 		.4byte	0x64c
 4092 0645 0B       		.uleb128 0xb
 4093 0646 37000000 		.4byte	0x37
 4094 064a 00       		.byte	0
 4095 064b 00       		.byte	0
 4096 064c 07       		.uleb128 0x7
 4097 064d 09230000 		.4byte	.LASF94
 4098 0651 0A       		.byte	0xa
 4099 0652 1F01     		.2byte	0x11f
 4100 0654 34030000 		.4byte	0x334
 4101 0658 1B       		.uleb128 0x1b
 4102 0659 DF190000 		.4byte	.LASF95
 4103 065d 0C       		.byte	0xc
 4104 065e 0A       		.byte	0xa
 4105 065f 2301     		.2byte	0x123
 4106 0661 8D060000 		.4byte	0x68d
 4107 0665 18       		.uleb128 0x18
 4108 0666 4A110000 		.4byte	.LASF29
 4109 066a 0A       		.byte	0xa
 4110 066b 2501     		.2byte	0x125
 4111 066d 8D060000 		.4byte	0x68d
 4112 0671 00       		.byte	0
 4113 0672 18       		.uleb128 0x18
 4114 0673 2C100000 		.4byte	.LASF96
 4115 0677 0A       		.byte	0xa
 4116 0678 2601     		.2byte	0x126
 4117 067a 25000000 		.4byte	0x25
 4118 067e 04       		.byte	0x4
 4119 067f 18       		.uleb128 0x18
 4120 0680 3A180000 		.4byte	.LASF97
 4121 0684 0A       		.byte	0xa
 4122 0685 2701     		.2byte	0x127
 4123 0687 93060000 		.4byte	0x693
 4124 068b 08       		.byte	0x8
 4125 068c 00       		.byte	0
 4126 068d 05       		.uleb128 0x5
 4127 068e 04       		.byte	0x4
 4128 068f 58060000 		.4byte	0x658
 4129 0693 05       		.uleb128 0x5
 4130 0694 04       		.byte	0x4
 4131 0695 4C060000 		.4byte	0x64c
 4132 0699 1B       		.uleb128 0x1b
 4133 069a 2C240000 		.4byte	.LASF98
 4134 069e 0E       		.byte	0xe
 4135 069f 0A       		.byte	0xa
 4136 06a0 3F01     		.2byte	0x13f
ARM GAS  C:\Users\PCHAUT~1\AppData\Local\Temp\ccORgsmL.s 			page 74


 4137 06a2 CE060000 		.4byte	0x6ce
 4138 06a6 18       		.uleb128 0x18
 4139 06a7 C0140000 		.4byte	.LASF99
 4140 06ab 0A       		.byte	0xa
 4141 06ac 4001     		.2byte	0x140
 4142 06ae CE060000 		.4byte	0x6ce
 4143 06b2 00       		.byte	0
 4144 06b3 18       		.uleb128 0x18
 4145 06b4 A80C0000 		.4byte	.LASF100
 4146 06b8 0A       		.byte	0xa
 4147 06b9 4101     		.2byte	0x141
 4148 06bb CE060000 		.4byte	0x6ce
 4149 06bf 06       		.byte	0x6
 4150 06c0 18       		.uleb128 0x18
 4151 06c1 12040000 		.4byte	.LASF101
 4152 06c5 0A       		.byte	0xa
 4153 06c6 4201     		.2byte	0x142
 4154 06c8 82000000 		.4byte	0x82
 4155 06cc 0C       		.byte	0xc
 4156 06cd 00       		.byte	0
 4157 06ce 0A       		.uleb128 0xa
 4158 06cf 82000000 		.4byte	0x82
 4159 06d3 DE060000 		.4byte	0x6de
 4160 06d7 0B       		.uleb128 0xb
 4161 06d8 37000000 		.4byte	0x37
 4162 06dc 02       		.byte	0x2
 4163 06dd 00       		.byte	0
 4164 06de 1C       		.uleb128 0x1c
 4165 06df D0       		.byte	0xd0
 4166 06e0 0A       		.byte	0xa
 4167 06e1 5902     		.2byte	0x259
 4168 06e3 DF070000 		.4byte	0x7df
 4169 06e7 18       		.uleb128 0x18
 4170 06e8 0F080000 		.4byte	.LASF102
 4171 06ec 0A       		.byte	0xa
 4172 06ed 5B02     		.2byte	0x25b
 4173 06ef 37000000 		.4byte	0x37
 4174 06f3 00       		.byte	0
 4175 06f4 18       		.uleb128 0x18
 4176 06f5 71140000 		.4byte	.LASF103
 4177 06f9 0A       		.byte	0xa
 4178 06fa 5C02     		.2byte	0x25c
 4179 06fc 5F010000 		.4byte	0x15f
 4180 0700 04       		.byte	0x4
 4181 0701 18       		.uleb128 0x18
 4182 0702 D9160000 		.4byte	.LASF104
 4183 0706 0A       		.byte	0xa
 4184 0707 5D02     		.2byte	0x25d
 4185 0709 DF070000 		.4byte	0x7df
 4186 070d 08       		.byte	0x8
 4187 070e 18       		.uleb128 0x18
 4188 070f 280E0000 		.4byte	.LASF105
 4189 0713 0A       		.byte	0xa
 4190 0714 5E02     		.2byte	0x25e
 4191 0716 E5010000 		.4byte	0x1e5
 4192 071a 24       		.byte	0x24
 4193 071b 18       		.uleb128 0x18
ARM GAS  C:\Users\PCHAUT~1\AppData\Local\Temp\ccORgsmL.s 			page 75


 4194 071c 351F0000 		.4byte	.LASF106
 4195 0720 0A       		.byte	0xa
 4196 0721 5F02     		.2byte	0x25f
 4197 0723 25000000 		.4byte	0x25
 4198 0727 48       		.byte	0x48
 4199 0728 18       		.uleb128 0x18
 4200 0729 6B180000 		.4byte	.LASF107
 4201 072d 0A       		.byte	0xa
 4202 072e 6002     		.2byte	0x260
 4203 0730 B8000000 		.4byte	0xb8
 4204 0734 50       		.byte	0x50
 4205 0735 18       		.uleb128 0x18
 4206 0736 97230000 		.4byte	.LASF108
 4207 073a 0A       		.byte	0xa
 4208 073b 6102     		.2byte	0x261
 4209 073d 99060000 		.4byte	0x699
 4210 0741 58       		.byte	0x58
 4211 0742 18       		.uleb128 0x18
 4212 0743 B51B0000 		.4byte	.LASF109
 4213 0747 0A       		.byte	0xa
 4214 0748 6202     		.2byte	0x262
 4215 074a 47010000 		.4byte	0x147
 4216 074e 68       		.byte	0x68
 4217 074f 18       		.uleb128 0x18
 4218 0750 80060000 		.4byte	.LASF110
 4219 0754 0A       		.byte	0xa
 4220 0755 6302     		.2byte	0x263
 4221 0757 47010000 		.4byte	0x147
 4222 075b 70       		.byte	0x70
 4223 075c 18       		.uleb128 0x18
 4224 075d C8170000 		.4byte	.LASF111
 4225 0761 0A       		.byte	0xa
 4226 0762 6402     		.2byte	0x264
 4227 0764 47010000 		.4byte	0x147
 4228 0768 78       		.byte	0x78
 4229 0769 18       		.uleb128 0x18
 4230 076a 7F160000 		.4byte	.LASF112
 4231 076e 0A       		.byte	0xa
 4232 076f 6502     		.2byte	0x265
 4233 0771 EF070000 		.4byte	0x7ef
 4234 0775 80       		.byte	0x80
 4235 0776 18       		.uleb128 0x18
 4236 0777 79110000 		.4byte	.LASF113
 4237 077b 0A       		.byte	0xa
 4238 077c 6602     		.2byte	0x266
 4239 077e FF070000 		.4byte	0x7ff
 4240 0782 88       		.byte	0x88
 4241 0783 18       		.uleb128 0x18
 4242 0784 C71A0000 		.4byte	.LASF114
 4243 0788 0A       		.byte	0xa
 4244 0789 6702     		.2byte	0x267
 4245 078b 25000000 		.4byte	0x25
 4246 078f A0       		.byte	0xa0
 4247 0790 18       		.uleb128 0x18
 4248 0791 E90C0000 		.4byte	.LASF115
 4249 0795 0A       		.byte	0xa
 4250 0796 6802     		.2byte	0x268
ARM GAS  C:\Users\PCHAUT~1\AppData\Local\Temp\ccORgsmL.s 			page 76


 4251 0798 47010000 		.4byte	0x147
 4252 079c A4       		.byte	0xa4
 4253 079d 18       		.uleb128 0x18
 4254 079e 960F0000 		.4byte	.LASF116
 4255 07a2 0A       		.byte	0xa
 4256 07a3 6902     		.2byte	0x269
 4257 07a5 47010000 		.4byte	0x147
 4258 07a9 AC       		.byte	0xac
 4259 07aa 18       		.uleb128 0x18
 4260 07ab 1B0B0000 		.4byte	.LASF117
 4261 07af 0A       		.byte	0xa
 4262 07b0 6A02     		.2byte	0x26a
 4263 07b2 47010000 		.4byte	0x147
 4264 07b6 B4       		.byte	0xb4
 4265 07b7 18       		.uleb128 0x18
 4266 07b8 14130000 		.4byte	.LASF118
 4267 07bc 0A       		.byte	0xa
 4268 07bd 6B02     		.2byte	0x26b
 4269 07bf 47010000 		.4byte	0x147
 4270 07c3 BC       		.byte	0xbc
 4271 07c4 18       		.uleb128 0x18
 4272 07c5 18170000 		.4byte	.LASF119
 4273 07c9 0A       		.byte	0xa
 4274 07ca 6C02     		.2byte	0x26c
 4275 07cc 47010000 		.4byte	0x147
 4276 07d0 C4       		.byte	0xc4
 4277 07d1 18       		.uleb128 0x18
 4278 07d2 DA1C0000 		.4byte	.LASF120
 4279 07d6 0A       		.byte	0xa
 4280 07d7 6D02     		.2byte	0x26d
 4281 07d9 25000000 		.4byte	0x25
 4282 07dd CC       		.byte	0xcc
 4283 07de 00       		.byte	0
 4284 07df 0A       		.uleb128 0xa
 4285 07e0 65010000 		.4byte	0x165
 4286 07e4 EF070000 		.4byte	0x7ef
 4287 07e8 0B       		.uleb128 0xb
 4288 07e9 37000000 		.4byte	0x37
 4289 07ed 19       		.byte	0x19
 4290 07ee 00       		.byte	0
 4291 07ef 0A       		.uleb128 0xa
 4292 07f0 65010000 		.4byte	0x165
 4293 07f4 FF070000 		.4byte	0x7ff
 4294 07f8 0B       		.uleb128 0xb
 4295 07f9 37000000 		.4byte	0x37
 4296 07fd 07       		.byte	0x7
 4297 07fe 00       		.byte	0
 4298 07ff 0A       		.uleb128 0xa
 4299 0800 65010000 		.4byte	0x165
 4300 0804 0F080000 		.4byte	0x80f
 4301 0808 0B       		.uleb128 0xb
 4302 0809 37000000 		.4byte	0x37
 4303 080d 17       		.byte	0x17
 4304 080e 00       		.byte	0
 4305 080f 1C       		.uleb128 0x1c
 4306 0810 F0       		.byte	0xf0
 4307 0811 0A       		.byte	0xa
ARM GAS  C:\Users\PCHAUT~1\AppData\Local\Temp\ccORgsmL.s 			page 77


 4308 0812 7202     		.2byte	0x272
 4309 0814 33080000 		.4byte	0x833
 4310 0818 18       		.uleb128 0x18
 4311 0819 5E180000 		.4byte	.LASF121
 4312 081d 0A       		.byte	0xa
 4313 081e 7502     		.2byte	0x275
 4314 0820 33080000 		.4byte	0x833
 4315 0824 00       		.byte	0
 4316 0825 18       		.uleb128 0x18
 4317 0826 570D0000 		.4byte	.LASF122
 4318 082a 0A       		.byte	0xa
 4319 082b 7602     		.2byte	0x276
 4320 082d 43080000 		.4byte	0x843
 4321 0831 78       		.byte	0x78
 4322 0832 00       		.byte	0
 4323 0833 0A       		.uleb128 0xa
 4324 0834 2E030000 		.4byte	0x32e
 4325 0838 43080000 		.4byte	0x843
 4326 083c 0B       		.uleb128 0xb
 4327 083d 37000000 		.4byte	0x37
 4328 0841 1D       		.byte	0x1d
 4329 0842 00       		.byte	0
 4330 0843 0A       		.uleb128 0xa
 4331 0844 37000000 		.4byte	0x37
 4332 0848 53080000 		.4byte	0x853
 4333 084c 0B       		.uleb128 0xb
 4334 084d 37000000 		.4byte	0x37
 4335 0851 1D       		.byte	0x1d
 4336 0852 00       		.byte	0
 4337 0853 1D       		.uleb128 0x1d
 4338 0854 F0       		.byte	0xf0
 4339 0855 0A       		.byte	0xa
 4340 0856 5702     		.2byte	0x257
 4341 0858 75080000 		.4byte	0x875
 4342 085c 1E       		.uleb128 0x1e
 4343 085d F6050000 		.4byte	.LASF72
 4344 0861 0A       		.byte	0xa
 4345 0862 6E02     		.2byte	0x26e
 4346 0864 DE060000 		.4byte	0x6de
 4347 0868 1E       		.uleb128 0x1e
 4348 0869 06030000 		.4byte	.LASF123
 4349 086d 0A       		.byte	0xa
 4350 086e 7702     		.2byte	0x277
 4351 0870 0F080000 		.4byte	0x80f
 4352 0874 00       		.byte	0
 4353 0875 0A       		.uleb128 0xa
 4354 0876 65010000 		.4byte	0x165
 4355 087a 85080000 		.4byte	0x885
 4356 087e 0B       		.uleb128 0xb
 4357 087f 37000000 		.4byte	0x37
 4358 0883 18       		.byte	0x18
 4359 0884 00       		.byte	0
 4360 0885 06       		.uleb128 0x6
 4361 0886 CA1B0000 		.4byte	.LASF125
 4362 088a 05       		.uleb128 0x5
 4363 088b 04       		.byte	0x4
 4364 088c 85080000 		.4byte	0x885
ARM GAS  C:\Users\PCHAUT~1\AppData\Local\Temp\ccORgsmL.s 			page 78


 4365 0890 1F       		.uleb128 0x1f
 4366 0891 9B080000 		.4byte	0x89b
 4367 0895 16       		.uleb128 0x16
 4368 0896 7C040000 		.4byte	0x47c
 4369 089a 00       		.byte	0
 4370 089b 05       		.uleb128 0x5
 4371 089c 04       		.byte	0x4
 4372 089d 90080000 		.4byte	0x890
 4373 08a1 05       		.uleb128 0x5
 4374 08a2 04       		.byte	0x4
 4375 08a3 CF010000 		.4byte	0x1cf
 4376 08a7 1F       		.uleb128 0x1f
 4377 08a8 B2080000 		.4byte	0x8b2
 4378 08ac 16       		.uleb128 0x16
 4379 08ad 25000000 		.4byte	0x25
 4380 08b1 00       		.byte	0
 4381 08b2 05       		.uleb128 0x5
 4382 08b3 04       		.byte	0x4
 4383 08b4 B8080000 		.4byte	0x8b8
 4384 08b8 05       		.uleb128 0x5
 4385 08b9 04       		.byte	0x4
 4386 08ba A7080000 		.4byte	0x8a7
 4387 08be 0A       		.uleb128 0xa
 4388 08bf 4C060000 		.4byte	0x64c
 4389 08c3 CE080000 		.4byte	0x8ce
 4390 08c7 0B       		.uleb128 0xb
 4391 08c8 37000000 		.4byte	0x37
 4392 08cc 02       		.byte	0x2
 4393 08cd 00       		.byte	0
 4394 08ce 20       		.uleb128 0x20
 4395 08cf 671B0000 		.4byte	.LASF126
 4396 08d3 0A       		.byte	0xa
 4397 08d4 0703     		.2byte	0x307
 4398 08d6 7C040000 		.4byte	0x47c
 4399 08da 20       		.uleb128 0x20
 4400 08db DE1F0000 		.4byte	.LASF127
 4401 08df 0A       		.byte	0xa
 4402 08e0 0803     		.2byte	0x308
 4403 08e2 82040000 		.4byte	0x482
 4404 08e6 03       		.uleb128 0x3
 4405 08e7 4D0E0000 		.4byte	.LASF128
 4406 08eb 0B       		.byte	0xb
 4407 08ec 18       		.byte	0x18
 4408 08ed 53000000 		.4byte	0x53
 4409 08f1 0F       		.uleb128 0xf
 4410 08f2 E6080000 		.4byte	0x8e6
 4411 08f6 03       		.uleb128 0x3
 4412 08f7 ED140000 		.4byte	.LASF129
 4413 08fb 0B       		.byte	0xb
 4414 08fc 20       		.byte	0x20
 4415 08fd 65000000 		.4byte	0x65
 4416 0901 03       		.uleb128 0x3
 4417 0902 2D020000 		.4byte	.LASF130
 4418 0906 0B       		.byte	0xb
 4419 0907 24       		.byte	0x24
 4420 0908 77000000 		.4byte	0x77
 4421 090c 03       		.uleb128 0x3
ARM GAS  C:\Users\PCHAUT~1\AppData\Local\Temp\ccORgsmL.s 			page 79


 4422 090d E4030000 		.4byte	.LASF131
 4423 0911 0B       		.byte	0xb
 4424 0912 2C       		.byte	0x2c
 4425 0913 89000000 		.4byte	0x89
 4426 0917 1A       		.uleb128 0x1a
 4427 0918 0C090000 		.4byte	0x90c
 4428 091c 03       		.uleb128 0x3
 4429 091d 9F180000 		.4byte	.LASF132
 4430 0921 0B       		.byte	0xb
 4431 0922 30       		.byte	0x30
 4432 0923 9B000000 		.4byte	0x9b
 4433 0927 1A       		.uleb128 0x1a
 4434 0928 1C090000 		.4byte	0x91c
 4435 092c 0F       		.uleb128 0xf
 4436 092d 27090000 		.4byte	0x927
 4437 0931 03       		.uleb128 0x3
 4438 0932 0A0C0000 		.4byte	.LASF133
 4439 0936 0B       		.byte	0xb
 4440 0937 3C       		.byte	0x3c
 4441 0938 AD000000 		.4byte	0xad
 4442 093c 03       		.uleb128 0x3
 4443 093d AE0D0000 		.4byte	.LASF134
 4444 0941 0C       		.byte	0xc
 4445 0942 45       		.byte	0x45
 4446 0943 1C090000 		.4byte	0x91c
 4447 0947 03       		.uleb128 0x3
 4448 0948 21060000 		.4byte	.LASF135
 4449 094c 0C       		.byte	0xc
 4450 094d 46       		.byte	0x46
 4451 094e 31090000 		.4byte	0x931
 4452 0952 03       		.uleb128 0x3
 4453 0953 AF120000 		.4byte	.LASF136
 4454 0957 0C       		.byte	0xc
 4455 0958 48       		.byte	0x48
 4456 0959 E6080000 		.4byte	0x8e6
 4457 095d 03       		.uleb128 0x3
 4458 095e D51F0000 		.4byte	.LASF137
 4459 0962 0C       		.byte	0xc
 4460 0963 49       		.byte	0x49
 4461 0964 E6080000 		.4byte	0x8e6
 4462 0968 03       		.uleb128 0x3
 4463 0969 49120000 		.4byte	.LASF138
 4464 096d 0C       		.byte	0xc
 4465 096e 4A       		.byte	0x4a
 4466 096f E6080000 		.4byte	0x8e6
 4467 0973 03       		.uleb128 0x3
 4468 0974 67140000 		.4byte	.LASF139
 4469 0978 0C       		.byte	0xc
 4470 0979 4B       		.byte	0x4b
 4471 097a E6080000 		.4byte	0x8e6
 4472 097e 03       		.uleb128 0x3
 4473 097f EF060000 		.4byte	.LASF140
 4474 0983 0C       		.byte	0xc
 4475 0984 4C       		.byte	0x4c
 4476 0985 1C090000 		.4byte	0x91c
 4477 0989 03       		.uleb128 0x3
 4478 098a 4E000000 		.4byte	.LASF141
ARM GAS  C:\Users\PCHAUT~1\AppData\Local\Temp\ccORgsmL.s 			page 80


 4479 098e 0C       		.byte	0xc
 4480 098f 4D       		.byte	0x4d
 4481 0990 0C090000 		.4byte	0x90c
 4482 0994 03       		.uleb128 0x3
 4483 0995 EB180000 		.4byte	.LASF142
 4484 0999 0C       		.byte	0xc
 4485 099a 4F       		.byte	0x4f
 4486 099b 1C090000 		.4byte	0x91c
 4487 099f 03       		.uleb128 0x3
 4488 09a0 CC210000 		.4byte	.LASF143
 4489 09a4 0C       		.byte	0xc
 4490 09a5 50       		.byte	0x50
 4491 09a6 1C090000 		.4byte	0x91c
 4492 09aa 03       		.uleb128 0x3
 4493 09ab 0F1B0000 		.4byte	.LASF144
 4494 09af 0C       		.byte	0xc
 4495 09b0 51       		.byte	0x51
 4496 09b1 0C090000 		.4byte	0x90c
 4497 09b5 03       		.uleb128 0x3
 4498 09b6 59150000 		.4byte	.LASF145
 4499 09ba 0C       		.byte	0xc
 4500 09bb 52       		.byte	0x52
 4501 09bc 1C090000 		.4byte	0x91c
 4502 09c0 03       		.uleb128 0x3
 4503 09c1 F8030000 		.4byte	.LASF146
 4504 09c5 0D       		.byte	0xd
 4505 09c6 33       		.byte	0x33
 4506 09c7 1C090000 		.4byte	0x91c
 4507 09cb 1A       		.uleb128 0x1a
 4508 09cc C0090000 		.4byte	0x9c0
 4509 09d0 03       		.uleb128 0x3
 4510 09d1 94030000 		.4byte	.LASF147
 4511 09d5 0D       		.byte	0xd
 4512 09d6 3F       		.byte	0x3f
 4513 09d7 DB090000 		.4byte	0x9db
 4514 09db 10       		.uleb128 0x10
 4515 09dc FF0A0000 		.4byte	.LASF148
 4516 09e0 68       		.byte	0x68
 4517 09e1 0E       		.byte	0xe
 4518 09e2 C2       		.byte	0xc2
 4519 09e3 F90A0000 		.4byte	0xaf9
 4520 09e7 0D       		.uleb128 0xd
 4521 09e8 E8110000 		.4byte	.LASF149
 4522 09ec 0E       		.byte	0xe
 4523 09ed C3       		.byte	0xc3
 4524 09ee 040B0000 		.4byte	0xb04
 4525 09f2 00       		.byte	0
 4526 09f3 0D       		.uleb128 0xd
 4527 09f4 780E0000 		.4byte	.LASF150
 4528 09f8 0E       		.byte	0xe
 4529 09f9 C5       		.byte	0xc5
 4530 09fa 040B0000 		.4byte	0xb04
 4531 09fe 04       		.byte	0x4
 4532 09ff 0D       		.uleb128 0xd
 4533 0a00 28110000 		.4byte	.LASF151
 4534 0a04 0E       		.byte	0xe
 4535 0a05 C7       		.byte	0xc7
ARM GAS  C:\Users\PCHAUT~1\AppData\Local\Temp\ccORgsmL.s 			page 81


 4536 0a06 7E090000 		.4byte	0x97e
 4537 0a0a 08       		.byte	0x8
 4538 0a0b 0D       		.uleb128 0xd
 4539 0a0c B40B0000 		.4byte	.LASF152
 4540 0a10 0E       		.byte	0xe
 4541 0a11 C8       		.byte	0xc8
 4542 0a12 B7160000 		.4byte	0x16b7
 4543 0a16 0C       		.byte	0xc
 4544 0a17 0D       		.uleb128 0xd
 4545 0a18 C5020000 		.4byte	.LASF153
 4546 0a1c 0E       		.byte	0xe
 4547 0a1d CA       		.byte	0xca
 4548 0a1e 040B0000 		.4byte	0xb04
 4549 0a22 10       		.byte	0x10
 4550 0a23 0D       		.uleb128 0xd
 4551 0a24 8A220000 		.4byte	.LASF154
 4552 0a28 0E       		.byte	0xe
 4553 0a29 CB       		.byte	0xcb
 4554 0a2a 040B0000 		.4byte	0xb04
 4555 0a2e 14       		.byte	0x14
 4556 0a2f 0D       		.uleb128 0xd
 4557 0a30 59200000 		.4byte	.LASF155
 4558 0a34 0E       		.byte	0xe
 4559 0a35 D2       		.byte	0xd2
 4560 0a36 DD050000 		.4byte	0x5dd
 4561 0a3a 18       		.byte	0x18
 4562 0a3b 0D       		.uleb128 0xd
 4563 0a3c 041B0000 		.4byte	.LASF156
 4564 0a40 0E       		.byte	0xe
 4565 0a41 D8       		.byte	0xd8
 4566 0a42 2D1A0000 		.4byte	0x1a2d
 4567 0a46 1C       		.byte	0x1c
 4568 0a47 0D       		.uleb128 0xd
 4569 0a48 A3240000 		.4byte	.LASF157
 4570 0a4c 0E       		.byte	0xe
 4571 0a4d DD       		.byte	0xdd
 4572 0a4e 5D090000 		.4byte	0x95d
 4573 0a52 20       		.byte	0x20
 4574 0a53 0D       		.uleb128 0xd
 4575 0a54 951F0000 		.4byte	.LASF158
 4576 0a58 0E       		.byte	0xe
 4577 0a59 E1       		.byte	0xe1
 4578 0a5a 52090000 		.4byte	0x952
 4579 0a5e 21       		.byte	0x21
 4580 0a5f 0D       		.uleb128 0xd
 4581 0a60 7B170000 		.4byte	.LASF159
 4582 0a64 0E       		.byte	0xe
 4583 0a65 E6       		.byte	0xe6
 4584 0a66 68090000 		.4byte	0x968
 4585 0a6a 22       		.byte	0x22
 4586 0a6b 0D       		.uleb128 0xd
 4587 0a6c 45150000 		.4byte	.LASF160
 4588 0a70 0E       		.byte	0xe
 4589 0a71 EC       		.byte	0xec
 4590 0a72 73090000 		.4byte	0x973
 4591 0a76 23       		.byte	0x23
 4592 0a77 0D       		.uleb128 0xd
ARM GAS  C:\Users\PCHAUT~1\AppData\Local\Temp\ccORgsmL.s 			page 82


 4593 0a78 74170000 		.4byte	.LASF161
 4594 0a7c 0E       		.byte	0xe
 4595 0a7d F3       		.byte	0xf3
 4596 0a7e CB090000 		.4byte	0x9cb
 4597 0a82 24       		.byte	0x24
 4598 0a83 21       		.uleb128 0x21
 4599 0a84 705F7500 		.ascii	"p_u\000"
 4600 0a88 0E       		.byte	0xe
 4601 0a89 3101     		.2byte	0x131
 4602 0a8b 5C190000 		.4byte	0x195c
 4603 0a8f 28       		.byte	0x28
 4604 0a90 18       		.uleb128 0x18
 4605 0a91 5B050000 		.4byte	.LASF162
 4606 0a95 0E       		.byte	0xe
 4607 0a96 3601     		.2byte	0x136
 4608 0a98 0A0B0000 		.4byte	0xb0a
 4609 0a9c 2C       		.byte	0x2c
 4610 0a9d 18       		.uleb128 0x18
 4611 0a9e D1150000 		.4byte	.LASF163
 4612 0aa2 0E       		.byte	0xe
 4613 0aa3 3C01     		.2byte	0x13c
 4614 0aa5 2E0B0000 		.4byte	0xb2e
 4615 0aa9 30       		.byte	0x30
 4616 0aaa 18       		.uleb128 0x18
 4617 0aab 09080000 		.4byte	.LASF164
 4618 0aaf 0E       		.byte	0xe
 4619 0ab0 4001     		.2byte	0x140
 4620 0ab2 89090000 		.4byte	0x989
 4621 0ab6 38       		.byte	0x38
 4622 0ab7 18       		.uleb128 0x18
 4623 0ab8 C41D0000 		.4byte	.LASF165
 4624 0abc 0E       		.byte	0xe
 4625 0abd 4601     		.2byte	0x146
 4626 0abf 94090000 		.4byte	0x994
 4627 0ac3 3C       		.byte	0x3c
 4628 0ac4 18       		.uleb128 0x18
 4629 0ac5 C01F0000 		.4byte	.LASF166
 4630 0ac9 0E       		.byte	0xe
 4631 0aca 4D01     		.2byte	0x14d
 4632 0acc 271A0000 		.4byte	0x1a27
 4633 0ad0 40       		.byte	0x40
 4634 0ad1 18       		.uleb128 0x18
 4635 0ad2 6B1C0000 		.4byte	.LASF167
 4636 0ad6 0E       		.byte	0xe
 4637 0ad7 5101     		.2byte	0x151
 4638 0ad9 7E090000 		.4byte	0x97e
 4639 0add 44       		.byte	0x44
 4640 0ade 18       		.uleb128 0x18
 4641 0adf 51120000 		.4byte	.LASF168
 4642 0ae3 0E       		.byte	0xe
 4643 0ae4 5801     		.2byte	0x158
 4644 0ae6 5D010000 		.4byte	0x15d
 4645 0aea 48       		.byte	0x48
 4646 0aeb 18       		.uleb128 0x18
 4647 0aec DE240000 		.4byte	.LASF169
 4648 0af0 0E       		.byte	0xe
 4649 0af1 5E01     		.2byte	0x15e
ARM GAS  C:\Users\PCHAUT~1\AppData\Local\Temp\ccORgsmL.s 			page 83


 4650 0af3 0D190000 		.4byte	0x190d
 4651 0af7 50       		.byte	0x50
 4652 0af8 00       		.byte	0
 4653 0af9 03       		.uleb128 0x3
 4654 0afa DF220000 		.4byte	.LASF170
 4655 0afe 0D       		.byte	0xd
 4656 0aff 44       		.byte	0x44
 4657 0b00 040B0000 		.4byte	0xb04
 4658 0b04 05       		.uleb128 0x5
 4659 0b05 04       		.byte	0x4
 4660 0b06 D0090000 		.4byte	0x9d0
 4661 0b0a 03       		.uleb128 0x3
 4662 0b0b 9A050000 		.4byte	.LASF171
 4663 0b0f 0D       		.byte	0xd
 4664 0b10 49       		.byte	0x49
 4665 0b11 150B0000 		.4byte	0xb15
 4666 0b15 10       		.uleb128 0x10
 4667 0b16 BD240000 		.4byte	.LASF172
 4668 0b1a 04       		.byte	0x4
 4669 0b1b 0E       		.byte	0xe
 4670 0b1c B0       		.byte	0xb0
 4671 0b1d 2E0B0000 		.4byte	0xb2e
 4672 0b21 0D       		.uleb128 0xd
 4673 0b22 E8110000 		.4byte	.LASF149
 4674 0b26 0E       		.byte	0xe
 4675 0b27 B1       		.byte	0xb1
 4676 0b28 040B0000 		.4byte	0xb04
 4677 0b2c 00       		.byte	0
 4678 0b2d 00       		.byte	0
 4679 0b2e 03       		.uleb128 0x3
 4680 0b2f 4A170000 		.4byte	.LASF173
 4681 0b33 0D       		.byte	0xd
 4682 0b34 50       		.byte	0x50
 4683 0b35 390B0000 		.4byte	0xb39
 4684 0b39 10       		.uleb128 0x10
 4685 0b3a 8F020000 		.4byte	.LASF174
 4686 0b3e 08       		.byte	0x8
 4687 0b3f 0E       		.byte	0xe
 4688 0b40 B7       		.byte	0xb7
 4689 0b41 5E0B0000 		.4byte	0xb5e
 4690 0b45 0D       		.uleb128 0xd
 4691 0b46 E8110000 		.4byte	.LASF149
 4692 0b4a 0E       		.byte	0xe
 4693 0b4b B8       		.byte	0xb8
 4694 0b4c 040B0000 		.4byte	0xb04
 4695 0b50 00       		.byte	0
 4696 0b51 0D       		.uleb128 0xd
 4697 0b52 780E0000 		.4byte	.LASF150
 4698 0b56 0E       		.byte	0xe
 4699 0b57 B9       		.byte	0xb9
 4700 0b58 040B0000 		.4byte	0xb04
 4701 0b5c 04       		.byte	0x4
 4702 0b5d 00       		.byte	0
 4703 0b5e 03       		.uleb128 0x3
 4704 0b5f F20A0000 		.4byte	.LASF175
 4705 0b63 0D       		.byte	0xd
 4706 0b64 57       		.byte	0x57
ARM GAS  C:\Users\PCHAUT~1\AppData\Local\Temp\ccORgsmL.s 			page 84


 4707 0b65 690B0000 		.4byte	0xb69
 4708 0b69 1B       		.uleb128 0x1b
 4709 0b6a 051D0000 		.4byte	.LASF176
 4710 0b6e 1C       		.byte	0x1c
 4711 0b6f 0E       		.byte	0xe
 4712 0b70 9001     		.2byte	0x190
 4713 0b72 C50B0000 		.4byte	0xbc5
 4714 0b76 18       		.uleb128 0x18
 4715 0b77 D7190000 		.4byte	.LASF177
 4716 0b7b 0E       		.byte	0xe
 4717 0b7c 9101     		.2byte	0x191
 4718 0b7e 2E0B0000 		.4byte	0xb2e
 4719 0b82 00       		.byte	0
 4720 0b83 18       		.uleb128 0x18
 4721 0b84 B61E0000 		.4byte	.LASF178
 4722 0b88 0E       		.byte	0xe
 4723 0b89 9201     		.2byte	0x192
 4724 0b8b 7E090000 		.4byte	0x97e
 4725 0b8f 08       		.byte	0x8
 4726 0b90 18       		.uleb128 0x18
 4727 0b91 8E0D0000 		.4byte	.LASF179
 4728 0b95 0E       		.byte	0xe
 4729 0b96 9401     		.2byte	0x194
 4730 0b98 B7160000 		.4byte	0x16b7
 4731 0b9c 0C       		.byte	0xc
 4732 0b9d 18       		.uleb128 0x18
 4733 0b9e E7130000 		.4byte	.LASF180
 4734 0ba2 0E       		.byte	0xe
 4735 0ba3 9701     		.2byte	0x197
 4736 0ba5 040B0000 		.4byte	0xb04
 4737 0ba9 10       		.byte	0x10
 4738 0baa 18       		.uleb128 0x18
 4739 0bab 700E0000 		.4byte	.LASF181
 4740 0baf 0E       		.byte	0xe
 4741 0bb0 9801     		.2byte	0x198
 4742 0bb2 040B0000 		.4byte	0xb04
 4743 0bb6 14       		.byte	0x14
 4744 0bb7 18       		.uleb128 0x18
 4745 0bb8 69100000 		.4byte	.LASF182
 4746 0bbc 0E       		.byte	0xe
 4747 0bbd 9B01     		.2byte	0x19b
 4748 0bbf 040B0000 		.4byte	0xb04
 4749 0bc3 18       		.byte	0x18
 4750 0bc4 00       		.byte	0
 4751 0bc5 03       		.uleb128 0x3
 4752 0bc6 141C0000 		.4byte	.LASF183
 4753 0bca 0D       		.byte	0xd
 4754 0bcb 5C       		.byte	0x5c
 4755 0bcc D00B0000 		.4byte	0xbd0
 4756 0bd0 05       		.uleb128 0x5
 4757 0bd1 04       		.byte	0x4
 4758 0bd2 D60B0000 		.4byte	0xbd6
 4759 0bd6 1F       		.uleb128 0x1f
 4760 0bd7 E10B0000 		.4byte	0xbe1
 4761 0bdb 16       		.uleb128 0x16
 4762 0bdc 5D010000 		.4byte	0x15d
 4763 0be0 00       		.byte	0
ARM GAS  C:\Users\PCHAUT~1\AppData\Local\Temp\ccORgsmL.s 			page 85


 4764 0be1 03       		.uleb128 0x3
 4765 0be2 720D0000 		.4byte	.LASF184
 4766 0be6 0D       		.byte	0xd
 4767 0be7 61       		.byte	0x61
 4768 0be8 EC0B0000 		.4byte	0xbec
 4769 0bec 1B       		.uleb128 0x1b
 4770 0bed 841F0000 		.4byte	.LASF185
 4771 0bf1 14       		.byte	0x14
 4772 0bf2 0E       		.byte	0xe
 4773 0bf3 6B01     		.2byte	0x16b
 4774 0bf5 3B0C0000 		.4byte	0xc3b
 4775 0bf9 18       		.uleb128 0x18
 4776 0bfa 940D0000 		.4byte	.LASF186
 4777 0bfe 0E       		.byte	0xe
 4778 0bff 6C01     		.2byte	0x16c
 4779 0c01 331A0000 		.4byte	0x1a33
 4780 0c05 00       		.byte	0
 4781 0c06 18       		.uleb128 0x18
 4782 0c07 A70A0000 		.4byte	.LASF187
 4783 0c0b 0E       		.byte	0xe
 4784 0c0c 6D01     		.2byte	0x16d
 4785 0c0e 331A0000 		.4byte	0x1a33
 4786 0c12 04       		.byte	0x4
 4787 0c13 18       		.uleb128 0x18
 4788 0c14 B7140000 		.4byte	.LASF188
 4789 0c18 0E       		.byte	0xe
 4790 0c19 6E01     		.2byte	0x16e
 4791 0c1b C0090000 		.4byte	0x9c0
 4792 0c1f 08       		.byte	0x8
 4793 0c20 18       		.uleb128 0x18
 4794 0c21 6F1F0000 		.4byte	.LASF189
 4795 0c25 0E       		.byte	0xe
 4796 0c26 6F01     		.2byte	0x16f
 4797 0c28 C50B0000 		.4byte	0xbc5
 4798 0c2c 0C       		.byte	0xc
 4799 0c2d 18       		.uleb128 0x18
 4800 0c2e BA0B0000 		.4byte	.LASF190
 4801 0c32 0E       		.byte	0xe
 4802 0c33 7101     		.2byte	0x171
 4803 0c35 5D010000 		.4byte	0x15d
 4804 0c39 10       		.byte	0x10
 4805 0c3a 00       		.byte	0
 4806 0c3b 03       		.uleb128 0x3
 4807 0c3c BD200000 		.4byte	.LASF191
 4808 0c40 0D       		.byte	0xd
 4809 0c41 66       		.byte	0x66
 4810 0c42 460C0000 		.4byte	0xc46
 4811 0c46 1B       		.uleb128 0x1b
 4812 0c47 BE030000 		.4byte	.LASF192
 4813 0c4b 10       		.byte	0x10
 4814 0c4c 0E       		.byte	0xe
 4815 0c4d 7B01     		.2byte	0x17b
 4816 0c4f 880C0000 		.4byte	0xc88
 4817 0c53 18       		.uleb128 0x18
 4818 0c54 940D0000 		.4byte	.LASF186
 4819 0c58 0E       		.byte	0xe
 4820 0c59 7C01     		.2byte	0x17c
ARM GAS  C:\Users\PCHAUT~1\AppData\Local\Temp\ccORgsmL.s 			page 86


 4821 0c5b 331A0000 		.4byte	0x1a33
 4822 0c5f 00       		.byte	0
 4823 0c60 18       		.uleb128 0x18
 4824 0c61 A70A0000 		.4byte	.LASF187
 4825 0c65 0E       		.byte	0xe
 4826 0c66 7E01     		.2byte	0x17e
 4827 0c68 331A0000 		.4byte	0x1a33
 4828 0c6c 04       		.byte	0x4
 4829 0c6d 18       		.uleb128 0x18
 4830 0c6e B7140000 		.4byte	.LASF188
 4831 0c72 0E       		.byte	0xe
 4832 0c73 8001     		.2byte	0x180
 4833 0c75 C0090000 		.4byte	0x9c0
 4834 0c79 08       		.byte	0x8
 4835 0c7a 18       		.uleb128 0x18
 4836 0c7b A7010000 		.4byte	.LASF193
 4837 0c7f 0E       		.byte	0xe
 4838 0c80 8201     		.2byte	0x182
 4839 0c82 CB090000 		.4byte	0x9cb
 4840 0c86 0C       		.byte	0xc
 4841 0c87 00       		.byte	0
 4842 0c88 03       		.uleb128 0x3
 4843 0c89 6D0B0000 		.4byte	.LASF194
 4844 0c8d 0D       		.byte	0xd
 4845 0c8e 6B       		.byte	0x6b
 4846 0c8f 930C0000 		.4byte	0xc93
 4847 0c93 17       		.uleb128 0x17
 4848 0c94 2E1D0000 		.4byte	.LASF195
 4849 0c98 1404     		.2byte	0x414
 4850 0c9a 0E       		.byte	0xe
 4851 0c9b A201     		.2byte	0x1a2
 4852 0c9d D60C0000 		.4byte	0xcd6
 4853 0ca1 18       		.uleb128 0x18
 4854 0ca2 C9130000 		.4byte	.LASF196
 4855 0ca6 0E       		.byte	0xe
 4856 0ca7 AA01     		.2byte	0x1aa
 4857 0ca9 E3050000 		.4byte	0x5e3
 4858 0cad 00       		.byte	0
 4859 0cae 18       		.uleb128 0x18
 4860 0caf 7C130000 		.4byte	.LASF197
 4861 0cb3 0E       		.byte	0xe
 4862 0cb4 AF01     		.2byte	0x1af
 4863 0cb6 AA090000 		.4byte	0x9aa
 4864 0cba 04       		.byte	0x4
 4865 0cbb 18       		.uleb128 0x18
 4866 0cbc 86020000 		.4byte	.LASF198
 4867 0cc0 0E       		.byte	0xe
 4868 0cc1 B301     		.2byte	0x1b3
 4869 0cc3 AA090000 		.4byte	0x9aa
 4870 0cc7 08       		.byte	0x8
 4871 0cc8 18       		.uleb128 0x18
 4872 0cc9 CC160000 		.4byte	.LASF199
 4873 0ccd 0E       		.byte	0xe
 4874 0cce B901     		.2byte	0x1b9
 4875 0cd0 9F180000 		.4byte	0x189f
 4876 0cd4 0C       		.byte	0xc
 4877 0cd5 00       		.byte	0
ARM GAS  C:\Users\PCHAUT~1\AppData\Local\Temp\ccORgsmL.s 			page 87


 4878 0cd6 03       		.uleb128 0x3
 4879 0cd7 0F010000 		.4byte	.LASF200
 4880 0cdb 0D       		.byte	0xd
 4881 0cdc 70       		.byte	0x70
 4882 0cdd E10C0000 		.4byte	0xce1
 4883 0ce1 17       		.uleb128 0x17
 4884 0ce2 9C160000 		.4byte	.LASF201
 4885 0ce6 7006     		.2byte	0x670
 4886 0ce8 0E       		.byte	0xe
 4887 0ce9 C201     		.2byte	0x1c2
 4888 0ceb 4E0D0000 		.4byte	0xd4e
 4889 0cef 18       		.uleb128 0x18
 4890 0cf0 94050000 		.4byte	.LASF202
 4891 0cf4 0E       		.byte	0xe
 4892 0cf5 C601     		.2byte	0x1c6
 4893 0cf7 5E0B0000 		.4byte	0xb5e
 4894 0cfb 00       		.byte	0
 4895 0cfc 18       		.uleb128 0x18
 4896 0cfd 45050000 		.4byte	.LASF203
 4897 0d01 0E       		.byte	0xe
 4898 0d02 CA01     		.2byte	0x1ca
 4899 0d04 3B0C0000 		.4byte	0xc3b
 4900 0d08 1C       		.byte	0x1c
 4901 0d09 21       		.uleb128 0x21
 4902 0d0a 64626700 		.ascii	"dbg\000"
 4903 0d0e 0E       		.byte	0xe
 4904 0d0f CE01     		.2byte	0x1ce
 4905 0d11 880C0000 		.4byte	0xc88
 4906 0d15 2C       		.byte	0x2c
 4907 0d16 19       		.uleb128 0x19
 4908 0d17 A5170000 		.4byte	.LASF204
 4909 0d1b 0E       		.byte	0xe
 4910 0d1c D201     		.2byte	0x1d2
 4911 0d1e D0090000 		.4byte	0x9d0
 4912 0d22 4004     		.2byte	0x440
 4913 0d24 22       		.uleb128 0x22
 4914 0d25 746D00   		.ascii	"tm\000"
 4915 0d28 0E       		.byte	0xe
 4916 0d29 D701     		.2byte	0x1d7
 4917 0d2b BF180000 		.4byte	0x18bf
 4918 0d2f A804     		.2byte	0x4a8
 4919 0d31 19       		.uleb128 0x19
 4920 0d32 E91A0000 		.4byte	.LASF205
 4921 0d36 0E       		.byte	0xe
 4922 0d37 DD01     		.2byte	0x1dd
 4923 0d39 51190000 		.4byte	0x1951
 4924 0d3d B004     		.2byte	0x4b0
 4925 0d3f 19       		.uleb128 0x19
 4926 0d40 4C1F0000 		.4byte	.LASF206
 4927 0d44 0E       		.byte	0xe
 4928 0d45 E301     		.2byte	0x1e3
 4929 0d47 391A0000 		.4byte	0x1a39
 4930 0d4b E804     		.2byte	0x4e8
 4931 0d4d 00       		.byte	0
 4932 0d4e 0A       		.uleb128 0xa
 4933 0d4f 1C090000 		.4byte	0x91c
 4934 0d53 5E0D0000 		.4byte	0xd5e
ARM GAS  C:\Users\PCHAUT~1\AppData\Local\Temp\ccORgsmL.s 			page 88


 4935 0d57 0B       		.uleb128 0xb
 4936 0d58 37000000 		.4byte	0x37
 4937 0d5c 00       		.byte	0
 4938 0d5d 00       		.byte	0
 4939 0d5e 0A       		.uleb128 0xa
 4940 0d5f 1C090000 		.4byte	0x91c
 4941 0d63 6E0D0000 		.4byte	0xd6e
 4942 0d67 0B       		.uleb128 0xb
 4943 0d68 37000000 		.4byte	0x37
 4944 0d6c 01       		.byte	0x1
 4945 0d6d 00       		.byte	0
 4946 0d6e 0A       		.uleb128 0xa
 4947 0d6f 1C090000 		.4byte	0x91c
 4948 0d73 7E0D0000 		.4byte	0xd7e
 4949 0d77 0B       		.uleb128 0xb
 4950 0d78 37000000 		.4byte	0x37
 4951 0d7c 07       		.byte	0x7
 4952 0d7d 00       		.byte	0
 4953 0d7e 20       		.uleb128 0x20
 4954 0d7f C41E0000 		.4byte	.LASF207
 4955 0d83 0F       		.byte	0xf
 4956 0d84 A706     		.2byte	0x6a7
 4957 0d86 17090000 		.4byte	0x917
 4958 0d8a 23       		.uleb128 0x23
 4959 0d8b 05160000 		.4byte	.LASF208
 4960 0d8f 10       		.byte	0x10
 4961 0d90 4C       		.byte	0x4c
 4962 0d91 1C090000 		.4byte	0x91c
 4963 0d95 0C       		.uleb128 0xc
 4964 0d96 50       		.byte	0x50
 4965 0d97 11       		.byte	0x11
 4966 0d98 C4       		.byte	0xc4
 4967 0d99 8C0E0000 		.4byte	0xe8c
 4968 0d9d 11       		.uleb128 0x11
 4969 0d9e 535200   		.ascii	"SR\000"
 4970 0da1 11       		.byte	0x11
 4971 0da2 C6       		.byte	0xc6
 4972 0da3 27090000 		.4byte	0x927
 4973 0da7 00       		.byte	0
 4974 0da8 11       		.uleb128 0x11
 4975 0da9 43523100 		.ascii	"CR1\000"
 4976 0dad 11       		.byte	0x11
 4977 0dae C7       		.byte	0xc7
 4978 0daf 27090000 		.4byte	0x927
 4979 0db3 04       		.byte	0x4
 4980 0db4 11       		.uleb128 0x11
 4981 0db5 43523200 		.ascii	"CR2\000"
 4982 0db9 11       		.byte	0x11
 4983 0dba C8       		.byte	0xc8
 4984 0dbb 27090000 		.4byte	0x927
 4985 0dbf 08       		.byte	0x8
 4986 0dc0 0D       		.uleb128 0xd
 4987 0dc1 D8020000 		.4byte	.LASF209
 4988 0dc5 11       		.byte	0x11
 4989 0dc6 C9       		.byte	0xc9
 4990 0dc7 27090000 		.4byte	0x927
 4991 0dcb 0C       		.byte	0xc
ARM GAS  C:\Users\PCHAUT~1\AppData\Local\Temp\ccORgsmL.s 			page 89


 4992 0dcc 0D       		.uleb128 0xd
 4993 0dcd DE020000 		.4byte	.LASF210
 4994 0dd1 11       		.byte	0x11
 4995 0dd2 CA       		.byte	0xca
 4996 0dd3 27090000 		.4byte	0x927
 4997 0dd7 10       		.byte	0x10
 4998 0dd8 0D       		.uleb128 0xd
 4999 0dd9 C10B0000 		.4byte	.LASF211
 5000 0ddd 11       		.byte	0x11
 5001 0dde CB       		.byte	0xcb
 5002 0ddf 27090000 		.4byte	0x927
 5003 0de3 14       		.byte	0x14
 5004 0de4 0D       		.uleb128 0xd
 5005 0de5 C70B0000 		.4byte	.LASF212
 5006 0de9 11       		.byte	0x11
 5007 0dea CC       		.byte	0xcc
 5008 0deb 27090000 		.4byte	0x927
 5009 0def 18       		.byte	0x18
 5010 0df0 0D       		.uleb128 0xd
 5011 0df1 07110000 		.4byte	.LASF213
 5012 0df5 11       		.byte	0x11
 5013 0df6 CD       		.byte	0xcd
 5014 0df7 27090000 		.4byte	0x927
 5015 0dfb 1C       		.byte	0x1c
 5016 0dfc 0D       		.uleb128 0xd
 5017 0dfd CD0B0000 		.4byte	.LASF214
 5018 0e01 11       		.byte	0x11
 5019 0e02 CE       		.byte	0xce
 5020 0e03 27090000 		.4byte	0x927
 5021 0e07 20       		.byte	0x20
 5022 0e08 11       		.uleb128 0x11
 5023 0e09 48545200 		.ascii	"HTR\000"
 5024 0e0d 11       		.byte	0x11
 5025 0e0e CF       		.byte	0xcf
 5026 0e0f 27090000 		.4byte	0x927
 5027 0e13 24       		.byte	0x24
 5028 0e14 11       		.uleb128 0x11
 5029 0e15 4C545200 		.ascii	"LTR\000"
 5030 0e19 11       		.byte	0x11
 5031 0e1a D0       		.byte	0xd0
 5032 0e1b 27090000 		.4byte	0x927
 5033 0e1f 28       		.byte	0x28
 5034 0e20 0D       		.uleb128 0xd
 5035 0e21 CA120000 		.4byte	.LASF215
 5036 0e25 11       		.byte	0x11
 5037 0e26 D1       		.byte	0xd1
 5038 0e27 27090000 		.4byte	0x927
 5039 0e2b 2C       		.byte	0x2c
 5040 0e2c 0D       		.uleb128 0xd
 5041 0e2d CF120000 		.4byte	.LASF216
 5042 0e31 11       		.byte	0x11
 5043 0e32 D2       		.byte	0xd2
 5044 0e33 27090000 		.4byte	0x927
 5045 0e37 30       		.byte	0x30
 5046 0e38 0D       		.uleb128 0xd
 5047 0e39 D4120000 		.4byte	.LASF217
 5048 0e3d 11       		.byte	0x11
ARM GAS  C:\Users\PCHAUT~1\AppData\Local\Temp\ccORgsmL.s 			page 90


 5049 0e3e D3       		.byte	0xd3
 5050 0e3f 27090000 		.4byte	0x927
 5051 0e43 34       		.byte	0x34
 5052 0e44 0D       		.uleb128 0xd
 5053 0e45 3F0D0000 		.4byte	.LASF218
 5054 0e49 11       		.byte	0x11
 5055 0e4a D4       		.byte	0xd4
 5056 0e4b 27090000 		.4byte	0x927
 5057 0e4f 38       		.byte	0x38
 5058 0e50 0D       		.uleb128 0xd
 5059 0e51 78200000 		.4byte	.LASF219
 5060 0e55 11       		.byte	0x11
 5061 0e56 D5       		.byte	0xd5
 5062 0e57 27090000 		.4byte	0x927
 5063 0e5b 3C       		.byte	0x3c
 5064 0e5c 0D       		.uleb128 0xd
 5065 0e5d 7D200000 		.4byte	.LASF220
 5066 0e61 11       		.byte	0x11
 5067 0e62 D6       		.byte	0xd6
 5068 0e63 27090000 		.4byte	0x927
 5069 0e67 40       		.byte	0x40
 5070 0e68 0D       		.uleb128 0xd
 5071 0e69 82200000 		.4byte	.LASF221
 5072 0e6d 11       		.byte	0x11
 5073 0e6e D7       		.byte	0xd7
 5074 0e6f 27090000 		.4byte	0x927
 5075 0e73 44       		.byte	0x44
 5076 0e74 0D       		.uleb128 0xd
 5077 0e75 87200000 		.4byte	.LASF222
 5078 0e79 11       		.byte	0x11
 5079 0e7a D8       		.byte	0xd8
 5080 0e7b 27090000 		.4byte	0x927
 5081 0e7f 48       		.byte	0x48
 5082 0e80 11       		.uleb128 0x11
 5083 0e81 445200   		.ascii	"DR\000"
 5084 0e84 11       		.byte	0x11
 5085 0e85 D9       		.byte	0xd9
 5086 0e86 27090000 		.4byte	0x927
 5087 0e8a 4C       		.byte	0x4c
 5088 0e8b 00       		.byte	0
 5089 0e8c 03       		.uleb128 0x3
 5090 0e8d FE140000 		.4byte	.LASF223
 5091 0e91 11       		.byte	0x11
 5092 0e92 DA       		.byte	0xda
 5093 0e93 950D0000 		.4byte	0xd95
 5094 0e97 0C       		.uleb128 0xc
 5095 0e98 10       		.byte	0x10
 5096 0e99 11       		.byte	0x11
 5097 0e9a E9       		.byte	0xe9
 5098 0e9b D00E0000 		.4byte	0xed0
 5099 0e9f 11       		.uleb128 0x11
 5100 0ea0 54495200 		.ascii	"TIR\000"
 5101 0ea4 11       		.byte	0x11
 5102 0ea5 EB       		.byte	0xeb
 5103 0ea6 27090000 		.4byte	0x927
 5104 0eaa 00       		.byte	0
 5105 0eab 0D       		.uleb128 0xd
ARM GAS  C:\Users\PCHAUT~1\AppData\Local\Temp\ccORgsmL.s 			page 91


 5106 0eac CE100000 		.4byte	.LASF224
 5107 0eb0 11       		.byte	0x11
 5108 0eb1 EC       		.byte	0xec
 5109 0eb2 27090000 		.4byte	0x927
 5110 0eb6 04       		.byte	0x4
 5111 0eb7 0D       		.uleb128 0xd
 5112 0eb8 97170000 		.4byte	.LASF225
 5113 0ebc 11       		.byte	0x11
 5114 0ebd ED       		.byte	0xed
 5115 0ebe 27090000 		.4byte	0x927
 5116 0ec2 08       		.byte	0x8
 5117 0ec3 0D       		.uleb128 0xd
 5118 0ec4 60150000 		.4byte	.LASF226
 5119 0ec8 11       		.byte	0x11
 5120 0ec9 EE       		.byte	0xee
 5121 0eca 27090000 		.4byte	0x927
 5122 0ece 0C       		.byte	0xc
 5123 0ecf 00       		.byte	0
 5124 0ed0 03       		.uleb128 0x3
 5125 0ed1 7E050000 		.4byte	.LASF227
 5126 0ed5 11       		.byte	0x11
 5127 0ed6 EF       		.byte	0xef
 5128 0ed7 970E0000 		.4byte	0xe97
 5129 0edb 0C       		.uleb128 0xc
 5130 0edc 10       		.byte	0x10
 5131 0edd 11       		.byte	0x11
 5132 0ede F5       		.byte	0xf5
 5133 0edf 140F0000 		.4byte	0xf14
 5134 0ee3 11       		.uleb128 0x11
 5135 0ee4 52495200 		.ascii	"RIR\000"
 5136 0ee8 11       		.byte	0x11
 5137 0ee9 F7       		.byte	0xf7
 5138 0eea 27090000 		.4byte	0x927
 5139 0eee 00       		.byte	0
 5140 0eef 0D       		.uleb128 0xd
 5141 0ef0 E31C0000 		.4byte	.LASF228
 5142 0ef4 11       		.byte	0x11
 5143 0ef5 F8       		.byte	0xf8
 5144 0ef6 27090000 		.4byte	0x927
 5145 0efa 04       		.byte	0x4
 5146 0efb 0D       		.uleb128 0xd
 5147 0efc C7180000 		.4byte	.LASF229
 5148 0f00 11       		.byte	0x11
 5149 0f01 F9       		.byte	0xf9
 5150 0f02 27090000 		.4byte	0x927
 5151 0f06 08       		.byte	0x8
 5152 0f07 0D       		.uleb128 0xd
 5153 0f08 89160000 		.4byte	.LASF230
 5154 0f0c 11       		.byte	0x11
 5155 0f0d FA       		.byte	0xfa
 5156 0f0e 27090000 		.4byte	0x927
 5157 0f12 0C       		.byte	0xc
 5158 0f13 00       		.byte	0
 5159 0f14 03       		.uleb128 0x3
 5160 0f15 1D1C0000 		.4byte	.LASF231
 5161 0f19 11       		.byte	0x11
 5162 0f1a FB       		.byte	0xfb
ARM GAS  C:\Users\PCHAUT~1\AppData\Local\Temp\ccORgsmL.s 			page 92


 5163 0f1b DB0E0000 		.4byte	0xedb
 5164 0f1f 1C       		.uleb128 0x1c
 5165 0f20 08       		.byte	0x8
 5166 0f21 11       		.byte	0x11
 5167 0f22 0101     		.2byte	0x101
 5168 0f24 430F0000 		.4byte	0xf43
 5169 0f28 21       		.uleb128 0x21
 5170 0f29 46523100 		.ascii	"FR1\000"
 5171 0f2d 11       		.byte	0x11
 5172 0f2e 0301     		.2byte	0x103
 5173 0f30 27090000 		.4byte	0x927
 5174 0f34 00       		.byte	0
 5175 0f35 21       		.uleb128 0x21
 5176 0f36 46523200 		.ascii	"FR2\000"
 5177 0f3a 11       		.byte	0x11
 5178 0f3b 0401     		.2byte	0x104
 5179 0f3d 27090000 		.4byte	0x927
 5180 0f41 04       		.byte	0x4
 5181 0f42 00       		.byte	0
 5182 0f43 07       		.uleb128 0x7
 5183 0f44 D3100000 		.4byte	.LASF232
 5184 0f48 11       		.byte	0x11
 5185 0f49 0501     		.2byte	0x105
 5186 0f4b 1F0F0000 		.4byte	0xf1f
 5187 0f4f 24       		.uleb128 0x24
 5188 0f50 2003     		.2byte	0x320
 5189 0f52 11       		.byte	0x11
 5190 0f53 0B01     		.2byte	0x10b
 5191 0f55 85100000 		.4byte	0x1085
 5192 0f59 21       		.uleb128 0x21
 5193 0f5a 4D435200 		.ascii	"MCR\000"
 5194 0f5e 11       		.byte	0x11
 5195 0f5f 0D01     		.2byte	0x10d
 5196 0f61 27090000 		.4byte	0x927
 5197 0f65 00       		.byte	0
 5198 0f66 21       		.uleb128 0x21
 5199 0f67 4D535200 		.ascii	"MSR\000"
 5200 0f6b 11       		.byte	0x11
 5201 0f6c 0E01     		.2byte	0x10e
 5202 0f6e 27090000 		.4byte	0x927
 5203 0f72 04       		.byte	0x4
 5204 0f73 21       		.uleb128 0x21
 5205 0f74 54535200 		.ascii	"TSR\000"
 5206 0f78 11       		.byte	0x11
 5207 0f79 0F01     		.2byte	0x10f
 5208 0f7b 27090000 		.4byte	0x927
 5209 0f7f 08       		.byte	0x8
 5210 0f80 18       		.uleb128 0x18
 5211 0f81 3C0F0000 		.4byte	.LASF233
 5212 0f85 11       		.byte	0x11
 5213 0f86 1001     		.2byte	0x110
 5214 0f88 27090000 		.4byte	0x927
 5215 0f8c 0C       		.byte	0xc
 5216 0f8d 18       		.uleb128 0x18
 5217 0f8e 03190000 		.4byte	.LASF234
 5218 0f92 11       		.byte	0x11
 5219 0f93 1101     		.2byte	0x111
ARM GAS  C:\Users\PCHAUT~1\AppData\Local\Temp\ccORgsmL.s 			page 93


 5220 0f95 27090000 		.4byte	0x927
 5221 0f99 10       		.byte	0x10
 5222 0f9a 21       		.uleb128 0x21
 5223 0f9b 49455200 		.ascii	"IER\000"
 5224 0f9f 11       		.byte	0x11
 5225 0fa0 1201     		.2byte	0x112
 5226 0fa2 27090000 		.4byte	0x927
 5227 0fa6 14       		.byte	0x14
 5228 0fa7 21       		.uleb128 0x21
 5229 0fa8 45535200 		.ascii	"ESR\000"
 5230 0fac 11       		.byte	0x11
 5231 0fad 1301     		.2byte	0x113
 5232 0faf 27090000 		.4byte	0x927
 5233 0fb3 18       		.byte	0x18
 5234 0fb4 21       		.uleb128 0x21
 5235 0fb5 42545200 		.ascii	"BTR\000"
 5236 0fb9 11       		.byte	0x11
 5237 0fba 1401     		.2byte	0x114
 5238 0fbc 27090000 		.4byte	0x927
 5239 0fc0 1C       		.byte	0x1c
 5240 0fc1 18       		.uleb128 0x18
 5241 0fc2 E21D0000 		.4byte	.LASF235
 5242 0fc6 11       		.byte	0x11
 5243 0fc7 1501     		.2byte	0x115
 5244 0fc9 85100000 		.4byte	0x1085
 5245 0fcd 20       		.byte	0x20
 5246 0fce 19       		.uleb128 0x19
 5247 0fcf B1110000 		.4byte	.LASF236
 5248 0fd3 11       		.byte	0x11
 5249 0fd4 1601     		.2byte	0x116
 5250 0fd6 95100000 		.4byte	0x1095
 5251 0fda 8001     		.2byte	0x180
 5252 0fdc 19       		.uleb128 0x19
 5253 0fdd F4210000 		.4byte	.LASF237
 5254 0fe1 11       		.byte	0x11
 5255 0fe2 1701     		.2byte	0x117
 5256 0fe4 A5100000 		.4byte	0x10a5
 5257 0fe8 B001     		.2byte	0x1b0
 5258 0fea 19       		.uleb128 0x19
 5259 0feb EC1D0000 		.4byte	.LASF238
 5260 0fef 11       		.byte	0x11
 5261 0ff0 1801     		.2byte	0x118
 5262 0ff2 B5100000 		.4byte	0x10b5
 5263 0ff6 D001     		.2byte	0x1d0
 5264 0ff8 22       		.uleb128 0x22
 5265 0ff9 464D5200 		.ascii	"FMR\000"
 5266 0ffd 11       		.byte	0x11
 5267 0ffe 1901     		.2byte	0x119
 5268 1000 27090000 		.4byte	0x927
 5269 1004 0002     		.2byte	0x200
 5270 1006 19       		.uleb128 0x19
 5271 1007 2A0C0000 		.4byte	.LASF239
 5272 100b 11       		.byte	0x11
 5273 100c 1A01     		.2byte	0x11a
 5274 100e 27090000 		.4byte	0x927
 5275 1012 0402     		.2byte	0x204
 5276 1014 19       		.uleb128 0x19
ARM GAS  C:\Users\PCHAUT~1\AppData\Local\Temp\ccORgsmL.s 			page 94


 5277 1015 F61D0000 		.4byte	.LASF240
 5278 1019 11       		.byte	0x11
 5279 101a 1B01     		.2byte	0x11b
 5280 101c 1C090000 		.4byte	0x91c
 5281 1020 0802     		.2byte	0x208
 5282 1022 19       		.uleb128 0x19
 5283 1023 D01F0000 		.4byte	.LASF241
 5284 1027 11       		.byte	0x11
 5285 1028 1C01     		.2byte	0x11c
 5286 102a 27090000 		.4byte	0x927
 5287 102e 0C02     		.2byte	0x20c
 5288 1030 19       		.uleb128 0x19
 5289 1031 001E0000 		.4byte	.LASF242
 5290 1035 11       		.byte	0x11
 5291 1036 1D01     		.2byte	0x11d
 5292 1038 1C090000 		.4byte	0x91c
 5293 103c 1002     		.2byte	0x210
 5294 103e 19       		.uleb128 0x19
 5295 103f FD180000 		.4byte	.LASF243
 5296 1043 11       		.byte	0x11
 5297 1044 1E01     		.2byte	0x11e
 5298 1046 27090000 		.4byte	0x927
 5299 104a 1402     		.2byte	0x214
 5300 104c 19       		.uleb128 0x19
 5301 104d 0A1E0000 		.4byte	.LASF244
 5302 1051 11       		.byte	0x11
 5303 1052 1F01     		.2byte	0x11f
 5304 1054 1C090000 		.4byte	0x91c
 5305 1058 1802     		.2byte	0x218
 5306 105a 19       		.uleb128 0x19
 5307 105b 35040000 		.4byte	.LASF245
 5308 105f 11       		.byte	0x11
 5309 1060 2001     		.2byte	0x120
 5310 1062 27090000 		.4byte	0x927
 5311 1066 1C02     		.2byte	0x21c
 5312 1068 19       		.uleb128 0x19
 5313 1069 141E0000 		.4byte	.LASF246
 5314 106d 11       		.byte	0x11
 5315 106e 2101     		.2byte	0x121
 5316 1070 6E0D0000 		.4byte	0xd6e
 5317 1074 2002     		.2byte	0x220
 5318 1076 19       		.uleb128 0x19
 5319 1077 44060000 		.4byte	.LASF247
 5320 107b 11       		.byte	0x11
 5321 107c 2201     		.2byte	0x122
 5322 107e C5100000 		.4byte	0x10c5
 5323 1082 4002     		.2byte	0x240
 5324 1084 00       		.byte	0
 5325 1085 0A       		.uleb128 0xa
 5326 1086 1C090000 		.4byte	0x91c
 5327 108a 95100000 		.4byte	0x1095
 5328 108e 0B       		.uleb128 0xb
 5329 108f 37000000 		.4byte	0x37
 5330 1093 57       		.byte	0x57
 5331 1094 00       		.byte	0
 5332 1095 0A       		.uleb128 0xa
 5333 1096 D00E0000 		.4byte	0xed0
ARM GAS  C:\Users\PCHAUT~1\AppData\Local\Temp\ccORgsmL.s 			page 95


 5334 109a A5100000 		.4byte	0x10a5
 5335 109e 0B       		.uleb128 0xb
 5336 109f 37000000 		.4byte	0x37
 5337 10a3 02       		.byte	0x2
 5338 10a4 00       		.byte	0
 5339 10a5 0A       		.uleb128 0xa
 5340 10a6 140F0000 		.4byte	0xf14
 5341 10aa B5100000 		.4byte	0x10b5
 5342 10ae 0B       		.uleb128 0xb
 5343 10af 37000000 		.4byte	0x37
 5344 10b3 01       		.byte	0x1
 5345 10b4 00       		.byte	0
 5346 10b5 0A       		.uleb128 0xa
 5347 10b6 1C090000 		.4byte	0x91c
 5348 10ba C5100000 		.4byte	0x10c5
 5349 10be 0B       		.uleb128 0xb
 5350 10bf 37000000 		.4byte	0x37
 5351 10c3 0B       		.byte	0xb
 5352 10c4 00       		.byte	0
 5353 10c5 0A       		.uleb128 0xa
 5354 10c6 430F0000 		.4byte	0xf43
 5355 10ca D5100000 		.4byte	0x10d5
 5356 10ce 0B       		.uleb128 0xb
 5357 10cf 37000000 		.4byte	0x37
 5358 10d3 1B       		.byte	0x1b
 5359 10d4 00       		.byte	0
 5360 10d5 07       		.uleb128 0x7
 5361 10d6 F00D0000 		.4byte	.LASF248
 5362 10da 11       		.byte	0x11
 5363 10db 2301     		.2byte	0x123
 5364 10dd 4F0F0000 		.4byte	0xf4f
 5365 10e1 1C       		.uleb128 0x1c
 5366 10e2 38       		.byte	0x38
 5367 10e3 11       		.byte	0x11
 5368 10e4 3601     		.2byte	0x136
 5369 10e6 9F110000 		.4byte	0x119f
 5370 10ea 21       		.uleb128 0x21
 5371 10eb 435200   		.ascii	"CR\000"
 5372 10ee 11       		.byte	0x11
 5373 10ef 3801     		.2byte	0x138
 5374 10f1 27090000 		.4byte	0x927
 5375 10f5 00       		.byte	0
 5376 10f6 18       		.uleb128 0x18
 5377 10f7 63160000 		.4byte	.LASF249
 5378 10fb 11       		.byte	0x11
 5379 10fc 3901     		.2byte	0x139
 5380 10fe 27090000 		.4byte	0x927
 5381 1102 04       		.byte	0x4
 5382 1103 18       		.uleb128 0x18
 5383 1104 3A1E0000 		.4byte	.LASF250
 5384 1108 11       		.byte	0x11
 5385 1109 3A01     		.2byte	0x13a
 5386 110b 27090000 		.4byte	0x927
 5387 110f 08       		.byte	0x8
 5388 1110 18       		.uleb128 0x18
 5389 1111 B71A0000 		.4byte	.LASF251
 5390 1115 11       		.byte	0x11
ARM GAS  C:\Users\PCHAUT~1\AppData\Local\Temp\ccORgsmL.s 			page 96


 5391 1116 3B01     		.2byte	0x13b
 5392 1118 27090000 		.4byte	0x927
 5393 111c 0C       		.byte	0xc
 5394 111d 18       		.uleb128 0x18
 5395 111e 7C0B0000 		.4byte	.LASF252
 5396 1122 11       		.byte	0x11
 5397 1123 3C01     		.2byte	0x13c
 5398 1125 27090000 		.4byte	0x927
 5399 1129 10       		.byte	0x10
 5400 112a 18       		.uleb128 0x18
 5401 112b 421E0000 		.4byte	.LASF253
 5402 112f 11       		.byte	0x11
 5403 1130 3D01     		.2byte	0x13d
 5404 1132 27090000 		.4byte	0x927
 5405 1136 14       		.byte	0x14
 5406 1137 18       		.uleb128 0x18
 5407 1138 BF1A0000 		.4byte	.LASF254
 5408 113c 11       		.byte	0x11
 5409 113d 3E01     		.2byte	0x13e
 5410 113f 27090000 		.4byte	0x927
 5411 1143 18       		.byte	0x18
 5412 1144 18       		.uleb128 0x18
 5413 1145 830B0000 		.4byte	.LASF255
 5414 1149 11       		.byte	0x11
 5415 114a 3F01     		.2byte	0x13f
 5416 114c 27090000 		.4byte	0x927
 5417 1150 1C       		.byte	0x1c
 5418 1151 18       		.uleb128 0x18
 5419 1152 891E0000 		.4byte	.LASF256
 5420 1156 11       		.byte	0x11
 5421 1157 4001     		.2byte	0x140
 5422 1159 27090000 		.4byte	0x927
 5423 115d 20       		.byte	0x20
 5424 115e 18       		.uleb128 0x18
 5425 115f E11A0000 		.4byte	.LASF257
 5426 1163 11       		.byte	0x11
 5427 1164 4101     		.2byte	0x141
 5428 1166 27090000 		.4byte	0x927
 5429 116a 24       		.byte	0x24
 5430 116b 18       		.uleb128 0x18
 5431 116c 0B220000 		.4byte	.LASF258
 5432 1170 11       		.byte	0x11
 5433 1171 4201     		.2byte	0x142
 5434 1173 27090000 		.4byte	0x927
 5435 1177 28       		.byte	0x28
 5436 1178 18       		.uleb128 0x18
 5437 1179 B2010000 		.4byte	.LASF259
 5438 117d 11       		.byte	0x11
 5439 117e 4301     		.2byte	0x143
 5440 1180 27090000 		.4byte	0x927
 5441 1184 2C       		.byte	0x2c
 5442 1185 18       		.uleb128 0x18
 5443 1186 B7010000 		.4byte	.LASF260
 5444 118a 11       		.byte	0x11
 5445 118b 4401     		.2byte	0x144
 5446 118d 27090000 		.4byte	0x927
 5447 1191 30       		.byte	0x30
ARM GAS  C:\Users\PCHAUT~1\AppData\Local\Temp\ccORgsmL.s 			page 97


 5448 1192 21       		.uleb128 0x21
 5449 1193 535200   		.ascii	"SR\000"
 5450 1196 11       		.byte	0x11
 5451 1197 4501     		.2byte	0x145
 5452 1199 27090000 		.4byte	0x927
 5453 119d 34       		.byte	0x34
 5454 119e 00       		.byte	0
 5455 119f 07       		.uleb128 0x7
 5456 11a0 351C0000 		.4byte	.LASF261
 5457 11a4 11       		.byte	0x11
 5458 11a5 4601     		.2byte	0x146
 5459 11a7 E1100000 		.4byte	0x10e1
 5460 11ab 1C       		.uleb128 0x1c
 5461 11ac 18       		.byte	0x18
 5462 11ad 11       		.byte	0x11
 5463 11ae 6B01     		.2byte	0x16b
 5464 11b0 02120000 		.4byte	0x1202
 5465 11b4 21       		.uleb128 0x21
 5466 11b5 435200   		.ascii	"CR\000"
 5467 11b8 11       		.byte	0x11
 5468 11b9 6D01     		.2byte	0x16d
 5469 11bb 27090000 		.4byte	0x927
 5470 11bf 00       		.byte	0
 5471 11c0 18       		.uleb128 0x18
 5472 11c1 281F0000 		.4byte	.LASF262
 5473 11c5 11       		.byte	0x11
 5474 11c6 6E01     		.2byte	0x16e
 5475 11c8 27090000 		.4byte	0x927
 5476 11cc 04       		.byte	0x4
 5477 11cd 21       		.uleb128 0x21
 5478 11ce 50415200 		.ascii	"PAR\000"
 5479 11d2 11       		.byte	0x11
 5480 11d3 6F01     		.2byte	0x16f
 5481 11d5 27090000 		.4byte	0x927
 5482 11d9 08       		.byte	0x8
 5483 11da 18       		.uleb128 0x18
 5484 11db 17040000 		.4byte	.LASF263
 5485 11df 11       		.byte	0x11
 5486 11e0 7001     		.2byte	0x170
 5487 11e2 27090000 		.4byte	0x927
 5488 11e6 0C       		.byte	0xc
 5489 11e7 18       		.uleb128 0x18
 5490 11e8 48080000 		.4byte	.LASF264
 5491 11ec 11       		.byte	0x11
 5492 11ed 7101     		.2byte	0x171
 5493 11ef 27090000 		.4byte	0x927
 5494 11f3 10       		.byte	0x10
 5495 11f4 21       		.uleb128 0x21
 5496 11f5 46435200 		.ascii	"FCR\000"
 5497 11f9 11       		.byte	0x11
 5498 11fa 7201     		.2byte	0x172
 5499 11fc 27090000 		.4byte	0x927
 5500 1200 14       		.byte	0x14
 5501 1201 00       		.byte	0
 5502 1202 07       		.uleb128 0x7
 5503 1203 52080000 		.4byte	.LASF265
 5504 1207 11       		.byte	0x11
ARM GAS  C:\Users\PCHAUT~1\AppData\Local\Temp\ccORgsmL.s 			page 98


 5505 1208 7301     		.2byte	0x173
 5506 120a AB110000 		.4byte	0x11ab
 5507 120e 0A       		.uleb128 0xa
 5508 120f 27090000 		.4byte	0x927
 5509 1213 1E120000 		.4byte	0x121e
 5510 1217 0B       		.uleb128 0xb
 5511 1218 37000000 		.4byte	0x37
 5512 121c 01       		.byte	0x1
 5513 121d 00       		.byte	0
 5514 121e 1A       		.uleb128 0x1a
 5515 121f 0E120000 		.4byte	0x120e
 5516 1223 0A       		.uleb128 0xa
 5517 1224 27090000 		.4byte	0x927
 5518 1228 33120000 		.4byte	0x1233
 5519 122c 0B       		.uleb128 0xb
 5520 122d 37000000 		.4byte	0x37
 5521 1231 03       		.byte	0x3
 5522 1232 00       		.byte	0
 5523 1233 1A       		.uleb128 0x1a
 5524 1234 23120000 		.4byte	0x1223
 5525 1238 1C       		.uleb128 0x1c
 5526 1239 28       		.byte	0x28
 5527 123a 11       		.byte	0x11
 5528 123b 3F02     		.2byte	0x23f
 5529 123d C3120000 		.4byte	0x12c3
 5530 1241 21       		.uleb128 0x21
 5531 1242 43523100 		.ascii	"CR1\000"
 5532 1246 11       		.byte	0x11
 5533 1247 4102     		.2byte	0x241
 5534 1249 27090000 		.4byte	0x927
 5535 124d 00       		.byte	0
 5536 124e 21       		.uleb128 0x21
 5537 124f 43523200 		.ascii	"CR2\000"
 5538 1253 11       		.byte	0x11
 5539 1254 4202     		.2byte	0x242
 5540 1256 27090000 		.4byte	0x927
 5541 125a 04       		.byte	0x4
 5542 125b 18       		.uleb128 0x18
 5543 125c D4240000 		.4byte	.LASF266
 5544 1260 11       		.byte	0x11
 5545 1261 4302     		.2byte	0x243
 5546 1263 27090000 		.4byte	0x927
 5547 1267 08       		.byte	0x8
 5548 1268 18       		.uleb128 0x18
 5549 1269 D9240000 		.4byte	.LASF267
 5550 126d 11       		.byte	0x11
 5551 126e 4402     		.2byte	0x244
 5552 1270 27090000 		.4byte	0x927
 5553 1274 0C       		.byte	0xc
 5554 1275 21       		.uleb128 0x21
 5555 1276 445200   		.ascii	"DR\000"
 5556 1279 11       		.byte	0x11
 5557 127a 4502     		.2byte	0x245
 5558 127c 27090000 		.4byte	0x927
 5559 1280 10       		.byte	0x10
 5560 1281 21       		.uleb128 0x21
 5561 1282 53523100 		.ascii	"SR1\000"
ARM GAS  C:\Users\PCHAUT~1\AppData\Local\Temp\ccORgsmL.s 			page 99


 5562 1286 11       		.byte	0x11
 5563 1287 4602     		.2byte	0x246
 5564 1289 27090000 		.4byte	0x927
 5565 128d 14       		.byte	0x14
 5566 128e 21       		.uleb128 0x21
 5567 128f 53523200 		.ascii	"SR2\000"
 5568 1293 11       		.byte	0x11
 5569 1294 4702     		.2byte	0x247
 5570 1296 27090000 		.4byte	0x927
 5571 129a 18       		.byte	0x18
 5572 129b 21       		.uleb128 0x21
 5573 129c 43435200 		.ascii	"CCR\000"
 5574 12a0 11       		.byte	0x11
 5575 12a1 4802     		.2byte	0x248
 5576 12a3 27090000 		.4byte	0x927
 5577 12a7 1C       		.byte	0x1c
 5578 12a8 18       		.uleb128 0x18
 5579 12a9 4C050000 		.4byte	.LASF268
 5580 12ad 11       		.byte	0x11
 5581 12ae 4902     		.2byte	0x249
 5582 12b0 27090000 		.4byte	0x927
 5583 12b4 20       		.byte	0x20
 5584 12b5 18       		.uleb128 0x18
 5585 12b6 69230000 		.4byte	.LASF269
 5586 12ba 11       		.byte	0x11
 5587 12bb 4A02     		.2byte	0x24a
 5588 12bd 27090000 		.4byte	0x927
 5589 12c1 24       		.byte	0x24
 5590 12c2 00       		.byte	0
 5591 12c3 07       		.uleb128 0x7
 5592 12c4 59120000 		.4byte	.LASF270
 5593 12c8 11       		.byte	0x11
 5594 12c9 4B02     		.2byte	0x24b
 5595 12cb 38120000 		.4byte	0x1238
 5596 12cf 1C       		.uleb128 0x1c
 5597 12d0 88       		.byte	0x88
 5598 12d1 11       		.byte	0x11
 5599 12d2 6702     		.2byte	0x267
 5600 12d4 5E140000 		.4byte	0x145e
 5601 12d8 21       		.uleb128 0x21
 5602 12d9 435200   		.ascii	"CR\000"
 5603 12dc 11       		.byte	0x11
 5604 12dd 6902     		.2byte	0x269
 5605 12df 27090000 		.4byte	0x927
 5606 12e3 00       		.byte	0
 5607 12e4 18       		.uleb128 0x18
 5608 12e5 EE1B0000 		.4byte	.LASF271
 5609 12e9 11       		.byte	0x11
 5610 12ea 6A02     		.2byte	0x26a
 5611 12ec 27090000 		.4byte	0x927
 5612 12f0 04       		.byte	0x4
 5613 12f1 18       		.uleb128 0x18
 5614 12f2 8A140000 		.4byte	.LASF272
 5615 12f6 11       		.byte	0x11
 5616 12f7 6B02     		.2byte	0x26b
 5617 12f9 27090000 		.4byte	0x927
 5618 12fd 08       		.byte	0x8
ARM GAS  C:\Users\PCHAUT~1\AppData\Local\Temp\ccORgsmL.s 			page 100


 5619 12fe 21       		.uleb128 0x21
 5620 12ff 43495200 		.ascii	"CIR\000"
 5621 1303 11       		.byte	0x11
 5622 1304 6C02     		.2byte	0x26c
 5623 1306 27090000 		.4byte	0x927
 5624 130a 0C       		.byte	0xc
 5625 130b 18       		.uleb128 0x18
 5626 130c 7F240000 		.4byte	.LASF273
 5627 1310 11       		.byte	0x11
 5628 1311 6D02     		.2byte	0x26d
 5629 1313 27090000 		.4byte	0x927
 5630 1317 10       		.byte	0x10
 5631 1318 18       		.uleb128 0x18
 5632 1319 C50C0000 		.4byte	.LASF274
 5633 131d 11       		.byte	0x11
 5634 131e 6E02     		.2byte	0x26e
 5635 1320 27090000 		.4byte	0x927
 5636 1324 14       		.byte	0x14
 5637 1325 18       		.uleb128 0x18
 5638 1326 EB170000 		.4byte	.LASF275
 5639 132a 11       		.byte	0x11
 5640 132b 6F02     		.2byte	0x26f
 5641 132d 27090000 		.4byte	0x927
 5642 1331 18       		.byte	0x18
 5643 1332 18       		.uleb128 0x18
 5644 1333 E21D0000 		.4byte	.LASF235
 5645 1337 11       		.byte	0x11
 5646 1338 7002     		.2byte	0x270
 5647 133a 1C090000 		.4byte	0x91c
 5648 133e 1C       		.byte	0x1c
 5649 133f 18       		.uleb128 0x18
 5650 1340 AF040000 		.4byte	.LASF276
 5651 1344 11       		.byte	0x11
 5652 1345 7102     		.2byte	0x271
 5653 1347 27090000 		.4byte	0x927
 5654 134b 20       		.byte	0x20
 5655 134c 18       		.uleb128 0x18
 5656 134d DF110000 		.4byte	.LASF277
 5657 1351 11       		.byte	0x11
 5658 1352 7202     		.2byte	0x272
 5659 1354 27090000 		.4byte	0x927
 5660 1358 24       		.byte	0x24
 5661 1359 18       		.uleb128 0x18
 5662 135a EC1D0000 		.4byte	.LASF238
 5663 135e 11       		.byte	0x11
 5664 135f 7302     		.2byte	0x273
 5665 1361 5E0D0000 		.4byte	0xd5e
 5666 1365 28       		.byte	0x28
 5667 1366 18       		.uleb128 0x18
 5668 1367 01140000 		.4byte	.LASF278
 5669 136b 11       		.byte	0x11
 5670 136c 7402     		.2byte	0x274
 5671 136e 27090000 		.4byte	0x927
 5672 1372 30       		.byte	0x30
 5673 1373 18       		.uleb128 0x18
 5674 1374 77240000 		.4byte	.LASF279
 5675 1378 11       		.byte	0x11
ARM GAS  C:\Users\PCHAUT~1\AppData\Local\Temp\ccORgsmL.s 			page 101


 5676 1379 7502     		.2byte	0x275
 5677 137b 27090000 		.4byte	0x927
 5678 137f 34       		.byte	0x34
 5679 1380 18       		.uleb128 0x18
 5680 1381 B7120000 		.4byte	.LASF280
 5681 1385 11       		.byte	0x11
 5682 1386 7602     		.2byte	0x276
 5683 1388 27090000 		.4byte	0x927
 5684 138c 38       		.byte	0x38
 5685 138d 18       		.uleb128 0x18
 5686 138e F61D0000 		.4byte	.LASF240
 5687 1392 11       		.byte	0x11
 5688 1393 7702     		.2byte	0x277
 5689 1395 1C090000 		.4byte	0x91c
 5690 1399 3C       		.byte	0x3c
 5691 139a 18       		.uleb128 0x18
 5692 139b 681A0000 		.4byte	.LASF281
 5693 139f 11       		.byte	0x11
 5694 13a0 7802     		.2byte	0x278
 5695 13a2 27090000 		.4byte	0x927
 5696 13a6 40       		.byte	0x40
 5697 13a7 18       		.uleb128 0x18
 5698 13a8 03070000 		.4byte	.LASF282
 5699 13ac 11       		.byte	0x11
 5700 13ad 7902     		.2byte	0x279
 5701 13af 27090000 		.4byte	0x927
 5702 13b3 44       		.byte	0x44
 5703 13b4 18       		.uleb128 0x18
 5704 13b5 001E0000 		.4byte	.LASF242
 5705 13b9 11       		.byte	0x11
 5706 13ba 7A02     		.2byte	0x27a
 5707 13bc 5E0D0000 		.4byte	0xd5e
 5708 13c0 48       		.byte	0x48
 5709 13c1 18       		.uleb128 0x18
 5710 13c2 0C1F0000 		.4byte	.LASF283
 5711 13c6 11       		.byte	0x11
 5712 13c7 7B02     		.2byte	0x27b
 5713 13c9 27090000 		.4byte	0x927
 5714 13cd 50       		.byte	0x50
 5715 13ce 18       		.uleb128 0x18
 5716 13cf AA0B0000 		.4byte	.LASF284
 5717 13d3 11       		.byte	0x11
 5718 13d4 7C02     		.2byte	0x27c
 5719 13d6 27090000 		.4byte	0x927
 5720 13da 54       		.byte	0x54
 5721 13db 18       		.uleb128 0x18
 5722 13dc 340B0000 		.4byte	.LASF285
 5723 13e0 11       		.byte	0x11
 5724 13e1 7D02     		.2byte	0x27d
 5725 13e3 27090000 		.4byte	0x927
 5726 13e7 58       		.byte	0x58
 5727 13e8 18       		.uleb128 0x18
 5728 13e9 0A1E0000 		.4byte	.LASF244
 5729 13ed 11       		.byte	0x11
 5730 13ee 7E02     		.2byte	0x27e
 5731 13f0 1C090000 		.4byte	0x91c
 5732 13f4 5C       		.byte	0x5c
ARM GAS  C:\Users\PCHAUT~1\AppData\Local\Temp\ccORgsmL.s 			page 102


 5733 13f5 18       		.uleb128 0x18
 5734 13f6 38120000 		.4byte	.LASF286
 5735 13fa 11       		.byte	0x11
 5736 13fb 7F02     		.2byte	0x27f
 5737 13fd 27090000 		.4byte	0x927
 5738 1401 60       		.byte	0x60
 5739 1402 18       		.uleb128 0x18
 5740 1403 95200000 		.4byte	.LASF287
 5741 1407 11       		.byte	0x11
 5742 1408 8002     		.2byte	0x280
 5743 140a 27090000 		.4byte	0x927
 5744 140e 64       		.byte	0x64
 5745 140f 18       		.uleb128 0x18
 5746 1410 141E0000 		.4byte	.LASF246
 5747 1414 11       		.byte	0x11
 5748 1415 8102     		.2byte	0x281
 5749 1417 5E0D0000 		.4byte	0xd5e
 5750 141b 68       		.byte	0x68
 5751 141c 18       		.uleb128 0x18
 5752 141d F01C0000 		.4byte	.LASF288
 5753 1421 11       		.byte	0x11
 5754 1422 8202     		.2byte	0x282
 5755 1424 27090000 		.4byte	0x927
 5756 1428 70       		.byte	0x70
 5757 1429 21       		.uleb128 0x21
 5758 142a 43535200 		.ascii	"CSR\000"
 5759 142e 11       		.byte	0x11
 5760 142f 8302     		.2byte	0x283
 5761 1431 27090000 		.4byte	0x927
 5762 1435 74       		.byte	0x74
 5763 1436 18       		.uleb128 0x18
 5764 1437 1E1E0000 		.4byte	.LASF289
 5765 143b 11       		.byte	0x11
 5766 143c 8402     		.2byte	0x284
 5767 143e 5E0D0000 		.4byte	0xd5e
 5768 1442 78       		.byte	0x78
 5769 1443 18       		.uleb128 0x18
 5770 1444 8F150000 		.4byte	.LASF290
 5771 1448 11       		.byte	0x11
 5772 1449 8502     		.2byte	0x285
 5773 144b 27090000 		.4byte	0x927
 5774 144f 80       		.byte	0x80
 5775 1450 18       		.uleb128 0x18
 5776 1451 AC160000 		.4byte	.LASF291
 5777 1455 11       		.byte	0x11
 5778 1456 8602     		.2byte	0x286
 5779 1458 27090000 		.4byte	0x927
 5780 145c 84       		.byte	0x84
 5781 145d 00       		.byte	0
 5782 145e 07       		.uleb128 0x7
 5783 145f CD010000 		.4byte	.LASF292
 5784 1463 11       		.byte	0x11
 5785 1464 8802     		.2byte	0x288
 5786 1466 CF120000 		.4byte	0x12cf
 5787 146a 1C       		.uleb128 0x1c
 5788 146b 84       		.byte	0x84
 5789 146c 11       		.byte	0x11
ARM GAS  C:\Users\PCHAUT~1\AppData\Local\Temp\ccORgsmL.s 			page 103


 5790 146d BF02     		.2byte	0x2bf
 5791 146f 78150000 		.4byte	0x1578
 5792 1473 18       		.uleb128 0x18
 5793 1474 A6160000 		.4byte	.LASF293
 5794 1478 11       		.byte	0x11
 5795 1479 C102     		.2byte	0x2c1
 5796 147b 27090000 		.4byte	0x927
 5797 147f 00       		.byte	0
 5798 1480 18       		.uleb128 0x18
 5799 1481 49200000 		.4byte	.LASF294
 5800 1485 11       		.byte	0x11
 5801 1486 C202     		.2byte	0x2c2
 5802 1488 27090000 		.4byte	0x927
 5803 148c 04       		.byte	0x4
 5804 148d 21       		.uleb128 0x21
 5805 148e 41524700 		.ascii	"ARG\000"
 5806 1492 11       		.byte	0x11
 5807 1493 C302     		.2byte	0x2c3
 5808 1495 27090000 		.4byte	0x927
 5809 1499 08       		.byte	0x8
 5810 149a 21       		.uleb128 0x21
 5811 149b 434D4400 		.ascii	"CMD\000"
 5812 149f 11       		.byte	0x11
 5813 14a0 C402     		.2byte	0x2c4
 5814 14a2 27090000 		.4byte	0x927
 5815 14a6 0C       		.byte	0xc
 5816 14a7 18       		.uleb128 0x18
 5817 14a8 9A190000 		.4byte	.LASF295
 5818 14ac 11       		.byte	0x11
 5819 14ad C502     		.2byte	0x2c5
 5820 14af 2C090000 		.4byte	0x92c
 5821 14b3 10       		.byte	0x10
 5822 14b4 18       		.uleb128 0x18
 5823 14b5 68060000 		.4byte	.LASF296
 5824 14b9 11       		.byte	0x11
 5825 14ba C602     		.2byte	0x2c6
 5826 14bc 2C090000 		.4byte	0x92c
 5827 14c0 14       		.byte	0x14
 5828 14c1 18       		.uleb128 0x18
 5829 14c2 6E060000 		.4byte	.LASF297
 5830 14c6 11       		.byte	0x11
 5831 14c7 C702     		.2byte	0x2c7
 5832 14c9 2C090000 		.4byte	0x92c
 5833 14cd 18       		.byte	0x18
 5834 14ce 18       		.uleb128 0x18
 5835 14cf 74060000 		.4byte	.LASF298
 5836 14d3 11       		.byte	0x11
 5837 14d4 C802     		.2byte	0x2c8
 5838 14d6 2C090000 		.4byte	0x92c
 5839 14da 1C       		.byte	0x1c
 5840 14db 18       		.uleb128 0x18
 5841 14dc 7A060000 		.4byte	.LASF299
 5842 14e0 11       		.byte	0x11
 5843 14e1 C902     		.2byte	0x2c9
 5844 14e3 2C090000 		.4byte	0x92c
 5845 14e7 20       		.byte	0x20
 5846 14e8 18       		.uleb128 0x18
ARM GAS  C:\Users\PCHAUT~1\AppData\Local\Temp\ccORgsmL.s 			page 104


 5847 14e9 E0130000 		.4byte	.LASF300
 5848 14ed 11       		.byte	0x11
 5849 14ee CA02     		.2byte	0x2ca
 5850 14f0 27090000 		.4byte	0x927
 5851 14f4 24       		.byte	0x24
 5852 14f5 18       		.uleb128 0x18
 5853 14f6 8A150000 		.4byte	.LASF301
 5854 14fa 11       		.byte	0x11
 5855 14fb CB02     		.2byte	0x2cb
 5856 14fd 27090000 		.4byte	0x927
 5857 1501 28       		.byte	0x28
 5858 1502 18       		.uleb128 0x18
 5859 1503 55230000 		.4byte	.LASF302
 5860 1507 11       		.byte	0x11
 5861 1508 CC02     		.2byte	0x2cc
 5862 150a 27090000 		.4byte	0x927
 5863 150e 2C       		.byte	0x2c
 5864 150f 18       		.uleb128 0x18
 5865 1510 CD240000 		.4byte	.LASF303
 5866 1514 11       		.byte	0x11
 5867 1515 CD02     		.2byte	0x2cd
 5868 1517 2C090000 		.4byte	0x92c
 5869 151b 30       		.byte	0x30
 5870 151c 21       		.uleb128 0x21
 5871 151d 53544100 		.ascii	"STA\000"
 5872 1521 11       		.byte	0x11
 5873 1522 CE02     		.2byte	0x2ce
 5874 1524 2C090000 		.4byte	0x92c
 5875 1528 34       		.byte	0x34
 5876 1529 21       		.uleb128 0x21
 5877 152a 49435200 		.ascii	"ICR\000"
 5878 152e 11       		.byte	0x11
 5879 152f CF02     		.2byte	0x2cf
 5880 1531 27090000 		.4byte	0x927
 5881 1535 38       		.byte	0x38
 5882 1536 18       		.uleb128 0x18
 5883 1537 03020000 		.4byte	.LASF304
 5884 153b 11       		.byte	0x11
 5885 153c D002     		.2byte	0x2d0
 5886 153e 27090000 		.4byte	0x927
 5887 1542 3C       		.byte	0x3c
 5888 1543 18       		.uleb128 0x18
 5889 1544 E21D0000 		.4byte	.LASF235
 5890 1548 11       		.byte	0x11
 5891 1549 D102     		.2byte	0x2d1
 5892 154b 5E0D0000 		.4byte	0xd5e
 5893 154f 40       		.byte	0x40
 5894 1550 18       		.uleb128 0x18
 5895 1551 97140000 		.4byte	.LASF305
 5896 1555 11       		.byte	0x11
 5897 1556 D202     		.2byte	0x2d2
 5898 1558 2C090000 		.4byte	0x92c
 5899 155c 48       		.byte	0x48
 5900 155d 18       		.uleb128 0x18
 5901 155e EC1D0000 		.4byte	.LASF238
 5902 1562 11       		.byte	0x11
 5903 1563 D302     		.2byte	0x2d3
ARM GAS  C:\Users\PCHAUT~1\AppData\Local\Temp\ccORgsmL.s 			page 105


 5904 1565 78150000 		.4byte	0x1578
 5905 1569 4C       		.byte	0x4c
 5906 156a 18       		.uleb128 0x18
 5907 156b D50A0000 		.4byte	.LASF306
 5908 156f 11       		.byte	0x11
 5909 1570 D402     		.2byte	0x2d4
 5910 1572 27090000 		.4byte	0x927
 5911 1576 80       		.byte	0x80
 5912 1577 00       		.byte	0
 5913 1578 0A       		.uleb128 0xa
 5914 1579 1C090000 		.4byte	0x91c
 5915 157d 88150000 		.4byte	0x1588
 5916 1581 0B       		.uleb128 0xb
 5917 1582 37000000 		.4byte	0x37
 5918 1586 0C       		.byte	0xc
 5919 1587 00       		.byte	0
 5920 1588 07       		.uleb128 0x7
 5921 1589 F81E0000 		.4byte	.LASF307
 5922 158d 11       		.byte	0x11
 5923 158e D502     		.2byte	0x2d5
 5924 1590 6A140000 		.4byte	0x146a
 5925 1594 1C       		.uleb128 0x1c
 5926 1595 24       		.byte	0x24
 5927 1596 11       		.byte	0x11
 5928 1597 DB02     		.2byte	0x2db
 5929 1599 11160000 		.4byte	0x1611
 5930 159d 21       		.uleb128 0x21
 5931 159e 43523100 		.ascii	"CR1\000"
 5932 15a2 11       		.byte	0x11
 5933 15a3 DD02     		.2byte	0x2dd
 5934 15a5 27090000 		.4byte	0x927
 5935 15a9 00       		.byte	0
 5936 15aa 21       		.uleb128 0x21
 5937 15ab 43523200 		.ascii	"CR2\000"
 5938 15af 11       		.byte	0x11
 5939 15b0 DE02     		.2byte	0x2de
 5940 15b2 27090000 		.4byte	0x927
 5941 15b6 04       		.byte	0x4
 5942 15b7 21       		.uleb128 0x21
 5943 15b8 535200   		.ascii	"SR\000"
 5944 15bb 11       		.byte	0x11
 5945 15bc DF02     		.2byte	0x2df
 5946 15be 27090000 		.4byte	0x927
 5947 15c2 08       		.byte	0x8
 5948 15c3 21       		.uleb128 0x21
 5949 15c4 445200   		.ascii	"DR\000"
 5950 15c7 11       		.byte	0x11
 5951 15c8 E002     		.2byte	0x2e0
 5952 15ca 27090000 		.4byte	0x927
 5953 15ce 0C       		.byte	0xc
 5954 15cf 18       		.uleb128 0x18
 5955 15d0 CC070000 		.4byte	.LASF308
 5956 15d4 11       		.byte	0x11
 5957 15d5 E102     		.2byte	0x2e1
 5958 15d7 27090000 		.4byte	0x927
 5959 15db 10       		.byte	0x10
 5960 15dc 18       		.uleb128 0x18
ARM GAS  C:\Users\PCHAUT~1\AppData\Local\Temp\ccORgsmL.s 			page 106


 5961 15dd 9B0C0000 		.4byte	.LASF309
 5962 15e1 11       		.byte	0x11
 5963 15e2 E202     		.2byte	0x2e2
 5964 15e4 27090000 		.4byte	0x927
 5965 15e8 14       		.byte	0x14
 5966 15e9 18       		.uleb128 0x18
 5967 15ea DA0B0000 		.4byte	.LASF310
 5968 15ee 11       		.byte	0x11
 5969 15ef E302     		.2byte	0x2e3
 5970 15f1 27090000 		.4byte	0x927
 5971 15f5 18       		.byte	0x18
 5972 15f6 18       		.uleb128 0x18
 5973 15f7 25210000 		.4byte	.LASF311
 5974 15fb 11       		.byte	0x11
 5975 15fc E402     		.2byte	0x2e4
 5976 15fe 27090000 		.4byte	0x927
 5977 1602 1C       		.byte	0x1c
 5978 1603 18       		.uleb128 0x18
 5979 1604 8F070000 		.4byte	.LASF312
 5980 1608 11       		.byte	0x11
 5981 1609 E502     		.2byte	0x2e5
 5982 160b 27090000 		.4byte	0x927
 5983 160f 20       		.byte	0x20
 5984 1610 00       		.byte	0
 5985 1611 07       		.uleb128 0x7
 5986 1612 631F0000 		.4byte	.LASF313
 5987 1616 11       		.byte	0x11
 5988 1617 E602     		.2byte	0x2e6
 5989 1619 94150000 		.4byte	0x1594
 5990 161d 1C       		.uleb128 0x1c
 5991 161e 1C       		.byte	0x1c
 5992 161f 11       		.byte	0x11
 5993 1620 0903     		.2byte	0x309
 5994 1622 80160000 		.4byte	0x1680
 5995 1626 21       		.uleb128 0x21
 5996 1627 535200   		.ascii	"SR\000"
 5997 162a 11       		.byte	0x11
 5998 162b 0B03     		.2byte	0x30b
 5999 162d 27090000 		.4byte	0x927
 6000 1631 00       		.byte	0
 6001 1632 21       		.uleb128 0x21
 6002 1633 445200   		.ascii	"DR\000"
 6003 1636 11       		.byte	0x11
 6004 1637 0C03     		.2byte	0x30c
 6005 1639 27090000 		.4byte	0x927
 6006 163d 04       		.byte	0x4
 6007 163e 21       		.uleb128 0x21
 6008 163f 42525200 		.ascii	"BRR\000"
 6009 1643 11       		.byte	0x11
 6010 1644 0D03     		.2byte	0x30d
 6011 1646 27090000 		.4byte	0x927
 6012 164a 08       		.byte	0x8
 6013 164b 21       		.uleb128 0x21
 6014 164c 43523100 		.ascii	"CR1\000"
 6015 1650 11       		.byte	0x11
 6016 1651 0E03     		.2byte	0x30e
 6017 1653 27090000 		.4byte	0x927
ARM GAS  C:\Users\PCHAUT~1\AppData\Local\Temp\ccORgsmL.s 			page 107


 6018 1657 0C       		.byte	0xc
 6019 1658 21       		.uleb128 0x21
 6020 1659 43523200 		.ascii	"CR2\000"
 6021 165d 11       		.byte	0x11
 6022 165e 0F03     		.2byte	0x30f
 6023 1660 27090000 		.4byte	0x927
 6024 1664 10       		.byte	0x10
 6025 1665 21       		.uleb128 0x21
 6026 1666 43523300 		.ascii	"CR3\000"
 6027 166a 11       		.byte	0x11
 6028 166b 1003     		.2byte	0x310
 6029 166d 27090000 		.4byte	0x927
 6030 1671 14       		.byte	0x14
 6031 1672 18       		.uleb128 0x18
 6032 1673 5F0F0000 		.4byte	.LASF314
 6033 1677 11       		.byte	0x11
 6034 1678 1103     		.2byte	0x311
 6035 167a 27090000 		.4byte	0x927
 6036 167e 18       		.byte	0x18
 6037 167f 00       		.byte	0
 6038 1680 07       		.uleb128 0x7
 6039 1681 0F240000 		.4byte	.LASF315
 6040 1685 11       		.byte	0x11
 6041 1686 1203     		.2byte	0x312
 6042 1688 1D160000 		.4byte	0x161d
 6043 168c 0A       		.uleb128 0xa
 6044 168d 27090000 		.4byte	0x927
 6045 1691 9C160000 		.4byte	0x169c
 6046 1695 0B       		.uleb128 0xb
 6047 1696 37000000 		.4byte	0x37
 6048 169a 0E       		.byte	0xe
 6049 169b 00       		.byte	0
 6050 169c 1A       		.uleb128 0x1a
 6051 169d 8C160000 		.4byte	0x168c
 6052 16a1 03       		.uleb128 0x3
 6053 16a2 E2180000 		.4byte	.LASF316
 6054 16a6 12       		.byte	0x12
 6055 16a7 65       		.byte	0x65
 6056 16a8 5D010000 		.4byte	0x15d
 6057 16ac 03       		.uleb128 0x3
 6058 16ad 730A0000 		.4byte	.LASF317
 6059 16b1 12       		.byte	0x12
 6060 16b2 6D       		.byte	0x6d
 6061 16b3 31090000 		.4byte	0x931
 6062 16b7 10       		.uleb128 0x10
 6063 16b8 A7120000 		.4byte	.LASF318
 6064 16bc 04       		.byte	0x4
 6065 16bd 12       		.byte	0x12
 6066 16be 89       		.byte	0x89
 6067 16bf D0160000 		.4byte	0x16d0
 6068 16c3 11       		.uleb128 0x11
 6069 16c4 72313300 		.ascii	"r13\000"
 6070 16c8 12       		.byte	0x12
 6071 16c9 8A       		.byte	0x8a
 6072 16ca 11180000 		.4byte	0x1811
 6073 16ce 00       		.byte	0
 6074 16cf 00       		.byte	0
ARM GAS  C:\Users\PCHAUT~1\AppData\Local\Temp\ccORgsmL.s 			page 108


 6075 16d0 10       		.uleb128 0x10
 6076 16d1 09000000 		.4byte	.LASF319
 6077 16d5 64       		.byte	0x64
 6078 16d6 01       		.byte	0x1
 6079 16d7 F4       		.byte	0xf4
 6080 16d8 11180000 		.4byte	0x1811
 6081 16dc 11       		.uleb128 0x11
 6082 16dd 73313600 		.ascii	"s16\000"
 6083 16e1 01       		.byte	0x1
 6084 16e2 F6       		.byte	0xf6
 6085 16e3 A1160000 		.4byte	0x16a1
 6086 16e7 00       		.byte	0
 6087 16e8 11       		.uleb128 0x11
 6088 16e9 73313700 		.ascii	"s17\000"
 6089 16ed 01       		.byte	0x1
 6090 16ee F7       		.byte	0xf7
 6091 16ef A1160000 		.4byte	0x16a1
 6092 16f3 04       		.byte	0x4
 6093 16f4 11       		.uleb128 0x11
 6094 16f5 73313800 		.ascii	"s18\000"
 6095 16f9 01       		.byte	0x1
 6096 16fa F8       		.byte	0xf8
 6097 16fb A1160000 		.4byte	0x16a1
 6098 16ff 08       		.byte	0x8
 6099 1700 11       		.uleb128 0x11
 6100 1701 73313900 		.ascii	"s19\000"
 6101 1705 01       		.byte	0x1
 6102 1706 F9       		.byte	0xf9
 6103 1707 A1160000 		.4byte	0x16a1
 6104 170b 0C       		.byte	0xc
 6105 170c 11       		.uleb128 0x11
 6106 170d 73323000 		.ascii	"s20\000"
 6107 1711 01       		.byte	0x1
 6108 1712 FA       		.byte	0xfa
 6109 1713 A1160000 		.4byte	0x16a1
 6110 1717 10       		.byte	0x10
 6111 1718 11       		.uleb128 0x11
 6112 1719 73323100 		.ascii	"s21\000"
 6113 171d 01       		.byte	0x1
 6114 171e FB       		.byte	0xfb
 6115 171f A1160000 		.4byte	0x16a1
 6116 1723 14       		.byte	0x14
 6117 1724 11       		.uleb128 0x11
 6118 1725 73323200 		.ascii	"s22\000"
 6119 1729 01       		.byte	0x1
 6120 172a FC       		.byte	0xfc
 6121 172b A1160000 		.4byte	0x16a1
 6122 172f 18       		.byte	0x18
 6123 1730 11       		.uleb128 0x11
 6124 1731 73323300 		.ascii	"s23\000"
 6125 1735 01       		.byte	0x1
 6126 1736 FD       		.byte	0xfd
 6127 1737 A1160000 		.4byte	0x16a1
 6128 173b 1C       		.byte	0x1c
 6129 173c 11       		.uleb128 0x11
 6130 173d 73323400 		.ascii	"s24\000"
 6131 1741 01       		.byte	0x1
ARM GAS  C:\Users\PCHAUT~1\AppData\Local\Temp\ccORgsmL.s 			page 109


 6132 1742 FE       		.byte	0xfe
 6133 1743 A1160000 		.4byte	0x16a1
 6134 1747 20       		.byte	0x20
 6135 1748 11       		.uleb128 0x11
 6136 1749 73323500 		.ascii	"s25\000"
 6137 174d 01       		.byte	0x1
 6138 174e FF       		.byte	0xff
 6139 174f A1160000 		.4byte	0x16a1
 6140 1753 24       		.byte	0x24
 6141 1754 21       		.uleb128 0x21
 6142 1755 73323600 		.ascii	"s26\000"
 6143 1759 01       		.byte	0x1
 6144 175a 0001     		.2byte	0x100
 6145 175c A1160000 		.4byte	0x16a1
 6146 1760 28       		.byte	0x28
 6147 1761 21       		.uleb128 0x21
 6148 1762 73323700 		.ascii	"s27\000"
 6149 1766 01       		.byte	0x1
 6150 1767 0101     		.2byte	0x101
 6151 1769 A1160000 		.4byte	0x16a1
 6152 176d 2C       		.byte	0x2c
 6153 176e 21       		.uleb128 0x21
 6154 176f 73323800 		.ascii	"s28\000"
 6155 1773 01       		.byte	0x1
 6156 1774 0201     		.2byte	0x102
 6157 1776 A1160000 		.4byte	0x16a1
 6158 177a 30       		.byte	0x30
 6159 177b 21       		.uleb128 0x21
 6160 177c 73323900 		.ascii	"s29\000"
 6161 1780 01       		.byte	0x1
 6162 1781 0301     		.2byte	0x103
 6163 1783 A1160000 		.4byte	0x16a1
 6164 1787 34       		.byte	0x34
 6165 1788 21       		.uleb128 0x21
 6166 1789 73333000 		.ascii	"s30\000"
 6167 178d 01       		.byte	0x1
 6168 178e 0401     		.2byte	0x104
 6169 1790 A1160000 		.4byte	0x16a1
 6170 1794 38       		.byte	0x38
 6171 1795 21       		.uleb128 0x21
 6172 1796 73333100 		.ascii	"s31\000"
 6173 179a 01       		.byte	0x1
 6174 179b 0501     		.2byte	0x105
 6175 179d A1160000 		.4byte	0x16a1
 6176 17a1 3C       		.byte	0x3c
 6177 17a2 21       		.uleb128 0x21
 6178 17a3 723400   		.ascii	"r4\000"
 6179 17a6 01       		.byte	0x1
 6180 17a7 0701     		.2byte	0x107
 6181 17a9 A1160000 		.4byte	0x16a1
 6182 17ad 40       		.byte	0x40
 6183 17ae 21       		.uleb128 0x21
 6184 17af 723500   		.ascii	"r5\000"
 6185 17b2 01       		.byte	0x1
 6186 17b3 0801     		.2byte	0x108
 6187 17b5 A1160000 		.4byte	0x16a1
 6188 17b9 44       		.byte	0x44
ARM GAS  C:\Users\PCHAUT~1\AppData\Local\Temp\ccORgsmL.s 			page 110


 6189 17ba 21       		.uleb128 0x21
 6190 17bb 723600   		.ascii	"r6\000"
 6191 17be 01       		.byte	0x1
 6192 17bf 0901     		.2byte	0x109
 6193 17c1 A1160000 		.4byte	0x16a1
 6194 17c5 48       		.byte	0x48
 6195 17c6 21       		.uleb128 0x21
 6196 17c7 723700   		.ascii	"r7\000"
 6197 17ca 01       		.byte	0x1
 6198 17cb 0A01     		.2byte	0x10a
 6199 17cd A1160000 		.4byte	0x16a1
 6200 17d1 4C       		.byte	0x4c
 6201 17d2 21       		.uleb128 0x21
 6202 17d3 723800   		.ascii	"r8\000"
 6203 17d6 01       		.byte	0x1
 6204 17d7 0B01     		.2byte	0x10b
 6205 17d9 A1160000 		.4byte	0x16a1
 6206 17dd 50       		.byte	0x50
 6207 17de 21       		.uleb128 0x21
 6208 17df 723900   		.ascii	"r9\000"
 6209 17e2 01       		.byte	0x1
 6210 17e3 0C01     		.2byte	0x10c
 6211 17e5 A1160000 		.4byte	0x16a1
 6212 17e9 54       		.byte	0x54
 6213 17ea 21       		.uleb128 0x21
 6214 17eb 72313000 		.ascii	"r10\000"
 6215 17ef 01       		.byte	0x1
 6216 17f0 0D01     		.2byte	0x10d
 6217 17f2 A1160000 		.4byte	0x16a1
 6218 17f6 58       		.byte	0x58
 6219 17f7 21       		.uleb128 0x21
 6220 17f8 72313100 		.ascii	"r11\000"
 6221 17fc 01       		.byte	0x1
 6222 17fd 0E01     		.2byte	0x10e
 6223 17ff A1160000 		.4byte	0x16a1
 6224 1803 5C       		.byte	0x5c
 6225 1804 21       		.uleb128 0x21
 6226 1805 6C7200   		.ascii	"lr\000"
 6227 1808 01       		.byte	0x1
 6228 1809 0F01     		.2byte	0x10f
 6229 180b A1160000 		.4byte	0x16a1
 6230 180f 60       		.byte	0x60
 6231 1810 00       		.byte	0
 6232 1811 05       		.uleb128 0x5
 6233 1812 04       		.byte	0x4
 6234 1813 D0160000 		.4byte	0x16d0
 6235 1817 0C       		.uleb128 0xc
 6236 1818 10       		.byte	0x10
 6237 1819 13       		.byte	0x13
 6238 181a 51       		.byte	0x51
 6239 181b 50180000 		.4byte	0x1850
 6240 181f 0D       		.uleb128 0xd
 6241 1820 601E0000 		.4byte	.LASF320
 6242 1824 13       		.byte	0x13
 6243 1825 55       		.byte	0x55
 6244 1826 C0090000 		.4byte	0x9c0
 6245 182a 00       		.byte	0
ARM GAS  C:\Users\PCHAUT~1\AppData\Local\Temp\ccORgsmL.s 			page 111


 6246 182b 0D       		.uleb128 0xd
 6247 182c 66190000 		.4byte	.LASF321
 6248 1830 13       		.byte	0x13
 6249 1831 59       		.byte	0x59
 6250 1832 040B0000 		.4byte	0xb04
 6251 1836 04       		.byte	0x4
 6252 1837 0D       		.uleb128 0xd
 6253 1838 350D0000 		.4byte	.LASF322
 6254 183c 13       		.byte	0x13
 6255 183d 5D       		.byte	0x5d
 6256 183e 5D010000 		.4byte	0x15d
 6257 1842 08       		.byte	0x8
 6258 1843 0D       		.uleb128 0xd
 6259 1844 580B0000 		.4byte	.LASF323
 6260 1848 13       		.byte	0x13
 6261 1849 61       		.byte	0x61
 6262 184a E6080000 		.4byte	0x8e6
 6263 184e 0C       		.byte	0xc
 6264 184f 00       		.byte	0
 6265 1850 03       		.uleb128 0x3
 6266 1851 030E0000 		.4byte	.LASF324
 6267 1855 13       		.byte	0x13
 6268 1856 62       		.byte	0x62
 6269 1857 17180000 		.4byte	0x1817
 6270 185b 25       		.uleb128 0x25
 6271 185c 0804     		.2byte	0x408
 6272 185e 13       		.byte	0x13
 6273 185f 67       		.byte	0x67
 6274 1860 89180000 		.4byte	0x1889
 6275 1864 0D       		.uleb128 0xd
 6276 1865 D90E0000 		.4byte	.LASF325
 6277 1869 13       		.byte	0x13
 6278 186a 6B       		.byte	0x6b
 6279 186b 37000000 		.4byte	0x37
 6280 186f 00       		.byte	0
 6281 1870 0D       		.uleb128 0xd
 6282 1871 C6140000 		.4byte	.LASF326
 6283 1875 13       		.byte	0x13
 6284 1876 6F       		.byte	0x6f
 6285 1877 89180000 		.4byte	0x1889
 6286 187b 04       		.byte	0x4
 6287 187c 0D       		.uleb128 0xd
 6288 187d DA0A0000 		.4byte	.LASF327
 6289 1881 13       		.byte	0x13
 6290 1882 73       		.byte	0x73
 6291 1883 8F180000 		.4byte	0x188f
 6292 1887 08       		.byte	0x8
 6293 1888 00       		.byte	0
 6294 1889 05       		.uleb128 0x5
 6295 188a 04       		.byte	0x4
 6296 188b 50180000 		.4byte	0x1850
 6297 188f 0A       		.uleb128 0xa
 6298 1890 50180000 		.4byte	0x1850
 6299 1894 9F180000 		.4byte	0x189f
 6300 1898 0B       		.uleb128 0xb
 6301 1899 37000000 		.4byte	0x37
 6302 189d 3F       		.byte	0x3f
ARM GAS  C:\Users\PCHAUT~1\AppData\Local\Temp\ccORgsmL.s 			page 112


 6303 189e 00       		.byte	0
 6304 189f 03       		.uleb128 0x3
 6305 18a0 15000000 		.4byte	.LASF328
 6306 18a4 13       		.byte	0x13
 6307 18a5 74       		.byte	0x74
 6308 18a6 5B180000 		.4byte	0x185b
 6309 18aa 0C       		.uleb128 0xc
 6310 18ab 04       		.byte	0x4
 6311 18ac 14       		.byte	0x14
 6312 18ad 38       		.byte	0x38
 6313 18ae BF180000 		.4byte	0x18bf
 6314 18b2 0D       		.uleb128 0xd
 6315 18b3 051F0000 		.4byte	.LASF329
 6316 18b7 14       		.byte	0x14
 6317 18b8 3C       		.byte	0x3c
 6318 18b9 3C090000 		.4byte	0x93c
 6319 18bd 00       		.byte	0
 6320 18be 00       		.byte	0
 6321 18bf 03       		.uleb128 0x3
 6322 18c0 A9050000 		.4byte	.LASF330
 6323 18c4 14       		.byte	0x14
 6324 18c5 3D       		.byte	0x3d
 6325 18c6 AA180000 		.4byte	0x18aa
 6326 18ca 0C       		.uleb128 0xc
 6327 18cb 18       		.byte	0x18
 6328 18cc 14       		.byte	0x14
 6329 18cd 48       		.byte	0x48
 6330 18ce 0D190000 		.4byte	0x190d
 6331 18d2 0D       		.uleb128 0xd
 6332 18d3 A0070000 		.4byte	.LASF331
 6333 18d7 14       		.byte	0x14
 6334 18d8 49       		.byte	0x49
 6335 18d9 3C090000 		.4byte	0x93c
 6336 18dd 00       		.byte	0
 6337 18de 0D       		.uleb128 0xd
 6338 18df A1010000 		.4byte	.LASF332
 6339 18e3 14       		.byte	0x14
 6340 18e4 4A       		.byte	0x4a
 6341 18e5 3C090000 		.4byte	0x93c
 6342 18e9 04       		.byte	0x4
 6343 18ea 0D       		.uleb128 0xd
 6344 18eb 8B180000 		.4byte	.LASF333
 6345 18ef 14       		.byte	0x14
 6346 18f0 4B       		.byte	0x4b
 6347 18f1 3C090000 		.4byte	0x93c
 6348 18f5 08       		.byte	0x8
 6349 18f6 11       		.uleb128 0x11
 6350 18f7 6E00     		.ascii	"n\000"
 6351 18f9 14       		.byte	0x14
 6352 18fa 4C       		.byte	0x4c
 6353 18fb B5090000 		.4byte	0x9b5
 6354 18ff 0C       		.byte	0xc
 6355 1900 0D       		.uleb128 0xd
 6356 1901 2F180000 		.4byte	.LASF334
 6357 1905 14       		.byte	0x14
 6358 1906 4D       		.byte	0x4d
 6359 1907 47090000 		.4byte	0x947
ARM GAS  C:\Users\PCHAUT~1\AppData\Local\Temp\ccORgsmL.s 			page 113


 6360 190b 10       		.byte	0x10
 6361 190c 00       		.byte	0
 6362 190d 03       		.uleb128 0x3
 6363 190e 8B210000 		.4byte	.LASF335
 6364 1912 14       		.byte	0x14
 6365 1913 4E       		.byte	0x4e
 6366 1914 CA180000 		.4byte	0x18ca
 6367 1918 0C       		.uleb128 0xc
 6368 1919 38       		.byte	0x38
 6369 191a 15       		.byte	0x15
 6370 191b 38       		.byte	0x38
 6371 191c 51190000 		.4byte	0x1951
 6372 1920 0D       		.uleb128 0xd
 6373 1921 F7060000 		.4byte	.LASF336
 6374 1925 15       		.byte	0x15
 6375 1926 39       		.byte	0x39
 6376 1927 B5090000 		.4byte	0x9b5
 6377 192b 00       		.byte	0
 6378 192c 0D       		.uleb128 0xd
 6379 192d 130C0000 		.4byte	.LASF337
 6380 1931 15       		.byte	0x15
 6381 1932 3A       		.byte	0x3a
 6382 1933 B5090000 		.4byte	0x9b5
 6383 1937 04       		.byte	0x4
 6384 1938 0D       		.uleb128 0xd
 6385 1939 08210000 		.4byte	.LASF338
 6386 193d 15       		.byte	0x15
 6387 193e 3B       		.byte	0x3b
 6388 193f 0D190000 		.4byte	0x190d
 6389 1943 08       		.byte	0x8
 6390 1944 0D       		.uleb128 0xd
 6391 1945 6D000000 		.4byte	.LASF339
 6392 1949 15       		.byte	0x15
 6393 194a 3D       		.byte	0x3d
 6394 194b 0D190000 		.4byte	0x190d
 6395 194f 20       		.byte	0x20
 6396 1950 00       		.byte	0
 6397 1951 03       		.uleb128 0x3
 6398 1952 65050000 		.4byte	.LASF340
 6399 1956 15       		.byte	0x15
 6400 1957 3F       		.byte	0x3f
 6401 1958 18190000 		.4byte	0x1918
 6402 195c 08       		.uleb128 0x8
 6403 195d 04       		.byte	0x4
 6404 195e 0E       		.byte	0xe
 6405 195f FA       		.byte	0xfa
 6406 1960 B9190000 		.4byte	0x19b9
 6407 1964 1E       		.uleb128 0x1e
 6408 1965 B5100000 		.4byte	.LASF341
 6409 1969 0E       		.byte	0xe
 6410 196a 0101     		.2byte	0x101
 6411 196c 89090000 		.4byte	0x989
 6412 1970 1E       		.uleb128 0x1e
 6413 1971 3F080000 		.4byte	.LASF342
 6414 1975 0E       		.byte	0xe
 6415 1976 0801     		.2byte	0x108
 6416 1978 89090000 		.4byte	0x989
ARM GAS  C:\Users\PCHAUT~1\AppData\Local\Temp\ccORgsmL.s 			page 114


 6417 197c 1E       		.uleb128 0x1e
 6418 197d 411C0000 		.4byte	.LASF343
 6419 1981 0E       		.byte	0xe
 6420 1982 0F01     		.2byte	0x10f
 6421 1984 5D010000 		.4byte	0x15d
 6422 1988 1E       		.uleb128 0x1e
 6423 1989 50180000 		.4byte	.LASF344
 6424 198d 0E       		.byte	0xe
 6425 198e 1601     		.2byte	0x116
 6426 1990 B9190000 		.4byte	0x19b9
 6427 1994 1E       		.uleb128 0x1e
 6428 1995 25010000 		.4byte	.LASF345
 6429 1999 0E       		.byte	0xe
 6430 199a 1E01     		.2byte	0x11e
 6431 199c E4190000 		.4byte	0x19e4
 6432 19a0 1E       		.uleb128 0x1e
 6433 19a1 881C0000 		.4byte	.LASF346
 6434 19a5 0E       		.byte	0xe
 6435 19a6 2701     		.2byte	0x127
 6436 19a8 271A0000 		.4byte	0x1a27
 6437 19ac 1E       		.uleb128 0x1e
 6438 19ad A31F0000 		.4byte	.LASF347
 6439 19b1 0E       		.byte	0xe
 6440 19b2 2F01     		.2byte	0x12f
 6441 19b4 94090000 		.4byte	0x994
 6442 19b8 00       		.byte	0
 6443 19b9 05       		.uleb128 0x5
 6444 19ba 04       		.byte	0x4
 6445 19bb F90A0000 		.4byte	0xaf9
 6446 19bf 10       		.uleb128 0x10
 6447 19c0 0B170000 		.4byte	.LASF348
 6448 19c4 0C       		.byte	0xc
 6449 19c5 16       		.byte	0x16
 6450 19c6 34       		.byte	0x34
 6451 19c7 E4190000 		.4byte	0x19e4
 6452 19cb 0D       		.uleb128 0xd
 6453 19cc 00210000 		.4byte	.LASF349
 6454 19d0 16       		.byte	0x16
 6455 19d1 35       		.byte	0x35
 6456 19d2 2E0B0000 		.4byte	0xb2e
 6457 19d6 00       		.byte	0
 6458 19d7 0D       		.uleb128 0xd
 6459 19d8 EC0A0000 		.4byte	.LASF350
 6460 19dc 16       		.byte	0x16
 6461 19dd 37       		.byte	0x37
 6462 19de AA090000 		.4byte	0x9aa
 6463 19e2 08       		.byte	0x8
 6464 19e3 00       		.byte	0
 6465 19e4 05       		.uleb128 0x5
 6466 19e5 04       		.byte	0x4
 6467 19e6 BF190000 		.4byte	0x19bf
 6468 19ea 10       		.uleb128 0x10
 6469 19eb AE0C0000 		.4byte	.LASF351
 6470 19ef 14       		.byte	0x14
 6471 19f0 17       		.byte	0x17
 6472 19f1 39       		.byte	0x39
 6473 19f2 271A0000 		.4byte	0x1a27
ARM GAS  C:\Users\PCHAUT~1\AppData\Local\Temp\ccORgsmL.s 			page 115


 6474 19f6 0D       		.uleb128 0xd
 6475 19f7 53130000 		.4byte	.LASF352
 6476 19fb 17       		.byte	0x17
 6477 19fc 3A       		.byte	0x3a
 6478 19fd 2E0B0000 		.4byte	0xb2e
 6479 1a01 00       		.byte	0
 6480 1a02 0D       		.uleb128 0xd
 6481 1a03 F5150000 		.4byte	.LASF353
 6482 1a07 17       		.byte	0x17
 6483 1a08 3C       		.byte	0x3c
 6484 1a09 040B0000 		.4byte	0xb04
 6485 1a0d 08       		.byte	0x8
 6486 1a0e 0D       		.uleb128 0xd
 6487 1a0f EB010000 		.4byte	.LASF354
 6488 1a13 17       		.byte	0x17
 6489 1a14 3E       		.byte	0x3e
 6490 1a15 6B1B0000 		.4byte	0x1b6b
 6491 1a19 0C       		.byte	0xc
 6492 1a1a 0D       		.uleb128 0xd
 6493 1a1b D3080000 		.4byte	.LASF355
 6494 1a1f 17       		.byte	0x17
 6495 1a20 41       		.byte	0x41
 6496 1a21 AA090000 		.4byte	0x9aa
 6497 1a25 10       		.byte	0x10
 6498 1a26 00       		.byte	0
 6499 1a27 05       		.uleb128 0x5
 6500 1a28 04       		.byte	0x4
 6501 1a29 EA190000 		.4byte	0x19ea
 6502 1a2d 05       		.uleb128 0x5
 6503 1a2e 04       		.byte	0x4
 6504 1a2f AC160000 		.4byte	0x16ac
 6505 1a33 05       		.uleb128 0x5
 6506 1a34 04       		.byte	0x4
 6507 1a35 E10B0000 		.4byte	0xbe1
 6508 1a39 0A       		.uleb128 0xa
 6509 1a3a AC160000 		.4byte	0x16ac
 6510 1a3e 491A0000 		.4byte	0x1a49
 6511 1a42 0B       		.uleb128 0xb
 6512 1a43 37000000 		.4byte	0x37
 6513 1a47 30       		.byte	0x30
 6514 1a48 00       		.byte	0
 6515 1a49 26       		.uleb128 0x26
 6516 1a4a 636800   		.ascii	"ch\000"
 6517 1a4d 0E       		.byte	0xe
 6518 1a4e 0902     		.2byte	0x209
 6519 1a50 D60C0000 		.4byte	0xcd6
 6520 1a54 0C       		.uleb128 0xc
 6521 1a55 16       		.byte	0x16
 6522 1a56 18       		.byte	0x18
 6523 1a57 34       		.byte	0x34
 6524 1a58 351B0000 		.4byte	0x1b35
 6525 1a5c 0D       		.uleb128 0xd
 6526 1a5d 3A210000 		.4byte	.LASF356
 6527 1a61 18       		.byte	0x18
 6528 1a62 35       		.byte	0x35
 6529 1a63 351B0000 		.4byte	0x1b35
 6530 1a67 00       		.byte	0
ARM GAS  C:\Users\PCHAUT~1\AppData\Local\Temp\ccORgsmL.s 			page 116


 6531 1a68 0D       		.uleb128 0xd
 6532 1a69 3B230000 		.4byte	.LASF357
 6533 1a6d 18       		.byte	0x18
 6534 1a6e 36       		.byte	0x36
 6535 1a6f E6080000 		.4byte	0x8e6
 6536 1a73 04       		.byte	0x4
 6537 1a74 0D       		.uleb128 0xd
 6538 1a75 15030000 		.4byte	.LASF358
 6539 1a79 18       		.byte	0x18
 6540 1a7a 37       		.byte	0x37
 6541 1a7b E6080000 		.4byte	0x8e6
 6542 1a7f 05       		.byte	0x5
 6543 1a80 0D       		.uleb128 0xd
 6544 1a81 4C160000 		.4byte	.LASF359
 6545 1a85 18       		.byte	0x18
 6546 1a86 38       		.byte	0x38
 6547 1a87 01090000 		.4byte	0x901
 6548 1a8b 06       		.byte	0x6
 6549 1a8c 0D       		.uleb128 0xd
 6550 1a8d 27000000 		.4byte	.LASF360
 6551 1a91 18       		.byte	0x18
 6552 1a92 39       		.byte	0x39
 6553 1a93 E6080000 		.4byte	0x8e6
 6554 1a97 08       		.byte	0x8
 6555 1a98 0D       		.uleb128 0xd
 6556 1a99 7E140000 		.4byte	.LASF361
 6557 1a9d 18       		.byte	0x18
 6558 1a9e 3A       		.byte	0x3a
 6559 1a9f E6080000 		.4byte	0x8e6
 6560 1aa3 09       		.byte	0x9
 6561 1aa4 0D       		.uleb128 0xd
 6562 1aa5 5B230000 		.4byte	.LASF362
 6563 1aa9 18       		.byte	0x18
 6564 1aaa 3B       		.byte	0x3b
 6565 1aab E6080000 		.4byte	0x8e6
 6566 1aaf 0A       		.byte	0xa
 6567 1ab0 0D       		.uleb128 0xd
 6568 1ab1 66210000 		.4byte	.LASF363
 6569 1ab5 18       		.byte	0x18
 6570 1ab6 3C       		.byte	0x3c
 6571 1ab7 E6080000 		.4byte	0x8e6
 6572 1abb 0B       		.byte	0xb
 6573 1abc 0D       		.uleb128 0xd
 6574 1abd A9200000 		.4byte	.LASF364
 6575 1ac1 18       		.byte	0x18
 6576 1ac2 3D       		.byte	0x3d
 6577 1ac3 E6080000 		.4byte	0x8e6
 6578 1ac7 0C       		.byte	0xc
 6579 1ac8 0D       		.uleb128 0xd
 6580 1ac9 FD0C0000 		.4byte	.LASF365
 6581 1acd 18       		.byte	0x18
 6582 1ace 3E       		.byte	0x3e
 6583 1acf E6080000 		.4byte	0x8e6
 6584 1ad3 0D       		.byte	0xd
 6585 1ad4 0D       		.uleb128 0xd
 6586 1ad5 14060000 		.4byte	.LASF366
 6587 1ad9 18       		.byte	0x18
ARM GAS  C:\Users\PCHAUT~1\AppData\Local\Temp\ccORgsmL.s 			page 117


 6588 1ada 3F       		.byte	0x3f
 6589 1adb E6080000 		.4byte	0x8e6
 6590 1adf 0E       		.byte	0xe
 6591 1ae0 0D       		.uleb128 0xd
 6592 1ae1 7F0E0000 		.4byte	.LASF367
 6593 1ae5 18       		.byte	0x18
 6594 1ae6 40       		.byte	0x40
 6595 1ae7 E6080000 		.4byte	0x8e6
 6596 1aeb 0F       		.byte	0xf
 6597 1aec 0D       		.uleb128 0xd
 6598 1aed 33100000 		.4byte	.LASF368
 6599 1af1 18       		.byte	0x18
 6600 1af2 41       		.byte	0x41
 6601 1af3 E6080000 		.4byte	0x8e6
 6602 1af7 10       		.byte	0x10
 6603 1af8 0D       		.uleb128 0xd
 6604 1af9 E8150000 		.4byte	.LASF369
 6605 1afd 18       		.byte	0x18
 6606 1afe 43       		.byte	0x43
 6607 1aff E6080000 		.4byte	0x8e6
 6608 1b03 11       		.byte	0x11
 6609 1b04 0D       		.uleb128 0xd
 6610 1b05 E4020000 		.4byte	.LASF370
 6611 1b09 18       		.byte	0x18
 6612 1b0a 44       		.byte	0x44
 6613 1b0b E6080000 		.4byte	0x8e6
 6614 1b0f 12       		.byte	0x12
 6615 1b10 0D       		.uleb128 0xd
 6616 1b11 DC150000 		.4byte	.LASF371
 6617 1b15 18       		.byte	0x18
 6618 1b16 45       		.byte	0x45
 6619 1b17 E6080000 		.4byte	0x8e6
 6620 1b1b 13       		.byte	0x13
 6621 1b1c 0D       		.uleb128 0xd
 6622 1b1d 731B0000 		.4byte	.LASF372
 6623 1b21 18       		.byte	0x18
 6624 1b22 46       		.byte	0x46
 6625 1b23 E6080000 		.4byte	0x8e6
 6626 1b27 14       		.byte	0x14
 6627 1b28 0D       		.uleb128 0xd
 6628 1b29 03010000 		.4byte	.LASF373
 6629 1b2d 18       		.byte	0x18
 6630 1b2e 48       		.byte	0x48
 6631 1b2f E6080000 		.4byte	0x8e6
 6632 1b33 15       		.byte	0x15
 6633 1b34 00       		.byte	0
 6634 1b35 0A       		.uleb128 0xa
 6635 1b36 65010000 		.4byte	0x165
 6636 1b3a 451B0000 		.4byte	0x1b45
 6637 1b3e 0B       		.uleb128 0xb
 6638 1b3f 37000000 		.4byte	0x37
 6639 1b43 03       		.byte	0x3
 6640 1b44 00       		.byte	0
 6641 1b45 03       		.uleb128 0x3
 6642 1b46 09140000 		.4byte	.LASF374
 6643 1b4a 18       		.byte	0x18
 6644 1b4b 49       		.byte	0x49
ARM GAS  C:\Users\PCHAUT~1\AppData\Local\Temp\ccORgsmL.s 			page 118


 6645 1b4c 541A0000 		.4byte	0x1a54
 6646 1b50 0F       		.uleb128 0xf
 6647 1b51 451B0000 		.4byte	0x1b45
 6648 1b55 23       		.uleb128 0x23
 6649 1b56 1C0C0000 		.4byte	.LASF375
 6650 1b5a 18       		.byte	0x18
 6651 1b5b 6E       		.byte	0x6e
 6652 1b5c 501B0000 		.4byte	0x1b50
 6653 1b60 03       		.uleb128 0x3
 6654 1b61 B71D0000 		.4byte	.LASF376
 6655 1b65 17       		.byte	0x17
 6656 1b66 34       		.byte	0x34
 6657 1b67 EA190000 		.4byte	0x19ea
 6658 1b6b 05       		.uleb128 0x5
 6659 1b6c 04       		.byte	0x4
 6660 1b6d 601B0000 		.4byte	0x1b60
 6661 1b71 03       		.uleb128 0x3
 6662 1b72 610C0000 		.4byte	.LASF377
 6663 1b76 19       		.byte	0x19
 6664 1b77 34       		.byte	0x34
 6665 1b78 7C1B0000 		.4byte	0x1b7c
 6666 1b7c 10       		.uleb128 0x10
 6667 1b7d DA230000 		.4byte	.LASF378
 6668 1b81 14       		.byte	0x14
 6669 1b82 19       		.byte	0x19
 6670 1b83 39       		.byte	0x39
 6671 1b84 C51B0000 		.4byte	0x1bc5
 6672 1b88 0D       		.uleb128 0xd
 6673 1b89 65020000 		.4byte	.LASF379
 6674 1b8d 19       		.byte	0x19
 6675 1b8e 3A       		.byte	0x3a
 6676 1b8f C51B0000 		.4byte	0x1bc5
 6677 1b93 00       		.byte	0
 6678 1b94 0D       		.uleb128 0xd
 6679 1b95 971E0000 		.4byte	.LASF380
 6680 1b99 19       		.byte	0x19
 6681 1b9a 3D       		.byte	0x3d
 6682 1b9b 040B0000 		.4byte	0xb04
 6683 1b9f 04       		.byte	0x4
 6684 1ba0 0D       		.uleb128 0xd
 6685 1ba1 9D030000 		.4byte	.LASF381
 6686 1ba5 19       		.byte	0x19
 6687 1ba6 3F       		.byte	0x3f
 6688 1ba7 94090000 		.4byte	0x994
 6689 1bab 08       		.byte	0x8
 6690 1bac 0D       		.uleb128 0xd
 6691 1bad AA1F0000 		.4byte	.LASF382
 6692 1bb1 19       		.byte	0x19
 6693 1bb2 41       		.byte	0x41
 6694 1bb3 9F090000 		.4byte	0x99f
 6695 1bb7 0C       		.byte	0xc
 6696 1bb8 0D       		.uleb128 0xd
 6697 1bb9 C50E0000 		.4byte	.LASF383
 6698 1bbd 19       		.byte	0x19
 6699 1bbe 43       		.byte	0x43
 6700 1bbf 9F090000 		.4byte	0x99f
 6701 1bc3 10       		.byte	0x10
ARM GAS  C:\Users\PCHAUT~1\AppData\Local\Temp\ccORgsmL.s 			page 119


 6702 1bc4 00       		.byte	0
 6703 1bc5 05       		.uleb128 0x5
 6704 1bc6 04       		.byte	0x4
 6705 1bc7 711B0000 		.4byte	0x1b71
 6706 1bcb 10       		.uleb128 0x10
 6707 1bcc B31F0000 		.4byte	.LASF384
 6708 1bd0 04       		.byte	0x4
 6709 1bd1 19       		.byte	0x19
 6710 1bd2 4A       		.byte	0x4a
 6711 1bd3 E41B0000 		.4byte	0x1be4
 6712 1bd7 0D       		.uleb128 0xd
 6713 1bd8 2D1F0000 		.4byte	.LASF385
 6714 1bdc 19       		.byte	0x19
 6715 1bdd 4B       		.byte	0x4b
 6716 1bde C51B0000 		.4byte	0x1bc5
 6717 1be2 00       		.byte	0
 6718 1be3 00       		.byte	0
 6719 1be4 03       		.uleb128 0x3
 6720 1be5 9F140000 		.4byte	.LASF386
 6721 1be9 19       		.byte	0x19
 6722 1bea 4E       		.byte	0x4e
 6723 1beb CB1B0000 		.4byte	0x1bcb
 6724 1bef 03       		.uleb128 0x3
 6725 1bf0 050F0000 		.4byte	.LASF387
 6726 1bf4 1A       		.byte	0x1a
 6727 1bf5 3F       		.byte	0x3f
 6728 1bf6 FA1B0000 		.4byte	0x1bfa
 6729 1bfa 10       		.uleb128 0x10
 6730 1bfb 2F110000 		.4byte	.LASF388
 6731 1bff 24       		.byte	0x24
 6732 1c00 1A       		.byte	0x1a
 6733 1c01 4D       		.byte	0x4d
 6734 1c02 671C0000 		.4byte	0x1c67
 6735 1c06 0D       		.uleb128 0xd
 6736 1c07 74050000 		.4byte	.LASF389
 6737 1c0b 1A       		.byte	0x1a
 6738 1c0c 4E       		.byte	0x4e
 6739 1c0d 2E0B0000 		.4byte	0xb2e
 6740 1c11 00       		.byte	0
 6741 1c12 0D       		.uleb128 0xd
 6742 1c13 F4170000 		.4byte	.LASF390
 6743 1c17 1A       		.byte	0x1a
 6744 1c18 4F       		.byte	0x4f
 6745 1c19 2C000000 		.4byte	0x2c
 6746 1c1d 08       		.byte	0x8
 6747 1c1e 0D       		.uleb128 0xd
 6748 1c1f D6110000 		.4byte	.LASF391
 6749 1c23 1A       		.byte	0x1a
 6750 1c24 50       		.byte	0x50
 6751 1c25 891C0000 		.4byte	0x1c89
 6752 1c29 0C       		.byte	0xc
 6753 1c2a 0D       		.uleb128 0xd
 6754 1c2b D4040000 		.4byte	.LASF392
 6755 1c2f 1A       		.byte	0x1a
 6756 1c30 51       		.byte	0x51
 6757 1c31 891C0000 		.4byte	0x1c89
 6758 1c35 10       		.byte	0x10
ARM GAS  C:\Users\PCHAUT~1\AppData\Local\Temp\ccORgsmL.s 			page 120


 6759 1c36 0D       		.uleb128 0xd
 6760 1c37 6C190000 		.4byte	.LASF393
 6761 1c3b 1A       		.byte	0x1a
 6762 1c3c 53       		.byte	0x53
 6763 1c3d 891C0000 		.4byte	0x1c89
 6764 1c41 14       		.byte	0x14
 6765 1c42 0D       		.uleb128 0xd
 6766 1c43 56180000 		.4byte	.LASF394
 6767 1c47 1A       		.byte	0x1a
 6768 1c48 54       		.byte	0x54
 6769 1c49 891C0000 		.4byte	0x1c89
 6770 1c4d 18       		.byte	0x18
 6771 1c4e 0D       		.uleb128 0xd
 6772 1c4f 7F1C0000 		.4byte	.LASF395
 6773 1c53 1A       		.byte	0x1a
 6774 1c54 55       		.byte	0x55
 6775 1c55 671C0000 		.4byte	0x1c67
 6776 1c59 1C       		.byte	0x1c
 6777 1c5a 0D       		.uleb128 0xd
 6778 1c5b 3A1A0000 		.4byte	.LASF396
 6779 1c5f 1A       		.byte	0x1a
 6780 1c60 56       		.byte	0x56
 6781 1c61 5D010000 		.4byte	0x15d
 6782 1c65 20       		.byte	0x20
 6783 1c66 00       		.byte	0
 6784 1c67 03       		.uleb128 0x3
 6785 1c68 52040000 		.4byte	.LASF397
 6786 1c6c 1A       		.byte	0x1a
 6787 1c6d 42       		.byte	0x42
 6788 1c6e 721C0000 		.4byte	0x1c72
 6789 1c72 05       		.uleb128 0x5
 6790 1c73 04       		.byte	0x4
 6791 1c74 781C0000 		.4byte	0x1c78
 6792 1c78 1F       		.uleb128 0x1f
 6793 1c79 831C0000 		.4byte	0x1c83
 6794 1c7d 16       		.uleb128 0x16
 6795 1c7e 831C0000 		.4byte	0x1c83
 6796 1c82 00       		.byte	0
 6797 1c83 05       		.uleb128 0x5
 6798 1c84 04       		.byte	0x4
 6799 1c85 EF1B0000 		.4byte	0x1bef
 6800 1c89 05       		.uleb128 0x5
 6801 1c8a 04       		.byte	0x4
 6802 1c8b E6080000 		.4byte	0x8e6
 6803 1c8f 03       		.uleb128 0x3
 6804 1c90 BA050000 		.4byte	.LASF398
 6805 1c94 1A       		.byte	0x1a
 6806 1c95 64       		.byte	0x64
 6807 1c96 EF1B0000 		.4byte	0x1bef
 6808 1c9a 03       		.uleb128 0x3
 6809 1c9b 1D240000 		.4byte	.LASF399
 6810 1c9f 1A       		.byte	0x1a
 6811 1ca0 71       		.byte	0x71
 6812 1ca1 EF1B0000 		.4byte	0x1bef
 6813 1ca5 15       		.uleb128 0x15
 6814 1ca6 2C000000 		.4byte	0x2c
 6815 1caa BE1C0000 		.4byte	0x1cbe
ARM GAS  C:\Users\PCHAUT~1\AppData\Local\Temp\ccORgsmL.s 			page 121


 6816 1cae 16       		.uleb128 0x16
 6817 1caf 5D010000 		.4byte	0x15d
 6818 1cb3 16       		.uleb128 0x16
 6819 1cb4 BE1C0000 		.4byte	0x1cbe
 6820 1cb8 16       		.uleb128 0x16
 6821 1cb9 2C000000 		.4byte	0x2c
 6822 1cbd 00       		.byte	0
 6823 1cbe 05       		.uleb128 0x5
 6824 1cbf 04       		.byte	0x4
 6825 1cc0 F1080000 		.4byte	0x8f1
 6826 1cc4 05       		.uleb128 0x5
 6827 1cc5 04       		.byte	0x4
 6828 1cc6 A51C0000 		.4byte	0x1ca5
 6829 1cca 15       		.uleb128 0x15
 6830 1ccb 2C000000 		.4byte	0x2c
 6831 1ccf E31C0000 		.4byte	0x1ce3
 6832 1cd3 16       		.uleb128 0x16
 6833 1cd4 5D010000 		.4byte	0x15d
 6834 1cd8 16       		.uleb128 0x16
 6835 1cd9 891C0000 		.4byte	0x1c89
 6836 1cdd 16       		.uleb128 0x16
 6837 1cde 2C000000 		.4byte	0x2c
 6838 1ce2 00       		.byte	0
 6839 1ce3 05       		.uleb128 0x5
 6840 1ce4 04       		.byte	0x4
 6841 1ce5 CA1C0000 		.4byte	0x1cca
 6842 1ce9 15       		.uleb128 0x15
 6843 1cea 89090000 		.4byte	0x989
 6844 1cee FD1C0000 		.4byte	0x1cfd
 6845 1cf2 16       		.uleb128 0x16
 6846 1cf3 5D010000 		.4byte	0x15d
 6847 1cf7 16       		.uleb128 0x16
 6848 1cf8 E6080000 		.4byte	0x8e6
 6849 1cfc 00       		.byte	0
 6850 1cfd 05       		.uleb128 0x5
 6851 1cfe 04       		.byte	0x4
 6852 1cff E91C0000 		.4byte	0x1ce9
 6853 1d03 15       		.uleb128 0x15
 6854 1d04 89090000 		.4byte	0x989
 6855 1d08 121D0000 		.4byte	0x1d12
 6856 1d0c 16       		.uleb128 0x16
 6857 1d0d 5D010000 		.4byte	0x15d
 6858 1d11 00       		.byte	0
 6859 1d12 05       		.uleb128 0x5
 6860 1d13 04       		.byte	0x4
 6861 1d14 031D0000 		.4byte	0x1d03
 6862 1d18 0C       		.uleb128 0xc
 6863 1d19 0C       		.byte	0xc
 6864 1d1a 1B       		.byte	0x1b
 6865 1d1b DA       		.byte	0xda
 6866 1d1c 5D1D0000 		.4byte	0x1d5d
 6867 1d20 0D       		.uleb128 0xd
 6868 1d21 C1230000 		.4byte	.LASF400
 6869 1d25 1B       		.byte	0x1b
 6870 1d26 DB       		.byte	0xdb
 6871 1d27 5D1D0000 		.4byte	0x1d5d
 6872 1d2b 00       		.byte	0
ARM GAS  C:\Users\PCHAUT~1\AppData\Local\Temp\ccORgsmL.s 			page 122


 6873 1d2c 0D       		.uleb128 0xd
 6874 1d2d 98100000 		.4byte	.LASF401
 6875 1d31 1B       		.byte	0x1b
 6876 1d32 DC       		.byte	0xdc
 6877 1d33 631D0000 		.4byte	0x1d63
 6878 1d37 04       		.byte	0x4
 6879 1d38 0D       		.uleb128 0xd
 6880 1d39 C1040000 		.4byte	.LASF402
 6881 1d3d 1B       		.byte	0x1b
 6882 1d3e DD       		.byte	0xdd
 6883 1d3f E6080000 		.4byte	0x8e6
 6884 1d43 08       		.byte	0x8
 6885 1d44 0D       		.uleb128 0xd
 6886 1d45 AD1D0000 		.4byte	.LASF403
 6887 1d49 1B       		.byte	0x1b
 6888 1d4a DF       		.byte	0xdf
 6889 1d4b E6080000 		.4byte	0x8e6
 6890 1d4f 09       		.byte	0x9
 6891 1d50 0D       		.uleb128 0xd
 6892 1d51 D5030000 		.4byte	.LASF404
 6893 1d55 1B       		.byte	0x1b
 6894 1d56 E0       		.byte	0xe0
 6895 1d57 E6080000 		.4byte	0x8e6
 6896 1d5b 0A       		.byte	0xa
 6897 1d5c 00       		.byte	0
 6898 1d5d 05       		.uleb128 0x5
 6899 1d5e 04       		.byte	0x4
 6900 1d5f 02120000 		.4byte	0x1202
 6901 1d63 05       		.uleb128 0x5
 6902 1d64 04       		.byte	0x4
 6903 1d65 27090000 		.4byte	0x927
 6904 1d69 03       		.uleb128 0x3
 6905 1d6a F0120000 		.4byte	.LASF405
 6906 1d6e 1B       		.byte	0x1b
 6907 1d6f E1       		.byte	0xe1
 6908 1d70 181D0000 		.4byte	0x1d18
 6909 1d74 0F       		.uleb128 0xf
 6910 1d75 691D0000 		.4byte	0x1d69
 6911 1d79 0A       		.uleb128 0xa
 6912 1d7a 741D0000 		.4byte	0x1d74
 6913 1d7e 891D0000 		.4byte	0x1d89
 6914 1d82 0B       		.uleb128 0xb
 6915 1d83 37000000 		.4byte	0x37
 6916 1d87 0F       		.byte	0xf
 6917 1d88 00       		.byte	0
 6918 1d89 0F       		.uleb128 0xf
 6919 1d8a 791D0000 		.4byte	0x1d79
 6920 1d8e 20       		.uleb128 0x20
 6921 1d8f A41A0000 		.4byte	.LASF406
 6922 1d93 1B       		.byte	0x1b
 6923 1d94 BB01     		.2byte	0x1bb
 6924 1d96 891D0000 		.4byte	0x1d89
 6925 1d9a 15       		.uleb128 0x15
 6926 1d9b 89090000 		.4byte	0x989
 6927 1d9f B31D0000 		.4byte	0x1db3
 6928 1da3 16       		.uleb128 0x16
 6929 1da4 5D010000 		.4byte	0x15d
ARM GAS  C:\Users\PCHAUT~1\AppData\Local\Temp\ccORgsmL.s 			page 123


 6930 1da8 16       		.uleb128 0x16
 6931 1da9 E6080000 		.4byte	0x8e6
 6932 1dad 16       		.uleb128 0x16
 6933 1dae C0090000 		.4byte	0x9c0
 6934 1db2 00       		.byte	0
 6935 1db3 05       		.uleb128 0x5
 6936 1db4 04       		.byte	0x4
 6937 1db5 9A1D0000 		.4byte	0x1d9a
 6938 1db9 15       		.uleb128 0x15
 6939 1dba 89090000 		.4byte	0x989
 6940 1dbe CD1D0000 		.4byte	0x1dcd
 6941 1dc2 16       		.uleb128 0x16
 6942 1dc3 5D010000 		.4byte	0x15d
 6943 1dc7 16       		.uleb128 0x16
 6944 1dc8 C0090000 		.4byte	0x9c0
 6945 1dcc 00       		.byte	0
 6946 1dcd 05       		.uleb128 0x5
 6947 1dce 04       		.byte	0x4
 6948 1dcf B91D0000 		.4byte	0x1db9
 6949 1dd3 15       		.uleb128 0x15
 6950 1dd4 2C000000 		.4byte	0x2c
 6951 1dd8 F11D0000 		.4byte	0x1df1
 6952 1ddc 16       		.uleb128 0x16
 6953 1ddd 5D010000 		.4byte	0x15d
 6954 1de1 16       		.uleb128 0x16
 6955 1de2 BE1C0000 		.4byte	0x1cbe
 6956 1de6 16       		.uleb128 0x16
 6957 1de7 2C000000 		.4byte	0x2c
 6958 1deb 16       		.uleb128 0x16
 6959 1dec C0090000 		.4byte	0x9c0
 6960 1df0 00       		.byte	0
 6961 1df1 05       		.uleb128 0x5
 6962 1df2 04       		.byte	0x4
 6963 1df3 D31D0000 		.4byte	0x1dd3
 6964 1df7 15       		.uleb128 0x15
 6965 1df8 2C000000 		.4byte	0x2c
 6966 1dfc 151E0000 		.4byte	0x1e15
 6967 1e00 16       		.uleb128 0x16
 6968 1e01 5D010000 		.4byte	0x15d
 6969 1e05 16       		.uleb128 0x16
 6970 1e06 891C0000 		.4byte	0x1c89
 6971 1e0a 16       		.uleb128 0x16
 6972 1e0b 2C000000 		.4byte	0x2c
 6973 1e0f 16       		.uleb128 0x16
 6974 1e10 C0090000 		.4byte	0x9c0
 6975 1e14 00       		.byte	0
 6976 1e15 05       		.uleb128 0x5
 6977 1e16 04       		.byte	0x4
 6978 1e17 F71D0000 		.4byte	0x1df7
 6979 1e1b 27       		.uleb128 0x27
 6980 1e1c 07       		.byte	0x7
 6981 1e1d 01       		.byte	0x1
 6982 1e1e 5E000000 		.4byte	0x5e
 6983 1e22 1C       		.byte	0x1c
 6984 1e23 28       		.byte	0x28
 6985 1e24 5F1E0000 		.4byte	0x1e5f
 6986 1e28 28       		.uleb128 0x28
ARM GAS  C:\Users\PCHAUT~1\AppData\Local\Temp\ccORgsmL.s 			page 124


 6987 1e29 77010000 		.4byte	.LASF407
 6988 1e2d 00       		.byte	0
 6989 1e2e 28       		.uleb128 0x28
 6990 1e2f BA0F0000 		.4byte	.LASF408
 6991 1e33 01       		.byte	0x1
 6992 1e34 28       		.uleb128 0x28
 6993 1e35 4C0C0000 		.4byte	.LASF409
 6994 1e39 02       		.byte	0x2
 6995 1e3a 28       		.uleb128 0x28
 6996 1e3b D51B0000 		.4byte	.LASF410
 6997 1e3f 03       		.byte	0x3
 6998 1e40 28       		.uleb128 0x28
 6999 1e41 C6220000 		.4byte	.LASF411
 7000 1e45 04       		.byte	0x4
 7001 1e46 28       		.uleb128 0x28
 7002 1e47 D2070000 		.4byte	.LASF412
 7003 1e4b 05       		.byte	0x5
 7004 1e4c 28       		.uleb128 0x28
 7005 1e4d 771D0000 		.4byte	.LASF413
 7006 1e51 06       		.byte	0x6
 7007 1e52 28       		.uleb128 0x28
 7008 1e53 BB180000 		.4byte	.LASF414
 7009 1e57 07       		.byte	0x7
 7010 1e58 28       		.uleb128 0x28
 7011 1e59 92220000 		.4byte	.LASF415
 7012 1e5d 08       		.byte	0x8
 7013 1e5e 00       		.byte	0
 7014 1e5f 03       		.uleb128 0x3
 7015 1e60 5A170000 		.4byte	.LASF416
 7016 1e64 1C       		.byte	0x1c
 7017 1e65 32       		.byte	0x32
 7018 1e66 1B1E0000 		.4byte	0x1e1b
 7019 1e6a 0C       		.uleb128 0xc
 7020 1e6b 08       		.byte	0x8
 7021 1e6c 1C       		.byte	0x1c
 7022 1e6d 37       		.byte	0x37
 7023 1e6e 8B1E0000 		.4byte	0x1e8b
 7024 1e72 0D       		.uleb128 0xd
 7025 1e73 63070000 		.4byte	.LASF417
 7026 1e77 1C       		.byte	0x1c
 7027 1e78 38       		.byte	0x38
 7028 1e79 1C090000 		.4byte	0x91c
 7029 1e7d 00       		.byte	0
 7030 1e7e 0D       		.uleb128 0xd
 7031 1e7f E81C0000 		.4byte	.LASF418
 7032 1e83 1C       		.byte	0x1c
 7033 1e84 39       		.byte	0x39
 7034 1e85 1C090000 		.4byte	0x91c
 7035 1e89 04       		.byte	0x4
 7036 1e8a 00       		.byte	0
 7037 1e8b 03       		.uleb128 0x3
 7038 1e8c D11E0000 		.4byte	.LASF419
 7039 1e90 1C       		.byte	0x1c
 7040 1e91 3A       		.byte	0x3a
 7041 1e92 6A1E0000 		.4byte	0x1e6a
 7042 1e96 15       		.uleb128 0x15
 7043 1e97 A51E0000 		.4byte	0x1ea5
ARM GAS  C:\Users\PCHAUT~1\AppData\Local\Temp\ccORgsmL.s 			page 125


 7044 1e9b A51E0000 		.4byte	0x1ea5
 7045 1e9f 16       		.uleb128 0x16
 7046 1ea0 5D010000 		.4byte	0x15d
 7047 1ea4 00       		.byte	0
 7048 1ea5 04       		.uleb128 0x4
 7049 1ea6 01       		.byte	0x1
 7050 1ea7 02       		.byte	0x2
 7051 1ea8 2C010000 		.4byte	.LASF420
 7052 1eac 05       		.uleb128 0x5
 7053 1ead 04       		.byte	0x4
 7054 1eae 961E0000 		.4byte	0x1e96
 7055 1eb2 15       		.uleb128 0x15
 7056 1eb3 A51E0000 		.4byte	0x1ea5
 7057 1eb7 D01E0000 		.4byte	0x1ed0
 7058 1ebb 16       		.uleb128 0x16
 7059 1ebc 5D010000 		.4byte	0x15d
 7060 1ec0 16       		.uleb128 0x16
 7061 1ec1 1C090000 		.4byte	0x91c
 7062 1ec5 16       		.uleb128 0x16
 7063 1ec6 891C0000 		.4byte	0x1c89
 7064 1eca 16       		.uleb128 0x16
 7065 1ecb 1C090000 		.4byte	0x91c
 7066 1ecf 00       		.byte	0
 7067 1ed0 05       		.uleb128 0x5
 7068 1ed1 04       		.byte	0x4
 7069 1ed2 B21E0000 		.4byte	0x1eb2
 7070 1ed6 15       		.uleb128 0x15
 7071 1ed7 A51E0000 		.4byte	0x1ea5
 7072 1edb F41E0000 		.4byte	0x1ef4
 7073 1edf 16       		.uleb128 0x16
 7074 1ee0 5D010000 		.4byte	0x15d
 7075 1ee4 16       		.uleb128 0x16
 7076 1ee5 1C090000 		.4byte	0x91c
 7077 1ee9 16       		.uleb128 0x16
 7078 1eea BE1C0000 		.4byte	0x1cbe
 7079 1eee 16       		.uleb128 0x16
 7080 1eef 1C090000 		.4byte	0x91c
 7081 1ef3 00       		.byte	0
 7082 1ef4 05       		.uleb128 0x5
 7083 1ef5 04       		.byte	0x4
 7084 1ef6 D61E0000 		.4byte	0x1ed6
 7085 1efa 15       		.uleb128 0x15
 7086 1efb A51E0000 		.4byte	0x1ea5
 7087 1eff 0E1F0000 		.4byte	0x1f0e
 7088 1f03 16       		.uleb128 0x16
 7089 1f04 5D010000 		.4byte	0x15d
 7090 1f08 16       		.uleb128 0x16
 7091 1f09 0E1F0000 		.4byte	0x1f0e
 7092 1f0d 00       		.byte	0
 7093 1f0e 05       		.uleb128 0x5
 7094 1f0f 04       		.byte	0x4
 7095 1f10 8B1E0000 		.4byte	0x1e8b
 7096 1f14 05       		.uleb128 0x5
 7097 1f15 04       		.byte	0x4
 7098 1f16 FA1E0000 		.4byte	0x1efa
 7099 1f1a 0A       		.uleb128 0xa
 7100 1f1b 1C090000 		.4byte	0x91c
ARM GAS  C:\Users\PCHAUT~1\AppData\Local\Temp\ccORgsmL.s 			page 126


 7101 1f1f 2A1F0000 		.4byte	0x1f2a
 7102 1f23 0B       		.uleb128 0xb
 7103 1f24 37000000 		.4byte	0x37
 7104 1f28 03       		.byte	0x3
 7105 1f29 00       		.byte	0
 7106 1f2a 0C       		.uleb128 0xc
 7107 1f2b 04       		.byte	0x4
 7108 1f2c 1D       		.byte	0x1d
 7109 1f2d B3       		.byte	0xb3
 7110 1f2e 4B1F0000 		.4byte	0x1f4b
 7111 1f32 11       		.uleb128 0x11
 7112 1f33 73657400 		.ascii	"set\000"
 7113 1f37 1D       		.byte	0x1d
 7114 1f38 B4       		.byte	0xb4
 7115 1f39 01090000 		.4byte	0x901
 7116 1f3d 00       		.byte	0
 7117 1f3e 0D       		.uleb128 0xd
 7118 1f3f E50D0000 		.4byte	.LASF421
 7119 1f43 1D       		.byte	0x1d
 7120 1f44 B5       		.byte	0xb5
 7121 1f45 01090000 		.4byte	0x901
 7122 1f49 02       		.byte	0x2
 7123 1f4a 00       		.byte	0
 7124 1f4b 08       		.uleb128 0x8
 7125 1f4c 04       		.byte	0x4
 7126 1f4d 1D       		.byte	0x1d
 7127 1f4e B1       		.byte	0xb1
 7128 1f4f 661F0000 		.4byte	0x1f66
 7129 1f53 29       		.uleb128 0x29
 7130 1f54 5700     		.ascii	"W\000"
 7131 1f56 1D       		.byte	0x1d
 7132 1f57 B2       		.byte	0xb2
 7133 1f58 1C090000 		.4byte	0x91c
 7134 1f5c 29       		.uleb128 0x29
 7135 1f5d 4800     		.ascii	"H\000"
 7136 1f5f 1D       		.byte	0x1d
 7137 1f60 B6       		.byte	0xb6
 7138 1f61 2A1F0000 		.4byte	0x1f2a
 7139 1f65 00       		.byte	0
 7140 1f66 1A       		.uleb128 0x1a
 7141 1f67 4B1F0000 		.4byte	0x1f4b
 7142 1f6b 0C       		.uleb128 0xc
 7143 1f6c 2C       		.byte	0x2c
 7144 1f6d 1D       		.byte	0x1d
 7145 1f6e A9       		.byte	0xa9
 7146 1f6f F81F0000 		.4byte	0x1ff8
 7147 1f73 0D       		.uleb128 0xd
 7148 1f74 CF1D0000 		.4byte	.LASF422
 7149 1f78 1D       		.byte	0x1d
 7150 1f79 AB       		.byte	0xab
 7151 1f7a 27090000 		.4byte	0x927
 7152 1f7e 00       		.byte	0
 7153 1f7f 0D       		.uleb128 0xd
 7154 1f80 41030000 		.4byte	.LASF423
 7155 1f84 1D       		.byte	0x1d
 7156 1f85 AC       		.byte	0xac
 7157 1f86 27090000 		.4byte	0x927
ARM GAS  C:\Users\PCHAUT~1\AppData\Local\Temp\ccORgsmL.s 			page 127


 7158 1f8a 04       		.byte	0x4
 7159 1f8b 0D       		.uleb128 0xd
 7160 1f8c 750F0000 		.4byte	.LASF424
 7161 1f90 1D       		.byte	0x1d
 7162 1f91 AD       		.byte	0xad
 7163 1f92 27090000 		.4byte	0x927
 7164 1f96 08       		.byte	0x8
 7165 1f97 0D       		.uleb128 0xd
 7166 1f98 131D0000 		.4byte	.LASF425
 7167 1f9c 1D       		.byte	0x1d
 7168 1f9d AE       		.byte	0xae
 7169 1f9e 27090000 		.4byte	0x927
 7170 1fa2 0C       		.byte	0xc
 7171 1fa3 11       		.uleb128 0x11
 7172 1fa4 49445200 		.ascii	"IDR\000"
 7173 1fa8 1D       		.byte	0x1d
 7174 1fa9 AF       		.byte	0xaf
 7175 1faa 27090000 		.4byte	0x927
 7176 1fae 10       		.byte	0x10
 7177 1faf 11       		.uleb128 0x11
 7178 1fb0 4F445200 		.ascii	"ODR\000"
 7179 1fb4 1D       		.byte	0x1d
 7180 1fb5 B0       		.byte	0xb0
 7181 1fb6 27090000 		.4byte	0x927
 7182 1fba 14       		.byte	0x14
 7183 1fbb 0D       		.uleb128 0xd
 7184 1fbc EB120000 		.4byte	.LASF426
 7185 1fc0 1D       		.byte	0x1d
 7186 1fc1 B7       		.byte	0xb7
 7187 1fc2 661F0000 		.4byte	0x1f66
 7188 1fc6 18       		.byte	0x18
 7189 1fc7 0D       		.uleb128 0xd
 7190 1fc8 90180000 		.4byte	.LASF427
 7191 1fcc 1D       		.byte	0x1d
 7192 1fcd B8       		.byte	0xb8
 7193 1fce 27090000 		.4byte	0x927
 7194 1fd2 1C       		.byte	0x1c
 7195 1fd3 0D       		.uleb128 0xd
 7196 1fd4 621B0000 		.4byte	.LASF428
 7197 1fd8 1D       		.byte	0x1d
 7198 1fd9 B9       		.byte	0xb9
 7199 1fda 27090000 		.4byte	0x927
 7200 1fde 20       		.byte	0x20
 7201 1fdf 0D       		.uleb128 0xd
 7202 1fe0 5D1B0000 		.4byte	.LASF429
 7203 1fe4 1D       		.byte	0x1d
 7204 1fe5 BA       		.byte	0xba
 7205 1fe6 27090000 		.4byte	0x927
 7206 1fea 24       		.byte	0x24
 7207 1feb 11       		.uleb128 0x11
 7208 1fec 42525200 		.ascii	"BRR\000"
 7209 1ff0 1D       		.byte	0x1d
 7210 1ff1 BB       		.byte	0xbb
 7211 1ff2 27090000 		.4byte	0x927
 7212 1ff6 28       		.byte	0x28
 7213 1ff7 00       		.byte	0
 7214 1ff8 03       		.uleb128 0x3
ARM GAS  C:\Users\PCHAUT~1\AppData\Local\Temp\ccORgsmL.s 			page 128


 7215 1ff9 A8100000 		.4byte	.LASF430
 7216 1ffd 1D       		.byte	0x1d
 7217 1ffe BC       		.byte	0xbc
 7218 1fff 6B1F0000 		.4byte	0x1f6b
 7219 2003 0C       		.uleb128 0xc
 7220 2004 1C       		.byte	0x1c
 7221 2005 1D       		.byte	0x1d
 7222 2006 C1       		.byte	0xc1
 7223 2007 60200000 		.4byte	0x2060
 7224 200b 0D       		.uleb128 0xd
 7225 200c F0200000 		.4byte	.LASF431
 7226 2010 1D       		.byte	0x1d
 7227 2011 C3       		.byte	0xc3
 7228 2012 1C090000 		.4byte	0x91c
 7229 2016 00       		.byte	0
 7230 2017 0D       		.uleb128 0xd
 7231 2018 25030000 		.4byte	.LASF432
 7232 201c 1D       		.byte	0x1d
 7233 201d C5       		.byte	0xc5
 7234 201e 1C090000 		.4byte	0x91c
 7235 2022 04       		.byte	0x4
 7236 2023 0D       		.uleb128 0xd
 7237 2024 55020000 		.4byte	.LASF433
 7238 2028 1D       		.byte	0x1d
 7239 2029 C7       		.byte	0xc7
 7240 202a 1C090000 		.4byte	0x91c
 7241 202e 08       		.byte	0x8
 7242 202f 0D       		.uleb128 0xd
 7243 2030 1A200000 		.4byte	.LASF434
 7244 2034 1D       		.byte	0x1d
 7245 2035 C9       		.byte	0xc9
 7246 2036 1C090000 		.4byte	0x91c
 7247 203a 0C       		.byte	0xc
 7248 203b 11       		.uleb128 0x11
 7249 203c 6F647200 		.ascii	"odr\000"
 7250 2040 1D       		.byte	0x1d
 7251 2041 CB       		.byte	0xcb
 7252 2042 1C090000 		.4byte	0x91c
 7253 2046 10       		.byte	0x10
 7254 2047 0D       		.uleb128 0xd
 7255 2048 831D0000 		.4byte	.LASF435
 7256 204c 1D       		.byte	0x1d
 7257 204d CD       		.byte	0xcd
 7258 204e 1C090000 		.4byte	0x91c
 7259 2052 14       		.byte	0x14
 7260 2053 0D       		.uleb128 0xd
 7261 2054 54000000 		.4byte	.LASF436
 7262 2058 1D       		.byte	0x1d
 7263 2059 CF       		.byte	0xcf
 7264 205a 1C090000 		.4byte	0x91c
 7265 205e 18       		.byte	0x18
 7266 205f 00       		.byte	0
 7267 2060 03       		.uleb128 0x3
 7268 2061 871A0000 		.4byte	.LASF437
 7269 2065 1D       		.byte	0x1d
 7270 2066 D0       		.byte	0xd0
 7271 2067 03200000 		.4byte	0x2003
ARM GAS  C:\Users\PCHAUT~1\AppData\Local\Temp\ccORgsmL.s 			page 129


 7272 206b 0C       		.uleb128 0xc
 7273 206c FC       		.byte	0xfc
 7274 206d 1D       		.byte	0x1d
 7275 206e D9       		.byte	0xd9
 7276 206f E0200000 		.4byte	0x20e0
 7277 2073 0D       		.uleb128 0xd
 7278 2074 38110000 		.4byte	.LASF438
 7279 2078 1D       		.byte	0x1d
 7280 2079 DC       		.byte	0xdc
 7281 207a 60200000 		.4byte	0x2060
 7282 207e 00       		.byte	0
 7283 207f 0D       		.uleb128 0xd
 7284 2080 0E030000 		.4byte	.LASF439
 7285 2084 1D       		.byte	0x1d
 7286 2085 E0       		.byte	0xe0
 7287 2086 60200000 		.4byte	0x2060
 7288 208a 1C       		.byte	0x1c
 7289 208b 0D       		.uleb128 0xd
 7290 208c F2010000 		.4byte	.LASF440
 7291 2090 1D       		.byte	0x1d
 7292 2091 E4       		.byte	0xe4
 7293 2092 60200000 		.4byte	0x2060
 7294 2096 38       		.byte	0x38
 7295 2097 0D       		.uleb128 0xd
 7296 2098 E10E0000 		.4byte	.LASF441
 7297 209c 1D       		.byte	0x1d
 7298 209d E8       		.byte	0xe8
 7299 209e 60200000 		.4byte	0x2060
 7300 20a2 54       		.byte	0x54
 7301 20a3 0D       		.uleb128 0xd
 7302 20a4 D0190000 		.4byte	.LASF442
 7303 20a8 1D       		.byte	0x1d
 7304 20a9 EC       		.byte	0xec
 7305 20aa 60200000 		.4byte	0x2060
 7306 20ae 70       		.byte	0x70
 7307 20af 0D       		.uleb128 0xd
 7308 20b0 93240000 		.4byte	.LASF443
 7309 20b4 1D       		.byte	0x1d
 7310 20b5 F0       		.byte	0xf0
 7311 20b6 60200000 		.4byte	0x2060
 7312 20ba 8C       		.byte	0x8c
 7313 20bb 0D       		.uleb128 0xd
 7314 20bc D80C0000 		.4byte	.LASF444
 7315 20c0 1D       		.byte	0x1d
 7316 20c1 F4       		.byte	0xf4
 7317 20c2 60200000 		.4byte	0x2060
 7318 20c6 A8       		.byte	0xa8
 7319 20c7 0D       		.uleb128 0xd
 7320 20c8 FE170000 		.4byte	.LASF445
 7321 20cc 1D       		.byte	0x1d
 7322 20cd F8       		.byte	0xf8
 7323 20ce 60200000 		.4byte	0x2060
 7324 20d2 C4       		.byte	0xc4
 7325 20d3 0D       		.uleb128 0xd
 7326 20d4 9E220000 		.4byte	.LASF446
 7327 20d8 1D       		.byte	0x1d
 7328 20d9 FC       		.byte	0xfc
ARM GAS  C:\Users\PCHAUT~1\AppData\Local\Temp\ccORgsmL.s 			page 130


 7329 20da 60200000 		.4byte	0x2060
 7330 20de E0       		.byte	0xe0
 7331 20df 00       		.byte	0
 7332 20e0 03       		.uleb128 0x3
 7333 20e1 2F0C0000 		.4byte	.LASF447
 7334 20e5 1D       		.byte	0x1d
 7335 20e6 FE       		.byte	0xfe
 7336 20e7 6B200000 		.4byte	0x206b
 7337 20eb 0F       		.uleb128 0xf
 7338 20ec E0200000 		.4byte	0x20e0
 7339 20f0 07       		.uleb128 0x7
 7340 20f1 05180000 		.4byte	.LASF448
 7341 20f5 1D       		.byte	0x1d
 7342 20f6 1B01     		.2byte	0x11b
 7343 20f8 FC200000 		.4byte	0x20fc
 7344 20fc 05       		.uleb128 0x5
 7345 20fd 04       		.byte	0x4
 7346 20fe F81F0000 		.4byte	0x1ff8
 7347 2102 20       		.uleb128 0x20
 7348 2103 711E0000 		.4byte	.LASF449
 7349 2107 1D       		.byte	0x1d
 7350 2108 DA01     		.2byte	0x1da
 7351 210a EB200000 		.4byte	0x20eb
 7352 210e 27       		.uleb128 0x27
 7353 210f 07       		.byte	0x7
 7354 2110 01       		.byte	0x1
 7355 2111 5E000000 		.4byte	0x5e
 7356 2115 1E       		.byte	0x1e
 7357 2116 46       		.byte	0x46
 7358 2117 40210000 		.4byte	0x2140
 7359 211b 28       		.uleb128 0x28
 7360 211c 88080000 		.4byte	.LASF450
 7361 2120 00       		.byte	0
 7362 2121 28       		.uleb128 0x28
 7363 2122 65150000 		.4byte	.LASF451
 7364 2126 01       		.byte	0x1
 7365 2127 28       		.uleb128 0x28
 7366 2128 9F200000 		.4byte	.LASF452
 7367 212c 02       		.byte	0x2
 7368 212d 28       		.uleb128 0x28
 7369 212e BF120000 		.4byte	.LASF453
 7370 2132 03       		.byte	0x3
 7371 2133 28       		.uleb128 0x28
 7372 2134 CE060000 		.4byte	.LASF454
 7373 2138 04       		.byte	0x4
 7374 2139 28       		.uleb128 0x28
 7375 213a 8F120000 		.4byte	.LASF455
 7376 213e 05       		.byte	0x5
 7377 213f 00       		.byte	0
 7378 2140 03       		.uleb128 0x3
 7379 2141 5C040000 		.4byte	.LASF456
 7380 2145 1E       		.byte	0x1e
 7381 2146 4D       		.byte	0x4d
 7382 2147 0E210000 		.4byte	0x210e
 7383 214b 07       		.uleb128 0x7
 7384 214c BC110000 		.4byte	.LASF457
 7385 2150 1F       		.byte	0x1f
ARM GAS  C:\Users\PCHAUT~1\AppData\Local\Temp\ccORgsmL.s 			page 131


 7386 2151 2701     		.2byte	0x127
 7387 2153 01090000 		.4byte	0x901
 7388 2157 07       		.uleb128 0x7
 7389 2158 011C0000 		.4byte	.LASF458
 7390 215c 1F       		.byte	0x1f
 7391 215d 2C01     		.2byte	0x12c
 7392 215f 01090000 		.4byte	0x901
 7393 2163 2A       		.uleb128 0x2a
 7394 2164 07       		.byte	0x7
 7395 2165 01       		.byte	0x1
 7396 2166 5E000000 		.4byte	0x5e
 7397 216a 1F       		.byte	0x1f
 7398 216b 3301     		.2byte	0x133
 7399 216d 7E210000 		.4byte	0x217e
 7400 2171 28       		.uleb128 0x28
 7401 2172 410F0000 		.4byte	.LASF459
 7402 2176 00       		.byte	0
 7403 2177 28       		.uleb128 0x28
 7404 2178 6D020000 		.4byte	.LASF460
 7405 217c 01       		.byte	0x1
 7406 217d 00       		.byte	0
 7407 217e 07       		.uleb128 0x7
 7408 217f A7210000 		.4byte	.LASF461
 7409 2183 1F       		.byte	0x1f
 7410 2184 3601     		.2byte	0x136
 7411 2186 63210000 		.4byte	0x2163
 7412 218a 07       		.uleb128 0x7
 7413 218b 02100000 		.4byte	.LASF462
 7414 218f 1F       		.byte	0x1f
 7415 2190 3B01     		.2byte	0x13b
 7416 2192 96210000 		.4byte	0x2196
 7417 2196 1B       		.uleb128 0x1b
 7418 2197 02100000 		.4byte	.LASF462
 7419 219b 38       		.byte	0x38
 7420 219c 1F       		.byte	0x1f
 7421 219d 9F01     		.2byte	0x19f
 7422 219f 26220000 		.4byte	0x2226
 7423 21a3 18       		.uleb128 0x18
 7424 21a4 46160000 		.4byte	.LASF463
 7425 21a8 1F       		.byte	0x1f
 7426 21a9 A301     		.2byte	0x1a3
 7427 21ab 40210000 		.4byte	0x2140
 7428 21af 00       		.byte	0
 7429 21b0 18       		.uleb128 0x18
 7430 21b1 A71B0000 		.4byte	.LASF464
 7431 21b5 1F       		.byte	0x1f
 7432 21b6 A701     		.2byte	0x1a7
 7433 21b8 4D230000 		.4byte	0x234d
 7434 21bc 04       		.byte	0x4
 7435 21bd 18       		.uleb128 0x18
 7436 21be 08020000 		.4byte	.LASF465
 7437 21c2 1F       		.byte	0x1f
 7438 21c3 AB01     		.2byte	0x1ab
 7439 21c5 53220000 		.4byte	0x2253
 7440 21c9 08       		.byte	0x8
 7441 21ca 18       		.uleb128 0x18
 7442 21cb F7180000 		.4byte	.LASF466
ARM GAS  C:\Users\PCHAUT~1\AppData\Local\Temp\ccORgsmL.s 			page 132


 7443 21cf 1F       		.byte	0x1f
 7444 21d0 AF01     		.2byte	0x1af
 7445 21d2 2C000000 		.4byte	0x2c
 7446 21d6 0C       		.byte	0xc
 7447 21d7 18       		.uleb128 0x18
 7448 21d8 841E0000 		.4byte	.LASF467
 7449 21dc 1F       		.byte	0x1f
 7450 21dd B301     		.2byte	0x1b3
 7451 21df 53230000 		.4byte	0x2353
 7452 21e3 10       		.byte	0x10
 7453 21e4 18       		.uleb128 0x18
 7454 21e5 3A070000 		.4byte	.LASF468
 7455 21e9 1F       		.byte	0x1f
 7456 21ea B801     		.2byte	0x1b8
 7457 21ec F90A0000 		.4byte	0xaf9
 7458 21f0 14       		.byte	0x14
 7459 21f1 18       		.uleb128 0x18
 7460 21f2 B60D0000 		.4byte	.LASF469
 7461 21f6 1F       		.byte	0x1f
 7462 21f7 BE01     		.2byte	0x1be
 7463 21f9 601B0000 		.4byte	0x1b60
 7464 21fd 18       		.byte	0x18
 7465 21fe 21       		.uleb128 0x21
 7466 21ff 61646300 		.ascii	"adc\000"
 7467 2203 1F       		.byte	0x1f
 7468 2204 C701     		.2byte	0x1c7
 7469 2206 59230000 		.4byte	0x2359
 7470 220a 2C       		.byte	0x2c
 7471 220b 18       		.uleb128 0x18
 7472 220c EE0B0000 		.4byte	.LASF470
 7473 2210 1F       		.byte	0x1f
 7474 2211 CB01     		.2byte	0x1cb
 7475 2213 5F230000 		.4byte	0x235f
 7476 2217 30       		.byte	0x30
 7477 2218 18       		.uleb128 0x18
 7478 2219 27180000 		.4byte	.LASF471
 7479 221d 1F       		.byte	0x1f
 7480 221e CF01     		.2byte	0x1cf
 7481 2220 1C090000 		.4byte	0x91c
 7482 2224 34       		.byte	0x34
 7483 2225 00       		.byte	0
 7484 2226 07       		.uleb128 0x7
 7485 2227 F61A0000 		.4byte	.LASF472
 7486 222b 1F       		.byte	0x1f
 7487 222c 4501     		.2byte	0x145
 7488 222e 32220000 		.4byte	0x2232
 7489 2232 05       		.uleb128 0x5
 7490 2233 04       		.byte	0x4
 7491 2234 38220000 		.4byte	0x2238
 7492 2238 1F       		.uleb128 0x1f
 7493 2239 4D220000 		.4byte	0x224d
 7494 223d 16       		.uleb128 0x16
 7495 223e 4D220000 		.4byte	0x224d
 7496 2242 16       		.uleb128 0x16
 7497 2243 53220000 		.4byte	0x2253
 7498 2247 16       		.uleb128 0x16
 7499 2248 2C000000 		.4byte	0x2c
ARM GAS  C:\Users\PCHAUT~1\AppData\Local\Temp\ccORgsmL.s 			page 133


 7500 224c 00       		.byte	0
 7501 224d 05       		.uleb128 0x5
 7502 224e 04       		.byte	0x4
 7503 224f 8A210000 		.4byte	0x218a
 7504 2253 05       		.uleb128 0x5
 7505 2254 04       		.byte	0x4
 7506 2255 4B210000 		.4byte	0x214b
 7507 2259 07       		.uleb128 0x7
 7508 225a 15160000 		.4byte	.LASF473
 7509 225e 1F       		.byte	0x1f
 7510 225f 4E01     		.2byte	0x14e
 7511 2261 65220000 		.4byte	0x2265
 7512 2265 05       		.uleb128 0x5
 7513 2266 04       		.byte	0x4
 7514 2267 6B220000 		.4byte	0x226b
 7515 226b 1F       		.uleb128 0x1f
 7516 226c 7B220000 		.4byte	0x227b
 7517 2270 16       		.uleb128 0x16
 7518 2271 4D220000 		.4byte	0x224d
 7519 2275 16       		.uleb128 0x16
 7520 2276 7E210000 		.4byte	0x217e
 7521 227a 00       		.byte	0
 7522 227b 1C       		.uleb128 0x1c
 7523 227c 28       		.byte	0x28
 7524 227d 1F       		.byte	0x1f
 7525 227e 5801     		.2byte	0x158
 7526 2280 14230000 		.4byte	0x2314
 7527 2284 18       		.uleb128 0x18
 7528 2285 DC200000 		.4byte	.LASF474
 7529 2289 1F       		.byte	0x1f
 7530 228a 5C01     		.2byte	0x15c
 7531 228c A51E0000 		.4byte	0x1ea5
 7532 2290 00       		.byte	0
 7533 2291 18       		.uleb128 0x18
 7534 2292 FA100000 		.4byte	.LASF475
 7535 2296 1F       		.byte	0x1f
 7536 2297 6001     		.2byte	0x160
 7537 2299 57210000 		.4byte	0x2157
 7538 229d 02       		.byte	0x2
 7539 229e 18       		.uleb128 0x18
 7540 229f AF0A0000 		.4byte	.LASF476
 7541 22a3 1F       		.byte	0x1f
 7542 22a4 6401     		.2byte	0x164
 7543 22a6 26220000 		.4byte	0x2226
 7544 22aa 04       		.byte	0x4
 7545 22ab 18       		.uleb128 0x18
 7546 22ac BD220000 		.4byte	.LASF477
 7547 22b0 1F       		.byte	0x1f
 7548 22b1 6801     		.2byte	0x168
 7549 22b3 59220000 		.4byte	0x2259
 7550 22b7 08       		.byte	0x8
 7551 22b8 21       		.uleb128 0x21
 7552 22b9 63723100 		.ascii	"cr1\000"
 7553 22bd 1F       		.byte	0x1f
 7554 22be 6F01     		.2byte	0x16f
 7555 22c0 1C090000 		.4byte	0x91c
 7556 22c4 0C       		.byte	0xc
ARM GAS  C:\Users\PCHAUT~1\AppData\Local\Temp\ccORgsmL.s 			page 134


 7557 22c5 21       		.uleb128 0x21
 7558 22c6 63723200 		.ascii	"cr2\000"
 7559 22ca 1F       		.byte	0x1f
 7560 22cb 7601     		.2byte	0x176
 7561 22cd 1C090000 		.4byte	0x91c
 7562 22d1 10       		.byte	0x10
 7563 22d2 18       		.uleb128 0x18
 7564 22d3 3E170000 		.4byte	.LASF478
 7565 22d7 1F       		.byte	0x1f
 7566 22d8 7C01     		.2byte	0x17c
 7567 22da 1C090000 		.4byte	0x91c
 7568 22de 14       		.byte	0x14
 7569 22df 18       		.uleb128 0x18
 7570 22e0 44170000 		.4byte	.LASF479
 7571 22e4 1F       		.byte	0x1f
 7572 22e5 8201     		.2byte	0x182
 7573 22e7 1C090000 		.4byte	0x91c
 7574 22eb 18       		.byte	0x18
 7575 22ec 18       		.uleb128 0x18
 7576 22ed 72010000 		.4byte	.LASF480
 7577 22f1 1F       		.byte	0x1f
 7578 22f2 8701     		.2byte	0x187
 7579 22f4 1C090000 		.4byte	0x91c
 7580 22f8 1C       		.byte	0x1c
 7581 22f9 18       		.uleb128 0x18
 7582 22fa 8D230000 		.4byte	.LASF481
 7583 22fe 1F       		.byte	0x1f
 7584 22ff 8C01     		.2byte	0x18c
 7585 2301 1C090000 		.4byte	0x91c
 7586 2305 20       		.byte	0x20
 7587 2306 18       		.uleb128 0x18
 7588 2307 92230000 		.4byte	.LASF482
 7589 230b 1F       		.byte	0x1f
 7590 230c 9101     		.2byte	0x191
 7591 230e 1C090000 		.4byte	0x91c
 7592 2312 24       		.byte	0x24
 7593 2313 00       		.byte	0
 7594 2314 07       		.uleb128 0x7
 7595 2315 C8050000 		.4byte	.LASF483
 7596 2319 1F       		.byte	0x1f
 7597 231a 9201     		.2byte	0x192
 7598 231c 7B220000 		.4byte	0x227b
 7599 2320 0F       		.uleb128 0xf
 7600 2321 14230000 		.4byte	0x2314
 7601 2325 1C       		.uleb128 0x1c
 7602 2326 04       		.byte	0x4
 7603 2327 1F       		.byte	0x1f
 7604 2328 9801     		.2byte	0x198
 7605 232a 3C230000 		.4byte	0x233c
 7606 232e 18       		.uleb128 0x18
 7607 232f C8230000 		.4byte	.LASF484
 7608 2333 1F       		.byte	0x1f
 7609 2334 9901     		.2byte	0x199
 7610 2336 1C090000 		.4byte	0x91c
 7611 233a 00       		.byte	0
 7612 233b 00       		.byte	0
 7613 233c 07       		.uleb128 0x7
ARM GAS  C:\Users\PCHAUT~1\AppData\Local\Temp\ccORgsmL.s 			page 135


 7614 233d 1A100000 		.4byte	.LASF485
 7615 2341 1F       		.byte	0x1f
 7616 2342 9A01     		.2byte	0x19a
 7617 2344 25230000 		.4byte	0x2325
 7618 2348 0F       		.uleb128 0xf
 7619 2349 3C230000 		.4byte	0x233c
 7620 234d 05       		.uleb128 0x5
 7621 234e 04       		.byte	0x4
 7622 234f 48230000 		.4byte	0x2348
 7623 2353 05       		.uleb128 0x5
 7624 2354 04       		.byte	0x4
 7625 2355 20230000 		.4byte	0x2320
 7626 2359 05       		.uleb128 0x5
 7627 235a 04       		.byte	0x4
 7628 235b 8C0E0000 		.4byte	0xe8c
 7629 235f 05       		.uleb128 0x5
 7630 2360 04       		.byte	0x4
 7631 2361 741D0000 		.4byte	0x1d74
 7632 2365 20       		.uleb128 0x20
 7633 2366 10180000 		.4byte	.LASF486
 7634 236a 1F       		.byte	0x1f
 7635 236b 1402     		.2byte	0x214
 7636 236d 8A210000 		.4byte	0x218a
 7637 2371 20       		.uleb128 0x20
 7638 2372 16180000 		.4byte	.LASF487
 7639 2376 1F       		.byte	0x1f
 7640 2377 1802     		.2byte	0x218
 7641 2379 8A210000 		.4byte	0x218a
 7642 237d 20       		.uleb128 0x20
 7643 237e 1C180000 		.4byte	.LASF488
 7644 2382 1F       		.byte	0x1f
 7645 2383 1C02     		.2byte	0x21c
 7646 2385 8A210000 		.4byte	0x218a
 7647 2389 27       		.uleb128 0x27
 7648 238a 07       		.byte	0x7
 7649 238b 01       		.byte	0x1
 7650 238c 5E000000 		.4byte	0x5e
 7651 2390 20       		.byte	0x20
 7652 2391 5F       		.byte	0x5f
 7653 2392 B5230000 		.4byte	0x23b5
 7654 2396 28       		.uleb128 0x28
 7655 2397 5D0E0000 		.4byte	.LASF489
 7656 239b 00       		.byte	0
 7657 239c 28       		.uleb128 0x28
 7658 239d FA000000 		.4byte	.LASF490
 7659 23a1 01       		.byte	0x1
 7660 23a2 28       		.uleb128 0x28
 7661 23a3 38000000 		.4byte	.LASF491
 7662 23a7 02       		.byte	0x2
 7663 23a8 28       		.uleb128 0x28
 7664 23a9 15190000 		.4byte	.LASF492
 7665 23ad 03       		.byte	0x3
 7666 23ae 28       		.uleb128 0x28
 7667 23af 4E0B0000 		.4byte	.LASF493
 7668 23b3 04       		.byte	0x4
 7669 23b4 00       		.byte	0
 7670 23b5 03       		.uleb128 0x3
ARM GAS  C:\Users\PCHAUT~1\AppData\Local\Temp\ccORgsmL.s 			page 136


 7671 23b6 39060000 		.4byte	.LASF494
 7672 23ba 20       		.byte	0x20
 7673 23bb 65       		.byte	0x65
 7674 23bc 89230000 		.4byte	0x2389
 7675 23c0 0A       		.uleb128 0xa
 7676 23c1 E6080000 		.4byte	0x8e6
 7677 23c5 D0230000 		.4byte	0x23d0
 7678 23c9 0B       		.uleb128 0xb
 7679 23ca 37000000 		.4byte	0x37
 7680 23ce 07       		.byte	0x7
 7681 23cf 00       		.byte	0
 7682 23d0 0C       		.uleb128 0xc
 7683 23d1 08       		.byte	0x8
 7684 23d2 21       		.byte	0x21
 7685 23d3 F4       		.byte	0xf4
 7686 23d4 F2230000 		.4byte	0x23f2
 7687 23d8 11       		.uleb128 0x11
 7688 23d9 6D637200 		.ascii	"mcr\000"
 7689 23dd 21       		.byte	0x21
 7690 23de FA       		.byte	0xfa
 7691 23df 1C090000 		.4byte	0x91c
 7692 23e3 00       		.byte	0
 7693 23e4 21       		.uleb128 0x21
 7694 23e5 62747200 		.ascii	"btr\000"
 7695 23e9 21       		.byte	0x21
 7696 23ea 0001     		.2byte	0x100
 7697 23ec 1C090000 		.4byte	0x91c
 7698 23f0 04       		.byte	0x4
 7699 23f1 00       		.byte	0
 7700 23f2 07       		.uleb128 0x7
 7701 23f3 C6190000 		.4byte	.LASF495
 7702 23f7 21       		.byte	0x21
 7703 23f8 0101     		.2byte	0x101
 7704 23fa D0230000 		.4byte	0x23d0
 7705 23fe 0F       		.uleb128 0xf
 7706 23ff F2230000 		.4byte	0x23f2
 7707 2403 1C       		.uleb128 0x1c
 7708 2404 30       		.byte	0x30
 7709 2405 21       		.byte	0x21
 7710 2406 0601     		.2byte	0x106
 7711 2408 8F240000 		.4byte	0x248f
 7712 240c 18       		.uleb128 0x18
 7713 240d 46160000 		.4byte	.LASF463
 7714 2411 21       		.byte	0x21
 7715 2412 0A01     		.2byte	0x10a
 7716 2414 B5230000 		.4byte	0x23b5
 7717 2418 00       		.byte	0
 7718 2419 18       		.uleb128 0x18
 7719 241a A71B0000 		.4byte	.LASF464
 7720 241e 21       		.byte	0x21
 7721 241f 0E01     		.2byte	0x10e
 7722 2421 8F240000 		.4byte	0x248f
 7723 2425 04       		.byte	0x4
 7724 2426 18       		.uleb128 0x18
 7725 2427 E40A0000 		.4byte	.LASF496
 7726 242b 21       		.byte	0x21
 7727 242c 1201     		.2byte	0x112
ARM GAS  C:\Users\PCHAUT~1\AppData\Local\Temp\ccORgsmL.s 			page 137


 7728 242e 2E0B0000 		.4byte	0xb2e
 7729 2432 08       		.byte	0x8
 7730 2433 18       		.uleb128 0x18
 7731 2434 581E0000 		.4byte	.LASF497
 7732 2438 21       		.byte	0x21
 7733 2439 1601     		.2byte	0x116
 7734 243b 2E0B0000 		.4byte	0xb2e
 7735 243f 10       		.byte	0x10
 7736 2440 18       		.uleb128 0x18
 7737 2441 A2190000 		.4byte	.LASF498
 7738 2445 21       		.byte	0x21
 7739 2446 2301     		.2byte	0x123
 7740 2448 E41B0000 		.4byte	0x1be4
 7741 244c 18       		.byte	0x18
 7742 244d 18       		.uleb128 0x18
 7743 244e B70C0000 		.4byte	.LASF499
 7744 2452 21       		.byte	0x21
 7745 2453 2A01     		.2byte	0x12a
 7746 2455 E41B0000 		.4byte	0x1be4
 7747 2459 1C       		.byte	0x1c
 7748 245a 18       		.uleb128 0x18
 7749 245b EE100000 		.4byte	.LASF500
 7750 245f 21       		.byte	0x21
 7751 2460 3001     		.2byte	0x130
 7752 2462 E41B0000 		.4byte	0x1be4
 7753 2466 20       		.byte	0x20
 7754 2467 18       		.uleb128 0x18
 7755 2468 B2030000 		.4byte	.LASF501
 7756 246c 21       		.byte	0x21
 7757 246d 3501     		.2byte	0x135
 7758 246f E41B0000 		.4byte	0x1be4
 7759 2473 24       		.byte	0x24
 7760 2474 18       		.uleb128 0x18
 7761 2475 9A0A0000 		.4byte	.LASF502
 7762 2479 21       		.byte	0x21
 7763 247a 3901     		.2byte	0x139
 7764 247c E41B0000 		.4byte	0x1be4
 7765 2480 28       		.byte	0x28
 7766 2481 21       		.uleb128 0x21
 7767 2482 63616E00 		.ascii	"can\000"
 7768 2486 21       		.byte	0x21
 7769 2487 3F01     		.2byte	0x13f
 7770 2489 95240000 		.4byte	0x2495
 7771 248d 2C       		.byte	0x2c
 7772 248e 00       		.byte	0
 7773 248f 05       		.uleb128 0x5
 7774 2490 04       		.byte	0x4
 7775 2491 FE230000 		.4byte	0x23fe
 7776 2495 05       		.uleb128 0x5
 7777 2496 04       		.byte	0x4
 7778 2497 D5100000 		.4byte	0x10d5
 7779 249b 07       		.uleb128 0x7
 7780 249c 08040000 		.4byte	.LASF503
 7781 24a0 21       		.byte	0x21
 7782 24a1 4001     		.2byte	0x140
 7783 24a3 03240000 		.4byte	0x2403
 7784 24a7 20       		.uleb128 0x20
ARM GAS  C:\Users\PCHAUT~1\AppData\Local\Temp\ccORgsmL.s 			page 138


 7785 24a8 CA1F0000 		.4byte	.LASF504
 7786 24ac 21       		.byte	0x21
 7787 24ad 4B01     		.2byte	0x14b
 7788 24af 9B240000 		.4byte	0x249b
 7789 24b3 27       		.uleb128 0x27
 7790 24b4 07       		.byte	0x7
 7791 24b5 01       		.byte	0x1
 7792 24b6 5E000000 		.4byte	0x5e
 7793 24ba 22       		.byte	0x22
 7794 24bb 46       		.byte	0x46
 7795 24bc E5240000 		.4byte	0x24e5
 7796 24c0 28       		.uleb128 0x28
 7797 24c1 F61B0000 		.4byte	.LASF505
 7798 24c5 00       		.byte	0
 7799 24c6 28       		.uleb128 0x28
 7800 24c7 13210000 		.4byte	.LASF506
 7801 24cb 01       		.byte	0x1
 7802 24cc 28       		.uleb128 0x28
 7803 24cd 7D0F0000 		.4byte	.LASF507
 7804 24d1 02       		.byte	0x2
 7805 24d2 28       		.uleb128 0x28
 7806 24d3 3B160000 		.4byte	.LASF508
 7807 24d7 03       		.byte	0x3
 7808 24d8 28       		.uleb128 0x28
 7809 24d9 821B0000 		.4byte	.LASF509
 7810 24dd 04       		.byte	0x4
 7811 24de 28       		.uleb128 0x28
 7812 24df 5F100000 		.4byte	.LASF510
 7813 24e3 05       		.byte	0x5
 7814 24e4 00       		.byte	0
 7815 24e5 03       		.uleb128 0x3
 7816 24e6 5B190000 		.4byte	.LASF511
 7817 24ea 22       		.byte	0x22
 7818 24eb 4D       		.byte	0x4d
 7819 24ec B3240000 		.4byte	0x24b3
 7820 24f0 0C       		.uleb128 0xc
 7821 24f1 1C       		.byte	0x1c
 7822 24f2 23       		.byte	0x23
 7823 24f3 F9       		.byte	0xf9
 7824 24f4 53250000 		.4byte	0x2553
 7825 24f8 11       		.uleb128 0x11
 7826 24f9 64616300 		.ascii	"dac\000"
 7827 24fd 23       		.byte	0x23
 7828 24fe FD       		.byte	0xfd
 7829 24ff 53250000 		.4byte	0x2553
 7830 2503 00       		.byte	0
 7831 2504 18       		.uleb128 0x18
 7832 2505 A8180000 		.4byte	.LASF512
 7833 2509 23       		.byte	0x23
 7834 250a 0101     		.2byte	0x101
 7835 250c 1C090000 		.4byte	0x91c
 7836 2510 04       		.byte	0x4
 7837 2511 18       		.uleb128 0x18
 7838 2512 41070000 		.4byte	.LASF513
 7839 2516 23       		.byte	0x23
 7840 2517 0501     		.2byte	0x105
 7841 2519 1C090000 		.4byte	0x91c
ARM GAS  C:\Users\PCHAUT~1\AppData\Local\Temp\ccORgsmL.s 			page 139


 7842 251d 08       		.byte	0x8
 7843 251e 18       		.uleb128 0x18
 7844 251f 1B020000 		.4byte	.LASF514
 7845 2523 23       		.byte	0x23
 7846 2524 0901     		.2byte	0x109
 7847 2526 1C090000 		.4byte	0x91c
 7848 252a 0C       		.byte	0xc
 7849 252b 21       		.uleb128 0x21
 7850 252c 646D6100 		.ascii	"dma\000"
 7851 2530 23       		.byte	0x23
 7852 2531 0D01     		.2byte	0x10d
 7853 2533 5F230000 		.4byte	0x235f
 7854 2537 10       		.byte	0x10
 7855 2538 18       		.uleb128 0x18
 7856 2539 27180000 		.4byte	.LASF471
 7857 253d 23       		.byte	0x23
 7858 253e 1101     		.2byte	0x111
 7859 2540 1C090000 		.4byte	0x91c
 7860 2544 14       		.byte	0x14
 7861 2545 18       		.uleb128 0x18
 7862 2546 D6170000 		.4byte	.LASF515
 7863 254a 23       		.byte	0x23
 7864 254b 1501     		.2byte	0x115
 7865 254d 1C090000 		.4byte	0x91c
 7866 2551 18       		.byte	0x18
 7867 2552 00       		.byte	0
 7868 2553 05       		.uleb128 0x5
 7869 2554 04       		.byte	0x4
 7870 2555 9F110000 		.4byte	0x119f
 7871 2559 07       		.uleb128 0x7
 7872 255a 48030000 		.4byte	.LASF516
 7873 255e 23       		.byte	0x23
 7874 255f 1601     		.2byte	0x116
 7875 2561 F0240000 		.4byte	0x24f0
 7876 2565 0F       		.uleb128 0xf
 7877 2566 59250000 		.4byte	0x2559
 7878 256a 07       		.uleb128 0x7
 7879 256b C10D0000 		.4byte	.LASF517
 7880 256f 23       		.byte	0x23
 7881 2570 1B01     		.2byte	0x11b
 7882 2572 76250000 		.4byte	0x2576
 7883 2576 1B       		.uleb128 0x1b
 7884 2577 C10D0000 		.4byte	.LASF517
 7885 257b 30       		.byte	0x30
 7886 257c 23       		.byte	0x23
 7887 257d 7B01     		.2byte	0x17b
 7888 257f EC250000 		.4byte	0x25ec
 7889 2583 18       		.uleb128 0x18
 7890 2584 46160000 		.4byte	.LASF463
 7891 2588 23       		.byte	0x23
 7892 2589 7F01     		.2byte	0x17f
 7893 258b E5240000 		.4byte	0x24e5
 7894 258f 00       		.byte	0
 7895 2590 18       		.uleb128 0x18
 7896 2591 841E0000 		.4byte	.LASF467
 7897 2595 23       		.byte	0x23
 7898 2596 8301     		.2byte	0x183
ARM GAS  C:\Users\PCHAUT~1\AppData\Local\Temp\ccORgsmL.s 			page 140


 7899 2598 2A270000 		.4byte	0x272a
 7900 259c 04       		.byte	0x4
 7901 259d 18       		.uleb128 0x18
 7902 259e 08020000 		.4byte	.LASF465
 7903 25a2 23       		.byte	0x23
 7904 25a3 8701     		.2byte	0x187
 7905 25a5 51260000 		.4byte	0x2651
 7906 25a9 08       		.byte	0x8
 7907 25aa 18       		.uleb128 0x18
 7908 25ab F7180000 		.4byte	.LASF466
 7909 25af 23       		.byte	0x23
 7910 25b0 8B01     		.2byte	0x18b
 7911 25b2 01090000 		.4byte	0x901
 7912 25b6 0C       		.byte	0xc
 7913 25b7 18       		.uleb128 0x18
 7914 25b8 A71B0000 		.4byte	.LASF464
 7915 25bc 23       		.byte	0x23
 7916 25bd 8F01     		.2byte	0x18f
 7917 25bf 30270000 		.4byte	0x2730
 7918 25c3 10       		.byte	0x10
 7919 25c4 18       		.uleb128 0x18
 7920 25c5 3A070000 		.4byte	.LASF468
 7921 25c9 23       		.byte	0x23
 7922 25ca 9401     		.2byte	0x194
 7923 25cc F90A0000 		.4byte	0xaf9
 7924 25d0 14       		.byte	0x14
 7925 25d1 18       		.uleb128 0x18
 7926 25d2 B60D0000 		.4byte	.LASF469
 7927 25d6 23       		.byte	0x23
 7928 25d7 9A01     		.2byte	0x19a
 7929 25d9 601B0000 		.4byte	0x1b60
 7930 25dd 18       		.byte	0x18
 7931 25de 18       		.uleb128 0x18
 7932 25df 5E110000 		.4byte	.LASF518
 7933 25e3 23       		.byte	0x23
 7934 25e4 A301     		.2byte	0x1a3
 7935 25e6 36270000 		.4byte	0x2736
 7936 25ea 2C       		.byte	0x2c
 7937 25eb 00       		.byte	0
 7938 25ec 07       		.uleb128 0x7
 7939 25ed 74190000 		.4byte	.LASF519
 7940 25f1 23       		.byte	0x23
 7941 25f2 2001     		.2byte	0x120
 7942 25f4 01090000 		.4byte	0x901
 7943 25f8 0F       		.uleb128 0xf
 7944 25f9 EC250000 		.4byte	0x25ec
 7945 25fd 2A       		.uleb128 0x2a
 7946 25fe 07       		.byte	0x7
 7947 25ff 01       		.byte	0x1
 7948 2600 5E000000 		.4byte	0x5e
 7949 2604 23       		.byte	0x23
 7950 2605 2701     		.2byte	0x127
 7951 2607 18260000 		.4byte	0x2618
 7952 260b 28       		.uleb128 0x28
 7953 260c 0A1A0000 		.4byte	.LASF520
 7954 2610 00       		.byte	0
 7955 2611 28       		.uleb128 0x28
ARM GAS  C:\Users\PCHAUT~1\AppData\Local\Temp\ccORgsmL.s 			page 141


 7956 2612 7E0A0000 		.4byte	.LASF521
 7957 2616 01       		.byte	0x1
 7958 2617 00       		.byte	0
 7959 2618 07       		.uleb128 0x7
 7960 2619 A6110000 		.4byte	.LASF522
 7961 261d 23       		.byte	0x23
 7962 261e 2A01     		.2byte	0x12a
 7963 2620 FD250000 		.4byte	0x25fd
 7964 2624 07       		.uleb128 0x7
 7965 2625 AD070000 		.4byte	.LASF523
 7966 2629 23       		.byte	0x23
 7967 262a 3401     		.2byte	0x134
 7968 262c 30260000 		.4byte	0x2630
 7969 2630 05       		.uleb128 0x5
 7970 2631 04       		.byte	0x4
 7971 2632 36260000 		.4byte	0x2636
 7972 2636 1F       		.uleb128 0x1f
 7973 2637 4B260000 		.4byte	0x264b
 7974 263b 16       		.uleb128 0x16
 7975 263c 4B260000 		.4byte	0x264b
 7976 2640 16       		.uleb128 0x16
 7977 2641 51260000 		.4byte	0x2651
 7978 2645 16       		.uleb128 0x16
 7979 2646 2C000000 		.4byte	0x2c
 7980 264a 00       		.byte	0
 7981 264b 05       		.uleb128 0x5
 7982 264c 04       		.byte	0x4
 7983 264d 6A250000 		.4byte	0x256a
 7984 2651 05       		.uleb128 0x5
 7985 2652 04       		.byte	0x4
 7986 2653 F8250000 		.4byte	0x25f8
 7987 2657 07       		.uleb128 0x7
 7988 2658 20200000 		.4byte	.LASF524
 7989 265c 23       		.byte	0x23
 7990 265d 3F01     		.2byte	0x13f
 7991 265f 63260000 		.4byte	0x2663
 7992 2663 05       		.uleb128 0x5
 7993 2664 04       		.byte	0x4
 7994 2665 69260000 		.4byte	0x2669
 7995 2669 1F       		.uleb128 0x1f
 7996 266a 79260000 		.4byte	0x2679
 7997 266e 16       		.uleb128 0x16
 7998 266f 4B260000 		.4byte	0x264b
 7999 2673 16       		.uleb128 0x16
 8000 2674 18260000 		.4byte	0x2618
 8001 2678 00       		.byte	0
 8002 2679 2A       		.uleb128 0x2a
 8003 267a 07       		.byte	0x7
 8004 267b 01       		.byte	0x1
 8005 267c 5E000000 		.4byte	0x5e
 8006 2680 23       		.byte	0x23
 8007 2681 4401     		.2byte	0x144
 8008 2683 9A260000 		.4byte	0x269a
 8009 2687 28       		.uleb128 0x28
 8010 2688 501C0000 		.4byte	.LASF525
 8011 268c 00       		.byte	0
 8012 268d 28       		.uleb128 0x28
ARM GAS  C:\Users\PCHAUT~1\AppData\Local\Temp\ccORgsmL.s 			page 142


 8013 268e 38130000 		.4byte	.LASF526
 8014 2692 01       		.byte	0x1
 8015 2693 28       		.uleb128 0x28
 8016 2694 E6160000 		.4byte	.LASF527
 8017 2698 02       		.byte	0x2
 8018 2699 00       		.byte	0
 8019 269a 07       		.uleb128 0x7
 8020 269b E10B0000 		.4byte	.LASF528
 8021 269f 23       		.byte	0x23
 8022 26a0 4D01     		.2byte	0x14d
 8023 26a2 79260000 		.4byte	0x2679
 8024 26a6 1C       		.uleb128 0x1c
 8025 26a7 10       		.byte	0x10
 8026 26a8 23       		.byte	0x23
 8027 26a9 5201     		.2byte	0x152
 8028 26ab E4260000 		.4byte	0x26e4
 8029 26af 18       		.uleb128 0x18
 8030 26b0 FA100000 		.4byte	.LASF475
 8031 26b4 23       		.byte	0x23
 8032 26b5 5601     		.2byte	0x156
 8033 26b7 1C090000 		.4byte	0x91c
 8034 26bb 00       		.byte	0
 8035 26bc 18       		.uleb128 0x18
 8036 26bd AF0A0000 		.4byte	.LASF476
 8037 26c1 23       		.byte	0x23
 8038 26c2 5A01     		.2byte	0x15a
 8039 26c4 24260000 		.4byte	0x2624
 8040 26c8 04       		.byte	0x4
 8041 26c9 18       		.uleb128 0x18
 8042 26ca BD220000 		.4byte	.LASF477
 8043 26ce 23       		.byte	0x23
 8044 26cf 5E01     		.2byte	0x15e
 8045 26d1 57260000 		.4byte	0x2657
 8046 26d5 08       		.byte	0x8
 8047 26d6 18       		.uleb128 0x18
 8048 26d7 CD140000 		.4byte	.LASF529
 8049 26db 23       		.byte	0x23
 8050 26dc 6601     		.2byte	0x166
 8051 26de 1C090000 		.4byte	0x91c
 8052 26e2 0C       		.byte	0xc
 8053 26e3 00       		.byte	0
 8054 26e4 07       		.uleb128 0x7
 8055 26e5 65120000 		.4byte	.LASF530
 8056 26e9 23       		.byte	0x23
 8057 26ea 6701     		.2byte	0x167
 8058 26ec A6260000 		.4byte	0x26a6
 8059 26f0 0F       		.uleb128 0xf
 8060 26f1 E4260000 		.4byte	0x26e4
 8061 26f5 1C       		.uleb128 0x1c
 8062 26f6 04       		.byte	0x4
 8063 26f7 23       		.byte	0x23
 8064 26f8 6C01     		.2byte	0x16c
 8065 26fa 19270000 		.4byte	0x2719
 8066 26fe 18       		.uleb128 0x18
 8067 26ff 250C0000 		.4byte	.LASF531
 8068 2703 23       		.byte	0x23
 8069 2704 7101     		.2byte	0x171
ARM GAS  C:\Users\PCHAUT~1\AppData\Local\Temp\ccORgsmL.s 			page 143


 8070 2706 EC250000 		.4byte	0x25ec
 8071 270a 00       		.byte	0
 8072 270b 18       		.uleb128 0x18
 8073 270c 44010000 		.4byte	.LASF532
 8074 2710 23       		.byte	0x23
 8075 2711 7501     		.2byte	0x175
 8076 2713 9A260000 		.4byte	0x269a
 8077 2717 02       		.byte	0x2
 8078 2718 00       		.byte	0
 8079 2719 07       		.uleb128 0x7
 8080 271a CB0D0000 		.4byte	.LASF533
 8081 271e 23       		.byte	0x23
 8082 271f 7601     		.2byte	0x176
 8083 2721 F5260000 		.4byte	0x26f5
 8084 2725 0F       		.uleb128 0xf
 8085 2726 19270000 		.4byte	0x2719
 8086 272a 05       		.uleb128 0x5
 8087 272b 04       		.byte	0x4
 8088 272c F0260000 		.4byte	0x26f0
 8089 2730 05       		.uleb128 0x5
 8090 2731 04       		.byte	0x4
 8091 2732 25270000 		.4byte	0x2725
 8092 2736 05       		.uleb128 0x5
 8093 2737 04       		.byte	0x4
 8094 2738 65250000 		.4byte	0x2565
 8095 273c 20       		.uleb128 0x20
 8096 273d 02040000 		.4byte	.LASF534
 8097 2741 23       		.byte	0x23
 8098 2742 B301     		.2byte	0x1b3
 8099 2744 6A250000 		.4byte	0x256a
 8100 2748 27       		.uleb128 0x27
 8101 2749 07       		.byte	0x7
 8102 274a 01       		.byte	0x1
 8103 274b 5E000000 		.4byte	0x5e
 8104 274f 24       		.byte	0x24
 8105 2750 3F       		.byte	0x3f
 8106 2751 68270000 		.4byte	0x2768
 8107 2755 28       		.uleb128 0x28
 8108 2756 430B0000 		.4byte	.LASF535
 8109 275a 00       		.byte	0
 8110 275b 28       		.uleb128 0x28
 8111 275c 9A240000 		.4byte	.LASF536
 8112 2760 01       		.byte	0x1
 8113 2761 28       		.uleb128 0x28
 8114 2762 43020000 		.4byte	.LASF537
 8115 2766 02       		.byte	0x2
 8116 2767 00       		.byte	0
 8117 2768 03       		.uleb128 0x3
 8118 2769 151B0000 		.4byte	.LASF538
 8119 276d 24       		.byte	0x24
 8120 276e 43       		.byte	0x43
 8121 276f 48270000 		.4byte	0x2748
 8122 2773 03       		.uleb128 0x3
 8123 2774 D9080000 		.4byte	.LASF539
 8124 2778 24       		.byte	0x24
 8125 2779 48       		.byte	0x48
 8126 277a 7E270000 		.4byte	0x277e
ARM GAS  C:\Users\PCHAUT~1\AppData\Local\Temp\ccORgsmL.s 			page 144


 8127 277e 10       		.uleb128 0x10
 8128 277f D9080000 		.4byte	.LASF539
 8129 2783 08       		.byte	0x8
 8130 2784 25       		.byte	0x25
 8131 2785 71       		.byte	0x71
 8132 2786 A3270000 		.4byte	0x27a3
 8133 278a 0D       		.uleb128 0xd
 8134 278b 46160000 		.4byte	.LASF463
 8135 278f 25       		.byte	0x25
 8136 2790 75       		.byte	0x75
 8137 2791 68270000 		.4byte	0x2768
 8138 2795 00       		.byte	0
 8139 2796 0D       		.uleb128 0xd
 8140 2797 A71B0000 		.4byte	.LASF464
 8141 279b 25       		.byte	0x25
 8142 279c 79       		.byte	0x79
 8143 279d 35280000 		.4byte	0x2835
 8144 27a1 04       		.byte	0x4
 8145 27a2 00       		.byte	0
 8146 27a3 03       		.uleb128 0x3
 8147 27a4 F2220000 		.4byte	.LASF540
 8148 27a8 25       		.byte	0x25
 8149 27a9 47       		.byte	0x47
 8150 27aa 1C090000 		.4byte	0x91c
 8151 27ae 03       		.uleb128 0x3
 8152 27af 4A1E0000 		.4byte	.LASF541
 8153 27b3 25       		.byte	0x25
 8154 27b4 4F       		.byte	0x4f
 8155 27b5 B9270000 		.4byte	0x27b9
 8156 27b9 05       		.uleb128 0x5
 8157 27ba 04       		.byte	0x4
 8158 27bb BF270000 		.4byte	0x27bf
 8159 27bf 1F       		.uleb128 0x1f
 8160 27c0 CF270000 		.4byte	0x27cf
 8161 27c4 16       		.uleb128 0x16
 8162 27c5 CF270000 		.4byte	0x27cf
 8163 27c9 16       		.uleb128 0x16
 8164 27ca A3270000 		.4byte	0x27a3
 8165 27ce 00       		.byte	0
 8166 27cf 05       		.uleb128 0x5
 8167 27d0 04       		.byte	0x4
 8168 27d1 73270000 		.4byte	0x2773
 8169 27d5 0C       		.uleb128 0xc
 8170 27d6 08       		.byte	0x8
 8171 27d7 25       		.byte	0x25
 8172 27d8 54       		.byte	0x54
 8173 27d9 F5270000 		.4byte	0x27f5
 8174 27dd 0D       		.uleb128 0xd
 8175 27de BE080000 		.4byte	.LASF542
 8176 27e2 25       		.byte	0x25
 8177 27e3 58       		.byte	0x58
 8178 27e4 1C090000 		.4byte	0x91c
 8179 27e8 00       		.byte	0
 8180 27e9 11       		.uleb128 0x11
 8181 27ea 636200   		.ascii	"cb\000"
 8182 27ed 25       		.byte	0x25
 8183 27ee 5F       		.byte	0x5f
ARM GAS  C:\Users\PCHAUT~1\AppData\Local\Temp\ccORgsmL.s 			page 145


 8184 27ef AE270000 		.4byte	0x27ae
 8185 27f3 04       		.byte	0x4
 8186 27f4 00       		.byte	0
 8187 27f5 03       		.uleb128 0x3
 8188 27f6 640F0000 		.4byte	.LASF543
 8189 27fa 25       		.byte	0x25
 8190 27fb 60       		.byte	0x60
 8191 27fc D5270000 		.4byte	0x27d5
 8192 2800 0C       		.uleb128 0xc
 8193 2801 B8       		.byte	0xb8
 8194 2802 25       		.byte	0x25
 8195 2803 66       		.byte	0x66
 8196 2804 15280000 		.4byte	0x2815
 8197 2808 0D       		.uleb128 0xd
 8198 2809 40200000 		.4byte	.LASF544
 8199 280d 25       		.byte	0x25
 8200 280e 6A       		.byte	0x6a
 8201 280f 15280000 		.4byte	0x2815
 8202 2813 00       		.byte	0
 8203 2814 00       		.byte	0
 8204 2815 0A       		.uleb128 0xa
 8205 2816 F5270000 		.4byte	0x27f5
 8206 281a 25280000 		.4byte	0x2825
 8207 281e 0B       		.uleb128 0xb
 8208 281f 37000000 		.4byte	0x37
 8209 2823 16       		.byte	0x16
 8210 2824 00       		.byte	0
 8211 2825 03       		.uleb128 0x3
 8212 2826 471D0000 		.4byte	.LASF545
 8213 282a 25       		.byte	0x25
 8214 282b 6C       		.byte	0x6c
 8215 282c 00280000 		.4byte	0x2800
 8216 2830 0F       		.uleb128 0xf
 8217 2831 25280000 		.4byte	0x2825
 8218 2835 05       		.uleb128 0x5
 8219 2836 04       		.byte	0x4
 8220 2837 30280000 		.4byte	0x2830
 8221 283b 23       		.uleb128 0x23
 8222 283c 2A060000 		.4byte	.LASF546
 8223 2840 25       		.byte	0x25
 8224 2841 86       		.byte	0x86
 8225 2842 73270000 		.4byte	0x2773
 8226 2846 27       		.uleb128 0x27
 8227 2847 07       		.byte	0x7
 8228 2848 01       		.byte	0x1
 8229 2849 5E000000 		.4byte	0x5e
 8230 284d 26       		.byte	0x26
 8231 284e 31       		.byte	0x31
 8232 284f 72280000 		.4byte	0x2872
 8233 2853 28       		.uleb128 0x28
 8234 2854 FA160000 		.4byte	.LASF547
 8235 2858 00       		.byte	0
 8236 2859 28       		.uleb128 0x28
 8237 285a F5140000 		.4byte	.LASF548
 8238 285e 01       		.byte	0x1
 8239 285f 28       		.uleb128 0x28
 8240 2860 51190000 		.4byte	.LASF549
ARM GAS  C:\Users\PCHAUT~1\AppData\Local\Temp\ccORgsmL.s 			page 146


 8241 2864 02       		.byte	0x2
 8242 2865 28       		.uleb128 0x28
 8243 2866 F1070000 		.4byte	.LASF550
 8244 286a 03       		.byte	0x3
 8245 286b 28       		.uleb128 0x28
 8246 286c C8040000 		.4byte	.LASF551
 8247 2870 04       		.byte	0x4
 8248 2871 00       		.byte	0
 8249 2872 03       		.uleb128 0x3
 8250 2873 B6130000 		.4byte	.LASF552
 8251 2877 26       		.byte	0x26
 8252 2878 37       		.byte	0x37
 8253 2879 46280000 		.4byte	0x2846
 8254 287d 03       		.uleb128 0x3
 8255 287e E1170000 		.4byte	.LASF553
 8256 2882 26       		.byte	0x26
 8257 2883 3C       		.byte	0x3c
 8258 2884 88280000 		.4byte	0x2888
 8259 2888 1B       		.uleb128 0x1b
 8260 2889 E1170000 		.4byte	.LASF553
 8261 288d 10       		.byte	0x10
 8262 288e 27       		.byte	0x27
 8263 288f 9701     		.2byte	0x197
 8264 2891 CA280000 		.4byte	0x28ca
 8265 2895 18       		.uleb128 0x18
 8266 2896 46160000 		.4byte	.LASF463
 8267 289a 27       		.byte	0x27
 8268 289b 9B01     		.2byte	0x19b
 8269 289d 72280000 		.4byte	0x2872
 8270 28a1 00       		.byte	0
 8271 28a2 18       		.uleb128 0x18
 8272 28a3 A71B0000 		.4byte	.LASF464
 8273 28a7 27       		.byte	0x27
 8274 28a8 9F01     		.2byte	0x19f
 8275 28aa 5F2A0000 		.4byte	0x2a5f
 8276 28ae 04       		.byte	0x4
 8277 28af 18       		.uleb128 0x18
 8278 28b0 DF0D0000 		.4byte	.LASF554
 8279 28b4 27       		.byte	0x27
 8280 28b5 A701     		.2byte	0x1a7
 8281 28b7 1C090000 		.4byte	0x91c
 8282 28bb 08       		.byte	0x8
 8283 28bc 21       		.uleb128 0x21
 8284 28bd 74696D00 		.ascii	"tim\000"
 8285 28c1 27       		.byte	0x27
 8286 28c2 AB01     		.2byte	0x1ab
 8287 28c4 652A0000 		.4byte	0x2a65
 8288 28c8 0C       		.byte	0xc
 8289 28c9 00       		.byte	0
 8290 28ca 03       		.uleb128 0x3
 8291 28cb C8110000 		.4byte	.LASF555
 8292 28cf 26       		.byte	0x26
 8293 28d0 43       		.byte	0x43
 8294 28d1 D5280000 		.4byte	0x28d5
 8295 28d5 05       		.uleb128 0x5
 8296 28d6 04       		.byte	0x4
 8297 28d7 DB280000 		.4byte	0x28db
ARM GAS  C:\Users\PCHAUT~1\AppData\Local\Temp\ccORgsmL.s 			page 147


 8298 28db 1F       		.uleb128 0x1f
 8299 28dc E6280000 		.4byte	0x28e6
 8300 28e0 16       		.uleb128 0x16
 8301 28e1 E6280000 		.4byte	0x28e6
 8302 28e5 00       		.byte	0
 8303 28e6 05       		.uleb128 0x5
 8304 28e7 04       		.byte	0x4
 8305 28e8 7D280000 		.4byte	0x287d
 8306 28ec 1C       		.uleb128 0x1c
 8307 28ed 60       		.byte	0x60
 8308 28ee 28       		.byte	0x28
 8309 28ef 9E01     		.2byte	0x19e
 8310 28f1 F8290000 		.4byte	0x29f8
 8311 28f5 21       		.uleb128 0x21
 8312 28f6 43523100 		.ascii	"CR1\000"
 8313 28fa 28       		.byte	0x28
 8314 28fb 9F01     		.2byte	0x19f
 8315 28fd 27090000 		.4byte	0x927
 8316 2901 00       		.byte	0
 8317 2902 21       		.uleb128 0x21
 8318 2903 43523200 		.ascii	"CR2\000"
 8319 2907 28       		.byte	0x28
 8320 2908 A001     		.2byte	0x1a0
 8321 290a 27090000 		.4byte	0x927
 8322 290e 04       		.byte	0x4
 8323 290f 18       		.uleb128 0x18
 8324 2910 771F0000 		.4byte	.LASF556
 8325 2914 28       		.byte	0x28
 8326 2915 A101     		.2byte	0x1a1
 8327 2917 27090000 		.4byte	0x927
 8328 291b 08       		.byte	0x8
 8329 291c 18       		.uleb128 0x18
 8330 291d 8A0B0000 		.4byte	.LASF557
 8331 2921 28       		.byte	0x28
 8332 2922 A201     		.2byte	0x1a2
 8333 2924 27090000 		.4byte	0x927
 8334 2928 0C       		.byte	0xc
 8335 2929 21       		.uleb128 0x21
 8336 292a 535200   		.ascii	"SR\000"
 8337 292d 28       		.byte	0x28
 8338 292e A301     		.2byte	0x1a3
 8339 2930 27090000 		.4byte	0x927
 8340 2934 10       		.byte	0x10
 8341 2935 21       		.uleb128 0x21
 8342 2936 45475200 		.ascii	"EGR\000"
 8343 293a 28       		.byte	0x28
 8344 293b A401     		.2byte	0x1a4
 8345 293d 27090000 		.4byte	0x927
 8346 2941 14       		.byte	0x14
 8347 2942 18       		.uleb128 0x18
 8348 2943 6E230000 		.4byte	.LASF558
 8349 2947 28       		.byte	0x28
 8350 2948 A501     		.2byte	0x1a5
 8351 294a 27090000 		.4byte	0x927
 8352 294e 18       		.byte	0x18
 8353 294f 18       		.uleb128 0x18
 8354 2950 74230000 		.4byte	.LASF559
ARM GAS  C:\Users\PCHAUT~1\AppData\Local\Temp\ccORgsmL.s 			page 148


 8355 2954 28       		.byte	0x28
 8356 2955 A601     		.2byte	0x1a6
 8357 2957 27090000 		.4byte	0x927
 8358 295b 1C       		.byte	0x1c
 8359 295c 18       		.uleb128 0x18
 8360 295d 8A070000 		.4byte	.LASF560
 8361 2961 28       		.byte	0x28
 8362 2962 A701     		.2byte	0x1a7
 8363 2964 27090000 		.4byte	0x927
 8364 2968 20       		.byte	0x20
 8365 2969 21       		.uleb128 0x21
 8366 296a 434E5400 		.ascii	"CNT\000"
 8367 296e 28       		.byte	0x28
 8368 296f A801     		.2byte	0x1a8
 8369 2971 27090000 		.4byte	0x927
 8370 2975 24       		.byte	0x24
 8371 2976 21       		.uleb128 0x21
 8372 2977 50534300 		.ascii	"PSC\000"
 8373 297b 28       		.byte	0x28
 8374 297c A901     		.2byte	0x1a9
 8375 297e 27090000 		.4byte	0x927
 8376 2982 28       		.byte	0x28
 8377 2983 21       		.uleb128 0x21
 8378 2984 41525200 		.ascii	"ARR\000"
 8379 2988 28       		.byte	0x28
 8380 2989 AA01     		.2byte	0x1aa
 8381 298b 27090000 		.4byte	0x927
 8382 298f 2C       		.byte	0x2c
 8383 2990 21       		.uleb128 0x21
 8384 2991 52435200 		.ascii	"RCR\000"
 8385 2995 28       		.byte	0x28
 8386 2996 AB01     		.2byte	0x1ab
 8387 2998 27090000 		.4byte	0x927
 8388 299c 30       		.byte	0x30
 8389 299d 21       		.uleb128 0x21
 8390 299e 43435200 		.ascii	"CCR\000"
 8391 29a2 28       		.byte	0x28
 8392 29a3 AC01     		.2byte	0x1ac
 8393 29a5 33120000 		.4byte	0x1233
 8394 29a9 34       		.byte	0x34
 8395 29aa 18       		.uleb128 0x18
 8396 29ab 16020000 		.4byte	.LASF561
 8397 29af 28       		.byte	0x28
 8398 29b0 AD01     		.2byte	0x1ad
 8399 29b2 27090000 		.4byte	0x927
 8400 29b6 44       		.byte	0x44
 8401 29b7 21       		.uleb128 0x21
 8402 29b8 44435200 		.ascii	"DCR\000"
 8403 29bc 28       		.byte	0x28
 8404 29bd AE01     		.2byte	0x1ae
 8405 29bf 27090000 		.4byte	0x927
 8406 29c3 48       		.byte	0x48
 8407 29c4 18       		.uleb128 0x18
 8408 29c5 8E160000 		.4byte	.LASF562
 8409 29c9 28       		.byte	0x28
 8410 29ca AF01     		.2byte	0x1af
 8411 29cc 27090000 		.4byte	0x927
ARM GAS  C:\Users\PCHAUT~1\AppData\Local\Temp\ccORgsmL.s 			page 149


 8412 29d0 4C       		.byte	0x4c
 8413 29d1 21       		.uleb128 0x21
 8414 29d2 4F5200   		.ascii	"OR\000"
 8415 29d5 28       		.byte	0x28
 8416 29d6 B001     		.2byte	0x1b0
 8417 29d8 27090000 		.4byte	0x927
 8418 29dc 50       		.byte	0x50
 8419 29dd 18       		.uleb128 0x18
 8420 29de 7A230000 		.4byte	.LASF563
 8421 29e2 28       		.byte	0x28
 8422 29e3 B101     		.2byte	0x1b1
 8423 29e5 27090000 		.4byte	0x927
 8424 29e9 54       		.byte	0x54
 8425 29ea 18       		.uleb128 0x18
 8426 29eb EB0D0000 		.4byte	.LASF564
 8427 29ef 28       		.byte	0x28
 8428 29f0 B201     		.2byte	0x1b2
 8429 29f2 1E120000 		.4byte	0x121e
 8430 29f6 58       		.byte	0x58
 8431 29f7 00       		.byte	0
 8432 29f8 07       		.uleb128 0x7
 8433 29f9 AA1E0000 		.4byte	.LASF565
 8434 29fd 28       		.byte	0x28
 8435 29fe B301     		.2byte	0x1b3
 8436 2a00 EC280000 		.4byte	0x28ec
 8437 2a04 07       		.uleb128 0x7
 8438 2a05 0D090000 		.4byte	.LASF566
 8439 2a09 27       		.byte	0x27
 8440 2a0a 6D01     		.2byte	0x16d
 8441 2a0c 1C090000 		.4byte	0x91c
 8442 2a10 1C       		.uleb128 0x1c
 8443 2a11 10       		.byte	0x10
 8444 2a12 27       		.byte	0x27
 8445 2a13 7801     		.2byte	0x178
 8446 2a15 4E2A0000 		.4byte	0x2a4e
 8447 2a19 18       		.uleb128 0x18
 8448 2a1a 10230000 		.4byte	.LASF567
 8449 2a1e 27       		.byte	0x27
 8450 2a1f 7E01     		.2byte	0x17e
 8451 2a21 042A0000 		.4byte	0x2a04
 8452 2a25 00       		.byte	0
 8453 2a26 18       		.uleb128 0x18
 8454 2a27 93160000 		.4byte	.LASF568
 8455 2a2b 27       		.byte	0x27
 8456 2a2c 8501     		.2byte	0x185
 8457 2a2e CA280000 		.4byte	0x28ca
 8458 2a32 04       		.byte	0x4
 8459 2a33 21       		.uleb128 0x21
 8460 2a34 63723200 		.ascii	"cr2\000"
 8461 2a38 27       		.byte	0x27
 8462 2a39 8B01     		.2byte	0x18b
 8463 2a3b 1C090000 		.4byte	0x91c
 8464 2a3f 08       		.byte	0x8
 8465 2a40 18       		.uleb128 0x18
 8466 2a41 600D0000 		.4byte	.LASF569
 8467 2a45 27       		.byte	0x27
 8468 2a46 9101     		.2byte	0x191
ARM GAS  C:\Users\PCHAUT~1\AppData\Local\Temp\ccORgsmL.s 			page 150


 8469 2a48 1C090000 		.4byte	0x91c
 8470 2a4c 0C       		.byte	0xc
 8471 2a4d 00       		.byte	0
 8472 2a4e 07       		.uleb128 0x7
 8473 2a4f DB060000 		.4byte	.LASF570
 8474 2a53 27       		.byte	0x27
 8475 2a54 9201     		.2byte	0x192
 8476 2a56 102A0000 		.4byte	0x2a10
 8477 2a5a 0F       		.uleb128 0xf
 8478 2a5b 4E2A0000 		.4byte	0x2a4e
 8479 2a5f 05       		.uleb128 0x5
 8480 2a60 04       		.byte	0x4
 8481 2a61 5A2A0000 		.4byte	0x2a5a
 8482 2a65 05       		.uleb128 0x5
 8483 2a66 04       		.byte	0x4
 8484 2a67 F8290000 		.4byte	0x29f8
 8485 2a6b 20       		.uleb128 0x20
 8486 2a6c B7220000 		.4byte	.LASF571
 8487 2a70 27       		.byte	0x27
 8488 2a71 F201     		.2byte	0x1f2
 8489 2a73 7D280000 		.4byte	0x287d
 8490 2a77 20       		.uleb128 0x20
 8491 2a78 AE1B0000 		.4byte	.LASF572
 8492 2a7c 27       		.byte	0x27
 8493 2a7d 0202     		.2byte	0x202
 8494 2a7f 7D280000 		.4byte	0x287d
 8495 2a83 27       		.uleb128 0x27
 8496 2a84 07       		.byte	0x7
 8497 2a85 01       		.byte	0x1
 8498 2a86 5E000000 		.4byte	0x5e
 8499 2a8a 29       		.byte	0x29
 8500 2a8b 4C       		.byte	0x4c
 8501 2a8c B52A0000 		.4byte	0x2ab5
 8502 2a90 28       		.uleb128 0x28
 8503 2a91 B3060000 		.4byte	.LASF573
 8504 2a95 00       		.byte	0
 8505 2a96 28       		.uleb128 0x28
 8506 2a97 1B0F0000 		.4byte	.LASF574
 8507 2a9b 01       		.byte	0x1
 8508 2a9c 28       		.uleb128 0x28
 8509 2a9d 6C070000 		.4byte	.LASF575
 8510 2aa1 02       		.byte	0x2
 8511 2aa2 28       		.uleb128 0x28
 8512 2aa3 F7040000 		.4byte	.LASF576
 8513 2aa7 03       		.byte	0x3
 8514 2aa8 28       		.uleb128 0x28
 8515 2aa9 86030000 		.4byte	.LASF577
 8516 2aad 04       		.byte	0x4
 8517 2aae 28       		.uleb128 0x28
 8518 2aaf 71130000 		.4byte	.LASF578
 8519 2ab3 05       		.byte	0x5
 8520 2ab4 00       		.byte	0
 8521 2ab5 03       		.uleb128 0x3
 8522 2ab6 85110000 		.4byte	.LASF579
 8523 2aba 29       		.byte	0x29
 8524 2abb 53       		.byte	0x53
 8525 2abc 832A0000 		.4byte	0x2a83
ARM GAS  C:\Users\PCHAUT~1\AppData\Local\Temp\ccORgsmL.s 			page 151


 8526 2ac0 07       		.uleb128 0x7
 8527 2ac1 BE170000 		.4byte	.LASF580
 8528 2ac5 2A       		.byte	0x2a
 8529 2ac6 6A01     		.2byte	0x16a
 8530 2ac8 01090000 		.4byte	0x901
 8531 2acc 07       		.uleb128 0x7
 8532 2acd 24040000 		.4byte	.LASF581
 8533 2ad1 2A       		.byte	0x2a
 8534 2ad2 6F01     		.2byte	0x16f
 8535 2ad4 1C090000 		.4byte	0x91c
 8536 2ad8 2A       		.uleb128 0x2a
 8537 2ad9 07       		.byte	0x7
 8538 2ada 01       		.byte	0x1
 8539 2adb 5E000000 		.4byte	0x5e
 8540 2adf 2A       		.byte	0x2a
 8541 2ae0 7401     		.2byte	0x174
 8542 2ae2 F92A0000 		.4byte	0x2af9
 8543 2ae6 28       		.uleb128 0x28
 8544 2ae7 0A050000 		.4byte	.LASF582
 8545 2aeb 01       		.byte	0x1
 8546 2aec 28       		.uleb128 0x28
 8547 2aed 59000000 		.4byte	.LASF583
 8548 2af1 02       		.byte	0x2
 8549 2af2 28       		.uleb128 0x28
 8550 2af3 090B0000 		.4byte	.LASF584
 8551 2af7 03       		.byte	0x3
 8552 2af8 00       		.byte	0
 8553 2af9 07       		.uleb128 0x7
 8554 2afa CE230000 		.4byte	.LASF585
 8555 2afe 2A       		.byte	0x2a
 8556 2aff 7801     		.2byte	0x178
 8557 2b01 D82A0000 		.4byte	0x2ad8
 8558 2b05 2A       		.uleb128 0x2a
 8559 2b06 07       		.byte	0x7
 8560 2b07 01       		.byte	0x1
 8561 2b08 5E000000 		.4byte	0x5e
 8562 2b0c 2A       		.byte	0x2a
 8563 2b0d 7D01     		.2byte	0x17d
 8564 2b0f 262B0000 		.4byte	0x2b26
 8565 2b13 28       		.uleb128 0x28
 8566 2b14 E7050000 		.4byte	.LASF586
 8567 2b18 01       		.byte	0x1
 8568 2b19 28       		.uleb128 0x28
 8569 2b1a 43230000 		.4byte	.LASF587
 8570 2b1e 02       		.byte	0x2
 8571 2b1f 28       		.uleb128 0x28
 8572 2b20 F50B0000 		.4byte	.LASF588
 8573 2b24 03       		.byte	0x3
 8574 2b25 00       		.byte	0
 8575 2b26 07       		.uleb128 0x7
 8576 2b27 22070000 		.4byte	.LASF589
 8577 2b2b 2A       		.byte	0x2a
 8578 2b2c 8101     		.2byte	0x181
 8579 2b2e 052B0000 		.4byte	0x2b05
 8580 2b32 1C       		.uleb128 0x1c
 8581 2b33 0C       		.byte	0xc
 8582 2b34 2A       		.byte	0x2a
ARM GAS  C:\Users\PCHAUT~1\AppData\Local\Temp\ccORgsmL.s 			page 152


 8583 2b35 8601     		.2byte	0x186
 8584 2b37 632B0000 		.4byte	0x2b63
 8585 2b3b 18       		.uleb128 0x18
 8586 2b3c 25150000 		.4byte	.LASF590
 8587 2b40 2A       		.byte	0x2a
 8588 2b41 8801     		.2byte	0x188
 8589 2b43 F92A0000 		.4byte	0x2af9
 8590 2b47 00       		.byte	0
 8591 2b48 18       		.uleb128 0x18
 8592 2b49 EC030000 		.4byte	.LASF591
 8593 2b4d 2A       		.byte	0x2a
 8594 2b4e 8901     		.2byte	0x189
 8595 2b50 1C090000 		.4byte	0x91c
 8596 2b54 04       		.byte	0x4
 8597 2b55 18       		.uleb128 0x18
 8598 2b56 5A240000 		.4byte	.LASF592
 8599 2b5a 2A       		.byte	0x2a
 8600 2b5b 8C01     		.2byte	0x18c
 8601 2b5d 262B0000 		.4byte	0x2b26
 8602 2b61 08       		.byte	0x8
 8603 2b62 00       		.byte	0
 8604 2b63 07       		.uleb128 0x7
 8605 2b64 23020000 		.4byte	.LASF593
 8606 2b68 2A       		.byte	0x2a
 8607 2b69 8E01     		.2byte	0x18e
 8608 2b6b 322B0000 		.4byte	0x2b32
 8609 2b6f 0F       		.uleb128 0xf
 8610 2b70 632B0000 		.4byte	0x2b63
 8611 2b74 07       		.uleb128 0x7
 8612 2b75 ED040000 		.4byte	.LASF594
 8613 2b79 2A       		.byte	0x2a
 8614 2b7a 9301     		.2byte	0x193
 8615 2b7c 802B0000 		.4byte	0x2b80
 8616 2b80 1B       		.uleb128 0x1b
 8617 2b81 ED040000 		.4byte	.LASF594
 8618 2b85 3C       		.byte	0x3c
 8619 2b86 2A       		.byte	0x2a
 8620 2b87 9801     		.2byte	0x198
 8621 2b89 1D2C0000 		.4byte	0x2c1d
 8622 2b8d 18       		.uleb128 0x18
 8623 2b8e 46160000 		.4byte	.LASF463
 8624 2b92 2A       		.byte	0x2a
 8625 2b93 9C01     		.2byte	0x19c
 8626 2b95 B52A0000 		.4byte	0x2ab5
 8627 2b99 00       		.byte	0
 8628 2b9a 18       		.uleb128 0x18
 8629 2b9b A71B0000 		.4byte	.LASF464
 8630 2b9f 2A       		.byte	0x2a
 8631 2ba0 A001     		.2byte	0x1a0
 8632 2ba2 1D2C0000 		.4byte	0x2c1d
 8633 2ba6 04       		.byte	0x4
 8634 2ba7 18       		.uleb128 0x18
 8635 2ba8 8C010000 		.4byte	.LASF595
 8636 2bac 2A       		.byte	0x2a
 8637 2bad A401     		.2byte	0x1a4
 8638 2baf CC2A0000 		.4byte	0x2acc
 8639 2bb3 08       		.byte	0x8
ARM GAS  C:\Users\PCHAUT~1\AppData\Local\Temp\ccORgsmL.s 			page 153


 8640 2bb4 18       		.uleb128 0x18
 8641 2bb5 B60D0000 		.4byte	.LASF469
 8642 2bb9 2A       		.byte	0x2a
 8643 2bba A901     		.2byte	0x1a9
 8644 2bbc 601B0000 		.4byte	0x1b60
 8645 2bc0 0C       		.byte	0xc
 8646 2bc1 18       		.uleb128 0x18
 8647 2bc2 3A070000 		.4byte	.LASF468
 8648 2bc6 2A       		.byte	0x2a
 8649 2bc7 B201     		.2byte	0x1b2
 8650 2bc9 F90A0000 		.4byte	0xaf9
 8651 2bcd 20       		.byte	0x20
 8652 2bce 18       		.uleb128 0x18
 8653 2bcf 240F0000 		.4byte	.LASF596
 8654 2bd3 2A       		.byte	0x2a
 8655 2bd4 B601     		.2byte	0x1b6
 8656 2bd6 C02A0000 		.4byte	0x2ac0
 8657 2bda 24       		.byte	0x24
 8658 2bdb 18       		.uleb128 0x18
 8659 2bdc AA080000 		.4byte	.LASF597
 8660 2be0 2A       		.byte	0x2a
 8661 2be1 BA01     		.2byte	0x1ba
 8662 2be3 1C090000 		.4byte	0x91c
 8663 2be7 28       		.byte	0x28
 8664 2be8 18       		.uleb128 0x18
 8665 2be9 03090000 		.4byte	.LASF598
 8666 2bed 2A       		.byte	0x2a
 8667 2bee BE01     		.2byte	0x1be
 8668 2bf0 1C090000 		.4byte	0x91c
 8669 2bf4 2C       		.byte	0x2c
 8670 2bf5 18       		.uleb128 0x18
 8671 2bf6 4D010000 		.4byte	.LASF599
 8672 2bfa 2A       		.byte	0x2a
 8673 2bfb C201     		.2byte	0x1c2
 8674 2bfd 5F230000 		.4byte	0x235f
 8675 2c01 30       		.byte	0x30
 8676 2c02 18       		.uleb128 0x18
 8677 2c03 36020000 		.4byte	.LASF600
 8678 2c07 2A       		.byte	0x2a
 8679 2c08 C601     		.2byte	0x1c6
 8680 2c0a 5F230000 		.4byte	0x235f
 8681 2c0e 34       		.byte	0x34
 8682 2c0f 21       		.uleb128 0x21
 8683 2c10 69326300 		.ascii	"i2c\000"
 8684 2c14 2A       		.byte	0x2a
 8685 2c15 CA01     		.2byte	0x1ca
 8686 2c17 232C0000 		.4byte	0x2c23
 8687 2c1b 38       		.byte	0x38
 8688 2c1c 00       		.byte	0
 8689 2c1d 05       		.uleb128 0x5
 8690 2c1e 04       		.byte	0x4
 8691 2c1f 6F2B0000 		.4byte	0x2b6f
 8692 2c23 05       		.uleb128 0x5
 8693 2c24 04       		.byte	0x4
 8694 2c25 C3120000 		.4byte	0x12c3
 8695 2c29 20       		.uleb128 0x20
 8696 2c2a EF110000 		.4byte	.LASF601
ARM GAS  C:\Users\PCHAUT~1\AppData\Local\Temp\ccORgsmL.s 			page 154


 8697 2c2e 2A       		.byte	0x2a
 8698 2c2f E001     		.2byte	0x1e0
 8699 2c31 742B0000 		.4byte	0x2b74
 8700 2c35 27       		.uleb128 0x27
 8701 2c36 07       		.byte	0x7
 8702 2c37 01       		.byte	0x1
 8703 2c38 5E000000 		.4byte	0x5e
 8704 2c3c 2B       		.byte	0x2b
 8705 2c3d 39       		.byte	0x39
 8706 2c3e 612C0000 		.4byte	0x2c61
 8707 2c42 28       		.uleb128 0x28
 8708 2c43 9D100000 		.4byte	.LASF602
 8709 2c47 00       		.byte	0
 8710 2c48 28       		.uleb128 0x28
 8711 2c49 9C0D0000 		.4byte	.LASF603
 8712 2c4d 01       		.byte	0x1
 8713 2c4e 28       		.uleb128 0x28
 8714 2c4f 4F150000 		.4byte	.LASF604
 8715 2c53 02       		.byte	0x2
 8716 2c54 28       		.uleb128 0x28
 8717 2c55 31190000 		.4byte	.LASF605
 8718 2c59 03       		.byte	0x3
 8719 2c5a 28       		.uleb128 0x28
 8720 2c5b D51D0000 		.4byte	.LASF606
 8721 2c5f 04       		.byte	0x4
 8722 2c60 00       		.byte	0
 8723 2c61 03       		.uleb128 0x3
 8724 2c62 E5200000 		.4byte	.LASF607
 8725 2c66 2B       		.byte	0x2b
 8726 2c67 3F       		.byte	0x3f
 8727 2c68 352C0000 		.4byte	0x2c35
 8728 2c6c 03       		.uleb128 0x3
 8729 2c6d 40240000 		.4byte	.LASF608
 8730 2c71 2C       		.byte	0x2c
 8731 2c72 E2       		.byte	0xe2
 8732 2c73 772C0000 		.4byte	0x2c77
 8733 2c77 1B       		.uleb128 0x1b
 8734 2c78 40240000 		.4byte	.LASF608
 8735 2c7c 20       		.byte	0x20
 8736 2c7d 2C       		.byte	0x2c
 8737 2c7e 1B01     		.2byte	0x11b
 8738 2c80 ED2C0000 		.4byte	0x2ced
 8739 2c84 18       		.uleb128 0x18
 8740 2c85 46160000 		.4byte	.LASF463
 8741 2c89 2C       		.byte	0x2c
 8742 2c8a 1F01     		.2byte	0x11f
 8743 2c8c 612C0000 		.4byte	0x2c61
 8744 2c90 00       		.byte	0
 8745 2c91 18       		.uleb128 0x18
 8746 2c92 A71B0000 		.4byte	.LASF464
 8747 2c96 2C       		.byte	0x2c
 8748 2c97 2301     		.2byte	0x123
 8749 2c99 852D0000 		.4byte	0x2d85
 8750 2c9d 04       		.byte	0x4
 8751 2c9e 21       		.uleb128 0x21
 8752 2c9f 73706900 		.ascii	"spi\000"
 8753 2ca3 2C       		.byte	0x2c
ARM GAS  C:\Users\PCHAUT~1\AppData\Local\Temp\ccORgsmL.s 			page 155


 8754 2ca4 2801     		.2byte	0x128
 8755 2ca6 8B2D0000 		.4byte	0x2d8b
 8756 2caa 08       		.byte	0x8
 8757 2cab 21       		.uleb128 0x21
 8758 2cac 63666700 		.ascii	"cfg\000"
 8759 2cb0 2C       		.byte	0x2c
 8760 2cb1 2C01     		.2byte	0x12c
 8761 2cb3 01090000 		.4byte	0x901
 8762 2cb7 0C       		.byte	0xc
 8763 2cb8 18       		.uleb128 0x18
 8764 2cb9 4D010000 		.4byte	.LASF599
 8765 2cbd 2C       		.byte	0x2c
 8766 2cbe 3001     		.2byte	0x130
 8767 2cc0 5F230000 		.4byte	0x235f
 8768 2cc4 10       		.byte	0x10
 8769 2cc5 18       		.uleb128 0x18
 8770 2cc6 36020000 		.4byte	.LASF600
 8771 2cca 2C       		.byte	0x2c
 8772 2ccb 3401     		.2byte	0x134
 8773 2ccd 5F230000 		.4byte	0x235f
 8774 2cd1 14       		.byte	0x14
 8775 2cd2 18       		.uleb128 0x18
 8776 2cd3 AA080000 		.4byte	.LASF597
 8777 2cd7 2C       		.byte	0x2c
 8778 2cd8 3801     		.2byte	0x138
 8779 2cda 1C090000 		.4byte	0x91c
 8780 2cde 18       		.byte	0x18
 8781 2cdf 18       		.uleb128 0x18
 8782 2ce0 03090000 		.4byte	.LASF598
 8783 2ce4 2C       		.byte	0x2c
 8784 2ce5 3C01     		.2byte	0x13c
 8785 2ce7 1C090000 		.4byte	0x91c
 8786 2ceb 1C       		.byte	0x1c
 8787 2cec 00       		.byte	0
 8788 2ced 03       		.uleb128 0x3
 8789 2cee EF080000 		.4byte	.LASF609
 8790 2cf2 2C       		.byte	0x2c
 8791 2cf3 EB       		.byte	0xeb
 8792 2cf4 F82C0000 		.4byte	0x2cf8
 8793 2cf8 05       		.uleb128 0x5
 8794 2cf9 04       		.byte	0x4
 8795 2cfa FE2C0000 		.4byte	0x2cfe
 8796 2cfe 1F       		.uleb128 0x1f
 8797 2cff 132D0000 		.4byte	0x2d13
 8798 2d03 16       		.uleb128 0x16
 8799 2d04 132D0000 		.4byte	0x2d13
 8800 2d08 16       		.uleb128 0x16
 8801 2d09 2C000000 		.4byte	0x2c
 8802 2d0d 16       		.uleb128 0x16
 8803 2d0e 2C000000 		.4byte	0x2c
 8804 2d12 00       		.byte	0
 8805 2d13 05       		.uleb128 0x5
 8806 2d14 04       		.byte	0x4
 8807 2d15 6C2C0000 		.4byte	0x2c6c
 8808 2d19 0C       		.uleb128 0xc
 8809 2d1a 14       		.byte	0x14
 8810 2d1b 2C       		.byte	0x2c
ARM GAS  C:\Users\PCHAUT~1\AppData\Local\Temp\ccORgsmL.s 			page 156


 8811 2d1c F1       		.byte	0xf1
 8812 2d1d 6D2D0000 		.4byte	0x2d6d
 8813 2d21 0D       		.uleb128 0xd
 8814 2d22 C3010000 		.4byte	.LASF610
 8815 2d26 2C       		.byte	0x2c
 8816 2d27 F6       		.byte	0xf6
 8817 2d28 6D2D0000 		.4byte	0x2d6d
 8818 2d2c 00       		.byte	0
 8819 2d2d 0D       		.uleb128 0xd
 8820 2d2e 82010000 		.4byte	.LASF611
 8821 2d32 2C       		.byte	0x2c
 8822 2d33 FB       		.byte	0xfb
 8823 2d34 5D010000 		.4byte	0x15d
 8824 2d38 04       		.byte	0x4
 8825 2d39 0D       		.uleb128 0xd
 8826 2d3a BC0D0000 		.4byte	.LASF612
 8827 2d3e 2C       		.byte	0x2c
 8828 2d3f FF       		.byte	0xff
 8829 2d40 2C000000 		.4byte	0x2c
 8830 2d44 08       		.byte	0x8
 8831 2d45 18       		.uleb128 0x18
 8832 2d46 AF0A0000 		.4byte	.LASF476
 8833 2d4a 2C       		.byte	0x2c
 8834 2d4b 0301     		.2byte	0x103
 8835 2d4d ED2C0000 		.4byte	0x2ced
 8836 2d51 0C       		.byte	0xc
 8837 2d52 18       		.uleb128 0x18
 8838 2d53 92190000 		.4byte	.LASF613
 8839 2d57 2C       		.byte	0x2c
 8840 2d58 0F01     		.2byte	0x10f
 8841 2d5a F6080000 		.4byte	0x8f6
 8842 2d5e 10       		.byte	0x10
 8843 2d5f 18       		.uleb128 0x18
 8844 2d60 FD060000 		.4byte	.LASF614
 8845 2d64 2C       		.byte	0x2c
 8846 2d65 1501     		.2byte	0x115
 8847 2d67 F6080000 		.4byte	0x8f6
 8848 2d6b 12       		.byte	0x12
 8849 2d6c 00       		.byte	0
 8850 2d6d 05       		.uleb128 0x5
 8851 2d6e 04       		.byte	0x4
 8852 2d6f 732D0000 		.4byte	0x2d73
 8853 2d73 2B       		.uleb128 0x2b
 8854 2d74 07       		.uleb128 0x7
 8855 2d75 65240000 		.4byte	.LASF615
 8856 2d79 2C       		.byte	0x2c
 8857 2d7a 1601     		.2byte	0x116
 8858 2d7c 192D0000 		.4byte	0x2d19
 8859 2d80 0F       		.uleb128 0xf
 8860 2d81 742D0000 		.4byte	0x2d74
 8861 2d85 05       		.uleb128 0x5
 8862 2d86 04       		.byte	0x4
 8863 2d87 802D0000 		.4byte	0x2d80
 8864 2d8b 05       		.uleb128 0x5
 8865 2d8c 04       		.byte	0x4
 8866 2d8d 11160000 		.4byte	0x1611
 8867 2d91 20       		.uleb128 0x20
ARM GAS  C:\Users\PCHAUT~1\AppData\Local\Temp\ccORgsmL.s 			page 157


 8868 2d92 AB240000 		.4byte	.LASF616
 8869 2d96 2C       		.byte	0x2c
 8870 2d97 4801     		.2byte	0x148
 8871 2d99 6C2C0000 		.4byte	0x2c6c
 8872 2d9d 27       		.uleb128 0x27
 8873 2d9e 07       		.byte	0x7
 8874 2d9f 01       		.byte	0x1
 8875 2da0 5E000000 		.4byte	0x5e
 8876 2da4 2D       		.byte	0x2d
 8877 2da5 4A       		.byte	0x4a
 8878 2da6 BD2D0000 		.4byte	0x2dbd
 8879 2daa 28       		.uleb128 0x28
 8880 2dab 95070000 		.4byte	.LASF617
 8881 2daf 00       		.byte	0
 8882 2db0 28       		.uleb128 0x28
 8883 2db1 A50D0000 		.4byte	.LASF618
 8884 2db5 01       		.byte	0x1
 8885 2db6 28       		.uleb128 0x28
 8886 2db7 C4100000 		.4byte	.LASF619
 8887 2dbb 02       		.byte	0x2
 8888 2dbc 00       		.byte	0
 8889 2dbd 03       		.uleb128 0x3
 8890 2dbe A7030000 		.4byte	.LASF620
 8891 2dc2 2D       		.byte	0x2d
 8892 2dc3 4E       		.byte	0x4e
 8893 2dc4 9D2D0000 		.4byte	0x2d9d
 8894 2dc8 03       		.uleb128 0x3
 8895 2dc9 CE0C0000 		.4byte	.LASF621
 8896 2dcd 2D       		.byte	0x2d
 8897 2dce 53       		.byte	0x53
 8898 2dcf D32D0000 		.4byte	0x2dd3
 8899 2dd3 1B       		.uleb128 0x1b
 8900 2dd4 CE0C0000 		.4byte	.LASF621
 8901 2dd8 1C       		.byte	0x1c
 8902 2dd9 2E       		.byte	0x2e
 8903 2dda 7901     		.2byte	0x179
 8904 2ddc 3C2E0000 		.4byte	0x2e3c
 8905 2de0 18       		.uleb128 0x18
 8906 2de1 46160000 		.4byte	.LASF463
 8907 2de5 2E       		.byte	0x2e
 8908 2de6 7D01     		.2byte	0x17d
 8909 2de8 BD2D0000 		.4byte	0x2dbd
 8910 2dec 00       		.byte	0
 8911 2ded 18       		.uleb128 0x18
 8912 2dee A71B0000 		.4byte	.LASF464
 8913 2df2 2E       		.byte	0x2e
 8914 2df3 8101     		.2byte	0x181
 8915 2df5 372F0000 		.4byte	0x2f37
 8916 2df9 04       		.byte	0x4
 8917 2dfa 18       		.uleb128 0x18
 8918 2dfb 4C130000 		.4byte	.LASF622
 8919 2dff 2E       		.byte	0x2e
 8920 2e00 8501     		.2byte	0x185
 8921 2e02 822E0000 		.4byte	0x2e82
 8922 2e06 08       		.byte	0x8
 8923 2e07 18       		.uleb128 0x18
 8924 2e08 021A0000 		.4byte	.LASF623
ARM GAS  C:\Users\PCHAUT~1\AppData\Local\Temp\ccORgsmL.s 			page 158


 8925 2e0c 2E       		.byte	0x2e
 8926 2e0d 8901     		.2byte	0x189
 8927 2e0f 762E0000 		.4byte	0x2e76
 8928 2e13 0C       		.byte	0xc
 8929 2e14 18       		.uleb128 0x18
 8930 2e15 40200000 		.4byte	.LASF544
 8931 2e19 2E       		.byte	0x2e
 8932 2e1a 8D01     		.2byte	0x18d
 8933 2e1c 6A2E0000 		.4byte	0x2e6a
 8934 2e20 10       		.byte	0x10
 8935 2e21 18       		.uleb128 0x18
 8936 2e22 DF0D0000 		.4byte	.LASF554
 8937 2e26 2E       		.byte	0x2e
 8938 2e27 9501     		.2byte	0x195
 8939 2e29 1C090000 		.4byte	0x91c
 8940 2e2d 14       		.byte	0x14
 8941 2e2e 21       		.uleb128 0x21
 8942 2e2f 74696D00 		.ascii	"tim\000"
 8943 2e33 2E       		.byte	0x2e
 8944 2e34 9901     		.2byte	0x199
 8945 2e36 652A0000 		.4byte	0x2a65
 8946 2e3a 18       		.byte	0x18
 8947 2e3b 00       		.byte	0
 8948 2e3c 03       		.uleb128 0x3
 8949 2e3d 50110000 		.4byte	.LASF624
 8950 2e41 2D       		.byte	0x2d
 8951 2e42 5A       		.byte	0x5a
 8952 2e43 472E0000 		.4byte	0x2e47
 8953 2e47 05       		.uleb128 0x5
 8954 2e48 04       		.byte	0x4
 8955 2e49 4D2E0000 		.4byte	0x2e4d
 8956 2e4d 1F       		.uleb128 0x1f
 8957 2e4e 582E0000 		.4byte	0x2e58
 8958 2e52 16       		.uleb128 0x16
 8959 2e53 582E0000 		.4byte	0x2e58
 8960 2e57 00       		.byte	0
 8961 2e58 05       		.uleb128 0x5
 8962 2e59 04       		.byte	0x4
 8963 2e5a C82D0000 		.4byte	0x2dc8
 8964 2e5e 07       		.uleb128 0x7
 8965 2e5f 79150000 		.4byte	.LASF625
 8966 2e63 2E       		.byte	0x2e
 8967 2e64 2501     		.2byte	0x125
 8968 2e66 1C090000 		.4byte	0x91c
 8969 2e6a 07       		.uleb128 0x7
 8970 2e6b 8A170000 		.4byte	.LASF626
 8971 2e6f 2E       		.byte	0x2e
 8972 2e70 2A01     		.2byte	0x12a
 8973 2e72 E6080000 		.4byte	0x8e6
 8974 2e76 07       		.uleb128 0x7
 8975 2e77 39150000 		.4byte	.LASF627
 8976 2e7b 2E       		.byte	0x2e
 8977 2e7c 2F01     		.2byte	0x12f
 8978 2e7e 1C090000 		.4byte	0x91c
 8979 2e82 07       		.uleb128 0x7
 8980 2e83 9C0E0000 		.4byte	.LASF628
 8981 2e87 2E       		.byte	0x2e
ARM GAS  C:\Users\PCHAUT~1\AppData\Local\Temp\ccORgsmL.s 			page 159


 8982 2e88 3401     		.2byte	0x134
 8983 2e8a 1C090000 		.4byte	0x91c
 8984 2e8e 1C       		.uleb128 0x1c
 8985 2e8f 08       		.byte	0x8
 8986 2e90 2E       		.byte	0x2e
 8987 2e91 3901     		.2byte	0x139
 8988 2e93 B22E0000 		.4byte	0x2eb2
 8989 2e97 18       		.uleb128 0x18
 8990 2e98 BE080000 		.4byte	.LASF542
 8991 2e9c 2E       		.byte	0x2e
 8992 2e9d 3D01     		.2byte	0x13d
 8993 2e9f 5E2E0000 		.4byte	0x2e5e
 8994 2ea3 00       		.byte	0
 8995 2ea4 18       		.uleb128 0x18
 8996 2ea5 93160000 		.4byte	.LASF568
 8997 2ea9 2E       		.byte	0x2e
 8998 2eaa 4301     		.2byte	0x143
 8999 2eac 3C2E0000 		.4byte	0x2e3c
 9000 2eb0 04       		.byte	0x4
 9001 2eb1 00       		.byte	0
 9002 2eb2 07       		.uleb128 0x7
 9003 2eb3 8B0E0000 		.4byte	.LASF629
 9004 2eb7 2E       		.byte	0x2e
 9005 2eb8 4501     		.2byte	0x145
 9006 2eba 8E2E0000 		.4byte	0x2e8e
 9007 2ebe 1C       		.uleb128 0x1c
 9008 2ebf 34       		.byte	0x34
 9009 2ec0 2E       		.byte	0x2e
 9010 2ec1 4A01     		.2byte	0x14a
 9011 2ec3 162F0000 		.4byte	0x2f16
 9012 2ec7 18       		.uleb128 0x18
 9013 2ec8 10230000 		.4byte	.LASF567
 9014 2ecc 2E       		.byte	0x2e
 9015 2ecd 5001     		.2byte	0x150
 9016 2ecf 1C090000 		.4byte	0x91c
 9017 2ed3 00       		.byte	0
 9018 2ed4 18       		.uleb128 0x18
 9019 2ed5 4C130000 		.4byte	.LASF622
 9020 2ed9 2E       		.byte	0x2e
 9021 2eda 5601     		.2byte	0x156
 9022 2edc 822E0000 		.4byte	0x2e82
 9023 2ee0 04       		.byte	0x4
 9024 2ee1 18       		.uleb128 0x18
 9025 2ee2 93160000 		.4byte	.LASF568
 9026 2ee6 2E       		.byte	0x2e
 9027 2ee7 5C01     		.2byte	0x15c
 9028 2ee9 3C2E0000 		.4byte	0x2e3c
 9029 2eed 08       		.byte	0x8
 9030 2eee 18       		.uleb128 0x18
 9031 2eef 40200000 		.4byte	.LASF544
 9032 2ef3 2E       		.byte	0x2e
 9033 2ef4 6001     		.2byte	0x160
 9034 2ef6 162F0000 		.4byte	0x2f16
 9035 2efa 0C       		.byte	0xc
 9036 2efb 21       		.uleb128 0x21
 9037 2efc 63723200 		.ascii	"cr2\000"
 9038 2f00 2E       		.byte	0x2e
ARM GAS  C:\Users\PCHAUT~1\AppData\Local\Temp\ccORgsmL.s 			page 160


 9039 2f01 6601     		.2byte	0x166
 9040 2f03 1C090000 		.4byte	0x91c
 9041 2f07 2C       		.byte	0x2c
 9042 2f08 18       		.uleb128 0x18
 9043 2f09 600D0000 		.4byte	.LASF569
 9044 2f0d 2E       		.byte	0x2e
 9045 2f0e 7301     		.2byte	0x173
 9046 2f10 1C090000 		.4byte	0x91c
 9047 2f14 30       		.byte	0x30
 9048 2f15 00       		.byte	0
 9049 2f16 0A       		.uleb128 0xa
 9050 2f17 B22E0000 		.4byte	0x2eb2
 9051 2f1b 262F0000 		.4byte	0x2f26
 9052 2f1f 0B       		.uleb128 0xb
 9053 2f20 37000000 		.4byte	0x37
 9054 2f24 03       		.byte	0x3
 9055 2f25 00       		.byte	0
 9056 2f26 07       		.uleb128 0x7
 9057 2f27 DF0C0000 		.4byte	.LASF630
 9058 2f2b 2E       		.byte	0x2e
 9059 2f2c 7401     		.2byte	0x174
 9060 2f2e BE2E0000 		.4byte	0x2ebe
 9061 2f32 0F       		.uleb128 0xf
 9062 2f33 262F0000 		.4byte	0x2f26
 9063 2f37 05       		.uleb128 0x5
 9064 2f38 04       		.byte	0x4
 9065 2f39 322F0000 		.4byte	0x2f32
 9066 2f3d 20       		.uleb128 0x20
 9067 2f3e 20120000 		.4byte	.LASF631
 9068 2f42 2E       		.byte	0x2e
 9069 2f43 BC01     		.2byte	0x1bc
 9070 2f45 C82D0000 		.4byte	0x2dc8
 9071 2f49 20       		.uleb128 0x20
 9072 2f4a 26120000 		.4byte	.LASF632
 9073 2f4e 2E       		.byte	0x2e
 9074 2f4f C001     		.2byte	0x1c0
 9075 2f51 C82D0000 		.4byte	0x2dc8
 9076 2f55 20       		.uleb128 0x20
 9077 2f56 2C120000 		.4byte	.LASF633
 9078 2f5a 2E       		.byte	0x2e
 9079 2f5b C401     		.2byte	0x1c4
 9080 2f5d C82D0000 		.4byte	0x2dc8
 9081 2f61 20       		.uleb128 0x20
 9082 2f62 32120000 		.4byte	.LASF634
 9083 2f66 2E       		.byte	0x2e
 9084 2f67 C801     		.2byte	0x1c8
 9085 2f69 C82D0000 		.4byte	0x2dc8
 9086 2f6d 27       		.uleb128 0x27
 9087 2f6e 07       		.byte	0x7
 9088 2f6f 01       		.byte	0x1
 9089 2f70 5E000000 		.4byte	0x5e
 9090 2f74 2F       		.byte	0x2f
 9091 2f75 55       		.byte	0x55
 9092 2f76 8D2F0000 		.4byte	0x2f8d
 9093 2f7a 28       		.uleb128 0x28
 9094 2f7b E5060000 		.4byte	.LASF635
 9095 2f7f 00       		.byte	0
ARM GAS  C:\Users\PCHAUT~1\AppData\Local\Temp\ccORgsmL.s 			page 161


 9096 2f80 28       		.uleb128 0x28
 9097 2f81 120E0000 		.4byte	.LASF636
 9098 2f85 01       		.byte	0x1
 9099 2f86 28       		.uleb128 0x28
 9100 2f87 43100000 		.4byte	.LASF637
 9101 2f8b 02       		.byte	0x2
 9102 2f8c 00       		.byte	0
 9103 2f8d 03       		.uleb128 0x3
 9104 2f8e 95180000 		.4byte	.LASF638
 9105 2f92 2F       		.byte	0x2f
 9106 2f93 59       		.byte	0x59
 9107 2f94 6D2F0000 		.4byte	0x2f6d
 9108 2f98 03       		.uleb128 0x3
 9109 2f99 6B200000 		.4byte	.LASF639
 9110 2f9d 2F       		.byte	0x2f
 9111 2f9e 5E       		.byte	0x5e
 9112 2f9f A32F0000 		.4byte	0x2fa3
 9113 2fa3 10       		.uleb128 0x10
 9114 2fa4 6B200000 		.4byte	.LASF639
 9115 2fa8 78       		.byte	0x78
 9116 2fa9 2F       		.byte	0x2f
 9117 2faa 78       		.byte	0x78
 9118 2fab 0E300000 		.4byte	0x300e
 9119 2faf 11       		.uleb128 0x11
 9120 2fb0 766D7400 		.ascii	"vmt\000"
 9121 2fb4 2F       		.byte	0x2f
 9122 2fb5 7A       		.byte	0x7a
 9123 2fb6 8C300000 		.4byte	0x308c
 9124 2fba 00       		.byte	0
 9125 2fbb 0D       		.uleb128 0xd
 9126 2fbc 32000000 		.4byte	.LASF640
 9127 2fc0 2F       		.byte	0x2f
 9128 2fc1 7B       		.byte	0x7b
 9129 2fc2 E41B0000 		.4byte	0x1be4
 9130 2fc6 04       		.byte	0x4
 9131 2fc7 0D       		.uleb128 0xd
 9132 2fc8 46160000 		.4byte	.LASF463
 9133 2fcc 2F       		.byte	0x2f
 9134 2fcd 7B       		.byte	0x7b
 9135 2fce 8D2F0000 		.4byte	0x2f8d
 9136 2fd2 08       		.byte	0x8
 9137 2fd3 0D       		.uleb128 0xd
 9138 2fd4 76180000 		.4byte	.LASF641
 9139 2fd8 2F       		.byte	0x2f
 9140 2fd9 7B       		.byte	0x7b
 9141 2fda 8F1C0000 		.4byte	0x1c8f
 9142 2fde 0C       		.byte	0xc
 9143 2fdf 0D       		.uleb128 0xd
 9144 2fe0 42120000 		.4byte	.LASF642
 9145 2fe4 2F       		.byte	0x2f
 9146 2fe5 7B       		.byte	0x7b
 9147 2fe6 9A1C0000 		.4byte	0x1c9a
 9148 2fea 30       		.byte	0x30
 9149 2feb 11       		.uleb128 0x11
 9150 2fec 696200   		.ascii	"ib\000"
 9151 2fef 2F       		.byte	0x2f
 9152 2ff0 7B       		.byte	0x7b
ARM GAS  C:\Users\PCHAUT~1\AppData\Local\Temp\ccORgsmL.s 			page 162


 9153 2ff1 92300000 		.4byte	0x3092
 9154 2ff5 54       		.byte	0x54
 9155 2ff6 11       		.uleb128 0x11
 9156 2ff7 6F6200   		.ascii	"ob\000"
 9157 2ffa 2F       		.byte	0x2f
 9158 2ffb 7B       		.byte	0x7b
 9159 2ffc 92300000 		.4byte	0x3092
 9160 3000 64       		.byte	0x64
 9161 3001 0D       		.uleb128 0xd
 9162 3002 2A1A0000 		.4byte	.LASF643
 9163 3006 2F       		.byte	0x2f
 9164 3007 7B       		.byte	0x7b
 9165 3008 A2300000 		.4byte	0x30a2
 9166 300c 74       		.byte	0x74
 9167 300d 00       		.byte	0
 9168 300e 26       		.uleb128 0x26
 9169 300f 53443300 		.ascii	"SD3\000"
 9170 3013 30       		.byte	0x30
 9171 3014 1501     		.2byte	0x115
 9172 3016 982F0000 		.4byte	0x2f98
 9173 301a 10       		.uleb128 0x10
 9174 301b C30F0000 		.4byte	.LASF644
 9175 301f 20       		.byte	0x20
 9176 3020 2F       		.byte	0x2f
 9177 3021 6D       		.byte	0x6d
 9178 3022 87300000 		.4byte	0x3087
 9179 3026 0D       		.uleb128 0xd
 9180 3027 65180000 		.4byte	.LASF645
 9181 302b 2F       		.byte	0x2f
 9182 302c 6E       		.byte	0x6e
 9183 302d C41C0000 		.4byte	0x1cc4
 9184 3031 00       		.byte	0
 9185 3032 0D       		.uleb128 0xd
 9186 3033 05050000 		.4byte	.LASF646
 9187 3037 2F       		.byte	0x2f
 9188 3038 6E       		.byte	0x6e
 9189 3039 E31C0000 		.4byte	0x1ce3
 9190 303d 04       		.byte	0x4
 9191 303e 11       		.uleb128 0x11
 9192 303f 70757400 		.ascii	"put\000"
 9193 3043 2F       		.byte	0x2f
 9194 3044 6E       		.byte	0x6e
 9195 3045 FD1C0000 		.4byte	0x1cfd
 9196 3049 08       		.byte	0x8
 9197 304a 11       		.uleb128 0x11
 9198 304b 67657400 		.ascii	"get\000"
 9199 304f 2F       		.byte	0x2f
 9200 3050 6E       		.byte	0x6e
 9201 3051 121D0000 		.4byte	0x1d12
 9202 3055 0C       		.byte	0xc
 9203 3056 0D       		.uleb128 0xd
 9204 3057 62140000 		.4byte	.LASF647
 9205 305b 2F       		.byte	0x2f
 9206 305c 6E       		.byte	0x6e
 9207 305d B31D0000 		.4byte	0x1db3
 9208 3061 10       		.byte	0x10
 9209 3062 0D       		.uleb128 0xd
ARM GAS  C:\Users\PCHAUT~1\AppData\Local\Temp\ccORgsmL.s 			page 163


 9210 3063 4B180000 		.4byte	.LASF648
 9211 3067 2F       		.byte	0x2f
 9212 3068 6E       		.byte	0x6e
 9213 3069 CD1D0000 		.4byte	0x1dcd
 9214 306d 14       		.byte	0x14
 9215 306e 0D       		.uleb128 0xd
 9216 306f 48210000 		.4byte	.LASF649
 9217 3073 2F       		.byte	0x2f
 9218 3074 6E       		.byte	0x6e
 9219 3075 F11D0000 		.4byte	0x1df1
 9220 3079 18       		.byte	0x18
 9221 307a 0D       		.uleb128 0xd
 9222 307b A8130000 		.4byte	.LASF650
 9223 307f 2F       		.byte	0x2f
 9224 3080 6E       		.byte	0x6e
 9225 3081 151E0000 		.4byte	0x1e15
 9226 3085 1C       		.byte	0x1c
 9227 3086 00       		.byte	0
 9228 3087 0F       		.uleb128 0xf
 9229 3088 1A300000 		.4byte	0x301a
 9230 308c 05       		.uleb128 0x5
 9231 308d 04       		.byte	0x4
 9232 308e 87300000 		.4byte	0x3087
 9233 3092 0A       		.uleb128 0xa
 9234 3093 E6080000 		.4byte	0x8e6
 9235 3097 A2300000 		.4byte	0x30a2
 9236 309b 0B       		.uleb128 0xb
 9237 309c 37000000 		.4byte	0x37
 9238 30a0 0F       		.byte	0xf
 9239 30a1 00       		.byte	0
 9240 30a2 05       		.uleb128 0x5
 9241 30a3 04       		.byte	0x4
 9242 30a4 80160000 		.4byte	0x1680
 9243 30a8 27       		.uleb128 0x27
 9244 30a9 07       		.byte	0x7
 9245 30aa 01       		.byte	0x1
 9246 30ab 5E000000 		.4byte	0x5e
 9247 30af 31       		.byte	0x31
 9248 30b0 6C       		.byte	0x6c
 9249 30b1 C8300000 		.4byte	0x30c8
 9250 30b5 28       		.uleb128 0x28
 9251 30b6 54030000 		.4byte	.LASF651
 9252 30ba 00       		.byte	0
 9253 30bb 28       		.uleb128 0x28
 9254 30bc 95150000 		.4byte	.LASF652
 9255 30c0 01       		.byte	0x1
 9256 30c1 28       		.uleb128 0x28
 9257 30c2 23130000 		.4byte	.LASF653
 9258 30c6 02       		.byte	0x2
 9259 30c7 00       		.byte	0
 9260 30c8 03       		.uleb128 0x3
 9261 30c9 D41A0000 		.4byte	.LASF654
 9262 30cd 31       		.byte	0x31
 9263 30ce 70       		.byte	0x70
 9264 30cf A8300000 		.4byte	0x30a8
 9265 30d3 27       		.uleb128 0x27
 9266 30d4 07       		.byte	0x7
ARM GAS  C:\Users\PCHAUT~1\AppData\Local\Temp\ccORgsmL.s 			page 164


 9267 30d5 01       		.byte	0x1
 9268 30d6 5E000000 		.4byte	0x5e
 9269 30da 31       		.byte	0x31
 9270 30db 75       		.byte	0x75
 9271 30dc ED300000 		.4byte	0x30ed
 9272 30e0 28       		.uleb128 0x28
 9273 30e1 54140000 		.4byte	.LASF655
 9274 30e5 00       		.byte	0
 9275 30e6 28       		.uleb128 0x28
 9276 30e7 93010000 		.4byte	.LASF656
 9277 30eb 01       		.byte	0x1
 9278 30ec 00       		.byte	0
 9279 30ed 03       		.uleb128 0x3
 9280 30ee 440D0000 		.4byte	.LASF657
 9281 30f2 31       		.byte	0x31
 9282 30f3 78       		.byte	0x78
 9283 30f4 D3300000 		.4byte	0x30d3
 9284 30f8 03       		.uleb128 0x3
 9285 30f9 301A0000 		.4byte	.LASF658
 9286 30fd 32       		.byte	0x32
 9287 30fe BF       		.byte	0xbf
 9288 30ff 1C090000 		.4byte	0x91c
 9289 3103 03       		.uleb128 0x3
 9290 3104 D6000000 		.4byte	.LASF659
 9291 3108 32       		.byte	0x32
 9292 3109 C4       		.byte	0xc4
 9293 310a 1C090000 		.4byte	0x91c
 9294 310e 03       		.uleb128 0x3
 9295 310f 4F200000 		.4byte	.LASF660
 9296 3113 32       		.byte	0x32
 9297 3114 C9       		.byte	0xc9
 9298 3115 19310000 		.4byte	0x3119
 9299 3119 10       		.uleb128 0x10
 9300 311a 4F200000 		.4byte	.LASF660
 9301 311e 4C       		.byte	0x4c
 9302 311f 32       		.byte	0x32
 9303 3120 F2       		.byte	0xf2
 9304 3121 C8310000 		.4byte	0x31c8
 9305 3125 11       		.uleb128 0x11
 9306 3126 766D7400 		.ascii	"vmt\000"
 9307 312a 32       		.byte	0x32
 9308 312b F6       		.byte	0xf6
 9309 312c 6B320000 		.4byte	0x326b
 9310 3130 00       		.byte	0
 9311 3131 0D       		.uleb128 0xd
 9312 3132 46160000 		.4byte	.LASF463
 9313 3136 32       		.byte	0x32
 9314 3137 F7       		.byte	0xf7
 9315 3138 5F1E0000 		.4byte	0x1e5f
 9316 313c 04       		.byte	0x4
 9317 313d 11       		.uleb128 0x11
 9318 313e 63696400 		.ascii	"cid\000"
 9319 3142 32       		.byte	0x32
 9320 3143 F7       		.byte	0xf7
 9321 3144 1A1F0000 		.4byte	0x1f1a
 9322 3148 08       		.byte	0x8
 9323 3149 11       		.uleb128 0x11
ARM GAS  C:\Users\PCHAUT~1\AppData\Local\Temp\ccORgsmL.s 			page 165


 9324 314a 63736400 		.ascii	"csd\000"
 9325 314e 32       		.byte	0x32
 9326 314f F7       		.byte	0xf7
 9327 3150 1A1F0000 		.4byte	0x1f1a
 9328 3154 18       		.byte	0x18
 9329 3155 0D       		.uleb128 0xd
 9330 3156 761C0000 		.4byte	.LASF661
 9331 315a 32       		.byte	0x32
 9332 315b F7       		.byte	0xf7
 9333 315c 1C090000 		.4byte	0x91c
 9334 3160 28       		.byte	0x28
 9335 3161 0D       		.uleb128 0xd
 9336 3162 A71B0000 		.4byte	.LASF464
 9337 3166 32       		.byte	0x32
 9338 3167 FB       		.byte	0xfb
 9339 3168 71320000 		.4byte	0x3271
 9340 316c 2C       		.byte	0x2c
 9341 316d 0D       		.uleb128 0xd
 9342 316e B8040000 		.4byte	.LASF662
 9343 3172 32       		.byte	0x32
 9344 3173 FF       		.byte	0xff
 9345 3174 F8300000 		.4byte	0x30f8
 9346 3178 30       		.byte	0x30
 9347 3179 18       		.uleb128 0x18
 9348 317a 8C010000 		.4byte	.LASF595
 9349 317e 32       		.byte	0x32
 9350 317f 0301     		.2byte	0x103
 9351 3181 03310000 		.4byte	0x3103
 9352 3185 34       		.byte	0x34
 9353 3186 21       		.uleb128 0x21
 9354 3187 72636100 		.ascii	"rca\000"
 9355 318b 32       		.byte	0x32
 9356 318c 0701     		.2byte	0x107
 9357 318e 1C090000 		.4byte	0x91c
 9358 3192 38       		.byte	0x38
 9359 3193 18       		.uleb128 0x18
 9360 3194 3A070000 		.4byte	.LASF468
 9361 3198 32       		.byte	0x32
 9362 3199 0C01     		.2byte	0x10c
 9363 319b F90A0000 		.4byte	0xaf9
 9364 319f 3C       		.byte	0x3c
 9365 31a0 18       		.uleb128 0x18
 9366 31a1 27180000 		.4byte	.LASF471
 9367 31a5 32       		.byte	0x32
 9368 31a6 1001     		.2byte	0x110
 9369 31a8 1C090000 		.4byte	0x91c
 9370 31ac 40       		.byte	0x40
 9371 31ad 21       		.uleb128 0x21
 9372 31ae 646D6100 		.ascii	"dma\000"
 9373 31b2 32       		.byte	0x32
 9374 31b3 1401     		.2byte	0x114
 9375 31b5 5F230000 		.4byte	0x235f
 9376 31b9 44       		.byte	0x44
 9377 31ba 18       		.uleb128 0x18
 9378 31bb 5E160000 		.4byte	.LASF663
 9379 31bf 32       		.byte	0x32
 9380 31c0 1901     		.2byte	0x119
ARM GAS  C:\Users\PCHAUT~1\AppData\Local\Temp\ccORgsmL.s 			page 166


 9381 31c2 77320000 		.4byte	0x3277
 9382 31c6 48       		.byte	0x48
 9383 31c7 00       		.byte	0
 9384 31c8 0C       		.uleb128 0xc
 9385 31c9 08       		.byte	0x8
 9386 31ca 32       		.byte	0x32
 9387 31cb CF       		.byte	0xcf
 9388 31cc E9310000 		.4byte	0x31e9
 9389 31d0 0D       		.uleb128 0xd
 9390 31d1 E80E0000 		.4byte	.LASF664
 9391 31d5 32       		.byte	0x32
 9392 31d6 D8       		.byte	0xd8
 9393 31d7 891C0000 		.4byte	0x1c89
 9394 31db 00       		.byte	0
 9395 31dc 0D       		.uleb128 0xd
 9396 31dd 01220000 		.4byte	.LASF665
 9397 31e1 32       		.byte	0x32
 9398 31e2 DC       		.byte	0xdc
 9399 31e3 C8300000 		.4byte	0x30c8
 9400 31e7 04       		.byte	0x4
 9401 31e8 00       		.byte	0
 9402 31e9 03       		.uleb128 0x3
 9403 31ea F8190000 		.4byte	.LASF666
 9404 31ee 32       		.byte	0x32
 9405 31ef DE       		.byte	0xde
 9406 31f0 C8310000 		.4byte	0x31c8
 9407 31f4 0F       		.uleb128 0xf
 9408 31f5 E9310000 		.4byte	0x31e9
 9409 31f9 10       		.uleb128 0x10
 9410 31fa 2C220000 		.4byte	.LASF667
 9411 31fe 20       		.byte	0x20
 9412 31ff 32       		.byte	0x32
 9413 3200 EB       		.byte	0xeb
 9414 3201 66320000 		.4byte	0x3266
 9415 3205 0D       		.uleb128 0xd
 9416 3206 B1240000 		.4byte	.LASF668
 9417 320a 32       		.byte	0x32
 9418 320b EC       		.byte	0xec
 9419 320c AC1E0000 		.4byte	0x1eac
 9420 3210 00       		.byte	0
 9421 3211 0D       		.uleb128 0xd
 9422 3212 650D0000 		.4byte	.LASF669
 9423 3216 32       		.byte	0x32
 9424 3217 EC       		.byte	0xec
 9425 3218 AC1E0000 		.4byte	0x1eac
 9426 321c 04       		.byte	0x4
 9427 321d 0D       		.uleb128 0xd
 9428 321e E80F0000 		.4byte	.LASF670
 9429 3222 32       		.byte	0x32
 9430 3223 EC       		.byte	0xec
 9431 3224 AC1E0000 		.4byte	0x1eac
 9432 3228 08       		.byte	0x8
 9433 3229 0D       		.uleb128 0xd
 9434 322a 49140000 		.4byte	.LASF671
 9435 322e 32       		.byte	0x32
 9436 322f EC       		.byte	0xec
 9437 3230 AC1E0000 		.4byte	0x1eac
ARM GAS  C:\Users\PCHAUT~1\AppData\Local\Temp\ccORgsmL.s 			page 167


 9438 3234 0C       		.byte	0xc
 9439 3235 0D       		.uleb128 0xd
 9440 3236 05050000 		.4byte	.LASF646
 9441 323a 32       		.byte	0x32
 9442 323b EC       		.byte	0xec
 9443 323c D01E0000 		.4byte	0x1ed0
 9444 3240 10       		.byte	0x10
 9445 3241 0D       		.uleb128 0xd
 9446 3242 65180000 		.4byte	.LASF645
 9447 3246 32       		.byte	0x32
 9448 3247 EC       		.byte	0xec
 9449 3248 F41E0000 		.4byte	0x1ef4
 9450 324c 14       		.byte	0x14
 9451 324d 0D       		.uleb128 0xd
 9452 324e 251A0000 		.4byte	.LASF672
 9453 3252 32       		.byte	0x32
 9454 3253 EC       		.byte	0xec
 9455 3254 AC1E0000 		.4byte	0x1eac
 9456 3258 18       		.byte	0x18
 9457 3259 0D       		.uleb128 0xd
 9458 325a 9E210000 		.4byte	.LASF673
 9459 325e 32       		.byte	0x32
 9460 325f EC       		.byte	0xec
 9461 3260 141F0000 		.4byte	0x1f14
 9462 3264 1C       		.byte	0x1c
 9463 3265 00       		.byte	0
 9464 3266 0F       		.uleb128 0xf
 9465 3267 F9310000 		.4byte	0x31f9
 9466 326b 05       		.uleb128 0x5
 9467 326c 04       		.byte	0x4
 9468 326d 66320000 		.4byte	0x3266
 9469 3271 05       		.uleb128 0x5
 9470 3272 04       		.byte	0x4
 9471 3273 F4310000 		.4byte	0x31f4
 9472 3277 05       		.uleb128 0x5
 9473 3278 04       		.byte	0x4
 9474 3279 88150000 		.4byte	0x1588
 9475 327d 20       		.uleb128 0x20
 9476 327e 670B0000 		.4byte	.LASF674
 9477 3282 32       		.byte	0x32
 9478 3283 2501     		.2byte	0x125
 9479 3285 0E310000 		.4byte	0x310e
 9480 3289 27       		.uleb128 0x27
 9481 328a 07       		.byte	0x7
 9482 328b 01       		.byte	0x1
 9483 328c 5E000000 		.4byte	0x5e
 9484 3290 33       		.byte	0x33
 9485 3291 46       		.byte	0x46
 9486 3292 B5320000 		.4byte	0x32b5
 9487 3296 28       		.uleb128 0x28
 9488 3297 50070000 		.4byte	.LASF675
 9489 329b 00       		.byte	0
 9490 329c 28       		.uleb128 0x28
 9491 329d FD020000 		.4byte	.LASF676
 9492 32a1 01       		.byte	0x1
 9493 32a2 28       		.uleb128 0x28
 9494 32a3 D9210000 		.4byte	.LASF677
ARM GAS  C:\Users\PCHAUT~1\AppData\Local\Temp\ccORgsmL.s 			page 168


 9495 32a7 02       		.byte	0x2
 9496 32a8 28       		.uleb128 0x28
 9497 32a9 540F0000 		.4byte	.LASF678
 9498 32ad 03       		.byte	0x3
 9499 32ae 28       		.uleb128 0x28
 9500 32af D3130000 		.4byte	.LASF679
 9501 32b3 04       		.byte	0x4
 9502 32b4 00       		.byte	0
 9503 32b5 03       		.uleb128 0x3
 9504 32b6 100F0000 		.4byte	.LASF680
 9505 32ba 33       		.byte	0x33
 9506 32bb 4C       		.byte	0x4c
 9507 32bc 89320000 		.4byte	0x3289
 9508 32c0 07       		.uleb128 0x7
 9509 32c1 F6200000 		.4byte	.LASF681
 9510 32c5 34       		.byte	0x34
 9511 32c6 9601     		.2byte	0x196
 9512 32c8 CC320000 		.4byte	0x32cc
 9513 32cc 1B       		.uleb128 0x1b
 9514 32cd F6200000 		.4byte	.LASF681
 9515 32d1 34       		.byte	0x34
 9516 32d2 34       		.byte	0x34
 9517 32d3 BA01     		.2byte	0x1ba
 9518 32d5 4F330000 		.4byte	0x334f
 9519 32d9 18       		.uleb128 0x18
 9520 32da 46160000 		.4byte	.LASF463
 9521 32de 34       		.byte	0x34
 9522 32df BE01     		.2byte	0x1be
 9523 32e1 B5320000 		.4byte	0x32b5
 9524 32e5 00       		.byte	0
 9525 32e6 18       		.uleb128 0x18
 9526 32e7 A71B0000 		.4byte	.LASF464
 9527 32eb 34       		.byte	0x34
 9528 32ec C201     		.2byte	0x1c2
 9529 32ee C1330000 		.4byte	0x33c1
 9530 32f2 04       		.byte	0x4
 9531 32f3 18       		.uleb128 0x18
 9532 32f4 3A070000 		.4byte	.LASF468
 9533 32f8 34       		.byte	0x34
 9534 32f9 C701     		.2byte	0x1c7
 9535 32fb F90A0000 		.4byte	0xaf9
 9536 32ff 08       		.byte	0x8
 9537 3300 18       		.uleb128 0x18
 9538 3301 B60D0000 		.4byte	.LASF469
 9539 3305 34       		.byte	0x34
 9540 3306 CD01     		.2byte	0x1cd
 9541 3308 601B0000 		.4byte	0x1b60
 9542 330c 0C       		.byte	0xc
 9543 330d 21       		.uleb128 0x21
 9544 330e 73706900 		.ascii	"spi\000"
 9545 3312 34       		.byte	0x34
 9546 3313 D601     		.2byte	0x1d6
 9547 3315 8B2D0000 		.4byte	0x2d8b
 9548 3319 20       		.byte	0x20
 9549 331a 18       		.uleb128 0x18
 9550 331b 4D010000 		.4byte	.LASF599
 9551 331f 34       		.byte	0x34
ARM GAS  C:\Users\PCHAUT~1\AppData\Local\Temp\ccORgsmL.s 			page 169


 9552 3320 DA01     		.2byte	0x1da
 9553 3322 5F230000 		.4byte	0x235f
 9554 3326 24       		.byte	0x24
 9555 3327 18       		.uleb128 0x18
 9556 3328 36020000 		.4byte	.LASF600
 9557 332c 34       		.byte	0x34
 9558 332d DE01     		.2byte	0x1de
 9559 332f 5F230000 		.4byte	0x235f
 9560 3333 28       		.byte	0x28
 9561 3334 18       		.uleb128 0x18
 9562 3335 AA080000 		.4byte	.LASF597
 9563 3339 34       		.byte	0x34
 9564 333a E201     		.2byte	0x1e2
 9565 333c 1C090000 		.4byte	0x91c
 9566 3340 2C       		.byte	0x2c
 9567 3341 18       		.uleb128 0x18
 9568 3342 03090000 		.4byte	.LASF598
 9569 3346 34       		.byte	0x34
 9570 3347 E601     		.2byte	0x1e6
 9571 3349 1C090000 		.4byte	0x91c
 9572 334d 30       		.byte	0x30
 9573 334e 00       		.byte	0
 9574 334f 07       		.uleb128 0x7
 9575 3350 B1150000 		.4byte	.LASF682
 9576 3354 34       		.byte	0x34
 9577 3355 9E01     		.2byte	0x19e
 9578 3357 5B330000 		.4byte	0x335b
 9579 335b 05       		.uleb128 0x5
 9580 335c 04       		.byte	0x4
 9581 335d 61330000 		.4byte	0x3361
 9582 3361 1F       		.uleb128 0x1f
 9583 3362 6C330000 		.4byte	0x336c
 9584 3366 16       		.uleb128 0x16
 9585 3367 6C330000 		.4byte	0x336c
 9586 336b 00       		.byte	0
 9587 336c 05       		.uleb128 0x5
 9588 336d 04       		.byte	0x4
 9589 336e C0320000 		.4byte	0x32c0
 9590 3372 1C       		.uleb128 0x1c
 9591 3373 0C       		.byte	0xc
 9592 3374 34       		.byte	0x34
 9593 3375 A301     		.2byte	0x1a3
 9594 3377 B0330000 		.4byte	0x33b0
 9595 337b 18       		.uleb128 0x18
 9596 337c AF0A0000 		.4byte	.LASF476
 9597 3380 34       		.byte	0x34
 9598 3381 A701     		.2byte	0x1a7
 9599 3383 4F330000 		.4byte	0x334f
 9600 3387 00       		.byte	0
 9601 3388 18       		.uleb128 0x18
 9602 3389 D8220000 		.4byte	.LASF683
 9603 338d 34       		.byte	0x34
 9604 338e AC01     		.2byte	0x1ac
 9605 3390 F0200000 		.4byte	0x20f0
 9606 3394 04       		.byte	0x4
 9607 3395 18       		.uleb128 0x18
 9608 3396 FD080000 		.4byte	.LASF684
ARM GAS  C:\Users\PCHAUT~1\AppData\Local\Temp\ccORgsmL.s 			page 170


 9609 339a 34       		.byte	0x34
 9610 339b B001     		.2byte	0x1b0
 9611 339d 01090000 		.4byte	0x901
 9612 33a1 08       		.byte	0x8
 9613 33a2 21       		.uleb128 0x21
 9614 33a3 63723100 		.ascii	"cr1\000"
 9615 33a7 34       		.byte	0x34
 9616 33a8 B401     		.2byte	0x1b4
 9617 33aa 01090000 		.4byte	0x901
 9618 33ae 0A       		.byte	0xa
 9619 33af 00       		.byte	0
 9620 33b0 07       		.uleb128 0x7
 9621 33b1 F71F0000 		.4byte	.LASF685
 9622 33b5 34       		.byte	0x34
 9623 33b6 B501     		.2byte	0x1b5
 9624 33b8 72330000 		.4byte	0x3372
 9625 33bc 0F       		.uleb128 0xf
 9626 33bd B0330000 		.4byte	0x33b0
 9627 33c1 05       		.uleb128 0x5
 9628 33c2 04       		.byte	0x4
 9629 33c3 BC330000 		.4byte	0x33bc
 9630 33c7 20       		.uleb128 0x20
 9631 33c8 161F0000 		.4byte	.LASF686
 9632 33cc 34       		.byte	0x34
 9633 33cd F201     		.2byte	0x1f2
 9634 33cf C0320000 		.4byte	0x32c0
 9635 33d3 03       		.uleb128 0x3
 9636 33d4 FC110000 		.4byte	.LASF687
 9637 33d8 35       		.byte	0x35
 9638 33d9 FA       		.byte	0xfa
 9639 33da DE330000 		.4byte	0x33de
 9640 33de 17       		.uleb128 0x17
 9641 33df FC110000 		.4byte	.LASF687
 9642 33e3 6002     		.2byte	0x260
 9643 33e5 36       		.byte	0x36
 9644 33e6 7701     		.2byte	0x177
 9645 33e8 0A350000 		.4byte	0x350a
 9646 33ec 18       		.uleb128 0x18
 9647 33ed 46160000 		.4byte	.LASF463
 9648 33f1 36       		.byte	0x36
 9649 33f2 7B01     		.2byte	0x17b
 9650 33f4 42350000 		.4byte	0x3542
 9651 33f8 00       		.byte	0
 9652 33f9 18       		.uleb128 0x18
 9653 33fa A71B0000 		.4byte	.LASF464
 9654 33fe 36       		.byte	0x36
 9655 33ff 7F01     		.2byte	0x17f
 9656 3401 653E0000 		.4byte	0x3e65
 9657 3405 04       		.byte	0x4
 9658 3406 18       		.uleb128 0x18
 9659 3407 33200000 		.4byte	.LASF688
 9660 340b 36       		.byte	0x36
 9661 340c 8301     		.2byte	0x183
 9662 340e 01090000 		.4byte	0x901
 9663 3412 08       		.byte	0x8
 9664 3413 18       		.uleb128 0x18
 9665 3414 FF220000 		.4byte	.LASF689
ARM GAS  C:\Users\PCHAUT~1\AppData\Local\Temp\ccORgsmL.s 			page 171


 9666 3418 36       		.byte	0x36
 9667 3419 8701     		.2byte	0x187
 9668 341b 01090000 		.4byte	0x901
 9669 341f 0A       		.byte	0xa
 9670 3420 21       		.uleb128 0x21
 9671 3421 65706300 		.ascii	"epc\000"
 9672 3425 36       		.byte	0x36
 9673 3426 8B01     		.2byte	0x18b
 9674 3428 6B3E0000 		.4byte	0x3e6b
 9675 342c 0C       		.byte	0xc
 9676 342d 18       		.uleb128 0x18
 9677 342e 80070000 		.4byte	.LASF690
 9678 3432 36       		.byte	0x36
 9679 3433 9201     		.2byte	0x192
 9680 3435 813E0000 		.4byte	0x3e81
 9681 3439 1C       		.byte	0x1c
 9682 343a 18       		.uleb128 0x18
 9683 343b 2A0D0000 		.4byte	.LASF691
 9684 343f 36       		.byte	0x36
 9685 3440 9901     		.2byte	0x199
 9686 3442 813E0000 		.4byte	0x3e81
 9687 3446 28       		.byte	0x28
 9688 3447 18       		.uleb128 0x18
 9689 3448 85100000 		.4byte	.LASF692
 9690 344c 36       		.byte	0x36
 9691 344d 9D01     		.2byte	0x19d
 9692 344f 87350000 		.4byte	0x3587
 9693 3453 34       		.byte	0x34
 9694 3454 18       		.uleb128 0x18
 9695 3455 341B0000 		.4byte	.LASF693
 9696 3459 36       		.byte	0x36
 9697 345a A101     		.2byte	0x1a1
 9698 345c 891C0000 		.4byte	0x1c89
 9699 3460 38       		.byte	0x38
 9700 3461 18       		.uleb128 0x18
 9701 3462 B0170000 		.4byte	.LASF694
 9702 3466 36       		.byte	0x36
 9703 3467 A501     		.2byte	0x1a5
 9704 3469 2C000000 		.4byte	0x2c
 9705 346d 3C       		.byte	0x3c
 9706 346e 18       		.uleb128 0x18
 9707 346f A41D0000 		.4byte	.LASF695
 9708 3473 36       		.byte	0x36
 9709 3474 A901     		.2byte	0x1a9
 9710 3476 07360000 		.4byte	0x3607
 9711 347a 40       		.byte	0x40
 9712 347b 18       		.uleb128 0x18
 9713 347c 4A070000 		.4byte	.LASF696
 9714 3480 36       		.byte	0x36
 9715 3481 AD01     		.2byte	0x1ad
 9716 3483 C0230000 		.4byte	0x23c0
 9717 3487 44       		.byte	0x44
 9718 3488 18       		.uleb128 0x18
 9719 3489 83150000 		.4byte	.LASF697
 9720 348d 36       		.byte	0x36
 9721 348e B101     		.2byte	0x1b1
 9722 3490 01090000 		.4byte	0x901
ARM GAS  C:\Users\PCHAUT~1\AppData\Local\Temp\ccORgsmL.s 			page 172


 9723 3494 4C       		.byte	0x4c
 9724 3495 18       		.uleb128 0x18
 9725 3496 C9150000 		.4byte	.LASF698
 9726 349a 36       		.byte	0x36
 9727 349b B501     		.2byte	0x1b5
 9728 349d E6080000 		.4byte	0x8e6
 9729 34a1 4E       		.byte	0x4e
 9730 34a2 18       		.uleb128 0x18
 9731 34a3 701A0000 		.4byte	.LASF699
 9732 34a7 36       		.byte	0x36
 9733 34a8 B901     		.2byte	0x1b9
 9734 34aa E6080000 		.4byte	0x8e6
 9735 34ae 4F       		.byte	0x4f
 9736 34af 21       		.uleb128 0x21
 9737 34b0 6F746700 		.ascii	"otg\000"
 9738 34b4 36       		.byte	0x36
 9739 34b5 C101     		.2byte	0x1c1
 9740 34b7 913E0000 		.4byte	0x3e91
 9741 34bb 50       		.byte	0x50
 9742 34bc 18       		.uleb128 0x18
 9743 34bd CF0E0000 		.4byte	.LASF700
 9744 34c1 36       		.byte	0x36
 9745 34c2 C501     		.2byte	0x1c5
 9746 34c4 973E0000 		.4byte	0x3e97
 9747 34c8 54       		.byte	0x54
 9748 34c9 18       		.uleb128 0x18
 9749 34ca BD1E0000 		.4byte	.LASF701
 9750 34ce 36       		.byte	0x36
 9751 34cf C901     		.2byte	0x1c9
 9752 34d1 1C090000 		.4byte	0x91c
 9753 34d5 58       		.byte	0x58
 9754 34d6 18       		.uleb128 0x18
 9755 34d7 D50D0000 		.4byte	.LASF702
 9756 34db 36       		.byte	0x36
 9757 34dc CD01     		.2byte	0x1cd
 9758 34de 1C090000 		.4byte	0x91c
 9759 34e2 5C       		.byte	0x5c
 9760 34e3 18       		.uleb128 0x18
 9761 34e4 4D080000 		.4byte	.LASF703
 9762 34e8 36       		.byte	0x36
 9763 34e9 D101     		.2byte	0x1d1
 9764 34eb F90A0000 		.4byte	0xaf9
 9765 34ef 60       		.byte	0x60
 9766 34f0 21       		.uleb128 0x21
 9767 34f1 747200   		.ascii	"tr\000"
 9768 34f4 36       		.byte	0x36
 9769 34f5 D601     		.2byte	0x1d6
 9770 34f7 F90A0000 		.4byte	0xaf9
 9771 34fb 64       		.byte	0x64
 9772 34fc 18       		.uleb128 0x18
 9773 34fd 8F140000 		.4byte	.LASF704
 9774 3501 36       		.byte	0x36
 9775 3502 DA01     		.2byte	0x1da
 9776 3504 9D3E0000 		.4byte	0x3e9d
 9777 3508 68       		.byte	0x68
 9778 3509 00       		.byte	0
 9779 350a 03       		.uleb128 0x3
ARM GAS  C:\Users\PCHAUT~1\AppData\Local\Temp\ccORgsmL.s 			page 173


 9780 350b 2C0B0000 		.4byte	.LASF705
 9781 350f 35       		.byte	0x35
 9782 3510 FF       		.byte	0xff
 9783 3511 E6080000 		.4byte	0x8e6
 9784 3515 2A       		.uleb128 0x2a
 9785 3516 07       		.byte	0x7
 9786 3517 01       		.byte	0x1
 9787 3518 5E000000 		.4byte	0x5e
 9788 351c 35       		.byte	0x35
 9789 351d 0401     		.2byte	0x104
 9790 351f 42350000 		.4byte	0x3542
 9791 3523 28       		.uleb128 0x28
 9792 3524 A1230000 		.4byte	.LASF706
 9793 3528 00       		.byte	0
 9794 3529 28       		.uleb128 0x28
 9795 352a 00000000 		.4byte	.LASF707
 9796 352e 01       		.byte	0x1
 9797 352f 28       		.uleb128 0x28
 9798 3530 84130000 		.4byte	.LASF708
 9799 3534 02       		.byte	0x2
 9800 3535 28       		.uleb128 0x28
 9801 3536 08190000 		.4byte	.LASF709
 9802 353a 03       		.byte	0x3
 9803 353b 28       		.uleb128 0x28
 9804 353c 65080000 		.4byte	.LASF710
 9805 3540 04       		.byte	0x4
 9806 3541 00       		.byte	0
 9807 3542 07       		.uleb128 0x7
 9808 3543 E6240000 		.4byte	.LASF711
 9809 3547 35       		.byte	0x35
 9810 3548 0A01     		.2byte	0x10a
 9811 354a 15350000 		.4byte	0x3515
 9812 354e 2A       		.uleb128 0x2a
 9813 354f 07       		.byte	0x7
 9814 3550 01       		.byte	0x1
 9815 3551 5E000000 		.4byte	0x5e
 9816 3555 35       		.byte	0x35
 9817 3556 1801     		.2byte	0x118
 9818 3558 87350000 		.4byte	0x3587
 9819 355c 28       		.uleb128 0x28
 9820 355d 591D0000 		.4byte	.LASF712
 9821 3561 00       		.byte	0
 9822 3562 28       		.uleb128 0x28
 9823 3563 7A100000 		.4byte	.LASF713
 9824 3567 01       		.byte	0x1
 9825 3568 28       		.uleb128 0x28
 9826 3569 201B0000 		.4byte	.LASF714
 9827 356d 02       		.byte	0x2
 9828 356e 28       		.uleb128 0x28
 9829 356f 6B160000 		.4byte	.LASF715
 9830 3573 03       		.byte	0x3
 9831 3574 28       		.uleb128 0x28
 9832 3575 6E150000 		.4byte	.LASF716
 9833 3579 04       		.byte	0x4
 9834 357a 28       		.uleb128 0x28
 9835 357b 65110000 		.4byte	.LASF717
 9836 357f 05       		.byte	0x5
ARM GAS  C:\Users\PCHAUT~1\AppData\Local\Temp\ccORgsmL.s 			page 174


 9837 3580 28       		.uleb128 0x28
 9838 3581 D30F0000 		.4byte	.LASF718
 9839 3585 06       		.byte	0x6
 9840 3586 00       		.byte	0
 9841 3587 07       		.uleb128 0x7
 9842 3588 98110000 		.4byte	.LASF719
 9843 358c 35       		.byte	0x35
 9844 358d 2001     		.2byte	0x120
 9845 358f 4E350000 		.4byte	0x354e
 9846 3593 2A       		.uleb128 0x2a
 9847 3594 07       		.byte	0x7
 9848 3595 01       		.byte	0x1
 9849 3596 5E000000 		.4byte	0x5e
 9850 359a 35       		.byte	0x35
 9851 359b 2501     		.2byte	0x125
 9852 359d C6350000 		.4byte	0x35c6
 9853 35a1 28       		.uleb128 0x28
 9854 35a2 F51C0000 		.4byte	.LASF720
 9855 35a6 00       		.byte	0
 9856 35a7 28       		.uleb128 0x28
 9857 35a8 80190000 		.4byte	.LASF721
 9858 35ac 01       		.byte	0x1
 9859 35ad 28       		.uleb128 0x28
 9860 35ae 34140000 		.4byte	.LASF722
 9861 35b2 02       		.byte	0x2
 9862 35b3 28       		.uleb128 0x28
 9863 35b4 DB140000 		.4byte	.LASF723
 9864 35b8 03       		.byte	0x3
 9865 35b9 28       		.uleb128 0x28
 9866 35ba 55220000 		.4byte	.LASF724
 9867 35be 04       		.byte	0x4
 9868 35bf 28       		.uleb128 0x28
 9869 35c0 EF130000 		.4byte	.LASF725
 9870 35c4 05       		.byte	0x5
 9871 35c5 00       		.byte	0
 9872 35c6 07       		.uleb128 0x7
 9873 35c7 AF190000 		.4byte	.LASF726
 9874 35cb 35       		.byte	0x35
 9875 35cc 2C01     		.2byte	0x12c
 9876 35ce 93350000 		.4byte	0x3593
 9877 35d2 1C       		.uleb128 0x1c
 9878 35d3 08       		.byte	0x8
 9879 35d4 35       		.byte	0x35
 9880 35d5 3101     		.2byte	0x131
 9881 35d7 F6350000 		.4byte	0x35f6
 9882 35db 18       		.uleb128 0x18
 9883 35dc 6F240000 		.4byte	.LASF727
 9884 35e0 35       		.byte	0x35
 9885 35e1 3501     		.2byte	0x135
 9886 35e3 2C000000 		.4byte	0x2c
 9887 35e7 00       		.byte	0
 9888 35e8 18       		.uleb128 0x18
 9889 35e9 E3040000 		.4byte	.LASF728
 9890 35ed 35       		.byte	0x35
 9891 35ee 3901     		.2byte	0x139
 9892 35f0 BE1C0000 		.4byte	0x1cbe
 9893 35f4 04       		.byte	0x4
ARM GAS  C:\Users\PCHAUT~1\AppData\Local\Temp\ccORgsmL.s 			page 175


 9894 35f5 00       		.byte	0
 9895 35f6 07       		.uleb128 0x7
 9896 35f7 A3150000 		.4byte	.LASF729
 9897 35fb 35       		.byte	0x35
 9898 35fc 3A01     		.2byte	0x13a
 9899 35fe D2350000 		.4byte	0x35d2
 9900 3602 0F       		.uleb128 0xf
 9901 3603 F6350000 		.4byte	0x35f6
 9902 3607 07       		.uleb128 0x7
 9903 3608 F3230000 		.4byte	.LASF730
 9904 360c 35       		.byte	0x35
 9905 360d 4201     		.2byte	0x142
 9906 360f 13360000 		.4byte	0x3613
 9907 3613 05       		.uleb128 0x5
 9908 3614 04       		.byte	0x4
 9909 3615 19360000 		.4byte	0x3619
 9910 3619 1F       		.uleb128 0x1f
 9911 361a 24360000 		.4byte	0x3624
 9912 361e 16       		.uleb128 0x16
 9913 361f 24360000 		.4byte	0x3624
 9914 3623 00       		.byte	0
 9915 3624 05       		.uleb128 0x5
 9916 3625 04       		.byte	0x4
 9917 3626 D3330000 		.4byte	0x33d3
 9918 362a 07       		.uleb128 0x7
 9919 362b 2F050000 		.4byte	.LASF731
 9920 362f 35       		.byte	0x35
 9921 3630 4B01     		.2byte	0x14b
 9922 3632 36360000 		.4byte	0x3636
 9923 3636 05       		.uleb128 0x5
 9924 3637 04       		.byte	0x4
 9925 3638 3C360000 		.4byte	0x363c
 9926 363c 1F       		.uleb128 0x1f
 9927 363d 4C360000 		.4byte	0x364c
 9928 3641 16       		.uleb128 0x16
 9929 3642 24360000 		.4byte	0x3624
 9930 3646 16       		.uleb128 0x16
 9931 3647 0A350000 		.4byte	0x350a
 9932 364b 00       		.byte	0
 9933 364c 07       		.uleb128 0x7
 9934 364d 3F0C0000 		.4byte	.LASF732
 9935 3651 35       		.byte	0x35
 9936 3652 5401     		.2byte	0x154
 9937 3654 58360000 		.4byte	0x3658
 9938 3658 05       		.uleb128 0x5
 9939 3659 04       		.byte	0x4
 9940 365a 5E360000 		.4byte	0x365e
 9941 365e 1F       		.uleb128 0x1f
 9942 365f 6E360000 		.4byte	0x366e
 9943 3663 16       		.uleb128 0x16
 9944 3664 24360000 		.4byte	0x3624
 9945 3668 16       		.uleb128 0x16
 9946 3669 C6350000 		.4byte	0x35c6
 9947 366d 00       		.byte	0
 9948 366e 07       		.uleb128 0x7
 9949 366f BE060000 		.4byte	.LASF733
 9950 3673 35       		.byte	0x35
ARM GAS  C:\Users\PCHAUT~1\AppData\Local\Temp\ccORgsmL.s 			page 176


 9951 3674 6001     		.2byte	0x160
 9952 3676 7A360000 		.4byte	0x367a
 9953 367a 05       		.uleb128 0x5
 9954 367b 04       		.byte	0x4
 9955 367c 80360000 		.4byte	0x3680
 9956 3680 15       		.uleb128 0x15
 9957 3681 A51E0000 		.4byte	0x1ea5
 9958 3685 8F360000 		.4byte	0x368f
 9959 3689 16       		.uleb128 0x16
 9960 368a 24360000 		.4byte	0x3624
 9961 368e 00       		.byte	0
 9962 368f 07       		.uleb128 0x7
 9963 3690 4C100000 		.4byte	.LASF734
 9964 3694 35       		.byte	0x35
 9965 3695 6501     		.2byte	0x165
 9966 3697 9B360000 		.4byte	0x369b
 9967 369b 05       		.uleb128 0x5
 9968 369c 04       		.byte	0x4
 9969 369d A1360000 		.4byte	0x36a1
 9970 36a1 15       		.uleb128 0x15
 9971 36a2 BF360000 		.4byte	0x36bf
 9972 36a6 BF360000 		.4byte	0x36bf
 9973 36aa 16       		.uleb128 0x16
 9974 36ab 24360000 		.4byte	0x3624
 9975 36af 16       		.uleb128 0x16
 9976 36b0 E6080000 		.4byte	0x8e6
 9977 36b4 16       		.uleb128 0x16
 9978 36b5 E6080000 		.4byte	0x8e6
 9979 36b9 16       		.uleb128 0x16
 9980 36ba 01090000 		.4byte	0x901
 9981 36be 00       		.byte	0
 9982 36bf 05       		.uleb128 0x5
 9983 36c0 04       		.byte	0x4
 9984 36c1 02360000 		.4byte	0x3602
 9985 36c5 0C       		.uleb128 0xc
 9986 36c6 20       		.byte	0x20
 9987 36c7 37       		.byte	0x37
 9988 36c8 35       		.byte	0x35
 9989 36c9 2E370000 		.4byte	0x372e
 9990 36cd 0D       		.uleb128 0xd
 9991 36ce 62030000 		.4byte	.LASF735
 9992 36d2 37       		.byte	0x37
 9993 36d3 36       		.byte	0x36
 9994 36d4 27090000 		.4byte	0x927
 9995 36d8 00       		.byte	0
 9996 36d9 0D       		.uleb128 0xd
 9997 36da 1A0E0000 		.4byte	.LASF736
 9998 36de 37       		.byte	0x37
 9999 36df 38       		.byte	0x38
 10000 36e0 27090000 		.4byte	0x927
 10001 36e4 04       		.byte	0x4
 10002 36e5 0D       		.uleb128 0xd
 10003 36e6 D2020000 		.4byte	.LASF737
 10004 36ea 37       		.byte	0x37
 10005 36eb 39       		.byte	0x39
 10006 36ec 27090000 		.4byte	0x927
 10007 36f0 08       		.byte	0x8
ARM GAS  C:\Users\PCHAUT~1\AppData\Local\Temp\ccORgsmL.s 			page 177


 10008 36f1 0D       		.uleb128 0xd
 10009 36f2 981B0000 		.4byte	.LASF738
 10010 36f6 37       		.byte	0x37
 10011 36f7 3A       		.byte	0x3a
 10012 36f8 27090000 		.4byte	0x927
 10013 36fc 0C       		.byte	0xc
 10014 36fd 0D       		.uleb128 0xd
 10015 36fe 2D140000 		.4byte	.LASF739
 10016 3702 37       		.byte	0x37
 10017 3703 3C       		.byte	0x3c
 10018 3704 27090000 		.4byte	0x927
 10019 3708 10       		.byte	0x10
 10020 3709 0D       		.uleb128 0xd
 10021 370a 550E0000 		.4byte	.LASF740
 10022 370e 37       		.byte	0x37
 10023 370f 3E       		.byte	0x3e
 10024 3710 27090000 		.4byte	0x927
 10025 3714 14       		.byte	0x14
 10026 3715 0D       		.uleb128 0xd
 10027 3716 680E0000 		.4byte	.LASF741
 10028 371a 37       		.byte	0x37
 10029 371b 3F       		.byte	0x3f
 10030 371c 27090000 		.4byte	0x927
 10031 3720 18       		.byte	0x18
 10032 3721 0D       		.uleb128 0xd
 10033 3722 1C040000 		.4byte	.LASF742
 10034 3726 37       		.byte	0x37
 10035 3727 40       		.byte	0x40
 10036 3728 27090000 		.4byte	0x927
 10037 372c 1C       		.byte	0x1c
 10038 372d 00       		.byte	0
 10039 372e 03       		.uleb128 0x3
 10040 372f 3C1B0000 		.4byte	.LASF743
 10041 3733 37       		.byte	0x37
 10042 3734 41       		.byte	0x41
 10043 3735 C5360000 		.4byte	0x36c5
 10044 3739 0C       		.uleb128 0xc
 10045 373a 20       		.byte	0x20
 10046 373b 37       		.byte	0x37
 10047 373c 46       		.byte	0x46
 10048 373d A2370000 		.4byte	0x37a2
 10049 3741 0D       		.uleb128 0xd
 10050 3742 BD0E0000 		.4byte	.LASF744
 10051 3746 37       		.byte	0x37
 10052 3747 47       		.byte	0x47
 10053 3748 27090000 		.4byte	0x927
 10054 374c 00       		.byte	0
 10055 374d 0D       		.uleb128 0xd
 10056 374e F5110000 		.4byte	.LASF745
 10057 3752 37       		.byte	0x37
 10058 3753 49       		.byte	0x49
 10059 3754 27090000 		.4byte	0x927
 10060 3758 04       		.byte	0x4
 10061 3759 0D       		.uleb128 0xd
 10062 375a 5B1F0000 		.4byte	.LASF746
 10063 375e 37       		.byte	0x37
 10064 375f 4A       		.byte	0x4a
ARM GAS  C:\Users\PCHAUT~1\AppData\Local\Temp\ccORgsmL.s 			page 178


 10065 3760 27090000 		.4byte	0x927
 10066 3764 08       		.byte	0x8
 10067 3765 0D       		.uleb128 0xd
 10068 3766 19120000 		.4byte	.LASF747
 10069 376a 37       		.byte	0x37
 10070 376b 4C       		.byte	0x4c
 10071 376c 27090000 		.4byte	0x927
 10072 3770 0C       		.byte	0xc
 10073 3771 0D       		.uleb128 0xd
 10074 3772 29170000 		.4byte	.LASF748
 10075 3776 37       		.byte	0x37
 10076 3777 4D       		.byte	0x4d
 10077 3778 27090000 		.4byte	0x927
 10078 377c 10       		.byte	0x10
 10079 377d 0D       		.uleb128 0xd
 10080 377e 550E0000 		.4byte	.LASF740
 10081 3782 37       		.byte	0x37
 10082 3783 4F       		.byte	0x4f
 10083 3784 27090000 		.4byte	0x927
 10084 3788 14       		.byte	0x14
 10085 3789 0D       		.uleb128 0xd
 10086 378a 5B070000 		.4byte	.LASF749
 10087 378e 37       		.byte	0x37
 10088 378f 50       		.byte	0x50
 10089 3790 27090000 		.4byte	0x927
 10090 3794 18       		.byte	0x18
 10091 3795 0D       		.uleb128 0xd
 10092 3796 441F0000 		.4byte	.LASF750
 10093 379a 37       		.byte	0x37
 10094 379b 52       		.byte	0x52
 10095 379c 27090000 		.4byte	0x927
 10096 37a0 1C       		.byte	0x1c
 10097 37a1 00       		.byte	0
 10098 37a2 03       		.uleb128 0x3
 10099 37a3 70080000 		.4byte	.LASF751
 10100 37a7 37       		.byte	0x37
 10101 37a8 53       		.byte	0x53
 10102 37a9 39370000 		.4byte	0x3739
 10103 37ad 0C       		.uleb128 0xc
 10104 37ae 20       		.byte	0x20
 10105 37af 37       		.byte	0x37
 10106 37b0 58       		.byte	0x58
 10107 37b1 16380000 		.4byte	0x3816
 10108 37b5 0D       		.uleb128 0xd
 10109 37b6 0A150000 		.4byte	.LASF752
 10110 37ba 37       		.byte	0x37
 10111 37bb 59       		.byte	0x59
 10112 37bc 27090000 		.4byte	0x927
 10113 37c0 00       		.byte	0
 10114 37c1 0D       		.uleb128 0xd
 10115 37c2 F5110000 		.4byte	.LASF745
 10116 37c6 37       		.byte	0x37
 10117 37c7 5B       		.byte	0x5b
 10118 37c8 27090000 		.4byte	0x927
 10119 37cc 04       		.byte	0x4
 10120 37cd 0D       		.uleb128 0xd
 10121 37ce 83180000 		.4byte	.LASF753
ARM GAS  C:\Users\PCHAUT~1\AppData\Local\Temp\ccORgsmL.s 			page 179


 10122 37d2 37       		.byte	0x37
 10123 37d3 5C       		.byte	0x5c
 10124 37d4 27090000 		.4byte	0x927
 10125 37d8 08       		.byte	0x8
 10126 37d9 0D       		.uleb128 0xd
 10127 37da 19120000 		.4byte	.LASF747
 10128 37de 37       		.byte	0x37
 10129 37df 5E       		.byte	0x5e
 10130 37e0 27090000 		.4byte	0x927
 10131 37e4 0C       		.byte	0xc
 10132 37e5 0D       		.uleb128 0xd
 10133 37e6 8C200000 		.4byte	.LASF754
 10134 37ea 37       		.byte	0x37
 10135 37eb 5F       		.byte	0x5f
 10136 37ec 27090000 		.4byte	0x927
 10137 37f0 10       		.byte	0x10
 10138 37f1 0D       		.uleb128 0xd
 10139 37f2 550E0000 		.4byte	.LASF740
 10140 37f6 37       		.byte	0x37
 10141 37f7 61       		.byte	0x61
 10142 37f8 27090000 		.4byte	0x927
 10143 37fc 14       		.byte	0x14
 10144 37fd 0D       		.uleb128 0xd
 10145 37fe 680E0000 		.4byte	.LASF741
 10146 3802 37       		.byte	0x37
 10147 3803 62       		.byte	0x62
 10148 3804 27090000 		.4byte	0x927
 10149 3808 18       		.byte	0x18
 10150 3809 0D       		.uleb128 0xd
 10151 380a 441F0000 		.4byte	.LASF750
 10152 380e 37       		.byte	0x37
 10153 380f 63       		.byte	0x63
 10154 3810 27090000 		.4byte	0x927
 10155 3814 1C       		.byte	0x1c
 10156 3815 00       		.byte	0
 10157 3816 03       		.uleb128 0x3
 10158 3817 1C080000 		.4byte	.LASF755
 10159 381b 37       		.byte	0x37
 10160 381c 64       		.byte	0x64
 10161 381d AD370000 		.4byte	0x37ad
 10162 3821 2C       		.uleb128 0x2c
 10163 3822 00100100 		.4byte	0x11000
 10164 3826 37       		.byte	0x37
 10165 3827 69       		.byte	0x69
 10166 3828 FE3A0000 		.4byte	0x3afe
 10167 382c 0D       		.uleb128 0xd
 10168 382d 27050000 		.4byte	.LASF756
 10169 3831 37       		.byte	0x37
 10170 3832 6A       		.byte	0x6a
 10171 3833 27090000 		.4byte	0x927
 10172 3837 00       		.byte	0
 10173 3838 0D       		.uleb128 0xd
 10174 3839 120D0000 		.4byte	.LASF757
 10175 383d 37       		.byte	0x37
 10176 383e 6B       		.byte	0x6b
 10177 383f 27090000 		.4byte	0x927
 10178 3843 04       		.byte	0x4
ARM GAS  C:\Users\PCHAUT~1\AppData\Local\Temp\ccORgsmL.s 			page 180


 10179 3844 0D       		.uleb128 0xd
 10180 3845 A5070000 		.4byte	.LASF758
 10181 3849 37       		.byte	0x37
 10182 384a 6C       		.byte	0x6c
 10183 384b 27090000 		.4byte	0x927
 10184 384f 08       		.byte	0x8
 10185 3850 0D       		.uleb128 0xd
 10186 3851 07240000 		.4byte	.LASF759
 10187 3855 37       		.byte	0x37
 10188 3856 6D       		.byte	0x6d
 10189 3857 27090000 		.4byte	0x927
 10190 385b 0C       		.byte	0xc
 10191 385c 0D       		.uleb128 0xd
 10192 385d AE130000 		.4byte	.LASF760
 10193 3861 37       		.byte	0x37
 10194 3862 6E       		.byte	0x6e
 10195 3863 27090000 		.4byte	0x927
 10196 3867 10       		.byte	0x10
 10197 3868 0D       		.uleb128 0xd
 10198 3869 DC030000 		.4byte	.LASF761
 10199 386d 37       		.byte	0x37
 10200 386e 6F       		.byte	0x6f
 10201 386f 27090000 		.4byte	0x927
 10202 3873 14       		.byte	0x14
 10203 3874 0D       		.uleb128 0xd
 10204 3875 571A0000 		.4byte	.LASF762
 10205 3879 37       		.byte	0x37
 10206 387a 70       		.byte	0x70
 10207 387b 27090000 		.4byte	0x927
 10208 387f 18       		.byte	0x18
 10209 3880 0D       		.uleb128 0xd
 10210 3881 37080000 		.4byte	.LASF763
 10211 3885 37       		.byte	0x37
 10212 3886 71       		.byte	0x71
 10213 3887 27090000 		.4byte	0x927
 10214 388b 1C       		.byte	0x1c
 10215 388c 0D       		.uleb128 0xd
 10216 388d 2F080000 		.4byte	.LASF764
 10217 3891 37       		.byte	0x37
 10218 3892 73       		.byte	0x73
 10219 3893 27090000 		.4byte	0x927
 10220 3897 20       		.byte	0x20
 10221 3898 0D       		.uleb128 0xd
 10222 3899 1D1A0000 		.4byte	.LASF765
 10223 389d 37       		.byte	0x37
 10224 389e 75       		.byte	0x75
 10225 389f 27090000 		.4byte	0x927
 10226 38a3 24       		.byte	0x24
 10227 38a4 0D       		.uleb128 0xd
 10228 38a5 EB000000 		.4byte	.LASF766
 10229 38a9 37       		.byte	0x37
 10230 38aa 76       		.byte	0x76
 10231 38ab 27090000 		.4byte	0x927
 10232 38af 28       		.byte	0x28
 10233 38b0 0D       		.uleb128 0xd
 10234 38b1 5F1A0000 		.4byte	.LASF767
 10235 38b5 37       		.byte	0x37
ARM GAS  C:\Users\PCHAUT~1\AppData\Local\Temp\ccORgsmL.s 			page 181


 10236 38b6 78       		.byte	0x78
 10237 38b7 27090000 		.4byte	0x927
 10238 38bb 2C       		.byte	0x2c
 10239 38bc 0D       		.uleb128 0xd
 10240 38bd 870F0000 		.4byte	.LASF768
 10241 38c1 37       		.byte	0x37
 10242 38c2 7A       		.byte	0x7a
 10243 38c3 27090000 		.4byte	0x927
 10244 38c7 30       		.byte	0x30
 10245 38c8 0D       		.uleb128 0xd
 10246 38c9 AF220000 		.4byte	.LASF769
 10247 38cd 37       		.byte	0x37
 10248 38ce 7B       		.byte	0x7b
 10249 38cf 27090000 		.4byte	0x927
 10250 38d3 34       		.byte	0x34
 10251 38d4 0D       		.uleb128 0xd
 10252 38d5 10020000 		.4byte	.LASF770
 10253 38d9 37       		.byte	0x37
 10254 38da 7C       		.byte	0x7c
 10255 38db 27090000 		.4byte	0x927
 10256 38df 38       		.byte	0x38
 10257 38e0 11       		.uleb128 0x11
 10258 38e1 43494400 		.ascii	"CID\000"
 10259 38e5 37       		.byte	0x37
 10260 38e6 7D       		.byte	0x7d
 10261 38e7 27090000 		.4byte	0x927
 10262 38eb 3C       		.byte	0x3c
 10263 38ec 0D       		.uleb128 0xd
 10264 38ed 0D110000 		.4byte	.LASF771
 10265 38f1 37       		.byte	0x37
 10266 38f2 7E       		.byte	0x7e
 10267 38f3 0E3B0000 		.4byte	0x3b0e
 10268 38f7 40       		.byte	0x40
 10269 38f8 13       		.uleb128 0x13
 10270 38f9 5D210000 		.4byte	.LASF772
 10271 38fd 37       		.byte	0x37
 10272 38fe 7F       		.byte	0x7f
 10273 38ff 27090000 		.4byte	0x927
 10274 3903 0001     		.2byte	0x100
 10275 3905 13       		.uleb128 0x13
 10276 3906 5D020000 		.4byte	.LASF773
 10277 390a 37       		.byte	0x37
 10278 390b 81       		.byte	0x81
 10279 390c 9C160000 		.4byte	0x169c
 10280 3910 0401     		.2byte	0x104
 10281 3912 13       		.uleb128 0x13
 10282 3913 AE140000 		.4byte	.LASF774
 10283 3917 37       		.byte	0x37
 10284 3918 83       		.byte	0x83
 10285 3919 233B0000 		.4byte	0x3b23
 10286 391d 4001     		.2byte	0x140
 10287 391f 13       		.uleb128 0x13
 10288 3920 22180000 		.4byte	.LASF775
 10289 3924 37       		.byte	0x37
 10290 3925 84       		.byte	0x84
 10291 3926 27090000 		.4byte	0x927
 10292 392a 0004     		.2byte	0x400
ARM GAS  C:\Users\PCHAUT~1\AppData\Local\Temp\ccORgsmL.s 			page 182


 10293 392c 13       		.uleb128 0x13
 10294 392d 9C230000 		.4byte	.LASF776
 10295 3931 37       		.byte	0x37
 10296 3932 85       		.byte	0x85
 10297 3933 27090000 		.4byte	0x927
 10298 3937 0404     		.2byte	0x404
 10299 3939 13       		.uleb128 0x13
 10300 393a 4C040000 		.4byte	.LASF777
 10301 393e 37       		.byte	0x37
 10302 393f 86       		.byte	0x86
 10303 3940 27090000 		.4byte	0x927
 10304 3944 0804     		.2byte	0x408
 10305 3946 13       		.uleb128 0x13
 10306 3947 D3200000 		.4byte	.LASF778
 10307 394b 37       		.byte	0x37
 10308 394c 88       		.byte	0x88
 10309 394d 27090000 		.4byte	0x927
 10310 3951 0C04     		.2byte	0x40c
 10311 3953 13       		.uleb128 0x13
 10312 3954 1D030000 		.4byte	.LASF779
 10313 3958 37       		.byte	0x37
 10314 3959 89       		.byte	0x89
 10315 395a 27090000 		.4byte	0x927
 10316 395e 1004     		.2byte	0x410
 10317 3960 13       		.uleb128 0x13
 10318 3961 2F040000 		.4byte	.LASF780
 10319 3965 37       		.byte	0x37
 10320 3966 8B       		.byte	0x8b
 10321 3967 27090000 		.4byte	0x927
 10322 396b 1404     		.2byte	0x414
 10323 396d 13       		.uleb128 0x13
 10324 396e 210D0000 		.4byte	.LASF781
 10325 3972 37       		.byte	0x37
 10326 3973 8D       		.byte	0x8d
 10327 3974 27090000 		.4byte	0x927
 10328 3978 1804     		.2byte	0x418
 10329 397a 13       		.uleb128 0x13
 10330 397b B01C0000 		.4byte	.LASF782
 10331 397f 37       		.byte	0x37
 10332 3980 8F       		.byte	0x8f
 10333 3981 383B0000 		.4byte	0x3b38
 10334 3985 1C04     		.2byte	0x41c
 10335 3987 13       		.uleb128 0x13
 10336 3988 CD020000 		.4byte	.LASF783
 10337 398c 37       		.byte	0x37
 10338 398d 90       		.byte	0x90
 10339 398e 27090000 		.4byte	0x927
 10340 3992 4004     		.2byte	0x440
 10341 3994 13       		.uleb128 0x13
 10342 3995 681E0000 		.4byte	.LASF784
 10343 3999 37       		.byte	0x37
 10344 399a 92       		.byte	0x92
 10345 399b 4D3B0000 		.4byte	0x3b4d
 10346 399f 4404     		.2byte	0x444
 10347 39a1 2D       		.uleb128 0x2d
 10348 39a2 686300   		.ascii	"hc\000"
 10349 39a5 37       		.byte	0x37
ARM GAS  C:\Users\PCHAUT~1\AppData\Local\Temp\ccORgsmL.s 			page 183


 10350 39a6 93       		.byte	0x93
 10351 39a7 523B0000 		.4byte	0x3b52
 10352 39ab 0005     		.2byte	0x500
 10353 39ad 13       		.uleb128 0x13
 10354 39ae 1C210000 		.4byte	.LASF785
 10355 39b2 37       		.byte	0x37
 10356 39b3 94       		.byte	0x94
 10357 39b4 723B0000 		.4byte	0x3b72
 10358 39b8 0007     		.2byte	0x700
 10359 39ba 13       		.uleb128 0x13
 10360 39bb 411A0000 		.4byte	.LASF786
 10361 39bf 37       		.byte	0x37
 10362 39c0 95       		.byte	0x95
 10363 39c1 27090000 		.4byte	0x927
 10364 39c5 0008     		.2byte	0x800
 10365 39c7 13       		.uleb128 0x13
 10366 39c8 27220000 		.4byte	.LASF787
 10367 39cc 37       		.byte	0x37
 10368 39cd 96       		.byte	0x96
 10369 39ce 27090000 		.4byte	0x927
 10370 39d2 0408     		.2byte	0x804
 10371 39d4 13       		.uleb128 0x13
 10372 39d5 DB050000 		.4byte	.LASF788
 10373 39d9 37       		.byte	0x37
 10374 39da 97       		.byte	0x97
 10375 39db 27090000 		.4byte	0x927
 10376 39df 0808     		.2byte	0x808
 10377 39e1 13       		.uleb128 0x13
 10378 39e2 15050000 		.4byte	.LASF789
 10379 39e6 37       		.byte	0x37
 10380 39e7 98       		.byte	0x98
 10381 39e8 27090000 		.4byte	0x927
 10382 39ec 0C08     		.2byte	0x80c
 10383 39ee 13       		.uleb128 0x13
 10384 39ef 0A0D0000 		.4byte	.LASF790
 10385 39f3 37       		.byte	0x37
 10386 39f4 99       		.byte	0x99
 10387 39f5 27090000 		.4byte	0x927
 10388 39f9 1008     		.2byte	0x810
 10389 39fb 13       		.uleb128 0x13
 10390 39fc 7C1F0000 		.4byte	.LASF791
 10391 3a00 37       		.byte	0x37
 10392 3a01 9B       		.byte	0x9b
 10393 3a02 27090000 		.4byte	0x927
 10394 3a06 1408     		.2byte	0x814
 10395 3a08 13       		.uleb128 0x13
 10396 3a09 F11F0000 		.4byte	.LASF792
 10397 3a0d 37       		.byte	0x37
 10398 3a0e 9D       		.byte	0x9d
 10399 3a0f 27090000 		.4byte	0x927
 10400 3a13 1808     		.2byte	0x818
 10401 3a15 13       		.uleb128 0x13
 10402 3a16 3E1D0000 		.4byte	.LASF793
 10403 3a1a 37       		.byte	0x37
 10404 3a1b 9F       		.byte	0x9f
 10405 3a1c 27090000 		.4byte	0x927
 10406 3a20 1C08     		.2byte	0x81c
ARM GAS  C:\Users\PCHAUT~1\AppData\Local\Temp\ccORgsmL.s 			page 184


 10407 3a22 13       		.uleb128 0x13
 10408 3a23 59060000 		.4byte	.LASF794
 10409 3a27 37       		.byte	0x37
 10410 3a28 A1       		.byte	0xa1
 10411 3a29 27090000 		.4byte	0x927
 10412 3a2d 2008     		.2byte	0x820
 10413 3a2f 13       		.uleb128 0x13
 10414 3a30 52050000 		.4byte	.LASF795
 10415 3a34 37       		.byte	0x37
 10416 3a35 A2       		.byte	0xa2
 10417 3a36 27090000 		.4byte	0x927
 10418 3a3a 2408     		.2byte	0x824
 10419 3a3c 13       		.uleb128 0x13
 10420 3a3d 4E1A0000 		.4byte	.LASF796
 10421 3a41 37       		.byte	0x37
 10422 3a42 A3       		.byte	0xa3
 10423 3a43 27090000 		.4byte	0x927
 10424 3a47 2808     		.2byte	0x828
 10425 3a49 13       		.uleb128 0x13
 10426 3a4a A50F0000 		.4byte	.LASF797
 10427 3a4e 37       		.byte	0x37
 10428 3a4f A5       		.byte	0xa5
 10429 3a50 27090000 		.4byte	0x927
 10430 3a54 2C08     		.2byte	0x82c
 10431 3a56 13       		.uleb128 0x13
 10432 3a57 0B070000 		.4byte	.LASF798
 10433 3a5b 37       		.byte	0x37
 10434 3a5c A7       		.byte	0xa7
 10435 3a5d 27090000 		.4byte	0x927
 10436 3a61 3008     		.2byte	0x830
 10437 3a63 13       		.uleb128 0x13
 10438 3a64 B20E0000 		.4byte	.LASF799
 10439 3a68 37       		.byte	0x37
 10440 3a69 A8       		.byte	0xa8
 10441 3a6a 27090000 		.4byte	0x927
 10442 3a6e 3408     		.2byte	0x834
 10443 3a70 13       		.uleb128 0x13
 10444 3a71 19070000 		.4byte	.LASF800
 10445 3a75 37       		.byte	0x37
 10446 3a76 AA       		.byte	0xaa
 10447 3a77 27090000 		.4byte	0x927
 10448 3a7b 3808     		.2byte	0x838
 10449 3a7d 13       		.uleb128 0x13
 10450 3a7e 31070000 		.4byte	.LASF801
 10451 3a82 37       		.byte	0x37
 10452 3a83 AB       		.byte	0xab
 10453 3a84 27090000 		.4byte	0x927
 10454 3a88 3C08     		.2byte	0x83c
 10455 3a8a 13       		.uleb128 0x13
 10456 3a8b C3070000 		.4byte	.LASF802
 10457 3a8f 37       		.byte	0x37
 10458 3a90 AC       		.byte	0xac
 10459 3a91 873B0000 		.4byte	0x3b87
 10460 3a95 4008     		.2byte	0x840
 10461 3a97 13       		.uleb128 0x13
 10462 3a98 370E0000 		.4byte	.LASF803
 10463 3a9c 37       		.byte	0x37
ARM GAS  C:\Users\PCHAUT~1\AppData\Local\Temp\ccORgsmL.s 			page 185


 10464 3a9d AD       		.byte	0xad
 10465 3a9e 873B0000 		.4byte	0x3b87
 10466 3aa2 8008     		.2byte	0x880
 10467 3aa4 13       		.uleb128 0x13
 10468 3aa5 06120000 		.4byte	.LASF804
 10469 3aa9 37       		.byte	0x37
 10470 3aaa AE       		.byte	0xae
 10471 3aab 873B0000 		.4byte	0x3b87
 10472 3aaf C008     		.2byte	0x8c0
 10473 3ab1 2D       		.uleb128 0x2d
 10474 3ab2 696500   		.ascii	"ie\000"
 10475 3ab5 37       		.byte	0x37
 10476 3ab6 AF       		.byte	0xaf
 10477 3ab7 8C3B0000 		.4byte	0x3b8c
 10478 3abb 0009     		.2byte	0x900
 10479 3abd 2D       		.uleb128 0x2d
 10480 3abe 6F6500   		.ascii	"oe\000"
 10481 3ac1 37       		.byte	0x37
 10482 3ac2 B0       		.byte	0xb0
 10483 3ac3 9C3B0000 		.4byte	0x3b9c
 10484 3ac7 000B     		.2byte	0xb00
 10485 3ac9 13       		.uleb128 0x13
 10486 3aca 920C0000 		.4byte	.LASF805
 10487 3ace 37       		.byte	0x37
 10488 3acf B1       		.byte	0xb1
 10489 3ad0 723B0000 		.4byte	0x3b72
 10490 3ad4 000D     		.2byte	0xd00
 10491 3ad6 13       		.uleb128 0x13
 10492 3ad7 4D220000 		.4byte	.LASF806
 10493 3adb 37       		.byte	0x37
 10494 3adc B2       		.byte	0xb2
 10495 3add 27090000 		.4byte	0x927
 10496 3ae1 000E     		.2byte	0xe00
 10497 3ae3 13       		.uleb128 0x13
 10498 3ae4 B5170000 		.4byte	.LASF807
 10499 3ae8 37       		.byte	0x37
 10500 3ae9 B4       		.byte	0xb4
 10501 3aea BC3B0000 		.4byte	0x3bbc
 10502 3aee 040E     		.2byte	0xe04
 10503 3af0 13       		.uleb128 0x13
 10504 3af1 D50A0000 		.4byte	.LASF306
 10505 3af5 37       		.byte	0x37
 10506 3af6 B5       		.byte	0xb5
 10507 3af7 D83B0000 		.4byte	0x3bd8
 10508 3afb 0010     		.2byte	0x1000
 10509 3afd 00       		.byte	0
 10510 3afe 0A       		.uleb128 0xa
 10511 3aff 27090000 		.4byte	0x927
 10512 3b03 0E3B0000 		.4byte	0x3b0e
 10513 3b07 0B       		.uleb128 0xb
 10514 3b08 37000000 		.4byte	0x37
 10515 3b0c 2F       		.byte	0x2f
 10516 3b0d 00       		.byte	0
 10517 3b0e 1A       		.uleb128 0x1a
 10518 3b0f FE3A0000 		.4byte	0x3afe
 10519 3b13 0A       		.uleb128 0xa
 10520 3b14 27090000 		.4byte	0x927
ARM GAS  C:\Users\PCHAUT~1\AppData\Local\Temp\ccORgsmL.s 			page 186


 10521 3b18 233B0000 		.4byte	0x3b23
 10522 3b1c 0B       		.uleb128 0xb
 10523 3b1d 37000000 		.4byte	0x37
 10524 3b21 AF       		.byte	0xaf
 10525 3b22 00       		.byte	0
 10526 3b23 1A       		.uleb128 0x1a
 10527 3b24 133B0000 		.4byte	0x3b13
 10528 3b28 0A       		.uleb128 0xa
 10529 3b29 27090000 		.4byte	0x927
 10530 3b2d 383B0000 		.4byte	0x3b38
 10531 3b31 0B       		.uleb128 0xb
 10532 3b32 37000000 		.4byte	0x37
 10533 3b36 08       		.byte	0x8
 10534 3b37 00       		.byte	0
 10535 3b38 1A       		.uleb128 0x1a
 10536 3b39 283B0000 		.4byte	0x3b28
 10537 3b3d 0A       		.uleb128 0xa
 10538 3b3e 27090000 		.4byte	0x927
 10539 3b42 4D3B0000 		.4byte	0x3b4d
 10540 3b46 0B       		.uleb128 0xb
 10541 3b47 37000000 		.4byte	0x37
 10542 3b4b 2E       		.byte	0x2e
 10543 3b4c 00       		.byte	0
 10544 3b4d 1A       		.uleb128 0x1a
 10545 3b4e 3D3B0000 		.4byte	0x3b3d
 10546 3b52 0A       		.uleb128 0xa
 10547 3b53 2E370000 		.4byte	0x372e
 10548 3b57 623B0000 		.4byte	0x3b62
 10549 3b5b 0B       		.uleb128 0xb
 10550 3b5c 37000000 		.4byte	0x37
 10551 3b60 0F       		.byte	0xf
 10552 3b61 00       		.byte	0
 10553 3b62 0A       		.uleb128 0xa
 10554 3b63 27090000 		.4byte	0x927
 10555 3b67 723B0000 		.4byte	0x3b72
 10556 3b6b 0B       		.uleb128 0xb
 10557 3b6c 37000000 		.4byte	0x37
 10558 3b70 3F       		.byte	0x3f
 10559 3b71 00       		.byte	0
 10560 3b72 1A       		.uleb128 0x1a
 10561 3b73 623B0000 		.4byte	0x3b62
 10562 3b77 0A       		.uleb128 0xa
 10563 3b78 27090000 		.4byte	0x927
 10564 3b7c 873B0000 		.4byte	0x3b87
 10565 3b80 0B       		.uleb128 0xb
 10566 3b81 37000000 		.4byte	0x37
 10567 3b85 0F       		.byte	0xf
 10568 3b86 00       		.byte	0
 10569 3b87 1A       		.uleb128 0x1a
 10570 3b88 773B0000 		.4byte	0x3b77
 10571 3b8c 0A       		.uleb128 0xa
 10572 3b8d A2370000 		.4byte	0x37a2
 10573 3b91 9C3B0000 		.4byte	0x3b9c
 10574 3b95 0B       		.uleb128 0xb
 10575 3b96 37000000 		.4byte	0x37
 10576 3b9a 0F       		.byte	0xf
 10577 3b9b 00       		.byte	0
ARM GAS  C:\Users\PCHAUT~1\AppData\Local\Temp\ccORgsmL.s 			page 187


 10578 3b9c 0A       		.uleb128 0xa
 10579 3b9d 16380000 		.4byte	0x3816
 10580 3ba1 AC3B0000 		.4byte	0x3bac
 10581 3ba5 0B       		.uleb128 0xb
 10582 3ba6 37000000 		.4byte	0x37
 10583 3baa 0F       		.byte	0xf
 10584 3bab 00       		.byte	0
 10585 3bac 0A       		.uleb128 0xa
 10586 3bad 27090000 		.4byte	0x927
 10587 3bb1 BC3B0000 		.4byte	0x3bbc
 10588 3bb5 0B       		.uleb128 0xb
 10589 3bb6 37000000 		.4byte	0x37
 10590 3bba 7E       		.byte	0x7e
 10591 3bbb 00       		.byte	0
 10592 3bbc 1A       		.uleb128 0x1a
 10593 3bbd AC3B0000 		.4byte	0x3bac
 10594 3bc1 0A       		.uleb128 0xa
 10595 3bc2 27090000 		.4byte	0x927
 10596 3bc6 D83B0000 		.4byte	0x3bd8
 10597 3bca 0B       		.uleb128 0xb
 10598 3bcb 37000000 		.4byte	0x37
 10599 3bcf 0F       		.byte	0xf
 10600 3bd0 2E       		.uleb128 0x2e
 10601 3bd1 37000000 		.4byte	0x37
 10602 3bd5 FF03     		.2byte	0x3ff
 10603 3bd7 00       		.byte	0
 10604 3bd8 1A       		.uleb128 0x1a
 10605 3bd9 C13B0000 		.4byte	0x3bc1
 10606 3bdd 03       		.uleb128 0x3
 10607 3bde 34240000 		.4byte	.LASF808
 10608 3be2 37       		.byte	0x37
 10609 3be3 B6       		.byte	0xb6
 10610 3be4 21380000 		.4byte	0x3821
 10611 3be8 0C       		.uleb128 0xc
 10612 3be9 0C       		.byte	0xc
 10613 3bea 36       		.byte	0x36
 10614 3beb C6       		.byte	0xc6
 10615 3bec 153C0000 		.4byte	0x3c15
 10616 3bf0 0D       		.uleb128 0xd
 10617 3bf1 660A0000 		.4byte	.LASF809
 10618 3bf5 36       		.byte	0x36
 10619 3bf6 C7       		.byte	0xc7
 10620 3bf7 1C090000 		.4byte	0x91c
 10621 3bfb 00       		.byte	0
 10622 3bfc 0D       		.uleb128 0xd
 10623 3bfd 720C0000 		.4byte	.LASF810
 10624 3c01 36       		.byte	0x36
 10625 3c02 C8       		.byte	0xc8
 10626 3c03 1C090000 		.4byte	0x91c
 10627 3c07 04       		.byte	0x4
 10628 3c08 0D       		.uleb128 0xd
 10629 3c09 0C100000 		.4byte	.LASF811
 10630 3c0d 36       		.byte	0x36
 10631 3c0e C9       		.byte	0xc9
 10632 3c0f 1C090000 		.4byte	0x91c
 10633 3c13 08       		.byte	0x8
 10634 3c14 00       		.byte	0
ARM GAS  C:\Users\PCHAUT~1\AppData\Local\Temp\ccORgsmL.s 			page 188


 10635 3c15 03       		.uleb128 0x3
 10636 3c16 7F0C0000 		.4byte	.LASF812
 10637 3c1a 36       		.byte	0x36
 10638 3c1b CA       		.byte	0xca
 10639 3c1c E83B0000 		.4byte	0x3be8
 10640 3c20 0F       		.uleb128 0xf
 10641 3c21 153C0000 		.4byte	0x3c15
 10642 3c25 0C       		.uleb128 0xc
 10643 3c26 04       		.byte	0x4
 10644 3c27 36       		.byte	0x36
 10645 3c28 DD       		.byte	0xdd
 10646 3c29 3A3C0000 		.4byte	0x3c3a
 10647 3c2d 0D       		.uleb128 0xd
 10648 3c2e 47220000 		.4byte	.LASF813
 10649 3c32 36       		.byte	0x36
 10650 3c33 E1       		.byte	0xe1
 10651 3c34 BE1C0000 		.4byte	0x1cbe
 10652 3c38 00       		.byte	0
 10653 3c39 00       		.byte	0
 10654 3c3a 0C       		.uleb128 0xc
 10655 3c3b 04       		.byte	0x4
 10656 3c3c 36       		.byte	0x36
 10657 3c3d E3       		.byte	0xe3
 10658 3c3e 4F3C0000 		.4byte	0x3c4f
 10659 3c42 0D       		.uleb128 0xd
 10660 3c43 E40A0000 		.4byte	.LASF496
 10661 3c47 36       		.byte	0x36
 10662 3c48 E7       		.byte	0xe7
 10663 3c49 4F3C0000 		.4byte	0x3c4f
 10664 3c4d 00       		.byte	0
 10665 3c4e 00       		.byte	0
 10666 3c4f 05       		.uleb128 0x5
 10667 3c50 04       		.byte	0x4
 10668 3c51 9A1C0000 		.4byte	0x1c9a
 10669 3c55 08       		.uleb128 0x8
 10670 3c56 04       		.byte	0x4
 10671 3c57 36       		.byte	0x36
 10672 3c58 DC       		.byte	0xdc
 10673 3c59 743C0000 		.4byte	0x3c74
 10674 3c5d 09       		.uleb128 0x9
 10675 3c5e A31E0000 		.4byte	.LASF814
 10676 3c62 36       		.byte	0x36
 10677 3c63 E2       		.byte	0xe2
 10678 3c64 253C0000 		.4byte	0x3c25
 10679 3c68 09       		.uleb128 0x9
 10680 3c69 9E1D0000 		.4byte	.LASF815
 10681 3c6d 36       		.byte	0x36
 10682 3c6e E8       		.byte	0xe8
 10683 3c6f 3A3C0000 		.4byte	0x3c3a
 10684 3c73 00       		.byte	0
 10685 3c74 0C       		.uleb128 0xc
 10686 3c75 14       		.byte	0x14
 10687 3c76 36       		.byte	0x36
 10688 3c77 CF       		.byte	0xcf
 10689 3c78 B93C0000 		.4byte	0x3cb9
 10690 3c7c 0D       		.uleb128 0xd
 10691 3c7d 00080000 		.4byte	.LASF816
ARM GAS  C:\Users\PCHAUT~1\AppData\Local\Temp\ccORgsmL.s 			page 189


 10692 3c81 36       		.byte	0x36
 10693 3c82 D3       		.byte	0xd3
 10694 3c83 A51E0000 		.4byte	0x1ea5
 10695 3c87 00       		.byte	0
 10696 3c88 0D       		.uleb128 0xd
 10697 3c89 31130000 		.4byte	.LASF817
 10698 3c8d 36       		.byte	0x36
 10699 3c8e D7       		.byte	0xd7
 10700 3c8f 2C000000 		.4byte	0x2c
 10701 3c93 04       		.byte	0x4
 10702 3c94 0D       		.uleb128 0xd
 10703 3c95 390C0000 		.4byte	.LASF818
 10704 3c99 36       		.byte	0x36
 10705 3c9a DB       		.byte	0xdb
 10706 3c9b 2C000000 		.4byte	0x2c
 10707 3c9f 08       		.byte	0x8
 10708 3ca0 0D       		.uleb128 0xd
 10709 3ca1 BE080000 		.4byte	.LASF542
 10710 3ca5 36       		.byte	0x36
 10711 3ca6 E9       		.byte	0xe9
 10712 3ca7 553C0000 		.4byte	0x3c55
 10713 3cab 0C       		.byte	0xc
 10714 3cac 0D       		.uleb128 0xd
 10715 3cad 24100000 		.4byte	.LASF819
 10716 3cb1 36       		.byte	0x36
 10717 3cb2 ED       		.byte	0xed
 10718 3cb3 2C000000 		.4byte	0x2c
 10719 3cb7 10       		.byte	0x10
 10720 3cb8 00       		.byte	0
 10721 3cb9 03       		.uleb128 0x3
 10722 3cba 15110000 		.4byte	.LASF820
 10723 3cbe 36       		.byte	0x36
 10724 3cbf EE       		.byte	0xee
 10725 3cc0 743C0000 		.4byte	0x3c74
 10726 3cc4 1C       		.uleb128 0x1c
 10727 3cc5 04       		.byte	0x4
 10728 3cc6 36       		.byte	0x36
 10729 3cc7 0101     		.2byte	0x101
 10730 3cc9 DB3C0000 		.4byte	0x3cdb
 10731 3ccd 18       		.uleb128 0x18
 10732 3cce A20C0000 		.4byte	.LASF821
 10733 3cd2 36       		.byte	0x36
 10734 3cd3 0501     		.2byte	0x105
 10735 3cd5 891C0000 		.4byte	0x1c89
 10736 3cd9 00       		.byte	0
 10737 3cda 00       		.byte	0
 10738 3cdb 1C       		.uleb128 0x1c
 10739 3cdc 04       		.byte	0x4
 10740 3cdd 36       		.byte	0x36
 10741 3cde 0701     		.2byte	0x107
 10742 3ce0 F23C0000 		.4byte	0x3cf2
 10743 3ce4 18       		.uleb128 0x18
 10744 3ce5 581E0000 		.4byte	.LASF497
 10745 3ce9 36       		.byte	0x36
 10746 3cea 0B01     		.2byte	0x10b
 10747 3cec F23C0000 		.4byte	0x3cf2
 10748 3cf0 00       		.byte	0
ARM GAS  C:\Users\PCHAUT~1\AppData\Local\Temp\ccORgsmL.s 			page 190


 10749 3cf1 00       		.byte	0
 10750 3cf2 05       		.uleb128 0x5
 10751 3cf3 04       		.byte	0x4
 10752 3cf4 8F1C0000 		.4byte	0x1c8f
 10753 3cf8 1D       		.uleb128 0x1d
 10754 3cf9 04       		.byte	0x4
 10755 3cfa 36       		.byte	0x36
 10756 3cfb 0001     		.2byte	0x100
 10757 3cfd 1A3D0000 		.4byte	0x3d1a
 10758 3d01 1E       		.uleb128 0x1e
 10759 3d02 A31E0000 		.4byte	.LASF814
 10760 3d06 36       		.byte	0x36
 10761 3d07 0601     		.2byte	0x106
 10762 3d09 C43C0000 		.4byte	0x3cc4
 10763 3d0d 1E       		.uleb128 0x1e
 10764 3d0e 9E1D0000 		.4byte	.LASF815
 10765 3d12 36       		.byte	0x36
 10766 3d13 0C01     		.2byte	0x10c
 10767 3d15 DB3C0000 		.4byte	0x3cdb
 10768 3d19 00       		.byte	0
 10769 3d1a 0C       		.uleb128 0xc
 10770 3d1b 14       		.byte	0x14
 10771 3d1c 36       		.byte	0x36
 10772 3d1d F3       		.byte	0xf3
 10773 3d1e 613D0000 		.4byte	0x3d61
 10774 3d22 0D       		.uleb128 0xd
 10775 3d23 30060000 		.4byte	.LASF822
 10776 3d27 36       		.byte	0x36
 10777 3d28 F7       		.byte	0xf7
 10778 3d29 A51E0000 		.4byte	0x1ea5
 10779 3d2d 00       		.byte	0
 10780 3d2e 0D       		.uleb128 0xd
 10781 3d2f 26140000 		.4byte	.LASF823
 10782 3d33 36       		.byte	0x36
 10783 3d34 FB       		.byte	0xfb
 10784 3d35 2C000000 		.4byte	0x2c
 10785 3d39 04       		.byte	0x4
 10786 3d3a 0D       		.uleb128 0xd
 10787 3d3b 82080000 		.4byte	.LASF824
 10788 3d3f 36       		.byte	0x36
 10789 3d40 FF       		.byte	0xff
 10790 3d41 2C000000 		.4byte	0x2c
 10791 3d45 08       		.byte	0x8
 10792 3d46 18       		.uleb128 0x18
 10793 3d47 BE080000 		.4byte	.LASF542
 10794 3d4b 36       		.byte	0x36
 10795 3d4c 0D01     		.2byte	0x10d
 10796 3d4e F83C0000 		.4byte	0x3cf8
 10797 3d52 0C       		.byte	0xc
 10798 3d53 18       		.uleb128 0x18
 10799 3d54 24100000 		.4byte	.LASF819
 10800 3d58 36       		.byte	0x36
 10801 3d59 1101     		.2byte	0x111
 10802 3d5b 2C000000 		.4byte	0x2c
 10803 3d5f 10       		.byte	0x10
 10804 3d60 00       		.byte	0
 10805 3d61 07       		.uleb128 0x7
ARM GAS  C:\Users\PCHAUT~1\AppData\Local\Temp\ccORgsmL.s 			page 191


 10806 3d62 9C1C0000 		.4byte	.LASF825
 10807 3d66 36       		.byte	0x36
 10808 3d67 1201     		.2byte	0x112
 10809 3d69 1A3D0000 		.4byte	0x3d1a
 10810 3d6d 1C       		.uleb128 0x1c
 10811 3d6e 24       		.byte	0x24
 10812 3d6f 36       		.byte	0x36
 10813 3d70 1801     		.2byte	0x118
 10814 3d72 F93D0000 		.4byte	0x3df9
 10815 3d76 18       		.uleb128 0x18
 10816 3d77 82170000 		.4byte	.LASF826
 10817 3d7b 36       		.byte	0x36
 10818 3d7c 1C01     		.2byte	0x11c
 10819 3d7e 1C090000 		.4byte	0x91c
 10820 3d82 00       		.byte	0
 10821 3d83 18       		.uleb128 0x18
 10822 3d84 B60A0000 		.4byte	.LASF827
 10823 3d88 36       		.byte	0x36
 10824 3d89 2701     		.2byte	0x127
 10825 3d8b 2A360000 		.4byte	0x362a
 10826 3d8f 04       		.byte	0x4
 10827 3d90 18       		.uleb128 0x18
 10828 3d91 7D180000 		.4byte	.LASF828
 10829 3d95 36       		.byte	0x36
 10830 3d96 2D01     		.2byte	0x12d
 10831 3d98 2A360000 		.4byte	0x362a
 10832 3d9c 08       		.byte	0x8
 10833 3d9d 18       		.uleb128 0x18
 10834 3d9e 1A0D0000 		.4byte	.LASF829
 10835 3da2 36       		.byte	0x36
 10836 3da3 3301     		.2byte	0x133
 10837 3da5 2A360000 		.4byte	0x362a
 10838 3da9 0C       		.byte	0xc
 10839 3daa 18       		.uleb128 0x18
 10840 3dab 88240000 		.4byte	.LASF830
 10841 3daf 36       		.byte	0x36
 10842 3db0 3901     		.2byte	0x139
 10843 3db2 01090000 		.4byte	0x901
 10844 3db6 10       		.byte	0x10
 10845 3db7 18       		.uleb128 0x18
 10846 3db8 820D0000 		.4byte	.LASF831
 10847 3dbc 36       		.byte	0x36
 10848 3dbd 3F01     		.2byte	0x13f
 10849 3dbf 01090000 		.4byte	0x901
 10850 3dc3 12       		.byte	0x12
 10851 3dc4 18       		.uleb128 0x18
 10852 3dc5 20230000 		.4byte	.LASF832
 10853 3dc9 36       		.byte	0x36
 10854 3dca 4401     		.2byte	0x144
 10855 3dcc F93D0000 		.4byte	0x3df9
 10856 3dd0 14       		.byte	0x14
 10857 3dd1 18       		.uleb128 0x18
 10858 3dd2 FB0E0000 		.4byte	.LASF833
 10859 3dd6 36       		.byte	0x36
 10860 3dd7 4901     		.2byte	0x149
 10861 3dd9 FF3D0000 		.4byte	0x3dff
 10862 3ddd 18       		.byte	0x18
ARM GAS  C:\Users\PCHAUT~1\AppData\Local\Temp\ccORgsmL.s 			page 192


 10863 3dde 18       		.uleb128 0x18
 10864 3ddf 81120000 		.4byte	.LASF834
 10865 3de3 36       		.byte	0x36
 10866 3de4 5001     		.2byte	0x150
 10867 3de6 01090000 		.4byte	0x901
 10868 3dea 1C       		.byte	0x1c
 10869 3deb 18       		.uleb128 0x18
 10870 3dec A5220000 		.4byte	.LASF835
 10871 3df0 36       		.byte	0x36
 10872 3df1 5601     		.2byte	0x156
 10873 3df3 891C0000 		.4byte	0x1c89
 10874 3df7 20       		.byte	0x20
 10875 3df8 00       		.byte	0
 10876 3df9 05       		.uleb128 0x5
 10877 3dfa 04       		.byte	0x4
 10878 3dfb B93C0000 		.4byte	0x3cb9
 10879 3dff 05       		.uleb128 0x5
 10880 3e00 04       		.byte	0x4
 10881 3e01 613D0000 		.4byte	0x3d61
 10882 3e05 07       		.uleb128 0x7
 10883 3e06 281E0000 		.4byte	.LASF836
 10884 3e0a 36       		.byte	0x36
 10885 3e0b 5701     		.2byte	0x157
 10886 3e0d 6D3D0000 		.4byte	0x3d6d
 10887 3e11 0F       		.uleb128 0xf
 10888 3e12 053E0000 		.4byte	0x3e05
 10889 3e16 1C       		.uleb128 0x1c
 10890 3e17 10       		.byte	0x10
 10891 3e18 36       		.byte	0x36
 10892 3e19 5C01     		.2byte	0x15c
 10893 3e1b 543E0000 		.4byte	0x3e54
 10894 3e1f 18       		.uleb128 0x18
 10895 3e20 1E050000 		.4byte	.LASF837
 10896 3e24 36       		.byte	0x36
 10897 3e25 6101     		.2byte	0x161
 10898 3e27 4C360000 		.4byte	0x364c
 10899 3e2b 00       		.byte	0
 10900 3e2c 18       		.uleb128 0x18
 10901 3e2d B2210000 		.4byte	.LASF838
 10902 3e31 36       		.byte	0x36
 10903 3e32 6601     		.2byte	0x166
 10904 3e34 8F360000 		.4byte	0x368f
 10905 3e38 04       		.byte	0x4
 10906 3e39 18       		.uleb128 0x18
 10907 3e3a 03130000 		.4byte	.LASF839
 10908 3e3e 36       		.byte	0x36
 10909 3e3f 6C01     		.2byte	0x16c
 10910 3e41 6E360000 		.4byte	0x366e
 10911 3e45 08       		.byte	0x8
 10912 3e46 18       		.uleb128 0x18
 10913 3e47 3C020000 		.4byte	.LASF840
 10914 3e4b 36       		.byte	0x36
 10915 3e4c 7001     		.2byte	0x170
 10916 3e4e 07360000 		.4byte	0x3607
 10917 3e52 0C       		.byte	0xc
 10918 3e53 00       		.byte	0
 10919 3e54 07       		.uleb128 0x7
ARM GAS  C:\Users\PCHAUT~1\AppData\Local\Temp\ccORgsmL.s 			page 193


 10920 3e55 0F120000 		.4byte	.LASF841
 10921 3e59 36       		.byte	0x36
 10922 3e5a 7201     		.2byte	0x172
 10923 3e5c 163E0000 		.4byte	0x3e16
 10924 3e60 0F       		.uleb128 0xf
 10925 3e61 543E0000 		.4byte	0x3e54
 10926 3e65 05       		.uleb128 0x5
 10927 3e66 04       		.byte	0x4
 10928 3e67 603E0000 		.4byte	0x3e60
 10929 3e6b 0A       		.uleb128 0xa
 10930 3e6c 7B3E0000 		.4byte	0x3e7b
 10931 3e70 7B3E0000 		.4byte	0x3e7b
 10932 3e74 0B       		.uleb128 0xb
 10933 3e75 37000000 		.4byte	0x37
 10934 3e79 03       		.byte	0x3
 10935 3e7a 00       		.byte	0
 10936 3e7b 05       		.uleb128 0x5
 10937 3e7c 04       		.byte	0x4
 10938 3e7d 113E0000 		.4byte	0x3e11
 10939 3e81 0A       		.uleb128 0xa
 10940 3e82 5D010000 		.4byte	0x15d
 10941 3e86 913E0000 		.4byte	0x3e91
 10942 3e8a 0B       		.uleb128 0xb
 10943 3e8b 37000000 		.4byte	0x37
 10944 3e8f 02       		.byte	0x2
 10945 3e90 00       		.byte	0
 10946 3e91 05       		.uleb128 0x5
 10947 3e92 04       		.byte	0x4
 10948 3e93 DD3B0000 		.4byte	0x3bdd
 10949 3e97 05       		.uleb128 0x5
 10950 3e98 04       		.byte	0x4
 10951 3e99 203C0000 		.4byte	0x3c20
 10952 3e9d 0A       		.uleb128 0xa
 10953 3e9e AC160000 		.4byte	0x16ac
 10954 3ea2 AD3E0000 		.4byte	0x3ead
 10955 3ea6 0B       		.uleb128 0xb
 10956 3ea7 37000000 		.4byte	0x37
 10957 3eab 3E       		.byte	0x3e
 10958 3eac 00       		.byte	0
 10959 3ead 20       		.uleb128 0x20
 10960 3eae F4000000 		.4byte	.LASF842
 10961 3eb2 36       		.byte	0x36
 10962 3eb3 0602     		.2byte	0x206
 10963 3eb5 D3330000 		.4byte	0x33d3
 10964 3eb9 2F       		.uleb128 0x2f
 10965 3eba 7D320000 		.4byte	0x327d
 10966 3ebe 05       		.byte	0x5
 10967 3ebf 2C       		.byte	0x2c
 10968 3ec0 05       		.uleb128 0x5
 10969 3ec1 03       		.byte	0x3
 10970 3ec2 00000000 		.4byte	SDCD1
 10971 3ec6 30       		.uleb128 0x30
 10972 3ec7 0002     		.2byte	0x200
 10973 3ec9 05       		.byte	0x5
 10974 3eca 36       		.byte	0x36
 10975 3ecb E63E0000 		.4byte	0x3ee6
 10976 3ecf 09       		.uleb128 0x9
ARM GAS  C:\Users\PCHAUT~1\AppData\Local\Temp\ccORgsmL.s 			page 194


 10977 3ed0 E1000000 		.4byte	.LASF843
 10978 3ed4 05       		.byte	0x5
 10979 3ed5 37       		.byte	0x37
 10980 3ed6 1C090000 		.4byte	0x91c
 10981 3eda 29       		.uleb128 0x29
 10982 3edb 62756600 		.ascii	"buf\000"
 10983 3edf 05       		.byte	0x5
 10984 3ee0 38       		.byte	0x38
 10985 3ee1 E63E0000 		.4byte	0x3ee6
 10986 3ee5 00       		.byte	0
 10987 3ee6 0A       		.uleb128 0xa
 10988 3ee7 E6080000 		.4byte	0x8e6
 10989 3eeb F73E0000 		.4byte	0x3ef7
 10990 3eef 2E       		.uleb128 0x2e
 10991 3ef0 37000000 		.4byte	0x37
 10992 3ef4 FF01     		.2byte	0x1ff
 10993 3ef6 00       		.byte	0
 10994 3ef7 31       		.uleb128 0x31
 10995 3ef8 7500     		.ascii	"u\000"
 10996 3efa 05       		.byte	0x5
 10997 3efb 39       		.byte	0x39
 10998 3efc C63E0000 		.4byte	0x3ec6
 10999 3f00 05       		.uleb128 0x5
 11000 3f01 03       		.byte	0x3
 11001 3f02 00000000 		.4byte	u
 11002 3f06 32       		.uleb128 0x32
 11003 3f07 4A240000 		.4byte	.LASF844
 11004 3f0b 05       		.byte	0x5
 11005 3f0c 40       		.byte	0x40
 11006 3f0d F4310000 		.4byte	0x31f4
 11007 3f11 05       		.uleb128 0x5
 11008 3f12 03       		.byte	0x3
 11009 3f13 00000000 		.4byte	sdc_default_cfg
 11010 3f17 33       		.uleb128 0x33
 11011 3f18 A50E0000 		.4byte	.LASF845
 11012 3f1c 05       		.byte	0x5
 11013 3f1d 6003     		.2byte	0x360
 11014 3f1f A51E0000 		.4byte	0x1ea5
 11015 3f23 00000000 		.4byte	.LFB279
 11016 3f27 28000000 		.4byte	.LFE279-.LFB279
 11017 3f2b 01       		.uleb128 0x1
 11018 3f2c 9C       		.byte	0x9c
 11019 3f2d 413F0000 		.4byte	0x3f41
 11020 3f31 34       		.uleb128 0x34
 11021 3f32 E6120000 		.4byte	.LASF847
 11022 3f36 05       		.byte	0x5
 11023 3f37 6003     		.2byte	0x360
 11024 3f39 413F0000 		.4byte	0x3f41
 11025 3f3d 02       		.uleb128 0x2
 11026 3f3e 91       		.byte	0x91
 11027 3f3f 6C       		.sleb128 -20
 11028 3f40 00       		.byte	0
 11029 3f41 05       		.uleb128 0x5
 11030 3f42 04       		.byte	0x4
 11031 3f43 0E310000 		.4byte	0x310e
 11032 3f47 33       		.uleb128 0x33
 11033 3f48 C8000000 		.4byte	.LASF846
ARM GAS  C:\Users\PCHAUT~1\AppData\Local\Temp\ccORgsmL.s 			page 195


 11034 3f4c 05       		.byte	0x5
 11035 3f4d 4203     		.2byte	0x342
 11036 3f4f A51E0000 		.4byte	0x1ea5
 11037 3f53 00000000 		.4byte	.LFB278
 11038 3f57 98000000 		.4byte	.LFE278-.LFB278
 11039 3f5b 01       		.uleb128 0x1
 11040 3f5c 9C       		.byte	0x9c
 11041 3f5d B53F0000 		.4byte	0x3fb5
 11042 3f61 34       		.uleb128 0x34
 11043 3f62 E6120000 		.4byte	.LASF847
 11044 3f66 05       		.byte	0x5
 11045 3f67 4203     		.2byte	0x342
 11046 3f69 413F0000 		.4byte	0x3f41
 11047 3f6d 02       		.uleb128 0x2
 11048 3f6e 91       		.byte	0x91
 11049 3f6f 6C       		.sleb128 -20
 11050 3f70 34       		.uleb128 0x34
 11051 3f71 32230000 		.4byte	.LASF848
 11052 3f75 05       		.byte	0x5
 11053 3f76 4203     		.2byte	0x342
 11054 3f78 1C090000 		.4byte	0x91c
 11055 3f7c 02       		.uleb128 0x2
 11056 3f7d 91       		.byte	0x91
 11057 3f7e 68       		.sleb128 -24
 11058 3f7f 35       		.uleb128 0x35
 11059 3f80 62756600 		.ascii	"buf\000"
 11060 3f84 05       		.byte	0x5
 11061 3f85 4303     		.2byte	0x343
 11062 3f87 BE1C0000 		.4byte	0x1cbe
 11063 3f8b 02       		.uleb128 0x2
 11064 3f8c 91       		.byte	0x91
 11065 3f8d 64       		.sleb128 -28
 11066 3f8e 34       		.uleb128 0x34
 11067 3f8f BC010000 		.4byte	.LASF849
 11068 3f93 05       		.byte	0x5
 11069 3f94 4303     		.2byte	0x343
 11070 3f96 1C090000 		.4byte	0x91c
 11071 3f9a 02       		.uleb128 0x2
 11072 3f9b 91       		.byte	0x91
 11073 3f9c 60       		.sleb128 -32
 11074 3f9d 36       		.uleb128 0x36
 11075 3f9e 1C000000 		.4byte	.LBB12
 11076 3fa2 4E000000 		.4byte	.LBE12-.LBB12
 11077 3fa6 37       		.uleb128 0x37
 11078 3fa7 6900     		.ascii	"i\000"
 11079 3fa9 05       		.byte	0x5
 11080 3faa 4703     		.2byte	0x347
 11081 3fac 1C090000 		.4byte	0x91c
 11082 3fb0 02       		.uleb128 0x2
 11083 3fb1 91       		.byte	0x91
 11084 3fb2 70       		.sleb128 -16
 11085 3fb3 00       		.byte	0
 11086 3fb4 00       		.byte	0
 11087 3fb5 33       		.uleb128 0x33
 11088 3fb6 D9120000 		.4byte	.LASF850
 11089 3fba 05       		.byte	0x5
 11090 3fbb 2103     		.2byte	0x321
ARM GAS  C:\Users\PCHAUT~1\AppData\Local\Temp\ccORgsmL.s 			page 196


 11091 3fbd A51E0000 		.4byte	0x1ea5
 11092 3fc1 00000000 		.4byte	.LFB277
 11093 3fc5 98000000 		.4byte	.LFE277-.LFB277
 11094 3fc9 01       		.uleb128 0x1
 11095 3fca 9C       		.byte	0x9c
 11096 3fcb 23400000 		.4byte	0x4023
 11097 3fcf 34       		.uleb128 0x34
 11098 3fd0 E6120000 		.4byte	.LASF847
 11099 3fd4 05       		.byte	0x5
 11100 3fd5 2103     		.2byte	0x321
 11101 3fd7 413F0000 		.4byte	0x3f41
 11102 3fdb 02       		.uleb128 0x2
 11103 3fdc 91       		.byte	0x91
 11104 3fdd 6C       		.sleb128 -20
 11105 3fde 34       		.uleb128 0x34
 11106 3fdf 32230000 		.4byte	.LASF848
 11107 3fe3 05       		.byte	0x5
 11108 3fe4 2103     		.2byte	0x321
 11109 3fe6 1C090000 		.4byte	0x91c
 11110 3fea 02       		.uleb128 0x2
 11111 3feb 91       		.byte	0x91
 11112 3fec 68       		.sleb128 -24
 11113 3fed 35       		.uleb128 0x35
 11114 3fee 62756600 		.ascii	"buf\000"
 11115 3ff2 05       		.byte	0x5
 11116 3ff3 2203     		.2byte	0x322
 11117 3ff5 891C0000 		.4byte	0x1c89
 11118 3ff9 02       		.uleb128 0x2
 11119 3ffa 91       		.byte	0x91
 11120 3ffb 64       		.sleb128 -28
 11121 3ffc 34       		.uleb128 0x34
 11122 3ffd BC010000 		.4byte	.LASF849
 11123 4001 05       		.byte	0x5
 11124 4002 2203     		.2byte	0x322
 11125 4004 1C090000 		.4byte	0x91c
 11126 4008 02       		.uleb128 0x2
 11127 4009 91       		.byte	0x91
 11128 400a 60       		.sleb128 -32
 11129 400b 36       		.uleb128 0x36
 11130 400c 1C000000 		.4byte	.LBB11
 11131 4010 4E000000 		.4byte	.LBE11-.LBB11
 11132 4014 37       		.uleb128 0x37
 11133 4015 6900     		.ascii	"i\000"
 11134 4017 05       		.byte	0x5
 11135 4018 2603     		.2byte	0x326
 11136 401a 1C090000 		.4byte	0x91c
 11137 401e 02       		.uleb128 0x2
 11138 401f 91       		.byte	0x91
 11139 4020 70       		.sleb128 -16
 11140 4021 00       		.byte	0
 11141 4022 00       		.byte	0
 11142 4023 33       		.uleb128 0x33
 11143 4024 B91C0000 		.4byte	.LASF851
 11144 4028 05       		.byte	0x5
 11145 4029 E302     		.2byte	0x2e3
 11146 402b A51E0000 		.4byte	0x1ea5
 11147 402f 00000000 		.4byte	.LFB276
ARM GAS  C:\Users\PCHAUT~1\AppData\Local\Temp\ccORgsmL.s 			page 197


 11148 4033 FC000000 		.4byte	.LFE276-.LFB276
 11149 4037 01       		.uleb128 0x1
 11150 4038 9C       		.byte	0x9c
 11151 4039 A4400000 		.4byte	0x40a4
 11152 403d 34       		.uleb128 0x34
 11153 403e E6120000 		.4byte	.LASF847
 11154 4042 05       		.byte	0x5
 11155 4043 E302     		.2byte	0x2e3
 11156 4045 413F0000 		.4byte	0x3f41
 11157 4049 02       		.uleb128 0x2
 11158 404a 91       		.byte	0x91
 11159 404b 6C       		.sleb128 -20
 11160 404c 34       		.uleb128 0x34
 11161 404d 32230000 		.4byte	.LASF848
 11162 4051 05       		.byte	0x5
 11163 4052 E302     		.2byte	0x2e3
 11164 4054 1C090000 		.4byte	0x91c
 11165 4058 02       		.uleb128 0x2
 11166 4059 91       		.byte	0x91
 11167 405a 68       		.sleb128 -24
 11168 405b 35       		.uleb128 0x35
 11169 405c 62756600 		.ascii	"buf\000"
 11170 4060 05       		.byte	0x5
 11171 4061 E402     		.2byte	0x2e4
 11172 4063 BE1C0000 		.4byte	0x1cbe
 11173 4067 02       		.uleb128 0x2
 11174 4068 91       		.byte	0x91
 11175 4069 64       		.sleb128 -28
 11176 406a 34       		.uleb128 0x34
 11177 406b BC010000 		.4byte	.LASF849
 11178 406f 05       		.byte	0x5
 11179 4070 E402     		.2byte	0x2e4
 11180 4072 1C090000 		.4byte	0x91c
 11181 4076 02       		.uleb128 0x2
 11182 4077 91       		.byte	0x91
 11183 4078 60       		.sleb128 -32
 11184 4079 38       		.uleb128 0x38
 11185 407a 400E0000 		.4byte	.LASF852
 11186 407e 05       		.byte	0x5
 11187 407f E502     		.2byte	0x2e5
 11188 4081 4E0D0000 		.4byte	0xd4e
 11189 4085 02       		.uleb128 0x2
 11190 4086 91       		.byte	0x91
 11191 4087 70       		.sleb128 -16
 11192 4088 39       		.uleb128 0x39
 11193 4089 45000000 		.4byte	.LASF854
 11194 408d B4400000 		.4byte	0x40b4
 11195 4091 05       		.uleb128 0x5
 11196 4092 03       		.byte	0x3
 11197 4093 00000000 		.4byte	__func__.10381
 11198 4097 3A       		.uleb128 0x3a
 11199 4098 9D1F0000 		.4byte	.LASF855
 11200 409c 05       		.byte	0x5
 11201 409d 0E03     		.2byte	0x30e
 11202 409f C6000000 		.4byte	.L216
 11203 40a3 00       		.byte	0
 11204 40a4 0A       		.uleb128 0xa
ARM GAS  C:\Users\PCHAUT~1\AppData\Local\Temp\ccORgsmL.s 			page 198


 11205 40a5 6C010000 		.4byte	0x16c
 11206 40a9 B4400000 		.4byte	0x40b4
 11207 40ad 0B       		.uleb128 0xb
 11208 40ae 37000000 		.4byte	0x37
 11209 40b2 15       		.byte	0x15
 11210 40b3 00       		.byte	0
 11211 40b4 0F       		.uleb128 0xf
 11212 40b5 A4400000 		.4byte	0x40a4
 11213 40b9 33       		.uleb128 0x33
 11214 40ba 3C190000 		.4byte	.LASF853
 11215 40be 05       		.byte	0x5
 11216 40bf A502     		.2byte	0x2a5
 11217 40c1 A51E0000 		.4byte	0x1ea5
 11218 40c5 00000000 		.4byte	.LFB275
 11219 40c9 F8000000 		.4byte	.LFE275-.LFB275
 11220 40cd 01       		.uleb128 0x1
 11221 40ce 9C       		.byte	0x9c
 11222 40cf 3A410000 		.4byte	0x413a
 11223 40d3 34       		.uleb128 0x34
 11224 40d4 E6120000 		.4byte	.LASF847
 11225 40d8 05       		.byte	0x5
 11226 40d9 A502     		.2byte	0x2a5
 11227 40db 413F0000 		.4byte	0x3f41
 11228 40df 02       		.uleb128 0x2
 11229 40e0 91       		.byte	0x91
 11230 40e1 6C       		.sleb128 -20
 11231 40e2 34       		.uleb128 0x34
 11232 40e3 32230000 		.4byte	.LASF848
 11233 40e7 05       		.byte	0x5
 11234 40e8 A502     		.2byte	0x2a5
 11235 40ea 1C090000 		.4byte	0x91c
 11236 40ee 02       		.uleb128 0x2
 11237 40ef 91       		.byte	0x91
 11238 40f0 68       		.sleb128 -24
 11239 40f1 35       		.uleb128 0x35
 11240 40f2 62756600 		.ascii	"buf\000"
 11241 40f6 05       		.byte	0x5
 11242 40f7 A602     		.2byte	0x2a6
 11243 40f9 891C0000 		.4byte	0x1c89
 11244 40fd 02       		.uleb128 0x2
 11245 40fe 91       		.byte	0x91
 11246 40ff 64       		.sleb128 -28
 11247 4100 34       		.uleb128 0x34
 11248 4101 BC010000 		.4byte	.LASF849
 11249 4105 05       		.byte	0x5
 11250 4106 A602     		.2byte	0x2a6
 11251 4108 1C090000 		.4byte	0x91c
 11252 410c 02       		.uleb128 0x2
 11253 410d 91       		.byte	0x91
 11254 410e 60       		.sleb128 -32
 11255 410f 38       		.uleb128 0x38
 11256 4110 400E0000 		.4byte	.LASF852
 11257 4114 05       		.byte	0x5
 11258 4115 A702     		.2byte	0x2a7
 11259 4117 4E0D0000 		.4byte	0xd4e
 11260 411b 02       		.uleb128 0x2
 11261 411c 91       		.byte	0x91
ARM GAS  C:\Users\PCHAUT~1\AppData\Local\Temp\ccORgsmL.s 			page 199


 11262 411d 70       		.sleb128 -16
 11263 411e 39       		.uleb128 0x39
 11264 411f 45000000 		.4byte	.LASF854
 11265 4123 4A410000 		.4byte	0x414a
 11266 4127 05       		.uleb128 0x5
 11267 4128 03       		.byte	0x3
 11268 4129 00000000 		.4byte	__func__.10372
 11269 412d 3A       		.uleb128 0x3a
 11270 412e 9D1F0000 		.4byte	.LASF855
 11271 4132 05       		.byte	0x5
 11272 4133 D002     		.2byte	0x2d0
 11273 4135 C2000000 		.4byte	.L203
 11274 4139 00       		.byte	0
 11275 413a 0A       		.uleb128 0xa
 11276 413b 6C010000 		.4byte	0x16c
 11277 413f 4A410000 		.4byte	0x414a
 11278 4143 0B       		.uleb128 0xb
 11279 4144 37000000 		.4byte	0x37
 11280 4148 14       		.byte	0x14
 11281 4149 00       		.byte	0
 11282 414a 0F       		.uleb128 0xf
 11283 414b 3A410000 		.4byte	0x413a
 11284 414f 33       		.uleb128 0x33
 11285 4150 B7160000 		.4byte	.LASF856
 11286 4154 05       		.byte	0x5
 11287 4155 8202     		.2byte	0x282
 11288 4157 A51E0000 		.4byte	0x1ea5
 11289 415b 00000000 		.4byte	.LFB274
 11290 415f 94000000 		.4byte	.LFE274-.LFB274
 11291 4163 01       		.uleb128 0x1
 11292 4164 9C       		.byte	0x9c
 11293 4165 D0410000 		.4byte	0x41d0
 11294 4169 34       		.uleb128 0x34
 11295 416a E6120000 		.4byte	.LASF847
 11296 416e 05       		.byte	0x5
 11297 416f 8202     		.2byte	0x282
 11298 4171 413F0000 		.4byte	0x3f41
 11299 4175 02       		.uleb128 0x2
 11300 4176 91       		.byte	0x91
 11301 4177 6C       		.sleb128 -20
 11302 4178 35       		.uleb128 0x35
 11303 4179 62756600 		.ascii	"buf\000"
 11304 417d 05       		.byte	0x5
 11305 417e 8202     		.2byte	0x282
 11306 4180 891C0000 		.4byte	0x1c89
 11307 4184 02       		.uleb128 0x2
 11308 4185 91       		.byte	0x91
 11309 4186 68       		.sleb128 -24
 11310 4187 34       		.uleb128 0x34
 11311 4188 911E0000 		.4byte	.LASF857
 11312 418c 05       		.byte	0x5
 11313 418d 8202     		.2byte	0x282
 11314 418f 2C000000 		.4byte	0x2c
 11315 4193 02       		.uleb128 0x2
 11316 4194 91       		.byte	0x91
 11317 4195 64       		.sleb128 -28
 11318 4196 35       		.uleb128 0x35
ARM GAS  C:\Users\PCHAUT~1\AppData\Local\Temp\ccORgsmL.s 			page 200


 11319 4197 636D6400 		.ascii	"cmd\000"
 11320 419b 05       		.byte	0x5
 11321 419c 8302     		.2byte	0x283
 11322 419e E6080000 		.4byte	0x8e6
 11323 41a2 02       		.uleb128 0x2
 11324 41a3 91       		.byte	0x91
 11325 41a4 63       		.sleb128 -29
 11326 41a5 35       		.uleb128 0x35
 11327 41a6 61726700 		.ascii	"arg\000"
 11328 41aa 05       		.byte	0x5
 11329 41ab 8302     		.2byte	0x283
 11330 41ad 1C090000 		.4byte	0x91c
 11331 41b1 02       		.uleb128 0x2
 11332 41b2 91       		.byte	0x91
 11333 41b3 5C       		.sleb128 -36
 11334 41b4 38       		.uleb128 0x38
 11335 41b5 400E0000 		.4byte	.LASF852
 11336 41b9 05       		.byte	0x5
 11337 41ba 8402     		.2byte	0x284
 11338 41bc 4E0D0000 		.4byte	0xd4e
 11339 41c0 02       		.uleb128 0x2
 11340 41c1 91       		.byte	0x91
 11341 41c2 70       		.sleb128 -16
 11342 41c3 3A       		.uleb128 0x3a
 11343 41c4 9D1F0000 		.4byte	.LASF855
 11344 41c8 05       		.byte	0x5
 11345 41c9 9202     		.2byte	0x292
 11346 41cb 66000000 		.4byte	.L188
 11347 41cf 00       		.byte	0
 11348 41d0 33       		.uleb128 0x33
 11349 41d1 8E130000 		.4byte	.LASF858
 11350 41d5 05       		.byte	0x5
 11351 41d6 5802     		.2byte	0x258
 11352 41d8 A51E0000 		.4byte	0x1ea5
 11353 41dc 00000000 		.4byte	.LFB273
 11354 41e0 BC000000 		.4byte	.LFE273-.LFB273
 11355 41e4 01       		.uleb128 0x1
 11356 41e5 9C       		.byte	0x9c
 11357 41e6 36420000 		.4byte	0x4236
 11358 41ea 34       		.uleb128 0x34
 11359 41eb E6120000 		.4byte	.LASF847
 11360 41ef 05       		.byte	0x5
 11361 41f0 5802     		.2byte	0x258
 11362 41f2 413F0000 		.4byte	0x3f41
 11363 41f6 02       		.uleb128 0x2
 11364 41f7 91       		.byte	0x91
 11365 41f8 6C       		.sleb128 -20
 11366 41f9 35       		.uleb128 0x35
 11367 41fa 636D6400 		.ascii	"cmd\000"
 11368 41fe 05       		.byte	0x5
 11369 41ff 5802     		.2byte	0x258
 11370 4201 E6080000 		.4byte	0x8e6
 11371 4205 02       		.uleb128 0x2
 11372 4206 91       		.byte	0x91
 11373 4207 6B       		.sleb128 -21
 11374 4208 35       		.uleb128 0x35
 11375 4209 61726700 		.ascii	"arg\000"
ARM GAS  C:\Users\PCHAUT~1\AppData\Local\Temp\ccORgsmL.s 			page 201


 11376 420d 05       		.byte	0x5
 11377 420e 5802     		.2byte	0x258
 11378 4210 1C090000 		.4byte	0x91c
 11379 4214 02       		.uleb128 0x2
 11380 4215 91       		.byte	0x91
 11381 4216 64       		.sleb128 -28
 11382 4217 34       		.uleb128 0x34
 11383 4218 400E0000 		.4byte	.LASF852
 11384 421c 05       		.byte	0x5
 11385 421d 5902     		.2byte	0x259
 11386 421f 36420000 		.4byte	0x4236
 11387 4223 02       		.uleb128 0x2
 11388 4224 91       		.byte	0x91
 11389 4225 60       		.sleb128 -32
 11390 4226 37       		.uleb128 0x37
 11391 4227 73746100 		.ascii	"sta\000"
 11392 422b 05       		.byte	0x5
 11393 422c 5A02     		.2byte	0x25a
 11394 422e 1C090000 		.4byte	0x91c
 11395 4232 02       		.uleb128 0x2
 11396 4233 91       		.byte	0x91
 11397 4234 70       		.sleb128 -16
 11398 4235 00       		.byte	0
 11399 4236 05       		.uleb128 0x5
 11400 4237 04       		.byte	0x4
 11401 4238 1C090000 		.4byte	0x91c
 11402 423c 33       		.uleb128 0x33
 11403 423d AA020000 		.4byte	.LASF859
 11404 4241 05       		.byte	0x5
 11405 4242 3802     		.2byte	0x238
 11406 4244 A51E0000 		.4byte	0x1ea5
 11407 4248 00000000 		.4byte	.LFB272
 11408 424c 90000000 		.4byte	.LFE272-.LFB272
 11409 4250 01       		.uleb128 0x1
 11410 4251 9C       		.byte	0x9c
 11411 4252 A2420000 		.4byte	0x42a2
 11412 4256 34       		.uleb128 0x34
 11413 4257 E6120000 		.4byte	.LASF847
 11414 425b 05       		.byte	0x5
 11415 425c 3802     		.2byte	0x238
 11416 425e 413F0000 		.4byte	0x3f41
 11417 4262 02       		.uleb128 0x2
 11418 4263 91       		.byte	0x91
 11419 4264 6C       		.sleb128 -20
 11420 4265 35       		.uleb128 0x35
 11421 4266 636D6400 		.ascii	"cmd\000"
 11422 426a 05       		.byte	0x5
 11423 426b 3802     		.2byte	0x238
 11424 426d E6080000 		.4byte	0x8e6
 11425 4271 02       		.uleb128 0x2
 11426 4272 91       		.byte	0x91
 11427 4273 6B       		.sleb128 -21
 11428 4274 35       		.uleb128 0x35
 11429 4275 61726700 		.ascii	"arg\000"
 11430 4279 05       		.byte	0x5
 11431 427a 3802     		.2byte	0x238
 11432 427c 1C090000 		.4byte	0x91c
ARM GAS  C:\Users\PCHAUT~1\AppData\Local\Temp\ccORgsmL.s 			page 202


 11433 4280 02       		.uleb128 0x2
 11434 4281 91       		.byte	0x91
 11435 4282 64       		.sleb128 -28
 11436 4283 34       		.uleb128 0x34
 11437 4284 400E0000 		.4byte	.LASF852
 11438 4288 05       		.byte	0x5
 11439 4289 3902     		.2byte	0x239
 11440 428b 36420000 		.4byte	0x4236
 11441 428f 02       		.uleb128 0x2
 11442 4290 91       		.byte	0x91
 11443 4291 60       		.sleb128 -32
 11444 4292 37       		.uleb128 0x37
 11445 4293 73746100 		.ascii	"sta\000"
 11446 4297 05       		.byte	0x5
 11447 4298 3A02     		.2byte	0x23a
 11448 429a 1C090000 		.4byte	0x91c
 11449 429e 02       		.uleb128 0x2
 11450 429f 91       		.byte	0x91
 11451 42a0 70       		.sleb128 -16
 11452 42a1 00       		.byte	0
 11453 42a2 33       		.uleb128 0x33
 11454 42a3 93080000 		.4byte	.LASF860
 11455 42a7 05       		.byte	0x5
 11456 42a8 1702     		.2byte	0x217
 11457 42aa A51E0000 		.4byte	0x1ea5
 11458 42ae 00000000 		.4byte	.LFB271
 11459 42b2 90000000 		.4byte	.LFE271-.LFB271
 11460 42b6 01       		.uleb128 0x1
 11461 42b7 9C       		.byte	0x9c
 11462 42b8 08430000 		.4byte	0x4308
 11463 42bc 34       		.uleb128 0x34
 11464 42bd E6120000 		.4byte	.LASF847
 11465 42c1 05       		.byte	0x5
 11466 42c2 1702     		.2byte	0x217
 11467 42c4 413F0000 		.4byte	0x3f41
 11468 42c8 02       		.uleb128 0x2
 11469 42c9 91       		.byte	0x91
 11470 42ca 6C       		.sleb128 -20
 11471 42cb 35       		.uleb128 0x35
 11472 42cc 636D6400 		.ascii	"cmd\000"
 11473 42d0 05       		.byte	0x5
 11474 42d1 1702     		.2byte	0x217
 11475 42d3 E6080000 		.4byte	0x8e6
 11476 42d7 02       		.uleb128 0x2
 11477 42d8 91       		.byte	0x91
 11478 42d9 6B       		.sleb128 -21
 11479 42da 35       		.uleb128 0x35
 11480 42db 61726700 		.ascii	"arg\000"
 11481 42df 05       		.byte	0x5
 11482 42e0 1702     		.2byte	0x217
 11483 42e2 1C090000 		.4byte	0x91c
 11484 42e6 02       		.uleb128 0x2
 11485 42e7 91       		.byte	0x91
 11486 42e8 64       		.sleb128 -28
 11487 42e9 34       		.uleb128 0x34
 11488 42ea 400E0000 		.4byte	.LASF852
 11489 42ee 05       		.byte	0x5
ARM GAS  C:\Users\PCHAUT~1\AppData\Local\Temp\ccORgsmL.s 			page 203


 11490 42ef 1802     		.2byte	0x218
 11491 42f1 36420000 		.4byte	0x4236
 11492 42f5 02       		.uleb128 0x2
 11493 42f6 91       		.byte	0x91
 11494 42f7 60       		.sleb128 -32
 11495 42f8 37       		.uleb128 0x37
 11496 42f9 73746100 		.ascii	"sta\000"
 11497 42fd 05       		.byte	0x5
 11498 42fe 1902     		.2byte	0x219
 11499 4300 1C090000 		.4byte	0x91c
 11500 4304 02       		.uleb128 0x2
 11501 4305 91       		.byte	0x91
 11502 4306 70       		.sleb128 -16
 11503 4307 00       		.byte	0
 11504 4308 3B       		.uleb128 0x3b
 11505 4309 881D0000 		.4byte	.LASF861
 11506 430d 05       		.byte	0x5
 11507 430e FF01     		.2byte	0x1ff
 11508 4310 00000000 		.4byte	.LFB270
 11509 4314 5C000000 		.4byte	.LFE270-.LFB270
 11510 4318 01       		.uleb128 0x1
 11511 4319 9C       		.byte	0x9c
 11512 431a 4C430000 		.4byte	0x434c
 11513 431e 34       		.uleb128 0x34
 11514 431f E6120000 		.4byte	.LASF847
 11515 4323 05       		.byte	0x5
 11516 4324 FF01     		.2byte	0x1ff
 11517 4326 413F0000 		.4byte	0x3f41
 11518 432a 02       		.uleb128 0x2
 11519 432b 91       		.byte	0x91
 11520 432c 6C       		.sleb128 -20
 11521 432d 35       		.uleb128 0x35
 11522 432e 636D6400 		.ascii	"cmd\000"
 11523 4332 05       		.byte	0x5
 11524 4333 FF01     		.2byte	0x1ff
 11525 4335 E6080000 		.4byte	0x8e6
 11526 4339 02       		.uleb128 0x2
 11527 433a 91       		.byte	0x91
 11528 433b 6B       		.sleb128 -21
 11529 433c 35       		.uleb128 0x35
 11530 433d 61726700 		.ascii	"arg\000"
 11531 4341 05       		.byte	0x5
 11532 4342 FF01     		.2byte	0x1ff
 11533 4344 1C090000 		.4byte	0x91c
 11534 4348 02       		.uleb128 0x2
 11535 4349 91       		.byte	0x91
 11536 434a 64       		.sleb128 -28
 11537 434b 00       		.byte	0
 11538 434c 3B       		.uleb128 0x3b
 11539 434d 2C030000 		.4byte	.LASF862
 11540 4351 05       		.byte	0x5
 11541 4352 E601     		.2byte	0x1e6
 11542 4354 00000000 		.4byte	.LFB269
 11543 4358 70000000 		.4byte	.LFE269-.LFB269
 11544 435c 01       		.uleb128 0x1
 11545 435d 9C       		.byte	0x9c
 11546 435e 90430000 		.4byte	0x4390
ARM GAS  C:\Users\PCHAUT~1\AppData\Local\Temp\ccORgsmL.s 			page 204


 11547 4362 34       		.uleb128 0x34
 11548 4363 E6120000 		.4byte	.LASF847
 11549 4367 05       		.byte	0x5
 11550 4368 E601     		.2byte	0x1e6
 11551 436a 413F0000 		.4byte	0x3f41
 11552 436e 02       		.uleb128 0x2
 11553 436f 91       		.byte	0x91
 11554 4370 6C       		.sleb128 -20
 11555 4371 34       		.uleb128 0x34
 11556 4372 BE080000 		.4byte	.LASF542
 11557 4376 05       		.byte	0x5
 11558 4377 E601     		.2byte	0x1e6
 11559 4379 C8300000 		.4byte	0x30c8
 11560 437d 02       		.uleb128 0x2
 11561 437e 91       		.byte	0x91
 11562 437f 6B       		.sleb128 -21
 11563 4380 37       		.uleb128 0x37
 11564 4381 636C6B00 		.ascii	"clk\000"
 11565 4385 05       		.byte	0x5
 11566 4386 E701     		.2byte	0x1e7
 11567 4388 1C090000 		.4byte	0x91c
 11568 438c 02       		.uleb128 0x2
 11569 438d 91       		.byte	0x91
 11570 438e 70       		.sleb128 -16
 11571 438f 00       		.byte	0
 11572 4390 3B       		.uleb128 0x3b
 11573 4391 E3210000 		.4byte	.LASF863
 11574 4395 05       		.byte	0x5
 11575 4396 D801     		.2byte	0x1d8
 11576 4398 00000000 		.4byte	.LFB268
 11577 439c 38000000 		.4byte	.LFE268-.LFB268
 11578 43a0 01       		.uleb128 0x1
 11579 43a1 9C       		.byte	0x9c
 11580 43a2 B6430000 		.4byte	0x43b6
 11581 43a6 34       		.uleb128 0x34
 11582 43a7 E6120000 		.4byte	.LASF847
 11583 43ab 05       		.byte	0x5
 11584 43ac D801     		.2byte	0x1d8
 11585 43ae 413F0000 		.4byte	0x3f41
 11586 43b2 02       		.uleb128 0x2
 11587 43b3 91       		.byte	0x91
 11588 43b4 6C       		.sleb128 -20
 11589 43b5 00       		.byte	0
 11590 43b6 3B       		.uleb128 0x3b
 11591 43b7 AC230000 		.4byte	.LASF864
 11592 43bb 05       		.byte	0x5
 11593 43bc C201     		.2byte	0x1c2
 11594 43be 00000000 		.4byte	.LFB267
 11595 43c2 3C000000 		.4byte	.LFE267-.LFB267
 11596 43c6 01       		.uleb128 0x1
 11597 43c7 9C       		.byte	0x9c
 11598 43c8 EB430000 		.4byte	0x43eb
 11599 43cc 34       		.uleb128 0x34
 11600 43cd E6120000 		.4byte	.LASF847
 11601 43d1 05       		.byte	0x5
 11602 43d2 C201     		.2byte	0x1c2
 11603 43d4 413F0000 		.4byte	0x3f41
ARM GAS  C:\Users\PCHAUT~1\AppData\Local\Temp\ccORgsmL.s 			page 205


 11604 43d8 02       		.uleb128 0x2
 11605 43d9 91       		.byte	0x91
 11606 43da 6C       		.sleb128 -20
 11607 43db 35       		.uleb128 0x35
 11608 43dc 636C6B00 		.ascii	"clk\000"
 11609 43e0 05       		.byte	0x5
 11610 43e1 C201     		.2byte	0x1c2
 11611 43e3 ED300000 		.4byte	0x30ed
 11612 43e7 02       		.uleb128 0x2
 11613 43e8 91       		.byte	0x91
 11614 43e9 6B       		.sleb128 -21
 11615 43ea 00       		.byte	0
 11616 43eb 3B       		.uleb128 0x3b
 11617 43ec 32010000 		.4byte	.LASF865
 11618 43f0 05       		.byte	0x5
 11619 43f1 AF01     		.2byte	0x1af
 11620 43f3 00000000 		.4byte	.LFB266
 11621 43f7 54000000 		.4byte	.LFE266-.LFB266
 11622 43fb 01       		.uleb128 0x1
 11623 43fc 9C       		.byte	0x9c
 11624 43fd 11440000 		.4byte	0x4411
 11625 4401 34       		.uleb128 0x34
 11626 4402 E6120000 		.4byte	.LASF847
 11627 4406 05       		.byte	0x5
 11628 4407 AF01     		.2byte	0x1af
 11629 4409 413F0000 		.4byte	0x3f41
 11630 440d 02       		.uleb128 0x2
 11631 440e 91       		.byte	0x91
 11632 440f 6C       		.sleb128 -20
 11633 4410 00       		.byte	0
 11634 4411 3B       		.uleb128 0x3b
 11635 4412 2D210000 		.4byte	.LASF866
 11636 4416 05       		.byte	0x5
 11637 4417 9701     		.2byte	0x197
 11638 4419 00000000 		.4byte	.LFB265
 11639 441d 70000000 		.4byte	.LFE265-.LFB265
 11640 4421 01       		.uleb128 0x1
 11641 4422 9C       		.byte	0x9c
 11642 4423 37440000 		.4byte	0x4437
 11643 4427 34       		.uleb128 0x34
 11644 4428 E6120000 		.4byte	.LASF847
 11645 442c 05       		.byte	0x5
 11646 442d 9701     		.2byte	0x197
 11647 442f 413F0000 		.4byte	0x3f41
 11648 4433 02       		.uleb128 0x2
 11649 4434 91       		.byte	0x91
 11650 4435 6C       		.sleb128 -20
 11651 4436 00       		.byte	0
 11652 4437 3B       		.uleb128 0x3b
 11653 4438 39220000 		.4byte	.LASF867
 11654 443c 05       		.byte	0x5
 11655 443d 6901     		.2byte	0x169
 11656 443f 00000000 		.4byte	.LFB264
 11657 4443 D4000000 		.4byte	.LFE264-.LFB264
 11658 4447 01       		.uleb128 0x1
 11659 4448 9C       		.byte	0x9c
 11660 4449 83440000 		.4byte	0x4483
ARM GAS  C:\Users\PCHAUT~1\AppData\Local\Temp\ccORgsmL.s 			page 206


 11661 444d 34       		.uleb128 0x34
 11662 444e E6120000 		.4byte	.LASF847
 11663 4452 05       		.byte	0x5
 11664 4453 6901     		.2byte	0x169
 11665 4455 413F0000 		.4byte	0x3f41
 11666 4459 02       		.uleb128 0x2
 11667 445a 91       		.byte	0x91
 11668 445b 6C       		.sleb128 -20
 11669 445c 39       		.uleb128 0x39
 11670 445d 45000000 		.4byte	.LASF854
 11671 4461 93440000 		.4byte	0x4493
 11672 4465 05       		.uleb128 0x5
 11673 4466 03       		.byte	0x3
 11674 4467 00000000 		.4byte	__func__.10295
 11675 446b 36       		.uleb128 0x36
 11676 446c 38000000 		.4byte	.LBB10
 11677 4470 50000000 		.4byte	.LBE10-.LBB10
 11678 4474 37       		.uleb128 0x37
 11679 4475 6200     		.ascii	"b\000"
 11680 4477 05       		.byte	0x5
 11681 4478 7E01     		.2byte	0x17e
 11682 447a A51E0000 		.4byte	0x1ea5
 11683 447e 02       		.uleb128 0x2
 11684 447f 91       		.byte	0x91
 11685 4480 73       		.sleb128 -13
 11686 4481 00       		.byte	0
 11687 4482 00       		.byte	0
 11688 4483 0A       		.uleb128 0xa
 11689 4484 6C010000 		.4byte	0x16c
 11690 4488 93440000 		.4byte	0x4493
 11691 448c 0B       		.uleb128 0xb
 11692 448d 37000000 		.4byte	0x37
 11693 4491 0D       		.byte	0xd
 11694 4492 00       		.byte	0
 11695 4493 0F       		.uleb128 0xf
 11696 4494 83440000 		.4byte	0x4483
 11697 4498 3C       		.uleb128 0x3c
 11698 4499 F50F0000 		.4byte	.LASF868
 11699 449d 05       		.byte	0x5
 11700 449e 5A01     		.2byte	0x15a
 11701 44a0 00000000 		.4byte	.LFB263
 11702 44a4 48000000 		.4byte	.LFE263-.LFB263
 11703 44a8 01       		.uleb128 0x1
 11704 44a9 9C       		.byte	0x9c
 11705 44aa 3C       		.uleb128 0x3c
 11706 44ab 9A1A0000 		.4byte	.LASF869
 11707 44af 05       		.byte	0x5
 11708 44b0 4001     		.2byte	0x140
 11709 44b2 00000000 		.4byte	.LFB262
 11710 44b6 54000000 		.4byte	.LFE262-.LFB262
 11711 44ba 01       		.uleb128 0x1
 11712 44bb 9C       		.byte	0x9c
 11713 44bc 3D       		.uleb128 0x3d
 11714 44bd 74220000 		.4byte	.LASF870
 11715 44c1 05       		.byte	0x5
 11716 44c2 2301     		.2byte	0x123
 11717 44c4 00000000 		.4byte	.LFB261
ARM GAS  C:\Users\PCHAUT~1\AppData\Local\Temp\ccORgsmL.s 			page 207


 11718 44c8 BC000000 		.4byte	.LFE261-.LFB261
 11719 44cc 01       		.uleb128 0x1
 11720 44cd 9C       		.byte	0x9c
 11721 44ce 0D450000 		.4byte	0x450d
 11722 44d2 34       		.uleb128 0x34
 11723 44d3 E6120000 		.4byte	.LASF847
 11724 44d7 05       		.byte	0x5
 11725 44d8 2301     		.2byte	0x123
 11726 44da 413F0000 		.4byte	0x3f41
 11727 44de 02       		.uleb128 0x2
 11728 44df 91       		.byte	0x91
 11729 44e0 6C       		.sleb128 -20
 11730 44e1 35       		.uleb128 0x35
 11731 44e2 6E00     		.ascii	"n\000"
 11732 44e4 05       		.byte	0x5
 11733 44e5 2401     		.2byte	0x124
 11734 44e7 1C090000 		.4byte	0x91c
 11735 44eb 02       		.uleb128 0x2
 11736 44ec 91       		.byte	0x91
 11737 44ed 68       		.sleb128 -24
 11738 44ee 34       		.uleb128 0x34
 11739 44ef 400E0000 		.4byte	.LASF852
 11740 44f3 05       		.byte	0x5
 11741 44f4 2501     		.2byte	0x125
 11742 44f6 36420000 		.4byte	0x4236
 11743 44fa 02       		.uleb128 0x2
 11744 44fb 91       		.byte	0x91
 11745 44fc 64       		.sleb128 -28
 11746 44fd 37       		.uleb128 0x37
 11747 44fe 73746100 		.ascii	"sta\000"
 11748 4502 05       		.byte	0x5
 11749 4503 2601     		.2byte	0x126
 11750 4505 1C090000 		.4byte	0x91c
 11751 4509 02       		.uleb128 0x2
 11752 450a 91       		.byte	0x91
 11753 450b 70       		.sleb128 -16
 11754 450c 00       		.byte	0
 11755 450d 3D       		.uleb128 0x3d
 11756 450e FD050000 		.4byte	.LASF871
 11757 4512 05       		.byte	0x5
 11758 4513 0501     		.2byte	0x105
 11759 4515 00000000 		.4byte	.LFB260
 11760 4519 B8000000 		.4byte	.LFE260-.LFB260
 11761 451d 01       		.uleb128 0x1
 11762 451e 9C       		.byte	0x9c
 11763 451f 51450000 		.4byte	0x4551
 11764 4523 34       		.uleb128 0x34
 11765 4524 E6120000 		.4byte	.LASF847
 11766 4528 05       		.byte	0x5
 11767 4529 0501     		.2byte	0x105
 11768 452b 413F0000 		.4byte	0x3f41
 11769 452f 02       		.uleb128 0x2
 11770 4530 91       		.byte	0x91
 11771 4531 6C       		.sleb128 -20
 11772 4532 35       		.uleb128 0x35
 11773 4533 73746100 		.ascii	"sta\000"
 11774 4537 05       		.byte	0x5
ARM GAS  C:\Users\PCHAUT~1\AppData\Local\Temp\ccORgsmL.s 			page 208


 11775 4538 0501     		.2byte	0x105
 11776 453a 1C090000 		.4byte	0x91c
 11777 453e 02       		.uleb128 0x2
 11778 453f 91       		.byte	0x91
 11779 4540 68       		.sleb128 -24
 11780 4541 38       		.uleb128 0x38
 11781 4542 8C010000 		.4byte	.LASF595
 11782 4546 05       		.byte	0x5
 11783 4547 0601     		.2byte	0x106
 11784 4549 1C090000 		.4byte	0x91c
 11785 454d 02       		.uleb128 0x2
 11786 454e 91       		.byte	0x91
 11787 454f 70       		.sleb128 -16
 11788 4550 00       		.byte	0
 11789 4551 3E       		.uleb128 0x3e
 11790 4552 69030000 		.4byte	.LASF872
 11791 4556 05       		.byte	0x5
 11792 4557 D0       		.byte	0xd0
 11793 4558 A51E0000 		.4byte	0x1ea5
 11794 455c 00000000 		.4byte	.LFB259
 11795 4560 B0000000 		.4byte	.LFE259-.LFB259
 11796 4564 01       		.uleb128 0x1
 11797 4565 9C       		.byte	0x9c
 11798 4566 93450000 		.4byte	0x4593
 11799 456a 3F       		.uleb128 0x3f
 11800 456b E6120000 		.4byte	.LASF847
 11801 456f 05       		.byte	0x5
 11802 4570 D0       		.byte	0xd0
 11803 4571 413F0000 		.4byte	0x3f41
 11804 4575 02       		.uleb128 0x2
 11805 4576 91       		.byte	0x91
 11806 4577 6C       		.sleb128 -20
 11807 4578 40       		.uleb128 0x40
 11808 4579 6E00     		.ascii	"n\000"
 11809 457b 05       		.byte	0x5
 11810 457c D0       		.byte	0xd0
 11811 457d 1C090000 		.4byte	0x91c
 11812 4581 02       		.uleb128 0x2
 11813 4582 91       		.byte	0x91
 11814 4583 68       		.sleb128 -24
 11815 4584 3F       		.uleb128 0x3f
 11816 4585 400E0000 		.4byte	.LASF852
 11817 4589 05       		.byte	0x5
 11818 458a D1       		.byte	0xd1
 11819 458b 36420000 		.4byte	0x4236
 11820 458f 02       		.uleb128 0x2
 11821 4590 91       		.byte	0x91
 11822 4591 64       		.sleb128 -28
 11823 4592 00       		.byte	0
 11824 4593 3E       		.uleb128 0x3e
 11825 4594 5B130000 		.4byte	.LASF873
 11826 4598 05       		.byte	0x5
 11827 4599 AD       		.byte	0xad
 11828 459a A51E0000 		.4byte	0x1ea5
 11829 459e 00000000 		.4byte	.LFB258
 11830 45a2 90000000 		.4byte	.LFE258-.LFB258
 11831 45a6 01       		.uleb128 0x1
ARM GAS  C:\Users\PCHAUT~1\AppData\Local\Temp\ccORgsmL.s 			page 209


 11832 45a7 9C       		.byte	0x9c
 11833 45a8 E3450000 		.4byte	0x45e3
 11834 45ac 3F       		.uleb128 0x3f
 11835 45ad E6120000 		.4byte	.LASF847
 11836 45b1 05       		.byte	0x5
 11837 45b2 AD       		.byte	0xad
 11838 45b3 413F0000 		.4byte	0x3f41
 11839 45b7 02       		.uleb128 0x2
 11840 45b8 91       		.byte	0x91
 11841 45b9 6C       		.sleb128 -20
 11842 45ba 3F       		.uleb128 0x3f
 11843 45bb 32230000 		.4byte	.LASF848
 11844 45bf 05       		.byte	0x5
 11845 45c0 AD       		.byte	0xad
 11846 45c1 1C090000 		.4byte	0x91c
 11847 45c5 02       		.uleb128 0x2
 11848 45c6 91       		.byte	0x91
 11849 45c7 68       		.sleb128 -24
 11850 45c8 40       		.uleb128 0x40
 11851 45c9 6E00     		.ascii	"n\000"
 11852 45cb 05       		.byte	0x5
 11853 45cc AE       		.byte	0xae
 11854 45cd 1C090000 		.4byte	0x91c
 11855 45d1 02       		.uleb128 0x2
 11856 45d2 91       		.byte	0x91
 11857 45d3 64       		.sleb128 -28
 11858 45d4 3F       		.uleb128 0x3f
 11859 45d5 400E0000 		.4byte	.LASF852
 11860 45d9 05       		.byte	0x5
 11861 45da AE       		.byte	0xae
 11862 45db 36420000 		.4byte	0x4236
 11863 45df 02       		.uleb128 0x2
 11864 45e0 91       		.byte	0x91
 11865 45e1 60       		.sleb128 -32
 11866 45e2 00       		.byte	0
 11867 45e3 3E       		.uleb128 0x3e
 11868 45e4 12220000 		.4byte	.LASF874
 11869 45e8 05       		.byte	0x5
 11870 45e9 87       		.byte	0x87
 11871 45ea A51E0000 		.4byte	0x1ea5
 11872 45ee 00000000 		.4byte	.LFB257
 11873 45f2 90000000 		.4byte	.LFE257-.LFB257
 11874 45f6 01       		.uleb128 0x1
 11875 45f7 9C       		.byte	0x9c
 11876 45f8 33460000 		.4byte	0x4633
 11877 45fc 3F       		.uleb128 0x3f
 11878 45fd E6120000 		.4byte	.LASF847
 11879 4601 05       		.byte	0x5
 11880 4602 87       		.byte	0x87
 11881 4603 413F0000 		.4byte	0x3f41
 11882 4607 02       		.uleb128 0x2
 11883 4608 91       		.byte	0x91
 11884 4609 6C       		.sleb128 -20
 11885 460a 3F       		.uleb128 0x3f
 11886 460b 32230000 		.4byte	.LASF848
 11887 460f 05       		.byte	0x5
 11888 4610 87       		.byte	0x87
ARM GAS  C:\Users\PCHAUT~1\AppData\Local\Temp\ccORgsmL.s 			page 210


 11889 4611 1C090000 		.4byte	0x91c
 11890 4615 02       		.uleb128 0x2
 11891 4616 91       		.byte	0x91
 11892 4617 68       		.sleb128 -24
 11893 4618 40       		.uleb128 0x40
 11894 4619 6E00     		.ascii	"n\000"
 11895 461b 05       		.byte	0x5
 11896 461c 88       		.byte	0x88
 11897 461d 1C090000 		.4byte	0x91c
 11898 4621 02       		.uleb128 0x2
 11899 4622 91       		.byte	0x91
 11900 4623 64       		.sleb128 -28
 11901 4624 3F       		.uleb128 0x3f
 11902 4625 400E0000 		.4byte	.LASF852
 11903 4629 05       		.byte	0x5
 11904 462a 88       		.byte	0x88
 11905 462b 36420000 		.4byte	0x4236
 11906 462f 02       		.uleb128 0x2
 11907 4630 91       		.byte	0x91
 11908 4631 60       		.sleb128 -32
 11909 4632 00       		.byte	0
 11910 4633 3E       		.uleb128 0x3e
 11911 4634 8F0B0000 		.4byte	.LASF875
 11912 4638 05       		.byte	0x5
 11913 4639 57       		.byte	0x57
 11914 463a A51E0000 		.4byte	0x1ea5
 11915 463e 00000000 		.4byte	.LFB256
 11916 4642 B8000000 		.4byte	.LFE256-.LFB256
 11917 4646 01       		.uleb128 0x1
 11918 4647 9C       		.byte	0x9c
 11919 4648 86460000 		.4byte	0x4686
 11920 464c 3F       		.uleb128 0x3f
 11921 464d E6120000 		.4byte	.LASF847
 11922 4651 05       		.byte	0x5
 11923 4652 57       		.byte	0x57
 11924 4653 413F0000 		.4byte	0x3f41
 11925 4657 02       		.uleb128 0x2
 11926 4658 91       		.byte	0x91
 11927 4659 6C       		.sleb128 -20
 11928 465a 40       		.uleb128 0x40
 11929 465b 62756600 		.ascii	"buf\000"
 11930 465f 05       		.byte	0x5
 11931 4660 58       		.byte	0x58
 11932 4661 891C0000 		.4byte	0x1c89
 11933 4665 02       		.uleb128 0x2
 11934 4666 91       		.byte	0x91
 11935 4667 68       		.sleb128 -24
 11936 4668 3F       		.uleb128 0x3f
 11937 4669 911E0000 		.4byte	.LASF857
 11938 466d 05       		.byte	0x5
 11939 466e 58       		.byte	0x58
 11940 466f 1C090000 		.4byte	0x91c
 11941 4673 02       		.uleb128 0x2
 11942 4674 91       		.byte	0x91
 11943 4675 64       		.sleb128 -28
 11944 4676 39       		.uleb128 0x39
 11945 4677 45000000 		.4byte	.LASF854
ARM GAS  C:\Users\PCHAUT~1\AppData\Local\Temp\ccORgsmL.s 			page 211


 11946 467b 96460000 		.4byte	0x4696
 11947 467f 05       		.uleb128 0x5
 11948 4680 03       		.byte	0x3
 11949 4681 00000000 		.4byte	__func__.10250
 11950 4685 00       		.byte	0
 11951 4686 0A       		.uleb128 0xa
 11952 4687 6C010000 		.4byte	0x16c
 11953 468b 96460000 		.4byte	0x4696
 11954 468f 0B       		.uleb128 0xb
 11955 4690 37000000 		.4byte	0x37
 11956 4694 1A       		.byte	0x1a
 11957 4695 00       		.byte	0
 11958 4696 0F       		.uleb128 0xf
 11959 4697 86460000 		.4byte	0x4686
 11960 469b 3D       		.uleb128 0x3d
 11961 469c 3A040000 		.4byte	.LASF876
 11962 46a0 04       		.byte	0x4
 11963 46a1 A802     		.2byte	0x2a8
 11964 46a3 00000000 		.4byte	.LFB238
 11965 46a7 30000000 		.4byte	.LFE238-.LFB238
 11966 46ab 01       		.uleb128 0x1
 11967 46ac 9C       		.byte	0x9c
 11968 46ad D0460000 		.4byte	0x46d0
 11969 46b1 35       		.uleb128 0x35
 11970 46b2 74727000 		.ascii	"trp\000"
 11971 46b6 04       		.byte	0x4
 11972 46b7 A802     		.2byte	0x2a8
 11973 46b9 B9190000 		.4byte	0x19b9
 11974 46bd 02       		.uleb128 0x2
 11975 46be 91       		.byte	0x91
 11976 46bf 6C       		.sleb128 -20
 11977 46c0 35       		.uleb128 0x35
 11978 46c1 6D736700 		.ascii	"msg\000"
 11979 46c5 04       		.byte	0x4
 11980 46c6 A802     		.2byte	0x2a8
 11981 46c8 89090000 		.4byte	0x989
 11982 46cc 02       		.uleb128 0x2
 11983 46cd 91       		.byte	0x91
 11984 46ce 68       		.sleb128 -24
 11985 46cf 00       		.byte	0
 11986 46d0 41       		.uleb128 0x41
 11987 46d1 290F0000 		.4byte	.LASF877
 11988 46d5 04       		.byte	0x4
 11989 46d6 8002     		.2byte	0x280
 11990 46d8 89090000 		.4byte	0x989
 11991 46dc 00000000 		.4byte	.LFB236
 11992 46e0 30000000 		.4byte	.LFE236-.LFB236
 11993 46e4 01       		.uleb128 0x1
 11994 46e5 9C       		.byte	0x9c
 11995 46e6 FA460000 		.4byte	0x46fa
 11996 46ea 35       		.uleb128 0x35
 11997 46eb 74727000 		.ascii	"trp\000"
 11998 46ef 04       		.byte	0x4
 11999 46f0 8002     		.2byte	0x280
 12000 46f2 B9190000 		.4byte	0x19b9
 12001 46f6 02       		.uleb128 0x2
 12002 46f7 91       		.byte	0x91
ARM GAS  C:\Users\PCHAUT~1\AppData\Local\Temp\ccORgsmL.s 			page 212


 12003 46f8 6C       		.sleb128 -20
 12004 46f9 00       		.byte	0
 12005 46fa 3D       		.uleb128 0x3d
 12006 46fb 8E060000 		.4byte	.LASF878
 12007 46ff 04       		.byte	0x4
 12008 4700 7102     		.2byte	0x271
 12009 4702 00000000 		.4byte	.LFB235
 12010 4706 2C000000 		.4byte	.LFE235-.LFB235
 12011 470a 01       		.uleb128 0x1
 12012 470b 9C       		.byte	0x9c
 12013 470c 20470000 		.4byte	0x4720
 12014 4710 34       		.uleb128 0x34
 12015 4711 65170000 		.4byte	.LASF879
 12016 4715 04       		.byte	0x4
 12017 4716 7102     		.2byte	0x271
 12018 4718 C0090000 		.4byte	0x9c0
 12019 471c 02       		.uleb128 0x2
 12020 471d 91       		.byte	0x91
 12021 471e 6C       		.sleb128 -20
 12022 471f 00       		.byte	0
 12023 4720 42       		.uleb128 0x42
 12024 4721 9E060000 		.4byte	.LASF880
 12025 4725 04       		.byte	0x4
 12026 4726 DE01     		.2byte	0x1de
 12027 4728 00000000 		.4byte	.LFB226
 12028 472c 28000000 		.4byte	.LFE226-.LFB226
 12029 4730 01       		.uleb128 0x1
 12030 4731 9C       		.byte	0x9c
 12031 4732 42       		.uleb128 0x42
 12032 4733 28160000 		.4byte	.LASF881
 12033 4737 04       		.byte	0x4
 12034 4738 D301     		.2byte	0x1d3
 12035 473a 00000000 		.4byte	.LFB225
 12036 473e 28000000 		.4byte	.LFE225-.LFB225
 12037 4742 01       		.uleb128 0x1
 12038 4743 9C       		.byte	0x9c
 12039 4744 42       		.uleb128 0x42
 12040 4745 64010000 		.4byte	.LASF882
 12041 4749 04       		.byte	0x4
 12042 474a C801     		.2byte	0x1c8
 12043 474c 00000000 		.4byte	.LFB224
 12044 4750 28000000 		.4byte	.LFE224-.LFB224
 12045 4754 01       		.uleb128 0x1
 12046 4755 9C       		.byte	0x9c
 12047 4756 42       		.uleb128 0x42
 12048 4757 511B0000 		.4byte	.LASF883
 12049 475b 04       		.byte	0x4
 12050 475c BD01     		.2byte	0x1bd
 12051 475e 00000000 		.4byte	.LFB223
 12052 4762 28000000 		.4byte	.LFE223-.LFB223
 12053 4766 01       		.uleb128 0x1
 12054 4767 9C       		.byte	0x9c
 12055 4768 42       		.uleb128 0x42
 12056 4769 E5190000 		.4byte	.LASF884
 12057 476d 03       		.byte	0x3
 12058 476e 9601     		.2byte	0x196
 12059 4770 00000000 		.4byte	.LFB148
ARM GAS  C:\Users\PCHAUT~1\AppData\Local\Temp\ccORgsmL.s 			page 213


 12060 4774 30000000 		.4byte	.LFE148-.LFB148
 12061 4778 01       		.uleb128 0x1
 12062 4779 9C       		.byte	0x9c
 12063 477a 42       		.uleb128 0x42
 12064 477b 7A210000 		.4byte	.LASF885
 12065 477f 03       		.byte	0x3
 12066 4780 8201     		.2byte	0x182
 12067 4782 00000000 		.4byte	.LFB147
 12068 4786 30000000 		.4byte	.LFE147-.LFB147
 12069 478a 01       		.uleb128 0x1
 12070 478b 9C       		.byte	0x9c
 12071 478c 3D       		.uleb128 0x3d
 12072 478d 1C1F0000 		.4byte	.LASF886
 12073 4791 03       		.byte	0x3
 12074 4792 6601     		.2byte	0x166
 12075 4794 00000000 		.4byte	.LFB146
 12076 4798 58000000 		.4byte	.LFE146-.LFB146
 12077 479c 01       		.uleb128 0x1
 12078 479d 9C       		.byte	0x9c
 12079 479e B2470000 		.4byte	0x47b2
 12080 47a2 39       		.uleb128 0x39
 12081 47a3 45000000 		.4byte	.LASF854
 12082 47a7 C2470000 		.4byte	0x47c2
 12083 47ab 05       		.uleb128 0x5
 12084 47ac 03       		.byte	0x3
 12085 47ad 00000000 		.4byte	__func__.7554
 12086 47b1 00       		.byte	0
 12087 47b2 0A       		.uleb128 0xa
 12088 47b3 6C010000 		.4byte	0x16c
 12089 47b7 C2470000 		.4byte	0x47c2
 12090 47bb 0B       		.uleb128 0xb
 12091 47bc 37000000 		.4byte	0x37
 12092 47c0 0B       		.byte	0xb
 12093 47c1 00       		.byte	0
 12094 47c2 0F       		.uleb128 0xf
 12095 47c3 B2470000 		.4byte	0x47b2
 12096 47c7 42       		.uleb128 0x42
 12097 47c8 6A170000 		.4byte	.LASF887
 12098 47cc 03       		.byte	0x3
 12099 47cd 5A01     		.2byte	0x15a
 12100 47cf 00000000 		.4byte	.LFB145
 12101 47d3 30000000 		.4byte	.LFE145-.LFB145
 12102 47d7 01       		.uleb128 0x1
 12103 47d8 9C       		.byte	0x9c
 12104 47d9 42       		.uleb128 0x42
 12105 47da 78000000 		.4byte	.LASF888
 12106 47de 01       		.byte	0x1
 12107 47df E401     		.2byte	0x1e4
 12108 47e1 00000000 		.4byte	.LFB119
 12109 47e5 28000000 		.4byte	.LFE119-.LFB119
 12110 47e9 01       		.uleb128 0x1
 12111 47ea 9C       		.byte	0x9c
 12112 47eb 42       		.uleb128 0x42
 12113 47ec 13140000 		.4byte	.LASF889
 12114 47f0 01       		.byte	0x1
 12115 47f1 D901     		.2byte	0x1d9
 12116 47f3 00000000 		.4byte	.LFB118
ARM GAS  C:\Users\PCHAUT~1\AppData\Local\Temp\ccORgsmL.s 			page 214


 12117 47f7 28000000 		.4byte	.LFE118-.LFB118
 12118 47fb 01       		.uleb128 0x1
 12119 47fc 9C       		.byte	0x9c
 12120 47fd 3D       		.uleb128 0x3d
 12121 47fe 32170000 		.4byte	.LASF890
 12122 4802 01       		.byte	0x1
 12123 4803 CA01     		.2byte	0x1ca
 12124 4805 00000000 		.4byte	.LFB117
 12125 4809 30000000 		.4byte	.LFE117-.LFB117
 12126 480d 01       		.uleb128 0x1
 12127 480e 9C       		.byte	0x9c
 12128 480f 2D480000 		.4byte	0x482d
 12129 4813 43       		.uleb128 0x43
 12130 4814 5D480000 		.4byte	0x485d
 12131 4818 0E000000 		.4byte	.LBB8
 12132 481c 06000000 		.4byte	.LBE8-.LBB8
 12133 4820 01       		.byte	0x1
 12134 4821 CD01     		.2byte	0x1cd
 12135 4823 44       		.uleb128 0x44
 12136 4824 66480000 		.4byte	0x4866
 12137 4828 02       		.uleb128 0x2
 12138 4829 91       		.byte	0x91
 12139 482a 70       		.sleb128 -16
 12140 482b 00       		.byte	0
 12141 482c 00       		.byte	0
 12142 482d 3D       		.uleb128 0x3d
 12143 482e CC180000 		.4byte	.LASF891
 12144 4832 01       		.byte	0x1
 12145 4833 BC01     		.2byte	0x1bc
 12146 4835 00000000 		.4byte	.LFB116
 12147 4839 30000000 		.4byte	.LFE116-.LFB116
 12148 483d 01       		.uleb128 0x1
 12149 483e 9C       		.byte	0x9c
 12150 483f 5D480000 		.4byte	0x485d
 12151 4843 43       		.uleb128 0x43
 12152 4844 5D480000 		.4byte	0x485d
 12153 4848 0E000000 		.4byte	.LBB6
 12154 484c 06000000 		.4byte	.LBE6-.LBB6
 12155 4850 01       		.byte	0x1
 12156 4851 BF01     		.2byte	0x1bf
 12157 4853 44       		.uleb128 0x44
 12158 4854 66480000 		.4byte	0x4866
 12159 4858 02       		.uleb128 0x2
 12160 4859 91       		.byte	0x91
 12161 485a 70       		.sleb128 -16
 12162 485b 00       		.byte	0
 12163 485c 00       		.byte	0
 12164 485d 45       		.uleb128 0x45
 12165 485e 66220000 		.4byte	.LASF895
 12166 4862 02       		.byte	0x2
 12167 4863 2002     		.2byte	0x220
 12168 4865 03       		.byte	0x3
 12169 4866 46       		.uleb128 0x46
 12170 4867 F70C0000 		.4byte	.LASF896
 12171 486b 02       		.byte	0x2
 12172 486c 2002     		.2byte	0x220
 12173 486e 1C090000 		.4byte	0x91c
ARM GAS  C:\Users\PCHAUT~1\AppData\Local\Temp\ccORgsmL.s 			page 215


 12174 4872 00       		.byte	0
 12175 4873 00       		.byte	0
 12176              		.section	.debug_abbrev,"",%progbits
 12177              	.Ldebug_abbrev0:
 12178 0000 01       		.uleb128 0x1
 12179 0001 11       		.uleb128 0x11
 12180 0002 01       		.byte	0x1
 12181 0003 25       		.uleb128 0x25
 12182 0004 0E       		.uleb128 0xe
 12183 0005 13       		.uleb128 0x13
 12184 0006 0B       		.uleb128 0xb
 12185 0007 03       		.uleb128 0x3
 12186 0008 0E       		.uleb128 0xe
 12187 0009 1B       		.uleb128 0x1b
 12188 000a 0E       		.uleb128 0xe
 12189 000b 55       		.uleb128 0x55
 12190 000c 17       		.uleb128 0x17
 12191 000d 11       		.uleb128 0x11
 12192 000e 01       		.uleb128 0x1
 12193 000f 10       		.uleb128 0x10
 12194 0010 17       		.uleb128 0x17
 12195 0011 00       		.byte	0
 12196 0012 00       		.byte	0
 12197 0013 02       		.uleb128 0x2
 12198 0014 24       		.uleb128 0x24
 12199 0015 00       		.byte	0
 12200 0016 0B       		.uleb128 0xb
 12201 0017 0B       		.uleb128 0xb
 12202 0018 3E       		.uleb128 0x3e
 12203 0019 0B       		.uleb128 0xb
 12204 001a 03       		.uleb128 0x3
 12205 001b 08       		.uleb128 0x8
 12206 001c 00       		.byte	0
 12207 001d 00       		.byte	0
 12208 001e 03       		.uleb128 0x3
 12209 001f 16       		.uleb128 0x16
 12210 0020 00       		.byte	0
 12211 0021 03       		.uleb128 0x3
 12212 0022 0E       		.uleb128 0xe
 12213 0023 3A       		.uleb128 0x3a
 12214 0024 0B       		.uleb128 0xb
 12215 0025 3B       		.uleb128 0x3b
 12216 0026 0B       		.uleb128 0xb
 12217 0027 49       		.uleb128 0x49
 12218 0028 13       		.uleb128 0x13
 12219 0029 00       		.byte	0
 12220 002a 00       		.byte	0
 12221 002b 04       		.uleb128 0x4
 12222 002c 24       		.uleb128 0x24
 12223 002d 00       		.byte	0
 12224 002e 0B       		.uleb128 0xb
 12225 002f 0B       		.uleb128 0xb
 12226 0030 3E       		.uleb128 0x3e
 12227 0031 0B       		.uleb128 0xb
 12228 0032 03       		.uleb128 0x3
 12229 0033 0E       		.uleb128 0xe
 12230 0034 00       		.byte	0
ARM GAS  C:\Users\PCHAUT~1\AppData\Local\Temp\ccORgsmL.s 			page 216


 12231 0035 00       		.byte	0
 12232 0036 05       		.uleb128 0x5
 12233 0037 0F       		.uleb128 0xf
 12234 0038 00       		.byte	0
 12235 0039 0B       		.uleb128 0xb
 12236 003a 0B       		.uleb128 0xb
 12237 003b 49       		.uleb128 0x49
 12238 003c 13       		.uleb128 0x13
 12239 003d 00       		.byte	0
 12240 003e 00       		.byte	0
 12241 003f 06       		.uleb128 0x6
 12242 0040 13       		.uleb128 0x13
 12243 0041 00       		.byte	0
 12244 0042 03       		.uleb128 0x3
 12245 0043 0E       		.uleb128 0xe
 12246 0044 3C       		.uleb128 0x3c
 12247 0045 19       		.uleb128 0x19
 12248 0046 00       		.byte	0
 12249 0047 00       		.byte	0
 12250 0048 07       		.uleb128 0x7
 12251 0049 16       		.uleb128 0x16
 12252 004a 00       		.byte	0
 12253 004b 03       		.uleb128 0x3
 12254 004c 0E       		.uleb128 0xe
 12255 004d 3A       		.uleb128 0x3a
 12256 004e 0B       		.uleb128 0xb
 12257 004f 3B       		.uleb128 0x3b
 12258 0050 05       		.uleb128 0x5
 12259 0051 49       		.uleb128 0x49
 12260 0052 13       		.uleb128 0x13
 12261 0053 00       		.byte	0
 12262 0054 00       		.byte	0
 12263 0055 08       		.uleb128 0x8
 12264 0056 17       		.uleb128 0x17
 12265 0057 01       		.byte	0x1
 12266 0058 0B       		.uleb128 0xb
 12267 0059 0B       		.uleb128 0xb
 12268 005a 3A       		.uleb128 0x3a
 12269 005b 0B       		.uleb128 0xb
 12270 005c 3B       		.uleb128 0x3b
 12271 005d 0B       		.uleb128 0xb
 12272 005e 01       		.uleb128 0x1
 12273 005f 13       		.uleb128 0x13
 12274 0060 00       		.byte	0
 12275 0061 00       		.byte	0
 12276 0062 09       		.uleb128 0x9
 12277 0063 0D       		.uleb128 0xd
 12278 0064 00       		.byte	0
 12279 0065 03       		.uleb128 0x3
 12280 0066 0E       		.uleb128 0xe
 12281 0067 3A       		.uleb128 0x3a
 12282 0068 0B       		.uleb128 0xb
 12283 0069 3B       		.uleb128 0x3b
 12284 006a 0B       		.uleb128 0xb
 12285 006b 49       		.uleb128 0x49
 12286 006c 13       		.uleb128 0x13
 12287 006d 00       		.byte	0
ARM GAS  C:\Users\PCHAUT~1\AppData\Local\Temp\ccORgsmL.s 			page 217


 12288 006e 00       		.byte	0
 12289 006f 0A       		.uleb128 0xa
 12290 0070 01       		.uleb128 0x1
 12291 0071 01       		.byte	0x1
 12292 0072 49       		.uleb128 0x49
 12293 0073 13       		.uleb128 0x13
 12294 0074 01       		.uleb128 0x1
 12295 0075 13       		.uleb128 0x13
 12296 0076 00       		.byte	0
 12297 0077 00       		.byte	0
 12298 0078 0B       		.uleb128 0xb
 12299 0079 21       		.uleb128 0x21
 12300 007a 00       		.byte	0
 12301 007b 49       		.uleb128 0x49
 12302 007c 13       		.uleb128 0x13
 12303 007d 2F       		.uleb128 0x2f
 12304 007e 0B       		.uleb128 0xb
 12305 007f 00       		.byte	0
 12306 0080 00       		.byte	0
 12307 0081 0C       		.uleb128 0xc
 12308 0082 13       		.uleb128 0x13
 12309 0083 01       		.byte	0x1
 12310 0084 0B       		.uleb128 0xb
 12311 0085 0B       		.uleb128 0xb
 12312 0086 3A       		.uleb128 0x3a
 12313 0087 0B       		.uleb128 0xb
 12314 0088 3B       		.uleb128 0x3b
 12315 0089 0B       		.uleb128 0xb
 12316 008a 01       		.uleb128 0x1
 12317 008b 13       		.uleb128 0x13
 12318 008c 00       		.byte	0
 12319 008d 00       		.byte	0
 12320 008e 0D       		.uleb128 0xd
 12321 008f 0D       		.uleb128 0xd
 12322 0090 00       		.byte	0
 12323 0091 03       		.uleb128 0x3
 12324 0092 0E       		.uleb128 0xe
 12325 0093 3A       		.uleb128 0x3a
 12326 0094 0B       		.uleb128 0xb
 12327 0095 3B       		.uleb128 0x3b
 12328 0096 0B       		.uleb128 0xb
 12329 0097 49       		.uleb128 0x49
 12330 0098 13       		.uleb128 0x13
 12331 0099 38       		.uleb128 0x38
 12332 009a 0B       		.uleb128 0xb
 12333 009b 00       		.byte	0
 12334 009c 00       		.byte	0
 12335 009d 0E       		.uleb128 0xe
 12336 009e 0F       		.uleb128 0xf
 12337 009f 00       		.byte	0
 12338 00a0 0B       		.uleb128 0xb
 12339 00a1 0B       		.uleb128 0xb
 12340 00a2 00       		.byte	0
 12341 00a3 00       		.byte	0
 12342 00a4 0F       		.uleb128 0xf
 12343 00a5 26       		.uleb128 0x26
 12344 00a6 00       		.byte	0
ARM GAS  C:\Users\PCHAUT~1\AppData\Local\Temp\ccORgsmL.s 			page 218


 12345 00a7 49       		.uleb128 0x49
 12346 00a8 13       		.uleb128 0x13
 12347 00a9 00       		.byte	0
 12348 00aa 00       		.byte	0
 12349 00ab 10       		.uleb128 0x10
 12350 00ac 13       		.uleb128 0x13
 12351 00ad 01       		.byte	0x1
 12352 00ae 03       		.uleb128 0x3
 12353 00af 0E       		.uleb128 0xe
 12354 00b0 0B       		.uleb128 0xb
 12355 00b1 0B       		.uleb128 0xb
 12356 00b2 3A       		.uleb128 0x3a
 12357 00b3 0B       		.uleb128 0xb
 12358 00b4 3B       		.uleb128 0x3b
 12359 00b5 0B       		.uleb128 0xb
 12360 00b6 01       		.uleb128 0x1
 12361 00b7 13       		.uleb128 0x13
 12362 00b8 00       		.byte	0
 12363 00b9 00       		.byte	0
 12364 00ba 11       		.uleb128 0x11
 12365 00bb 0D       		.uleb128 0xd
 12366 00bc 00       		.byte	0
 12367 00bd 03       		.uleb128 0x3
 12368 00be 08       		.uleb128 0x8
 12369 00bf 3A       		.uleb128 0x3a
 12370 00c0 0B       		.uleb128 0xb
 12371 00c1 3B       		.uleb128 0x3b
 12372 00c2 0B       		.uleb128 0xb
 12373 00c3 49       		.uleb128 0x49
 12374 00c4 13       		.uleb128 0x13
 12375 00c5 38       		.uleb128 0x38
 12376 00c6 0B       		.uleb128 0xb
 12377 00c7 00       		.byte	0
 12378 00c8 00       		.byte	0
 12379 00c9 12       		.uleb128 0x12
 12380 00ca 13       		.uleb128 0x13
 12381 00cb 01       		.byte	0x1
 12382 00cc 03       		.uleb128 0x3
 12383 00cd 0E       		.uleb128 0xe
 12384 00ce 0B       		.uleb128 0xb
 12385 00cf 05       		.uleb128 0x5
 12386 00d0 3A       		.uleb128 0x3a
 12387 00d1 0B       		.uleb128 0xb
 12388 00d2 3B       		.uleb128 0x3b
 12389 00d3 0B       		.uleb128 0xb
 12390 00d4 01       		.uleb128 0x1
 12391 00d5 13       		.uleb128 0x13
 12392 00d6 00       		.byte	0
 12393 00d7 00       		.byte	0
 12394 00d8 13       		.uleb128 0x13
 12395 00d9 0D       		.uleb128 0xd
 12396 00da 00       		.byte	0
 12397 00db 03       		.uleb128 0x3
 12398 00dc 0E       		.uleb128 0xe
 12399 00dd 3A       		.uleb128 0x3a
 12400 00de 0B       		.uleb128 0xb
 12401 00df 3B       		.uleb128 0x3b
ARM GAS  C:\Users\PCHAUT~1\AppData\Local\Temp\ccORgsmL.s 			page 219


 12402 00e0 0B       		.uleb128 0xb
 12403 00e1 49       		.uleb128 0x49
 12404 00e2 13       		.uleb128 0x13
 12405 00e3 38       		.uleb128 0x38
 12406 00e4 05       		.uleb128 0x5
 12407 00e5 00       		.byte	0
 12408 00e6 00       		.byte	0
 12409 00e7 14       		.uleb128 0x14
 12410 00e8 15       		.uleb128 0x15
 12411 00e9 00       		.byte	0
 12412 00ea 27       		.uleb128 0x27
 12413 00eb 19       		.uleb128 0x19
 12414 00ec 00       		.byte	0
 12415 00ed 00       		.byte	0
 12416 00ee 15       		.uleb128 0x15
 12417 00ef 15       		.uleb128 0x15
 12418 00f0 01       		.byte	0x1
 12419 00f1 27       		.uleb128 0x27
 12420 00f2 19       		.uleb128 0x19
 12421 00f3 49       		.uleb128 0x49
 12422 00f4 13       		.uleb128 0x13
 12423 00f5 01       		.uleb128 0x1
 12424 00f6 13       		.uleb128 0x13
 12425 00f7 00       		.byte	0
 12426 00f8 00       		.byte	0
 12427 00f9 16       		.uleb128 0x16
 12428 00fa 05       		.uleb128 0x5
 12429 00fb 00       		.byte	0
 12430 00fc 49       		.uleb128 0x49
 12431 00fd 13       		.uleb128 0x13
 12432 00fe 00       		.byte	0
 12433 00ff 00       		.byte	0
 12434 0100 17       		.uleb128 0x17
 12435 0101 13       		.uleb128 0x13
 12436 0102 01       		.byte	0x1
 12437 0103 03       		.uleb128 0x3
 12438 0104 0E       		.uleb128 0xe
 12439 0105 0B       		.uleb128 0xb
 12440 0106 05       		.uleb128 0x5
 12441 0107 3A       		.uleb128 0x3a
 12442 0108 0B       		.uleb128 0xb
 12443 0109 3B       		.uleb128 0x3b
 12444 010a 05       		.uleb128 0x5
 12445 010b 01       		.uleb128 0x1
 12446 010c 13       		.uleb128 0x13
 12447 010d 00       		.byte	0
 12448 010e 00       		.byte	0
 12449 010f 18       		.uleb128 0x18
 12450 0110 0D       		.uleb128 0xd
 12451 0111 00       		.byte	0
 12452 0112 03       		.uleb128 0x3
 12453 0113 0E       		.uleb128 0xe
 12454 0114 3A       		.uleb128 0x3a
 12455 0115 0B       		.uleb128 0xb
 12456 0116 3B       		.uleb128 0x3b
 12457 0117 05       		.uleb128 0x5
 12458 0118 49       		.uleb128 0x49
ARM GAS  C:\Users\PCHAUT~1\AppData\Local\Temp\ccORgsmL.s 			page 220


 12459 0119 13       		.uleb128 0x13
 12460 011a 38       		.uleb128 0x38
 12461 011b 0B       		.uleb128 0xb
 12462 011c 00       		.byte	0
 12463 011d 00       		.byte	0
 12464 011e 19       		.uleb128 0x19
 12465 011f 0D       		.uleb128 0xd
 12466 0120 00       		.byte	0
 12467 0121 03       		.uleb128 0x3
 12468 0122 0E       		.uleb128 0xe
 12469 0123 3A       		.uleb128 0x3a
 12470 0124 0B       		.uleb128 0xb
 12471 0125 3B       		.uleb128 0x3b
 12472 0126 05       		.uleb128 0x5
 12473 0127 49       		.uleb128 0x49
 12474 0128 13       		.uleb128 0x13
 12475 0129 38       		.uleb128 0x38
 12476 012a 05       		.uleb128 0x5
 12477 012b 00       		.byte	0
 12478 012c 00       		.byte	0
 12479 012d 1A       		.uleb128 0x1a
 12480 012e 35       		.uleb128 0x35
 12481 012f 00       		.byte	0
 12482 0130 49       		.uleb128 0x49
 12483 0131 13       		.uleb128 0x13
 12484 0132 00       		.byte	0
 12485 0133 00       		.byte	0
 12486 0134 1B       		.uleb128 0x1b
 12487 0135 13       		.uleb128 0x13
 12488 0136 01       		.byte	0x1
 12489 0137 03       		.uleb128 0x3
 12490 0138 0E       		.uleb128 0xe
 12491 0139 0B       		.uleb128 0xb
 12492 013a 0B       		.uleb128 0xb
 12493 013b 3A       		.uleb128 0x3a
 12494 013c 0B       		.uleb128 0xb
 12495 013d 3B       		.uleb128 0x3b
 12496 013e 05       		.uleb128 0x5
 12497 013f 01       		.uleb128 0x1
 12498 0140 13       		.uleb128 0x13
 12499 0141 00       		.byte	0
 12500 0142 00       		.byte	0
 12501 0143 1C       		.uleb128 0x1c
 12502 0144 13       		.uleb128 0x13
 12503 0145 01       		.byte	0x1
 12504 0146 0B       		.uleb128 0xb
 12505 0147 0B       		.uleb128 0xb
 12506 0148 3A       		.uleb128 0x3a
 12507 0149 0B       		.uleb128 0xb
 12508 014a 3B       		.uleb128 0x3b
 12509 014b 05       		.uleb128 0x5
 12510 014c 01       		.uleb128 0x1
 12511 014d 13       		.uleb128 0x13
 12512 014e 00       		.byte	0
 12513 014f 00       		.byte	0
 12514 0150 1D       		.uleb128 0x1d
 12515 0151 17       		.uleb128 0x17
ARM GAS  C:\Users\PCHAUT~1\AppData\Local\Temp\ccORgsmL.s 			page 221


 12516 0152 01       		.byte	0x1
 12517 0153 0B       		.uleb128 0xb
 12518 0154 0B       		.uleb128 0xb
 12519 0155 3A       		.uleb128 0x3a
 12520 0156 0B       		.uleb128 0xb
 12521 0157 3B       		.uleb128 0x3b
 12522 0158 05       		.uleb128 0x5
 12523 0159 01       		.uleb128 0x1
 12524 015a 13       		.uleb128 0x13
 12525 015b 00       		.byte	0
 12526 015c 00       		.byte	0
 12527 015d 1E       		.uleb128 0x1e
 12528 015e 0D       		.uleb128 0xd
 12529 015f 00       		.byte	0
 12530 0160 03       		.uleb128 0x3
 12531 0161 0E       		.uleb128 0xe
 12532 0162 3A       		.uleb128 0x3a
 12533 0163 0B       		.uleb128 0xb
 12534 0164 3B       		.uleb128 0x3b
 12535 0165 05       		.uleb128 0x5
 12536 0166 49       		.uleb128 0x49
 12537 0167 13       		.uleb128 0x13
 12538 0168 00       		.byte	0
 12539 0169 00       		.byte	0
 12540 016a 1F       		.uleb128 0x1f
 12541 016b 15       		.uleb128 0x15
 12542 016c 01       		.byte	0x1
 12543 016d 27       		.uleb128 0x27
 12544 016e 19       		.uleb128 0x19
 12545 016f 01       		.uleb128 0x1
 12546 0170 13       		.uleb128 0x13
 12547 0171 00       		.byte	0
 12548 0172 00       		.byte	0
 12549 0173 20       		.uleb128 0x20
 12550 0174 34       		.uleb128 0x34
 12551 0175 00       		.byte	0
 12552 0176 03       		.uleb128 0x3
 12553 0177 0E       		.uleb128 0xe
 12554 0178 3A       		.uleb128 0x3a
 12555 0179 0B       		.uleb128 0xb
 12556 017a 3B       		.uleb128 0x3b
 12557 017b 05       		.uleb128 0x5
 12558 017c 49       		.uleb128 0x49
 12559 017d 13       		.uleb128 0x13
 12560 017e 3F       		.uleb128 0x3f
 12561 017f 19       		.uleb128 0x19
 12562 0180 3C       		.uleb128 0x3c
 12563 0181 19       		.uleb128 0x19
 12564 0182 00       		.byte	0
 12565 0183 00       		.byte	0
 12566 0184 21       		.uleb128 0x21
 12567 0185 0D       		.uleb128 0xd
 12568 0186 00       		.byte	0
 12569 0187 03       		.uleb128 0x3
 12570 0188 08       		.uleb128 0x8
 12571 0189 3A       		.uleb128 0x3a
 12572 018a 0B       		.uleb128 0xb
ARM GAS  C:\Users\PCHAUT~1\AppData\Local\Temp\ccORgsmL.s 			page 222


 12573 018b 3B       		.uleb128 0x3b
 12574 018c 05       		.uleb128 0x5
 12575 018d 49       		.uleb128 0x49
 12576 018e 13       		.uleb128 0x13
 12577 018f 38       		.uleb128 0x38
 12578 0190 0B       		.uleb128 0xb
 12579 0191 00       		.byte	0
 12580 0192 00       		.byte	0
 12581 0193 22       		.uleb128 0x22
 12582 0194 0D       		.uleb128 0xd
 12583 0195 00       		.byte	0
 12584 0196 03       		.uleb128 0x3
 12585 0197 08       		.uleb128 0x8
 12586 0198 3A       		.uleb128 0x3a
 12587 0199 0B       		.uleb128 0xb
 12588 019a 3B       		.uleb128 0x3b
 12589 019b 05       		.uleb128 0x5
 12590 019c 49       		.uleb128 0x49
 12591 019d 13       		.uleb128 0x13
 12592 019e 38       		.uleb128 0x38
 12593 019f 05       		.uleb128 0x5
 12594 01a0 00       		.byte	0
 12595 01a1 00       		.byte	0
 12596 01a2 23       		.uleb128 0x23
 12597 01a3 34       		.uleb128 0x34
 12598 01a4 00       		.byte	0
 12599 01a5 03       		.uleb128 0x3
 12600 01a6 0E       		.uleb128 0xe
 12601 01a7 3A       		.uleb128 0x3a
 12602 01a8 0B       		.uleb128 0xb
 12603 01a9 3B       		.uleb128 0x3b
 12604 01aa 0B       		.uleb128 0xb
 12605 01ab 49       		.uleb128 0x49
 12606 01ac 13       		.uleb128 0x13
 12607 01ad 3F       		.uleb128 0x3f
 12608 01ae 19       		.uleb128 0x19
 12609 01af 3C       		.uleb128 0x3c
 12610 01b0 19       		.uleb128 0x19
 12611 01b1 00       		.byte	0
 12612 01b2 00       		.byte	0
 12613 01b3 24       		.uleb128 0x24
 12614 01b4 13       		.uleb128 0x13
 12615 01b5 01       		.byte	0x1
 12616 01b6 0B       		.uleb128 0xb
 12617 01b7 05       		.uleb128 0x5
 12618 01b8 3A       		.uleb128 0x3a
 12619 01b9 0B       		.uleb128 0xb
 12620 01ba 3B       		.uleb128 0x3b
 12621 01bb 05       		.uleb128 0x5
 12622 01bc 01       		.uleb128 0x1
 12623 01bd 13       		.uleb128 0x13
 12624 01be 00       		.byte	0
 12625 01bf 00       		.byte	0
 12626 01c0 25       		.uleb128 0x25
 12627 01c1 13       		.uleb128 0x13
 12628 01c2 01       		.byte	0x1
 12629 01c3 0B       		.uleb128 0xb
ARM GAS  C:\Users\PCHAUT~1\AppData\Local\Temp\ccORgsmL.s 			page 223


 12630 01c4 05       		.uleb128 0x5
 12631 01c5 3A       		.uleb128 0x3a
 12632 01c6 0B       		.uleb128 0xb
 12633 01c7 3B       		.uleb128 0x3b
 12634 01c8 0B       		.uleb128 0xb
 12635 01c9 01       		.uleb128 0x1
 12636 01ca 13       		.uleb128 0x13
 12637 01cb 00       		.byte	0
 12638 01cc 00       		.byte	0
 12639 01cd 26       		.uleb128 0x26
 12640 01ce 34       		.uleb128 0x34
 12641 01cf 00       		.byte	0
 12642 01d0 03       		.uleb128 0x3
 12643 01d1 08       		.uleb128 0x8
 12644 01d2 3A       		.uleb128 0x3a
 12645 01d3 0B       		.uleb128 0xb
 12646 01d4 3B       		.uleb128 0x3b
 12647 01d5 05       		.uleb128 0x5
 12648 01d6 49       		.uleb128 0x49
 12649 01d7 13       		.uleb128 0x13
 12650 01d8 3F       		.uleb128 0x3f
 12651 01d9 19       		.uleb128 0x19
 12652 01da 3C       		.uleb128 0x3c
 12653 01db 19       		.uleb128 0x19
 12654 01dc 00       		.byte	0
 12655 01dd 00       		.byte	0
 12656 01de 27       		.uleb128 0x27
 12657 01df 04       		.uleb128 0x4
 12658 01e0 01       		.byte	0x1
 12659 01e1 3E       		.uleb128 0x3e
 12660 01e2 0B       		.uleb128 0xb
 12661 01e3 0B       		.uleb128 0xb
 12662 01e4 0B       		.uleb128 0xb
 12663 01e5 49       		.uleb128 0x49
 12664 01e6 13       		.uleb128 0x13
 12665 01e7 3A       		.uleb128 0x3a
 12666 01e8 0B       		.uleb128 0xb
 12667 01e9 3B       		.uleb128 0x3b
 12668 01ea 0B       		.uleb128 0xb
 12669 01eb 01       		.uleb128 0x1
 12670 01ec 13       		.uleb128 0x13
 12671 01ed 00       		.byte	0
 12672 01ee 00       		.byte	0
 12673 01ef 28       		.uleb128 0x28
 12674 01f0 28       		.uleb128 0x28
 12675 01f1 00       		.byte	0
 12676 01f2 03       		.uleb128 0x3
 12677 01f3 0E       		.uleb128 0xe
 12678 01f4 1C       		.uleb128 0x1c
 12679 01f5 0B       		.uleb128 0xb
 12680 01f6 00       		.byte	0
 12681 01f7 00       		.byte	0
 12682 01f8 29       		.uleb128 0x29
 12683 01f9 0D       		.uleb128 0xd
 12684 01fa 00       		.byte	0
 12685 01fb 03       		.uleb128 0x3
 12686 01fc 08       		.uleb128 0x8
ARM GAS  C:\Users\PCHAUT~1\AppData\Local\Temp\ccORgsmL.s 			page 224


 12687 01fd 3A       		.uleb128 0x3a
 12688 01fe 0B       		.uleb128 0xb
 12689 01ff 3B       		.uleb128 0x3b
 12690 0200 0B       		.uleb128 0xb
 12691 0201 49       		.uleb128 0x49
 12692 0202 13       		.uleb128 0x13
 12693 0203 00       		.byte	0
 12694 0204 00       		.byte	0
 12695 0205 2A       		.uleb128 0x2a
 12696 0206 04       		.uleb128 0x4
 12697 0207 01       		.byte	0x1
 12698 0208 3E       		.uleb128 0x3e
 12699 0209 0B       		.uleb128 0xb
 12700 020a 0B       		.uleb128 0xb
 12701 020b 0B       		.uleb128 0xb
 12702 020c 49       		.uleb128 0x49
 12703 020d 13       		.uleb128 0x13
 12704 020e 3A       		.uleb128 0x3a
 12705 020f 0B       		.uleb128 0xb
 12706 0210 3B       		.uleb128 0x3b
 12707 0211 05       		.uleb128 0x5
 12708 0212 01       		.uleb128 0x1
 12709 0213 13       		.uleb128 0x13
 12710 0214 00       		.byte	0
 12711 0215 00       		.byte	0
 12712 0216 2B       		.uleb128 0x2b
 12713 0217 26       		.uleb128 0x26
 12714 0218 00       		.byte	0
 12715 0219 00       		.byte	0
 12716 021a 00       		.byte	0
 12717 021b 2C       		.uleb128 0x2c
 12718 021c 13       		.uleb128 0x13
 12719 021d 01       		.byte	0x1
 12720 021e 0B       		.uleb128 0xb
 12721 021f 06       		.uleb128 0x6
 12722 0220 3A       		.uleb128 0x3a
 12723 0221 0B       		.uleb128 0xb
 12724 0222 3B       		.uleb128 0x3b
 12725 0223 0B       		.uleb128 0xb
 12726 0224 01       		.uleb128 0x1
 12727 0225 13       		.uleb128 0x13
 12728 0226 00       		.byte	0
 12729 0227 00       		.byte	0
 12730 0228 2D       		.uleb128 0x2d
 12731 0229 0D       		.uleb128 0xd
 12732 022a 00       		.byte	0
 12733 022b 03       		.uleb128 0x3
 12734 022c 08       		.uleb128 0x8
 12735 022d 3A       		.uleb128 0x3a
 12736 022e 0B       		.uleb128 0xb
 12737 022f 3B       		.uleb128 0x3b
 12738 0230 0B       		.uleb128 0xb
 12739 0231 49       		.uleb128 0x49
 12740 0232 13       		.uleb128 0x13
 12741 0233 38       		.uleb128 0x38
 12742 0234 05       		.uleb128 0x5
 12743 0235 00       		.byte	0
ARM GAS  C:\Users\PCHAUT~1\AppData\Local\Temp\ccORgsmL.s 			page 225


 12744 0236 00       		.byte	0
 12745 0237 2E       		.uleb128 0x2e
 12746 0238 21       		.uleb128 0x21
 12747 0239 00       		.byte	0
 12748 023a 49       		.uleb128 0x49
 12749 023b 13       		.uleb128 0x13
 12750 023c 2F       		.uleb128 0x2f
 12751 023d 05       		.uleb128 0x5
 12752 023e 00       		.byte	0
 12753 023f 00       		.byte	0
 12754 0240 2F       		.uleb128 0x2f
 12755 0241 34       		.uleb128 0x34
 12756 0242 00       		.byte	0
 12757 0243 47       		.uleb128 0x47
 12758 0244 13       		.uleb128 0x13
 12759 0245 3A       		.uleb128 0x3a
 12760 0246 0B       		.uleb128 0xb
 12761 0247 3B       		.uleb128 0x3b
 12762 0248 0B       		.uleb128 0xb
 12763 0249 02       		.uleb128 0x2
 12764 024a 18       		.uleb128 0x18
 12765 024b 00       		.byte	0
 12766 024c 00       		.byte	0
 12767 024d 30       		.uleb128 0x30
 12768 024e 17       		.uleb128 0x17
 12769 024f 01       		.byte	0x1
 12770 0250 0B       		.uleb128 0xb
 12771 0251 05       		.uleb128 0x5
 12772 0252 3A       		.uleb128 0x3a
 12773 0253 0B       		.uleb128 0xb
 12774 0254 3B       		.uleb128 0x3b
 12775 0255 0B       		.uleb128 0xb
 12776 0256 01       		.uleb128 0x1
 12777 0257 13       		.uleb128 0x13
 12778 0258 00       		.byte	0
 12779 0259 00       		.byte	0
 12780 025a 31       		.uleb128 0x31
 12781 025b 34       		.uleb128 0x34
 12782 025c 00       		.byte	0
 12783 025d 03       		.uleb128 0x3
 12784 025e 08       		.uleb128 0x8
 12785 025f 3A       		.uleb128 0x3a
 12786 0260 0B       		.uleb128 0xb
 12787 0261 3B       		.uleb128 0x3b
 12788 0262 0B       		.uleb128 0xb
 12789 0263 49       		.uleb128 0x49
 12790 0264 13       		.uleb128 0x13
 12791 0265 02       		.uleb128 0x2
 12792 0266 18       		.uleb128 0x18
 12793 0267 00       		.byte	0
 12794 0268 00       		.byte	0
 12795 0269 32       		.uleb128 0x32
 12796 026a 34       		.uleb128 0x34
 12797 026b 00       		.byte	0
 12798 026c 03       		.uleb128 0x3
 12799 026d 0E       		.uleb128 0xe
 12800 026e 3A       		.uleb128 0x3a
ARM GAS  C:\Users\PCHAUT~1\AppData\Local\Temp\ccORgsmL.s 			page 226


 12801 026f 0B       		.uleb128 0xb
 12802 0270 3B       		.uleb128 0x3b
 12803 0271 0B       		.uleb128 0xb
 12804 0272 49       		.uleb128 0x49
 12805 0273 13       		.uleb128 0x13
 12806 0274 02       		.uleb128 0x2
 12807 0275 18       		.uleb128 0x18
 12808 0276 00       		.byte	0
 12809 0277 00       		.byte	0
 12810 0278 33       		.uleb128 0x33
 12811 0279 2E       		.uleb128 0x2e
 12812 027a 01       		.byte	0x1
 12813 027b 3F       		.uleb128 0x3f
 12814 027c 19       		.uleb128 0x19
 12815 027d 03       		.uleb128 0x3
 12816 027e 0E       		.uleb128 0xe
 12817 027f 3A       		.uleb128 0x3a
 12818 0280 0B       		.uleb128 0xb
 12819 0281 3B       		.uleb128 0x3b
 12820 0282 05       		.uleb128 0x5
 12821 0283 27       		.uleb128 0x27
 12822 0284 19       		.uleb128 0x19
 12823 0285 49       		.uleb128 0x49
 12824 0286 13       		.uleb128 0x13
 12825 0287 11       		.uleb128 0x11
 12826 0288 01       		.uleb128 0x1
 12827 0289 12       		.uleb128 0x12
 12828 028a 06       		.uleb128 0x6
 12829 028b 40       		.uleb128 0x40
 12830 028c 18       		.uleb128 0x18
 12831 028d 9642     		.uleb128 0x2116
 12832 028f 19       		.uleb128 0x19
 12833 0290 01       		.uleb128 0x1
 12834 0291 13       		.uleb128 0x13
 12835 0292 00       		.byte	0
 12836 0293 00       		.byte	0
 12837 0294 34       		.uleb128 0x34
 12838 0295 05       		.uleb128 0x5
 12839 0296 00       		.byte	0
 12840 0297 03       		.uleb128 0x3
 12841 0298 0E       		.uleb128 0xe
 12842 0299 3A       		.uleb128 0x3a
 12843 029a 0B       		.uleb128 0xb
 12844 029b 3B       		.uleb128 0x3b
 12845 029c 05       		.uleb128 0x5
 12846 029d 49       		.uleb128 0x49
 12847 029e 13       		.uleb128 0x13
 12848 029f 02       		.uleb128 0x2
 12849 02a0 18       		.uleb128 0x18
 12850 02a1 00       		.byte	0
 12851 02a2 00       		.byte	0
 12852 02a3 35       		.uleb128 0x35
 12853 02a4 05       		.uleb128 0x5
 12854 02a5 00       		.byte	0
 12855 02a6 03       		.uleb128 0x3
 12856 02a7 08       		.uleb128 0x8
 12857 02a8 3A       		.uleb128 0x3a
ARM GAS  C:\Users\PCHAUT~1\AppData\Local\Temp\ccORgsmL.s 			page 227


 12858 02a9 0B       		.uleb128 0xb
 12859 02aa 3B       		.uleb128 0x3b
 12860 02ab 05       		.uleb128 0x5
 12861 02ac 49       		.uleb128 0x49
 12862 02ad 13       		.uleb128 0x13
 12863 02ae 02       		.uleb128 0x2
 12864 02af 18       		.uleb128 0x18
 12865 02b0 00       		.byte	0
 12866 02b1 00       		.byte	0
 12867 02b2 36       		.uleb128 0x36
 12868 02b3 0B       		.uleb128 0xb
 12869 02b4 01       		.byte	0x1
 12870 02b5 11       		.uleb128 0x11
 12871 02b6 01       		.uleb128 0x1
 12872 02b7 12       		.uleb128 0x12
 12873 02b8 06       		.uleb128 0x6
 12874 02b9 00       		.byte	0
 12875 02ba 00       		.byte	0
 12876 02bb 37       		.uleb128 0x37
 12877 02bc 34       		.uleb128 0x34
 12878 02bd 00       		.byte	0
 12879 02be 03       		.uleb128 0x3
 12880 02bf 08       		.uleb128 0x8
 12881 02c0 3A       		.uleb128 0x3a
 12882 02c1 0B       		.uleb128 0xb
 12883 02c2 3B       		.uleb128 0x3b
 12884 02c3 05       		.uleb128 0x5
 12885 02c4 49       		.uleb128 0x49
 12886 02c5 13       		.uleb128 0x13
 12887 02c6 02       		.uleb128 0x2
 12888 02c7 18       		.uleb128 0x18
 12889 02c8 00       		.byte	0
 12890 02c9 00       		.byte	0
 12891 02ca 38       		.uleb128 0x38
 12892 02cb 34       		.uleb128 0x34
 12893 02cc 00       		.byte	0
 12894 02cd 03       		.uleb128 0x3
 12895 02ce 0E       		.uleb128 0xe
 12896 02cf 3A       		.uleb128 0x3a
 12897 02d0 0B       		.uleb128 0xb
 12898 02d1 3B       		.uleb128 0x3b
 12899 02d2 05       		.uleb128 0x5
 12900 02d3 49       		.uleb128 0x49
 12901 02d4 13       		.uleb128 0x13
 12902 02d5 02       		.uleb128 0x2
 12903 02d6 18       		.uleb128 0x18
 12904 02d7 00       		.byte	0
 12905 02d8 00       		.byte	0
 12906 02d9 39       		.uleb128 0x39
 12907 02da 34       		.uleb128 0x34
 12908 02db 00       		.byte	0
 12909 02dc 03       		.uleb128 0x3
 12910 02dd 0E       		.uleb128 0xe
 12911 02de 49       		.uleb128 0x49
 12912 02df 13       		.uleb128 0x13
 12913 02e0 34       		.uleb128 0x34
 12914 02e1 19       		.uleb128 0x19
ARM GAS  C:\Users\PCHAUT~1\AppData\Local\Temp\ccORgsmL.s 			page 228


 12915 02e2 02       		.uleb128 0x2
 12916 02e3 18       		.uleb128 0x18
 12917 02e4 00       		.byte	0
 12918 02e5 00       		.byte	0
 12919 02e6 3A       		.uleb128 0x3a
 12920 02e7 0A       		.uleb128 0xa
 12921 02e8 00       		.byte	0
 12922 02e9 03       		.uleb128 0x3
 12923 02ea 0E       		.uleb128 0xe
 12924 02eb 3A       		.uleb128 0x3a
 12925 02ec 0B       		.uleb128 0xb
 12926 02ed 3B       		.uleb128 0x3b
 12927 02ee 05       		.uleb128 0x5
 12928 02ef 11       		.uleb128 0x11
 12929 02f0 01       		.uleb128 0x1
 12930 02f1 00       		.byte	0
 12931 02f2 00       		.byte	0
 12932 02f3 3B       		.uleb128 0x3b
 12933 02f4 2E       		.uleb128 0x2e
 12934 02f5 01       		.byte	0x1
 12935 02f6 3F       		.uleb128 0x3f
 12936 02f7 19       		.uleb128 0x19
 12937 02f8 03       		.uleb128 0x3
 12938 02f9 0E       		.uleb128 0xe
 12939 02fa 3A       		.uleb128 0x3a
 12940 02fb 0B       		.uleb128 0xb
 12941 02fc 3B       		.uleb128 0x3b
 12942 02fd 05       		.uleb128 0x5
 12943 02fe 27       		.uleb128 0x27
 12944 02ff 19       		.uleb128 0x19
 12945 0300 11       		.uleb128 0x11
 12946 0301 01       		.uleb128 0x1
 12947 0302 12       		.uleb128 0x12
 12948 0303 06       		.uleb128 0x6
 12949 0304 40       		.uleb128 0x40
 12950 0305 18       		.uleb128 0x18
 12951 0306 9642     		.uleb128 0x2116
 12952 0308 19       		.uleb128 0x19
 12953 0309 01       		.uleb128 0x1
 12954 030a 13       		.uleb128 0x13
 12955 030b 00       		.byte	0
 12956 030c 00       		.byte	0
 12957 030d 3C       		.uleb128 0x3c
 12958 030e 2E       		.uleb128 0x2e
 12959 030f 00       		.byte	0
 12960 0310 3F       		.uleb128 0x3f
 12961 0311 19       		.uleb128 0x19
 12962 0312 03       		.uleb128 0x3
 12963 0313 0E       		.uleb128 0xe
 12964 0314 3A       		.uleb128 0x3a
 12965 0315 0B       		.uleb128 0xb
 12966 0316 3B       		.uleb128 0x3b
 12967 0317 05       		.uleb128 0x5
 12968 0318 27       		.uleb128 0x27
 12969 0319 19       		.uleb128 0x19
 12970 031a 11       		.uleb128 0x11
 12971 031b 01       		.uleb128 0x1
ARM GAS  C:\Users\PCHAUT~1\AppData\Local\Temp\ccORgsmL.s 			page 229


 12972 031c 12       		.uleb128 0x12
 12973 031d 06       		.uleb128 0x6
 12974 031e 40       		.uleb128 0x40
 12975 031f 18       		.uleb128 0x18
 12976 0320 9642     		.uleb128 0x2116
 12977 0322 19       		.uleb128 0x19
 12978 0323 00       		.byte	0
 12979 0324 00       		.byte	0
 12980 0325 3D       		.uleb128 0x3d
 12981 0326 2E       		.uleb128 0x2e
 12982 0327 01       		.byte	0x1
 12983 0328 03       		.uleb128 0x3
 12984 0329 0E       		.uleb128 0xe
 12985 032a 3A       		.uleb128 0x3a
 12986 032b 0B       		.uleb128 0xb
 12987 032c 3B       		.uleb128 0x3b
 12988 032d 05       		.uleb128 0x5
 12989 032e 27       		.uleb128 0x27
 12990 032f 19       		.uleb128 0x19
 12991 0330 11       		.uleb128 0x11
 12992 0331 01       		.uleb128 0x1
 12993 0332 12       		.uleb128 0x12
 12994 0333 06       		.uleb128 0x6
 12995 0334 40       		.uleb128 0x40
 12996 0335 18       		.uleb128 0x18
 12997 0336 9642     		.uleb128 0x2116
 12998 0338 19       		.uleb128 0x19
 12999 0339 01       		.uleb128 0x1
 13000 033a 13       		.uleb128 0x13
 13001 033b 00       		.byte	0
 13002 033c 00       		.byte	0
 13003 033d 3E       		.uleb128 0x3e
 13004 033e 2E       		.uleb128 0x2e
 13005 033f 01       		.byte	0x1
 13006 0340 03       		.uleb128 0x3
 13007 0341 0E       		.uleb128 0xe
 13008 0342 3A       		.uleb128 0x3a
 13009 0343 0B       		.uleb128 0xb
 13010 0344 3B       		.uleb128 0x3b
 13011 0345 0B       		.uleb128 0xb
 13012 0346 27       		.uleb128 0x27
 13013 0347 19       		.uleb128 0x19
 13014 0348 49       		.uleb128 0x49
 13015 0349 13       		.uleb128 0x13
 13016 034a 11       		.uleb128 0x11
 13017 034b 01       		.uleb128 0x1
 13018 034c 12       		.uleb128 0x12
 13019 034d 06       		.uleb128 0x6
 13020 034e 40       		.uleb128 0x40
 13021 034f 18       		.uleb128 0x18
 13022 0350 9642     		.uleb128 0x2116
 13023 0352 19       		.uleb128 0x19
 13024 0353 01       		.uleb128 0x1
 13025 0354 13       		.uleb128 0x13
 13026 0355 00       		.byte	0
 13027 0356 00       		.byte	0
 13028 0357 3F       		.uleb128 0x3f
ARM GAS  C:\Users\PCHAUT~1\AppData\Local\Temp\ccORgsmL.s 			page 230


 13029 0358 05       		.uleb128 0x5
 13030 0359 00       		.byte	0
 13031 035a 03       		.uleb128 0x3
 13032 035b 0E       		.uleb128 0xe
 13033 035c 3A       		.uleb128 0x3a
 13034 035d 0B       		.uleb128 0xb
 13035 035e 3B       		.uleb128 0x3b
 13036 035f 0B       		.uleb128 0xb
 13037 0360 49       		.uleb128 0x49
 13038 0361 13       		.uleb128 0x13
 13039 0362 02       		.uleb128 0x2
 13040 0363 18       		.uleb128 0x18
 13041 0364 00       		.byte	0
 13042 0365 00       		.byte	0
 13043 0366 40       		.uleb128 0x40
 13044 0367 05       		.uleb128 0x5
 13045 0368 00       		.byte	0
 13046 0369 03       		.uleb128 0x3
 13047 036a 08       		.uleb128 0x8
 13048 036b 3A       		.uleb128 0x3a
 13049 036c 0B       		.uleb128 0xb
 13050 036d 3B       		.uleb128 0x3b
 13051 036e 0B       		.uleb128 0xb
 13052 036f 49       		.uleb128 0x49
 13053 0370 13       		.uleb128 0x13
 13054 0371 02       		.uleb128 0x2
 13055 0372 18       		.uleb128 0x18
 13056 0373 00       		.byte	0
 13057 0374 00       		.byte	0
 13058 0375 41       		.uleb128 0x41
 13059 0376 2E       		.uleb128 0x2e
 13060 0377 01       		.byte	0x1
 13061 0378 03       		.uleb128 0x3
 13062 0379 0E       		.uleb128 0xe
 13063 037a 3A       		.uleb128 0x3a
 13064 037b 0B       		.uleb128 0xb
 13065 037c 3B       		.uleb128 0x3b
 13066 037d 05       		.uleb128 0x5
 13067 037e 27       		.uleb128 0x27
 13068 037f 19       		.uleb128 0x19
 13069 0380 49       		.uleb128 0x49
 13070 0381 13       		.uleb128 0x13
 13071 0382 11       		.uleb128 0x11
 13072 0383 01       		.uleb128 0x1
 13073 0384 12       		.uleb128 0x12
 13074 0385 06       		.uleb128 0x6
 13075 0386 40       		.uleb128 0x40
 13076 0387 18       		.uleb128 0x18
 13077 0388 9642     		.uleb128 0x2116
 13078 038a 19       		.uleb128 0x19
 13079 038b 01       		.uleb128 0x1
 13080 038c 13       		.uleb128 0x13
 13081 038d 00       		.byte	0
 13082 038e 00       		.byte	0
 13083 038f 42       		.uleb128 0x42
 13084 0390 2E       		.uleb128 0x2e
 13085 0391 00       		.byte	0
ARM GAS  C:\Users\PCHAUT~1\AppData\Local\Temp\ccORgsmL.s 			page 231


 13086 0392 03       		.uleb128 0x3
 13087 0393 0E       		.uleb128 0xe
 13088 0394 3A       		.uleb128 0x3a
 13089 0395 0B       		.uleb128 0xb
 13090 0396 3B       		.uleb128 0x3b
 13091 0397 05       		.uleb128 0x5
 13092 0398 27       		.uleb128 0x27
 13093 0399 19       		.uleb128 0x19
 13094 039a 11       		.uleb128 0x11
 13095 039b 01       		.uleb128 0x1
 13096 039c 12       		.uleb128 0x12
 13097 039d 06       		.uleb128 0x6
 13098 039e 40       		.uleb128 0x40
 13099 039f 18       		.uleb128 0x18
 13100 03a0 9642     		.uleb128 0x2116
 13101 03a2 19       		.uleb128 0x19
 13102 03a3 00       		.byte	0
 13103 03a4 00       		.byte	0
 13104 03a5 43       		.uleb128 0x43
 13105 03a6 1D       		.uleb128 0x1d
 13106 03a7 01       		.byte	0x1
 13107 03a8 31       		.uleb128 0x31
 13108 03a9 13       		.uleb128 0x13
 13109 03aa 11       		.uleb128 0x11
 13110 03ab 01       		.uleb128 0x1
 13111 03ac 12       		.uleb128 0x12
 13112 03ad 06       		.uleb128 0x6
 13113 03ae 58       		.uleb128 0x58
 13114 03af 0B       		.uleb128 0xb
 13115 03b0 59       		.uleb128 0x59
 13116 03b1 05       		.uleb128 0x5
 13117 03b2 00       		.byte	0
 13118 03b3 00       		.byte	0
 13119 03b4 44       		.uleb128 0x44
 13120 03b5 05       		.uleb128 0x5
 13121 03b6 00       		.byte	0
 13122 03b7 31       		.uleb128 0x31
 13123 03b8 13       		.uleb128 0x13
 13124 03b9 02       		.uleb128 0x2
 13125 03ba 18       		.uleb128 0x18
 13126 03bb 00       		.byte	0
 13127 03bc 00       		.byte	0
 13128 03bd 45       		.uleb128 0x45
 13129 03be 2E       		.uleb128 0x2e
 13130 03bf 01       		.byte	0x1
 13131 03c0 03       		.uleb128 0x3
 13132 03c1 0E       		.uleb128 0xe
 13133 03c2 3A       		.uleb128 0x3a
 13134 03c3 0B       		.uleb128 0xb
 13135 03c4 3B       		.uleb128 0x3b
 13136 03c5 05       		.uleb128 0x5
 13137 03c6 27       		.uleb128 0x27
 13138 03c7 19       		.uleb128 0x19
 13139 03c8 20       		.uleb128 0x20
 13140 03c9 0B       		.uleb128 0xb
 13141 03ca 00       		.byte	0
 13142 03cb 00       		.byte	0
ARM GAS  C:\Users\PCHAUT~1\AppData\Local\Temp\ccORgsmL.s 			page 232


 13143 03cc 46       		.uleb128 0x46
 13144 03cd 05       		.uleb128 0x5
 13145 03ce 00       		.byte	0
 13146 03cf 03       		.uleb128 0x3
 13147 03d0 0E       		.uleb128 0xe
 13148 03d1 3A       		.uleb128 0x3a
 13149 03d2 0B       		.uleb128 0xb
 13150 03d3 3B       		.uleb128 0x3b
 13151 03d4 05       		.uleb128 0x5
 13152 03d5 49       		.uleb128 0x49
 13153 03d6 13       		.uleb128 0x13
 13154 03d7 00       		.byte	0
 13155 03d8 00       		.byte	0
 13156 03d9 00       		.byte	0
 13157              		.section	.debug_aranges,"",%progbits
 13158 0000 4C010000 		.4byte	0x14c
 13159 0004 0200     		.2byte	0x2
 13160 0006 00000000 		.4byte	.Ldebug_info0
 13161 000a 04       		.byte	0x4
 13162 000b 00       		.byte	0
 13163 000c 0000     		.2byte	0
 13164 000e 0000     		.2byte	0
 13165 0010 00000000 		.4byte	.LFB116
 13166 0014 30000000 		.4byte	.LFE116-.LFB116
 13167 0018 00000000 		.4byte	.LFB117
 13168 001c 30000000 		.4byte	.LFE117-.LFB117
 13169 0020 00000000 		.4byte	.LFB118
 13170 0024 28000000 		.4byte	.LFE118-.LFB118
 13171 0028 00000000 		.4byte	.LFB119
 13172 002c 28000000 		.4byte	.LFE119-.LFB119
 13173 0030 00000000 		.4byte	.LFB145
 13174 0034 30000000 		.4byte	.LFE145-.LFB145
 13175 0038 00000000 		.4byte	.LFB146
 13176 003c 58000000 		.4byte	.LFE146-.LFB146
 13177 0040 00000000 		.4byte	.LFB147
 13178 0044 30000000 		.4byte	.LFE147-.LFB147
 13179 0048 00000000 		.4byte	.LFB148
 13180 004c 30000000 		.4byte	.LFE148-.LFB148
 13181 0050 00000000 		.4byte	.LFB223
 13182 0054 28000000 		.4byte	.LFE223-.LFB223
 13183 0058 00000000 		.4byte	.LFB224
 13184 005c 28000000 		.4byte	.LFE224-.LFB224
 13185 0060 00000000 		.4byte	.LFB225
 13186 0064 28000000 		.4byte	.LFE225-.LFB225
 13187 0068 00000000 		.4byte	.LFB226
 13188 006c 28000000 		.4byte	.LFE226-.LFB226
 13189 0070 00000000 		.4byte	.LFB235
 13190 0074 2C000000 		.4byte	.LFE235-.LFB235
 13191 0078 00000000 		.4byte	.LFB236
 13192 007c 30000000 		.4byte	.LFE236-.LFB236
 13193 0080 00000000 		.4byte	.LFB238
 13194 0084 30000000 		.4byte	.LFE238-.LFB238
 13195 0088 00000000 		.4byte	.LFB256
 13196 008c B8000000 		.4byte	.LFE256-.LFB256
 13197 0090 00000000 		.4byte	.LFB257
 13198 0094 90000000 		.4byte	.LFE257-.LFB257
 13199 0098 00000000 		.4byte	.LFB258
ARM GAS  C:\Users\PCHAUT~1\AppData\Local\Temp\ccORgsmL.s 			page 233


 13200 009c 90000000 		.4byte	.LFE258-.LFB258
 13201 00a0 00000000 		.4byte	.LFB259
 13202 00a4 B0000000 		.4byte	.LFE259-.LFB259
 13203 00a8 00000000 		.4byte	.LFB260
 13204 00ac B8000000 		.4byte	.LFE260-.LFB260
 13205 00b0 00000000 		.4byte	.LFB261
 13206 00b4 BC000000 		.4byte	.LFE261-.LFB261
 13207 00b8 00000000 		.4byte	.LFB262
 13208 00bc 54000000 		.4byte	.LFE262-.LFB262
 13209 00c0 00000000 		.4byte	.LFB263
 13210 00c4 48000000 		.4byte	.LFE263-.LFB263
 13211 00c8 00000000 		.4byte	.LFB264
 13212 00cc D4000000 		.4byte	.LFE264-.LFB264
 13213 00d0 00000000 		.4byte	.LFB265
 13214 00d4 70000000 		.4byte	.LFE265-.LFB265
 13215 00d8 00000000 		.4byte	.LFB266
 13216 00dc 54000000 		.4byte	.LFE266-.LFB266
 13217 00e0 00000000 		.4byte	.LFB267
 13218 00e4 3C000000 		.4byte	.LFE267-.LFB267
 13219 00e8 00000000 		.4byte	.LFB268
 13220 00ec 38000000 		.4byte	.LFE268-.LFB268
 13221 00f0 00000000 		.4byte	.LFB269
 13222 00f4 70000000 		.4byte	.LFE269-.LFB269
 13223 00f8 00000000 		.4byte	.LFB270
 13224 00fc 5C000000 		.4byte	.LFE270-.LFB270
 13225 0100 00000000 		.4byte	.LFB271
 13226 0104 90000000 		.4byte	.LFE271-.LFB271
 13227 0108 00000000 		.4byte	.LFB272
 13228 010c 90000000 		.4byte	.LFE272-.LFB272
 13229 0110 00000000 		.4byte	.LFB273
 13230 0114 BC000000 		.4byte	.LFE273-.LFB273
 13231 0118 00000000 		.4byte	.LFB274
 13232 011c 94000000 		.4byte	.LFE274-.LFB274
 13233 0120 00000000 		.4byte	.LFB275
 13234 0124 F8000000 		.4byte	.LFE275-.LFB275
 13235 0128 00000000 		.4byte	.LFB276
 13236 012c FC000000 		.4byte	.LFE276-.LFB276
 13237 0130 00000000 		.4byte	.LFB277
 13238 0134 98000000 		.4byte	.LFE277-.LFB277
 13239 0138 00000000 		.4byte	.LFB278
 13240 013c 98000000 		.4byte	.LFE278-.LFB278
 13241 0140 00000000 		.4byte	.LFB279
 13242 0144 28000000 		.4byte	.LFE279-.LFB279
 13243 0148 00000000 		.4byte	0
 13244 014c 00000000 		.4byte	0
 13245              		.section	.debug_ranges,"",%progbits
 13246              	.Ldebug_ranges0:
 13247 0000 00000000 		.4byte	.LFB116
 13248 0004 30000000 		.4byte	.LFE116
 13249 0008 00000000 		.4byte	.LFB117
 13250 000c 30000000 		.4byte	.LFE117
 13251 0010 00000000 		.4byte	.LFB118
 13252 0014 28000000 		.4byte	.LFE118
 13253 0018 00000000 		.4byte	.LFB119
 13254 001c 28000000 		.4byte	.LFE119
 13255 0020 00000000 		.4byte	.LFB145
 13256 0024 30000000 		.4byte	.LFE145
ARM GAS  C:\Users\PCHAUT~1\AppData\Local\Temp\ccORgsmL.s 			page 234


 13257 0028 00000000 		.4byte	.LFB146
 13258 002c 58000000 		.4byte	.LFE146
 13259 0030 00000000 		.4byte	.LFB147
 13260 0034 30000000 		.4byte	.LFE147
 13261 0038 00000000 		.4byte	.LFB148
 13262 003c 30000000 		.4byte	.LFE148
 13263 0040 00000000 		.4byte	.LFB223
 13264 0044 28000000 		.4byte	.LFE223
 13265 0048 00000000 		.4byte	.LFB224
 13266 004c 28000000 		.4byte	.LFE224
 13267 0050 00000000 		.4byte	.LFB225
 13268 0054 28000000 		.4byte	.LFE225
 13269 0058 00000000 		.4byte	.LFB226
 13270 005c 28000000 		.4byte	.LFE226
 13271 0060 00000000 		.4byte	.LFB235
 13272 0064 2C000000 		.4byte	.LFE235
 13273 0068 00000000 		.4byte	.LFB236
 13274 006c 30000000 		.4byte	.LFE236
 13275 0070 00000000 		.4byte	.LFB238
 13276 0074 30000000 		.4byte	.LFE238
 13277 0078 00000000 		.4byte	.LFB256
 13278 007c B8000000 		.4byte	.LFE256
 13279 0080 00000000 		.4byte	.LFB257
 13280 0084 90000000 		.4byte	.LFE257
 13281 0088 00000000 		.4byte	.LFB258
 13282 008c 90000000 		.4byte	.LFE258
 13283 0090 00000000 		.4byte	.LFB259
 13284 0094 B0000000 		.4byte	.LFE259
 13285 0098 00000000 		.4byte	.LFB260
 13286 009c B8000000 		.4byte	.LFE260
 13287 00a0 00000000 		.4byte	.LFB261
 13288 00a4 BC000000 		.4byte	.LFE261
 13289 00a8 00000000 		.4byte	.LFB262
 13290 00ac 54000000 		.4byte	.LFE262
 13291 00b0 00000000 		.4byte	.LFB263
 13292 00b4 48000000 		.4byte	.LFE263
 13293 00b8 00000000 		.4byte	.LFB264
 13294 00bc D4000000 		.4byte	.LFE264
 13295 00c0 00000000 		.4byte	.LFB265
 13296 00c4 70000000 		.4byte	.LFE265
 13297 00c8 00000000 		.4byte	.LFB266
 13298 00cc 54000000 		.4byte	.LFE266
 13299 00d0 00000000 		.4byte	.LFB267
 13300 00d4 3C000000 		.4byte	.LFE267
 13301 00d8 00000000 		.4byte	.LFB268
 13302 00dc 38000000 		.4byte	.LFE268
 13303 00e0 00000000 		.4byte	.LFB269
 13304 00e4 70000000 		.4byte	.LFE269
 13305 00e8 00000000 		.4byte	.LFB270
 13306 00ec 5C000000 		.4byte	.LFE270
 13307 00f0 00000000 		.4byte	.LFB271
 13308 00f4 90000000 		.4byte	.LFE271
 13309 00f8 00000000 		.4byte	.LFB272
 13310 00fc 90000000 		.4byte	.LFE272
 13311 0100 00000000 		.4byte	.LFB273
 13312 0104 BC000000 		.4byte	.LFE273
 13313 0108 00000000 		.4byte	.LFB274
ARM GAS  C:\Users\PCHAUT~1\AppData\Local\Temp\ccORgsmL.s 			page 235


 13314 010c 94000000 		.4byte	.LFE274
 13315 0110 00000000 		.4byte	.LFB275
 13316 0114 F8000000 		.4byte	.LFE275
 13317 0118 00000000 		.4byte	.LFB276
 13318 011c FC000000 		.4byte	.LFE276
 13319 0120 00000000 		.4byte	.LFB277
 13320 0124 98000000 		.4byte	.LFE277
 13321 0128 00000000 		.4byte	.LFB278
 13322 012c 98000000 		.4byte	.LFE278
 13323 0130 00000000 		.4byte	.LFB279
 13324 0134 28000000 		.4byte	.LFE279
 13325 0138 00000000 		.4byte	0
 13326 013c 00000000 		.4byte	0
 13327              		.section	.debug_line,"",%progbits
 13328              	.Ldebug_line0:
 13329 0000 1D0D0000 		.section	.debug_str,"MS",%progbits,1
 13329      02005508 
 13329      00000201 
 13329      FB0E0D00 
 13329      01010101 
 13330              	.LASF707:
 13331 0000 5553425F 		.ascii	"USB_STOP\000"
 13331      53544F50 
 13331      00
 13332              	.LASF319:
 13333 0009 706F7274 		.ascii	"port_intctx\000"
 13333      5F696E74 
 13333      63747800 
 13334              	.LASF328:
 13335 0015 63685F74 		.ascii	"ch_trace_buffer_t\000"
 13335      72616365 
 13335      5F627566 
 13335      6665725F 
 13335      7400
 13336              	.LASF360:
 13337 0027 63685F70 		.ascii	"ch_ptrsize\000"
 13337      74727369 
 13337      7A6500
 13338              	.LASF640:
 13339 0032 6576656E 		.ascii	"event\000"
 13339      7400
 13340              	.LASF491:
 13341 0038 43414E5F 		.ascii	"CAN_STARTING\000"
 13341      53544152 
 13341      54494E47 
 13341      00
 13342              	.LASF854:
 13343 0045 5F5F6675 		.ascii	"__func__\000"
 13343      6E635F5F 
 13343      00
 13344              	.LASF141:
 13345 004e 6D73675F 		.ascii	"msg_t\000"
 13345      7400
 13346              	.LASF436:
 13347 0054 61667268 		.ascii	"afrh\000"
 13347      00
 13348              	.LASF583:
ARM GAS  C:\Users\PCHAUT~1\AppData\Local\Temp\ccORgsmL.s 			page 236


 13349 0059 4F504D4F 		.ascii	"OPMODE_SMBUS_DEVICE\000"
 13349      44455F53 
 13349      4D425553 
 13349      5F444556 
 13349      49434500 
 13350              	.LASF339:
 13351 006d 6D5F6372 		.ascii	"m_crit_isr\000"
 13351      69745F69 
 13351      737200
 13352              	.LASF888:
 13353 0078 706F7274 		.ascii	"port_unlock_from_isr\000"
 13353      5F756E6C 
 13353      6F636B5F 
 13353      66726F6D 
 13353      5F697372 
 13354              	.LASF894:
 13355 008d 433A5C55 		.ascii	"C:\\Users\\Pchautems\\Documents\\RobotiqueTP\\Proje"
 13355      73657273 
 13355      5C506368 
 13355      61757465 
 13355      6D735C44 
 13356 00bb 745C6D69 		.ascii	"t\\miniprojet\000"
 13356      6E697072 
 13356      6F6A6574 
 13356      00
 13357              	.LASF846:
 13358 00c8 7364635F 		.ascii	"sdc_lld_write\000"
 13358      6C6C645F 
 13358      77726974 
 13358      6500
 13359              	.LASF659:
 13360 00d6 73646366 		.ascii	"sdcflags_t\000"
 13360      6C616773 
 13360      5F7400
 13361              	.LASF843:
 13362 00e1 616C6967 		.ascii	"alignment\000"
 13362      6E6D656E 
 13362      7400
 13363              	.LASF766:
 13364 00eb 44494550 		.ascii	"DIEPTXF0\000"
 13364      54584630 
 13364      00
 13365              	.LASF842:
 13366 00f4 55534244 		.ascii	"USBD1\000"
 13366      3100
 13367              	.LASF490:
 13368 00fa 43414E5F 		.ascii	"CAN_STOP\000"
 13368      53544F50 
 13368      00
 13369              	.LASF373:
 13370 0103 63665F6F 		.ascii	"cf_off_time\000"
 13370      66665F74 
 13370      696D6500 
 13371              	.LASF200:
 13372 010f 63685F73 		.ascii	"ch_system_t\000"
 13372      79737465 
 13372      6D5F7400 
ARM GAS  C:\Users\PCHAUT~1\AppData\Local\Temp\ccORgsmL.s 			page 237


 13373              	.LASF5:
 13374 011b 5F5F7569 		.ascii	"__uint8_t\000"
 13374      6E74385F 
 13374      7400
 13375              	.LASF345:
 13376 0125 77747365 		.ascii	"wtsemp\000"
 13376      6D7000
 13377              	.LASF420:
 13378 012c 5F426F6F 		.ascii	"_Bool\000"
 13378      6C00
 13379              	.LASF865:
 13380 0132 7364635F 		.ascii	"sdc_lld_start_clk\000"
 13380      6C6C645F 
 13380      73746172 
 13380      745F636C 
 13380      6B00
 13381              	.LASF532:
 13382 0144 64617461 		.ascii	"datamode\000"
 13382      6D6F6465 
 13382      00
 13383              	.LASF599:
 13384 014d 646D6172 		.ascii	"dmarx\000"
 13384      7800
 13385              	.LASF70:
 13386 0153 5F6D6273 		.ascii	"_mbstate\000"
 13386      74617465 
 13386      00
 13387              	.LASF49:
 13388 015c 5F617465 		.ascii	"_atexit\000"
 13388      78697400 
 13389              	.LASF882:
 13390 0164 6F73616C 		.ascii	"osalSysUnlock\000"
 13390      53797355 
 13390      6E6C6F63 
 13390      6B00
 13391              	.LASF480:
 13392 0172 73717231 		.ascii	"sqr1\000"
 13392      00
 13393              	.LASF407:
 13394 0177 424C4B5F 		.ascii	"BLK_UNINIT\000"
 13394      554E494E 
 13394      495400
 13395              	.LASF611:
 13396 0182 72785F62 		.ascii	"rx_buffer\000"
 13396      75666665 
 13396      7200
 13397              	.LASF595:
 13398 018c 6572726F 		.ascii	"errors\000"
 13398      727300
 13399              	.LASF656:
 13400 0193 5344435F 		.ascii	"SDC_CLK_50MHz\000"
 13400      434C4B5F 
 13400      35304D48 
 13400      7A00
 13401              	.LASF332:
 13402 01a1 776F7273 		.ascii	"worst\000"
 13402      7400
ARM GAS  C:\Users\PCHAUT~1\AppData\Local\Temp\ccORgsmL.s 			page 238


 13403              	.LASF193:
 13404 01a7 76745F73 		.ascii	"vt_systime\000"
 13404      79737469 
 13404      6D6500
 13405              	.LASF259:
 13406 01b2 444F5231 		.ascii	"DOR1\000"
 13406      00
 13407              	.LASF260:
 13408 01b7 444F5232 		.ascii	"DOR2\000"
 13408      00
 13409              	.LASF849:
 13410 01bc 626C6F63 		.ascii	"blocks\000"
 13410      6B7300
 13411              	.LASF610:
 13412 01c3 74785F62 		.ascii	"tx_buffer\000"
 13412      75666665 
 13412      7200
 13413              	.LASF292:
 13414 01cd 5243435F 		.ascii	"RCC_TypeDef\000"
 13414      54797065 
 13414      44656600 
 13415              	.LASF39:
 13416 01d9 5F5F746D 		.ascii	"__tm_mon\000"
 13416      5F6D6F6E 
 13416      00
 13417              	.LASF47:
 13418 01e2 5F666E74 		.ascii	"_fntypes\000"
 13418      79706573 
 13418      00
 13419              	.LASF354:
 13420 01eb 6D5F6E65 		.ascii	"m_next\000"
 13420      787400
 13421              	.LASF440:
 13422 01f2 50434461 		.ascii	"PCData\000"
 13422      746100
 13423              	.LASF77:
 13424 01f9 5F696E63 		.ascii	"_inc\000"
 13424      00
 13425              	.LASF50:
 13426 01fe 5F696E64 		.ascii	"_ind\000"
 13426      00
 13427              	.LASF304:
 13428 0203 4D41534B 		.ascii	"MASK\000"
 13428      00
 13429              	.LASF465:
 13430 0208 73616D70 		.ascii	"samples\000"
 13430      6C657300 
 13431              	.LASF770:
 13432 0210 47434346 		.ascii	"GCCFG\000"
 13432      4700
 13433              	.LASF561:
 13434 0216 42445452 		.ascii	"BDTR\000"
 13434      00
 13435              	.LASF514:
 13436 021b 7265676D 		.ascii	"regmask\000"
 13436      61736B00 
 13437              	.LASF593:
ARM GAS  C:\Users\PCHAUT~1\AppData\Local\Temp\ccORgsmL.s 			page 239


 13438 0223 49324343 		.ascii	"I2CConfig\000"
 13438      6F6E6669 
 13438      6700
 13439              	.LASF130:
 13440 022d 75696E74 		.ascii	"uint16_t\000"
 13440      31365F74 
 13440      00
 13441              	.LASF600:
 13442 0236 646D6174 		.ascii	"dmatx\000"
 13442      7800
 13443              	.LASF840:
 13444 023c 736F665F 		.ascii	"sof_cb\000"
 13444      636200
 13445              	.LASF537:
 13446 0243 4558545F 		.ascii	"EXT_ACTIVE\000"
 13446      41435449 
 13446      564500
 13447              	.LASF56:
 13448 024e 5F666C61 		.ascii	"_flags\000"
 13448      677300
 13449              	.LASF433:
 13450 0255 6F737065 		.ascii	"ospeedr\000"
 13450      65647200 
 13451              	.LASF773:
 13452 025d 44494550 		.ascii	"DIEPTXF\000"
 13452      54584600 
 13453              	.LASF379:
 13454 0265 656C5F6E 		.ascii	"el_next\000"
 13454      65787400 
 13455              	.LASF460:
 13456 026d 4144435F 		.ascii	"ADC_ERR_OVERFLOW\000"
 13456      4552525F 
 13456      4F564552 
 13456      464C4F57 
 13456      00
 13457              	.LASF87:
 13458 027e 5F637674 		.ascii	"_cvtlen\000"
 13458      6C656E00 
 13459              	.LASF198:
 13460 0286 6C6F636B 		.ascii	"lock_cnt\000"
 13460      5F636E74 
 13460      00
 13461              	.LASF174:
 13462 028f 63685F74 		.ascii	"ch_threads_queue\000"
 13462      68726561 
 13462      64735F71 
 13462      75657565 
 13462      00
 13463              	.LASF91:
 13464 02a0 5F736967 		.ascii	"_sig_func\000"
 13464      5F66756E 
 13464      6300
 13465              	.LASF859:
 13466 02aa 7364635F 		.ascii	"sdc_lld_send_cmd_short_crc\000"
 13466      6C6C645F 
 13466      73656E64 
 13466      5F636D64 
ARM GAS  C:\Users\PCHAUT~1\AppData\Local\Temp\ccORgsmL.s 			page 240


 13466      5F73686F 
 13467              	.LASF153:
 13468 02c5 705F6E65 		.ascii	"p_newer\000"
 13468      77657200 
 13469              	.LASF783:
 13470 02cd 48505254 		.ascii	"HPRT\000"
 13470      00
 13471              	.LASF737:
 13472 02d2 4843494E 		.ascii	"HCINT\000"
 13472      5400
 13473              	.LASF209:
 13474 02d8 534D5052 		.ascii	"SMPR1\000"
 13474      3100
 13475              	.LASF210:
 13476 02de 534D5052 		.ascii	"SMPR2\000"
 13476      3200
 13477              	.LASF370:
 13478 02e4 63665F6F 		.ascii	"cf_off_flags\000"
 13478      66665F66 
 13478      6C616773 
 13478      00
 13479              	.LASF69:
 13480 02f1 5F6C6F63 		.ascii	"_lock\000"
 13480      6B00
 13481              	.LASF65:
 13482 02f7 5F6E6275 		.ascii	"_nbuf\000"
 13482      6600
 13483              	.LASF676:
 13484 02fd 5350495F 		.ascii	"SPI_STOP\000"
 13484      53544F50 
 13484      00
 13485              	.LASF123:
 13486 0306 5F756E75 		.ascii	"_unused\000"
 13486      73656400 
 13487              	.LASF439:
 13488 030e 50424461 		.ascii	"PBData\000"
 13488      746100
 13489              	.LASF358:
 13490 0315 63685F73 		.ascii	"ch_size\000"
 13490      697A6500 
 13491              	.LASF779:
 13492 031d 48505458 		.ascii	"HPTXSTS\000"
 13492      53545300 
 13493              	.LASF432:
 13494 0325 6F747970 		.ascii	"otyper\000"
 13494      657200
 13495              	.LASF862:
 13496 032c 7364635F 		.ascii	"sdc_lld_set_bus_mode\000"
 13496      6C6C645F 
 13496      7365745F 
 13496      6275735F 
 13496      6D6F6465 
 13497              	.LASF423:
 13498 0341 4F545950 		.ascii	"OTYPER\000"
 13498      455200
 13499              	.LASF516:
 13500 0348 64616370 		.ascii	"dacparams_t\000"
ARM GAS  C:\Users\PCHAUT~1\AppData\Local\Temp\ccORgsmL.s 			page 241


 13500      6172616D 
 13500      735F7400 
 13501              	.LASF651:
 13502 0354 5344435F 		.ascii	"SDC_MODE_1BIT\000"
 13502      4D4F4445 
 13502      5F314249 
 13502      5400
 13503              	.LASF735:
 13504 0362 48434348 		.ascii	"HCCHAR\000"
 13504      415200
 13505              	.LASF872:
 13506 0369 7364635F 		.ascii	"sdc_lld_wait_transaction_end\000"
 13506      6C6C645F 
 13506      77616974 
 13506      5F747261 
 13506      6E736163 
 13507              	.LASF577:
 13508 0386 4932435F 		.ascii	"I2C_ACTIVE_RX\000"
 13508      41435449 
 13508      56455F52 
 13508      5800
 13509              	.LASF147:
 13510 0394 74687265 		.ascii	"thread_t\000"
 13510      61645F74 
 13510      00
 13511              	.LASF381:
 13512 039d 656C5F65 		.ascii	"el_events\000"
 13512      76656E74 
 13512      7300
 13513              	.LASF620:
 13514 03a7 70776D73 		.ascii	"pwmstate_t\000"
 13514      74617465 
 13514      5F7400
 13515              	.LASF501:
 13516 03b2 736C6565 		.ascii	"sleep_event\000"
 13516      705F6576 
 13516      656E7400 
 13517              	.LASF192:
 13518 03be 63685F76 		.ascii	"ch_virtual_timers_list\000"
 13518      69727475 
 13518      616C5F74 
 13518      696D6572 
 13518      735F6C69 
 13519              	.LASF404:
 13520 03d5 76656374 		.ascii	"vector\000"
 13520      6F7200
 13521              	.LASF761:
 13522 03dc 47494E54 		.ascii	"GINTSTS\000"
 13522      53545300 
 13523              	.LASF131:
 13524 03e4 696E7433 		.ascii	"int32_t\000"
 13524      325F7400 
 13525              	.LASF591:
 13526 03ec 636C6F63 		.ascii	"clock_speed\000"
 13526      6B5F7370 
 13526      65656400 
 13527              	.LASF146:
ARM GAS  C:\Users\PCHAUT~1\AppData\Local\Temp\ccORgsmL.s 			page 242


 13528 03f8 73797374 		.ascii	"systime_t\000"
 13528      696D655F 
 13528      7400
 13529              	.LASF534:
 13530 0402 44414344 		.ascii	"DACD2\000"
 13530      3200
 13531              	.LASF503:
 13532 0408 43414E44 		.ascii	"CANDriver\000"
 13532      72697665 
 13532      7200
 13533              	.LASF101:
 13534 0412 5F616464 		.ascii	"_add\000"
 13534      00
 13535              	.LASF263:
 13536 0417 4D304152 		.ascii	"M0AR\000"
 13536      00
 13537              	.LASF742:
 13538 041c 72657376 		.ascii	"resvd1c\000"
 13538      64316300 
 13539              	.LASF581:
 13540 0424 69326366 		.ascii	"i2cflags_t\000"
 13540      6C616773 
 13540      5F7400
 13541              	.LASF780:
 13542 042f 4841494E 		.ascii	"HAINT\000"
 13542      5400
 13543              	.LASF245:
 13544 0435 46413152 		.ascii	"FA1R\000"
 13544      00
 13545              	.LASF876:
 13546 043a 6F73616C 		.ascii	"osalThreadResumeI\000"
 13546      54687265 
 13546      61645265 
 13546      73756D65 
 13546      4900
 13547              	.LASF777:
 13548 044c 48464E55 		.ascii	"HFNUM\000"
 13548      4D00
 13549              	.LASF397:
 13550 0452 716E6F74 		.ascii	"qnotify_t\000"
 13550      6966795F 
 13550      7400
 13551              	.LASF456:
 13552 045c 61646373 		.ascii	"adcstate_t\000"
 13552      74617465 
 13552      5F7400
 13553              	.LASF893:
 13554 0467 2E2E2F6C 		.ascii	"../lib/e-puck2_main-processor/ChibiOS//os/hal/ports"
 13554      69622F65 
 13554      2D707563 
 13554      6B325F6D 
 13554      61696E2D 
 13555 049a 2F53544D 		.ascii	"/STM32/LLD/sdc_lld.c\000"
 13555      33322F4C 
 13555      4C442F73 
 13555      64635F6C 
 13555      6C642E63 
ARM GAS  C:\Users\PCHAUT~1\AppData\Local\Temp\ccORgsmL.s 			page 243


 13556              	.LASF276:
 13557 04af 41504231 		.ascii	"APB1RSTR\000"
 13557      52535452 
 13557      00
 13558              	.LASF662:
 13559 04b8 63617264 		.ascii	"cardmode\000"
 13559      6D6F6465 
 13559      00
 13560              	.LASF402:
 13561 04c1 69736869 		.ascii	"ishift\000"
 13561      667400
 13562              	.LASF551:
 13563 04c8 4750545F 		.ascii	"GPT_ONESHOT\000"
 13563      4F4E4553 
 13563      484F5400 
 13564              	.LASF392:
 13565 04d4 715F746F 		.ascii	"q_top\000"
 13565      7000
 13566              	.LASF58:
 13567 04da 5F6C6266 		.ascii	"_lbfsize\000"
 13567      73697A65 
 13567      00
 13568              	.LASF728:
 13569 04e3 75645F73 		.ascii	"ud_string\000"
 13569      7472696E 
 13569      6700
 13570              	.LASF594:
 13571 04ed 49324344 		.ascii	"I2CDriver\000"
 13571      72697665 
 13571      7200
 13572              	.LASF576:
 13573 04f7 4932435F 		.ascii	"I2C_ACTIVE_TX\000"
 13573      41435449 
 13573      56455F54 
 13573      5800
 13574              	.LASF646:
 13575 0505 72656164 		.ascii	"read\000"
 13575      00
 13576              	.LASF582:
 13577 050a 4F504D4F 		.ascii	"OPMODE_I2C\000"
 13577      44455F49 
 13577      324300
 13578              	.LASF789:
 13579 0515 72657376 		.ascii	"resvd80C\000"
 13579      64383043 
 13579      00
 13580              	.LASF837:
 13581 051e 6576656E 		.ascii	"event_cb\000"
 13581      745F6362 
 13581      00
 13582              	.LASF756:
 13583 0527 474F5447 		.ascii	"GOTGCTL\000"
 13583      43544C00 
 13584              	.LASF731:
 13585 052f 75736265 		.ascii	"usbepcallback_t\000"
 13585      7063616C 
 13585      6C626163 
ARM GAS  C:\Users\PCHAUT~1\AppData\Local\Temp\ccORgsmL.s 			page 244


 13585      6B5F7400 
 13586              	.LASF68:
 13587 053f 5F646174 		.ascii	"_data\000"
 13587      6100
 13588              	.LASF203:
 13589 0545 76746C69 		.ascii	"vtlist\000"
 13589      737400
 13590              	.LASF268:
 13591 054c 54524953 		.ascii	"TRISE\000"
 13591      4500
 13592              	.LASF795:
 13593 0552 72657376 		.ascii	"resvd824\000"
 13593      64383234 
 13593      00
 13594              	.LASF162:
 13595 055b 705F7761 		.ascii	"p_waiting\000"
 13595      6974696E 
 13595      6700
 13596              	.LASF340:
 13597 0565 6B65726E 		.ascii	"kernel_stats_t\000"
 13597      656C5F73 
 13597      74617473 
 13597      5F7400
 13598              	.LASF389:
 13599 0574 715F7761 		.ascii	"q_waiting\000"
 13599      6974696E 
 13599      6700
 13600              	.LASF227:
 13601 057e 43414E5F 		.ascii	"CAN_TxMailBox_TypeDef\000"
 13601      54784D61 
 13601      696C426F 
 13601      785F5479 
 13601      70654465 
 13602              	.LASF202:
 13603 0594 726C6973 		.ascii	"rlist\000"
 13603      7400
 13604              	.LASF171:
 13605 059a 74687265 		.ascii	"threads_list_t\000"
 13605      6164735F 
 13605      6C697374 
 13605      5F7400
 13606              	.LASF330:
 13607 05a9 746D5F63 		.ascii	"tm_calibration_t\000"
 13607      616C6962 
 13607      72617469 
 13607      6F6E5F74 
 13607      00
 13608              	.LASF398:
 13609 05ba 696E7075 		.ascii	"input_queue_t\000"
 13609      745F7175 
 13609      6575655F 
 13609      7400
 13610              	.LASF483:
 13611 05c8 41444343 		.ascii	"ADCConversionGroup\000"
 13611      6F6E7665 
 13611      7273696F 
 13611      6E47726F 
ARM GAS  C:\Users\PCHAUT~1\AppData\Local\Temp\ccORgsmL.s 			page 245


 13611      757000
 13612              	.LASF788:
 13613 05db 44535453 		.ascii	"DSTS\000"
 13613      00
 13614              	.LASF124:
 13615 05e0 5F5F6C6F 		.ascii	"__lock\000"
 13615      636B00
 13616              	.LASF586:
 13617 05e7 5354445F 		.ascii	"STD_DUTY_CYCLE\000"
 13617      44555459 
 13617      5F435943 
 13617      4C4500
 13618              	.LASF72:
 13619 05f6 5F726565 		.ascii	"_reent\000"
 13619      6E7400
 13620              	.LASF871:
 13621 05fd 7364635F 		.ascii	"sdc_lld_collect_errors\000"
 13621      6C6C645F 
 13621      636F6C6C 
 13621      6563745F 
 13621      6572726F 
 13622              	.LASF366:
 13623 0614 63665F6F 		.ascii	"cf_off_older\000"
 13623      66665F6F 
 13623      6C646572 
 13623      00
 13624              	.LASF135:
 13625 0621 72747469 		.ascii	"rttime_t\000"
 13625      6D655F74 
 13625      00
 13626              	.LASF546:
 13627 062a 45585444 		.ascii	"EXTD1\000"
 13627      3100
 13628              	.LASF822:
 13629 0630 72787175 		.ascii	"rxqueued\000"
 13629      65756564 
 13629      00
 13630              	.LASF494:
 13631 0639 63616E73 		.ascii	"canstate_t\000"
 13631      74617465 
 13631      5F7400
 13632              	.LASF247:
 13633 0644 7346696C 		.ascii	"sFilterRegister\000"
 13633      74657252 
 13633      65676973 
 13633      74657200 
 13634              	.LASF93:
 13635 0654 5F5F7366 		.ascii	"__sf\000"
 13635      00
 13636              	.LASF794:
 13637 0659 72657376 		.ascii	"resvd820\000"
 13637      64383230 
 13637      00
 13638              	.LASF53:
 13639 0662 5F626173 		.ascii	"_base\000"
 13639      6500
 13640              	.LASF296:
ARM GAS  C:\Users\PCHAUT~1\AppData\Local\Temp\ccORgsmL.s 			page 246


 13641 0668 52455350 		.ascii	"RESP1\000"
 13641      3100
 13642              	.LASF297:
 13643 066e 52455350 		.ascii	"RESP2\000"
 13643      3200
 13644              	.LASF298:
 13645 0674 52455350 		.ascii	"RESP3\000"
 13645      3300
 13646              	.LASF299:
 13647 067a 52455350 		.ascii	"RESP4\000"
 13647      3400
 13648              	.LASF110:
 13649 0680 5F6D6274 		.ascii	"_mbtowc_state\000"
 13649      6F77635F 
 13649      73746174 
 13649      6500
 13650              	.LASF878:
 13651 068e 6F73616C 		.ascii	"osalThreadSleep\000"
 13651      54687265 
 13651      6164536C 
 13651      65657000 
 13652              	.LASF880:
 13653 069e 6F73616C 		.ascii	"osalSysUnlockFromISR\000"
 13653      53797355 
 13653      6E6C6F63 
 13653      6B46726F 
 13653      6D495352 
 13654              	.LASF573:
 13655 06b3 4932435F 		.ascii	"I2C_UNINIT\000"
 13655      554E494E 
 13655      495400
 13656              	.LASF733:
 13657 06be 75736272 		.ascii	"usbreqhandler_t\000"
 13657      65716861 
 13657      6E646C65 
 13657      725F7400 
 13658              	.LASF454:
 13659 06ce 4144435F 		.ascii	"ADC_COMPLETE\000"
 13659      434F4D50 
 13659      4C455445 
 13659      00
 13660              	.LASF570:
 13661 06db 47505443 		.ascii	"GPTConfig\000"
 13661      6F6E6669 
 13661      6700
 13662              	.LASF635:
 13663 06e5 53445F55 		.ascii	"SD_UNINIT\000"
 13663      4E494E49 
 13663      5400
 13664              	.LASF140:
 13665 06ef 74707269 		.ascii	"tprio_t\000"
 13665      6F5F7400 
 13666              	.LASF336:
 13667 06f7 6E5F6972 		.ascii	"n_irq\000"
 13667      7100
 13668              	.LASF614:
 13669 06fd 69327370 		.ascii	"i2spr\000"
ARM GAS  C:\Users\PCHAUT~1\AppData\Local\Temp\ccORgsmL.s 			page 247


 13669      7200
 13670              	.LASF282:
 13671 0703 41504232 		.ascii	"APB2ENR\000"
 13671      454E5200 
 13672              	.LASF798:
 13673 070b 72657376 		.ascii	"resvd830\000"
 13673      64383330 
 13673      00
 13674              	.LASF34:
 13675 0714 5F5F746D 		.ascii	"__tm\000"
 13675      00
 13676              	.LASF800:
 13677 0719 72657376 		.ascii	"resvd838\000"
 13677      64383338 
 13677      00
 13678              	.LASF589:
 13679 0722 69326364 		.ascii	"i2cdutycycle_t\000"
 13679      75747963 
 13679      79636C65 
 13679      5F7400
 13680              	.LASF801:
 13681 0731 72657376 		.ascii	"resvd83C\000"
 13681      64383343 
 13681      00
 13682              	.LASF468:
 13683 073a 74687265 		.ascii	"thread\000"
 13683      616400
 13684              	.LASF513:
 13685 0741 72656773 		.ascii	"regshift\000"
 13685      68696674 
 13685      00
 13686              	.LASF696:
 13687 074a 73657475 		.ascii	"setup\000"
 13687      7000
 13688              	.LASF675:
 13689 0750 5350495F 		.ascii	"SPI_UNINIT\000"
 13689      554E494E 
 13689      495400
 13690              	.LASF749:
 13691 075b 44545846 		.ascii	"DTXFSTS\000"
 13691      53545300 
 13692              	.LASF417:
 13693 0763 626C6B5F 		.ascii	"blk_size\000"
 13693      73697A65 
 13693      00
 13694              	.LASF575:
 13695 076c 4932435F 		.ascii	"I2C_READY\000"
 13695      52454144 
 13695      5900
 13696              	.LASF42:
 13697 0776 5F5F746D 		.ascii	"__tm_yday\000"
 13697      5F796461 
 13697      7900
 13698              	.LASF690:
 13699 0780 696E5F70 		.ascii	"in_params\000"
 13699      6172616D 
 13699      7300
ARM GAS  C:\Users\PCHAUT~1\AppData\Local\Temp\ccORgsmL.s 			page 248


 13700              	.LASF560:
 13701 078a 43434552 		.ascii	"CCER\000"
 13701      00
 13702              	.LASF312:
 13703 078f 49325350 		.ascii	"I2SPR\000"
 13703      5200
 13704              	.LASF617:
 13705 0795 50574D5F 		.ascii	"PWM_UNINIT\000"
 13705      554E494E 
 13705      495400
 13706              	.LASF331:
 13707 07a0 62657374 		.ascii	"best\000"
 13707      00
 13708              	.LASF758:
 13709 07a5 47414842 		.ascii	"GAHBCFG\000"
 13709      43464700 
 13710              	.LASF523:
 13711 07ad 64616363 		.ascii	"daccallback_t\000"
 13711      616C6C62 
 13711      61636B5F 
 13711      7400
 13712              	.LASF17:
 13713 07bb 5F4C4F43 		.ascii	"_LOCK_T\000"
 13713      4B5F5400 
 13714              	.LASF802:
 13715 07c3 72657376 		.ascii	"resvd840\000"
 13715      64383430 
 13715      00
 13716              	.LASF308:
 13717 07cc 43524350 		.ascii	"CRCPR\000"
 13717      5200
 13718              	.LASF412:
 13719 07d2 424C4B5F 		.ascii	"BLK_READY\000"
 13719      52454144 
 13719      5900
 13720              	.LASF7:
 13721 07dc 5F5F696E 		.ascii	"__int16_t\000"
 13721      7431365F 
 13721      7400
 13722              	.LASF9:
 13723 07e6 5F5F7569 		.ascii	"__uint16_t\000"
 13723      6E743136 
 13723      5F7400
 13724              	.LASF550:
 13725 07f1 4750545F 		.ascii	"GPT_CONTINUOUS\000"
 13725      434F4E54 
 13725      494E554F 
 13725      555300
 13726              	.LASF816:
 13727 0800 74787175 		.ascii	"txqueued\000"
 13727      65756564 
 13727      00
 13728              	.LASF164:
 13729 0809 705F6D73 		.ascii	"p_msg\000"
 13729      6700
 13730              	.LASF102:
 13731 080f 5F756E75 		.ascii	"_unused_rand\000"
ARM GAS  C:\Users\PCHAUT~1\AppData\Local\Temp\ccORgsmL.s 			page 249


 13731      7365645F 
 13731      72616E64 
 13731      00
 13732              	.LASF755:
 13733 081c 73746D33 		.ascii	"stm32_otg_out_ep_t\000"
 13733      325F6F74 
 13733      675F6F75 
 13733      745F6570 
 13733      5F7400
 13734              	.LASF764:
 13735 082f 47525853 		.ascii	"GRXSTSP\000"
 13735      54535000 
 13736              	.LASF763:
 13737 0837 47525853 		.ascii	"GRXSTSR\000"
 13737      54535200 
 13738              	.LASF342:
 13739 083f 65786974 		.ascii	"exitcode\000"
 13739      636F6465 
 13739      00
 13740              	.LASF264:
 13741 0848 4D314152 		.ascii	"M1AR\000"
 13741      00
 13742              	.LASF703:
 13743 084d 77616974 		.ascii	"wait\000"
 13743      00
 13744              	.LASF265:
 13745 0852 444D415F 		.ascii	"DMA_Stream_TypeDef\000"
 13745      53747265 
 13745      616D5F54 
 13745      79706544 
 13745      656600
 13746              	.LASF710:
 13747 0865 5553425F 		.ascii	"USB_ACTIVE\000"
 13747      41435449 
 13747      564500
 13748              	.LASF751:
 13749 0870 73746D33 		.ascii	"stm32_otg_in_ep_t\000"
 13749      325F6F74 
 13749      675F696E 
 13749      5F65705F 
 13749      7400
 13750              	.LASF824:
 13751 0882 7278636E 		.ascii	"rxcnt\000"
 13751      7400
 13752              	.LASF450:
 13753 0888 4144435F 		.ascii	"ADC_UNINIT\000"
 13753      554E494E 
 13753      495400
 13754              	.LASF860:
 13755 0893 7364635F 		.ascii	"sdc_lld_send_cmd_short\000"
 13755      6C6C645F 
 13755      73656E64 
 13755      5F636D64 
 13755      5F73686F 
 13756              	.LASF597:
 13757 08aa 7278646D 		.ascii	"rxdmamode\000"
 13757      616D6F64 
ARM GAS  C:\Users\PCHAUT~1\AppData\Local\Temp\ccORgsmL.s 			page 250


 13757      6500
 13758              	.LASF84:
 13759 08b4 5F726573 		.ascii	"_result_k\000"
 13759      756C745F 
 13759      6B00
 13760              	.LASF542:
 13761 08be 6D6F6465 		.ascii	"mode\000"
 13761      00
 13762              	.LASF76:
 13763 08c3 5F737464 		.ascii	"_stderr\000"
 13763      65727200 
 13764              	.LASF83:
 13765 08cb 5F726573 		.ascii	"_result\000"
 13765      756C7400 
 13766              	.LASF355:
 13767 08d3 6D5F636E 		.ascii	"m_cnt\000"
 13767      7400
 13768              	.LASF539:
 13769 08d9 45585444 		.ascii	"EXTDriver\000"
 13769      72697665 
 13769      7200
 13770              	.LASF46:
 13771 08e3 5F64736F 		.ascii	"_dso_handle\000"
 13771      5F68616E 
 13771      646C6500 
 13772              	.LASF609:
 13773 08ef 69327363 		.ascii	"i2scallback_t\000"
 13773      616C6C62 
 13773      61636B5F 
 13773      7400
 13774              	.LASF684:
 13775 08fd 73737061 		.ascii	"sspad\000"
 13775      6400
 13776              	.LASF598:
 13777 0903 7478646D 		.ascii	"txdmamode\000"
 13777      616D6F64 
 13777      6500
 13778              	.LASF566:
 13779 090d 67707466 		.ascii	"gptfreq_t\000"
 13779      7265715F 
 13779      7400
 13780              	.LASF892:
 13781 0917 474E5520 		.ascii	"GNU C11 7.2.1 20170904 (release) [ARM/embedded-7-br"
 13781      43313120 
 13781      372E322E 
 13781      31203230 
 13781      31373039 
 13782 094a 616E6368 		.ascii	"anch revision 255204] -mcpu=cortex-m4 -mfloat-abi=h"
 13782      20726576 
 13782      6973696F 
 13782      6E203235 
 13782      35323034 
 13783 097d 61726420 		.ascii	"ard -mfpu=fpv4-sp-d16 -mno-thumb-interwork -mthumb "
 13783      2D6D6670 
 13783      753D6670 
 13783      76342D73 
 13783      702D6431 
ARM GAS  C:\Users\PCHAUT~1\AppData\Local\Temp\ccORgsmL.s 			page 251


 13784 09b0 2D676764 		.ascii	"-ggdb -O0 -fomit-frame-pointer -falign-functions=16"
 13784      62202D4F 
 13784      30202D66 
 13784      6F6D6974 
 13784      2D667261 
 13785 09e3 202D666E 		.ascii	" -fno-strict-aliasing -fstack-protector-all -ffunct"
 13785      6F2D7374 
 13785      72696374 
 13785      2D616C69 
 13785      6173696E 
 13786 0a16 696F6E2D 		.ascii	"ion-sections -fdata-sections -fno-common -fsingle-p"
 13786      73656374 
 13786      696F6E73 
 13786      202D6664 
 13786      6174612D 
 13787 0a49 72656369 		.ascii	"recision-constant\000"
 13787      73696F6E 
 13787      2D636F6E 
 13787      7374616E 
 13787      7400
 13788              	.LASF43:
 13789 0a5b 5F5F746D 		.ascii	"__tm_isdst\000"
 13789      5F697364 
 13789      737400
 13790              	.LASF809:
 13791 0a66 72785F66 		.ascii	"rx_fifo_size\000"
 13791      69666F5F 
 13791      73697A65 
 13791      00
 13792              	.LASF317:
 13793 0a73 73746B61 		.ascii	"stkalign_t\000"
 13793      6C69676E 
 13793      5F7400
 13794              	.LASF521:
 13795 0a7e 4441435F 		.ascii	"DAC_ERR_UNDERFLOW\000"
 13795      4552525F 
 13795      554E4445 
 13795      52464C4F 
 13795      5700
 13796              	.LASF41:
 13797 0a90 5F5F746D 		.ascii	"__tm_wday\000"
 13797      5F776461 
 13797      7900
 13798              	.LASF502:
 13799 0a9a 77616B65 		.ascii	"wakeup_event\000"
 13799      75705F65 
 13799      76656E74 
 13799      00
 13800              	.LASF187:
 13801 0aa7 76745F70 		.ascii	"vt_prev\000"
 13801      72657600 
 13802              	.LASF476:
 13803 0aaf 656E645F 		.ascii	"end_cb\000"
 13803      636200
 13804              	.LASF827:
 13805 0ab6 73657475 		.ascii	"setup_cb\000"
 13805      705F6362 
ARM GAS  C:\Users\PCHAUT~1\AppData\Local\Temp\ccORgsmL.s 			page 252


 13805      00
 13806              	.LASF6:
 13807 0abf 756E7369 		.ascii	"unsigned char\000"
 13807      676E6564 
 13807      20636861 
 13807      7200
 13808              	.LASF75:
 13809 0acd 5F737464 		.ascii	"_stdout\000"
 13809      6F757400 
 13810              	.LASF306:
 13811 0ad5 4649464F 		.ascii	"FIFO\000"
 13811      00
 13812              	.LASF327:
 13813 0ada 74625F62 		.ascii	"tb_buffer\000"
 13813      75666665 
 13813      7200
 13814              	.LASF496:
 13815 0ae4 74787175 		.ascii	"txqueue\000"
 13815      65756500 
 13816              	.LASF350:
 13817 0aec 735F636E 		.ascii	"s_cnt\000"
 13817      7400
 13818              	.LASF175:
 13819 0af2 72656164 		.ascii	"ready_list_t\000"
 13819      795F6C69 
 13819      73745F74 
 13819      00
 13820              	.LASF148:
 13821 0aff 63685F74 		.ascii	"ch_thread\000"
 13821      68726561 
 13821      6400
 13822              	.LASF584:
 13823 0b09 4F504D4F 		.ascii	"OPMODE_SMBUS_HOST\000"
 13823      44455F53 
 13823      4D425553 
 13823      5F484F53 
 13823      5400
 13824              	.LASF117:
 13825 0b1b 5F6D6273 		.ascii	"_mbsrtowcs_state\000"
 13825      72746F77 
 13825      63735F73 
 13825      74617465 
 13825      00
 13826              	.LASF705:
 13827 0b2c 75736265 		.ascii	"usbep_t\000"
 13827      705F7400 
 13828              	.LASF285:
 13829 0b34 41484233 		.ascii	"AHB3LPENR\000"
 13829      4C50454E 
 13829      5200
 13830              	.LASF32:
 13831 0b3e 5F776473 		.ascii	"_wds\000"
 13831      00
 13832              	.LASF535:
 13833 0b43 4558545F 		.ascii	"EXT_UNINIT\000"
 13833      554E494E 
 13833      495400
ARM GAS  C:\Users\PCHAUT~1\AppData\Local\Temp\ccORgsmL.s 			page 253


 13834              	.LASF493:
 13835 0b4e 43414E5F 		.ascii	"CAN_SLEEP\000"
 13835      534C4545 
 13835      5000
 13836              	.LASF323:
 13837 0b58 73655F73 		.ascii	"se_state\000"
 13837      74617465 
 13837      00
 13838              	.LASF54:
 13839 0b61 5F73697A 		.ascii	"_size\000"
 13839      6500
 13840              	.LASF674:
 13841 0b67 53444344 		.ascii	"SDCD1\000"
 13841      3100
 13842              	.LASF194:
 13843 0b6d 73797374 		.ascii	"system_debug_t\000"
 13843      656D5F64 
 13843      65627567 
 13843      5F7400
 13844              	.LASF252:
 13845 0b7c 44485238 		.ascii	"DHR8R1\000"
 13845      523100
 13846              	.LASF255:
 13847 0b83 44485238 		.ascii	"DHR8R2\000"
 13847      523200
 13848              	.LASF557:
 13849 0b8a 44494552 		.ascii	"DIER\000"
 13849      00
 13850              	.LASF875:
 13851 0b8f 7364635F 		.ascii	"sdc_lld_prepare_read_bytes\000"
 13851      6C6C645F 
 13851      70726570 
 13851      6172655F 
 13851      72656164 
 13852              	.LASF284:
 13853 0baa 41484232 		.ascii	"AHB2LPENR\000"
 13853      4C50454E 
 13853      5200
 13854              	.LASF152:
 13855 0bb4 705F6374 		.ascii	"p_ctx\000"
 13855      7800
 13856              	.LASF190:
 13857 0bba 76745F70 		.ascii	"vt_par\000"
 13857      617200
 13858              	.LASF211:
 13859 0bc1 4A4F4652 		.ascii	"JOFR1\000"
 13859      3100
 13860              	.LASF212:
 13861 0bc7 4A4F4652 		.ascii	"JOFR2\000"
 13861      3200
 13862              	.LASF214:
 13863 0bcd 4A4F4652 		.ascii	"JOFR4\000"
 13863      3400
 13864              	.LASF61:
 13865 0bd3 5F777269 		.ascii	"_write\000"
 13865      746500
 13866              	.LASF310:
ARM GAS  C:\Users\PCHAUT~1\AppData\Local\Temp\ccORgsmL.s 			page 254


 13867 0bda 54584352 		.ascii	"TXCRCR\000"
 13867      435200
 13868              	.LASF528:
 13869 0be1 64616364 		.ascii	"dacdhrmode_t\000"
 13869      68726D6F 
 13869      64655F74 
 13869      00
 13870              	.LASF470:
 13871 0bee 646D6173 		.ascii	"dmastp\000"
 13871      747000
 13872              	.LASF588:
 13873 0bf5 46415354 		.ascii	"FAST_DUTY_CYCLE_16_9\000"
 13873      5F445554 
 13873      595F4359 
 13873      434C455F 
 13873      31365F39 
 13874              	.LASF133:
 13875 0c0a 75696E74 		.ascii	"uint64_t\000"
 13875      36345F74 
 13875      00
 13876              	.LASF337:
 13877 0c13 6E5F6374 		.ascii	"n_ctxswc\000"
 13877      78737763 
 13877      00
 13878              	.LASF375:
 13879 0c1c 63685F64 		.ascii	"ch_debug\000"
 13879      65627567 
 13879      00
 13880              	.LASF531:
 13881 0c25 696E6974 		.ascii	"init\000"
 13881      00
 13882              	.LASF239:
 13883 0c2a 464D3152 		.ascii	"FM1R\000"
 13883      00
 13884              	.LASF447:
 13885 0c2f 50414C43 		.ascii	"PALConfig\000"
 13885      6F6E6669 
 13885      6700
 13886              	.LASF818:
 13887 0c39 7478636E 		.ascii	"txcnt\000"
 13887      7400
 13888              	.LASF732:
 13889 0c3f 75736265 		.ascii	"usbeventcb_t\000"
 13889      76656E74 
 13889      63625F74 
 13889      00
 13890              	.LASF409:
 13891 0c4c 424C4B5F 		.ascii	"BLK_ACTIVE\000"
 13891      41435449 
 13891      564500
 13892              	.LASF40:
 13893 0c57 5F5F746D 		.ascii	"__tm_year\000"
 13893      5F796561 
 13893      7200
 13894              	.LASF377:
 13895 0c61 6576656E 		.ascii	"event_listener_t\000"
 13895      745F6C69 
ARM GAS  C:\Users\PCHAUT~1\AppData\Local\Temp\ccORgsmL.s 			page 255


 13895      7374656E 
 13895      65725F74 
 13895      00
 13896              	.LASF810:
 13897 0c72 6F74675F 		.ascii	"otg_ram_size\000"
 13897      72616D5F 
 13897      73697A65 
 13897      00
 13898              	.LASF812:
 13899 0c7f 73746D33 		.ascii	"stm32_otg_params_t\000"
 13899      325F6F74 
 13899      675F7061 
 13899      72616D73 
 13899      5F7400
 13900              	.LASF805:
 13901 0c92 72657376 		.ascii	"resvdD00\000"
 13901      64443030 
 13901      00
 13902              	.LASF309:
 13903 0c9b 52584352 		.ascii	"RXCRCR\000"
 13903      435200
 13904              	.LASF821:
 13905 0ca2 72786275 		.ascii	"rxbuf\000"
 13905      6600
 13906              	.LASF100:
 13907 0ca8 5F6D756C 		.ascii	"_mult\000"
 13907      7400
 13908              	.LASF351:
 13909 0cae 63685F6D 		.ascii	"ch_mutex\000"
 13909      75746578 
 13909      00
 13910              	.LASF499:
 13911 0cb7 7478656D 		.ascii	"txempty_event\000"
 13911      7074795F 
 13911      6576656E 
 13911      7400
 13912              	.LASF274:
 13913 0cc5 41484232 		.ascii	"AHB2RSTR\000"
 13913      52535452 
 13913      00
 13914              	.LASF621:
 13915 0cce 50574D44 		.ascii	"PWMDriver\000"
 13915      72697665 
 13915      7200
 13916              	.LASF444:
 13917 0cd8 50474461 		.ascii	"PGData\000"
 13917      746100
 13918              	.LASF630:
 13919 0cdf 50574D43 		.ascii	"PWMConfig\000"
 13919      6F6E6669 
 13919      6700
 13920              	.LASF115:
 13921 0ce9 5F6D6272 		.ascii	"_mbrlen_state\000"
 13921      6C656E5F 
 13921      73746174 
 13921      6500
 13922              	.LASF896:
ARM GAS  C:\Users\PCHAUT~1\AppData\Local\Temp\ccORgsmL.s 			page 256


 13923 0cf7 76616C75 		.ascii	"value\000"
 13923      6500
 13924              	.LASF365:
 13925 0cfd 63665F6F 		.ascii	"cf_off_newer\000"
 13925      66665F6E 
 13925      65776572 
 13925      00
 13926              	.LASF790:
 13927 0d0a 44494550 		.ascii	"DIEPMSK\000"
 13927      4D534B00 
 13928              	.LASF757:
 13929 0d12 474F5447 		.ascii	"GOTGINT\000"
 13929      494E5400 
 13930              	.LASF829:
 13931 0d1a 6F75745F 		.ascii	"out_cb\000"
 13931      636200
 13932              	.LASF781:
 13933 0d21 4841494E 		.ascii	"HAINTMSK\000"
 13933      544D534B 
 13933      00
 13934              	.LASF691:
 13935 0d2a 6F75745F 		.ascii	"out_params\000"
 13935      70617261 
 13935      6D7300
 13936              	.LASF322:
 13937 0d35 73655F77 		.ascii	"se_wtobjp\000"
 13937      746F626A 
 13937      7000
 13938              	.LASF218:
 13939 0d3f 4A535152 		.ascii	"JSQR\000"
 13939      00
 13940              	.LASF657:
 13941 0d44 73646362 		.ascii	"sdcbusclk_t\000"
 13941      7573636C 
 13941      6B5F7400 
 13942              	.LASF74:
 13943 0d50 5F737464 		.ascii	"_stdin\000"
 13943      696E00
 13944              	.LASF122:
 13945 0d57 5F6E6D61 		.ascii	"_nmalloc\000"
 13945      6C6C6F63 
 13945      00
 13946              	.LASF569:
 13947 0d60 64696572 		.ascii	"dier\000"
 13947      00
 13948              	.LASF669:
 13949 0d65 69735F70 		.ascii	"is_protected\000"
 13949      726F7465 
 13949      63746564 
 13949      00
 13950              	.LASF184:
 13951 0d72 76697274 		.ascii	"virtual_timer_t\000"
 13951      75616C5F 
 13951      74696D65 
 13951      725F7400 
 13952              	.LASF831:
 13953 0d82 6F75745F 		.ascii	"out_maxsize\000"
ARM GAS  C:\Users\PCHAUT~1\AppData\Local\Temp\ccORgsmL.s 			page 257


 13953      6D617873 
 13953      697A6500 
 13954              	.LASF179:
 13955 0d8e 725F6374 		.ascii	"r_ctx\000"
 13955      7800
 13956              	.LASF186:
 13957 0d94 76745F6E 		.ascii	"vt_next\000"
 13957      65787400 
 13958              	.LASF603:
 13959 0d9c 4932535F 		.ascii	"I2S_STOP\000"
 13959      53544F50 
 13959      00
 13960              	.LASF618:
 13961 0da5 50574D5F 		.ascii	"PWM_STOP\000"
 13961      53544F50 
 13961      00
 13962              	.LASF134:
 13963 0dae 7274636E 		.ascii	"rtcnt_t\000"
 13963      745F7400 
 13964              	.LASF469:
 13965 0db6 6D757465 		.ascii	"mutex\000"
 13965      7800
 13966              	.LASF612:
 13967 0dbc 73697A65 		.ascii	"size\000"
 13967      00
 13968              	.LASF517:
 13969 0dc1 44414344 		.ascii	"DACDriver\000"
 13969      72697665 
 13969      7200
 13970              	.LASF533:
 13971 0dcb 44414343 		.ascii	"DACConfig\000"
 13971      6F6E6669 
 13971      6700
 13972              	.LASF702:
 13973 0dd5 74787065 		.ascii	"txpending\000"
 13973      6E64696E 
 13973      6700
 13974              	.LASF554:
 13975 0ddf 636C6F63 		.ascii	"clock\000"
 13975      6B00
 13976              	.LASF421:
 13977 0de5 636C6561 		.ascii	"clear\000"
 13977      7200
 13978              	.LASF564:
 13979 0deb 43435852 		.ascii	"CCXR\000"
 13979      00
 13980              	.LASF248:
 13981 0df0 43414E5F 		.ascii	"CAN_TypeDef\000"
 13981      54797065 
 13981      44656600 
 13982              	.LASF18:
 13983 0dfc 5F6F6666 		.ascii	"_off_t\000"
 13983      5F7400
 13984              	.LASF324:
 13985 0e03 63685F73 		.ascii	"ch_swc_event_t\000"
 13985      77635F65 
 13985      76656E74 
ARM GAS  C:\Users\PCHAUT~1\AppData\Local\Temp\ccORgsmL.s 			page 258


 13985      5F7400
 13986              	.LASF636:
 13987 0e12 53445F53 		.ascii	"SD_STOP\000"
 13987      544F5000 
 13988              	.LASF736:
 13989 0e1a 72657376 		.ascii	"resvd8\000"
 13989      643800
 13990              	.LASF4:
 13991 0e21 73697A65 		.ascii	"size_t\000"
 13991      5F7400
 13992              	.LASF105:
 13993 0e28 5F6C6F63 		.ascii	"_localtime_buf\000"
 13993      616C7469 
 13993      6D655F62 
 13993      756600
 13994              	.LASF803:
 13995 0e37 72657376 		.ascii	"resvd880\000"
 13995      64383830 
 13995      00
 13996              	.LASF852:
 13997 0e40 72657370 		.ascii	"resp\000"
 13997      00
 13998              	.LASF23:
 13999 0e45 5F5F636F 		.ascii	"__count\000"
 13999      756E7400 
 14000              	.LASF128:
 14001 0e4d 75696E74 		.ascii	"uint8_t\000"
 14001      385F7400 
 14002              	.LASF740:
 14003 0e55 72657376 		.ascii	"resvd14\000"
 14003      64313400 
 14004              	.LASF489:
 14005 0e5d 43414E5F 		.ascii	"CAN_UNINIT\000"
 14005      554E494E 
 14005      495400
 14006              	.LASF741:
 14007 0e68 72657376 		.ascii	"resvd18\000"
 14007      64313800 
 14008              	.LASF181:
 14009 0e70 725F6F6C 		.ascii	"r_older\000"
 14009      64657200 
 14010              	.LASF150:
 14011 0e78 705F7072 		.ascii	"p_prev\000"
 14011      657600
 14012              	.LASF367:
 14013 0e7f 63665F6F 		.ascii	"cf_off_name\000"
 14013      66665F6E 
 14013      616D6500 
 14014              	.LASF629:
 14015 0e8b 50574D43 		.ascii	"PWMChannelConfig\000"
 14015      68616E6E 
 14015      656C436F 
 14015      6E666967 
 14015      00
 14016              	.LASF628:
 14017 0e9c 70776D63 		.ascii	"pwmcnt_t\000"
 14017      6E745F74 
ARM GAS  C:\Users\PCHAUT~1\AppData\Local\Temp\ccORgsmL.s 			page 259


 14017      00
 14018              	.LASF845:
 14019 0ea5 7364635F 		.ascii	"sdc_lld_sync\000"
 14019      6C6C645F 
 14019      73796E63 
 14019      00
 14020              	.LASF799:
 14021 0eb2 44494550 		.ascii	"DIEPEMPMSK\000"
 14021      454D504D 
 14021      534B00
 14022              	.LASF744:
 14023 0ebd 44494550 		.ascii	"DIEPCTL\000"
 14023      43544C00 
 14024              	.LASF383:
 14025 0ec5 656C5F77 		.ascii	"el_wflags\000"
 14025      666C6167 
 14025      7300
 14026              	.LASF700:
 14027 0ecf 6F746770 		.ascii	"otgparams\000"
 14027      6172616D 
 14027      7300
 14028              	.LASF325:
 14029 0ed9 74625F73 		.ascii	"tb_size\000"
 14029      697A6500 
 14030              	.LASF441:
 14031 0ee1 50444461 		.ascii	"PDData\000"
 14031      746100
 14032              	.LASF664:
 14033 0ee8 73637261 		.ascii	"scratchpad\000"
 14033      74636870 
 14033      616400
 14034              	.LASF88:
 14035 0ef3 5F637674 		.ascii	"_cvtbuf\000"
 14035      62756600 
 14036              	.LASF833:
 14037 0efb 6F75745F 		.ascii	"out_state\000"
 14037      73746174 
 14037      6500
 14038              	.LASF387:
 14039 0f05 696F5F71 		.ascii	"io_queue_t\000"
 14039      75657565 
 14039      5F7400
 14040              	.LASF680:
 14041 0f10 73706973 		.ascii	"spistate_t\000"
 14041      74617465 
 14041      5F7400
 14042              	.LASF574:
 14043 0f1b 4932435F 		.ascii	"I2C_STOP\000"
 14043      53544F50 
 14043      00
 14044              	.LASF596:
 14045 0f24 61646472 		.ascii	"addr\000"
 14045      00
 14046              	.LASF877:
 14047 0f29 6F73616C 		.ascii	"osalThreadSuspendS\000"
 14047      54687265 
 14047      61645375 
ARM GAS  C:\Users\PCHAUT~1\AppData\Local\Temp\ccORgsmL.s 			page 260


 14047      7370656E 
 14047      645300
 14048              	.LASF233:
 14049 0f3c 52463052 		.ascii	"RF0R\000"
 14049      00
 14050              	.LASF459:
 14051 0f41 4144435F 		.ascii	"ADC_ERR_DMAFAILURE\000"
 14051      4552525F 
 14051      444D4146 
 14051      41494C55 
 14051      524500
 14052              	.LASF678:
 14053 0f54 5350495F 		.ascii	"SPI_ACTIVE\000"
 14053      41435449 
 14053      564500
 14054              	.LASF314:
 14055 0f5f 47545052 		.ascii	"GTPR\000"
 14055      00
 14056              	.LASF543:
 14057 0f64 45585443 		.ascii	"EXTChannelConfig\000"
 14057      68616E6E 
 14057      656C436F 
 14057      6E666967 
 14057      00
 14058              	.LASF424:
 14059 0f75 4F535045 		.ascii	"OSPEEDR\000"
 14059      45445200 
 14060              	.LASF507:
 14061 0f7d 4441435F 		.ascii	"DAC_READY\000"
 14061      52454144 
 14061      5900
 14062              	.LASF768:
 14063 0f87 72657376 		.ascii	"resvd30\000"
 14063      64333000 
 14064              	.LASF22:
 14065 0f8f 5F5F7763 		.ascii	"__wchb\000"
 14065      686200
 14066              	.LASF116:
 14067 0f96 5F6D6272 		.ascii	"_mbrtowc_state\000"
 14067      746F7763 
 14067      5F737461 
 14067      746500
 14068              	.LASF797:
 14069 0fa5 44564255 		.ascii	"DVBUSPULSE\000"
 14069      5350554C 
 14069      534500
 14070              	.LASF37:
 14071 0fb0 5F5F746D 		.ascii	"__tm_hour\000"
 14071      5F686F75 
 14071      7200
 14072              	.LASF408:
 14073 0fba 424C4B5F 		.ascii	"BLK_STOP\000"
 14073      53544F50 
 14073      00
 14074              	.LASF644:
 14075 0fc3 53657269 		.ascii	"SerialDriverVMT\000"
 14075      616C4472 
ARM GAS  C:\Users\PCHAUT~1\AppData\Local\Temp\ccORgsmL.s 			page 261


 14075      69766572 
 14075      564D5400 
 14076              	.LASF718:
 14077 0fd3 5553425F 		.ascii	"USB_EP0_ERROR\000"
 14077      4550305F 
 14077      4552524F 
 14077      5200
 14078              	.LASF20:
 14079 0fe1 77696E74 		.ascii	"wint_t\000"
 14079      5F7400
 14080              	.LASF670:
 14081 0fe8 636F6E6E 		.ascii	"connect\000"
 14081      65637400 
 14082              	.LASF89:
 14083 0ff0 5F6E6577 		.ascii	"_new\000"
 14083      00
 14084              	.LASF868:
 14085 0ff5 7364635F 		.ascii	"sdc_lld_init\000"
 14085      6C6C645F 
 14085      696E6974 
 14085      00
 14086              	.LASF462:
 14087 1002 41444344 		.ascii	"ADCDriver\000"
 14087      72697665 
 14087      7200
 14088              	.LASF811:
 14089 100c 6E756D5F 		.ascii	"num_endpoints\000"
 14089      656E6470 
 14089      6F696E74 
 14089      7300
 14090              	.LASF485:
 14091 101a 41444343 		.ascii	"ADCConfig\000"
 14091      6F6E6669 
 14091      6700
 14092              	.LASF819:
 14093 1024 746F7473 		.ascii	"totsize\000"
 14093      697A6500 
 14094              	.LASF96:
 14095 102c 5F6E696F 		.ascii	"_niobs\000"
 14095      627300
 14096              	.LASF368:
 14097 1033 63665F6F 		.ascii	"cf_off_stklimit\000"
 14097      66665F73 
 14097      746B6C69 
 14097      6D697400 
 14098              	.LASF637:
 14099 1043 53445F52 		.ascii	"SD_READY\000"
 14099      45414459 
 14099      00
 14100              	.LASF734:
 14101 104c 75736267 		.ascii	"usbgetdescriptor_t\000"
 14101      65746465 
 14101      73637269 
 14101      70746F72 
 14101      5F7400
 14102              	.LASF510:
 14103 105f 4441435F 		.ascii	"DAC_ERROR\000"
ARM GAS  C:\Users\PCHAUT~1\AppData\Local\Temp\ccORgsmL.s 			page 262


 14103      4552524F 
 14103      5200
 14104              	.LASF182:
 14105 1069 725F6375 		.ascii	"r_current\000"
 14105      7272656E 
 14105      7400
 14106              	.LASF73:
 14107 1073 5F657272 		.ascii	"_errno\000"
 14107      6E6F00
 14108              	.LASF713:
 14109 107a 5553425F 		.ascii	"USB_EP0_TX\000"
 14109      4550305F 
 14109      545800
 14110              	.LASF692:
 14111 1085 65703073 		.ascii	"ep0state\000"
 14111      74617465 
 14111      00
 14112              	.LASF38:
 14113 108e 5F5F746D 		.ascii	"__tm_mday\000"
 14113      5F6D6461 
 14113      7900
 14114              	.LASF401:
 14115 1098 69666372 		.ascii	"ifcr\000"
 14115      00
 14116              	.LASF602:
 14117 109d 4932535F 		.ascii	"I2S_UNINIT\000"
 14117      554E494E 
 14117      495400
 14118              	.LASF430:
 14119 10a8 73746D33 		.ascii	"stm32_gpio_t\000"
 14119      325F6770 
 14119      696F5F74 
 14119      00
 14120              	.LASF341:
 14121 10b5 7264796D 		.ascii	"rdymsg\000"
 14121      736700
 14122              	.LASF45:
 14123 10bc 5F666E61 		.ascii	"_fnargs\000"
 14123      72677300 
 14124              	.LASF619:
 14125 10c4 50574D5F 		.ascii	"PWM_READY\000"
 14125      52454144 
 14125      5900
 14126              	.LASF224:
 14127 10ce 54445452 		.ascii	"TDTR\000"
 14127      00
 14128              	.LASF232:
 14129 10d3 43414E5F 		.ascii	"CAN_FilterRegister_TypeDef\000"
 14129      46696C74 
 14129      65725265 
 14129      67697374 
 14129      65725F54 
 14130              	.LASF500:
 14131 10ee 6572726F 		.ascii	"error_event\000"
 14131      725F6576 
 14131      656E7400 
 14132              	.LASF475:
ARM GAS  C:\Users\PCHAUT~1\AppData\Local\Temp\ccORgsmL.s 			page 263


 14133 10fa 6E756D5F 		.ascii	"num_channels\000"
 14133      6368616E 
 14133      6E656C73 
 14133      00
 14134              	.LASF213:
 14135 1107 4A4F4652 		.ascii	"JOFR3\000"
 14135      3300
 14136              	.LASF771:
 14137 110d 72657376 		.ascii	"resvd58\000"
 14137      64353800 
 14138              	.LASF820:
 14139 1115 55534249 		.ascii	"USBInEndpointState\000"
 14139      6E456E64 
 14139      706F696E 
 14139      74537461 
 14139      746500
 14140              	.LASF151:
 14141 1128 705F7072 		.ascii	"p_prio\000"
 14141      696F00
 14142              	.LASF388:
 14143 112f 696F5F71 		.ascii	"io_queue\000"
 14143      75657565 
 14143      00
 14144              	.LASF438:
 14145 1138 50414461 		.ascii	"PAData\000"
 14145      746100
 14146              	.LASF15:
 14147 113f 5F5F7569 		.ascii	"__uint64_t\000"
 14147      6E743634 
 14147      5F7400
 14148              	.LASF29:
 14149 114a 5F6E6578 		.ascii	"_next\000"
 14149      7400
 14150              	.LASF624:
 14151 1150 70776D63 		.ascii	"pwmcallback_t\000"
 14151      616C6C62 
 14151      61636B5F 
 14151      7400
 14152              	.LASF518:
 14153 115e 70617261 		.ascii	"params\000"
 14153      6D7300
 14154              	.LASF717:
 14155 1165 5553425F 		.ascii	"USB_EP0_SENDING_STS\000"
 14155      4550305F 
 14155      53454E44 
 14155      494E475F 
 14155      53545300 
 14156              	.LASF113:
 14157 1179 5F736967 		.ascii	"_signal_buf\000"
 14157      6E616C5F 
 14157      62756600 
 14158              	.LASF579:
 14159 1185 69326373 		.ascii	"i2cstate_t\000"
 14159      74617465 
 14159      5F7400
 14160              	.LASF59:
 14161 1190 5F636F6F 		.ascii	"_cookie\000"
ARM GAS  C:\Users\PCHAUT~1\AppData\Local\Temp\ccORgsmL.s 			page 264


 14161      6B696500 
 14162              	.LASF719:
 14163 1198 75736265 		.ascii	"usbep0state_t\000"
 14163      70307374 
 14163      6174655F 
 14163      7400
 14164              	.LASF522:
 14165 11a6 64616365 		.ascii	"dacerror_t\000"
 14165      72726F72 
 14165      5F7400
 14166              	.LASF236:
 14167 11b1 7354784D 		.ascii	"sTxMailBox\000"
 14167      61696C42 
 14167      6F7800
 14168              	.LASF457:
 14169 11bc 61646373 		.ascii	"adcsample_t\000"
 14169      616D706C 
 14169      655F7400 
 14170              	.LASF555:
 14171 11c8 67707463 		.ascii	"gptcallback_t\000"
 14171      616C6C62 
 14171      61636B5F 
 14171      7400
 14172              	.LASF391:
 14173 11d6 715F6275 		.ascii	"q_buffer\000"
 14173      66666572 
 14173      00
 14174              	.LASF277:
 14175 11df 41504232 		.ascii	"APB2RSTR\000"
 14175      52535452 
 14175      00
 14176              	.LASF149:
 14177 11e8 705F6E65 		.ascii	"p_next\000"
 14177      787400
 14178              	.LASF601:
 14179 11ef 49324344 		.ascii	"I2CD1\000"
 14179      3100
 14180              	.LASF745:
 14181 11f5 72657376 		.ascii	"resvd4\000"
 14181      643400
 14182              	.LASF687:
 14183 11fc 55534244 		.ascii	"USBDriver\000"
 14183      72697665 
 14183      7200
 14184              	.LASF804:
 14185 1206 72657376 		.ascii	"resvd8C0\000"
 14185      64384330 
 14185      00
 14186              	.LASF841:
 14187 120f 55534243 		.ascii	"USBConfig\000"
 14187      6F6E6669 
 14187      6700
 14188              	.LASF747:
 14189 1219 72657376 		.ascii	"resvdC\000"
 14189      644300
 14190              	.LASF631:
 14191 1220 50574D44 		.ascii	"PWMD2\000"
ARM GAS  C:\Users\PCHAUT~1\AppData\Local\Temp\ccORgsmL.s 			page 265


 14191      3200
 14192              	.LASF632:
 14193 1226 50574D44 		.ascii	"PWMD3\000"
 14193      3300
 14194              	.LASF633:
 14195 122c 50574D44 		.ascii	"PWMD4\000"
 14195      3400
 14196              	.LASF634:
 14197 1232 50574D44 		.ascii	"PWMD5\000"
 14197      3500
 14198              	.LASF286:
 14199 1238 41504231 		.ascii	"APB1LPENR\000"
 14199      4C50454E 
 14199      5200
 14200              	.LASF642:
 14201 1242 6F717565 		.ascii	"oqueue\000"
 14201      756500
 14202              	.LASF138:
 14203 1249 74726566 		.ascii	"trefs_t\000"
 14203      735F7400 
 14204              	.LASF168:
 14205 1251 705F6D70 		.ascii	"p_mpool\000"
 14205      6F6F6C00 
 14206              	.LASF270:
 14207 1259 4932435F 		.ascii	"I2C_TypeDef\000"
 14207      54797065 
 14207      44656600 
 14208              	.LASF530:
 14209 1265 44414343 		.ascii	"DACConversionGroup\000"
 14209      6F6E7665 
 14209      7273696F 
 14209      6E47726F 
 14209      757000
 14210              	.LASF35:
 14211 1278 5F5F746D 		.ascii	"__tm_sec\000"
 14211      5F736563 
 14211      00
 14212              	.LASF834:
 14213 1281 696E5F6D 		.ascii	"in_multiplier\000"
 14213      756C7469 
 14213      706C6965 
 14213      7200
 14214              	.LASF455:
 14215 128f 4144435F 		.ascii	"ADC_ERROR\000"
 14215      4552524F 
 14215      5200
 14216              	.LASF44:
 14217 1299 5F6F6E5F 		.ascii	"_on_exit_args\000"
 14217      65786974 
 14217      5F617267 
 14217      7300
 14218              	.LASF318:
 14219 12a7 636F6E74 		.ascii	"context\000"
 14219      65787400 
 14220              	.LASF136:
 14221 12af 746D6F64 		.ascii	"tmode_t\000"
 14221      655F7400 
ARM GAS  C:\Users\PCHAUT~1\AppData\Local\Temp\ccORgsmL.s 			page 266


 14222              	.LASF280:
 14223 12b7 41484233 		.ascii	"AHB3ENR\000"
 14223      454E5200 
 14224              	.LASF453:
 14225 12bf 4144435F 		.ascii	"ADC_ACTIVE\000"
 14225      41435449 
 14225      564500
 14226              	.LASF215:
 14227 12ca 53515231 		.ascii	"SQR1\000"
 14227      00
 14228              	.LASF216:
 14229 12cf 53515232 		.ascii	"SQR2\000"
 14229      00
 14230              	.LASF217:
 14231 12d4 53515233 		.ascii	"SQR3\000"
 14231      00
 14232              	.LASF850:
 14233 12d9 7364635F 		.ascii	"sdc_lld_read\000"
 14233      6C6C645F 
 14233      72656164 
 14233      00
 14234              	.LASF847:
 14235 12e6 73646370 		.ascii	"sdcp\000"
 14235      00
 14236              	.LASF426:
 14237 12eb 42535252 		.ascii	"BSRR\000"
 14237      00
 14238              	.LASF405:
 14239 12f0 73746D33 		.ascii	"stm32_dma_stream_t\000"
 14239      325F646D 
 14239      615F7374 
 14239      7265616D 
 14239      5F7400
 14240              	.LASF839:
 14241 1303 72657175 		.ascii	"requests_hook_cb\000"
 14241      65737473 
 14241      5F686F6F 
 14241      6B5F6362 
 14241      00
 14242              	.LASF118:
 14243 1314 5F776372 		.ascii	"_wcrtomb_state\000"
 14243      746F6D62 
 14243      5F737461 
 14243      746500
 14244              	.LASF653:
 14245 1323 5344435F 		.ascii	"SDC_MODE_8BIT\000"
 14245      4D4F4445 
 14245      5F384249 
 14245      5400
 14246              	.LASF817:
 14247 1331 74787369 		.ascii	"txsize\000"
 14247      7A6500
 14248              	.LASF526:
 14249 1338 4441435F 		.ascii	"DAC_DHRM_12BIT_LEFT\000"
 14249      4448524D 
 14249      5F313242 
 14249      49545F4C 
ARM GAS  C:\Users\PCHAUT~1\AppData\Local\Temp\ccORgsmL.s 			page 267


 14249      45465400 
 14250              	.LASF622:
 14251 134c 70657269 		.ascii	"period\000"
 14251      6F6400
 14252              	.LASF352:
 14253 1353 6D5F7175 		.ascii	"m_queue\000"
 14253      65756500 
 14254              	.LASF873:
 14255 135b 7364635F 		.ascii	"sdc_lld_prepare_write\000"
 14255      6C6C645F 
 14255      70726570 
 14255      6172655F 
 14255      77726974 
 14256              	.LASF578:
 14257 1371 4932435F 		.ascii	"I2C_LOCKED\000"
 14257      4C4F434B 
 14257      454400
 14258              	.LASF197:
 14259 137c 6973725F 		.ascii	"isr_cnt\000"
 14259      636E7400 
 14260              	.LASF708:
 14261 1384 5553425F 		.ascii	"USB_READY\000"
 14261      52454144 
 14261      5900
 14262              	.LASF858:
 14263 138e 7364635F 		.ascii	"sdc_lld_send_cmd_long_crc\000"
 14263      6C6C645F 
 14263      73656E64 
 14263      5F636D64 
 14263      5F6C6F6E 
 14264              	.LASF650:
 14265 13a8 72656164 		.ascii	"readt\000"
 14265      7400
 14266              	.LASF760:
 14267 13ae 47525354 		.ascii	"GRSTCTL\000"
 14267      43544C00 
 14268              	.LASF552:
 14269 13b6 67707473 		.ascii	"gptstate_t\000"
 14269      74617465 
 14269      5F7400
 14270              	.LASF28:
 14271 13c1 5F5F554C 		.ascii	"__ULong\000"
 14271      6F6E6700 
 14272              	.LASF196:
 14273 13c9 70616E69 		.ascii	"panic_msg\000"
 14273      635F6D73 
 14273      6700
 14274              	.LASF679:
 14275 13d3 5350495F 		.ascii	"SPI_COMPLETE\000"
 14275      434F4D50 
 14275      4C455445 
 14275      00
 14276              	.LASF300:
 14277 13e0 4454494D 		.ascii	"DTIMER\000"
 14277      455200
 14278              	.LASF180:
 14279 13e7 725F6E65 		.ascii	"r_newer\000"
ARM GAS  C:\Users\PCHAUT~1\AppData\Local\Temp\ccORgsmL.s 			page 268


 14279      77657200 
 14280              	.LASF725:
 14281 13ef 5553425F 		.ascii	"USB_EVENT_STALLED\000"
 14281      4556454E 
 14281      545F5354 
 14281      414C4C45 
 14281      4400
 14282              	.LASF278:
 14283 1401 41484231 		.ascii	"AHB1ENR\000"
 14283      454E5200 
 14284              	.LASF374:
 14285 1409 63686465 		.ascii	"chdebug_t\000"
 14285      6275675F 
 14285      7400
 14286              	.LASF889:
 14287 1413 706F7274 		.ascii	"port_lock_from_isr\000"
 14287      5F6C6F63 
 14287      6B5F6672 
 14287      6F6D5F69 
 14287      737200
 14288              	.LASF823:
 14289 1426 72787369 		.ascii	"rxsize\000"
 14289      7A6500
 14290              	.LASF739:
 14291 142d 48435453 		.ascii	"HCTSIZ\000"
 14291      495A00
 14292              	.LASF722:
 14293 1434 5553425F 		.ascii	"USB_EVENT_CONFIGURED\000"
 14293      4556454E 
 14293      545F434F 
 14293      4E464947 
 14293      55524544 
 14294              	.LASF671:
 14295 1449 64697363 		.ascii	"disconnect\000"
 14295      6F6E6E65 
 14295      637400
 14296              	.LASF655:
 14297 1454 5344435F 		.ascii	"SDC_CLK_25MHz\000"
 14297      434C4B5F 
 14297      32354D48 
 14297      7A00
 14298              	.LASF647:
 14299 1462 70757474 		.ascii	"putt\000"
 14299      00
 14300              	.LASF139:
 14301 1467 74736C69 		.ascii	"tslices_t\000"
 14301      6365735F 
 14301      7400
 14302              	.LASF103:
 14303 1471 5F737472 		.ascii	"_strtok_last\000"
 14303      746F6B5F 
 14303      6C617374 
 14303      00
 14304              	.LASF361:
 14305 147e 63685F74 		.ascii	"ch_timesize\000"
 14305      696D6573 
 14305      697A6500 
ARM GAS  C:\Users\PCHAUT~1\AppData\Local\Temp\ccORgsmL.s 			page 269


 14306              	.LASF272:
 14307 148a 43464752 		.ascii	"CFGR\000"
 14307      00
 14308              	.LASF704:
 14309 148f 77615F70 		.ascii	"wa_pump\000"
 14309      756D7000 
 14310              	.LASF305:
 14311 1497 4649464F 		.ascii	"FIFOCNT\000"
 14311      434E5400 
 14312              	.LASF386:
 14313 149f 6576656E 		.ascii	"event_source_t\000"
 14313      745F736F 
 14313      75726365 
 14313      5F7400
 14314              	.LASF774:
 14315 14ae 72657376 		.ascii	"resvd140\000"
 14315      64313430 
 14315      00
 14316              	.LASF188:
 14317 14b7 76745F64 		.ascii	"vt_delta\000"
 14317      656C7461 
 14317      00
 14318              	.LASF99:
 14319 14c0 5F736565 		.ascii	"_seed\000"
 14319      6400
 14320              	.LASF326:
 14321 14c6 74625F70 		.ascii	"tb_ptr\000"
 14321      747200
 14322              	.LASF529:
 14323 14cd 74726967 		.ascii	"trigger\000"
 14323      67657200 
 14324              	.LASF62:
 14325 14d5 5F736565 		.ascii	"_seek\000"
 14325      6B00
 14326              	.LASF723:
 14327 14db 5553425F 		.ascii	"USB_EVENT_SUSPEND\000"
 14327      4556454E 
 14327      545F5355 
 14327      5350454E 
 14327      4400
 14328              	.LASF129:
 14329 14ed 696E7431 		.ascii	"int16_t\000"
 14329      365F7400 
 14330              	.LASF548:
 14331 14f5 4750545F 		.ascii	"GPT_STOP\000"
 14331      53544F50 
 14331      00
 14332              	.LASF223:
 14333 14fe 4144435F 		.ascii	"ADC_TypeDef\000"
 14333      54797065 
 14333      44656600 
 14334              	.LASF752:
 14335 150a 444F4550 		.ascii	"DOEPCTL\000"
 14335      43544C00 
 14336              	.LASF10:
 14337 1512 73686F72 		.ascii	"short unsigned int\000"
 14337      7420756E 
ARM GAS  C:\Users\PCHAUT~1\AppData\Local\Temp\ccORgsmL.s 			page 270


 14337      7369676E 
 14337      65642069 
 14337      6E7400
 14338              	.LASF590:
 14339 1525 6F705F6D 		.ascii	"op_mode\000"
 14339      6F646500 
 14340              	.LASF3:
 14341 152d 7369676E 		.ascii	"signed char\000"
 14341      65642063 
 14341      68617200 
 14342              	.LASF627:
 14343 1539 70776D63 		.ascii	"pwmchnmsk_t\000"
 14343      686E6D73 
 14343      6B5F7400 
 14344              	.LASF160:
 14345 1545 705F7072 		.ascii	"p_preempt\000"
 14345      65656D70 
 14345      7400
 14346              	.LASF604:
 14347 154f 4932535F 		.ascii	"I2S_READY\000"
 14347      52454144 
 14347      5900
 14348              	.LASF145:
 14349 1559 75636E74 		.ascii	"ucnt_t\000"
 14349      5F7400
 14350              	.LASF226:
 14351 1560 54444852 		.ascii	"TDHR\000"
 14351      00
 14352              	.LASF451:
 14353 1565 4144435F 		.ascii	"ADC_STOP\000"
 14353      53544F50 
 14353      00
 14354              	.LASF716:
 14355 156e 5553425F 		.ascii	"USB_EP0_RX\000"
 14355      4550305F 
 14355      525800
 14356              	.LASF625:
 14357 1579 70776D6D 		.ascii	"pwmmode_t\000"
 14357      6F64655F 
 14357      7400
 14358              	.LASF697:
 14359 1583 73746174 		.ascii	"status\000"
 14359      757300
 14360              	.LASF301:
 14361 158a 444C454E 		.ascii	"DLEN\000"
 14361      00
 14362              	.LASF290:
 14363 158f 53534347 		.ascii	"SSCGR\000"
 14363      5200
 14364              	.LASF652:
 14365 1595 5344435F 		.ascii	"SDC_MODE_4BIT\000"
 14365      4D4F4445 
 14365      5F344249 
 14365      5400
 14366              	.LASF729:
 14367 15a3 55534244 		.ascii	"USBDescriptor\000"
 14367      65736372 
ARM GAS  C:\Users\PCHAUT~1\AppData\Local\Temp\ccORgsmL.s 			page 271


 14367      6970746F 
 14367      7200
 14368              	.LASF682:
 14369 15b1 73706963 		.ascii	"spicallback_t\000"
 14369      616C6C62 
 14369      61636B5F 
 14369      7400
 14370              	.LASF86:
 14371 15bf 5F667265 		.ascii	"_freelist\000"
 14371      656C6973 
 14371      7400
 14372              	.LASF698:
 14373 15c9 61646472 		.ascii	"address\000"
 14373      65737300 
 14374              	.LASF163:
 14375 15d1 705F6D73 		.ascii	"p_msgqueue\000"
 14375      67717565 
 14375      756500
 14376              	.LASF371:
 14377 15dc 63665F6F 		.ascii	"cf_off_refs\000"
 14377      66665F72 
 14377      65667300 
 14378              	.LASF369:
 14379 15e8 63665F6F 		.ascii	"cf_off_state\000"
 14379      66665F73 
 14379      74617465 
 14379      00
 14380              	.LASF353:
 14381 15f5 6D5F6F77 		.ascii	"m_owner\000"
 14381      6E657200 
 14382              	.LASF67:
 14383 15fd 5F6F6666 		.ascii	"_offset\000"
 14383      73657400 
 14384              	.LASF208:
 14385 1605 53797374 		.ascii	"SystemCoreClock\000"
 14385      656D436F 
 14385      7265436C 
 14385      6F636B00 
 14386              	.LASF473:
 14387 1615 61646365 		.ascii	"adcerrorcallback_t\000"
 14387      72726F72 
 14387      63616C6C 
 14387      6261636B 
 14387      5F7400
 14388              	.LASF881:
 14389 1628 6F73616C 		.ascii	"osalSysLockFromISR\000"
 14389      5379734C 
 14389      6F636B46 
 14389      726F6D49 
 14389      535200
 14390              	.LASF508:
 14391 163b 4441435F 		.ascii	"DAC_ACTIVE\000"
 14391      41435449 
 14391      564500
 14392              	.LASF463:
 14393 1646 73746174 		.ascii	"state\000"
 14393      6500
ARM GAS  C:\Users\PCHAUT~1\AppData\Local\Temp\ccORgsmL.s 			page 272


 14394              	.LASF359:
 14395 164c 63685F76 		.ascii	"ch_version\000"
 14395      65727369 
 14395      6F6E00
 14396              	.LASF52:
 14397 1657 5F5F7362 		.ascii	"__sbuf\000"
 14397      756600
 14398              	.LASF663:
 14399 165e 7364696F 		.ascii	"sdio\000"
 14399      00
 14400              	.LASF249:
 14401 1663 53575452 		.ascii	"SWTRIGR\000"
 14401      49475200 
 14402              	.LASF715:
 14403 166b 5553425F 		.ascii	"USB_EP0_WAITING_STS\000"
 14403      4550305F 
 14403      57414954 
 14403      494E475F 
 14403      53545300 
 14404              	.LASF112:
 14405 167f 5F6C3634 		.ascii	"_l64a_buf\000"
 14405      615F6275 
 14405      6600
 14406              	.LASF230:
 14407 1689 52444852 		.ascii	"RDHR\000"
 14407      00
 14408              	.LASF562:
 14409 168e 444D4152 		.ascii	"DMAR\000"
 14409      00
 14410              	.LASF568:
 14411 1693 63616C6C 		.ascii	"callback\000"
 14411      6261636B 
 14411      00
 14412              	.LASF201:
 14413 169c 63685F73 		.ascii	"ch_system\000"
 14413      79737465 
 14413      6D00
 14414              	.LASF293:
 14415 16a6 504F5745 		.ascii	"POWER\000"
 14415      5200
 14416              	.LASF291:
 14417 16ac 504C4C49 		.ascii	"PLLI2SCFGR\000"
 14417      32534346 
 14417      475200
 14418              	.LASF856:
 14419 16b7 7364635F 		.ascii	"sdc_lld_read_special\000"
 14419      6C6C645F 
 14419      72656164 
 14419      5F737065 
 14419      6369616C 
 14420              	.LASF199:
 14421 16cc 74726163 		.ascii	"trace_buffer\000"
 14421      655F6275 
 14421      66666572 
 14421      00
 14422              	.LASF104:
 14423 16d9 5F617363 		.ascii	"_asctime_buf\000"
ARM GAS  C:\Users\PCHAUT~1\AppData\Local\Temp\ccORgsmL.s 			page 273


 14423      74696D65 
 14423      5F627566 
 14423      00
 14424              	.LASF527:
 14425 16e6 4441435F 		.ascii	"DAC_DHRM_8BIT_RIGHT\000"
 14425      4448524D 
 14425      5F384249 
 14425      545F5249 
 14425      47485400 
 14426              	.LASF547:
 14427 16fa 4750545F 		.ascii	"GPT_UNINIT\000"
 14427      554E494E 
 14427      495400
 14428              	.LASF21:
 14429 1705 5F5F7763 		.ascii	"__wch\000"
 14429      6800
 14430              	.LASF348:
 14431 170b 63685F73 		.ascii	"ch_semaphore\000"
 14431      656D6170 
 14431      686F7265 
 14431      00
 14432              	.LASF119:
 14433 1718 5F776373 		.ascii	"_wcsrtombs_state\000"
 14433      72746F6D 
 14433      62735F73 
 14433      74617465 
 14433      00
 14434              	.LASF748:
 14435 1729 44494550 		.ascii	"DIEPTSIZ\000"
 14435      5453495A 
 14435      00
 14436              	.LASF890:
 14437 1732 706F7274 		.ascii	"port_unlock\000"
 14437      5F756E6C 
 14437      6F636B00 
 14438              	.LASF478:
 14439 173e 736D7072 		.ascii	"smpr1\000"
 14439      3100
 14440              	.LASF479:
 14441 1744 736D7072 		.ascii	"smpr2\000"
 14441      3200
 14442              	.LASF173:
 14443 174a 74687265 		.ascii	"threads_queue_t\000"
 14443      6164735F 
 14443      71756575 
 14443      655F7400 
 14444              	.LASF416:
 14445 175a 626C6B73 		.ascii	"blkstate_t\000"
 14445      74617465 
 14445      5F7400
 14446              	.LASF879:
 14447 1765 74696D65 		.ascii	"time\000"
 14447      00
 14448              	.LASF887:
 14449 176a 63685379 		.ascii	"chSysLock\000"
 14449      734C6F63 
 14449      6B00
ARM GAS  C:\Users\PCHAUT~1\AppData\Local\Temp\ccORgsmL.s 			page 274


 14450              	.LASF161:
 14451 1774 705F7469 		.ascii	"p_time\000"
 14451      6D6500
 14452              	.LASF159:
 14453 177b 705F7265 		.ascii	"p_refs\000"
 14453      667300
 14454              	.LASF826:
 14455 1782 65705F6D 		.ascii	"ep_mode\000"
 14455      6F646500 
 14456              	.LASF626:
 14457 178a 70776D63 		.ascii	"pwmchannel_t\000"
 14457      68616E6E 
 14457      656C5F74 
 14457      00
 14458              	.LASF225:
 14459 1797 54444C52 		.ascii	"TDLR\000"
 14459      00
 14460              	.LASF12:
 14461 179c 6C6F6E67 		.ascii	"long int\000"
 14461      20696E74 
 14461      00
 14462              	.LASF204:
 14463 17a5 6D61696E 		.ascii	"mainthread\000"
 14463      74687265 
 14463      616400
 14464              	.LASF694:
 14465 17b0 6570306E 		.ascii	"ep0n\000"
 14465      00
 14466              	.LASF807:
 14467 17b5 72657376 		.ascii	"resvdE04\000"
 14467      64453034 
 14467      00
 14468              	.LASF580:
 14469 17be 69326361 		.ascii	"i2caddr_t\000"
 14469      6464725F 
 14469      7400
 14470              	.LASF111:
 14471 17c8 5F776374 		.ascii	"_wctomb_state\000"
 14471      6F6D625F 
 14471      73746174 
 14471      6500
 14472              	.LASF515:
 14473 17d6 646D6169 		.ascii	"dmairqprio\000"
 14473      72717072 
 14473      696F00
 14474              	.LASF553:
 14475 17e1 47505444 		.ascii	"GPTDriver\000"
 14475      72697665 
 14475      7200
 14476              	.LASF275:
 14477 17eb 41484233 		.ascii	"AHB3RSTR\000"
 14477      52535452 
 14477      00
 14478              	.LASF390:
 14479 17f4 715F636F 		.ascii	"q_counter\000"
 14479      756E7465 
 14479      7200
ARM GAS  C:\Users\PCHAUT~1\AppData\Local\Temp\ccORgsmL.s 			page 275


 14480              	.LASF445:
 14481 17fe 50484461 		.ascii	"PHData\000"
 14481      746100
 14482              	.LASF448:
 14483 1805 696F706F 		.ascii	"ioportid_t\000"
 14483      72746964 
 14483      5F7400
 14484              	.LASF486:
 14485 1810 41444344 		.ascii	"ADCD1\000"
 14485      3100
 14486              	.LASF487:
 14487 1816 41444344 		.ascii	"ADCD2\000"
 14487      3200
 14488              	.LASF488:
 14489 181c 41444344 		.ascii	"ADCD3\000"
 14489      3300
 14490              	.LASF775:
 14491 1822 48434647 		.ascii	"HCFG\000"
 14491      00
 14492              	.LASF471:
 14493 1827 646D616D 		.ascii	"dmamode\000"
 14493      6F646500 
 14494              	.LASF334:
 14495 182f 63756D75 		.ascii	"cumulative\000"
 14495      6C617469 
 14495      766500
 14496              	.LASF97:
 14497 183a 5F696F62 		.ascii	"_iobs\000"
 14497      7300
 14498              	.LASF78:
 14499 1840 5F656D65 		.ascii	"_emergency\000"
 14499      7267656E 
 14499      637900
 14500              	.LASF648:
 14501 184b 67657474 		.ascii	"gett\000"
 14501      00
 14502              	.LASF344:
 14503 1850 77747472 		.ascii	"wttrp\000"
 14503      7000
 14504              	.LASF394:
 14505 1856 715F7264 		.ascii	"q_rdptr\000"
 14505      70747200 
 14506              	.LASF121:
 14507 185e 5F6E6578 		.ascii	"_nextf\000"
 14507      746600
 14508              	.LASF645:
 14509 1865 77726974 		.ascii	"write\000"
 14509      6500
 14510              	.LASF107:
 14511 186b 5F72616E 		.ascii	"_rand_next\000"
 14511      645F6E65 
 14511      787400
 14512              	.LASF641:
 14513 1876 69717565 		.ascii	"iqueue\000"
 14513      756500
 14514              	.LASF828:
 14515 187d 696E5F63 		.ascii	"in_cb\000"
ARM GAS  C:\Users\PCHAUT~1\AppData\Local\Temp\ccORgsmL.s 			page 276


 14515      6200
 14516              	.LASF753:
 14517 1883 444F4550 		.ascii	"DOEPINT\000"
 14517      494E5400 
 14518              	.LASF333:
 14519 188b 6C617374 		.ascii	"last\000"
 14519      00
 14520              	.LASF427:
 14521 1890 4C434B52 		.ascii	"LCKR\000"
 14521      00
 14522              	.LASF638:
 14523 1895 73647374 		.ascii	"sdstate_t\000"
 14523      6174655F 
 14523      7400
 14524              	.LASF132:
 14525 189f 75696E74 		.ascii	"uint32_t\000"
 14525      33325F74 
 14525      00
 14526              	.LASF512:
 14527 18a8 64617461 		.ascii	"dataoffset\000"
 14527      6F666673 
 14527      657400
 14528              	.LASF30:
 14529 18b3 5F6D6178 		.ascii	"_maxwds\000"
 14529      77647300 
 14530              	.LASF414:
 14531 18bb 424C4B5F 		.ascii	"BLK_WRITING\000"
 14531      57524954 
 14531      494E4700 
 14532              	.LASF229:
 14533 18c7 52444C52 		.ascii	"RDLR\000"
 14533      00
 14534              	.LASF891:
 14535 18cc 706F7274 		.ascii	"port_lock\000"
 14535      5F6C6F63 
 14535      6B00
 14536              	.LASF2:
 14537 18d6 6C6F6E67 		.ascii	"long double\000"
 14537      20646F75 
 14537      626C6500 
 14538              	.LASF316:
 14539 18e2 72656761 		.ascii	"regarm_t\000"
 14539      726D5F74 
 14539      00
 14540              	.LASF142:
 14541 18eb 6576656E 		.ascii	"eventmask_t\000"
 14541      746D6173 
 14541      6B5F7400 
 14542              	.LASF466:
 14543 18f7 64657074 		.ascii	"depth\000"
 14543      6800
 14544              	.LASF243:
 14545 18fd 46464131 		.ascii	"FFA1R\000"
 14545      5200
 14546              	.LASF234:
 14547 1903 52463152 		.ascii	"RF1R\000"
 14547      00
ARM GAS  C:\Users\PCHAUT~1\AppData\Local\Temp\ccORgsmL.s 			page 277


 14548              	.LASF709:
 14549 1908 5553425F 		.ascii	"USB_SELECTED\000"
 14549      53454C45 
 14549      43544544 
 14549      00
 14550              	.LASF492:
 14551 1915 43414E5F 		.ascii	"CAN_READY\000"
 14551      52454144 
 14551      5900
 14552              	.LASF14:
 14553 191f 6C6F6E67 		.ascii	"long unsigned int\000"
 14553      20756E73 
 14553      69676E65 
 14553      6420696E 
 14553      7400
 14554              	.LASF605:
 14555 1931 4932535F 		.ascii	"I2S_ACTIVE\000"
 14555      41435449 
 14555      564500
 14556              	.LASF853:
 14557 193c 7364635F 		.ascii	"sdc_lld_read_aligned\000"
 14557      6C6C645F 
 14557      72656164 
 14557      5F616C69 
 14557      676E6564 
 14558              	.LASF549:
 14559 1951 4750545F 		.ascii	"GPT_READY\000"
 14559      52454144 
 14559      5900
 14560              	.LASF511:
 14561 195b 64616373 		.ascii	"dacstate_t\000"
 14561      74617465 
 14561      5F7400
 14562              	.LASF321:
 14563 1966 73655F74 		.ascii	"se_tp\000"
 14563      7000
 14564              	.LASF393:
 14565 196c 715F7772 		.ascii	"q_wrptr\000"
 14565      70747200 
 14566              	.LASF519:
 14567 1974 64616373 		.ascii	"dacsample_t\000"
 14567      616D706C 
 14567      655F7400 
 14568              	.LASF721:
 14569 1980 5553425F 		.ascii	"USB_EVENT_ADDRESS\000"
 14569      4556454E 
 14569      545F4144 
 14569      44524553 
 14569      5300
 14570              	.LASF613:
 14571 1992 69327363 		.ascii	"i2scfgr\000"
 14571      66677200 
 14572              	.LASF295:
 14573 199a 52455350 		.ascii	"RESPCMD\000"
 14573      434D4400 
 14574              	.LASF498:
 14575 19a2 72786675 		.ascii	"rxfull_event\000"
ARM GAS  C:\Users\PCHAUT~1\AppData\Local\Temp\ccORgsmL.s 			page 278


 14575      6C6C5F65 
 14575      76656E74 
 14575      00
 14576              	.LASF726:
 14577 19af 75736265 		.ascii	"usbevent_t\000"
 14577      76656E74 
 14577      5F7400
 14578              	.LASF63:
 14579 19ba 5F636C6F 		.ascii	"_close\000"
 14579      736500
 14580              	.LASF27:
 14581 19c1 63686172 		.ascii	"char\000"
 14581      00
 14582              	.LASF495:
 14583 19c6 43414E43 		.ascii	"CANConfig\000"
 14583      6F6E6669 
 14583      6700
 14584              	.LASF442:
 14585 19d0 50454461 		.ascii	"PEData\000"
 14585      746100
 14586              	.LASF177:
 14587 19d7 725F7175 		.ascii	"r_queue\000"
 14587      65756500 
 14588              	.LASF95:
 14589 19df 5F676C75 		.ascii	"_glue\000"
 14589      6500
 14590              	.LASF884:
 14591 19e5 63685379 		.ascii	"chSysUnlockFromISR\000"
 14591      73556E6C 
 14591      6F636B46 
 14591      726F6D49 
 14591      535200
 14592              	.LASF666:
 14593 19f8 53444343 		.ascii	"SDCConfig\000"
 14593      6F6E6669 
 14593      6700
 14594              	.LASF623:
 14595 1a02 656E6162 		.ascii	"enabled\000"
 14595      6C656400 
 14596              	.LASF520:
 14597 1a0a 4441435F 		.ascii	"DAC_ERR_DMAFAILURE\000"
 14597      4552525F 
 14597      444D4146 
 14597      41494C55 
 14597      524500
 14598              	.LASF765:
 14599 1a1d 47525846 		.ascii	"GRXFSIZ\000"
 14599      53495A00 
 14600              	.LASF672:
 14601 1a25 73796E63 		.ascii	"sync\000"
 14601      00
 14602              	.LASF643:
 14603 1a2a 75736172 		.ascii	"usart\000"
 14603      7400
 14604              	.LASF658:
 14605 1a30 7364636D 		.ascii	"sdcmode_t\000"
 14605      6F64655F 
ARM GAS  C:\Users\PCHAUT~1\AppData\Local\Temp\ccORgsmL.s 			page 279


 14605      7400
 14606              	.LASF396:
 14607 1a3a 715F6C69 		.ascii	"q_link\000"
 14607      6E6B00
 14608              	.LASF786:
 14609 1a41 44434647 		.ascii	"DCFG\000"
 14609      00
 14610              	.LASF33:
 14611 1a46 5F426967 		.ascii	"_Bigint\000"
 14611      696E7400 
 14612              	.LASF796:
 14613 1a4e 44564255 		.ascii	"DVBUSDIS\000"
 14613      53444953 
 14613      00
 14614              	.LASF762:
 14615 1a57 47494E54 		.ascii	"GINTMSK\000"
 14615      4D534B00 
 14616              	.LASF767:
 14617 1a5f 484E5054 		.ascii	"HNPTXSTS\000"
 14617      58535453 
 14617      00
 14618              	.LASF281:
 14619 1a68 41504231 		.ascii	"APB1ENR\000"
 14619      454E5200 
 14620              	.LASF699:
 14621 1a70 636F6E66 		.ascii	"configuration\000"
 14621      69677572 
 14621      6174696F 
 14621      6E00
 14622              	.LASF90:
 14623 1a7e 5F617465 		.ascii	"_atexit0\000"
 14623      78697430 
 14623      00
 14624              	.LASF437:
 14625 1a87 73746D33 		.ascii	"stm32_gpio_setup_t\000"
 14625      325F6770 
 14625      696F5F73 
 14625      65747570 
 14625      5F7400
 14626              	.LASF869:
 14627 1a9a 56656374 		.ascii	"Vector104\000"
 14627      6F723130 
 14627      3400
 14628              	.LASF406:
 14629 1aa4 5F73746D 		.ascii	"_stm32_dma_streams\000"
 14629      33325F64 
 14629      6D615F73 
 14629      74726561 
 14629      6D7300
 14630              	.LASF251:
 14631 1ab7 44485231 		.ascii	"DHR12L1\000"
 14631      324C3100 
 14632              	.LASF254:
 14633 1abf 44485231 		.ascii	"DHR12L2\000"
 14633      324C3200 
 14634              	.LASF114:
 14635 1ac7 5F676574 		.ascii	"_getdate_err\000"
ARM GAS  C:\Users\PCHAUT~1\AppData\Local\Temp\ccORgsmL.s 			page 280


 14635      64617465 
 14635      5F657272 
 14635      00
 14636              	.LASF654:
 14637 1ad4 73646362 		.ascii	"sdcbusmode_t\000"
 14637      75736D6F 
 14637      64655F74 
 14637      00
 14638              	.LASF257:
 14639 1ae1 44485231 		.ascii	"DHR12LD\000"
 14639      324C4400 
 14640              	.LASF205:
 14641 1ae9 6B65726E 		.ascii	"kernel_stats\000"
 14641      656C5F73 
 14641      74617473 
 14641      00
 14642              	.LASF472:
 14643 1af6 61646363 		.ascii	"adccallback_t\000"
 14643      616C6C62 
 14643      61636B5F 
 14643      7400
 14644              	.LASF156:
 14645 1b04 705F7374 		.ascii	"p_stklimit\000"
 14645      6B6C696D 
 14645      697400
 14646              	.LASF144:
 14647 1b0f 636E745F 		.ascii	"cnt_t\000"
 14647      7400
 14648              	.LASF538:
 14649 1b15 65787473 		.ascii	"extstate_t\000"
 14649      74617465 
 14649      5F7400
 14650              	.LASF714:
 14651 1b20 5553425F 		.ascii	"USB_EP0_WAITING_TX0\000"
 14651      4550305F 
 14651      57414954 
 14651      494E475F 
 14651      54583000 
 14652              	.LASF693:
 14653 1b34 6570306E 		.ascii	"ep0next\000"
 14653      65787400 
 14654              	.LASF743:
 14655 1b3c 73746D33 		.ascii	"stm32_otg_host_chn_t\000"
 14655      325F6F74 
 14655      675F686F 
 14655      73745F63 
 14655      686E5F74 
 14656              	.LASF883:
 14657 1b51 6F73616C 		.ascii	"osalSysLock\000"
 14657      5379734C 
 14657      6F636B00 
 14658              	.LASF429:
 14659 1b5d 41465248 		.ascii	"AFRH\000"
 14659      00
 14660              	.LASF428:
 14661 1b62 4146524C 		.ascii	"AFRL\000"
 14661      00
ARM GAS  C:\Users\PCHAUT~1\AppData\Local\Temp\ccORgsmL.s 			page 281


 14662              	.LASF126:
 14663 1b67 5F696D70 		.ascii	"_impure_ptr\000"
 14663      7572655F 
 14663      70747200 
 14664              	.LASF372:
 14665 1b73 63665F6F 		.ascii	"cf_off_preempt\000"
 14665      66665F70 
 14665      7265656D 
 14665      707400
 14666              	.LASF509:
 14667 1b82 4441435F 		.ascii	"DAC_COMPLETE\000"
 14667      434F4D50 
 14667      4C455445 
 14667      00
 14668              	.LASF66:
 14669 1b8f 5F626C6B 		.ascii	"_blksize\000"
 14669      73697A65 
 14669      00
 14670              	.LASF738:
 14671 1b98 4843494E 		.ascii	"HCINTMSK\000"
 14671      544D534B 
 14671      00
 14672              	.LASF64:
 14673 1ba1 5F756275 		.ascii	"_ubuf\000"
 14673      6600
 14674              	.LASF464:
 14675 1ba7 636F6E66 		.ascii	"config\000"
 14675      696700
 14676              	.LASF572:
 14677 1bae 47505444 		.ascii	"GPTD11\000"
 14677      313100
 14678              	.LASF109:
 14679 1bb5 5F6D626C 		.ascii	"_mblen_state\000"
 14679      656E5F73 
 14679      74617465 
 14679      00
 14680              	.LASF92:
 14681 1bc2 5F5F7367 		.ascii	"__sglue\000"
 14681      6C756500 
 14682              	.LASF125:
 14683 1bca 5F5F6C6F 		.ascii	"__locale_t\000"
 14683      63616C65 
 14683      5F7400
 14684              	.LASF410:
 14685 1bd5 424C4B5F 		.ascii	"BLK_CONNECTING\000"
 14685      434F4E4E 
 14685      45435449 
 14685      4E4700
 14686              	.LASF82:
 14687 1be4 5F5F636C 		.ascii	"__cleanup\000"
 14687      65616E75 
 14687      7000
 14688              	.LASF271:
 14689 1bee 504C4C43 		.ascii	"PLLCFGR\000"
 14689      46475200 
 14690              	.LASF505:
 14691 1bf6 4441435F 		.ascii	"DAC_UNINIT\000"
ARM GAS  C:\Users\PCHAUT~1\AppData\Local\Temp\ccORgsmL.s 			page 282


 14691      554E494E 
 14691      495400
 14692              	.LASF458:
 14693 1c01 6164635F 		.ascii	"adc_channels_num_t\000"
 14693      6368616E 
 14693      6E656C73 
 14693      5F6E756D 
 14693      5F7400
 14694              	.LASF183:
 14695 1c14 76746675 		.ascii	"vtfunc_t\000"
 14695      6E635F74 
 14695      00
 14696              	.LASF231:
 14697 1c1d 43414E5F 		.ascii	"CAN_FIFOMailBox_TypeDef\000"
 14697      4649464F 
 14697      4D61696C 
 14697      426F785F 
 14697      54797065 
 14698              	.LASF261:
 14699 1c35 4441435F 		.ascii	"DAC_TypeDef\000"
 14699      54797065 
 14699      44656600 
 14700              	.LASF343:
 14701 1c41 77746F62 		.ascii	"wtobjp\000"
 14701      6A7000
 14702              	.LASF19:
 14703 1c48 5F66706F 		.ascii	"_fpos_t\000"
 14703      735F7400 
 14704              	.LASF525:
 14705 1c50 4441435F 		.ascii	"DAC_DHRM_12BIT_RIGHT\000"
 14705      4448524D 
 14705      5F313242 
 14705      49545F52 
 14705      49474854 
 14706              	.LASF57:
 14707 1c65 5F66696C 		.ascii	"_file\000"
 14707      6500
 14708              	.LASF167:
 14709 1c6b 705F7265 		.ascii	"p_realprio\000"
 14709      616C7072 
 14709      696F00
 14710              	.LASF661:
 14711 1c76 63617061 		.ascii	"capacity\000"
 14711      63697479 
 14711      00
 14712              	.LASF395:
 14713 1c7f 715F6E6F 		.ascii	"q_notify\000"
 14713      74696679 
 14713      00
 14714              	.LASF346:
 14715 1c88 77746D74 		.ascii	"wtmtxp\000"
 14715      787000
 14716              	.LASF55:
 14717 1c8f 5F5F7346 		.ascii	"__sFILE\000"
 14717      494C4500 
 14718              	.LASF51:
 14719 1c97 5F666E73 		.ascii	"_fns\000"
ARM GAS  C:\Users\PCHAUT~1\AppData\Local\Temp\ccORgsmL.s 			page 283


 14719      00
 14720              	.LASF825:
 14721 1c9c 5553424F 		.ascii	"USBOutEndpointState\000"
 14721      7574456E 
 14721      64706F69 
 14721      6E745374 
 14721      61746500 
 14722              	.LASF782:
 14723 1cb0 72657376 		.ascii	"resvd41C\000"
 14723      64343143 
 14723      00
 14724              	.LASF851:
 14725 1cb9 7364635F 		.ascii	"sdc_lld_write_aligned\000"
 14725      6C6C645F 
 14725      77726974 
 14725      655F616C 
 14725      69676E65 
 14726              	.LASF25:
 14727 1ccf 5F6D6273 		.ascii	"_mbstate_t\000"
 14727      74617465 
 14727      5F7400
 14728              	.LASF120:
 14729 1cda 5F685F65 		.ascii	"_h_errno\000"
 14729      72726E6F 
 14729      00
 14730              	.LASF228:
 14731 1ce3 52445452 		.ascii	"RDTR\000"
 14731      00
 14732              	.LASF418:
 14733 1ce8 626C6B5F 		.ascii	"blk_num\000"
 14733      6E756D00 
 14734              	.LASF288:
 14735 1cf0 42444352 		.ascii	"BDCR\000"
 14735      00
 14736              	.LASF720:
 14737 1cf5 5553425F 		.ascii	"USB_EVENT_RESET\000"
 14737      4556454E 
 14737      545F5245 
 14737      53455400 
 14738              	.LASF176:
 14739 1d05 63685F72 		.ascii	"ch_ready_list\000"
 14739      65616479 
 14739      5F6C6973 
 14739      7400
 14740              	.LASF425:
 14741 1d13 50555044 		.ascii	"PUPDR\000"
 14741      5200
 14742              	.LASF11:
 14743 1d19 5F5F696E 		.ascii	"__int32_t\000"
 14743      7433325F 
 14743      7400
 14744              	.LASF13:
 14745 1d23 5F5F7569 		.ascii	"__uint32_t\000"
 14745      6E743332 
 14745      5F7400
 14746              	.LASF195:
 14747 1d2e 63685F73 		.ascii	"ch_system_debug\000"
ARM GAS  C:\Users\PCHAUT~1\AppData\Local\Temp\ccORgsmL.s 			page 284


 14747      79737465 
 14747      6D5F6465 
 14747      62756700 
 14748              	.LASF793:
 14749 1d3e 4441494E 		.ascii	"DAINTMSK\000"
 14749      544D534B 
 14749      00
 14750              	.LASF545:
 14751 1d47 45585443 		.ascii	"EXTConfig\000"
 14751      6F6E6669 
 14751      6700
 14752              	.LASF24:
 14753 1d51 5F5F7661 		.ascii	"__value\000"
 14753      6C756500 
 14754              	.LASF712:
 14755 1d59 5553425F 		.ascii	"USB_EP0_WAITING_SETUP\000"
 14755      4550305F 
 14755      57414954 
 14755      494E475F 
 14755      53455455 
 14756              	.LASF48:
 14757 1d6f 5F69735F 		.ascii	"_is_cxa\000"
 14757      63786100 
 14758              	.LASF413:
 14759 1d77 424C4B5F 		.ascii	"BLK_READING\000"
 14759      52454144 
 14759      494E4700 
 14760              	.LASF435:
 14761 1d83 6166726C 		.ascii	"afrl\000"
 14761      00
 14762              	.LASF861:
 14763 1d88 7364635F 		.ascii	"sdc_lld_send_cmd_none\000"
 14763      6C6C645F 
 14763      73656E64 
 14763      5F636D64 
 14763      5F6E6F6E 
 14764              	.LASF815:
 14765 1d9e 71756575 		.ascii	"queue\000"
 14765      6500
 14766              	.LASF695:
 14767 1da4 65703065 		.ascii	"ep0endcb\000"
 14767      6E646362 
 14767      00
 14768              	.LASF403:
 14769 1dad 73656C66 		.ascii	"selfindex\000"
 14769      696E6465 
 14769      7800
 14770              	.LASF376:
 14771 1db7 6D757465 		.ascii	"mutex_t\000"
 14771      785F7400 
 14772              	.LASF85:
 14773 1dbf 5F703573 		.ascii	"_p5s\000"
 14773      00
 14774              	.LASF165:
 14775 1dc4 705F6570 		.ascii	"p_epending\000"
 14775      656E6469 
 14775      6E6700
ARM GAS  C:\Users\PCHAUT~1\AppData\Local\Temp\ccORgsmL.s 			page 285


 14776              	.LASF422:
 14777 1dcf 4D4F4445 		.ascii	"MODER\000"
 14777      5200
 14778              	.LASF606:
 14779 1dd5 4932535F 		.ascii	"I2S_COMPLETE\000"
 14779      434F4D50 
 14779      4C455445 
 14779      00
 14780              	.LASF235:
 14781 1de2 52455345 		.ascii	"RESERVED0\000"
 14781      52564544 
 14781      3000
 14782              	.LASF238:
 14783 1dec 52455345 		.ascii	"RESERVED1\000"
 14783      52564544 
 14783      3100
 14784              	.LASF240:
 14785 1df6 52455345 		.ascii	"RESERVED2\000"
 14785      52564544 
 14785      3200
 14786              	.LASF242:
 14787 1e00 52455345 		.ascii	"RESERVED3\000"
 14787      52564544 
 14787      3300
 14788              	.LASF244:
 14789 1e0a 52455345 		.ascii	"RESERVED4\000"
 14789      52564544 
 14789      3400
 14790              	.LASF246:
 14791 1e14 52455345 		.ascii	"RESERVED5\000"
 14791      52564544 
 14791      3500
 14792              	.LASF289:
 14793 1e1e 52455345 		.ascii	"RESERVED6\000"
 14793      52564544 
 14793      3600
 14794              	.LASF836:
 14795 1e28 55534245 		.ascii	"USBEndpointConfig\000"
 14795      6E64706F 
 14795      696E7443 
 14795      6F6E6669 
 14795      6700
 14796              	.LASF250:
 14797 1e3a 44485231 		.ascii	"DHR12R1\000"
 14797      32523100 
 14798              	.LASF253:
 14799 1e42 44485231 		.ascii	"DHR12R2\000"
 14799      32523200 
 14800              	.LASF541:
 14801 1e4a 65787463 		.ascii	"extcallback_t\000"
 14801      616C6C62 
 14801      61636B5F 
 14801      7400
 14802              	.LASF497:
 14803 1e58 72787175 		.ascii	"rxqueue\000"
 14803      65756500 
 14804              	.LASF320:
ARM GAS  C:\Users\PCHAUT~1\AppData\Local\Temp\ccORgsmL.s 			page 286


 14805 1e60 73655F74 		.ascii	"se_time\000"
 14805      696D6500 
 14806              	.LASF784:
 14807 1e68 72657376 		.ascii	"resvd444\000"
 14807      64343434 
 14807      00
 14808              	.LASF449:
 14809 1e71 70616C5F 		.ascii	"pal_default_config\000"
 14809      64656661 
 14809      756C745F 
 14809      636F6E66 
 14809      696700
 14810              	.LASF467:
 14811 1e84 67727070 		.ascii	"grpp\000"
 14811      00
 14812              	.LASF256:
 14813 1e89 44485231 		.ascii	"DHR12RD\000"
 14813      32524400 
 14814              	.LASF857:
 14815 1e91 62797465 		.ascii	"bytes\000"
 14815      7300
 14816              	.LASF380:
 14817 1e97 656C5F6C 		.ascii	"el_listener\000"
 14817      69737465 
 14817      6E657200 
 14818              	.LASF814:
 14819 1ea3 6C696E65 		.ascii	"linear\000"
 14819      617200
 14820              	.LASF565:
 14821 1eaa 73746D33 		.ascii	"stm32_tim_t\000"
 14821      325F7469 
 14821      6D5F7400 
 14822              	.LASF178:
 14823 1eb6 725F7072 		.ascii	"r_prio\000"
 14823      696F00
 14824              	.LASF701:
 14825 1ebd 706D6E65 		.ascii	"pmnext\000"
 14825      787400
 14826              	.LASF207:
 14827 1ec4 49544D5F 		.ascii	"ITM_RxBuffer\000"
 14827      52784275 
 14827      66666572 
 14827      00
 14828              	.LASF419:
 14829 1ed1 426C6F63 		.ascii	"BlockDeviceInfo\000"
 14829      6B446576 
 14829      69636549 
 14829      6E666F00 
 14830              	.LASF16:
 14831 1ee1 6C6F6E67 		.ascii	"long long unsigned int\000"
 14831      206C6F6E 
 14831      6720756E 
 14831      7369676E 
 14831      65642069 
 14832              	.LASF307:
 14833 1ef8 5344494F 		.ascii	"SDIO_TypeDef\000"
 14833      5F547970 
ARM GAS  C:\Users\PCHAUT~1\AppData\Local\Temp\ccORgsmL.s 			page 287


 14833      65446566 
 14833      00
 14834              	.LASF329:
 14835 1f05 6F666673 		.ascii	"offset\000"
 14835      657400
 14836              	.LASF283:
 14837 1f0c 41484231 		.ascii	"AHB1LPENR\000"
 14837      4C50454E 
 14837      5200
 14838              	.LASF686:
 14839 1f16 53504944 		.ascii	"SPID1\000"
 14839      3100
 14840              	.LASF886:
 14841 1f1c 63685379 		.ascii	"chSysUnlock\000"
 14841      73556E6C 
 14841      6F636B00 
 14842              	.LASF262:
 14843 1f28 4E445452 		.ascii	"NDTR\000"
 14843      00
 14844              	.LASF385:
 14845 1f2d 65735F6E 		.ascii	"es_next\000"
 14845      65787400 
 14846              	.LASF106:
 14847 1f35 5F67616D 		.ascii	"_gamma_signgam\000"
 14847      6D615F73 
 14847      69676E67 
 14847      616D00
 14848              	.LASF750:
 14849 1f44 72657376 		.ascii	"resvd1C\000"
 14849      64314300 
 14850              	.LASF206:
 14851 1f4c 69646C65 		.ascii	"idle_thread_wa\000"
 14851      5F746872 
 14851      6561645F 
 14851      776100
 14852              	.LASF746:
 14853 1f5b 44494550 		.ascii	"DIEPINT\000"
 14853      494E5400 
 14854              	.LASF313:
 14855 1f63 5350495F 		.ascii	"SPI_TypeDef\000"
 14855      54797065 
 14855      44656600 
 14856              	.LASF189:
 14857 1f6f 76745F66 		.ascii	"vt_func\000"
 14857      756E6300 
 14858              	.LASF556:
 14859 1f77 534D4352 		.ascii	"SMCR\000"
 14859      00
 14860              	.LASF791:
 14861 1f7c 444F4550 		.ascii	"DOEPMSK\000"
 14861      4D534B00 
 14862              	.LASF185:
 14863 1f84 63685F76 		.ascii	"ch_virtual_timer\000"
 14863      69727475 
 14863      616C5F74 
 14863      696D6572 
 14863      00
ARM GAS  C:\Users\PCHAUT~1\AppData\Local\Temp\ccORgsmL.s 			page 288


 14864              	.LASF158:
 14865 1f95 705F666C 		.ascii	"p_flags\000"
 14865      61677300 
 14866              	.LASF855:
 14867 1f9d 6572726F 		.ascii	"error\000"
 14867      7200
 14868              	.LASF347:
 14869 1fa3 65776D61 		.ascii	"ewmask\000"
 14869      736B00
 14870              	.LASF382:
 14871 1faa 656C5F66 		.ascii	"el_flags\000"
 14871      6C616773 
 14871      00
 14872              	.LASF384:
 14873 1fb3 6576656E 		.ascii	"event_source\000"
 14873      745F736F 
 14873      75726365 
 14873      00
 14874              	.LASF166:
 14875 1fc0 705F6D74 		.ascii	"p_mtxlist\000"
 14875      786C6973 
 14875      7400
 14876              	.LASF504:
 14877 1fca 43414E44 		.ascii	"CAND1\000"
 14877      3100
 14878              	.LASF241:
 14879 1fd0 46533152 		.ascii	"FS1R\000"
 14879      00
 14880              	.LASF137:
 14881 1fd5 74737461 		.ascii	"tstate_t\000"
 14881      74655F74 
 14881      00
 14882              	.LASF127:
 14883 1fde 5F676C6F 		.ascii	"_global_impure_ptr\000"
 14883      62616C5F 
 14883      696D7075 
 14883      72655F70 
 14883      747200
 14884              	.LASF792:
 14885 1ff1 4441494E 		.ascii	"DAINT\000"
 14885      5400
 14886              	.LASF685:
 14887 1ff7 53504943 		.ascii	"SPIConfig\000"
 14887      6F6E6669 
 14887      6700
 14888              	.LASF79:
 14889 2001 5F756E73 		.ascii	"_unspecified_locale_info\000"
 14889      70656369 
 14889      66696564 
 14889      5F6C6F63 
 14889      616C655F 
 14890              	.LASF434:
 14891 201a 70757064 		.ascii	"pupdr\000"
 14891      7200
 14892              	.LASF524:
 14893 2020 64616365 		.ascii	"dacerrorcallback_t\000"
 14893      72726F72 
ARM GAS  C:\Users\PCHAUT~1\AppData\Local\Temp\ccORgsmL.s 			page 289


 14893      63616C6C 
 14893      6261636B 
 14893      5F7400
 14894              	.LASF688:
 14895 2033 7472616E 		.ascii	"transmitting\000"
 14895      736D6974 
 14895      74696E67 
 14895      00
 14896              	.LASF544:
 14897 2040 6368616E 		.ascii	"channels\000"
 14897      6E656C73 
 14897      00
 14898              	.LASF294:
 14899 2049 434C4B43 		.ascii	"CLKCR\000"
 14899      5200
 14900              	.LASF660:
 14901 204f 53444344 		.ascii	"SDCDriver\000"
 14901      72697665 
 14901      7200
 14902              	.LASF155:
 14903 2059 705F6E61 		.ascii	"p_name\000"
 14903      6D6500
 14904              	.LASF81:
 14905 2060 5F5F7364 		.ascii	"__sdidinit\000"
 14905      6964696E 
 14905      697400
 14906              	.LASF639:
 14907 206b 53657269 		.ascii	"SerialDriver\000"
 14907      616C4472 
 14907      69766572 
 14907      00
 14908              	.LASF219:
 14909 2078 4A445231 		.ascii	"JDR1\000"
 14909      00
 14910              	.LASF220:
 14911 207d 4A445232 		.ascii	"JDR2\000"
 14911      00
 14912              	.LASF221:
 14913 2082 4A445233 		.ascii	"JDR3\000"
 14913      00
 14914              	.LASF222:
 14915 2087 4A445234 		.ascii	"JDR4\000"
 14915      00
 14916              	.LASF754:
 14917 208c 444F4550 		.ascii	"DOEPTSIZ\000"
 14917      5453495A 
 14917      00
 14918              	.LASF287:
 14919 2095 41504232 		.ascii	"APB2LPENR\000"
 14919      4C50454E 
 14919      5200
 14920              	.LASF452:
 14921 209f 4144435F 		.ascii	"ADC_READY\000"
 14921      52454144 
 14921      5900
 14922              	.LASF364:
 14923 20a9 63665F6F 		.ascii	"cf_off_ctx\000"
ARM GAS  C:\Users\PCHAUT~1\AppData\Local\Temp\ccORgsmL.s 			page 290


 14923      66665F63 
 14923      747800
 14924              	.LASF26:
 14925 20b4 5F666C6F 		.ascii	"_flock_t\000"
 14925      636B5F74 
 14925      00
 14926              	.LASF191:
 14927 20bd 76697274 		.ascii	"virtual_timers_list_t\000"
 14927      75616C5F 
 14927      74696D65 
 14927      72735F6C 
 14927      6973745F 
 14928              	.LASF778:
 14929 20d3 72657376 		.ascii	"resvd40C\000"
 14929      64343043 
 14929      00
 14930              	.LASF474:
 14931 20dc 63697263 		.ascii	"circular\000"
 14931      756C6172 
 14931      00
 14932              	.LASF607:
 14933 20e5 69327373 		.ascii	"i2sstate_t\000"
 14933      74617465 
 14933      5F7400
 14934              	.LASF431:
 14935 20f0 6D6F6465 		.ascii	"moder\000"
 14935      7200
 14936              	.LASF681:
 14937 20f6 53504944 		.ascii	"SPIDriver\000"
 14937      72697665 
 14937      7200
 14938              	.LASF349:
 14939 2100 735F7175 		.ascii	"s_queue\000"
 14939      65756500 
 14940              	.LASF338:
 14941 2108 6D5F6372 		.ascii	"m_crit_thd\000"
 14941      69745F74 
 14941      686400
 14942              	.LASF506:
 14943 2113 4441435F 		.ascii	"DAC_STOP\000"
 14943      53544F50 
 14943      00
 14944              	.LASF785:
 14945 211c 72657376 		.ascii	"resvd700\000"
 14945      64373030 
 14945      00
 14946              	.LASF311:
 14947 2125 49325343 		.ascii	"I2SCFGR\000"
 14947      46475200 
 14948              	.LASF866:
 14949 212d 7364635F 		.ascii	"sdc_lld_stop\000"
 14949      6C6C645F 
 14949      73746F70 
 14949      00
 14950              	.LASF356:
 14951 213a 63685F69 		.ascii	"ch_identifier\000"
 14951      64656E74 
ARM GAS  C:\Users\PCHAUT~1\AppData\Local\Temp\ccORgsmL.s 			page 291


 14951      69666965 
 14951      7200
 14952              	.LASF649:
 14953 2148 77726974 		.ascii	"writet\000"
 14953      657400
 14954              	.LASF1:
 14955 214f 6C6F6E67 		.ascii	"long long int\000"
 14955      206C6F6E 
 14955      6720696E 
 14955      7400
 14956              	.LASF772:
 14957 215d 48505458 		.ascii	"HPTXFSIZ\000"
 14957      4653495A 
 14957      00
 14958              	.LASF363:
 14959 2166 63665F6F 		.ascii	"cf_off_prio\000"
 14959      66665F70 
 14959      72696F00 
 14960              	.LASF71:
 14961 2172 5F666C61 		.ascii	"_flags2\000"
 14961      67733200 
 14962              	.LASF885:
 14963 217a 63685379 		.ascii	"chSysLockFromISR\000"
 14963      734C6F63 
 14963      6B46726F 
 14963      6D495352 
 14963      00
 14964              	.LASF335:
 14965 218b 74696D65 		.ascii	"time_measurement_t\000"
 14965      5F6D6561 
 14965      73757265 
 14965      6D656E74 
 14965      5F7400
 14966              	.LASF673:
 14967 219e 6765745F 		.ascii	"get_info\000"
 14967      696E666F 
 14967      00
 14968              	.LASF461:
 14969 21a7 61646365 		.ascii	"adcerror_t\000"
 14969      72726F72 
 14969      5F7400
 14970              	.LASF838:
 14971 21b2 6765745F 		.ascii	"get_descriptor_cb\000"
 14971      64657363 
 14971      72697074 
 14971      6F725F63 
 14971      6200
 14972              	.LASF80:
 14973 21c4 5F6C6F63 		.ascii	"_locale\000"
 14973      616C6500 
 14974              	.LASF143:
 14975 21cc 6576656E 		.ascii	"eventflags_t\000"
 14975      74666C61 
 14975      67735F74 
 14975      00
 14976              	.LASF677:
 14977 21d9 5350495F 		.ascii	"SPI_READY\000"
ARM GAS  C:\Users\PCHAUT~1\AppData\Local\Temp\ccORgsmL.s 			page 292


 14977      52454144 
 14977      5900
 14978              	.LASF863:
 14979 21e3 7364635F 		.ascii	"sdc_lld_stop_clk\000"
 14979      6C6C645F 
 14979      73746F70 
 14979      5F636C6B 
 14979      00
 14980              	.LASF237:
 14981 21f4 73464946 		.ascii	"sFIFOMailBox\000"
 14981      4F4D6169 
 14981      6C426F78 
 14981      00
 14982              	.LASF665:
 14983 2201 6275735F 		.ascii	"bus_width\000"
 14983      77696474 
 14983      6800
 14984              	.LASF258:
 14985 220b 44485238 		.ascii	"DHR8RD\000"
 14985      524400
 14986              	.LASF874:
 14987 2212 7364635F 		.ascii	"sdc_lld_prepare_read\000"
 14987      6C6C645F 
 14987      70726570 
 14987      6172655F 
 14987      72656164 
 14988              	.LASF787:
 14989 2227 4443544C 		.ascii	"DCTL\000"
 14989      00
 14990              	.LASF667:
 14991 222c 53444344 		.ascii	"SDCDriverVMT\000"
 14991      72697665 
 14991      72564D54 
 14991      00
 14992              	.LASF867:
 14993 2239 7364635F 		.ascii	"sdc_lld_start\000"
 14993      6C6C645F 
 14993      73746172 
 14993      7400
 14994              	.LASF813:
 14995 2247 74786275 		.ascii	"txbuf\000"
 14995      6600
 14996              	.LASF806:
 14997 224d 50434743 		.ascii	"PCGCCTL\000"
 14997      43544C00 
 14998              	.LASF724:
 14999 2255 5553425F 		.ascii	"USB_EVENT_WAKEUP\000"
 14999      4556454E 
 14999      545F5741 
 14999      4B455550 
 14999      00
 15000              	.LASF895:
 15001 2266 5F5F7365 		.ascii	"__set_BASEPRI\000"
 15001      745F4241 
 15001      53455052 
 15001      4900
 15002              	.LASF870:
ARM GAS  C:\Users\PCHAUT~1\AppData\Local\Temp\ccORgsmL.s 			page 293


 15003 2274 7364635F 		.ascii	"sdc_lld_error_cleanup\000"
 15003      6C6C645F 
 15003      6572726F 
 15003      725F636C 
 15003      65616E75 
 15004              	.LASF154:
 15005 228a 705F6F6C 		.ascii	"p_older\000"
 15005      64657200 
 15006              	.LASF415:
 15007 2292 424C4B5F 		.ascii	"BLK_SYNCING\000"
 15007      53594E43 
 15007      494E4700 
 15008              	.LASF446:
 15009 229e 50494461 		.ascii	"PIData\000"
 15009      746100
 15010              	.LASF835:
 15011 22a5 73657475 		.ascii	"setup_buf\000"
 15011      705F6275 
 15011      6600
 15012              	.LASF769:
 15013 22af 72657376 		.ascii	"resvd34\000"
 15013      64333400 
 15014              	.LASF571:
 15015 22b7 47505444 		.ascii	"GPTD6\000"
 15015      3600
 15016              	.LASF477:
 15017 22bd 6572726F 		.ascii	"error_cb\000"
 15017      725F6362 
 15017      00
 15018              	.LASF411:
 15019 22c6 424C4B5F 		.ascii	"BLK_DISCONNECTING\000"
 15019      44495343 
 15019      4F4E4E45 
 15019      4354494E 
 15019      4700
 15020              	.LASF683:
 15021 22d8 7373706F 		.ascii	"ssport\000"
 15021      727400
 15022              	.LASF170:
 15023 22df 74687265 		.ascii	"thread_reference_t\000"
 15023      61645F72 
 15023      65666572 
 15023      656E6365 
 15023      5F7400
 15024              	.LASF540:
 15025 22f2 65787063 		.ascii	"expchannel_t\000"
 15025      68616E6E 
 15025      656C5F74 
 15025      00
 15026              	.LASF689:
 15027 22ff 72656365 		.ascii	"receiving\000"
 15027      6976696E 
 15027      6700
 15028              	.LASF94:
 15029 2309 5F5F4649 		.ascii	"__FILE\000"
 15029      4C4500
 15030              	.LASF567:
ARM GAS  C:\Users\PCHAUT~1\AppData\Local\Temp\ccORgsmL.s 			page 294


 15031 2310 66726571 		.ascii	"frequency\000"
 15031      75656E63 
 15031      7900
 15032              	.LASF31:
 15033 231a 5F736967 		.ascii	"_sign\000"
 15033      6E00
 15034              	.LASF832:
 15035 2320 696E5F73 		.ascii	"in_state\000"
 15035      74617465 
 15035      00
 15036              	.LASF36:
 15037 2329 5F5F746D 		.ascii	"__tm_min\000"
 15037      5F6D696E 
 15037      00
 15038              	.LASF848:
 15039 2332 73746172 		.ascii	"startblk\000"
 15039      74626C6B 
 15039      00
 15040              	.LASF357:
 15041 233b 63685F7A 		.ascii	"ch_zero\000"
 15041      65726F00 
 15042              	.LASF587:
 15043 2343 46415354 		.ascii	"FAST_DUTY_CYCLE_2\000"
 15043      5F445554 
 15043      595F4359 
 15043      434C455F 
 15043      3200
 15044              	.LASF302:
 15045 2355 44435452 		.ascii	"DCTRL\000"
 15045      4C00
 15046              	.LASF362:
 15047 235b 63685F74 		.ascii	"ch_threadsize\000"
 15047      68726561 
 15047      6473697A 
 15047      6500
 15048              	.LASF269:
 15049 2369 464C5452 		.ascii	"FLTR\000"
 15049      00
 15050              	.LASF558:
 15051 236e 43434D52 		.ascii	"CCMR1\000"
 15051      3100
 15052              	.LASF559:
 15053 2374 43434D52 		.ascii	"CCMR2\000"
 15053      3200
 15054              	.LASF563:
 15055 237a 43434D52 		.ascii	"CCMR3\000"
 15055      3300
 15056              	.LASF0:
 15057 2380 756E7369 		.ascii	"unsigned int\000"
 15057      676E6564 
 15057      20696E74 
 15057      00
 15058              	.LASF481:
 15059 238d 73717232 		.ascii	"sqr2\000"
 15059      00
 15060              	.LASF482:
 15061 2392 73717233 		.ascii	"sqr3\000"
ARM GAS  C:\Users\PCHAUT~1\AppData\Local\Temp\ccORgsmL.s 			page 295


 15061      00
 15062              	.LASF108:
 15063 2397 5F723438 		.ascii	"_r48\000"
 15063      00
 15064              	.LASF776:
 15065 239c 48464952 		.ascii	"HFIR\000"
 15065      00
 15066              	.LASF706:
 15067 23a1 5553425F 		.ascii	"USB_UNINIT\000"
 15067      554E494E 
 15067      495400
 15068              	.LASF864:
 15069 23ac 7364635F 		.ascii	"sdc_lld_set_data_clk\000"
 15069      6C6C645F 
 15069      7365745F 
 15069      64617461 
 15069      5F636C6B 
 15070              	.LASF400:
 15071 23c1 73747265 		.ascii	"stream\000"
 15071      616D00
 15072              	.LASF484:
 15073 23c8 64756D6D 		.ascii	"dummy\000"
 15073      7900
 15074              	.LASF585:
 15075 23ce 6932636F 		.ascii	"i2copmode_t\000"
 15075      706D6F64 
 15075      655F7400 
 15076              	.LASF378:
 15077 23da 6576656E 		.ascii	"event_listener\000"
 15077      745F6C69 
 15077      7374656E 
 15077      657200
 15078              	.LASF8:
 15079 23e9 73686F72 		.ascii	"short int\000"
 15079      7420696E 
 15079      7400
 15080              	.LASF730:
 15081 23f3 75736263 		.ascii	"usbcallback_t\000"
 15081      616C6C62 
 15081      61636B5F 
 15081      7400
 15082              	.LASF60:
 15083 2401 5F726561 		.ascii	"_read\000"
 15083      6400
 15084              	.LASF759:
 15085 2407 47555342 		.ascii	"GUSBCFG\000"
 15085      43464700 
 15086              	.LASF315:
 15087 240f 55534152 		.ascii	"USART_TypeDef\000"
 15087      545F5479 
 15087      70654465 
 15087      6600
 15088              	.LASF399:
 15089 241d 6F757470 		.ascii	"output_queue_t\000"
 15089      75745F71 
 15089      75657565 
 15089      5F7400
ARM GAS  C:\Users\PCHAUT~1\AppData\Local\Temp\ccORgsmL.s 			page 296


 15090              	.LASF98:
 15091 242c 5F72616E 		.ascii	"_rand48\000"
 15091      64343800 
 15092              	.LASF808:
 15093 2434 73746D33 		.ascii	"stm32_otg_t\000"
 15093      325F6F74 
 15093      675F7400 
 15094              	.LASF608:
 15095 2440 49325344 		.ascii	"I2SDriver\000"
 15095      72697665 
 15095      7200
 15096              	.LASF844:
 15097 244a 7364635F 		.ascii	"sdc_default_cfg\000"
 15097      64656661 
 15097      756C745F 
 15097      63666700 
 15098              	.LASF592:
 15099 245a 64757479 		.ascii	"duty_cycle\000"
 15099      5F637963 
 15099      6C6500
 15100              	.LASF615:
 15101 2465 49325343 		.ascii	"I2SConfig\000"
 15101      6F6E6669 
 15101      6700
 15102              	.LASF727:
 15103 246f 75645F73 		.ascii	"ud_size\000"
 15103      697A6500 
 15104              	.LASF279:
 15105 2477 41484232 		.ascii	"AHB2ENR\000"
 15105      454E5200 
 15106              	.LASF273:
 15107 247f 41484231 		.ascii	"AHB1RSTR\000"
 15107      52535452 
 15107      00
 15108              	.LASF830:
 15109 2488 696E5F6D 		.ascii	"in_maxsize\000"
 15109      61787369 
 15109      7A6500
 15110              	.LASF443:
 15111 2493 50464461 		.ascii	"PFData\000"
 15111      746100
 15112              	.LASF536:
 15113 249a 4558545F 		.ascii	"EXT_STOP\000"
 15113      53544F50 
 15113      00
 15114              	.LASF157:
 15115 24a3 705F7374 		.ascii	"p_state\000"
 15115      61746500 
 15116              	.LASF616:
 15117 24ab 49325344 		.ascii	"I2SD2\000"
 15117      3200
 15118              	.LASF668:
 15119 24b1 69735F69 		.ascii	"is_inserted\000"
 15119      6E736572 
 15119      74656400 
 15120              	.LASF172:
 15121 24bd 63685F74 		.ascii	"ch_threads_list\000"
ARM GAS  C:\Users\PCHAUT~1\AppData\Local\Temp\ccORgsmL.s 			page 297


 15121      68726561 
 15121      64735F6C 
 15121      69737400 
 15122              	.LASF303:
 15123 24cd 44434F55 		.ascii	"DCOUNT\000"
 15123      4E5400
 15124              	.LASF266:
 15125 24d4 4F415231 		.ascii	"OAR1\000"
 15125      00
 15126              	.LASF267:
 15127 24d9 4F415232 		.ascii	"OAR2\000"
 15127      00
 15128              	.LASF169:
 15129 24de 705F7374 		.ascii	"p_stats\000"
 15129      61747300 
 15130              	.LASF711:
 15131 24e6 75736273 		.ascii	"usbstate_t\000"
 15131      74617465 
 15131      5F7400
 15132              		.ident	"GCC: (GNU Tools for Arm Embedded Processors 7-2017-q4-major) 7.2.1 20170904 (release) [ARM
ARM GAS  C:\Users\PCHAUT~1\AppData\Local\Temp\ccORgsmL.s 			page 298


DEFINED SYMBOLS
                            *ABS*:00000000 sdc_lld.c
C:\Users\PCHAUT~1\AppData\Local\Temp\ccORgsmL.s:18     .text.port_lock:00000000 $t
C:\Users\PCHAUT~1\AppData\Local\Temp\ccORgsmL.s:25     .text.port_lock:00000000 port_lock
C:\Users\PCHAUT~1\AppData\Local\Temp\ccORgsmL.s:72     .text.port_lock:0000002c $d
C:\Users\PCHAUT~1\AppData\Local\Temp\ccORgsmL.s:77     .text.port_unlock:00000000 $t
C:\Users\PCHAUT~1\AppData\Local\Temp\ccORgsmL.s:84     .text.port_unlock:00000000 port_unlock
C:\Users\PCHAUT~1\AppData\Local\Temp\ccORgsmL.s:129    .text.port_unlock:0000002c $d
C:\Users\PCHAUT~1\AppData\Local\Temp\ccORgsmL.s:134    .text.port_lock_from_isr:00000000 $t
C:\Users\PCHAUT~1\AppData\Local\Temp\ccORgsmL.s:141    .text.port_lock_from_isr:00000000 port_lock_from_isr
C:\Users\PCHAUT~1\AppData\Local\Temp\ccORgsmL.s:174    .text.port_lock_from_isr:00000024 $d
C:\Users\PCHAUT~1\AppData\Local\Temp\ccORgsmL.s:179    .text.port_unlock_from_isr:00000000 $t
C:\Users\PCHAUT~1\AppData\Local\Temp\ccORgsmL.s:186    .text.port_unlock_from_isr:00000000 port_unlock_from_isr
C:\Users\PCHAUT~1\AppData\Local\Temp\ccORgsmL.s:219    .text.port_unlock_from_isr:00000024 $d
C:\Users\PCHAUT~1\AppData\Local\Temp\ccORgsmL.s:224    .text.chSysLock:00000000 $t
C:\Users\PCHAUT~1\AppData\Local\Temp\ccORgsmL.s:231    .text.chSysLock:00000000 chSysLock
C:\Users\PCHAUT~1\AppData\Local\Temp\ccORgsmL.s:269    .text.chSysLock:0000002c $d
C:\Users\PCHAUT~1\AppData\Local\Temp\ccORgsmL.s:274    .text.chSysUnlock:00000000 $t
C:\Users\PCHAUT~1\AppData\Local\Temp\ccORgsmL.s:281    .text.chSysUnlock:00000000 chSysUnlock
C:\Users\PCHAUT~1\AppData\Local\Temp\ccORgsmL.s:337    .text.chSysUnlock:0000004c $d
C:\Users\PCHAUT~1\AppData\Local\Temp\ccORgsmL.s:3250   .rodata.__func__.7554:00000000 __func__.7554
C:\Users\PCHAUT~1\AppData\Local\Temp\ccORgsmL.s:344    .text.chSysLockFromISR:00000000 $t
C:\Users\PCHAUT~1\AppData\Local\Temp\ccORgsmL.s:351    .text.chSysLockFromISR:00000000 chSysLockFromISR
C:\Users\PCHAUT~1\AppData\Local\Temp\ccORgsmL.s:388    .text.chSysLockFromISR:0000002c $d
C:\Users\PCHAUT~1\AppData\Local\Temp\ccORgsmL.s:393    .text.chSysUnlockFromISR:00000000 $t
C:\Users\PCHAUT~1\AppData\Local\Temp\ccORgsmL.s:400    .text.chSysUnlockFromISR:00000000 chSysUnlockFromISR
C:\Users\PCHAUT~1\AppData\Local\Temp\ccORgsmL.s:437    .text.chSysUnlockFromISR:0000002c $d
C:\Users\PCHAUT~1\AppData\Local\Temp\ccORgsmL.s:442    .text.osalSysLock:00000000 $t
C:\Users\PCHAUT~1\AppData\Local\Temp\ccORgsmL.s:449    .text.osalSysLock:00000000 osalSysLock
C:\Users\PCHAUT~1\AppData\Local\Temp\ccORgsmL.s:483    .text.osalSysLock:00000024 $d
C:\Users\PCHAUT~1\AppData\Local\Temp\ccORgsmL.s:488    .text.osalSysUnlock:00000000 $t
C:\Users\PCHAUT~1\AppData\Local\Temp\ccORgsmL.s:495    .text.osalSysUnlock:00000000 osalSysUnlock
C:\Users\PCHAUT~1\AppData\Local\Temp\ccORgsmL.s:528    .text.osalSysUnlock:00000024 $d
C:\Users\PCHAUT~1\AppData\Local\Temp\ccORgsmL.s:533    .text.osalSysLockFromISR:00000000 $t
C:\Users\PCHAUT~1\AppData\Local\Temp\ccORgsmL.s:540    .text.osalSysLockFromISR:00000000 osalSysLockFromISR
C:\Users\PCHAUT~1\AppData\Local\Temp\ccORgsmL.s:573    .text.osalSysLockFromISR:00000024 $d
C:\Users\PCHAUT~1\AppData\Local\Temp\ccORgsmL.s:578    .text.osalSysUnlockFromISR:00000000 $t
C:\Users\PCHAUT~1\AppData\Local\Temp\ccORgsmL.s:585    .text.osalSysUnlockFromISR:00000000 osalSysUnlockFromISR
C:\Users\PCHAUT~1\AppData\Local\Temp\ccORgsmL.s:618    .text.osalSysUnlockFromISR:00000024 $d
C:\Users\PCHAUT~1\AppData\Local\Temp\ccORgsmL.s:623    .text.osalThreadSleep:00000000 $t
C:\Users\PCHAUT~1\AppData\Local\Temp\ccORgsmL.s:630    .text.osalThreadSleep:00000000 osalThreadSleep
C:\Users\PCHAUT~1\AppData\Local\Temp\ccORgsmL.s:665    .text.osalThreadSleep:00000028 $d
C:\Users\PCHAUT~1\AppData\Local\Temp\ccORgsmL.s:670    .text.osalThreadSuspendS:00000000 $t
C:\Users\PCHAUT~1\AppData\Local\Temp\ccORgsmL.s:677    .text.osalThreadSuspendS:00000000 osalThreadSuspendS
C:\Users\PCHAUT~1\AppData\Local\Temp\ccORgsmL.s:713    .text.osalThreadSuspendS:0000002c $d
C:\Users\PCHAUT~1\AppData\Local\Temp\ccORgsmL.s:718    .text.osalThreadResumeI:00000000 $t
C:\Users\PCHAUT~1\AppData\Local\Temp\ccORgsmL.s:725    .text.osalThreadResumeI:00000000 osalThreadResumeI
C:\Users\PCHAUT~1\AppData\Local\Temp\ccORgsmL.s:762    .text.osalThreadResumeI:0000002c $d
C:\Users\PCHAUT~1\AppData\Local\Temp\ccORgsmL.s:771    .bss.SDCD1:00000000 SDCD1
C:\Users\PCHAUT~1\AppData\Local\Temp\ccORgsmL.s:768    .bss.SDCD1:00000000 $d
C:\Users\PCHAUT~1\AppData\Local\Temp\ccORgsmL.s:774    .bss.u:00000000 $d
C:\Users\PCHAUT~1\AppData\Local\Temp\ccORgsmL.s:777    .bss.u:00000000 u
C:\Users\PCHAUT~1\AppData\Local\Temp\ccORgsmL.s:780    .rodata.sdc_default_cfg:00000000 $d
C:\Users\PCHAUT~1\AppData\Local\Temp\ccORgsmL.s:783    .rodata.sdc_default_cfg:00000000 sdc_default_cfg
C:\Users\PCHAUT~1\AppData\Local\Temp\ccORgsmL.s:788    .text.sdc_lld_prepare_read_bytes:00000000 $t
C:\Users\PCHAUT~1\AppData\Local\Temp\ccORgsmL.s:795    .text.sdc_lld_prepare_read_bytes:00000000 sdc_lld_prepare_read_bytes
C:\Users\PCHAUT~1\AppData\Local\Temp\ccORgsmL.s:906    .text.sdc_lld_prepare_read_bytes:000000a8 $d
ARM GAS  C:\Users\PCHAUT~1\AppData\Local\Temp\ccORgsmL.s 			page 299


C:\Users\PCHAUT~1\AppData\Local\Temp\ccORgsmL.s:3244   .rodata.__func__.10250:00000000 __func__.10250
C:\Users\PCHAUT~1\AppData\Local\Temp\ccORgsmL.s:914    .text.sdc_lld_prepare_read:00000000 $t
C:\Users\PCHAUT~1\AppData\Local\Temp\ccORgsmL.s:921    .text.sdc_lld_prepare_read:00000000 sdc_lld_prepare_read
C:\Users\PCHAUT~1\AppData\Local\Temp\ccORgsmL.s:2309   .text.sdc_lld_send_cmd_short_crc:00000000 sdc_lld_send_cmd_short_crc
C:\Users\PCHAUT~1\AppData\Local\Temp\ccORgsmL.s:1016   .text.sdc_lld_prepare_read:00000088 $d
C:\Users\PCHAUT~1\AppData\Local\Temp\ccORgsmL.s:1022   .text.sdc_lld_prepare_write:00000000 $t
C:\Users\PCHAUT~1\AppData\Local\Temp\ccORgsmL.s:1029   .text.sdc_lld_prepare_write:00000000 sdc_lld_prepare_write
C:\Users\PCHAUT~1\AppData\Local\Temp\ccORgsmL.s:1124   .text.sdc_lld_prepare_write:00000088 $d
C:\Users\PCHAUT~1\AppData\Local\Temp\ccORgsmL.s:1130   .text.sdc_lld_wait_transaction_end:00000000 $t
C:\Users\PCHAUT~1\AppData\Local\Temp\ccORgsmL.s:1137   .text.sdc_lld_wait_transaction_end:00000000 sdc_lld_wait_transaction_end
C:\Users\PCHAUT~1\AppData\Local\Temp\ccORgsmL.s:1248   .text.sdc_lld_wait_transaction_end:000000a8 $d
C:\Users\PCHAUT~1\AppData\Local\Temp\ccORgsmL.s:1254   .text.sdc_lld_collect_errors:00000000 $t
C:\Users\PCHAUT~1\AppData\Local\Temp\ccORgsmL.s:1261   .text.sdc_lld_collect_errors:00000000 sdc_lld_collect_errors
C:\Users\PCHAUT~1\AppData\Local\Temp\ccORgsmL.s:1374   .text.sdc_lld_collect_errors:000000b4 $d
C:\Users\PCHAUT~1\AppData\Local\Temp\ccORgsmL.s:1379   .text.sdc_lld_error_cleanup:00000000 $t
C:\Users\PCHAUT~1\AppData\Local\Temp\ccORgsmL.s:1386   .text.sdc_lld_error_cleanup:00000000 sdc_lld_error_cleanup
C:\Users\PCHAUT~1\AppData\Local\Temp\ccORgsmL.s:1497   .text.sdc_lld_error_cleanup:000000b4 $d
C:\Users\PCHAUT~1\AppData\Local\Temp\ccORgsmL.s:1503   .text.Vector104:00000000 $t
C:\Users\PCHAUT~1\AppData\Local\Temp\ccORgsmL.s:1511   .text.Vector104:00000000 Vector104
C:\Users\PCHAUT~1\AppData\Local\Temp\ccORgsmL.s:1560   .text.Vector104:00000048 $d
C:\Users\PCHAUT~1\AppData\Local\Temp\ccORgsmL.s:1567   .text.sdc_lld_init:00000000 $t
C:\Users\PCHAUT~1\AppData\Local\Temp\ccORgsmL.s:1575   .text.sdc_lld_init:00000000 sdc_lld_init
C:\Users\PCHAUT~1\AppData\Local\Temp\ccORgsmL.s:1621   .text.sdc_lld_init:00000038 $d
C:\Users\PCHAUT~1\AppData\Local\Temp\ccORgsmL.s:1629   .text.sdc_lld_start:00000000 $t
C:\Users\PCHAUT~1\AppData\Local\Temp\ccORgsmL.s:1637   .text.sdc_lld_start:00000000 sdc_lld_start
C:\Users\PCHAUT~1\AppData\Local\Temp\ccORgsmL.s:1759   .text.sdc_lld_start:000000c0 $d
C:\Users\PCHAUT~1\AppData\Local\Temp\ccORgsmL.s:3256   .rodata.__func__.10295:00000000 __func__.10295
C:\Users\PCHAUT~1\AppData\Local\Temp\ccORgsmL.s:1768   .text.sdc_lld_stop:00000000 $t
C:\Users\PCHAUT~1\AppData\Local\Temp\ccORgsmL.s:1776   .text.sdc_lld_stop:00000000 sdc_lld_stop
C:\Users\PCHAUT~1\AppData\Local\Temp\ccORgsmL.s:1848   .text.sdc_lld_stop:00000068 $d
C:\Users\PCHAUT~1\AppData\Local\Temp\ccORgsmL.s:1854   .text.sdc_lld_start_clk:00000000 $t
C:\Users\PCHAUT~1\AppData\Local\Temp\ccORgsmL.s:1862   .text.sdc_lld_start_clk:00000000 sdc_lld_start_clk
C:\Users\PCHAUT~1\AppData\Local\Temp\ccORgsmL.s:1918   .text.sdc_lld_start_clk:00000050 $d
C:\Users\PCHAUT~1\AppData\Local\Temp\ccORgsmL.s:1923   .text.sdc_lld_set_data_clk:00000000 $t
C:\Users\PCHAUT~1\AppData\Local\Temp\ccORgsmL.s:1931   .text.sdc_lld_set_data_clk:00000000 sdc_lld_set_data_clk
C:\Users\PCHAUT~1\AppData\Local\Temp\ccORgsmL.s:1973   .text.sdc_lld_set_data_clk:00000038 $d
C:\Users\PCHAUT~1\AppData\Local\Temp\ccORgsmL.s:1978   .text.sdc_lld_stop_clk:00000000 $t
C:\Users\PCHAUT~1\AppData\Local\Temp\ccORgsmL.s:1986   .text.sdc_lld_stop_clk:00000000 sdc_lld_stop_clk
C:\Users\PCHAUT~1\AppData\Local\Temp\ccORgsmL.s:2028   .text.sdc_lld_stop_clk:00000034 $d
C:\Users\PCHAUT~1\AppData\Local\Temp\ccORgsmL.s:2033   .text.sdc_lld_set_bus_mode:00000000 $t
C:\Users\PCHAUT~1\AppData\Local\Temp\ccORgsmL.s:2041   .text.sdc_lld_set_bus_mode:00000000 sdc_lld_set_bus_mode
C:\Users\PCHAUT~1\AppData\Local\Temp\ccORgsmL.s:2119   .text.sdc_lld_set_bus_mode:0000006c $d
C:\Users\PCHAUT~1\AppData\Local\Temp\ccORgsmL.s:2124   .text.sdc_lld_send_cmd_none:00000000 $t
C:\Users\PCHAUT~1\AppData\Local\Temp\ccORgsmL.s:2132   .text.sdc_lld_send_cmd_none:00000000 sdc_lld_send_cmd_none
C:\Users\PCHAUT~1\AppData\Local\Temp\ccORgsmL.s:2193   .text.sdc_lld_send_cmd_none:00000058 $d
C:\Users\PCHAUT~1\AppData\Local\Temp\ccORgsmL.s:2198   .text.sdc_lld_send_cmd_short:00000000 $t
C:\Users\PCHAUT~1\AppData\Local\Temp\ccORgsmL.s:2206   .text.sdc_lld_send_cmd_short:00000000 sdc_lld_send_cmd_short
C:\Users\PCHAUT~1\AppData\Local\Temp\ccORgsmL.s:2296   .text.sdc_lld_send_cmd_short:0000008c $d
C:\Users\PCHAUT~1\AppData\Local\Temp\ccORgsmL.s:2301   .text.sdc_lld_send_cmd_short_crc:00000000 $t
C:\Users\PCHAUT~1\AppData\Local\Temp\ccORgsmL.s:2399   .text.sdc_lld_send_cmd_short_crc:0000008c $d
C:\Users\PCHAUT~1\AppData\Local\Temp\ccORgsmL.s:2404   .text.sdc_lld_send_cmd_long_crc:00000000 $t
C:\Users\PCHAUT~1\AppData\Local\Temp\ccORgsmL.s:2412   .text.sdc_lld_send_cmd_long_crc:00000000 sdc_lld_send_cmd_long_crc
C:\Users\PCHAUT~1\AppData\Local\Temp\ccORgsmL.s:2526   .text.sdc_lld_send_cmd_long_crc:000000b8 $d
C:\Users\PCHAUT~1\AppData\Local\Temp\ccORgsmL.s:2531   .text.sdc_lld_read_special:00000000 $t
C:\Users\PCHAUT~1\AppData\Local\Temp\ccORgsmL.s:2539   .text.sdc_lld_read_special:00000000 sdc_lld_read_special
C:\Users\PCHAUT~1\AppData\Local\Temp\ccORgsmL.s:2633   .text.sdc_lld_read_special:0000008c $d
C:\Users\PCHAUT~1\AppData\Local\Temp\ccORgsmL.s:2639   .text.sdc_lld_read_aligned:00000000 $t
ARM GAS  C:\Users\PCHAUT~1\AppData\Local\Temp\ccORgsmL.s 			page 300


C:\Users\PCHAUT~1\AppData\Local\Temp\ccORgsmL.s:2647   .text.sdc_lld_read_aligned:00000000 sdc_lld_read_aligned
C:\Users\PCHAUT~1\AppData\Local\Temp\ccORgsmL.s:2796   .text.sdc_lld_read_aligned:000000e8 $d
C:\Users\PCHAUT~1\AppData\Local\Temp\ccORgsmL.s:3262   .rodata.__func__.10372:00000000 __func__.10372
C:\Users\PCHAUT~1\AppData\Local\Temp\ccORgsmL.s:2804   .text.sdc_lld_write_aligned:00000000 $t
C:\Users\PCHAUT~1\AppData\Local\Temp\ccORgsmL.s:2812   .text.sdc_lld_write_aligned:00000000 sdc_lld_write_aligned
C:\Users\PCHAUT~1\AppData\Local\Temp\ccORgsmL.s:2962   .text.sdc_lld_write_aligned:000000ec $d
C:\Users\PCHAUT~1\AppData\Local\Temp\ccORgsmL.s:3268   .rodata.__func__.10381:00000000 __func__.10381
C:\Users\PCHAUT~1\AppData\Local\Temp\ccORgsmL.s:2970   .text.sdc_lld_read:00000000 $t
C:\Users\PCHAUT~1\AppData\Local\Temp\ccORgsmL.s:2978   .text.sdc_lld_read:00000000 sdc_lld_read
C:\Users\PCHAUT~1\AppData\Local\Temp\ccORgsmL.s:3076   .text.sdc_lld_read:00000090 $d
C:\Users\PCHAUT~1\AppData\Local\Temp\ccORgsmL.s:3082   .text.sdc_lld_write:00000000 $t
C:\Users\PCHAUT~1\AppData\Local\Temp\ccORgsmL.s:3090   .text.sdc_lld_write:00000000 sdc_lld_write
C:\Users\PCHAUT~1\AppData\Local\Temp\ccORgsmL.s:3188   .text.sdc_lld_write:00000090 $d
C:\Users\PCHAUT~1\AppData\Local\Temp\ccORgsmL.s:3194   .text.sdc_lld_sync:00000000 $t
C:\Users\PCHAUT~1\AppData\Local\Temp\ccORgsmL.s:3202   .text.sdc_lld_sync:00000000 sdc_lld_sync
C:\Users\PCHAUT~1\AppData\Local\Temp\ccORgsmL.s:3236   .text.sdc_lld_sync:00000024 $d
C:\Users\PCHAUT~1\AppData\Local\Temp\ccORgsmL.s:3241   .rodata.__func__.10250:00000000 $d
C:\Users\PCHAUT~1\AppData\Local\Temp\ccORgsmL.s:3247   .rodata.__func__.7554:00000000 $d
C:\Users\PCHAUT~1\AppData\Local\Temp\ccORgsmL.s:3253   .rodata.__func__.10295:00000000 $d
C:\Users\PCHAUT~1\AppData\Local\Temp\ccORgsmL.s:3259   .rodata.__func__.10372:00000000 $d
C:\Users\PCHAUT~1\AppData\Local\Temp\ccORgsmL.s:3265   .rodata.__func__.10381:00000000 $d

UNDEFINED SYMBOLS
__stack_chk_fail
__stack_chk_guard
_stats_start_measure_crit_thd
_dbg_check_lock
_dbg_check_unlock
_stats_stop_measure_crit_thd
chSysHalt
ch
_stats_start_measure_crit_isr
_dbg_check_lock_from_isr
_dbg_check_unlock_from_isr
_stats_stop_measure_crit_isr
chThdSleep
chThdSuspendS
chThdResumeI
_sdc_wait_for_transfer_state
_stats_increase_irq
_dbg_check_enter_isr
_dbg_check_leave_isr
_port_irq_epilogue
sdcObjectInit
_stm32_dma_streams
dmaStreamAllocate
nvicEnableVector
nvicDisableVector
dmaStreamRelease
memcpy
