ARM GAS  C:\Users\PCHAUT~1\AppData\Local\Temp\ccIUTL2x.s 			page 1


   1              		.cpu cortex-m4
   2              		.eabi_attribute 27, 1
   3              		.eabi_attribute 28, 1
   4              		.eabi_attribute 20, 1
   5              		.eabi_attribute 21, 1
   6              		.eabi_attribute 23, 3
   7              		.eabi_attribute 24, 1
   8              		.eabi_attribute 25, 1
   9              		.eabi_attribute 26, 1
  10              		.eabi_attribute 30, 6
  11              		.eabi_attribute 34, 1
  12              		.eabi_attribute 18, 4
  13              		.file	"serial_lld.c"
  14              		.text
  15              	.Ltext0:
  16              		.cfi_sections	.debug_frame
  17              		.section	.text.port_lock,"ax",%progbits
  18              		.align	1
  19              		.p2align 4,,15
  20              		.syntax unified
  21              		.thumb
  22              		.thumb_func
  23              		.fpu fpv4-sp-d16
  24              		.type	port_lock, %function
  25              	port_lock:
  26              	.LFB116:
  27              		.file 1 "../lib/e-puck2_main-processor/ChibiOS//os/rt/ports/ARMCMx/chcore_v7m.h"
  28              		.loc 1 444 0
  29              		.cfi_startproc
  30              		@ args = 0, pretend = 0, frame = 8
  31              		@ frame_needed = 0, uses_anonymous_args = 0
  32 0000 00B5     		push	{lr}
  33              		.cfi_def_cfa_offset 4
  34              		.cfi_offset 14, -4
  35 0002 83B0     		sub	sp, sp, #12
  36              		.cfi_def_cfa_offset 16
  37              		.loc 1 444 0
  38 0004 094B     		ldr	r3, .L3
  39 0006 1B68     		ldr	r3, [r3]
  40 0008 0193     		str	r3, [sp, #4]
  41 000a 2023     		movs	r3, #32
  42 000c 0093     		str	r3, [sp]
  43              	.LBB6:
  44              	.LBB7:
  45              		.file 2 "../lib/e-puck2_main-processor/ChibiOS//os/ext/CMSIS/include/core_cmFunc.h"
  46              		.loc 2 546 0
  47 000e 009B     		ldr	r3, [sp]
  48              		.syntax unified
  49              	@ 546 "../lib/e-puck2_main-processor/ChibiOS//os/ext/CMSIS/include/core_cmFunc.h" 1
  50 0010 83F31188 		MSR basepri, r3
  51              	@ 0 "" 2
  52              		.thumb
  53              		.syntax unified
  54              	.LBE7:
  55              	.LBE6:
  56              		.loc 1 451 0
  57 0014 00BF     		nop
ARM GAS  C:\Users\PCHAUT~1\AppData\Local\Temp\ccIUTL2x.s 			page 2


  58 0016 054B     		ldr	r3, .L3
  59 0018 019A     		ldr	r2, [sp, #4]
  60 001a 1B68     		ldr	r3, [r3]
  61 001c 9A42     		cmp	r2, r3
  62 001e 01D0     		beq	.L2
  63 0020 FFF7FEFF 		bl	__stack_chk_fail
  64              	.L2:
  65 0024 03B0     		add	sp, sp, #12
  66              		.cfi_def_cfa_offset 4
  67              		@ sp needed
  68 0026 5DF804FB 		ldr	pc, [sp], #4
  69              	.L4:
  70 002a 00BF     		.align	2
  71              	.L3:
  72 002c 00000000 		.word	__stack_chk_guard
  73              		.cfi_endproc
  74              	.LFE116:
  75              		.size	port_lock, .-port_lock
  76              		.section	.text.port_unlock,"ax",%progbits
  77              		.align	1
  78              		.p2align 4,,15
  79              		.syntax unified
  80              		.thumb
  81              		.thumb_func
  82              		.fpu fpv4-sp-d16
  83              		.type	port_unlock, %function
  84              	port_unlock:
  85              	.LFB117:
  86              		.loc 1 458 0
  87              		.cfi_startproc
  88              		@ args = 0, pretend = 0, frame = 8
  89              		@ frame_needed = 0, uses_anonymous_args = 0
  90 0000 00B5     		push	{lr}
  91              		.cfi_def_cfa_offset 4
  92              		.cfi_offset 14, -4
  93 0002 83B0     		sub	sp, sp, #12
  94              		.cfi_def_cfa_offset 16
  95              		.loc 1 458 0
  96 0004 094B     		ldr	r3, .L7
  97 0006 1B68     		ldr	r3, [r3]
  98 0008 0193     		str	r3, [sp, #4]
  99 000a 0023     		movs	r3, #0
 100 000c 0093     		str	r3, [sp]
 101              	.LBB8:
 102              	.LBB9:
 103              		.loc 2 546 0
 104 000e 009B     		ldr	r3, [sp]
 105              		.syntax unified
 106              	@ 546 "../lib/e-puck2_main-processor/ChibiOS//os/ext/CMSIS/include/core_cmFunc.h" 1
 107 0010 83F31188 		MSR basepri, r3
 108              	@ 0 "" 2
 109              		.thumb
 110              		.syntax unified
 111              	.LBE9:
 112              	.LBE8:
 113              		.loc 1 465 0
 114 0014 00BF     		nop
ARM GAS  C:\Users\PCHAUT~1\AppData\Local\Temp\ccIUTL2x.s 			page 3


 115 0016 054B     		ldr	r3, .L7
 116 0018 019A     		ldr	r2, [sp, #4]
 117 001a 1B68     		ldr	r3, [r3]
 118 001c 9A42     		cmp	r2, r3
 119 001e 01D0     		beq	.L6
 120 0020 FFF7FEFF 		bl	__stack_chk_fail
 121              	.L6:
 122 0024 03B0     		add	sp, sp, #12
 123              		.cfi_def_cfa_offset 4
 124              		@ sp needed
 125 0026 5DF804FB 		ldr	pc, [sp], #4
 126              	.L8:
 127 002a 00BF     		.align	2
 128              	.L7:
 129 002c 00000000 		.word	__stack_chk_guard
 130              		.cfi_endproc
 131              	.LFE117:
 132              		.size	port_unlock, .-port_unlock
 133              		.section	.text.port_lock_from_isr,"ax",%progbits
 134              		.align	1
 135              		.p2align 4,,15
 136              		.syntax unified
 137              		.thumb
 138              		.thumb_func
 139              		.fpu fpv4-sp-d16
 140              		.type	port_lock_from_isr, %function
 141              	port_lock_from_isr:
 142              	.LFB118:
 143              		.loc 1 473 0
 144              		.cfi_startproc
 145              		@ args = 0, pretend = 0, frame = 8
 146              		@ frame_needed = 0, uses_anonymous_args = 0
 147 0000 00B5     		push	{lr}
 148              		.cfi_def_cfa_offset 4
 149              		.cfi_offset 14, -4
 150 0002 83B0     		sub	sp, sp, #12
 151              		.cfi_def_cfa_offset 16
 152              		.loc 1 473 0
 153 0004 074B     		ldr	r3, .L11
 154 0006 1B68     		ldr	r3, [r3]
 155 0008 0193     		str	r3, [sp, #4]
 156              		.loc 1 475 0
 157 000a FFF7FEFF 		bl	port_lock
 158              		.loc 1 476 0
 159 000e 00BF     		nop
 160 0010 044B     		ldr	r3, .L11
 161 0012 019A     		ldr	r2, [sp, #4]
 162 0014 1B68     		ldr	r3, [r3]
 163 0016 9A42     		cmp	r2, r3
 164 0018 01D0     		beq	.L10
 165 001a FFF7FEFF 		bl	__stack_chk_fail
 166              	.L10:
 167 001e 03B0     		add	sp, sp, #12
 168              		.cfi_def_cfa_offset 4
 169              		@ sp needed
 170 0020 5DF804FB 		ldr	pc, [sp], #4
 171              	.L12:
ARM GAS  C:\Users\PCHAUT~1\AppData\Local\Temp\ccIUTL2x.s 			page 4


 172              		.align	2
 173              	.L11:
 174 0024 00000000 		.word	__stack_chk_guard
 175              		.cfi_endproc
 176              	.LFE118:
 177              		.size	port_lock_from_isr, .-port_lock_from_isr
 178              		.section	.text.port_unlock_from_isr,"ax",%progbits
 179              		.align	1
 180              		.p2align 4,,15
 181              		.syntax unified
 182              		.thumb
 183              		.thumb_func
 184              		.fpu fpv4-sp-d16
 185              		.type	port_unlock_from_isr, %function
 186              	port_unlock_from_isr:
 187              	.LFB119:
 188              		.loc 1 484 0
 189              		.cfi_startproc
 190              		@ args = 0, pretend = 0, frame = 8
 191              		@ frame_needed = 0, uses_anonymous_args = 0
 192 0000 00B5     		push	{lr}
 193              		.cfi_def_cfa_offset 4
 194              		.cfi_offset 14, -4
 195 0002 83B0     		sub	sp, sp, #12
 196              		.cfi_def_cfa_offset 16
 197              		.loc 1 484 0
 198 0004 074B     		ldr	r3, .L15
 199 0006 1B68     		ldr	r3, [r3]
 200 0008 0193     		str	r3, [sp, #4]
 201              		.loc 1 486 0
 202 000a FFF7FEFF 		bl	port_unlock
 203              		.loc 1 487 0
 204 000e 00BF     		nop
 205 0010 044B     		ldr	r3, .L15
 206 0012 019A     		ldr	r2, [sp, #4]
 207 0014 1B68     		ldr	r3, [r3]
 208 0016 9A42     		cmp	r2, r3
 209 0018 01D0     		beq	.L14
 210 001a FFF7FEFF 		bl	__stack_chk_fail
 211              	.L14:
 212 001e 03B0     		add	sp, sp, #12
 213              		.cfi_def_cfa_offset 4
 214              		@ sp needed
 215 0020 5DF804FB 		ldr	pc, [sp], #4
 216              	.L16:
 217              		.align	2
 218              	.L15:
 219 0024 00000000 		.word	__stack_chk_guard
 220              		.cfi_endproc
 221              	.LFE119:
 222              		.size	port_unlock_from_isr, .-port_unlock_from_isr
 223              		.section	.text.chSysLockFromISR,"ax",%progbits
 224              		.align	1
 225              		.p2align 4,,15
 226              		.syntax unified
 227              		.thumb
 228              		.thumb_func
ARM GAS  C:\Users\PCHAUT~1\AppData\Local\Temp\ccIUTL2x.s 			page 5


 229              		.fpu fpv4-sp-d16
 230              		.type	chSysLockFromISR, %function
 231              	chSysLockFromISR:
 232              	.LFB147:
 233              		.file 3 "../lib/e-puck2_main-processor/ChibiOS//os/rt/include/chsys.h"
 234              		.loc 3 386 0
 235              		.cfi_startproc
 236              		@ args = 0, pretend = 0, frame = 8
 237              		@ frame_needed = 0, uses_anonymous_args = 0
 238 0000 00B5     		push	{lr}
 239              		.cfi_def_cfa_offset 4
 240              		.cfi_offset 14, -4
 241 0002 83B0     		sub	sp, sp, #12
 242              		.cfi_def_cfa_offset 16
 243              		.loc 3 386 0
 244 0004 094B     		ldr	r3, .L19
 245 0006 1B68     		ldr	r3, [r3]
 246 0008 0193     		str	r3, [sp, #4]
 247              		.loc 3 388 0
 248 000a FFF7FEFF 		bl	port_lock_from_isr
 249              		.loc 3 389 0
 250 000e FFF7FEFF 		bl	_stats_start_measure_crit_isr
 251              		.loc 3 390 0
 252 0012 FFF7FEFF 		bl	_dbg_check_lock_from_isr
 253              		.loc 3 391 0
 254 0016 00BF     		nop
 255 0018 044B     		ldr	r3, .L19
 256 001a 019A     		ldr	r2, [sp, #4]
 257 001c 1B68     		ldr	r3, [r3]
 258 001e 9A42     		cmp	r2, r3
 259 0020 01D0     		beq	.L18
 260 0022 FFF7FEFF 		bl	__stack_chk_fail
 261              	.L18:
 262 0026 03B0     		add	sp, sp, #12
 263              		.cfi_def_cfa_offset 4
 264              		@ sp needed
 265 0028 5DF804FB 		ldr	pc, [sp], #4
 266              	.L20:
 267              		.align	2
 268              	.L19:
 269 002c 00000000 		.word	__stack_chk_guard
 270              		.cfi_endproc
 271              	.LFE147:
 272              		.size	chSysLockFromISR, .-chSysLockFromISR
 273              		.section	.text.chSysUnlockFromISR,"ax",%progbits
 274              		.align	1
 275              		.p2align 4,,15
 276              		.syntax unified
 277              		.thumb
 278              		.thumb_func
 279              		.fpu fpv4-sp-d16
 280              		.type	chSysUnlockFromISR, %function
 281              	chSysUnlockFromISR:
 282              	.LFB148:
 283              		.loc 3 406 0
 284              		.cfi_startproc
 285              		@ args = 0, pretend = 0, frame = 8
ARM GAS  C:\Users\PCHAUT~1\AppData\Local\Temp\ccIUTL2x.s 			page 6


 286              		@ frame_needed = 0, uses_anonymous_args = 0
 287 0000 00B5     		push	{lr}
 288              		.cfi_def_cfa_offset 4
 289              		.cfi_offset 14, -4
 290 0002 83B0     		sub	sp, sp, #12
 291              		.cfi_def_cfa_offset 16
 292              		.loc 3 406 0
 293 0004 094B     		ldr	r3, .L23
 294 0006 1B68     		ldr	r3, [r3]
 295 0008 0193     		str	r3, [sp, #4]
 296              		.loc 3 408 0
 297 000a FFF7FEFF 		bl	_dbg_check_unlock_from_isr
 298              		.loc 3 409 0
 299 000e FFF7FEFF 		bl	_stats_stop_measure_crit_isr
 300              		.loc 3 410 0
 301 0012 FFF7FEFF 		bl	port_unlock_from_isr
 302              		.loc 3 411 0
 303 0016 00BF     		nop
 304 0018 044B     		ldr	r3, .L23
 305 001a 019A     		ldr	r2, [sp, #4]
 306 001c 1B68     		ldr	r3, [r3]
 307 001e 9A42     		cmp	r2, r3
 308 0020 01D0     		beq	.L22
 309 0022 FFF7FEFF 		bl	__stack_chk_fail
 310              	.L22:
 311 0026 03B0     		add	sp, sp, #12
 312              		.cfi_def_cfa_offset 4
 313              		@ sp needed
 314 0028 5DF804FB 		ldr	pc, [sp], #4
 315              	.L24:
 316              		.align	2
 317              	.L23:
 318 002c 00000000 		.word	__stack_chk_guard
 319              		.cfi_endproc
 320              	.LFE148:
 321              		.size	chSysUnlockFromISR, .-chSysUnlockFromISR
 322              		.section	.text.chOQIsEmptyI,"ax",%progbits
 323              		.align	1
 324              		.p2align 4,,15
 325              		.syntax unified
 326              		.thumb
 327              		.thumb_func
 328              		.fpu fpv4-sp-d16
 329              		.type	chOQIsEmptyI, %function
 330              	chOQIsEmptyI:
 331              	.LFB216:
 332              		.file 4 "../lib/e-puck2_main-processor/ChibiOS//os/rt/include/chqueues.h"
 333              		.loc 4 386 0
 334              		.cfi_startproc
 335              		@ args = 0, pretend = 0, frame = 16
 336              		@ frame_needed = 0, uses_anonymous_args = 0
 337 0000 00B5     		push	{lr}
 338              		.cfi_def_cfa_offset 4
 339              		.cfi_offset 14, -4
 340 0002 85B0     		sub	sp, sp, #20
 341              		.cfi_def_cfa_offset 24
 342 0004 0190     		str	r0, [sp, #4]
ARM GAS  C:\Users\PCHAUT~1\AppData\Local\Temp\ccIUTL2x.s 			page 7


 343              		.loc 4 386 0
 344 0006 104B     		ldr	r3, .L30
 345 0008 1B68     		ldr	r3, [r3]
 346 000a 0393     		str	r3, [sp, #12]
 347              		.loc 4 388 0
 348 000c FFF7FEFF 		bl	chDbgCheckClassI
 349              		.loc 4 390 0
 350 0010 019B     		ldr	r3, [sp, #4]
 351 0012 5A69     		ldr	r2, [r3, #20]
 352 0014 019B     		ldr	r3, [sp, #4]
 353 0016 9B69     		ldr	r3, [r3, #24]
 354 0018 9A42     		cmp	r2, r3
 355 001a 05D1     		bne	.L26
 356              		.loc 4 390 0 is_stmt 0 discriminator 1
 357 001c 019B     		ldr	r3, [sp, #4]
 358 001e 9B68     		ldr	r3, [r3, #8]
 359 0020 002B     		cmp	r3, #0
 360 0022 01D0     		beq	.L26
 361              		.loc 4 390 0 discriminator 3
 362 0024 0123     		movs	r3, #1
 363 0026 00E0     		b	.L27
 364              	.L26:
 365              		.loc 4 390 0 discriminator 4
 366 0028 0023     		movs	r3, #0
 367              	.L27:
 368              		.loc 4 390 0 discriminator 6
 369 002a 03F00103 		and	r3, r3, #1
 370 002e DBB2     		uxtb	r3, r3
 371              		.loc 4 391 0 is_stmt 1 discriminator 6
 372 0030 1846     		mov	r0, r3
 373 0032 054B     		ldr	r3, .L30
 374 0034 039A     		ldr	r2, [sp, #12]
 375 0036 1B68     		ldr	r3, [r3]
 376 0038 9A42     		cmp	r2, r3
 377 003a 01D0     		beq	.L29
 378              		.loc 4 391 0 is_stmt 0
 379 003c FFF7FEFF 		bl	__stack_chk_fail
 380              	.L29:
 381 0040 05B0     		add	sp, sp, #20
 382              		.cfi_def_cfa_offset 4
 383              		@ sp needed
 384 0042 5DF804FB 		ldr	pc, [sp], #4
 385              	.L31:
 386 0046 00BF     		.align	2
 387              	.L30:
 388 0048 00000000 		.word	__stack_chk_guard
 389              		.cfi_endproc
 390              	.LFE216:
 391              		.size	chOQIsEmptyI, .-chOQIsEmptyI
 392              		.section	.text.osalSysLockFromISR,"ax",%progbits
 393              		.align	1
 394              		.p2align 4,,15
 395              		.syntax unified
 396              		.thumb
 397              		.thumb_func
 398              		.fpu fpv4-sp-d16
 399              		.type	osalSysLockFromISR, %function
ARM GAS  C:\Users\PCHAUT~1\AppData\Local\Temp\ccIUTL2x.s 			page 8


 400              	osalSysLockFromISR:
 401              	.LFB225:
 402              		.file 5 "../lib/e-puck2_main-processor/ChibiOS//os/hal/osal/rt/osal.h"
 403              		.loc 5 467 0 is_stmt 1
 404              		.cfi_startproc
 405              		@ args = 0, pretend = 0, frame = 8
 406              		@ frame_needed = 0, uses_anonymous_args = 0
 407 0000 00B5     		push	{lr}
 408              		.cfi_def_cfa_offset 4
 409              		.cfi_offset 14, -4
 410 0002 83B0     		sub	sp, sp, #12
 411              		.cfi_def_cfa_offset 16
 412              		.loc 5 467 0
 413 0004 074B     		ldr	r3, .L34
 414 0006 1B68     		ldr	r3, [r3]
 415 0008 0193     		str	r3, [sp, #4]
 416              		.loc 5 469 0
 417 000a FFF7FEFF 		bl	chSysLockFromISR
 418              		.loc 5 470 0
 419 000e 00BF     		nop
 420 0010 044B     		ldr	r3, .L34
 421 0012 019A     		ldr	r2, [sp, #4]
 422 0014 1B68     		ldr	r3, [r3]
 423 0016 9A42     		cmp	r2, r3
 424 0018 01D0     		beq	.L33
 425 001a FFF7FEFF 		bl	__stack_chk_fail
 426              	.L33:
 427 001e 03B0     		add	sp, sp, #12
 428              		.cfi_def_cfa_offset 4
 429              		@ sp needed
 430 0020 5DF804FB 		ldr	pc, [sp], #4
 431              	.L35:
 432              		.align	2
 433              	.L34:
 434 0024 00000000 		.word	__stack_chk_guard
 435              		.cfi_endproc
 436              	.LFE225:
 437              		.size	osalSysLockFromISR, .-osalSysLockFromISR
 438              		.section	.text.osalSysUnlockFromISR,"ax",%progbits
 439              		.align	1
 440              		.p2align 4,,15
 441              		.syntax unified
 442              		.thumb
 443              		.thumb_func
 444              		.fpu fpv4-sp-d16
 445              		.type	osalSysUnlockFromISR, %function
 446              	osalSysUnlockFromISR:
 447              	.LFB226:
 448              		.loc 5 478 0
 449              		.cfi_startproc
 450              		@ args = 0, pretend = 0, frame = 8
 451              		@ frame_needed = 0, uses_anonymous_args = 0
 452 0000 00B5     		push	{lr}
 453              		.cfi_def_cfa_offset 4
 454              		.cfi_offset 14, -4
 455 0002 83B0     		sub	sp, sp, #12
 456              		.cfi_def_cfa_offset 16
ARM GAS  C:\Users\PCHAUT~1\AppData\Local\Temp\ccIUTL2x.s 			page 9


 457              		.loc 5 478 0
 458 0004 074B     		ldr	r3, .L38
 459 0006 1B68     		ldr	r3, [r3]
 460 0008 0193     		str	r3, [sp, #4]
 461              		.loc 5 480 0
 462 000a FFF7FEFF 		bl	chSysUnlockFromISR
 463              		.loc 5 481 0
 464 000e 00BF     		nop
 465 0010 044B     		ldr	r3, .L38
 466 0012 019A     		ldr	r2, [sp, #4]
 467 0014 1B68     		ldr	r3, [r3]
 468 0016 9A42     		cmp	r2, r3
 469 0018 01D0     		beq	.L37
 470 001a FFF7FEFF 		bl	__stack_chk_fail
 471              	.L37:
 472 001e 03B0     		add	sp, sp, #12
 473              		.cfi_def_cfa_offset 4
 474              		@ sp needed
 475 0020 5DF804FB 		ldr	pc, [sp], #4
 476              	.L39:
 477              		.align	2
 478              	.L38:
 479 0024 00000000 		.word	__stack_chk_guard
 480              		.cfi_endproc
 481              	.LFE226:
 482              		.size	osalSysUnlockFromISR, .-osalSysUnlockFromISR
 483              		.section	.text.osalEventBroadcastFlagsI,"ax",%progbits
 484              		.align	1
 485              		.p2align 4,,15
 486              		.syntax unified
 487              		.thumb
 488              		.thumb_func
 489              		.fpu fpv4-sp-d16
 490              		.type	osalEventBroadcastFlagsI, %function
 491              	osalEventBroadcastFlagsI:
 492              	.LFB245:
 493              		.loc 5 796 0
 494              		.cfi_startproc
 495              		@ args = 0, pretend = 0, frame = 16
 496              		@ frame_needed = 0, uses_anonymous_args = 0
 497 0000 00B5     		push	{lr}
 498              		.cfi_def_cfa_offset 4
 499              		.cfi_offset 14, -4
 500 0002 85B0     		sub	sp, sp, #20
 501              		.cfi_def_cfa_offset 24
 502 0004 0190     		str	r0, [sp, #4]
 503 0006 0091     		str	r1, [sp]
 504              		.loc 5 796 0
 505 0008 084B     		ldr	r3, .L42
 506 000a 1B68     		ldr	r3, [r3]
 507 000c 0393     		str	r3, [sp, #12]
 508              		.loc 5 798 0
 509 000e 0099     		ldr	r1, [sp]
 510 0010 0198     		ldr	r0, [sp, #4]
 511 0012 FFF7FEFF 		bl	chEvtBroadcastFlagsI
 512              		.loc 5 799 0
 513 0016 00BF     		nop
ARM GAS  C:\Users\PCHAUT~1\AppData\Local\Temp\ccIUTL2x.s 			page 10


 514 0018 044B     		ldr	r3, .L42
 515 001a 039A     		ldr	r2, [sp, #12]
 516 001c 1B68     		ldr	r3, [r3]
 517 001e 9A42     		cmp	r2, r3
 518 0020 01D0     		beq	.L41
 519 0022 FFF7FEFF 		bl	__stack_chk_fail
 520              	.L41:
 521 0026 05B0     		add	sp, sp, #20
 522              		.cfi_def_cfa_offset 4
 523              		@ sp needed
 524 0028 5DF804FB 		ldr	pc, [sp], #4
 525              	.L43:
 526              		.align	2
 527              	.L42:
 528 002c 00000000 		.word	__stack_chk_guard
 529              		.cfi_endproc
 530              	.LFE245:
 531              		.size	osalEventBroadcastFlagsI, .-osalEventBroadcastFlagsI
 532              		.global	SD3
 533              		.section	.bss.SD3,"aw",%nobits
 534              		.align	2
 535              		.type	SD3, %object
 536              		.size	SD3, 120
 537              	SD3:
 538 0000 00000000 		.space	120
 538      00000000 
 538      00000000 
 538      00000000 
 538      00000000 
 539              		.section	.rodata.default_config,"a",%progbits
 540              		.align	2
 541              		.type	default_config, %object
 542              		.size	default_config, 12
 543              	default_config:
 544 0000 00C20100 		.word	115200
 545 0004 0000     		.short	0
 546 0006 0040     		.short	16384
 547 0008 0000     		.short	0
 548 000a 0000     		.space	2
 549              		.section	.text.usart_init,"ax",%progbits
 550              		.align	1
 551              		.p2align 4,,15
 552              		.syntax unified
 553              		.thumb
 554              		.thumb_func
 555              		.fpu fpv4-sp-d16
 556              		.type	usart_init, %function
 557              	usart_init:
 558              	.LFB256:
 559              		.file 6 "../lib/e-puck2_main-processor/ChibiOS//os/hal/ports/STM32/LLD/USARTv1/serial_lld.c"
 560              		.loc 6 91 0
 561              		.cfi_startproc
 562              		@ args = 0, pretend = 0, frame = 16
 563              		@ frame_needed = 0, uses_anonymous_args = 0
 564 0000 00B5     		push	{lr}
 565              		.cfi_def_cfa_offset 4
 566              		.cfi_offset 14, -4
ARM GAS  C:\Users\PCHAUT~1\AppData\Local\Temp\ccIUTL2x.s 			page 11


 567 0002 85B0     		sub	sp, sp, #20
 568              		.cfi_def_cfa_offset 24
 569 0004 0190     		str	r0, [sp, #4]
 570 0006 0091     		str	r1, [sp]
 571              		.loc 6 91 0
 572 0008 254B     		ldr	r3, .L49
 573 000a 1B68     		ldr	r3, [r3]
 574 000c 0393     		str	r3, [sp, #12]
 575              		.loc 6 92 0
 576 000e 019B     		ldr	r3, [sp, #4]
 577 0010 5B6F     		ldr	r3, [r3, #116]
 578 0012 0293     		str	r3, [sp, #8]
 579              		.loc 6 96 0
 580 0014 019B     		ldr	r3, [sp, #4]
 581 0016 5B6F     		ldr	r3, [r3, #116]
 582 0018 224A     		ldr	r2, .L49+4
 583 001a 9342     		cmp	r3, r2
 584 001c 04D0     		beq	.L45
 585              		.loc 6 96 0 is_stmt 0 discriminator 1
 586 001e 019B     		ldr	r3, [sp, #4]
 587 0020 5B6F     		ldr	r3, [r3, #116]
 588 0022 214A     		ldr	r2, .L49+8
 589 0024 9342     		cmp	r3, r2
 590 0026 07D1     		bne	.L46
 591              	.L45:
 592              		.loc 6 100 0 is_stmt 1
 593 0028 009B     		ldr	r3, [sp]
 594 002a 1B68     		ldr	r3, [r3]
 595 002c 1F4A     		ldr	r2, .L49+12
 596 002e B2FBF3F2 		udiv	r2, r2, r3
 597 0032 029B     		ldr	r3, [sp, #8]
 598 0034 9A60     		str	r2, [r3, #8]
 599 0036 06E0     		b	.L47
 600              	.L46:
 601              		.loc 6 102 0
 602 0038 009B     		ldr	r3, [sp]
 603 003a 1B68     		ldr	r3, [r3]
 604 003c 1C4A     		ldr	r2, .L49+16
 605 003e B2FBF3F2 		udiv	r2, r2, r3
 606 0042 029B     		ldr	r3, [sp, #8]
 607 0044 9A60     		str	r2, [r3, #8]
 608              	.L47:
 609              		.loc 6 105 0
 610 0046 009B     		ldr	r3, [sp]
 611 0048 DB88     		ldrh	r3, [r3, #6]
 612 004a 43F04003 		orr	r3, r3, #64
 613 004e 9BB2     		uxth	r3, r3
 614 0050 1A46     		mov	r2, r3
 615 0052 029B     		ldr	r3, [sp, #8]
 616 0054 1A61     		str	r2, [r3, #16]
 617              		.loc 6 106 0
 618 0056 009B     		ldr	r3, [sp]
 619 0058 1B89     		ldrh	r3, [r3, #8]
 620 005a 43F00103 		orr	r3, r3, #1
 621 005e 9BB2     		uxth	r3, r3
 622 0060 1A46     		mov	r2, r3
 623 0062 029B     		ldr	r3, [sp, #8]
ARM GAS  C:\Users\PCHAUT~1\AppData\Local\Temp\ccIUTL2x.s 			page 12


 624 0064 5A61     		str	r2, [r3, #20]
 625              		.loc 6 107 0
 626 0066 009B     		ldr	r3, [sp]
 627 0068 9B88     		ldrh	r3, [r3, #4]
 628              		.loc 6 108 0
 629 006a 43F40453 		orr	r3, r3, #8448
 630 006e 43F02C03 		orr	r3, r3, #44
 631 0072 9BB2     		uxth	r3, r3
 632 0074 1A46     		mov	r2, r3
 633              		.loc 6 107 0
 634 0076 029B     		ldr	r3, [sp, #8]
 635 0078 DA60     		str	r2, [r3, #12]
 636              		.loc 6 110 0
 637 007a 029B     		ldr	r3, [sp, #8]
 638 007c 0022     		movs	r2, #0
 639 007e 1A60     		str	r2, [r3]
 640              		.loc 6 111 0
 641 0080 029B     		ldr	r3, [sp, #8]
 642 0082 1B68     		ldr	r3, [r3]
 643              		.loc 6 112 0
 644 0084 029B     		ldr	r3, [sp, #8]
 645 0086 5B68     		ldr	r3, [r3, #4]
 646              		.loc 6 113 0
 647 0088 00BF     		nop
 648 008a 054B     		ldr	r3, .L49
 649 008c 039A     		ldr	r2, [sp, #12]
 650 008e 1B68     		ldr	r3, [r3]
 651 0090 9A42     		cmp	r2, r3
 652 0092 01D0     		beq	.L48
 653 0094 FFF7FEFF 		bl	__stack_chk_fail
 654              	.L48:
 655 0098 05B0     		add	sp, sp, #20
 656              		.cfi_def_cfa_offset 4
 657              		@ sp needed
 658 009a 5DF804FB 		ldr	pc, [sp], #4
 659              	.L50:
 660 009e 00BF     		.align	2
 661              	.L49:
 662 00a0 00000000 		.word	__stack_chk_guard
 663 00a4 00100140 		.word	1073811456
 664 00a8 00140140 		.word	1073812480
 665 00ac 00BD0105 		.word	84000000
 666 00b0 80DE8002 		.word	42000000
 667              		.cfi_endproc
 668              	.LFE256:
 669              		.size	usart_init, .-usart_init
 670              		.section	.text.usart_deinit,"ax",%progbits
 671              		.align	1
 672              		.p2align 4,,15
 673              		.syntax unified
 674              		.thumb
 675              		.thumb_func
 676              		.fpu fpv4-sp-d16
 677              		.type	usart_deinit, %function
 678              	usart_deinit:
 679              	.LFB257:
 680              		.loc 6 121 0
ARM GAS  C:\Users\PCHAUT~1\AppData\Local\Temp\ccIUTL2x.s 			page 13


 681              		.cfi_startproc
 682              		@ args = 0, pretend = 0, frame = 16
 683              		@ frame_needed = 0, uses_anonymous_args = 0
 684 0000 00B5     		push	{lr}
 685              		.cfi_def_cfa_offset 4
 686              		.cfi_offset 14, -4
 687 0002 85B0     		sub	sp, sp, #20
 688              		.cfi_def_cfa_offset 24
 689 0004 0190     		str	r0, [sp, #4]
 690              		.loc 6 121 0
 691 0006 0B4B     		ldr	r3, .L53
 692 0008 1B68     		ldr	r3, [r3]
 693 000a 0393     		str	r3, [sp, #12]
 694              		.loc 6 123 0
 695 000c 019B     		ldr	r3, [sp, #4]
 696 000e 0022     		movs	r2, #0
 697 0010 DA60     		str	r2, [r3, #12]
 698              		.loc 6 124 0
 699 0012 019B     		ldr	r3, [sp, #4]
 700 0014 0022     		movs	r2, #0
 701 0016 1A61     		str	r2, [r3, #16]
 702              		.loc 6 125 0
 703 0018 019B     		ldr	r3, [sp, #4]
 704 001a 0022     		movs	r2, #0
 705 001c 5A61     		str	r2, [r3, #20]
 706              		.loc 6 126 0
 707 001e 00BF     		nop
 708 0020 044B     		ldr	r3, .L53
 709 0022 039A     		ldr	r2, [sp, #12]
 710 0024 1B68     		ldr	r3, [r3]
 711 0026 9A42     		cmp	r2, r3
 712 0028 01D0     		beq	.L52
 713 002a FFF7FEFF 		bl	__stack_chk_fail
 714              	.L52:
 715 002e 05B0     		add	sp, sp, #20
 716              		.cfi_def_cfa_offset 4
 717              		@ sp needed
 718 0030 5DF804FB 		ldr	pc, [sp], #4
 719              	.L54:
 720              		.align	2
 721              	.L53:
 722 0034 00000000 		.word	__stack_chk_guard
 723              		.cfi_endproc
 724              	.LFE257:
 725              		.size	usart_deinit, .-usart_deinit
 726              		.section	.text.set_error,"ax",%progbits
 727              		.align	1
 728              		.p2align 4,,15
 729              		.syntax unified
 730              		.thumb
 731              		.thumb_func
 732              		.fpu fpv4-sp-d16
 733              		.type	set_error, %function
 734              	set_error:
 735              	.LFB258:
 736              		.loc 6 134 0
 737              		.cfi_startproc
ARM GAS  C:\Users\PCHAUT~1\AppData\Local\Temp\ccIUTL2x.s 			page 14


 738              		@ args = 0, pretend = 0, frame = 16
 739              		@ frame_needed = 0, uses_anonymous_args = 0
 740 0000 00B5     		push	{lr}
 741              		.cfi_def_cfa_offset 4
 742              		.cfi_offset 14, -4
 743 0002 85B0     		sub	sp, sp, #20
 744              		.cfi_def_cfa_offset 24
 745 0004 0190     		str	r0, [sp, #4]
 746 0006 0B46     		mov	r3, r1
 747 0008 ADF80230 		strh	r3, [sp, #2]	@ movhi
 748              		.loc 6 134 0
 749 000c 1E4B     		ldr	r3, .L61
 750 000e 1B68     		ldr	r3, [r3]
 751 0010 0393     		str	r3, [sp, #12]
 752              		.loc 6 135 0
 753 0012 0023     		movs	r3, #0
 754 0014 0293     		str	r3, [sp, #8]
 755              		.loc 6 137 0
 756 0016 BDF80230 		ldrh	r3, [sp, #2]
 757 001a 03F00803 		and	r3, r3, #8
 758 001e 002B     		cmp	r3, #0
 759 0020 03D0     		beq	.L56
 760              		.loc 6 138 0
 761 0022 029B     		ldr	r3, [sp, #8]
 762 0024 43F08003 		orr	r3, r3, #128
 763 0028 0293     		str	r3, [sp, #8]
 764              	.L56:
 765              		.loc 6 139 0
 766 002a BDF80230 		ldrh	r3, [sp, #2]
 767 002e 03F00103 		and	r3, r3, #1
 768 0032 002B     		cmp	r3, #0
 769 0034 03D0     		beq	.L57
 770              		.loc 6 140 0
 771 0036 029B     		ldr	r3, [sp, #8]
 772 0038 43F02003 		orr	r3, r3, #32
 773 003c 0293     		str	r3, [sp, #8]
 774              	.L57:
 775              		.loc 6 141 0
 776 003e BDF80230 		ldrh	r3, [sp, #2]
 777 0042 03F00203 		and	r3, r3, #2
 778 0046 002B     		cmp	r3, #0
 779 0048 03D0     		beq	.L58
 780              		.loc 6 142 0
 781 004a 029B     		ldr	r3, [sp, #8]
 782 004c 43F04003 		orr	r3, r3, #64
 783 0050 0293     		str	r3, [sp, #8]
 784              	.L58:
 785              		.loc 6 143 0
 786 0052 BDF80230 		ldrh	r3, [sp, #2]
 787 0056 03F00403 		and	r3, r3, #4
 788 005a 002B     		cmp	r3, #0
 789 005c 03D0     		beq	.L59
 790              		.loc 6 144 0
 791 005e 029B     		ldr	r3, [sp, #8]
 792 0060 43F48073 		orr	r3, r3, #256
 793 0064 0293     		str	r3, [sp, #8]
 794              	.L59:
ARM GAS  C:\Users\PCHAUT~1\AppData\Local\Temp\ccIUTL2x.s 			page 15


 795              		.loc 6 145 0
 796 0066 019B     		ldr	r3, [sp, #4]
 797 0068 0433     		adds	r3, r3, #4
 798 006a 0299     		ldr	r1, [sp, #8]
 799 006c 1846     		mov	r0, r3
 800 006e FFF7FEFF 		bl	osalEventBroadcastFlagsI
 801              		.loc 6 146 0
 802 0072 00BF     		nop
 803 0074 044B     		ldr	r3, .L61
 804 0076 039A     		ldr	r2, [sp, #12]
 805 0078 1B68     		ldr	r3, [r3]
 806 007a 9A42     		cmp	r2, r3
 807 007c 01D0     		beq	.L60
 808 007e FFF7FEFF 		bl	__stack_chk_fail
 809              	.L60:
 810 0082 05B0     		add	sp, sp, #20
 811              		.cfi_def_cfa_offset 4
 812              		@ sp needed
 813 0084 5DF804FB 		ldr	pc, [sp], #4
 814              	.L62:
 815              		.align	2
 816              	.L61:
 817 0088 00000000 		.word	__stack_chk_guard
 818              		.cfi_endproc
 819              	.LFE258:
 820              		.size	set_error, .-set_error
 821              		.section	.text.serve_interrupt,"ax",%progbits
 822              		.align	1
 823              		.p2align 4,,15
 824              		.syntax unified
 825              		.thumb
 826              		.thumb_func
 827              		.fpu fpv4-sp-d16
 828              		.type	serve_interrupt, %function
 829              	serve_interrupt:
 830              	.LFB259:
 831              		.loc 6 153 0
 832              		.cfi_startproc
 833              		@ args = 0, pretend = 0, frame = 32
 834              		@ frame_needed = 0, uses_anonymous_args = 0
 835 0000 00B5     		push	{lr}
 836              		.cfi_def_cfa_offset 4
 837              		.cfi_offset 14, -4
 838 0002 89B0     		sub	sp, sp, #36
 839              		.cfi_def_cfa_offset 40
 840 0004 0190     		str	r0, [sp, #4]
 841              		.loc 6 153 0
 842 0006 534B     		ldr	r3, .L76
 843 0008 1B68     		ldr	r3, [r3]
 844 000a 0793     		str	r3, [sp, #28]
 845              		.loc 6 154 0
 846 000c 019B     		ldr	r3, [sp, #4]
 847 000e 5B6F     		ldr	r3, [r3, #116]
 848 0010 0593     		str	r3, [sp, #20]
 849              		.loc 6 155 0
 850 0012 059B     		ldr	r3, [sp, #20]
 851 0014 DB68     		ldr	r3, [r3, #12]
ARM GAS  C:\Users\PCHAUT~1\AppData\Local\Temp\ccIUTL2x.s 			page 16


 852 0016 ADF81230 		strh	r3, [sp, #18]	@ movhi
 853              		.loc 6 156 0
 854 001a 059B     		ldr	r3, [sp, #20]
 855 001c 1B68     		ldr	r3, [r3]
 856 001e ADF81030 		strh	r3, [sp, #16]	@ movhi
 857              		.loc 6 159 0
 858 0022 BDF81030 		ldrh	r3, [sp, #16]
 859 0026 03F48073 		and	r3, r3, #256
 860 002a 002B     		cmp	r3, #0
 861 002c 0ED0     		beq	.L64
 862              		.loc 6 160 0
 863 002e FFF7FEFF 		bl	osalSysLockFromISR
 864              		.loc 6 161 0
 865 0032 019B     		ldr	r3, [sp, #4]
 866 0034 0433     		adds	r3, r3, #4
 867 0036 4FF40071 		mov	r1, #512
 868 003a 1846     		mov	r0, r3
 869 003c FFF7FEFF 		bl	osalEventBroadcastFlagsI
 870              		.loc 6 162 0
 871 0040 059B     		ldr	r3, [sp, #20]
 872 0042 6FF48072 		mvn	r2, #256
 873 0046 1A60     		str	r2, [r3]
 874              		.loc 6 163 0
 875 0048 FFF7FEFF 		bl	osalSysUnlockFromISR
 876              	.L64:
 877              		.loc 6 167 0
 878 004c FFF7FEFF 		bl	osalSysLockFromISR
 879              		.loc 6 168 0
 880 0050 1FE0     		b	.L65
 881              	.L68:
 882              	.LBB10:
 883              		.loc 6 173 0
 884 0052 BDF81030 		ldrh	r3, [sp, #16]
 885 0056 03F00F03 		and	r3, r3, #15
 886 005a 002B     		cmp	r3, #0
 887 005c 05D0     		beq	.L66
 888              		.loc 6 174 0
 889 005e BDF81030 		ldrh	r3, [sp, #16]
 890 0062 1946     		mov	r1, r3
 891 0064 0198     		ldr	r0, [sp, #4]
 892 0066 FFF7FEFF 		bl	set_error
 893              	.L66:
 894              		.loc 6 175 0
 895 006a 059B     		ldr	r3, [sp, #20]
 896 006c 5B68     		ldr	r3, [r3, #4]
 897 006e 8DF80F30 		strb	r3, [sp, #15]
 898              		.loc 6 176 0
 899 0072 BDF81030 		ldrh	r3, [sp, #16]
 900 0076 03F02003 		and	r3, r3, #32
 901 007a 002B     		cmp	r3, #0
 902 007c 05D0     		beq	.L67
 903              		.loc 6 177 0
 904 007e 9DF80F30 		ldrb	r3, [sp, #15]	@ zero_extendqisi2
 905 0082 1946     		mov	r1, r3
 906 0084 0198     		ldr	r0, [sp, #4]
 907 0086 FFF7FEFF 		bl	sdIncomingDataI
 908              	.L67:
ARM GAS  C:\Users\PCHAUT~1\AppData\Local\Temp\ccIUTL2x.s 			page 17


 909              		.loc 6 178 0
 910 008a 059B     		ldr	r3, [sp, #20]
 911 008c 1B68     		ldr	r3, [r3]
 912 008e ADF81030 		strh	r3, [sp, #16]	@ movhi
 913              	.L65:
 914              	.LBE10:
 915              		.loc 6 168 0
 916 0092 BDF81030 		ldrh	r3, [sp, #16]
 917 0096 03F02F03 		and	r3, r3, #47
 918 009a 002B     		cmp	r3, #0
 919 009c D9D1     		bne	.L68
 920              		.loc 6 180 0
 921 009e FFF7FEFF 		bl	osalSysUnlockFromISR
 922              		.loc 6 183 0
 923 00a2 BDF81230 		ldrh	r3, [sp, #18]
 924 00a6 03F08003 		and	r3, r3, #128
 925 00aa 002B     		cmp	r3, #0
 926 00ac 24D0     		beq	.L69
 927              		.loc 6 183 0 is_stmt 0 discriminator 1
 928 00ae BDF81030 		ldrh	r3, [sp, #16]
 929 00b2 03F08003 		and	r3, r3, #128
 930 00b6 002B     		cmp	r3, #0
 931 00b8 1ED0     		beq	.L69
 932              	.LBB11:
 933              		.loc 6 185 0 is_stmt 1
 934 00ba FFF7FEFF 		bl	osalSysLockFromISR
 935              		.loc 6 186 0
 936 00be 019B     		ldr	r3, [sp, #4]
 937 00c0 3033     		adds	r3, r3, #48
 938 00c2 1846     		mov	r0, r3
 939 00c4 FFF7FEFF 		bl	chOQGetI
 940 00c8 0690     		str	r0, [sp, #24]
 941              		.loc 6 187 0
 942 00ca 069B     		ldr	r3, [sp, #24]
 943 00cc 002B     		cmp	r3, #0
 944 00ce 0EDA     		bge	.L70
 945              		.loc 6 188 0
 946 00d0 019B     		ldr	r3, [sp, #4]
 947 00d2 0433     		adds	r3, r3, #4
 948 00d4 0821     		movs	r1, #8
 949 00d6 1846     		mov	r0, r3
 950 00d8 FFF7FEFF 		bl	osalEventBroadcastFlagsI
 951              		.loc 6 189 0
 952 00dc BDF81230 		ldrh	r3, [sp, #18]
 953 00e0 23F0C003 		bic	r3, r3, #192
 954 00e4 43F04002 		orr	r2, r3, #64
 955 00e8 059B     		ldr	r3, [sp, #20]
 956 00ea DA60     		str	r2, [r3, #12]
 957 00ec 02E0     		b	.L71
 958              	.L70:
 959              		.loc 6 192 0
 960 00ee 069A     		ldr	r2, [sp, #24]
 961 00f0 059B     		ldr	r3, [sp, #20]
 962 00f2 5A60     		str	r2, [r3, #4]
 963              	.L71:
 964              		.loc 6 193 0
 965 00f4 FFF7FEFF 		bl	osalSysUnlockFromISR
ARM GAS  C:\Users\PCHAUT~1\AppData\Local\Temp\ccIUTL2x.s 			page 18


 966              	.L69:
 967              	.LBE11:
 968              		.loc 6 197 0
 969 00f8 BDF81030 		ldrh	r3, [sp, #16]
 970 00fc 03F04003 		and	r3, r3, #64
 971 0100 002B     		cmp	r3, #0
 972 0102 1BD0     		beq	.L75
 973              		.loc 6 198 0
 974 0104 FFF7FEFF 		bl	osalSysLockFromISR
 975              		.loc 6 199 0
 976 0108 019B     		ldr	r3, [sp, #4]
 977 010a 3033     		adds	r3, r3, #48
 978 010c 1846     		mov	r0, r3
 979 010e FFF7FEFF 		bl	chOQIsEmptyI
 980 0112 0346     		mov	r3, r0
 981 0114 002B     		cmp	r3, #0
 982 0116 05D0     		beq	.L73
 983              		.loc 6 200 0
 984 0118 019B     		ldr	r3, [sp, #4]
 985 011a 0433     		adds	r3, r3, #4
 986 011c 1021     		movs	r1, #16
 987 011e 1846     		mov	r0, r3
 988 0120 FFF7FEFF 		bl	osalEventBroadcastFlagsI
 989              	.L73:
 990              		.loc 6 201 0
 991 0124 BDF81230 		ldrh	r3, [sp, #18]
 992 0128 23F04002 		bic	r2, r3, #64
 993 012c 059B     		ldr	r3, [sp, #20]
 994 012e DA60     		str	r2, [r3, #12]
 995              		.loc 6 202 0
 996 0130 059B     		ldr	r3, [sp, #20]
 997 0132 6FF04002 		mvn	r2, #64
 998 0136 1A60     		str	r2, [r3]
 999              		.loc 6 203 0
 1000 0138 FFF7FEFF 		bl	osalSysUnlockFromISR
 1001              	.L75:
 1002              		.loc 6 205 0
 1003 013c 00BF     		nop
 1004 013e 054B     		ldr	r3, .L76
 1005 0140 079A     		ldr	r2, [sp, #28]
 1006 0142 1B68     		ldr	r3, [r3]
 1007 0144 9A42     		cmp	r2, r3
 1008 0146 01D0     		beq	.L74
 1009 0148 FFF7FEFF 		bl	__stack_chk_fail
 1010              	.L74:
 1011 014c 09B0     		add	sp, sp, #36
 1012              		.cfi_def_cfa_offset 4
 1013              		@ sp needed
 1014 014e 5DF804FB 		ldr	pc, [sp], #4
 1015              	.L77:
 1016 0152 00BF     		.align	2
 1017              	.L76:
 1018 0154 00000000 		.word	__stack_chk_guard
 1019              		.cfi_endproc
 1020              	.LFE259:
 1021              		.size	serve_interrupt, .-serve_interrupt
 1022              		.section	.text.notify3,"ax",%progbits
ARM GAS  C:\Users\PCHAUT~1\AppData\Local\Temp\ccIUTL2x.s 			page 19


 1023              		.align	1
 1024              		.p2align 4,,15
 1025              		.syntax unified
 1026              		.thumb
 1027              		.thumb_func
 1028              		.fpu fpv4-sp-d16
 1029              		.type	notify3, %function
 1030              	notify3:
 1031              	.LFB260:
 1032              		.loc 6 224 0
 1033              		.cfi_startproc
 1034              		@ args = 0, pretend = 0, frame = 16
 1035              		@ frame_needed = 0, uses_anonymous_args = 0
 1036 0000 00B5     		push	{lr}
 1037              		.cfi_def_cfa_offset 4
 1038              		.cfi_offset 14, -4
 1039 0002 85B0     		sub	sp, sp, #20
 1040              		.cfi_def_cfa_offset 24
 1041 0004 0190     		str	r0, [sp, #4]
 1042              		.loc 6 224 0
 1043 0006 0A4B     		ldr	r3, .L80
 1044 0008 1B68     		ldr	r3, [r3]
 1045 000a 0393     		str	r3, [sp, #12]
 1046              		.loc 6 227 0
 1047 000c 094B     		ldr	r3, .L80+4
 1048 000e DB68     		ldr	r3, [r3, #12]
 1049 0010 084A     		ldr	r2, .L80+4
 1050 0012 43F08003 		orr	r3, r3, #128
 1051 0016 D360     		str	r3, [r2, #12]
 1052              		.loc 6 228 0
 1053 0018 00BF     		nop
 1054 001a 054B     		ldr	r3, .L80
 1055 001c 039A     		ldr	r2, [sp, #12]
 1056 001e 1B68     		ldr	r3, [r3]
 1057 0020 9A42     		cmp	r2, r3
 1058 0022 01D0     		beq	.L79
 1059 0024 FFF7FEFF 		bl	__stack_chk_fail
 1060              	.L79:
 1061 0028 05B0     		add	sp, sp, #20
 1062              		.cfi_def_cfa_offset 4
 1063              		@ sp needed
 1064 002a 5DF804FB 		ldr	pc, [sp], #4
 1065              	.L81:
 1066 002e 00BF     		.align	2
 1067              	.L80:
 1068 0030 00000000 		.word	__stack_chk_guard
 1069 0034 00480040 		.word	1073760256
 1070              		.cfi_endproc
 1071              	.LFE260:
 1072              		.size	notify3, .-notify3
 1073              		.section	.text.VectorDC,"ax",%progbits
 1074              		.align	1
 1075              		.p2align 4,,15
 1076              		.global	VectorDC
 1077              		.syntax unified
 1078              		.thumb
 1079              		.thumb_func
ARM GAS  C:\Users\PCHAUT~1\AppData\Local\Temp\ccIUTL2x.s 			page 20


 1080              		.fpu fpv4-sp-d16
 1081              		.type	VectorDC, %function
 1082              	VectorDC:
 1083              	.LFB261:
 1084              		.loc 6 306 0
 1085              		.cfi_startproc
 1086              		@ args = 0, pretend = 0, frame = 8
 1087              		@ frame_needed = 0, uses_anonymous_args = 0
 1088 0000 00B5     		push	{lr}
 1089              		.cfi_def_cfa_offset 4
 1090              		.cfi_offset 14, -4
 1091 0002 83B0     		sub	sp, sp, #12
 1092              		.cfi_def_cfa_offset 16
 1093              		.loc 6 306 0
 1094 0004 0C4B     		ldr	r3, .L84
 1095 0006 1B68     		ldr	r3, [r3]
 1096 0008 0193     		str	r3, [sp, #4]
 1097              		.loc 6 308 0
 1098 000a FFF7FEFF 		bl	_stats_increase_irq
 1099 000e FFF7FEFF 		bl	_dbg_check_enter_isr
 1100              		.loc 6 310 0
 1101 0012 0A48     		ldr	r0, .L84+4
 1102 0014 FFF7FEFF 		bl	serve_interrupt
 1103              		.loc 6 312 0
 1104 0018 FFF7FEFF 		bl	_dbg_check_leave_isr
 1105 001c FFF7FEFF 		bl	_port_irq_epilogue
 1106              		.loc 6 313 0
 1107 0020 00BF     		nop
 1108 0022 054B     		ldr	r3, .L84
 1109 0024 019A     		ldr	r2, [sp, #4]
 1110 0026 1B68     		ldr	r3, [r3]
 1111 0028 9A42     		cmp	r2, r3
 1112 002a 01D0     		beq	.L83
 1113 002c FFF7FEFF 		bl	__stack_chk_fail
 1114              	.L83:
 1115 0030 03B0     		add	sp, sp, #12
 1116              		.cfi_def_cfa_offset 4
 1117              		@ sp needed
 1118 0032 5DF804FB 		ldr	pc, [sp], #4
 1119              	.L85:
 1120 0036 00BF     		.align	2
 1121              	.L84:
 1122 0038 00000000 		.word	__stack_chk_guard
 1123 003c 00000000 		.word	SD3
 1124              		.cfi_endproc
 1125              	.LFE261:
 1126              		.size	VectorDC, .-VectorDC
 1127              		.section	.text.sd_lld_init,"ax",%progbits
 1128              		.align	1
 1129              		.p2align 4,,15
 1130              		.global	sd_lld_init
 1131              		.syntax unified
 1132              		.thumb
 1133              		.thumb_func
 1134              		.fpu fpv4-sp-d16
 1135              		.type	sd_lld_init, %function
 1136              	sd_lld_init:
ARM GAS  C:\Users\PCHAUT~1\AppData\Local\Temp\ccIUTL2x.s 			page 21


 1137              	.LFB262:
 1138              		.loc 6 382 0
 1139              		.cfi_startproc
 1140              		@ args = 0, pretend = 0, frame = 8
 1141              		@ frame_needed = 0, uses_anonymous_args = 0
 1142 0000 00B5     		push	{lr}
 1143              		.cfi_def_cfa_offset 4
 1144              		.cfi_offset 14, -4
 1145 0002 83B0     		sub	sp, sp, #12
 1146              		.cfi_def_cfa_offset 16
 1147              		.loc 6 382 0
 1148 0004 0A4B     		ldr	r3, .L88
 1149 0006 1B68     		ldr	r3, [r3]
 1150 0008 0193     		str	r3, [sp, #4]
 1151              		.loc 6 395 0
 1152 000a 0A4A     		ldr	r2, .L88+4
 1153 000c 0021     		movs	r1, #0
 1154 000e 0A48     		ldr	r0, .L88+8
 1155 0010 FFF7FEFF 		bl	sdObjectInit
 1156              		.loc 6 396 0
 1157 0014 084B     		ldr	r3, .L88+8
 1158 0016 094A     		ldr	r2, .L88+12
 1159 0018 5A67     		str	r2, [r3, #116]
 1160              		.loc 6 413 0
 1161 001a 00BF     		nop
 1162 001c 044B     		ldr	r3, .L88
 1163 001e 019A     		ldr	r2, [sp, #4]
 1164 0020 1B68     		ldr	r3, [r3]
 1165 0022 9A42     		cmp	r2, r3
 1166 0024 01D0     		beq	.L87
 1167 0026 FFF7FEFF 		bl	__stack_chk_fail
 1168              	.L87:
 1169 002a 03B0     		add	sp, sp, #12
 1170              		.cfi_def_cfa_offset 4
 1171              		@ sp needed
 1172 002c 5DF804FB 		ldr	pc, [sp], #4
 1173              	.L89:
 1174              		.align	2
 1175              	.L88:
 1176 0030 00000000 		.word	__stack_chk_guard
 1177 0034 00000000 		.word	notify3
 1178 0038 00000000 		.word	SD3
 1179 003c 00480040 		.word	1073760256
 1180              		.cfi_endproc
 1181              	.LFE262:
 1182              		.size	sd_lld_init, .-sd_lld_init
 1183              		.section	.text.sd_lld_start,"ax",%progbits
 1184              		.align	1
 1185              		.p2align 4,,15
 1186              		.global	sd_lld_start
 1187              		.syntax unified
 1188              		.thumb
 1189              		.thumb_func
 1190              		.fpu fpv4-sp-d16
 1191              		.type	sd_lld_start, %function
 1192              	sd_lld_start:
 1193              	.LFB263:
ARM GAS  C:\Users\PCHAUT~1\AppData\Local\Temp\ccIUTL2x.s 			page 22


 1194              		.loc 6 425 0
 1195              		.cfi_startproc
 1196              		@ args = 0, pretend = 0, frame = 16
 1197              		@ frame_needed = 0, uses_anonymous_args = 0
 1198 0000 00B5     		push	{lr}
 1199              		.cfi_def_cfa_offset 4
 1200              		.cfi_offset 14, -4
 1201 0002 85B0     		sub	sp, sp, #20
 1202              		.cfi_def_cfa_offset 24
 1203 0004 0190     		str	r0, [sp, #4]
 1204 0006 0091     		str	r1, [sp]
 1205              		.loc 6 425 0
 1206 0008 144B     		ldr	r3, .L94
 1207 000a 1B68     		ldr	r3, [r3]
 1208 000c 0393     		str	r3, [sp, #12]
 1209              		.loc 6 427 0
 1210 000e 009B     		ldr	r3, [sp]
 1211 0010 002B     		cmp	r3, #0
 1212 0012 01D1     		bne	.L91
 1213              		.loc 6 428 0
 1214 0014 124B     		ldr	r3, .L94+4
 1215 0016 0093     		str	r3, [sp]
 1216              	.L91:
 1217              		.loc 6 430 0
 1218 0018 019B     		ldr	r3, [sp, #4]
 1219 001a 1B7A     		ldrb	r3, [r3, #8]	@ zero_extendqisi2
 1220 001c 012B     		cmp	r3, #1
 1221 001e 0DD1     		bne	.L92
 1222              		.loc 6 444 0
 1223 0020 019B     		ldr	r3, [sp, #4]
 1224 0022 104A     		ldr	r2, .L94+8
 1225 0024 9342     		cmp	r3, r2
 1226 0026 09D1     		bne	.L92
 1227              		.loc 6 445 0
 1228 0028 0F4B     		ldr	r3, .L94+12
 1229 002a 1B6C     		ldr	r3, [r3, #64]
 1230 002c 0E4A     		ldr	r2, .L94+12
 1231 002e 43F48023 		orr	r3, r3, #262144
 1232 0032 1364     		str	r3, [r2, #64]
 1233              		.loc 6 446 0
 1234 0034 0C21     		movs	r1, #12
 1235 0036 2720     		movs	r0, #39
 1236 0038 FFF7FEFF 		bl	nvicEnableVector
 1237              	.L92:
 1238              		.loc 6 468 0
 1239 003c 0099     		ldr	r1, [sp]
 1240 003e 0198     		ldr	r0, [sp, #4]
 1241 0040 FFF7FEFF 		bl	usart_init
 1242              		.loc 6 469 0
 1243 0044 00BF     		nop
 1244 0046 054B     		ldr	r3, .L94
 1245 0048 039A     		ldr	r2, [sp, #12]
 1246 004a 1B68     		ldr	r3, [r3]
 1247 004c 9A42     		cmp	r2, r3
 1248 004e 01D0     		beq	.L93
 1249 0050 FFF7FEFF 		bl	__stack_chk_fail
 1250              	.L93:
ARM GAS  C:\Users\PCHAUT~1\AppData\Local\Temp\ccIUTL2x.s 			page 23


 1251 0054 05B0     		add	sp, sp, #20
 1252              		.cfi_def_cfa_offset 4
 1253              		@ sp needed
 1254 0056 5DF804FB 		ldr	pc, [sp], #4
 1255              	.L95:
 1256 005a 00BF     		.align	2
 1257              	.L94:
 1258 005c 00000000 		.word	__stack_chk_guard
 1259 0060 00000000 		.word	default_config
 1260 0064 00000000 		.word	SD3
 1261 0068 00380240 		.word	1073887232
 1262              		.cfi_endproc
 1263              	.LFE263:
 1264              		.size	sd_lld_start, .-sd_lld_start
 1265              		.section	.text.sd_lld_stop,"ax",%progbits
 1266              		.align	1
 1267              		.p2align 4,,15
 1268              		.global	sd_lld_stop
 1269              		.syntax unified
 1270              		.thumb
 1271              		.thumb_func
 1272              		.fpu fpv4-sp-d16
 1273              		.type	sd_lld_stop, %function
 1274              	sd_lld_stop:
 1275              	.LFB264:
 1276              		.loc 6 480 0
 1277              		.cfi_startproc
 1278              		@ args = 0, pretend = 0, frame = 16
 1279              		@ frame_needed = 0, uses_anonymous_args = 0
 1280 0000 00B5     		push	{lr}
 1281              		.cfi_def_cfa_offset 4
 1282              		.cfi_offset 14, -4
 1283 0002 85B0     		sub	sp, sp, #20
 1284              		.cfi_def_cfa_offset 24
 1285 0004 0190     		str	r0, [sp, #4]
 1286              		.loc 6 480 0
 1287 0006 124B     		ldr	r3, .L99
 1288 0008 1B68     		ldr	r3, [r3]
 1289 000a 0393     		str	r3, [sp, #12]
 1290              		.loc 6 482 0
 1291 000c 019B     		ldr	r3, [sp, #4]
 1292 000e 1B7A     		ldrb	r3, [r3, #8]	@ zero_extendqisi2
 1293 0010 022B     		cmp	r3, #2
 1294 0012 12D1     		bne	.L96
 1295              		.loc 6 483 0
 1296 0014 019B     		ldr	r3, [sp, #4]
 1297 0016 5B6F     		ldr	r3, [r3, #116]
 1298 0018 1846     		mov	r0, r3
 1299 001a FFF7FEFF 		bl	usart_deinit
 1300              		.loc 6 499 0
 1301 001e 019B     		ldr	r3, [sp, #4]
 1302 0020 0C4A     		ldr	r2, .L99+4
 1303 0022 9342     		cmp	r3, r2
 1304 0024 09D1     		bne	.L96
 1305              		.loc 6 500 0
 1306 0026 0C4B     		ldr	r3, .L99+8
 1307 0028 1B6C     		ldr	r3, [r3, #64]
ARM GAS  C:\Users\PCHAUT~1\AppData\Local\Temp\ccIUTL2x.s 			page 24


 1308 002a 0B4A     		ldr	r2, .L99+8
 1309 002c 23F48023 		bic	r3, r3, #262144
 1310 0030 1364     		str	r3, [r2, #64]
 1311              		.loc 6 501 0
 1312 0032 2720     		movs	r0, #39
 1313 0034 FFF7FEFF 		bl	nvicDisableVector
 1314              		.loc 6 502 0
 1315 0038 00BF     		nop
 1316              	.L96:
 1317              		.loc 6 527 0
 1318 003a 054B     		ldr	r3, .L99
 1319 003c 039A     		ldr	r2, [sp, #12]
 1320 003e 1B68     		ldr	r3, [r3]
 1321 0040 9A42     		cmp	r2, r3
 1322 0042 01D0     		beq	.L98
 1323 0044 FFF7FEFF 		bl	__stack_chk_fail
 1324              	.L98:
 1325 0048 05B0     		add	sp, sp, #20
 1326              		.cfi_def_cfa_offset 4
 1327              		@ sp needed
 1328 004a 5DF804FB 		ldr	pc, [sp], #4
 1329              	.L100:
 1330 004e 00BF     		.align	2
 1331              	.L99:
 1332 0050 00000000 		.word	__stack_chk_guard
 1333 0054 00000000 		.word	SD3
 1334 0058 00380240 		.word	1073887232
 1335              		.cfi_endproc
 1336              	.LFE264:
 1337              		.size	sd_lld_stop, .-sd_lld_stop
 1338              		.text
 1339              	.Letext0:
 1340              		.file 7 "c:\\users\\pchautems\\documents\\robotiquetp\\eclipse_e-puck2\\tools\\gcc-arm-none-eabi-7
 1341              		.file 8 "c:\\users\\pchautems\\documents\\robotiquetp\\eclipse_e-puck2\\tools\\gcc-arm-none-eabi-7
 1342              		.file 9 "c:\\users\\pchautems\\documents\\robotiquetp\\eclipse_e-puck2\\tools\\gcc-arm-none-eabi-7
 1343              		.file 10 "../lib/e-puck2_main-processor/ChibiOS//os/rt/ports/ARMCMx/compilers/GCC/chtypes.h"
 1344              		.file 11 "../lib/e-puck2_main-processor/ChibiOS//os/rt/include/chsystypes.h"
 1345              		.file 12 "../lib/e-puck2_main-processor/ChibiOS//os/rt/include/chschd.h"
 1346              		.file 13 "../lib/e-puck2_main-processor/ChibiOS//os/ext/CMSIS/include/core_cm4.h"
 1347              		.file 14 "../lib/e-puck2_main-processor/ChibiOS//os/ext/CMSIS/ST/system_stm32f4xx.h"
 1348              		.file 15 "../lib/e-puck2_main-processor/ChibiOS//os/ext/CMSIS/ST/stm32f407xx.h"
 1349              		.file 16 "../lib/e-puck2_main-processor/ChibiOS//os/rt/ports/ARMCMx/chcore.h"
 1350              		.file 17 "../lib/e-puck2_main-processor/ChibiOS//os/rt/include/chdebug.h"
 1351              		.file 18 "../lib/e-puck2_main-processor/ChibiOS//os/rt/include/chtm.h"
 1352              		.file 19 "../lib/e-puck2_main-processor/ChibiOS//os/rt/include/chstats.h"
 1353              		.file 20 "../lib/e-puck2_main-processor/ChibiOS//os/rt/include/chsem.h"
 1354              		.file 21 "../lib/e-puck2_main-processor/ChibiOS//os/rt/include/chmtx.h"
 1355              		.file 22 "../lib/e-puck2_main-processor/ChibiOS//os/rt/include/chregistry.h"
 1356              		.file 23 "../lib/e-puck2_main-processor/ChibiOS//os/rt/include/chevents.h"
 1357              		.file 24 "../lib/e-puck2_main-processor/ChibiOS//os/hal/ports/STM32/STM32F4xx/stm32_dma.h"
 1358              		.file 25 "../lib/e-puck2_main-processor/ChibiOS//os/hal/include/hal_ioblock.h"
 1359              		.file 26 "../lib/e-puck2_main-processor/ChibiOS//os/hal/ports/STM32/LLD/GPIOv2/pal_lld.h"
 1360              		.file 27 "../lib/e-puck2_main-processor/ChibiOS//os/hal/include/adc.h"
 1361              		.file 28 "../lib/e-puck2_main-processor/ChibiOS//os/hal/ports/STM32/STM32F4xx/adc_lld.h"
 1362              		.file 29 "../lib/e-puck2_main-processor/ChibiOS//os/hal/include/can.h"
 1363              		.file 30 "../lib/e-puck2_main-processor/ChibiOS//os/hal/ports/STM32/LLD/can_lld.h"
 1364              		.file 31 "../lib/e-puck2_main-processor/ChibiOS//os/hal/include/dac.h"
ARM GAS  C:\Users\PCHAUT~1\AppData\Local\Temp\ccIUTL2x.s 			page 25


 1365              		.file 32 "../lib/e-puck2_main-processor/ChibiOS//os/hal/ports/STM32/LLD/DACv1/dac_lld.h"
 1366              		.file 33 "../lib/e-puck2_main-processor/ChibiOS//os/hal/include/ext.h"
 1367              		.file 34 "../lib/e-puck2_main-processor/ChibiOS//os/hal/ports/STM32/LLD/ext_lld.h"
 1368              		.file 35 "../lib/e-puck2_main-processor/ChibiOS//os/hal/include/gpt.h"
 1369              		.file 36 "../lib/e-puck2_main-processor/ChibiOS//os/hal/ports/STM32/LLD/TIMv1/gpt_lld.h"
 1370              		.file 37 "../lib/e-puck2_main-processor/ChibiOS//os/hal/ports/STM32/LLD/TIMv1/stm32_tim.h"
 1371              		.file 38 "../lib/e-puck2_main-processor/ChibiOS//os/hal/include/i2c.h"
 1372              		.file 39 "../lib/e-puck2_main-processor/ChibiOS//os/hal/ports/STM32/LLD/I2Cv1/i2c_lld.h"
 1373              		.file 40 "../lib/e-puck2_main-processor/ChibiOS//os/hal/include/i2s.h"
 1374              		.file 41 "../lib/e-puck2_main-processor/ChibiOS//os/hal/ports/STM32/LLD/SPIv1/i2s_lld.h"
 1375              		.file 42 "../lib/e-puck2_main-processor/ChibiOS//os/hal/include/pwm.h"
 1376              		.file 43 "../lib/e-puck2_main-processor/ChibiOS//os/hal/ports/STM32/LLD/TIMv1/pwm_lld.h"
 1377              		.file 44 "../lib/e-puck2_main-processor/ChibiOS//os/hal/include/serial.h"
 1378              		.file 45 "../lib/e-puck2_main-processor/ChibiOS//os/hal/ports/STM32/LLD/USARTv1/serial_lld.h"
 1379              		.file 46 "../lib/e-puck2_main-processor/ChibiOS//os/hal/include/sdc.h"
 1380              		.file 47 "../lib/e-puck2_main-processor/ChibiOS//os/hal/ports/STM32/LLD/sdc_lld.h"
 1381              		.file 48 "../lib/e-puck2_main-processor/ChibiOS//os/hal/include/spi.h"
 1382              		.file 49 "../lib/e-puck2_main-processor/ChibiOS//os/hal/ports/STM32/LLD/SPIv1/spi_lld.h"
 1383              		.file 50 "../lib/e-puck2_main-processor/ChibiOS//os/hal/include/usb.h"
 1384              		.file 51 "../lib/e-puck2_main-processor/ChibiOS//os/hal/ports/STM32/LLD/OTGv1/usb_lld.h"
 1385              		.file 52 "../lib/e-puck2_main-processor/ChibiOS//os/hal/ports/STM32/LLD/OTGv1/stm32_otg.h"