ARM GAS  C:\Users\PCHAUT~1\AppData\Local\Temp\ccOhqcVB.s 			page 1


   1              		.cpu cortex-m4
   2              		.eabi_attribute 27, 1
   3              		.eabi_attribute 28, 1
   4              		.eabi_attribute 20, 1
   5              		.eabi_attribute 21, 1
   6              		.eabi_attribute 23, 3
   7              		.eabi_attribute 24, 1
   8              		.eabi_attribute 25, 1
   9              		.eabi_attribute 26, 1
  10              		.eabi_attribute 30, 6
  11              		.eabi_attribute 34, 1
  12              		.eabi_attribute 18, 4
  13              		.file	"serial_usb.c"
  14              		.text
  15              	.Ltext0:
  16              		.cfi_sections	.debug_frame
  17              		.section	.text.port_lock,"ax",%progbits
  18              		.align	1
  19              		.p2align 4,,15
  20              		.syntax unified
  21              		.thumb
  22              		.thumb_func
  23              		.fpu fpv4-sp-d16
  24              		.type	port_lock, %function
  25              	port_lock:
  26              	.LFB116:
  27              		.file 1 "../lib/e-puck2_main-processor/ChibiOS//os/rt/ports/ARMCMx/chcore_v7m.h"
  28              		.loc 1 444 0
  29              		.cfi_startproc
  30              		@ args = 0, pretend = 0, frame = 8
  31              		@ frame_needed = 0, uses_anonymous_args = 0
  32 0000 00B5     		push	{lr}
  33              		.cfi_def_cfa_offset 4
  34              		.cfi_offset 14, -4
  35 0002 83B0     		sub	sp, sp, #12
  36              		.cfi_def_cfa_offset 16
  37              		.loc 1 444 0
  38 0004 094B     		ldr	r3, .L3
  39 0006 1B68     		ldr	r3, [r3]
  40 0008 0193     		str	r3, [sp, #4]
  41 000a 2023     		movs	r3, #32
  42 000c 0093     		str	r3, [sp]
  43              	.LBB6:
  44              	.LBB7:
  45              		.file 2 "../lib/e-puck2_main-processor/ChibiOS//os/ext/CMSIS/include/core_cmFunc.h"
  46              		.loc 2 546 0
  47 000e 009B     		ldr	r3, [sp]
  48              		.syntax unified
  49              	@ 546 "../lib/e-puck2_main-processor/ChibiOS//os/ext/CMSIS/include/core_cmFunc.h" 1
  50 0010 83F31188 		MSR basepri, r3
  51              	@ 0 "" 2
  52              		.thumb
  53              		.syntax unified
  54              	.LBE7:
  55              	.LBE6:
  56              		.loc 1 451 0
  57 0014 00BF     		nop
ARM GAS  C:\Users\PCHAUT~1\AppData\Local\Temp\ccOhqcVB.s 			page 2


  58 0016 054B     		ldr	r3, .L3
  59 0018 019A     		ldr	r2, [sp, #4]
  60 001a 1B68     		ldr	r3, [r3]
  61 001c 9A42     		cmp	r2, r3
  62 001e 01D0     		beq	.L2
  63 0020 FFF7FEFF 		bl	__stack_chk_fail
  64              	.L2:
  65 0024 03B0     		add	sp, sp, #12
  66              		.cfi_def_cfa_offset 4
  67              		@ sp needed
  68 0026 5DF804FB 		ldr	pc, [sp], #4
  69              	.L4:
  70 002a 00BF     		.align	2
  71              	.L3:
  72 002c 00000000 		.word	__stack_chk_guard
  73              		.cfi_endproc
  74              	.LFE116:
  75              		.size	port_lock, .-port_lock
  76              		.section	.text.port_unlock,"ax",%progbits
  77              		.align	1
  78              		.p2align 4,,15
  79              		.syntax unified
  80              		.thumb
  81              		.thumb_func
  82              		.fpu fpv4-sp-d16
  83              		.type	port_unlock, %function
  84              	port_unlock:
  85              	.LFB117:
  86              		.loc 1 458 0
  87              		.cfi_startproc
  88              		@ args = 0, pretend = 0, frame = 8
  89              		@ frame_needed = 0, uses_anonymous_args = 0
  90 0000 00B5     		push	{lr}
  91              		.cfi_def_cfa_offset 4
  92              		.cfi_offset 14, -4
  93 0002 83B0     		sub	sp, sp, #12
  94              		.cfi_def_cfa_offset 16
  95              		.loc 1 458 0
  96 0004 094B     		ldr	r3, .L7
  97 0006 1B68     		ldr	r3, [r3]
  98 0008 0193     		str	r3, [sp, #4]
  99 000a 0023     		movs	r3, #0
 100 000c 0093     		str	r3, [sp]
 101              	.LBB8:
 102              	.LBB9:
 103              		.loc 2 546 0
 104 000e 009B     		ldr	r3, [sp]
 105              		.syntax unified
 106              	@ 546 "../lib/e-puck2_main-processor/ChibiOS//os/ext/CMSIS/include/core_cmFunc.h" 1
 107 0010 83F31188 		MSR basepri, r3
 108              	@ 0 "" 2
 109              		.thumb
 110              		.syntax unified
 111              	.LBE9:
 112              	.LBE8:
 113              		.loc 1 465 0
 114 0014 00BF     		nop
ARM GAS  C:\Users\PCHAUT~1\AppData\Local\Temp\ccOhqcVB.s 			page 3


 115 0016 054B     		ldr	r3, .L7
 116 0018 019A     		ldr	r2, [sp, #4]
 117 001a 1B68     		ldr	r3, [r3]
 118 001c 9A42     		cmp	r2, r3
 119 001e 01D0     		beq	.L6
 120 0020 FFF7FEFF 		bl	__stack_chk_fail
 121              	.L6:
 122 0024 03B0     		add	sp, sp, #12
 123              		.cfi_def_cfa_offset 4
 124              		@ sp needed
 125 0026 5DF804FB 		ldr	pc, [sp], #4
 126              	.L8:
 127 002a 00BF     		.align	2
 128              	.L7:
 129 002c 00000000 		.word	__stack_chk_guard
 130              		.cfi_endproc
 131              	.LFE117:
 132              		.size	port_unlock, .-port_unlock
 133              		.section	.text.port_lock_from_isr,"ax",%progbits
 134              		.align	1
 135              		.p2align 4,,15
 136              		.syntax unified
 137              		.thumb
 138              		.thumb_func
 139              		.fpu fpv4-sp-d16
 140              		.type	port_lock_from_isr, %function
 141              	port_lock_from_isr:
 142              	.LFB118:
 143              		.loc 1 473 0
 144              		.cfi_startproc
 145              		@ args = 0, pretend = 0, frame = 8
 146              		@ frame_needed = 0, uses_anonymous_args = 0
 147 0000 00B5     		push	{lr}
 148              		.cfi_def_cfa_offset 4
 149              		.cfi_offset 14, -4
 150 0002 83B0     		sub	sp, sp, #12
 151              		.cfi_def_cfa_offset 16
 152              		.loc 1 473 0
 153 0004 074B     		ldr	r3, .L11
 154 0006 1B68     		ldr	r3, [r3]
 155 0008 0193     		str	r3, [sp, #4]
 156              		.loc 1 475 0
 157 000a FFF7FEFF 		bl	port_lock
 158              		.loc 1 476 0
 159 000e 00BF     		nop
 160 0010 044B     		ldr	r3, .L11
 161 0012 019A     		ldr	r2, [sp, #4]
 162 0014 1B68     		ldr	r3, [r3]
 163 0016 9A42     		cmp	r2, r3
 164 0018 01D0     		beq	.L10
 165 001a FFF7FEFF 		bl	__stack_chk_fail
 166              	.L10:
 167 001e 03B0     		add	sp, sp, #12
 168              		.cfi_def_cfa_offset 4
 169              		@ sp needed
 170 0020 5DF804FB 		ldr	pc, [sp], #4
 171              	.L12:
ARM GAS  C:\Users\PCHAUT~1\AppData\Local\Temp\ccOhqcVB.s 			page 4


 172              		.align	2
 173              	.L11:
 174 0024 00000000 		.word	__stack_chk_guard
 175              		.cfi_endproc
 176              	.LFE118:
 177              		.size	port_lock_from_isr, .-port_lock_from_isr
 178              		.section	.text.port_unlock_from_isr,"ax",%progbits
 179              		.align	1
 180              		.p2align 4,,15
 181              		.syntax unified
 182              		.thumb
 183              		.thumb_func
 184              		.fpu fpv4-sp-d16
 185              		.type	port_unlock_from_isr, %function
 186              	port_unlock_from_isr:
 187              	.LFB119:
 188              		.loc 1 484 0
 189              		.cfi_startproc
 190              		@ args = 0, pretend = 0, frame = 8
 191              		@ frame_needed = 0, uses_anonymous_args = 0
 192 0000 00B5     		push	{lr}
 193              		.cfi_def_cfa_offset 4
 194              		.cfi_offset 14, -4
 195 0002 83B0     		sub	sp, sp, #12
 196              		.cfi_def_cfa_offset 16
 197              		.loc 1 484 0
 198 0004 074B     		ldr	r3, .L15
 199 0006 1B68     		ldr	r3, [r3]
 200 0008 0193     		str	r3, [sp, #4]
 201              		.loc 1 486 0
 202 000a FFF7FEFF 		bl	port_unlock
 203              		.loc 1 487 0
 204 000e 00BF     		nop
 205 0010 044B     		ldr	r3, .L15
 206 0012 019A     		ldr	r2, [sp, #4]
 207 0014 1B68     		ldr	r3, [r3]
 208 0016 9A42     		cmp	r2, r3
 209 0018 01D0     		beq	.L14
 210 001a FFF7FEFF 		bl	__stack_chk_fail
 211              	.L14:
 212 001e 03B0     		add	sp, sp, #12
 213              		.cfi_def_cfa_offset 4
 214              		@ sp needed
 215 0020 5DF804FB 		ldr	pc, [sp], #4
 216              	.L16:
 217              		.align	2
 218              	.L15:
 219 0024 00000000 		.word	__stack_chk_guard
 220              		.cfi_endproc
 221              	.LFE119:
 222              		.size	port_unlock_from_isr, .-port_unlock_from_isr
 223              		.section	.text.chSysLock,"ax",%progbits
 224              		.align	1
 225              		.p2align 4,,15
 226              		.syntax unified
 227              		.thumb
 228              		.thumb_func
ARM GAS  C:\Users\PCHAUT~1\AppData\Local\Temp\ccOhqcVB.s 			page 5


 229              		.fpu fpv4-sp-d16
 230              		.type	chSysLock, %function
 231              	chSysLock:
 232              	.LFB145:
 233              		.file 3 "../lib/e-puck2_main-processor/ChibiOS//os/rt/include/chsys.h"
 234              		.loc 3 346 0
 235              		.cfi_startproc
 236              		@ args = 0, pretend = 0, frame = 8
 237              		@ frame_needed = 0, uses_anonymous_args = 0
 238 0000 00B5     		push	{lr}
 239              		.cfi_def_cfa_offset 4
 240              		.cfi_offset 14, -4
 241 0002 83B0     		sub	sp, sp, #12
 242              		.cfi_def_cfa_offset 16
 243              		.loc 3 346 0
 244 0004 094B     		ldr	r3, .L19
 245 0006 1B68     		ldr	r3, [r3]
 246 0008 0193     		str	r3, [sp, #4]
 247              		.loc 3 348 0
 248 000a FFF7FEFF 		bl	port_lock
 249              		.loc 3 349 0
 250 000e FFF7FEFF 		bl	_stats_start_measure_crit_thd
 251              		.loc 3 350 0
 252 0012 FFF7FEFF 		bl	_dbg_check_lock
 253              		.loc 3 351 0
 254 0016 00BF     		nop
 255 0018 044B     		ldr	r3, .L19
 256 001a 019A     		ldr	r2, [sp, #4]
 257 001c 1B68     		ldr	r3, [r3]
 258 001e 9A42     		cmp	r2, r3
 259 0020 01D0     		beq	.L18
 260 0022 FFF7FEFF 		bl	__stack_chk_fail
 261              	.L18:
 262 0026 03B0     		add	sp, sp, #12
 263              		.cfi_def_cfa_offset 4
 264              		@ sp needed
 265 0028 5DF804FB 		ldr	pc, [sp], #4
 266              	.L20:
 267              		.align	2
 268              	.L19:
 269 002c 00000000 		.word	__stack_chk_guard
 270              		.cfi_endproc
 271              	.LFE145:
 272              		.size	chSysLock, .-chSysLock
 273              		.section	.text.chSysUnlock,"ax",%progbits
 274              		.align	1
 275              		.p2align 4,,15
 276              		.syntax unified
 277              		.thumb
 278              		.thumb_func
 279              		.fpu fpv4-sp-d16
 280              		.type	chSysUnlock, %function
 281              	chSysUnlock:
 282              	.LFB146:
 283              		.loc 3 358 0
 284              		.cfi_startproc
 285              		@ args = 0, pretend = 0, frame = 8
ARM GAS  C:\Users\PCHAUT~1\AppData\Local\Temp\ccOhqcVB.s 			page 6


 286              		@ frame_needed = 0, uses_anonymous_args = 0
 287 0000 00B5     		push	{lr}
 288              		.cfi_def_cfa_offset 4
 289              		.cfi_offset 14, -4
 290 0002 83B0     		sub	sp, sp, #12
 291              		.cfi_def_cfa_offset 16
 292              		.loc 3 358 0
 293 0004 114B     		ldr	r3, .L24
 294 0006 1B68     		ldr	r3, [r3]
 295 0008 0193     		str	r3, [sp, #4]
 296              		.loc 3 360 0
 297 000a FFF7FEFF 		bl	_dbg_check_unlock
 298              		.loc 3 361 0
 299 000e FFF7FEFF 		bl	_stats_stop_measure_crit_thd
 300              		.loc 3 367 0
 301 0012 0F4B     		ldr	r3, .L24+4
 302 0014 1B68     		ldr	r3, [r3]
 303 0016 0E4A     		ldr	r2, .L24+4
 304 0018 9342     		cmp	r3, r2
 305 001a 0AD0     		beq	.L22
 306              		.loc 3 367 0 is_stmt 0 discriminator 2
 307 001c 0C4B     		ldr	r3, .L24+4
 308 001e 9B69     		ldr	r3, [r3, #24]
 309 0020 9A68     		ldr	r2, [r3, #8]
 310 0022 0B4B     		ldr	r3, .L24+4
 311 0024 1B68     		ldr	r3, [r3]
 312 0026 9B68     		ldr	r3, [r3, #8]
 313 0028 9A42     		cmp	r2, r3
 314 002a 02D2     		bcs	.L22
 315              		.loc 3 367 0 discriminator 3
 316 002c 0948     		ldr	r0, .L24+8
 317 002e FFF7FEFF 		bl	chSysHalt
 318              	.L22:
 319              		.loc 3 371 0 is_stmt 1
 320 0032 FFF7FEFF 		bl	port_unlock
 321              		.loc 3 372 0
 322 0036 00BF     		nop
 323 0038 044B     		ldr	r3, .L24
 324 003a 019A     		ldr	r2, [sp, #4]
 325 003c 1B68     		ldr	r3, [r3]
 326 003e 9A42     		cmp	r2, r3
 327 0040 01D0     		beq	.L23
 328 0042 FFF7FEFF 		bl	__stack_chk_fail
 329              	.L23:
 330 0046 03B0     		add	sp, sp, #12
 331              		.cfi_def_cfa_offset 4
 332              		@ sp needed
 333 0048 5DF804FB 		ldr	pc, [sp], #4
 334              	.L25:
 335              		.align	2
 336              	.L24:
 337 004c 00000000 		.word	__stack_chk_guard
 338 0050 00000000 		.word	ch
 339 0054 00000000 		.word	__func__.7153
 340              		.cfi_endproc
 341              	.LFE146:
 342              		.size	chSysUnlock, .-chSysUnlock
ARM GAS  C:\Users\PCHAUT~1\AppData\Local\Temp\ccOhqcVB.s 			page 7


 343              		.section	.text.chSysLockFromISR,"ax",%progbits
 344              		.align	1
 345              		.p2align 4,,15
 346              		.syntax unified
 347              		.thumb
 348              		.thumb_func
 349              		.fpu fpv4-sp-d16
 350              		.type	chSysLockFromISR, %function
 351              	chSysLockFromISR:
 352              	.LFB147:
 353              		.loc 3 386 0
 354              		.cfi_startproc
 355              		@ args = 0, pretend = 0, frame = 8
 356              		@ frame_needed = 0, uses_anonymous_args = 0
 357 0000 00B5     		push	{lr}
 358              		.cfi_def_cfa_offset 4
 359              		.cfi_offset 14, -4
 360 0002 83B0     		sub	sp, sp, #12
 361              		.cfi_def_cfa_offset 16
 362              		.loc 3 386 0
 363 0004 094B     		ldr	r3, .L28
 364 0006 1B68     		ldr	r3, [r3]
 365 0008 0193     		str	r3, [sp, #4]
 366              		.loc 3 388 0
 367 000a FFF7FEFF 		bl	port_lock_from_isr
 368              		.loc 3 389 0
 369 000e FFF7FEFF 		bl	_stats_start_measure_crit_isr
 370              		.loc 3 390 0
 371 0012 FFF7FEFF 		bl	_dbg_check_lock_from_isr
 372              		.loc 3 391 0
 373 0016 00BF     		nop
 374 0018 044B     		ldr	r3, .L28
 375 001a 019A     		ldr	r2, [sp, #4]
 376 001c 1B68     		ldr	r3, [r3]
 377 001e 9A42     		cmp	r2, r3
 378 0020 01D0     		beq	.L27
 379 0022 FFF7FEFF 		bl	__stack_chk_fail
 380              	.L27:
 381 0026 03B0     		add	sp, sp, #12
 382              		.cfi_def_cfa_offset 4
 383              		@ sp needed
 384 0028 5DF804FB 		ldr	pc, [sp], #4
 385              	.L29:
 386              		.align	2
 387              	.L28:
 388 002c 00000000 		.word	__stack_chk_guard
 389              		.cfi_endproc
 390              	.LFE147:
 391              		.size	chSysLockFromISR, .-chSysLockFromISR
 392              		.section	.text.chSysUnlockFromISR,"ax",%progbits
 393              		.align	1
 394              		.p2align 4,,15
 395              		.syntax unified
 396              		.thumb
 397              		.thumb_func
 398              		.fpu fpv4-sp-d16
 399              		.type	chSysUnlockFromISR, %function
ARM GAS  C:\Users\PCHAUT~1\AppData\Local\Temp\ccOhqcVB.s 			page 8


 400              	chSysUnlockFromISR:
 401              	.LFB148:
 402              		.loc 3 406 0
 403              		.cfi_startproc
 404              		@ args = 0, pretend = 0, frame = 8
 405              		@ frame_needed = 0, uses_anonymous_args = 0
 406 0000 00B5     		push	{lr}
 407              		.cfi_def_cfa_offset 4
 408              		.cfi_offset 14, -4
 409 0002 83B0     		sub	sp, sp, #12
 410              		.cfi_def_cfa_offset 16
 411              		.loc 3 406 0
 412 0004 094B     		ldr	r3, .L32
 413 0006 1B68     		ldr	r3, [r3]
 414 0008 0193     		str	r3, [sp, #4]
 415              		.loc 3 408 0
 416 000a FFF7FEFF 		bl	_dbg_check_unlock_from_isr
 417              		.loc 3 409 0
 418 000e FFF7FEFF 		bl	_stats_stop_measure_crit_isr
 419              		.loc 3 410 0
 420 0012 FFF7FEFF 		bl	port_unlock_from_isr
 421              		.loc 3 411 0
 422 0016 00BF     		nop
 423 0018 044B     		ldr	r3, .L32
 424 001a 019A     		ldr	r2, [sp, #4]
 425 001c 1B68     		ldr	r3, [r3]
 426 001e 9A42     		cmp	r2, r3
 427 0020 01D0     		beq	.L31
 428 0022 FFF7FEFF 		bl	__stack_chk_fail
 429              	.L31:
 430 0026 03B0     		add	sp, sp, #12
 431              		.cfi_def_cfa_offset 4
 432              		@ sp needed
 433 0028 5DF804FB 		ldr	pc, [sp], #4
 434              	.L33:
 435              		.align	2
 436              	.L32:
 437 002c 00000000 		.word	__stack_chk_guard
 438              		.cfi_endproc
 439              	.LFE148:
 440              		.size	chSysUnlockFromISR, .-chSysUnlockFromISR
 441              		.section	.text.chEvtObjectInit,"ax",%progbits
 442              		.align	1
 443              		.p2align 4,,15
 444              		.syntax unified
 445              		.thumb
 446              		.thumb_func
 447              		.fpu fpv4-sp-d16
 448              		.type	chEvtObjectInit, %function
 449              	chEvtObjectInit:
 450              	.LFB194:
 451              		.file 4 "../lib/e-puck2_main-processor/ChibiOS//os/rt/include/chevents.h"
 452              		.loc 4 170 0
 453              		.cfi_startproc
 454              		@ args = 0, pretend = 0, frame = 16
 455              		@ frame_needed = 0, uses_anonymous_args = 0
 456 0000 00B5     		push	{lr}
ARM GAS  C:\Users\PCHAUT~1\AppData\Local\Temp\ccOhqcVB.s 			page 9


 457              		.cfi_def_cfa_offset 4
 458              		.cfi_offset 14, -4
 459 0002 85B0     		sub	sp, sp, #20
 460              		.cfi_def_cfa_offset 24
 461 0004 0190     		str	r0, [sp, #4]
 462              		.loc 4 170 0
 463 0006 084B     		ldr	r3, .L36
 464 0008 1B68     		ldr	r3, [r3]
 465 000a 0393     		str	r3, [sp, #12]
 466              		.loc 4 172 0
 467 000c 019B     		ldr	r3, [sp, #4]
 468 000e 019A     		ldr	r2, [sp, #4]
 469 0010 1A60     		str	r2, [r3]
 470              		.loc 4 173 0
 471 0012 00BF     		nop
 472 0014 044B     		ldr	r3, .L36
 473 0016 039A     		ldr	r2, [sp, #12]
 474 0018 1B68     		ldr	r3, [r3]
 475 001a 9A42     		cmp	r2, r3
 476 001c 01D0     		beq	.L35
 477 001e FFF7FEFF 		bl	__stack_chk_fail
 478              	.L35:
 479 0022 05B0     		add	sp, sp, #20
 480              		.cfi_def_cfa_offset 4
 481              		@ sp needed
 482 0024 5DF804FB 		ldr	pc, [sp], #4
 483              	.L37:
 484              		.align	2
 485              	.L36:
 486 0028 00000000 		.word	__stack_chk_guard
 487              		.cfi_endproc
 488              	.LFE194:
 489              		.size	chEvtObjectInit, .-chEvtObjectInit
 490              		.section	.text.chIQGetEmptyI,"ax",%progbits
 491              		.align	1
 492              		.p2align 4,,15
 493              		.syntax unified
 494              		.thumb
 495              		.thumb_func
 496              		.fpu fpv4-sp-d16
 497              		.type	chIQGetEmptyI, %function
 498              	chIQGetEmptyI:
 499              	.LFB210:
 500              		.file 5 "../lib/e-puck2_main-processor/ChibiOS//os/rt/include/chqueues.h"
 501              		.loc 5 286 0
 502              		.cfi_startproc
 503              		@ args = 0, pretend = 0, frame = 16
 504              		@ frame_needed = 0, uses_anonymous_args = 0
 505 0000 00B5     		push	{lr}
 506              		.cfi_def_cfa_offset 4
 507              		.cfi_offset 14, -4
 508 0002 85B0     		sub	sp, sp, #20
 509              		.cfi_def_cfa_offset 24
 510 0004 0190     		str	r0, [sp, #4]
 511              		.loc 5 286 0
 512 0006 0D4B     		ldr	r3, .L41
 513 0008 1B68     		ldr	r3, [r3]
ARM GAS  C:\Users\PCHAUT~1\AppData\Local\Temp\ccOhqcVB.s 			page 10


 514 000a 0393     		str	r3, [sp, #12]
 515              		.loc 5 288 0
 516 000c FFF7FEFF 		bl	chDbgCheckClassI
 517              		.loc 5 290 0
 518 0010 019B     		ldr	r3, [sp, #4]
 519 0012 1B69     		ldr	r3, [r3, #16]
 520 0014 1A46     		mov	r2, r3
 521 0016 019B     		ldr	r3, [sp, #4]
 522 0018 DB68     		ldr	r3, [r3, #12]
 523 001a D31A     		subs	r3, r2, r3
 524 001c 1A46     		mov	r2, r3
 525 001e 019B     		ldr	r3, [sp, #4]
 526 0020 9B68     		ldr	r3, [r3, #8]
 527 0022 D31A     		subs	r3, r2, r3
 528              		.loc 5 291 0
 529 0024 1846     		mov	r0, r3
 530 0026 054B     		ldr	r3, .L41
 531 0028 039A     		ldr	r2, [sp, #12]
 532 002a 1B68     		ldr	r3, [r3]
 533 002c 9A42     		cmp	r2, r3
 534 002e 01D0     		beq	.L40
 535 0030 FFF7FEFF 		bl	__stack_chk_fail
 536              	.L40:
 537 0034 05B0     		add	sp, sp, #20
 538              		.cfi_def_cfa_offset 4
 539              		@ sp needed
 540 0036 5DF804FB 		ldr	pc, [sp], #4
 541              	.L42:
 542 003a 00BF     		.align	2
 543              	.L41:
 544 003c 00000000 		.word	__stack_chk_guard
 545              		.cfi_endproc
 546              	.LFE210:
 547              		.size	chIQGetEmptyI, .-chIQGetEmptyI
 548              		.section	.text.chOQGetFullI,"ax",%progbits
 549              		.align	1
 550              		.p2align 4,,15
 551              		.syntax unified
 552              		.thumb
 553              		.thumb_func
 554              		.fpu fpv4-sp-d16
 555              		.type	chOQGetFullI, %function
 556              	chOQGetFullI:
 557              	.LFB214:
 558              		.loc 5 353 0
 559              		.cfi_startproc
 560              		@ args = 0, pretend = 0, frame = 16
 561              		@ frame_needed = 0, uses_anonymous_args = 0
 562 0000 00B5     		push	{lr}
 563              		.cfi_def_cfa_offset 4
 564              		.cfi_offset 14, -4
 565 0002 85B0     		sub	sp, sp, #20
 566              		.cfi_def_cfa_offset 24
 567 0004 0190     		str	r0, [sp, #4]
 568              		.loc 5 353 0
 569 0006 0D4B     		ldr	r3, .L46
 570 0008 1B68     		ldr	r3, [r3]
ARM GAS  C:\Users\PCHAUT~1\AppData\Local\Temp\ccOhqcVB.s 			page 11


 571 000a 0393     		str	r3, [sp, #12]
 572              		.loc 5 355 0
 573 000c FFF7FEFF 		bl	chDbgCheckClassI
 574              		.loc 5 357 0
 575 0010 019B     		ldr	r3, [sp, #4]
 576 0012 1B69     		ldr	r3, [r3, #16]
 577 0014 1A46     		mov	r2, r3
 578 0016 019B     		ldr	r3, [sp, #4]
 579 0018 DB68     		ldr	r3, [r3, #12]
 580 001a D31A     		subs	r3, r2, r3
 581 001c 1A46     		mov	r2, r3
 582 001e 019B     		ldr	r3, [sp, #4]
 583 0020 9B68     		ldr	r3, [r3, #8]
 584 0022 D31A     		subs	r3, r2, r3
 585              		.loc 5 358 0
 586 0024 1846     		mov	r0, r3
 587 0026 054B     		ldr	r3, .L46
 588 0028 039A     		ldr	r2, [sp, #12]
 589 002a 1B68     		ldr	r3, [r3]
 590 002c 9A42     		cmp	r2, r3
 591 002e 01D0     		beq	.L45
 592 0030 FFF7FEFF 		bl	__stack_chk_fail
 593              	.L45:
 594 0034 05B0     		add	sp, sp, #20
 595              		.cfi_def_cfa_offset 4
 596              		@ sp needed
 597 0036 5DF804FB 		ldr	pc, [sp], #4
 598              	.L47:
 599 003a 00BF     		.align	2
 600              	.L46:
 601 003c 00000000 		.word	__stack_chk_guard
 602              		.cfi_endproc
 603              	.LFE214:
 604              		.size	chOQGetFullI, .-chOQGetFullI
 605              		.section	.text.osalSysLock,"ax",%progbits
 606              		.align	1
 607              		.p2align 4,,15
 608              		.syntax unified
 609              		.thumb
 610              		.thumb_func
 611              		.fpu fpv4-sp-d16
 612              		.type	osalSysLock, %function
 613              	osalSysLock:
 614              	.LFB223:
 615              		.file 6 "../lib/e-puck2_main-processor/ChibiOS//os/hal/osal/rt/osal.h"
 616              		.loc 6 445 0
 617              		.cfi_startproc
 618              		@ args = 0, pretend = 0, frame = 8
 619              		@ frame_needed = 0, uses_anonymous_args = 0
 620 0000 00B5     		push	{lr}
 621              		.cfi_def_cfa_offset 4
 622              		.cfi_offset 14, -4
 623 0002 83B0     		sub	sp, sp, #12
 624              		.cfi_def_cfa_offset 16
 625              		.loc 6 445 0
 626 0004 074B     		ldr	r3, .L50
 627 0006 1B68     		ldr	r3, [r3]
ARM GAS  C:\Users\PCHAUT~1\AppData\Local\Temp\ccOhqcVB.s 			page 12


 628 0008 0193     		str	r3, [sp, #4]
 629              		.loc 6 447 0
 630 000a FFF7FEFF 		bl	chSysLock
 631              		.loc 6 448 0
 632 000e 00BF     		nop
 633 0010 044B     		ldr	r3, .L50
 634 0012 019A     		ldr	r2, [sp, #4]
 635 0014 1B68     		ldr	r3, [r3]
 636 0016 9A42     		cmp	r2, r3
 637 0018 01D0     		beq	.L49
 638 001a FFF7FEFF 		bl	__stack_chk_fail
 639              	.L49:
 640 001e 03B0     		add	sp, sp, #12
 641              		.cfi_def_cfa_offset 4
 642              		@ sp needed
 643 0020 5DF804FB 		ldr	pc, [sp], #4
 644              	.L51:
 645              		.align	2
 646              	.L50:
 647 0024 00000000 		.word	__stack_chk_guard
 648              		.cfi_endproc
 649              	.LFE223:
 650              		.size	osalSysLock, .-osalSysLock
 651              		.section	.text.osalSysUnlock,"ax",%progbits
 652              		.align	1
 653              		.p2align 4,,15
 654              		.syntax unified
 655              		.thumb
 656              		.thumb_func
 657              		.fpu fpv4-sp-d16
 658              		.type	osalSysUnlock, %function
 659              	osalSysUnlock:
 660              	.LFB224:
 661              		.loc 6 456 0
 662              		.cfi_startproc
 663              		@ args = 0, pretend = 0, frame = 8
 664              		@ frame_needed = 0, uses_anonymous_args = 0
 665 0000 00B5     		push	{lr}
 666              		.cfi_def_cfa_offset 4
 667              		.cfi_offset 14, -4
 668 0002 83B0     		sub	sp, sp, #12
 669              		.cfi_def_cfa_offset 16
 670              		.loc 6 456 0
 671 0004 074B     		ldr	r3, .L54
 672 0006 1B68     		ldr	r3, [r3]
 673 0008 0193     		str	r3, [sp, #4]
 674              		.loc 6 458 0
 675 000a FFF7FEFF 		bl	chSysUnlock
 676              		.loc 6 459 0
 677 000e 00BF     		nop
 678 0010 044B     		ldr	r3, .L54
 679 0012 019A     		ldr	r2, [sp, #4]
 680 0014 1B68     		ldr	r3, [r3]
 681 0016 9A42     		cmp	r2, r3
 682 0018 01D0     		beq	.L53
 683 001a FFF7FEFF 		bl	__stack_chk_fail
 684              	.L53:
ARM GAS  C:\Users\PCHAUT~1\AppData\Local\Temp\ccOhqcVB.s 			page 13


 685 001e 03B0     		add	sp, sp, #12
 686              		.cfi_def_cfa_offset 4
 687              		@ sp needed
 688 0020 5DF804FB 		ldr	pc, [sp], #4
 689              	.L55:
 690              		.align	2
 691              	.L54:
 692 0024 00000000 		.word	__stack_chk_guard
 693              		.cfi_endproc
 694              	.LFE224:
 695              		.size	osalSysUnlock, .-osalSysUnlock
 696              		.section	.text.osalSysLockFromISR,"ax",%progbits
 697              		.align	1
 698              		.p2align 4,,15
 699              		.syntax unified
 700              		.thumb
 701              		.thumb_func
 702              		.fpu fpv4-sp-d16
 703              		.type	osalSysLockFromISR, %function
 704              	osalSysLockFromISR:
 705              	.LFB225:
 706              		.loc 6 467 0
 707              		.cfi_startproc
 708              		@ args = 0, pretend = 0, frame = 8
 709              		@ frame_needed = 0, uses_anonymous_args = 0
 710 0000 00B5     		push	{lr}
 711              		.cfi_def_cfa_offset 4
 712              		.cfi_offset 14, -4
 713 0002 83B0     		sub	sp, sp, #12
 714              		.cfi_def_cfa_offset 16
 715              		.loc 6 467 0
 716 0004 074B     		ldr	r3, .L58
 717 0006 1B68     		ldr	r3, [r3]
 718 0008 0193     		str	r3, [sp, #4]
 719              		.loc 6 469 0
 720 000a FFF7FEFF 		bl	chSysLockFromISR
 721              		.loc 6 470 0
 722 000e 00BF     		nop
 723 0010 044B     		ldr	r3, .L58
 724 0012 019A     		ldr	r2, [sp, #4]
 725 0014 1B68     		ldr	r3, [r3]
 726 0016 9A42     		cmp	r2, r3
 727 0018 01D0     		beq	.L57
 728 001a FFF7FEFF 		bl	__stack_chk_fail
 729              	.L57:
 730 001e 03B0     		add	sp, sp, #12
 731              		.cfi_def_cfa_offset 4
 732              		@ sp needed
 733 0020 5DF804FB 		ldr	pc, [sp], #4
 734              	.L59:
 735              		.align	2
 736              	.L58:
 737 0024 00000000 		.word	__stack_chk_guard
 738              		.cfi_endproc
 739              	.LFE225:
 740              		.size	osalSysLockFromISR, .-osalSysLockFromISR
 741              		.section	.text.osalSysUnlockFromISR,"ax",%progbits
ARM GAS  C:\Users\PCHAUT~1\AppData\Local\Temp\ccOhqcVB.s 			page 14


 742              		.align	1
 743              		.p2align 4,,15
 744              		.syntax unified
 745              		.thumb
 746              		.thumb_func
 747              		.fpu fpv4-sp-d16
 748              		.type	osalSysUnlockFromISR, %function
 749              	osalSysUnlockFromISR:
 750              	.LFB226:
 751              		.loc 6 478 0
 752              		.cfi_startproc
 753              		@ args = 0, pretend = 0, frame = 8
 754              		@ frame_needed = 0, uses_anonymous_args = 0
 755 0000 00B5     		push	{lr}
 756              		.cfi_def_cfa_offset 4
 757              		.cfi_offset 14, -4
 758 0002 83B0     		sub	sp, sp, #12
 759              		.cfi_def_cfa_offset 16
 760              		.loc 6 478 0
 761 0004 074B     		ldr	r3, .L62
 762 0006 1B68     		ldr	r3, [r3]
 763 0008 0193     		str	r3, [sp, #4]
 764              		.loc 6 480 0
 765 000a FFF7FEFF 		bl	chSysUnlockFromISR
 766              		.loc 6 481 0
 767 000e 00BF     		nop
 768 0010 044B     		ldr	r3, .L62
 769 0012 019A     		ldr	r2, [sp, #4]
 770 0014 1B68     		ldr	r3, [r3]
 771 0016 9A42     		cmp	r2, r3
 772 0018 01D0     		beq	.L61
 773 001a FFF7FEFF 		bl	__stack_chk_fail
 774              	.L61:
 775 001e 03B0     		add	sp, sp, #12
 776              		.cfi_def_cfa_offset 4
 777              		@ sp needed
 778 0020 5DF804FB 		ldr	pc, [sp], #4
 779              	.L63:
 780              		.align	2
 781              	.L62:
 782 0024 00000000 		.word	__stack_chk_guard
 783              		.cfi_endproc
 784              	.LFE226:
 785              		.size	osalSysUnlockFromISR, .-osalSysUnlockFromISR
 786              		.section	.text.osalOsRescheduleS,"ax",%progbits
 787              		.align	1
 788              		.p2align 4,,15
 789              		.syntax unified
 790              		.thumb
 791              		.thumb_func
 792              		.fpu fpv4-sp-d16
 793              		.type	osalOsRescheduleS, %function
 794              	osalOsRescheduleS:
 795              	.LFB231:
 796              		.loc 6 552 0
 797              		.cfi_startproc
 798              		@ args = 0, pretend = 0, frame = 8
ARM GAS  C:\Users\PCHAUT~1\AppData\Local\Temp\ccOhqcVB.s 			page 15


 799              		@ frame_needed = 0, uses_anonymous_args = 0
 800 0000 00B5     		push	{lr}
 801              		.cfi_def_cfa_offset 4
 802              		.cfi_offset 14, -4
 803 0002 83B0     		sub	sp, sp, #12
 804              		.cfi_def_cfa_offset 16
 805              		.loc 6 552 0
 806 0004 074B     		ldr	r3, .L66
 807 0006 1B68     		ldr	r3, [r3]
 808 0008 0193     		str	r3, [sp, #4]
 809              		.loc 6 554 0
 810 000a FFF7FEFF 		bl	chSchRescheduleS
 811              		.loc 6 555 0
 812 000e 00BF     		nop
 813 0010 044B     		ldr	r3, .L66
 814 0012 019A     		ldr	r2, [sp, #4]
 815 0014 1B68     		ldr	r3, [r3]
 816 0016 9A42     		cmp	r2, r3
 817 0018 01D0     		beq	.L65
 818 001a FFF7FEFF 		bl	__stack_chk_fail
 819              	.L65:
 820 001e 03B0     		add	sp, sp, #12
 821              		.cfi_def_cfa_offset 4
 822              		@ sp needed
 823 0020 5DF804FB 		ldr	pc, [sp], #4
 824              	.L67:
 825              		.align	2
 826              	.L66:
 827 0024 00000000 		.word	__stack_chk_guard
 828              		.cfi_endproc
 829              	.LFE231:
 830              		.size	osalOsRescheduleS, .-osalOsRescheduleS
 831              		.section	.text.osalEventObjectInit,"ax",%progbits
 832              		.align	1
 833              		.p2align 4,,15
 834              		.syntax unified
 835              		.thumb
 836              		.thumb_func
 837              		.fpu fpv4-sp-d16
 838              		.type	osalEventObjectInit, %function
 839              	osalEventObjectInit:
 840              	.LFB244:
 841              		.loc 6 775 0
 842              		.cfi_startproc
 843              		@ args = 0, pretend = 0, frame = 16
 844              		@ frame_needed = 0, uses_anonymous_args = 0
 845 0000 00B5     		push	{lr}
 846              		.cfi_def_cfa_offset 4
 847              		.cfi_offset 14, -4
 848 0002 85B0     		sub	sp, sp, #20
 849              		.cfi_def_cfa_offset 24
 850 0004 0190     		str	r0, [sp, #4]
 851              		.loc 6 775 0
 852 0006 084B     		ldr	r3, .L70
 853 0008 1B68     		ldr	r3, [r3]
 854 000a 0393     		str	r3, [sp, #12]
 855              		.loc 6 777 0
ARM GAS  C:\Users\PCHAUT~1\AppData\Local\Temp\ccOhqcVB.s 			page 16


 856 000c 0198     		ldr	r0, [sp, #4]
 857 000e FFF7FEFF 		bl	chEvtObjectInit
 858              		.loc 6 778 0
 859 0012 00BF     		nop
 860 0014 044B     		ldr	r3, .L70
 861 0016 039A     		ldr	r2, [sp, #12]
 862 0018 1B68     		ldr	r3, [r3]
 863 001a 9A42     		cmp	r2, r3
 864 001c 01D0     		beq	.L69
 865 001e FFF7FEFF 		bl	__stack_chk_fail
 866              	.L69:
 867 0022 05B0     		add	sp, sp, #20
 868              		.cfi_def_cfa_offset 4
 869              		@ sp needed
 870 0024 5DF804FB 		ldr	pc, [sp], #4
 871              	.L71:
 872              		.align	2
 873              	.L70:
 874 0028 00000000 		.word	__stack_chk_guard
 875              		.cfi_endproc
 876              	.LFE244:
 877              		.size	osalEventObjectInit, .-osalEventObjectInit
 878              		.section	.text.osalEventBroadcastFlagsI,"ax",%progbits
 879              		.align	1
 880              		.p2align 4,,15
 881              		.syntax unified
 882              		.thumb
 883              		.thumb_func
 884              		.fpu fpv4-sp-d16
 885              		.type	osalEventBroadcastFlagsI, %function
 886              	osalEventBroadcastFlagsI:
 887              	.LFB245:
 888              		.loc 6 796 0
 889              		.cfi_startproc
 890              		@ args = 0, pretend = 0, frame = 16
 891              		@ frame_needed = 0, uses_anonymous_args = 0
 892 0000 00B5     		push	{lr}
 893              		.cfi_def_cfa_offset 4
 894              		.cfi_offset 14, -4
 895 0002 85B0     		sub	sp, sp, #20
 896              		.cfi_def_cfa_offset 24
 897 0004 0190     		str	r0, [sp, #4]
 898 0006 0091     		str	r1, [sp]
 899              		.loc 6 796 0
 900 0008 084B     		ldr	r3, .L74
 901 000a 1B68     		ldr	r3, [r3]
 902 000c 0393     		str	r3, [sp, #12]
 903              		.loc 6 798 0
 904 000e 0099     		ldr	r1, [sp]
 905 0010 0198     		ldr	r0, [sp, #4]
 906 0012 FFF7FEFF 		bl	chEvtBroadcastFlagsI
 907              		.loc 6 799 0
 908 0016 00BF     		nop
 909 0018 044B     		ldr	r3, .L74
 910 001a 039A     		ldr	r2, [sp, #12]
 911 001c 1B68     		ldr	r3, [r3]
 912 001e 9A42     		cmp	r2, r3
ARM GAS  C:\Users\PCHAUT~1\AppData\Local\Temp\ccOhqcVB.s 			page 17


 913 0020 01D0     		beq	.L73
 914 0022 FFF7FEFF 		bl	__stack_chk_fail
 915              	.L73:
 916 0026 05B0     		add	sp, sp, #20
 917              		.cfi_def_cfa_offset 4
 918              		@ sp needed
 919 0028 5DF804FB 		ldr	pc, [sp], #4
 920              	.L75:
 921              		.align	2
 922              	.L74:
 923 002c 00000000 		.word	__stack_chk_guard
 924              		.cfi_endproc
 925              	.LFE245:
 926              		.size	osalEventBroadcastFlagsI, .-osalEventBroadcastFlagsI
 927              		.section	.data.linecoding,"aw",%progbits
 928              		.align	2
 929              		.type	linecoding, %object
 930              		.size	linecoding, 7
 931              	linecoding:
 932 0000 00       		.byte	0
 933 0001 96       		.byte	-106
 934 0002 00       		.byte	0
 935 0003 00       		.byte	0
 936 0004 00       		.byte	0
 937 0005 00       		.byte	0
 938 0006 08       		.byte	8
 939              		.section	.text.write,"ax",%progbits
 940              		.align	1
 941              		.p2align 4,,15
 942              		.syntax unified
 943              		.thumb
 944              		.thumb_func
 945              		.fpu fpv4-sp-d16
 946              		.type	write, %function
 947              	write:
 948              	.LFB256:
 949              		.file 7 "../lib/e-puck2_main-processor/ChibiOS//os/hal/src/serial_usb.c"
 950              		.loc 7 57 0
 951              		.cfi_startproc
 952              		@ args = 0, pretend = 0, frame = 24
 953              		@ frame_needed = 0, uses_anonymous_args = 0
 954 0000 00B5     		push	{lr}
 955              		.cfi_def_cfa_offset 4
 956              		.cfi_offset 14, -4
 957 0002 87B0     		sub	sp, sp, #28
 958              		.cfi_def_cfa_offset 32
 959 0004 0390     		str	r0, [sp, #12]
 960 0006 0291     		str	r1, [sp, #8]
 961 0008 0192     		str	r2, [sp, #4]
 962              		.loc 7 57 0
 963 000a 0C4B     		ldr	r3, .L79
 964 000c 1B68     		ldr	r3, [r3]
 965 000e 0593     		str	r3, [sp, #20]
 966              		.loc 7 59 0
 967 0010 039B     		ldr	r3, [sp, #12]
 968 0012 03F13000 		add	r0, r3, #48
 969 0016 4FF0FF33 		mov	r3, #-1
ARM GAS  C:\Users\PCHAUT~1\AppData\Local\Temp\ccOhqcVB.s 			page 18


 970 001a 019A     		ldr	r2, [sp, #4]
 971 001c 0299     		ldr	r1, [sp, #8]
 972 001e FFF7FEFF 		bl	chOQWriteTimeout
 973 0022 0346     		mov	r3, r0
 974              		.loc 7 61 0
 975 0024 1846     		mov	r0, r3
 976 0026 054B     		ldr	r3, .L79
 977 0028 059A     		ldr	r2, [sp, #20]
 978 002a 1B68     		ldr	r3, [r3]
 979 002c 9A42     		cmp	r2, r3
 980 002e 01D0     		beq	.L78
 981 0030 FFF7FEFF 		bl	__stack_chk_fail
 982              	.L78:
 983 0034 07B0     		add	sp, sp, #28
 984              		.cfi_def_cfa_offset 4
 985              		@ sp needed
 986 0036 5DF804FB 		ldr	pc, [sp], #4
 987              	.L80:
 988 003a 00BF     		.align	2
 989              	.L79:
 990 003c 00000000 		.word	__stack_chk_guard
 991              		.cfi_endproc
 992              	.LFE256:
 993              		.size	write, .-write
 994              		.section	.text.read,"ax",%progbits
 995              		.align	1
 996              		.p2align 4,,15
 997              		.syntax unified
 998              		.thumb
 999              		.thumb_func
 1000              		.fpu fpv4-sp-d16
 1001              		.type	read, %function
 1002              	read:
 1003              	.LFB257:
 1004              		.loc 7 63 0
 1005              		.cfi_startproc
 1006              		@ args = 0, pretend = 0, frame = 24
 1007              		@ frame_needed = 0, uses_anonymous_args = 0
 1008 0000 00B5     		push	{lr}
 1009              		.cfi_def_cfa_offset 4
 1010              		.cfi_offset 14, -4
 1011 0002 87B0     		sub	sp, sp, #28
 1012              		.cfi_def_cfa_offset 32
 1013 0004 0390     		str	r0, [sp, #12]
 1014 0006 0291     		str	r1, [sp, #8]
 1015 0008 0192     		str	r2, [sp, #4]
 1016              		.loc 7 63 0
 1017 000a 0C4B     		ldr	r3, .L84
 1018 000c 1B68     		ldr	r3, [r3]
 1019 000e 0593     		str	r3, [sp, #20]
 1020              		.loc 7 65 0
 1021 0010 039B     		ldr	r3, [sp, #12]
 1022 0012 03F10C00 		add	r0, r3, #12
 1023 0016 4FF0FF33 		mov	r3, #-1
 1024 001a 019A     		ldr	r2, [sp, #4]
 1025 001c 0299     		ldr	r1, [sp, #8]
 1026 001e FFF7FEFF 		bl	chIQReadTimeout
ARM GAS  C:\Users\PCHAUT~1\AppData\Local\Temp\ccOhqcVB.s 			page 19


 1027 0022 0346     		mov	r3, r0
 1028              		.loc 7 67 0
 1029 0024 1846     		mov	r0, r3
 1030 0026 054B     		ldr	r3, .L84
 1031 0028 059A     		ldr	r2, [sp, #20]
 1032 002a 1B68     		ldr	r3, [r3]
 1033 002c 9A42     		cmp	r2, r3
 1034 002e 01D0     		beq	.L83
 1035 0030 FFF7FEFF 		bl	__stack_chk_fail
 1036              	.L83:
 1037 0034 07B0     		add	sp, sp, #28
 1038              		.cfi_def_cfa_offset 4
 1039              		@ sp needed
 1040 0036 5DF804FB 		ldr	pc, [sp], #4
 1041              	.L85:
 1042 003a 00BF     		.align	2
 1043              	.L84:
 1044 003c 00000000 		.word	__stack_chk_guard
 1045              		.cfi_endproc
 1046              	.LFE257:
 1047              		.size	read, .-read
 1048              		.section	.text.put,"ax",%progbits
 1049              		.align	1
 1050              		.p2align 4,,15
 1051              		.syntax unified
 1052              		.thumb
 1053              		.thumb_func
 1054              		.fpu fpv4-sp-d16
 1055              		.type	put, %function
 1056              	put:
 1057              	.LFB258:
 1058              		.loc 7 69 0
 1059              		.cfi_startproc
 1060              		@ args = 0, pretend = 0, frame = 16
 1061              		@ frame_needed = 0, uses_anonymous_args = 0
 1062 0000 00B5     		push	{lr}
 1063              		.cfi_def_cfa_offset 4
 1064              		.cfi_offset 14, -4
 1065 0002 85B0     		sub	sp, sp, #20
 1066              		.cfi_def_cfa_offset 24
 1067 0004 0190     		str	r0, [sp, #4]
 1068 0006 0B46     		mov	r3, r1
 1069 0008 8DF80330 		strb	r3, [sp, #3]
 1070              		.loc 7 69 0
 1071 000c 0B4B     		ldr	r3, .L89
 1072 000e 1B68     		ldr	r3, [r3]
 1073 0010 0393     		str	r3, [sp, #12]
 1074              		.loc 7 71 0
 1075 0012 019B     		ldr	r3, [sp, #4]
 1076 0014 3033     		adds	r3, r3, #48
 1077 0016 9DF80310 		ldrb	r1, [sp, #3]	@ zero_extendqisi2
 1078 001a 4FF0FF32 		mov	r2, #-1
 1079 001e 1846     		mov	r0, r3
 1080 0020 FFF7FEFF 		bl	chOQPutTimeout
 1081 0024 0346     		mov	r3, r0
 1082              		.loc 7 72 0
 1083 0026 1846     		mov	r0, r3
ARM GAS  C:\Users\PCHAUT~1\AppData\Local\Temp\ccOhqcVB.s 			page 20


 1084 0028 044B     		ldr	r3, .L89
 1085 002a 039A     		ldr	r2, [sp, #12]
 1086 002c 1B68     		ldr	r3, [r3]
 1087 002e 9A42     		cmp	r2, r3
 1088 0030 01D0     		beq	.L88
 1089 0032 FFF7FEFF 		bl	__stack_chk_fail
 1090              	.L88:
 1091 0036 05B0     		add	sp, sp, #20
 1092              		.cfi_def_cfa_offset 4
 1093              		@ sp needed
 1094 0038 5DF804FB 		ldr	pc, [sp], #4
 1095              	.L90:
 1096              		.align	2
 1097              	.L89:
 1098 003c 00000000 		.word	__stack_chk_guard
 1099              		.cfi_endproc
 1100              	.LFE258:
 1101              		.size	put, .-put
 1102              		.section	.text.get,"ax",%progbits
 1103              		.align	1
 1104              		.p2align 4,,15
 1105              		.syntax unified
 1106              		.thumb
 1107              		.thumb_func
 1108              		.fpu fpv4-sp-d16
 1109              		.type	get, %function
 1110              	get:
 1111              	.LFB259:
 1112              		.loc 7 74 0
 1113              		.cfi_startproc
 1114              		@ args = 0, pretend = 0, frame = 16
 1115              		@ frame_needed = 0, uses_anonymous_args = 0
 1116 0000 00B5     		push	{lr}
 1117              		.cfi_def_cfa_offset 4
 1118              		.cfi_offset 14, -4
 1119 0002 85B0     		sub	sp, sp, #20
 1120              		.cfi_def_cfa_offset 24
 1121 0004 0190     		str	r0, [sp, #4]
 1122              		.loc 7 74 0
 1123 0006 0B4B     		ldr	r3, .L94
 1124 0008 1B68     		ldr	r3, [r3]
 1125 000a 0393     		str	r3, [sp, #12]
 1126              		.loc 7 76 0
 1127 000c 019B     		ldr	r3, [sp, #4]
 1128 000e 0C33     		adds	r3, r3, #12
 1129 0010 4FF0FF31 		mov	r1, #-1
 1130 0014 1846     		mov	r0, r3
 1131 0016 FFF7FEFF 		bl	chIQGetTimeout
 1132 001a 0346     		mov	r3, r0
 1133              		.loc 7 77 0
 1134 001c 1846     		mov	r0, r3
 1135 001e 054B     		ldr	r3, .L94
 1136 0020 039A     		ldr	r2, [sp, #12]
 1137 0022 1B68     		ldr	r3, [r3]
 1138 0024 9A42     		cmp	r2, r3
 1139 0026 01D0     		beq	.L93
 1140 0028 FFF7FEFF 		bl	__stack_chk_fail
ARM GAS  C:\Users\PCHAUT~1\AppData\Local\Temp\ccOhqcVB.s 			page 21


 1141              	.L93:
 1142 002c 05B0     		add	sp, sp, #20
 1143              		.cfi_def_cfa_offset 4
 1144              		@ sp needed
 1145 002e 5DF804FB 		ldr	pc, [sp], #4
 1146              	.L95:
 1147 0032 00BF     		.align	2
 1148              	.L94:
 1149 0034 00000000 		.word	__stack_chk_guard
 1150              		.cfi_endproc
 1151              	.LFE259:
 1152              		.size	get, .-get
 1153              		.section	.text.putt,"ax",%progbits
 1154              		.align	1
 1155              		.p2align 4,,15
 1156              		.syntax unified
 1157              		.thumb
 1158              		.thumb_func
 1159              		.fpu fpv4-sp-d16
 1160              		.type	putt, %function
 1161              	putt:
 1162              	.LFB260:
 1163              		.loc 7 79 0
 1164              		.cfi_startproc
 1165              		@ args = 0, pretend = 0, frame = 24
 1166              		@ frame_needed = 0, uses_anonymous_args = 0
 1167 0000 00B5     		push	{lr}
 1168              		.cfi_def_cfa_offset 4
 1169              		.cfi_offset 14, -4
 1170 0002 87B0     		sub	sp, sp, #28
 1171              		.cfi_def_cfa_offset 32
 1172 0004 0390     		str	r0, [sp, #12]
 1173 0006 0B46     		mov	r3, r1
 1174 0008 0192     		str	r2, [sp, #4]
 1175 000a 8DF80B30 		strb	r3, [sp, #11]
 1176              		.loc 7 79 0
 1177 000e 0B4B     		ldr	r3, .L99
 1178 0010 1B68     		ldr	r3, [r3]
 1179 0012 0593     		str	r3, [sp, #20]
 1180              		.loc 7 81 0
 1181 0014 039B     		ldr	r3, [sp, #12]
 1182 0016 3033     		adds	r3, r3, #48
 1183 0018 9DF80B10 		ldrb	r1, [sp, #11]	@ zero_extendqisi2
 1184 001c 019A     		ldr	r2, [sp, #4]
 1185 001e 1846     		mov	r0, r3
 1186 0020 FFF7FEFF 		bl	chOQPutTimeout
 1187 0024 0346     		mov	r3, r0
 1188              		.loc 7 82 0
 1189 0026 1846     		mov	r0, r3
 1190 0028 044B     		ldr	r3, .L99
 1191 002a 059A     		ldr	r2, [sp, #20]
 1192 002c 1B68     		ldr	r3, [r3]
 1193 002e 9A42     		cmp	r2, r3
 1194 0030 01D0     		beq	.L98
 1195 0032 FFF7FEFF 		bl	__stack_chk_fail
 1196              	.L98:
 1197 0036 07B0     		add	sp, sp, #28
ARM GAS  C:\Users\PCHAUT~1\AppData\Local\Temp\ccOhqcVB.s 			page 22


 1198              		.cfi_def_cfa_offset 4
 1199              		@ sp needed
 1200 0038 5DF804FB 		ldr	pc, [sp], #4
 1201              	.L100:
 1202              		.align	2
 1203              	.L99:
 1204 003c 00000000 		.word	__stack_chk_guard
 1205              		.cfi_endproc
 1206              	.LFE260:
 1207              		.size	putt, .-putt
 1208              		.section	.text.gett,"ax",%progbits
 1209              		.align	1
 1210              		.p2align 4,,15
 1211              		.syntax unified
 1212              		.thumb
 1213              		.thumb_func
 1214              		.fpu fpv4-sp-d16
 1215              		.type	gett, %function
 1216              	gett:
 1217              	.LFB261:
 1218              		.loc 7 84 0
 1219              		.cfi_startproc
 1220              		@ args = 0, pretend = 0, frame = 16
 1221              		@ frame_needed = 0, uses_anonymous_args = 0
 1222 0000 00B5     		push	{lr}
 1223              		.cfi_def_cfa_offset 4
 1224              		.cfi_offset 14, -4
 1225 0002 85B0     		sub	sp, sp, #20
 1226              		.cfi_def_cfa_offset 24
 1227 0004 0190     		str	r0, [sp, #4]
 1228 0006 0091     		str	r1, [sp]
 1229              		.loc 7 84 0
 1230 0008 0A4B     		ldr	r3, .L104
 1231 000a 1B68     		ldr	r3, [r3]
 1232 000c 0393     		str	r3, [sp, #12]
 1233              		.loc 7 86 0
 1234 000e 019B     		ldr	r3, [sp, #4]
 1235 0010 0C33     		adds	r3, r3, #12
 1236 0012 0099     		ldr	r1, [sp]
 1237 0014 1846     		mov	r0, r3
 1238 0016 FFF7FEFF 		bl	chIQGetTimeout
 1239 001a 0346     		mov	r3, r0
 1240              		.loc 7 87 0
 1241 001c 1846     		mov	r0, r3
 1242 001e 054B     		ldr	r3, .L104
 1243 0020 039A     		ldr	r2, [sp, #12]
 1244 0022 1B68     		ldr	r3, [r3]
 1245 0024 9A42     		cmp	r2, r3
 1246 0026 01D0     		beq	.L103
 1247 0028 FFF7FEFF 		bl	__stack_chk_fail
 1248              	.L103:
 1249 002c 05B0     		add	sp, sp, #20
 1250              		.cfi_def_cfa_offset 4
 1251              		@ sp needed
 1252 002e 5DF804FB 		ldr	pc, [sp], #4
 1253              	.L105:
 1254 0032 00BF     		.align	2
ARM GAS  C:\Users\PCHAUT~1\AppData\Local\Temp\ccOhqcVB.s 			page 23


 1255              	.L104:
 1256 0034 00000000 		.word	__stack_chk_guard
 1257              		.cfi_endproc
 1258              	.LFE261:
 1259              		.size	gett, .-gett
 1260              		.section	.text.writet,"ax",%progbits
 1261              		.align	1
 1262              		.p2align 4,,15
 1263              		.syntax unified
 1264              		.thumb
 1265              		.thumb_func
 1266              		.fpu fpv4-sp-d16
 1267              		.type	writet, %function
 1268              	writet:
 1269              	.LFB262:
 1270              		.loc 7 89 0
 1271              		.cfi_startproc
 1272              		@ args = 0, pretend = 0, frame = 24
 1273              		@ frame_needed = 0, uses_anonymous_args = 0
 1274 0000 00B5     		push	{lr}
 1275              		.cfi_def_cfa_offset 4
 1276              		.cfi_offset 14, -4
 1277 0002 87B0     		sub	sp, sp, #28
 1278              		.cfi_def_cfa_offset 32
 1279 0004 0390     		str	r0, [sp, #12]
 1280 0006 0291     		str	r1, [sp, #8]
 1281 0008 0192     		str	r2, [sp, #4]
 1282 000a 0093     		str	r3, [sp]
 1283              		.loc 7 89 0
 1284 000c 0B4B     		ldr	r3, .L109
 1285 000e 1B68     		ldr	r3, [r3]
 1286 0010 0593     		str	r3, [sp, #20]
 1287              		.loc 7 91 0
 1288 0012 039B     		ldr	r3, [sp, #12]
 1289 0014 03F13000 		add	r0, r3, #48
 1290 0018 009B     		ldr	r3, [sp]
 1291 001a 019A     		ldr	r2, [sp, #4]
 1292 001c 0299     		ldr	r1, [sp, #8]
 1293 001e FFF7FEFF 		bl	chOQWriteTimeout
 1294 0022 0346     		mov	r3, r0
 1295              		.loc 7 92 0
 1296 0024 1846     		mov	r0, r3
 1297 0026 054B     		ldr	r3, .L109
 1298 0028 059A     		ldr	r2, [sp, #20]
 1299 002a 1B68     		ldr	r3, [r3]
 1300 002c 9A42     		cmp	r2, r3
 1301 002e 01D0     		beq	.L108
 1302 0030 FFF7FEFF 		bl	__stack_chk_fail
 1303              	.L108:
 1304 0034 07B0     		add	sp, sp, #28
 1305              		.cfi_def_cfa_offset 4
 1306              		@ sp needed
 1307 0036 5DF804FB 		ldr	pc, [sp], #4
 1308              	.L110:
 1309 003a 00BF     		.align	2
 1310              	.L109:
 1311 003c 00000000 		.word	__stack_chk_guard
ARM GAS  C:\Users\PCHAUT~1\AppData\Local\Temp\ccOhqcVB.s 			page 24


 1312              		.cfi_endproc
 1313              	.LFE262:
 1314              		.size	writet, .-writet
 1315              		.section	.text.readt,"ax",%progbits
 1316              		.align	1
 1317              		.p2align 4,,15
 1318              		.syntax unified
 1319              		.thumb
 1320              		.thumb_func
 1321              		.fpu fpv4-sp-d16
 1322              		.type	readt, %function
 1323              	readt:
 1324              	.LFB263:
 1325              		.loc 7 94 0
 1326              		.cfi_startproc
 1327              		@ args = 0, pretend = 0, frame = 24
 1328              		@ frame_needed = 0, uses_anonymous_args = 0
 1329 0000 00B5     		push	{lr}
 1330              		.cfi_def_cfa_offset 4
 1331              		.cfi_offset 14, -4
 1332 0002 87B0     		sub	sp, sp, #28
 1333              		.cfi_def_cfa_offset 32
 1334 0004 0390     		str	r0, [sp, #12]
 1335 0006 0291     		str	r1, [sp, #8]
 1336 0008 0192     		str	r2, [sp, #4]
 1337 000a 0093     		str	r3, [sp]
 1338              		.loc 7 94 0
 1339 000c 0B4B     		ldr	r3, .L114
 1340 000e 1B68     		ldr	r3, [r3]
 1341 0010 0593     		str	r3, [sp, #20]
 1342              		.loc 7 96 0
 1343 0012 039B     		ldr	r3, [sp, #12]
 1344 0014 03F10C00 		add	r0, r3, #12
 1345 0018 009B     		ldr	r3, [sp]
 1346 001a 019A     		ldr	r2, [sp, #4]
 1347 001c 0299     		ldr	r1, [sp, #8]
 1348 001e FFF7FEFF 		bl	chIQReadTimeout
 1349 0022 0346     		mov	r3, r0
 1350              		.loc 7 97 0
 1351 0024 1846     		mov	r0, r3
 1352 0026 054B     		ldr	r3, .L114
 1353 0028 059A     		ldr	r2, [sp, #20]
 1354 002a 1B68     		ldr	r3, [r3]
 1355 002c 9A42     		cmp	r2, r3
 1356 002e 01D0     		beq	.L113
 1357 0030 FFF7FEFF 		bl	__stack_chk_fail
 1358              	.L113:
 1359 0034 07B0     		add	sp, sp, #28
 1360              		.cfi_def_cfa_offset 4
 1361              		@ sp needed
 1362 0036 5DF804FB 		ldr	pc, [sp], #4
 1363              	.L115:
 1364 003a 00BF     		.align	2
 1365              	.L114:
 1366 003c 00000000 		.word	__stack_chk_guard
 1367              		.cfi_endproc
 1368              	.LFE263:
ARM GAS  C:\Users\PCHAUT~1\AppData\Local\Temp\ccOhqcVB.s 			page 25


 1369              		.size	readt, .-readt
 1370              		.section	.rodata.vmt,"a",%progbits
 1371              		.align	2
 1372              		.type	vmt, %object
 1373              		.size	vmt, 32
 1374              	vmt:
 1375 0000 00000000 		.word	write
 1376 0004 00000000 		.word	read
 1377 0008 00000000 		.word	put
 1378 000c 00000000 		.word	get
 1379 0010 00000000 		.word	putt
 1380 0014 00000000 		.word	gett
 1381 0018 00000000 		.word	writet
 1382 001c 00000000 		.word	readt
 1383              		.section	.text.inotify,"ax",%progbits
 1384              		.align	1
 1385              		.p2align 4,,15
 1386              		.syntax unified
 1387              		.thumb
 1388              		.thumb_func
 1389              		.fpu fpv4-sp-d16
 1390              		.type	inotify, %function
 1391              	inotify:
 1392              	.LFB264:
 1393              		.loc 7 109 0
 1394              		.cfi_startproc
 1395              		@ args = 0, pretend = 0, frame = 24
 1396              		@ frame_needed = 0, uses_anonymous_args = 0
 1397 0000 00B5     		push	{lr}
 1398              		.cfi_def_cfa_offset 4
 1399              		.cfi_offset 14, -4
 1400 0002 87B0     		sub	sp, sp, #28
 1401              		.cfi_def_cfa_offset 32
 1402 0004 0190     		str	r0, [sp, #4]
 1403              		.loc 7 109 0
 1404 0006 364B     		ldr	r3, .L122
 1405 0008 1B68     		ldr	r3, [r3]
 1406 000a 0593     		str	r3, [sp, #20]
 1407              		.loc 7 111 0
 1408 000c 019B     		ldr	r3, [sp, #4]
 1409 000e 1B6A     		ldr	r3, [r3, #32]
 1410 0010 0293     		str	r3, [sp, #8]
 1411              		.loc 7 115 0
 1412 0012 029B     		ldr	r3, [sp, #8]
 1413 0014 D3F85432 		ldr	r3, [r3, #596]
 1414 0018 1B68     		ldr	r3, [r3]
 1415 001a 1B78     		ldrb	r3, [r3]	@ zero_extendqisi2
 1416 001c 042B     		cmp	r3, #4
 1417 001e 53D1     		bne	.L121
 1418              		.loc 7 116 0 discriminator 1
 1419 0020 029B     		ldr	r3, [sp, #8]
 1420 0022 1B7A     		ldrb	r3, [r3, #8]	@ zero_extendqisi2
 1421              		.loc 7 115 0 discriminator 1
 1422 0024 022B     		cmp	r3, #2
 1423 0026 4FD1     		bne	.L121
 1424              		.loc 7 123 0
 1425 0028 029B     		ldr	r3, [sp, #8]
ARM GAS  C:\Users\PCHAUT~1\AppData\Local\Temp\ccOhqcVB.s 			page 26


 1426 002a D3F85432 		ldr	r3, [r3, #596]
 1427 002e 1A68     		ldr	r2, [r3]
 1428 0030 029B     		ldr	r3, [sp, #8]
 1429 0032 D3F85432 		ldr	r3, [r3, #596]
 1430 0036 5B79     		ldrb	r3, [r3, #5]	@ zero_extendqisi2
 1431 0038 0233     		adds	r3, r3, #2
 1432 003a 9B00     		lsls	r3, r3, #2
 1433 003c 1344     		add	r3, r3, r2
 1434 003e 5B68     		ldr	r3, [r3, #4]
 1435 0040 5B8A     		ldrh	r3, [r3, #18]
 1436 0042 0393     		str	r3, [sp, #12]
 1437              		.loc 7 124 0
 1438 0044 029B     		ldr	r3, [sp, #8]
 1439 0046 D3F85432 		ldr	r3, [r3, #596]
 1440 004a 1B68     		ldr	r3, [r3]
 1441 004c 5A89     		ldrh	r2, [r3, #10]
 1442 004e 029B     		ldr	r3, [sp, #8]
 1443 0050 D3F85432 		ldr	r3, [r3, #596]
 1444 0054 5B79     		ldrb	r3, [r3, #5]	@ zero_extendqisi2
 1445 0056 1946     		mov	r1, r3
 1446 0058 0123     		movs	r3, #1
 1447 005a 8B40     		lsls	r3, r3, r1
 1448 005c 9BB2     		uxth	r3, r3
 1449 005e 1340     		ands	r3, r3, r2
 1450 0060 9BB2     		uxth	r3, r3
 1451 0062 002B     		cmp	r3, #0
 1452 0064 31D1     		bne	.L116
 1453              		.loc 7 125 0
 1454 0066 029B     		ldr	r3, [sp, #8]
 1455 0068 0C33     		adds	r3, r3, #12
 1456 006a 1846     		mov	r0, r3
 1457 006c FFF7FEFF 		bl	chIQGetEmptyI
 1458 0070 0490     		str	r0, [sp, #16]
 1459 0072 049A     		ldr	r2, [sp, #16]
 1460 0074 039B     		ldr	r3, [sp, #12]
 1461 0076 9A42     		cmp	r2, r3
 1462 0078 27D3     		bcc	.L116
 1463              		.loc 7 126 0
 1464 007a FFF7FEFF 		bl	osalSysUnlock
 1465              		.loc 7 128 0
 1466 007e 049A     		ldr	r2, [sp, #16]
 1467 0080 039B     		ldr	r3, [sp, #12]
 1468 0082 B2FBF3F2 		udiv	r2, r2, r3
 1469 0086 039B     		ldr	r3, [sp, #12]
 1470 0088 02FB03F3 		mul	r3, r2, r3
 1471 008c 0493     		str	r3, [sp, #16]
 1472              		.loc 7 129 0
 1473 008e 029B     		ldr	r3, [sp, #8]
 1474 0090 D3F85432 		ldr	r3, [r3, #596]
 1475 0094 1868     		ldr	r0, [r3]
 1476              		.loc 7 130 0
 1477 0096 029B     		ldr	r3, [sp, #8]
 1478 0098 D3F85432 		ldr	r3, [r3, #596]
 1479              		.loc 7 129 0
 1480 009c 5979     		ldrb	r1, [r3, #5]	@ zero_extendqisi2
 1481 009e 029B     		ldr	r3, [sp, #8]
 1482 00a0 03F10C02 		add	r2, r3, #12
ARM GAS  C:\Users\PCHAUT~1\AppData\Local\Temp\ccOhqcVB.s 			page 27


 1483 00a4 049B     		ldr	r3, [sp, #16]
 1484 00a6 FFF7FEFF 		bl	usbPrepareQueuedReceive
 1485              		.loc 7 133 0
 1486 00aa FFF7FEFF 		bl	osalSysLock
 1487              		.loc 7 134 0
 1488 00ae 029B     		ldr	r3, [sp, #8]
 1489 00b0 D3F85432 		ldr	r3, [r3, #596]
 1490 00b4 1A68     		ldr	r2, [r3]
 1491 00b6 029B     		ldr	r3, [sp, #8]
 1492 00b8 D3F85432 		ldr	r3, [r3, #596]
 1493 00bc 5B79     		ldrb	r3, [r3, #5]	@ zero_extendqisi2
 1494 00be 1946     		mov	r1, r3
 1495 00c0 1046     		mov	r0, r2
 1496 00c2 FFF7FEFF 		bl	usbStartReceiveI
 1497 00c6 00E0     		b	.L116
 1498              	.L121:
 1499              		.loc 7 117 0
 1500 00c8 00BF     		nop
 1501              	.L116:
 1502              		.loc 7 137 0
 1503 00ca 054B     		ldr	r3, .L122
 1504 00cc 059A     		ldr	r2, [sp, #20]
 1505 00ce 1B68     		ldr	r3, [r3]
 1506 00d0 9A42     		cmp	r2, r3
 1507 00d2 01D0     		beq	.L120
 1508 00d4 FFF7FEFF 		bl	__stack_chk_fail
 1509              	.L120:
 1510 00d8 07B0     		add	sp, sp, #28
 1511              		.cfi_def_cfa_offset 4
 1512              		@ sp needed
 1513 00da 5DF804FB 		ldr	pc, [sp], #4
 1514              	.L123:
 1515 00de 00BF     		.align	2
 1516              	.L122:
 1517 00e0 00000000 		.word	__stack_chk_guard
 1518              		.cfi_endproc
 1519              	.LFE264:
 1520              		.size	inotify, .-inotify
 1521              		.section	.text.onotify,"ax",%progbits
 1522              		.align	1
 1523              		.p2align 4,,15
 1524              		.syntax unified
 1525              		.thumb
 1526              		.thumb_func
 1527              		.fpu fpv4-sp-d16
 1528              		.type	onotify, %function
 1529              	onotify:
 1530              	.LFB265:
 1531              		.loc 7 144 0
 1532              		.cfi_startproc
 1533              		@ args = 0, pretend = 0, frame = 24
 1534              		@ frame_needed = 0, uses_anonymous_args = 0
 1535 0000 00B5     		push	{lr}
 1536              		.cfi_def_cfa_offset 4
 1537              		.cfi_offset 14, -4
 1538 0002 87B0     		sub	sp, sp, #28
 1539              		.cfi_def_cfa_offset 32
ARM GAS  C:\Users\PCHAUT~1\AppData\Local\Temp\ccOhqcVB.s 			page 28


 1540 0004 0190     		str	r0, [sp, #4]
 1541              		.loc 7 144 0
 1542 0006 2A4B     		ldr	r3, .L130
 1543 0008 1B68     		ldr	r3, [r3]
 1544 000a 0593     		str	r3, [sp, #20]
 1545              		.loc 7 146 0
 1546 000c 019B     		ldr	r3, [sp, #4]
 1547 000e 1B6A     		ldr	r3, [r3, #32]
 1548 0010 0393     		str	r3, [sp, #12]
 1549              		.loc 7 150 0
 1550 0012 039B     		ldr	r3, [sp, #12]
 1551 0014 D3F85432 		ldr	r3, [r3, #596]
 1552 0018 1B68     		ldr	r3, [r3]
 1553 001a 1B78     		ldrb	r3, [r3]	@ zero_extendqisi2
 1554 001c 042B     		cmp	r3, #4
 1555 001e 3CD1     		bne	.L129
 1556              		.loc 7 151 0 discriminator 1
 1557 0020 039B     		ldr	r3, [sp, #12]
 1558 0022 1B7A     		ldrb	r3, [r3, #8]	@ zero_extendqisi2
 1559              		.loc 7 150 0 discriminator 1
 1560 0024 022B     		cmp	r3, #2
 1561 0026 38D1     		bne	.L129
 1562              		.loc 7 157 0
 1563 0028 039B     		ldr	r3, [sp, #12]
 1564 002a D3F85432 		ldr	r3, [r3, #596]
 1565 002e 1B68     		ldr	r3, [r3]
 1566 0030 1A89     		ldrh	r2, [r3, #8]
 1567 0032 039B     		ldr	r3, [sp, #12]
 1568 0034 D3F85432 		ldr	r3, [r3, #596]
 1569 0038 1B79     		ldrb	r3, [r3, #4]	@ zero_extendqisi2
 1570 003a 1946     		mov	r1, r3
 1571 003c 0123     		movs	r3, #1
 1572 003e 8B40     		lsls	r3, r3, r1
 1573 0040 9BB2     		uxth	r3, r3
 1574 0042 1340     		ands	r3, r3, r2
 1575 0044 9BB2     		uxth	r3, r3
 1576 0046 002B     		cmp	r3, #0
 1577 0048 28D1     		bne	.L124
 1578              		.loc 7 158 0
 1579 004a 039B     		ldr	r3, [sp, #12]
 1580 004c 3033     		adds	r3, r3, #48
 1581 004e 1846     		mov	r0, r3
 1582 0050 FFF7FEFF 		bl	chOQGetFullI
 1583 0054 0490     		str	r0, [sp, #16]
 1584 0056 049B     		ldr	r3, [sp, #16]
 1585 0058 002B     		cmp	r3, #0
 1586 005a 1FD0     		beq	.L124
 1587              		.loc 7 159 0
 1588 005c FFF7FEFF 		bl	osalSysUnlock
 1589              		.loc 7 161 0
 1590 0060 039B     		ldr	r3, [sp, #12]
 1591 0062 D3F85432 		ldr	r3, [r3, #596]
 1592 0066 1868     		ldr	r0, [r3]
 1593              		.loc 7 162 0
 1594 0068 039B     		ldr	r3, [sp, #12]
 1595 006a D3F85432 		ldr	r3, [r3, #596]
 1596              		.loc 7 161 0
ARM GAS  C:\Users\PCHAUT~1\AppData\Local\Temp\ccOhqcVB.s 			page 29


 1597 006e 1979     		ldrb	r1, [r3, #4]	@ zero_extendqisi2
 1598 0070 039B     		ldr	r3, [sp, #12]
 1599 0072 03F13002 		add	r2, r3, #48
 1600 0076 049B     		ldr	r3, [sp, #16]
 1601 0078 FFF7FEFF 		bl	usbPrepareQueuedTransmit
 1602              		.loc 7 165 0
 1603 007c FFF7FEFF 		bl	osalSysLock
 1604              		.loc 7 166 0
 1605 0080 039B     		ldr	r3, [sp, #12]
 1606 0082 D3F85432 		ldr	r3, [r3, #596]
 1607 0086 1A68     		ldr	r2, [r3]
 1608 0088 039B     		ldr	r3, [sp, #12]
 1609 008a D3F85432 		ldr	r3, [r3, #596]
 1610 008e 1B79     		ldrb	r3, [r3, #4]	@ zero_extendqisi2
 1611 0090 1946     		mov	r1, r3
 1612 0092 1046     		mov	r0, r2
 1613 0094 FFF7FEFF 		bl	usbStartTransmitI
 1614 0098 00E0     		b	.L124
 1615              	.L129:
 1616              		.loc 7 152 0
 1617 009a 00BF     		nop
 1618              	.L124:
 1619              		.loc 7 169 0
 1620 009c 044B     		ldr	r3, .L130
 1621 009e 059A     		ldr	r2, [sp, #20]
 1622 00a0 1B68     		ldr	r3, [r3]
 1623 00a2 9A42     		cmp	r2, r3
 1624 00a4 01D0     		beq	.L128
 1625 00a6 FFF7FEFF 		bl	__stack_chk_fail
 1626              	.L128:
 1627 00aa 07B0     		add	sp, sp, #28
 1628              		.cfi_def_cfa_offset 4
 1629              		@ sp needed
 1630 00ac 5DF804FB 		ldr	pc, [sp], #4
 1631              	.L131:
 1632              		.align	2
 1633              	.L130:
 1634 00b0 00000000 		.word	__stack_chk_guard
 1635              		.cfi_endproc
 1636              	.LFE265:
 1637              		.size	onotify, .-onotify
 1638              		.section	.text.sduInit,"ax",%progbits
 1639              		.align	1
 1640              		.p2align 4,,15
 1641              		.global	sduInit
 1642              		.syntax unified
 1643              		.thumb
 1644              		.thumb_func
 1645              		.fpu fpv4-sp-d16
 1646              		.type	sduInit, %function
 1647              	sduInit:
 1648              	.LFB266:
 1649              		.loc 7 182 0
 1650              		.cfi_startproc
 1651              		@ args = 0, pretend = 0, frame = 8
 1652              		@ frame_needed = 0, uses_anonymous_args = 0
 1653 0000 00B5     		push	{lr}
ARM GAS  C:\Users\PCHAUT~1\AppData\Local\Temp\ccOhqcVB.s 			page 30


 1654              		.cfi_def_cfa_offset 4
 1655              		.cfi_offset 14, -4
 1656 0002 83B0     		sub	sp, sp, #12
 1657              		.cfi_def_cfa_offset 16
 1658              		.loc 7 182 0
 1659 0004 064B     		ldr	r3, .L134
 1660 0006 1B68     		ldr	r3, [r3]
 1661 0008 0193     		str	r3, [sp, #4]
 1662              		.loc 7 183 0
 1663 000a 00BF     		nop
 1664 000c 044B     		ldr	r3, .L134
 1665 000e 019A     		ldr	r2, [sp, #4]
 1666 0010 1B68     		ldr	r3, [r3]
 1667 0012 9A42     		cmp	r2, r3
 1668 0014 01D0     		beq	.L133
 1669 0016 FFF7FEFF 		bl	__stack_chk_fail
 1670              	.L133:
 1671 001a 03B0     		add	sp, sp, #12
 1672              		.cfi_def_cfa_offset 4
 1673              		@ sp needed
 1674 001c 5DF804FB 		ldr	pc, [sp], #4
 1675              	.L135:
 1676              		.align	2
 1677              	.L134:
 1678 0020 00000000 		.word	__stack_chk_guard
 1679              		.cfi_endproc
 1680              	.LFE266:
 1681              		.size	sduInit, .-sduInit
 1682              		.section	.text.sduObjectInit,"ax",%progbits
 1683              		.align	1
 1684              		.p2align 4,,15
 1685              		.global	sduObjectInit
 1686              		.syntax unified
 1687              		.thumb
 1688              		.thumb_func
 1689              		.fpu fpv4-sp-d16
 1690              		.type	sduObjectInit, %function
 1691              	sduObjectInit:
 1692              	.LFB267:
 1693              		.loc 7 194 0
 1694              		.cfi_startproc
 1695              		@ args = 0, pretend = 0, frame = 16
 1696              		@ frame_needed = 0, uses_anonymous_args = 0
 1697 0000 00B5     		push	{lr}
 1698              		.cfi_def_cfa_offset 4
 1699              		.cfi_offset 14, -4
 1700 0002 87B0     		sub	sp, sp, #28
 1701              		.cfi_def_cfa_offset 32
 1702 0004 0390     		str	r0, [sp, #12]
 1703              		.loc 7 194 0
 1704 0006 194B     		ldr	r3, .L138
 1705 0008 1B68     		ldr	r3, [r3]
 1706 000a 0593     		str	r3, [sp, #20]
 1707              		.loc 7 196 0
 1708 000c 039B     		ldr	r3, [sp, #12]
 1709 000e 184A     		ldr	r2, .L138+4
 1710 0010 1A60     		str	r2, [r3]
ARM GAS  C:\Users\PCHAUT~1\AppData\Local\Temp\ccOhqcVB.s 			page 31


 1711              		.loc 7 197 0
 1712 0012 039B     		ldr	r3, [sp, #12]
 1713 0014 0433     		adds	r3, r3, #4
 1714 0016 1846     		mov	r0, r3
 1715 0018 FFF7FEFF 		bl	osalEventObjectInit
 1716              		.loc 7 198 0
 1717 001c 039B     		ldr	r3, [sp, #12]
 1718 001e 0122     		movs	r2, #1
 1719 0020 1A72     		strb	r2, [r3, #8]
 1720              		.loc 7 199 0
 1721 0022 039B     		ldr	r3, [sp, #12]
 1722 0024 03F10C00 		add	r0, r3, #12
 1723 0028 039B     		ldr	r3, [sp, #12]
 1724 002a 03F15401 		add	r1, r3, #84
 1725 002e 039B     		ldr	r3, [sp, #12]
 1726 0030 0093     		str	r3, [sp]
 1727 0032 104B     		ldr	r3, .L138+8
 1728 0034 4FF48072 		mov	r2, #256
 1729 0038 FFF7FEFF 		bl	chIQObjectInit
 1730              		.loc 7 200 0
 1731 003c 039B     		ldr	r3, [sp, #12]
 1732 003e 03F13000 		add	r0, r3, #48
 1733 0042 039B     		ldr	r3, [sp, #12]
 1734 0044 03F5AA71 		add	r1, r3, #340
 1735 0048 039B     		ldr	r3, [sp, #12]
 1736 004a 0093     		str	r3, [sp]
 1737 004c 0A4B     		ldr	r3, .L138+12
 1738 004e 4FF48072 		mov	r2, #256
 1739 0052 FFF7FEFF 		bl	chOQObjectInit
 1740              		.loc 7 201 0
 1741 0056 00BF     		nop
 1742 0058 044B     		ldr	r3, .L138
 1743 005a 059A     		ldr	r2, [sp, #20]
 1744 005c 1B68     		ldr	r3, [r3]
 1745 005e 9A42     		cmp	r2, r3
 1746 0060 01D0     		beq	.L137
 1747 0062 FFF7FEFF 		bl	__stack_chk_fail
 1748              	.L137:
 1749 0066 07B0     		add	sp, sp, #28
 1750              		.cfi_def_cfa_offset 4
 1751              		@ sp needed
 1752 0068 5DF804FB 		ldr	pc, [sp], #4
 1753              	.L139:
 1754              		.align	2
 1755              	.L138:
 1756 006c 00000000 		.word	__stack_chk_guard
 1757 0070 00000000 		.word	vmt
 1758 0074 00000000 		.word	inotify
 1759 0078 00000000 		.word	onotify
 1760              		.cfi_endproc
 1761              	.LFE267:
 1762              		.size	sduObjectInit, .-sduObjectInit
 1763              		.section	.text.sduStart,"ax",%progbits
 1764              		.align	1
 1765              		.p2align 4,,15
 1766              		.global	sduStart
 1767              		.syntax unified
ARM GAS  C:\Users\PCHAUT~1\AppData\Local\Temp\ccOhqcVB.s 			page 32


 1768              		.thumb
 1769              		.thumb_func
 1770              		.fpu fpv4-sp-d16
 1771              		.type	sduStart, %function
 1772              	sduStart:
 1773              	.LFB268:
 1774              		.loc 7 211 0
 1775              		.cfi_startproc
 1776              		@ args = 0, pretend = 0, frame = 16
 1777              		@ frame_needed = 0, uses_anonymous_args = 0
 1778 0000 00B5     		push	{lr}
 1779              		.cfi_def_cfa_offset 4
 1780              		.cfi_offset 14, -4
 1781 0002 85B0     		sub	sp, sp, #20
 1782              		.cfi_def_cfa_offset 24
 1783 0004 0190     		str	r0, [sp, #4]
 1784 0006 0091     		str	r1, [sp]
 1785              		.loc 7 211 0
 1786 0008 254B     		ldr	r3, .L145
 1787 000a 1B68     		ldr	r3, [r3]
 1788 000c 0393     		str	r3, [sp, #12]
 1789              		.loc 7 212 0
 1790 000e 009B     		ldr	r3, [sp]
 1791 0010 1B68     		ldr	r3, [r3]
 1792 0012 0293     		str	r3, [sp, #8]
 1793              		.loc 7 214 0
 1794 0014 019B     		ldr	r3, [sp, #4]
 1795 0016 002B     		cmp	r3, #0
 1796 0018 02D1     		bne	.L141
 1797              		.loc 7 214 0 is_stmt 0 discriminator 2
 1798 001a 2248     		ldr	r0, .L145+4
 1799 001c FFF7FEFF 		bl	chSysHalt
 1800              	.L141:
 1801              		.loc 7 216 0 is_stmt 1
 1802 0020 FFF7FEFF 		bl	osalSysLock
 1803              		.loc 7 217 0
 1804 0024 019B     		ldr	r3, [sp, #4]
 1805 0026 1B7A     		ldrb	r3, [r3, #8]	@ zero_extendqisi2
 1806 0028 012B     		cmp	r3, #1
 1807 002a 06D0     		beq	.L142
 1808              		.loc 7 217 0 is_stmt 0 discriminator 2
 1809 002c 019B     		ldr	r3, [sp, #4]
 1810 002e 1B7A     		ldrb	r3, [r3, #8]	@ zero_extendqisi2
 1811 0030 022B     		cmp	r3, #2
 1812 0032 02D0     		beq	.L142
 1813              		.loc 7 217 0 discriminator 3
 1814 0034 1B48     		ldr	r0, .L145+4
 1815 0036 FFF7FEFF 		bl	chSysHalt
 1816              	.L142:
 1817              		.loc 7 219 0 is_stmt 1
 1818 003a 009B     		ldr	r3, [sp]
 1819 003c 1B79     		ldrb	r3, [r3, #4]	@ zero_extendqisi2
 1820 003e 013B     		subs	r3, r3, #1
 1821 0040 029A     		ldr	r2, [sp, #8]
 1822 0042 0633     		adds	r3, r3, #6
 1823 0044 9B00     		lsls	r3, r3, #2
 1824 0046 1344     		add	r3, r3, r2
ARM GAS  C:\Users\PCHAUT~1\AppData\Local\Temp\ccOhqcVB.s 			page 33


 1825 0048 019A     		ldr	r2, [sp, #4]
 1826 004a 5A60     		str	r2, [r3, #4]
 1827              		.loc 7 220 0
 1828 004c 009B     		ldr	r3, [sp]
 1829 004e 5B79     		ldrb	r3, [r3, #5]	@ zero_extendqisi2
 1830 0050 5A1E     		subs	r2, r3, #1
 1831 0052 029B     		ldr	r3, [sp, #8]
 1832 0054 0A32     		adds	r2, r2, #10
 1833 0056 0199     		ldr	r1, [sp, #4]
 1834 0058 43F82210 		str	r1, [r3, r2, lsl #2]
 1835              		.loc 7 221 0
 1836 005c 009B     		ldr	r3, [sp]
 1837 005e 9B79     		ldrb	r3, [r3, #6]	@ zero_extendqisi2
 1838 0060 002B     		cmp	r3, #0
 1839 0062 08D0     		beq	.L143
 1840              		.loc 7 222 0
 1841 0064 009B     		ldr	r3, [sp]
 1842 0066 9B79     		ldrb	r3, [r3, #6]	@ zero_extendqisi2
 1843 0068 013B     		subs	r3, r3, #1
 1844 006a 029A     		ldr	r2, [sp, #8]
 1845 006c 0633     		adds	r3, r3, #6
 1846 006e 9B00     		lsls	r3, r3, #2
 1847 0070 1344     		add	r3, r3, r2
 1848 0072 019A     		ldr	r2, [sp, #4]
 1849 0074 5A60     		str	r2, [r3, #4]
 1850              	.L143:
 1851              		.loc 7 224 0
 1852 0076 019B     		ldr	r3, [sp, #4]
 1853 0078 009A     		ldr	r2, [sp]
 1854 007a C3F85422 		str	r2, [r3, #596]
 1855              		.loc 7 225 0
 1856 007e 019B     		ldr	r3, [sp, #4]
 1857 0080 0222     		movs	r2, #2
 1858 0082 1A72     		strb	r2, [r3, #8]
 1859              		.loc 7 226 0
 1860 0084 FFF7FEFF 		bl	osalSysUnlock
 1861              		.loc 7 227 0
 1862 0088 00BF     		nop
 1863 008a 054B     		ldr	r3, .L145
 1864 008c 039A     		ldr	r2, [sp, #12]
 1865 008e 1B68     		ldr	r3, [r3]
 1866 0090 9A42     		cmp	r2, r3
 1867 0092 01D0     		beq	.L144
 1868 0094 FFF7FEFF 		bl	__stack_chk_fail
 1869              	.L144:
 1870 0098 05B0     		add	sp, sp, #20
 1871              		.cfi_def_cfa_offset 4
 1872              		@ sp needed
 1873 009a 5DF804FB 		ldr	pc, [sp], #4
 1874              	.L146:
 1875 009e 00BF     		.align	2
 1876              	.L145:
 1877 00a0 00000000 		.word	__stack_chk_guard
 1878 00a4 00000000 		.word	__func__.9900
 1879              		.cfi_endproc
 1880              	.LFE268:
 1881              		.size	sduStart, .-sduStart
ARM GAS  C:\Users\PCHAUT~1\AppData\Local\Temp\ccOhqcVB.s 			page 34


 1882              		.section	.text.sduStop,"ax",%progbits
 1883              		.align	1
 1884              		.p2align 4,,15
 1885              		.global	sduStop
 1886              		.syntax unified
 1887              		.thumb
 1888              		.thumb_func
 1889              		.fpu fpv4-sp-d16
 1890              		.type	sduStop, %function
 1891              	sduStop:
 1892              	.LFB269:
 1893              		.loc 7 238 0
 1894              		.cfi_startproc
 1895              		@ args = 0, pretend = 0, frame = 16
 1896              		@ frame_needed = 0, uses_anonymous_args = 0
 1897 0000 00B5     		push	{lr}
 1898              		.cfi_def_cfa_offset 4
 1899              		.cfi_offset 14, -4
 1900 0002 85B0     		sub	sp, sp, #20
 1901              		.cfi_def_cfa_offset 24
 1902 0004 0190     		str	r0, [sp, #4]
 1903              		.loc 7 238 0
 1904 0006 314B     		ldr	r3, .L152
 1905 0008 1B68     		ldr	r3, [r3]
 1906 000a 0393     		str	r3, [sp, #12]
 1907              		.loc 7 239 0
 1908 000c 019B     		ldr	r3, [sp, #4]
 1909 000e D3F85432 		ldr	r3, [r3, #596]
 1910 0012 1B68     		ldr	r3, [r3]
 1911 0014 0293     		str	r3, [sp, #8]
 1912              		.loc 7 241 0
 1913 0016 019B     		ldr	r3, [sp, #4]
 1914 0018 002B     		cmp	r3, #0
 1915 001a 02D1     		bne	.L148
 1916              		.loc 7 241 0 is_stmt 0 discriminator 2
 1917 001c 2C48     		ldr	r0, .L152+4
 1918 001e FFF7FEFF 		bl	chSysHalt
 1919              	.L148:
 1920              		.loc 7 243 0 is_stmt 1
 1921 0022 FFF7FEFF 		bl	osalSysLock
 1922              		.loc 7 244 0
 1923 0026 019B     		ldr	r3, [sp, #4]
 1924 0028 1B7A     		ldrb	r3, [r3, #8]	@ zero_extendqisi2
 1925 002a 012B     		cmp	r3, #1
 1926 002c 06D0     		beq	.L149
 1927              		.loc 7 244 0 is_stmt 0 discriminator 2
 1928 002e 019B     		ldr	r3, [sp, #4]
 1929 0030 1B7A     		ldrb	r3, [r3, #8]	@ zero_extendqisi2
 1930 0032 022B     		cmp	r3, #2
 1931 0034 02D0     		beq	.L149
 1932              		.loc 7 244 0 discriminator 3
 1933 0036 2648     		ldr	r0, .L152+4
 1934 0038 FFF7FEFF 		bl	chSysHalt
 1935              	.L149:
 1936              		.loc 7 248 0 is_stmt 1
 1937 003c 019B     		ldr	r3, [sp, #4]
 1938 003e D3F85432 		ldr	r3, [r3, #596]
ARM GAS  C:\Users\PCHAUT~1\AppData\Local\Temp\ccOhqcVB.s 			page 35


 1939 0042 1B79     		ldrb	r3, [r3, #4]	@ zero_extendqisi2
 1940 0044 013B     		subs	r3, r3, #1
 1941 0046 029A     		ldr	r2, [sp, #8]
 1942 0048 0633     		adds	r3, r3, #6
 1943 004a 9B00     		lsls	r3, r3, #2
 1944 004c 1344     		add	r3, r3, r2
 1945 004e 0022     		movs	r2, #0
 1946 0050 5A60     		str	r2, [r3, #4]
 1947              		.loc 7 249 0
 1948 0052 019B     		ldr	r3, [sp, #4]
 1949 0054 D3F85432 		ldr	r3, [r3, #596]
 1950 0058 5B79     		ldrb	r3, [r3, #5]	@ zero_extendqisi2
 1951 005a 5A1E     		subs	r2, r3, #1
 1952 005c 029B     		ldr	r3, [sp, #8]
 1953 005e 0A32     		adds	r2, r2, #10
 1954 0060 0021     		movs	r1, #0
 1955 0062 43F82210 		str	r1, [r3, r2, lsl #2]
 1956              		.loc 7 250 0
 1957 0066 019B     		ldr	r3, [sp, #4]
 1958 0068 D3F85432 		ldr	r3, [r3, #596]
 1959 006c 9B79     		ldrb	r3, [r3, #6]	@ zero_extendqisi2
 1960 006e 002B     		cmp	r3, #0
 1961 0070 0AD0     		beq	.L150
 1962              		.loc 7 251 0
 1963 0072 019B     		ldr	r3, [sp, #4]
 1964 0074 D3F85432 		ldr	r3, [r3, #596]
 1965 0078 9B79     		ldrb	r3, [r3, #6]	@ zero_extendqisi2
 1966 007a 013B     		subs	r3, r3, #1
 1967 007c 029A     		ldr	r2, [sp, #8]
 1968 007e 0633     		adds	r3, r3, #6
 1969 0080 9B00     		lsls	r3, r3, #2
 1970 0082 1344     		add	r3, r3, r2
 1971 0084 0022     		movs	r2, #0
 1972 0086 5A60     		str	r2, [r3, #4]
 1973              	.L150:
 1974              		.loc 7 253 0
 1975 0088 019B     		ldr	r3, [sp, #4]
 1976 008a 0122     		movs	r2, #1
 1977 008c 1A72     		strb	r2, [r3, #8]
 1978              		.loc 7 256 0
 1979 008e 019B     		ldr	r3, [sp, #4]
 1980 0090 0433     		adds	r3, r3, #4
 1981 0092 0221     		movs	r1, #2
 1982 0094 1846     		mov	r0, r3
 1983 0096 FFF7FEFF 		bl	osalEventBroadcastFlagsI
 1984              		.loc 7 257 0
 1985 009a 019B     		ldr	r3, [sp, #4]
 1986 009c 0C33     		adds	r3, r3, #12
 1987 009e 1846     		mov	r0, r3
 1988 00a0 FFF7FEFF 		bl	chIQResetI
 1989              		.loc 7 258 0
 1990 00a4 019B     		ldr	r3, [sp, #4]
 1991 00a6 3033     		adds	r3, r3, #48
 1992 00a8 1846     		mov	r0, r3
 1993 00aa FFF7FEFF 		bl	chIQResetI
 1994              		.loc 7 259 0
 1995 00ae FFF7FEFF 		bl	osalOsRescheduleS
ARM GAS  C:\Users\PCHAUT~1\AppData\Local\Temp\ccOhqcVB.s 			page 36


 1996              		.loc 7 260 0
 1997 00b2 FFF7FEFF 		bl	osalSysUnlock
 1998              		.loc 7 261 0
 1999 00b6 00BF     		nop
 2000 00b8 044B     		ldr	r3, .L152
 2001 00ba 039A     		ldr	r2, [sp, #12]
 2002 00bc 1B68     		ldr	r3, [r3]
 2003 00be 9A42     		cmp	r2, r3
 2004 00c0 01D0     		beq	.L151
 2005 00c2 FFF7FEFF 		bl	__stack_chk_fail
 2006              	.L151:
 2007 00c6 05B0     		add	sp, sp, #20
 2008              		.cfi_def_cfa_offset 4
 2009              		@ sp needed
 2010 00c8 5DF804FB 		ldr	pc, [sp], #4
 2011              	.L153:
 2012              		.align	2
 2013              	.L152:
 2014 00cc 00000000 		.word	__stack_chk_guard
 2015 00d0 00000000 		.word	__func__.9905
 2016              		.cfi_endproc
 2017              	.LFE269:
 2018              		.size	sduStop, .-sduStop
 2019              		.section	.text.sduConfigureHookI,"ax",%progbits
 2020              		.align	1
 2021              		.p2align 4,,15
 2022              		.global	sduConfigureHookI
 2023              		.syntax unified
 2024              		.thumb
 2025              		.thumb_func
 2026              		.fpu fpv4-sp-d16
 2027              		.type	sduConfigureHookI, %function
 2028              	sduConfigureHookI:
 2029              	.LFB270:
 2030              		.loc 7 270 0
 2031              		.cfi_startproc
 2032              		@ args = 0, pretend = 0, frame = 16
 2033              		@ frame_needed = 0, uses_anonymous_args = 0
 2034 0000 00B5     		push	{lr}
 2035              		.cfi_def_cfa_offset 4
 2036              		.cfi_offset 14, -4
 2037 0002 85B0     		sub	sp, sp, #20
 2038              		.cfi_def_cfa_offset 24
 2039 0004 0190     		str	r0, [sp, #4]
 2040              		.loc 7 270 0
 2041 0006 204B     		ldr	r3, .L156
 2042 0008 1B68     		ldr	r3, [r3]
 2043 000a 0393     		str	r3, [sp, #12]
 2044              		.loc 7 271 0
 2045 000c 019B     		ldr	r3, [sp, #4]
 2046 000e D3F85432 		ldr	r3, [r3, #596]
 2047 0012 1B68     		ldr	r3, [r3]
 2048 0014 0293     		str	r3, [sp, #8]
 2049              		.loc 7 273 0
 2050 0016 019B     		ldr	r3, [sp, #4]
 2051 0018 0C33     		adds	r3, r3, #12
 2052 001a 1846     		mov	r0, r3
ARM GAS  C:\Users\PCHAUT~1\AppData\Local\Temp\ccOhqcVB.s 			page 37


 2053 001c FFF7FEFF 		bl	chIQResetI
 2054              		.loc 7 274 0
 2055 0020 019B     		ldr	r3, [sp, #4]
 2056 0022 3033     		adds	r3, r3, #48
 2057 0024 1846     		mov	r0, r3
 2058 0026 FFF7FEFF 		bl	chOQResetI
 2059              		.loc 7 275 0
 2060 002a 019B     		ldr	r3, [sp, #4]
 2061 002c 0433     		adds	r3, r3, #4
 2062 002e 0121     		movs	r1, #1
 2063 0030 1846     		mov	r0, r3
 2064 0032 FFF7FEFF 		bl	osalEventBroadcastFlagsI
 2065              		.loc 7 278 0
 2066 0036 019B     		ldr	r3, [sp, #4]
 2067 0038 D3F85432 		ldr	r3, [r3, #596]
 2068 003c 5979     		ldrb	r1, [r3, #5]	@ zero_extendqisi2
 2069 003e 019B     		ldr	r3, [sp, #4]
 2070 0040 03F10C00 		add	r0, r3, #12
 2071              		.loc 7 279 0
 2072 0044 019B     		ldr	r3, [sp, #4]
 2073 0046 D3F85432 		ldr	r3, [r3, #596]
 2074 004a 5B79     		ldrb	r3, [r3, #5]	@ zero_extendqisi2
 2075 004c 029A     		ldr	r2, [sp, #8]
 2076 004e 0233     		adds	r3, r3, #2
 2077 0050 9B00     		lsls	r3, r3, #2
 2078 0052 1344     		add	r3, r3, r2
 2079 0054 5B68     		ldr	r3, [r3, #4]
 2080 0056 5B8A     		ldrh	r3, [r3, #18]
 2081              		.loc 7 278 0
 2082 0058 0246     		mov	r2, r0
 2083 005a 0298     		ldr	r0, [sp, #8]
 2084 005c FFF7FEFF 		bl	usbPrepareQueuedReceive
 2085              		.loc 7 280 0
 2086 0060 019B     		ldr	r3, [sp, #4]
 2087 0062 D3F85432 		ldr	r3, [r3, #596]
 2088 0066 5B79     		ldrb	r3, [r3, #5]	@ zero_extendqisi2
 2089 0068 1946     		mov	r1, r3
 2090 006a 0298     		ldr	r0, [sp, #8]
 2091 006c FFF7FEFF 		bl	usbStartReceiveI
 2092              		.loc 7 281 0
 2093 0070 00BF     		nop
 2094 0072 054B     		ldr	r3, .L156
 2095 0074 039A     		ldr	r2, [sp, #12]
 2096 0076 1B68     		ldr	r3, [r3]
 2097 0078 9A42     		cmp	r2, r3
 2098 007a 01D0     		beq	.L155
 2099 007c FFF7FEFF 		bl	__stack_chk_fail
 2100              	.L155:
 2101 0080 05B0     		add	sp, sp, #20
 2102              		.cfi_def_cfa_offset 4
 2103              		@ sp needed
 2104 0082 5DF804FB 		ldr	pc, [sp], #4
 2105              	.L157:
 2106 0086 00BF     		.align	2
 2107              	.L156:
 2108 0088 00000000 		.word	__stack_chk_guard
 2109              		.cfi_endproc
ARM GAS  C:\Users\PCHAUT~1\AppData\Local\Temp\ccOhqcVB.s 			page 38


 2110              	.LFE270:
 2111              		.size	sduConfigureHookI, .-sduConfigureHookI
 2112              		.section	.text.sduRequestsHook,"ax",%progbits
 2113              		.align	1
 2114              		.p2align 4,,15
 2115              		.global	sduRequestsHook
 2116              		.syntax unified
 2117              		.thumb
 2118              		.thumb_func
 2119              		.fpu fpv4-sp-d16
 2120              		.type	sduRequestsHook, %function
 2121              	sduRequestsHook:
 2122              	.LFB271:
 2123              		.loc 7 298 0
 2124              		.cfi_startproc
 2125              		@ args = 0, pretend = 0, frame = 16
 2126              		@ frame_needed = 0, uses_anonymous_args = 0
 2127 0000 00B5     		push	{lr}
 2128              		.cfi_def_cfa_offset 4
 2129              		.cfi_offset 14, -4
 2130 0002 85B0     		sub	sp, sp, #20
 2131              		.cfi_def_cfa_offset 24
 2132 0004 0190     		str	r0, [sp, #4]
 2133              		.loc 7 298 0
 2134 0006 214B     		ldr	r3, .L167
 2135 0008 1B68     		ldr	r3, [r3]
 2136 000a 0393     		str	r3, [sp, #12]
 2137              		.loc 7 300 0
 2138 000c 019B     		ldr	r3, [sp, #4]
 2139 000e 93F84430 		ldrb	r3, [r3, #68]	@ zero_extendqisi2
 2140 0012 03F06003 		and	r3, r3, #96
 2141 0016 202B     		cmp	r3, #32
 2142 0018 2CD1     		bne	.L159
 2143              		.loc 7 301 0
 2144 001a 019B     		ldr	r3, [sp, #4]
 2145 001c 93F84530 		ldrb	r3, [r3, #69]	@ zero_extendqisi2
 2146 0020 212B     		cmp	r3, #33
 2147 0022 04D0     		beq	.L161
 2148 0024 222B     		cmp	r3, #34
 2149 0026 18D0     		beq	.L162
 2150 0028 202B     		cmp	r3, #32
 2151 002a 0BD0     		beq	.L163
 2152 002c 20E0     		b	.L166
 2153              	.L161:
 2154              		.loc 7 303 0
 2155 002e 019B     		ldr	r3, [sp, #4]
 2156 0030 174A     		ldr	r2, .L167+4
 2157 0032 9A63     		str	r2, [r3, #56]
 2158 0034 019B     		ldr	r3, [sp, #4]
 2159 0036 0722     		movs	r2, #7
 2160 0038 DA63     		str	r2, [r3, #60]
 2161 003a 019B     		ldr	r3, [sp, #4]
 2162 003c 0022     		movs	r2, #0
 2163 003e 1A64     		str	r2, [r3, #64]
 2164              		.loc 7 304 0
 2165 0040 0123     		movs	r3, #1
 2166 0042 18E0     		b	.L164
ARM GAS  C:\Users\PCHAUT~1\AppData\Local\Temp\ccOhqcVB.s 			page 39


 2167              	.L163:
 2168              		.loc 7 306 0
 2169 0044 019B     		ldr	r3, [sp, #4]
 2170 0046 124A     		ldr	r2, .L167+4
 2171 0048 9A63     		str	r2, [r3, #56]
 2172 004a 019B     		ldr	r3, [sp, #4]
 2173 004c 0722     		movs	r2, #7
 2174 004e DA63     		str	r2, [r3, #60]
 2175 0050 019B     		ldr	r3, [sp, #4]
 2176 0052 0022     		movs	r2, #0
 2177 0054 1A64     		str	r2, [r3, #64]
 2178              		.loc 7 307 0
 2179 0056 0123     		movs	r3, #1
 2180 0058 0DE0     		b	.L164
 2181              	.L162:
 2182              		.loc 7 310 0
 2183 005a 019B     		ldr	r3, [sp, #4]
 2184 005c 0022     		movs	r2, #0
 2185 005e 9A63     		str	r2, [r3, #56]
 2186 0060 019B     		ldr	r3, [sp, #4]
 2187 0062 0022     		movs	r2, #0
 2188 0064 DA63     		str	r2, [r3, #60]
 2189 0066 019B     		ldr	r3, [sp, #4]
 2190 0068 0022     		movs	r2, #0
 2191 006a 1A64     		str	r2, [r3, #64]
 2192              		.loc 7 311 0
 2193 006c 0123     		movs	r3, #1
 2194 006e 02E0     		b	.L164
 2195              	.L166:
 2196              		.loc 7 313 0
 2197 0070 0023     		movs	r3, #0
 2198 0072 00E0     		b	.L164
 2199              	.L159:
 2200              		.loc 7 316 0
 2201 0074 0023     		movs	r3, #0
 2202              	.L164:
 2203              		.loc 7 317 0
 2204 0076 1846     		mov	r0, r3
 2205 0078 044B     		ldr	r3, .L167
 2206 007a 039A     		ldr	r2, [sp, #12]
 2207 007c 1B68     		ldr	r3, [r3]
 2208 007e 9A42     		cmp	r2, r3
 2209 0080 01D0     		beq	.L165
 2210 0082 FFF7FEFF 		bl	__stack_chk_fail
 2211              	.L165:
 2212 0086 05B0     		add	sp, sp, #20
 2213              		.cfi_def_cfa_offset 4
 2214              		@ sp needed
 2215 0088 5DF804FB 		ldr	pc, [sp], #4
 2216              	.L168:
 2217              		.align	2
 2218              	.L167:
 2219 008c 00000000 		.word	__stack_chk_guard
 2220 0090 00000000 		.word	linecoding
 2221              		.cfi_endproc
 2222              	.LFE271:
 2223              		.size	sduRequestsHook, .-sduRequestsHook
ARM GAS  C:\Users\PCHAUT~1\AppData\Local\Temp\ccOhqcVB.s 			page 40


 2224              		.section	.text.sduDataTransmitted,"ax",%progbits
 2225              		.align	1
 2226              		.p2align 4,,15
 2227              		.global	sduDataTransmitted
 2228              		.syntax unified
 2229              		.thumb
 2230              		.thumb_func
 2231              		.fpu fpv4-sp-d16
 2232              		.type	sduDataTransmitted, %function
 2233              	sduDataTransmitted:
 2234              	.LFB272:
 2235              		.loc 7 327 0
 2236              		.cfi_startproc
 2237              		@ args = 0, pretend = 0, frame = 24
 2238              		@ frame_needed = 0, uses_anonymous_args = 0
 2239 0000 00B5     		push	{lr}
 2240              		.cfi_def_cfa_offset 4
 2241              		.cfi_offset 14, -4
 2242 0002 87B0     		sub	sp, sp, #28
 2243              		.cfi_def_cfa_offset 32
 2244 0004 0190     		str	r0, [sp, #4]
 2245 0006 0B46     		mov	r3, r1
 2246 0008 8DF80330 		strb	r3, [sp, #3]
 2247              		.loc 7 327 0
 2248 000c 3A4B     		ldr	r3, .L176
 2249 000e 1B68     		ldr	r3, [r3]
 2250 0010 0593     		str	r3, [sp, #20]
 2251              		.loc 7 329 0
 2252 0012 9DF80330 		ldrb	r3, [sp, #3]	@ zero_extendqisi2
 2253 0016 013B     		subs	r3, r3, #1
 2254 0018 019A     		ldr	r2, [sp, #4]
 2255 001a 0633     		adds	r3, r3, #6
 2256 001c 9B00     		lsls	r3, r3, #2
 2257 001e 1344     		add	r3, r3, r2
 2258 0020 5B68     		ldr	r3, [r3, #4]
 2259 0022 0393     		str	r3, [sp, #12]
 2260              		.loc 7 331 0
 2261 0024 039B     		ldr	r3, [sp, #12]
 2262 0026 002B     		cmp	r3, #0
 2263 0028 5AD0     		beq	.L175
 2264              		.loc 7 335 0
 2265 002a FFF7FEFF 		bl	osalSysLockFromISR
 2266              		.loc 7 336 0
 2267 002e 039B     		ldr	r3, [sp, #12]
 2268 0030 0433     		adds	r3, r3, #4
 2269 0032 0821     		movs	r1, #8
 2270 0034 1846     		mov	r0, r3
 2271 0036 FFF7FEFF 		bl	osalEventBroadcastFlagsI
 2272              		.loc 7 339 0
 2273 003a 039B     		ldr	r3, [sp, #12]
 2274 003c 3033     		adds	r3, r3, #48
 2275 003e 1846     		mov	r0, r3
 2276 0040 FFF7FEFF 		bl	chOQGetFullI
 2277 0044 0490     		str	r0, [sp, #16]
 2278 0046 049B     		ldr	r3, [sp, #16]
 2279 0048 002B     		cmp	r3, #0
 2280 004a 13D0     		beq	.L172
ARM GAS  C:\Users\PCHAUT~1\AppData\Local\Temp\ccOhqcVB.s 			page 41


 2281              		.loc 7 342 0
 2282 004c FFF7FEFF 		bl	osalSysUnlockFromISR
 2283              		.loc 7 344 0
 2284 0050 039B     		ldr	r3, [sp, #12]
 2285 0052 03F13002 		add	r2, r3, #48
 2286 0056 9DF80310 		ldrb	r1, [sp, #3]	@ zero_extendqisi2
 2287 005a 049B     		ldr	r3, [sp, #16]
 2288 005c 0198     		ldr	r0, [sp, #4]
 2289 005e FFF7FEFF 		bl	usbPrepareQueuedTransmit
 2290              		.loc 7 346 0
 2291 0062 FFF7FEFF 		bl	osalSysLockFromISR
 2292              		.loc 7 347 0
 2293 0066 9DF80330 		ldrb	r3, [sp, #3]	@ zero_extendqisi2
 2294 006a 1946     		mov	r1, r3
 2295 006c 0198     		ldr	r0, [sp, #4]
 2296 006e FFF7FEFF 		bl	usbStartTransmitI
 2297 0072 32E0     		b	.L173
 2298              	.L172:
 2299              		.loc 7 349 0
 2300 0074 9DF80330 		ldrb	r3, [sp, #3]	@ zero_extendqisi2
 2301 0078 019A     		ldr	r2, [sp, #4]
 2302 007a 0233     		adds	r3, r3, #2
 2303 007c 9B00     		lsls	r3, r3, #2
 2304 007e 1344     		add	r3, r3, r2
 2305 0080 5B68     		ldr	r3, [r3, #4]
 2306 0082 5B69     		ldr	r3, [r3, #20]
 2307 0084 5B68     		ldr	r3, [r3, #4]
 2308 0086 002B     		cmp	r3, #0
 2309 0088 27D0     		beq	.L173
 2310              		.loc 7 350 0 discriminator 1
 2311 008a 9DF80330 		ldrb	r3, [sp, #3]	@ zero_extendqisi2
 2312 008e 019A     		ldr	r2, [sp, #4]
 2313 0090 0233     		adds	r3, r3, #2
 2314 0092 9B00     		lsls	r3, r3, #2
 2315 0094 1344     		add	r3, r3, r2
 2316 0096 5B68     		ldr	r3, [r3, #4]
 2317 0098 5B69     		ldr	r3, [r3, #20]
 2318 009a 5A68     		ldr	r2, [r3, #4]
 2319              		.loc 7 351 0 discriminator 1
 2320 009c 9DF80330 		ldrb	r3, [sp, #3]	@ zero_extendqisi2
 2321 00a0 0199     		ldr	r1, [sp, #4]
 2322 00a2 0233     		adds	r3, r3, #2
 2323 00a4 9B00     		lsls	r3, r3, #2
 2324 00a6 0B44     		add	r3, r3, r1
 2325 00a8 5B68     		ldr	r3, [r3, #4]
 2326 00aa 1B8A     		ldrh	r3, [r3, #16]
 2327 00ac 013B     		subs	r3, r3, #1
 2328              		.loc 7 350 0 discriminator 1
 2329 00ae 1340     		ands	r3, r3, r2
 2330              		.loc 7 349 0 discriminator 1
 2331 00b0 002B     		cmp	r3, #0
 2332 00b2 12D1     		bne	.L173
 2333              		.loc 7 356 0
 2334 00b4 FFF7FEFF 		bl	osalSysUnlockFromISR
 2335              		.loc 7 358 0
 2336 00b8 039B     		ldr	r3, [sp, #12]
 2337 00ba 03F13002 		add	r2, r3, #48
ARM GAS  C:\Users\PCHAUT~1\AppData\Local\Temp\ccOhqcVB.s 			page 42


 2338 00be 9DF80310 		ldrb	r1, [sp, #3]	@ zero_extendqisi2
 2339 00c2 0023     		movs	r3, #0
 2340 00c4 0198     		ldr	r0, [sp, #4]
 2341 00c6 FFF7FEFF 		bl	usbPrepareQueuedTransmit
 2342              		.loc 7 360 0
 2343 00ca FFF7FEFF 		bl	osalSysLockFromISR
 2344              		.loc 7 361 0
 2345 00ce 9DF80330 		ldrb	r3, [sp, #3]	@ zero_extendqisi2
 2346 00d2 1946     		mov	r1, r3
 2347 00d4 0198     		ldr	r0, [sp, #4]
 2348 00d6 FFF7FEFF 		bl	usbStartTransmitI
 2349              	.L173:
 2350              		.loc 7 365 0
 2351 00da FFF7FEFF 		bl	osalSysUnlockFromISR
 2352 00de 00E0     		b	.L169
 2353              	.L175:
 2354              		.loc 7 332 0
 2355 00e0 00BF     		nop
 2356              	.L169:
 2357              		.loc 7 366 0
 2358 00e2 054B     		ldr	r3, .L176
 2359 00e4 059A     		ldr	r2, [sp, #20]
 2360 00e6 1B68     		ldr	r3, [r3]
 2361 00e8 9A42     		cmp	r2, r3
 2362 00ea 01D0     		beq	.L174
 2363 00ec FFF7FEFF 		bl	__stack_chk_fail
 2364              	.L174:
 2365 00f0 07B0     		add	sp, sp, #28
 2366              		.cfi_def_cfa_offset 4
 2367              		@ sp needed
 2368 00f2 5DF804FB 		ldr	pc, [sp], #4
 2369              	.L177:
 2370 00f6 00BF     		.align	2
 2371              	.L176:
 2372 00f8 00000000 		.word	__stack_chk_guard
 2373              		.cfi_endproc
 2374              	.LFE272:
 2375              		.size	sduDataTransmitted, .-sduDataTransmitted
 2376              		.section	.text.sduDataReceived,"ax",%progbits
 2377              		.align	1
 2378              		.p2align 4,,15
 2379              		.global	sduDataReceived
 2380              		.syntax unified
 2381              		.thumb
 2382              		.thumb_func
 2383              		.fpu fpv4-sp-d16
 2384              		.type	sduDataReceived, %function
 2385              	sduDataReceived:
 2386              	.LFB273:
 2387              		.loc 7 376 0
 2388              		.cfi_startproc
 2389              		@ args = 0, pretend = 0, frame = 24
 2390              		@ frame_needed = 0, uses_anonymous_args = 0
 2391 0000 00B5     		push	{lr}
 2392              		.cfi_def_cfa_offset 4
 2393              		.cfi_offset 14, -4
 2394 0002 87B0     		sub	sp, sp, #28
ARM GAS  C:\Users\PCHAUT~1\AppData\Local\Temp\ccOhqcVB.s 			page 43


 2395              		.cfi_def_cfa_offset 32
 2396 0004 0190     		str	r0, [sp, #4]
 2397 0006 0B46     		mov	r3, r1
 2398 0008 8DF80330 		strb	r3, [sp, #3]
 2399              		.loc 7 376 0
 2400 000c 284B     		ldr	r3, .L184
 2401 000e 1B68     		ldr	r3, [r3]
 2402 0010 0593     		str	r3, [sp, #20]
 2403              		.loc 7 378 0
 2404 0012 9DF80330 		ldrb	r3, [sp, #3]	@ zero_extendqisi2
 2405 0016 5A1E     		subs	r2, r3, #1
 2406 0018 019B     		ldr	r3, [sp, #4]
 2407 001a 0A32     		adds	r2, r2, #10
 2408 001c 53F82230 		ldr	r3, [r3, r2, lsl #2]
 2409 0020 0293     		str	r3, [sp, #8]
 2410              		.loc 7 380 0
 2411 0022 029B     		ldr	r3, [sp, #8]
 2412 0024 002B     		cmp	r3, #0
 2413 0026 38D0     		beq	.L183
 2414              		.loc 7 384 0
 2415 0028 FFF7FEFF 		bl	osalSysLockFromISR
 2416              		.loc 7 385 0
 2417 002c 029B     		ldr	r3, [sp, #8]
 2418 002e 0433     		adds	r3, r3, #4
 2419 0030 0421     		movs	r1, #4
 2420 0032 1846     		mov	r0, r3
 2421 0034 FFF7FEFF 		bl	osalEventBroadcastFlagsI
 2422              		.loc 7 389 0
 2423 0038 9DF80330 		ldrb	r3, [sp, #3]	@ zero_extendqisi2
 2424 003c 019A     		ldr	r2, [sp, #4]
 2425 003e 0233     		adds	r3, r3, #2
 2426 0040 9B00     		lsls	r3, r3, #2
 2427 0042 1344     		add	r3, r3, r2
 2428 0044 5B68     		ldr	r3, [r3, #4]
 2429 0046 5B8A     		ldrh	r3, [r3, #18]
 2430 0048 0393     		str	r3, [sp, #12]
 2431              		.loc 7 390 0
 2432 004a 029B     		ldr	r3, [sp, #8]
 2433 004c 0C33     		adds	r3, r3, #12
 2434 004e 1846     		mov	r0, r3
 2435 0050 FFF7FEFF 		bl	chIQGetEmptyI
 2436 0054 0490     		str	r0, [sp, #16]
 2437 0056 049A     		ldr	r2, [sp, #16]
 2438 0058 039B     		ldr	r3, [sp, #12]
 2439 005a 9A42     		cmp	r2, r3
 2440 005c 1AD3     		bcc	.L181
 2441              		.loc 7 393 0
 2442 005e FFF7FEFF 		bl	osalSysUnlockFromISR
 2443              		.loc 7 395 0
 2444 0062 049A     		ldr	r2, [sp, #16]
 2445 0064 039B     		ldr	r3, [sp, #12]
 2446 0066 B2FBF3F2 		udiv	r2, r2, r3
 2447 006a 039B     		ldr	r3, [sp, #12]
 2448 006c 02FB03F3 		mul	r3, r2, r3
 2449 0070 0493     		str	r3, [sp, #16]
 2450              		.loc 7 396 0
 2451 0072 029B     		ldr	r3, [sp, #8]
ARM GAS  C:\Users\PCHAUT~1\AppData\Local\Temp\ccOhqcVB.s 			page 44


 2452 0074 03F10C02 		add	r2, r3, #12
 2453 0078 9DF80310 		ldrb	r1, [sp, #3]	@ zero_extendqisi2
 2454 007c 049B     		ldr	r3, [sp, #16]
 2455 007e 0198     		ldr	r0, [sp, #4]
 2456 0080 FFF7FEFF 		bl	usbPrepareQueuedReceive
 2457              		.loc 7 398 0
 2458 0084 FFF7FEFF 		bl	osalSysLockFromISR
 2459              		.loc 7 399 0
 2460 0088 9DF80330 		ldrb	r3, [sp, #3]	@ zero_extendqisi2
 2461 008c 1946     		mov	r1, r3
 2462 008e 0198     		ldr	r0, [sp, #4]
 2463 0090 FFF7FEFF 		bl	usbStartReceiveI
 2464              	.L181:
 2465              		.loc 7 401 0
 2466 0094 FFF7FEFF 		bl	osalSysUnlockFromISR
 2467 0098 00E0     		b	.L178
 2468              	.L183:
 2469              		.loc 7 381 0
 2470 009a 00BF     		nop
 2471              	.L178:
 2472              		.loc 7 402 0
 2473 009c 044B     		ldr	r3, .L184
 2474 009e 059A     		ldr	r2, [sp, #20]
 2475 00a0 1B68     		ldr	r3, [r3]
 2476 00a2 9A42     		cmp	r2, r3
 2477 00a4 01D0     		beq	.L182
 2478 00a6 FFF7FEFF 		bl	__stack_chk_fail
 2479              	.L182:
 2480 00aa 07B0     		add	sp, sp, #28
 2481              		.cfi_def_cfa_offset 4
 2482              		@ sp needed
 2483 00ac 5DF804FB 		ldr	pc, [sp], #4
 2484              	.L185:
 2485              		.align	2
 2486              	.L184:
 2487 00b0 00000000 		.word	__stack_chk_guard
 2488              		.cfi_endproc
 2489              	.LFE273:
 2490              		.size	sduDataReceived, .-sduDataReceived
 2491              		.section	.text.sduInterruptTransmitted,"ax",%progbits
 2492              		.align	1
 2493              		.p2align 4,,15
 2494              		.global	sduInterruptTransmitted
 2495              		.syntax unified
 2496              		.thumb
 2497              		.thumb_func
 2498              		.fpu fpv4-sp-d16
 2499              		.type	sduInterruptTransmitted, %function
 2500              	sduInterruptTransmitted:
 2501              	.LFB274:
 2502              		.loc 7 412 0
 2503              		.cfi_startproc
 2504              		@ args = 0, pretend = 0, frame = 16
 2505              		@ frame_needed = 0, uses_anonymous_args = 0
 2506 0000 00B5     		push	{lr}
 2507              		.cfi_def_cfa_offset 4
 2508              		.cfi_offset 14, -4
ARM GAS  C:\Users\PCHAUT~1\AppData\Local\Temp\ccOhqcVB.s 			page 45


 2509 0002 85B0     		sub	sp, sp, #20
 2510              		.cfi_def_cfa_offset 24
 2511 0004 0190     		str	r0, [sp, #4]
 2512 0006 0B46     		mov	r3, r1
 2513 0008 8DF80330 		strb	r3, [sp, #3]
 2514              		.loc 7 412 0
 2515 000c 064B     		ldr	r3, .L188
 2516 000e 1B68     		ldr	r3, [r3]
 2517 0010 0393     		str	r3, [sp, #12]
 2518              		.loc 7 416 0
 2519 0012 00BF     		nop
 2520 0014 044B     		ldr	r3, .L188
 2521 0016 039A     		ldr	r2, [sp, #12]
 2522 0018 1B68     		ldr	r3, [r3]
 2523 001a 9A42     		cmp	r2, r3
 2524 001c 01D0     		beq	.L187
 2525 001e FFF7FEFF 		bl	__stack_chk_fail
 2526              	.L187:
 2527 0022 05B0     		add	sp, sp, #20
 2528              		.cfi_def_cfa_offset 4
 2529              		@ sp needed
 2530 0024 5DF804FB 		ldr	pc, [sp], #4
 2531              	.L189:
 2532              		.align	2
 2533              	.L188:
 2534 0028 00000000 		.word	__stack_chk_guard
 2535              		.cfi_endproc
 2536              	.LFE274:
 2537              		.size	sduInterruptTransmitted, .-sduInterruptTransmitted
 2538              		.section	.rodata.__func__.7153,"a",%progbits
 2539              		.align	2
 2540              		.type	__func__.7153, %object
 2541              		.size	__func__.7153, 12
 2542              	__func__.7153:
 2543 0000 63685379 		.ascii	"chSysUnlock\000"
 2543      73556E6C 
 2543      6F636B00 
 2544              		.section	.rodata.__func__.9900,"a",%progbits
 2545              		.align	2
 2546              		.type	__func__.9900, %object
 2547              		.size	__func__.9900, 9
 2548              	__func__.9900:
 2549 0000 73647553 		.ascii	"sduStart\000"
 2549      74617274 
 2549      00
 2550              		.section	.rodata.__func__.9905,"a",%progbits
 2551              		.align	2
 2552              		.type	__func__.9905, %object
 2553              		.size	__func__.9905, 8
 2554              	__func__.9905:
 2555 0000 73647553 		.ascii	"sduStop\000"
 2555      746F7000 
 2556              		.text
 2557              	.Letext0:
 2558              		.file 8 "c:\\users\\pchautems\\documents\\robotiquetp\\eclipse_e-puck2\\tools\\gcc-arm-none-eabi-7
 2559              		.file 9 "c:\\users\\pchautems\\documents\\robotiquetp\\eclipse_e-puck2\\tools\\gcc-arm-none-eabi-7
 2560              		.file 10 "c:\\users\\pchautems\\documents\\robotiquetp\\eclipse_e-puck2\\tools\\gcc-arm-none-eabi-
ARM GAS  C:\Users\PCHAUT~1\AppData\Local\Temp\ccOhqcVB.s 			page 46


 2561              		.file 11 "../lib/e-puck2_main-processor/ChibiOS//os/rt/ports/ARMCMx/compilers/GCC/chtypes.h"
 2562              		.file 12 "../lib/e-puck2_main-processor/ChibiOS//os/rt/include/chsystypes.h"
 2563              		.file 13 "../lib/e-puck2_main-processor/ChibiOS//os/rt/include/chschd.h"
 2564              		.file 14 "../lib/e-puck2_main-processor/ChibiOS//os/ext/CMSIS/include/core_cm4.h"
 2565              		.file 15 "../lib/e-puck2_main-processor/ChibiOS//os/ext/CMSIS/ST/system_stm32f4xx.h"
 2566              		.file 16 "../lib/e-puck2_main-processor/ChibiOS//os/ext/CMSIS/ST/stm32f407xx.h"
 2567              		.file 17 "../lib/e-puck2_main-processor/ChibiOS//os/rt/ports/ARMCMx/chcore.h"
 2568              		.file 18 "../lib/e-puck2_main-processor/ChibiOS//os/rt/include/chdebug.h"
 2569              		.file 19 "../lib/e-puck2_main-processor/ChibiOS//os/rt/include/chtm.h"
 2570              		.file 20 "../lib/e-puck2_main-processor/ChibiOS//os/rt/include/chstats.h"
 2571              		.file 21 "../lib/e-puck2_main-processor/ChibiOS//os/rt/include/chsem.h"
 2572              		.file 22 "../lib/e-puck2_main-processor/ChibiOS//os/rt/include/chmtx.h"
 2573              		.file 23 "../lib/e-puck2_main-processor/ChibiOS//os/rt/include/chregistry.h"
 2574              		.file 24 "../lib/e-puck2_main-processor/ChibiOS//os/hal/ports/STM32/STM32F4xx/stm32_dma.h"
 2575              		.file 25 "../lib/e-puck2_main-processor/ChibiOS//os/hal/include/hal_ioblock.h"
 2576              		.file 26 "../lib/e-puck2_main-processor/ChibiOS//os/hal/ports/STM32/LLD/GPIOv2/pal_lld.h"
 2577              		.file 27 "../lib/e-puck2_main-processor/ChibiOS//os/hal/include/adc.h"
 2578              		.file 28 "../lib/e-puck2_main-processor/ChibiOS//os/hal/ports/STM32/STM32F4xx/adc_lld.h"
 2579              		.file 29 "../lib/e-puck2_main-processor/ChibiOS//os/hal/include/can.h"
 2580              		.file 30 "../lib/e-puck2_main-processor/ChibiOS//os/hal/ports/STM32/LLD/can_lld.h"
 2581              		.file 31 "../lib/e-puck2_main-processor/ChibiOS//os/hal/include/dac.h"
 2582              		.file 32 "../lib/e-puck2_main-processor/ChibiOS//os/hal/ports/STM32/LLD/DACv1/dac_lld.h"
 2583              		.file 33 "../lib/e-puck2_main-processor/ChibiOS//os/hal/include/ext.h"
 2584              		.file 34 "../lib/e-puck2_main-processor/ChibiOS//os/hal/ports/STM32/LLD/ext_lld.h"
 2585              		.file 35 "../lib/e-puck2_main-processor/ChibiOS//os/hal/include/gpt.h"
 2586              		.file 36 "../lib/e-puck2_main-processor/ChibiOS//os/hal/ports/STM32/LLD/TIMv1/gpt_lld.h"
 2587              		.file 37 "../lib/e-puck2_main-processor/ChibiOS//os/hal/ports/STM32/LLD/TIMv1/stm32_tim.h"
 2588              		.file 38 "../lib/e-puck2_main-processor/ChibiOS//os/hal/include/i2c.h"
 2589              		.file 39 "../lib/e-puck2_main-processor/ChibiOS//os/hal/ports/STM32/LLD/I2Cv1/i2c_lld.h"
 2590              		.file 40 "../lib/e-puck2_main-processor/ChibiOS//os/hal/include/i2s.h"
 2591              		.file 41 "../lib/e-puck2_main-processor/ChibiOS//os/hal/ports/STM32/LLD/SPIv1/i2s_lld.h"
 2592              		.file 42 "../lib/e-puck2_main-processor/ChibiOS//os/hal/include/pwm.h"
 2593              		.file 43 "../lib/e-puck2_main-processor/ChibiOS//os/hal/ports/STM32/LLD/TIMv1/pwm_lld.h"
 2594              		.file 44 "../lib/e-puck2_main-processor/ChibiOS//os/hal/include/serial.h"
 2595              		.file 45 "../lib/e-puck2_main-processor/ChibiOS//os/hal/ports/STM32/LLD/USARTv1/serial_lld.h"
 2596              		.file 46 "../lib/e-puck2_main-processor/ChibiOS//os/hal/include/sdc.h"
 2597              		.file 47 "../lib/e-puck2_main-processor/ChibiOS//os/hal/ports/STM32/LLD/sdc_lld.h"
 2598              		.file 48 "../lib/e-puck2_main-processor/ChibiOS//os/hal/include/spi.h"
 2599              		.file 49 "../lib/e-puck2_main-processor/ChibiOS//os/hal/ports/STM32/LLD/SPIv1/spi_lld.h"
 2600              		.file 50 "../lib/e-puck2_main-processor/ChibiOS//os/hal/include/usb.h"
 2601              		.file 51 "../lib/e-puck2_main-processor/ChibiOS//os/hal/ports/STM32/LLD/OTGv1/usb_lld.h"
 2602              		.file 52 "../lib/e-puck2_main-processor/ChibiOS//os/hal/ports/STM32/LLD/OTGv1/stm32_otg.h"
 2603              		.file 53 "../lib/e-puck2_main-processor/ChibiOS//os/hal/include/serial_usb.h"
 2604              		.section	.debug_info,"",%progbits
 2605              	.Ldebug_info0:
 2606 0000 B23D0000 		.4byte	0x3db2
 2607 0004 0400     		.2byte	0x4
 2608 0006 00000000 		.4byte	.Ldebug_abbrev0
 2609 000a 04       		.byte	0x4
 2610 000b 01       		.uleb128 0x1
 2611 000c 75070000 		.4byte	.LASF757
 2612 0010 0C       		.byte	0xc
 2613 0011 C1100000 		.4byte	.LASF758
 2614 0015 AC000000 		.4byte	.LASF759
 2615 0019 00000000 		.4byte	.Ldebug_ranges0+0
 2616 001d 00000000 		.4byte	0
 2617 0021 00000000 		.4byte	.Ldebug_line0
ARM GAS  C:\Users\PCHAUT~1\AppData\Local\Temp\ccOhqcVB.s 			page 47


 2618 0025 02       		.uleb128 0x2
 2619 0026 04       		.byte	0x4
 2620 0027 05       		.byte	0x5
 2621 0028 696E7400 		.ascii	"int\000"
 2622 002c 03       		.uleb128 0x3
 2623 002d 230C0000 		.4byte	.LASF4
 2624 0031 08       		.byte	0x8
 2625 0032 D8       		.byte	0xd8
 2626 0033 37000000 		.4byte	0x37
 2627 0037 04       		.uleb128 0x4
 2628 0038 04       		.byte	0x4
 2629 0039 07       		.byte	0x7
 2630 003a 7D1E0000 		.4byte	.LASF0
 2631 003e 04       		.uleb128 0x4
 2632 003f 08       		.byte	0x8
 2633 0040 05       		.byte	0x5
 2634 0041 AF1C0000 		.4byte	.LASF1
 2635 0045 04       		.uleb128 0x4
 2636 0046 08       		.byte	0x8
 2637 0047 04       		.byte	0x4
 2638 0048 64150000 		.4byte	.LASF2
 2639 004c 04       		.uleb128 0x4
 2640 004d 01       		.byte	0x1
 2641 004e 06       		.byte	0x6
 2642 004f 3B120000 		.4byte	.LASF3
 2643 0053 03       		.uleb128 0x3
 2644 0054 17010000 		.4byte	.LASF5
 2645 0058 09       		.byte	0x9
 2646 0059 2B       		.byte	0x2b
 2647 005a 5E000000 		.4byte	0x5e
 2648 005e 04       		.uleb128 0x4
 2649 005f 01       		.byte	0x1
 2650 0060 08       		.byte	0x8
 2651 0061 08090000 		.4byte	.LASF6
 2652 0065 03       		.uleb128 0x3
 2653 0066 77060000 		.4byte	.LASF7
 2654 006a 09       		.byte	0x9
 2655 006b 37       		.byte	0x37
 2656 006c 70000000 		.4byte	0x70
 2657 0070 04       		.uleb128 0x4
 2658 0071 02       		.byte	0x2
 2659 0072 05       		.byte	0x5
 2660 0073 CC1E0000 		.4byte	.LASF8
 2661 0077 03       		.uleb128 0x3
 2662 0078 81060000 		.4byte	.LASF9
 2663 007c 09       		.byte	0x9
 2664 007d 39       		.byte	0x39
 2665 007e 82000000 		.4byte	0x82
 2666 0082 04       		.uleb128 0x4
 2667 0083 02       		.byte	0x2
 2668 0084 07       		.byte	0x7
 2669 0085 20120000 		.4byte	.LASF10
 2670 0089 03       		.uleb128 0x3
 2671 008a EA180000 		.4byte	.LASF11
 2672 008e 09       		.byte	0x9
 2673 008f 4D       		.byte	0x4d
 2674 0090 94000000 		.4byte	0x94
ARM GAS  C:\Users\PCHAUT~1\AppData\Local\Temp\ccOhqcVB.s 			page 48


 2675 0094 04       		.uleb128 0x4
 2676 0095 04       		.byte	0x4
 2677 0096 05       		.byte	0x5
 2678 0097 47140000 		.4byte	.LASF12
 2679 009b 03       		.uleb128 0x3
 2680 009c F4180000 		.4byte	.LASF13
 2681 00a0 09       		.byte	0x9
 2682 00a1 4F       		.byte	0x4f
 2683 00a2 A6000000 		.4byte	0xa6
 2684 00a6 04       		.uleb128 0x4
 2685 00a7 04       		.byte	0x4
 2686 00a8 07       		.byte	0x7
 2687 00a9 9E150000 		.4byte	.LASF14
 2688 00ad 03       		.uleb128 0x3
 2689 00ae B70E0000 		.4byte	.LASF15
 2690 00b2 09       		.byte	0x9
 2691 00b3 69       		.byte	0x69
 2692 00b4 B8000000 		.4byte	0xb8
 2693 00b8 04       		.uleb128 0x4
 2694 00b9 08       		.byte	0x8
 2695 00ba 07       		.byte	0x7
 2696 00bb A71A0000 		.4byte	.LASF16
 2697 00bf 03       		.uleb128 0x3
 2698 00c0 400C0000 		.4byte	.LASF17
 2699 00c4 0A       		.byte	0xa
 2700 00c5 18       		.byte	0x18
 2701 00c6 53000000 		.4byte	0x53
 2702 00ca 05       		.uleb128 0x5
 2703 00cb BF000000 		.4byte	0xbf
 2704 00cf 03       		.uleb128 0x3
 2705 00d0 03120000 		.4byte	.LASF18
 2706 00d4 0A       		.byte	0xa
 2707 00d5 20       		.byte	0x20
 2708 00d6 65000000 		.4byte	0x65
 2709 00da 03       		.uleb128 0x3
 2710 00db D3010000 		.4byte	.LASF19
 2711 00df 0A       		.byte	0xa
 2712 00e0 24       		.byte	0x24
 2713 00e1 77000000 		.4byte	0x77
 2714 00e5 03       		.uleb128 0x3
 2715 00e6 30030000 		.4byte	.LASF20
 2716 00ea 0A       		.byte	0xa
 2717 00eb 2C       		.byte	0x2c
 2718 00ec 89000000 		.4byte	0x89
 2719 00f0 06       		.uleb128 0x6
 2720 00f1 E5000000 		.4byte	0xe5
 2721 00f5 03       		.uleb128 0x3
 2722 00f6 25150000 		.4byte	.LASF21
 2723 00fa 0A       		.byte	0xa
 2724 00fb 30       		.byte	0x30
 2725 00fc 9B000000 		.4byte	0x9b
 2726 0100 06       		.uleb128 0x6
 2727 0101 F5000000 		.4byte	0xf5
 2728 0105 05       		.uleb128 0x5
 2729 0106 00010000 		.4byte	0x100
 2730 010a 03       		.uleb128 0x3
 2731 010b 1C0A0000 		.4byte	.LASF22
ARM GAS  C:\Users\PCHAUT~1\AppData\Local\Temp\ccOhqcVB.s 			page 49


 2732 010f 0A       		.byte	0xa
 2733 0110 3C       		.byte	0x3c
 2734 0111 AD000000 		.4byte	0xad
 2735 0115 03       		.uleb128 0x3
 2736 0116 B70B0000 		.4byte	.LASF23
 2737 011a 0B       		.byte	0xb
 2738 011b 45       		.byte	0x45
 2739 011c F5000000 		.4byte	0xf5
 2740 0120 03       		.uleb128 0x3
 2741 0121 EF040000 		.4byte	.LASF24
 2742 0125 0B       		.byte	0xb
 2743 0126 46       		.byte	0x46
 2744 0127 0A010000 		.4byte	0x10a
 2745 012b 03       		.uleb128 0x3
 2746 012c 0B100000 		.4byte	.LASF25
 2747 0130 0B       		.byte	0xb
 2748 0131 48       		.byte	0x48
 2749 0132 BF000000 		.4byte	0xbf
 2750 0136 03       		.uleb128 0x3
 2751 0137 761B0000 		.4byte	.LASF26
 2752 013b 0B       		.byte	0xb
 2753 013c 49       		.byte	0x49
 2754 013d BF000000 		.4byte	0xbf
 2755 0141 03       		.uleb128 0x3
 2756 0142 C60F0000 		.4byte	.LASF27
 2757 0146 0B       		.byte	0xb
 2758 0147 4A       		.byte	0x4a
 2759 0148 BF000000 		.4byte	0xbf
 2760 014c 03       		.uleb128 0x3
 2761 014d 9B110000 		.4byte	.LASF28
 2762 0151 0B       		.byte	0xb
 2763 0152 4B       		.byte	0x4b
 2764 0153 BF000000 		.4byte	0xbf
 2765 0157 03       		.uleb128 0x3
 2766 0158 94050000 		.4byte	.LASF29
 2767 015c 0B       		.byte	0xb
 2768 015d 4C       		.byte	0x4c
 2769 015e F5000000 		.4byte	0xf5
 2770 0162 03       		.uleb128 0x3
 2771 0163 6D000000 		.4byte	.LASF30
 2772 0167 0B       		.byte	0xb
 2773 0168 4D       		.byte	0x4d
 2774 0169 E5000000 		.4byte	0xe5
 2775 016d 03       		.uleb128 0x3
 2776 016e 79150000 		.4byte	.LASF31
 2777 0172 0B       		.byte	0xb
 2778 0173 4F       		.byte	0x4f
 2779 0174 F5000000 		.4byte	0xf5
 2780 0178 03       		.uleb128 0x3
 2781 0179 241D0000 		.4byte	.LASF32
 2782 017d 0B       		.byte	0xb
 2783 017e 50       		.byte	0x50
 2784 017f F5000000 		.4byte	0xf5
 2785 0183 03       		.uleb128 0x3
 2786 0184 51170000 		.4byte	.LASF33
 2787 0188 0B       		.byte	0xb
 2788 0189 51       		.byte	0x51
ARM GAS  C:\Users\PCHAUT~1\AppData\Local\Temp\ccOhqcVB.s 			page 50


 2789 018a E5000000 		.4byte	0xe5
 2790 018e 03       		.uleb128 0x3
 2791 018f 5A120000 		.4byte	.LASF34
 2792 0193 0B       		.byte	0xb
 2793 0194 52       		.byte	0x52
 2794 0195 F5000000 		.4byte	0xf5
 2795 0199 03       		.uleb128 0x3
 2796 019a 44030000 		.4byte	.LASF35
 2797 019e 0C       		.byte	0xc
 2798 019f 33       		.byte	0x33
 2799 01a0 F5000000 		.4byte	0xf5
 2800 01a4 06       		.uleb128 0x6
 2801 01a5 99010000 		.4byte	0x199
 2802 01a9 03       		.uleb128 0x3
 2803 01aa E8020000 		.4byte	.LASF36
 2804 01ae 0C       		.byte	0xc
 2805 01af 3F       		.byte	0x3f
 2806 01b0 B4010000 		.4byte	0x1b4
 2807 01b4 07       		.uleb128 0x7
 2808 01b5 40090000 		.4byte	.LASF60
 2809 01b9 68       		.byte	0x68
 2810 01ba 0D       		.byte	0xd
 2811 01bb C2       		.byte	0xc2
 2812 01bc D2020000 		.4byte	0x2d2
 2813 01c0 08       		.uleb128 0x8
 2814 01c1 540F0000 		.4byte	.LASF37
 2815 01c5 0D       		.byte	0xd
 2816 01c6 C3       		.byte	0xc3
 2817 01c7 DD020000 		.4byte	0x2dd
 2818 01cb 00       		.byte	0
 2819 01cc 08       		.uleb128 0x8
 2820 01cd 600C0000 		.4byte	.LASF38
 2821 01d1 0D       		.byte	0xd
 2822 01d2 C5       		.byte	0xc5
 2823 01d3 DD020000 		.4byte	0x2dd
 2824 01d7 04       		.byte	0x4
 2825 01d8 08       		.uleb128 0x8
 2826 01d9 A00E0000 		.4byte	.LASF39
 2827 01dd 0D       		.byte	0xd
 2828 01de C7       		.byte	0xc7
 2829 01df 57010000 		.4byte	0x157
 2830 01e3 08       		.byte	0x8
 2831 01e4 08       		.uleb128 0x8
 2832 01e5 B5090000 		.4byte	.LASF40
 2833 01e9 0D       		.byte	0xd
 2834 01ea C8       		.byte	0xc8
 2835 01eb E70C0000 		.4byte	0xce7
 2836 01ef 0C       		.byte	0xc
 2837 01f0 08       		.uleb128 0x8
 2838 01f1 53020000 		.4byte	.LASF41
 2839 01f5 0D       		.byte	0xd
 2840 01f6 CA       		.byte	0xca
 2841 01f7 DD020000 		.4byte	0x2dd
 2842 01fb 10       		.byte	0x10
 2843 01fc 08       		.uleb128 0x8
 2844 01fd 981D0000 		.4byte	.LASF42
 2845 0201 0D       		.byte	0xd
ARM GAS  C:\Users\PCHAUT~1\AppData\Local\Temp\ccOhqcVB.s 			page 51


 2846 0202 CB       		.byte	0xcb
 2847 0203 DD020000 		.4byte	0x2dd
 2848 0207 14       		.byte	0x14
 2849 0208 08       		.uleb128 0x8
 2850 0209 E61B0000 		.4byte	.LASF43
 2851 020d 0D       		.byte	0xd
 2852 020e D2       		.byte	0xd2
 2853 020f 5D100000 		.4byte	0x105d
 2854 0213 18       		.byte	0x18
 2855 0214 08       		.uleb128 0x8
 2856 0215 46170000 		.4byte	.LASF44
 2857 0219 0D       		.byte	0xd
 2858 021a D8       		.byte	0xd8
 2859 021b 74100000 		.4byte	0x1074
 2860 021f 1C       		.byte	0x1c
 2861 0220 08       		.uleb128 0x8
 2862 0221 5D1F0000 		.4byte	.LASF45
 2863 0225 0D       		.byte	0xd
 2864 0226 DD       		.byte	0xdd
 2865 0227 36010000 		.4byte	0x136
 2866 022b 20       		.byte	0x20
 2867 022c 08       		.uleb128 0x8
 2868 022d 3C1B0000 		.4byte	.LASF46
 2869 0231 0D       		.byte	0xd
 2870 0232 E1       		.byte	0xe1
 2871 0233 2B010000 		.4byte	0x12b
 2872 0237 21       		.byte	0x21
 2873 0238 08       		.uleb128 0x8
 2874 0239 26140000 		.4byte	.LASF47
 2875 023d 0D       		.byte	0xd
 2876 023e E6       		.byte	0xe6
 2877 023f 41010000 		.4byte	0x141
 2878 0243 22       		.byte	0x22
 2879 0244 08       		.uleb128 0x8
 2880 0245 50120000 		.4byte	.LASF48
 2881 0249 0D       		.byte	0xd
 2882 024a EC       		.byte	0xec
 2883 024b 4C010000 		.4byte	0x14c
 2884 024f 23       		.byte	0x23
 2885 0250 08       		.uleb128 0x8
 2886 0251 1F140000 		.4byte	.LASF49
 2887 0255 0D       		.byte	0xd
 2888 0256 F3       		.byte	0xf3
 2889 0257 A4010000 		.4byte	0x1a4
 2890 025b 24       		.byte	0x24
 2891 025c 09       		.uleb128 0x9
 2892 025d 705F7500 		.ascii	"p_u\000"
 2893 0261 0D       		.byte	0xd
 2894 0262 3101     		.2byte	0x131
 2895 0264 8C0F0000 		.4byte	0xf8c
 2896 0268 28       		.byte	0x28
 2897 0269 0A       		.uleb128 0xa
 2898 026a 4A040000 		.4byte	.LASF50
 2899 026e 0D       		.byte	0xd
 2900 026f 3601     		.2byte	0x136
 2901 0271 E3020000 		.4byte	0x2e3
 2902 0275 2C       		.byte	0x2c
ARM GAS  C:\Users\PCHAUT~1\AppData\Local\Temp\ccOhqcVB.s 			page 52


 2903 0276 0A       		.uleb128 0xa
 2904 0277 C2120000 		.4byte	.LASF51
 2905 027b 0D       		.byte	0xd
 2906 027c 3C01     		.2byte	0x13c
 2907 027e 07030000 		.4byte	0x307
 2908 0282 30       		.byte	0x30
 2909 0283 0A       		.uleb128 0xa
 2910 0284 A4060000 		.4byte	.LASF52
 2911 0288 0D       		.byte	0xd
 2912 0289 4001     		.2byte	0x140
 2913 028b 62010000 		.4byte	0x162
 2914 028f 38       		.byte	0x38
 2915 0290 0A       		.uleb128 0xa
 2916 0291 88190000 		.4byte	.LASF53
 2917 0295 0D       		.byte	0xd
 2918 0296 4601     		.2byte	0x146
 2919 0298 6D010000 		.4byte	0x16d
 2920 029c 3C       		.byte	0x3c
 2921 029d 0A       		.uleb128 0xa
 2922 029e 611B0000 		.4byte	.LASF54
 2923 02a2 0D       		.byte	0xd
 2924 02a3 4D01     		.2byte	0x14d
 2925 02a5 57100000 		.4byte	0x1057
 2926 02a9 40       		.byte	0x40
 2927 02aa 0A       		.uleb128 0xa
 2928 02ab 63180000 		.4byte	.LASF55
 2929 02af 0D       		.byte	0xd
 2930 02b0 5101     		.2byte	0x151
 2931 02b2 57010000 		.4byte	0x157
 2932 02b6 44       		.byte	0x44
 2933 02b7 0A       		.uleb128 0xa
 2934 02b8 CE0F0000 		.4byte	.LASF56
 2935 02bc 0D       		.byte	0xd
 2936 02bd 5801     		.2byte	0x158
 2937 02bf BA030000 		.4byte	0x3ba
 2938 02c3 48       		.byte	0x48
 2939 02c4 0A       		.uleb128 0xa
 2940 02c5 981F0000 		.4byte	.LASF57
 2941 02c9 0D       		.byte	0xd
 2942 02ca 5E01     		.2byte	0x15e
 2943 02cc 3D0F0000 		.4byte	0xf3d
 2944 02d0 50       		.byte	0x50
 2945 02d1 00       		.byte	0
 2946 02d2 03       		.uleb128 0x3
 2947 02d3 E51D0000 		.4byte	.LASF58
 2948 02d7 0C       		.byte	0xc
 2949 02d8 44       		.byte	0x44
 2950 02d9 DD020000 		.4byte	0x2dd
 2951 02dd 0B       		.uleb128 0xb
 2952 02de 04       		.byte	0x4
 2953 02df A9010000 		.4byte	0x1a9
 2954 02e3 03       		.uleb128 0x3
 2955 02e4 89040000 		.4byte	.LASF59
 2956 02e8 0C       		.byte	0xc
 2957 02e9 49       		.byte	0x49
 2958 02ea EE020000 		.4byte	0x2ee
 2959 02ee 07       		.uleb128 0x7
ARM GAS  C:\Users\PCHAUT~1\AppData\Local\Temp\ccOhqcVB.s 			page 53


 2960 02ef 771F0000 		.4byte	.LASF61
 2961 02f3 04       		.byte	0x4
 2962 02f4 0D       		.byte	0xd
 2963 02f5 B0       		.byte	0xb0
 2964 02f6 07030000 		.4byte	0x307
 2965 02fa 08       		.uleb128 0x8
 2966 02fb 540F0000 		.4byte	.LASF37
 2967 02ff 0D       		.byte	0xd
 2968 0300 B1       		.byte	0xb1
 2969 0301 DD020000 		.4byte	0x2dd
 2970 0305 00       		.byte	0
 2971 0306 00       		.byte	0
 2972 0307 03       		.uleb128 0x3
 2973 0308 FA130000 		.4byte	.LASF62
 2974 030c 0C       		.byte	0xc
 2975 030d 50       		.byte	0x50
 2976 030e 12030000 		.4byte	0x312
 2977 0312 07       		.uleb128 0x7
 2978 0313 42020000 		.4byte	.LASF63
 2979 0317 08       		.byte	0x8
 2980 0318 0D       		.byte	0xd
 2981 0319 B7       		.byte	0xb7
 2982 031a 37030000 		.4byte	0x337
 2983 031e 08       		.uleb128 0x8
 2984 031f 540F0000 		.4byte	.LASF37
 2985 0323 0D       		.byte	0xd
 2986 0324 B8       		.byte	0xb8
 2987 0325 DD020000 		.4byte	0x2dd
 2988 0329 00       		.byte	0
 2989 032a 08       		.uleb128 0x8
 2990 032b 600C0000 		.4byte	.LASF38
 2991 032f 0D       		.byte	0xd
 2992 0330 B9       		.byte	0xb9
 2993 0331 DD020000 		.4byte	0x2dd
 2994 0335 04       		.byte	0x4
 2995 0336 00       		.byte	0
 2996 0337 03       		.uleb128 0x3
 2997 0338 33090000 		.4byte	.LASF64
 2998 033c 0C       		.byte	0xc
 2999 033d 57       		.byte	0x57
 3000 033e 42030000 		.4byte	0x342
 3001 0342 0C       		.uleb128 0xc
 3002 0343 D6180000 		.4byte	.LASF65
 3003 0347 1C       		.byte	0x1c
 3004 0348 0D       		.byte	0xd
 3005 0349 9001     		.2byte	0x190
 3006 034b 9E030000 		.4byte	0x39e
 3007 034f 0A       		.uleb128 0xa
 3008 0350 56160000 		.4byte	.LASF66
 3009 0354 0D       		.byte	0xd
 3010 0355 9101     		.2byte	0x191
 3011 0357 07030000 		.4byte	0x307
 3012 035b 00       		.byte	0
 3013 035c 0A       		.uleb128 0xa
 3014 035d 7C1A0000 		.4byte	.LASF67
 3015 0361 0D       		.byte	0xd
 3016 0362 9201     		.2byte	0x192
ARM GAS  C:\Users\PCHAUT~1\AppData\Local\Temp\ccOhqcVB.s 			page 54


 3017 0364 57010000 		.4byte	0x157
 3018 0368 08       		.byte	0x8
 3019 0369 0A       		.uleb128 0xa
 3020 036a 8F0B0000 		.4byte	.LASF68
 3021 036e 0D       		.byte	0xd
 3022 036f 9401     		.2byte	0x194
 3023 0371 E70C0000 		.4byte	0xce7
 3024 0375 0C       		.byte	0xc
 3025 0376 0A       		.uleb128 0xa
 3026 0377 31110000 		.4byte	.LASF69
 3027 037b 0D       		.byte	0xd
 3028 037c 9701     		.2byte	0x197
 3029 037e DD020000 		.4byte	0x2dd
 3030 0382 10       		.byte	0x10
 3031 0383 0A       		.uleb128 0xa
 3032 0384 580C0000 		.4byte	.LASF70
 3033 0388 0D       		.byte	0xd
 3034 0389 9801     		.2byte	0x198
 3035 038b DD020000 		.4byte	0x2dd
 3036 038f 14       		.byte	0x14
 3037 0390 0A       		.uleb128 0xa
 3038 0391 DA090000 		.4byte	.LASF71
 3039 0395 0D       		.byte	0xd
 3040 0396 9B01     		.2byte	0x19b
 3041 0398 DD020000 		.4byte	0x2dd
 3042 039c 18       		.byte	0x18
 3043 039d 00       		.byte	0
 3044 039e 03       		.uleb128 0x3
 3045 039f 1A180000 		.4byte	.LASF72
 3046 03a3 0C       		.byte	0xc
 3047 03a4 5C       		.byte	0x5c
 3048 03a5 A9030000 		.4byte	0x3a9
 3049 03a9 0B       		.uleb128 0xb
 3050 03aa 04       		.byte	0x4
 3051 03ab AF030000 		.4byte	0x3af
 3052 03af 0D       		.uleb128 0xd
 3053 03b0 BA030000 		.4byte	0x3ba
 3054 03b4 0E       		.uleb128 0xe
 3055 03b5 BA030000 		.4byte	0x3ba
 3056 03b9 00       		.byte	0
 3057 03ba 0F       		.uleb128 0xf
 3058 03bb 04       		.byte	0x4
 3059 03bc 03       		.uleb128 0x3
 3060 03bd 730B0000 		.4byte	.LASF73
 3061 03c1 0C       		.byte	0xc
 3062 03c2 61       		.byte	0x61
 3063 03c3 C7030000 		.4byte	0x3c7
 3064 03c7 0C       		.uleb128 0xc
 3065 03c8 2B1B0000 		.4byte	.LASF74
 3066 03cc 14       		.byte	0x14
 3067 03cd 0D       		.byte	0xd
 3068 03ce 6B01     		.2byte	0x16b
 3069 03d0 16040000 		.4byte	0x416
 3070 03d4 0A       		.uleb128 0xa
 3071 03d5 950B0000 		.4byte	.LASF75
 3072 03d9 0D       		.byte	0xd
 3073 03da 6C01     		.2byte	0x16c
ARM GAS  C:\Users\PCHAUT~1\AppData\Local\Temp\ccOhqcVB.s 			page 55


 3074 03dc 7A100000 		.4byte	0x107a
 3075 03e0 00       		.byte	0
 3076 03e1 0A       		.uleb128 0xa
 3077 03e2 F0080000 		.4byte	.LASF76
 3078 03e6 0D       		.byte	0xd
 3079 03e7 6D01     		.2byte	0x16d
 3080 03e9 7A100000 		.4byte	0x107a
 3081 03ed 04       		.byte	0x4
 3082 03ee 0A       		.uleb128 0xa
 3083 03ef D9110000 		.4byte	.LASF77
 3084 03f3 0D       		.byte	0xd
 3085 03f4 6E01     		.2byte	0x16e
 3086 03f6 99010000 		.4byte	0x199
 3087 03fa 08       		.byte	0x8
 3088 03fb 0A       		.uleb128 0xa
 3089 03fc 161B0000 		.4byte	.LASF78
 3090 0400 0D       		.byte	0xd
 3091 0401 6F01     		.2byte	0x16f
 3092 0403 9E030000 		.4byte	0x39e
 3093 0407 0C       		.byte	0xc
 3094 0408 0A       		.uleb128 0xa
 3095 0409 BB090000 		.4byte	.LASF79
 3096 040d 0D       		.byte	0xd
 3097 040e 7101     		.2byte	0x171
 3098 0410 BA030000 		.4byte	0x3ba
 3099 0414 10       		.byte	0x10
 3100 0415 00       		.byte	0
 3101 0416 03       		.uleb128 0x3
 3102 0417 211C0000 		.4byte	.LASF80
 3103 041b 0C       		.byte	0xc
 3104 041c 66       		.byte	0x66
 3105 041d 21040000 		.4byte	0x421
 3106 0421 0C       		.uleb128 0xc
 3107 0422 12030000 		.4byte	.LASF81
 3108 0426 10       		.byte	0x10
 3109 0427 0D       		.byte	0xd
 3110 0428 7B01     		.2byte	0x17b
 3111 042a 63040000 		.4byte	0x463
 3112 042e 0A       		.uleb128 0xa
 3113 042f 950B0000 		.4byte	.LASF75
 3114 0433 0D       		.byte	0xd
 3115 0434 7C01     		.2byte	0x17c
 3116 0436 7A100000 		.4byte	0x107a
 3117 043a 00       		.byte	0
 3118 043b 0A       		.uleb128 0xa
 3119 043c F0080000 		.4byte	.LASF76
 3120 0440 0D       		.byte	0xd
 3121 0441 7E01     		.2byte	0x17e
 3122 0443 7A100000 		.4byte	0x107a
 3123 0447 04       		.byte	0x4
 3124 0448 0A       		.uleb128 0xa
 3125 0449 D9110000 		.4byte	.LASF77
 3126 044d 0D       		.byte	0xd
 3127 044e 8001     		.2byte	0x180
 3128 0450 99010000 		.4byte	0x199
 3129 0454 08       		.byte	0x8
 3130 0455 0A       		.uleb128 0xa
ARM GAS  C:\Users\PCHAUT~1\AppData\Local\Temp\ccOhqcVB.s 			page 56


 3131 0456 7C010000 		.4byte	.LASF82
 3132 045a 0D       		.byte	0xd
 3133 045b 8201     		.2byte	0x182
 3134 045d A4010000 		.4byte	0x1a4
 3135 0461 0C       		.byte	0xc
 3136 0462 00       		.byte	0
 3137 0463 03       		.uleb128 0x3
 3138 0464 93090000 		.4byte	.LASF83
 3139 0468 0C       		.byte	0xc
 3140 0469 6B       		.byte	0x6b
 3141 046a 6E040000 		.4byte	0x46e
 3142 046e 10       		.uleb128 0x10
 3143 046f FF180000 		.4byte	.LASF84
 3144 0473 1404     		.2byte	0x414
 3145 0475 0D       		.byte	0xd
 3146 0476 A201     		.2byte	0x1a2
 3147 0478 B1040000 		.4byte	0x4b1
 3148 047c 0A       		.uleb128 0xa
 3149 047d 13110000 		.4byte	.LASF85
 3150 0481 0D       		.byte	0xd
 3151 0482 AA01     		.2byte	0x1aa
 3152 0484 63100000 		.4byte	0x1063
 3153 0488 00       		.byte	0
 3154 0489 0A       		.uleb128 0xa
 3155 048a A9100000 		.4byte	.LASF86
 3156 048e 0D       		.byte	0xd
 3157 048f AF01     		.2byte	0x1af
 3158 0491 83010000 		.4byte	0x183
 3159 0495 04       		.byte	0x4
 3160 0496 0A       		.uleb128 0xa
 3161 0497 39020000 		.4byte	.LASF87
 3162 049b 0D       		.byte	0xd
 3163 049c B301     		.2byte	0x1b3
 3164 049e 83010000 		.4byte	0x183
 3165 04a2 08       		.byte	0x8
 3166 04a3 0A       		.uleb128 0xa
 3167 04a4 8D130000 		.4byte	.LASF88
 3168 04a8 0D       		.byte	0xd
 3169 04a9 B901     		.2byte	0x1b9
 3170 04ab CF0E0000 		.4byte	0xecf
 3171 04af 0C       		.byte	0xc
 3172 04b0 00       		.byte	0
 3173 04b1 03       		.uleb128 0x3
 3174 04b2 0B010000 		.4byte	.LASF89
 3175 04b6 0C       		.byte	0xc
 3176 04b7 70       		.byte	0x70
 3177 04b8 BC040000 		.4byte	0x4bc
 3178 04bc 10       		.uleb128 0x10
 3179 04bd 7D130000 		.4byte	.LASF90
 3180 04c1 7006     		.2byte	0x670
 3181 04c3 0D       		.byte	0xd
 3182 04c4 C201     		.2byte	0x1c2
 3183 04c6 29050000 		.4byte	0x529
 3184 04ca 0A       		.uleb128 0xa
 3185 04cb 83040000 		.4byte	.LASF91
 3186 04cf 0D       		.byte	0xd
 3187 04d0 C601     		.2byte	0x1c6
ARM GAS  C:\Users\PCHAUT~1\AppData\Local\Temp\ccOhqcVB.s 			page 57


 3188 04d2 37030000 		.4byte	0x337
 3189 04d6 00       		.byte	0
 3190 04d7 0A       		.uleb128 0xa
 3191 04d8 34040000 		.4byte	.LASF92
 3192 04dc 0D       		.byte	0xd
 3193 04dd CA01     		.2byte	0x1ca
 3194 04df 16040000 		.4byte	0x416
 3195 04e3 1C       		.byte	0x1c
 3196 04e4 09       		.uleb128 0x9
 3197 04e5 64626700 		.ascii	"dbg\000"
 3198 04e9 0D       		.byte	0xd
 3199 04ea CE01     		.2byte	0x1ce
 3200 04ec 63040000 		.4byte	0x463
 3201 04f0 2C       		.byte	0x2c
 3202 04f1 11       		.uleb128 0x11
 3203 04f2 58140000 		.4byte	.LASF93
 3204 04f6 0D       		.byte	0xd
 3205 04f7 D201     		.2byte	0x1d2
 3206 04f9 A9010000 		.4byte	0x1a9
 3207 04fd 4004     		.2byte	0x440
 3208 04ff 12       		.uleb128 0x12
 3209 0500 746D00   		.ascii	"tm\000"
 3210 0503 0D       		.byte	0xd
 3211 0504 D701     		.2byte	0x1d7
 3212 0506 EF0E0000 		.4byte	0xeef
 3213 050a A804     		.2byte	0x4a8
 3214 050c 11       		.uleb128 0x11
 3215 050d 2A0C0000 		.4byte	.LASF94
 3216 0511 0D       		.byte	0xd
 3217 0512 DD01     		.2byte	0x1dd
 3218 0514 810F0000 		.4byte	0xf81
 3219 0518 B004     		.2byte	0x4b0
 3220 051a 11       		.uleb128 0x11
 3221 051b F31A0000 		.4byte	.LASF95
 3222 051f 0D       		.byte	0xd
 3223 0520 E301     		.2byte	0x1e3
 3224 0522 80100000 		.4byte	0x1080
 3225 0526 E804     		.2byte	0x4e8
 3226 0528 00       		.byte	0
 3227 0529 13       		.uleb128 0x13
 3228 052a F5000000 		.4byte	0xf5
 3229 052e 39050000 		.4byte	0x539
 3230 0532 14       		.uleb128 0x14
 3231 0533 37000000 		.4byte	0x37
 3232 0537 01       		.byte	0x1
 3233 0538 00       		.byte	0
 3234 0539 13       		.uleb128 0x13
 3235 053a F5000000 		.4byte	0xf5
 3236 053e 49050000 		.4byte	0x549
 3237 0542 14       		.uleb128 0x14
 3238 0543 37000000 		.4byte	0x37
 3239 0547 07       		.byte	0x7
 3240 0548 00       		.byte	0
 3241 0549 15       		.uleb128 0x15
 3242 054a 8A1A0000 		.4byte	.LASF96
 3243 054e 0E       		.byte	0xe
 3244 054f A706     		.2byte	0x6a7
ARM GAS  C:\Users\PCHAUT~1\AppData\Local\Temp\ccOhqcVB.s 			page 58


 3245 0551 F0000000 		.4byte	0xf0
 3246 0555 16       		.uleb128 0x16
 3247 0556 EB120000 		.4byte	.LASF97
 3248 055a 0F       		.byte	0xf
 3249 055b 4C       		.byte	0x4c
 3250 055c F5000000 		.4byte	0xf5
 3251 0560 17       		.uleb128 0x17
 3252 0561 50       		.byte	0x50
 3253 0562 10       		.byte	0x10
 3254 0563 C4       		.byte	0xc4
 3255 0564 57060000 		.4byte	0x657
 3256 0568 18       		.uleb128 0x18
 3257 0569 535200   		.ascii	"SR\000"
 3258 056c 10       		.byte	0x10
 3259 056d C6       		.byte	0xc6
 3260 056e 00010000 		.4byte	0x100
 3261 0572 00       		.byte	0
 3262 0573 18       		.uleb128 0x18
 3263 0574 43523100 		.ascii	"CR1\000"
 3264 0578 10       		.byte	0x10
 3265 0579 C7       		.byte	0xc7
 3266 057a 00010000 		.4byte	0x100
 3267 057e 04       		.byte	0x4
 3268 057f 18       		.uleb128 0x18
 3269 0580 43523200 		.ascii	"CR2\000"
 3270 0584 10       		.byte	0x10
 3271 0585 C8       		.byte	0xc8
 3272 0586 00010000 		.4byte	0x100
 3273 058a 08       		.byte	0x8
 3274 058b 08       		.uleb128 0x8
 3275 058c 66020000 		.4byte	.LASF98
 3276 0590 10       		.byte	0x10
 3277 0591 C9       		.byte	0xc9
 3278 0592 00010000 		.4byte	0x100
 3279 0596 0C       		.byte	0xc
 3280 0597 08       		.uleb128 0x8
 3281 0598 6C020000 		.4byte	.LASF99
 3282 059c 10       		.byte	0x10
 3283 059d CA       		.byte	0xca
 3284 059e 00010000 		.4byte	0x100
 3285 05a2 10       		.byte	0x10
 3286 05a3 08       		.uleb128 0x8
 3287 05a4 C2090000 		.4byte	.LASF100
 3288 05a8 10       		.byte	0x10
 3289 05a9 CB       		.byte	0xcb
 3290 05aa 00010000 		.4byte	0x100
 3291 05ae 14       		.byte	0x14
 3292 05af 08       		.uleb128 0x8
 3293 05b0 C8090000 		.4byte	.LASF101
 3294 05b4 10       		.byte	0x10
 3295 05b5 CC       		.byte	0xcc
 3296 05b6 00010000 		.4byte	0x100
 3297 05ba 18       		.byte	0x18
 3298 05bb 08       		.uleb128 0x8
 3299 05bc CE090000 		.4byte	.LASF102
 3300 05c0 10       		.byte	0x10
 3301 05c1 CD       		.byte	0xcd
ARM GAS  C:\Users\PCHAUT~1\AppData\Local\Temp\ccOhqcVB.s 			page 59


 3302 05c2 00010000 		.4byte	0x100
 3303 05c6 1C       		.byte	0x1c
 3304 05c7 08       		.uleb128 0x8
 3305 05c8 D4090000 		.4byte	.LASF103
 3306 05cc 10       		.byte	0x10
 3307 05cd CE       		.byte	0xce
 3308 05ce 00010000 		.4byte	0x100
 3309 05d2 20       		.byte	0x20
 3310 05d3 18       		.uleb128 0x18
 3311 05d4 48545200 		.ascii	"HTR\000"
 3312 05d8 10       		.byte	0x10
 3313 05d9 CF       		.byte	0xcf
 3314 05da 00010000 		.4byte	0x100
 3315 05de 24       		.byte	0x24
 3316 05df 18       		.uleb128 0x18
 3317 05e0 4C545200 		.ascii	"LTR\000"
 3318 05e4 10       		.byte	0x10
 3319 05e5 D0       		.byte	0xd0
 3320 05e6 00010000 		.4byte	0x100
 3321 05ea 28       		.byte	0x28
 3322 05eb 08       		.uleb128 0x8
 3323 05ec 36100000 		.4byte	.LASF104
 3324 05f0 10       		.byte	0x10
 3325 05f1 D1       		.byte	0xd1
 3326 05f2 00010000 		.4byte	0x100
 3327 05f6 2C       		.byte	0x2c
 3328 05f7 08       		.uleb128 0x8
 3329 05f8 3B100000 		.4byte	.LASF105
 3330 05fc 10       		.byte	0x10
 3331 05fd D2       		.byte	0xd2
 3332 05fe 00010000 		.4byte	0x100
 3333 0602 30       		.byte	0x30
 3334 0603 08       		.uleb128 0x8
 3335 0604 40100000 		.4byte	.LASF106
 3336 0608 10       		.byte	0x10
 3337 0609 D3       		.byte	0xd3
 3338 060a 00010000 		.4byte	0x100
 3339 060e 34       		.byte	0x34
 3340 060f 08       		.uleb128 0x8
 3341 0610 5C0B0000 		.4byte	.LASF107
 3342 0614 10       		.byte	0x10
 3343 0615 D4       		.byte	0xd4
 3344 0616 00010000 		.4byte	0x100
 3345 061a 38       		.byte	0x38
 3346 061b 08       		.uleb128 0x8
 3347 061c FA1B0000 		.4byte	.LASF108
 3348 0620 10       		.byte	0x10
 3349 0621 D5       		.byte	0xd5
 3350 0622 00010000 		.4byte	0x100
 3351 0626 3C       		.byte	0x3c
 3352 0627 08       		.uleb128 0x8
 3353 0628 FF1B0000 		.4byte	.LASF109
 3354 062c 10       		.byte	0x10
 3355 062d D6       		.byte	0xd6
 3356 062e 00010000 		.4byte	0x100
 3357 0632 40       		.byte	0x40
 3358 0633 08       		.uleb128 0x8
ARM GAS  C:\Users\PCHAUT~1\AppData\Local\Temp\ccOhqcVB.s 			page 60


 3359 0634 041C0000 		.4byte	.LASF110
 3360 0638 10       		.byte	0x10
 3361 0639 D7       		.byte	0xd7
 3362 063a 00010000 		.4byte	0x100
 3363 063e 44       		.byte	0x44
 3364 063f 08       		.uleb128 0x8
 3365 0640 091C0000 		.4byte	.LASF111
 3366 0644 10       		.byte	0x10
 3367 0645 D8       		.byte	0xd8
 3368 0646 00010000 		.4byte	0x100
 3369 064a 48       		.byte	0x48
 3370 064b 18       		.uleb128 0x18
 3371 064c 445200   		.ascii	"DR\000"
 3372 064f 10       		.byte	0x10
 3373 0650 D9       		.byte	0xd9
 3374 0651 00010000 		.4byte	0x100
 3375 0655 4C       		.byte	0x4c
 3376 0656 00       		.byte	0
 3377 0657 03       		.uleb128 0x3
 3378 0658 14120000 		.4byte	.LASF112
 3379 065c 10       		.byte	0x10
 3380 065d DA       		.byte	0xda
 3381 065e 60050000 		.4byte	0x560
 3382 0662 17       		.uleb128 0x17
 3383 0663 10       		.byte	0x10
 3384 0664 10       		.byte	0x10
 3385 0665 E9       		.byte	0xe9
 3386 0666 9B060000 		.4byte	0x69b
 3387 066a 18       		.uleb128 0x18
 3388 066b 54495200 		.ascii	"TIR\000"
 3389 066f 10       		.byte	0x10
 3390 0670 EB       		.byte	0xeb
 3391 0671 00010000 		.4byte	0x100
 3392 0675 00       		.byte	0
 3393 0676 08       		.uleb128 0x8
 3394 0677 4C0E0000 		.4byte	.LASF113
 3395 067b 10       		.byte	0x10
 3396 067c EC       		.byte	0xec
 3397 067d 00010000 		.4byte	0x100
 3398 0681 04       		.byte	0x4
 3399 0682 08       		.uleb128 0x8
 3400 0683 42140000 		.4byte	.LASF114
 3401 0687 10       		.byte	0x10
 3402 0688 ED       		.byte	0xed
 3403 0689 00010000 		.4byte	0x100
 3404 068d 08       		.byte	0x8
 3405 068e 08       		.uleb128 0x8
 3406 068f 61120000 		.4byte	.LASF115
 3407 0693 10       		.byte	0x10
 3408 0694 EE       		.byte	0xee
 3409 0695 00010000 		.4byte	0x100
 3410 0699 0C       		.byte	0xc
 3411 069a 00       		.byte	0
 3412 069b 03       		.uleb128 0x3
 3413 069c 6D040000 		.4byte	.LASF116
 3414 06a0 10       		.byte	0x10
 3415 06a1 EF       		.byte	0xef
ARM GAS  C:\Users\PCHAUT~1\AppData\Local\Temp\ccOhqcVB.s 			page 61


 3416 06a2 62060000 		.4byte	0x662
 3417 06a6 17       		.uleb128 0x17
 3418 06a7 10       		.byte	0x10
 3419 06a8 10       		.byte	0x10
 3420 06a9 F5       		.byte	0xf5
 3421 06aa DF060000 		.4byte	0x6df
 3422 06ae 18       		.uleb128 0x18
 3423 06af 52495200 		.ascii	"RIR\000"
 3424 06b3 10       		.byte	0x10
 3425 06b4 F7       		.byte	0xf7
 3426 06b5 00010000 		.4byte	0x100
 3427 06b9 00       		.byte	0
 3428 06ba 08       		.uleb128 0x8
 3429 06bb B9180000 		.4byte	.LASF117
 3430 06bf 10       		.byte	0x10
 3431 06c0 F8       		.byte	0xf8
 3432 06c1 00010000 		.4byte	0x100
 3433 06c5 04       		.byte	0x4
 3434 06c6 08       		.uleb128 0x8
 3435 06c7 45150000 		.4byte	.LASF118
 3436 06cb 10       		.byte	0x10
 3437 06cc F9       		.byte	0xf9
 3438 06cd 00010000 		.4byte	0x100
 3439 06d1 08       		.byte	0x8
 3440 06d2 08       		.uleb128 0x8
 3441 06d3 6A130000 		.4byte	.LASF119
 3442 06d7 10       		.byte	0x10
 3443 06d8 FA       		.byte	0xfa
 3444 06d9 00010000 		.4byte	0x100
 3445 06dd 0C       		.byte	0xc
 3446 06de 00       		.byte	0
 3447 06df 03       		.uleb128 0x3
 3448 06e0 23180000 		.4byte	.LASF120
 3449 06e4 10       		.byte	0x10
 3450 06e5 FB       		.byte	0xfb
 3451 06e6 A6060000 		.4byte	0x6a6
 3452 06ea 19       		.uleb128 0x19
 3453 06eb 08       		.byte	0x8
 3454 06ec 10       		.byte	0x10
 3455 06ed 0101     		.2byte	0x101
 3456 06ef 0E070000 		.4byte	0x70e
 3457 06f3 09       		.uleb128 0x9
 3458 06f4 46523100 		.ascii	"FR1\000"
 3459 06f8 10       		.byte	0x10
 3460 06f9 0301     		.2byte	0x103
 3461 06fb 00010000 		.4byte	0x100
 3462 06ff 00       		.byte	0
 3463 0700 09       		.uleb128 0x9
 3464 0701 46523200 		.ascii	"FR2\000"
 3465 0705 10       		.byte	0x10
 3466 0706 0401     		.2byte	0x104
 3467 0708 00010000 		.4byte	0x100
 3468 070c 04       		.byte	0x4
 3469 070d 00       		.byte	0
 3470 070e 1A       		.uleb128 0x1a
 3471 070f 510E0000 		.4byte	.LASF121
 3472 0713 10       		.byte	0x10
ARM GAS  C:\Users\PCHAUT~1\AppData\Local\Temp\ccOhqcVB.s 			page 62


 3473 0714 0501     		.2byte	0x105
 3474 0716 EA060000 		.4byte	0x6ea
 3475 071a 1B       		.uleb128 0x1b
 3476 071b 2003     		.2byte	0x320
 3477 071d 10       		.byte	0x10
 3478 071e 0B01     		.2byte	0x10b
 3479 0720 50080000 		.4byte	0x850
 3480 0724 09       		.uleb128 0x9
 3481 0725 4D435200 		.ascii	"MCR\000"
 3482 0729 10       		.byte	0x10
 3483 072a 0D01     		.2byte	0x10d
 3484 072c 00010000 		.4byte	0x100
 3485 0730 00       		.byte	0
 3486 0731 09       		.uleb128 0x9
 3487 0732 4D535200 		.ascii	"MSR\000"
 3488 0736 10       		.byte	0x10
 3489 0737 0E01     		.2byte	0x10e
 3490 0739 00010000 		.4byte	0x100
 3491 073d 04       		.byte	0x4
 3492 073e 09       		.uleb128 0x9
 3493 073f 54535200 		.ascii	"TSR\000"
 3494 0743 10       		.byte	0x10
 3495 0744 0F01     		.2byte	0x10f
 3496 0746 00010000 		.4byte	0x100
 3497 074a 08       		.byte	0x8
 3498 074b 0A       		.uleb128 0xa
 3499 074c 150D0000 		.4byte	.LASF122
 3500 0750 10       		.byte	0x10
 3501 0751 1001     		.2byte	0x110
 3502 0753 00010000 		.4byte	0x100
 3503 0757 0C       		.byte	0xc
 3504 0758 0A       		.uleb128 0xa
 3505 0759 A50D0000 		.4byte	.LASF123
 3506 075d 10       		.byte	0x10
 3507 075e 1101     		.2byte	0x111
 3508 0760 00010000 		.4byte	0x100
 3509 0764 10       		.byte	0x10
 3510 0765 09       		.uleb128 0x9
 3511 0766 49455200 		.ascii	"IER\000"
 3512 076a 10       		.byte	0x10
 3513 076b 1201     		.2byte	0x112
 3514 076d 00010000 		.4byte	0x100
 3515 0771 14       		.byte	0x14
 3516 0772 09       		.uleb128 0x9
 3517 0773 45535200 		.ascii	"ESR\000"
 3518 0777 10       		.byte	0x10
 3519 0778 1301     		.2byte	0x113
 3520 077a 00010000 		.4byte	0x100
 3521 077e 18       		.byte	0x18
 3522 077f 09       		.uleb128 0x9
 3523 0780 42545200 		.ascii	"BTR\000"
 3524 0784 10       		.byte	0x10
 3525 0785 1401     		.2byte	0x114
 3526 0787 00010000 		.4byte	0x100
 3527 078b 1C       		.byte	0x1c
 3528 078c 0A       		.uleb128 0xa
 3529 078d B8190000 		.4byte	.LASF124
ARM GAS  C:\Users\PCHAUT~1\AppData\Local\Temp\ccOhqcVB.s 			page 63


 3530 0791 10       		.byte	0x10
 3531 0792 1501     		.2byte	0x115
 3532 0794 50080000 		.4byte	0x850
 3533 0798 20       		.byte	0x20
 3534 0799 11       		.uleb128 0x11
 3535 079a 260F0000 		.4byte	.LASF125
 3536 079e 10       		.byte	0x10
 3537 079f 1601     		.2byte	0x116
 3538 07a1 60080000 		.4byte	0x860
 3539 07a5 8001     		.2byte	0x180
 3540 07a7 11       		.uleb128 0x11
 3541 07a8 3B1D0000 		.4byte	.LASF126
 3542 07ac 10       		.byte	0x10
 3543 07ad 1701     		.2byte	0x117
 3544 07af 70080000 		.4byte	0x870
 3545 07b3 B001     		.2byte	0x1b0
 3546 07b5 11       		.uleb128 0x11
 3547 07b6 C2190000 		.4byte	.LASF127
 3548 07ba 10       		.byte	0x10
 3549 07bb 1801     		.2byte	0x118
 3550 07bd 80080000 		.4byte	0x880
 3551 07c1 D001     		.2byte	0x1d0
 3552 07c3 12       		.uleb128 0x12
 3553 07c4 464D5200 		.ascii	"FMR\000"
 3554 07c8 10       		.byte	0x10
 3555 07c9 1901     		.2byte	0x119
 3556 07cb 00010000 		.4byte	0x100
 3557 07cf 0002     		.2byte	0x200
 3558 07d1 11       		.uleb128 0x11
 3559 07d2 440A0000 		.4byte	.LASF128
 3560 07d6 10       		.byte	0x10
 3561 07d7 1A01     		.2byte	0x11a
 3562 07d9 00010000 		.4byte	0x100
 3563 07dd 0402     		.2byte	0x204
 3564 07df 11       		.uleb128 0x11
 3565 07e0 CC190000 		.4byte	.LASF129
 3566 07e4 10       		.byte	0x10
 3567 07e5 1B01     		.2byte	0x11b
 3568 07e7 F5000000 		.4byte	0xf5
 3569 07eb 0802     		.2byte	0x208
 3570 07ed 11       		.uleb128 0x11
 3571 07ee 711B0000 		.4byte	.LASF130
 3572 07f2 10       		.byte	0x10
 3573 07f3 1C01     		.2byte	0x11c
 3574 07f5 00010000 		.4byte	0x100
 3575 07f9 0C02     		.2byte	0x20c
 3576 07fb 11       		.uleb128 0x11
 3577 07fc D6190000 		.4byte	.LASF131
 3578 0800 10       		.byte	0x10
 3579 0801 1D01     		.2byte	0x11d
 3580 0803 F5000000 		.4byte	0xf5
 3581 0807 1002     		.2byte	0x210
 3582 0809 11       		.uleb128 0x11
 3583 080a 8B150000 		.4byte	.LASF132
 3584 080e 10       		.byte	0x10
 3585 080f 1E01     		.2byte	0x11e
 3586 0811 00010000 		.4byte	0x100
ARM GAS  C:\Users\PCHAUT~1\AppData\Local\Temp\ccOhqcVB.s 			page 64


 3587 0815 1402     		.2byte	0x214
 3588 0817 11       		.uleb128 0x11
 3589 0818 E0190000 		.4byte	.LASF133
 3590 081c 10       		.byte	0x10
 3591 081d 1F01     		.2byte	0x11f
 3592 081f F5000000 		.4byte	0xf5
 3593 0823 1802     		.2byte	0x218
 3594 0825 11       		.uleb128 0x11
 3595 0826 8C030000 		.4byte	.LASF134
 3596 082a 10       		.byte	0x10
 3597 082b 2001     		.2byte	0x120
 3598 082d 00010000 		.4byte	0x100
 3599 0831 1C02     		.2byte	0x21c
 3600 0833 11       		.uleb128 0x11
 3601 0834 EA190000 		.4byte	.LASF135
 3602 0838 10       		.byte	0x10
 3603 0839 2101     		.2byte	0x121
 3604 083b 39050000 		.4byte	0x539
 3605 083f 2002     		.2byte	0x220
 3606 0841 11       		.uleb128 0x11
 3607 0842 12050000 		.4byte	.LASF136
 3608 0846 10       		.byte	0x10
 3609 0847 2201     		.2byte	0x122
 3610 0849 90080000 		.4byte	0x890
 3611 084d 4002     		.2byte	0x240
 3612 084f 00       		.byte	0
 3613 0850 13       		.uleb128 0x13
 3614 0851 F5000000 		.4byte	0xf5
 3615 0855 60080000 		.4byte	0x860
 3616 0859 14       		.uleb128 0x14
 3617 085a 37000000 		.4byte	0x37
 3618 085e 57       		.byte	0x57
 3619 085f 00       		.byte	0
 3620 0860 13       		.uleb128 0x13
 3621 0861 9B060000 		.4byte	0x69b
 3622 0865 70080000 		.4byte	0x870
 3623 0869 14       		.uleb128 0x14
 3624 086a 37000000 		.4byte	0x37
 3625 086e 02       		.byte	0x2
 3626 086f 00       		.byte	0
 3627 0870 13       		.uleb128 0x13
 3628 0871 DF060000 		.4byte	0x6df
 3629 0875 80080000 		.4byte	0x880
 3630 0879 14       		.uleb128 0x14
 3631 087a 37000000 		.4byte	0x37
 3632 087e 01       		.byte	0x1
 3633 087f 00       		.byte	0
 3634 0880 13       		.uleb128 0x13
 3635 0881 F5000000 		.4byte	0xf5
 3636 0885 90080000 		.4byte	0x890
 3637 0889 14       		.uleb128 0x14
 3638 088a 37000000 		.4byte	0x37
 3639 088e 0B       		.byte	0xb
 3640 088f 00       		.byte	0
 3641 0890 13       		.uleb128 0x13
 3642 0891 0E070000 		.4byte	0x70e
 3643 0895 A0080000 		.4byte	0x8a0
ARM GAS  C:\Users\PCHAUT~1\AppData\Local\Temp\ccOhqcVB.s 			page 65


 3644 0899 14       		.uleb128 0x14
 3645 089a 37000000 		.4byte	0x37
 3646 089e 1B       		.byte	0x1b
 3647 089f 00       		.byte	0
 3648 08a0 1A       		.uleb128 0x1a
 3649 08a1 F90B0000 		.4byte	.LASF137
 3650 08a5 10       		.byte	0x10
 3651 08a6 2301     		.2byte	0x123
 3652 08a8 1A070000 		.4byte	0x71a
 3653 08ac 19       		.uleb128 0x19
 3654 08ad 38       		.byte	0x38
 3655 08ae 10       		.byte	0x10
 3656 08af 3601     		.2byte	0x136
 3657 08b1 6A090000 		.4byte	0x96a
 3658 08b5 09       		.uleb128 0x9
 3659 08b6 435200   		.ascii	"CR\000"
 3660 08b9 10       		.byte	0x10
 3661 08ba 3801     		.2byte	0x138
 3662 08bc 00010000 		.4byte	0x100
 3663 08c0 00       		.byte	0
 3664 08c1 0A       		.uleb128 0xa
 3665 08c2 42130000 		.4byte	.LASF138
 3666 08c6 10       		.byte	0x10
 3667 08c7 3901     		.2byte	0x139
 3668 08c9 00010000 		.4byte	0x100
 3669 08cd 04       		.byte	0x4
 3670 08ce 0A       		.uleb128 0xa
 3671 08cf 061A0000 		.4byte	.LASF139
 3672 08d3 10       		.byte	0x10
 3673 08d4 3A01     		.2byte	0x13a
 3674 08d6 00010000 		.4byte	0x100
 3675 08da 08       		.byte	0x8
 3676 08db 0A       		.uleb128 0xa
 3677 08dc 13170000 		.4byte	.LASF140
 3678 08e0 10       		.byte	0x10
 3679 08e1 3B01     		.2byte	0x13b
 3680 08e3 00010000 		.4byte	0x100
 3681 08e7 0C       		.byte	0xc
 3682 08e8 0A       		.uleb128 0xa
 3683 08e9 A2090000 		.4byte	.LASF141
 3684 08ed 10       		.byte	0x10
 3685 08ee 3C01     		.2byte	0x13c
 3686 08f0 00010000 		.4byte	0x100
 3687 08f4 10       		.byte	0x10
 3688 08f5 0A       		.uleb128 0xa
 3689 08f6 0E1A0000 		.4byte	.LASF142
 3690 08fa 10       		.byte	0x10
 3691 08fb 3D01     		.2byte	0x13d
 3692 08fd 00010000 		.4byte	0x100
 3693 0901 14       		.byte	0x14
 3694 0902 0A       		.uleb128 0xa
 3695 0903 1B170000 		.4byte	.LASF143
 3696 0907 10       		.byte	0x10
 3697 0908 3E01     		.2byte	0x13e
 3698 090a 00010000 		.4byte	0x100
 3699 090e 18       		.byte	0x18
 3700 090f 0A       		.uleb128 0xa
ARM GAS  C:\Users\PCHAUT~1\AppData\Local\Temp\ccOhqcVB.s 			page 66


 3701 0910 A9090000 		.4byte	.LASF144
 3702 0914 10       		.byte	0x10
 3703 0915 3F01     		.2byte	0x13f
 3704 0917 00010000 		.4byte	0x100
 3705 091b 1C       		.byte	0x1c
 3706 091c 0A       		.uleb128 0xa
 3707 091d 551A0000 		.4byte	.LASF145
 3708 0921 10       		.byte	0x10
 3709 0922 4001     		.2byte	0x140
 3710 0924 00010000 		.4byte	0x100
 3711 0928 20       		.byte	0x20
 3712 0929 0A       		.uleb128 0xa
 3713 092a 30170000 		.4byte	.LASF146
 3714 092e 10       		.byte	0x10
 3715 092f 4101     		.2byte	0x141
 3716 0931 00010000 		.4byte	0x100
 3717 0935 24       		.byte	0x24
 3718 0936 0A       		.uleb128 0xa
 3719 0937 521D0000 		.4byte	.LASF147
 3720 093b 10       		.byte	0x10
 3721 093c 4201     		.2byte	0x142
 3722 093e 00010000 		.4byte	0x100
 3723 0942 28       		.byte	0x28
 3724 0943 0A       		.uleb128 0xa
 3725 0944 87010000 		.4byte	.LASF148
 3726 0948 10       		.byte	0x10
 3727 0949 4301     		.2byte	0x143
 3728 094b 00010000 		.4byte	0x100
 3729 094f 2C       		.byte	0x2c
 3730 0950 0A       		.uleb128 0xa
 3731 0951 8C010000 		.4byte	.LASF149
 3732 0955 10       		.byte	0x10
 3733 0956 4401     		.2byte	0x144
 3734 0958 00010000 		.4byte	0x100
 3735 095c 30       		.byte	0x30
 3736 095d 09       		.uleb128 0x9
 3737 095e 535200   		.ascii	"SR\000"
 3738 0961 10       		.byte	0x10
 3739 0962 4501     		.2byte	0x145
 3740 0964 00010000 		.4byte	0x100
 3741 0968 34       		.byte	0x34
 3742 0969 00       		.byte	0
 3743 096a 1A       		.uleb128 0x1a
 3744 096b 3B180000 		.4byte	.LASF150
 3745 096f 10       		.byte	0x10
 3746 0970 4601     		.2byte	0x146
 3747 0972 AC080000 		.4byte	0x8ac
 3748 0976 19       		.uleb128 0x19
 3749 0977 18       		.byte	0x18
 3750 0978 10       		.byte	0x10
 3751 0979 6B01     		.2byte	0x16b
 3752 097b CD090000 		.4byte	0x9cd
 3753 097f 09       		.uleb128 0x9
 3754 0980 435200   		.ascii	"CR\000"
 3755 0983 10       		.byte	0x10
 3756 0984 6D01     		.2byte	0x16d
 3757 0986 00010000 		.4byte	0x100
ARM GAS  C:\Users\PCHAUT~1\AppData\Local\Temp\ccOhqcVB.s 			page 67


 3758 098a 00       		.byte	0
 3759 098b 0A       		.uleb128 0xa
 3760 098c DE1A0000 		.4byte	.LASF151
 3761 0990 10       		.byte	0x10
 3762 0991 6E01     		.2byte	0x16e
 3763 0993 00010000 		.4byte	0x100
 3764 0997 04       		.byte	0x4
 3765 0998 09       		.uleb128 0x9
 3766 0999 50415200 		.ascii	"PAR\000"
 3767 099d 10       		.byte	0x10
 3768 099e 6F01     		.2byte	0x16f
 3769 09a0 00010000 		.4byte	0x100
 3770 09a4 08       		.byte	0x8
 3771 09a5 0A       		.uleb128 0xa
 3772 09a6 6E030000 		.4byte	.LASF152
 3773 09aa 10       		.byte	0x10
 3774 09ab 7001     		.2byte	0x170
 3775 09ad 00010000 		.4byte	0x100
 3776 09b1 0C       		.byte	0xc
 3777 09b2 0A       		.uleb128 0xa
 3778 09b3 D6060000 		.4byte	.LASF153
 3779 09b7 10       		.byte	0x10
 3780 09b8 7101     		.2byte	0x171
 3781 09ba 00010000 		.4byte	0x100
 3782 09be 10       		.byte	0x10
 3783 09bf 09       		.uleb128 0x9
 3784 09c0 46435200 		.ascii	"FCR\000"
 3785 09c4 10       		.byte	0x10
 3786 09c5 7201     		.2byte	0x172
 3787 09c7 00010000 		.4byte	0x100
 3788 09cb 14       		.byte	0x14
 3789 09cc 00       		.byte	0
 3790 09cd 1A       		.uleb128 0x1a
 3791 09ce E0060000 		.4byte	.LASF154
 3792 09d2 10       		.byte	0x10
 3793 09d3 7301     		.2byte	0x173
 3794 09d5 76090000 		.4byte	0x976
 3795 09d9 13       		.uleb128 0x13
 3796 09da 00010000 		.4byte	0x100
 3797 09de E9090000 		.4byte	0x9e9
 3798 09e2 14       		.uleb128 0x14
 3799 09e3 37000000 		.4byte	0x37
 3800 09e7 01       		.byte	0x1
 3801 09e8 00       		.byte	0
 3802 09e9 06       		.uleb128 0x6
 3803 09ea D9090000 		.4byte	0x9d9
 3804 09ee 13       		.uleb128 0x13
 3805 09ef 00010000 		.4byte	0x100
 3806 09f3 FE090000 		.4byte	0x9fe
 3807 09f7 14       		.uleb128 0x14
 3808 09f8 37000000 		.4byte	0x37
 3809 09fc 03       		.byte	0x3
 3810 09fd 00       		.byte	0
 3811 09fe 06       		.uleb128 0x6
 3812 09ff EE090000 		.4byte	0x9ee
 3813 0a03 19       		.uleb128 0x19
 3814 0a04 28       		.byte	0x28
ARM GAS  C:\Users\PCHAUT~1\AppData\Local\Temp\ccOhqcVB.s 			page 68


 3815 0a05 10       		.byte	0x10
 3816 0a06 3F02     		.2byte	0x23f
 3817 0a08 8E0A0000 		.4byte	0xa8e
 3818 0a0c 09       		.uleb128 0x9
 3819 0a0d 43523100 		.ascii	"CR1\000"
 3820 0a11 10       		.byte	0x10
 3821 0a12 4102     		.2byte	0x241
 3822 0a14 00010000 		.4byte	0x100
 3823 0a18 00       		.byte	0
 3824 0a19 09       		.uleb128 0x9
 3825 0a1a 43523200 		.ascii	"CR2\000"
 3826 0a1e 10       		.byte	0x10
 3827 0a1f 4202     		.2byte	0x242
 3828 0a21 00010000 		.4byte	0x100
 3829 0a25 04       		.byte	0x4
 3830 0a26 0A       		.uleb128 0xa
 3831 0a27 8E1F0000 		.4byte	.LASF155
 3832 0a2b 10       		.byte	0x10
 3833 0a2c 4302     		.2byte	0x243
 3834 0a2e 00010000 		.4byte	0x100
 3835 0a32 08       		.byte	0x8
 3836 0a33 0A       		.uleb128 0xa
 3837 0a34 931F0000 		.4byte	.LASF156
 3838 0a38 10       		.byte	0x10
 3839 0a39 4402     		.2byte	0x244
 3840 0a3b 00010000 		.4byte	0x100
 3841 0a3f 0C       		.byte	0xc
 3842 0a40 09       		.uleb128 0x9
 3843 0a41 445200   		.ascii	"DR\000"
 3844 0a44 10       		.byte	0x10
 3845 0a45 4502     		.2byte	0x245
 3846 0a47 00010000 		.4byte	0x100
 3847 0a4b 10       		.byte	0x10
 3848 0a4c 09       		.uleb128 0x9
 3849 0a4d 53523100 		.ascii	"SR1\000"
 3850 0a51 10       		.byte	0x10
 3851 0a52 4602     		.2byte	0x246
 3852 0a54 00010000 		.4byte	0x100
 3853 0a58 14       		.byte	0x14
 3854 0a59 09       		.uleb128 0x9
 3855 0a5a 53523200 		.ascii	"SR2\000"
 3856 0a5e 10       		.byte	0x10
 3857 0a5f 4702     		.2byte	0x247
 3858 0a61 00010000 		.4byte	0x100
 3859 0a65 18       		.byte	0x18
 3860 0a66 09       		.uleb128 0x9
 3861 0a67 43435200 		.ascii	"CCR\000"
 3862 0a6b 10       		.byte	0x10
 3863 0a6c 4802     		.2byte	0x248
 3864 0a6e 00010000 		.4byte	0x100
 3865 0a72 1C       		.byte	0x1c
 3866 0a73 0A       		.uleb128 0xa
 3867 0a74 3B040000 		.4byte	.LASF157
 3868 0a78 10       		.byte	0x10
 3869 0a79 4902     		.2byte	0x249
 3870 0a7b 00010000 		.4byte	0x100
 3871 0a7f 20       		.byte	0x20
ARM GAS  C:\Users\PCHAUT~1\AppData\Local\Temp\ccOhqcVB.s 			page 69


 3872 0a80 0A       		.uleb128 0xa
 3873 0a81 661E0000 		.4byte	.LASF158
 3874 0a85 10       		.byte	0x10
 3875 0a86 4A02     		.2byte	0x24a
 3876 0a88 00010000 		.4byte	0x100
 3877 0a8c 24       		.byte	0x24
 3878 0a8d 00       		.byte	0
 3879 0a8e 1A       		.uleb128 0x1a
 3880 0a8f 5E130000 		.4byte	.LASF159
 3881 0a93 10       		.byte	0x10
 3882 0a94 4B02     		.2byte	0x24b
 3883 0a96 030A0000 		.4byte	0xa03
 3884 0a9a 19       		.uleb128 0x19
 3885 0a9b 84       		.byte	0x84
 3886 0a9c 10       		.byte	0x10
 3887 0a9d BF02     		.2byte	0x2bf
 3888 0a9f A80B0000 		.4byte	0xba8
 3889 0aa3 0A       		.uleb128 0xa
 3890 0aa4 87130000 		.4byte	.LASF160
 3891 0aa8 10       		.byte	0x10
 3892 0aa9 C102     		.2byte	0x2c1
 3893 0aab 00010000 		.4byte	0x100
 3894 0aaf 00       		.byte	0
 3895 0ab0 0A       		.uleb128 0xa
 3896 0ab1 D61B0000 		.4byte	.LASF161
 3897 0ab5 10       		.byte	0x10
 3898 0ab6 C202     		.2byte	0x2c2
 3899 0ab8 00010000 		.4byte	0x100
 3900 0abc 04       		.byte	0x4
 3901 0abd 09       		.uleb128 0x9
 3902 0abe 41524700 		.ascii	"ARG\000"
 3903 0ac2 10       		.byte	0x10
 3904 0ac3 C302     		.2byte	0x2c3
 3905 0ac5 00010000 		.4byte	0x100
 3906 0ac9 08       		.byte	0x8
 3907 0aca 09       		.uleb128 0x9
 3908 0acb 434D4400 		.ascii	"CMD\000"
 3909 0acf 10       		.byte	0x10
 3910 0ad0 C402     		.2byte	0x2c4
 3911 0ad2 00010000 		.4byte	0x100
 3912 0ad6 0C       		.byte	0xc
 3913 0ad7 0A       		.uleb128 0xa
 3914 0ad8 20160000 		.4byte	.LASF162
 3915 0adc 10       		.byte	0x10
 3916 0add C502     		.2byte	0x2c5
 3917 0adf 05010000 		.4byte	0x105
 3918 0ae3 10       		.byte	0x10
 3919 0ae4 0A       		.uleb128 0xa
 3920 0ae5 2B050000 		.4byte	.LASF163
 3921 0ae9 10       		.byte	0x10
 3922 0aea C602     		.2byte	0x2c6
 3923 0aec 05010000 		.4byte	0x105
 3924 0af0 14       		.byte	0x14
 3925 0af1 0A       		.uleb128 0xa
 3926 0af2 31050000 		.4byte	.LASF164
 3927 0af6 10       		.byte	0x10
 3928 0af7 C702     		.2byte	0x2c7
ARM GAS  C:\Users\PCHAUT~1\AppData\Local\Temp\ccOhqcVB.s 			page 70


 3929 0af9 05010000 		.4byte	0x105
 3930 0afd 18       		.byte	0x18
 3931 0afe 0A       		.uleb128 0xa
 3932 0aff 37050000 		.4byte	.LASF165
 3933 0b03 10       		.byte	0x10
 3934 0b04 C802     		.2byte	0x2c8
 3935 0b06 05010000 		.4byte	0x105
 3936 0b0a 1C       		.byte	0x1c
 3937 0b0b 0A       		.uleb128 0xa
 3938 0b0c 3D050000 		.4byte	.LASF166
 3939 0b10 10       		.byte	0x10
 3940 0b11 C902     		.2byte	0x2c9
 3941 0b13 05010000 		.4byte	0x105
 3942 0b17 20       		.byte	0x20
 3943 0b18 0A       		.uleb128 0xa
 3944 0b19 2A110000 		.4byte	.LASF167
 3945 0b1d 10       		.byte	0x10
 3946 0b1e CA02     		.2byte	0x2ca
 3947 0b20 00010000 		.4byte	0x100
 3948 0b24 24       		.byte	0x24
 3949 0b25 0A       		.uleb128 0xa
 3950 0b26 8B120000 		.4byte	.LASF168
 3951 0b2a 10       		.byte	0x10
 3952 0b2b CB02     		.2byte	0x2cb
 3953 0b2d 00010000 		.4byte	0x100
 3954 0b31 28       		.byte	0x28
 3955 0b32 0A       		.uleb128 0xa
 3956 0b33 521E0000 		.4byte	.LASF169
 3957 0b37 10       		.byte	0x10
 3958 0b38 CC02     		.2byte	0x2cc
 3959 0b3a 00010000 		.4byte	0x100
 3960 0b3e 2C       		.byte	0x2c
 3961 0b3f 0A       		.uleb128 0xa
 3962 0b40 871F0000 		.4byte	.LASF170
 3963 0b44 10       		.byte	0x10
 3964 0b45 CD02     		.2byte	0x2cd
 3965 0b47 05010000 		.4byte	0x105
 3966 0b4b 30       		.byte	0x30
 3967 0b4c 09       		.uleb128 0x9
 3968 0b4d 53544100 		.ascii	"STA\000"
 3969 0b51 10       		.byte	0x10
 3970 0b52 CE02     		.2byte	0x2ce
 3971 0b54 05010000 		.4byte	0x105
 3972 0b58 34       		.byte	0x34
 3973 0b59 09       		.uleb128 0x9
 3974 0b5a 49435200 		.ascii	"ICR\000"
 3975 0b5e 10       		.byte	0x10
 3976 0b5f CF02     		.2byte	0x2cf
 3977 0b61 00010000 		.4byte	0x100
 3978 0b65 38       		.byte	0x38
 3979 0b66 0A       		.uleb128 0xa
 3980 0b67 A9010000 		.4byte	.LASF171
 3981 0b6b 10       		.byte	0x10
 3982 0b6c D002     		.2byte	0x2d0
 3983 0b6e 00010000 		.4byte	0x100
 3984 0b72 3C       		.byte	0x3c
 3985 0b73 0A       		.uleb128 0xa
ARM GAS  C:\Users\PCHAUT~1\AppData\Local\Temp\ccOhqcVB.s 			page 71


 3986 0b74 B8190000 		.4byte	.LASF124
 3987 0b78 10       		.byte	0x10
 3988 0b79 D102     		.2byte	0x2d1
 3989 0b7b 29050000 		.4byte	0x529
 3990 0b7f 40       		.byte	0x40
 3991 0b80 0A       		.uleb128 0xa
 3992 0b81 B9110000 		.4byte	.LASF172
 3993 0b85 10       		.byte	0x10
 3994 0b86 D202     		.2byte	0x2d2
 3995 0b88 05010000 		.4byte	0x105
 3996 0b8c 48       		.byte	0x48
 3997 0b8d 0A       		.uleb128 0xa
 3998 0b8e C2190000 		.4byte	.LASF127
 3999 0b92 10       		.byte	0x10
 4000 0b93 D302     		.2byte	0x2d3
 4001 0b95 A80B0000 		.4byte	0xba8
 4002 0b99 4C       		.byte	0x4c
 4003 0b9a 0A       		.uleb128 0xa
 4004 0b9b 16090000 		.4byte	.LASF173
 4005 0b9f 10       		.byte	0x10
 4006 0ba0 D402     		.2byte	0x2d4
 4007 0ba2 00010000 		.4byte	0x100
 4008 0ba6 80       		.byte	0x80
 4009 0ba7 00       		.byte	0
 4010 0ba8 13       		.uleb128 0x13
 4011 0ba9 F5000000 		.4byte	0xf5
 4012 0bad B80B0000 		.4byte	0xbb8
 4013 0bb1 14       		.uleb128 0x14
 4014 0bb2 37000000 		.4byte	0x37
 4015 0bb6 0C       		.byte	0xc
 4016 0bb7 00       		.byte	0
 4017 0bb8 1A       		.uleb128 0x1a
 4018 0bb9 BE1A0000 		.4byte	.LASF174
 4019 0bbd 10       		.byte	0x10
 4020 0bbe D502     		.2byte	0x2d5
 4021 0bc0 9A0A0000 		.4byte	0xa9a
 4022 0bc4 19       		.uleb128 0x19
 4023 0bc5 24       		.byte	0x24
 4024 0bc6 10       		.byte	0x10
 4025 0bc7 DB02     		.2byte	0x2db
 4026 0bc9 410C0000 		.4byte	0xc41
 4027 0bcd 09       		.uleb128 0x9
 4028 0bce 43523100 		.ascii	"CR1\000"
 4029 0bd2 10       		.byte	0x10
 4030 0bd3 DD02     		.2byte	0x2dd
 4031 0bd5 00010000 		.4byte	0x100
 4032 0bd9 00       		.byte	0
 4033 0bda 09       		.uleb128 0x9
 4034 0bdb 43523200 		.ascii	"CR2\000"
 4035 0bdf 10       		.byte	0x10
 4036 0be0 DE02     		.2byte	0x2de
 4037 0be2 00010000 		.4byte	0x100
 4038 0be6 04       		.byte	0x4
 4039 0be7 09       		.uleb128 0x9
 4040 0be8 535200   		.ascii	"SR\000"
 4041 0beb 10       		.byte	0x10
 4042 0bec DF02     		.2byte	0x2df
ARM GAS  C:\Users\PCHAUT~1\AppData\Local\Temp\ccOhqcVB.s 			page 72


 4043 0bee 00010000 		.4byte	0x100
 4044 0bf2 08       		.byte	0x8
 4045 0bf3 09       		.uleb128 0x9
 4046 0bf4 445200   		.ascii	"DR\000"
 4047 0bf7 10       		.byte	0x10
 4048 0bf8 E002     		.2byte	0x2e0
 4049 0bfa 00010000 		.4byte	0x100
 4050 0bfe 0C       		.byte	0xc
 4051 0bff 0A       		.uleb128 0xa
 4052 0c00 67060000 		.4byte	.LASF175
 4053 0c04 10       		.byte	0x10
 4054 0c05 E102     		.2byte	0x2e1
 4055 0c07 00010000 		.4byte	0x100
 4056 0c0b 10       		.byte	0x10
 4057 0c0c 0A       		.uleb128 0xa
 4058 0c0d AB0A0000 		.4byte	.LASF176
 4059 0c11 10       		.byte	0x10
 4060 0c12 E202     		.2byte	0x2e2
 4061 0c14 00010000 		.4byte	0x100
 4062 0c18 14       		.byte	0x14
 4063 0c19 0A       		.uleb128 0xa
 4064 0c1a E4090000 		.4byte	.LASF177
 4065 0c1e 10       		.byte	0x10
 4066 0c1f E302     		.2byte	0x2e3
 4067 0c21 00010000 		.4byte	0x100
 4068 0c25 18       		.byte	0x18
 4069 0c26 0A       		.uleb128 0xa
 4070 0c27 8D1C0000 		.4byte	.LASF178
 4071 0c2b 10       		.byte	0x10
 4072 0c2c E402     		.2byte	0x2e4
 4073 0c2e 00010000 		.4byte	0x100
 4074 0c32 1C       		.byte	0x1c
 4075 0c33 0A       		.uleb128 0xa
 4076 0c34 28060000 		.4byte	.LASF179
 4077 0c38 10       		.byte	0x10
 4078 0c39 E502     		.2byte	0x2e5
 4079 0c3b 00010000 		.4byte	0x100
 4080 0c3f 20       		.byte	0x20
 4081 0c40 00       		.byte	0
 4082 0c41 1A       		.uleb128 0x1a
 4083 0c42 0A1B0000 		.4byte	.LASF180
 4084 0c46 10       		.byte	0x10
 4085 0c47 E602     		.2byte	0x2e6
 4086 0c49 C40B0000 		.4byte	0xbc4
 4087 0c4d 19       		.uleb128 0x19
 4088 0c4e 1C       		.byte	0x1c
 4089 0c4f 10       		.byte	0x10
 4090 0c50 0903     		.2byte	0x309
 4091 0c52 B00C0000 		.4byte	0xcb0
 4092 0c56 09       		.uleb128 0x9
 4093 0c57 535200   		.ascii	"SR\000"
 4094 0c5a 10       		.byte	0x10
 4095 0c5b 0B03     		.2byte	0x30b
 4096 0c5d 00010000 		.4byte	0x100
 4097 0c61 00       		.byte	0
 4098 0c62 09       		.uleb128 0x9
 4099 0c63 445200   		.ascii	"DR\000"
ARM GAS  C:\Users\PCHAUT~1\AppData\Local\Temp\ccOhqcVB.s 			page 73


 4100 0c66 10       		.byte	0x10
 4101 0c67 0C03     		.2byte	0x30c
 4102 0c69 00010000 		.4byte	0x100
 4103 0c6d 04       		.byte	0x4
 4104 0c6e 09       		.uleb128 0x9
 4105 0c6f 42525200 		.ascii	"BRR\000"
 4106 0c73 10       		.byte	0x10
 4107 0c74 0D03     		.2byte	0x30d
 4108 0c76 00010000 		.4byte	0x100
 4109 0c7a 08       		.byte	0x8
 4110 0c7b 09       		.uleb128 0x9
 4111 0c7c 43523100 		.ascii	"CR1\000"
 4112 0c80 10       		.byte	0x10
 4113 0c81 0E03     		.2byte	0x30e
 4114 0c83 00010000 		.4byte	0x100
 4115 0c87 0C       		.byte	0xc
 4116 0c88 09       		.uleb128 0x9
 4117 0c89 43523200 		.ascii	"CR2\000"
 4118 0c8d 10       		.byte	0x10
 4119 0c8e 0F03     		.2byte	0x30f
 4120 0c90 00010000 		.4byte	0x100
 4121 0c94 10       		.byte	0x10
 4122 0c95 09       		.uleb128 0x9
 4123 0c96 43523300 		.ascii	"CR3\000"
 4124 0c9a 10       		.byte	0x10
 4125 0c9b 1003     		.2byte	0x310
 4126 0c9d 00010000 		.4byte	0x100
 4127 0ca1 14       		.byte	0x14
 4128 0ca2 0A       		.uleb128 0xa
 4129 0ca3 331E0000 		.4byte	.LASF181
 4130 0ca7 10       		.byte	0x10
 4131 0ca8 1103     		.2byte	0x311
 4132 0caa 00010000 		.4byte	0x100
 4133 0cae 18       		.byte	0x18
 4134 0caf 00       		.byte	0
 4135 0cb0 1A       		.uleb128 0x1a
 4136 0cb1 EC1E0000 		.4byte	.LASF182
 4137 0cb5 10       		.byte	0x10
 4138 0cb6 1203     		.2byte	0x312
 4139 0cb8 4D0C0000 		.4byte	0xc4d
 4140 0cbc 13       		.uleb128 0x13
 4141 0cbd 00010000 		.4byte	0x100
 4142 0cc1 CC0C0000 		.4byte	0xccc
 4143 0cc5 14       		.uleb128 0x14
 4144 0cc6 37000000 		.4byte	0x37
 4145 0cca 0E       		.byte	0xe
 4146 0ccb 00       		.byte	0
 4147 0ccc 06       		.uleb128 0x6
 4148 0ccd BC0C0000 		.4byte	0xcbc
 4149 0cd1 03       		.uleb128 0x3
 4150 0cd2 70150000 		.4byte	.LASF183
 4151 0cd6 11       		.byte	0x11
 4152 0cd7 65       		.byte	0x65
 4153 0cd8 BA030000 		.4byte	0x3ba
 4154 0cdc 03       		.uleb128 0x3
 4155 0cdd C6080000 		.4byte	.LASF184
 4156 0ce1 11       		.byte	0x11
ARM GAS  C:\Users\PCHAUT~1\AppData\Local\Temp\ccOhqcVB.s 			page 74


 4157 0ce2 6D       		.byte	0x6d
 4158 0ce3 0A010000 		.4byte	0x10a
 4159 0ce7 07       		.uleb128 0x7
 4160 0ce8 EE140000 		.4byte	.LASF185
 4161 0cec 04       		.byte	0x4
 4162 0ced 11       		.byte	0x11
 4163 0cee 89       		.byte	0x89
 4164 0cef 000D0000 		.4byte	0xd00
 4165 0cf3 18       		.uleb128 0x18
 4166 0cf4 72313300 		.ascii	"r13\000"
 4167 0cf8 11       		.byte	0x11
 4168 0cf9 8A       		.byte	0x8a
 4169 0cfa 410E0000 		.4byte	0xe41
 4170 0cfe 00       		.byte	0
 4171 0cff 00       		.byte	0
 4172 0d00 07       		.uleb128 0x7
 4173 0d01 28000000 		.4byte	.LASF186
 4174 0d05 64       		.byte	0x64
 4175 0d06 01       		.byte	0x1
 4176 0d07 F4       		.byte	0xf4
 4177 0d08 410E0000 		.4byte	0xe41
 4178 0d0c 18       		.uleb128 0x18
 4179 0d0d 73313600 		.ascii	"s16\000"
 4180 0d11 01       		.byte	0x1
 4181 0d12 F6       		.byte	0xf6
 4182 0d13 D10C0000 		.4byte	0xcd1
 4183 0d17 00       		.byte	0
 4184 0d18 18       		.uleb128 0x18
 4185 0d19 73313700 		.ascii	"s17\000"
 4186 0d1d 01       		.byte	0x1
 4187 0d1e F7       		.byte	0xf7
 4188 0d1f D10C0000 		.4byte	0xcd1
 4189 0d23 04       		.byte	0x4
 4190 0d24 18       		.uleb128 0x18
 4191 0d25 73313800 		.ascii	"s18\000"
 4192 0d29 01       		.byte	0x1
 4193 0d2a F8       		.byte	0xf8
 4194 0d2b D10C0000 		.4byte	0xcd1
 4195 0d2f 08       		.byte	0x8
 4196 0d30 18       		.uleb128 0x18
 4197 0d31 73313900 		.ascii	"s19\000"
 4198 0d35 01       		.byte	0x1
 4199 0d36 F9       		.byte	0xf9
 4200 0d37 D10C0000 		.4byte	0xcd1
 4201 0d3b 0C       		.byte	0xc
 4202 0d3c 18       		.uleb128 0x18
 4203 0d3d 73323000 		.ascii	"s20\000"
 4204 0d41 01       		.byte	0x1
 4205 0d42 FA       		.byte	0xfa
 4206 0d43 D10C0000 		.4byte	0xcd1
 4207 0d47 10       		.byte	0x10
 4208 0d48 18       		.uleb128 0x18
 4209 0d49 73323100 		.ascii	"s21\000"
 4210 0d4d 01       		.byte	0x1
 4211 0d4e FB       		.byte	0xfb
 4212 0d4f D10C0000 		.4byte	0xcd1
 4213 0d53 14       		.byte	0x14
ARM GAS  C:\Users\PCHAUT~1\AppData\Local\Temp\ccOhqcVB.s 			page 75


 4214 0d54 18       		.uleb128 0x18
 4215 0d55 73323200 		.ascii	"s22\000"
 4216 0d59 01       		.byte	0x1
 4217 0d5a FC       		.byte	0xfc
 4218 0d5b D10C0000 		.4byte	0xcd1
 4219 0d5f 18       		.byte	0x18
 4220 0d60 18       		.uleb128 0x18
 4221 0d61 73323300 		.ascii	"s23\000"
 4222 0d65 01       		.byte	0x1
 4223 0d66 FD       		.byte	0xfd
 4224 0d67 D10C0000 		.4byte	0xcd1
 4225 0d6b 1C       		.byte	0x1c
 4226 0d6c 18       		.uleb128 0x18
 4227 0d6d 73323400 		.ascii	"s24\000"
 4228 0d71 01       		.byte	0x1
 4229 0d72 FE       		.byte	0xfe
 4230 0d73 D10C0000 		.4byte	0xcd1
 4231 0d77 20       		.byte	0x20
 4232 0d78 18       		.uleb128 0x18
 4233 0d79 73323500 		.ascii	"s25\000"
 4234 0d7d 01       		.byte	0x1
 4235 0d7e FF       		.byte	0xff
 4236 0d7f D10C0000 		.4byte	0xcd1
 4237 0d83 24       		.byte	0x24
 4238 0d84 09       		.uleb128 0x9
 4239 0d85 73323600 		.ascii	"s26\000"
 4240 0d89 01       		.byte	0x1
 4241 0d8a 0001     		.2byte	0x100
 4242 0d8c D10C0000 		.4byte	0xcd1
 4243 0d90 28       		.byte	0x28
 4244 0d91 09       		.uleb128 0x9
 4245 0d92 73323700 		.ascii	"s27\000"
 4246 0d96 01       		.byte	0x1
 4247 0d97 0101     		.2byte	0x101
 4248 0d99 D10C0000 		.4byte	0xcd1
 4249 0d9d 2C       		.byte	0x2c
 4250 0d9e 09       		.uleb128 0x9
 4251 0d9f 73323800 		.ascii	"s28\000"
 4252 0da3 01       		.byte	0x1
 4253 0da4 0201     		.2byte	0x102
 4254 0da6 D10C0000 		.4byte	0xcd1
 4255 0daa 30       		.byte	0x30
 4256 0dab 09       		.uleb128 0x9
 4257 0dac 73323900 		.ascii	"s29\000"
 4258 0db0 01       		.byte	0x1
 4259 0db1 0301     		.2byte	0x103
 4260 0db3 D10C0000 		.4byte	0xcd1
 4261 0db7 34       		.byte	0x34
 4262 0db8 09       		.uleb128 0x9
 4263 0db9 73333000 		.ascii	"s30\000"
 4264 0dbd 01       		.byte	0x1
 4265 0dbe 0401     		.2byte	0x104
 4266 0dc0 D10C0000 		.4byte	0xcd1
 4267 0dc4 38       		.byte	0x38
 4268 0dc5 09       		.uleb128 0x9
 4269 0dc6 73333100 		.ascii	"s31\000"
 4270 0dca 01       		.byte	0x1
ARM GAS  C:\Users\PCHAUT~1\AppData\Local\Temp\ccOhqcVB.s 			page 76


 4271 0dcb 0501     		.2byte	0x105
 4272 0dcd D10C0000 		.4byte	0xcd1
 4273 0dd1 3C       		.byte	0x3c
 4274 0dd2 09       		.uleb128 0x9
 4275 0dd3 723400   		.ascii	"r4\000"
 4276 0dd6 01       		.byte	0x1
 4277 0dd7 0701     		.2byte	0x107
 4278 0dd9 D10C0000 		.4byte	0xcd1
 4279 0ddd 40       		.byte	0x40
 4280 0dde 09       		.uleb128 0x9
 4281 0ddf 723500   		.ascii	"r5\000"
 4282 0de2 01       		.byte	0x1
 4283 0de3 0801     		.2byte	0x108
 4284 0de5 D10C0000 		.4byte	0xcd1
 4285 0de9 44       		.byte	0x44
 4286 0dea 09       		.uleb128 0x9
 4287 0deb 723600   		.ascii	"r6\000"
 4288 0dee 01       		.byte	0x1
 4289 0def 0901     		.2byte	0x109
 4290 0df1 D10C0000 		.4byte	0xcd1
 4291 0df5 48       		.byte	0x48
 4292 0df6 09       		.uleb128 0x9
 4293 0df7 723700   		.ascii	"r7\000"
 4294 0dfa 01       		.byte	0x1
 4295 0dfb 0A01     		.2byte	0x10a
 4296 0dfd D10C0000 		.4byte	0xcd1
 4297 0e01 4C       		.byte	0x4c
 4298 0e02 09       		.uleb128 0x9
 4299 0e03 723800   		.ascii	"r8\000"
 4300 0e06 01       		.byte	0x1
 4301 0e07 0B01     		.2byte	0x10b
 4302 0e09 D10C0000 		.4byte	0xcd1
 4303 0e0d 50       		.byte	0x50
 4304 0e0e 09       		.uleb128 0x9
 4305 0e0f 723900   		.ascii	"r9\000"
 4306 0e12 01       		.byte	0x1
 4307 0e13 0C01     		.2byte	0x10c
 4308 0e15 D10C0000 		.4byte	0xcd1
 4309 0e19 54       		.byte	0x54
 4310 0e1a 09       		.uleb128 0x9
 4311 0e1b 72313000 		.ascii	"r10\000"
 4312 0e1f 01       		.byte	0x1
 4313 0e20 0D01     		.2byte	0x10d
 4314 0e22 D10C0000 		.4byte	0xcd1
 4315 0e26 58       		.byte	0x58
 4316 0e27 09       		.uleb128 0x9
 4317 0e28 72313100 		.ascii	"r11\000"
 4318 0e2c 01       		.byte	0x1
 4319 0e2d 0E01     		.2byte	0x10e
 4320 0e2f D10C0000 		.4byte	0xcd1
 4321 0e33 5C       		.byte	0x5c
 4322 0e34 09       		.uleb128 0x9
 4323 0e35 6C7200   		.ascii	"lr\000"
 4324 0e38 01       		.byte	0x1
 4325 0e39 0F01     		.2byte	0x10f
 4326 0e3b D10C0000 		.4byte	0xcd1
 4327 0e3f 60       		.byte	0x60
ARM GAS  C:\Users\PCHAUT~1\AppData\Local\Temp\ccOhqcVB.s 			page 77


 4328 0e40 00       		.byte	0
 4329 0e41 0B       		.uleb128 0xb
 4330 0e42 04       		.byte	0x4
 4331 0e43 000D0000 		.4byte	0xd00
 4332 0e47 17       		.uleb128 0x17
 4333 0e48 10       		.byte	0x10
 4334 0e49 12       		.byte	0x12
 4335 0e4a 51       		.byte	0x51
 4336 0e4b 800E0000 		.4byte	0xe80
 4337 0e4f 08       		.uleb128 0x8
 4338 0e50 2C1A0000 		.4byte	.LASF187
 4339 0e54 12       		.byte	0x12
 4340 0e55 55       		.byte	0x55
 4341 0e56 99010000 		.4byte	0x199
 4342 0e5a 00       		.byte	0
 4343 0e5b 08       		.uleb128 0x8
 4344 0e5c D0150000 		.4byte	.LASF188
 4345 0e60 12       		.byte	0x12
 4346 0e61 59       		.byte	0x59
 4347 0e62 DD020000 		.4byte	0x2dd
 4348 0e66 04       		.byte	0x4
 4349 0e67 08       		.uleb128 0x8
 4350 0e68 520B0000 		.4byte	.LASF189
 4351 0e6c 12       		.byte	0x12
 4352 0e6d 5D       		.byte	0x5d
 4353 0e6e BA030000 		.4byte	0x3ba
 4354 0e72 08       		.byte	0x8
 4355 0e73 08       		.uleb128 0x8
 4356 0e74 79090000 		.4byte	.LASF190
 4357 0e78 12       		.byte	0x12
 4358 0e79 61       		.byte	0x61
 4359 0e7a BF000000 		.4byte	0xbf
 4360 0e7e 0C       		.byte	0xc
 4361 0e7f 00       		.byte	0
 4362 0e80 03       		.uleb128 0x3
 4363 0e81 050C0000 		.4byte	.LASF191
 4364 0e85 12       		.byte	0x12
 4365 0e86 62       		.byte	0x62
 4366 0e87 470E0000 		.4byte	0xe47
 4367 0e8b 1C       		.uleb128 0x1c
 4368 0e8c 0804     		.2byte	0x408
 4369 0e8e 12       		.byte	0x12
 4370 0e8f 67       		.byte	0x67
 4371 0e90 B90E0000 		.4byte	0xeb9
 4372 0e94 08       		.uleb128 0x8
 4373 0e95 B40C0000 		.4byte	.LASF192
 4374 0e99 12       		.byte	0x12
 4375 0e9a 6B       		.byte	0x6b
 4376 0e9b 37000000 		.4byte	0x37
 4377 0e9f 00       		.byte	0
 4378 0ea0 08       		.uleb128 0x8
 4379 0ea1 E2110000 		.4byte	.LASF193
 4380 0ea5 12       		.byte	0x12
 4381 0ea6 6F       		.byte	0x6f
 4382 0ea7 B90E0000 		.4byte	0xeb9
 4383 0eab 04       		.byte	0x4
 4384 0eac 08       		.uleb128 0x8
ARM GAS  C:\Users\PCHAUT~1\AppData\Local\Temp\ccOhqcVB.s 			page 78


 4385 0ead 1B090000 		.4byte	.LASF194
 4386 0eb1 12       		.byte	0x12
 4387 0eb2 73       		.byte	0x73
 4388 0eb3 BF0E0000 		.4byte	0xebf
 4389 0eb7 08       		.byte	0x8
 4390 0eb8 00       		.byte	0
 4391 0eb9 0B       		.uleb128 0xb
 4392 0eba 04       		.byte	0x4
 4393 0ebb 800E0000 		.4byte	0xe80
 4394 0ebf 13       		.uleb128 0x13
 4395 0ec0 800E0000 		.4byte	0xe80
 4396 0ec4 CF0E0000 		.4byte	0xecf
 4397 0ec8 14       		.uleb128 0x14
 4398 0ec9 37000000 		.4byte	0x37
 4399 0ecd 3F       		.byte	0x3f
 4400 0ece 00       		.byte	0
 4401 0ecf 03       		.uleb128 0x3
 4402 0ed0 34000000 		.4byte	.LASF195
 4403 0ed4 12       		.byte	0x12
 4404 0ed5 74       		.byte	0x74
 4405 0ed6 8B0E0000 		.4byte	0xe8b
 4406 0eda 17       		.uleb128 0x17
 4407 0edb 04       		.byte	0x4
 4408 0edc 13       		.byte	0x13
 4409 0edd 38       		.byte	0x38
 4410 0ede EF0E0000 		.4byte	0xeef
 4411 0ee2 08       		.uleb128 0x8
 4412 0ee3 CB1A0000 		.4byte	.LASF196
 4413 0ee7 13       		.byte	0x13
 4414 0ee8 3C       		.byte	0x3c
 4415 0ee9 15010000 		.4byte	0x115
 4416 0eed 00       		.byte	0
 4417 0eee 00       		.byte	0
 4418 0eef 03       		.uleb128 0x3
 4419 0ef0 191E0000 		.4byte	.LASF197
 4420 0ef4 13       		.byte	0x13
 4421 0ef5 3D       		.byte	0x3d
 4422 0ef6 DA0E0000 		.4byte	0xeda
 4423 0efa 17       		.uleb128 0x17
 4424 0efb 18       		.byte	0x18
 4425 0efc 13       		.byte	0x13
 4426 0efd 48       		.byte	0x48
 4427 0efe 3D0F0000 		.4byte	0xf3d
 4428 0f02 08       		.uleb128 0x8
 4429 0f03 39060000 		.4byte	.LASF198
 4430 0f07 13       		.byte	0x13
 4431 0f08 49       		.byte	0x49
 4432 0f09 15010000 		.4byte	0x115
 4433 0f0d 00       		.byte	0
 4434 0f0e 08       		.uleb128 0x8
 4435 0f0f 76010000 		.4byte	.LASF199
 4436 0f13 13       		.byte	0x13
 4437 0f14 4A       		.byte	0x4a
 4438 0f15 15010000 		.4byte	0x115
 4439 0f19 04       		.byte	0x4
 4440 0f1a 08       		.uleb128 0x8
 4441 0f1b 11150000 		.4byte	.LASF200
ARM GAS  C:\Users\PCHAUT~1\AppData\Local\Temp\ccOhqcVB.s 			page 79


 4442 0f1f 13       		.byte	0x13
 4443 0f20 4B       		.byte	0x4b
 4444 0f21 15010000 		.4byte	0x115
 4445 0f25 08       		.byte	0x8
 4446 0f26 18       		.uleb128 0x18
 4447 0f27 6E00     		.ascii	"n\000"
 4448 0f29 13       		.byte	0x13
 4449 0f2a 4C       		.byte	0x4c
 4450 0f2b 8E010000 		.4byte	0x18e
 4451 0f2f 0C       		.byte	0xc
 4452 0f30 08       		.uleb128 0x8
 4453 0f31 CA140000 		.4byte	.LASF201
 4454 0f35 13       		.byte	0x13
 4455 0f36 4D       		.byte	0x4d
 4456 0f37 20010000 		.4byte	0x120
 4457 0f3b 10       		.byte	0x10
 4458 0f3c 00       		.byte	0
 4459 0f3d 03       		.uleb128 0x3
 4460 0f3e EB1C0000 		.4byte	.LASF202
 4461 0f42 13       		.byte	0x13
 4462 0f43 4E       		.byte	0x4e
 4463 0f44 FA0E0000 		.4byte	0xefa
 4464 0f48 17       		.uleb128 0x17
 4465 0f49 38       		.byte	0x38
 4466 0f4a 14       		.byte	0x14
 4467 0f4b 38       		.byte	0x38
 4468 0f4c 810F0000 		.4byte	0xf81
 4469 0f50 08       		.uleb128 0x8
 4470 0f51 9C050000 		.4byte	.LASF203
 4471 0f55 14       		.byte	0x14
 4472 0f56 39       		.byte	0x39
 4473 0f57 8E010000 		.4byte	0x18e
 4474 0f5b 00       		.byte	0
 4475 0f5c 08       		.uleb128 0x8
 4476 0f5d 250A0000 		.4byte	.LASF204
 4477 0f61 14       		.byte	0x14
 4478 0f62 3A       		.byte	0x3a
 4479 0f63 8E010000 		.4byte	0x18e
 4480 0f67 04       		.byte	0x4
 4481 0f68 08       		.uleb128 0x8
 4482 0f69 701C0000 		.4byte	.LASF205
 4483 0f6d 14       		.byte	0x14
 4484 0f6e 3B       		.byte	0x3b
 4485 0f6f 3D0F0000 		.4byte	0xf3d
 4486 0f73 08       		.byte	0x8
 4487 0f74 08       		.uleb128 0x8
 4488 0f75 8C000000 		.4byte	.LASF206
 4489 0f79 14       		.byte	0x14
 4490 0f7a 3D       		.byte	0x3d
 4491 0f7b 3D0F0000 		.4byte	0xf3d
 4492 0f7f 20       		.byte	0x20
 4493 0f80 00       		.byte	0
 4494 0f81 03       		.uleb128 0x3
 4495 0f82 54040000 		.4byte	.LASF207
 4496 0f86 14       		.byte	0x14
 4497 0f87 3F       		.byte	0x3f
 4498 0f88 480F0000 		.4byte	0xf48
ARM GAS  C:\Users\PCHAUT~1\AppData\Local\Temp\ccOhqcVB.s 			page 80


 4499 0f8c 1D       		.uleb128 0x1d
 4500 0f8d 04       		.byte	0x4
 4501 0f8e 0D       		.byte	0xd
 4502 0f8f FA       		.byte	0xfa
 4503 0f90 E90F0000 		.4byte	0xfe9
 4504 0f94 1E       		.uleb128 0x1e
 4505 0f95 3B0E0000 		.4byte	.LASF208
 4506 0f99 0D       		.byte	0xd
 4507 0f9a 0101     		.2byte	0x101
 4508 0f9c 62010000 		.4byte	0x162
 4509 0fa0 1E       		.uleb128 0x1e
 4510 0fa1 CD060000 		.4byte	.LASF209
 4511 0fa5 0D       		.byte	0xd
 4512 0fa6 0801     		.2byte	0x108
 4513 0fa8 62010000 		.4byte	0x162
 4514 0fac 1E       		.uleb128 0x1e
 4515 0fad 47180000 		.4byte	.LASF210
 4516 0fb1 0D       		.byte	0xd
 4517 0fb2 0F01     		.2byte	0x10f
 4518 0fb4 BA030000 		.4byte	0x3ba
 4519 0fb8 1E       		.uleb128 0x1e
 4520 0fb9 E0140000 		.4byte	.LASF211
 4521 0fbd 0D       		.byte	0xd
 4522 0fbe 1601     		.2byte	0x116
 4523 0fc0 E90F0000 		.4byte	0xfe9
 4524 0fc4 1E       		.uleb128 0x1e
 4525 0fc5 21010000 		.4byte	.LASF212
 4526 0fc9 0D       		.byte	0xd
 4527 0fca 1E01     		.2byte	0x11e
 4528 0fcc 14100000 		.4byte	0x1014
 4529 0fd0 1E       		.uleb128 0x1e
 4530 0fd1 90180000 		.4byte	.LASF213
 4531 0fd5 0D       		.byte	0xd
 4532 0fd6 2701     		.2byte	0x127
 4533 0fd8 57100000 		.4byte	0x1057
 4534 0fdc 1E       		.uleb128 0x1e
 4535 0fdd 441B0000 		.4byte	.LASF214
 4536 0fe1 0D       		.byte	0xd
 4537 0fe2 2F01     		.2byte	0x12f
 4538 0fe4 6D010000 		.4byte	0x16d
 4539 0fe8 00       		.byte	0
 4540 0fe9 0B       		.uleb128 0xb
 4541 0fea 04       		.byte	0x4
 4542 0feb D2020000 		.4byte	0x2d2
 4543 0fef 07       		.uleb128 0x7
 4544 0ff0 B9130000 		.4byte	.LASF215
 4545 0ff4 0C       		.byte	0xc
 4546 0ff5 15       		.byte	0x15
 4547 0ff6 34       		.byte	0x34
 4548 0ff7 14100000 		.4byte	0x1014
 4549 0ffb 08       		.uleb128 0x8
 4550 0ffc 681C0000 		.4byte	.LASF216
 4551 1000 15       		.byte	0x15
 4552 1001 35       		.byte	0x35
 4553 1002 07030000 		.4byte	0x307
 4554 1006 00       		.byte	0
 4555 1007 08       		.uleb128 0x8
ARM GAS  C:\Users\PCHAUT~1\AppData\Local\Temp\ccOhqcVB.s 			page 81


 4556 1008 2D090000 		.4byte	.LASF217
 4557 100c 15       		.byte	0x15
 4558 100d 37       		.byte	0x37
 4559 100e 83010000 		.4byte	0x183
 4560 1012 08       		.byte	0x8
 4561 1013 00       		.byte	0
 4562 1014 0B       		.uleb128 0xb
 4563 1015 04       		.byte	0x4
 4564 1016 EF0F0000 		.4byte	0xfef
 4565 101a 07       		.uleb128 0x7
 4566 101b C00A0000 		.4byte	.LASF218
 4567 101f 14       		.byte	0x14
 4568 1020 16       		.byte	0x16
 4569 1021 39       		.byte	0x39
 4570 1022 57100000 		.4byte	0x1057
 4571 1026 08       		.uleb128 0x8
 4572 1027 71140000 		.4byte	.LASF219
 4573 102b 16       		.byte	0x16
 4574 102c 3A       		.byte	0x3a
 4575 102d 07030000 		.4byte	0x307
 4576 1031 00       		.byte	0
 4577 1032 08       		.uleb128 0x8
 4578 1033 E3120000 		.4byte	.LASF220
 4579 1037 16       		.byte	0x16
 4580 1038 3C       		.byte	0x3c
 4581 1039 DD020000 		.4byte	0x2dd
 4582 103d 08       		.byte	0x8
 4583 103e 08       		.uleb128 0x8
 4584 103f 9B010000 		.4byte	.LASF221
 4585 1043 16       		.byte	0x16
 4586 1044 3E       		.byte	0x3e
 4587 1045 B2110000 		.4byte	0x11b2
 4588 1049 0C       		.byte	0xc
 4589 104a 08       		.uleb128 0x8
 4590 104b 30070000 		.4byte	.LASF222
 4591 104f 16       		.byte	0x16
 4592 1050 41       		.byte	0x41
 4593 1051 83010000 		.4byte	0x183
 4594 1055 10       		.byte	0x10
 4595 1056 00       		.byte	0
 4596 1057 0B       		.uleb128 0xb
 4597 1058 04       		.byte	0x4
 4598 1059 1A100000 		.4byte	0x101a
 4599 105d 0B       		.uleb128 0xb
 4600 105e 04       		.byte	0x4
 4601 105f 6F100000 		.4byte	0x106f
 4602 1063 06       		.uleb128 0x6
 4603 1064 5D100000 		.4byte	0x105d
 4604 1068 04       		.uleb128 0x4
 4605 1069 01       		.byte	0x1
 4606 106a 08       		.byte	0x8
 4607 106b 40160000 		.4byte	.LASF223
 4608 106f 05       		.uleb128 0x5
 4609 1070 68100000 		.4byte	0x1068
 4610 1074 0B       		.uleb128 0xb
 4611 1075 04       		.byte	0x4
 4612 1076 DC0C0000 		.4byte	0xcdc
ARM GAS  C:\Users\PCHAUT~1\AppData\Local\Temp\ccOhqcVB.s 			page 82


 4613 107a 0B       		.uleb128 0xb
 4614 107b 04       		.byte	0x4
 4615 107c BC030000 		.4byte	0x3bc
 4616 1080 13       		.uleb128 0x13
 4617 1081 DC0C0000 		.4byte	0xcdc
 4618 1085 90100000 		.4byte	0x1090
 4619 1089 14       		.uleb128 0x14
 4620 108a 37000000 		.4byte	0x37
 4621 108e 30       		.byte	0x30
 4622 108f 00       		.byte	0
 4623 1090 1F       		.uleb128 0x1f
 4624 1091 636800   		.ascii	"ch\000"
 4625 1094 0D       		.byte	0xd
 4626 1095 0902     		.2byte	0x209
 4627 1097 B1040000 		.4byte	0x4b1
 4628 109b 17       		.uleb128 0x17
 4629 109c 16       		.byte	0x16
 4630 109d 17       		.byte	0x17
 4631 109e 34       		.byte	0x34
 4632 109f 7C110000 		.4byte	0x117c
 4633 10a3 08       		.uleb128 0x8
 4634 10a4 9A1C0000 		.4byte	.LASF224
 4635 10a8 17       		.byte	0x17
 4636 10a9 35       		.byte	0x35
 4637 10aa 7C110000 		.4byte	0x117c
 4638 10ae 00       		.byte	0
 4639 10af 08       		.uleb128 0x8
 4640 10b0 381E0000 		.4byte	.LASF225
 4641 10b4 17       		.byte	0x17
 4642 10b5 36       		.byte	0x36
 4643 10b6 BF000000 		.4byte	0xbf
 4644 10ba 04       		.byte	0x4
 4645 10bb 08       		.uleb128 0x8
 4646 10bc 9B020000 		.4byte	.LASF226
 4647 10c0 17       		.byte	0x17
 4648 10c1 37       		.byte	0x37
 4649 10c2 BF000000 		.4byte	0xbf
 4650 10c6 05       		.byte	0x5
 4651 10c7 08       		.uleb128 0x8
 4652 10c8 32130000 		.4byte	.LASF227
 4653 10cc 17       		.byte	0x17
 4654 10cd 38       		.byte	0x38
 4655 10ce DA000000 		.4byte	0xda
 4656 10d2 06       		.byte	0x6
 4657 10d3 08       		.uleb128 0x8
 4658 10d4 46000000 		.4byte	.LASF228
 4659 10d8 17       		.byte	0x17
 4660 10d9 39       		.byte	0x39
 4661 10da BF000000 		.4byte	0xbf
 4662 10de 08       		.byte	0x8
 4663 10df 08       		.uleb128 0x8
 4664 10e0 A5110000 		.4byte	.LASF229
 4665 10e4 17       		.byte	0x17
 4666 10e5 3A       		.byte	0x3a
 4667 10e6 BF000000 		.4byte	0xbf
 4668 10ea 09       		.byte	0x9
 4669 10eb 08       		.uleb128 0x8
ARM GAS  C:\Users\PCHAUT~1\AppData\Local\Temp\ccOhqcVB.s 			page 83


 4670 10ec 581E0000 		.4byte	.LASF230
 4671 10f0 17       		.byte	0x17
 4672 10f1 3B       		.byte	0x3b
 4673 10f2 BF000000 		.4byte	0xbf
 4674 10f6 0A       		.byte	0xa
 4675 10f7 08       		.uleb128 0x8
 4676 10f8 C61C0000 		.4byte	.LASF231
 4677 10fc 17       		.byte	0x17
 4678 10fd 3C       		.byte	0x3c
 4679 10fe BF000000 		.4byte	0xbf
 4680 1102 0B       		.byte	0xb
 4681 1103 08       		.uleb128 0x8
 4682 1104 98040000 		.4byte	.LASF232
 4683 1108 17       		.byte	0x17
 4684 1109 3D       		.byte	0x3d
 4685 110a BF000000 		.4byte	0xbf
 4686 110e 0C       		.byte	0xc
 4687 110f 08       		.uleb128 0x8
 4688 1110 0E0B0000 		.4byte	.LASF233
 4689 1114 17       		.byte	0x17
 4690 1115 3E       		.byte	0x3e
 4691 1116 BF000000 		.4byte	0xbf
 4692 111a 0D       		.byte	0xd
 4693 111b 08       		.uleb128 0x8
 4694 111c E2040000 		.4byte	.LASF234
 4695 1120 17       		.byte	0x17
 4696 1121 3F       		.byte	0x3f
 4697 1122 BF000000 		.4byte	0xbf
 4698 1126 0E       		.byte	0xe
 4699 1127 08       		.uleb128 0x8
 4700 1128 670C0000 		.4byte	.LASF235
 4701 112c 17       		.byte	0x17
 4702 112d 40       		.byte	0x40
 4703 112e BF000000 		.4byte	0xbf
 4704 1132 0F       		.byte	0xf
 4705 1133 08       		.uleb128 0x8
 4706 1134 5E030000 		.4byte	.LASF236
 4707 1138 17       		.byte	0x17
 4708 1139 41       		.byte	0x41
 4709 113a BF000000 		.4byte	0xbf
 4710 113e 10       		.byte	0x10
 4711 113f 08       		.uleb128 0x8
 4712 1140 40070000 		.4byte	.LASF237
 4713 1144 17       		.byte	0x17
 4714 1145 43       		.byte	0x43
 4715 1146 BF000000 		.4byte	0xbf
 4716 114a 11       		.byte	0x11
 4717 114b 08       		.uleb128 0x8
 4718 114c 72020000 		.4byte	.LASF238
 4719 1150 17       		.byte	0x17
 4720 1151 44       		.byte	0x44
 4721 1152 BF000000 		.4byte	0xbf
 4722 1156 12       		.byte	0x12
 4723 1157 08       		.uleb128 0x8
 4724 1158 CD120000 		.4byte	.LASF239
 4725 115c 17       		.byte	0x17
 4726 115d 45       		.byte	0x45
ARM GAS  C:\Users\PCHAUT~1\AppData\Local\Temp\ccOhqcVB.s 			page 84


 4727 115e BF000000 		.4byte	0xbf
 4728 1162 13       		.byte	0x13
 4729 1163 08       		.uleb128 0x8
 4730 1164 B2170000 		.4byte	.LASF240
 4731 1168 17       		.byte	0x17
 4732 1169 46       		.byte	0x46
 4733 116a BF000000 		.4byte	0xbf
 4734 116e 14       		.byte	0x14
 4735 116f 08       		.uleb128 0x8
 4736 1170 FF000000 		.4byte	.LASF241
 4737 1174 17       		.byte	0x17
 4738 1175 48       		.byte	0x48
 4739 1176 BF000000 		.4byte	0xbf
 4740 117a 15       		.byte	0x15
 4741 117b 00       		.byte	0
 4742 117c 13       		.uleb128 0x13
 4743 117d 68100000 		.4byte	0x1068
 4744 1181 8C110000 		.4byte	0x118c
 4745 1185 14       		.uleb128 0x14
 4746 1186 37000000 		.4byte	0x37
 4747 118a 03       		.byte	0x3
 4748 118b 00       		.byte	0
 4749 118c 03       		.uleb128 0x3
 4750 118d 4B110000 		.4byte	.LASF242
 4751 1191 17       		.byte	0x17
 4752 1192 49       		.byte	0x49
 4753 1193 9B100000 		.4byte	0x109b
 4754 1197 05       		.uleb128 0x5
 4755 1198 8C110000 		.4byte	0x118c
 4756 119c 16       		.uleb128 0x16
 4757 119d 2E0A0000 		.4byte	.LASF243
 4758 11a1 17       		.byte	0x17
 4759 11a2 6E       		.byte	0x6e
 4760 11a3 97110000 		.4byte	0x1197
 4761 11a7 03       		.uleb128 0x3
 4762 11a8 80190000 		.4byte	.LASF244
 4763 11ac 16       		.byte	0x16
 4764 11ad 34       		.byte	0x34
 4765 11ae 1A100000 		.4byte	0x101a
 4766 11b2 0B       		.uleb128 0xb
 4767 11b3 04       		.byte	0x4
 4768 11b4 A7110000 		.4byte	0x11a7
 4769 11b8 03       		.uleb128 0x3
 4770 11b9 710A0000 		.4byte	.LASF245
 4771 11bd 04       		.byte	0x4
 4772 11be 34       		.byte	0x34
 4773 11bf C3110000 		.4byte	0x11c3
 4774 11c3 07       		.uleb128 0x7
 4775 11c4 BD1E0000 		.4byte	.LASF246
 4776 11c8 14       		.byte	0x14
 4777 11c9 04       		.byte	0x4
 4778 11ca 39       		.byte	0x39
 4779 11cb 0C120000 		.4byte	0x120c
 4780 11cf 08       		.uleb128 0x8
 4781 11d0 10020000 		.4byte	.LASF247
 4782 11d4 04       		.byte	0x4
 4783 11d5 3A       		.byte	0x3a
ARM GAS  C:\Users\PCHAUT~1\AppData\Local\Temp\ccOhqcVB.s 			page 85


 4784 11d6 0C120000 		.4byte	0x120c
 4785 11da 00       		.byte	0
 4786 11db 08       		.uleb128 0x8
 4787 11dc 5D1A0000 		.4byte	.LASF248
 4788 11e0 04       		.byte	0x4
 4789 11e1 3D       		.byte	0x3d
 4790 11e2 DD020000 		.4byte	0x2dd
 4791 11e6 04       		.byte	0x4
 4792 11e7 08       		.uleb128 0x8
 4793 11e8 F1020000 		.4byte	.LASF249
 4794 11ec 04       		.byte	0x4
 4795 11ed 3F       		.byte	0x3f
 4796 11ee 6D010000 		.4byte	0x16d
 4797 11f2 08       		.byte	0x8
 4798 11f3 08       		.uleb128 0x8
 4799 11f4 4B1B0000 		.4byte	.LASF250
 4800 11f8 04       		.byte	0x4
 4801 11f9 41       		.byte	0x41
 4802 11fa 78010000 		.4byte	0x178
 4803 11fe 0C       		.byte	0xc
 4804 11ff 08       		.uleb128 0x8
 4805 1200 A00C0000 		.4byte	.LASF251
 4806 1204 04       		.byte	0x4
 4807 1205 43       		.byte	0x43
 4808 1206 78010000 		.4byte	0x178
 4809 120a 10       		.byte	0x10
 4810 120b 00       		.byte	0
 4811 120c 0B       		.uleb128 0xb
 4812 120d 04       		.byte	0x4
 4813 120e B8110000 		.4byte	0x11b8
 4814 1212 07       		.uleb128 0x7
 4815 1213 541B0000 		.4byte	.LASF252
 4816 1217 04       		.byte	0x4
 4817 1218 04       		.byte	0x4
 4818 1219 4A       		.byte	0x4a
 4819 121a 2B120000 		.4byte	0x122b
 4820 121e 08       		.uleb128 0x8
 4821 121f E31A0000 		.4byte	.LASF253
 4822 1223 04       		.byte	0x4
 4823 1224 4B       		.byte	0x4b
 4824 1225 0C120000 		.4byte	0x120c
 4825 1229 00       		.byte	0
 4826 122a 00       		.byte	0
 4827 122b 03       		.uleb128 0x3
 4828 122c C1110000 		.4byte	.LASF254
 4829 1230 04       		.byte	0x4
 4830 1231 4E       		.byte	0x4e
 4831 1232 12120000 		.4byte	0x1212
 4832 1236 03       		.uleb128 0x3
 4833 1237 F10C0000 		.4byte	.LASF255
 4834 123b 05       		.byte	0x5
 4835 123c 3F       		.byte	0x3f
 4836 123d 41120000 		.4byte	0x1241
 4837 1241 07       		.uleb128 0x7
 4838 1242 A70E0000 		.4byte	.LASF256
 4839 1246 24       		.byte	0x24
 4840 1247 05       		.byte	0x5
ARM GAS  C:\Users\PCHAUT~1\AppData\Local\Temp\ccOhqcVB.s 			page 86


 4841 1248 4D       		.byte	0x4d
 4842 1249 AE120000 		.4byte	0x12ae
 4843 124d 08       		.uleb128 0x8
 4844 124e 63040000 		.4byte	.LASF257
 4845 1252 05       		.byte	0x5
 4846 1253 4E       		.byte	0x4e
 4847 1254 07030000 		.4byte	0x307
 4848 1258 00       		.byte	0
 4849 1259 08       		.uleb128 0x8
 4850 125a 22190000 		.4byte	.LASF258
 4851 125e 05       		.byte	0x5
 4852 125f 4F       		.byte	0x4f
 4853 1260 2C000000 		.4byte	0x2c
 4854 1264 08       		.byte	0x8
 4855 1265 08       		.uleb128 0x8
 4856 1266 4B0F0000 		.4byte	.LASF259
 4857 126a 05       		.byte	0x5
 4858 126b 50       		.byte	0x50
 4859 126c D0120000 		.4byte	0x12d0
 4860 1270 0C       		.byte	0xc
 4861 1271 08       		.uleb128 0x8
 4862 1272 BF030000 		.4byte	.LASF260
 4863 1276 05       		.byte	0x5
 4864 1277 51       		.byte	0x51
 4865 1278 D0120000 		.4byte	0x12d0
 4866 127c 10       		.byte	0x10
 4867 127d 08       		.uleb128 0x8
 4868 127e E9150000 		.4byte	.LASF261
 4869 1282 05       		.byte	0x5
 4870 1283 53       		.byte	0x53
 4871 1284 D0120000 		.4byte	0x12d0
 4872 1288 14       		.byte	0x14
 4873 1289 08       		.uleb128 0x8
 4874 128a E6140000 		.4byte	.LASF262
 4875 128e 05       		.byte	0x5
 4876 128f 54       		.byte	0x54
 4877 1290 D0120000 		.4byte	0x12d0
 4878 1294 18       		.byte	0x18
 4879 1295 08       		.uleb128 0x8
 4880 1296 87180000 		.4byte	.LASF263
 4881 129a 05       		.byte	0x5
 4882 129b 55       		.byte	0x55
 4883 129c AE120000 		.4byte	0x12ae
 4884 12a0 1C       		.byte	0x1c
 4885 12a1 08       		.uleb128 0x8
 4886 12a2 A9160000 		.4byte	.LASF264
 4887 12a6 05       		.byte	0x5
 4888 12a7 56       		.byte	0x56
 4889 12a8 BA030000 		.4byte	0x3ba
 4890 12ac 20       		.byte	0x20
 4891 12ad 00       		.byte	0
 4892 12ae 03       		.uleb128 0x3
 4893 12af 97030000 		.4byte	.LASF265
 4894 12b3 05       		.byte	0x5
 4895 12b4 42       		.byte	0x42
 4896 12b5 B9120000 		.4byte	0x12b9
 4897 12b9 0B       		.uleb128 0xb
ARM GAS  C:\Users\PCHAUT~1\AppData\Local\Temp\ccOhqcVB.s 			page 87


 4898 12ba 04       		.byte	0x4
 4899 12bb BF120000 		.4byte	0x12bf
 4900 12bf 0D       		.uleb128 0xd
 4901 12c0 CA120000 		.4byte	0x12ca
 4902 12c4 0E       		.uleb128 0xe
 4903 12c5 CA120000 		.4byte	0x12ca
 4904 12c9 00       		.byte	0
 4905 12ca 0B       		.uleb128 0xb
 4906 12cb 04       		.byte	0x4
 4907 12cc 36120000 		.4byte	0x1236
 4908 12d0 0B       		.uleb128 0xb
 4909 12d1 04       		.byte	0x4
 4910 12d2 BF000000 		.4byte	0xbf
 4911 12d6 03       		.uleb128 0x3
 4912 12d7 A3040000 		.4byte	.LASF266
 4913 12db 05       		.byte	0x5
 4914 12dc 64       		.byte	0x64
 4915 12dd 36120000 		.4byte	0x1236
 4916 12e1 03       		.uleb128 0x3
 4917 12e2 FA1E0000 		.4byte	.LASF267
 4918 12e6 05       		.byte	0x5
 4919 12e7 71       		.byte	0x71
 4920 12e8 36120000 		.4byte	0x1236
 4921 12ec 20       		.uleb128 0x20
 4922 12ed 2C000000 		.4byte	0x2c
 4923 12f1 05130000 		.4byte	0x1305
 4924 12f5 0E       		.uleb128 0xe
 4925 12f6 BA030000 		.4byte	0x3ba
 4926 12fa 0E       		.uleb128 0xe
 4927 12fb 05130000 		.4byte	0x1305
 4928 12ff 0E       		.uleb128 0xe
 4929 1300 2C000000 		.4byte	0x2c
 4930 1304 00       		.byte	0
 4931 1305 0B       		.uleb128 0xb
 4932 1306 04       		.byte	0x4
 4933 1307 CA000000 		.4byte	0xca
 4934 130b 0B       		.uleb128 0xb
 4935 130c 04       		.byte	0x4
 4936 130d EC120000 		.4byte	0x12ec
 4937 1311 20       		.uleb128 0x20
 4938 1312 2C000000 		.4byte	0x2c
 4939 1316 2A130000 		.4byte	0x132a
 4940 131a 0E       		.uleb128 0xe
 4941 131b BA030000 		.4byte	0x3ba
 4942 131f 0E       		.uleb128 0xe
 4943 1320 D0120000 		.4byte	0x12d0
 4944 1324 0E       		.uleb128 0xe
 4945 1325 2C000000 		.4byte	0x2c
 4946 1329 00       		.byte	0
 4947 132a 0B       		.uleb128 0xb
 4948 132b 04       		.byte	0x4
 4949 132c 11130000 		.4byte	0x1311
 4950 1330 20       		.uleb128 0x20
 4951 1331 62010000 		.4byte	0x162
 4952 1335 44130000 		.4byte	0x1344
 4953 1339 0E       		.uleb128 0xe
 4954 133a BA030000 		.4byte	0x3ba
ARM GAS  C:\Users\PCHAUT~1\AppData\Local\Temp\ccOhqcVB.s 			page 88


 4955 133e 0E       		.uleb128 0xe
 4956 133f BF000000 		.4byte	0xbf
 4957 1343 00       		.byte	0
 4958 1344 0B       		.uleb128 0xb
 4959 1345 04       		.byte	0x4
 4960 1346 30130000 		.4byte	0x1330
 4961 134a 20       		.uleb128 0x20
 4962 134b 62010000 		.4byte	0x162
 4963 134f 59130000 		.4byte	0x1359
 4964 1353 0E       		.uleb128 0xe
 4965 1354 BA030000 		.4byte	0x3ba
 4966 1358 00       		.byte	0
 4967 1359 0B       		.uleb128 0xb
 4968 135a 04       		.byte	0x4
 4969 135b 4A130000 		.4byte	0x134a
 4970 135f 17       		.uleb128 0x17
 4971 1360 0C       		.byte	0xc
 4972 1361 18       		.byte	0x18
 4973 1362 DA       		.byte	0xda
 4974 1363 A4130000 		.4byte	0x13a4
 4975 1367 08       		.uleb128 0x8
 4976 1368 A41E0000 		.4byte	.LASF268
 4977 136c 18       		.byte	0x18
 4978 136d DB       		.byte	0xdb
 4979 136e A4130000 		.4byte	0x13a4
 4980 1372 00       		.byte	0
 4981 1373 08       		.uleb128 0x8
 4982 1374 160E0000 		.4byte	.LASF269
 4983 1378 18       		.byte	0x18
 4984 1379 DC       		.byte	0xdc
 4985 137a AA130000 		.4byte	0x13aa
 4986 137e 04       		.byte	0x4
 4987 137f 08       		.uleb128 0x8
 4988 1380 AC030000 		.4byte	.LASF270
 4989 1384 18       		.byte	0x18
 4990 1385 DD       		.byte	0xdd
 4991 1386 BF000000 		.4byte	0xbf
 4992 138a 08       		.byte	0x8
 4993 138b 08       		.uleb128 0x8
 4994 138c 76190000 		.4byte	.LASF271
 4995 1390 18       		.byte	0x18
 4996 1391 DF       		.byte	0xdf
 4997 1392 BF000000 		.4byte	0xbf
 4998 1396 09       		.byte	0x9
 4999 1397 08       		.uleb128 0x8
 5000 1398 29030000 		.4byte	.LASF272
 5001 139c 18       		.byte	0x18
 5002 139d E0       		.byte	0xe0
 5003 139e BF000000 		.4byte	0xbf
 5004 13a2 0A       		.byte	0xa
 5005 13a3 00       		.byte	0
 5006 13a4 0B       		.uleb128 0xb
 5007 13a5 04       		.byte	0x4
 5008 13a6 CD090000 		.4byte	0x9cd
 5009 13aa 0B       		.uleb128 0xb
 5010 13ab 04       		.byte	0x4
 5011 13ac 00010000 		.4byte	0x100
ARM GAS  C:\Users\PCHAUT~1\AppData\Local\Temp\ccOhqcVB.s 			page 89


 5012 13b0 03       		.uleb128 0x3
 5013 13b1 4A100000 		.4byte	.LASF273
 5014 13b5 18       		.byte	0x18
 5015 13b6 E1       		.byte	0xe1
 5016 13b7 5F130000 		.4byte	0x135f
 5017 13bb 05       		.uleb128 0x5
 5018 13bc B0130000 		.4byte	0x13b0
 5019 13c0 13       		.uleb128 0x13
 5020 13c1 BB130000 		.4byte	0x13bb
 5021 13c5 D0130000 		.4byte	0x13d0
 5022 13c9 14       		.uleb128 0x14
 5023 13ca 37000000 		.4byte	0x37
 5024 13ce 0F       		.byte	0xf
 5025 13cf 00       		.byte	0
 5026 13d0 05       		.uleb128 0x5
 5027 13d1 C0130000 		.4byte	0x13c0
 5028 13d5 15       		.uleb128 0x15
 5029 13d6 00170000 		.4byte	.LASF274
 5030 13da 18       		.byte	0x18
 5031 13db BB01     		.2byte	0x1bb
 5032 13dd D0130000 		.4byte	0x13d0
 5033 13e1 20       		.uleb128 0x20
 5034 13e2 62010000 		.4byte	0x162
 5035 13e6 FA130000 		.4byte	0x13fa
 5036 13ea 0E       		.uleb128 0xe
 5037 13eb BA030000 		.4byte	0x3ba
 5038 13ef 0E       		.uleb128 0xe
 5039 13f0 BF000000 		.4byte	0xbf
 5040 13f4 0E       		.uleb128 0xe
 5041 13f5 99010000 		.4byte	0x199
 5042 13f9 00       		.byte	0
 5043 13fa 0B       		.uleb128 0xb
 5044 13fb 04       		.byte	0x4
 5045 13fc E1130000 		.4byte	0x13e1
 5046 1400 20       		.uleb128 0x20
 5047 1401 62010000 		.4byte	0x162
 5048 1405 14140000 		.4byte	0x1414
 5049 1409 0E       		.uleb128 0xe
 5050 140a BA030000 		.4byte	0x3ba
 5051 140e 0E       		.uleb128 0xe
 5052 140f 99010000 		.4byte	0x199
 5053 1413 00       		.byte	0
 5054 1414 0B       		.uleb128 0xb
 5055 1415 04       		.byte	0x4
 5056 1416 00140000 		.4byte	0x1400
 5057 141a 20       		.uleb128 0x20
 5058 141b 2C000000 		.4byte	0x2c
 5059 141f 38140000 		.4byte	0x1438
 5060 1423 0E       		.uleb128 0xe
 5061 1424 BA030000 		.4byte	0x3ba
 5062 1428 0E       		.uleb128 0xe
 5063 1429 05130000 		.4byte	0x1305
 5064 142d 0E       		.uleb128 0xe
 5065 142e 2C000000 		.4byte	0x2c
 5066 1432 0E       		.uleb128 0xe
 5067 1433 99010000 		.4byte	0x199
 5068 1437 00       		.byte	0
ARM GAS  C:\Users\PCHAUT~1\AppData\Local\Temp\ccOhqcVB.s 			page 90


 5069 1438 0B       		.uleb128 0xb
 5070 1439 04       		.byte	0x4
 5071 143a 1A140000 		.4byte	0x141a
 5072 143e 20       		.uleb128 0x20
 5073 143f 2C000000 		.4byte	0x2c
 5074 1443 5C140000 		.4byte	0x145c
 5075 1447 0E       		.uleb128 0xe
 5076 1448 BA030000 		.4byte	0x3ba
 5077 144c 0E       		.uleb128 0xe
 5078 144d D0120000 		.4byte	0x12d0
 5079 1451 0E       		.uleb128 0xe
 5080 1452 2C000000 		.4byte	0x2c
 5081 1456 0E       		.uleb128 0xe
 5082 1457 99010000 		.4byte	0x199
 5083 145b 00       		.byte	0
 5084 145c 0B       		.uleb128 0xb
 5085 145d 04       		.byte	0x4
 5086 145e 3E140000 		.4byte	0x143e
 5087 1462 21       		.uleb128 0x21
 5088 1463 07       		.byte	0x7
 5089 1464 01       		.byte	0x1
 5090 1465 5E000000 		.4byte	0x5e
 5091 1469 19       		.byte	0x19
 5092 146a 28       		.byte	0x28
 5093 146b A6140000 		.4byte	0x14a6
 5094 146f 22       		.uleb128 0x22
 5095 1470 5A010000 		.4byte	.LASF275
 5096 1474 00       		.byte	0
 5097 1475 22       		.uleb128 0x22
 5098 1476 760D0000 		.4byte	.LASF276
 5099 147a 01       		.byte	0x1
 5100 147b 22       		.uleb128 0x22
 5101 147c 660A0000 		.4byte	.LASF277
 5102 1480 02       		.byte	0x2
 5103 1481 22       		.uleb128 0x22
 5104 1482 ED170000 		.4byte	.LASF278
 5105 1486 03       		.byte	0x3
 5106 1487 22       		.uleb128 0x22
 5107 1488 CC1D0000 		.4byte	.LASF279
 5108 148c 04       		.byte	0x4
 5109 148d 22       		.uleb128 0x22
 5110 148e 6D060000 		.4byte	.LASF280
 5111 1492 05       		.byte	0x5
 5112 1493 22       		.uleb128 0x22
 5113 1494 56190000 		.4byte	.LASF281
 5114 1498 06       		.byte	0x6
 5115 1499 22       		.uleb128 0x22
 5116 149a 39150000 		.4byte	.LASF282
 5117 149e 07       		.byte	0x7
 5118 149f 22       		.uleb128 0x22
 5119 14a0 A01D0000 		.4byte	.LASF283
 5120 14a4 08       		.byte	0x8
 5121 14a5 00       		.byte	0
 5122 14a6 03       		.uleb128 0x3
 5123 14a7 0A140000 		.4byte	.LASF284
 5124 14ab 19       		.byte	0x19
 5125 14ac 32       		.byte	0x32
ARM GAS  C:\Users\PCHAUT~1\AppData\Local\Temp\ccOhqcVB.s 			page 91


 5126 14ad 62140000 		.4byte	0x1462
 5127 14b1 17       		.uleb128 0x17
 5128 14b2 08       		.byte	0x8
 5129 14b3 19       		.byte	0x19
 5130 14b4 37       		.byte	0x37
 5131 14b5 D2140000 		.4byte	0x14d2
 5132 14b9 08       		.uleb128 0x8
 5133 14ba 10060000 		.4byte	.LASF285
 5134 14be 19       		.byte	0x19
 5135 14bf 38       		.byte	0x38
 5136 14c0 F5000000 		.4byte	0xf5
 5137 14c4 00       		.byte	0
 5138 14c5 08       		.uleb128 0x8
 5139 14c6 BE180000 		.4byte	.LASF286
 5140 14ca 19       		.byte	0x19
 5141 14cb 39       		.byte	0x39
 5142 14cc F5000000 		.4byte	0xf5
 5143 14d0 04       		.byte	0x4
 5144 14d1 00       		.byte	0
 5145 14d2 03       		.uleb128 0x3
 5146 14d3 971A0000 		.4byte	.LASF287
 5147 14d7 19       		.byte	0x19
 5148 14d8 3A       		.byte	0x3a
 5149 14d9 B1140000 		.4byte	0x14b1
 5150 14dd 20       		.uleb128 0x20
 5151 14de EC140000 		.4byte	0x14ec
 5152 14e2 EC140000 		.4byte	0x14ec
 5153 14e6 0E       		.uleb128 0xe
 5154 14e7 BA030000 		.4byte	0x3ba
 5155 14eb 00       		.byte	0
 5156 14ec 04       		.uleb128 0x4
 5157 14ed 01       		.byte	0x1
 5158 14ee 02       		.byte	0x2
 5159 14ef 28010000 		.4byte	.LASF288
 5160 14f3 0B       		.uleb128 0xb
 5161 14f4 04       		.byte	0x4
 5162 14f5 DD140000 		.4byte	0x14dd
 5163 14f9 20       		.uleb128 0x20
 5164 14fa EC140000 		.4byte	0x14ec
 5165 14fe 17150000 		.4byte	0x1517
 5166 1502 0E       		.uleb128 0xe
 5167 1503 BA030000 		.4byte	0x3ba
 5168 1507 0E       		.uleb128 0xe
 5169 1508 F5000000 		.4byte	0xf5
 5170 150c 0E       		.uleb128 0xe
 5171 150d D0120000 		.4byte	0x12d0
 5172 1511 0E       		.uleb128 0xe
 5173 1512 F5000000 		.4byte	0xf5
 5174 1516 00       		.byte	0
 5175 1517 0B       		.uleb128 0xb
 5176 1518 04       		.byte	0x4
 5177 1519 F9140000 		.4byte	0x14f9
 5178 151d 20       		.uleb128 0x20
 5179 151e EC140000 		.4byte	0x14ec
 5180 1522 3B150000 		.4byte	0x153b
 5181 1526 0E       		.uleb128 0xe
 5182 1527 BA030000 		.4byte	0x3ba
ARM GAS  C:\Users\PCHAUT~1\AppData\Local\Temp\ccOhqcVB.s 			page 92


 5183 152b 0E       		.uleb128 0xe
 5184 152c F5000000 		.4byte	0xf5
 5185 1530 0E       		.uleb128 0xe
 5186 1531 05130000 		.4byte	0x1305
 5187 1535 0E       		.uleb128 0xe
 5188 1536 F5000000 		.4byte	0xf5
 5189 153a 00       		.byte	0
 5190 153b 0B       		.uleb128 0xb
 5191 153c 04       		.byte	0x4
 5192 153d 1D150000 		.4byte	0x151d
 5193 1541 20       		.uleb128 0x20
 5194 1542 EC140000 		.4byte	0x14ec
 5195 1546 55150000 		.4byte	0x1555
 5196 154a 0E       		.uleb128 0xe
 5197 154b BA030000 		.4byte	0x3ba
 5198 154f 0E       		.uleb128 0xe
 5199 1550 55150000 		.4byte	0x1555
 5200 1554 00       		.byte	0
 5201 1555 0B       		.uleb128 0xb
 5202 1556 04       		.byte	0x4
 5203 1557 D2140000 		.4byte	0x14d2
 5204 155b 0B       		.uleb128 0xb
 5205 155c 04       		.byte	0x4
 5206 155d 41150000 		.4byte	0x1541
 5207 1561 13       		.uleb128 0x13
 5208 1562 F5000000 		.4byte	0xf5
 5209 1566 71150000 		.4byte	0x1571
 5210 156a 14       		.uleb128 0x14
 5211 156b 37000000 		.4byte	0x37
 5212 156f 03       		.byte	0x3
 5213 1570 00       		.byte	0
 5214 1571 17       		.uleb128 0x17
 5215 1572 04       		.byte	0x4
 5216 1573 1A       		.byte	0x1a
 5217 1574 B3       		.byte	0xb3
 5218 1575 92150000 		.4byte	0x1592
 5219 1579 18       		.uleb128 0x18
 5220 157a 73657400 		.ascii	"set\000"
 5221 157e 1A       		.byte	0x1a
 5222 157f B4       		.byte	0xb4
 5223 1580 DA000000 		.4byte	0xda
 5224 1584 00       		.byte	0
 5225 1585 08       		.uleb128 0x8
 5226 1586 EE0B0000 		.4byte	.LASF289
 5227 158a 1A       		.byte	0x1a
 5228 158b B5       		.byte	0xb5
 5229 158c DA000000 		.4byte	0xda
 5230 1590 02       		.byte	0x2
 5231 1591 00       		.byte	0
 5232 1592 1D       		.uleb128 0x1d
 5233 1593 04       		.byte	0x4
 5234 1594 1A       		.byte	0x1a
 5235 1595 B1       		.byte	0xb1
 5236 1596 AD150000 		.4byte	0x15ad
 5237 159a 23       		.uleb128 0x23
 5238 159b 5700     		.ascii	"W\000"
 5239 159d 1A       		.byte	0x1a
ARM GAS  C:\Users\PCHAUT~1\AppData\Local\Temp\ccOhqcVB.s 			page 93


 5240 159e B2       		.byte	0xb2
 5241 159f F5000000 		.4byte	0xf5
 5242 15a3 23       		.uleb128 0x23
 5243 15a4 4800     		.ascii	"H\000"
 5244 15a6 1A       		.byte	0x1a
 5245 15a7 B6       		.byte	0xb6
 5246 15a8 71150000 		.4byte	0x1571
 5247 15ac 00       		.byte	0
 5248 15ad 06       		.uleb128 0x6
 5249 15ae 92150000 		.4byte	0x1592
 5250 15b2 17       		.uleb128 0x17
 5251 15b3 2C       		.byte	0x2c
 5252 15b4 1A       		.byte	0x1a
 5253 15b5 A9       		.byte	0xa9
 5254 15b6 3F160000 		.4byte	0x163f
 5255 15ba 08       		.uleb128 0x8
 5256 15bb 93190000 		.4byte	.LASF290
 5257 15bf 1A       		.byte	0x1a
 5258 15c0 AB       		.byte	0xab
 5259 15c1 00010000 		.4byte	0x100
 5260 15c5 00       		.byte	0
 5261 15c6 08       		.uleb128 0x8
 5262 15c7 B2020000 		.4byte	.LASF291
 5263 15cb 1A       		.byte	0x1a
 5264 15cc AC       		.byte	0xac
 5265 15cd 00010000 		.4byte	0x100
 5266 15d1 04       		.byte	0x4
 5267 15d2 08       		.uleb128 0x8
 5268 15d3 490D0000 		.4byte	.LASF292
 5269 15d7 1A       		.byte	0x1a
 5270 15d8 AD       		.byte	0xad
 5271 15d9 00010000 		.4byte	0x100
 5272 15dd 08       		.byte	0x8
 5273 15de 08       		.uleb128 0x8
 5274 15df E4180000 		.4byte	.LASF293
 5275 15e3 1A       		.byte	0x1a
 5276 15e4 AE       		.byte	0xae
 5277 15e5 00010000 		.4byte	0x100
 5278 15e9 0C       		.byte	0xc
 5279 15ea 18       		.uleb128 0x18
 5280 15eb 49445200 		.ascii	"IDR\000"
 5281 15ef 1A       		.byte	0x1a
 5282 15f0 AF       		.byte	0xaf
 5283 15f1 00010000 		.4byte	0x100
 5284 15f5 10       		.byte	0x10
 5285 15f6 18       		.uleb128 0x18
 5286 15f7 4F445200 		.ascii	"ODR\000"
 5287 15fb 1A       		.byte	0x1a
 5288 15fc B0       		.byte	0xb0
 5289 15fd 00010000 		.4byte	0x100
 5290 1601 14       		.byte	0x14
 5291 1602 08       		.uleb128 0x8
 5292 1603 45100000 		.4byte	.LASF294
 5293 1607 1A       		.byte	0x1a
 5294 1608 B7       		.byte	0xb7
 5295 1609 AD150000 		.4byte	0x15ad
 5296 160d 18       		.byte	0x18
ARM GAS  C:\Users\PCHAUT~1\AppData\Local\Temp\ccOhqcVB.s 			page 94


 5297 160e 08       		.uleb128 0x8
 5298 160f 16150000 		.4byte	.LASF295
 5299 1613 1A       		.byte	0x1a
 5300 1614 B8       		.byte	0xb8
 5301 1615 00010000 		.4byte	0x100
 5302 1619 1C       		.byte	0x1c
 5303 161a 08       		.uleb128 0x8
 5304 161b A4170000 		.4byte	.LASF296
 5305 161f 1A       		.byte	0x1a
 5306 1620 B9       		.byte	0xb9
 5307 1621 00010000 		.4byte	0x100
 5308 1625 20       		.byte	0x20
 5309 1626 08       		.uleb128 0x8
 5310 1627 9F170000 		.4byte	.LASF297
 5311 162b 1A       		.byte	0x1a
 5312 162c BA       		.byte	0xba
 5313 162d 00010000 		.4byte	0x100
 5314 1631 24       		.byte	0x24
 5315 1632 18       		.uleb128 0x18
 5316 1633 42525200 		.ascii	"BRR\000"
 5317 1637 1A       		.byte	0x1a
 5318 1638 BB       		.byte	0xbb
 5319 1639 00010000 		.4byte	0x100
 5320 163d 28       		.byte	0x28
 5321 163e 00       		.byte	0
 5322 163f 03       		.uleb128 0x3
 5323 1640 2E0E0000 		.4byte	.LASF298
 5324 1644 1A       		.byte	0x1a
 5325 1645 BC       		.byte	0xbc
 5326 1646 B2150000 		.4byte	0x15b2
 5327 164a 17       		.uleb128 0x17
 5328 164b 1C       		.byte	0x1c
 5329 164c 1A       		.byte	0x1a
 5330 164d C1       		.byte	0xc1
 5331 164e A7160000 		.4byte	0x16a7
 5332 1652 08       		.uleb128 0x8
 5333 1653 621C0000 		.4byte	.LASF299
 5334 1657 1A       		.byte	0x1a
 5335 1658 C3       		.byte	0xc3
 5336 1659 F5000000 		.4byte	0xf5
 5337 165d 00       		.byte	0
 5338 165e 08       		.uleb128 0x8
 5339 165f AB020000 		.4byte	.LASF300
 5340 1663 1A       		.byte	0x1a
 5341 1664 C5       		.byte	0xc5
 5342 1665 F5000000 		.4byte	0xf5
 5343 1669 04       		.byte	0x4
 5344 166a 08       		.uleb128 0x8
 5345 166b 00020000 		.4byte	.LASF301
 5346 166f 1A       		.byte	0x1a
 5347 1670 C7       		.byte	0xc7
 5348 1671 F5000000 		.4byte	0xf5
 5349 1675 08       		.byte	0x8
 5350 1676 08       		.uleb128 0x8
 5351 1677 991B0000 		.4byte	.LASF302
 5352 167b 1A       		.byte	0x1a
 5353 167c C9       		.byte	0xc9
ARM GAS  C:\Users\PCHAUT~1\AppData\Local\Temp\ccOhqcVB.s 			page 95


 5354 167d F5000000 		.4byte	0xf5
 5355 1681 0C       		.byte	0xc
 5356 1682 18       		.uleb128 0x18
 5357 1683 6F647200 		.ascii	"odr\000"
 5358 1687 1A       		.byte	0x1a
 5359 1688 CB       		.byte	0xcb
 5360 1689 F5000000 		.4byte	0xf5
 5361 168d 10       		.byte	0x10
 5362 168e 08       		.uleb128 0x8
 5363 168f 62190000 		.4byte	.LASF303
 5364 1693 1A       		.byte	0x1a
 5365 1694 CD       		.byte	0xcd
 5366 1695 F5000000 		.4byte	0xf5
 5367 1699 14       		.byte	0x14
 5368 169a 08       		.uleb128 0x8
 5369 169b 73000000 		.4byte	.LASF304
 5370 169f 1A       		.byte	0x1a
 5371 16a0 CF       		.byte	0xcf
 5372 16a1 F5000000 		.4byte	0xf5
 5373 16a5 18       		.byte	0x18
 5374 16a6 00       		.byte	0
 5375 16a7 03       		.uleb128 0x3
 5376 16a8 ED160000 		.4byte	.LASF305
 5377 16ac 1A       		.byte	0x1a
 5378 16ad D0       		.byte	0xd0
 5379 16ae 4A160000 		.4byte	0x164a
 5380 16b2 17       		.uleb128 0x17
 5381 16b3 FC       		.byte	0xfc
 5382 16b4 1A       		.byte	0x1a
 5383 16b5 D9       		.byte	0xd9
 5384 16b6 27170000 		.4byte	0x1727
 5385 16ba 08       		.uleb128 0x8
 5386 16bb B00E0000 		.4byte	.LASF306
 5387 16bf 1A       		.byte	0x1a
 5388 16c0 DC       		.byte	0xdc
 5389 16c1 A7160000 		.4byte	0x16a7
 5390 16c5 00       		.byte	0
 5391 16c6 08       		.uleb128 0x8
 5392 16c7 94020000 		.4byte	.LASF307
 5393 16cb 1A       		.byte	0x1a
 5394 16cc E0       		.byte	0xe0
 5395 16cd A7160000 		.4byte	0x16a7
 5396 16d1 1C       		.byte	0x1c
 5397 16d2 08       		.uleb128 0x8
 5398 16d3 A2010000 		.4byte	.LASF308
 5399 16d7 1A       		.byte	0x1a
 5400 16d8 E4       		.byte	0xe4
 5401 16d9 A7160000 		.4byte	0x16a7
 5402 16dd 38       		.byte	0x38
 5403 16de 08       		.uleb128 0x8
 5404 16df BC0C0000 		.4byte	.LASF309
 5405 16e3 1A       		.byte	0x1a
 5406 16e4 E8       		.byte	0xe8
 5407 16e5 A7160000 		.4byte	0x16a7
 5408 16e9 54       		.byte	0x54
 5409 16ea 08       		.uleb128 0x8
 5410 16eb 4F160000 		.4byte	.LASF310
ARM GAS  C:\Users\PCHAUT~1\AppData\Local\Temp\ccOhqcVB.s 			page 96


 5411 16ef 1A       		.byte	0x1a
 5412 16f0 EC       		.byte	0xec
 5413 16f1 A7160000 		.4byte	0x16a7
 5414 16f5 70       		.byte	0x70
 5415 16f6 08       		.uleb128 0x8
 5416 16f7 471F0000 		.4byte	.LASF311
 5417 16fb 1A       		.byte	0x1a
 5418 16fc F0       		.byte	0xf0
 5419 16fd A7160000 		.4byte	0x16a7
 5420 1701 8C       		.byte	0x8c
 5421 1702 08       		.uleb128 0x8
 5422 1703 EC0A0000 		.4byte	.LASF312
 5423 1707 1A       		.byte	0x1a
 5424 1708 F4       		.byte	0xf4
 5425 1709 A7160000 		.4byte	0x16a7
 5426 170d A8       		.byte	0xa8
 5427 170e 08       		.uleb128 0x8
 5428 170f 99140000 		.4byte	.LASF313
 5429 1713 1A       		.byte	0x1a
 5430 1714 F8       		.byte	0xf8
 5431 1715 A7160000 		.4byte	0x16a7
 5432 1719 C4       		.byte	0xc4
 5433 171a 08       		.uleb128 0x8
 5434 171b AC1D0000 		.4byte	.LASF314
 5435 171f 1A       		.byte	0x1a
 5436 1720 FC       		.byte	0xfc
 5437 1721 A7160000 		.4byte	0x16a7
 5438 1725 E0       		.byte	0xe0
 5439 1726 00       		.byte	0
 5440 1727 03       		.uleb128 0x3
 5441 1728 490A0000 		.4byte	.LASF315
 5442 172c 1A       		.byte	0x1a
 5443 172d FE       		.byte	0xfe
 5444 172e B2160000 		.4byte	0x16b2
 5445 1732 05       		.uleb128 0x5
 5446 1733 27170000 		.4byte	0x1727
 5447 1737 1A       		.uleb128 0x1a
 5448 1738 A0140000 		.4byte	.LASF316
 5449 173c 1A       		.byte	0x1a
 5450 173d 1B01     		.2byte	0x11b
 5451 173f 43170000 		.4byte	0x1743
 5452 1743 0B       		.uleb128 0xb
 5453 1744 04       		.byte	0x4
 5454 1745 3F160000 		.4byte	0x163f
 5455 1749 15       		.uleb128 0x15
 5456 174a 3D1A0000 		.4byte	.LASF317
 5457 174e 1A       		.byte	0x1a
 5458 174f DA01     		.2byte	0x1da
 5459 1751 32170000 		.4byte	0x1732
 5460 1755 21       		.uleb128 0x21
 5461 1756 07       		.byte	0x7
 5462 1757 01       		.byte	0x1
 5463 1758 5E000000 		.4byte	0x5e
 5464 175c 1B       		.byte	0x1b
 5465 175d 46       		.byte	0x46
 5466 175e 87170000 		.4byte	0x1787
 5467 1762 22       		.uleb128 0x22
ARM GAS  C:\Users\PCHAUT~1\AppData\Local\Temp\ccOhqcVB.s 			page 97


 5468 1763 16070000 		.4byte	.LASF318
 5469 1767 00       		.byte	0
 5470 1768 22       		.uleb128 0x22
 5471 1769 66120000 		.4byte	.LASF319
 5472 176d 01       		.byte	0x1
 5473 176e 22       		.uleb128 0x22
 5474 176f 171C0000 		.4byte	.LASF320
 5475 1773 02       		.byte	0x2
 5476 1774 22       		.uleb128 0x22
 5477 1775 2B100000 		.4byte	.LASF321
 5478 1779 03       		.byte	0x3
 5479 177a 22       		.uleb128 0x22
 5480 177b 73050000 		.4byte	.LASF322
 5481 177f 04       		.byte	0x4
 5482 1780 22       		.uleb128 0x22
 5483 1781 F70F0000 		.4byte	.LASF323
 5484 1785 05       		.byte	0x5
 5485 1786 00       		.byte	0
 5486 1787 03       		.uleb128 0x3
 5487 1788 A1030000 		.4byte	.LASF324
 5488 178c 1B       		.byte	0x1b
 5489 178d 4D       		.byte	0x4d
 5490 178e 55170000 		.4byte	0x1755
 5491 1792 1A       		.uleb128 0x1a
 5492 1793 310F0000 		.4byte	.LASF325
 5493 1797 1C       		.byte	0x1c
 5494 1798 2701     		.2byte	0x127
 5495 179a DA000000 		.4byte	0xda
 5496 179e 1A       		.uleb128 0x1a
 5497 179f 07180000 		.4byte	.LASF326
 5498 17a3 1C       		.byte	0x1c
 5499 17a4 2C01     		.2byte	0x12c
 5500 17a6 DA000000 		.4byte	0xda
 5501 17aa 24       		.uleb128 0x24
 5502 17ab 07       		.byte	0x7
 5503 17ac 01       		.byte	0x1
 5504 17ad 5E000000 		.4byte	0x5e
 5505 17b1 1C       		.byte	0x1c
 5506 17b2 3301     		.2byte	0x133
 5507 17b4 C5170000 		.4byte	0x17c5
 5508 17b8 22       		.uleb128 0x22
 5509 17b9 1A0D0000 		.4byte	.LASF327
 5510 17bd 00       		.byte	0
 5511 17be 22       		.uleb128 0x22
 5512 17bf 18020000 		.4byte	.LASF328
 5513 17c3 01       		.byte	0x1
 5514 17c4 00       		.byte	0
 5515 17c5 1A       		.uleb128 0x1a
 5516 17c6 071D0000 		.4byte	.LASF329
 5517 17ca 1C       		.byte	0x1c
 5518 17cb 3601     		.2byte	0x136
 5519 17cd AA170000 		.4byte	0x17aa
 5520 17d1 1A       		.uleb128 0x1a
 5521 17d2 AA0D0000 		.4byte	.LASF330
 5522 17d6 1C       		.byte	0x1c
 5523 17d7 3B01     		.2byte	0x13b
 5524 17d9 DD170000 		.4byte	0x17dd
ARM GAS  C:\Users\PCHAUT~1\AppData\Local\Temp\ccOhqcVB.s 			page 98


 5525 17dd 0C       		.uleb128 0xc
 5526 17de AA0D0000 		.4byte	.LASF330
 5527 17e2 38       		.byte	0x38
 5528 17e3 1C       		.byte	0x1c
 5529 17e4 9F01     		.2byte	0x19f
 5530 17e6 6D180000 		.4byte	0x186d
 5531 17ea 0A       		.uleb128 0xa
 5532 17eb 2C130000 		.4byte	.LASF331
 5533 17ef 1C       		.byte	0x1c
 5534 17f0 A301     		.2byte	0x1a3
 5535 17f2 87170000 		.4byte	0x1787
 5536 17f6 00       		.byte	0
 5537 17f7 0A       		.uleb128 0xa
 5538 17f8 DF170000 		.4byte	.LASF332
 5539 17fc 1C       		.byte	0x1c
 5540 17fd A701     		.2byte	0x1a7
 5541 17ff 94190000 		.4byte	0x1994
 5542 1803 04       		.byte	0x4
 5543 1804 0A       		.uleb128 0xa
 5544 1805 AE010000 		.4byte	.LASF333
 5545 1809 1C       		.byte	0x1c
 5546 180a AB01     		.2byte	0x1ab
 5547 180c 9A180000 		.4byte	0x189a
 5548 1810 08       		.byte	0x8
 5549 1811 0A       		.uleb128 0xa
 5550 1812 85150000 		.4byte	.LASF334
 5551 1816 1C       		.byte	0x1c
 5552 1817 AF01     		.2byte	0x1af
 5553 1819 2C000000 		.4byte	0x2c
 5554 181d 0C       		.byte	0xc
 5555 181e 0A       		.uleb128 0xa
 5556 181f 501A0000 		.4byte	.LASF335
 5557 1823 1C       		.byte	0x1c
 5558 1824 B301     		.2byte	0x1b3
 5559 1826 9A190000 		.4byte	0x199a
 5560 182a 10       		.byte	0x10
 5561 182b 0A       		.uleb128 0xa
 5562 182c E7050000 		.4byte	.LASF336
 5563 1830 1C       		.byte	0x1c
 5564 1831 B801     		.2byte	0x1b8
 5565 1833 D2020000 		.4byte	0x2d2
 5566 1837 14       		.byte	0x14
 5567 1838 0A       		.uleb128 0xa
 5568 1839 BF0B0000 		.4byte	.LASF337
 5569 183d 1C       		.byte	0x1c
 5570 183e BE01     		.2byte	0x1be
 5571 1840 A7110000 		.4byte	0x11a7
 5572 1844 18       		.byte	0x18
 5573 1845 09       		.uleb128 0x9
 5574 1846 61646300 		.ascii	"adc\000"
 5575 184a 1C       		.byte	0x1c
 5576 184b C701     		.2byte	0x1c7
 5577 184d A0190000 		.4byte	0x19a0
 5578 1851 2C       		.byte	0x2c
 5579 1852 0A       		.uleb128 0xa
 5580 1853 F8090000 		.4byte	.LASF338
 5581 1857 1C       		.byte	0x1c
ARM GAS  C:\Users\PCHAUT~1\AppData\Local\Temp\ccOhqcVB.s 			page 99


 5582 1858 CB01     		.2byte	0x1cb
 5583 185a A6190000 		.4byte	0x19a6
 5584 185e 30       		.byte	0x30
 5585 185f 0A       		.uleb128 0xa
 5586 1860 C2140000 		.4byte	.LASF339
 5587 1864 1C       		.byte	0x1c
 5588 1865 CF01     		.2byte	0x1cf
 5589 1867 F5000000 		.4byte	0xf5
 5590 186b 34       		.byte	0x34
 5591 186c 00       		.byte	0
 5592 186d 1A       		.uleb128 0x1a
 5593 186e 38170000 		.4byte	.LASF340
 5594 1872 1C       		.byte	0x1c
 5595 1873 4501     		.2byte	0x145
 5596 1875 79180000 		.4byte	0x1879
 5597 1879 0B       		.uleb128 0xb
 5598 187a 04       		.byte	0x4
 5599 187b 7F180000 		.4byte	0x187f
 5600 187f 0D       		.uleb128 0xd
 5601 1880 94180000 		.4byte	0x1894
 5602 1884 0E       		.uleb128 0xe
 5603 1885 94180000 		.4byte	0x1894
 5604 1889 0E       		.uleb128 0xe
 5605 188a 9A180000 		.4byte	0x189a
 5606 188e 0E       		.uleb128 0xe
 5607 188f 2C000000 		.4byte	0x2c
 5608 1893 00       		.byte	0
 5609 1894 0B       		.uleb128 0xb
 5610 1895 04       		.byte	0x4
 5611 1896 D1170000 		.4byte	0x17d1
 5612 189a 0B       		.uleb128 0xb
 5613 189b 04       		.byte	0x4
 5614 189c 92170000 		.4byte	0x1792
 5615 18a0 1A       		.uleb128 0x1a
 5616 18a1 FB120000 		.4byte	.LASF341
 5617 18a5 1C       		.byte	0x1c
 5618 18a6 4E01     		.2byte	0x14e
 5619 18a8 AC180000 		.4byte	0x18ac
 5620 18ac 0B       		.uleb128 0xb
 5621 18ad 04       		.byte	0x4
 5622 18ae B2180000 		.4byte	0x18b2
 5623 18b2 0D       		.uleb128 0xd
 5624 18b3 C2180000 		.4byte	0x18c2
 5625 18b7 0E       		.uleb128 0xe
 5626 18b8 94180000 		.4byte	0x1894
 5627 18bc 0E       		.uleb128 0xe
 5628 18bd C5170000 		.4byte	0x17c5
 5629 18c1 00       		.byte	0
 5630 18c2 19       		.uleb128 0x19
 5631 18c3 28       		.byte	0x28
 5632 18c4 1C       		.byte	0x1c
 5633 18c5 5801     		.2byte	0x158
 5634 18c7 5B190000 		.4byte	0x195b
 5635 18cb 0A       		.uleb128 0xa
 5636 18cc 4E1C0000 		.4byte	.LASF342
 5637 18d0 1C       		.byte	0x1c
 5638 18d1 5C01     		.2byte	0x15c
ARM GAS  C:\Users\PCHAUT~1\AppData\Local\Temp\ccOhqcVB.s 			page 100


 5639 18d3 EC140000 		.4byte	0x14ec
 5640 18d7 00       		.byte	0
 5641 18d8 0A       		.uleb128 0xa
 5642 18d9 780E0000 		.4byte	.LASF343
 5643 18dd 1C       		.byte	0x1c
 5644 18de 6001     		.2byte	0x160
 5645 18e0 9E170000 		.4byte	0x179e
 5646 18e4 02       		.byte	0x2
 5647 18e5 0A       		.uleb128 0xa
 5648 18e6 F8080000 		.4byte	.LASF344
 5649 18ea 1C       		.byte	0x1c
 5650 18eb 6401     		.2byte	0x164
 5651 18ed 6D180000 		.4byte	0x186d
 5652 18f1 04       		.byte	0x4
 5653 18f2 0A       		.uleb128 0xa
 5654 18f3 C31D0000 		.4byte	.LASF345
 5655 18f7 1C       		.byte	0x1c
 5656 18f8 6801     		.2byte	0x168
 5657 18fa A0180000 		.4byte	0x18a0
 5658 18fe 08       		.byte	0x8
 5659 18ff 09       		.uleb128 0x9
 5660 1900 63723100 		.ascii	"cr1\000"
 5661 1904 1C       		.byte	0x1c
 5662 1905 6F01     		.2byte	0x16f
 5663 1907 F5000000 		.4byte	0xf5
 5664 190b 0C       		.byte	0xc
 5665 190c 09       		.uleb128 0x9
 5666 190d 63723200 		.ascii	"cr2\000"
 5667 1911 1C       		.byte	0x1c
 5668 1912 7601     		.2byte	0x176
 5669 1914 F5000000 		.4byte	0xf5
 5670 1918 10       		.byte	0x10
 5671 1919 0A       		.uleb128 0xa
 5672 191a EE130000 		.4byte	.LASF346
 5673 191e 1C       		.byte	0x1c
 5674 191f 7C01     		.2byte	0x17c
 5675 1921 F5000000 		.4byte	0xf5
 5676 1925 14       		.byte	0x14
 5677 1926 0A       		.uleb128 0xa
 5678 1927 F4130000 		.4byte	.LASF347
 5679 192b 1C       		.byte	0x1c
 5680 192c 8201     		.2byte	0x182
 5681 192e F5000000 		.4byte	0xf5
 5682 1932 18       		.byte	0x18
 5683 1933 0A       		.uleb128 0xa
 5684 1934 55010000 		.4byte	.LASF348
 5685 1938 1C       		.byte	0x1c
 5686 1939 8701     		.2byte	0x187
 5687 193b F5000000 		.4byte	0xf5
 5688 193f 1C       		.byte	0x1c
 5689 1940 0A       		.uleb128 0xa
 5690 1941 8A1E0000 		.4byte	.LASF349
 5691 1945 1C       		.byte	0x1c
 5692 1946 8C01     		.2byte	0x18c
 5693 1948 F5000000 		.4byte	0xf5
 5694 194c 20       		.byte	0x20
 5695 194d 0A       		.uleb128 0xa
ARM GAS  C:\Users\PCHAUT~1\AppData\Local\Temp\ccOhqcVB.s 			page 101


 5696 194e 8F1E0000 		.4byte	.LASF350
 5697 1952 1C       		.byte	0x1c
 5698 1953 9101     		.2byte	0x191
 5699 1955 F5000000 		.4byte	0xf5
 5700 1959 24       		.byte	0x24
 5701 195a 00       		.byte	0
 5702 195b 1A       		.uleb128 0x1a
 5703 195c B1040000 		.4byte	.LASF351
 5704 1960 1C       		.byte	0x1c
 5705 1961 9201     		.2byte	0x192
 5706 1963 C2180000 		.4byte	0x18c2
 5707 1967 05       		.uleb128 0x5
 5708 1968 5B190000 		.4byte	0x195b
 5709 196c 19       		.uleb128 0x19
 5710 196d 04       		.byte	0x4
 5711 196e 1C       		.byte	0x1c
 5712 196f 9801     		.2byte	0x198
 5713 1971 83190000 		.4byte	0x1983
 5714 1975 0A       		.uleb128 0xa
 5715 1976 AB1E0000 		.4byte	.LASF352
 5716 197a 1C       		.byte	0x1c
 5717 197b 9901     		.2byte	0x199
 5718 197d F5000000 		.4byte	0xf5
 5719 1981 00       		.byte	0
 5720 1982 00       		.byte	0
 5721 1983 1A       		.uleb128 0x1a
 5722 1984 C20D0000 		.4byte	.LASF353
 5723 1988 1C       		.byte	0x1c
 5724 1989 9A01     		.2byte	0x19a
 5725 198b 6C190000 		.4byte	0x196c
 5726 198f 05       		.uleb128 0x5
 5727 1990 83190000 		.4byte	0x1983
 5728 1994 0B       		.uleb128 0xb
 5729 1995 04       		.byte	0x4
 5730 1996 8F190000 		.4byte	0x198f
 5731 199a 0B       		.uleb128 0xb
 5732 199b 04       		.byte	0x4
 5733 199c 67190000 		.4byte	0x1967
 5734 19a0 0B       		.uleb128 0xb
 5735 19a1 04       		.byte	0x4
 5736 19a2 57060000 		.4byte	0x657
 5737 19a6 0B       		.uleb128 0xb
 5738 19a7 04       		.byte	0x4
 5739 19a8 BB130000 		.4byte	0x13bb
 5740 19ac 15       		.uleb128 0x15
 5741 19ad AB140000 		.4byte	.LASF354
 5742 19b1 1C       		.byte	0x1c
 5743 19b2 1402     		.2byte	0x214
 5744 19b4 D1170000 		.4byte	0x17d1
 5745 19b8 15       		.uleb128 0x15
 5746 19b9 B1140000 		.4byte	.LASF355
 5747 19bd 1C       		.byte	0x1c
 5748 19be 1802     		.2byte	0x218
 5749 19c0 D1170000 		.4byte	0x17d1
 5750 19c4 15       		.uleb128 0x15
 5751 19c5 B7140000 		.4byte	.LASF356
 5752 19c9 1C       		.byte	0x1c
ARM GAS  C:\Users\PCHAUT~1\AppData\Local\Temp\ccOhqcVB.s 			page 102


 5753 19ca 1C02     		.2byte	0x21c
 5754 19cc D1170000 		.4byte	0x17d1
 5755 19d0 21       		.uleb128 0x21
 5756 19d1 07       		.byte	0x7
 5757 19d2 01       		.byte	0x1
 5758 19d3 5E000000 		.4byte	0x5e
 5759 19d7 1D       		.byte	0x1d
 5760 19d8 5F       		.byte	0x5f
 5761 19d9 FC190000 		.4byte	0x19fc
 5762 19dd 22       		.uleb128 0x22
 5763 19de 82090000 		.4byte	.LASF357
 5764 19e2 00       		.byte	0
 5765 19e3 22       		.uleb128 0x22
 5766 19e4 F6000000 		.4byte	.LASF358
 5767 19e8 01       		.byte	0x1
 5768 19e9 22       		.uleb128 0x22
 5769 19ea 57000000 		.4byte	.LASF359
 5770 19ee 02       		.byte	0x2
 5771 19ef 22       		.uleb128 0x22
 5772 19f0 D8040000 		.4byte	.LASF360
 5773 19f4 03       		.byte	0x3
 5774 19f5 22       		.uleb128 0x22
 5775 19f6 6F090000 		.4byte	.LASF361
 5776 19fa 04       		.byte	0x4
 5777 19fb 00       		.byte	0
 5778 19fc 03       		.uleb128 0x3
 5779 19fd 07050000 		.4byte	.LASF362
 5780 1a01 1D       		.byte	0x1d
 5781 1a02 65       		.byte	0x65
 5782 1a03 D0190000 		.4byte	0x19d0
 5783 1a07 13       		.uleb128 0x13
 5784 1a08 BF000000 		.4byte	0xbf
 5785 1a0c 171A0000 		.4byte	0x1a17
 5786 1a10 14       		.uleb128 0x14
 5787 1a11 37000000 		.4byte	0x37
 5788 1a15 07       		.byte	0x7
 5789 1a16 00       		.byte	0
 5790 1a17 17       		.uleb128 0x17
 5791 1a18 08       		.byte	0x8
 5792 1a19 1E       		.byte	0x1e
 5793 1a1a F4       		.byte	0xf4
 5794 1a1b 391A0000 		.4byte	0x1a39
 5795 1a1f 18       		.uleb128 0x18
 5796 1a20 6D637200 		.ascii	"mcr\000"
 5797 1a24 1E       		.byte	0x1e
 5798 1a25 FA       		.byte	0xfa
 5799 1a26 F5000000 		.4byte	0xf5
 5800 1a2a 00       		.byte	0
 5801 1a2b 09       		.uleb128 0x9
 5802 1a2c 62747200 		.ascii	"btr\000"
 5803 1a30 1E       		.byte	0x1e
 5804 1a31 0001     		.2byte	0x100
 5805 1a33 F5000000 		.4byte	0xf5
 5806 1a37 04       		.byte	0x4
 5807 1a38 00       		.byte	0
 5808 1a39 1A       		.uleb128 0x1a
 5809 1a3a 45160000 		.4byte	.LASF363
ARM GAS  C:\Users\PCHAUT~1\AppData\Local\Temp\ccOhqcVB.s 			page 103


 5810 1a3e 1E       		.byte	0x1e
 5811 1a3f 0101     		.2byte	0x101
 5812 1a41 171A0000 		.4byte	0x1a17
 5813 1a45 05       		.uleb128 0x5
 5814 1a46 391A0000 		.4byte	0x1a39
 5815 1a4a 19       		.uleb128 0x19
 5816 1a4b 30       		.byte	0x30
 5817 1a4c 1E       		.byte	0x1e
 5818 1a4d 0601     		.2byte	0x106
 5819 1a4f D61A0000 		.4byte	0x1ad6
 5820 1a53 0A       		.uleb128 0xa
 5821 1a54 2C130000 		.4byte	.LASF331
 5822 1a58 1E       		.byte	0x1e
 5823 1a59 0A01     		.2byte	0x10a
 5824 1a5b FC190000 		.4byte	0x19fc
 5825 1a5f 00       		.byte	0
 5826 1a60 0A       		.uleb128 0xa
 5827 1a61 DF170000 		.4byte	.LASF332
 5828 1a65 1E       		.byte	0x1e
 5829 1a66 0E01     		.2byte	0x10e
 5830 1a68 D61A0000 		.4byte	0x1ad6
 5831 1a6c 04       		.byte	0x4
 5832 1a6d 0A       		.uleb128 0xa
 5833 1a6e 25090000 		.4byte	.LASF364
 5834 1a72 1E       		.byte	0x1e
 5835 1a73 1201     		.2byte	0x112
 5836 1a75 07030000 		.4byte	0x307
 5837 1a79 08       		.byte	0x8
 5838 1a7a 0A       		.uleb128 0xa
 5839 1a7b 241A0000 		.4byte	.LASF365
 5840 1a7f 1E       		.byte	0x1e
 5841 1a80 1601     		.2byte	0x116
 5842 1a82 07030000 		.4byte	0x307
 5843 1a86 10       		.byte	0x10
 5844 1a87 0A       		.uleb128 0xa
 5845 1a88 28160000 		.4byte	.LASF366
 5846 1a8c 1E       		.byte	0x1e
 5847 1a8d 2301     		.2byte	0x123
 5848 1a8f 2B120000 		.4byte	0x122b
 5849 1a93 18       		.byte	0x18
 5850 1a94 0A       		.uleb128 0xa
 5851 1a95 C90A0000 		.4byte	.LASF367
 5852 1a99 1E       		.byte	0x1e
 5853 1a9a 2A01     		.2byte	0x12a
 5854 1a9c 2B120000 		.4byte	0x122b
 5855 1aa0 1C       		.byte	0x1c
 5856 1aa1 0A       		.uleb128 0xa
 5857 1aa2 6C0E0000 		.4byte	.LASF368
 5858 1aa6 1E       		.byte	0x1e
 5859 1aa7 3001     		.2byte	0x130
 5860 1aa9 2B120000 		.4byte	0x122b
 5861 1aad 20       		.byte	0x20
 5862 1aae 0A       		.uleb128 0xa
 5863 1aaf 06030000 		.4byte	.LASF369
 5864 1ab3 1E       		.byte	0x1e
 5865 1ab4 3501     		.2byte	0x135
 5866 1ab6 2B120000 		.4byte	0x122b
ARM GAS  C:\Users\PCHAUT~1\AppData\Local\Temp\ccOhqcVB.s 			page 104


 5867 1aba 24       		.byte	0x24
 5868 1abb 0A       		.uleb128 0xa
 5869 1abc E3080000 		.4byte	.LASF370
 5870 1ac0 1E       		.byte	0x1e
 5871 1ac1 3901     		.2byte	0x139
 5872 1ac3 2B120000 		.4byte	0x122b
 5873 1ac7 28       		.byte	0x28
 5874 1ac8 09       		.uleb128 0x9
 5875 1ac9 63616E00 		.ascii	"can\000"
 5876 1acd 1E       		.byte	0x1e
 5877 1ace 3F01     		.2byte	0x13f
 5878 1ad0 DC1A0000 		.4byte	0x1adc
 5879 1ad4 2C       		.byte	0x2c
 5880 1ad5 00       		.byte	0
 5881 1ad6 0B       		.uleb128 0xb
 5882 1ad7 04       		.byte	0x4
 5883 1ad8 451A0000 		.4byte	0x1a45
 5884 1adc 0B       		.uleb128 0xb
 5885 1add 04       		.byte	0x4
 5886 1ade A0080000 		.4byte	0x8a0
 5887 1ae2 1A       		.uleb128 0x1a
 5888 1ae3 54030000 		.4byte	.LASF371
 5889 1ae7 1E       		.byte	0x1e
 5890 1ae8 4001     		.2byte	0x140
 5891 1aea 4A1A0000 		.4byte	0x1a4a
 5892 1aee 15       		.uleb128 0x15
 5893 1aef 6B1B0000 		.4byte	.LASF372
 5894 1af3 1E       		.byte	0x1e
 5895 1af4 4B01     		.2byte	0x14b
 5896 1af6 E21A0000 		.4byte	0x1ae2
 5897 1afa 21       		.uleb128 0x21
 5898 1afb 07       		.byte	0x7
 5899 1afc 01       		.byte	0x1
 5900 1afd 5E000000 		.4byte	0x5e
 5901 1b01 1F       		.byte	0x1f
 5902 1b02 46       		.byte	0x46
 5903 1b03 2C1B0000 		.4byte	0x1b2c
 5904 1b07 22       		.uleb128 0x22
 5905 1b08 FC170000 		.4byte	.LASF373
 5906 1b0c 00       		.byte	0
 5907 1b0d 22       		.uleb128 0x22
 5908 1b0e 7B1C0000 		.4byte	.LASF374
 5909 1b12 01       		.byte	0x1
 5910 1b13 22       		.uleb128 0x22
 5911 1b14 510D0000 		.4byte	.LASF375
 5912 1b18 02       		.byte	0x2
 5913 1b19 22       		.uleb128 0x22
 5914 1b1a 21130000 		.4byte	.LASF376
 5915 1b1e 03       		.byte	0x3
 5916 1b1f 22       		.uleb128 0x22
 5917 1b20 C1170000 		.4byte	.LASF377
 5918 1b24 04       		.byte	0x4
 5919 1b25 22       		.uleb128 0x22
 5920 1b26 F80D0000 		.4byte	.LASF378
 5921 1b2a 05       		.byte	0x5
 5922 1b2b 00       		.byte	0
 5923 1b2c 03       		.uleb128 0x3
ARM GAS  C:\Users\PCHAUT~1\AppData\Local\Temp\ccOhqcVB.s 			page 105


 5924 1b2d C5150000 		.4byte	.LASF379
 5925 1b31 1F       		.byte	0x1f
 5926 1b32 4D       		.byte	0x4d
 5927 1b33 FA1A0000 		.4byte	0x1afa
 5928 1b37 17       		.uleb128 0x17
 5929 1b38 1C       		.byte	0x1c
 5930 1b39 20       		.byte	0x20
 5931 1b3a F9       		.byte	0xf9
 5932 1b3b 9A1B0000 		.4byte	0x1b9a
 5933 1b3f 18       		.uleb128 0x18
 5934 1b40 64616300 		.ascii	"dac\000"
 5935 1b44 20       		.byte	0x20
 5936 1b45 FD       		.byte	0xfd
 5937 1b46 9A1B0000 		.4byte	0x1b9a
 5938 1b4a 00       		.byte	0
 5939 1b4b 0A       		.uleb128 0xa
 5940 1b4c 2E150000 		.4byte	.LASF380
 5941 1b50 20       		.byte	0x20
 5942 1b51 0101     		.2byte	0x101
 5943 1b53 F5000000 		.4byte	0xf5
 5944 1b57 04       		.byte	0x4
 5945 1b58 0A       		.uleb128 0xa
 5946 1b59 EE050000 		.4byte	.LASF381
 5947 1b5d 20       		.byte	0x20
 5948 1b5e 0501     		.2byte	0x105
 5949 1b60 F5000000 		.4byte	0xf5
 5950 1b64 08       		.byte	0x8
 5951 1b65 0A       		.uleb128 0xa
 5952 1b66 C1010000 		.4byte	.LASF382
 5953 1b6a 20       		.byte	0x20
 5954 1b6b 0901     		.2byte	0x109
 5955 1b6d F5000000 		.4byte	0xf5
 5956 1b71 0C       		.byte	0xc
 5957 1b72 09       		.uleb128 0x9
 5958 1b73 646D6100 		.ascii	"dma\000"
 5959 1b77 20       		.byte	0x20
 5960 1b78 0D01     		.2byte	0x10d
 5961 1b7a A6190000 		.4byte	0x19a6
 5962 1b7e 10       		.byte	0x10
 5963 1b7f 0A       		.uleb128 0xa
 5964 1b80 C2140000 		.4byte	.LASF339
 5965 1b84 20       		.byte	0x20
 5966 1b85 1101     		.2byte	0x111
 5967 1b87 F5000000 		.4byte	0xf5
 5968 1b8b 14       		.byte	0x14
 5969 1b8c 0A       		.uleb128 0xa
 5970 1b8d 79140000 		.4byte	.LASF383
 5971 1b91 20       		.byte	0x20
 5972 1b92 1501     		.2byte	0x115
 5973 1b94 F5000000 		.4byte	0xf5
 5974 1b98 18       		.byte	0x18
 5975 1b99 00       		.byte	0
 5976 1b9a 0B       		.uleb128 0xb
 5977 1b9b 04       		.byte	0x4
 5978 1b9c 6A090000 		.4byte	0x96a
 5979 1ba0 1A       		.uleb128 0x1a
 5980 1ba1 B9020000 		.4byte	.LASF384
ARM GAS  C:\Users\PCHAUT~1\AppData\Local\Temp\ccOhqcVB.s 			page 106


 5981 1ba5 20       		.byte	0x20
 5982 1ba6 1601     		.2byte	0x116
 5983 1ba8 371B0000 		.4byte	0x1b37
 5984 1bac 05       		.uleb128 0x5
 5985 1bad A01B0000 		.4byte	0x1ba0
 5986 1bb1 1A       		.uleb128 0x1a
 5987 1bb2 CA0B0000 		.4byte	.LASF385
 5988 1bb6 20       		.byte	0x20
 5989 1bb7 1B01     		.2byte	0x11b
 5990 1bb9 BD1B0000 		.4byte	0x1bbd
 5991 1bbd 0C       		.uleb128 0xc
 5992 1bbe CA0B0000 		.4byte	.LASF385
 5993 1bc2 30       		.byte	0x30
 5994 1bc3 20       		.byte	0x20
 5995 1bc4 7B01     		.2byte	0x17b
 5996 1bc6 331C0000 		.4byte	0x1c33
 5997 1bca 0A       		.uleb128 0xa
 5998 1bcb 2C130000 		.4byte	.LASF331
 5999 1bcf 20       		.byte	0x20
 6000 1bd0 7F01     		.2byte	0x17f
 6001 1bd2 2C1B0000 		.4byte	0x1b2c
 6002 1bd6 00       		.byte	0
 6003 1bd7 0A       		.uleb128 0xa
 6004 1bd8 501A0000 		.4byte	.LASF335
 6005 1bdc 20       		.byte	0x20
 6006 1bdd 8301     		.2byte	0x183
 6007 1bdf 711D0000 		.4byte	0x1d71
 6008 1be3 04       		.byte	0x4
 6009 1be4 0A       		.uleb128 0xa
 6010 1be5 AE010000 		.4byte	.LASF333
 6011 1be9 20       		.byte	0x20
 6012 1bea 8701     		.2byte	0x187
 6013 1bec 981C0000 		.4byte	0x1c98
 6014 1bf0 08       		.byte	0x8
 6015 1bf1 0A       		.uleb128 0xa
 6016 1bf2 85150000 		.4byte	.LASF334
 6017 1bf6 20       		.byte	0x20
 6018 1bf7 8B01     		.2byte	0x18b
 6019 1bf9 DA000000 		.4byte	0xda
 6020 1bfd 0C       		.byte	0xc
 6021 1bfe 0A       		.uleb128 0xa
 6022 1bff DF170000 		.4byte	.LASF332
 6023 1c03 20       		.byte	0x20
 6024 1c04 8F01     		.2byte	0x18f
 6025 1c06 771D0000 		.4byte	0x1d77
 6026 1c0a 10       		.byte	0x10
 6027 1c0b 0A       		.uleb128 0xa
 6028 1c0c E7050000 		.4byte	.LASF336
 6029 1c10 20       		.byte	0x20
 6030 1c11 9401     		.2byte	0x194
 6031 1c13 D2020000 		.4byte	0x2d2
 6032 1c17 14       		.byte	0x14
 6033 1c18 0A       		.uleb128 0xa
 6034 1c19 BF0B0000 		.4byte	.LASF337
 6035 1c1d 20       		.byte	0x20
 6036 1c1e 9A01     		.2byte	0x19a
 6037 1c20 A7110000 		.4byte	0x11a7
ARM GAS  C:\Users\PCHAUT~1\AppData\Local\Temp\ccOhqcVB.s 			page 107


 6038 1c24 18       		.byte	0x18
 6039 1c25 0A       		.uleb128 0xa
 6040 1c26 D00E0000 		.4byte	.LASF386
 6041 1c2a 20       		.byte	0x20
 6042 1c2b A301     		.2byte	0x1a3
 6043 1c2d 7D1D0000 		.4byte	0x1d7d
 6044 1c31 2C       		.byte	0x2c
 6045 1c32 00       		.byte	0
 6046 1c33 1A       		.uleb128 0x1a
 6047 1c34 F1150000 		.4byte	.LASF387
 6048 1c38 20       		.byte	0x20
 6049 1c39 2001     		.2byte	0x120
 6050 1c3b DA000000 		.4byte	0xda
 6051 1c3f 05       		.uleb128 0x5
 6052 1c40 331C0000 		.4byte	0x1c33
 6053 1c44 24       		.uleb128 0x24
 6054 1c45 07       		.byte	0x7
 6055 1c46 01       		.byte	0x1
 6056 1c47 5E000000 		.4byte	0x5e
 6057 1c4b 20       		.byte	0x20
 6058 1c4c 2701     		.2byte	0x127
 6059 1c4e 5F1C0000 		.4byte	0x1c5f
 6060 1c52 22       		.uleb128 0x22
 6061 1c53 79160000 		.4byte	.LASF388
 6062 1c57 00       		.byte	0
 6063 1c58 22       		.uleb128 0x22
 6064 1c59 D1080000 		.4byte	.LASF389
 6065 1c5d 01       		.byte	0x1
 6066 1c5e 00       		.byte	0
 6067 1c5f 1A       		.uleb128 0x1a
 6068 1c60 1B0F0000 		.4byte	.LASF390
 6069 1c64 20       		.byte	0x20
 6070 1c65 2A01     		.2byte	0x12a
 6071 1c67 441C0000 		.4byte	0x1c44
 6072 1c6b 1A       		.uleb128 0x1a
 6073 1c6c 46060000 		.4byte	.LASF391
 6074 1c70 20       		.byte	0x20
 6075 1c71 3401     		.2byte	0x134
 6076 1c73 771C0000 		.4byte	0x1c77
 6077 1c77 0B       		.uleb128 0xb
 6078 1c78 04       		.byte	0x4
 6079 1c79 7D1C0000 		.4byte	0x1c7d
 6080 1c7d 0D       		.uleb128 0xd
 6081 1c7e 921C0000 		.4byte	0x1c92
 6082 1c82 0E       		.uleb128 0xe
 6083 1c83 921C0000 		.4byte	0x1c92
 6084 1c87 0E       		.uleb128 0xe
 6085 1c88 981C0000 		.4byte	0x1c98
 6086 1c8c 0E       		.uleb128 0xe
 6087 1c8d 2C000000 		.4byte	0x2c
 6088 1c91 00       		.byte	0
 6089 1c92 0B       		.uleb128 0xb
 6090 1c93 04       		.byte	0x4
 6091 1c94 B11B0000 		.4byte	0x1bb1
 6092 1c98 0B       		.uleb128 0xb
 6093 1c99 04       		.byte	0x4
 6094 1c9a 3F1C0000 		.4byte	0x1c3f
ARM GAS  C:\Users\PCHAUT~1\AppData\Local\Temp\ccOhqcVB.s 			page 108


 6095 1c9e 1A       		.uleb128 0x1a
 6096 1c9f 9F1B0000 		.4byte	.LASF392
 6097 1ca3 20       		.byte	0x20
 6098 1ca4 3F01     		.2byte	0x13f
 6099 1ca6 AA1C0000 		.4byte	0x1caa
 6100 1caa 0B       		.uleb128 0xb
 6101 1cab 04       		.byte	0x4
 6102 1cac B01C0000 		.4byte	0x1cb0
 6103 1cb0 0D       		.uleb128 0xd
 6104 1cb1 C01C0000 		.4byte	0x1cc0
 6105 1cb5 0E       		.uleb128 0xe
 6106 1cb6 921C0000 		.4byte	0x1c92
 6107 1cba 0E       		.uleb128 0xe
 6108 1cbb 5F1C0000 		.4byte	0x1c5f
 6109 1cbf 00       		.byte	0
 6110 1cc0 24       		.uleb128 0x24
 6111 1cc1 07       		.byte	0x7
 6112 1cc2 01       		.byte	0x1
 6113 1cc3 5E000000 		.4byte	0x5e
 6114 1cc7 20       		.byte	0x20
 6115 1cc8 4401     		.2byte	0x144
 6116 1cca E11C0000 		.4byte	0x1ce1
 6117 1cce 22       		.uleb128 0x22
 6118 1ccf 4E180000 		.4byte	.LASF393
 6119 1cd3 00       		.byte	0
 6120 1cd4 22       		.uleb128 0x22
 6121 1cd5 83100000 		.4byte	.LASF394
 6122 1cd9 01       		.byte	0x1
 6123 1cda 22       		.uleb128 0x22
 6124 1cdb 9A130000 		.4byte	.LASF395
 6125 1cdf 02       		.byte	0x2
 6126 1ce0 00       		.byte	0
 6127 1ce1 1A       		.uleb128 0x1a
 6128 1ce2 EB090000 		.4byte	.LASF396
 6129 1ce6 20       		.byte	0x20
 6130 1ce7 4D01     		.2byte	0x14d
 6131 1ce9 C01C0000 		.4byte	0x1cc0
 6132 1ced 19       		.uleb128 0x19
 6133 1cee 10       		.byte	0x10
 6134 1cef 20       		.byte	0x20
 6135 1cf0 5201     		.2byte	0x152
 6136 1cf2 2B1D0000 		.4byte	0x1d2b
 6137 1cf6 0A       		.uleb128 0xa
 6138 1cf7 780E0000 		.4byte	.LASF343
 6139 1cfb 20       		.byte	0x20
 6140 1cfc 5601     		.2byte	0x156
 6141 1cfe F5000000 		.4byte	0xf5
 6142 1d02 00       		.byte	0
 6143 1d03 0A       		.uleb128 0xa
 6144 1d04 F8080000 		.4byte	.LASF344
 6145 1d08 20       		.byte	0x20
 6146 1d09 5A01     		.2byte	0x15a
 6147 1d0b 6B1C0000 		.4byte	0x1c6b
 6148 1d0f 04       		.byte	0x4
 6149 1d10 0A       		.uleb128 0xa
 6150 1d11 C31D0000 		.4byte	.LASF345
 6151 1d15 20       		.byte	0x20
ARM GAS  C:\Users\PCHAUT~1\AppData\Local\Temp\ccOhqcVB.s 			page 109


 6152 1d16 5E01     		.2byte	0x15e
 6153 1d18 9E1C0000 		.4byte	0x1c9e
 6154 1d1c 08       		.byte	0x8
 6155 1d1d 0A       		.uleb128 0xa
 6156 1d1e E9110000 		.4byte	.LASF397
 6157 1d22 20       		.byte	0x20
 6158 1d23 6601     		.2byte	0x166
 6159 1d25 F5000000 		.4byte	0xf5
 6160 1d29 0C       		.byte	0xc
 6161 1d2a 00       		.byte	0
 6162 1d2b 1A       		.uleb128 0x1a
 6163 1d2c D60F0000 		.4byte	.LASF398
 6164 1d30 20       		.byte	0x20
 6165 1d31 6701     		.2byte	0x167
 6166 1d33 ED1C0000 		.4byte	0x1ced
 6167 1d37 05       		.uleb128 0x5
 6168 1d38 2B1D0000 		.4byte	0x1d2b
 6169 1d3c 19       		.uleb128 0x19
 6170 1d3d 04       		.byte	0x4
 6171 1d3e 20       		.byte	0x20
 6172 1d3f 6C01     		.2byte	0x16c
 6173 1d41 601D0000 		.4byte	0x1d60
 6174 1d45 0A       		.uleb128 0xa
 6175 1d46 3F0A0000 		.4byte	.LASF399
 6176 1d4a 20       		.byte	0x20
 6177 1d4b 7101     		.2byte	0x171
 6178 1d4d 331C0000 		.4byte	0x1c33
 6179 1d51 00       		.byte	0
 6180 1d52 0A       		.uleb128 0xa
 6181 1d53 2E010000 		.4byte	.LASF400
 6182 1d57 20       		.byte	0x20
 6183 1d58 7501     		.2byte	0x175
 6184 1d5a E11C0000 		.4byte	0x1ce1
 6185 1d5e 02       		.byte	0x2
 6186 1d5f 00       		.byte	0
 6187 1d60 1A       		.uleb128 0x1a
 6188 1d61 D40B0000 		.4byte	.LASF401
 6189 1d65 20       		.byte	0x20
 6190 1d66 7601     		.2byte	0x176
 6191 1d68 3C1D0000 		.4byte	0x1d3c
 6192 1d6c 05       		.uleb128 0x5
 6193 1d6d 601D0000 		.4byte	0x1d60
 6194 1d71 0B       		.uleb128 0xb
 6195 1d72 04       		.byte	0x4
 6196 1d73 371D0000 		.4byte	0x1d37
 6197 1d77 0B       		.uleb128 0xb
 6198 1d78 04       		.byte	0x4
 6199 1d79 6C1D0000 		.4byte	0x1d6c
 6200 1d7d 0B       		.uleb128 0xb
 6201 1d7e 04       		.byte	0x4
 6202 1d7f AC1B0000 		.4byte	0x1bac
 6203 1d83 15       		.uleb128 0x15
 6204 1d84 4E030000 		.4byte	.LASF402
 6205 1d88 20       		.byte	0x20
 6206 1d89 B301     		.2byte	0x1b3
 6207 1d8b B11B0000 		.4byte	0x1bb1
 6208 1d8f 21       		.uleb128 0x21
ARM GAS  C:\Users\PCHAUT~1\AppData\Local\Temp\ccOhqcVB.s 			page 110


 6209 1d90 07       		.byte	0x7
 6210 1d91 01       		.byte	0x1
 6211 1d92 5E000000 		.4byte	0x5e
 6212 1d96 21       		.byte	0x21
 6213 1d97 3F       		.byte	0x3f
 6214 1d98 AF1D0000 		.4byte	0x1daf
 6215 1d9c 22       		.uleb128 0x22
 6216 1d9d 64090000 		.4byte	.LASF403
 6217 1da1 00       		.byte	0
 6218 1da2 22       		.uleb128 0x22
 6219 1da3 4E1F0000 		.4byte	.LASF404
 6220 1da7 01       		.byte	0x1
 6221 1da8 22       		.uleb128 0x22
 6222 1da9 F5010000 		.4byte	.LASF405
 6223 1dad 02       		.byte	0x2
 6224 1dae 00       		.byte	0
 6225 1daf 03       		.uleb128 0x3
 6226 1db0 57170000 		.4byte	.LASF406
 6227 1db4 21       		.byte	0x21
 6228 1db5 43       		.byte	0x43
 6229 1db6 8F1D0000 		.4byte	0x1d8f
 6230 1dba 03       		.uleb128 0x3
 6231 1dbb 36070000 		.4byte	.LASF407
 6232 1dbf 21       		.byte	0x21
 6233 1dc0 48       		.byte	0x48
 6234 1dc1 C51D0000 		.4byte	0x1dc5
 6235 1dc5 07       		.uleb128 0x7
 6236 1dc6 36070000 		.4byte	.LASF407
 6237 1dca 08       		.byte	0x8
 6238 1dcb 22       		.byte	0x22
 6239 1dcc 71       		.byte	0x71
 6240 1dcd EA1D0000 		.4byte	0x1dea
 6241 1dd1 08       		.uleb128 0x8
 6242 1dd2 2C130000 		.4byte	.LASF331
 6243 1dd6 22       		.byte	0x22
 6244 1dd7 75       		.byte	0x75
 6245 1dd8 AF1D0000 		.4byte	0x1daf
 6246 1ddc 00       		.byte	0
 6247 1ddd 08       		.uleb128 0x8
 6248 1dde DF170000 		.4byte	.LASF332
 6249 1de2 22       		.byte	0x22
 6250 1de3 79       		.byte	0x79
 6251 1de4 7C1E0000 		.4byte	0x1e7c
 6252 1de8 04       		.byte	0x4
 6253 1de9 00       		.byte	0
 6254 1dea 03       		.uleb128 0x3
 6255 1deb F81D0000 		.4byte	.LASF408
 6256 1def 22       		.byte	0x22
 6257 1df0 47       		.byte	0x47
 6258 1df1 F5000000 		.4byte	0xf5
 6259 1df5 03       		.uleb128 0x3
 6260 1df6 161A0000 		.4byte	.LASF409
 6261 1dfa 22       		.byte	0x22
 6262 1dfb 4F       		.byte	0x4f
 6263 1dfc 001E0000 		.4byte	0x1e00
 6264 1e00 0B       		.uleb128 0xb
 6265 1e01 04       		.byte	0x4
ARM GAS  C:\Users\PCHAUT~1\AppData\Local\Temp\ccOhqcVB.s 			page 111


 6266 1e02 061E0000 		.4byte	0x1e06
 6267 1e06 0D       		.uleb128 0xd
 6268 1e07 161E0000 		.4byte	0x1e16
 6269 1e0b 0E       		.uleb128 0xe
 6270 1e0c 161E0000 		.4byte	0x1e16
 6271 1e10 0E       		.uleb128 0xe
 6272 1e11 EA1D0000 		.4byte	0x1dea
 6273 1e15 00       		.byte	0
 6274 1e16 0B       		.uleb128 0xb
 6275 1e17 04       		.byte	0x4
 6276 1e18 BA1D0000 		.4byte	0x1dba
 6277 1e1c 17       		.uleb128 0x17
 6278 1e1d 08       		.byte	0x8
 6279 1e1e 22       		.byte	0x22
 6280 1e1f 54       		.byte	0x54
 6281 1e20 3C1E0000 		.4byte	0x1e3c
 6282 1e24 08       		.uleb128 0x8
 6283 1e25 2B070000 		.4byte	.LASF410
 6284 1e29 22       		.byte	0x22
 6285 1e2a 58       		.byte	0x58
 6286 1e2b F5000000 		.4byte	0xf5
 6287 1e2f 00       		.byte	0
 6288 1e30 18       		.uleb128 0x18
 6289 1e31 636200   		.ascii	"cb\000"
 6290 1e34 22       		.byte	0x22
 6291 1e35 5F       		.byte	0x5f
 6292 1e36 F51D0000 		.4byte	0x1df5
 6293 1e3a 04       		.byte	0x4
 6294 1e3b 00       		.byte	0
 6295 1e3c 03       		.uleb128 0x3
 6296 1e3d 380D0000 		.4byte	.LASF411
 6297 1e41 22       		.byte	0x22
 6298 1e42 60       		.byte	0x60
 6299 1e43 1C1E0000 		.4byte	0x1e1c
 6300 1e47 17       		.uleb128 0x17
 6301 1e48 B8       		.byte	0xb8
 6302 1e49 22       		.byte	0x22
 6303 1e4a 66       		.byte	0x66
 6304 1e4b 5C1E0000 		.4byte	0x1e5c
 6305 1e4f 08       		.uleb128 0x8
 6306 1e50 CD1B0000 		.4byte	.LASF412
 6307 1e54 22       		.byte	0x22
 6308 1e55 6A       		.byte	0x6a
 6309 1e56 5C1E0000 		.4byte	0x1e5c
 6310 1e5a 00       		.byte	0
 6311 1e5b 00       		.byte	0
 6312 1e5c 13       		.uleb128 0x13
 6313 1e5d 3C1E0000 		.4byte	0x1e3c
 6314 1e61 6C1E0000 		.4byte	0x1e6c
 6315 1e65 14       		.uleb128 0x14
 6316 1e66 37000000 		.4byte	0x37
 6317 1e6a 16       		.byte	0x16
 6318 1e6b 00       		.byte	0
 6319 1e6c 03       		.uleb128 0x3
 6320 1e6d 18190000 		.4byte	.LASF413
 6321 1e71 22       		.byte	0x22
 6322 1e72 6C       		.byte	0x6c
ARM GAS  C:\Users\PCHAUT~1\AppData\Local\Temp\ccOhqcVB.s 			page 112


 6323 1e73 471E0000 		.4byte	0x1e47
 6324 1e77 05       		.uleb128 0x5
 6325 1e78 6C1E0000 		.4byte	0x1e6c
 6326 1e7c 0B       		.uleb128 0xb
 6327 1e7d 04       		.byte	0x4
 6328 1e7e 771E0000 		.4byte	0x1e77
 6329 1e82 16       		.uleb128 0x16
 6330 1e83 F8040000 		.4byte	.LASF414
 6331 1e87 22       		.byte	0x22
 6332 1e88 86       		.byte	0x86
 6333 1e89 BA1D0000 		.4byte	0x1dba
 6334 1e8d 21       		.uleb128 0x21
 6335 1e8e 07       		.byte	0x7
 6336 1e8f 01       		.byte	0x1
 6337 1e90 5E000000 		.4byte	0x5e
 6338 1e94 23       		.byte	0x23
 6339 1e95 31       		.byte	0x31
 6340 1e96 B91E0000 		.4byte	0x1eb9
 6341 1e9a 22       		.uleb128 0x22
 6342 1e9b AE130000 		.4byte	.LASF415
 6343 1e9f 00       		.byte	0
 6344 1ea0 22       		.uleb128 0x22
 6345 1ea1 0B120000 		.4byte	.LASF416
 6346 1ea5 01       		.byte	0x1
 6347 1ea6 22       		.uleb128 0x22
 6348 1ea7 BB150000 		.4byte	.LASF417
 6349 1eab 02       		.byte	0x2
 6350 1eac 22       		.uleb128 0x22
 6351 1ead 8C060000 		.4byte	.LASF418
 6352 1eb1 03       		.byte	0x3
 6353 1eb2 22       		.uleb128 0x22
 6354 1eb3 B3030000 		.4byte	.LASF419
 6355 1eb7 04       		.byte	0x4
 6356 1eb8 00       		.byte	0
 6357 1eb9 03       		.uleb128 0x3
 6358 1eba 08110000 		.4byte	.LASF420
 6359 1ebe 23       		.byte	0x23
 6360 1ebf 37       		.byte	0x37
 6361 1ec0 8D1E0000 		.4byte	0x1e8d
 6362 1ec4 03       		.uleb128 0x3
 6363 1ec5 84140000 		.4byte	.LASF421
 6364 1ec9 23       		.byte	0x23
 6365 1eca 3C       		.byte	0x3c
 6366 1ecb CF1E0000 		.4byte	0x1ecf
 6367 1ecf 0C       		.uleb128 0xc
 6368 1ed0 84140000 		.4byte	.LASF421
 6369 1ed4 10       		.byte	0x10
 6370 1ed5 24       		.byte	0x24
 6371 1ed6 9701     		.2byte	0x197
 6372 1ed8 111F0000 		.4byte	0x1f11
 6373 1edc 0A       		.uleb128 0xa
 6374 1edd 2C130000 		.4byte	.LASF331
 6375 1ee1 24       		.byte	0x24
 6376 1ee2 9B01     		.2byte	0x19b
 6377 1ee4 B91E0000 		.4byte	0x1eb9
 6378 1ee8 00       		.byte	0
 6379 1ee9 0A       		.uleb128 0xa
ARM GAS  C:\Users\PCHAUT~1\AppData\Local\Temp\ccOhqcVB.s 			page 113


 6380 1eea DF170000 		.4byte	.LASF332
 6381 1eee 24       		.byte	0x24
 6382 1eef 9F01     		.2byte	0x19f
 6383 1ef1 A6200000 		.4byte	0x20a6
 6384 1ef5 04       		.byte	0x4
 6385 1ef6 0A       		.uleb128 0xa
 6386 1ef7 E80B0000 		.4byte	.LASF422
 6387 1efb 24       		.byte	0x24
 6388 1efc A701     		.2byte	0x1a7
 6389 1efe F5000000 		.4byte	0xf5
 6390 1f02 08       		.byte	0x8
 6391 1f03 09       		.uleb128 0x9
 6392 1f04 74696D00 		.ascii	"tim\000"
 6393 1f08 24       		.byte	0x24
 6394 1f09 AB01     		.2byte	0x1ab
 6395 1f0b AC200000 		.4byte	0x20ac
 6396 1f0f 0C       		.byte	0xc
 6397 1f10 00       		.byte	0
 6398 1f11 03       		.uleb128 0x3
 6399 1f12 3D0F0000 		.4byte	.LASF423
 6400 1f16 23       		.byte	0x23
 6401 1f17 43       		.byte	0x43
 6402 1f18 1C1F0000 		.4byte	0x1f1c
 6403 1f1c 0B       		.uleb128 0xb
 6404 1f1d 04       		.byte	0x4
 6405 1f1e 221F0000 		.4byte	0x1f22
 6406 1f22 0D       		.uleb128 0xd
 6407 1f23 2D1F0000 		.4byte	0x1f2d
 6408 1f27 0E       		.uleb128 0xe
 6409 1f28 2D1F0000 		.4byte	0x1f2d
 6410 1f2c 00       		.byte	0
 6411 1f2d 0B       		.uleb128 0xb
 6412 1f2e 04       		.byte	0x4
 6413 1f2f C41E0000 		.4byte	0x1ec4
 6414 1f33 19       		.uleb128 0x19
 6415 1f34 60       		.byte	0x60
 6416 1f35 25       		.byte	0x25
 6417 1f36 9E01     		.2byte	0x19e
 6418 1f38 3F200000 		.4byte	0x203f
 6419 1f3c 09       		.uleb128 0x9
 6420 1f3d 43523100 		.ascii	"CR1\000"
 6421 1f41 25       		.byte	0x25
 6422 1f42 9F01     		.2byte	0x19f
 6423 1f44 00010000 		.4byte	0x100
 6424 1f48 00       		.byte	0
 6425 1f49 09       		.uleb128 0x9
 6426 1f4a 43523200 		.ascii	"CR2\000"
 6427 1f4e 25       		.byte	0x25
 6428 1f4f A001     		.2byte	0x1a0
 6429 1f51 00010000 		.4byte	0x100
 6430 1f55 04       		.byte	0x4
 6431 1f56 0A       		.uleb128 0xa
 6432 1f57 1E1B0000 		.4byte	.LASF424
 6433 1f5b 25       		.byte	0x25
 6434 1f5c A101     		.2byte	0x1a1
 6435 1f5e 00010000 		.4byte	0x100
 6436 1f62 08       		.byte	0x8
ARM GAS  C:\Users\PCHAUT~1\AppData\Local\Temp\ccOhqcVB.s 			page 114


 6437 1f63 0A       		.uleb128 0xa
 6438 1f64 B0090000 		.4byte	.LASF425
 6439 1f68 25       		.byte	0x25
 6440 1f69 A201     		.2byte	0x1a2
 6441 1f6b 00010000 		.4byte	0x100
 6442 1f6f 0C       		.byte	0xc
 6443 1f70 09       		.uleb128 0x9
 6444 1f71 535200   		.ascii	"SR\000"
 6445 1f74 25       		.byte	0x25
 6446 1f75 A301     		.2byte	0x1a3
 6447 1f77 00010000 		.4byte	0x100
 6448 1f7b 10       		.byte	0x10
 6449 1f7c 09       		.uleb128 0x9
 6450 1f7d 45475200 		.ascii	"EGR\000"
 6451 1f81 25       		.byte	0x25
 6452 1f82 A401     		.2byte	0x1a4
 6453 1f84 00010000 		.4byte	0x100
 6454 1f88 14       		.byte	0x14
 6455 1f89 0A       		.uleb128 0xa
 6456 1f8a 6B1E0000 		.4byte	.LASF426
 6457 1f8e 25       		.byte	0x25
 6458 1f8f A501     		.2byte	0x1a5
 6459 1f91 00010000 		.4byte	0x100
 6460 1f95 18       		.byte	0x18
 6461 1f96 0A       		.uleb128 0xa
 6462 1f97 711E0000 		.4byte	.LASF427
 6463 1f9b 25       		.byte	0x25
 6464 1f9c A601     		.2byte	0x1a6
 6465 1f9e 00010000 		.4byte	0x100
 6466 1fa2 1C       		.byte	0x1c
 6467 1fa3 0A       		.uleb128 0xa
 6468 1fa4 23060000 		.4byte	.LASF428
 6469 1fa8 25       		.byte	0x25
 6470 1fa9 A701     		.2byte	0x1a7
 6471 1fab 00010000 		.4byte	0x100
 6472 1faf 20       		.byte	0x20
 6473 1fb0 09       		.uleb128 0x9
 6474 1fb1 434E5400 		.ascii	"CNT\000"
 6475 1fb5 25       		.byte	0x25
 6476 1fb6 A801     		.2byte	0x1a8
 6477 1fb8 00010000 		.4byte	0x100
 6478 1fbc 24       		.byte	0x24
 6479 1fbd 09       		.uleb128 0x9
 6480 1fbe 50534300 		.ascii	"PSC\000"
 6481 1fc2 25       		.byte	0x25
 6482 1fc3 A901     		.2byte	0x1a9
 6483 1fc5 00010000 		.4byte	0x100
 6484 1fc9 28       		.byte	0x28
 6485 1fca 09       		.uleb128 0x9
 6486 1fcb 41525200 		.ascii	"ARR\000"
 6487 1fcf 25       		.byte	0x25
 6488 1fd0 AA01     		.2byte	0x1aa
 6489 1fd2 00010000 		.4byte	0x100
 6490 1fd6 2C       		.byte	0x2c
 6491 1fd7 09       		.uleb128 0x9
 6492 1fd8 52435200 		.ascii	"RCR\000"
 6493 1fdc 25       		.byte	0x25
ARM GAS  C:\Users\PCHAUT~1\AppData\Local\Temp\ccOhqcVB.s 			page 115


 6494 1fdd AB01     		.2byte	0x1ab
 6495 1fdf 00010000 		.4byte	0x100
 6496 1fe3 30       		.byte	0x30
 6497 1fe4 09       		.uleb128 0x9
 6498 1fe5 43435200 		.ascii	"CCR\000"
 6499 1fe9 25       		.byte	0x25
 6500 1fea AC01     		.2byte	0x1ac
 6501 1fec FE090000 		.4byte	0x9fe
 6502 1ff0 34       		.byte	0x34
 6503 1ff1 0A       		.uleb128 0xa
 6504 1ff2 BC010000 		.4byte	.LASF429
 6505 1ff6 25       		.byte	0x25
 6506 1ff7 AD01     		.2byte	0x1ad
 6507 1ff9 00010000 		.4byte	0x100
 6508 1ffd 44       		.byte	0x44
 6509 1ffe 09       		.uleb128 0x9
 6510 1fff 44435200 		.ascii	"DCR\000"
 6511 2003 25       		.byte	0x25
 6512 2004 AE01     		.2byte	0x1ae
 6513 2006 00010000 		.4byte	0x100
 6514 200a 48       		.byte	0x48
 6515 200b 0A       		.uleb128 0xa
 6516 200c 6F130000 		.4byte	.LASF430
 6517 2010 25       		.byte	0x25
 6518 2011 AF01     		.2byte	0x1af
 6519 2013 00010000 		.4byte	0x100
 6520 2017 4C       		.byte	0x4c
 6521 2018 09       		.uleb128 0x9
 6522 2019 4F5200   		.ascii	"OR\000"
 6523 201c 25       		.byte	0x25
 6524 201d B001     		.2byte	0x1b0
 6525 201f 00010000 		.4byte	0x100
 6526 2023 50       		.byte	0x50
 6527 2024 0A       		.uleb128 0xa
 6528 2025 771E0000 		.4byte	.LASF431
 6529 2029 25       		.byte	0x25
 6530 202a B101     		.2byte	0x1b1
 6531 202c 00010000 		.4byte	0x100
 6532 2030 54       		.byte	0x54
 6533 2031 0A       		.uleb128 0xa
 6534 2032 F40B0000 		.4byte	.LASF432
 6535 2036 25       		.byte	0x25
 6536 2037 B201     		.2byte	0x1b2
 6537 2039 E9090000 		.4byte	0x9e9
 6538 203d 58       		.byte	0x58
 6539 203e 00       		.byte	0
 6540 203f 1A       		.uleb128 0x1a
 6541 2040 701A0000 		.4byte	.LASF433
 6542 2044 25       		.byte	0x25
 6543 2045 B301     		.2byte	0x1b3
 6544 2047 331F0000 		.4byte	0x1f33
 6545 204b 1A       		.uleb128 0x1a
 6546 204c 6B070000 		.4byte	.LASF434
 6547 2050 24       		.byte	0x24
 6548 2051 6D01     		.2byte	0x16d
 6549 2053 F5000000 		.4byte	0xf5
 6550 2057 19       		.uleb128 0x19
ARM GAS  C:\Users\PCHAUT~1\AppData\Local\Temp\ccOhqcVB.s 			page 116


 6551 2058 10       		.byte	0x10
 6552 2059 24       		.byte	0x24
 6553 205a 7801     		.2byte	0x178
 6554 205c 95200000 		.4byte	0x2095
 6555 2060 0A       		.uleb128 0xa
 6556 2061 0F1E0000 		.4byte	.LASF435
 6557 2065 24       		.byte	0x24
 6558 2066 7E01     		.2byte	0x17e
 6559 2068 4B200000 		.4byte	0x204b
 6560 206c 00       		.byte	0
 6561 206d 0A       		.uleb128 0xa
 6562 206e 74130000 		.4byte	.LASF436
 6563 2072 24       		.byte	0x24
 6564 2073 8501     		.2byte	0x185
 6565 2075 111F0000 		.4byte	0x1f11
 6566 2079 04       		.byte	0x4
 6567 207a 09       		.uleb128 0x9
 6568 207b 63723200 		.ascii	"cr2\000"
 6569 207f 24       		.byte	0x24
 6570 2080 8B01     		.2byte	0x18b
 6571 2082 F5000000 		.4byte	0xf5
 6572 2086 08       		.byte	0x8
 6573 2087 0A       		.uleb128 0xa
 6574 2088 610B0000 		.4byte	.LASF437
 6575 208c 24       		.byte	0x24
 6576 208d 9101     		.2byte	0x191
 6577 208f F5000000 		.4byte	0xf5
 6578 2093 0C       		.byte	0xc
 6579 2094 00       		.byte	0
 6580 2095 1A       		.uleb128 0x1a
 6581 2096 80050000 		.4byte	.LASF438
 6582 209a 24       		.byte	0x24
 6583 209b 9201     		.2byte	0x192
 6584 209d 57200000 		.4byte	0x2057
 6585 20a1 05       		.uleb128 0x5
 6586 20a2 95200000 		.4byte	0x2095
 6587 20a6 0B       		.uleb128 0xb
 6588 20a7 04       		.byte	0x4
 6589 20a8 A1200000 		.4byte	0x20a1
 6590 20ac 0B       		.uleb128 0xb
 6591 20ad 04       		.byte	0x4
 6592 20ae 3F200000 		.4byte	0x203f
 6593 20b2 15       		.uleb128 0x15
 6594 20b3 BD1D0000 		.4byte	.LASF439
 6595 20b7 24       		.byte	0x24
 6596 20b8 F201     		.2byte	0x1f2
 6597 20ba C41E0000 		.4byte	0x1ec4
 6598 20be 15       		.uleb128 0x15
 6599 20bf E6170000 		.4byte	.LASF440
 6600 20c3 24       		.byte	0x24
 6601 20c4 0202     		.2byte	0x202
 6602 20c6 C41E0000 		.4byte	0x1ec4
 6603 20ca 21       		.uleb128 0x21
 6604 20cb 07       		.byte	0x7
 6605 20cc 01       		.byte	0x1
 6606 20cd 5E000000 		.4byte	0x5e
 6607 20d1 26       		.byte	0x26
ARM GAS  C:\Users\PCHAUT~1\AppData\Local\Temp\ccOhqcVB.s 			page 117


 6608 20d2 4C       		.byte	0x4c
 6609 20d3 FC200000 		.4byte	0x20fc
 6610 20d7 22       		.uleb128 0x22
 6611 20d8 58050000 		.4byte	.LASF441
 6612 20dc 00       		.byte	0
 6613 20dd 22       		.uleb128 0x22
 6614 20de 070D0000 		.4byte	.LASF442
 6615 20e2 01       		.byte	0x1
 6616 20e3 22       		.uleb128 0x22
 6617 20e4 B1050000 		.4byte	.LASF443
 6618 20e8 02       		.byte	0x2
 6619 20e9 22       		.uleb128 0x22
 6620 20ea D9030000 		.4byte	.LASF444
 6621 20ee 03       		.byte	0x3
 6622 20ef 22       		.uleb128 0x22
 6623 20f0 DA020000 		.4byte	.LASF445
 6624 20f4 04       		.byte	0x4
 6625 20f5 22       		.uleb128 0x22
 6626 20f6 9E100000 		.4byte	.LASF446
 6627 20fa 05       		.byte	0x5
 6628 20fb 00       		.byte	0
 6629 20fc 03       		.uleb128 0x3
 6630 20fd F20E0000 		.4byte	.LASF447
 6631 2101 26       		.byte	0x26
 6632 2102 53       		.byte	0x53
 6633 2103 CA200000 		.4byte	0x20ca
 6634 2107 1A       		.uleb128 0x1a
 6635 2108 2A040000 		.4byte	.LASF448
 6636 210c 27       		.byte	0x27
 6637 210d 6A01     		.2byte	0x16a
 6638 210f DA000000 		.4byte	0xda
 6639 2113 1A       		.uleb128 0x1a
 6640 2114 7B030000 		.4byte	.LASF449
 6641 2118 27       		.byte	0x27
 6642 2119 6F01     		.2byte	0x16f
 6643 211b F5000000 		.4byte	0xf5
 6644 211f 24       		.uleb128 0x24
 6645 2120 07       		.byte	0x7
 6646 2121 01       		.byte	0x1
 6647 2122 5E000000 		.4byte	0x5e
 6648 2126 27       		.byte	0x27
 6649 2127 7401     		.2byte	0x174
 6650 2129 40210000 		.4byte	0x2140
 6651 212d 22       		.uleb128 0x22
 6652 212e EC030000 		.4byte	.LASF450
 6653 2132 01       		.byte	0x1
 6654 2133 22       		.uleb128 0x22
 6655 2134 78000000 		.4byte	.LASF451
 6656 2138 02       		.byte	0x2
 6657 2139 22       		.uleb128 0x22
 6658 213a 4A090000 		.4byte	.LASF452
 6659 213e 03       		.byte	0x3
 6660 213f 00       		.byte	0
 6661 2140 1A       		.uleb128 0x1a
 6662 2141 B11E0000 		.4byte	.LASF453
 6663 2145 27       		.byte	0x27
 6664 2146 7801     		.2byte	0x178
ARM GAS  C:\Users\PCHAUT~1\AppData\Local\Temp\ccOhqcVB.s 			page 118


 6665 2148 1F210000 		.4byte	0x211f
 6666 214c 24       		.uleb128 0x24
 6667 214d 07       		.byte	0x7
 6668 214e 01       		.byte	0x1
 6669 214f 5E000000 		.4byte	0x5e
 6670 2153 27       		.byte	0x27
 6671 2154 7D01     		.2byte	0x17d
 6672 2156 6D210000 		.4byte	0x216d
 6673 215a 22       		.uleb128 0x22
 6674 215b C9040000 		.4byte	.LASF454
 6675 215f 01       		.byte	0x1
 6676 2160 22       		.uleb128 0x22
 6677 2161 401E0000 		.4byte	.LASF455
 6678 2165 02       		.byte	0x2
 6679 2166 22       		.uleb128 0x22
 6680 2167 070A0000 		.4byte	.LASF456
 6681 216b 03       		.byte	0x3
 6682 216c 00       		.byte	0
 6683 216d 1A       		.uleb128 0x1a
 6684 216e C4050000 		.4byte	.LASF457
 6685 2172 27       		.byte	0x27
 6686 2173 8101     		.2byte	0x181
 6687 2175 4C210000 		.4byte	0x214c
 6688 2179 19       		.uleb128 0x19
 6689 217a 0C       		.byte	0xc
 6690 217b 27       		.byte	0x27
 6691 217c 8601     		.2byte	0x186
 6692 217e AA210000 		.4byte	0x21aa
 6693 2182 0A       		.uleb128 0xa
 6694 2183 33120000 		.4byte	.LASF458
 6695 2187 27       		.byte	0x27
 6696 2188 8801     		.2byte	0x188
 6697 218a 40210000 		.4byte	0x2140
 6698 218e 00       		.byte	0
 6699 218f 0A       		.uleb128 0xa
 6700 2190 38030000 		.4byte	.LASF459
 6701 2194 27       		.byte	0x27
 6702 2195 8901     		.2byte	0x189
 6703 2197 F5000000 		.4byte	0xf5
 6704 219b 04       		.byte	0x4
 6705 219c 0A       		.uleb128 0xa
 6706 219d 1F1F0000 		.4byte	.LASF460
 6707 21a1 27       		.byte	0x27
 6708 21a2 8C01     		.2byte	0x18c
 6709 21a4 6D210000 		.4byte	0x216d
 6710 21a8 08       		.byte	0x8
 6711 21a9 00       		.byte	0
 6712 21aa 1A       		.uleb128 0x1a
 6713 21ab C9010000 		.4byte	.LASF461
 6714 21af 27       		.byte	0x27
 6715 21b0 8E01     		.2byte	0x18e
 6716 21b2 79210000 		.4byte	0x2179
 6717 21b6 05       		.uleb128 0x5
 6718 21b7 AA210000 		.4byte	0x21aa
 6719 21bb 1A       		.uleb128 0x1a
 6720 21bc CF030000 		.4byte	.LASF462
 6721 21c0 27       		.byte	0x27
ARM GAS  C:\Users\PCHAUT~1\AppData\Local\Temp\ccOhqcVB.s 			page 119


 6722 21c1 9301     		.2byte	0x193
 6723 21c3 C7210000 		.4byte	0x21c7
 6724 21c7 0C       		.uleb128 0xc
 6725 21c8 CF030000 		.4byte	.LASF462
 6726 21cc 3C       		.byte	0x3c
 6727 21cd 27       		.byte	0x27
 6728 21ce 9801     		.2byte	0x198
 6729 21d0 64220000 		.4byte	0x2264
 6730 21d4 0A       		.uleb128 0xa
 6731 21d5 2C130000 		.4byte	.LASF331
 6732 21d9 27       		.byte	0x27
 6733 21da 9C01     		.2byte	0x19c
 6734 21dc FC200000 		.4byte	0x20fc
 6735 21e0 00       		.byte	0
 6736 21e1 0A       		.uleb128 0xa
 6737 21e2 DF170000 		.4byte	.LASF332
 6738 21e6 27       		.byte	0x27
 6739 21e7 A001     		.2byte	0x1a0
 6740 21e9 64220000 		.4byte	0x2264
 6741 21ed 04       		.byte	0x4
 6742 21ee 0A       		.uleb128 0xa
 6743 21ef 6F010000 		.4byte	.LASF463
 6744 21f3 27       		.byte	0x27
 6745 21f4 A401     		.2byte	0x1a4
 6746 21f6 13210000 		.4byte	0x2113
 6747 21fa 08       		.byte	0x8
 6748 21fb 0A       		.uleb128 0xa
 6749 21fc BF0B0000 		.4byte	.LASF337
 6750 2200 27       		.byte	0x27
 6751 2201 A901     		.2byte	0x1a9
 6752 2203 A7110000 		.4byte	0x11a7
 6753 2207 0C       		.byte	0xc
 6754 2208 0A       		.uleb128 0xa
 6755 2209 E7050000 		.4byte	.LASF336
 6756 220d 27       		.byte	0x27
 6757 220e B201     		.2byte	0x1b2
 6758 2210 D2020000 		.4byte	0x2d2
 6759 2214 20       		.byte	0x20
 6760 2215 0A       		.uleb128 0xa
 6761 2216 100D0000 		.4byte	.LASF464
 6762 221a 27       		.byte	0x27
 6763 221b B601     		.2byte	0x1b6
 6764 221d 07210000 		.4byte	0x2107
 6765 2221 24       		.byte	0x24
 6766 2222 0A       		.uleb128 0xa
 6767 2223 21070000 		.4byte	.LASF465
 6768 2227 27       		.byte	0x27
 6769 2228 BA01     		.2byte	0x1ba
 6770 222a F5000000 		.4byte	0xf5
 6771 222e 28       		.byte	0x28
 6772 222f 0A       		.uleb128 0xa
 6773 2230 61070000 		.4byte	.LASF466
 6774 2234 27       		.byte	0x27
 6775 2235 BE01     		.2byte	0x1be
 6776 2237 F5000000 		.4byte	0xf5
 6777 223b 2C       		.byte	0x2c
 6778 223c 0A       		.uleb128 0xa
ARM GAS  C:\Users\PCHAUT~1\AppData\Local\Temp\ccOhqcVB.s 			page 120


 6779 223d 37010000 		.4byte	.LASF467
 6780 2241 27       		.byte	0x27
 6781 2242 C201     		.2byte	0x1c2
 6782 2244 A6190000 		.4byte	0x19a6
 6783 2248 30       		.byte	0x30
 6784 2249 0A       		.uleb128 0xa
 6785 224a E8010000 		.4byte	.LASF468
 6786 224e 27       		.byte	0x27
 6787 224f C601     		.2byte	0x1c6
 6788 2251 A6190000 		.4byte	0x19a6
 6789 2255 34       		.byte	0x34
 6790 2256 09       		.uleb128 0x9
 6791 2257 69326300 		.ascii	"i2c\000"
 6792 225b 27       		.byte	0x27
 6793 225c CA01     		.2byte	0x1ca
 6794 225e 6A220000 		.4byte	0x226a
 6795 2262 38       		.byte	0x38
 6796 2263 00       		.byte	0
 6797 2264 0B       		.uleb128 0xb
 6798 2265 04       		.byte	0x4
 6799 2266 B6210000 		.4byte	0x21b6
 6800 226a 0B       		.uleb128 0xb
 6801 226b 04       		.byte	0x4
 6802 226c 8E0A0000 		.4byte	0xa8e
 6803 2270 15       		.uleb128 0x15
 6804 2271 5B0F0000 		.4byte	.LASF469
 6805 2275 27       		.byte	0x27
 6806 2276 E001     		.2byte	0x1e0
 6807 2278 BB210000 		.4byte	0x21bb
 6808 227c 21       		.uleb128 0x21
 6809 227d 07       		.byte	0x7
 6810 227e 01       		.byte	0x1
 6811 227f 5E000000 		.4byte	0x5e
 6812 2283 28       		.byte	0x28
 6813 2284 39       		.byte	0x39
 6814 2285 A8220000 		.4byte	0x22a8
 6815 2289 22       		.uleb128 0x22
 6816 228a 1B0E0000 		.4byte	.LASF470
 6817 228e 00       		.byte	0
 6818 228f 22       		.uleb128 0x22
 6819 2290 9D0B0000 		.4byte	.LASF471
 6820 2294 01       		.byte	0x1
 6821 2295 22       		.uleb128 0x22
 6822 2296 3D010000 		.4byte	.LASF472
 6823 229a 02       		.byte	0x2
 6824 229b 22       		.uleb128 0x22
 6825 229c B0150000 		.4byte	.LASF473
 6826 22a0 03       		.byte	0x3
 6827 22a1 22       		.uleb128 0x22
 6828 22a2 AB190000 		.4byte	.LASF474
 6829 22a6 04       		.byte	0x4
 6830 22a7 00       		.byte	0
 6831 22a8 03       		.uleb128 0x3
 6832 22a9 571C0000 		.4byte	.LASF475
 6833 22ad 28       		.byte	0x28
 6834 22ae 3F       		.byte	0x3f
 6835 22af 7C220000 		.4byte	0x227c
ARM GAS  C:\Users\PCHAUT~1\AppData\Local\Temp\ccOhqcVB.s 			page 121


 6836 22b3 03       		.uleb128 0x3
 6837 22b4 151F0000 		.4byte	.LASF476
 6838 22b8 29       		.byte	0x29
 6839 22b9 E2       		.byte	0xe2
 6840 22ba BE220000 		.4byte	0x22be
 6841 22be 0C       		.uleb128 0xc
 6842 22bf 151F0000 		.4byte	.LASF476
 6843 22c3 20       		.byte	0x20
 6844 22c4 29       		.byte	0x29
 6845 22c5 1B01     		.2byte	0x11b
 6846 22c7 34230000 		.4byte	0x2334
 6847 22cb 0A       		.uleb128 0xa
 6848 22cc 2C130000 		.4byte	.LASF331
 6849 22d0 29       		.byte	0x29
 6850 22d1 1F01     		.2byte	0x11f
 6851 22d3 A8220000 		.4byte	0x22a8
 6852 22d7 00       		.byte	0
 6853 22d8 0A       		.uleb128 0xa
 6854 22d9 DF170000 		.4byte	.LASF332
 6855 22dd 29       		.byte	0x29
 6856 22de 2301     		.2byte	0x123
 6857 22e0 CC230000 		.4byte	0x23cc
 6858 22e4 04       		.byte	0x4
 6859 22e5 09       		.uleb128 0x9
 6860 22e6 73706900 		.ascii	"spi\000"
 6861 22ea 29       		.byte	0x29
 6862 22eb 2801     		.2byte	0x128
 6863 22ed D2230000 		.4byte	0x23d2
 6864 22f1 08       		.byte	0x8
 6865 22f2 09       		.uleb128 0x9
 6866 22f3 63666700 		.ascii	"cfg\000"
 6867 22f7 29       		.byte	0x29
 6868 22f8 2C01     		.2byte	0x12c
 6869 22fa DA000000 		.4byte	0xda
 6870 22fe 0C       		.byte	0xc
 6871 22ff 0A       		.uleb128 0xa
 6872 2300 37010000 		.4byte	.LASF467
 6873 2304 29       		.byte	0x29
 6874 2305 3001     		.2byte	0x130
 6875 2307 A6190000 		.4byte	0x19a6
 6876 230b 10       		.byte	0x10
 6877 230c 0A       		.uleb128 0xa
 6878 230d E8010000 		.4byte	.LASF468
 6879 2311 29       		.byte	0x29
 6880 2312 3401     		.2byte	0x134
 6881 2314 A6190000 		.4byte	0x19a6
 6882 2318 14       		.byte	0x14
 6883 2319 0A       		.uleb128 0xa
 6884 231a 21070000 		.4byte	.LASF465
 6885 231e 29       		.byte	0x29
 6886 231f 3801     		.2byte	0x138
 6887 2321 F5000000 		.4byte	0xf5
 6888 2325 18       		.byte	0x18
 6889 2326 0A       		.uleb128 0xa
 6890 2327 61070000 		.4byte	.LASF466
 6891 232b 29       		.byte	0x29
 6892 232c 3C01     		.2byte	0x13c
ARM GAS  C:\Users\PCHAUT~1\AppData\Local\Temp\ccOhqcVB.s 			page 122


 6893 232e F5000000 		.4byte	0xf5
 6894 2332 1C       		.byte	0x1c
 6895 2333 00       		.byte	0
 6896 2334 03       		.uleb128 0x3
 6897 2335 4D070000 		.4byte	.LASF477
 6898 2339 29       		.byte	0x29
 6899 233a EB       		.byte	0xeb
 6900 233b 3F230000 		.4byte	0x233f
 6901 233f 0B       		.uleb128 0xb
 6902 2340 04       		.byte	0x4
 6903 2341 45230000 		.4byte	0x2345
 6904 2345 0D       		.uleb128 0xd
 6905 2346 5A230000 		.4byte	0x235a
 6906 234a 0E       		.uleb128 0xe
 6907 234b 5A230000 		.4byte	0x235a
 6908 234f 0E       		.uleb128 0xe
 6909 2350 2C000000 		.4byte	0x2c
 6910 2354 0E       		.uleb128 0xe
 6911 2355 2C000000 		.4byte	0x2c
 6912 2359 00       		.byte	0
 6913 235a 0B       		.uleb128 0xb
 6914 235b 04       		.byte	0x4
 6915 235c B3220000 		.4byte	0x22b3
 6916 2360 17       		.uleb128 0x17
 6917 2361 14       		.byte	0x14
 6918 2362 29       		.byte	0x29
 6919 2363 F1       		.byte	0xf1
 6920 2364 B4230000 		.4byte	0x23b4
 6921 2368 08       		.uleb128 0x8
 6922 2369 91010000 		.4byte	.LASF478
 6923 236d 29       		.byte	0x29
 6924 236e F6       		.byte	0xf6
 6925 236f B4230000 		.4byte	0x23b4
 6926 2373 00       		.byte	0
 6927 2374 08       		.uleb128 0x8
 6928 2375 65010000 		.4byte	.LASF479
 6929 2379 29       		.byte	0x29
 6930 237a FB       		.byte	0xfb
 6931 237b BA030000 		.4byte	0x3ba
 6932 237f 04       		.byte	0x4
 6933 2380 08       		.uleb128 0x8
 6934 2381 C50B0000 		.4byte	.LASF480
 6935 2385 29       		.byte	0x29
 6936 2386 FF       		.byte	0xff
 6937 2387 2C000000 		.4byte	0x2c
 6938 238b 08       		.byte	0x8
 6939 238c 0A       		.uleb128 0xa
 6940 238d F8080000 		.4byte	.LASF344
 6941 2391 29       		.byte	0x29
 6942 2392 0301     		.2byte	0x103
 6943 2394 34230000 		.4byte	0x2334
 6944 2398 0C       		.byte	0xc
 6945 2399 0A       		.uleb128 0xa
 6946 239a 0F160000 		.4byte	.LASF481
 6947 239e 29       		.byte	0x29
 6948 239f 0F01     		.2byte	0x10f
 6949 23a1 CF000000 		.4byte	0xcf
ARM GAS  C:\Users\PCHAUT~1\AppData\Local\Temp\ccOhqcVB.s 			page 123


 6950 23a5 10       		.byte	0x10
 6951 23a6 0A       		.uleb128 0xa
 6952 23a7 A2050000 		.4byte	.LASF482
 6953 23ab 29       		.byte	0x29
 6954 23ac 1501     		.2byte	0x115
 6955 23ae CF000000 		.4byte	0xcf
 6956 23b2 12       		.byte	0x12
 6957 23b3 00       		.byte	0
 6958 23b4 0B       		.uleb128 0xb
 6959 23b5 04       		.byte	0x4
 6960 23b6 BA230000 		.4byte	0x23ba
 6961 23ba 25       		.uleb128 0x25
 6962 23bb 1A       		.uleb128 0x1a
 6963 23bc 2A1F0000 		.4byte	.LASF483
 6964 23c0 29       		.byte	0x29
 6965 23c1 1601     		.2byte	0x116
 6966 23c3 60230000 		.4byte	0x2360
 6967 23c7 05       		.uleb128 0x5
 6968 23c8 BB230000 		.4byte	0x23bb
 6969 23cc 0B       		.uleb128 0xb
 6970 23cd 04       		.byte	0x4
 6971 23ce C7230000 		.4byte	0x23c7
 6972 23d2 0B       		.uleb128 0xb
 6973 23d3 04       		.byte	0x4
 6974 23d4 410C0000 		.4byte	0xc41
 6975 23d8 15       		.uleb128 0x15
 6976 23d9 651F0000 		.4byte	.LASF484
 6977 23dd 29       		.byte	0x29
 6978 23de 4801     		.2byte	0x148
 6979 23e0 B3220000 		.4byte	0x22b3
 6980 23e4 21       		.uleb128 0x21
 6981 23e5 07       		.byte	0x7
 6982 23e6 01       		.byte	0x1
 6983 23e7 5E000000 		.4byte	0x5e
 6984 23eb 2A       		.byte	0x2a
 6985 23ec 4A       		.byte	0x4a
 6986 23ed 04240000 		.4byte	0x2404
 6987 23f1 22       		.uleb128 0x22
 6988 23f2 2E060000 		.4byte	.LASF485
 6989 23f6 00       		.byte	0
 6990 23f7 22       		.uleb128 0x22
 6991 23f8 A60B0000 		.4byte	.LASF486
 6992 23fc 01       		.byte	0x1
 6993 23fd 22       		.uleb128 0x22
 6994 23fe 420E0000 		.4byte	.LASF487
 6995 2402 02       		.byte	0x2
 6996 2403 00       		.byte	0
 6997 2404 03       		.uleb128 0x3
 6998 2405 FB020000 		.4byte	.LASF488
 6999 2409 2A       		.byte	0x2a
 7000 240a 4E       		.byte	0x4e
 7001 240b E4230000 		.4byte	0x23e4
 7002 240f 03       		.uleb128 0x3
 7003 2410 E20A0000 		.4byte	.LASF489
 7004 2414 2A       		.byte	0x2a
 7005 2415 53       		.byte	0x53
 7006 2416 1A240000 		.4byte	0x241a
ARM GAS  C:\Users\PCHAUT~1\AppData\Local\Temp\ccOhqcVB.s 			page 124


 7007 241a 0C       		.uleb128 0xc
 7008 241b E20A0000 		.4byte	.LASF489
 7009 241f 1C       		.byte	0x1c
 7010 2420 2B       		.byte	0x2b
 7011 2421 7901     		.2byte	0x179
 7012 2423 83240000 		.4byte	0x2483
 7013 2427 0A       		.uleb128 0xa
 7014 2428 2C130000 		.4byte	.LASF331
 7015 242c 2B       		.byte	0x2b
 7016 242d 7D01     		.2byte	0x17d
 7017 242f 04240000 		.4byte	0x2404
 7018 2433 00       		.byte	0
 7019 2434 0A       		.uleb128 0xa
 7020 2435 DF170000 		.4byte	.LASF332
 7021 2439 2B       		.byte	0x2b
 7022 243a 8101     		.2byte	0x181
 7023 243c 7E250000 		.4byte	0x257e
 7024 2440 04       		.byte	0x4
 7025 2441 0A       		.uleb128 0xa
 7026 2442 97100000 		.4byte	.LASF490
 7027 2446 2B       		.byte	0x2b
 7028 2447 8501     		.2byte	0x185
 7029 2449 C9240000 		.4byte	0x24c9
 7030 244d 08       		.byte	0x8
 7031 244e 0A       		.uleb128 0xa
 7032 244f 71160000 		.4byte	.LASF491
 7033 2453 2B       		.byte	0x2b
 7034 2454 8901     		.2byte	0x189
 7035 2456 BD240000 		.4byte	0x24bd
 7036 245a 0C       		.byte	0xc
 7037 245b 0A       		.uleb128 0xa
 7038 245c CD1B0000 		.4byte	.LASF412
 7039 2460 2B       		.byte	0x2b
 7040 2461 8D01     		.2byte	0x18d
 7041 2463 B1240000 		.4byte	0x24b1
 7042 2467 10       		.byte	0x10
 7043 2468 0A       		.uleb128 0xa
 7044 2469 E80B0000 		.4byte	.LASF422
 7045 246d 2B       		.byte	0x2b
 7046 246e 9501     		.2byte	0x195
 7047 2470 F5000000 		.4byte	0xf5
 7048 2474 14       		.byte	0x14
 7049 2475 09       		.uleb128 0x9
 7050 2476 74696D00 		.ascii	"tim\000"
 7051 247a 2B       		.byte	0x2b
 7052 247b 9901     		.2byte	0x199
 7053 247d AC200000 		.4byte	0x20ac
 7054 2481 18       		.byte	0x18
 7055 2482 00       		.byte	0
 7056 2483 03       		.uleb128 0x3
 7057 2484 C20E0000 		.4byte	.LASF492
 7058 2488 2A       		.byte	0x2a
 7059 2489 5A       		.byte	0x5a
 7060 248a 8E240000 		.4byte	0x248e
 7061 248e 0B       		.uleb128 0xb
 7062 248f 04       		.byte	0x4
 7063 2490 94240000 		.4byte	0x2494
ARM GAS  C:\Users\PCHAUT~1\AppData\Local\Temp\ccOhqcVB.s 			page 125


 7064 2494 0D       		.uleb128 0xd
 7065 2495 9F240000 		.4byte	0x249f
 7066 2499 0E       		.uleb128 0xe
 7067 249a 9F240000 		.4byte	0x249f
 7068 249e 00       		.byte	0
 7069 249f 0B       		.uleb128 0xb
 7070 24a0 04       		.byte	0x4
 7071 24a1 0F240000 		.4byte	0x240f
 7072 24a5 1A       		.uleb128 0x1a
 7073 24a6 7A120000 		.4byte	.LASF493
 7074 24aa 2B       		.byte	0x2b
 7075 24ab 2501     		.2byte	0x125
 7076 24ad F5000000 		.4byte	0xf5
 7077 24b1 1A       		.uleb128 0x1a
 7078 24b2 35140000 		.4byte	.LASF494
 7079 24b6 2B       		.byte	0x2b
 7080 24b7 2A01     		.2byte	0x12a
 7081 24b9 BF000000 		.4byte	0xbf
 7082 24bd 1A       		.uleb128 0x1a
 7083 24be 88020000 		.4byte	.LASF495
 7084 24c2 2B       		.byte	0x2b
 7085 24c3 2F01     		.2byte	0x12f
 7086 24c5 F5000000 		.4byte	0xf5
 7087 24c9 1A       		.uleb128 0x1a
 7088 24ca 840C0000 		.4byte	.LASF496
 7089 24ce 2B       		.byte	0x2b
 7090 24cf 3401     		.2byte	0x134
 7091 24d1 F5000000 		.4byte	0xf5
 7092 24d5 19       		.uleb128 0x19
 7093 24d6 08       		.byte	0x8
 7094 24d7 2B       		.byte	0x2b
 7095 24d8 3901     		.2byte	0x139
 7096 24da F9240000 		.4byte	0x24f9
 7097 24de 0A       		.uleb128 0xa
 7098 24df 2B070000 		.4byte	.LASF410
 7099 24e3 2B       		.byte	0x2b
 7100 24e4 3D01     		.2byte	0x13d
 7101 24e6 A5240000 		.4byte	0x24a5
 7102 24ea 00       		.byte	0
 7103 24eb 0A       		.uleb128 0xa
 7104 24ec 74130000 		.4byte	.LASF436
 7105 24f0 2B       		.byte	0x2b
 7106 24f1 4301     		.2byte	0x143
 7107 24f3 83240000 		.4byte	0x2483
 7108 24f7 04       		.byte	0x4
 7109 24f8 00       		.byte	0
 7110 24f9 1A       		.uleb128 0x1a
 7111 24fa 730C0000 		.4byte	.LASF497
 7112 24fe 2B       		.byte	0x2b
 7113 24ff 4501     		.2byte	0x145
 7114 2501 D5240000 		.4byte	0x24d5
 7115 2505 19       		.uleb128 0x19
 7116 2506 34       		.byte	0x34
 7117 2507 2B       		.byte	0x2b
 7118 2508 4A01     		.2byte	0x14a
 7119 250a 5D250000 		.4byte	0x255d
 7120 250e 0A       		.uleb128 0xa
ARM GAS  C:\Users\PCHAUT~1\AppData\Local\Temp\ccOhqcVB.s 			page 126


 7121 250f 0F1E0000 		.4byte	.LASF435
 7122 2513 2B       		.byte	0x2b
 7123 2514 5001     		.2byte	0x150
 7124 2516 F5000000 		.4byte	0xf5
 7125 251a 00       		.byte	0
 7126 251b 0A       		.uleb128 0xa
 7127 251c 97100000 		.4byte	.LASF490
 7128 2520 2B       		.byte	0x2b
 7129 2521 5601     		.2byte	0x156
 7130 2523 C9240000 		.4byte	0x24c9
 7131 2527 04       		.byte	0x4
 7132 2528 0A       		.uleb128 0xa
 7133 2529 74130000 		.4byte	.LASF436
 7134 252d 2B       		.byte	0x2b
 7135 252e 5C01     		.2byte	0x15c
 7136 2530 83240000 		.4byte	0x2483
 7137 2534 08       		.byte	0x8
 7138 2535 0A       		.uleb128 0xa
 7139 2536 CD1B0000 		.4byte	.LASF412
 7140 253a 2B       		.byte	0x2b
 7141 253b 6001     		.2byte	0x160
 7142 253d 5D250000 		.4byte	0x255d
 7143 2541 0C       		.byte	0xc
 7144 2542 09       		.uleb128 0x9
 7145 2543 63723200 		.ascii	"cr2\000"
 7146 2547 2B       		.byte	0x2b
 7147 2548 6601     		.2byte	0x166
 7148 254a F5000000 		.4byte	0xf5
 7149 254e 2C       		.byte	0x2c
 7150 254f 0A       		.uleb128 0xa
 7151 2550 610B0000 		.4byte	.LASF437
 7152 2554 2B       		.byte	0x2b
 7153 2555 7301     		.2byte	0x173
 7154 2557 F5000000 		.4byte	0xf5
 7155 255b 30       		.byte	0x30
 7156 255c 00       		.byte	0
 7157 255d 13       		.uleb128 0x13
 7158 255e F9240000 		.4byte	0x24f9
 7159 2562 6D250000 		.4byte	0x256d
 7160 2566 14       		.uleb128 0x14
 7161 2567 37000000 		.4byte	0x37
 7162 256b 03       		.byte	0x3
 7163 256c 00       		.byte	0
 7164 256d 1A       		.uleb128 0x1a
 7165 256e F30A0000 		.4byte	.LASF498
 7166 2572 2B       		.byte	0x2b
 7167 2573 7401     		.2byte	0x174
 7168 2575 05250000 		.4byte	0x2505
 7169 2579 05       		.uleb128 0x5
 7170 257a 6D250000 		.4byte	0x256d
 7171 257e 0B       		.uleb128 0xb
 7172 257f 04       		.byte	0x4
 7173 2580 79250000 		.4byte	0x2579
 7174 2584 15       		.uleb128 0x15
 7175 2585 960F0000 		.4byte	.LASF499
 7176 2589 2B       		.byte	0x2b
 7177 258a BC01     		.2byte	0x1bc
ARM GAS  C:\Users\PCHAUT~1\AppData\Local\Temp\ccOhqcVB.s 			page 127


 7178 258c 0F240000 		.4byte	0x240f
 7179 2590 15       		.uleb128 0x15
 7180 2591 9C0F0000 		.4byte	.LASF500
 7181 2595 2B       		.byte	0x2b
 7182 2596 C001     		.2byte	0x1c0
 7183 2598 0F240000 		.4byte	0x240f
 7184 259c 15       		.uleb128 0x15
 7185 259d A20F0000 		.4byte	.LASF501
 7186 25a1 2B       		.byte	0x2b
 7187 25a2 C401     		.2byte	0x1c4
 7188 25a4 0F240000 		.4byte	0x240f
 7189 25a8 15       		.uleb128 0x15
 7190 25a9 A80F0000 		.4byte	.LASF502
 7191 25ad 2B       		.byte	0x2b
 7192 25ae C801     		.2byte	0x1c8
 7193 25b0 0F240000 		.4byte	0x240f
 7194 25b4 21       		.uleb128 0x21
 7195 25b5 07       		.byte	0x7
 7196 25b6 01       		.byte	0x1
 7197 25b7 5E000000 		.4byte	0x5e
 7198 25bb 2C       		.byte	0x2c
 7199 25bc 55       		.byte	0x55
 7200 25bd D4250000 		.4byte	0x25d4
 7201 25c1 22       		.uleb128 0x22
 7202 25c2 8A050000 		.4byte	.LASF503
 7203 25c6 00       		.byte	0
 7204 25c7 22       		.uleb128 0x22
 7205 25c8 140C0000 		.4byte	.LASF504
 7206 25cc 01       		.byte	0x1
 7207 25cd 22       		.uleb128 0x22
 7208 25ce D40D0000 		.4byte	.LASF505
 7209 25d2 02       		.byte	0x2
 7210 25d3 00       		.byte	0
 7211 25d4 03       		.uleb128 0x3
 7212 25d5 1B150000 		.4byte	.LASF506
 7213 25d9 2C       		.byte	0x2c
 7214 25da 59       		.byte	0x59
 7215 25db B4250000 		.4byte	0x25b4
 7216 25df 03       		.uleb128 0x3
 7217 25e0 ED1B0000 		.4byte	.LASF507
 7218 25e4 2C       		.byte	0x2c
 7219 25e5 5E       		.byte	0x5e
 7220 25e6 EA250000 		.4byte	0x25ea
 7221 25ea 07       		.uleb128 0x7
 7222 25eb ED1B0000 		.4byte	.LASF507
 7223 25ef 78       		.byte	0x78
 7224 25f0 2C       		.byte	0x2c
 7225 25f1 78       		.byte	0x78
 7226 25f2 55260000 		.4byte	0x2655
 7227 25f6 18       		.uleb128 0x18
 7228 25f7 766D7400 		.ascii	"vmt\000"
 7229 25fb 2C       		.byte	0x2c
 7230 25fc 7A       		.byte	0x7a
 7231 25fd D3260000 		.4byte	0x26d3
 7232 2601 00       		.byte	0
 7233 2602 08       		.uleb128 0x8
 7234 2603 51000000 		.4byte	.LASF508
ARM GAS  C:\Users\PCHAUT~1\AppData\Local\Temp\ccOhqcVB.s 			page 128


 7235 2607 2C       		.byte	0x2c
 7236 2608 7B       		.byte	0x7b
 7237 2609 2B120000 		.4byte	0x122b
 7238 260d 04       		.byte	0x4
 7239 260e 08       		.uleb128 0x8
 7240 260f 2C130000 		.4byte	.LASF331
 7241 2613 2C       		.byte	0x2c
 7242 2614 7B       		.byte	0x7b
 7243 2615 D4250000 		.4byte	0x25d4
 7244 2619 08       		.byte	0x8
 7245 261a 08       		.uleb128 0x8
 7246 261b FC140000 		.4byte	.LASF509
 7247 261f 2C       		.byte	0x2c
 7248 2620 7B       		.byte	0x7b
 7249 2621 D6120000 		.4byte	0x12d6
 7250 2625 0C       		.byte	0xc
 7251 2626 08       		.uleb128 0x8
 7252 2627 BF0F0000 		.4byte	.LASF510
 7253 262b 2C       		.byte	0x2c
 7254 262c 7B       		.byte	0x7b
 7255 262d E1120000 		.4byte	0x12e1
 7256 2631 30       		.byte	0x30
 7257 2632 18       		.uleb128 0x18
 7258 2633 696200   		.ascii	"ib\000"
 7259 2636 2C       		.byte	0x2c
 7260 2637 7B       		.byte	0x7b
 7261 2638 D9260000 		.4byte	0x26d9
 7262 263c 54       		.byte	0x54
 7263 263d 18       		.uleb128 0x18
 7264 263e 6F6200   		.ascii	"ob\000"
 7265 2641 2C       		.byte	0x2c
 7266 2642 7B       		.byte	0x7b
 7267 2643 D9260000 		.4byte	0x26d9
 7268 2647 64       		.byte	0x64
 7269 2648 08       		.uleb128 0x8
 7270 2649 99160000 		.4byte	.LASF511
 7271 264d 2C       		.byte	0x2c
 7272 264e 7B       		.byte	0x7b
 7273 264f E9260000 		.4byte	0x26e9
 7274 2653 74       		.byte	0x74
 7275 2654 00       		.byte	0
 7276 2655 1F       		.uleb128 0x1f
 7277 2656 53443300 		.ascii	"SD3\000"
 7278 265a 2D       		.byte	0x2d
 7279 265b 1501     		.2byte	0x115
 7280 265d DF250000 		.4byte	0x25df
 7281 2661 07       		.uleb128 0x7
 7282 2662 7F0D0000 		.4byte	.LASF512
 7283 2666 20       		.byte	0x20
 7284 2667 2C       		.byte	0x2c
 7285 2668 6D       		.byte	0x6d
 7286 2669 CE260000 		.4byte	0x26ce
 7287 266d 08       		.uleb128 0x8
 7288 266e F6140000 		.4byte	.LASF513
 7289 2672 2C       		.byte	0x2c
 7290 2673 6E       		.byte	0x6e
 7291 2674 0B130000 		.4byte	0x130b
ARM GAS  C:\Users\PCHAUT~1\AppData\Local\Temp\ccOhqcVB.s 			page 129


 7292 2678 00       		.byte	0
 7293 2679 08       		.uleb128 0x8
 7294 267a E7030000 		.4byte	.LASF514
 7295 267e 2C       		.byte	0x2c
 7296 267f 6E       		.byte	0x6e
 7297 2680 2A130000 		.4byte	0x132a
 7298 2684 04       		.byte	0x4
 7299 2685 18       		.uleb128 0x18
 7300 2686 70757400 		.ascii	"put\000"
 7301 268a 2C       		.byte	0x2c
 7302 268b 6E       		.byte	0x6e
 7303 268c 44130000 		.4byte	0x1344
 7304 2690 08       		.byte	0x8
 7305 2691 18       		.uleb128 0x18
 7306 2692 67657400 		.ascii	"get\000"
 7307 2696 2C       		.byte	0x2c
 7308 2697 6E       		.byte	0x6e
 7309 2698 59130000 		.4byte	0x1359
 7310 269c 0C       		.byte	0xc
 7311 269d 08       		.uleb128 0x8
 7312 269e 96110000 		.4byte	.LASF515
 7313 26a2 2C       		.byte	0x2c
 7314 26a3 6E       		.byte	0x6e
 7315 26a4 FA130000 		.4byte	0x13fa
 7316 26a8 10       		.byte	0x10
 7317 26a9 08       		.uleb128 0x8
 7318 26aa DB140000 		.4byte	.LASF516
 7319 26ae 2C       		.byte	0x2c
 7320 26af 6E       		.byte	0x6e
 7321 26b0 14140000 		.4byte	0x1414
 7322 26b4 14       		.byte	0x14
 7323 26b5 08       		.uleb128 0x8
 7324 26b6 A81C0000 		.4byte	.LASF517
 7325 26ba 2C       		.byte	0x2c
 7326 26bb 6E       		.byte	0x6e
 7327 26bc 38140000 		.4byte	0x1438
 7328 26c0 18       		.byte	0x18
 7329 26c1 08       		.uleb128 0x8
 7330 26c2 BB100000 		.4byte	.LASF518
 7331 26c6 2C       		.byte	0x2c
 7332 26c7 6E       		.byte	0x6e
 7333 26c8 5C140000 		.4byte	0x145c
 7334 26cc 1C       		.byte	0x1c
 7335 26cd 00       		.byte	0
 7336 26ce 05       		.uleb128 0x5
 7337 26cf 61260000 		.4byte	0x2661
 7338 26d3 0B       		.uleb128 0xb
 7339 26d4 04       		.byte	0x4
 7340 26d5 CE260000 		.4byte	0x26ce
 7341 26d9 13       		.uleb128 0x13
 7342 26da BF000000 		.4byte	0xbf
 7343 26de E9260000 		.4byte	0x26e9
 7344 26e2 14       		.uleb128 0x14
 7345 26e3 37000000 		.4byte	0x37
 7346 26e7 0F       		.byte	0xf
 7347 26e8 00       		.byte	0
 7348 26e9 0B       		.uleb128 0xb
ARM GAS  C:\Users\PCHAUT~1\AppData\Local\Temp\ccOhqcVB.s 			page 130


 7349 26ea 04       		.byte	0x4
 7350 26eb B00C0000 		.4byte	0xcb0
 7351 26ef 21       		.uleb128 0x21
 7352 26f0 07       		.byte	0x7
 7353 26f1 01       		.byte	0x1
 7354 26f2 5E000000 		.4byte	0x5e
 7355 26f6 2E       		.byte	0x2e
 7356 26f7 6C       		.byte	0x6c
 7357 26f8 0F270000 		.4byte	0x270f
 7358 26fc 22       		.uleb128 0x22
 7359 26fd C5020000 		.4byte	.LASF519
 7360 2701 00       		.byte	0
 7361 2702 22       		.uleb128 0x22
 7362 2703 90120000 		.4byte	.LASF520
 7363 2707 01       		.byte	0x1
 7364 2708 22       		.uleb128 0x22
 7365 2709 6E100000 		.4byte	.LASF521
 7366 270d 02       		.byte	0x2
 7367 270e 00       		.byte	0
 7368 270f 03       		.uleb128 0x3
 7369 2710 23170000 		.4byte	.LASF522
 7370 2714 2E       		.byte	0x2e
 7371 2715 70       		.byte	0x70
 7372 2716 EF260000 		.4byte	0x26ef
 7373 271a 03       		.uleb128 0x3
 7374 271b 9F160000 		.4byte	.LASF523
 7375 271f 2F       		.byte	0x2f
 7376 2720 BF       		.byte	0xbf
 7377 2721 F5000000 		.4byte	0xf5
 7378 2725 03       		.uleb128 0x3
 7379 2726 8E140000 		.4byte	.LASF524
 7380 272a 2F       		.byte	0x2f
 7381 272b C4       		.byte	0xc4
 7382 272c F5000000 		.4byte	0xf5
 7383 2730 03       		.uleb128 0x3
 7384 2731 DC1B0000 		.4byte	.LASF525
 7385 2735 2F       		.byte	0x2f
 7386 2736 C9       		.byte	0xc9
 7387 2737 3B270000 		.4byte	0x273b
 7388 273b 07       		.uleb128 0x7
 7389 273c DC1B0000 		.4byte	.LASF525
 7390 2740 4C       		.byte	0x4c
 7391 2741 2F       		.byte	0x2f
 7392 2742 F2       		.byte	0xf2
 7393 2743 EA270000 		.4byte	0x27ea
 7394 2747 18       		.uleb128 0x18
 7395 2748 766D7400 		.ascii	"vmt\000"
 7396 274c 2F       		.byte	0x2f
 7397 274d F6       		.byte	0xf6
 7398 274e 8D280000 		.4byte	0x288d
 7399 2752 00       		.byte	0
 7400 2753 08       		.uleb128 0x8
 7401 2754 2C130000 		.4byte	.LASF331
 7402 2758 2F       		.byte	0x2f
 7403 2759 F7       		.byte	0xf7
 7404 275a A6140000 		.4byte	0x14a6
 7405 275e 04       		.byte	0x4
ARM GAS  C:\Users\PCHAUT~1\AppData\Local\Temp\ccOhqcVB.s 			page 131


 7406 275f 18       		.uleb128 0x18
 7407 2760 63696400 		.ascii	"cid\000"
 7408 2764 2F       		.byte	0x2f
 7409 2765 F7       		.byte	0xf7
 7410 2766 61150000 		.4byte	0x1561
 7411 276a 08       		.byte	0x8
 7412 276b 18       		.uleb128 0x18
 7413 276c 63736400 		.ascii	"csd\000"
 7414 2770 2F       		.byte	0x2f
 7415 2771 F7       		.byte	0xf7
 7416 2772 61150000 		.4byte	0x1561
 7417 2776 18       		.byte	0x18
 7418 2777 08       		.uleb128 0x8
 7419 2778 6E180000 		.4byte	.LASF526
 7420 277c 2F       		.byte	0x2f
 7421 277d F7       		.byte	0xf7
 7422 277e F5000000 		.4byte	0xf5
 7423 2782 28       		.byte	0x28
 7424 2783 08       		.uleb128 0x8
 7425 2784 DF170000 		.4byte	.LASF332
 7426 2788 2F       		.byte	0x2f
 7427 2789 FB       		.byte	0xfb
 7428 278a 93280000 		.4byte	0x2893
 7429 278e 2C       		.byte	0x2c
 7430 278f 08       		.uleb128 0x8
 7431 2790 47120000 		.4byte	.LASF527
 7432 2794 2F       		.byte	0x2f
 7433 2795 FF       		.byte	0xff
 7434 2796 1A270000 		.4byte	0x271a
 7435 279a 30       		.byte	0x30
 7436 279b 0A       		.uleb128 0xa
 7437 279c 6F010000 		.4byte	.LASF463
 7438 27a0 2F       		.byte	0x2f
 7439 27a1 0301     		.2byte	0x103
 7440 27a3 25270000 		.4byte	0x2725
 7441 27a7 34       		.byte	0x34
 7442 27a8 09       		.uleb128 0x9
 7443 27a9 72636100 		.ascii	"rca\000"
 7444 27ad 2F       		.byte	0x2f
 7445 27ae 0701     		.2byte	0x107
 7446 27b0 F5000000 		.4byte	0xf5
 7447 27b4 38       		.byte	0x38
 7448 27b5 0A       		.uleb128 0xa
 7449 27b6 E7050000 		.4byte	.LASF336
 7450 27ba 2F       		.byte	0x2f
 7451 27bb 0C01     		.2byte	0x10c
 7452 27bd D2020000 		.4byte	0x2d2
 7453 27c1 3C       		.byte	0x3c
 7454 27c2 0A       		.uleb128 0xa
 7455 27c3 C2140000 		.4byte	.LASF339
 7456 27c7 2F       		.byte	0x2f
 7457 27c8 1001     		.2byte	0x110
 7458 27ca F5000000 		.4byte	0xf5
 7459 27ce 40       		.byte	0x40
 7460 27cf 09       		.uleb128 0x9
 7461 27d0 646D6100 		.ascii	"dma\000"
 7462 27d4 2F       		.byte	0x2f
ARM GAS  C:\Users\PCHAUT~1\AppData\Local\Temp\ccOhqcVB.s 			page 132


 7463 27d5 1401     		.2byte	0x114
 7464 27d7 A6190000 		.4byte	0x19a6
 7465 27db 44       		.byte	0x44
 7466 27dc 0A       		.uleb128 0xa
 7467 27dd 3D130000 		.4byte	.LASF528
 7468 27e1 2F       		.byte	0x2f
 7469 27e2 1901     		.2byte	0x119
 7470 27e4 99280000 		.4byte	0x2899
 7471 27e8 48       		.byte	0x48
 7472 27e9 00       		.byte	0
 7473 27ea 17       		.uleb128 0x17
 7474 27eb 08       		.byte	0x8
 7475 27ec 2F       		.byte	0x2f
 7476 27ed CF       		.byte	0xcf
 7477 27ee 0B280000 		.4byte	0x280b
 7478 27f2 08       		.uleb128 0x8
 7479 27f3 C30C0000 		.4byte	.LASF529
 7480 27f7 2F       		.byte	0x2f
 7481 27f8 D8       		.byte	0xd8
 7482 27f9 D0120000 		.4byte	0x12d0
 7483 27fd 00       		.byte	0
 7484 27fe 08       		.uleb128 0x8
 7485 27ff 481D0000 		.4byte	.LASF530
 7486 2803 2F       		.byte	0x2f
 7487 2804 DC       		.byte	0xdc
 7488 2805 0F270000 		.4byte	0x270f
 7489 2809 04       		.byte	0x4
 7490 280a 00       		.byte	0
 7491 280b 03       		.uleb128 0x3
 7492 280c D9120000 		.4byte	.LASF531
 7493 2810 2F       		.byte	0x2f
 7494 2811 DE       		.byte	0xde
 7495 2812 EA270000 		.4byte	0x27ea
 7496 2816 05       		.uleb128 0x5
 7497 2817 0B280000 		.4byte	0x280b
 7498 281b 07       		.uleb128 0x7
 7499 281c 5E1D0000 		.4byte	.LASF532
 7500 2820 20       		.byte	0x20
 7501 2821 2F       		.byte	0x2f
 7502 2822 EB       		.byte	0xeb
 7503 2823 88280000 		.4byte	0x2888
 7504 2827 08       		.uleb128 0x8
 7505 2828 6B1F0000 		.4byte	.LASF533
 7506 282c 2F       		.byte	0x2f
 7507 282d EC       		.byte	0xec
 7508 282e F3140000 		.4byte	0x14f3
 7509 2832 00       		.byte	0
 7510 2833 08       		.uleb128 0x8
 7511 2834 660B0000 		.4byte	.LASF534
 7512 2838 2F       		.byte	0x2f
 7513 2839 EC       		.byte	0xec
 7514 283a F3140000 		.4byte	0x14f3
 7515 283e 04       		.byte	0x4
 7516 283f 08       		.uleb128 0x8
 7517 2840 9D0D0000 		.4byte	.LASF535
 7518 2844 2F       		.byte	0x2f
 7519 2845 EC       		.byte	0xec
ARM GAS  C:\Users\PCHAUT~1\AppData\Local\Temp\ccOhqcVB.s 			page 133


 7520 2846 F3140000 		.4byte	0x14f3
 7521 284a 08       		.byte	0x8
 7522 284b 08       		.uleb128 0x8
 7523 284c 8B110000 		.4byte	.LASF536
 7524 2850 2F       		.byte	0x2f
 7525 2851 EC       		.byte	0xec
 7526 2852 F3140000 		.4byte	0x14f3
 7527 2856 0C       		.byte	0xc
 7528 2857 08       		.uleb128 0x8
 7529 2858 E7030000 		.4byte	.LASF514
 7530 285c 2F       		.byte	0x2f
 7531 285d EC       		.byte	0xec
 7532 285e 17150000 		.4byte	0x1517
 7533 2862 10       		.byte	0x10
 7534 2863 08       		.uleb128 0x8
 7535 2864 F6140000 		.4byte	.LASF513
 7536 2868 2F       		.byte	0x2f
 7537 2869 EC       		.byte	0xec
 7538 286a 3B150000 		.4byte	0x153b
 7539 286e 14       		.byte	0x14
 7540 286f 08       		.uleb128 0x8
 7541 2870 94160000 		.4byte	.LASF537
 7542 2874 2F       		.byte	0x2f
 7543 2875 EC       		.byte	0xec
 7544 2876 F3140000 		.4byte	0x14f3
 7545 287a 18       		.byte	0x18
 7546 287b 08       		.uleb128 0x8
 7547 287c FE1C0000 		.4byte	.LASF538
 7548 2880 2F       		.byte	0x2f
 7549 2881 EC       		.byte	0xec
 7550 2882 5B150000 		.4byte	0x155b
 7551 2886 1C       		.byte	0x1c
 7552 2887 00       		.byte	0
 7553 2888 05       		.uleb128 0x5
 7554 2889 1B280000 		.4byte	0x281b
 7555 288d 0B       		.uleb128 0xb
 7556 288e 04       		.byte	0x4
 7557 288f 88280000 		.4byte	0x2888
 7558 2893 0B       		.uleb128 0xb
 7559 2894 04       		.byte	0x4
 7560 2895 16280000 		.4byte	0x2816
 7561 2899 0B       		.uleb128 0xb
 7562 289a 04       		.byte	0x4
 7563 289b B80B0000 		.4byte	0xbb8
 7564 289f 15       		.uleb128 0x15
 7565 28a0 8D090000 		.4byte	.LASF539
 7566 28a4 2F       		.byte	0x2f
 7567 28a5 2501     		.2byte	0x125
 7568 28a7 30270000 		.4byte	0x2730
 7569 28ab 21       		.uleb128 0x21
 7570 28ac 07       		.byte	0x7
 7571 28ad 01       		.byte	0x1
 7572 28ae 5E000000 		.4byte	0x5e
 7573 28b2 30       		.byte	0x30
 7574 28b3 46       		.byte	0x46
 7575 28b4 D7280000 		.4byte	0x28d7
 7576 28b8 22       		.uleb128 0x22
ARM GAS  C:\Users\PCHAUT~1\AppData\Local\Temp\ccOhqcVB.s 			page 134


 7577 28b9 FD050000 		.4byte	.LASF540
 7578 28bd 00       		.byte	0
 7579 28be 22       		.uleb128 0x22
 7580 28bf 7F020000 		.4byte	.LASF541
 7581 28c3 01       		.byte	0x1
 7582 28c4 22       		.uleb128 0x22
 7583 28c5 311D0000 		.4byte	.LASF542
 7584 28c9 02       		.byte	0x2
 7585 28ca 22       		.uleb128 0x22
 7586 28cb 2D0D0000 		.4byte	.LASF543
 7587 28cf 03       		.byte	0x3
 7588 28d0 22       		.uleb128 0x22
 7589 28d1 1D110000 		.4byte	.LASF544
 7590 28d5 04       		.byte	0x4
 7591 28d6 00       		.byte	0
 7592 28d7 03       		.uleb128 0x3
 7593 28d8 FC0C0000 		.4byte	.LASF545
 7594 28dc 30       		.byte	0x30
 7595 28dd 4C       		.byte	0x4c
 7596 28de AB280000 		.4byte	0x28ab
 7597 28e2 1A       		.uleb128 0x1a
 7598 28e3 7F1B0000 		.4byte	.LASF546
 7599 28e7 31       		.byte	0x31
 7600 28e8 9601     		.2byte	0x196
 7601 28ea EE280000 		.4byte	0x28ee
 7602 28ee 0C       		.uleb128 0xc
 7603 28ef 7F1B0000 		.4byte	.LASF546
 7604 28f3 34       		.byte	0x34
 7605 28f4 31       		.byte	0x31
 7606 28f5 BA01     		.2byte	0x1ba
 7607 28f7 71290000 		.4byte	0x2971
 7608 28fb 0A       		.uleb128 0xa
 7609 28fc 2C130000 		.4byte	.LASF331
 7610 2900 31       		.byte	0x31
 7611 2901 BE01     		.2byte	0x1be
 7612 2903 D7280000 		.4byte	0x28d7
 7613 2907 00       		.byte	0
 7614 2908 0A       		.uleb128 0xa
 7615 2909 DF170000 		.4byte	.LASF332
 7616 290d 31       		.byte	0x31
 7617 290e C201     		.2byte	0x1c2
 7618 2910 E3290000 		.4byte	0x29e3
 7619 2914 04       		.byte	0x4
 7620 2915 0A       		.uleb128 0xa
 7621 2916 E7050000 		.4byte	.LASF336
 7622 291a 31       		.byte	0x31
 7623 291b C701     		.2byte	0x1c7
 7624 291d D2020000 		.4byte	0x2d2
 7625 2921 08       		.byte	0x8
 7626 2922 0A       		.uleb128 0xa
 7627 2923 BF0B0000 		.4byte	.LASF337
 7628 2927 31       		.byte	0x31
 7629 2928 CD01     		.2byte	0x1cd
 7630 292a A7110000 		.4byte	0x11a7
 7631 292e 0C       		.byte	0xc
 7632 292f 09       		.uleb128 0x9
 7633 2930 73706900 		.ascii	"spi\000"
ARM GAS  C:\Users\PCHAUT~1\AppData\Local\Temp\ccOhqcVB.s 			page 135


 7634 2934 31       		.byte	0x31
 7635 2935 D601     		.2byte	0x1d6
 7636 2937 D2230000 		.4byte	0x23d2
 7637 293b 20       		.byte	0x20
 7638 293c 0A       		.uleb128 0xa
 7639 293d 37010000 		.4byte	.LASF467
 7640 2941 31       		.byte	0x31
 7641 2942 DA01     		.2byte	0x1da
 7642 2944 A6190000 		.4byte	0x19a6
 7643 2948 24       		.byte	0x24
 7644 2949 0A       		.uleb128 0xa
 7645 294a E8010000 		.4byte	.LASF468
 7646 294e 31       		.byte	0x31
 7647 294f DE01     		.2byte	0x1de
 7648 2951 A6190000 		.4byte	0x19a6
 7649 2955 28       		.byte	0x28
 7650 2956 0A       		.uleb128 0xa
 7651 2957 21070000 		.4byte	.LASF465
 7652 295b 31       		.byte	0x31
 7653 295c E201     		.2byte	0x1e2
 7654 295e F5000000 		.4byte	0xf5
 7655 2962 2C       		.byte	0x2c
 7656 2963 0A       		.uleb128 0xa
 7657 2964 61070000 		.4byte	.LASF466
 7658 2968 31       		.byte	0x31
 7659 2969 E601     		.2byte	0x1e6
 7660 296b F5000000 		.4byte	0xf5
 7661 296f 30       		.byte	0x30
 7662 2970 00       		.byte	0
 7663 2971 1A       		.uleb128 0x1a
 7664 2972 AC120000 		.4byte	.LASF547
 7665 2976 31       		.byte	0x31
 7666 2977 9E01     		.2byte	0x19e
 7667 2979 7D290000 		.4byte	0x297d
 7668 297d 0B       		.uleb128 0xb
 7669 297e 04       		.byte	0x4
 7670 297f 83290000 		.4byte	0x2983
 7671 2983 0D       		.uleb128 0xd
 7672 2984 8E290000 		.4byte	0x298e
 7673 2988 0E       		.uleb128 0xe
 7674 2989 8E290000 		.4byte	0x298e
 7675 298d 00       		.byte	0
 7676 298e 0B       		.uleb128 0xb
 7677 298f 04       		.byte	0x4
 7678 2990 E2280000 		.4byte	0x28e2
 7679 2994 19       		.uleb128 0x19
 7680 2995 0C       		.byte	0xc
 7681 2996 31       		.byte	0x31
 7682 2997 A301     		.2byte	0x1a3
 7683 2999 D2290000 		.4byte	0x29d2
 7684 299d 0A       		.uleb128 0xa
 7685 299e F8080000 		.4byte	.LASF344
 7686 29a2 31       		.byte	0x31
 7687 29a3 A701     		.2byte	0x1a7
 7688 29a5 71290000 		.4byte	0x2971
 7689 29a9 00       		.byte	0
 7690 29aa 0A       		.uleb128 0xa
ARM GAS  C:\Users\PCHAUT~1\AppData\Local\Temp\ccOhqcVB.s 			page 136


 7691 29ab DE1D0000 		.4byte	.LASF548
 7692 29af 31       		.byte	0x31
 7693 29b0 AC01     		.2byte	0x1ac
 7694 29b2 37170000 		.4byte	0x1737
 7695 29b6 04       		.byte	0x4
 7696 29b7 0A       		.uleb128 0xa
 7697 29b8 5B070000 		.4byte	.LASF549
 7698 29bc 31       		.byte	0x31
 7699 29bd B001     		.2byte	0x1b0
 7700 29bf DA000000 		.4byte	0xda
 7701 29c3 08       		.byte	0x8
 7702 29c4 09       		.uleb128 0x9
 7703 29c5 63723100 		.ascii	"cr1\000"
 7704 29c9 31       		.byte	0x31
 7705 29ca B401     		.2byte	0x1b4
 7706 29cc DA000000 		.4byte	0xda
 7707 29d0 0A       		.byte	0xa
 7708 29d1 00       		.byte	0
 7709 29d2 1A       		.uleb128 0x1a
 7710 29d3 8F1B0000 		.4byte	.LASF550
 7711 29d7 31       		.byte	0x31
 7712 29d8 B501     		.2byte	0x1b5
 7713 29da 94290000 		.4byte	0x2994
 7714 29de 05       		.uleb128 0x5
 7715 29df D2290000 		.4byte	0x29d2
 7716 29e3 0B       		.uleb128 0xb
 7717 29e4 04       		.byte	0x4
 7718 29e5 DE290000 		.4byte	0x29de
 7719 29e9 15       		.uleb128 0x15
 7720 29ea D5140000 		.4byte	.LASF551
 7721 29ee 31       		.byte	0x31
 7722 29ef F201     		.2byte	0x1f2
 7723 29f1 E2280000 		.4byte	0x28e2
 7724 29f5 03       		.uleb128 0x3
 7725 29f6 680F0000 		.4byte	.LASF552
 7726 29fa 32       		.byte	0x32
 7727 29fb FA       		.byte	0xfa
 7728 29fc 002A0000 		.4byte	0x2a00
 7729 2a00 10       		.uleb128 0x10
 7730 2a01 680F0000 		.4byte	.LASF552
 7731 2a05 6002     		.2byte	0x260
 7732 2a07 33       		.byte	0x33
 7733 2a08 7701     		.2byte	0x177
 7734 2a0a 2C2B0000 		.4byte	0x2b2c
 7735 2a0e 0A       		.uleb128 0xa
 7736 2a0f 2C130000 		.4byte	.LASF331
 7737 2a13 33       		.byte	0x33
 7738 2a14 7B01     		.2byte	0x17b
 7739 2a16 642B0000 		.4byte	0x2b64
 7740 2a1a 00       		.byte	0
 7741 2a1b 0A       		.uleb128 0xa
 7742 2a1c DF170000 		.4byte	.LASF332
 7743 2a20 33       		.byte	0x33
 7744 2a21 7F01     		.2byte	0x17f
 7745 2a23 87340000 		.4byte	0x3487
 7746 2a27 04       		.byte	0x4
 7747 2a28 0A       		.uleb128 0xa
ARM GAS  C:\Users\PCHAUT~1\AppData\Local\Temp\ccOhqcVB.s 			page 137


 7748 2a29 B21B0000 		.4byte	.LASF553
 7749 2a2d 33       		.byte	0x33
 7750 2a2e 8301     		.2byte	0x183
 7751 2a30 DA000000 		.4byte	0xda
 7752 2a34 08       		.byte	0x8
 7753 2a35 0A       		.uleb128 0xa
 7754 2a36 051E0000 		.4byte	.LASF554
 7755 2a3a 33       		.byte	0x33
 7756 2a3b 8701     		.2byte	0x187
 7757 2a3d DA000000 		.4byte	0xda
 7758 2a41 0A       		.byte	0xa
 7759 2a42 09       		.uleb128 0x9
 7760 2a43 65706300 		.ascii	"epc\000"
 7761 2a47 33       		.byte	0x33
 7762 2a48 8B01     		.2byte	0x18b
 7763 2a4a 8D340000 		.4byte	0x348d
 7764 2a4e 0C       		.byte	0xc
 7765 2a4f 0A       		.uleb128 0xa
 7766 2a50 19060000 		.4byte	.LASF555
 7767 2a54 33       		.byte	0x33
 7768 2a55 9201     		.2byte	0x192
 7769 2a57 A3340000 		.4byte	0x34a3
 7770 2a5b 1C       		.byte	0x1c
 7771 2a5c 0A       		.uleb128 0xa
 7772 2a5d 470B0000 		.4byte	.LASF556
 7773 2a61 33       		.byte	0x33
 7774 2a62 9901     		.2byte	0x199
 7775 2a64 A3340000 		.4byte	0x34a3
 7776 2a68 28       		.byte	0x28
 7777 2a69 0A       		.uleb128 0xa
 7778 2a6a 0D0E0000 		.4byte	.LASF557
 7779 2a6e 33       		.byte	0x33
 7780 2a6f 9D01     		.2byte	0x19d
 7781 2a71 A92B0000 		.4byte	0x2ba9
 7782 2a75 34       		.byte	0x34
 7783 2a76 0A       		.uleb128 0xa
 7784 2a77 76170000 		.4byte	.LASF558
 7785 2a7b 33       		.byte	0x33
 7786 2a7c A101     		.2byte	0x1a1
 7787 2a7e D0120000 		.4byte	0x12d0
 7788 2a82 38       		.byte	0x38
 7789 2a83 0A       		.uleb128 0xa
 7790 2a84 63140000 		.4byte	.LASF559
 7791 2a88 33       		.byte	0x33
 7792 2a89 A501     		.2byte	0x1a5
 7793 2a8b 2C000000 		.4byte	0x2c
 7794 2a8f 3C       		.byte	0x3c
 7795 2a90 0A       		.uleb128 0xa
 7796 2a91 6D190000 		.4byte	.LASF560
 7797 2a95 33       		.byte	0x33
 7798 2a96 A901     		.2byte	0x1a9
 7799 2a98 292C0000 		.4byte	0x2c29
 7800 2a9c 40       		.byte	0x40
 7801 2a9d 0A       		.uleb128 0xa
 7802 2a9e F7050000 		.4byte	.LASF561
 7803 2aa2 33       		.byte	0x33
 7804 2aa3 AD01     		.2byte	0x1ad
ARM GAS  C:\Users\PCHAUT~1\AppData\Local\Temp\ccOhqcVB.s 			page 138


 7805 2aa5 071A0000 		.4byte	0x1a07
 7806 2aa9 44       		.byte	0x44
 7807 2aaa 0A       		.uleb128 0xa
 7808 2aab 84120000 		.4byte	.LASF562
 7809 2aaf 33       		.byte	0x33
 7810 2ab0 B101     		.2byte	0x1b1
 7811 2ab2 DA000000 		.4byte	0xda
 7812 2ab6 4C       		.byte	0x4c
 7813 2ab7 0A       		.uleb128 0xa
 7814 2ab8 BA120000 		.4byte	.LASF563
 7815 2abc 33       		.byte	0x33
 7816 2abd B501     		.2byte	0x1b5
 7817 2abf BF000000 		.4byte	0xbf
 7818 2ac3 4E       		.byte	0x4e
 7819 2ac4 0A       		.uleb128 0xa
 7820 2ac5 DF160000 		.4byte	.LASF564
 7821 2ac9 33       		.byte	0x33
 7822 2aca B901     		.2byte	0x1b9
 7823 2acc BF000000 		.4byte	0xbf
 7824 2ad0 4F       		.byte	0x4f
 7825 2ad1 09       		.uleb128 0x9
 7826 2ad2 6F746700 		.ascii	"otg\000"
 7827 2ad6 33       		.byte	0x33
 7828 2ad7 C101     		.2byte	0x1c1
 7829 2ad9 B3340000 		.4byte	0x34b3
 7830 2add 50       		.byte	0x50
 7831 2ade 0A       		.uleb128 0xa
 7832 2adf AA0C0000 		.4byte	.LASF565
 7833 2ae3 33       		.byte	0x33
 7834 2ae4 C501     		.2byte	0x1c5
 7835 2ae6 B9340000 		.4byte	0x34b9
 7836 2aea 54       		.byte	0x54
 7837 2aeb 0A       		.uleb128 0xa
 7838 2aec 831A0000 		.4byte	.LASF566
 7839 2af0 33       		.byte	0x33
 7840 2af1 C901     		.2byte	0x1c9
 7841 2af3 F5000000 		.4byte	0xf5
 7842 2af7 58       		.byte	0x58
 7843 2af8 0A       		.uleb128 0xa
 7844 2af9 DE0B0000 		.4byte	.LASF567
 7845 2afd 33       		.byte	0x33
 7846 2afe CD01     		.2byte	0x1cd
 7847 2b00 F5000000 		.4byte	0xf5
 7848 2b04 5C       		.byte	0x5c
 7849 2b05 0A       		.uleb128 0xa
 7850 2b06 DB060000 		.4byte	.LASF568
 7851 2b0a 33       		.byte	0x33
 7852 2b0b D101     		.2byte	0x1d1
 7853 2b0d D2020000 		.4byte	0x2d2
 7854 2b11 60       		.byte	0x60
 7855 2b12 09       		.uleb128 0x9
 7856 2b13 747200   		.ascii	"tr\000"
 7857 2b16 33       		.byte	0x33
 7858 2b17 D601     		.2byte	0x1d6
 7859 2b19 D2020000 		.4byte	0x2d2
 7860 2b1d 64       		.byte	0x64
 7861 2b1e 0A       		.uleb128 0xa
ARM GAS  C:\Users\PCHAUT~1\AppData\Local\Temp\ccOhqcVB.s 			page 139


 7862 2b1f B1110000 		.4byte	.LASF569
 7863 2b23 33       		.byte	0x33
 7864 2b24 DA01     		.2byte	0x1da
 7865 2b26 BF340000 		.4byte	0x34bf
 7866 2b2a 68       		.byte	0x68
 7867 2b2b 00       		.byte	0
 7868 2b2c 03       		.uleb128 0x3
 7869 2b2d 5C090000 		.4byte	.LASF570
 7870 2b31 32       		.byte	0x32
 7871 2b32 FF       		.byte	0xff
 7872 2b33 BF000000 		.4byte	0xbf
 7873 2b37 24       		.uleb128 0x24
 7874 2b38 07       		.byte	0x7
 7875 2b39 01       		.byte	0x1
 7876 2b3a 5E000000 		.4byte	0x5e
 7877 2b3e 32       		.byte	0x32
 7878 2b3f 0401     		.2byte	0x104
 7879 2b41 642B0000 		.4byte	0x2b64
 7880 2b45 22       		.uleb128 0x22
 7881 2b46 991E0000 		.4byte	.LASF571
 7882 2b4a 00       		.byte	0
 7883 2b4b 22       		.uleb128 0x22
 7884 2b4c 1F000000 		.4byte	.LASF572
 7885 2b50 01       		.byte	0x1
 7886 2b51 22       		.uleb128 0x22
 7887 2b52 B1100000 		.4byte	.LASF573
 7888 2b56 02       		.byte	0x2
 7889 2b57 22       		.uleb128 0x22
 7890 2b58 91150000 		.4byte	.LASF574
 7891 2b5c 03       		.byte	0x3
 7892 2b5d 22       		.uleb128 0x22
 7893 2b5e F3060000 		.4byte	.LASF575
 7894 2b62 04       		.byte	0x4
 7895 2b63 00       		.byte	0
 7896 2b64 1A       		.uleb128 0x1a
 7897 2b65 A01F0000 		.4byte	.LASF576
 7898 2b69 32       		.byte	0x32
 7899 2b6a 0A01     		.2byte	0x10a
 7900 2b6c 372B0000 		.4byte	0x2b37
 7901 2b70 24       		.uleb128 0x24
 7902 2b71 07       		.byte	0x7
 7903 2b72 01       		.byte	0x1
 7904 2b73 5E000000 		.4byte	0x5e
 7905 2b77 32       		.byte	0x32
 7906 2b78 1801     		.2byte	0x118
 7907 2b7a A92B0000 		.4byte	0x2ba9
 7908 2b7e 22       		.uleb128 0x22
 7909 2b7f 2C190000 		.4byte	.LASF577
 7910 2b83 00       		.byte	0
 7911 2b84 22       		.uleb128 0x22
 7912 2b85 020E0000 		.4byte	.LASF578
 7913 2b89 01       		.byte	0x1
 7914 2b8a 22       		.uleb128 0x22
 7915 2b8b 62170000 		.4byte	.LASF579
 7916 2b8f 02       		.byte	0x2
 7917 2b90 22       		.uleb128 0x22
 7918 2b91 4A130000 		.4byte	.LASF580
ARM GAS  C:\Users\PCHAUT~1\AppData\Local\Temp\ccOhqcVB.s 			page 140


 7919 2b95 03       		.byte	0x3
 7920 2b96 22       		.uleb128 0x22
 7921 2b97 6F120000 		.4byte	.LASF581
 7922 2b9b 04       		.byte	0x4
 7923 2b9c 22       		.uleb128 0x22
 7924 2b9d D70E0000 		.4byte	.LASF582
 7925 2ba1 05       		.byte	0x5
 7926 2ba2 22       		.uleb128 0x22
 7927 2ba3 8F0D0000 		.4byte	.LASF583
 7928 2ba7 06       		.byte	0x6
 7929 2ba8 00       		.byte	0
 7930 2ba9 1A       		.uleb128 0x1a
 7931 2baa 0D0F0000 		.4byte	.LASF584
 7932 2bae 32       		.byte	0x32
 7933 2baf 2001     		.2byte	0x120
 7934 2bb1 702B0000 		.4byte	0x2b70
 7935 2bb5 24       		.uleb128 0x24
 7936 2bb6 07       		.byte	0x7
 7937 2bb7 01       		.byte	0x1
 7938 2bb8 5E000000 		.4byte	0x5e
 7939 2bbc 32       		.byte	0x32
 7940 2bbd 2501     		.2byte	0x125
 7941 2bbf E82B0000 		.4byte	0x2be8
 7942 2bc3 22       		.uleb128 0x22
 7943 2bc4 C6180000 		.4byte	.LASF585
 7944 2bc8 00       		.byte	0
 7945 2bc9 22       		.uleb128 0x22
 7946 2bca FD150000 		.4byte	.LASF586
 7947 2bce 01       		.byte	0x1
 7948 2bcf 22       		.uleb128 0x22
 7949 2bd0 76110000 		.4byte	.LASF587
 7950 2bd4 02       		.byte	0x2
 7951 2bd5 22       		.uleb128 0x22
 7952 2bd6 F1110000 		.4byte	.LASF588
 7953 2bda 03       		.byte	0x3
 7954 2bdb 22       		.uleb128 0x22
 7955 2bdc 791D0000 		.4byte	.LASF589
 7956 2be0 04       		.byte	0x4
 7957 2be1 22       		.uleb128 0x22
 7958 2be2 39110000 		.4byte	.LASF590
 7959 2be6 05       		.byte	0x5
 7960 2be7 00       		.byte	0
 7961 2be8 1A       		.uleb128 0x1a
 7962 2be9 35160000 		.4byte	.LASF591
 7963 2bed 32       		.byte	0x32
 7964 2bee 2C01     		.2byte	0x12c
 7965 2bf0 B52B0000 		.4byte	0x2bb5
 7966 2bf4 19       		.uleb128 0x19
 7967 2bf5 08       		.byte	0x8
 7968 2bf6 32       		.byte	0x32
 7969 2bf7 3101     		.2byte	0x131
 7970 2bf9 182C0000 		.4byte	0x2c18
 7971 2bfd 0A       		.uleb128 0xa
 7972 2bfe 341F0000 		.4byte	.LASF592
 7973 2c02 32       		.byte	0x32
 7974 2c03 3501     		.2byte	0x135
 7975 2c05 2C000000 		.4byte	0x2c
ARM GAS  C:\Users\PCHAUT~1\AppData\Local\Temp\ccOhqcVB.s 			page 141


 7976 2c09 00       		.byte	0
 7977 2c0a 0A       		.uleb128 0xa
 7978 2c0b C5030000 		.4byte	.LASF593
 7979 2c0f 32       		.byte	0x32
 7980 2c10 3901     		.2byte	0x139
 7981 2c12 05130000 		.4byte	0x1305
 7982 2c16 04       		.byte	0x4
 7983 2c17 00       		.byte	0
 7984 2c18 1A       		.uleb128 0x1a
 7985 2c19 9E120000 		.4byte	.LASF594
 7986 2c1d 32       		.byte	0x32
 7987 2c1e 3A01     		.2byte	0x13a
 7988 2c20 F42B0000 		.4byte	0x2bf4
 7989 2c24 05       		.uleb128 0x5
 7990 2c25 182C0000 		.4byte	0x2c18
 7991 2c29 1A       		.uleb128 0x1a
 7992 2c2a D61E0000 		.4byte	.LASF595
 7993 2c2e 32       		.byte	0x32
 7994 2c2f 4201     		.2byte	0x142
 7995 2c31 352C0000 		.4byte	0x2c35
 7996 2c35 0B       		.uleb128 0xb
 7997 2c36 04       		.byte	0x4
 7998 2c37 3B2C0000 		.4byte	0x2c3b
 7999 2c3b 0D       		.uleb128 0xd
 8000 2c3c 462C0000 		.4byte	0x2c46
 8001 2c40 0E       		.uleb128 0xe
 8002 2c41 462C0000 		.4byte	0x2c46
 8003 2c45 00       		.byte	0
 8004 2c46 0B       		.uleb128 0xb
 8005 2c47 04       		.byte	0x4
 8006 2c48 F5290000 		.4byte	0x29f5
 8007 2c4c 1A       		.uleb128 0x1a
 8008 2c4d 1A040000 		.4byte	.LASF596
 8009 2c51 32       		.byte	0x32
 8010 2c52 4B01     		.2byte	0x14b
 8011 2c54 582C0000 		.4byte	0x2c58
 8012 2c58 0B       		.uleb128 0xb
 8013 2c59 04       		.byte	0x4
 8014 2c5a 5E2C0000 		.4byte	0x2c5e
 8015 2c5e 0D       		.uleb128 0xd
 8016 2c5f 6E2C0000 		.4byte	0x2c6e
 8017 2c63 0E       		.uleb128 0xe
 8018 2c64 462C0000 		.4byte	0x2c46
 8019 2c68 0E       		.uleb128 0xe
 8020 2c69 2C2B0000 		.4byte	0x2b2c
 8021 2c6d 00       		.byte	0
 8022 2c6e 1A       		.uleb128 0x1a
 8023 2c6f 590A0000 		.4byte	.LASF597
 8024 2c73 32       		.byte	0x32
 8025 2c74 5401     		.2byte	0x154
 8026 2c76 7A2C0000 		.4byte	0x2c7a
 8027 2c7a 0B       		.uleb128 0xb
 8028 2c7b 04       		.byte	0x4
 8029 2c7c 802C0000 		.4byte	0x2c80
 8030 2c80 0D       		.uleb128 0xd
 8031 2c81 902C0000 		.4byte	0x2c90
 8032 2c85 0E       		.uleb128 0xe
ARM GAS  C:\Users\PCHAUT~1\AppData\Local\Temp\ccOhqcVB.s 			page 142


 8033 2c86 462C0000 		.4byte	0x2c46
 8034 2c8a 0E       		.uleb128 0xe
 8035 2c8b E82B0000 		.4byte	0x2be8
 8036 2c8f 00       		.byte	0
 8037 2c90 1A       		.uleb128 0x1a
 8038 2c91 63050000 		.4byte	.LASF598
 8039 2c95 32       		.byte	0x32
 8040 2c96 6001     		.2byte	0x160
 8041 2c98 9C2C0000 		.4byte	0x2c9c
 8042 2c9c 0B       		.uleb128 0xb
 8043 2c9d 04       		.byte	0x4
 8044 2c9e A22C0000 		.4byte	0x2ca2
 8045 2ca2 20       		.uleb128 0x20
 8046 2ca3 EC140000 		.4byte	0x14ec
 8047 2ca7 B12C0000 		.4byte	0x2cb1
 8048 2cab 0E       		.uleb128 0xe
 8049 2cac 462C0000 		.4byte	0x2c46
 8050 2cb0 00       		.byte	0
 8051 2cb1 1A       		.uleb128 0x1a
 8052 2cb2 DD0D0000 		.4byte	.LASF599
 8053 2cb6 32       		.byte	0x32
 8054 2cb7 6501     		.2byte	0x165
 8055 2cb9 BD2C0000 		.4byte	0x2cbd
 8056 2cbd 0B       		.uleb128 0xb
 8057 2cbe 04       		.byte	0x4
 8058 2cbf C32C0000 		.4byte	0x2cc3
 8059 2cc3 20       		.uleb128 0x20
 8060 2cc4 E12C0000 		.4byte	0x2ce1
 8061 2cc8 E12C0000 		.4byte	0x2ce1
 8062 2ccc 0E       		.uleb128 0xe
 8063 2ccd 462C0000 		.4byte	0x2c46
 8064 2cd1 0E       		.uleb128 0xe
 8065 2cd2 BF000000 		.4byte	0xbf
 8066 2cd6 0E       		.uleb128 0xe
 8067 2cd7 BF000000 		.4byte	0xbf
 8068 2cdb 0E       		.uleb128 0xe
 8069 2cdc DA000000 		.4byte	0xda
 8070 2ce0 00       		.byte	0
 8071 2ce1 0B       		.uleb128 0xb
 8072 2ce2 04       		.byte	0x4
 8073 2ce3 242C0000 		.4byte	0x2c24
 8074 2ce7 17       		.uleb128 0x17
 8075 2ce8 20       		.byte	0x20
 8076 2ce9 34       		.byte	0x34
 8077 2cea 35       		.byte	0x35
 8078 2ceb 502D0000 		.4byte	0x2d50
 8079 2cef 08       		.uleb128 0x8
 8080 2cf0 D3020000 		.4byte	.LASF600
 8081 2cf4 34       		.byte	0x34
 8082 2cf5 36       		.byte	0x36
 8083 2cf6 00010000 		.4byte	0x100
 8084 2cfa 00       		.byte	0
 8085 2cfb 08       		.uleb128 0x8
 8086 2cfc 1C0C0000 		.4byte	.LASF601
 8087 2d00 34       		.byte	0x34
 8088 2d01 38       		.byte	0x38
 8089 2d02 00010000 		.4byte	0x100
ARM GAS  C:\Users\PCHAUT~1\AppData\Local\Temp\ccOhqcVB.s 			page 143


 8090 2d06 04       		.byte	0x4
 8091 2d07 08       		.uleb128 0x8
 8092 2d08 60020000 		.4byte	.LASF602
 8093 2d0c 34       		.byte	0x34
 8094 2d0d 39       		.byte	0x39
 8095 2d0e 00010000 		.4byte	0x100
 8096 2d12 08       		.byte	0x8
 8097 2d13 08       		.uleb128 0x8
 8098 2d14 D6170000 		.4byte	.LASF603
 8099 2d18 34       		.byte	0x34
 8100 2d19 3A       		.byte	0x3a
 8101 2d1a 00010000 		.4byte	0x100
 8102 2d1e 0C       		.byte	0xc
 8103 2d1f 08       		.uleb128 0x8
 8104 2d20 6F110000 		.4byte	.LASF604
 8105 2d24 34       		.byte	0x34
 8106 2d25 3C       		.byte	0x3c
 8107 2d26 00010000 		.4byte	0x100
 8108 2d2a 10       		.byte	0x10
 8109 2d2b 08       		.uleb128 0x8
 8110 2d2c 480C0000 		.4byte	.LASF605
 8111 2d30 34       		.byte	0x34
 8112 2d31 3E       		.byte	0x3e
 8113 2d32 00010000 		.4byte	0x100
 8114 2d36 14       		.byte	0x14
 8115 2d37 08       		.uleb128 0x8
 8116 2d38 500C0000 		.4byte	.LASF606
 8117 2d3c 34       		.byte	0x34
 8118 2d3d 3F       		.byte	0x3f
 8119 2d3e 00010000 		.4byte	0x100
 8120 2d42 18       		.byte	0x18
 8121 2d43 08       		.uleb128 0x8
 8122 2d44 73030000 		.4byte	.LASF607
 8123 2d48 34       		.byte	0x34
 8124 2d49 40       		.byte	0x40
 8125 2d4a 00010000 		.4byte	0x100
 8126 2d4e 1C       		.byte	0x1c
 8127 2d4f 00       		.byte	0
 8128 2d50 03       		.uleb128 0x3
 8129 2d51 7E170000 		.4byte	.LASF608
 8130 2d55 34       		.byte	0x34
 8131 2d56 41       		.byte	0x41
 8132 2d57 E72C0000 		.4byte	0x2ce7
 8133 2d5b 17       		.uleb128 0x17
 8134 2d5c 20       		.byte	0x20
 8135 2d5d 34       		.byte	0x34
 8136 2d5e 46       		.byte	0x46
 8137 2d5f C42D0000 		.4byte	0x2dc4
 8138 2d63 08       		.uleb128 0x8
 8139 2d64 980C0000 		.4byte	.LASF609
 8140 2d68 34       		.byte	0x34
 8141 2d69 47       		.byte	0x47
 8142 2d6a 00010000 		.4byte	0x100
 8143 2d6e 00       		.byte	0
 8144 2d6f 08       		.uleb128 0x8
 8145 2d70 610F0000 		.4byte	.LASF610
 8146 2d74 34       		.byte	0x34
ARM GAS  C:\Users\PCHAUT~1\AppData\Local\Temp\ccOhqcVB.s 			page 144


 8147 2d75 49       		.byte	0x49
 8148 2d76 00010000 		.4byte	0x100
 8149 2d7a 04       		.byte	0x4
 8150 2d7b 08       		.uleb128 0x8
 8151 2d7c 021B0000 		.4byte	.LASF611
 8152 2d80 34       		.byte	0x34
 8153 2d81 4A       		.byte	0x4a
 8154 2d82 00010000 		.4byte	0x100
 8155 2d86 08       		.byte	0x8
 8156 2d87 08       		.uleb128 0x8
 8157 2d88 850F0000 		.4byte	.LASF612
 8158 2d8c 34       		.byte	0x34
 8159 2d8d 4C       		.byte	0x4c
 8160 2d8e 00010000 		.4byte	0x100
 8161 2d92 0C       		.byte	0xc
 8162 2d93 08       		.uleb128 0x8
 8163 2d94 D9130000 		.4byte	.LASF613
 8164 2d98 34       		.byte	0x34
 8165 2d99 4D       		.byte	0x4d
 8166 2d9a 00010000 		.4byte	0x100
 8167 2d9e 10       		.byte	0x10
 8168 2d9f 08       		.uleb128 0x8
 8169 2da0 480C0000 		.4byte	.LASF605
 8170 2da4 34       		.byte	0x34
 8171 2da5 4F       		.byte	0x4f
 8172 2da6 00010000 		.4byte	0x100
 8173 2daa 14       		.byte	0x14
 8174 2dab 08       		.uleb128 0x8
 8175 2dac 08060000 		.4byte	.LASF614
 8176 2db0 34       		.byte	0x34
 8177 2db1 50       		.byte	0x50
 8178 2db2 00010000 		.4byte	0x100
 8179 2db6 18       		.byte	0x18
 8180 2db7 08       		.uleb128 0x8
 8181 2db8 EB1A0000 		.4byte	.LASF615
 8182 2dbc 34       		.byte	0x34
 8183 2dbd 52       		.byte	0x52
 8184 2dbe 00010000 		.4byte	0x100
 8185 2dc2 1C       		.byte	0x1c
 8186 2dc3 00       		.byte	0
 8187 2dc4 03       		.uleb128 0x3
 8188 2dc5 FE060000 		.4byte	.LASF616
 8189 2dc9 34       		.byte	0x34
 8190 2dca 53       		.byte	0x53
 8191 2dcb 5B2D0000 		.4byte	0x2d5b
 8192 2dcf 17       		.uleb128 0x17
 8193 2dd0 20       		.byte	0x20
 8194 2dd1 34       		.byte	0x34
 8195 2dd2 58       		.byte	0x58
 8196 2dd3 382E0000 		.4byte	0x2e38
 8197 2dd7 08       		.uleb128 0x8
 8198 2dd8 CE170000 		.4byte	.LASF617
 8199 2ddc 34       		.byte	0x34
 8200 2ddd 59       		.byte	0x59
 8201 2dde 00010000 		.4byte	0x100
 8202 2de2 00       		.byte	0
 8203 2de3 08       		.uleb128 0x8
ARM GAS  C:\Users\PCHAUT~1\AppData\Local\Temp\ccOhqcVB.s 			page 145


 8204 2de4 610F0000 		.4byte	.LASF610
 8205 2de8 34       		.byte	0x34
 8206 2de9 5B       		.byte	0x5b
 8207 2dea 00010000 		.4byte	0x100
 8208 2dee 04       		.byte	0x4
 8209 2def 08       		.uleb128 0x8
 8210 2df0 09150000 		.4byte	.LASF618
 8211 2df4 34       		.byte	0x34
 8212 2df5 5C       		.byte	0x5c
 8213 2df6 00010000 		.4byte	0x100
 8214 2dfa 08       		.byte	0x8
 8215 2dfb 08       		.uleb128 0x8
 8216 2dfc 850F0000 		.4byte	.LASF612
 8217 2e00 34       		.byte	0x34
 8218 2e01 5E       		.byte	0x5e
 8219 2e02 00010000 		.4byte	0x100
 8220 2e06 0C       		.byte	0xc
 8221 2e07 08       		.uleb128 0x8
 8222 2e08 0E1C0000 		.4byte	.LASF619
 8223 2e0c 34       		.byte	0x34
 8224 2e0d 5F       		.byte	0x5f
 8225 2e0e 00010000 		.4byte	0x100
 8226 2e12 10       		.byte	0x10
 8227 2e13 08       		.uleb128 0x8
 8228 2e14 480C0000 		.4byte	.LASF605
 8229 2e18 34       		.byte	0x34
 8230 2e19 61       		.byte	0x61
 8231 2e1a 00010000 		.4byte	0x100
 8232 2e1e 14       		.byte	0x14
 8233 2e1f 08       		.uleb128 0x8
 8234 2e20 500C0000 		.4byte	.LASF606
 8235 2e24 34       		.byte	0x34
 8236 2e25 62       		.byte	0x62
 8237 2e26 00010000 		.4byte	0x100
 8238 2e2a 18       		.byte	0x18
 8239 2e2b 08       		.uleb128 0x8
 8240 2e2c EB1A0000 		.4byte	.LASF615
 8241 2e30 34       		.byte	0x34
 8242 2e31 63       		.byte	0x63
 8243 2e32 00010000 		.4byte	0x100
 8244 2e36 1C       		.byte	0x1c
 8245 2e37 00       		.byte	0
 8246 2e38 03       		.uleb128 0x3
 8247 2e39 AA060000 		.4byte	.LASF620
 8248 2e3d 34       		.byte	0x34
 8249 2e3e 64       		.byte	0x64
 8250 2e3f CF2D0000 		.4byte	0x2dcf
 8251 2e43 26       		.uleb128 0x26
 8252 2e44 00100100 		.4byte	0x11000
 8253 2e48 34       		.byte	0x34
 8254 2e49 69       		.byte	0x69
 8255 2e4a 20310000 		.4byte	0x3120
 8256 2e4e 08       		.uleb128 0x8
 8257 2e4f 09040000 		.4byte	.LASF621
 8258 2e53 34       		.byte	0x34
 8259 2e54 6A       		.byte	0x6a
 8260 2e55 00010000 		.4byte	0x100
ARM GAS  C:\Users\PCHAUT~1\AppData\Local\Temp\ccOhqcVB.s 			page 146


 8261 2e59 00       		.byte	0
 8262 2e5a 08       		.uleb128 0x8
 8263 2e5b 230B0000 		.4byte	.LASF622
 8264 2e5f 34       		.byte	0x34
 8265 2e60 6B       		.byte	0x6b
 8266 2e61 00010000 		.4byte	0x100
 8267 2e65 04       		.byte	0x4
 8268 2e66 08       		.uleb128 0x8
 8269 2e67 3E060000 		.4byte	.LASF623
 8270 2e6b 34       		.byte	0x34
 8271 2e6c 6C       		.byte	0x6c
 8272 2e6d 00010000 		.4byte	0x100
 8273 2e71 08       		.byte	0x8
 8274 2e72 08       		.uleb128 0x8
 8275 2e73 E41E0000 		.4byte	.LASF624
 8276 2e77 34       		.byte	0x34
 8277 2e78 6D       		.byte	0x6d
 8278 2e79 00010000 		.4byte	0x100
 8279 2e7d 0C       		.byte	0xc
 8280 2e7e 08       		.uleb128 0x8
 8281 2e7f 00110000 		.4byte	.LASF625
 8282 2e83 34       		.byte	0x34
 8283 2e84 6E       		.byte	0x6e
 8284 2e85 00010000 		.4byte	0x100
 8285 2e89 10       		.byte	0x10
 8286 2e8a 08       		.uleb128 0x8
 8287 2e8b B80A0000 		.4byte	.LASF626
 8288 2e8f 34       		.byte	0x34
 8289 2e90 6F       		.byte	0x6f
 8290 2e91 00010000 		.4byte	0x100
 8291 2e95 14       		.byte	0x14
 8292 2e96 08       		.uleb128 0x8
 8293 2e97 CE160000 		.4byte	.LASF627
 8294 2e9b 34       		.byte	0x34
 8295 2e9c 70       		.byte	0x70
 8296 2e9d 00010000 		.4byte	0x100
 8297 2ea1 18       		.byte	0x18
 8298 2ea2 08       		.uleb128 0x8
 8299 2ea3 C5060000 		.4byte	.LASF628
 8300 2ea7 34       		.byte	0x34
 8301 2ea8 71       		.byte	0x71
 8302 2ea9 00010000 		.4byte	0x100
 8303 2ead 1C       		.byte	0x1c
 8304 2eae 08       		.uleb128 0x8
 8305 2eaf BD060000 		.4byte	.LASF629
 8306 2eb3 34       		.byte	0x34
 8307 2eb4 73       		.byte	0x73
 8308 2eb5 00010000 		.4byte	0x100
 8309 2eb9 20       		.byte	0x20
 8310 2eba 08       		.uleb128 0x8
 8311 2ebb 8C160000 		.4byte	.LASF630
 8312 2ebf 34       		.byte	0x34
 8313 2ec0 75       		.byte	0x75
 8314 2ec1 00010000 		.4byte	0x100
 8315 2ec5 24       		.byte	0x24
 8316 2ec6 08       		.uleb128 0x8
 8317 2ec7 E7000000 		.4byte	.LASF631
ARM GAS  C:\Users\PCHAUT~1\AppData\Local\Temp\ccOhqcVB.s 			page 147


 8318 2ecb 34       		.byte	0x34
 8319 2ecc 76       		.byte	0x76
 8320 2ecd 00010000 		.4byte	0x100
 8321 2ed1 28       		.byte	0x28
 8322 2ed2 08       		.uleb128 0x8
 8323 2ed3 D6160000 		.4byte	.LASF632
 8324 2ed7 34       		.byte	0x34
 8325 2ed8 78       		.byte	0x78
 8326 2ed9 00010000 		.4byte	0x100
 8327 2edd 2C       		.byte	0x2c
 8328 2ede 08       		.uleb128 0x8
 8329 2edf 5B0D0000 		.4byte	.LASF633
 8330 2ee3 34       		.byte	0x34
 8331 2ee4 7A       		.byte	0x7a
 8332 2ee5 00010000 		.4byte	0x100
 8333 2ee9 30       		.byte	0x30
 8334 2eea 08       		.uleb128 0x8
 8335 2eeb 630D0000 		.4byte	.LASF634
 8336 2eef 34       		.byte	0x34
 8337 2ef0 7B       		.byte	0x7b
 8338 2ef1 00010000 		.4byte	0x100
 8339 2ef5 34       		.byte	0x34
 8340 2ef6 08       		.uleb128 0x8
 8341 2ef7 B6010000 		.4byte	.LASF635
 8342 2efb 34       		.byte	0x34
 8343 2efc 7C       		.byte	0x7c
 8344 2efd 00010000 		.4byte	0x100
 8345 2f01 38       		.byte	0x38
 8346 2f02 18       		.uleb128 0x18
 8347 2f03 43494400 		.ascii	"CID\000"
 8348 2f07 34       		.byte	0x34
 8349 2f08 7D       		.byte	0x7d
 8350 2f09 00010000 		.4byte	0x100
 8351 2f0d 3C       		.byte	0x3c
 8352 2f0e 08       		.uleb128 0x8
 8353 2f0f 850E0000 		.4byte	.LASF636
 8354 2f13 34       		.byte	0x34
 8355 2f14 7E       		.byte	0x7e
 8356 2f15 30310000 		.4byte	0x3130
 8357 2f19 40       		.byte	0x40
 8358 2f1a 27       		.uleb128 0x27
 8359 2f1b BD1C0000 		.4byte	.LASF637
 8360 2f1f 34       		.byte	0x34
 8361 2f20 7F       		.byte	0x7f
 8362 2f21 00010000 		.4byte	0x100
 8363 2f25 0001     		.2byte	0x100
 8364 2f27 27       		.uleb128 0x27
 8365 2f28 08020000 		.4byte	.LASF638
 8366 2f2c 34       		.byte	0x34
 8367 2f2d 81       		.byte	0x81
 8368 2f2e CC0C0000 		.4byte	0xccc
 8369 2f32 0401     		.2byte	0x104
 8370 2f34 27       		.uleb128 0x27
 8371 2f35 D0110000 		.4byte	.LASF639
 8372 2f39 34       		.byte	0x34
 8373 2f3a 83       		.byte	0x83
 8374 2f3b 45310000 		.4byte	0x3145
ARM GAS  C:\Users\PCHAUT~1\AppData\Local\Temp\ccOhqcVB.s 			page 148


 8375 2f3f 4001     		.2byte	0x140
 8376 2f41 27       		.uleb128 0x27
 8377 2f42 BD140000 		.4byte	.LASF640
 8378 2f46 34       		.byte	0x34
 8379 2f47 84       		.byte	0x84
 8380 2f48 00010000 		.4byte	0x100
 8381 2f4c 0004     		.2byte	0x400
 8382 2f4e 27       		.uleb128 0x27
 8383 2f4f 941E0000 		.4byte	.LASF641
 8384 2f53 34       		.byte	0x34
 8385 2f54 85       		.byte	0x85
 8386 2f55 00010000 		.4byte	0x100
 8387 2f59 0404     		.2byte	0x404
 8388 2f5b 27       		.uleb128 0x27
 8389 2f5c 91030000 		.4byte	.LASF642
 8390 2f60 34       		.byte	0x34
 8391 2f61 86       		.byte	0x86
 8392 2f62 00010000 		.4byte	0x100
 8393 2f66 0804     		.2byte	0x408
 8394 2f68 27       		.uleb128 0x27
 8395 2f69 371C0000 		.4byte	.LASF643
 8396 2f6d 34       		.byte	0x34
 8397 2f6e 88       		.byte	0x88
 8398 2f6f 00010000 		.4byte	0x100
 8399 2f73 0C04     		.2byte	0x40c
 8400 2f75 27       		.uleb128 0x27
 8401 2f76 A3020000 		.4byte	.LASF644
 8402 2f7a 34       		.byte	0x34
 8403 2f7b 89       		.byte	0x89
 8404 2f7c 00010000 		.4byte	0x100
 8405 2f80 1004     		.2byte	0x410
 8406 2f82 27       		.uleb128 0x27
 8407 2f83 86030000 		.4byte	.LASF645
 8408 2f87 34       		.byte	0x34
 8409 2f88 8B       		.byte	0x8b
 8410 2f89 00010000 		.4byte	0x100
 8411 2f8d 1404     		.2byte	0x414
 8412 2f8f 27       		.uleb128 0x27
 8413 2f90 3E0B0000 		.4byte	.LASF646
 8414 2f94 34       		.byte	0x34
 8415 2f95 8D       		.byte	0x8d
 8416 2f96 00010000 		.4byte	0x100
 8417 2f9a 1804     		.2byte	0x418
 8418 2f9c 27       		.uleb128 0x27
 8419 2f9d B0180000 		.4byte	.LASF647
 8420 2fa1 34       		.byte	0x34
 8421 2fa2 8F       		.byte	0x8f
 8422 2fa3 5A310000 		.4byte	0x315a
 8423 2fa7 1C04     		.2byte	0x41c
 8424 2fa9 27       		.uleb128 0x27
 8425 2faa 5B020000 		.4byte	.LASF648
 8426 2fae 34       		.byte	0x34
 8427 2faf 90       		.byte	0x90
 8428 2fb0 00010000 		.4byte	0x100
 8429 2fb4 4004     		.2byte	0x440
 8430 2fb6 27       		.uleb128 0x27
 8431 2fb7 341A0000 		.4byte	.LASF649
ARM GAS  C:\Users\PCHAUT~1\AppData\Local\Temp\ccOhqcVB.s 			page 149


 8432 2fbb 34       		.byte	0x34
 8433 2fbc 92       		.byte	0x92
 8434 2fbd 6F310000 		.4byte	0x316f
 8435 2fc1 4404     		.2byte	0x444
 8436 2fc3 28       		.uleb128 0x28
 8437 2fc4 686300   		.ascii	"hc\000"
 8438 2fc7 34       		.byte	0x34
 8439 2fc8 93       		.byte	0x93
 8440 2fc9 74310000 		.4byte	0x3174
 8441 2fcd 0005     		.2byte	0x500
 8442 2fcf 27       		.uleb128 0x27
 8443 2fd0 841C0000 		.4byte	.LASF650
 8444 2fd4 34       		.byte	0x34
 8445 2fd5 94       		.byte	0x94
 8446 2fd6 94310000 		.4byte	0x3194
 8447 2fda 0007     		.2byte	0x700
 8448 2fdc 27       		.uleb128 0x27
 8449 2fdd B0160000 		.4byte	.LASF651
 8450 2fe1 34       		.byte	0x34
 8451 2fe2 95       		.byte	0x95
 8452 2fe3 00010000 		.4byte	0x100
 8453 2fe7 0008     		.2byte	0x800
 8454 2fe9 27       		.uleb128 0x27
 8455 2fea 591D0000 		.4byte	.LASF652
 8456 2fee 34       		.byte	0x34
 8457 2fef 96       		.byte	0x96
 8458 2ff0 00010000 		.4byte	0x100
 8459 2ff4 0408     		.2byte	0x804
 8460 2ff6 27       		.uleb128 0x27
 8461 2ff7 C4040000 		.4byte	.LASF653
 8462 2ffb 34       		.byte	0x34
 8463 2ffc 97       		.byte	0x97
 8464 2ffd 00010000 		.4byte	0x100
 8465 3001 0808     		.2byte	0x808
 8466 3003 27       		.uleb128 0x27
 8467 3004 F7030000 		.4byte	.LASF654
 8468 3008 34       		.byte	0x34
 8469 3009 98       		.byte	0x98
 8470 300a 00010000 		.4byte	0x100
 8471 300e 0C08     		.2byte	0x80c
 8472 3010 27       		.uleb128 0x27
 8473 3011 1B0B0000 		.4byte	.LASF655
 8474 3015 34       		.byte	0x34
 8475 3016 99       		.byte	0x99
 8476 3017 00010000 		.4byte	0x100
 8477 301b 1008     		.2byte	0x810
 8478 301d 27       		.uleb128 0x27
 8479 301e 231B0000 		.4byte	.LASF656
 8480 3022 34       		.byte	0x34
 8481 3023 9B       		.byte	0x9b
 8482 3024 00010000 		.4byte	0x100
 8483 3028 1408     		.2byte	0x814
 8484 302a 27       		.uleb128 0x27
 8485 302b 891B0000 		.4byte	.LASF657
 8486 302f 34       		.byte	0x34
 8487 3030 9D       		.byte	0x9d
 8488 3031 00010000 		.4byte	0x100
ARM GAS  C:\Users\PCHAUT~1\AppData\Local\Temp\ccOhqcVB.s 			page 150


 8489 3035 1808     		.2byte	0x818
 8490 3037 27       		.uleb128 0x27
 8491 3038 0F190000 		.4byte	.LASF658
 8492 303c 34       		.byte	0x34
 8493 303d 9F       		.byte	0x9f
 8494 303e 00010000 		.4byte	0x100
 8495 3042 1C08     		.2byte	0x81c
 8496 3044 27       		.uleb128 0x27
 8497 3045 22050000 		.4byte	.LASF659
 8498 3049 34       		.byte	0x34
 8499 304a A1       		.byte	0xa1
 8500 304b 00010000 		.4byte	0x100
 8501 304f 2008     		.2byte	0x820
 8502 3051 27       		.uleb128 0x27
 8503 3052 41040000 		.4byte	.LASF660
 8504 3056 34       		.byte	0x34
 8505 3057 A2       		.byte	0xa2
 8506 3058 00010000 		.4byte	0x100
 8507 305c 2408     		.2byte	0x824
 8508 305e 27       		.uleb128 0x27
 8509 305f C5160000 		.4byte	.LASF661
 8510 3063 34       		.byte	0x34
 8511 3064 A3       		.byte	0xa3
 8512 3065 00010000 		.4byte	0x100
 8513 3069 2808     		.2byte	0x828
 8514 306b 27       		.uleb128 0x27
 8515 306c 6B0D0000 		.4byte	.LASF662
 8516 3070 34       		.byte	0x34
 8517 3071 A5       		.byte	0xa5
 8518 3072 00010000 		.4byte	0x100
 8519 3076 2C08     		.2byte	0x82c
 8520 3078 27       		.uleb128 0x27
 8521 3079 A8050000 		.4byte	.LASF663
 8522 307d 34       		.byte	0x34
 8523 307e A7       		.byte	0xa7
 8524 307f 00010000 		.4byte	0x100
 8525 3083 3008     		.2byte	0x830
 8526 3085 27       		.uleb128 0x27
 8527 3086 8D0C0000 		.4byte	.LASF664
 8528 308a 34       		.byte	0x34
 8529 308b A8       		.byte	0xa8
 8530 308c 00010000 		.4byte	0x100
 8531 3090 3408     		.2byte	0x834
 8532 3092 27       		.uleb128 0x27
 8533 3093 BB050000 		.4byte	.LASF665
 8534 3097 34       		.byte	0x34
 8535 3098 AA       		.byte	0xaa
 8536 3099 00010000 		.4byte	0x100
 8537 309d 3808     		.2byte	0x838
 8538 309f 27       		.uleb128 0x27
 8539 30a0 DE050000 		.4byte	.LASF666
 8540 30a4 34       		.byte	0x34
 8541 30a5 AB       		.byte	0xab
 8542 30a6 00010000 		.4byte	0x100
 8543 30aa 3C08     		.2byte	0x83c
 8544 30ac 27       		.uleb128 0x27
 8545 30ad 5E060000 		.4byte	.LASF667
ARM GAS  C:\Users\PCHAUT~1\AppData\Local\Temp\ccOhqcVB.s 			page 151


 8546 30b1 34       		.byte	0x34
 8547 30b2 AC       		.byte	0xac
 8548 30b3 A9310000 		.4byte	0x31a9
 8549 30b7 4008     		.2byte	0x840
 8550 30b9 27       		.uleb128 0x27
 8551 30ba 370C0000 		.4byte	.LASF668
 8552 30be 34       		.byte	0x34
 8553 30bf AD       		.byte	0xad
 8554 30c0 A9310000 		.4byte	0x31a9
 8555 30c4 8008     		.2byte	0x880
 8556 30c6 27       		.uleb128 0x27
 8557 30c7 720F0000 		.4byte	.LASF669
 8558 30cb 34       		.byte	0x34
 8559 30cc AE       		.byte	0xae
 8560 30cd A9310000 		.4byte	0x31a9
 8561 30d1 C008     		.2byte	0x8c0
 8562 30d3 28       		.uleb128 0x28
 8563 30d4 696500   		.ascii	"ie\000"
 8564 30d7 34       		.byte	0x34
 8565 30d8 AF       		.byte	0xaf
 8566 30d9 AE310000 		.4byte	0x31ae
 8567 30dd 0009     		.2byte	0x900
 8568 30df 28       		.uleb128 0x28
 8569 30e0 6F6500   		.ascii	"oe\000"
 8570 30e3 34       		.byte	0x34
 8571 30e4 B0       		.byte	0xb0
 8572 30e5 BE310000 		.4byte	0x31be
 8573 30e9 000B     		.2byte	0xb00
 8574 30eb 27       		.uleb128 0x27
 8575 30ec A20A0000 		.4byte	.LASF670
 8576 30f0 34       		.byte	0x34
 8577 30f1 B1       		.byte	0xb1
 8578 30f2 94310000 		.4byte	0x3194
 8579 30f6 000D     		.2byte	0xd00
 8580 30f8 27       		.uleb128 0x27
 8581 30f9 711D0000 		.4byte	.LASF671
 8582 30fd 34       		.byte	0x34
 8583 30fe B2       		.byte	0xb2
 8584 30ff 00010000 		.4byte	0x100
 8585 3103 000E     		.2byte	0xe00
 8586 3105 27       		.uleb128 0x27
 8587 3106 68140000 		.4byte	.LASF672
 8588 310a 34       		.byte	0x34
 8589 310b B4       		.byte	0xb4
 8590 310c DE310000 		.4byte	0x31de
 8591 3110 040E     		.2byte	0xe04
 8592 3112 27       		.uleb128 0x27
 8593 3113 16090000 		.4byte	.LASF173
 8594 3117 34       		.byte	0x34
 8595 3118 B5       		.byte	0xb5
 8596 3119 FA310000 		.4byte	0x31fa
 8597 311d 0010     		.2byte	0x1000
 8598 311f 00       		.byte	0
 8599 3120 13       		.uleb128 0x13
 8600 3121 00010000 		.4byte	0x100
 8601 3125 30310000 		.4byte	0x3130
 8602 3129 14       		.uleb128 0x14
ARM GAS  C:\Users\PCHAUT~1\AppData\Local\Temp\ccOhqcVB.s 			page 152


 8603 312a 37000000 		.4byte	0x37
 8604 312e 2F       		.byte	0x2f
 8605 312f 00       		.byte	0
 8606 3130 06       		.uleb128 0x6
 8607 3131 20310000 		.4byte	0x3120
 8608 3135 13       		.uleb128 0x13
 8609 3136 00010000 		.4byte	0x100
 8610 313a 45310000 		.4byte	0x3145
 8611 313e 14       		.uleb128 0x14
 8612 313f 37000000 		.4byte	0x37
 8613 3143 AF       		.byte	0xaf
 8614 3144 00       		.byte	0
 8615 3145 06       		.uleb128 0x6
 8616 3146 35310000 		.4byte	0x3135
 8617 314a 13       		.uleb128 0x13
 8618 314b 00010000 		.4byte	0x100
 8619 314f 5A310000 		.4byte	0x315a
 8620 3153 14       		.uleb128 0x14
 8621 3154 37000000 		.4byte	0x37
 8622 3158 08       		.byte	0x8
 8623 3159 00       		.byte	0
 8624 315a 06       		.uleb128 0x6
 8625 315b 4A310000 		.4byte	0x314a
 8626 315f 13       		.uleb128 0x13
 8627 3160 00010000 		.4byte	0x100
 8628 3164 6F310000 		.4byte	0x316f
 8629 3168 14       		.uleb128 0x14
 8630 3169 37000000 		.4byte	0x37
 8631 316d 2E       		.byte	0x2e
 8632 316e 00       		.byte	0
 8633 316f 06       		.uleb128 0x6
 8634 3170 5F310000 		.4byte	0x315f
 8635 3174 13       		.uleb128 0x13
 8636 3175 502D0000 		.4byte	0x2d50
 8637 3179 84310000 		.4byte	0x3184
 8638 317d 14       		.uleb128 0x14
 8639 317e 37000000 		.4byte	0x37
 8640 3182 0F       		.byte	0xf
 8641 3183 00       		.byte	0
 8642 3184 13       		.uleb128 0x13
 8643 3185 00010000 		.4byte	0x100
 8644 3189 94310000 		.4byte	0x3194
 8645 318d 14       		.uleb128 0x14
 8646 318e 37000000 		.4byte	0x37
 8647 3192 3F       		.byte	0x3f
 8648 3193 00       		.byte	0
 8649 3194 06       		.uleb128 0x6
 8650 3195 84310000 		.4byte	0x3184
 8651 3199 13       		.uleb128 0x13
 8652 319a 00010000 		.4byte	0x100
 8653 319e A9310000 		.4byte	0x31a9
 8654 31a2 14       		.uleb128 0x14
 8655 31a3 37000000 		.4byte	0x37
 8656 31a7 0F       		.byte	0xf
 8657 31a8 00       		.byte	0
 8658 31a9 06       		.uleb128 0x6
 8659 31aa 99310000 		.4byte	0x3199
ARM GAS  C:\Users\PCHAUT~1\AppData\Local\Temp\ccOhqcVB.s 			page 153


 8660 31ae 13       		.uleb128 0x13
 8661 31af C42D0000 		.4byte	0x2dc4
 8662 31b3 BE310000 		.4byte	0x31be
 8663 31b7 14       		.uleb128 0x14
 8664 31b8 37000000 		.4byte	0x37
 8665 31bc 0F       		.byte	0xf
 8666 31bd 00       		.byte	0
 8667 31be 13       		.uleb128 0x13
 8668 31bf 382E0000 		.4byte	0x2e38
 8669 31c3 CE310000 		.4byte	0x31ce
 8670 31c7 14       		.uleb128 0x14
 8671 31c8 37000000 		.4byte	0x37
 8672 31cc 0F       		.byte	0xf
 8673 31cd 00       		.byte	0
 8674 31ce 13       		.uleb128 0x13
 8675 31cf 00010000 		.4byte	0x100
 8676 31d3 DE310000 		.4byte	0x31de
 8677 31d7 14       		.uleb128 0x14
 8678 31d8 37000000 		.4byte	0x37
 8679 31dc 7E       		.byte	0x7e
 8680 31dd 00       		.byte	0
 8681 31de 06       		.uleb128 0x6
 8682 31df CE310000 		.4byte	0x31ce
 8683 31e3 13       		.uleb128 0x13
 8684 31e4 00010000 		.4byte	0x100
 8685 31e8 FA310000 		.4byte	0x31fa
 8686 31ec 14       		.uleb128 0x14
 8687 31ed 37000000 		.4byte	0x37
 8688 31f1 0F       		.byte	0xf
 8689 31f2 29       		.uleb128 0x29
 8690 31f3 37000000 		.4byte	0x37
 8691 31f7 FF03     		.2byte	0x3ff
 8692 31f9 00       		.byte	0
 8693 31fa 06       		.uleb128 0x6
 8694 31fb E3310000 		.4byte	0x31e3
 8695 31ff 03       		.uleb128 0x3
 8696 3200 091F0000 		.4byte	.LASF673
 8697 3204 34       		.byte	0x34
 8698 3205 B6       		.byte	0xb6
 8699 3206 432E0000 		.4byte	0x2e43
 8700 320a 17       		.uleb128 0x17
 8701 320b 0C       		.byte	0xc
 8702 320c 33       		.byte	0x33
 8703 320d C6       		.byte	0xc6
 8704 320e 37320000 		.4byte	0x3237
 8705 3212 08       		.uleb128 0x8
 8706 3213 B9080000 		.4byte	.LASF674
 8707 3217 33       		.byte	0x33
 8708 3218 C7       		.byte	0xc7
 8709 3219 F5000000 		.4byte	0xf5
 8710 321d 00       		.byte	0
 8711 321e 08       		.uleb128 0x8
 8712 321f 820A0000 		.4byte	.LASF675
 8713 3223 33       		.byte	0x33
 8714 3224 C8       		.byte	0xc8
 8715 3225 F5000000 		.4byte	0xf5
 8716 3229 04       		.byte	0x4
ARM GAS  C:\Users\PCHAUT~1\AppData\Local\Temp\ccOhqcVB.s 			page 154


 8717 322a 08       		.uleb128 0x8
 8718 322b B40D0000 		.4byte	.LASF676
 8719 322f 33       		.byte	0x33
 8720 3230 C9       		.byte	0xc9
 8721 3231 F5000000 		.4byte	0xf5
 8722 3235 08       		.byte	0x8
 8723 3236 00       		.byte	0
 8724 3237 03       		.uleb128 0x3
 8725 3238 8F0A0000 		.4byte	.LASF677
 8726 323c 33       		.byte	0x33
 8727 323d CA       		.byte	0xca
 8728 323e 0A320000 		.4byte	0x320a
 8729 3242 05       		.uleb128 0x5
 8730 3243 37320000 		.4byte	0x3237
 8731 3247 17       		.uleb128 0x17
 8732 3248 04       		.byte	0x4
 8733 3249 33       		.byte	0x33
 8734 324a DD       		.byte	0xdd
 8735 324b 5C320000 		.4byte	0x325c
 8736 324f 08       		.uleb128 0x8
 8737 3250 6B1D0000 		.4byte	.LASF678
 8738 3254 33       		.byte	0x33
 8739 3255 E1       		.byte	0xe1
 8740 3256 05130000 		.4byte	0x1305
 8741 325a 00       		.byte	0
 8742 325b 00       		.byte	0
 8743 325c 17       		.uleb128 0x17
 8744 325d 04       		.byte	0x4
 8745 325e 33       		.byte	0x33
 8746 325f E3       		.byte	0xe3
 8747 3260 71320000 		.4byte	0x3271
 8748 3264 08       		.uleb128 0x8
 8749 3265 25090000 		.4byte	.LASF364
 8750 3269 33       		.byte	0x33
 8751 326a E7       		.byte	0xe7
 8752 326b 71320000 		.4byte	0x3271
 8753 326f 00       		.byte	0
 8754 3270 00       		.byte	0
 8755 3271 0B       		.uleb128 0xb
 8756 3272 04       		.byte	0x4
 8757 3273 E1120000 		.4byte	0x12e1
 8758 3277 1D       		.uleb128 0x1d
 8759 3278 04       		.byte	0x4
 8760 3279 33       		.byte	0x33
 8761 327a DC       		.byte	0xdc
 8762 327b 96320000 		.4byte	0x3296
 8763 327f 2A       		.uleb128 0x2a
 8764 3280 691A0000 		.4byte	.LASF679
 8765 3284 33       		.byte	0x33
 8766 3285 E2       		.byte	0xe2
 8767 3286 47320000 		.4byte	0x3247
 8768 328a 2A       		.uleb128 0x2a
 8769 328b 67190000 		.4byte	.LASF680
 8770 328f 33       		.byte	0x33
 8771 3290 E8       		.byte	0xe8
 8772 3291 5C320000 		.4byte	0x325c
 8773 3295 00       		.byte	0
ARM GAS  C:\Users\PCHAUT~1\AppData\Local\Temp\ccOhqcVB.s 			page 155


 8774 3296 17       		.uleb128 0x17
 8775 3297 14       		.byte	0x14
 8776 3298 33       		.byte	0x33
 8777 3299 CF       		.byte	0xcf
 8778 329a DB320000 		.4byte	0x32db
 8779 329e 08       		.uleb128 0x8
 8780 329f 9B060000 		.4byte	.LASF681
 8781 32a3 33       		.byte	0x33
 8782 32a4 D3       		.byte	0xd3
 8783 32a5 EC140000 		.4byte	0x14ec
 8784 32a9 00       		.byte	0
 8785 32aa 08       		.uleb128 0x8
 8786 32ab 7C100000 		.4byte	.LASF682
 8787 32af 33       		.byte	0x33
 8788 32b0 D7       		.byte	0xd7
 8789 32b1 2C000000 		.4byte	0x2c
 8790 32b5 04       		.byte	0x4
 8791 32b6 08       		.uleb128 0x8
 8792 32b7 530A0000 		.4byte	.LASF683
 8793 32bb 33       		.byte	0x33
 8794 32bc DB       		.byte	0xdb
 8795 32bd 2C000000 		.4byte	0x2c
 8796 32c1 08       		.byte	0x8
 8797 32c2 08       		.uleb128 0x8
 8798 32c3 2B070000 		.4byte	.LASF410
 8799 32c7 33       		.byte	0x33
 8800 32c8 E9       		.byte	0xe9
 8801 32c9 77320000 		.4byte	0x3277
 8802 32cd 0C       		.byte	0xc
 8803 32ce 08       		.uleb128 0x8
 8804 32cf CC0D0000 		.4byte	.LASF684
 8805 32d3 33       		.byte	0x33
 8806 32d4 ED       		.byte	0xed
 8807 32d5 2C000000 		.4byte	0x2c
 8808 32d9 10       		.byte	0x10
 8809 32da 00       		.byte	0
 8810 32db 03       		.uleb128 0x3
 8811 32dc 8D0E0000 		.4byte	.LASF685
 8812 32e0 33       		.byte	0x33
 8813 32e1 EE       		.byte	0xee
 8814 32e2 96320000 		.4byte	0x3296
 8815 32e6 19       		.uleb128 0x19
 8816 32e7 04       		.byte	0x4
 8817 32e8 33       		.byte	0x33
 8818 32e9 0101     		.2byte	0x101
 8819 32eb FD320000 		.4byte	0x32fd
 8820 32ef 0A       		.uleb128 0xa
 8821 32f0 B20A0000 		.4byte	.LASF686
 8822 32f4 33       		.byte	0x33
 8823 32f5 0501     		.2byte	0x105
 8824 32f7 D0120000 		.4byte	0x12d0
 8825 32fb 00       		.byte	0
 8826 32fc 00       		.byte	0
 8827 32fd 19       		.uleb128 0x19
 8828 32fe 04       		.byte	0x4
 8829 32ff 33       		.byte	0x33
 8830 3300 0701     		.2byte	0x107
ARM GAS  C:\Users\PCHAUT~1\AppData\Local\Temp\ccOhqcVB.s 			page 156


 8831 3302 14330000 		.4byte	0x3314
 8832 3306 0A       		.uleb128 0xa
 8833 3307 241A0000 		.4byte	.LASF365
 8834 330b 33       		.byte	0x33
 8835 330c 0B01     		.2byte	0x10b
 8836 330e 14330000 		.4byte	0x3314
 8837 3312 00       		.byte	0
 8838 3313 00       		.byte	0
 8839 3314 0B       		.uleb128 0xb
 8840 3315 04       		.byte	0x4
 8841 3316 D6120000 		.4byte	0x12d6
 8842 331a 2B       		.uleb128 0x2b
 8843 331b 04       		.byte	0x4
 8844 331c 33       		.byte	0x33
 8845 331d 0001     		.2byte	0x100
 8846 331f 3C330000 		.4byte	0x333c
 8847 3323 1E       		.uleb128 0x1e
 8848 3324 691A0000 		.4byte	.LASF679
 8849 3328 33       		.byte	0x33
 8850 3329 0601     		.2byte	0x106
 8851 332b E6320000 		.4byte	0x32e6
 8852 332f 1E       		.uleb128 0x1e
 8853 3330 67190000 		.4byte	.LASF680
 8854 3334 33       		.byte	0x33
 8855 3335 0C01     		.2byte	0x10c
 8856 3337 FD320000 		.4byte	0x32fd
 8857 333b 00       		.byte	0
 8858 333c 17       		.uleb128 0x17
 8859 333d 14       		.byte	0x14
 8860 333e 33       		.byte	0x33
 8861 333f F3       		.byte	0xf3
 8862 3340 83330000 		.4byte	0x3383
 8863 3344 08       		.uleb128 0x8
 8864 3345 FE040000 		.4byte	.LASF687
 8865 3349 33       		.byte	0x33
 8866 334a F7       		.byte	0xf7
 8867 334b EC140000 		.4byte	0x14ec
 8868 334f 00       		.byte	0
 8869 3350 08       		.uleb128 0x8
 8870 3351 68110000 		.4byte	.LASF688
 8871 3355 33       		.byte	0x33
 8872 3356 FB       		.byte	0xfb
 8873 3357 2C000000 		.4byte	0x2c
 8874 335b 04       		.byte	0x4
 8875 335c 08       		.uleb128 0x8
 8876 335d 10070000 		.4byte	.LASF689
 8877 3361 33       		.byte	0x33
 8878 3362 FF       		.byte	0xff
 8879 3363 2C000000 		.4byte	0x2c
 8880 3367 08       		.byte	0x8
 8881 3368 0A       		.uleb128 0xa
 8882 3369 2B070000 		.4byte	.LASF410
 8883 336d 33       		.byte	0x33
 8884 336e 0D01     		.2byte	0x10d
 8885 3370 1A330000 		.4byte	0x331a
 8886 3374 0C       		.byte	0xc
 8887 3375 0A       		.uleb128 0xa
ARM GAS  C:\Users\PCHAUT~1\AppData\Local\Temp\ccOhqcVB.s 			page 157


 8888 3376 CC0D0000 		.4byte	.LASF684
 8889 337a 33       		.byte	0x33
 8890 337b 1101     		.2byte	0x111
 8891 337d 2C000000 		.4byte	0x2c
 8892 3381 10       		.byte	0x10
 8893 3382 00       		.byte	0
 8894 3383 1A       		.uleb128 0x1a
 8895 3384 97180000 		.4byte	.LASF690
 8896 3388 33       		.byte	0x33
 8897 3389 1201     		.2byte	0x112
 8898 338b 3C330000 		.4byte	0x333c
 8899 338f 19       		.uleb128 0x19
 8900 3390 24       		.byte	0x24
 8901 3391 33       		.byte	0x33
 8902 3392 1801     		.2byte	0x118
 8903 3394 1B340000 		.4byte	0x341b
 8904 3398 0A       		.uleb128 0xa
 8905 3399 2D140000 		.4byte	.LASF691
 8906 339d 33       		.byte	0x33
 8907 339e 1C01     		.2byte	0x11c
 8908 33a0 F5000000 		.4byte	0xf5
 8909 33a4 00       		.byte	0
 8910 33a5 0A       		.uleb128 0xa
 8911 33a6 FF080000 		.4byte	.LASF692
 8912 33aa 33       		.byte	0x33
 8913 33ab 2701     		.2byte	0x127
 8914 33ad 4C2C0000 		.4byte	0x2c4c
 8915 33b1 04       		.byte	0x4
 8916 33b2 0A       		.uleb128 0xa
 8917 33b3 03150000 		.4byte	.LASF693
 8918 33b7 33       		.byte	0x33
 8919 33b8 2D01     		.2byte	0x12d
 8920 33ba 4C2C0000 		.4byte	0x2c4c
 8921 33be 08       		.byte	0x8
 8922 33bf 0A       		.uleb128 0xa
 8923 33c0 2B0B0000 		.4byte	.LASF694
 8924 33c4 33       		.byte	0x33
 8925 33c5 3301     		.2byte	0x133
 8926 33c7 4C2C0000 		.4byte	0x2c4c
 8927 33cb 0C       		.byte	0xc
 8928 33cc 0A       		.uleb128 0xa
 8929 33cd 3C1F0000 		.4byte	.LASF695
 8930 33d1 33       		.byte	0x33
 8931 33d2 3901     		.2byte	0x139
 8932 33d4 DA000000 		.4byte	0xda
 8933 33d8 10       		.byte	0x10
 8934 33d9 0A       		.uleb128 0xa
 8935 33da 830B0000 		.4byte	.LASF696
 8936 33de 33       		.byte	0x33
 8937 33df 3F01     		.2byte	0x13f
 8938 33e1 DA000000 		.4byte	0xda
 8939 33e5 12       		.byte	0x12
 8940 33e6 0A       		.uleb128 0xa
 8941 33e7 2A1E0000 		.4byte	.LASF697
 8942 33eb 33       		.byte	0x33
 8943 33ec 4401     		.2byte	0x144
 8944 33ee 1B340000 		.4byte	0x341b
ARM GAS  C:\Users\PCHAUT~1\AppData\Local\Temp\ccOhqcVB.s 			page 158


 8945 33f2 14       		.byte	0x14
 8946 33f3 0A       		.uleb128 0xa
 8947 33f4 CE0C0000 		.4byte	.LASF698
 8948 33f8 33       		.byte	0x33
 8949 33f9 4901     		.2byte	0x149
 8950 33fb 21340000 		.4byte	0x3421
 8951 33ff 18       		.byte	0x18
 8952 3400 0A       		.uleb128 0xa
 8953 3401 E90F0000 		.4byte	.LASF699
 8954 3405 33       		.byte	0x33
 8955 3406 5001     		.2byte	0x150
 8956 3408 DA000000 		.4byte	0xda
 8957 340c 1C       		.byte	0x1c
 8958 340d 0A       		.uleb128 0xa
 8959 340e B31D0000 		.4byte	.LASF700
 8960 3412 33       		.byte	0x33
 8961 3413 5601     		.2byte	0x156
 8962 3415 D0120000 		.4byte	0x12d0
 8963 3419 20       		.byte	0x20
 8964 341a 00       		.byte	0
 8965 341b 0B       		.uleb128 0xb
 8966 341c 04       		.byte	0x4
 8967 341d DB320000 		.4byte	0x32db
 8968 3421 0B       		.uleb128 0xb
 8969 3422 04       		.byte	0x4
 8970 3423 83330000 		.4byte	0x3383
 8971 3427 1A       		.uleb128 0x1a
 8972 3428 F4190000 		.4byte	.LASF701
 8973 342c 33       		.byte	0x33
 8974 342d 5701     		.2byte	0x157
 8975 342f 8F330000 		.4byte	0x338f
 8976 3433 05       		.uleb128 0x5
 8977 3434 27340000 		.4byte	0x3427
 8978 3438 19       		.uleb128 0x19
 8979 3439 10       		.byte	0x10
 8980 343a 33       		.byte	0x33
 8981 343b 5C01     		.2byte	0x15c
 8982 343d 76340000 		.4byte	0x3476
 8983 3441 0A       		.uleb128 0xa
 8984 3442 00040000 		.4byte	.LASF702
 8985 3446 33       		.byte	0x33
 8986 3447 6101     		.2byte	0x161
 8987 3449 6E2C0000 		.4byte	0x2c6e
 8988 344d 00       		.byte	0
 8989 344e 0A       		.uleb128 0xa
 8990 344f 121D0000 		.4byte	.LASF703
 8991 3453 33       		.byte	0x33
 8992 3454 6601     		.2byte	0x166
 8993 3456 B12C0000 		.4byte	0x2cb1
 8994 345a 04       		.byte	0x4
 8995 345b 0A       		.uleb128 0xa
 8996 345c 5D100000 		.4byte	.LASF704
 8997 3460 33       		.byte	0x33
 8998 3461 6C01     		.2byte	0x16c
 8999 3463 902C0000 		.4byte	0x2c90
 9000 3467 08       		.byte	0x8
 9001 3468 0A       		.uleb128 0xa
ARM GAS  C:\Users\PCHAUT~1\AppData\Local\Temp\ccOhqcVB.s 			page 159


 9002 3469 EE010000 		.4byte	.LASF705
 9003 346d 33       		.byte	0x33
 9004 346e 7001     		.2byte	0x170
 9005 3470 292C0000 		.4byte	0x2c29
 9006 3474 0C       		.byte	0xc
 9007 3475 00       		.byte	0
 9008 3476 1A       		.uleb128 0x1a
 9009 3477 7B0F0000 		.4byte	.LASF706
 9010 347b 33       		.byte	0x33
 9011 347c 7201     		.2byte	0x172
 9012 347e 38340000 		.4byte	0x3438
 9013 3482 05       		.uleb128 0x5
 9014 3483 76340000 		.4byte	0x3476
 9015 3487 0B       		.uleb128 0xb
 9016 3488 04       		.byte	0x4
 9017 3489 82340000 		.4byte	0x3482
 9018 348d 13       		.uleb128 0x13
 9019 348e 9D340000 		.4byte	0x349d
 9020 3492 9D340000 		.4byte	0x349d
 9021 3496 14       		.uleb128 0x14
 9022 3497 37000000 		.4byte	0x37
 9023 349b 03       		.byte	0x3
 9024 349c 00       		.byte	0
 9025 349d 0B       		.uleb128 0xb
 9026 349e 04       		.byte	0x4
 9027 349f 33340000 		.4byte	0x3433
 9028 34a3 13       		.uleb128 0x13
 9029 34a4 BA030000 		.4byte	0x3ba
 9030 34a8 B3340000 		.4byte	0x34b3
 9031 34ac 14       		.uleb128 0x14
 9032 34ad 37000000 		.4byte	0x37
 9033 34b1 02       		.byte	0x2
 9034 34b2 00       		.byte	0
 9035 34b3 0B       		.uleb128 0xb
 9036 34b4 04       		.byte	0x4
 9037 34b5 FF310000 		.4byte	0x31ff
 9038 34b9 0B       		.uleb128 0xb
 9039 34ba 04       		.byte	0x4
 9040 34bb 42320000 		.4byte	0x3242
 9041 34bf 13       		.uleb128 0x13
 9042 34c0 DC0C0000 		.4byte	0xcdc
 9043 34c4 CF340000 		.4byte	0x34cf
 9044 34c8 14       		.uleb128 0x14
 9045 34c9 37000000 		.4byte	0x37
 9046 34cd 3E       		.byte	0x3e
 9047 34ce 00       		.byte	0
 9048 34cf 15       		.uleb128 0x15
 9049 34d0 F0000000 		.4byte	.LASF707
 9050 34d4 33       		.byte	0x33
 9051 34d5 0602     		.2byte	0x206
 9052 34d7 F5290000 		.4byte	0x29f5
 9053 34db 17       		.uleb128 0x17
 9054 34dc 07       		.byte	0x7
 9055 34dd 35       		.byte	0x35
 9056 34de 8D       		.byte	0x8d
 9057 34df 14350000 		.4byte	0x3514
 9058 34e3 08       		.uleb128 0x8
ARM GAS  C:\Users\PCHAUT~1\AppData\Local\Temp\ccOhqcVB.s 			page 160


 9059 34e4 8C0F0000 		.4byte	.LASF708
 9060 34e8 35       		.byte	0x35
 9061 34e9 8E       		.byte	0x8e
 9062 34ea 14350000 		.4byte	0x3514
 9063 34ee 00       		.byte	0
 9064 34ef 08       		.uleb128 0x8
 9065 34f0 320B0000 		.4byte	.LASF709
 9066 34f4 35       		.byte	0x35
 9067 34f5 8F       		.byte	0x8f
 9068 34f6 BF000000 		.4byte	0xbf
 9069 34fa 04       		.byte	0x4
 9070 34fb 08       		.uleb128 0x8
 9071 34fc DC010000 		.4byte	.LASF710
 9072 3500 35       		.byte	0x35
 9073 3501 90       		.byte	0x90
 9074 3502 BF000000 		.4byte	0xbf
 9075 3506 05       		.byte	0x5
 9076 3507 08       		.uleb128 0x8
 9077 3508 01100000 		.4byte	.LASF711
 9078 350c 35       		.byte	0x35
 9079 350d 91       		.byte	0x91
 9080 350e BF000000 		.4byte	0xbf
 9081 3512 06       		.byte	0x6
 9082 3513 00       		.byte	0
 9083 3514 13       		.uleb128 0x13
 9084 3515 BF000000 		.4byte	0xbf
 9085 3519 24350000 		.4byte	0x3524
 9086 351d 14       		.uleb128 0x14
 9087 351e 37000000 		.4byte	0x37
 9088 3522 03       		.byte	0x3
 9089 3523 00       		.byte	0
 9090 3524 03       		.uleb128 0x3
 9091 3525 AE0F0000 		.4byte	.LASF712
 9092 3529 35       		.byte	0x35
 9093 352a 92       		.byte	0x92
 9094 352b DB340000 		.4byte	0x34db
 9095 352f 21       		.uleb128 0x21
 9096 3530 07       		.byte	0x7
 9097 3531 01       		.byte	0x1
 9098 3532 5E000000 		.4byte	0x5e
 9099 3536 35       		.byte	0x35
 9100 3537 97       		.byte	0x97
 9101 3538 4F350000 		.4byte	0x354f
 9102 353c 22       		.uleb128 0x22
 9103 353d D70A0000 		.4byte	.LASF713
 9104 3541 00       		.byte	0
 9105 3542 22       		.uleb128 0x22
 9106 3543 17160000 		.4byte	.LASF714
 9107 3547 01       		.byte	0x1
 9108 3548 22       		.uleb128 0x22
 9109 3549 54060000 		.4byte	.LASF715
 9110 354d 02       		.byte	0x2
 9111 354e 00       		.byte	0
 9112 354f 03       		.uleb128 0x3
 9113 3550 D3050000 		.4byte	.LASF716
 9114 3554 35       		.byte	0x35
 9115 3555 9B       		.byte	0x9b
ARM GAS  C:\Users\PCHAUT~1\AppData\Local\Temp\ccOhqcVB.s 			page 161


 9116 3556 2F350000 		.4byte	0x352f
 9117 355a 03       		.uleb128 0x3
 9118 355b 29020000 		.4byte	.LASF717
 9119 355f 35       		.byte	0x35
 9120 3560 A0       		.byte	0xa0
 9121 3561 65350000 		.4byte	0x3565
 9122 3565 2C       		.uleb128 0x2c
 9123 3566 29020000 		.4byte	.LASF717
 9124 356a 5802     		.2byte	0x258
 9125 356c 35       		.byte	0x35
 9126 356d E5       		.byte	0xe5
 9127 356e D3350000 		.4byte	0x35d3
 9128 3572 18       		.uleb128 0x18
 9129 3573 766D7400 		.ascii	"vmt\000"
 9130 3577 35       		.byte	0x35
 9131 3578 E7       		.byte	0xe7
 9132 3579 8E360000 		.4byte	0x368e
 9133 357d 00       		.byte	0
 9134 357e 08       		.uleb128 0x8
 9135 357f 51000000 		.4byte	.LASF508
 9136 3583 35       		.byte	0x35
 9137 3584 E8       		.byte	0xe8
 9138 3585 2B120000 		.4byte	0x122b
 9139 3589 04       		.byte	0x4
 9140 358a 08       		.uleb128 0x8
 9141 358b 2C130000 		.4byte	.LASF331
 9142 358f 35       		.byte	0x35
 9143 3590 E8       		.byte	0xe8
 9144 3591 4F350000 		.4byte	0x354f
 9145 3595 08       		.byte	0x8
 9146 3596 08       		.uleb128 0x8
 9147 3597 FC140000 		.4byte	.LASF509
 9148 359b 35       		.byte	0x35
 9149 359c E8       		.byte	0xe8
 9150 359d D6120000 		.4byte	0x12d6
 9151 35a1 0C       		.byte	0xc
 9152 35a2 08       		.uleb128 0x8
 9153 35a3 BF0F0000 		.4byte	.LASF510
 9154 35a7 35       		.byte	0x35
 9155 35a8 E8       		.byte	0xe8
 9156 35a9 E1120000 		.4byte	0x12e1
 9157 35ad 30       		.byte	0x30
 9158 35ae 18       		.uleb128 0x18
 9159 35af 696200   		.ascii	"ib\000"
 9160 35b2 35       		.byte	0x35
 9161 35b3 E8       		.byte	0xe8
 9162 35b4 94360000 		.4byte	0x3694
 9163 35b8 54       		.byte	0x54
 9164 35b9 28       		.uleb128 0x28
 9165 35ba 6F6200   		.ascii	"ob\000"
 9166 35bd 35       		.byte	0x35
 9167 35be E8       		.byte	0xe8
 9168 35bf 94360000 		.4byte	0x3694
 9169 35c3 5401     		.2byte	0x154
 9170 35c5 27       		.uleb128 0x27
 9171 35c6 DF170000 		.4byte	.LASF332
 9172 35ca 35       		.byte	0x35
ARM GAS  C:\Users\PCHAUT~1\AppData\Local\Temp\ccOhqcVB.s 			page 162


 9173 35cb E8       		.byte	0xe8
 9174 35cc A4360000 		.4byte	0x36a4
 9175 35d0 5402     		.2byte	0x254
 9176 35d2 00       		.byte	0
 9177 35d3 17       		.uleb128 0x17
 9178 35d4 08       		.byte	0x8
 9179 35d5 35       		.byte	0x35
 9180 35d6 A7       		.byte	0xa7
 9181 35d7 0C360000 		.4byte	0x360c
 9182 35db 08       		.uleb128 0x8
 9183 35dc 951C0000 		.4byte	.LASF718
 9184 35e0 35       		.byte	0x35
 9185 35e1 AB       		.byte	0xab
 9186 35e2 462C0000 		.4byte	0x2c46
 9187 35e6 00       		.byte	0
 9188 35e7 08       		.uleb128 0x8
 9189 35e8 260E0000 		.4byte	.LASF719
 9190 35ec 35       		.byte	0x35
 9191 35ed AF       		.byte	0xaf
 9192 35ee 2C2B0000 		.4byte	0x2b2c
 9193 35f2 04       		.byte	0x4
 9194 35f3 08       		.uleb128 0x8
 9195 35f4 11040000 		.4byte	.LASF720
 9196 35f8 35       		.byte	0x35
 9197 35f9 B3       		.byte	0xb3
 9198 35fa 2C2B0000 		.4byte	0x2b2c
 9199 35fe 05       		.byte	0x5
 9200 35ff 08       		.uleb128 0x8
 9201 3600 EB0E0000 		.4byte	.LASF721
 9202 3604 35       		.byte	0x35
 9203 3605 B9       		.byte	0xb9
 9204 3606 2C2B0000 		.4byte	0x2b2c
 9205 360a 06       		.byte	0x6
 9206 360b 00       		.byte	0
 9207 360c 03       		.uleb128 0x3
 9208 360d 77180000 		.4byte	.LASF722
 9209 3611 35       		.byte	0x35
 9210 3612 BA       		.byte	0xba
 9211 3613 D3350000 		.4byte	0x35d3
 9212 3617 05       		.uleb128 0x5
 9213 3618 0C360000 		.4byte	0x360c
 9214 361c 07       		.uleb128 0x7
 9215 361d C6130000 		.4byte	.LASF723
 9216 3621 20       		.byte	0x20
 9217 3622 35       		.byte	0x35
 9218 3623 DA       		.byte	0xda
 9219 3624 89360000 		.4byte	0x3689
 9220 3628 08       		.uleb128 0x8
 9221 3629 F6140000 		.4byte	.LASF513
 9222 362d 35       		.byte	0x35
 9223 362e DB       		.byte	0xdb
 9224 362f 0B130000 		.4byte	0x130b
 9225 3633 00       		.byte	0
 9226 3634 08       		.uleb128 0x8
 9227 3635 E7030000 		.4byte	.LASF514
 9228 3639 35       		.byte	0x35
 9229 363a DB       		.byte	0xdb
ARM GAS  C:\Users\PCHAUT~1\AppData\Local\Temp\ccOhqcVB.s 			page 163


 9230 363b 2A130000 		.4byte	0x132a
 9231 363f 04       		.byte	0x4
 9232 3640 18       		.uleb128 0x18
 9233 3641 70757400 		.ascii	"put\000"
 9234 3645 35       		.byte	0x35
 9235 3646 DB       		.byte	0xdb
 9236 3647 44130000 		.4byte	0x1344
 9237 364b 08       		.byte	0x8
 9238 364c 18       		.uleb128 0x18
 9239 364d 67657400 		.ascii	"get\000"
 9240 3651 35       		.byte	0x35
 9241 3652 DB       		.byte	0xdb
 9242 3653 59130000 		.4byte	0x1359
 9243 3657 0C       		.byte	0xc
 9244 3658 08       		.uleb128 0x8
 9245 3659 96110000 		.4byte	.LASF515
 9246 365d 35       		.byte	0x35
 9247 365e DB       		.byte	0xdb
 9248 365f FA130000 		.4byte	0x13fa
 9249 3663 10       		.byte	0x10
 9250 3664 08       		.uleb128 0x8
 9251 3665 DB140000 		.4byte	.LASF516
 9252 3669 35       		.byte	0x35
 9253 366a DB       		.byte	0xdb
 9254 366b 14140000 		.4byte	0x1414
 9255 366f 14       		.byte	0x14
 9256 3670 08       		.uleb128 0x8
 9257 3671 A81C0000 		.4byte	.LASF517
 9258 3675 35       		.byte	0x35
 9259 3676 DB       		.byte	0xdb
 9260 3677 38140000 		.4byte	0x1438
 9261 367b 18       		.byte	0x18
 9262 367c 08       		.uleb128 0x8
 9263 367d BB100000 		.4byte	.LASF518
 9264 3681 35       		.byte	0x35
 9265 3682 DB       		.byte	0xdb
 9266 3683 5C140000 		.4byte	0x145c
 9267 3687 1C       		.byte	0x1c
 9268 3688 00       		.byte	0
 9269 3689 05       		.uleb128 0x5
 9270 368a 1C360000 		.4byte	0x361c
 9271 368e 0B       		.uleb128 0xb
 9272 368f 04       		.byte	0x4
 9273 3690 89360000 		.4byte	0x3689
 9274 3694 13       		.uleb128 0x13
 9275 3695 BF000000 		.4byte	0xbf
 9276 3699 A4360000 		.4byte	0x36a4
 9277 369d 14       		.uleb128 0x14
 9278 369e 37000000 		.4byte	0x37
 9279 36a2 FF       		.byte	0xff
 9280 36a3 00       		.byte	0
 9281 36a4 0B       		.uleb128 0xb
 9282 36a5 04       		.byte	0x4
 9283 36a6 17360000 		.4byte	0x3617
 9284 36aa 2D       		.uleb128 0x2d
 9285 36ab FD0A0000 		.4byte	.LASF724
 9286 36af 07       		.byte	0x7
ARM GAS  C:\Users\PCHAUT~1\AppData\Local\Temp\ccOhqcVB.s 			page 164


 9287 36b0 2C       		.byte	0x2c
 9288 36b1 24350000 		.4byte	0x3524
 9289 36b5 05       		.uleb128 0x5
 9290 36b6 03       		.byte	0x3
 9291 36b7 00000000 		.4byte	linecoding
 9292 36bb 2E       		.uleb128 0x2e
 9293 36bc 766D7400 		.ascii	"vmt\000"
 9294 36c0 07       		.byte	0x7
 9295 36c1 63       		.byte	0x63
 9296 36c2 89360000 		.4byte	0x3689
 9297 36c6 05       		.uleb128 0x5
 9298 36c7 03       		.byte	0x3
 9299 36c8 00000000 		.4byte	vmt
 9300 36cc 2F       		.uleb128 0x2f
 9301 36cd 13100000 		.4byte	.LASF725
 9302 36d1 07       		.byte	0x7
 9303 36d2 9C01     		.2byte	0x19c
 9304 36d4 00000000 		.4byte	.LFB274
 9305 36d8 2C000000 		.4byte	.LFE274-.LFB274
 9306 36dc 01       		.uleb128 0x1
 9307 36dd 9C       		.byte	0x9c
 9308 36de 00370000 		.4byte	0x3700
 9309 36e2 30       		.uleb128 0x30
 9310 36e3 951C0000 		.4byte	.LASF718
 9311 36e7 07       		.byte	0x7
 9312 36e8 9C01     		.2byte	0x19c
 9313 36ea 462C0000 		.4byte	0x2c46
 9314 36ee 02       		.uleb128 0x2
 9315 36ef 91       		.byte	0x91
 9316 36f0 6C       		.sleb128 -20
 9317 36f1 31       		.uleb128 0x31
 9318 36f2 657000   		.ascii	"ep\000"
 9319 36f5 07       		.byte	0x7
 9320 36f6 9C01     		.2byte	0x19c
 9321 36f8 2C2B0000 		.4byte	0x2b2c
 9322 36fc 02       		.uleb128 0x2
 9323 36fd 91       		.byte	0x91
 9324 36fe 6B       		.sleb128 -21
 9325 36ff 00       		.byte	0
 9326 3700 2F       		.uleb128 0x2f
 9327 3701 B5160000 		.4byte	.LASF726
 9328 3705 07       		.byte	0x7
 9329 3706 7801     		.2byte	0x178
 9330 3708 00000000 		.4byte	.LFB273
 9331 370c B4000000 		.4byte	.LFE273-.LFB273
 9332 3710 01       		.uleb128 0x1
 9333 3711 9C       		.byte	0x9c
 9334 3712 5F370000 		.4byte	0x375f
 9335 3716 30       		.uleb128 0x30
 9336 3717 951C0000 		.4byte	.LASF718
 9337 371b 07       		.byte	0x7
 9338 371c 7801     		.2byte	0x178
 9339 371e 462C0000 		.4byte	0x2c46
 9340 3722 02       		.uleb128 0x2
 9341 3723 91       		.byte	0x91
 9342 3724 64       		.sleb128 -28
 9343 3725 31       		.uleb128 0x31
ARM GAS  C:\Users\PCHAUT~1\AppData\Local\Temp\ccOhqcVB.s 			page 165


 9344 3726 657000   		.ascii	"ep\000"
 9345 3729 07       		.byte	0x7
 9346 372a 7801     		.2byte	0x178
 9347 372c 2C2B0000 		.4byte	0x2b2c
 9348 3730 02       		.uleb128 0x2
 9349 3731 91       		.byte	0x91
 9350 3732 63       		.sleb128 -29
 9351 3733 32       		.uleb128 0x32
 9352 3734 6E00     		.ascii	"n\000"
 9353 3736 07       		.byte	0x7
 9354 3737 7901     		.2byte	0x179
 9355 3739 2C000000 		.4byte	0x2c
 9356 373d 02       		.uleb128 0x2
 9357 373e 91       		.byte	0x91
 9358 373f 70       		.sleb128 -16
 9359 3740 33       		.uleb128 0x33
 9360 3741 370A0000 		.4byte	.LASF727
 9361 3745 07       		.byte	0x7
 9362 3746 7901     		.2byte	0x179
 9363 3748 2C000000 		.4byte	0x2c
 9364 374c 02       		.uleb128 0x2
 9365 374d 91       		.byte	0x91
 9366 374e 6C       		.sleb128 -20
 9367 374f 33       		.uleb128 0x33
 9368 3750 AB180000 		.4byte	.LASF728
 9369 3754 07       		.byte	0x7
 9370 3755 7A01     		.2byte	0x17a
 9371 3757 5F370000 		.4byte	0x375f
 9372 375b 02       		.uleb128 0x2
 9373 375c 91       		.byte	0x91
 9374 375d 68       		.sleb128 -24
 9375 375e 00       		.byte	0
 9376 375f 0B       		.uleb128 0xb
 9377 3760 04       		.byte	0x4
 9378 3761 5A350000 		.4byte	0x355a
 9379 3765 2F       		.uleb128 0x2f
 9380 3766 D6150000 		.4byte	.LASF729
 9381 376a 07       		.byte	0x7
 9382 376b 4701     		.2byte	0x147
 9383 376d 00000000 		.4byte	.LFB272
 9384 3771 FC000000 		.4byte	.LFE272-.LFB272
 9385 3775 01       		.uleb128 0x1
 9386 3776 9C       		.byte	0x9c
 9387 3777 B5370000 		.4byte	0x37b5
 9388 377b 30       		.uleb128 0x30
 9389 377c 951C0000 		.4byte	.LASF718
 9390 3780 07       		.byte	0x7
 9391 3781 4701     		.2byte	0x147
 9392 3783 462C0000 		.4byte	0x2c46
 9393 3787 02       		.uleb128 0x2
 9394 3788 91       		.byte	0x91
 9395 3789 64       		.sleb128 -28
 9396 378a 31       		.uleb128 0x31
 9397 378b 657000   		.ascii	"ep\000"
 9398 378e 07       		.byte	0x7
 9399 378f 4701     		.2byte	0x147
 9400 3791 2C2B0000 		.4byte	0x2b2c
ARM GAS  C:\Users\PCHAUT~1\AppData\Local\Temp\ccOhqcVB.s 			page 166


 9401 3795 02       		.uleb128 0x2
 9402 3796 91       		.byte	0x91
 9403 3797 63       		.sleb128 -29
 9404 3798 32       		.uleb128 0x32
 9405 3799 6E00     		.ascii	"n\000"
 9406 379b 07       		.byte	0x7
 9407 379c 4801     		.2byte	0x148
 9408 379e 2C000000 		.4byte	0x2c
 9409 37a2 02       		.uleb128 0x2
 9410 37a3 91       		.byte	0x91
 9411 37a4 70       		.sleb128 -16
 9412 37a5 33       		.uleb128 0x33
 9413 37a6 AB180000 		.4byte	.LASF728
 9414 37aa 07       		.byte	0x7
 9415 37ab 4901     		.2byte	0x149
 9416 37ad 5F370000 		.4byte	0x375f
 9417 37b1 02       		.uleb128 0x2
 9418 37b2 91       		.byte	0x91
 9419 37b3 6C       		.sleb128 -20
 9420 37b4 00       		.byte	0
 9421 37b5 34       		.uleb128 0x34
 9422 37b6 FD0E0000 		.4byte	.LASF760
 9423 37ba 07       		.byte	0x7
 9424 37bb 2A01     		.2byte	0x12a
 9425 37bd EC140000 		.4byte	0x14ec
 9426 37c1 00000000 		.4byte	.LFB271
 9427 37c5 94000000 		.4byte	.LFE271-.LFB271
 9428 37c9 01       		.uleb128 0x1
 9429 37ca 9C       		.byte	0x9c
 9430 37cb DF370000 		.4byte	0x37df
 9431 37cf 30       		.uleb128 0x30
 9432 37d0 951C0000 		.4byte	.LASF718
 9433 37d4 07       		.byte	0x7
 9434 37d5 2A01     		.2byte	0x12a
 9435 37d7 462C0000 		.4byte	0x2c46
 9436 37db 02       		.uleb128 0x2
 9437 37dc 91       		.byte	0x91
 9438 37dd 6C       		.sleb128 -20
 9439 37de 00       		.byte	0
 9440 37df 2F       		.uleb128 0x2f
 9441 37e0 0D000000 		.4byte	.LASF730
 9442 37e4 07       		.byte	0x7
 9443 37e5 0E01     		.2byte	0x10e
 9444 37e7 00000000 		.4byte	.LFB270
 9445 37eb 8C000000 		.4byte	.LFE270-.LFB270
 9446 37ef 01       		.uleb128 0x1
 9447 37f0 9C       		.byte	0x9c
 9448 37f1 14380000 		.4byte	0x3814
 9449 37f5 30       		.uleb128 0x30
 9450 37f6 AB180000 		.4byte	.LASF728
 9451 37fa 07       		.byte	0x7
 9452 37fb 0E01     		.2byte	0x10e
 9453 37fd 5F370000 		.4byte	0x375f
 9454 3801 02       		.uleb128 0x2
 9455 3802 91       		.byte	0x91
 9456 3803 6C       		.sleb128 -20
 9457 3804 33       		.uleb128 0x33
ARM GAS  C:\Users\PCHAUT~1\AppData\Local\Temp\ccOhqcVB.s 			page 167


 9458 3805 951C0000 		.4byte	.LASF718
 9459 3809 07       		.byte	0x7
 9460 380a 0F01     		.2byte	0x10f
 9461 380c 462C0000 		.4byte	0x2c46
 9462 3810 02       		.uleb128 0x2
 9463 3811 91       		.byte	0x91
 9464 3812 70       		.sleb128 -16
 9465 3813 00       		.byte	0
 9466 3814 35       		.uleb128 0x35
 9467 3815 E31C0000 		.4byte	.LASF731
 9468 3819 07       		.byte	0x7
 9469 381a EE       		.byte	0xee
 9470 381b 00000000 		.4byte	.LFB269
 9471 381f D4000000 		.4byte	.LFE269-.LFB269
 9472 3823 01       		.uleb128 0x1
 9473 3824 9C       		.byte	0x9c
 9474 3825 55380000 		.4byte	0x3855
 9475 3829 36       		.uleb128 0x36
 9476 382a AB180000 		.4byte	.LASF728
 9477 382e 07       		.byte	0x7
 9478 382f EE       		.byte	0xee
 9479 3830 5F370000 		.4byte	0x375f
 9480 3834 02       		.uleb128 0x2
 9481 3835 91       		.byte	0x91
 9482 3836 6C       		.sleb128 -20
 9483 3837 2D       		.uleb128 0x2d
 9484 3838 951C0000 		.4byte	.LASF718
 9485 383c 07       		.byte	0x7
 9486 383d EF       		.byte	0xef
 9487 383e 462C0000 		.4byte	0x2c46
 9488 3842 02       		.uleb128 0x2
 9489 3843 91       		.byte	0x91
 9490 3844 70       		.sleb128 -16
 9491 3845 37       		.uleb128 0x37
 9492 3846 64000000 		.4byte	.LASF733
 9493 384a 65380000 		.4byte	0x3865
 9494 384e 05       		.uleb128 0x5
 9495 384f 03       		.byte	0x3
 9496 3850 00000000 		.4byte	__func__.9905
 9497 3854 00       		.byte	0
 9498 3855 13       		.uleb128 0x13
 9499 3856 6F100000 		.4byte	0x106f
 9500 385a 65380000 		.4byte	0x3865
 9501 385e 14       		.uleb128 0x14
 9502 385f 37000000 		.4byte	0x37
 9503 3863 07       		.byte	0x7
 9504 3864 00       		.byte	0
 9505 3865 05       		.uleb128 0x5
 9506 3866 55380000 		.4byte	0x3855
 9507 386a 35       		.uleb128 0x35
 9508 386b A9170000 		.4byte	.LASF732
 9509 386f 07       		.byte	0x7
 9510 3870 D3       		.byte	0xd3
 9511 3871 00000000 		.4byte	.LFB268
 9512 3875 A8000000 		.4byte	.LFE268-.LFB268
 9513 3879 01       		.uleb128 0x1
 9514 387a 9C       		.byte	0x9c
ARM GAS  C:\Users\PCHAUT~1\AppData\Local\Temp\ccOhqcVB.s 			page 168


 9515 387b B9380000 		.4byte	0x38b9
 9516 387f 36       		.uleb128 0x36
 9517 3880 AB180000 		.4byte	.LASF728
 9518 3884 07       		.byte	0x7
 9519 3885 D3       		.byte	0xd3
 9520 3886 5F370000 		.4byte	0x375f
 9521 388a 02       		.uleb128 0x2
 9522 388b 91       		.byte	0x91
 9523 388c 6C       		.sleb128 -20
 9524 388d 36       		.uleb128 0x36
 9525 388e DF170000 		.4byte	.LASF332
 9526 3892 07       		.byte	0x7
 9527 3893 D3       		.byte	0xd3
 9528 3894 A4360000 		.4byte	0x36a4
 9529 3898 02       		.uleb128 0x2
 9530 3899 91       		.byte	0x91
 9531 389a 68       		.sleb128 -24
 9532 389b 2D       		.uleb128 0x2d
 9533 389c 951C0000 		.4byte	.LASF718
 9534 38a0 07       		.byte	0x7
 9535 38a1 D4       		.byte	0xd4
 9536 38a2 462C0000 		.4byte	0x2c46
 9537 38a6 02       		.uleb128 0x2
 9538 38a7 91       		.byte	0x91
 9539 38a8 70       		.sleb128 -16
 9540 38a9 37       		.uleb128 0x37
 9541 38aa 64000000 		.4byte	.LASF733
 9542 38ae C9380000 		.4byte	0x38c9
 9543 38b2 05       		.uleb128 0x5
 9544 38b3 03       		.byte	0x3
 9545 38b4 00000000 		.4byte	__func__.9900
 9546 38b8 00       		.byte	0
 9547 38b9 13       		.uleb128 0x13
 9548 38ba 6F100000 		.4byte	0x106f
 9549 38be C9380000 		.4byte	0x38c9
 9550 38c2 14       		.uleb128 0x14
 9551 38c3 37000000 		.4byte	0x37
 9552 38c7 08       		.byte	0x8
 9553 38c8 00       		.byte	0
 9554 38c9 05       		.uleb128 0x5
 9555 38ca B9380000 		.4byte	0x38b9
 9556 38ce 35       		.uleb128 0x35
 9557 38cf BF1B0000 		.4byte	.LASF734
 9558 38d3 07       		.byte	0x7
 9559 38d4 C2       		.byte	0xc2
 9560 38d5 00000000 		.4byte	.LFB267
 9561 38d9 7C000000 		.4byte	.LFE267-.LFB267
 9562 38dd 01       		.uleb128 0x1
 9563 38de 9C       		.byte	0x9c
 9564 38df F2380000 		.4byte	0x38f2
 9565 38e3 36       		.uleb128 0x36
 9566 38e4 AB180000 		.4byte	.LASF728
 9567 38e8 07       		.byte	0x7
 9568 38e9 C2       		.byte	0xc2
 9569 38ea 5F370000 		.4byte	0x375f
 9570 38ee 02       		.uleb128 0x2
 9571 38ef 91       		.byte	0x91
ARM GAS  C:\Users\PCHAUT~1\AppData\Local\Temp\ccOhqcVB.s 			page 169


 9572 38f0 6C       		.sleb128 -20
 9573 38f1 00       		.byte	0
 9574 38f2 38       		.uleb128 0x38
 9575 38f3 F00D0000 		.4byte	.LASF761
 9576 38f7 07       		.byte	0x7
 9577 38f8 B6       		.byte	0xb6
 9578 38f9 00000000 		.4byte	.LFB266
 9579 38fd 24000000 		.4byte	.LFE266-.LFB266
 9580 3901 01       		.uleb128 0x1
 9581 3902 9C       		.byte	0x9c
 9582 3903 39       		.uleb128 0x39
 9583 3904 50140000 		.4byte	.LASF735
 9584 3908 07       		.byte	0x7
 9585 3909 90       		.byte	0x90
 9586 390a 00000000 		.4byte	.LFB265
 9587 390e B4000000 		.4byte	.LFE265-.LFB265
 9588 3912 01       		.uleb128 0x1
 9589 3913 9C       		.byte	0x9c
 9590 3914 40390000 		.4byte	0x3940
 9591 3918 3A       		.uleb128 0x3a
 9592 3919 717000   		.ascii	"qp\000"
 9593 391c 07       		.byte	0x7
 9594 391d 90       		.byte	0x90
 9595 391e CA120000 		.4byte	0x12ca
 9596 3922 02       		.uleb128 0x2
 9597 3923 91       		.byte	0x91
 9598 3924 64       		.sleb128 -28
 9599 3925 2E       		.uleb128 0x2e
 9600 3926 6E00     		.ascii	"n\000"
 9601 3928 07       		.byte	0x7
 9602 3929 91       		.byte	0x91
 9603 392a 2C000000 		.4byte	0x2c
 9604 392e 02       		.uleb128 0x2
 9605 392f 91       		.byte	0x91
 9606 3930 70       		.sleb128 -16
 9607 3931 2D       		.uleb128 0x2d
 9608 3932 AB180000 		.4byte	.LASF728
 9609 3936 07       		.byte	0x7
 9610 3937 92       		.byte	0x92
 9611 3938 5F370000 		.4byte	0x375f
 9612 393c 02       		.uleb128 0x2
 9613 393d 91       		.byte	0x91
 9614 393e 6C       		.sleb128 -20
 9615 393f 00       		.byte	0
 9616 3940 39       		.uleb128 0x39
 9617 3941 AF0B0000 		.4byte	.LASF736
 9618 3945 07       		.byte	0x7
 9619 3946 6D       		.byte	0x6d
 9620 3947 00000000 		.4byte	.LFB264
 9621 394b E4000000 		.4byte	.LFE264-.LFB264
 9622 394f 01       		.uleb128 0x1
 9623 3950 9C       		.byte	0x9c
 9624 3951 8B390000 		.4byte	0x398b
 9625 3955 3A       		.uleb128 0x3a
 9626 3956 717000   		.ascii	"qp\000"
 9627 3959 07       		.byte	0x7
 9628 395a 6D       		.byte	0x6d
ARM GAS  C:\Users\PCHAUT~1\AppData\Local\Temp\ccOhqcVB.s 			page 170


 9629 395b CA120000 		.4byte	0x12ca
 9630 395f 02       		.uleb128 0x2
 9631 3960 91       		.byte	0x91
 9632 3961 64       		.sleb128 -28
 9633 3962 2E       		.uleb128 0x2e
 9634 3963 6E00     		.ascii	"n\000"
 9635 3965 07       		.byte	0x7
 9636 3966 6E       		.byte	0x6e
 9637 3967 2C000000 		.4byte	0x2c
 9638 396b 02       		.uleb128 0x2
 9639 396c 91       		.byte	0x91
 9640 396d 70       		.sleb128 -16
 9641 396e 2D       		.uleb128 0x2d
 9642 396f 370A0000 		.4byte	.LASF727
 9643 3973 07       		.byte	0x7
 9644 3974 6E       		.byte	0x6e
 9645 3975 2C000000 		.4byte	0x2c
 9646 3979 02       		.uleb128 0x2
 9647 397a 91       		.byte	0x91
 9648 397b 6C       		.sleb128 -20
 9649 397c 2D       		.uleb128 0x2d
 9650 397d AB180000 		.4byte	.LASF728
 9651 3981 07       		.byte	0x7
 9652 3982 6F       		.byte	0x6f
 9653 3983 5F370000 		.4byte	0x375f
 9654 3987 02       		.uleb128 0x2
 9655 3988 91       		.byte	0x91
 9656 3989 68       		.sleb128 -24
 9657 398a 00       		.byte	0
 9658 398b 3B       		.uleb128 0x3b
 9659 398c BB100000 		.4byte	.LASF518
 9660 3990 07       		.byte	0x7
 9661 3991 5E       		.byte	0x5e
 9662 3992 2C000000 		.4byte	0x2c
 9663 3996 00000000 		.4byte	.LFB263
 9664 399a 40000000 		.4byte	.LFE263-.LFB263
 9665 399e 01       		.uleb128 0x1
 9666 399f 9C       		.byte	0x9c
 9667 39a0 D9390000 		.4byte	0x39d9
 9668 39a4 3A       		.uleb128 0x3a
 9669 39a5 697000   		.ascii	"ip\000"
 9670 39a8 07       		.byte	0x7
 9671 39a9 5E       		.byte	0x5e
 9672 39aa BA030000 		.4byte	0x3ba
 9673 39ae 02       		.uleb128 0x2
 9674 39af 91       		.byte	0x91
 9675 39b0 6C       		.sleb128 -20
 9676 39b1 3A       		.uleb128 0x3a
 9677 39b2 627000   		.ascii	"bp\000"
 9678 39b5 07       		.byte	0x7
 9679 39b6 5E       		.byte	0x5e
 9680 39b7 D0120000 		.4byte	0x12d0
 9681 39bb 02       		.uleb128 0x2
 9682 39bc 91       		.byte	0x91
 9683 39bd 68       		.sleb128 -24
 9684 39be 3A       		.uleb128 0x3a
 9685 39bf 6E00     		.ascii	"n\000"
ARM GAS  C:\Users\PCHAUT~1\AppData\Local\Temp\ccOhqcVB.s 			page 171


 9686 39c1 07       		.byte	0x7
 9687 39c2 5E       		.byte	0x5e
 9688 39c3 2C000000 		.4byte	0x2c
 9689 39c7 02       		.uleb128 0x2
 9690 39c8 91       		.byte	0x91
 9691 39c9 64       		.sleb128 -28
 9692 39ca 36       		.uleb128 0x36
 9693 39cb FF090000 		.4byte	.LASF737
 9694 39cf 07       		.byte	0x7
 9695 39d0 5E       		.byte	0x5e
 9696 39d1 99010000 		.4byte	0x199
 9697 39d5 02       		.uleb128 0x2
 9698 39d6 91       		.byte	0x91
 9699 39d7 60       		.sleb128 -32
 9700 39d8 00       		.byte	0
 9701 39d9 3B       		.uleb128 0x3b
 9702 39da A81C0000 		.4byte	.LASF517
 9703 39de 07       		.byte	0x7
 9704 39df 59       		.byte	0x59
 9705 39e0 2C000000 		.4byte	0x2c
 9706 39e4 00000000 		.4byte	.LFB262
 9707 39e8 40000000 		.4byte	.LFE262-.LFB262
 9708 39ec 01       		.uleb128 0x1
 9709 39ed 9C       		.byte	0x9c
 9710 39ee 273A0000 		.4byte	0x3a27
 9711 39f2 3A       		.uleb128 0x3a
 9712 39f3 697000   		.ascii	"ip\000"
 9713 39f6 07       		.byte	0x7
 9714 39f7 59       		.byte	0x59
 9715 39f8 BA030000 		.4byte	0x3ba
 9716 39fc 02       		.uleb128 0x2
 9717 39fd 91       		.byte	0x91
 9718 39fe 6C       		.sleb128 -20
 9719 39ff 3A       		.uleb128 0x3a
 9720 3a00 627000   		.ascii	"bp\000"
 9721 3a03 07       		.byte	0x7
 9722 3a04 59       		.byte	0x59
 9723 3a05 05130000 		.4byte	0x1305
 9724 3a09 02       		.uleb128 0x2
 9725 3a0a 91       		.byte	0x91
 9726 3a0b 68       		.sleb128 -24
 9727 3a0c 3A       		.uleb128 0x3a
 9728 3a0d 6E00     		.ascii	"n\000"
 9729 3a0f 07       		.byte	0x7
 9730 3a10 59       		.byte	0x59
 9731 3a11 2C000000 		.4byte	0x2c
 9732 3a15 02       		.uleb128 0x2
 9733 3a16 91       		.byte	0x91
 9734 3a17 64       		.sleb128 -28
 9735 3a18 36       		.uleb128 0x36
 9736 3a19 FF090000 		.4byte	.LASF737
 9737 3a1d 07       		.byte	0x7
 9738 3a1e 59       		.byte	0x59
 9739 3a1f 99010000 		.4byte	0x199
 9740 3a23 02       		.uleb128 0x2
 9741 3a24 91       		.byte	0x91
 9742 3a25 60       		.sleb128 -32
ARM GAS  C:\Users\PCHAUT~1\AppData\Local\Temp\ccOhqcVB.s 			page 172


 9743 3a26 00       		.byte	0
 9744 3a27 3B       		.uleb128 0x3b
 9745 3a28 DB140000 		.4byte	.LASF516
 9746 3a2c 07       		.byte	0x7
 9747 3a2d 54       		.byte	0x54
 9748 3a2e 62010000 		.4byte	0x162
 9749 3a32 00000000 		.4byte	.LFB261
 9750 3a36 38000000 		.4byte	.LFE261-.LFB261
 9751 3a3a 01       		.uleb128 0x1
 9752 3a3b 9C       		.byte	0x9c
 9753 3a3c 5C3A0000 		.4byte	0x3a5c
 9754 3a40 3A       		.uleb128 0x3a
 9755 3a41 697000   		.ascii	"ip\000"
 9756 3a44 07       		.byte	0x7
 9757 3a45 54       		.byte	0x54
 9758 3a46 BA030000 		.4byte	0x3ba
 9759 3a4a 02       		.uleb128 0x2
 9760 3a4b 91       		.byte	0x91
 9761 3a4c 6C       		.sleb128 -20
 9762 3a4d 36       		.uleb128 0x36
 9763 3a4e FF090000 		.4byte	.LASF737
 9764 3a52 07       		.byte	0x7
 9765 3a53 54       		.byte	0x54
 9766 3a54 99010000 		.4byte	0x199
 9767 3a58 02       		.uleb128 0x2
 9768 3a59 91       		.byte	0x91
 9769 3a5a 68       		.sleb128 -24
 9770 3a5b 00       		.byte	0
 9771 3a5c 3B       		.uleb128 0x3b
 9772 3a5d 96110000 		.4byte	.LASF515
 9773 3a61 07       		.byte	0x7
 9774 3a62 4F       		.byte	0x4f
 9775 3a63 62010000 		.4byte	0x162
 9776 3a67 00000000 		.4byte	.LFB260
 9777 3a6b 40000000 		.4byte	.LFE260-.LFB260
 9778 3a6f 01       		.uleb128 0x1
 9779 3a70 9C       		.byte	0x9c
 9780 3a71 9D3A0000 		.4byte	0x3a9d
 9781 3a75 3A       		.uleb128 0x3a
 9782 3a76 697000   		.ascii	"ip\000"
 9783 3a79 07       		.byte	0x7
 9784 3a7a 4F       		.byte	0x4f
 9785 3a7b BA030000 		.4byte	0x3ba
 9786 3a7f 02       		.uleb128 0x2
 9787 3a80 91       		.byte	0x91
 9788 3a81 6C       		.sleb128 -20
 9789 3a82 3A       		.uleb128 0x3a
 9790 3a83 6200     		.ascii	"b\000"
 9791 3a85 07       		.byte	0x7
 9792 3a86 4F       		.byte	0x4f
 9793 3a87 BF000000 		.4byte	0xbf
 9794 3a8b 02       		.uleb128 0x2
 9795 3a8c 91       		.byte	0x91
 9796 3a8d 6B       		.sleb128 -21
 9797 3a8e 36       		.uleb128 0x36
 9798 3a8f FF090000 		.4byte	.LASF737
 9799 3a93 07       		.byte	0x7
ARM GAS  C:\Users\PCHAUT~1\AppData\Local\Temp\ccOhqcVB.s 			page 173


 9800 3a94 4F       		.byte	0x4f
 9801 3a95 99010000 		.4byte	0x199
 9802 3a99 02       		.uleb128 0x2
 9803 3a9a 91       		.byte	0x91
 9804 3a9b 64       		.sleb128 -28
 9805 3a9c 00       		.byte	0
 9806 3a9d 3C       		.uleb128 0x3c
 9807 3a9e 67657400 		.ascii	"get\000"
 9808 3aa2 07       		.byte	0x7
 9809 3aa3 4A       		.byte	0x4a
 9810 3aa4 62010000 		.4byte	0x162
 9811 3aa8 00000000 		.4byte	.LFB259
 9812 3aac 38000000 		.4byte	.LFE259-.LFB259
 9813 3ab0 01       		.uleb128 0x1
 9814 3ab1 9C       		.byte	0x9c
 9815 3ab2 C43A0000 		.4byte	0x3ac4
 9816 3ab6 3A       		.uleb128 0x3a
 9817 3ab7 697000   		.ascii	"ip\000"
 9818 3aba 07       		.byte	0x7
 9819 3abb 4A       		.byte	0x4a
 9820 3abc BA030000 		.4byte	0x3ba
 9821 3ac0 02       		.uleb128 0x2
 9822 3ac1 91       		.byte	0x91
 9823 3ac2 6C       		.sleb128 -20
 9824 3ac3 00       		.byte	0
 9825 3ac4 3C       		.uleb128 0x3c
 9826 3ac5 70757400 		.ascii	"put\000"
 9827 3ac9 07       		.byte	0x7
 9828 3aca 45       		.byte	0x45
 9829 3acb 62010000 		.4byte	0x162
 9830 3acf 00000000 		.4byte	.LFB258
 9831 3ad3 40000000 		.4byte	.LFE258-.LFB258
 9832 3ad7 01       		.uleb128 0x1
 9833 3ad8 9C       		.byte	0x9c
 9834 3ad9 F73A0000 		.4byte	0x3af7
 9835 3add 3A       		.uleb128 0x3a
 9836 3ade 697000   		.ascii	"ip\000"
 9837 3ae1 07       		.byte	0x7
 9838 3ae2 45       		.byte	0x45
 9839 3ae3 BA030000 		.4byte	0x3ba
 9840 3ae7 02       		.uleb128 0x2
 9841 3ae8 91       		.byte	0x91
 9842 3ae9 6C       		.sleb128 -20
 9843 3aea 3A       		.uleb128 0x3a
 9844 3aeb 6200     		.ascii	"b\000"
 9845 3aed 07       		.byte	0x7
 9846 3aee 45       		.byte	0x45
 9847 3aef BF000000 		.4byte	0xbf
 9848 3af3 02       		.uleb128 0x2
 9849 3af4 91       		.byte	0x91
 9850 3af5 6B       		.sleb128 -21
 9851 3af6 00       		.byte	0
 9852 3af7 3B       		.uleb128 0x3b
 9853 3af8 E7030000 		.4byte	.LASF514
 9854 3afc 07       		.byte	0x7
 9855 3afd 3F       		.byte	0x3f
 9856 3afe 2C000000 		.4byte	0x2c
ARM GAS  C:\Users\PCHAUT~1\AppData\Local\Temp\ccOhqcVB.s 			page 174


 9857 3b02 00000000 		.4byte	.LFB257
 9858 3b06 40000000 		.4byte	.LFE257-.LFB257
 9859 3b0a 01       		.uleb128 0x1
 9860 3b0b 9C       		.byte	0x9c
 9861 3b0c 373B0000 		.4byte	0x3b37
 9862 3b10 3A       		.uleb128 0x3a
 9863 3b11 697000   		.ascii	"ip\000"
 9864 3b14 07       		.byte	0x7
 9865 3b15 3F       		.byte	0x3f
 9866 3b16 BA030000 		.4byte	0x3ba
 9867 3b1a 02       		.uleb128 0x2
 9868 3b1b 91       		.byte	0x91
 9869 3b1c 6C       		.sleb128 -20
 9870 3b1d 3A       		.uleb128 0x3a
 9871 3b1e 627000   		.ascii	"bp\000"
 9872 3b21 07       		.byte	0x7
 9873 3b22 3F       		.byte	0x3f
 9874 3b23 D0120000 		.4byte	0x12d0
 9875 3b27 02       		.uleb128 0x2
 9876 3b28 91       		.byte	0x91
 9877 3b29 68       		.sleb128 -24
 9878 3b2a 3A       		.uleb128 0x3a
 9879 3b2b 6E00     		.ascii	"n\000"
 9880 3b2d 07       		.byte	0x7
 9881 3b2e 3F       		.byte	0x3f
 9882 3b2f 2C000000 		.4byte	0x2c
 9883 3b33 02       		.uleb128 0x2
 9884 3b34 91       		.byte	0x91
 9885 3b35 64       		.sleb128 -28
 9886 3b36 00       		.byte	0
 9887 3b37 3B       		.uleb128 0x3b
 9888 3b38 F6140000 		.4byte	.LASF513
 9889 3b3c 07       		.byte	0x7
 9890 3b3d 39       		.byte	0x39
 9891 3b3e 2C000000 		.4byte	0x2c
 9892 3b42 00000000 		.4byte	.LFB256
 9893 3b46 40000000 		.4byte	.LFE256-.LFB256
 9894 3b4a 01       		.uleb128 0x1
 9895 3b4b 9C       		.byte	0x9c
 9896 3b4c 773B0000 		.4byte	0x3b77
 9897 3b50 3A       		.uleb128 0x3a
 9898 3b51 697000   		.ascii	"ip\000"
 9899 3b54 07       		.byte	0x7
 9900 3b55 39       		.byte	0x39
 9901 3b56 BA030000 		.4byte	0x3ba
 9902 3b5a 02       		.uleb128 0x2
 9903 3b5b 91       		.byte	0x91
 9904 3b5c 6C       		.sleb128 -20
 9905 3b5d 3A       		.uleb128 0x3a
 9906 3b5e 627000   		.ascii	"bp\000"
 9907 3b61 07       		.byte	0x7
 9908 3b62 39       		.byte	0x39
 9909 3b63 05130000 		.4byte	0x1305
 9910 3b67 02       		.uleb128 0x2
 9911 3b68 91       		.byte	0x91
 9912 3b69 68       		.sleb128 -24
 9913 3b6a 3A       		.uleb128 0x3a
ARM GAS  C:\Users\PCHAUT~1\AppData\Local\Temp\ccOhqcVB.s 			page 175


 9914 3b6b 6E00     		.ascii	"n\000"
 9915 3b6d 07       		.byte	0x7
 9916 3b6e 39       		.byte	0x39
 9917 3b6f 2C000000 		.4byte	0x2c
 9918 3b73 02       		.uleb128 0x2
 9919 3b74 91       		.byte	0x91
 9920 3b75 64       		.sleb128 -28
 9921 3b76 00       		.byte	0
 9922 3b77 3D       		.uleb128 0x3d
 9923 3b78 D80C0000 		.4byte	.LASF738
 9924 3b7c 06       		.byte	0x6
 9925 3b7d 1B03     		.2byte	0x31b
 9926 3b7f 00000000 		.4byte	.LFB245
 9927 3b83 30000000 		.4byte	.LFE245-.LFB245
 9928 3b87 01       		.uleb128 0x1
 9929 3b88 9C       		.byte	0x9c
 9930 3b89 AC3B0000 		.4byte	0x3bac
 9931 3b8d 31       		.uleb128 0x31
 9932 3b8e 65737000 		.ascii	"esp\000"
 9933 3b92 06       		.byte	0x6
 9934 3b93 1B03     		.2byte	0x31b
 9935 3b95 AC3B0000 		.4byte	0x3bac
 9936 3b99 02       		.uleb128 0x2
 9937 3b9a 91       		.byte	0x91
 9938 3b9b 6C       		.sleb128 -20
 9939 3b9c 30       		.uleb128 0x30
 9940 3b9d 571F0000 		.4byte	.LASF739
 9941 3ba1 06       		.byte	0x6
 9942 3ba2 1C03     		.2byte	0x31c
 9943 3ba4 78010000 		.4byte	0x178
 9944 3ba8 02       		.uleb128 0x2
 9945 3ba9 91       		.byte	0x91
 9946 3baa 68       		.sleb128 -24
 9947 3bab 00       		.byte	0
 9948 3bac 0B       		.uleb128 0xb
 9949 3bad 04       		.byte	0x4
 9950 3bae 2B120000 		.4byte	0x122b
 9951 3bb2 3D       		.uleb128 0x3d
 9952 3bb3 42190000 		.4byte	.LASF740
 9953 3bb7 06       		.byte	0x6
 9954 3bb8 0703     		.2byte	0x307
 9955 3bba 00000000 		.4byte	.LFB244
 9956 3bbe 2C000000 		.4byte	.LFE244-.LFB244
 9957 3bc2 01       		.uleb128 0x1
 9958 3bc3 9C       		.byte	0x9c
 9959 3bc4 D83B0000 		.4byte	0x3bd8
 9960 3bc8 31       		.uleb128 0x31
 9961 3bc9 65737000 		.ascii	"esp\000"
 9962 3bcd 06       		.byte	0x6
 9963 3bce 0703     		.2byte	0x307
 9964 3bd0 AC3B0000 		.4byte	0x3bac
 9965 3bd4 02       		.uleb128 0x2
 9966 3bd5 91       		.byte	0x91
 9967 3bd6 6C       		.sleb128 -20
 9968 3bd7 00       		.byte	0
 9969 3bd8 3E       		.uleb128 0x3e
 9970 3bd9 99190000 		.4byte	.LASF741
ARM GAS  C:\Users\PCHAUT~1\AppData\Local\Temp\ccOhqcVB.s 			page 176


 9971 3bdd 06       		.byte	0x6
 9972 3bde 2802     		.2byte	0x228
 9973 3be0 00000000 		.4byte	.LFB231
 9974 3be4 28000000 		.4byte	.LFE231-.LFB231
 9975 3be8 01       		.uleb128 0x1
 9976 3be9 9C       		.byte	0x9c
 9977 3bea 3E       		.uleb128 0x3e
 9978 3beb 43050000 		.4byte	.LASF742
 9979 3bef 06       		.byte	0x6
 9980 3bf0 DE01     		.2byte	0x1de
 9981 3bf2 00000000 		.4byte	.LFB226
 9982 3bf6 28000000 		.4byte	.LFE226-.LFB226
 9983 3bfa 01       		.uleb128 0x1
 9984 3bfb 9C       		.byte	0x9c
 9985 3bfc 3E       		.uleb128 0x3e
 9986 3bfd 0E130000 		.4byte	.LASF743
 9987 3c01 06       		.byte	0x6
 9988 3c02 D301     		.2byte	0x1d3
 9989 3c04 00000000 		.4byte	.LFB225
 9990 3c08 28000000 		.4byte	.LFE225-.LFB225
 9991 3c0c 01       		.uleb128 0x1
 9992 3c0d 9C       		.byte	0x9c
 9993 3c0e 3E       		.uleb128 0x3e
 9994 3c0f 47010000 		.4byte	.LASF744
 9995 3c13 06       		.byte	0x6
 9996 3c14 C801     		.2byte	0x1c8
 9997 3c16 00000000 		.4byte	.LFB224
 9998 3c1a 28000000 		.4byte	.LFE224-.LFB224
 9999 3c1e 01       		.uleb128 0x1
 10000 3c1f 9C       		.byte	0x9c
 10001 3c20 3E       		.uleb128 0x3e
 10002 3c21 93170000 		.4byte	.LASF745
 10003 3c25 06       		.byte	0x6
 10004 3c26 BD01     		.2byte	0x1bd
 10005 3c28 00000000 		.4byte	.LFB223
 10006 3c2c 28000000 		.4byte	.LFE223-.LFB223
 10007 3c30 01       		.uleb128 0x1
 10008 3c31 9C       		.byte	0x9c
 10009 3c32 3F       		.uleb128 0x3f
 10010 3c33 00000000 		.4byte	.LASF746
 10011 3c37 05       		.byte	0x5
 10012 3c38 6101     		.2byte	0x161
 10013 3c3a 2C000000 		.4byte	0x2c
 10014 3c3e 00000000 		.4byte	.LFB214
 10015 3c42 40000000 		.4byte	.LFE214-.LFB214
 10016 3c46 01       		.uleb128 0x1
 10017 3c47 9C       		.byte	0x9c
 10018 3c48 5C3C0000 		.4byte	0x3c5c
 10019 3c4c 31       		.uleb128 0x31
 10020 3c4d 6F717000 		.ascii	"oqp\000"
 10021 3c51 05       		.byte	0x5
 10022 3c52 6101     		.2byte	0x161
 10023 3c54 71320000 		.4byte	0x3271
 10024 3c58 02       		.uleb128 0x2
 10025 3c59 91       		.byte	0x91
 10026 3c5a 6C       		.sleb128 -20
 10027 3c5b 00       		.byte	0
ARM GAS  C:\Users\PCHAUT~1\AppData\Local\Temp\ccOhqcVB.s 			page 177


 10028 3c5c 3F       		.uleb128 0x3f
 10029 3c5d 401C0000 		.4byte	.LASF747
 10030 3c61 05       		.byte	0x5
 10031 3c62 1E01     		.2byte	0x11e
 10032 3c64 2C000000 		.4byte	0x2c
 10033 3c68 00000000 		.4byte	.LFB210
 10034 3c6c 40000000 		.4byte	.LFE210-.LFB210
 10035 3c70 01       		.uleb128 0x1
 10036 3c71 9C       		.byte	0x9c
 10037 3c72 863C0000 		.4byte	0x3c86
 10038 3c76 31       		.uleb128 0x31
 10039 3c77 69717000 		.ascii	"iqp\000"
 10040 3c7b 05       		.byte	0x5
 10041 3c7c 1E01     		.2byte	0x11e
 10042 3c7e 14330000 		.4byte	0x3314
 10043 3c82 02       		.uleb128 0x2
 10044 3c83 91       		.byte	0x91
 10045 3c84 6C       		.sleb128 -20
 10046 3c85 00       		.byte	0
 10047 3c86 39       		.uleb128 0x39
 10048 3c87 4A150000 		.4byte	.LASF748
 10049 3c8b 04       		.byte	0x4
 10050 3c8c AA       		.byte	0xaa
 10051 3c8d 00000000 		.4byte	.LFB194
 10052 3c91 2C000000 		.4byte	.LFE194-.LFB194
 10053 3c95 01       		.uleb128 0x1
 10054 3c96 9C       		.byte	0x9c
 10055 3c97 AA3C0000 		.4byte	0x3caa
 10056 3c9b 3A       		.uleb128 0x3a
 10057 3c9c 65737000 		.ascii	"esp\000"
 10058 3ca0 04       		.byte	0x4
 10059 3ca1 AA       		.byte	0xaa
 10060 3ca2 AC3B0000 		.4byte	0x3bac
 10061 3ca6 02       		.uleb128 0x2
 10062 3ca7 91       		.byte	0x91
 10063 3ca8 6C       		.sleb128 -20
 10064 3ca9 00       		.byte	0
 10065 3caa 3E       		.uleb128 0x3e
 10066 3cab 5E160000 		.4byte	.LASF749
 10067 3caf 03       		.byte	0x3
 10068 3cb0 9601     		.2byte	0x196
 10069 3cb2 00000000 		.4byte	.LFB148
 10070 3cb6 30000000 		.4byte	.LFE148-.LFB148
 10071 3cba 01       		.uleb128 0x1
 10072 3cbb 9C       		.byte	0x9c
 10073 3cbc 3E       		.uleb128 0x3e
 10074 3cbd D21C0000 		.4byte	.LASF750
 10075 3cc1 03       		.byte	0x3
 10076 3cc2 8201     		.2byte	0x182
 10077 3cc4 00000000 		.4byte	.LFB147
 10078 3cc8 30000000 		.4byte	.LFE147-.LFB147
 10079 3ccc 01       		.uleb128 0x1
 10080 3ccd 9C       		.byte	0x9c
 10081 3cce 3D       		.uleb128 0x3d
 10082 3ccf D21A0000 		.4byte	.LASF751
 10083 3cd3 03       		.byte	0x3
 10084 3cd4 6601     		.2byte	0x166
ARM GAS  C:\Users\PCHAUT~1\AppData\Local\Temp\ccOhqcVB.s 			page 178


 10085 3cd6 00000000 		.4byte	.LFB146
 10086 3cda 58000000 		.4byte	.LFE146-.LFB146
 10087 3cde 01       		.uleb128 0x1
 10088 3cdf 9C       		.byte	0x9c
 10089 3ce0 F43C0000 		.4byte	0x3cf4
 10090 3ce4 37       		.uleb128 0x37
 10091 3ce5 64000000 		.4byte	.LASF733
 10092 3ce9 043D0000 		.4byte	0x3d04
 10093 3ced 05       		.uleb128 0x5
 10094 3cee 03       		.byte	0x3
 10095 3cef 00000000 		.4byte	__func__.7153
 10096 3cf3 00       		.byte	0
 10097 3cf4 13       		.uleb128 0x13
 10098 3cf5 6F100000 		.4byte	0x106f
 10099 3cf9 043D0000 		.4byte	0x3d04
 10100 3cfd 14       		.uleb128 0x14
 10101 3cfe 37000000 		.4byte	0x37
 10102 3d02 0B       		.byte	0xb
 10103 3d03 00       		.byte	0
 10104 3d04 05       		.uleb128 0x5
 10105 3d05 F43C0000 		.4byte	0x3cf4
 10106 3d09 3E       		.uleb128 0x3e
 10107 3d0a 15140000 		.4byte	.LASF752
 10108 3d0e 03       		.byte	0x3
 10109 3d0f 5A01     		.2byte	0x15a
 10110 3d11 00000000 		.4byte	.LFB145
 10111 3d15 30000000 		.4byte	.LFE145-.LFB145
 10112 3d19 01       		.uleb128 0x1
 10113 3d1a 9C       		.byte	0x9c
 10114 3d1b 3E       		.uleb128 0x3e
 10115 3d1c 97000000 		.4byte	.LASF753
 10116 3d20 01       		.byte	0x1
 10117 3d21 E401     		.2byte	0x1e4
 10118 3d23 00000000 		.4byte	.LFB119
 10119 3d27 28000000 		.4byte	.LFE119-.LFB119
 10120 3d2b 01       		.uleb128 0x1
 10121 3d2c 9C       		.byte	0x9c
 10122 3d2d 3E       		.uleb128 0x3e
 10123 3d2e 55110000 		.4byte	.LASF754
 10124 3d32 01       		.byte	0x1
 10125 3d33 D901     		.2byte	0x1d9
 10126 3d35 00000000 		.4byte	.LFB118
 10127 3d39 28000000 		.4byte	.LFE118-.LFB118
 10128 3d3d 01       		.uleb128 0x1
 10129 3d3e 9C       		.byte	0x9c
 10130 3d3f 3D       		.uleb128 0x3d
 10131 3d40 E2130000 		.4byte	.LASF755
 10132 3d44 01       		.byte	0x1
 10133 3d45 CA01     		.2byte	0x1ca
 10134 3d47 00000000 		.4byte	.LFB117
 10135 3d4b 30000000 		.4byte	.LFE117-.LFB117
 10136 3d4f 01       		.uleb128 0x1
 10137 3d50 9C       		.byte	0x9c
 10138 3d51 6F3D0000 		.4byte	0x3d6f
 10139 3d55 40       		.uleb128 0x40
 10140 3d56 9F3D0000 		.4byte	0x3d9f
 10141 3d5a 0E000000 		.4byte	.LBB8
ARM GAS  C:\Users\PCHAUT~1\AppData\Local\Temp\ccOhqcVB.s 			page 179


 10142 3d5e 06000000 		.4byte	.LBE8-.LBB8
 10143 3d62 01       		.byte	0x1
 10144 3d63 CD01     		.2byte	0x1cd
 10145 3d65 41       		.uleb128 0x41
 10146 3d66 A83D0000 		.4byte	0x3da8
 10147 3d6a 02       		.uleb128 0x2
 10148 3d6b 91       		.byte	0x91
 10149 3d6c 70       		.sleb128 -16
 10150 3d6d 00       		.byte	0
 10151 3d6e 00       		.byte	0
 10152 3d6f 3D       		.uleb128 0x3d
 10153 3d70 5A150000 		.4byte	.LASF756
 10154 3d74 01       		.byte	0x1
 10155 3d75 BC01     		.2byte	0x1bc
 10156 3d77 00000000 		.4byte	.LFB116
 10157 3d7b 30000000 		.4byte	.LFE116-.LFB116
 10158 3d7f 01       		.uleb128 0x1
 10159 3d80 9C       		.byte	0x9c
 10160 3d81 9F3D0000 		.4byte	0x3d9f
 10161 3d85 40       		.uleb128 0x40
 10162 3d86 9F3D0000 		.4byte	0x3d9f
 10163 3d8a 0E000000 		.4byte	.LBB6
 10164 3d8e 06000000 		.4byte	.LBE6-.LBB6
 10165 3d92 01       		.byte	0x1
 10166 3d93 BF01     		.2byte	0x1bf
 10167 3d95 41       		.uleb128 0x41
 10168 3d96 A83D0000 		.4byte	0x3da8
 10169 3d9a 02       		.uleb128 0x2
 10170 3d9b 91       		.byte	0x91
 10171 3d9c 70       		.sleb128 -16
 10172 3d9d 00       		.byte	0
 10173 3d9e 00       		.byte	0
 10174 3d9f 42       		.uleb128 0x42
 10175 3da0 8A1D0000 		.4byte	.LASF762
 10176 3da4 02       		.byte	0x2
 10177 3da5 2002     		.2byte	0x220
 10178 3da7 03       		.byte	0x3
 10179 3da8 43       		.uleb128 0x43
 10180 3da9 080B0000 		.4byte	.LASF763
 10181 3dad 02       		.byte	0x2
 10182 3dae 2002     		.2byte	0x220
 10183 3db0 F5000000 		.4byte	0xf5
 10184 3db4 00       		.byte	0
 10185 3db5 00       		.byte	0
 10186              		.section	.debug_abbrev,"",%progbits
 10187              	.Ldebug_abbrev0:
 10188 0000 01       		.uleb128 0x1
 10189 0001 11       		.uleb128 0x11
 10190 0002 01       		.byte	0x1
 10191 0003 25       		.uleb128 0x25
 10192 0004 0E       		.uleb128 0xe
 10193 0005 13       		.uleb128 0x13
 10194 0006 0B       		.uleb128 0xb
 10195 0007 03       		.uleb128 0x3
 10196 0008 0E       		.uleb128 0xe
 10197 0009 1B       		.uleb128 0x1b
 10198 000a 0E       		.uleb128 0xe
ARM GAS  C:\Users\PCHAUT~1\AppData\Local\Temp\ccOhqcVB.s 			page 180


 10199 000b 55       		.uleb128 0x55
 10200 000c 17       		.uleb128 0x17
 10201 000d 11       		.uleb128 0x11
 10202 000e 01       		.uleb128 0x1
 10203 000f 10       		.uleb128 0x10
 10204 0010 17       		.uleb128 0x17
 10205 0011 00       		.byte	0
 10206 0012 00       		.byte	0
 10207 0013 02       		.uleb128 0x2
 10208 0014 24       		.uleb128 0x24
 10209 0015 00       		.byte	0
 10210 0016 0B       		.uleb128 0xb
 10211 0017 0B       		.uleb128 0xb
 10212 0018 3E       		.uleb128 0x3e
 10213 0019 0B       		.uleb128 0xb
 10214 001a 03       		.uleb128 0x3
 10215 001b 08       		.uleb128 0x8
 10216 001c 00       		.byte	0
 10217 001d 00       		.byte	0
 10218 001e 03       		.uleb128 0x3
 10219 001f 16       		.uleb128 0x16
 10220 0020 00       		.byte	0
 10221 0021 03       		.uleb128 0x3
 10222 0022 0E       		.uleb128 0xe
 10223 0023 3A       		.uleb128 0x3a
 10224 0024 0B       		.uleb128 0xb
 10225 0025 3B       		.uleb128 0x3b
 10226 0026 0B       		.uleb128 0xb
 10227 0027 49       		.uleb128 0x49
 10228 0028 13       		.uleb128 0x13
 10229 0029 00       		.byte	0
 10230 002a 00       		.byte	0
 10231 002b 04       		.uleb128 0x4
 10232 002c 24       		.uleb128 0x24
 10233 002d 00       		.byte	0
 10234 002e 0B       		.uleb128 0xb
 10235 002f 0B       		.uleb128 0xb
 10236 0030 3E       		.uleb128 0x3e
 10237 0031 0B       		.uleb128 0xb
 10238 0032 03       		.uleb128 0x3
 10239 0033 0E       		.uleb128 0xe
 10240 0034 00       		.byte	0
 10241 0035 00       		.byte	0
 10242 0036 05       		.uleb128 0x5
 10243 0037 26       		.uleb128 0x26
 10244 0038 00       		.byte	0
 10245 0039 49       		.uleb128 0x49
 10246 003a 13       		.uleb128 0x13
 10247 003b 00       		.byte	0
 10248 003c 00       		.byte	0
 10249 003d 06       		.uleb128 0x6
 10250 003e 35       		.uleb128 0x35
 10251 003f 00       		.byte	0
 10252 0040 49       		.uleb128 0x49
 10253 0041 13       		.uleb128 0x13
 10254 0042 00       		.byte	0
 10255 0043 00       		.byte	0
ARM GAS  C:\Users\PCHAUT~1\AppData\Local\Temp\ccOhqcVB.s 			page 181


 10256 0044 07       		.uleb128 0x7
 10257 0045 13       		.uleb128 0x13
 10258 0046 01       		.byte	0x1
 10259 0047 03       		.uleb128 0x3
 10260 0048 0E       		.uleb128 0xe
 10261 0049 0B       		.uleb128 0xb
 10262 004a 0B       		.uleb128 0xb
 10263 004b 3A       		.uleb128 0x3a
 10264 004c 0B       		.uleb128 0xb
 10265 004d 3B       		.uleb128 0x3b
 10266 004e 0B       		.uleb128 0xb
 10267 004f 01       		.uleb128 0x1
 10268 0050 13       		.uleb128 0x13
 10269 0051 00       		.byte	0
 10270 0052 00       		.byte	0
 10271 0053 08       		.uleb128 0x8
 10272 0054 0D       		.uleb128 0xd
 10273 0055 00       		.byte	0
 10274 0056 03       		.uleb128 0x3
 10275 0057 0E       		.uleb128 0xe
 10276 0058 3A       		.uleb128 0x3a
 10277 0059 0B       		.uleb128 0xb
 10278 005a 3B       		.uleb128 0x3b
 10279 005b 0B       		.uleb128 0xb
 10280 005c 49       		.uleb128 0x49
 10281 005d 13       		.uleb128 0x13
 10282 005e 38       		.uleb128 0x38
 10283 005f 0B       		.uleb128 0xb
 10284 0060 00       		.byte	0
 10285 0061 00       		.byte	0
 10286 0062 09       		.uleb128 0x9
 10287 0063 0D       		.uleb128 0xd
 10288 0064 00       		.byte	0
 10289 0065 03       		.uleb128 0x3
 10290 0066 08       		.uleb128 0x8
 10291 0067 3A       		.uleb128 0x3a
 10292 0068 0B       		.uleb128 0xb
 10293 0069 3B       		.uleb128 0x3b
 10294 006a 05       		.uleb128 0x5
 10295 006b 49       		.uleb128 0x49
 10296 006c 13       		.uleb128 0x13
 10297 006d 38       		.uleb128 0x38
 10298 006e 0B       		.uleb128 0xb
 10299 006f 00       		.byte	0
 10300 0070 00       		.byte	0
 10301 0071 0A       		.uleb128 0xa
 10302 0072 0D       		.uleb128 0xd
 10303 0073 00       		.byte	0
 10304 0074 03       		.uleb128 0x3
 10305 0075 0E       		.uleb128 0xe
 10306 0076 3A       		.uleb128 0x3a
 10307 0077 0B       		.uleb128 0xb
 10308 0078 3B       		.uleb128 0x3b
 10309 0079 05       		.uleb128 0x5
 10310 007a 49       		.uleb128 0x49
 10311 007b 13       		.uleb128 0x13
 10312 007c 38       		.uleb128 0x38
ARM GAS  C:\Users\PCHAUT~1\AppData\Local\Temp\ccOhqcVB.s 			page 182


 10313 007d 0B       		.uleb128 0xb
 10314 007e 00       		.byte	0
 10315 007f 00       		.byte	0
 10316 0080 0B       		.uleb128 0xb
 10317 0081 0F       		.uleb128 0xf
 10318 0082 00       		.byte	0
 10319 0083 0B       		.uleb128 0xb
 10320 0084 0B       		.uleb128 0xb
 10321 0085 49       		.uleb128 0x49
 10322 0086 13       		.uleb128 0x13
 10323 0087 00       		.byte	0
 10324 0088 00       		.byte	0
 10325 0089 0C       		.uleb128 0xc
 10326 008a 13       		.uleb128 0x13
 10327 008b 01       		.byte	0x1
 10328 008c 03       		.uleb128 0x3
 10329 008d 0E       		.uleb128 0xe
 10330 008e 0B       		.uleb128 0xb
 10331 008f 0B       		.uleb128 0xb
 10332 0090 3A       		.uleb128 0x3a
 10333 0091 0B       		.uleb128 0xb
 10334 0092 3B       		.uleb128 0x3b
 10335 0093 05       		.uleb128 0x5
 10336 0094 01       		.uleb128 0x1
 10337 0095 13       		.uleb128 0x13
 10338 0096 00       		.byte	0
 10339 0097 00       		.byte	0
 10340 0098 0D       		.uleb128 0xd
 10341 0099 15       		.uleb128 0x15
 10342 009a 01       		.byte	0x1
 10343 009b 27       		.uleb128 0x27
 10344 009c 19       		.uleb128 0x19
 10345 009d 01       		.uleb128 0x1
 10346 009e 13       		.uleb128 0x13
 10347 009f 00       		.byte	0
 10348 00a0 00       		.byte	0
 10349 00a1 0E       		.uleb128 0xe
 10350 00a2 05       		.uleb128 0x5
 10351 00a3 00       		.byte	0
 10352 00a4 49       		.uleb128 0x49
 10353 00a5 13       		.uleb128 0x13
 10354 00a6 00       		.byte	0
 10355 00a7 00       		.byte	0
 10356 00a8 0F       		.uleb128 0xf
 10357 00a9 0F       		.uleb128 0xf
 10358 00aa 00       		.byte	0
 10359 00ab 0B       		.uleb128 0xb
 10360 00ac 0B       		.uleb128 0xb
 10361 00ad 00       		.byte	0
 10362 00ae 00       		.byte	0
 10363 00af 10       		.uleb128 0x10
 10364 00b0 13       		.uleb128 0x13
 10365 00b1 01       		.byte	0x1
 10366 00b2 03       		.uleb128 0x3
 10367 00b3 0E       		.uleb128 0xe
 10368 00b4 0B       		.uleb128 0xb
 10369 00b5 05       		.uleb128 0x5
ARM GAS  C:\Users\PCHAUT~1\AppData\Local\Temp\ccOhqcVB.s 			page 183


 10370 00b6 3A       		.uleb128 0x3a
 10371 00b7 0B       		.uleb128 0xb
 10372 00b8 3B       		.uleb128 0x3b
 10373 00b9 05       		.uleb128 0x5
 10374 00ba 01       		.uleb128 0x1
 10375 00bb 13       		.uleb128 0x13
 10376 00bc 00       		.byte	0
 10377 00bd 00       		.byte	0
 10378 00be 11       		.uleb128 0x11
 10379 00bf 0D       		.uleb128 0xd
 10380 00c0 00       		.byte	0
 10381 00c1 03       		.uleb128 0x3
 10382 00c2 0E       		.uleb128 0xe
 10383 00c3 3A       		.uleb128 0x3a
 10384 00c4 0B       		.uleb128 0xb
 10385 00c5 3B       		.uleb128 0x3b
 10386 00c6 05       		.uleb128 0x5
 10387 00c7 49       		.uleb128 0x49
 10388 00c8 13       		.uleb128 0x13
 10389 00c9 38       		.uleb128 0x38
 10390 00ca 05       		.uleb128 0x5
 10391 00cb 00       		.byte	0
 10392 00cc 00       		.byte	0
 10393 00cd 12       		.uleb128 0x12
 10394 00ce 0D       		.uleb128 0xd
 10395 00cf 00       		.byte	0
 10396 00d0 03       		.uleb128 0x3
 10397 00d1 08       		.uleb128 0x8
 10398 00d2 3A       		.uleb128 0x3a
 10399 00d3 0B       		.uleb128 0xb
 10400 00d4 3B       		.uleb128 0x3b
 10401 00d5 05       		.uleb128 0x5
 10402 00d6 49       		.uleb128 0x49
 10403 00d7 13       		.uleb128 0x13
 10404 00d8 38       		.uleb128 0x38
 10405 00d9 05       		.uleb128 0x5
 10406 00da 00       		.byte	0
 10407 00db 00       		.byte	0
 10408 00dc 13       		.uleb128 0x13
 10409 00dd 01       		.uleb128 0x1
 10410 00de 01       		.byte	0x1
 10411 00df 49       		.uleb128 0x49
 10412 00e0 13       		.uleb128 0x13
 10413 00e1 01       		.uleb128 0x1
 10414 00e2 13       		.uleb128 0x13
 10415 00e3 00       		.byte	0
 10416 00e4 00       		.byte	0
 10417 00e5 14       		.uleb128 0x14
 10418 00e6 21       		.uleb128 0x21
 10419 00e7 00       		.byte	0
 10420 00e8 49       		.uleb128 0x49
 10421 00e9 13       		.uleb128 0x13
 10422 00ea 2F       		.uleb128 0x2f
 10423 00eb 0B       		.uleb128 0xb
 10424 00ec 00       		.byte	0
 10425 00ed 00       		.byte	0
 10426 00ee 15       		.uleb128 0x15
ARM GAS  C:\Users\PCHAUT~1\AppData\Local\Temp\ccOhqcVB.s 			page 184


 10427 00ef 34       		.uleb128 0x34
 10428 00f0 00       		.byte	0
 10429 00f1 03       		.uleb128 0x3
 10430 00f2 0E       		.uleb128 0xe
 10431 00f3 3A       		.uleb128 0x3a
 10432 00f4 0B       		.uleb128 0xb
 10433 00f5 3B       		.uleb128 0x3b
 10434 00f6 05       		.uleb128 0x5
 10435 00f7 49       		.uleb128 0x49
 10436 00f8 13       		.uleb128 0x13
 10437 00f9 3F       		.uleb128 0x3f
 10438 00fa 19       		.uleb128 0x19
 10439 00fb 3C       		.uleb128 0x3c
 10440 00fc 19       		.uleb128 0x19
 10441 00fd 00       		.byte	0
 10442 00fe 00       		.byte	0
 10443 00ff 16       		.uleb128 0x16
 10444 0100 34       		.uleb128 0x34
 10445 0101 00       		.byte	0
 10446 0102 03       		.uleb128 0x3
 10447 0103 0E       		.uleb128 0xe
 10448 0104 3A       		.uleb128 0x3a
 10449 0105 0B       		.uleb128 0xb
 10450 0106 3B       		.uleb128 0x3b
 10451 0107 0B       		.uleb128 0xb
 10452 0108 49       		.uleb128 0x49
 10453 0109 13       		.uleb128 0x13
 10454 010a 3F       		.uleb128 0x3f
 10455 010b 19       		.uleb128 0x19
 10456 010c 3C       		.uleb128 0x3c
 10457 010d 19       		.uleb128 0x19
 10458 010e 00       		.byte	0
 10459 010f 00       		.byte	0
 10460 0110 17       		.uleb128 0x17
 10461 0111 13       		.uleb128 0x13
 10462 0112 01       		.byte	0x1
 10463 0113 0B       		.uleb128 0xb
 10464 0114 0B       		.uleb128 0xb
 10465 0115 3A       		.uleb128 0x3a
 10466 0116 0B       		.uleb128 0xb
 10467 0117 3B       		.uleb128 0x3b
 10468 0118 0B       		.uleb128 0xb
 10469 0119 01       		.uleb128 0x1
 10470 011a 13       		.uleb128 0x13
 10471 011b 00       		.byte	0
 10472 011c 00       		.byte	0
 10473 011d 18       		.uleb128 0x18
 10474 011e 0D       		.uleb128 0xd
 10475 011f 00       		.byte	0
 10476 0120 03       		.uleb128 0x3
 10477 0121 08       		.uleb128 0x8
 10478 0122 3A       		.uleb128 0x3a
 10479 0123 0B       		.uleb128 0xb
 10480 0124 3B       		.uleb128 0x3b
 10481 0125 0B       		.uleb128 0xb
 10482 0126 49       		.uleb128 0x49
 10483 0127 13       		.uleb128 0x13
ARM GAS  C:\Users\PCHAUT~1\AppData\Local\Temp\ccOhqcVB.s 			page 185


 10484 0128 38       		.uleb128 0x38
 10485 0129 0B       		.uleb128 0xb
 10486 012a 00       		.byte	0
 10487 012b 00       		.byte	0
 10488 012c 19       		.uleb128 0x19
 10489 012d 13       		.uleb128 0x13
 10490 012e 01       		.byte	0x1
 10491 012f 0B       		.uleb128 0xb
 10492 0130 0B       		.uleb128 0xb
 10493 0131 3A       		.uleb128 0x3a
 10494 0132 0B       		.uleb128 0xb
 10495 0133 3B       		.uleb128 0x3b
 10496 0134 05       		.uleb128 0x5
 10497 0135 01       		.uleb128 0x1
 10498 0136 13       		.uleb128 0x13
 10499 0137 00       		.byte	0
 10500 0138 00       		.byte	0
 10501 0139 1A       		.uleb128 0x1a
 10502 013a 16       		.uleb128 0x16
 10503 013b 00       		.byte	0
 10504 013c 03       		.uleb128 0x3
 10505 013d 0E       		.uleb128 0xe
 10506 013e 3A       		.uleb128 0x3a
 10507 013f 0B       		.uleb128 0xb
 10508 0140 3B       		.uleb128 0x3b
 10509 0141 05       		.uleb128 0x5
 10510 0142 49       		.uleb128 0x49
 10511 0143 13       		.uleb128 0x13
 10512 0144 00       		.byte	0
 10513 0145 00       		.byte	0
 10514 0146 1B       		.uleb128 0x1b
 10515 0147 13       		.uleb128 0x13
 10516 0148 01       		.byte	0x1
 10517 0149 0B       		.uleb128 0xb
 10518 014a 05       		.uleb128 0x5
 10519 014b 3A       		.uleb128 0x3a
 10520 014c 0B       		.uleb128 0xb
 10521 014d 3B       		.uleb128 0x3b
 10522 014e 05       		.uleb128 0x5
 10523 014f 01       		.uleb128 0x1
 10524 0150 13       		.uleb128 0x13
 10525 0151 00       		.byte	0
 10526 0152 00       		.byte	0
 10527 0153 1C       		.uleb128 0x1c
 10528 0154 13       		.uleb128 0x13
 10529 0155 01       		.byte	0x1
 10530 0156 0B       		.uleb128 0xb
 10531 0157 05       		.uleb128 0x5
 10532 0158 3A       		.uleb128 0x3a
 10533 0159 0B       		.uleb128 0xb
 10534 015a 3B       		.uleb128 0x3b
 10535 015b 0B       		.uleb128 0xb
 10536 015c 01       		.uleb128 0x1
 10537 015d 13       		.uleb128 0x13
 10538 015e 00       		.byte	0
 10539 015f 00       		.byte	0
 10540 0160 1D       		.uleb128 0x1d
ARM GAS  C:\Users\PCHAUT~1\AppData\Local\Temp\ccOhqcVB.s 			page 186


 10541 0161 17       		.uleb128 0x17
 10542 0162 01       		.byte	0x1
 10543 0163 0B       		.uleb128 0xb
 10544 0164 0B       		.uleb128 0xb
 10545 0165 3A       		.uleb128 0x3a
 10546 0166 0B       		.uleb128 0xb
 10547 0167 3B       		.uleb128 0x3b
 10548 0168 0B       		.uleb128 0xb
 10549 0169 01       		.uleb128 0x1
 10550 016a 13       		.uleb128 0x13
 10551 016b 00       		.byte	0
 10552 016c 00       		.byte	0
 10553 016d 1E       		.uleb128 0x1e
 10554 016e 0D       		.uleb128 0xd
 10555 016f 00       		.byte	0
 10556 0170 03       		.uleb128 0x3
 10557 0171 0E       		.uleb128 0xe
 10558 0172 3A       		.uleb128 0x3a
 10559 0173 0B       		.uleb128 0xb
 10560 0174 3B       		.uleb128 0x3b
 10561 0175 05       		.uleb128 0x5
 10562 0176 49       		.uleb128 0x49
 10563 0177 13       		.uleb128 0x13
 10564 0178 00       		.byte	0
 10565 0179 00       		.byte	0
 10566 017a 1F       		.uleb128 0x1f
 10567 017b 34       		.uleb128 0x34
 10568 017c 00       		.byte	0
 10569 017d 03       		.uleb128 0x3
 10570 017e 08       		.uleb128 0x8
 10571 017f 3A       		.uleb128 0x3a
 10572 0180 0B       		.uleb128 0xb
 10573 0181 3B       		.uleb128 0x3b
 10574 0182 05       		.uleb128 0x5
 10575 0183 49       		.uleb128 0x49
 10576 0184 13       		.uleb128 0x13
 10577 0185 3F       		.uleb128 0x3f
 10578 0186 19       		.uleb128 0x19
 10579 0187 3C       		.uleb128 0x3c
 10580 0188 19       		.uleb128 0x19
 10581 0189 00       		.byte	0
 10582 018a 00       		.byte	0
 10583 018b 20       		.uleb128 0x20
 10584 018c 15       		.uleb128 0x15
 10585 018d 01       		.byte	0x1
 10586 018e 27       		.uleb128 0x27
 10587 018f 19       		.uleb128 0x19
 10588 0190 49       		.uleb128 0x49
 10589 0191 13       		.uleb128 0x13
 10590 0192 01       		.uleb128 0x1
 10591 0193 13       		.uleb128 0x13
 10592 0194 00       		.byte	0
 10593 0195 00       		.byte	0
 10594 0196 21       		.uleb128 0x21
 10595 0197 04       		.uleb128 0x4
 10596 0198 01       		.byte	0x1
 10597 0199 3E       		.uleb128 0x3e
ARM GAS  C:\Users\PCHAUT~1\AppData\Local\Temp\ccOhqcVB.s 			page 187


 10598 019a 0B       		.uleb128 0xb
 10599 019b 0B       		.uleb128 0xb
 10600 019c 0B       		.uleb128 0xb
 10601 019d 49       		.uleb128 0x49
 10602 019e 13       		.uleb128 0x13
 10603 019f 3A       		.uleb128 0x3a
 10604 01a0 0B       		.uleb128 0xb
 10605 01a1 3B       		.uleb128 0x3b
 10606 01a2 0B       		.uleb128 0xb
 10607 01a3 01       		.uleb128 0x1
 10608 01a4 13       		.uleb128 0x13
 10609 01a5 00       		.byte	0
 10610 01a6 00       		.byte	0
 10611 01a7 22       		.uleb128 0x22
 10612 01a8 28       		.uleb128 0x28
 10613 01a9 00       		.byte	0
 10614 01aa 03       		.uleb128 0x3
 10615 01ab 0E       		.uleb128 0xe
 10616 01ac 1C       		.uleb128 0x1c
 10617 01ad 0B       		.uleb128 0xb
 10618 01ae 00       		.byte	0
 10619 01af 00       		.byte	0
 10620 01b0 23       		.uleb128 0x23
 10621 01b1 0D       		.uleb128 0xd
 10622 01b2 00       		.byte	0
 10623 01b3 03       		.uleb128 0x3
 10624 01b4 08       		.uleb128 0x8
 10625 01b5 3A       		.uleb128 0x3a
 10626 01b6 0B       		.uleb128 0xb
 10627 01b7 3B       		.uleb128 0x3b
 10628 01b8 0B       		.uleb128 0xb
 10629 01b9 49       		.uleb128 0x49
 10630 01ba 13       		.uleb128 0x13
 10631 01bb 00       		.byte	0
 10632 01bc 00       		.byte	0
 10633 01bd 24       		.uleb128 0x24
 10634 01be 04       		.uleb128 0x4
 10635 01bf 01       		.byte	0x1
 10636 01c0 3E       		.uleb128 0x3e
 10637 01c1 0B       		.uleb128 0xb
 10638 01c2 0B       		.uleb128 0xb
 10639 01c3 0B       		.uleb128 0xb
 10640 01c4 49       		.uleb128 0x49
 10641 01c5 13       		.uleb128 0x13
 10642 01c6 3A       		.uleb128 0x3a
 10643 01c7 0B       		.uleb128 0xb
 10644 01c8 3B       		.uleb128 0x3b
 10645 01c9 05       		.uleb128 0x5
 10646 01ca 01       		.uleb128 0x1
 10647 01cb 13       		.uleb128 0x13
 10648 01cc 00       		.byte	0
 10649 01cd 00       		.byte	0
 10650 01ce 25       		.uleb128 0x25
 10651 01cf 26       		.uleb128 0x26
 10652 01d0 00       		.byte	0
 10653 01d1 00       		.byte	0
 10654 01d2 00       		.byte	0
ARM GAS  C:\Users\PCHAUT~1\AppData\Local\Temp\ccOhqcVB.s 			page 188


 10655 01d3 26       		.uleb128 0x26
 10656 01d4 13       		.uleb128 0x13
 10657 01d5 01       		.byte	0x1
 10658 01d6 0B       		.uleb128 0xb
 10659 01d7 06       		.uleb128 0x6
 10660 01d8 3A       		.uleb128 0x3a
 10661 01d9 0B       		.uleb128 0xb
 10662 01da 3B       		.uleb128 0x3b
 10663 01db 0B       		.uleb128 0xb
 10664 01dc 01       		.uleb128 0x1
 10665 01dd 13       		.uleb128 0x13
 10666 01de 00       		.byte	0
 10667 01df 00       		.byte	0
 10668 01e0 27       		.uleb128 0x27
 10669 01e1 0D       		.uleb128 0xd
 10670 01e2 00       		.byte	0
 10671 01e3 03       		.uleb128 0x3
 10672 01e4 0E       		.uleb128 0xe
 10673 01e5 3A       		.uleb128 0x3a
 10674 01e6 0B       		.uleb128 0xb
 10675 01e7 3B       		.uleb128 0x3b
 10676 01e8 0B       		.uleb128 0xb
 10677 01e9 49       		.uleb128 0x49
 10678 01ea 13       		.uleb128 0x13
 10679 01eb 38       		.uleb128 0x38
 10680 01ec 05       		.uleb128 0x5
 10681 01ed 00       		.byte	0
 10682 01ee 00       		.byte	0
 10683 01ef 28       		.uleb128 0x28
 10684 01f0 0D       		.uleb128 0xd
 10685 01f1 00       		.byte	0
 10686 01f2 03       		.uleb128 0x3
 10687 01f3 08       		.uleb128 0x8
 10688 01f4 3A       		.uleb128 0x3a
 10689 01f5 0B       		.uleb128 0xb
 10690 01f6 3B       		.uleb128 0x3b
 10691 01f7 0B       		.uleb128 0xb
 10692 01f8 49       		.uleb128 0x49
 10693 01f9 13       		.uleb128 0x13
 10694 01fa 38       		.uleb128 0x38
 10695 01fb 05       		.uleb128 0x5
 10696 01fc 00       		.byte	0
 10697 01fd 00       		.byte	0
 10698 01fe 29       		.uleb128 0x29
 10699 01ff 21       		.uleb128 0x21
 10700 0200 00       		.byte	0
 10701 0201 49       		.uleb128 0x49
 10702 0202 13       		.uleb128 0x13
 10703 0203 2F       		.uleb128 0x2f
 10704 0204 05       		.uleb128 0x5
 10705 0205 00       		.byte	0
 10706 0206 00       		.byte	0
 10707 0207 2A       		.uleb128 0x2a
 10708 0208 0D       		.uleb128 0xd
 10709 0209 00       		.byte	0
 10710 020a 03       		.uleb128 0x3
 10711 020b 0E       		.uleb128 0xe
ARM GAS  C:\Users\PCHAUT~1\AppData\Local\Temp\ccOhqcVB.s 			page 189


 10712 020c 3A       		.uleb128 0x3a
 10713 020d 0B       		.uleb128 0xb
 10714 020e 3B       		.uleb128 0x3b
 10715 020f 0B       		.uleb128 0xb
 10716 0210 49       		.uleb128 0x49
 10717 0211 13       		.uleb128 0x13
 10718 0212 00       		.byte	0
 10719 0213 00       		.byte	0
 10720 0214 2B       		.uleb128 0x2b
 10721 0215 17       		.uleb128 0x17
 10722 0216 01       		.byte	0x1
 10723 0217 0B       		.uleb128 0xb
 10724 0218 0B       		.uleb128 0xb
 10725 0219 3A       		.uleb128 0x3a
 10726 021a 0B       		.uleb128 0xb
 10727 021b 3B       		.uleb128 0x3b
 10728 021c 05       		.uleb128 0x5
 10729 021d 01       		.uleb128 0x1
 10730 021e 13       		.uleb128 0x13
 10731 021f 00       		.byte	0
 10732 0220 00       		.byte	0
 10733 0221 2C       		.uleb128 0x2c
 10734 0222 13       		.uleb128 0x13
 10735 0223 01       		.byte	0x1
 10736 0224 03       		.uleb128 0x3
 10737 0225 0E       		.uleb128 0xe
 10738 0226 0B       		.uleb128 0xb
 10739 0227 05       		.uleb128 0x5
 10740 0228 3A       		.uleb128 0x3a
 10741 0229 0B       		.uleb128 0xb
 10742 022a 3B       		.uleb128 0x3b
 10743 022b 0B       		.uleb128 0xb
 10744 022c 01       		.uleb128 0x1
 10745 022d 13       		.uleb128 0x13
 10746 022e 00       		.byte	0
 10747 022f 00       		.byte	0
 10748 0230 2D       		.uleb128 0x2d
 10749 0231 34       		.uleb128 0x34
 10750 0232 00       		.byte	0
 10751 0233 03       		.uleb128 0x3
 10752 0234 0E       		.uleb128 0xe
 10753 0235 3A       		.uleb128 0x3a
 10754 0236 0B       		.uleb128 0xb
 10755 0237 3B       		.uleb128 0x3b
 10756 0238 0B       		.uleb128 0xb
 10757 0239 49       		.uleb128 0x49
 10758 023a 13       		.uleb128 0x13
 10759 023b 02       		.uleb128 0x2
 10760 023c 18       		.uleb128 0x18
 10761 023d 00       		.byte	0
 10762 023e 00       		.byte	0
 10763 023f 2E       		.uleb128 0x2e
 10764 0240 34       		.uleb128 0x34
 10765 0241 00       		.byte	0
 10766 0242 03       		.uleb128 0x3
 10767 0243 08       		.uleb128 0x8
 10768 0244 3A       		.uleb128 0x3a
ARM GAS  C:\Users\PCHAUT~1\AppData\Local\Temp\ccOhqcVB.s 			page 190


 10769 0245 0B       		.uleb128 0xb
 10770 0246 3B       		.uleb128 0x3b
 10771 0247 0B       		.uleb128 0xb
 10772 0248 49       		.uleb128 0x49
 10773 0249 13       		.uleb128 0x13
 10774 024a 02       		.uleb128 0x2
 10775 024b 18       		.uleb128 0x18
 10776 024c 00       		.byte	0
 10777 024d 00       		.byte	0
 10778 024e 2F       		.uleb128 0x2f
 10779 024f 2E       		.uleb128 0x2e
 10780 0250 01       		.byte	0x1
 10781 0251 3F       		.uleb128 0x3f
 10782 0252 19       		.uleb128 0x19
 10783 0253 03       		.uleb128 0x3
 10784 0254 0E       		.uleb128 0xe
 10785 0255 3A       		.uleb128 0x3a
 10786 0256 0B       		.uleb128 0xb
 10787 0257 3B       		.uleb128 0x3b
 10788 0258 05       		.uleb128 0x5
 10789 0259 27       		.uleb128 0x27
 10790 025a 19       		.uleb128 0x19
 10791 025b 11       		.uleb128 0x11
 10792 025c 01       		.uleb128 0x1
 10793 025d 12       		.uleb128 0x12
 10794 025e 06       		.uleb128 0x6
 10795 025f 40       		.uleb128 0x40
 10796 0260 18       		.uleb128 0x18
 10797 0261 9642     		.uleb128 0x2116
 10798 0263 19       		.uleb128 0x19
 10799 0264 01       		.uleb128 0x1
 10800 0265 13       		.uleb128 0x13
 10801 0266 00       		.byte	0
 10802 0267 00       		.byte	0
 10803 0268 30       		.uleb128 0x30
 10804 0269 05       		.uleb128 0x5
 10805 026a 00       		.byte	0
 10806 026b 03       		.uleb128 0x3
 10807 026c 0E       		.uleb128 0xe
 10808 026d 3A       		.uleb128 0x3a
 10809 026e 0B       		.uleb128 0xb
 10810 026f 3B       		.uleb128 0x3b
 10811 0270 05       		.uleb128 0x5
 10812 0271 49       		.uleb128 0x49
 10813 0272 13       		.uleb128 0x13
 10814 0273 02       		.uleb128 0x2
 10815 0274 18       		.uleb128 0x18
 10816 0275 00       		.byte	0
 10817 0276 00       		.byte	0
 10818 0277 31       		.uleb128 0x31
 10819 0278 05       		.uleb128 0x5
 10820 0279 00       		.byte	0
 10821 027a 03       		.uleb128 0x3
 10822 027b 08       		.uleb128 0x8
 10823 027c 3A       		.uleb128 0x3a
 10824 027d 0B       		.uleb128 0xb
 10825 027e 3B       		.uleb128 0x3b
ARM GAS  C:\Users\PCHAUT~1\AppData\Local\Temp\ccOhqcVB.s 			page 191


 10826 027f 05       		.uleb128 0x5
 10827 0280 49       		.uleb128 0x49
 10828 0281 13       		.uleb128 0x13
 10829 0282 02       		.uleb128 0x2
 10830 0283 18       		.uleb128 0x18
 10831 0284 00       		.byte	0
 10832 0285 00       		.byte	0
 10833 0286 32       		.uleb128 0x32
 10834 0287 34       		.uleb128 0x34
 10835 0288 00       		.byte	0
 10836 0289 03       		.uleb128 0x3
 10837 028a 08       		.uleb128 0x8
 10838 028b 3A       		.uleb128 0x3a
 10839 028c 0B       		.uleb128 0xb
 10840 028d 3B       		.uleb128 0x3b
 10841 028e 05       		.uleb128 0x5
 10842 028f 49       		.uleb128 0x49
 10843 0290 13       		.uleb128 0x13
 10844 0291 02       		.uleb128 0x2
 10845 0292 18       		.uleb128 0x18
 10846 0293 00       		.byte	0
 10847 0294 00       		.byte	0
 10848 0295 33       		.uleb128 0x33
 10849 0296 34       		.uleb128 0x34
 10850 0297 00       		.byte	0
 10851 0298 03       		.uleb128 0x3
 10852 0299 0E       		.uleb128 0xe
 10853 029a 3A       		.uleb128 0x3a
 10854 029b 0B       		.uleb128 0xb
 10855 029c 3B       		.uleb128 0x3b
 10856 029d 05       		.uleb128 0x5
 10857 029e 49       		.uleb128 0x49
 10858 029f 13       		.uleb128 0x13
 10859 02a0 02       		.uleb128 0x2
 10860 02a1 18       		.uleb128 0x18
 10861 02a2 00       		.byte	0
 10862 02a3 00       		.byte	0
 10863 02a4 34       		.uleb128 0x34
 10864 02a5 2E       		.uleb128 0x2e
 10865 02a6 01       		.byte	0x1
 10866 02a7 3F       		.uleb128 0x3f
 10867 02a8 19       		.uleb128 0x19
 10868 02a9 03       		.uleb128 0x3
 10869 02aa 0E       		.uleb128 0xe
 10870 02ab 3A       		.uleb128 0x3a
 10871 02ac 0B       		.uleb128 0xb
 10872 02ad 3B       		.uleb128 0x3b
 10873 02ae 05       		.uleb128 0x5
 10874 02af 27       		.uleb128 0x27
 10875 02b0 19       		.uleb128 0x19
 10876 02b1 49       		.uleb128 0x49
 10877 02b2 13       		.uleb128 0x13
 10878 02b3 11       		.uleb128 0x11
 10879 02b4 01       		.uleb128 0x1
 10880 02b5 12       		.uleb128 0x12
 10881 02b6 06       		.uleb128 0x6
 10882 02b7 40       		.uleb128 0x40
ARM GAS  C:\Users\PCHAUT~1\AppData\Local\Temp\ccOhqcVB.s 			page 192


 10883 02b8 18       		.uleb128 0x18
 10884 02b9 9642     		.uleb128 0x2116
 10885 02bb 19       		.uleb128 0x19
 10886 02bc 01       		.uleb128 0x1
 10887 02bd 13       		.uleb128 0x13
 10888 02be 00       		.byte	0
 10889 02bf 00       		.byte	0
 10890 02c0 35       		.uleb128 0x35
 10891 02c1 2E       		.uleb128 0x2e
 10892 02c2 01       		.byte	0x1
 10893 02c3 3F       		.uleb128 0x3f
 10894 02c4 19       		.uleb128 0x19
 10895 02c5 03       		.uleb128 0x3
 10896 02c6 0E       		.uleb128 0xe
 10897 02c7 3A       		.uleb128 0x3a
 10898 02c8 0B       		.uleb128 0xb
 10899 02c9 3B       		.uleb128 0x3b
 10900 02ca 0B       		.uleb128 0xb
 10901 02cb 27       		.uleb128 0x27
 10902 02cc 19       		.uleb128 0x19
 10903 02cd 11       		.uleb128 0x11
 10904 02ce 01       		.uleb128 0x1
 10905 02cf 12       		.uleb128 0x12
 10906 02d0 06       		.uleb128 0x6
 10907 02d1 40       		.uleb128 0x40
 10908 02d2 18       		.uleb128 0x18
 10909 02d3 9642     		.uleb128 0x2116
 10910 02d5 19       		.uleb128 0x19
 10911 02d6 01       		.uleb128 0x1
 10912 02d7 13       		.uleb128 0x13
 10913 02d8 00       		.byte	0
 10914 02d9 00       		.byte	0
 10915 02da 36       		.uleb128 0x36
 10916 02db 05       		.uleb128 0x5
 10917 02dc 00       		.byte	0
 10918 02dd 03       		.uleb128 0x3
 10919 02de 0E       		.uleb128 0xe
 10920 02df 3A       		.uleb128 0x3a
 10921 02e0 0B       		.uleb128 0xb
 10922 02e1 3B       		.uleb128 0x3b
 10923 02e2 0B       		.uleb128 0xb
 10924 02e3 49       		.uleb128 0x49
 10925 02e4 13       		.uleb128 0x13
 10926 02e5 02       		.uleb128 0x2
 10927 02e6 18       		.uleb128 0x18
 10928 02e7 00       		.byte	0
 10929 02e8 00       		.byte	0
 10930 02e9 37       		.uleb128 0x37
 10931 02ea 34       		.uleb128 0x34
 10932 02eb 00       		.byte	0
 10933 02ec 03       		.uleb128 0x3
 10934 02ed 0E       		.uleb128 0xe
 10935 02ee 49       		.uleb128 0x49
 10936 02ef 13       		.uleb128 0x13
 10937 02f0 34       		.uleb128 0x34
 10938 02f1 19       		.uleb128 0x19
 10939 02f2 02       		.uleb128 0x2
ARM GAS  C:\Users\PCHAUT~1\AppData\Local\Temp\ccOhqcVB.s 			page 193


 10940 02f3 18       		.uleb128 0x18
 10941 02f4 00       		.byte	0
 10942 02f5 00       		.byte	0
 10943 02f6 38       		.uleb128 0x38
 10944 02f7 2E       		.uleb128 0x2e
 10945 02f8 00       		.byte	0
 10946 02f9 3F       		.uleb128 0x3f
 10947 02fa 19       		.uleb128 0x19
 10948 02fb 03       		.uleb128 0x3
 10949 02fc 0E       		.uleb128 0xe
 10950 02fd 3A       		.uleb128 0x3a
 10951 02fe 0B       		.uleb128 0xb
 10952 02ff 3B       		.uleb128 0x3b
 10953 0300 0B       		.uleb128 0xb
 10954 0301 27       		.uleb128 0x27
 10955 0302 19       		.uleb128 0x19
 10956 0303 11       		.uleb128 0x11
 10957 0304 01       		.uleb128 0x1
 10958 0305 12       		.uleb128 0x12
 10959 0306 06       		.uleb128 0x6
 10960 0307 40       		.uleb128 0x40
 10961 0308 18       		.uleb128 0x18
 10962 0309 9642     		.uleb128 0x2116
 10963 030b 19       		.uleb128 0x19
 10964 030c 00       		.byte	0
 10965 030d 00       		.byte	0
 10966 030e 39       		.uleb128 0x39
 10967 030f 2E       		.uleb128 0x2e
 10968 0310 01       		.byte	0x1
 10969 0311 03       		.uleb128 0x3
 10970 0312 0E       		.uleb128 0xe
 10971 0313 3A       		.uleb128 0x3a
 10972 0314 0B       		.uleb128 0xb
 10973 0315 3B       		.uleb128 0x3b
 10974 0316 0B       		.uleb128 0xb
 10975 0317 27       		.uleb128 0x27
 10976 0318 19       		.uleb128 0x19
 10977 0319 11       		.uleb128 0x11
 10978 031a 01       		.uleb128 0x1
 10979 031b 12       		.uleb128 0x12
 10980 031c 06       		.uleb128 0x6
 10981 031d 40       		.uleb128 0x40
 10982 031e 18       		.uleb128 0x18
 10983 031f 9642     		.uleb128 0x2116
 10984 0321 19       		.uleb128 0x19
 10985 0322 01       		.uleb128 0x1
 10986 0323 13       		.uleb128 0x13
 10987 0324 00       		.byte	0
 10988 0325 00       		.byte	0
 10989 0326 3A       		.uleb128 0x3a
 10990 0327 05       		.uleb128 0x5
 10991 0328 00       		.byte	0
 10992 0329 03       		.uleb128 0x3
 10993 032a 08       		.uleb128 0x8
 10994 032b 3A       		.uleb128 0x3a
 10995 032c 0B       		.uleb128 0xb
 10996 032d 3B       		.uleb128 0x3b
ARM GAS  C:\Users\PCHAUT~1\AppData\Local\Temp\ccOhqcVB.s 			page 194


 10997 032e 0B       		.uleb128 0xb
 10998 032f 49       		.uleb128 0x49
 10999 0330 13       		.uleb128 0x13
 11000 0331 02       		.uleb128 0x2
 11001 0332 18       		.uleb128 0x18
 11002 0333 00       		.byte	0
 11003 0334 00       		.byte	0
 11004 0335 3B       		.uleb128 0x3b
 11005 0336 2E       		.uleb128 0x2e
 11006 0337 01       		.byte	0x1
 11007 0338 03       		.uleb128 0x3
 11008 0339 0E       		.uleb128 0xe
 11009 033a 3A       		.uleb128 0x3a
 11010 033b 0B       		.uleb128 0xb
 11011 033c 3B       		.uleb128 0x3b
 11012 033d 0B       		.uleb128 0xb
 11013 033e 27       		.uleb128 0x27
 11014 033f 19       		.uleb128 0x19
 11015 0340 49       		.uleb128 0x49
 11016 0341 13       		.uleb128 0x13
 11017 0342 11       		.uleb128 0x11
 11018 0343 01       		.uleb128 0x1
 11019 0344 12       		.uleb128 0x12
 11020 0345 06       		.uleb128 0x6
 11021 0346 40       		.uleb128 0x40
 11022 0347 18       		.uleb128 0x18
 11023 0348 9642     		.uleb128 0x2116
 11024 034a 19       		.uleb128 0x19
 11025 034b 01       		.uleb128 0x1
 11026 034c 13       		.uleb128 0x13
 11027 034d 00       		.byte	0
 11028 034e 00       		.byte	0
 11029 034f 3C       		.uleb128 0x3c
 11030 0350 2E       		.uleb128 0x2e
 11031 0351 01       		.byte	0x1
 11032 0352 03       		.uleb128 0x3
 11033 0353 08       		.uleb128 0x8
 11034 0354 3A       		.uleb128 0x3a
 11035 0355 0B       		.uleb128 0xb
 11036 0356 3B       		.uleb128 0x3b
 11037 0357 0B       		.uleb128 0xb
 11038 0358 27       		.uleb128 0x27
 11039 0359 19       		.uleb128 0x19
 11040 035a 49       		.uleb128 0x49
 11041 035b 13       		.uleb128 0x13
 11042 035c 11       		.uleb128 0x11
 11043 035d 01       		.uleb128 0x1
 11044 035e 12       		.uleb128 0x12
 11045 035f 06       		.uleb128 0x6
 11046 0360 40       		.uleb128 0x40
 11047 0361 18       		.uleb128 0x18
 11048 0362 9642     		.uleb128 0x2116
 11049 0364 19       		.uleb128 0x19
 11050 0365 01       		.uleb128 0x1
 11051 0366 13       		.uleb128 0x13
 11052 0367 00       		.byte	0
 11053 0368 00       		.byte	0
ARM GAS  C:\Users\PCHAUT~1\AppData\Local\Temp\ccOhqcVB.s 			page 195


 11054 0369 3D       		.uleb128 0x3d
 11055 036a 2E       		.uleb128 0x2e
 11056 036b 01       		.byte	0x1
 11057 036c 03       		.uleb128 0x3
 11058 036d 0E       		.uleb128 0xe
 11059 036e 3A       		.uleb128 0x3a
 11060 036f 0B       		.uleb128 0xb
 11061 0370 3B       		.uleb128 0x3b
 11062 0371 05       		.uleb128 0x5
 11063 0372 27       		.uleb128 0x27
 11064 0373 19       		.uleb128 0x19
 11065 0374 11       		.uleb128 0x11
 11066 0375 01       		.uleb128 0x1
 11067 0376 12       		.uleb128 0x12
 11068 0377 06       		.uleb128 0x6
 11069 0378 40       		.uleb128 0x40
 11070 0379 18       		.uleb128 0x18
 11071 037a 9642     		.uleb128 0x2116
 11072 037c 19       		.uleb128 0x19
 11073 037d 01       		.uleb128 0x1
 11074 037e 13       		.uleb128 0x13
 11075 037f 00       		.byte	0
 11076 0380 00       		.byte	0
 11077 0381 3E       		.uleb128 0x3e
 11078 0382 2E       		.uleb128 0x2e
 11079 0383 00       		.byte	0
 11080 0384 03       		.uleb128 0x3
 11081 0385 0E       		.uleb128 0xe
 11082 0386 3A       		.uleb128 0x3a
 11083 0387 0B       		.uleb128 0xb
 11084 0388 3B       		.uleb128 0x3b
 11085 0389 05       		.uleb128 0x5
 11086 038a 27       		.uleb128 0x27
 11087 038b 19       		.uleb128 0x19
 11088 038c 11       		.uleb128 0x11
 11089 038d 01       		.uleb128 0x1
 11090 038e 12       		.uleb128 0x12
 11091 038f 06       		.uleb128 0x6
 11092 0390 40       		.uleb128 0x40
 11093 0391 18       		.uleb128 0x18
 11094 0392 9642     		.uleb128 0x2116
 11095 0394 19       		.uleb128 0x19
 11096 0395 00       		.byte	0
 11097 0396 00       		.byte	0
 11098 0397 3F       		.uleb128 0x3f
 11099 0398 2E       		.uleb128 0x2e
 11100 0399 01       		.byte	0x1
 11101 039a 03       		.uleb128 0x3
 11102 039b 0E       		.uleb128 0xe
 11103 039c 3A       		.uleb128 0x3a
 11104 039d 0B       		.uleb128 0xb
 11105 039e 3B       		.uleb128 0x3b
 11106 039f 05       		.uleb128 0x5
 11107 03a0 27       		.uleb128 0x27
 11108 03a1 19       		.uleb128 0x19
 11109 03a2 49       		.uleb128 0x49
 11110 03a3 13       		.uleb128 0x13
ARM GAS  C:\Users\PCHAUT~1\AppData\Local\Temp\ccOhqcVB.s 			page 196


 11111 03a4 11       		.uleb128 0x11
 11112 03a5 01       		.uleb128 0x1
 11113 03a6 12       		.uleb128 0x12
 11114 03a7 06       		.uleb128 0x6
 11115 03a8 40       		.uleb128 0x40
 11116 03a9 18       		.uleb128 0x18
 11117 03aa 9642     		.uleb128 0x2116
 11118 03ac 19       		.uleb128 0x19
 11119 03ad 01       		.uleb128 0x1
 11120 03ae 13       		.uleb128 0x13
 11121 03af 00       		.byte	0
 11122 03b0 00       		.byte	0
 11123 03b1 40       		.uleb128 0x40
 11124 03b2 1D       		.uleb128 0x1d
 11125 03b3 01       		.byte	0x1
 11126 03b4 31       		.uleb128 0x31
 11127 03b5 13       		.uleb128 0x13
 11128 03b6 11       		.uleb128 0x11
 11129 03b7 01       		.uleb128 0x1
 11130 03b8 12       		.uleb128 0x12
 11131 03b9 06       		.uleb128 0x6
 11132 03ba 58       		.uleb128 0x58
 11133 03bb 0B       		.uleb128 0xb
 11134 03bc 59       		.uleb128 0x59
 11135 03bd 05       		.uleb128 0x5
 11136 03be 00       		.byte	0
 11137 03bf 00       		.byte	0
 11138 03c0 41       		.uleb128 0x41
 11139 03c1 05       		.uleb128 0x5
 11140 03c2 00       		.byte	0
 11141 03c3 31       		.uleb128 0x31
 11142 03c4 13       		.uleb128 0x13
 11143 03c5 02       		.uleb128 0x2
 11144 03c6 18       		.uleb128 0x18
 11145 03c7 00       		.byte	0
 11146 03c8 00       		.byte	0
 11147 03c9 42       		.uleb128 0x42
 11148 03ca 2E       		.uleb128 0x2e
 11149 03cb 01       		.byte	0x1
 11150 03cc 03       		.uleb128 0x3
 11151 03cd 0E       		.uleb128 0xe
 11152 03ce 3A       		.uleb128 0x3a
 11153 03cf 0B       		.uleb128 0xb
 11154 03d0 3B       		.uleb128 0x3b
 11155 03d1 05       		.uleb128 0x5
 11156 03d2 27       		.uleb128 0x27
 11157 03d3 19       		.uleb128 0x19
 11158 03d4 20       		.uleb128 0x20
 11159 03d5 0B       		.uleb128 0xb
 11160 03d6 00       		.byte	0
 11161 03d7 00       		.byte	0
 11162 03d8 43       		.uleb128 0x43
 11163 03d9 05       		.uleb128 0x5
 11164 03da 00       		.byte	0
 11165 03db 03       		.uleb128 0x3
 11166 03dc 0E       		.uleb128 0xe
 11167 03dd 3A       		.uleb128 0x3a
ARM GAS  C:\Users\PCHAUT~1\AppData\Local\Temp\ccOhqcVB.s 			page 197


 11168 03de 0B       		.uleb128 0xb
 11169 03df 3B       		.uleb128 0x3b
 11170 03e0 05       		.uleb128 0x5
 11171 03e1 49       		.uleb128 0x49
 11172 03e2 13       		.uleb128 0x13
 11173 03e3 00       		.byte	0
 11174 03e4 00       		.byte	0
 11175 03e5 00       		.byte	0
 11176              		.section	.debug_aranges,"",%progbits
 11177 0000 3C010000 		.4byte	0x13c
 11178 0004 0200     		.2byte	0x2
 11179 0006 00000000 		.4byte	.Ldebug_info0
 11180 000a 04       		.byte	0x4
 11181 000b 00       		.byte	0
 11182 000c 0000     		.2byte	0
 11183 000e 0000     		.2byte	0
 11184 0010 00000000 		.4byte	.LFB116
 11185 0014 30000000 		.4byte	.LFE116-.LFB116
 11186 0018 00000000 		.4byte	.LFB117
 11187 001c 30000000 		.4byte	.LFE117-.LFB117
 11188 0020 00000000 		.4byte	.LFB118
 11189 0024 28000000 		.4byte	.LFE118-.LFB118
 11190 0028 00000000 		.4byte	.LFB119
 11191 002c 28000000 		.4byte	.LFE119-.LFB119
 11192 0030 00000000 		.4byte	.LFB145
 11193 0034 30000000 		.4byte	.LFE145-.LFB145
 11194 0038 00000000 		.4byte	.LFB146
 11195 003c 58000000 		.4byte	.LFE146-.LFB146
 11196 0040 00000000 		.4byte	.LFB147
 11197 0044 30000000 		.4byte	.LFE147-.LFB147
 11198 0048 00000000 		.4byte	.LFB148
 11199 004c 30000000 		.4byte	.LFE148-.LFB148
 11200 0050 00000000 		.4byte	.LFB194
 11201 0054 2C000000 		.4byte	.LFE194-.LFB194
 11202 0058 00000000 		.4byte	.LFB210
 11203 005c 40000000 		.4byte	.LFE210-.LFB210
 11204 0060 00000000 		.4byte	.LFB214
 11205 0064 40000000 		.4byte	.LFE214-.LFB214
 11206 0068 00000000 		.4byte	.LFB223
 11207 006c 28000000 		.4byte	.LFE223-.LFB223
 11208 0070 00000000 		.4byte	.LFB224
 11209 0074 28000000 		.4byte	.LFE224-.LFB224
 11210 0078 00000000 		.4byte	.LFB225
 11211 007c 28000000 		.4byte	.LFE225-.LFB225
 11212 0080 00000000 		.4byte	.LFB226
 11213 0084 28000000 		.4byte	.LFE226-.LFB226
 11214 0088 00000000 		.4byte	.LFB231
 11215 008c 28000000 		.4byte	.LFE231-.LFB231
 11216 0090 00000000 		.4byte	.LFB244
 11217 0094 2C000000 		.4byte	.LFE244-.LFB244
 11218 0098 00000000 		.4byte	.LFB245
 11219 009c 30000000 		.4byte	.LFE245-.LFB245
 11220 00a0 00000000 		.4byte	.LFB256
 11221 00a4 40000000 		.4byte	.LFE256-.LFB256
 11222 00a8 00000000 		.4byte	.LFB257
 11223 00ac 40000000 		.4byte	.LFE257-.LFB257
 11224 00b0 00000000 		.4byte	.LFB258
ARM GAS  C:\Users\PCHAUT~1\AppData\Local\Temp\ccOhqcVB.s 			page 198


 11225 00b4 40000000 		.4byte	.LFE258-.LFB258
 11226 00b8 00000000 		.4byte	.LFB259
 11227 00bc 38000000 		.4byte	.LFE259-.LFB259
 11228 00c0 00000000 		.4byte	.LFB260
 11229 00c4 40000000 		.4byte	.LFE260-.LFB260
 11230 00c8 00000000 		.4byte	.LFB261
 11231 00cc 38000000 		.4byte	.LFE261-.LFB261
 11232 00d0 00000000 		.4byte	.LFB262
 11233 00d4 40000000 		.4byte	.LFE262-.LFB262
 11234 00d8 00000000 		.4byte	.LFB263
 11235 00dc 40000000 		.4byte	.LFE263-.LFB263
 11236 00e0 00000000 		.4byte	.LFB264
 11237 00e4 E4000000 		.4byte	.LFE264-.LFB264
 11238 00e8 00000000 		.4byte	.LFB265
 11239 00ec B4000000 		.4byte	.LFE265-.LFB265
 11240 00f0 00000000 		.4byte	.LFB266
 11241 00f4 24000000 		.4byte	.LFE266-.LFB266
 11242 00f8 00000000 		.4byte	.LFB267
 11243 00fc 7C000000 		.4byte	.LFE267-.LFB267
 11244 0100 00000000 		.4byte	.LFB268
 11245 0104 A8000000 		.4byte	.LFE268-.LFB268
 11246 0108 00000000 		.4byte	.LFB269
 11247 010c D4000000 		.4byte	.LFE269-.LFB269
 11248 0110 00000000 		.4byte	.LFB270
 11249 0114 8C000000 		.4byte	.LFE270-.LFB270
 11250 0118 00000000 		.4byte	.LFB271
 11251 011c 94000000 		.4byte	.LFE271-.LFB271
 11252 0120 00000000 		.4byte	.LFB272
 11253 0124 FC000000 		.4byte	.LFE272-.LFB272
 11254 0128 00000000 		.4byte	.LFB273
 11255 012c B4000000 		.4byte	.LFE273-.LFB273
 11256 0130 00000000 		.4byte	.LFB274
 11257 0134 2C000000 		.4byte	.LFE274-.LFB274
 11258 0138 00000000 		.4byte	0
 11259 013c 00000000 		.4byte	0
 11260              		.section	.debug_ranges,"",%progbits
 11261              	.Ldebug_ranges0:
 11262 0000 00000000 		.4byte	.LFB116
 11263 0004 30000000 		.4byte	.LFE116
 11264 0008 00000000 		.4byte	.LFB117
 11265 000c 30000000 		.4byte	.LFE117
 11266 0010 00000000 		.4byte	.LFB118
 11267 0014 28000000 		.4byte	.LFE118
 11268 0018 00000000 		.4byte	.LFB119
 11269 001c 28000000 		.4byte	.LFE119
 11270 0020 00000000 		.4byte	.LFB145
 11271 0024 30000000 		.4byte	.LFE145
 11272 0028 00000000 		.4byte	.LFB146
 11273 002c 58000000 		.4byte	.LFE146
 11274 0030 00000000 		.4byte	.LFB147
 11275 0034 30000000 		.4byte	.LFE147
 11276 0038 00000000 		.4byte	.LFB148
 11277 003c 30000000 		.4byte	.LFE148
 11278 0040 00000000 		.4byte	.LFB194
 11279 0044 2C000000 		.4byte	.LFE194
 11280 0048 00000000 		.4byte	.LFB210
 11281 004c 40000000 		.4byte	.LFE210
ARM GAS  C:\Users\PCHAUT~1\AppData\Local\Temp\ccOhqcVB.s 			page 199


 11282 0050 00000000 		.4byte	.LFB214
 11283 0054 40000000 		.4byte	.LFE214
 11284 0058 00000000 		.4byte	.LFB223
 11285 005c 28000000 		.4byte	.LFE223
 11286 0060 00000000 		.4byte	.LFB224
 11287 0064 28000000 		.4byte	.LFE224
 11288 0068 00000000 		.4byte	.LFB225
 11289 006c 28000000 		.4byte	.LFE225
 11290 0070 00000000 		.4byte	.LFB226
 11291 0074 28000000 		.4byte	.LFE226
 11292 0078 00000000 		.4byte	.LFB231
 11293 007c 28000000 		.4byte	.LFE231
 11294 0080 00000000 		.4byte	.LFB244
 11295 0084 2C000000 		.4byte	.LFE244
 11296 0088 00000000 		.4byte	.LFB245
 11297 008c 30000000 		.4byte	.LFE245
 11298 0090 00000000 		.4byte	.LFB256
 11299 0094 40000000 		.4byte	.LFE256
 11300 0098 00000000 		.4byte	.LFB257
 11301 009c 40000000 		.4byte	.LFE257
 11302 00a0 00000000 		.4byte	.LFB258
 11303 00a4 40000000 		.4byte	.LFE258
 11304 00a8 00000000 		.4byte	.LFB259
 11305 00ac 38000000 		.4byte	.LFE259
 11306 00b0 00000000 		.4byte	.LFB260
 11307 00b4 40000000 		.4byte	.LFE260
 11308 00b8 00000000 		.4byte	.LFB261
 11309 00bc 38000000 		.4byte	.LFE261
 11310 00c0 00000000 		.4byte	.LFB262
 11311 00c4 40000000 		.4byte	.LFE262
 11312 00c8 00000000 		.4byte	.LFB263
 11313 00cc 40000000 		.4byte	.LFE263
 11314 00d0 00000000 		.4byte	.LFB264
 11315 00d4 E4000000 		.4byte	.LFE264
 11316 00d8 00000000 		.4byte	.LFB265
 11317 00dc B4000000 		.4byte	.LFE265
 11318 00e0 00000000 		.4byte	.LFB266
 11319 00e4 24000000 		.4byte	.LFE266
 11320 00e8 00000000 		.4byte	.LFB267
 11321 00ec 7C000000 		.4byte	.LFE267
 11322 00f0 00000000 		.4byte	.LFB268
 11323 00f4 A8000000 		.4byte	.LFE268
 11324 00f8 00000000 		.4byte	.LFB269
 11325 00fc D4000000 		.4byte	.LFE269
 11326 0100 00000000 		.4byte	.LFB270
 11327 0104 8C000000 		.4byte	.LFE270
 11328 0108 00000000 		.4byte	.LFB271
 11329 010c 94000000 		.4byte	.LFE271
 11330 0110 00000000 		.4byte	.LFB272
 11331 0114 FC000000 		.4byte	.LFE272
 11332 0118 00000000 		.4byte	.LFB273
 11333 011c B4000000 		.4byte	.LFE273
 11334 0120 00000000 		.4byte	.LFB274
 11335 0124 2C000000 		.4byte	.LFE274
 11336 0128 00000000 		.4byte	0
 11337 012c 00000000 		.4byte	0
 11338              		.section	.debug_line,"",%progbits
ARM GAS  C:\Users\PCHAUT~1\AppData\Local\Temp\ccOhqcVB.s 			page 200


 11339              	.Ldebug_line0:
 11340 0000 620C0000 		.section	.debug_str,"MS",%progbits,1
 11340      02007908 
 11340      00000201 
 11340      FB0E0D00 
 11340      01010101 
 11341              	.LASF746:
 11342 0000 63684F51 		.ascii	"chOQGetFullI\000"
 11342      47657446 
 11342      756C6C49 
 11342      00
 11343              	.LASF730:
 11344 000d 73647543 		.ascii	"sduConfigureHookI\000"
 11344      6F6E6669 
 11344      67757265 
 11344      486F6F6B 
 11344      4900
 11345              	.LASF572:
 11346 001f 5553425F 		.ascii	"USB_STOP\000"
 11346      53544F50 
 11346      00
 11347              	.LASF186:
 11348 0028 706F7274 		.ascii	"port_intctx\000"
 11348      5F696E74 
 11348      63747800 
 11349              	.LASF195:
 11350 0034 63685F74 		.ascii	"ch_trace_buffer_t\000"
 11350      72616365 
 11350      5F627566 
 11350      6665725F 
 11350      7400
 11351              	.LASF228:
 11352 0046 63685F70 		.ascii	"ch_ptrsize\000"
 11352      74727369 
 11352      7A6500
 11353              	.LASF508:
 11354 0051 6576656E 		.ascii	"event\000"
 11354      7400
 11355              	.LASF359:
 11356 0057 43414E5F 		.ascii	"CAN_STARTING\000"
 11356      53544152 
 11356      54494E47 
 11356      00
 11357              	.LASF733:
 11358 0064 5F5F6675 		.ascii	"__func__\000"
 11358      6E635F5F 
 11358      00
 11359              	.LASF30:
 11360 006d 6D73675F 		.ascii	"msg_t\000"
 11360      7400
 11361              	.LASF304:
 11362 0073 61667268 		.ascii	"afrh\000"
 11362      00
 11363              	.LASF451:
 11364 0078 4F504D4F 		.ascii	"OPMODE_SMBUS_DEVICE\000"
 11364      44455F53 
 11364      4D425553 
ARM GAS  C:\Users\PCHAUT~1\AppData\Local\Temp\ccOhqcVB.s 			page 201


 11364      5F444556 
 11364      49434500 
 11365              	.LASF206:
 11366 008c 6D5F6372 		.ascii	"m_crit_isr\000"
 11366      69745F69 
 11366      737200
 11367              	.LASF753:
 11368 0097 706F7274 		.ascii	"port_unlock_from_isr\000"
 11368      5F756E6C 
 11368      6F636B5F 
 11368      66726F6D 
 11368      5F697372 
 11369              	.LASF759:
 11370 00ac 433A5C55 		.ascii	"C:\\Users\\Pchautems\\Documents\\RobotiqueTP\\Proje"
 11370      73657273 
 11370      5C506368 
 11370      61757465 
 11370      6D735C44 
 11371 00da 745C6D69 		.ascii	"t\\miniprojet\000"
 11371      6E697072 
 11371      6F6A6574 
 11371      00
 11372              	.LASF631:
 11373 00e7 44494550 		.ascii	"DIEPTXF0\000"
 11373      54584630 
 11373      00
 11374              	.LASF707:
 11375 00f0 55534244 		.ascii	"USBD1\000"
 11375      3100
 11376              	.LASF358:
 11377 00f6 43414E5F 		.ascii	"CAN_STOP\000"
 11377      53544F50 
 11377      00
 11378              	.LASF241:
 11379 00ff 63665F6F 		.ascii	"cf_off_time\000"
 11379      66665F74 
 11379      696D6500 
 11380              	.LASF89:
 11381 010b 63685F73 		.ascii	"ch_system_t\000"
 11381      79737465 
 11381      6D5F7400 
 11382              	.LASF5:
 11383 0117 5F5F7569 		.ascii	"__uint8_t\000"
 11383      6E74385F 
 11383      7400
 11384              	.LASF212:
 11385 0121 77747365 		.ascii	"wtsemp\000"
 11385      6D7000
 11386              	.LASF288:
 11387 0128 5F426F6F 		.ascii	"_Bool\000"
 11387      6C00
 11388              	.LASF400:
 11389 012e 64617461 		.ascii	"datamode\000"
 11389      6D6F6465 
 11389      00
 11390              	.LASF467:
 11391 0137 646D6172 		.ascii	"dmarx\000"
ARM GAS  C:\Users\PCHAUT~1\AppData\Local\Temp\ccOhqcVB.s 			page 202


 11391      7800
 11392              	.LASF472:
 11393 013d 4932535F 		.ascii	"I2S_READY\000"
 11393      52454144 
 11393      5900
 11394              	.LASF744:
 11395 0147 6F73616C 		.ascii	"osalSysUnlock\000"
 11395      53797355 
 11395      6E6C6F63 
 11395      6B00
 11396              	.LASF348:
 11397 0155 73717231 		.ascii	"sqr1\000"
 11397      00
 11398              	.LASF275:
 11399 015a 424C4B5F 		.ascii	"BLK_UNINIT\000"
 11399      554E494E 
 11399      495400
 11400              	.LASF479:
 11401 0165 72785F62 		.ascii	"rx_buffer\000"
 11401      75666665 
 11401      7200
 11402              	.LASF463:
 11403 016f 6572726F 		.ascii	"errors\000"
 11403      727300
 11404              	.LASF199:
 11405 0176 776F7273 		.ascii	"worst\000"
 11405      7400
 11406              	.LASF82:
 11407 017c 76745F73 		.ascii	"vt_systime\000"
 11407      79737469 
 11407      6D6500
 11408              	.LASF148:
 11409 0187 444F5231 		.ascii	"DOR1\000"
 11409      00
 11410              	.LASF149:
 11411 018c 444F5232 		.ascii	"DOR2\000"
 11411      00
 11412              	.LASF478:
 11413 0191 74785F62 		.ascii	"tx_buffer\000"
 11413      75666665 
 11413      7200
 11414              	.LASF221:
 11415 019b 6D5F6E65 		.ascii	"m_next\000"
 11415      787400
 11416              	.LASF308:
 11417 01a2 50434461 		.ascii	"PCData\000"
 11417      746100
 11418              	.LASF171:
 11419 01a9 4D41534B 		.ascii	"MASK\000"
 11419      00
 11420              	.LASF333:
 11421 01ae 73616D70 		.ascii	"samples\000"
 11421      6C657300 
 11422              	.LASF635:
 11423 01b6 47434346 		.ascii	"GCCFG\000"
 11423      4700
 11424              	.LASF429:
ARM GAS  C:\Users\PCHAUT~1\AppData\Local\Temp\ccOhqcVB.s 			page 203


 11425 01bc 42445452 		.ascii	"BDTR\000"
 11425      00
 11426              	.LASF382:
 11427 01c1 7265676D 		.ascii	"regmask\000"
 11427      61736B00 
 11428              	.LASF461:
 11429 01c9 49324343 		.ascii	"I2CConfig\000"
 11429      6F6E6669 
 11429      6700
 11430              	.LASF19:
 11431 01d3 75696E74 		.ascii	"uint16_t\000"
 11431      31365F74 
 11431      00
 11432              	.LASF710:
 11433 01dc 62506172 		.ascii	"bParityType\000"
 11433      69747954 
 11433      79706500 
 11434              	.LASF468:
 11435 01e8 646D6174 		.ascii	"dmatx\000"
 11435      7800
 11436              	.LASF705:
 11437 01ee 736F665F 		.ascii	"sof_cb\000"
 11437      636200
 11438              	.LASF405:
 11439 01f5 4558545F 		.ascii	"EXT_ACTIVE\000"
 11439      41435449 
 11439      564500
 11440              	.LASF301:
 11441 0200 6F737065 		.ascii	"ospeedr\000"
 11441      65647200 
 11442              	.LASF638:
 11443 0208 44494550 		.ascii	"DIEPTXF\000"
 11443      54584600 
 11444              	.LASF247:
 11445 0210 656C5F6E 		.ascii	"el_next\000"
 11445      65787400 
 11446              	.LASF328:
 11447 0218 4144435F 		.ascii	"ADC_ERR_OVERFLOW\000"
 11447      4552525F 
 11447      4F564552 
 11447      464C4F57 
 11447      00
 11448              	.LASF717:
 11449 0229 53657269 		.ascii	"SerialUSBDriver\000"
 11449      616C5553 
 11449      42447269 
 11449      76657200 
 11450              	.LASF87:
 11451 0239 6C6F636B 		.ascii	"lock_cnt\000"
 11451      5F636E74 
 11451      00
 11452              	.LASF63:
 11453 0242 63685F74 		.ascii	"ch_threads_queue\000"
 11453      68726561 
 11453      64735F71 
 11453      75657565 
 11453      00
ARM GAS  C:\Users\PCHAUT~1\AppData\Local\Temp\ccOhqcVB.s 			page 204


 11454              	.LASF41:
 11455 0253 705F6E65 		.ascii	"p_newer\000"
 11455      77657200 
 11456              	.LASF648:
 11457 025b 48505254 		.ascii	"HPRT\000"
 11457      00
 11458              	.LASF602:
 11459 0260 4843494E 		.ascii	"HCINT\000"
 11459      5400
 11460              	.LASF98:
 11461 0266 534D5052 		.ascii	"SMPR1\000"
 11461      3100
 11462              	.LASF99:
 11463 026c 534D5052 		.ascii	"SMPR2\000"
 11463      3200
 11464              	.LASF238:
 11465 0272 63665F6F 		.ascii	"cf_off_flags\000"
 11465      66665F66 
 11465      6C616773 
 11465      00
 11466              	.LASF541:
 11467 027f 5350495F 		.ascii	"SPI_STOP\000"
 11467      53544F50 
 11467      00
 11468              	.LASF495:
 11469 0288 70776D63 		.ascii	"pwmchnmsk_t\000"
 11469      686E6D73 
 11469      6B5F7400 
 11470              	.LASF307:
 11471 0294 50424461 		.ascii	"PBData\000"
 11471      746100
 11472              	.LASF226:
 11473 029b 63685F73 		.ascii	"ch_size\000"
 11473      697A6500 
 11474              	.LASF644:
 11475 02a3 48505458 		.ascii	"HPTXSTS\000"
 11475      53545300 
 11476              	.LASF300:
 11477 02ab 6F747970 		.ascii	"otyper\000"
 11477      657200
 11478              	.LASF291:
 11479 02b2 4F545950 		.ascii	"OTYPER\000"
 11479      455200
 11480              	.LASF384:
 11481 02b9 64616370 		.ascii	"dacparams_t\000"
 11481      6172616D 
 11481      735F7400 
 11482              	.LASF519:
 11483 02c5 5344435F 		.ascii	"SDC_MODE_1BIT\000"
 11483      4D4F4445 
 11483      5F314249 
 11483      5400
 11484              	.LASF600:
 11485 02d3 48434348 		.ascii	"HCCHAR\000"
 11485      415200
 11486              	.LASF445:
 11487 02da 4932435F 		.ascii	"I2C_ACTIVE_RX\000"
ARM GAS  C:\Users\PCHAUT~1\AppData\Local\Temp\ccOhqcVB.s 			page 205


 11487      41435449 
 11487      56455F52 
 11487      5800
 11488              	.LASF36:
 11489 02e8 74687265 		.ascii	"thread_t\000"
 11489      61645F74 
 11489      00
 11490              	.LASF249:
 11491 02f1 656C5F65 		.ascii	"el_events\000"
 11491      76656E74 
 11491      7300
 11492              	.LASF488:
 11493 02fb 70776D73 		.ascii	"pwmstate_t\000"
 11493      74617465 
 11493      5F7400
 11494              	.LASF369:
 11495 0306 736C6565 		.ascii	"sleep_event\000"
 11495      705F6576 
 11495      656E7400 
 11496              	.LASF81:
 11497 0312 63685F76 		.ascii	"ch_virtual_timers_list\000"
 11497      69727475 
 11497      616C5F74 
 11497      696D6572 
 11497      735F6C69 
 11498              	.LASF272:
 11499 0329 76656374 		.ascii	"vector\000"
 11499      6F7200
 11500              	.LASF20:
 11501 0330 696E7433 		.ascii	"int32_t\000"
 11501      325F7400 
 11502              	.LASF459:
 11503 0338 636C6F63 		.ascii	"clock_speed\000"
 11503      6B5F7370 
 11503      65656400 
 11504              	.LASF35:
 11505 0344 73797374 		.ascii	"systime_t\000"
 11505      696D655F 
 11505      7400
 11506              	.LASF402:
 11507 034e 44414344 		.ascii	"DACD2\000"
 11507      3200
 11508              	.LASF371:
 11509 0354 43414E44 		.ascii	"CANDriver\000"
 11509      72697665 
 11509      7200
 11510              	.LASF236:
 11511 035e 63665F6F 		.ascii	"cf_off_stklimit\000"
 11511      66665F73 
 11511      746B6C69 
 11511      6D697400 
 11512              	.LASF152:
 11513 036e 4D304152 		.ascii	"M0AR\000"
 11513      00
 11514              	.LASF607:
 11515 0373 72657376 		.ascii	"resvd1c\000"
 11515      64316300 
ARM GAS  C:\Users\PCHAUT~1\AppData\Local\Temp\ccOhqcVB.s 			page 206


 11516              	.LASF449:
 11517 037b 69326366 		.ascii	"i2cflags_t\000"
 11517      6C616773 
 11517      5F7400
 11518              	.LASF645:
 11519 0386 4841494E 		.ascii	"HAINT\000"
 11519      5400
 11520              	.LASF134:
 11521 038c 46413152 		.ascii	"FA1R\000"
 11521      00
 11522              	.LASF642:
 11523 0391 48464E55 		.ascii	"HFNUM\000"
 11523      4D00
 11524              	.LASF265:
 11525 0397 716E6F74 		.ascii	"qnotify_t\000"
 11525      6966795F 
 11525      7400
 11526              	.LASF324:
 11527 03a1 61646373 		.ascii	"adcstate_t\000"
 11527      74617465 
 11527      5F7400
 11528              	.LASF270:
 11529 03ac 69736869 		.ascii	"ishift\000"
 11529      667400
 11530              	.LASF419:
 11531 03b3 4750545F 		.ascii	"GPT_ONESHOT\000"
 11531      4F4E4553 
 11531      484F5400 
 11532              	.LASF260:
 11533 03bf 715F746F 		.ascii	"q_top\000"
 11533      7000
 11534              	.LASF593:
 11535 03c5 75645F73 		.ascii	"ud_string\000"
 11535      7472696E 
 11535      6700
 11536              	.LASF462:
 11537 03cf 49324344 		.ascii	"I2CDriver\000"
 11537      72697665 
 11537      7200
 11538              	.LASF444:
 11539 03d9 4932435F 		.ascii	"I2C_ACTIVE_TX\000"
 11539      41435449 
 11539      56455F54 
 11539      5800
 11540              	.LASF514:
 11541 03e7 72656164 		.ascii	"read\000"
 11541      00
 11542              	.LASF450:
 11543 03ec 4F504D4F 		.ascii	"OPMODE_I2C\000"
 11543      44455F49 
 11543      324300
 11544              	.LASF654:
 11545 03f7 72657376 		.ascii	"resvd80C\000"
 11545      64383043 
 11545      00
 11546              	.LASF702:
 11547 0400 6576656E 		.ascii	"event_cb\000"
ARM GAS  C:\Users\PCHAUT~1\AppData\Local\Temp\ccOhqcVB.s 			page 207


 11547      745F6362 
 11547      00
 11548              	.LASF621:
 11549 0409 474F5447 		.ascii	"GOTGCTL\000"
 11549      43544C00 
 11550              	.LASF720:
 11551 0411 62756C6B 		.ascii	"bulk_out\000"
 11551      5F6F7574 
 11551      00
 11552              	.LASF596:
 11553 041a 75736265 		.ascii	"usbepcallback_t\000"
 11553      7063616C 
 11553      6C626163 
 11553      6B5F7400 
 11554              	.LASF448:
 11555 042a 69326361 		.ascii	"i2caddr_t\000"
 11555      6464725F 
 11555      7400
 11556              	.LASF92:
 11557 0434 76746C69 		.ascii	"vtlist\000"
 11557      737400
 11558              	.LASF157:
 11559 043b 54524953 		.ascii	"TRISE\000"
 11559      4500
 11560              	.LASF660:
 11561 0441 72657376 		.ascii	"resvd824\000"
 11561      64383234 
 11561      00
 11562              	.LASF50:
 11563 044a 705F7761 		.ascii	"p_waiting\000"
 11563      6974696E 
 11563      6700
 11564              	.LASF207:
 11565 0454 6B65726E 		.ascii	"kernel_stats_t\000"
 11565      656C5F73 
 11565      74617473 
 11565      5F7400
 11566              	.LASF257:
 11567 0463 715F7761 		.ascii	"q_waiting\000"
 11567      6974696E 
 11567      6700
 11568              	.LASF116:
 11569 046d 43414E5F 		.ascii	"CAN_TxMailBox_TypeDef\000"
 11569      54784D61 
 11569      696C426F 
 11569      785F5479 
 11569      70654465 
 11570              	.LASF91:
 11571 0483 726C6973 		.ascii	"rlist\000"
 11571      7400
 11572              	.LASF59:
 11573 0489 74687265 		.ascii	"threads_list_t\000"
 11573      6164735F 
 11573      6C697374 
 11573      5F7400
 11574              	.LASF232:
 11575 0498 63665F6F 		.ascii	"cf_off_ctx\000"
ARM GAS  C:\Users\PCHAUT~1\AppData\Local\Temp\ccOhqcVB.s 			page 208


 11575      66665F63 
 11575      747800
 11576              	.LASF266:
 11577 04a3 696E7075 		.ascii	"input_queue_t\000"
 11577      745F7175 
 11577      6575655F 
 11577      7400
 11578              	.LASF351:
 11579 04b1 41444343 		.ascii	"ADCConversionGroup\000"
 11579      6F6E7665 
 11579      7273696F 
 11579      6E47726F 
 11579      757000
 11580              	.LASF653:
 11581 04c4 44535453 		.ascii	"DSTS\000"
 11581      00
 11582              	.LASF454:
 11583 04c9 5354445F 		.ascii	"STD_DUTY_CYCLE\000"
 11583      44555459 
 11583      5F435943 
 11583      4C4500
 11584              	.LASF360:
 11585 04d8 43414E5F 		.ascii	"CAN_READY\000"
 11585      52454144 
 11585      5900
 11586              	.LASF234:
 11587 04e2 63665F6F 		.ascii	"cf_off_older\000"
 11587      66665F6F 
 11587      6C646572 
 11587      00
 11588              	.LASF24:
 11589 04ef 72747469 		.ascii	"rttime_t\000"
 11589      6D655F74 
 11589      00
 11590              	.LASF414:
 11591 04f8 45585444 		.ascii	"EXTD1\000"
 11591      3100
 11592              	.LASF687:
 11593 04fe 72787175 		.ascii	"rxqueued\000"
 11593      65756564 
 11593      00
 11594              	.LASF362:
 11595 0507 63616E73 		.ascii	"canstate_t\000"
 11595      74617465 
 11595      5F7400
 11596              	.LASF136:
 11597 0512 7346696C 		.ascii	"sFilterRegister\000"
 11597      74657252 
 11597      65676973 
 11597      74657200 
 11598              	.LASF659:
 11599 0522 72657376 		.ascii	"resvd820\000"
 11599      64383230 
 11599      00
 11600              	.LASF163:
 11601 052b 52455350 		.ascii	"RESP1\000"
 11601      3100
ARM GAS  C:\Users\PCHAUT~1\AppData\Local\Temp\ccOhqcVB.s 			page 209


 11602              	.LASF164:
 11603 0531 52455350 		.ascii	"RESP2\000"
 11603      3200
 11604              	.LASF165:
 11605 0537 52455350 		.ascii	"RESP3\000"
 11605      3300
 11606              	.LASF166:
 11607 053d 52455350 		.ascii	"RESP4\000"
 11607      3400
 11608              	.LASF742:
 11609 0543 6F73616C 		.ascii	"osalSysUnlockFromISR\000"
 11609      53797355 
 11609      6E6C6F63 
 11609      6B46726F 
 11609      6D495352 
 11610              	.LASF441:
 11611 0558 4932435F 		.ascii	"I2C_UNINIT\000"
 11611      554E494E 
 11611      495400
 11612              	.LASF598:
 11613 0563 75736272 		.ascii	"usbreqhandler_t\000"
 11613      65716861 
 11613      6E646C65 
 11613      725F7400 
 11614              	.LASF322:
 11615 0573 4144435F 		.ascii	"ADC_COMPLETE\000"
 11615      434F4D50 
 11615      4C455445 
 11615      00
 11616              	.LASF438:
 11617 0580 47505443 		.ascii	"GPTConfig\000"
 11617      6F6E6669 
 11617      6700
 11618              	.LASF503:
 11619 058a 53445F55 		.ascii	"SD_UNINIT\000"
 11619      4E494E49 
 11619      5400
 11620              	.LASF29:
 11621 0594 74707269 		.ascii	"tprio_t\000"
 11621      6F5F7400 
 11622              	.LASF203:
 11623 059c 6E5F6972 		.ascii	"n_irq\000"
 11623      7100
 11624              	.LASF482:
 11625 05a2 69327370 		.ascii	"i2spr\000"
 11625      7200
 11626              	.LASF663:
 11627 05a8 72657376 		.ascii	"resvd830\000"
 11627      64383330 
 11627      00
 11628              	.LASF443:
 11629 05b1 4932435F 		.ascii	"I2C_READY\000"
 11629      52454144 
 11629      5900
 11630              	.LASF665:
 11631 05bb 72657376 		.ascii	"resvd838\000"
 11631      64383338 
ARM GAS  C:\Users\PCHAUT~1\AppData\Local\Temp\ccOhqcVB.s 			page 210


 11631      00
 11632              	.LASF457:
 11633 05c4 69326364 		.ascii	"i2cdutycycle_t\000"
 11633      75747963 
 11633      79636C65 
 11633      5F7400
 11634              	.LASF716:
 11635 05d3 73647573 		.ascii	"sdustate_t\000"
 11635      74617465 
 11635      5F7400
 11636              	.LASF666:
 11637 05de 72657376 		.ascii	"resvd83C\000"
 11637      64383343 
 11637      00
 11638              	.LASF336:
 11639 05e7 74687265 		.ascii	"thread\000"
 11639      616400
 11640              	.LASF381:
 11641 05ee 72656773 		.ascii	"regshift\000"
 11641      68696674 
 11641      00
 11642              	.LASF561:
 11643 05f7 73657475 		.ascii	"setup\000"
 11643      7000
 11644              	.LASF540:
 11645 05fd 5350495F 		.ascii	"SPI_UNINIT\000"
 11645      554E494E 
 11645      495400
 11646              	.LASF614:
 11647 0608 44545846 		.ascii	"DTXFSTS\000"
 11647      53545300 
 11648              	.LASF285:
 11649 0610 626C6B5F 		.ascii	"blk_size\000"
 11649      73697A65 
 11649      00
 11650              	.LASF555:
 11651 0619 696E5F70 		.ascii	"in_params\000"
 11651      6172616D 
 11651      7300
 11652              	.LASF428:
 11653 0623 43434552 		.ascii	"CCER\000"
 11653      00
 11654              	.LASF179:
 11655 0628 49325350 		.ascii	"I2SPR\000"
 11655      5200
 11656              	.LASF485:
 11657 062e 50574D5F 		.ascii	"PWM_UNINIT\000"
 11657      554E494E 
 11657      495400
 11658              	.LASF198:
 11659 0639 62657374 		.ascii	"best\000"
 11659      00
 11660              	.LASF623:
 11661 063e 47414842 		.ascii	"GAHBCFG\000"
 11661      43464700 
 11662              	.LASF391:
 11663 0646 64616363 		.ascii	"daccallback_t\000"
ARM GAS  C:\Users\PCHAUT~1\AppData\Local\Temp\ccOhqcVB.s 			page 211


 11663      616C6C62 
 11663      61636B5F 
 11663      7400
 11664              	.LASF715:
 11665 0654 5344555F 		.ascii	"SDU_READY\000"
 11665      52454144 
 11665      5900
 11666              	.LASF667:
 11667 065e 72657376 		.ascii	"resvd840\000"
 11667      64383430 
 11667      00
 11668              	.LASF175:
 11669 0667 43524350 		.ascii	"CRCPR\000"
 11669      5200
 11670              	.LASF280:
 11671 066d 424C4B5F 		.ascii	"BLK_READY\000"
 11671      52454144 
 11671      5900
 11672              	.LASF7:
 11673 0677 5F5F696E 		.ascii	"__int16_t\000"
 11673      7431365F 
 11673      7400
 11674              	.LASF9:
 11675 0681 5F5F7569 		.ascii	"__uint16_t\000"
 11675      6E743136 
 11675      5F7400
 11676              	.LASF418:
 11677 068c 4750545F 		.ascii	"GPT_CONTINUOUS\000"
 11677      434F4E54 
 11677      494E554F 
 11677      555300
 11678              	.LASF681:
 11679 069b 74787175 		.ascii	"txqueued\000"
 11679      65756564 
 11679      00
 11680              	.LASF52:
 11681 06a4 705F6D73 		.ascii	"p_msg\000"
 11681      6700
 11682              	.LASF620:
 11683 06aa 73746D33 		.ascii	"stm32_otg_out_ep_t\000"
 11683      325F6F74 
 11683      675F6F75 
 11683      745F6570 
 11683      5F7400
 11684              	.LASF629:
 11685 06bd 47525853 		.ascii	"GRXSTSP\000"
 11685      54535000 
 11686              	.LASF628:
 11687 06c5 47525853 		.ascii	"GRXSTSR\000"
 11687      54535200 
 11688              	.LASF209:
 11689 06cd 65786974 		.ascii	"exitcode\000"
 11689      636F6465 
 11689      00
 11690              	.LASF153:
 11691 06d6 4D314152 		.ascii	"M1AR\000"
 11691      00
ARM GAS  C:\Users\PCHAUT~1\AppData\Local\Temp\ccOhqcVB.s 			page 212


 11692              	.LASF568:
 11693 06db 77616974 		.ascii	"wait\000"
 11693      00
 11694              	.LASF154:
 11695 06e0 444D415F 		.ascii	"DMA_Stream_TypeDef\000"
 11695      53747265 
 11695      616D5F54 
 11695      79706544 
 11695      656600
 11696              	.LASF575:
 11697 06f3 5553425F 		.ascii	"USB_ACTIVE\000"
 11697      41435449 
 11697      564500
 11698              	.LASF616:
 11699 06fe 73746D33 		.ascii	"stm32_otg_in_ep_t\000"
 11699      325F6F74 
 11699      675F696E 
 11699      5F65705F 
 11699      7400
 11700              	.LASF689:
 11701 0710 7278636E 		.ascii	"rxcnt\000"
 11701      7400
 11702              	.LASF318:
 11703 0716 4144435F 		.ascii	"ADC_UNINIT\000"
 11703      554E494E 
 11703      495400
 11704              	.LASF465:
 11705 0721 7278646D 		.ascii	"rxdmamode\000"
 11705      616D6F64 
 11705      6500
 11706              	.LASF410:
 11707 072b 6D6F6465 		.ascii	"mode\000"
 11707      00
 11708              	.LASF222:
 11709 0730 6D5F636E 		.ascii	"m_cnt\000"
 11709      7400
 11710              	.LASF407:
 11711 0736 45585444 		.ascii	"EXTDriver\000"
 11711      72697665 
 11711      7200
 11712              	.LASF237:
 11713 0740 63665F6F 		.ascii	"cf_off_state\000"
 11713      66665F73 
 11713      74617465 
 11713      00
 11714              	.LASF477:
 11715 074d 69327363 		.ascii	"i2scallback_t\000"
 11715      616C6C62 
 11715      61636B5F 
 11715      7400
 11716              	.LASF549:
 11717 075b 73737061 		.ascii	"sspad\000"
 11717      6400
 11718              	.LASF466:
 11719 0761 7478646D 		.ascii	"txdmamode\000"
 11719      616D6F64 
 11719      6500
ARM GAS  C:\Users\PCHAUT~1\AppData\Local\Temp\ccOhqcVB.s 			page 213


 11720              	.LASF434:
 11721 076b 67707466 		.ascii	"gptfreq_t\000"
 11721      7265715F 
 11721      7400
 11722              	.LASF757:
 11723 0775 474E5520 		.ascii	"GNU C11 7.2.1 20170904 (release) [ARM/embedded-7-br"
 11723      43313120 
 11723      372E322E 
 11723      31203230 
 11723      31373039 
 11724 07a8 616E6368 		.ascii	"anch revision 255204] -mcpu=cortex-m4 -mfloat-abi=h"
 11724      20726576 
 11724      6973696F 
 11724      6E203235 
 11724      35323034 
 11725 07db 61726420 		.ascii	"ard -mfpu=fpv4-sp-d16 -mno-thumb-interwork -mthumb "
 11725      2D6D6670 
 11725      753D6670 
 11725      76342D73 
 11725      702D6431 
 11726 080e 2D676764 		.ascii	"-ggdb -O0 -fomit-frame-pointer -falign-functions=16"
 11726      62202D4F 
 11726      30202D66 
 11726      6F6D6974 
 11726      2D667261 
 11727 0841 202D666E 		.ascii	" -fno-strict-aliasing -fstack-protector-all -ffunct"
 11727      6F2D7374 
 11727      72696374 
 11727      2D616C69 
 11727      6173696E 
 11728 0874 696F6E2D 		.ascii	"ion-sections -fdata-sections -fno-common -fsingle-p"
 11728      73656374 
 11728      696F6E73 
 11728      202D6664 
 11728      6174612D 
 11729 08a7 72656369 		.ascii	"recision-constant\000"
 11729      73696F6E 
 11729      2D636F6E 
 11729      7374616E 
 11729      7400
 11730              	.LASF674:
 11731 08b9 72785F66 		.ascii	"rx_fifo_size\000"
 11731      69666F5F 
 11731      73697A65 
 11731      00
 11732              	.LASF184:
 11733 08c6 73746B61 		.ascii	"stkalign_t\000"
 11733      6C69676E 
 11733      5F7400
 11734              	.LASF389:
 11735 08d1 4441435F 		.ascii	"DAC_ERR_UNDERFLOW\000"
 11735      4552525F 
 11735      554E4445 
 11735      52464C4F 
 11735      5700
 11736              	.LASF370:
 11737 08e3 77616B65 		.ascii	"wakeup_event\000"
ARM GAS  C:\Users\PCHAUT~1\AppData\Local\Temp\ccOhqcVB.s 			page 214


 11737      75705F65 
 11737      76656E74 
 11737      00
 11738              	.LASF76:
 11739 08f0 76745F70 		.ascii	"vt_prev\000"
 11739      72657600 
 11740              	.LASF344:
 11741 08f8 656E645F 		.ascii	"end_cb\000"
 11741      636200
 11742              	.LASF692:
 11743 08ff 73657475 		.ascii	"setup_cb\000"
 11743      705F6362 
 11743      00
 11744              	.LASF6:
 11745 0908 756E7369 		.ascii	"unsigned char\000"
 11745      676E6564 
 11745      20636861 
 11745      7200
 11746              	.LASF173:
 11747 0916 4649464F 		.ascii	"FIFO\000"
 11747      00
 11748              	.LASF194:
 11749 091b 74625F62 		.ascii	"tb_buffer\000"
 11749      75666665 
 11749      7200
 11750              	.LASF364:
 11751 0925 74787175 		.ascii	"txqueue\000"
 11751      65756500 
 11752              	.LASF217:
 11753 092d 735F636E 		.ascii	"s_cnt\000"
 11753      7400
 11754              	.LASF64:
 11755 0933 72656164 		.ascii	"ready_list_t\000"
 11755      795F6C69 
 11755      73745F74 
 11755      00
 11756              	.LASF60:
 11757 0940 63685F74 		.ascii	"ch_thread\000"
 11757      68726561 
 11757      6400
 11758              	.LASF452:
 11759 094a 4F504D4F 		.ascii	"OPMODE_SMBUS_HOST\000"
 11759      44455F53 
 11759      4D425553 
 11759      5F484F53 
 11759      5400
 11760              	.LASF570:
 11761 095c 75736265 		.ascii	"usbep_t\000"
 11761      705F7400 
 11762              	.LASF403:
 11763 0964 4558545F 		.ascii	"EXT_UNINIT\000"
 11763      554E494E 
 11763      495400
 11764              	.LASF361:
 11765 096f 43414E5F 		.ascii	"CAN_SLEEP\000"
 11765      534C4545 
 11765      5000
ARM GAS  C:\Users\PCHAUT~1\AppData\Local\Temp\ccOhqcVB.s 			page 215


 11766              	.LASF190:
 11767 0979 73655F73 		.ascii	"se_state\000"
 11767      74617465 
 11767      00
 11768              	.LASF357:
 11769 0982 43414E5F 		.ascii	"CAN_UNINIT\000"
 11769      554E494E 
 11769      495400
 11770              	.LASF539:
 11771 098d 53444344 		.ascii	"SDCD1\000"
 11771      3100
 11772              	.LASF83:
 11773 0993 73797374 		.ascii	"system_debug_t\000"
 11773      656D5F64 
 11773      65627567 
 11773      5F7400
 11774              	.LASF141:
 11775 09a2 44485238 		.ascii	"DHR8R1\000"
 11775      523100
 11776              	.LASF144:
 11777 09a9 44485238 		.ascii	"DHR8R2\000"
 11777      523200
 11778              	.LASF425:
 11779 09b0 44494552 		.ascii	"DIER\000"
 11779      00
 11780              	.LASF40:
 11781 09b5 705F6374 		.ascii	"p_ctx\000"
 11781      7800
 11782              	.LASF79:
 11783 09bb 76745F70 		.ascii	"vt_par\000"
 11783      617200
 11784              	.LASF100:
 11785 09c2 4A4F4652 		.ascii	"JOFR1\000"
 11785      3100
 11786              	.LASF101:
 11787 09c8 4A4F4652 		.ascii	"JOFR2\000"
 11787      3200
 11788              	.LASF102:
 11789 09ce 4A4F4652 		.ascii	"JOFR3\000"
 11789      3300
 11790              	.LASF103:
 11791 09d4 4A4F4652 		.ascii	"JOFR4\000"
 11791      3400
 11792              	.LASF71:
 11793 09da 725F6375 		.ascii	"r_current\000"
 11793      7272656E 
 11793      7400
 11794              	.LASF177:
 11795 09e4 54584352 		.ascii	"TXCRCR\000"
 11795      435200
 11796              	.LASF396:
 11797 09eb 64616364 		.ascii	"dacdhrmode_t\000"
 11797      68726D6F 
 11797      64655F74 
 11797      00
 11798              	.LASF338:
 11799 09f8 646D6173 		.ascii	"dmastp\000"
ARM GAS  C:\Users\PCHAUT~1\AppData\Local\Temp\ccOhqcVB.s 			page 216


 11799      747000
 11800              	.LASF737:
 11801 09ff 74696D65 		.ascii	"timeout\000"
 11801      6F757400 
 11802              	.LASF456:
 11803 0a07 46415354 		.ascii	"FAST_DUTY_CYCLE_16_9\000"
 11803      5F445554 
 11803      595F4359 
 11803      434C455F 
 11803      31365F39 
 11804              	.LASF22:
 11805 0a1c 75696E74 		.ascii	"uint64_t\000"
 11805      36345F74 
 11805      00
 11806              	.LASF204:
 11807 0a25 6E5F6374 		.ascii	"n_ctxswc\000"
 11807      78737763 
 11807      00
 11808              	.LASF243:
 11809 0a2e 63685F64 		.ascii	"ch_debug\000"
 11809      65627567 
 11809      00
 11810              	.LASF727:
 11811 0a37 6D617873 		.ascii	"maxsize\000"
 11811      697A6500 
 11812              	.LASF399:
 11813 0a3f 696E6974 		.ascii	"init\000"
 11813      00
 11814              	.LASF128:
 11815 0a44 464D3152 		.ascii	"FM1R\000"
 11815      00
 11816              	.LASF315:
 11817 0a49 50414C43 		.ascii	"PALConfig\000"
 11817      6F6E6669 
 11817      6700
 11818              	.LASF683:
 11819 0a53 7478636E 		.ascii	"txcnt\000"
 11819      7400
 11820              	.LASF597:
 11821 0a59 75736265 		.ascii	"usbeventcb_t\000"
 11821      76656E74 
 11821      63625F74 
 11821      00
 11822              	.LASF277:
 11823 0a66 424C4B5F 		.ascii	"BLK_ACTIVE\000"
 11823      41435449 
 11823      564500
 11824              	.LASF245:
 11825 0a71 6576656E 		.ascii	"event_listener_t\000"
 11825      745F6C69 
 11825      7374656E 
 11825      65725F74 
 11825      00
 11826              	.LASF675:
 11827 0a82 6F74675F 		.ascii	"otg_ram_size\000"
 11827      72616D5F 
 11827      73697A65 
ARM GAS  C:\Users\PCHAUT~1\AppData\Local\Temp\ccOhqcVB.s 			page 217


 11827      00
 11828              	.LASF677:
 11829 0a8f 73746D33 		.ascii	"stm32_otg_params_t\000"
 11829      325F6F74 
 11829      675F7061 
 11829      72616D73 
 11829      5F7400
 11830              	.LASF670:
 11831 0aa2 72657376 		.ascii	"resvdD00\000"
 11831      64443030 
 11831      00
 11832              	.LASF176:
 11833 0aab 52584352 		.ascii	"RXCRCR\000"
 11833      435200
 11834              	.LASF686:
 11835 0ab2 72786275 		.ascii	"rxbuf\000"
 11835      6600
 11836              	.LASF626:
 11837 0ab8 47494E54 		.ascii	"GINTSTS\000"
 11837      53545300 
 11838              	.LASF218:
 11839 0ac0 63685F6D 		.ascii	"ch_mutex\000"
 11839      75746578 
 11839      00
 11840              	.LASF367:
 11841 0ac9 7478656D 		.ascii	"txempty_event\000"
 11841      7074795F 
 11841      6576656E 
 11841      7400
 11842              	.LASF713:
 11843 0ad7 5344555F 		.ascii	"SDU_UNINIT\000"
 11843      554E494E 
 11843      495400
 11844              	.LASF489:
 11845 0ae2 50574D44 		.ascii	"PWMDriver\000"
 11845      72697665 
 11845      7200
 11846              	.LASF312:
 11847 0aec 50474461 		.ascii	"PGData\000"
 11847      746100
 11848              	.LASF498:
 11849 0af3 50574D43 		.ascii	"PWMConfig\000"
 11849      6F6E6669 
 11849      6700
 11850              	.LASF724:
 11851 0afd 6C696E65 		.ascii	"linecoding\000"
 11851      636F6469 
 11851      6E6700
 11852              	.LASF763:
 11853 0b08 76616C75 		.ascii	"value\000"
 11853      6500
 11854              	.LASF233:
 11855 0b0e 63665F6F 		.ascii	"cf_off_newer\000"
 11855      66665F6E 
 11855      65776572 
 11855      00
 11856              	.LASF655:
ARM GAS  C:\Users\PCHAUT~1\AppData\Local\Temp\ccOhqcVB.s 			page 218


 11857 0b1b 44494550 		.ascii	"DIEPMSK\000"
 11857      4D534B00 
 11858              	.LASF622:
 11859 0b23 474F5447 		.ascii	"GOTGINT\000"
 11859      494E5400 
 11860              	.LASF694:
 11861 0b2b 6F75745F 		.ascii	"out_cb\000"
 11861      636200
 11862              	.LASF709:
 11863 0b32 62436861 		.ascii	"bCharFormat\000"
 11863      72466F72 
 11863      6D617400 
 11864              	.LASF646:
 11865 0b3e 4841494E 		.ascii	"HAINTMSK\000"
 11865      544D534B 
 11865      00
 11866              	.LASF556:
 11867 0b47 6F75745F 		.ascii	"out_params\000"
 11867      70617261 
 11867      6D7300
 11868              	.LASF189:
 11869 0b52 73655F77 		.ascii	"se_wtobjp\000"
 11869      746F626A 
 11869      7000
 11870              	.LASF107:
 11871 0b5c 4A535152 		.ascii	"JSQR\000"
 11871      00
 11872              	.LASF437:
 11873 0b61 64696572 		.ascii	"dier\000"
 11873      00
 11874              	.LASF534:
 11875 0b66 69735F70 		.ascii	"is_protected\000"
 11875      726F7465 
 11875      63746564 
 11875      00
 11876              	.LASF73:
 11877 0b73 76697274 		.ascii	"virtual_timer_t\000"
 11877      75616C5F 
 11877      74696D65 
 11877      725F7400 
 11878              	.LASF696:
 11879 0b83 6F75745F 		.ascii	"out_maxsize\000"
 11879      6D617873 
 11879      697A6500 
 11880              	.LASF68:
 11881 0b8f 725F6374 		.ascii	"r_ctx\000"
 11881      7800
 11882              	.LASF75:
 11883 0b95 76745F6E 		.ascii	"vt_next\000"
 11883      65787400 
 11884              	.LASF471:
 11885 0b9d 4932535F 		.ascii	"I2S_STOP\000"
 11885      53544F50 
 11885      00
 11886              	.LASF486:
 11887 0ba6 50574D5F 		.ascii	"PWM_STOP\000"
 11887      53544F50 
ARM GAS  C:\Users\PCHAUT~1\AppData\Local\Temp\ccOhqcVB.s 			page 219


 11887      00
 11888              	.LASF736:
 11889 0baf 696E6F74 		.ascii	"inotify\000"
 11889      69667900 
 11890              	.LASF23:
 11891 0bb7 7274636E 		.ascii	"rtcnt_t\000"
 11891      745F7400 
 11892              	.LASF337:
 11893 0bbf 6D757465 		.ascii	"mutex\000"
 11893      7800
 11894              	.LASF480:
 11895 0bc5 73697A65 		.ascii	"size\000"
 11895      00
 11896              	.LASF385:
 11897 0bca 44414344 		.ascii	"DACDriver\000"
 11897      72697665 
 11897      7200
 11898              	.LASF401:
 11899 0bd4 44414343 		.ascii	"DACConfig\000"
 11899      6F6E6669 
 11899      6700
 11900              	.LASF567:
 11901 0bde 74787065 		.ascii	"txpending\000"
 11901      6E64696E 
 11901      6700
 11902              	.LASF422:
 11903 0be8 636C6F63 		.ascii	"clock\000"
 11903      6B00
 11904              	.LASF289:
 11905 0bee 636C6561 		.ascii	"clear\000"
 11905      7200
 11906              	.LASF432:
 11907 0bf4 43435852 		.ascii	"CCXR\000"
 11907      00
 11908              	.LASF137:
 11909 0bf9 43414E5F 		.ascii	"CAN_TypeDef\000"
 11909      54797065 
 11909      44656600 
 11910              	.LASF191:
 11911 0c05 63685F73 		.ascii	"ch_swc_event_t\000"
 11911      77635F65 
 11911      76656E74 
 11911      5F7400
 11912              	.LASF504:
 11913 0c14 53445F53 		.ascii	"SD_STOP\000"
 11913      544F5000 
 11914              	.LASF601:
 11915 0c1c 72657376 		.ascii	"resvd8\000"
 11915      643800
 11916              	.LASF4:
 11917 0c23 73697A65 		.ascii	"size_t\000"
 11917      5F7400
 11918              	.LASF94:
 11919 0c2a 6B65726E 		.ascii	"kernel_stats\000"
 11919      656C5F73 
 11919      74617473 
 11919      00
ARM GAS  C:\Users\PCHAUT~1\AppData\Local\Temp\ccOhqcVB.s 			page 220


 11920              	.LASF668:
 11921 0c37 72657376 		.ascii	"resvd880\000"
 11921      64383830 
 11921      00
 11922              	.LASF17:
 11923 0c40 75696E74 		.ascii	"uint8_t\000"
 11923      385F7400 
 11924              	.LASF605:
 11925 0c48 72657376 		.ascii	"resvd14\000"
 11925      64313400 
 11926              	.LASF606:
 11927 0c50 72657376 		.ascii	"resvd18\000"
 11927      64313800 
 11928              	.LASF70:
 11929 0c58 725F6F6C 		.ascii	"r_older\000"
 11929      64657200 
 11930              	.LASF38:
 11931 0c60 705F7072 		.ascii	"p_prev\000"
 11931      657600
 11932              	.LASF235:
 11933 0c67 63665F6F 		.ascii	"cf_off_name\000"
 11933      66665F6E 
 11933      616D6500 
 11934              	.LASF497:
 11935 0c73 50574D43 		.ascii	"PWMChannelConfig\000"
 11935      68616E6E 
 11935      656C436F 
 11935      6E666967 
 11935      00
 11936              	.LASF496:
 11937 0c84 70776D63 		.ascii	"pwmcnt_t\000"
 11937      6E745F74 
 11937      00
 11938              	.LASF664:
 11939 0c8d 44494550 		.ascii	"DIEPEMPMSK\000"
 11939      454D504D 
 11939      534B00
 11940              	.LASF609:
 11941 0c98 44494550 		.ascii	"DIEPCTL\000"
 11941      43544C00 
 11942              	.LASF251:
 11943 0ca0 656C5F77 		.ascii	"el_wflags\000"
 11943      666C6167 
 11943      7300
 11944              	.LASF565:
 11945 0caa 6F746770 		.ascii	"otgparams\000"
 11945      6172616D 
 11945      7300
 11946              	.LASF192:
 11947 0cb4 74625F73 		.ascii	"tb_size\000"
 11947      697A6500 
 11948              	.LASF309:
 11949 0cbc 50444461 		.ascii	"PDData\000"
 11949      746100
 11950              	.LASF529:
 11951 0cc3 73637261 		.ascii	"scratchpad\000"
 11951      74636870 
ARM GAS  C:\Users\PCHAUT~1\AppData\Local\Temp\ccOhqcVB.s 			page 221


 11951      616400
 11952              	.LASF698:
 11953 0cce 6F75745F 		.ascii	"out_state\000"
 11953      73746174 
 11953      6500
 11954              	.LASF738:
 11955 0cd8 6F73616C 		.ascii	"osalEventBroadcastFlagsI\000"
 11955      4576656E 
 11955      7442726F 
 11955      61646361 
 11955      7374466C 
 11956              	.LASF255:
 11957 0cf1 696F5F71 		.ascii	"io_queue_t\000"
 11957      75657565 
 11957      5F7400
 11958              	.LASF545:
 11959 0cfc 73706973 		.ascii	"spistate_t\000"
 11959      74617465 
 11959      5F7400
 11960              	.LASF442:
 11961 0d07 4932435F 		.ascii	"I2C_STOP\000"
 11961      53544F50 
 11961      00
 11962              	.LASF464:
 11963 0d10 61646472 		.ascii	"addr\000"
 11963      00
 11964              	.LASF122:
 11965 0d15 52463052 		.ascii	"RF0R\000"
 11965      00
 11966              	.LASF327:
 11967 0d1a 4144435F 		.ascii	"ADC_ERR_DMAFAILURE\000"
 11967      4552525F 
 11967      444D4146 
 11967      41494C55 
 11967      524500
 11968              	.LASF543:
 11969 0d2d 5350495F 		.ascii	"SPI_ACTIVE\000"
 11969      41435449 
 11969      564500
 11970              	.LASF411:
 11971 0d38 45585443 		.ascii	"EXTChannelConfig\000"
 11971      68616E6E 
 11971      656C436F 
 11971      6E666967 
 11971      00
 11972              	.LASF292:
 11973 0d49 4F535045 		.ascii	"OSPEEDR\000"
 11973      45445200 
 11974              	.LASF375:
 11975 0d51 4441435F 		.ascii	"DAC_READY\000"
 11975      52454144 
 11975      5900
 11976              	.LASF633:
 11977 0d5b 72657376 		.ascii	"resvd30\000"
 11977      64333000 
 11978              	.LASF634:
 11979 0d63 72657376 		.ascii	"resvd34\000"
ARM GAS  C:\Users\PCHAUT~1\AppData\Local\Temp\ccOhqcVB.s 			page 222


 11979      64333400 
 11980              	.LASF662:
 11981 0d6b 44564255 		.ascii	"DVBUSPULSE\000"
 11981      5350554C 
 11981      534500
 11982              	.LASF276:
 11983 0d76 424C4B5F 		.ascii	"BLK_STOP\000"
 11983      53544F50 
 11983      00
 11984              	.LASF512:
 11985 0d7f 53657269 		.ascii	"SerialDriverVMT\000"
 11985      616C4472 
 11985      69766572 
 11985      564D5400 
 11986              	.LASF583:
 11987 0d8f 5553425F 		.ascii	"USB_EP0_ERROR\000"
 11987      4550305F 
 11987      4552524F 
 11987      5200
 11988              	.LASF535:
 11989 0d9d 636F6E6E 		.ascii	"connect\000"
 11989      65637400 
 11990              	.LASF123:
 11991 0da5 52463152 		.ascii	"RF1R\000"
 11991      00
 11992              	.LASF330:
 11993 0daa 41444344 		.ascii	"ADCDriver\000"
 11993      72697665 
 11993      7200
 11994              	.LASF676:
 11995 0db4 6E756D5F 		.ascii	"num_endpoints\000"
 11995      656E6470 
 11995      6F696E74 
 11995      7300
 11996              	.LASF353:
 11997 0dc2 41444343 		.ascii	"ADCConfig\000"
 11997      6F6E6669 
 11997      6700
 11998              	.LASF684:
 11999 0dcc 746F7473 		.ascii	"totsize\000"
 11999      697A6500 
 12000              	.LASF505:
 12001 0dd4 53445F52 		.ascii	"SD_READY\000"
 12001      45414459 
 12001      00
 12002              	.LASF599:
 12003 0ddd 75736267 		.ascii	"usbgetdescriptor_t\000"
 12003      65746465 
 12003      73637269 
 12003      70746F72 
 12003      5F7400
 12004              	.LASF761:
 12005 0df0 73647549 		.ascii	"sduInit\000"
 12005      6E697400 
 12006              	.LASF378:
 12007 0df8 4441435F 		.ascii	"DAC_ERROR\000"
 12007      4552524F 
ARM GAS  C:\Users\PCHAUT~1\AppData\Local\Temp\ccOhqcVB.s 			page 223


 12007      5200
 12008              	.LASF578:
 12009 0e02 5553425F 		.ascii	"USB_EP0_TX\000"
 12009      4550305F 
 12009      545800
 12010              	.LASF557:
 12011 0e0d 65703073 		.ascii	"ep0state\000"
 12011      74617465 
 12011      00
 12012              	.LASF269:
 12013 0e16 69666372 		.ascii	"ifcr\000"
 12013      00
 12014              	.LASF470:
 12015 0e1b 4932535F 		.ascii	"I2S_UNINIT\000"
 12015      554E494E 
 12015      495400
 12016              	.LASF719:
 12017 0e26 62756C6B 		.ascii	"bulk_in\000"
 12017      5F696E00 
 12018              	.LASF298:
 12019 0e2e 73746D33 		.ascii	"stm32_gpio_t\000"
 12019      325F6770 
 12019      696F5F74 
 12019      00
 12020              	.LASF208:
 12021 0e3b 7264796D 		.ascii	"rdymsg\000"
 12021      736700
 12022              	.LASF487:
 12023 0e42 50574D5F 		.ascii	"PWM_READY\000"
 12023      52454144 
 12023      5900
 12024              	.LASF113:
 12025 0e4c 54445452 		.ascii	"TDTR\000"
 12025      00
 12026              	.LASF121:
 12027 0e51 43414E5F 		.ascii	"CAN_FilterRegister_TypeDef\000"
 12027      46696C74 
 12027      65725265 
 12027      67697374 
 12027      65725F54 
 12028              	.LASF368:
 12029 0e6c 6572726F 		.ascii	"error_event\000"
 12029      725F6576 
 12029      656E7400 
 12030              	.LASF343:
 12031 0e78 6E756D5F 		.ascii	"num_channels\000"
 12031      6368616E 
 12031      6E656C73 
 12031      00
 12032              	.LASF636:
 12033 0e85 72657376 		.ascii	"resvd58\000"
 12033      64353800 
 12034              	.LASF685:
 12035 0e8d 55534249 		.ascii	"USBInEndpointState\000"
 12035      6E456E64 
 12035      706F696E 
 12035      74537461 
ARM GAS  C:\Users\PCHAUT~1\AppData\Local\Temp\ccOhqcVB.s 			page 224


 12035      746500
 12036              	.LASF39:
 12037 0ea0 705F7072 		.ascii	"p_prio\000"
 12037      696F00
 12038              	.LASF256:
 12039 0ea7 696F5F71 		.ascii	"io_queue\000"
 12039      75657565 
 12039      00
 12040              	.LASF306:
 12041 0eb0 50414461 		.ascii	"PAData\000"
 12041      746100
 12042              	.LASF15:
 12043 0eb7 5F5F7569 		.ascii	"__uint64_t\000"
 12043      6E743634 
 12043      5F7400
 12044              	.LASF492:
 12045 0ec2 70776D63 		.ascii	"pwmcallback_t\000"
 12045      616C6C62 
 12045      61636B5F 
 12045      7400
 12046              	.LASF386:
 12047 0ed0 70617261 		.ascii	"params\000"
 12047      6D7300
 12048              	.LASF582:
 12049 0ed7 5553425F 		.ascii	"USB_EP0_SENDING_STS\000"
 12049      4550305F 
 12049      53454E44 
 12049      494E475F 
 12049      53545300 
 12050              	.LASF721:
 12051 0eeb 696E745F 		.ascii	"int_in\000"
 12051      696E00
 12052              	.LASF447:
 12053 0ef2 69326373 		.ascii	"i2cstate_t\000"
 12053      74617465 
 12053      5F7400
 12054              	.LASF760:
 12055 0efd 73647552 		.ascii	"sduRequestsHook\000"
 12055      65717565 
 12055      73747348 
 12055      6F6F6B00 
 12056              	.LASF584:
 12057 0f0d 75736265 		.ascii	"usbep0state_t\000"
 12057      70307374 
 12057      6174655F 
 12057      7400
 12058              	.LASF390:
 12059 0f1b 64616365 		.ascii	"dacerror_t\000"
 12059      72726F72 
 12059      5F7400
 12060              	.LASF125:
 12061 0f26 7354784D 		.ascii	"sTxMailBox\000"
 12061      61696C42 
 12061      6F7800
 12062              	.LASF325:
 12063 0f31 61646373 		.ascii	"adcsample_t\000"
 12063      616D706C 
ARM GAS  C:\Users\PCHAUT~1\AppData\Local\Temp\ccOhqcVB.s 			page 225


 12063      655F7400 
 12064              	.LASF423:
 12065 0f3d 67707463 		.ascii	"gptcallback_t\000"
 12065      616C6C62 
 12065      61636B5F 
 12065      7400
 12066              	.LASF259:
 12067 0f4b 715F6275 		.ascii	"q_buffer\000"
 12067      66666572 
 12067      00
 12068              	.LASF37:
 12069 0f54 705F6E65 		.ascii	"p_next\000"
 12069      787400
 12070              	.LASF469:
 12071 0f5b 49324344 		.ascii	"I2CD1\000"
 12071      3100
 12072              	.LASF610:
 12073 0f61 72657376 		.ascii	"resvd4\000"
 12073      643400
 12074              	.LASF552:
 12075 0f68 55534244 		.ascii	"USBDriver\000"
 12075      72697665 
 12075      7200
 12076              	.LASF669:
 12077 0f72 72657376 		.ascii	"resvd8C0\000"
 12077      64384330 
 12077      00
 12078              	.LASF706:
 12079 0f7b 55534243 		.ascii	"USBConfig\000"
 12079      6F6E6669 
 12079      6700
 12080              	.LASF612:
 12081 0f85 72657376 		.ascii	"resvdC\000"
 12081      644300
 12082              	.LASF708:
 12083 0f8c 64774454 		.ascii	"dwDTERate\000"
 12083      45526174 
 12083      6500
 12084              	.LASF499:
 12085 0f96 50574D44 		.ascii	"PWMD2\000"
 12085      3200
 12086              	.LASF500:
 12087 0f9c 50574D44 		.ascii	"PWMD3\000"
 12087      3300
 12088              	.LASF501:
 12089 0fa2 50574D44 		.ascii	"PWMD4\000"
 12089      3400
 12090              	.LASF502:
 12091 0fa8 50574D44 		.ascii	"PWMD5\000"
 12091      3500
 12092              	.LASF712:
 12093 0fae 6364635F 		.ascii	"cdc_linecoding_t\000"
 12093      6C696E65 
 12093      636F6469 
 12093      6E675F74 
 12093      00
 12094              	.LASF510:
ARM GAS  C:\Users\PCHAUT~1\AppData\Local\Temp\ccOhqcVB.s 			page 226


 12095 0fbf 6F717565 		.ascii	"oqueue\000"
 12095      756500
 12096              	.LASF27:
 12097 0fc6 74726566 		.ascii	"trefs_t\000"
 12097      735F7400 
 12098              	.LASF56:
 12099 0fce 705F6D70 		.ascii	"p_mpool\000"
 12099      6F6F6C00 
 12100              	.LASF398:
 12101 0fd6 44414343 		.ascii	"DACConversionGroup\000"
 12101      6F6E7665 
 12101      7273696F 
 12101      6E47726F 
 12101      757000
 12102              	.LASF699:
 12103 0fe9 696E5F6D 		.ascii	"in_multiplier\000"
 12103      756C7469 
 12103      706C6965 
 12103      7200
 12104              	.LASF323:
 12105 0ff7 4144435F 		.ascii	"ADC_ERROR\000"
 12105      4552524F 
 12105      5200
 12106              	.LASF711:
 12107 1001 62446174 		.ascii	"bDataBits\000"
 12107      61426974 
 12107      7300
 12108              	.LASF25:
 12109 100b 746D6F64 		.ascii	"tmode_t\000"
 12109      655F7400 
 12110              	.LASF725:
 12111 1013 73647549 		.ascii	"sduInterruptTransmitted\000"
 12111      6E746572 
 12111      72757074 
 12111      5472616E 
 12111      736D6974 
 12112              	.LASF321:
 12113 102b 4144435F 		.ascii	"ADC_ACTIVE\000"
 12113      41435449 
 12113      564500
 12114              	.LASF104:
 12115 1036 53515231 		.ascii	"SQR1\000"
 12115      00
 12116              	.LASF105:
 12117 103b 53515232 		.ascii	"SQR2\000"
 12117      00
 12118              	.LASF106:
 12119 1040 53515233 		.ascii	"SQR3\000"
 12119      00
 12120              	.LASF294:
 12121 1045 42535252 		.ascii	"BSRR\000"
 12121      00
 12122              	.LASF273:
 12123 104a 73746D33 		.ascii	"stm32_dma_stream_t\000"
 12123      325F646D 
 12123      615F7374 
 12123      7265616D 
ARM GAS  C:\Users\PCHAUT~1\AppData\Local\Temp\ccOhqcVB.s 			page 227


 12123      5F7400
 12124              	.LASF704:
 12125 105d 72657175 		.ascii	"requests_hook_cb\000"
 12125      65737473 
 12125      5F686F6F 
 12125      6B5F6362 
 12125      00
 12126              	.LASF521:
 12127 106e 5344435F 		.ascii	"SDC_MODE_8BIT\000"
 12127      4D4F4445 
 12127      5F384249 
 12127      5400
 12128              	.LASF682:
 12129 107c 74787369 		.ascii	"txsize\000"
 12129      7A6500
 12130              	.LASF394:
 12131 1083 4441435F 		.ascii	"DAC_DHRM_12BIT_LEFT\000"
 12131      4448524D 
 12131      5F313242 
 12131      49545F4C 
 12131      45465400 
 12132              	.LASF490:
 12133 1097 70657269 		.ascii	"period\000"
 12133      6F6400
 12134              	.LASF446:
 12135 109e 4932435F 		.ascii	"I2C_LOCKED\000"
 12135      4C4F434B 
 12135      454400
 12136              	.LASF86:
 12137 10a9 6973725F 		.ascii	"isr_cnt\000"
 12137      636E7400 
 12138              	.LASF573:
 12139 10b1 5553425F 		.ascii	"USB_READY\000"
 12139      52454144 
 12139      5900
 12140              	.LASF518:
 12141 10bb 72656164 		.ascii	"readt\000"
 12141      7400
 12142              	.LASF758:
 12143 10c1 2E2E2F6C 		.ascii	"../lib/e-puck2_main-processor/ChibiOS//os/hal/src/s"
 12143      69622F65 
 12143      2D707563 
 12143      6B325F6D 
 12143      61696E2D 
 12144 10f4 65726961 		.ascii	"erial_usb.c\000"
 12144      6C5F7573 
 12144      622E6300 
 12145              	.LASF625:
 12146 1100 47525354 		.ascii	"GRSTCTL\000"
 12146      43544C00 
 12147              	.LASF420:
 12148 1108 67707473 		.ascii	"gptstate_t\000"
 12148      74617465 
 12148      5F7400
 12149              	.LASF85:
 12150 1113 70616E69 		.ascii	"panic_msg\000"
 12150      635F6D73 
ARM GAS  C:\Users\PCHAUT~1\AppData\Local\Temp\ccOhqcVB.s 			page 228


 12150      6700
 12151              	.LASF544:
 12152 111d 5350495F 		.ascii	"SPI_COMPLETE\000"
 12152      434F4D50 
 12152      4C455445 
 12152      00
 12153              	.LASF167:
 12154 112a 4454494D 		.ascii	"DTIMER\000"
 12154      455200
 12155              	.LASF69:
 12156 1131 725F6E65 		.ascii	"r_newer\000"
 12156      77657200 
 12157              	.LASF590:
 12158 1139 5553425F 		.ascii	"USB_EVENT_STALLED\000"
 12158      4556454E 
 12158      545F5354 
 12158      414C4C45 
 12158      4400
 12159              	.LASF242:
 12160 114b 63686465 		.ascii	"chdebug_t\000"
 12160      6275675F 
 12160      7400
 12161              	.LASF754:
 12162 1155 706F7274 		.ascii	"port_lock_from_isr\000"
 12162      5F6C6F63 
 12162      6B5F6672 
 12162      6F6D5F69 
 12162      737200
 12163              	.LASF688:
 12164 1168 72787369 		.ascii	"rxsize\000"
 12164      7A6500
 12165              	.LASF604:
 12166 116f 48435453 		.ascii	"HCTSIZ\000"
 12166      495A00
 12167              	.LASF587:
 12168 1176 5553425F 		.ascii	"USB_EVENT_CONFIGURED\000"
 12168      4556454E 
 12168      545F434F 
 12168      4E464947 
 12168      55524544 
 12169              	.LASF536:
 12170 118b 64697363 		.ascii	"disconnect\000"
 12170      6F6E6E65 
 12170      637400
 12171              	.LASF515:
 12172 1196 70757474 		.ascii	"putt\000"
 12172      00
 12173              	.LASF28:
 12174 119b 74736C69 		.ascii	"tslices_t\000"
 12174      6365735F 
 12174      7400
 12175              	.LASF229:
 12176 11a5 63685F74 		.ascii	"ch_timesize\000"
 12176      696D6573 
 12176      697A6500 
 12177              	.LASF569:
 12178 11b1 77615F70 		.ascii	"wa_pump\000"
ARM GAS  C:\Users\PCHAUT~1\AppData\Local\Temp\ccOhqcVB.s 			page 229


 12178      756D7000 
 12179              	.LASF172:
 12180 11b9 4649464F 		.ascii	"FIFOCNT\000"
 12180      434E5400 
 12181              	.LASF254:
 12182 11c1 6576656E 		.ascii	"event_source_t\000"
 12182      745F736F 
 12182      75726365 
 12182      5F7400
 12183              	.LASF639:
 12184 11d0 72657376 		.ascii	"resvd140\000"
 12184      64313430 
 12184      00
 12185              	.LASF77:
 12186 11d9 76745F64 		.ascii	"vt_delta\000"
 12186      656C7461 
 12186      00
 12187              	.LASF193:
 12188 11e2 74625F70 		.ascii	"tb_ptr\000"
 12188      747200
 12189              	.LASF397:
 12190 11e9 74726967 		.ascii	"trigger\000"
 12190      67657200 
 12191              	.LASF588:
 12192 11f1 5553425F 		.ascii	"USB_EVENT_SUSPEND\000"
 12192      4556454E 
 12192      545F5355 
 12192      5350454E 
 12192      4400
 12193              	.LASF18:
 12194 1203 696E7431 		.ascii	"int16_t\000"
 12194      365F7400 
 12195              	.LASF416:
 12196 120b 4750545F 		.ascii	"GPT_STOP\000"
 12196      53544F50 
 12196      00
 12197              	.LASF112:
 12198 1214 4144435F 		.ascii	"ADC_TypeDef\000"
 12198      54797065 
 12198      44656600 
 12199              	.LASF10:
 12200 1220 73686F72 		.ascii	"short unsigned int\000"
 12200      7420756E 
 12200      7369676E 
 12200      65642069 
 12200      6E7400
 12201              	.LASF458:
 12202 1233 6F705F6D 		.ascii	"op_mode\000"
 12202      6F646500 
 12203              	.LASF3:
 12204 123b 7369676E 		.ascii	"signed char\000"
 12204      65642063 
 12204      68617200 
 12205              	.LASF527:
 12206 1247 63617264 		.ascii	"cardmode\000"
 12206      6D6F6465 
 12206      00
ARM GAS  C:\Users\PCHAUT~1\AppData\Local\Temp\ccOhqcVB.s 			page 230


 12207              	.LASF48:
 12208 1250 705F7072 		.ascii	"p_preempt\000"
 12208      65656D70 
 12208      7400
 12209              	.LASF34:
 12210 125a 75636E74 		.ascii	"ucnt_t\000"
 12210      5F7400
 12211              	.LASF115:
 12212 1261 54444852 		.ascii	"TDHR\000"
 12212      00
 12213              	.LASF319:
 12214 1266 4144435F 		.ascii	"ADC_STOP\000"
 12214      53544F50 
 12214      00
 12215              	.LASF581:
 12216 126f 5553425F 		.ascii	"USB_EP0_RX\000"
 12216      4550305F 
 12216      525800
 12217              	.LASF493:
 12218 127a 70776D6D 		.ascii	"pwmmode_t\000"
 12218      6F64655F 
 12218      7400
 12219              	.LASF562:
 12220 1284 73746174 		.ascii	"status\000"
 12220      757300
 12221              	.LASF168:
 12222 128b 444C454E 		.ascii	"DLEN\000"
 12222      00
 12223              	.LASF520:
 12224 1290 5344435F 		.ascii	"SDC_MODE_4BIT\000"
 12224      4D4F4445 
 12224      5F344249 
 12224      5400
 12225              	.LASF594:
 12226 129e 55534244 		.ascii	"USBDescriptor\000"
 12226      65736372 
 12226      6970746F 
 12226      7200
 12227              	.LASF547:
 12228 12ac 73706963 		.ascii	"spicallback_t\000"
 12228      616C6C62 
 12228      61636B5F 
 12228      7400
 12229              	.LASF563:
 12230 12ba 61646472 		.ascii	"address\000"
 12230      65737300 
 12231              	.LASF51:
 12232 12c2 705F6D73 		.ascii	"p_msgqueue\000"
 12232      67717565 
 12232      756500
 12233              	.LASF239:
 12234 12cd 63665F6F 		.ascii	"cf_off_refs\000"
 12234      66665F72 
 12234      65667300 
 12235              	.LASF531:
 12236 12d9 53444343 		.ascii	"SDCConfig\000"
 12236      6F6E6669 
ARM GAS  C:\Users\PCHAUT~1\AppData\Local\Temp\ccOhqcVB.s 			page 231


 12236      6700
 12237              	.LASF220:
 12238 12e3 6D5F6F77 		.ascii	"m_owner\000"
 12238      6E657200 
 12239              	.LASF97:
 12240 12eb 53797374 		.ascii	"SystemCoreClock\000"
 12240      656D436F 
 12240      7265436C 
 12240      6F636B00 
 12241              	.LASF341:
 12242 12fb 61646365 		.ascii	"adcerrorcallback_t\000"
 12242      72726F72 
 12242      63616C6C 
 12242      6261636B 
 12242      5F7400
 12243              	.LASF743:
 12244 130e 6F73616C 		.ascii	"osalSysLockFromISR\000"
 12244      5379734C 
 12244      6F636B46 
 12244      726F6D49 
 12244      535200
 12245              	.LASF376:
 12246 1321 4441435F 		.ascii	"DAC_ACTIVE\000"
 12246      41435449 
 12246      564500
 12247              	.LASF331:
 12248 132c 73746174 		.ascii	"state\000"
 12248      6500
 12249              	.LASF227:
 12250 1332 63685F76 		.ascii	"ch_version\000"
 12250      65727369 
 12250      6F6E00
 12251              	.LASF528:
 12252 133d 7364696F 		.ascii	"sdio\000"
 12252      00
 12253              	.LASF138:
 12254 1342 53575452 		.ascii	"SWTRIGR\000"
 12254      49475200 
 12255              	.LASF580:
 12256 134a 5553425F 		.ascii	"USB_EP0_WAITING_STS\000"
 12256      4550305F 
 12256      57414954 
 12256      494E475F 
 12256      53545300 
 12257              	.LASF159:
 12258 135e 4932435F 		.ascii	"I2C_TypeDef\000"
 12258      54797065 
 12258      44656600 
 12259              	.LASF119:
 12260 136a 52444852 		.ascii	"RDHR\000"
 12260      00
 12261              	.LASF430:
 12262 136f 444D4152 		.ascii	"DMAR\000"
 12262      00
 12263              	.LASF436:
 12264 1374 63616C6C 		.ascii	"callback\000"
 12264      6261636B 
ARM GAS  C:\Users\PCHAUT~1\AppData\Local\Temp\ccOhqcVB.s 			page 232


 12264      00
 12265              	.LASF90:
 12266 137d 63685F73 		.ascii	"ch_system\000"
 12266      79737465 
 12266      6D00
 12267              	.LASF160:
 12268 1387 504F5745 		.ascii	"POWER\000"
 12268      5200
 12269              	.LASF88:
 12270 138d 74726163 		.ascii	"trace_buffer\000"
 12270      655F6275 
 12270      66666572 
 12270      00
 12271              	.LASF395:
 12272 139a 4441435F 		.ascii	"DAC_DHRM_8BIT_RIGHT\000"
 12272      4448524D 
 12272      5F384249 
 12272      545F5249 
 12272      47485400 
 12273              	.LASF415:
 12274 13ae 4750545F 		.ascii	"GPT_UNINIT\000"
 12274      554E494E 
 12274      495400
 12275              	.LASF215:
 12276 13b9 63685F73 		.ascii	"ch_semaphore\000"
 12276      656D6170 
 12276      686F7265 
 12276      00
 12277              	.LASF723:
 12278 13c6 53657269 		.ascii	"SerialUSBDriverVMT\000"
 12278      616C5553 
 12278      42447269 
 12278      76657256 
 12278      4D5400
 12279              	.LASF613:
 12280 13d9 44494550 		.ascii	"DIEPTSIZ\000"
 12280      5453495A 
 12280      00
 12281              	.LASF755:
 12282 13e2 706F7274 		.ascii	"port_unlock\000"
 12282      5F756E6C 
 12282      6F636B00 
 12283              	.LASF346:
 12284 13ee 736D7072 		.ascii	"smpr1\000"
 12284      3100
 12285              	.LASF347:
 12286 13f4 736D7072 		.ascii	"smpr2\000"
 12286      3200
 12287              	.LASF62:
 12288 13fa 74687265 		.ascii	"threads_queue_t\000"
 12288      6164735F 
 12288      71756575 
 12288      655F7400 
 12289              	.LASF284:
 12290 140a 626C6B73 		.ascii	"blkstate_t\000"
 12290      74617465 
 12290      5F7400
ARM GAS  C:\Users\PCHAUT~1\AppData\Local\Temp\ccOhqcVB.s 			page 233


 12291              	.LASF752:
 12292 1415 63685379 		.ascii	"chSysLock\000"
 12292      734C6F63 
 12292      6B00
 12293              	.LASF49:
 12294 141f 705F7469 		.ascii	"p_time\000"
 12294      6D6500
 12295              	.LASF47:
 12296 1426 705F7265 		.ascii	"p_refs\000"
 12296      667300
 12297              	.LASF691:
 12298 142d 65705F6D 		.ascii	"ep_mode\000"
 12298      6F646500 
 12299              	.LASF494:
 12300 1435 70776D63 		.ascii	"pwmchannel_t\000"
 12300      68616E6E 
 12300      656C5F74 
 12300      00
 12301              	.LASF114:
 12302 1442 54444C52 		.ascii	"TDLR\000"
 12302      00
 12303              	.LASF12:
 12304 1447 6C6F6E67 		.ascii	"long int\000"
 12304      20696E74 
 12304      00
 12305              	.LASF735:
 12306 1450 6F6E6F74 		.ascii	"onotify\000"
 12306      69667900 
 12307              	.LASF93:
 12308 1458 6D61696E 		.ascii	"mainthread\000"
 12308      74687265 
 12308      616400
 12309              	.LASF559:
 12310 1463 6570306E 		.ascii	"ep0n\000"
 12310      00
 12311              	.LASF672:
 12312 1468 72657376 		.ascii	"resvdE04\000"
 12312      64453034 
 12312      00
 12313              	.LASF219:
 12314 1471 6D5F7175 		.ascii	"m_queue\000"
 12314      65756500 
 12315              	.LASF383:
 12316 1479 646D6169 		.ascii	"dmairqprio\000"
 12316      72717072 
 12316      696F00
 12317              	.LASF421:
 12318 1484 47505444 		.ascii	"GPTDriver\000"
 12318      72697665 
 12318      7200
 12319              	.LASF524:
 12320 148e 73646366 		.ascii	"sdcflags_t\000"
 12320      6C616773 
 12320      5F7400
 12321              	.LASF313:
 12322 1499 50484461 		.ascii	"PHData\000"
 12322      746100
ARM GAS  C:\Users\PCHAUT~1\AppData\Local\Temp\ccOhqcVB.s 			page 234


 12323              	.LASF316:
 12324 14a0 696F706F 		.ascii	"ioportid_t\000"
 12324      72746964 
 12324      5F7400
 12325              	.LASF354:
 12326 14ab 41444344 		.ascii	"ADCD1\000"
 12326      3100
 12327              	.LASF355:
 12328 14b1 41444344 		.ascii	"ADCD2\000"
 12328      3200
 12329              	.LASF356:
 12330 14b7 41444344 		.ascii	"ADCD3\000"
 12330      3300
 12331              	.LASF640:
 12332 14bd 48434647 		.ascii	"HCFG\000"
 12332      00
 12333              	.LASF339:
 12334 14c2 646D616D 		.ascii	"dmamode\000"
 12334      6F646500 
 12335              	.LASF201:
 12336 14ca 63756D75 		.ascii	"cumulative\000"
 12336      6C617469 
 12336      766500
 12337              	.LASF551:
 12338 14d5 53504944 		.ascii	"SPID1\000"
 12338      3100
 12339              	.LASF516:
 12340 14db 67657474 		.ascii	"gett\000"
 12340      00
 12341              	.LASF211:
 12342 14e0 77747472 		.ascii	"wttrp\000"
 12342      7000
 12343              	.LASF262:
 12344 14e6 715F7264 		.ascii	"q_rdptr\000"
 12344      70747200 
 12345              	.LASF185:
 12346 14ee 636F6E74 		.ascii	"context\000"
 12346      65787400 
 12347              	.LASF513:
 12348 14f6 77726974 		.ascii	"write\000"
 12348      6500
 12349              	.LASF509:
 12350 14fc 69717565 		.ascii	"iqueue\000"
 12350      756500
 12351              	.LASF693:
 12352 1503 696E5F63 		.ascii	"in_cb\000"
 12352      6200
 12353              	.LASF618:
 12354 1509 444F4550 		.ascii	"DOEPINT\000"
 12354      494E5400 
 12355              	.LASF200:
 12356 1511 6C617374 		.ascii	"last\000"
 12356      00
 12357              	.LASF295:
 12358 1516 4C434B52 		.ascii	"LCKR\000"
 12358      00
 12359              	.LASF506:
ARM GAS  C:\Users\PCHAUT~1\AppData\Local\Temp\ccOhqcVB.s 			page 235


 12360 151b 73647374 		.ascii	"sdstate_t\000"
 12360      6174655F 
 12360      7400
 12361              	.LASF21:
 12362 1525 75696E74 		.ascii	"uint32_t\000"
 12362      33325F74 
 12362      00
 12363              	.LASF380:
 12364 152e 64617461 		.ascii	"dataoffset\000"
 12364      6F666673 
 12364      657400
 12365              	.LASF282:
 12366 1539 424C4B5F 		.ascii	"BLK_WRITING\000"
 12366      57524954 
 12366      494E4700 
 12367              	.LASF118:
 12368 1545 52444C52 		.ascii	"RDLR\000"
 12368      00
 12369              	.LASF748:
 12370 154a 63684576 		.ascii	"chEvtObjectInit\000"
 12370      744F626A 
 12370      65637449 
 12370      6E697400 
 12371              	.LASF756:
 12372 155a 706F7274 		.ascii	"port_lock\000"
 12372      5F6C6F63 
 12372      6B00
 12373              	.LASF2:
 12374 1564 6C6F6E67 		.ascii	"long double\000"
 12374      20646F75 
 12374      626C6500 
 12375              	.LASF183:
 12376 1570 72656761 		.ascii	"regarm_t\000"
 12376      726D5F74 
 12376      00
 12377              	.LASF31:
 12378 1579 6576656E 		.ascii	"eventmask_t\000"
 12378      746D6173 
 12378      6B5F7400 
 12379              	.LASF334:
 12380 1585 64657074 		.ascii	"depth\000"
 12380      6800
 12381              	.LASF132:
 12382 158b 46464131 		.ascii	"FFA1R\000"
 12382      5200
 12383              	.LASF574:
 12384 1591 5553425F 		.ascii	"USB_SELECTED\000"
 12384      53454C45 
 12384      43544544 
 12384      00
 12385              	.LASF14:
 12386 159e 6C6F6E67 		.ascii	"long unsigned int\000"
 12386      20756E73 
 12386      69676E65 
 12386      6420696E 
 12386      7400
 12387              	.LASF473:
ARM GAS  C:\Users\PCHAUT~1\AppData\Local\Temp\ccOhqcVB.s 			page 236


 12388 15b0 4932535F 		.ascii	"I2S_ACTIVE\000"
 12388      41435449 
 12388      564500
 12389              	.LASF417:
 12390 15bb 4750545F 		.ascii	"GPT_READY\000"
 12390      52454144 
 12390      5900
 12391              	.LASF379:
 12392 15c5 64616373 		.ascii	"dacstate_t\000"
 12392      74617465 
 12392      5F7400
 12393              	.LASF188:
 12394 15d0 73655F74 		.ascii	"se_tp\000"
 12394      7000
 12395              	.LASF729:
 12396 15d6 73647544 		.ascii	"sduDataTransmitted\000"
 12396      61746154 
 12396      72616E73 
 12396      6D697474 
 12396      656400
 12397              	.LASF261:
 12398 15e9 715F7772 		.ascii	"q_wrptr\000"
 12398      70747200 
 12399              	.LASF387:
 12400 15f1 64616373 		.ascii	"dacsample_t\000"
 12400      616D706C 
 12400      655F7400 
 12401              	.LASF586:
 12402 15fd 5553425F 		.ascii	"USB_EVENT_ADDRESS\000"
 12402      4556454E 
 12402      545F4144 
 12402      44524553 
 12402      5300
 12403              	.LASF481:
 12404 160f 69327363 		.ascii	"i2scfgr\000"
 12404      66677200 
 12405              	.LASF714:
 12406 1617 5344555F 		.ascii	"SDU_STOP\000"
 12406      53544F50 
 12406      00
 12407              	.LASF162:
 12408 1620 52455350 		.ascii	"RESPCMD\000"
 12408      434D4400 
 12409              	.LASF366:
 12410 1628 72786675 		.ascii	"rxfull_event\000"
 12410      6C6C5F65 
 12410      76656E74 
 12410      00
 12411              	.LASF591:
 12412 1635 75736265 		.ascii	"usbevent_t\000"
 12412      76656E74 
 12412      5F7400
 12413              	.LASF223:
 12414 1640 63686172 		.ascii	"char\000"
 12414      00
 12415              	.LASF363:
 12416 1645 43414E43 		.ascii	"CANConfig\000"
ARM GAS  C:\Users\PCHAUT~1\AppData\Local\Temp\ccOhqcVB.s 			page 237


 12416      6F6E6669 
 12416      6700
 12417              	.LASF310:
 12418 164f 50454461 		.ascii	"PEData\000"
 12418      746100
 12419              	.LASF66:
 12420 1656 725F7175 		.ascii	"r_queue\000"
 12420      65756500 
 12421              	.LASF749:
 12422 165e 63685379 		.ascii	"chSysUnlockFromISR\000"
 12422      73556E6C 
 12422      6F636B46 
 12422      726F6D49 
 12422      535200
 12423              	.LASF491:
 12424 1671 656E6162 		.ascii	"enabled\000"
 12424      6C656400 
 12425              	.LASF388:
 12426 1679 4441435F 		.ascii	"DAC_ERR_DMAFAILURE\000"
 12426      4552525F 
 12426      444D4146 
 12426      41494C55 
 12426      524500
 12427              	.LASF630:
 12428 168c 47525846 		.ascii	"GRXFSIZ\000"
 12428      53495A00 
 12429              	.LASF537:
 12430 1694 73796E63 		.ascii	"sync\000"
 12430      00
 12431              	.LASF511:
 12432 1699 75736172 		.ascii	"usart\000"
 12432      7400
 12433              	.LASF523:
 12434 169f 7364636D 		.ascii	"sdcmode_t\000"
 12434      6F64655F 
 12434      7400
 12435              	.LASF264:
 12436 16a9 715F6C69 		.ascii	"q_link\000"
 12436      6E6B00
 12437              	.LASF651:
 12438 16b0 44434647 		.ascii	"DCFG\000"
 12438      00
 12439              	.LASF726:
 12440 16b5 73647544 		.ascii	"sduDataReceived\000"
 12440      61746152 
 12440      65636569 
 12440      76656400 
 12441              	.LASF661:
 12442 16c5 44564255 		.ascii	"DVBUSDIS\000"
 12442      53444953 
 12442      00
 12443              	.LASF627:
 12444 16ce 47494E54 		.ascii	"GINTMSK\000"
 12444      4D534B00 
 12445              	.LASF632:
 12446 16d6 484E5054 		.ascii	"HNPTXSTS\000"
 12446      58535453 
ARM GAS  C:\Users\PCHAUT~1\AppData\Local\Temp\ccOhqcVB.s 			page 238


 12446      00
 12447              	.LASF564:
 12448 16df 636F6E66 		.ascii	"configuration\000"
 12448      69677572 
 12448      6174696F 
 12448      6E00
 12449              	.LASF305:
 12450 16ed 73746D33 		.ascii	"stm32_gpio_setup_t\000"
 12450      325F6770 
 12450      696F5F73 
 12450      65747570 
 12450      5F7400
 12451              	.LASF274:
 12452 1700 5F73746D 		.ascii	"_stm32_dma_streams\000"
 12452      33325F64 
 12452      6D615F73 
 12452      74726561 
 12452      6D7300
 12453              	.LASF140:
 12454 1713 44485231 		.ascii	"DHR12L1\000"
 12454      324C3100 
 12455              	.LASF143:
 12456 171b 44485231 		.ascii	"DHR12L2\000"
 12456      324C3200 
 12457              	.LASF522:
 12458 1723 73646362 		.ascii	"sdcbusmode_t\000"
 12458      75736D6F 
 12458      64655F74 
 12458      00
 12459              	.LASF146:
 12460 1730 44485231 		.ascii	"DHR12LD\000"
 12460      324C4400 
 12461              	.LASF340:
 12462 1738 61646363 		.ascii	"adccallback_t\000"
 12462      616C6C62 
 12462      61636B5F 
 12462      7400
 12463              	.LASF44:
 12464 1746 705F7374 		.ascii	"p_stklimit\000"
 12464      6B6C696D 
 12464      697400
 12465              	.LASF33:
 12466 1751 636E745F 		.ascii	"cnt_t\000"
 12466      7400
 12467              	.LASF406:
 12468 1757 65787473 		.ascii	"extstate_t\000"
 12468      74617465 
 12468      5F7400
 12469              	.LASF579:
 12470 1762 5553425F 		.ascii	"USB_EP0_WAITING_TX0\000"
 12470      4550305F 
 12470      57414954 
 12470      494E475F 
 12470      54583000 
 12471              	.LASF558:
 12472 1776 6570306E 		.ascii	"ep0next\000"
 12472      65787400 
ARM GAS  C:\Users\PCHAUT~1\AppData\Local\Temp\ccOhqcVB.s 			page 239


 12473              	.LASF608:
 12474 177e 73746D33 		.ascii	"stm32_otg_host_chn_t\000"
 12474      325F6F74 
 12474      675F686F 
 12474      73745F63 
 12474      686E5F74 
 12475              	.LASF745:
 12476 1793 6F73616C 		.ascii	"osalSysLock\000"
 12476      5379734C 
 12476      6F636B00 
 12477              	.LASF297:
 12478 179f 41465248 		.ascii	"AFRH\000"
 12478      00
 12479              	.LASF296:
 12480 17a4 4146524C 		.ascii	"AFRL\000"
 12480      00
 12481              	.LASF732:
 12482 17a9 73647553 		.ascii	"sduStart\000"
 12482      74617274 
 12482      00
 12483              	.LASF240:
 12484 17b2 63665F6F 		.ascii	"cf_off_preempt\000"
 12484      66665F70 
 12484      7265656D 
 12484      707400
 12485              	.LASF377:
 12486 17c1 4441435F 		.ascii	"DAC_COMPLETE\000"
 12486      434F4D50 
 12486      4C455445 
 12486      00
 12487              	.LASF617:
 12488 17ce 444F4550 		.ascii	"DOEPCTL\000"
 12488      43544C00 
 12489              	.LASF603:
 12490 17d6 4843494E 		.ascii	"HCINTMSK\000"
 12490      544D534B 
 12490      00
 12491              	.LASF332:
 12492 17df 636F6E66 		.ascii	"config\000"
 12492      696700
 12493              	.LASF440:
 12494 17e6 47505444 		.ascii	"GPTD11\000"
 12494      313100
 12495              	.LASF278:
 12496 17ed 424C4B5F 		.ascii	"BLK_CONNECTING\000"
 12496      434F4E4E 
 12496      45435449 
 12496      4E4700
 12497              	.LASF373:
 12498 17fc 4441435F 		.ascii	"DAC_UNINIT\000"
 12498      554E494E 
 12498      495400
 12499              	.LASF326:
 12500 1807 6164635F 		.ascii	"adc_channels_num_t\000"
 12500      6368616E 
 12500      6E656C73 
 12500      5F6E756D 
ARM GAS  C:\Users\PCHAUT~1\AppData\Local\Temp\ccOhqcVB.s 			page 240


 12500      5F7400
 12501              	.LASF72:
 12502 181a 76746675 		.ascii	"vtfunc_t\000"
 12502      6E635F74 
 12502      00
 12503              	.LASF120:
 12504 1823 43414E5F 		.ascii	"CAN_FIFOMailBox_TypeDef\000"
 12504      4649464F 
 12504      4D61696C 
 12504      426F785F 
 12504      54797065 
 12505              	.LASF150:
 12506 183b 4441435F 		.ascii	"DAC_TypeDef\000"
 12506      54797065 
 12506      44656600 
 12507              	.LASF210:
 12508 1847 77746F62 		.ascii	"wtobjp\000"
 12508      6A7000
 12509              	.LASF393:
 12510 184e 4441435F 		.ascii	"DAC_DHRM_12BIT_RIGHT\000"
 12510      4448524D 
 12510      5F313242 
 12510      49545F52 
 12510      49474854 
 12511              	.LASF55:
 12512 1863 705F7265 		.ascii	"p_realprio\000"
 12512      616C7072 
 12512      696F00
 12513              	.LASF526:
 12514 186e 63617061 		.ascii	"capacity\000"
 12514      63697479 
 12514      00
 12515              	.LASF722:
 12516 1877 53657269 		.ascii	"SerialUSBConfig\000"
 12516      616C5553 
 12516      42436F6E 
 12516      66696700 
 12517              	.LASF263:
 12518 1887 715F6E6F 		.ascii	"q_notify\000"
 12518      74696679 
 12518      00
 12519              	.LASF213:
 12520 1890 77746D74 		.ascii	"wtmtxp\000"
 12520      787000
 12521              	.LASF690:
 12522 1897 5553424F 		.ascii	"USBOutEndpointState\000"
 12522      7574456E 
 12522      64706F69 
 12522      6E745374 
 12522      61746500 
 12523              	.LASF728:
 12524 18ab 73647570 		.ascii	"sdup\000"
 12524      00
 12525              	.LASF647:
 12526 18b0 72657376 		.ascii	"resvd41C\000"
 12526      64343143 
 12526      00
ARM GAS  C:\Users\PCHAUT~1\AppData\Local\Temp\ccOhqcVB.s 			page 241


 12527              	.LASF117:
 12528 18b9 52445452 		.ascii	"RDTR\000"
 12528      00
 12529              	.LASF286:
 12530 18be 626C6B5F 		.ascii	"blk_num\000"
 12530      6E756D00 
 12531              	.LASF585:
 12532 18c6 5553425F 		.ascii	"USB_EVENT_RESET\000"
 12532      4556454E 
 12532      545F5245 
 12532      53455400 
 12533              	.LASF65:
 12534 18d6 63685F72 		.ascii	"ch_ready_list\000"
 12534      65616479 
 12534      5F6C6973 
 12534      7400
 12535              	.LASF293:
 12536 18e4 50555044 		.ascii	"PUPDR\000"
 12536      5200
 12537              	.LASF11:
 12538 18ea 5F5F696E 		.ascii	"__int32_t\000"
 12538      7433325F 
 12538      7400
 12539              	.LASF13:
 12540 18f4 5F5F7569 		.ascii	"__uint32_t\000"
 12540      6E743332 
 12540      5F7400
 12541              	.LASF84:
 12542 18ff 63685F73 		.ascii	"ch_system_debug\000"
 12542      79737465 
 12542      6D5F6465 
 12542      62756700 
 12543              	.LASF658:
 12544 190f 4441494E 		.ascii	"DAINTMSK\000"
 12544      544D534B 
 12544      00
 12545              	.LASF413:
 12546 1918 45585443 		.ascii	"EXTConfig\000"
 12546      6F6E6669 
 12546      6700
 12547              	.LASF258:
 12548 1922 715F636F 		.ascii	"q_counter\000"
 12548      756E7465 
 12548      7200
 12549              	.LASF577:
 12550 192c 5553425F 		.ascii	"USB_EP0_WAITING_SETUP\000"
 12550      4550305F 
 12550      57414954 
 12550      494E475F 
 12550      53455455 
 12551              	.LASF740:
 12552 1942 6F73616C 		.ascii	"osalEventObjectInit\000"
 12552      4576656E 
 12552      744F626A 
 12552      65637449 
 12552      6E697400 
 12553              	.LASF281:
ARM GAS  C:\Users\PCHAUT~1\AppData\Local\Temp\ccOhqcVB.s 			page 242


 12554 1956 424C4B5F 		.ascii	"BLK_READING\000"
 12554      52454144 
 12554      494E4700 
 12555              	.LASF303:
 12556 1962 6166726C 		.ascii	"afrl\000"
 12556      00
 12557              	.LASF680:
 12558 1967 71756575 		.ascii	"queue\000"
 12558      6500
 12559              	.LASF560:
 12560 196d 65703065 		.ascii	"ep0endcb\000"
 12560      6E646362 
 12560      00
 12561              	.LASF271:
 12562 1976 73656C66 		.ascii	"selfindex\000"
 12562      696E6465 
 12562      7800
 12563              	.LASF244:
 12564 1980 6D757465 		.ascii	"mutex_t\000"
 12564      785F7400 
 12565              	.LASF53:
 12566 1988 705F6570 		.ascii	"p_epending\000"
 12566      656E6469 
 12566      6E6700
 12567              	.LASF290:
 12568 1993 4D4F4445 		.ascii	"MODER\000"
 12568      5200
 12569              	.LASF741:
 12570 1999 6F73616C 		.ascii	"osalOsRescheduleS\000"
 12570      4F735265 
 12570      73636865 
 12570      64756C65 
 12570      5300
 12571              	.LASF474:
 12572 19ab 4932535F 		.ascii	"I2S_COMPLETE\000"
 12572      434F4D50 
 12572      4C455445 
 12572      00
 12573              	.LASF124:
 12574 19b8 52455345 		.ascii	"RESERVED0\000"
 12574      52564544 
 12574      3000
 12575              	.LASF127:
 12576 19c2 52455345 		.ascii	"RESERVED1\000"
 12576      52564544 
 12576      3100
 12577              	.LASF129:
 12578 19cc 52455345 		.ascii	"RESERVED2\000"
 12578      52564544 
 12578      3200
 12579              	.LASF131:
 12580 19d6 52455345 		.ascii	"RESERVED3\000"
 12580      52564544 
 12580      3300
 12581              	.LASF133:
 12582 19e0 52455345 		.ascii	"RESERVED4\000"
 12582      52564544 
ARM GAS  C:\Users\PCHAUT~1\AppData\Local\Temp\ccOhqcVB.s 			page 243


 12582      3400
 12583              	.LASF135:
 12584 19ea 52455345 		.ascii	"RESERVED5\000"
 12584      52564544 
 12584      3500
 12585              	.LASF701:
 12586 19f4 55534245 		.ascii	"USBEndpointConfig\000"
 12586      6E64706F 
 12586      696E7443 
 12586      6F6E6669 
 12586      6700
 12587              	.LASF139:
 12588 1a06 44485231 		.ascii	"DHR12R1\000"
 12588      32523100 
 12589              	.LASF142:
 12590 1a0e 44485231 		.ascii	"DHR12R2\000"
 12590      32523200 
 12591              	.LASF409:
 12592 1a16 65787463 		.ascii	"extcallback_t\000"
 12592      616C6C62 
 12592      61636B5F 
 12592      7400
 12593              	.LASF365:
 12594 1a24 72787175 		.ascii	"rxqueue\000"
 12594      65756500 
 12595              	.LASF187:
 12596 1a2c 73655F74 		.ascii	"se_time\000"
 12596      696D6500 
 12597              	.LASF649:
 12598 1a34 72657376 		.ascii	"resvd444\000"
 12598      64343434 
 12598      00
 12599              	.LASF317:
 12600 1a3d 70616C5F 		.ascii	"pal_default_config\000"
 12600      64656661 
 12600      756C745F 
 12600      636F6E66 
 12600      696700
 12601              	.LASF335:
 12602 1a50 67727070 		.ascii	"grpp\000"
 12602      00
 12603              	.LASF145:
 12604 1a55 44485231 		.ascii	"DHR12RD\000"
 12604      32524400 
 12605              	.LASF248:
 12606 1a5d 656C5F6C 		.ascii	"el_listener\000"
 12606      69737465 
 12606      6E657200 
 12607              	.LASF679:
 12608 1a69 6C696E65 		.ascii	"linear\000"
 12608      617200
 12609              	.LASF433:
 12610 1a70 73746D33 		.ascii	"stm32_tim_t\000"
 12610      325F7469 
 12610      6D5F7400 
 12611              	.LASF67:
 12612 1a7c 725F7072 		.ascii	"r_prio\000"
ARM GAS  C:\Users\PCHAUT~1\AppData\Local\Temp\ccOhqcVB.s 			page 244


 12612      696F00
 12613              	.LASF566:
 12614 1a83 706D6E65 		.ascii	"pmnext\000"
 12614      787400
 12615              	.LASF96:
 12616 1a8a 49544D5F 		.ascii	"ITM_RxBuffer\000"
 12616      52784275 
 12616      66666572 
 12616      00
 12617              	.LASF287:
 12618 1a97 426C6F63 		.ascii	"BlockDeviceInfo\000"
 12618      6B446576 
 12618      69636549 
 12618      6E666F00 
 12619              	.LASF16:
 12620 1aa7 6C6F6E67 		.ascii	"long long unsigned int\000"
 12620      206C6F6E 
 12620      6720756E 
 12620      7369676E 
 12620      65642069 
 12621              	.LASF174:
 12622 1abe 5344494F 		.ascii	"SDIO_TypeDef\000"
 12622      5F547970 
 12622      65446566 
 12622      00
 12623              	.LASF196:
 12624 1acb 6F666673 		.ascii	"offset\000"
 12624      657400
 12625              	.LASF751:
 12626 1ad2 63685379 		.ascii	"chSysUnlock\000"
 12626      73556E6C 
 12626      6F636B00 
 12627              	.LASF151:
 12628 1ade 4E445452 		.ascii	"NDTR\000"
 12628      00
 12629              	.LASF253:
 12630 1ae3 65735F6E 		.ascii	"es_next\000"
 12630      65787400 
 12631              	.LASF615:
 12632 1aeb 72657376 		.ascii	"resvd1C\000"
 12632      64314300 
 12633              	.LASF95:
 12634 1af3 69646C65 		.ascii	"idle_thread_wa\000"
 12634      5F746872 
 12634      6561645F 
 12634      776100
 12635              	.LASF611:
 12636 1b02 44494550 		.ascii	"DIEPINT\000"
 12636      494E5400 
 12637              	.LASF180:
 12638 1b0a 5350495F 		.ascii	"SPI_TypeDef\000"
 12638      54797065 
 12638      44656600 
 12639              	.LASF78:
 12640 1b16 76745F66 		.ascii	"vt_func\000"
 12640      756E6300 
 12641              	.LASF424:
ARM GAS  C:\Users\PCHAUT~1\AppData\Local\Temp\ccOhqcVB.s 			page 245


 12642 1b1e 534D4352 		.ascii	"SMCR\000"
 12642      00
 12643              	.LASF656:
 12644 1b23 444F4550 		.ascii	"DOEPMSK\000"
 12644      4D534B00 
 12645              	.LASF74:
 12646 1b2b 63685F76 		.ascii	"ch_virtual_timer\000"
 12646      69727475 
 12646      616C5F74 
 12646      696D6572 
 12646      00
 12647              	.LASF46:
 12648 1b3c 705F666C 		.ascii	"p_flags\000"
 12648      61677300 
 12649              	.LASF214:
 12650 1b44 65776D61 		.ascii	"ewmask\000"
 12650      736B00
 12651              	.LASF250:
 12652 1b4b 656C5F66 		.ascii	"el_flags\000"
 12652      6C616773 
 12652      00
 12653              	.LASF252:
 12654 1b54 6576656E 		.ascii	"event_source\000"
 12654      745F736F 
 12654      75726365 
 12654      00
 12655              	.LASF54:
 12656 1b61 705F6D74 		.ascii	"p_mtxlist\000"
 12656      786C6973 
 12656      7400
 12657              	.LASF372:
 12658 1b6b 43414E44 		.ascii	"CAND1\000"
 12658      3100
 12659              	.LASF130:
 12660 1b71 46533152 		.ascii	"FS1R\000"
 12660      00
 12661              	.LASF26:
 12662 1b76 74737461 		.ascii	"tstate_t\000"
 12662      74655F74 
 12662      00
 12663              	.LASF546:
 12664 1b7f 53504944 		.ascii	"SPIDriver\000"
 12664      72697665 
 12664      7200
 12665              	.LASF657:
 12666 1b89 4441494E 		.ascii	"DAINT\000"
 12666      5400
 12667              	.LASF550:
 12668 1b8f 53504943 		.ascii	"SPIConfig\000"
 12668      6F6E6669 
 12668      6700
 12669              	.LASF302:
 12670 1b99 70757064 		.ascii	"pupdr\000"
 12670      7200
 12671              	.LASF392:
 12672 1b9f 64616365 		.ascii	"dacerrorcallback_t\000"
 12672      72726F72 
ARM GAS  C:\Users\PCHAUT~1\AppData\Local\Temp\ccOhqcVB.s 			page 246


 12672      63616C6C 
 12672      6261636B 
 12672      5F7400
 12673              	.LASF553:
 12674 1bb2 7472616E 		.ascii	"transmitting\000"
 12674      736D6974 
 12674      74696E67 
 12674      00
 12675              	.LASF734:
 12676 1bbf 7364754F 		.ascii	"sduObjectInit\000"
 12676      626A6563 
 12676      74496E69 
 12676      7400
 12677              	.LASF412:
 12678 1bcd 6368616E 		.ascii	"channels\000"
 12678      6E656C73 
 12678      00
 12679              	.LASF161:
 12680 1bd6 434C4B43 		.ascii	"CLKCR\000"
 12680      5200
 12681              	.LASF525:
 12682 1bdc 53444344 		.ascii	"SDCDriver\000"
 12682      72697665 
 12682      7200
 12683              	.LASF43:
 12684 1be6 705F6E61 		.ascii	"p_name\000"
 12684      6D6500
 12685              	.LASF507:
 12686 1bed 53657269 		.ascii	"SerialDriver\000"
 12686      616C4472 
 12686      69766572 
 12686      00
 12687              	.LASF108:
 12688 1bfa 4A445231 		.ascii	"JDR1\000"
 12688      00
 12689              	.LASF109:
 12690 1bff 4A445232 		.ascii	"JDR2\000"
 12690      00
 12691              	.LASF110:
 12692 1c04 4A445233 		.ascii	"JDR3\000"
 12692      00
 12693              	.LASF111:
 12694 1c09 4A445234 		.ascii	"JDR4\000"
 12694      00
 12695              	.LASF619:
 12696 1c0e 444F4550 		.ascii	"DOEPTSIZ\000"
 12696      5453495A 
 12696      00
 12697              	.LASF320:
 12698 1c17 4144435F 		.ascii	"ADC_READY\000"
 12698      52454144 
 12698      5900
 12699              	.LASF80:
 12700 1c21 76697274 		.ascii	"virtual_timers_list_t\000"
 12700      75616C5F 
 12700      74696D65 
 12700      72735F6C 
ARM GAS  C:\Users\PCHAUT~1\AppData\Local\Temp\ccOhqcVB.s 			page 247


 12700      6973745F 
 12701              	.LASF643:
 12702 1c37 72657376 		.ascii	"resvd40C\000"
 12702      64343043 
 12702      00
 12703              	.LASF747:
 12704 1c40 63684951 		.ascii	"chIQGetEmptyI\000"
 12704      47657445 
 12704      6D707479 
 12704      4900
 12705              	.LASF342:
 12706 1c4e 63697263 		.ascii	"circular\000"
 12706      756C6172 
 12706      00
 12707              	.LASF475:
 12708 1c57 69327373 		.ascii	"i2sstate_t\000"
 12708      74617465 
 12708      5F7400
 12709              	.LASF299:
 12710 1c62 6D6F6465 		.ascii	"moder\000"
 12710      7200
 12711              	.LASF216:
 12712 1c68 735F7175 		.ascii	"s_queue\000"
 12712      65756500 
 12713              	.LASF205:
 12714 1c70 6D5F6372 		.ascii	"m_crit_thd\000"
 12714      69745F74 
 12714      686400
 12715              	.LASF374:
 12716 1c7b 4441435F 		.ascii	"DAC_STOP\000"
 12716      53544F50 
 12716      00
 12717              	.LASF650:
 12718 1c84 72657376 		.ascii	"resvd700\000"
 12718      64373030 
 12718      00
 12719              	.LASF178:
 12720 1c8d 49325343 		.ascii	"I2SCFGR\000"
 12720      46475200 
 12721              	.LASF718:
 12722 1c95 75736270 		.ascii	"usbp\000"
 12722      00
 12723              	.LASF224:
 12724 1c9a 63685F69 		.ascii	"ch_identifier\000"
 12724      64656E74 
 12724      69666965 
 12724      7200
 12725              	.LASF517:
 12726 1ca8 77726974 		.ascii	"writet\000"
 12726      657400
 12727              	.LASF1:
 12728 1caf 6C6F6E67 		.ascii	"long long int\000"
 12728      206C6F6E 
 12728      6720696E 
 12728      7400
 12729              	.LASF637:
 12730 1cbd 48505458 		.ascii	"HPTXFSIZ\000"
ARM GAS  C:\Users\PCHAUT~1\AppData\Local\Temp\ccOhqcVB.s 			page 248


 12730      4653495A 
 12730      00
 12731              	.LASF231:
 12732 1cc6 63665F6F 		.ascii	"cf_off_prio\000"
 12732      66665F70 
 12732      72696F00 
 12733              	.LASF750:
 12734 1cd2 63685379 		.ascii	"chSysLockFromISR\000"
 12734      734C6F63 
 12734      6B46726F 
 12734      6D495352 
 12734      00
 12735              	.LASF731:
 12736 1ce3 73647553 		.ascii	"sduStop\000"
 12736      746F7000 
 12737              	.LASF202:
 12738 1ceb 74696D65 		.ascii	"time_measurement_t\000"
 12738      5F6D6561 
 12738      73757265 
 12738      6D656E74 
 12738      5F7400
 12739              	.LASF538:
 12740 1cfe 6765745F 		.ascii	"get_info\000"
 12740      696E666F 
 12740      00
 12741              	.LASF329:
 12742 1d07 61646365 		.ascii	"adcerror_t\000"
 12742      72726F72 
 12742      5F7400
 12743              	.LASF703:
 12744 1d12 6765745F 		.ascii	"get_descriptor_cb\000"
 12744      64657363 
 12744      72697074 
 12744      6F725F63 
 12744      6200
 12745              	.LASF32:
 12746 1d24 6576656E 		.ascii	"eventflags_t\000"
 12746      74666C61 
 12746      67735F74 
 12746      00
 12747              	.LASF542:
 12748 1d31 5350495F 		.ascii	"SPI_READY\000"
 12748      52454144 
 12748      5900
 12749              	.LASF126:
 12750 1d3b 73464946 		.ascii	"sFIFOMailBox\000"
 12750      4F4D6169 
 12750      6C426F78 
 12750      00
 12751              	.LASF530:
 12752 1d48 6275735F 		.ascii	"bus_width\000"
 12752      77696474 
 12752      6800
 12753              	.LASF147:
 12754 1d52 44485238 		.ascii	"DHR8RD\000"
 12754      524400
 12755              	.LASF652:
ARM GAS  C:\Users\PCHAUT~1\AppData\Local\Temp\ccOhqcVB.s 			page 249


 12756 1d59 4443544C 		.ascii	"DCTL\000"
 12756      00
 12757              	.LASF532:
 12758 1d5e 53444344 		.ascii	"SDCDriverVMT\000"
 12758      72697665 
 12758      72564D54 
 12758      00
 12759              	.LASF678:
 12760 1d6b 74786275 		.ascii	"txbuf\000"
 12760      6600
 12761              	.LASF671:
 12762 1d71 50434743 		.ascii	"PCGCCTL\000"
 12762      43544C00 
 12763              	.LASF589:
 12764 1d79 5553425F 		.ascii	"USB_EVENT_WAKEUP\000"
 12764      4556454E 
 12764      545F5741 
 12764      4B455550 
 12764      00
 12765              	.LASF762:
 12766 1d8a 5F5F7365 		.ascii	"__set_BASEPRI\000"
 12766      745F4241 
 12766      53455052 
 12766      4900
 12767              	.LASF42:
 12768 1d98 705F6F6C 		.ascii	"p_older\000"
 12768      64657200 
 12769              	.LASF283:
 12770 1da0 424C4B5F 		.ascii	"BLK_SYNCING\000"
 12770      53594E43 
 12770      494E4700 
 12771              	.LASF314:
 12772 1dac 50494461 		.ascii	"PIData\000"
 12772      746100
 12773              	.LASF700:
 12774 1db3 73657475 		.ascii	"setup_buf\000"
 12774      705F6275 
 12774      6600
 12775              	.LASF439:
 12776 1dbd 47505444 		.ascii	"GPTD6\000"
 12776      3600
 12777              	.LASF345:
 12778 1dc3 6572726F 		.ascii	"error_cb\000"
 12778      725F6362 
 12778      00
 12779              	.LASF279:
 12780 1dcc 424C4B5F 		.ascii	"BLK_DISCONNECTING\000"
 12780      44495343 
 12780      4F4E4E45 
 12780      4354494E 
 12780      4700
 12781              	.LASF548:
 12782 1dde 7373706F 		.ascii	"ssport\000"
 12782      727400
 12783              	.LASF58:
 12784 1de5 74687265 		.ascii	"thread_reference_t\000"
 12784      61645F72 
ARM GAS  C:\Users\PCHAUT~1\AppData\Local\Temp\ccOhqcVB.s 			page 250


 12784      65666572 
 12784      656E6365 
 12784      5F7400
 12785              	.LASF408:
 12786 1df8 65787063 		.ascii	"expchannel_t\000"
 12786      68616E6E 
 12786      656C5F74 
 12786      00
 12787              	.LASF554:
 12788 1e05 72656365 		.ascii	"receiving\000"
 12788      6976696E 
 12788      6700
 12789              	.LASF435:
 12790 1e0f 66726571 		.ascii	"frequency\000"
 12790      75656E63 
 12790      7900
 12791              	.LASF197:
 12792 1e19 746D5F63 		.ascii	"tm_calibration_t\000"
 12792      616C6962 
 12792      72617469 
 12792      6F6E5F74 
 12792      00
 12793              	.LASF697:
 12794 1e2a 696E5F73 		.ascii	"in_state\000"
 12794      74617465 
 12794      00
 12795              	.LASF181:
 12796 1e33 47545052 		.ascii	"GTPR\000"
 12796      00
 12797              	.LASF225:
 12798 1e38 63685F7A 		.ascii	"ch_zero\000"
 12798      65726F00 
 12799              	.LASF455:
 12800 1e40 46415354 		.ascii	"FAST_DUTY_CYCLE_2\000"
 12800      5F445554 
 12800      595F4359 
 12800      434C455F 
 12800      3200
 12801              	.LASF169:
 12802 1e52 44435452 		.ascii	"DCTRL\000"
 12802      4C00
 12803              	.LASF230:
 12804 1e58 63685F74 		.ascii	"ch_threadsize\000"
 12804      68726561 
 12804      6473697A 
 12804      6500
 12805              	.LASF158:
 12806 1e66 464C5452 		.ascii	"FLTR\000"
 12806      00
 12807              	.LASF426:
 12808 1e6b 43434D52 		.ascii	"CCMR1\000"
 12808      3100
 12809              	.LASF427:
 12810 1e71 43434D52 		.ascii	"CCMR2\000"
 12810      3200
 12811              	.LASF431:
 12812 1e77 43434D52 		.ascii	"CCMR3\000"
ARM GAS  C:\Users\PCHAUT~1\AppData\Local\Temp\ccOhqcVB.s 			page 251


 12812      3300
 12813              	.LASF0:
 12814 1e7d 756E7369 		.ascii	"unsigned int\000"
 12814      676E6564 
 12814      20696E74 
 12814      00
 12815              	.LASF349:
 12816 1e8a 73717232 		.ascii	"sqr2\000"
 12816      00
 12817              	.LASF350:
 12818 1e8f 73717233 		.ascii	"sqr3\000"
 12818      00
 12819              	.LASF641:
 12820 1e94 48464952 		.ascii	"HFIR\000"
 12820      00
 12821              	.LASF571:
 12822 1e99 5553425F 		.ascii	"USB_UNINIT\000"
 12822      554E494E 
 12822      495400
 12823              	.LASF268:
 12824 1ea4 73747265 		.ascii	"stream\000"
 12824      616D00
 12825              	.LASF352:
 12826 1eab 64756D6D 		.ascii	"dummy\000"
 12826      7900
 12827              	.LASF453:
 12828 1eb1 6932636F 		.ascii	"i2copmode_t\000"
 12828      706D6F64 
 12828      655F7400 
 12829              	.LASF246:
 12830 1ebd 6576656E 		.ascii	"event_listener\000"
 12830      745F6C69 
 12830      7374656E 
 12830      657200
 12831              	.LASF8:
 12832 1ecc 73686F72 		.ascii	"short int\000"
 12832      7420696E 
 12832      7400
 12833              	.LASF595:
 12834 1ed6 75736263 		.ascii	"usbcallback_t\000"
 12834      616C6C62 
 12834      61636B5F 
 12834      7400
 12835              	.LASF624:
 12836 1ee4 47555342 		.ascii	"GUSBCFG\000"
 12836      43464700 
 12837              	.LASF182:
 12838 1eec 55534152 		.ascii	"USART_TypeDef\000"
 12838      545F5479 
 12838      70654465 
 12838      6600
 12839              	.LASF267:
 12840 1efa 6F757470 		.ascii	"output_queue_t\000"
 12840      75745F71 
 12840      75657565 
 12840      5F7400
 12841              	.LASF673:
ARM GAS  C:\Users\PCHAUT~1\AppData\Local\Temp\ccOhqcVB.s 			page 252


 12842 1f09 73746D33 		.ascii	"stm32_otg_t\000"
 12842      325F6F74 
 12842      675F7400 
 12843              	.LASF476:
 12844 1f15 49325344 		.ascii	"I2SDriver\000"
 12844      72697665 
 12844      7200
 12845              	.LASF460:
 12846 1f1f 64757479 		.ascii	"duty_cycle\000"
 12846      5F637963 
 12846      6C6500
 12847              	.LASF483:
 12848 1f2a 49325343 		.ascii	"I2SConfig\000"
 12848      6F6E6669 
 12848      6700
 12849              	.LASF592:
 12850 1f34 75645F73 		.ascii	"ud_size\000"
 12850      697A6500 
 12851              	.LASF695:
 12852 1f3c 696E5F6D 		.ascii	"in_maxsize\000"
 12852      61787369 
 12852      7A6500
 12853              	.LASF311:
 12854 1f47 50464461 		.ascii	"PFData\000"
 12854      746100
 12855              	.LASF404:
 12856 1f4e 4558545F 		.ascii	"EXT_STOP\000"
 12856      53544F50 
 12856      00
 12857              	.LASF739:
 12858 1f57 666C6167 		.ascii	"flags\000"
 12858      7300
 12859              	.LASF45:
 12860 1f5d 705F7374 		.ascii	"p_state\000"
 12860      61746500 
 12861              	.LASF484:
 12862 1f65 49325344 		.ascii	"I2SD2\000"
 12862      3200
 12863              	.LASF533:
 12864 1f6b 69735F69 		.ascii	"is_inserted\000"
 12864      6E736572 
 12864      74656400 
 12865              	.LASF61:
 12866 1f77 63685F74 		.ascii	"ch_threads_list\000"
 12866      68726561 
 12866      64735F6C 
 12866      69737400 
 12867              	.LASF170:
 12868 1f87 44434F55 		.ascii	"DCOUNT\000"
 12868      4E5400
 12869              	.LASF155:
 12870 1f8e 4F415231 		.ascii	"OAR1\000"
 12870      00
 12871              	.LASF156:
 12872 1f93 4F415232 		.ascii	"OAR2\000"
 12872      00
 12873              	.LASF57:
ARM GAS  C:\Users\PCHAUT~1\AppData\Local\Temp\ccOhqcVB.s 			page 253


 12874 1f98 705F7374 		.ascii	"p_stats\000"
 12874      61747300 
 12875              	.LASF576:
 12876 1fa0 75736273 		.ascii	"usbstate_t\000"
 12876      74617465 
 12876      5F7400
 12877              		.ident	"GCC: (GNU Tools for Arm Embedded Processors 7-2017-q4-major) 7.2.1 20170904 (release) [ARM
ARM GAS  C:\Users\PCHAUT~1\AppData\Local\Temp\ccOhqcVB.s 			page 254


DEFINED SYMBOLS
                            *ABS*:00000000 serial_usb.c
C:\Users\PCHAUT~1\AppData\Local\Temp\ccOhqcVB.s:18     .text.port_lock:00000000 $t
C:\Users\PCHAUT~1\AppData\Local\Temp\ccOhqcVB.s:25     .text.port_lock:00000000 port_lock
C:\Users\PCHAUT~1\AppData\Local\Temp\ccOhqcVB.s:72     .text.port_lock:0000002c $d
C:\Users\PCHAUT~1\AppData\Local\Temp\ccOhqcVB.s:77     .text.port_unlock:00000000 $t
C:\Users\PCHAUT~1\AppData\Local\Temp\ccOhqcVB.s:84     .text.port_unlock:00000000 port_unlock
C:\Users\PCHAUT~1\AppData\Local\Temp\ccOhqcVB.s:129    .text.port_unlock:0000002c $d
C:\Users\PCHAUT~1\AppData\Local\Temp\ccOhqcVB.s:134    .text.port_lock_from_isr:00000000 $t
C:\Users\PCHAUT~1\AppData\Local\Temp\ccOhqcVB.s:141    .text.port_lock_from_isr:00000000 port_lock_from_isr
C:\Users\PCHAUT~1\AppData\Local\Temp\ccOhqcVB.s:174    .text.port_lock_from_isr:00000024 $d
C:\Users\PCHAUT~1\AppData\Local\Temp\ccOhqcVB.s:179    .text.port_unlock_from_isr:00000000 $t
C:\Users\PCHAUT~1\AppData\Local\Temp\ccOhqcVB.s:186    .text.port_unlock_from_isr:00000000 port_unlock_from_isr
C:\Users\PCHAUT~1\AppData\Local\Temp\ccOhqcVB.s:219    .text.port_unlock_from_isr:00000024 $d
C:\Users\PCHAUT~1\AppData\Local\Temp\ccOhqcVB.s:224    .text.chSysLock:00000000 $t
C:\Users\PCHAUT~1\AppData\Local\Temp\ccOhqcVB.s:231    .text.chSysLock:00000000 chSysLock
C:\Users\PCHAUT~1\AppData\Local\Temp\ccOhqcVB.s:269    .text.chSysLock:0000002c $d
C:\Users\PCHAUT~1\AppData\Local\Temp\ccOhqcVB.s:274    .text.chSysUnlock:00000000 $t
C:\Users\PCHAUT~1\AppData\Local\Temp\ccOhqcVB.s:281    .text.chSysUnlock:00000000 chSysUnlock
C:\Users\PCHAUT~1\AppData\Local\Temp\ccOhqcVB.s:337    .text.chSysUnlock:0000004c $d
C:\Users\PCHAUT~1\AppData\Local\Temp\ccOhqcVB.s:2542   .rodata.__func__.7153:00000000 __func__.7153
C:\Users\PCHAUT~1\AppData\Local\Temp\ccOhqcVB.s:344    .text.chSysLockFromISR:00000000 $t
C:\Users\PCHAUT~1\AppData\Local\Temp\ccOhqcVB.s:351    .text.chSysLockFromISR:00000000 chSysLockFromISR
C:\Users\PCHAUT~1\AppData\Local\Temp\ccOhqcVB.s:388    .text.chSysLockFromISR:0000002c $d
C:\Users\PCHAUT~1\AppData\Local\Temp\ccOhqcVB.s:393    .text.chSysUnlockFromISR:00000000 $t
C:\Users\PCHAUT~1\AppData\Local\Temp\ccOhqcVB.s:400    .text.chSysUnlockFromISR:00000000 chSysUnlockFromISR
C:\Users\PCHAUT~1\AppData\Local\Temp\ccOhqcVB.s:437    .text.chSysUnlockFromISR:0000002c $d
C:\Users\PCHAUT~1\AppData\Local\Temp\ccOhqcVB.s:442    .text.chEvtObjectInit:00000000 $t
C:\Users\PCHAUT~1\AppData\Local\Temp\ccOhqcVB.s:449    .text.chEvtObjectInit:00000000 chEvtObjectInit
C:\Users\PCHAUT~1\AppData\Local\Temp\ccOhqcVB.s:486    .text.chEvtObjectInit:00000028 $d
C:\Users\PCHAUT~1\AppData\Local\Temp\ccOhqcVB.s:491    .text.chIQGetEmptyI:00000000 $t
C:\Users\PCHAUT~1\AppData\Local\Temp\ccOhqcVB.s:498    .text.chIQGetEmptyI:00000000 chIQGetEmptyI
C:\Users\PCHAUT~1\AppData\Local\Temp\ccOhqcVB.s:544    .text.chIQGetEmptyI:0000003c $d
C:\Users\PCHAUT~1\AppData\Local\Temp\ccOhqcVB.s:549    .text.chOQGetFullI:00000000 $t
C:\Users\PCHAUT~1\AppData\Local\Temp\ccOhqcVB.s:556    .text.chOQGetFullI:00000000 chOQGetFullI
C:\Users\PCHAUT~1\AppData\Local\Temp\ccOhqcVB.s:601    .text.chOQGetFullI:0000003c $d
C:\Users\PCHAUT~1\AppData\Local\Temp\ccOhqcVB.s:606    .text.osalSysLock:00000000 $t
C:\Users\PCHAUT~1\AppData\Local\Temp\ccOhqcVB.s:613    .text.osalSysLock:00000000 osalSysLock
C:\Users\PCHAUT~1\AppData\Local\Temp\ccOhqcVB.s:647    .text.osalSysLock:00000024 $d
C:\Users\PCHAUT~1\AppData\Local\Temp\ccOhqcVB.s:652    .text.osalSysUnlock:00000000 $t
C:\Users\PCHAUT~1\AppData\Local\Temp\ccOhqcVB.s:659    .text.osalSysUnlock:00000000 osalSysUnlock
C:\Users\PCHAUT~1\AppData\Local\Temp\ccOhqcVB.s:692    .text.osalSysUnlock:00000024 $d
C:\Users\PCHAUT~1\AppData\Local\Temp\ccOhqcVB.s:697    .text.osalSysLockFromISR:00000000 $t
C:\Users\PCHAUT~1\AppData\Local\Temp\ccOhqcVB.s:704    .text.osalSysLockFromISR:00000000 osalSysLockFromISR
C:\Users\PCHAUT~1\AppData\Local\Temp\ccOhqcVB.s:737    .text.osalSysLockFromISR:00000024 $d
C:\Users\PCHAUT~1\AppData\Local\Temp\ccOhqcVB.s:742    .text.osalSysUnlockFromISR:00000000 $t
C:\Users\PCHAUT~1\AppData\Local\Temp\ccOhqcVB.s:749    .text.osalSysUnlockFromISR:00000000 osalSysUnlockFromISR
C:\Users\PCHAUT~1\AppData\Local\Temp\ccOhqcVB.s:782    .text.osalSysUnlockFromISR:00000024 $d
C:\Users\PCHAUT~1\AppData\Local\Temp\ccOhqcVB.s:787    .text.osalOsRescheduleS:00000000 $t
C:\Users\PCHAUT~1\AppData\Local\Temp\ccOhqcVB.s:794    .text.osalOsRescheduleS:00000000 osalOsRescheduleS
C:\Users\PCHAUT~1\AppData\Local\Temp\ccOhqcVB.s:827    .text.osalOsRescheduleS:00000024 $d
C:\Users\PCHAUT~1\AppData\Local\Temp\ccOhqcVB.s:832    .text.osalEventObjectInit:00000000 $t
C:\Users\PCHAUT~1\AppData\Local\Temp\ccOhqcVB.s:839    .text.osalEventObjectInit:00000000 osalEventObjectInit
C:\Users\PCHAUT~1\AppData\Local\Temp\ccOhqcVB.s:874    .text.osalEventObjectInit:00000028 $d
C:\Users\PCHAUT~1\AppData\Local\Temp\ccOhqcVB.s:879    .text.osalEventBroadcastFlagsI:00000000 $t
C:\Users\PCHAUT~1\AppData\Local\Temp\ccOhqcVB.s:886    .text.osalEventBroadcastFlagsI:00000000 osalEventBroadcastFlagsI
C:\Users\PCHAUT~1\AppData\Local\Temp\ccOhqcVB.s:923    .text.osalEventBroadcastFlagsI:0000002c $d
ARM GAS  C:\Users\PCHAUT~1\AppData\Local\Temp\ccOhqcVB.s 			page 255


C:\Users\PCHAUT~1\AppData\Local\Temp\ccOhqcVB.s:928    .data.linecoding:00000000 $d
C:\Users\PCHAUT~1\AppData\Local\Temp\ccOhqcVB.s:931    .data.linecoding:00000000 linecoding
C:\Users\PCHAUT~1\AppData\Local\Temp\ccOhqcVB.s:940    .text.write:00000000 $t
C:\Users\PCHAUT~1\AppData\Local\Temp\ccOhqcVB.s:947    .text.write:00000000 write
C:\Users\PCHAUT~1\AppData\Local\Temp\ccOhqcVB.s:990    .text.write:0000003c $d
C:\Users\PCHAUT~1\AppData\Local\Temp\ccOhqcVB.s:995    .text.read:00000000 $t
C:\Users\PCHAUT~1\AppData\Local\Temp\ccOhqcVB.s:1002   .text.read:00000000 read
C:\Users\PCHAUT~1\AppData\Local\Temp\ccOhqcVB.s:1044   .text.read:0000003c $d
C:\Users\PCHAUT~1\AppData\Local\Temp\ccOhqcVB.s:1049   .text.put:00000000 $t
C:\Users\PCHAUT~1\AppData\Local\Temp\ccOhqcVB.s:1056   .text.put:00000000 put
C:\Users\PCHAUT~1\AppData\Local\Temp\ccOhqcVB.s:1098   .text.put:0000003c $d
C:\Users\PCHAUT~1\AppData\Local\Temp\ccOhqcVB.s:1103   .text.get:00000000 $t
C:\Users\PCHAUT~1\AppData\Local\Temp\ccOhqcVB.s:1110   .text.get:00000000 get
C:\Users\PCHAUT~1\AppData\Local\Temp\ccOhqcVB.s:1149   .text.get:00000034 $d
C:\Users\PCHAUT~1\AppData\Local\Temp\ccOhqcVB.s:1154   .text.putt:00000000 $t
C:\Users\PCHAUT~1\AppData\Local\Temp\ccOhqcVB.s:1161   .text.putt:00000000 putt
C:\Users\PCHAUT~1\AppData\Local\Temp\ccOhqcVB.s:1204   .text.putt:0000003c $d
C:\Users\PCHAUT~1\AppData\Local\Temp\ccOhqcVB.s:1209   .text.gett:00000000 $t
C:\Users\PCHAUT~1\AppData\Local\Temp\ccOhqcVB.s:1216   .text.gett:00000000 gett
C:\Users\PCHAUT~1\AppData\Local\Temp\ccOhqcVB.s:1256   .text.gett:00000034 $d
C:\Users\PCHAUT~1\AppData\Local\Temp\ccOhqcVB.s:1261   .text.writet:00000000 $t
C:\Users\PCHAUT~1\AppData\Local\Temp\ccOhqcVB.s:1268   .text.writet:00000000 writet
C:\Users\PCHAUT~1\AppData\Local\Temp\ccOhqcVB.s:1311   .text.writet:0000003c $d
C:\Users\PCHAUT~1\AppData\Local\Temp\ccOhqcVB.s:1316   .text.readt:00000000 $t
C:\Users\PCHAUT~1\AppData\Local\Temp\ccOhqcVB.s:1323   .text.readt:00000000 readt
C:\Users\PCHAUT~1\AppData\Local\Temp\ccOhqcVB.s:1366   .text.readt:0000003c $d
C:\Users\PCHAUT~1\AppData\Local\Temp\ccOhqcVB.s:1371   .rodata.vmt:00000000 $d
C:\Users\PCHAUT~1\AppData\Local\Temp\ccOhqcVB.s:1374   .rodata.vmt:00000000 vmt
C:\Users\PCHAUT~1\AppData\Local\Temp\ccOhqcVB.s:1384   .text.inotify:00000000 $t
C:\Users\PCHAUT~1\AppData\Local\Temp\ccOhqcVB.s:1391   .text.inotify:00000000 inotify
C:\Users\PCHAUT~1\AppData\Local\Temp\ccOhqcVB.s:1517   .text.inotify:000000e0 $d
C:\Users\PCHAUT~1\AppData\Local\Temp\ccOhqcVB.s:1522   .text.onotify:00000000 $t
C:\Users\PCHAUT~1\AppData\Local\Temp\ccOhqcVB.s:1529   .text.onotify:00000000 onotify
C:\Users\PCHAUT~1\AppData\Local\Temp\ccOhqcVB.s:1634   .text.onotify:000000b0 $d
C:\Users\PCHAUT~1\AppData\Local\Temp\ccOhqcVB.s:1639   .text.sduInit:00000000 $t
C:\Users\PCHAUT~1\AppData\Local\Temp\ccOhqcVB.s:1647   .text.sduInit:00000000 sduInit
C:\Users\PCHAUT~1\AppData\Local\Temp\ccOhqcVB.s:1678   .text.sduInit:00000020 $d
C:\Users\PCHAUT~1\AppData\Local\Temp\ccOhqcVB.s:1683   .text.sduObjectInit:00000000 $t
C:\Users\PCHAUT~1\AppData\Local\Temp\ccOhqcVB.s:1691   .text.sduObjectInit:00000000 sduObjectInit
C:\Users\PCHAUT~1\AppData\Local\Temp\ccOhqcVB.s:1756   .text.sduObjectInit:0000006c $d
C:\Users\PCHAUT~1\AppData\Local\Temp\ccOhqcVB.s:1764   .text.sduStart:00000000 $t
C:\Users\PCHAUT~1\AppData\Local\Temp\ccOhqcVB.s:1772   .text.sduStart:00000000 sduStart
C:\Users\PCHAUT~1\AppData\Local\Temp\ccOhqcVB.s:1877   .text.sduStart:000000a0 $d
C:\Users\PCHAUT~1\AppData\Local\Temp\ccOhqcVB.s:2548   .rodata.__func__.9900:00000000 __func__.9900
C:\Users\PCHAUT~1\AppData\Local\Temp\ccOhqcVB.s:1883   .text.sduStop:00000000 $t
C:\Users\PCHAUT~1\AppData\Local\Temp\ccOhqcVB.s:1891   .text.sduStop:00000000 sduStop
C:\Users\PCHAUT~1\AppData\Local\Temp\ccOhqcVB.s:2014   .text.sduStop:000000cc $d
C:\Users\PCHAUT~1\AppData\Local\Temp\ccOhqcVB.s:2554   .rodata.__func__.9905:00000000 __func__.9905
C:\Users\PCHAUT~1\AppData\Local\Temp\ccOhqcVB.s:2020   .text.sduConfigureHookI:00000000 $t
C:\Users\PCHAUT~1\AppData\Local\Temp\ccOhqcVB.s:2028   .text.sduConfigureHookI:00000000 sduConfigureHookI
C:\Users\PCHAUT~1\AppData\Local\Temp\ccOhqcVB.s:2108   .text.sduConfigureHookI:00000088 $d
C:\Users\PCHAUT~1\AppData\Local\Temp\ccOhqcVB.s:2113   .text.sduRequestsHook:00000000 $t
C:\Users\PCHAUT~1\AppData\Local\Temp\ccOhqcVB.s:2121   .text.sduRequestsHook:00000000 sduRequestsHook
C:\Users\PCHAUT~1\AppData\Local\Temp\ccOhqcVB.s:2219   .text.sduRequestsHook:0000008c $d
C:\Users\PCHAUT~1\AppData\Local\Temp\ccOhqcVB.s:2225   .text.sduDataTransmitted:00000000 $t
C:\Users\PCHAUT~1\AppData\Local\Temp\ccOhqcVB.s:2233   .text.sduDataTransmitted:00000000 sduDataTransmitted
C:\Users\PCHAUT~1\AppData\Local\Temp\ccOhqcVB.s:2372   .text.sduDataTransmitted:000000f8 $d
ARM GAS  C:\Users\PCHAUT~1\AppData\Local\Temp\ccOhqcVB.s 			page 256


C:\Users\PCHAUT~1\AppData\Local\Temp\ccOhqcVB.s:2377   .text.sduDataReceived:00000000 $t
C:\Users\PCHAUT~1\AppData\Local\Temp\ccOhqcVB.s:2385   .text.sduDataReceived:00000000 sduDataReceived
C:\Users\PCHAUT~1\AppData\Local\Temp\ccOhqcVB.s:2487   .text.sduDataReceived:000000b0 $d
C:\Users\PCHAUT~1\AppData\Local\Temp\ccOhqcVB.s:2492   .text.sduInterruptTransmitted:00000000 $t
C:\Users\PCHAUT~1\AppData\Local\Temp\ccOhqcVB.s:2500   .text.sduInterruptTransmitted:00000000 sduInterruptTransmitted
C:\Users\PCHAUT~1\AppData\Local\Temp\ccOhqcVB.s:2534   .text.sduInterruptTransmitted:00000028 $d
C:\Users\PCHAUT~1\AppData\Local\Temp\ccOhqcVB.s:2539   .rodata.__func__.7153:00000000 $d
C:\Users\PCHAUT~1\AppData\Local\Temp\ccOhqcVB.s:2545   .rodata.__func__.9900:00000000 $d
C:\Users\PCHAUT~1\AppData\Local\Temp\ccOhqcVB.s:2551   .rodata.__func__.9905:00000000 $d

UNDEFINED SYMBOLS
__stack_chk_fail
__stack_chk_guard
_stats_start_measure_crit_thd
_dbg_check_lock
_dbg_check_unlock
_stats_stop_measure_crit_thd
chSysHalt
ch
_stats_start_measure_crit_isr
_dbg_check_lock_from_isr
_dbg_check_unlock_from_isr
_stats_stop_measure_crit_isr
chDbgCheckClassI
chSchRescheduleS
chEvtBroadcastFlagsI
chOQWriteTimeout
chIQReadTimeout
chOQPutTimeout
chIQGetTimeout
usbPrepareQueuedReceive
usbStartReceiveI
usbPrepareQueuedTransmit
usbStartTransmitI
chIQObjectInit
chOQObjectInit
chIQResetI
chOQResetI
