ARM GAS  C:\Users\PCHAUT~1\AppData\Local\Temp\ccspSFHu.s 			page 1


   1              		.cpu cortex-m4
   2              		.eabi_attribute 27, 1
   3              		.eabi_attribute 28, 1
   4              		.eabi_attribute 20, 1
   5              		.eabi_attribute 21, 1
   6              		.eabi_attribute 23, 3
   7              		.eabi_attribute 24, 1
   8              		.eabi_attribute 25, 1
   9              		.eabi_attribute 26, 1
  10              		.eabi_attribute 30, 6
  11              		.eabi_attribute 34, 1
  12              		.eabi_attribute 18, 4
  13              		.file	"serial_datagram.c"
  14              		.text
  15              	.Ltext0:
  16              		.cfi_sections	.debug_frame
  17              		.section	.text.compute_crc,"ax",%progbits
  18              		.align	1
  19              		.p2align 4,,15
  20              		.syntax unified
  21              		.thumb
  22              		.thumb_func
  23              		.fpu fpv4-sp-d16
  24              		.type	compute_crc, %function
  25              	compute_crc:
  26              	.LFB0:
  27              		.file 1 "../lib/e-puck2_main-processor/src/serial-datagram/serial_datagram.c"
  28              		.loc 1 13 0
  29              		.cfi_startproc
  30              		@ args = 0, pretend = 0, frame = 16
  31              		@ frame_needed = 0, uses_anonymous_args = 0
  32 0000 00B5     		push	{lr}
  33              		.cfi_def_cfa_offset 4
  34              		.cfi_offset 14, -4
  35 0002 85B0     		sub	sp, sp, #20
  36              		.cfi_def_cfa_offset 24
  37 0004 0190     		str	r0, [sp, #4]
  38 0006 0091     		str	r1, [sp]
  39              		.loc 1 13 0
  40 0008 094B     		ldr	r3, .L4
  41 000a 1B68     		ldr	r3, [r3]
  42 000c 0393     		str	r3, [sp, #12]
  43              		.loc 1 14 0
  44 000e 009A     		ldr	r2, [sp]
  45 0010 0199     		ldr	r1, [sp, #4]
  46 0012 0020     		movs	r0, #0
  47 0014 FFF7FEFF 		bl	crc32
  48 0018 0346     		mov	r3, r0
  49              		.loc 1 15 0
  50 001a 1846     		mov	r0, r3
  51 001c 044B     		ldr	r3, .L4
  52 001e 039A     		ldr	r2, [sp, #12]
  53 0020 1B68     		ldr	r3, [r3]
  54 0022 9A42     		cmp	r2, r3
  55 0024 01D0     		beq	.L3
  56 0026 FFF7FEFF 		bl	__stack_chk_fail
  57              	.L3:
ARM GAS  C:\Users\PCHAUT~1\AppData\Local\Temp\ccspSFHu.s 			page 2


  58 002a 05B0     		add	sp, sp, #20
  59              		.cfi_def_cfa_offset 4
  60              		@ sp needed
  61 002c 5DF804FB 		ldr	pc, [sp], #4
  62              	.L5:
  63              		.align	2
  64              	.L4:
  65 0030 00000000 		.word	__stack_chk_guard
  66              		.cfi_endproc
  67              	.LFE0:
  68              		.size	compute_crc, .-compute_crc
  69              		.section	.rodata.esc_end,"a",%progbits
  70              		.align	2
  71              		.type	esc_end, %object
  72              		.size	esc_end, 2
  73              	esc_end:
  74 0000 DB       		.byte	-37
  75 0001 DC       		.byte	-36
  76              		.section	.rodata.esc_esc,"a",%progbits
  77              		.align	2
  78              		.type	esc_esc, %object
  79              		.size	esc_esc, 2
  80              	esc_esc:
  81 0000 DB       		.byte	-37
  82 0001 DD       		.byte	-35
  83              		.section	.text.serial_datagram_send_chunk,"ax",%progbits
  84              		.align	1
  85              		.p2align 4,,15
  86              		.global	serial_datagram_send_chunk
  87              		.syntax unified
  88              		.thumb
  89              		.thumb_func
  90              		.fpu fpv4-sp-d16
  91              		.type	serial_datagram_send_chunk, %function
  92              	serial_datagram_send_chunk:
  93              	.LFB1:
  94              		.loc 1 22 0
  95              		.cfi_startproc
  96              		@ args = 4, pretend = 0, frame = 40
  97              		@ frame_needed = 0, uses_anonymous_args = 0
  98 0000 00B5     		push	{lr}
  99              		.cfi_def_cfa_offset 4
 100              		.cfi_offset 14, -4
 101 0002 8BB0     		sub	sp, sp, #44
 102              		.cfi_def_cfa_offset 48
 103 0004 0590     		str	r0, [sp, #20]
 104 0006 0491     		str	r1, [sp, #16]
 105 0008 0392     		str	r2, [sp, #12]
 106 000a 0293     		str	r3, [sp, #8]
 107 000c 0C9B     		ldr	r3, [sp, #48]
 108 000e 0193     		str	r3, [sp, #4]
 109              		.loc 1 22 0
 110 0010 2E4B     		ldr	r3, .L12
 111 0012 1B68     		ldr	r3, [r3]
 112 0014 0993     		str	r3, [sp, #36]
 113              		.loc 1 23 0
 114 0016 059B     		ldr	r3, [sp, #20]
ARM GAS  C:\Users\PCHAUT~1\AppData\Local\Temp\ccspSFHu.s 			page 3


 115 0018 0893     		str	r3, [sp, #32]
 116              		.loc 1 25 0
 117 001a 0023     		movs	r3, #0
 118 001c 0693     		str	r3, [sp, #24]
 119 001e 0023     		movs	r3, #0
 120 0020 0793     		str	r3, [sp, #28]
 121              		.loc 1 26 0
 122 0022 31E0     		b	.L7
 123              	.L10:
 124              		.loc 1 27 0
 125 0024 089A     		ldr	r2, [sp, #32]
 126 0026 079B     		ldr	r3, [sp, #28]
 127 0028 1344     		add	r3, r3, r2
 128 002a 1B78     		ldrb	r3, [r3]	@ zero_extendqisi2
 129 002c C02B     		cmp	r3, #192
 130 002e 11D1     		bne	.L8
 131              		.loc 1 28 0
 132 0030 089A     		ldr	r2, [sp, #32]
 133 0032 069B     		ldr	r3, [sp, #24]
 134 0034 D118     		adds	r1, r2, r3
 135 0036 079A     		ldr	r2, [sp, #28]
 136 0038 069B     		ldr	r3, [sp, #24]
 137 003a D21A     		subs	r2, r2, r3
 138 003c 029B     		ldr	r3, [sp, #8]
 139 003e 0198     		ldr	r0, [sp, #4]
 140 0040 9847     		blx	r3
 141              	.LVL0:
 142              		.loc 1 29 0
 143 0042 029B     		ldr	r3, [sp, #8]
 144 0044 0222     		movs	r2, #2
 145 0046 2249     		ldr	r1, .L12+4
 146 0048 0198     		ldr	r0, [sp, #4]
 147 004a 9847     		blx	r3
 148              	.LVL1:
 149              		.loc 1 30 0
 150 004c 079B     		ldr	r3, [sp, #28]
 151 004e 0133     		adds	r3, r3, #1
 152 0050 0693     		str	r3, [sp, #24]
 153 0052 16E0     		b	.L9
 154              	.L8:
 155              		.loc 1 31 0
 156 0054 089A     		ldr	r2, [sp, #32]
 157 0056 079B     		ldr	r3, [sp, #28]
 158 0058 1344     		add	r3, r3, r2
 159 005a 1B78     		ldrb	r3, [r3]	@ zero_extendqisi2
 160 005c DB2B     		cmp	r3, #219
 161 005e 10D1     		bne	.L9
 162              		.loc 1 32 0
 163 0060 089A     		ldr	r2, [sp, #32]
 164 0062 069B     		ldr	r3, [sp, #24]
 165 0064 D118     		adds	r1, r2, r3
 166 0066 079A     		ldr	r2, [sp, #28]
 167 0068 069B     		ldr	r3, [sp, #24]
 168 006a D21A     		subs	r2, r2, r3
 169 006c 029B     		ldr	r3, [sp, #8]
 170 006e 0198     		ldr	r0, [sp, #4]
 171 0070 9847     		blx	r3
ARM GAS  C:\Users\PCHAUT~1\AppData\Local\Temp\ccspSFHu.s 			page 4


 172              	.LVL2:
 173              		.loc 1 33 0
 174 0072 029B     		ldr	r3, [sp, #8]
 175 0074 0222     		movs	r2, #2
 176 0076 1749     		ldr	r1, .L12+8
 177 0078 0198     		ldr	r0, [sp, #4]
 178 007a 9847     		blx	r3
 179              	.LVL3:
 180              		.loc 1 34 0
 181 007c 079B     		ldr	r3, [sp, #28]
 182 007e 0133     		adds	r3, r3, #1
 183 0080 0693     		str	r3, [sp, #24]
 184              	.L9:
 185              		.loc 1 36 0
 186 0082 079B     		ldr	r3, [sp, #28]
 187 0084 0133     		adds	r3, r3, #1
 188 0086 0793     		str	r3, [sp, #28]
 189              	.L7:
 190              		.loc 1 26 0
 191 0088 079A     		ldr	r2, [sp, #28]
 192 008a 049B     		ldr	r3, [sp, #16]
 193 008c 9A42     		cmp	r2, r3
 194 008e C9D3     		bcc	.L10
 195              		.loc 1 38 0
 196 0090 089A     		ldr	r2, [sp, #32]
 197 0092 069B     		ldr	r3, [sp, #24]
 198 0094 D118     		adds	r1, r2, r3
 199 0096 079A     		ldr	r2, [sp, #28]
 200 0098 069B     		ldr	r3, [sp, #24]
 201 009a D21A     		subs	r2, r2, r3
 202 009c 029B     		ldr	r3, [sp, #8]
 203 009e 0198     		ldr	r0, [sp, #4]
 204 00a0 9847     		blx	r3
 205              	.LVL4:
 206              		.loc 1 41 0
 207 00a2 039B     		ldr	r3, [sp, #12]
 208 00a4 1B68     		ldr	r3, [r3]
 209 00a6 049A     		ldr	r2, [sp, #16]
 210 00a8 0599     		ldr	r1, [sp, #20]
 211 00aa 1846     		mov	r0, r3
 212 00ac FFF7FEFF 		bl	crc32
 213 00b0 0246     		mov	r2, r0
 214 00b2 039B     		ldr	r3, [sp, #12]
 215 00b4 1A60     		str	r2, [r3]
 216              		.loc 1 42 0
 217 00b6 00BF     		nop
 218 00b8 044B     		ldr	r3, .L12
 219 00ba 099A     		ldr	r2, [sp, #36]
 220 00bc 1B68     		ldr	r3, [r3]
 221 00be 9A42     		cmp	r2, r3
 222 00c0 01D0     		beq	.L11
 223 00c2 FFF7FEFF 		bl	__stack_chk_fail
 224              	.L11:
 225 00c6 0BB0     		add	sp, sp, #44
 226              		.cfi_def_cfa_offset 4
 227              		@ sp needed
 228 00c8 5DF804FB 		ldr	pc, [sp], #4
ARM GAS  C:\Users\PCHAUT~1\AppData\Local\Temp\ccspSFHu.s 			page 5


 229              	.L13:
 230              		.align	2
 231              	.L12:
 232 00cc 00000000 		.word	__stack_chk_guard
 233 00d0 00000000 		.word	esc_end
 234 00d4 00000000 		.word	esc_esc
 235              		.cfi_endproc
 236              	.LFE1:
 237              		.size	serial_datagram_send_chunk, .-serial_datagram_send_chunk
 238              		.section	.text.serial_datagram_send_end,"ax",%progbits
 239              		.align	1
 240              		.p2align 4,,15
 241              		.global	serial_datagram_send_end
 242              		.syntax unified
 243              		.thumb
 244              		.thumb_func
 245              		.fpu fpv4-sp-d16
 246              		.type	serial_datagram_send_end, %function
 247              	serial_datagram_send_end:
 248              	.LFB2:
 249              		.loc 1 46 0
 250              		.cfi_startproc
 251              		@ args = 0, pretend = 0, frame = 40
 252              		@ frame_needed = 0, uses_anonymous_args = 0
 253 0000 00B5     		push	{lr}
 254              		.cfi_def_cfa_offset 4
 255              		.cfi_offset 14, -4
 256 0002 8BB0     		sub	sp, sp, #44
 257              		.cfi_def_cfa_offset 48
 258 0004 0390     		str	r0, [sp, #12]
 259 0006 0291     		str	r1, [sp, #8]
 260 0008 0192     		str	r2, [sp, #4]
 261              		.loc 1 46 0
 262 000a 314B     		ldr	r3, .L21
 263 000c 1B68     		ldr	r3, [r3]
 264 000e 0993     		str	r3, [sp, #36]
 265              		.loc 1 49 0
 266 0010 0023     		movs	r3, #0
 267 0012 0493     		str	r3, [sp, #16]
 268              		.loc 1 51 0
 269 0014 1823     		movs	r3, #24
 270 0016 0593     		str	r3, [sp, #20]
 271 0018 3EE0     		b	.L15
 272              	.L19:
 273              		.loc 1 52 0
 274 001a 039A     		ldr	r2, [sp, #12]
 275 001c 059B     		ldr	r3, [sp, #20]
 276 001e 22FA03F3 		lsr	r3, r2, r3
 277 0022 DBB2     		uxtb	r3, r3
 278 0024 DB2B     		cmp	r3, #219
 279 0026 10D1     		bne	.L16
 280              		.loc 1 53 0
 281 0028 049B     		ldr	r3, [sp, #16]
 282 002a 5A1C     		adds	r2, r3, #1
 283 002c 0492     		str	r2, [sp, #16]
 284 002e DB22     		movs	r2, #219
 285 0030 0AA9     		add	r1, sp, #40
ARM GAS  C:\Users\PCHAUT~1\AppData\Local\Temp\ccspSFHu.s 			page 6


 286 0032 0B44     		add	r3, r3, r1
 287 0034 03F8102C 		strb	r2, [r3, #-16]
 288              		.loc 1 54 0
 289 0038 049B     		ldr	r3, [sp, #16]
 290 003a 5A1C     		adds	r2, r3, #1
 291 003c 0492     		str	r2, [sp, #16]
 292 003e DD22     		movs	r2, #221
 293 0040 0AA9     		add	r1, sp, #40
 294 0042 0B44     		add	r3, r3, r1
 295 0044 03F8102C 		strb	r2, [r3, #-16]
 296 0048 23E0     		b	.L17
 297              	.L16:
 298              		.loc 1 55 0
 299 004a 039A     		ldr	r2, [sp, #12]
 300 004c 059B     		ldr	r3, [sp, #20]
 301 004e 22FA03F3 		lsr	r3, r2, r3
 302 0052 DBB2     		uxtb	r3, r3
 303 0054 C02B     		cmp	r3, #192
 304 0056 10D1     		bne	.L18
 305              		.loc 1 56 0
 306 0058 049B     		ldr	r3, [sp, #16]
 307 005a 5A1C     		adds	r2, r3, #1
 308 005c 0492     		str	r2, [sp, #16]
 309 005e DB22     		movs	r2, #219
 310 0060 0AA9     		add	r1, sp, #40
 311 0062 0B44     		add	r3, r3, r1
 312 0064 03F8102C 		strb	r2, [r3, #-16]
 313              		.loc 1 57 0
 314 0068 049B     		ldr	r3, [sp, #16]
 315 006a 5A1C     		adds	r2, r3, #1
 316 006c 0492     		str	r2, [sp, #16]
 317 006e DC22     		movs	r2, #220
 318 0070 0AA9     		add	r1, sp, #40
 319 0072 0B44     		add	r3, r3, r1
 320 0074 03F8102C 		strb	r2, [r3, #-16]
 321 0078 0BE0     		b	.L17
 322              	.L18:
 323              		.loc 1 59 0
 324 007a 039A     		ldr	r2, [sp, #12]
 325 007c 059B     		ldr	r3, [sp, #20]
 326 007e 22FA03F1 		lsr	r1, r2, r3
 327 0082 049B     		ldr	r3, [sp, #16]
 328 0084 5A1C     		adds	r2, r3, #1
 329 0086 0492     		str	r2, [sp, #16]
 330 0088 CAB2     		uxtb	r2, r1
 331 008a 0AA9     		add	r1, sp, #40
 332 008c 0B44     		add	r3, r3, r1
 333 008e 03F8102C 		strb	r2, [r3, #-16]
 334              	.L17:
 335              		.loc 1 51 0 discriminator 2
 336 0092 059B     		ldr	r3, [sp, #20]
 337 0094 083B     		subs	r3, r3, #8
 338 0096 0593     		str	r3, [sp, #20]
 339              	.L15:
 340              		.loc 1 51 0 is_stmt 0 discriminator 1
 341 0098 059B     		ldr	r3, [sp, #20]
 342 009a 002B     		cmp	r3, #0
ARM GAS  C:\Users\PCHAUT~1\AppData\Local\Temp\ccspSFHu.s 			page 7


 343 009c BDDA     		bge	.L19
 344              		.loc 1 62 0 is_stmt 1
 345 009e 049B     		ldr	r3, [sp, #16]
 346 00a0 5A1C     		adds	r2, r3, #1
 347 00a2 0492     		str	r2, [sp, #16]
 348 00a4 0AAA     		add	r2, sp, #40
 349 00a6 1344     		add	r3, r3, r2
 350 00a8 C022     		movs	r2, #192
 351 00aa 03F8102C 		strb	r2, [r3, #-16]
 352              		.loc 1 63 0
 353 00ae 06A9     		add	r1, sp, #24
 354 00b0 029B     		ldr	r3, [sp, #8]
 355 00b2 049A     		ldr	r2, [sp, #16]
 356 00b4 0198     		ldr	r0, [sp, #4]
 357 00b6 9847     		blx	r3
 358              	.LVL5:
 359              		.loc 1 64 0
 360 00b8 00BF     		nop
 361 00ba 054B     		ldr	r3, .L21
 362 00bc 099A     		ldr	r2, [sp, #36]
 363 00be 1B68     		ldr	r3, [r3]
 364 00c0 9A42     		cmp	r2, r3
 365 00c2 01D0     		beq	.L20
 366 00c4 FFF7FEFF 		bl	__stack_chk_fail
 367              	.L20:
 368 00c8 0BB0     		add	sp, sp, #44
 369              		.cfi_def_cfa_offset 4
 370              		@ sp needed
 371 00ca 5DF804FB 		ldr	pc, [sp], #4
 372              	.L22:
 373 00ce 00BF     		.align	2
 374              	.L21:
 375 00d0 00000000 		.word	__stack_chk_guard
 376              		.cfi_endproc
 377              	.LFE2:
 378              		.size	serial_datagram_send_end, .-serial_datagram_send_end
 379              		.section	.text.serial_datagram_send,"ax",%progbits
 380              		.align	1
 381              		.p2align 4,,15
 382              		.global	serial_datagram_send
 383              		.syntax unified
 384              		.thumb
 385              		.thumb_func
 386              		.fpu fpv4-sp-d16
 387              		.type	serial_datagram_send, %function
 388              	serial_datagram_send:
 389              	.LFB3:
 390              		.loc 1 68 0
 391              		.cfi_startproc
 392              		@ args = 0, pretend = 0, frame = 24
 393              		@ frame_needed = 0, uses_anonymous_args = 0
 394 0000 00B5     		push	{lr}
 395              		.cfi_def_cfa_offset 4
 396              		.cfi_offset 14, -4
 397 0002 89B0     		sub	sp, sp, #36
 398              		.cfi_def_cfa_offset 40
 399 0004 0590     		str	r0, [sp, #20]
ARM GAS  C:\Users\PCHAUT~1\AppData\Local\Temp\ccspSFHu.s 			page 8


 400 0006 0491     		str	r1, [sp, #16]
 401 0008 0392     		str	r2, [sp, #12]
 402 000a 0293     		str	r3, [sp, #8]
 403              		.loc 1 68 0
 404 000c 0E4B     		ldr	r3, .L25
 405 000e 1B68     		ldr	r3, [r3]
 406 0010 0793     		str	r3, [sp, #28]
 407              		.loc 1 69 0
 408 0012 0023     		movs	r3, #0
 409 0014 0693     		str	r3, [sp, #24]
 410              		.loc 1 70 0
 411 0016 06AA     		add	r2, sp, #24
 412 0018 029B     		ldr	r3, [sp, #8]
 413 001a 0093     		str	r3, [sp]
 414 001c 039B     		ldr	r3, [sp, #12]
 415 001e 0499     		ldr	r1, [sp, #16]
 416 0020 0598     		ldr	r0, [sp, #20]
 417 0022 FFF7FEFF 		bl	serial_datagram_send_chunk
 418              		.loc 1 71 0
 419 0026 069B     		ldr	r3, [sp, #24]
 420 0028 029A     		ldr	r2, [sp, #8]
 421 002a 0399     		ldr	r1, [sp, #12]
 422 002c 1846     		mov	r0, r3
 423 002e FFF7FEFF 		bl	serial_datagram_send_end
 424              		.loc 1 72 0
 425 0032 00BF     		nop
 426 0034 044B     		ldr	r3, .L25
 427 0036 079A     		ldr	r2, [sp, #28]
 428 0038 1B68     		ldr	r3, [r3]
 429 003a 9A42     		cmp	r2, r3
 430 003c 01D0     		beq	.L24
 431 003e FFF7FEFF 		bl	__stack_chk_fail
 432              	.L24:
 433 0042 09B0     		add	sp, sp, #36
 434              		.cfi_def_cfa_offset 4
 435              		@ sp needed
 436 0044 5DF804FB 		ldr	pc, [sp], #4
 437              	.L26:
 438              		.align	2
 439              	.L25:
 440 0048 00000000 		.word	__stack_chk_guard
 441              		.cfi_endproc
 442              	.LFE3:
 443              		.size	serial_datagram_send, .-serial_datagram_send
 444              		.section	.text.rcv_handler_reset,"ax",%progbits
 445              		.align	1
 446              		.p2align 4,,15
 447              		.syntax unified
 448              		.thumb
 449              		.thumb_func
 450              		.fpu fpv4-sp-d16
 451              		.type	rcv_handler_reset, %function
 452              	rcv_handler_reset:
 453              	.LFB4:
 454              		.loc 1 75 0
 455              		.cfi_startproc
 456              		@ args = 0, pretend = 0, frame = 16
ARM GAS  C:\Users\PCHAUT~1\AppData\Local\Temp\ccspSFHu.s 			page 9


 457              		@ frame_needed = 0, uses_anonymous_args = 0
 458 0000 00B5     		push	{lr}
 459              		.cfi_def_cfa_offset 4
 460              		.cfi_offset 14, -4
 461 0002 85B0     		sub	sp, sp, #20
 462              		.cfi_def_cfa_offset 24
 463 0004 0190     		str	r0, [sp, #4]
 464              		.loc 1 75 0
 465 0006 0B4B     		ldr	r3, .L29
 466 0008 1B68     		ldr	r3, [r3]
 467 000a 0393     		str	r3, [sp, #12]
 468              		.loc 1 76 0
 469 000c 019B     		ldr	r3, [sp, #4]
 470 000e 0022     		movs	r2, #0
 471 0010 9A60     		str	r2, [r3, #8]
 472              		.loc 1 77 0
 473 0012 019B     		ldr	r3, [sp, #4]
 474 0014 0022     		movs	r2, #0
 475 0016 1A75     		strb	r2, [r3, #20]
 476              		.loc 1 78 0
 477 0018 019B     		ldr	r3, [sp, #4]
 478 001a 0022     		movs	r2, #0
 479 001c 5A75     		strb	r2, [r3, #21]
 480              		.loc 1 79 0
 481 001e 00BF     		nop
 482 0020 044B     		ldr	r3, .L29
 483 0022 039A     		ldr	r2, [sp, #12]
 484 0024 1B68     		ldr	r3, [r3]
 485 0026 9A42     		cmp	r2, r3
 486 0028 01D0     		beq	.L28
 487 002a FFF7FEFF 		bl	__stack_chk_fail
 488              	.L28:
 489 002e 05B0     		add	sp, sp, #20
 490              		.cfi_def_cfa_offset 4
 491              		@ sp needed
 492 0030 5DF804FB 		ldr	pc, [sp], #4
 493              	.L30:
 494              		.align	2
 495              	.L29:
 496 0034 00000000 		.word	__stack_chk_guard
 497              		.cfi_endproc
 498              	.LFE4:
 499              		.size	rcv_handler_reset, .-rcv_handler_reset
 500              		.section	.text.serial_datagram_rcv_handler_init,"ax",%progbits
 501              		.align	1
 502              		.p2align 4,,15
 503              		.global	serial_datagram_rcv_handler_init
 504              		.syntax unified
 505              		.thumb
 506              		.thumb_func
 507              		.fpu fpv4-sp-d16
 508              		.type	serial_datagram_rcv_handler_init, %function
 509              	serial_datagram_rcv_handler_init:
 510              	.LFB5:
 511              		.loc 1 83 0
 512              		.cfi_startproc
 513              		@ args = 4, pretend = 0, frame = 32
ARM GAS  C:\Users\PCHAUT~1\AppData\Local\Temp\ccspSFHu.s 			page 10


 514              		@ frame_needed = 0, uses_anonymous_args = 0
 515 0000 00B5     		push	{lr}
 516              		.cfi_def_cfa_offset 4
 517              		.cfi_offset 14, -4
 518 0002 89B0     		sub	sp, sp, #36
 519              		.cfi_def_cfa_offset 40
 520 0004 0590     		str	r0, [sp, #20]
 521 0006 0491     		str	r1, [sp, #16]
 522 0008 0392     		str	r2, [sp, #12]
 523 000a 0293     		str	r3, [sp, #8]
 524 000c 0A9B     		ldr	r3, [sp, #40]
 525 000e 0193     		str	r3, [sp, #4]
 526              		.loc 1 83 0
 527 0010 0E4B     		ldr	r3, .L33
 528 0012 1B68     		ldr	r3, [r3]
 529 0014 0793     		str	r3, [sp, #28]
 530              		.loc 1 84 0
 531 0016 059B     		ldr	r3, [sp, #20]
 532 0018 049A     		ldr	r2, [sp, #16]
 533 001a 1A60     		str	r2, [r3]
 534              		.loc 1 85 0
 535 001c 059B     		ldr	r3, [sp, #20]
 536 001e 039A     		ldr	r2, [sp, #12]
 537 0020 5A60     		str	r2, [r3, #4]
 538              		.loc 1 86 0
 539 0022 059B     		ldr	r3, [sp, #20]
 540 0024 029A     		ldr	r2, [sp, #8]
 541 0026 DA60     		str	r2, [r3, #12]
 542              		.loc 1 87 0
 543 0028 059B     		ldr	r3, [sp, #20]
 544 002a 019A     		ldr	r2, [sp, #4]
 545 002c 1A61     		str	r2, [r3, #16]
 546              		.loc 1 88 0
 547 002e 0598     		ldr	r0, [sp, #20]
 548 0030 FFF7FEFF 		bl	rcv_handler_reset
 549              		.loc 1 89 0
 550 0034 00BF     		nop
 551 0036 054B     		ldr	r3, .L33
 552 0038 079A     		ldr	r2, [sp, #28]
 553 003a 1B68     		ldr	r3, [r3]
 554 003c 9A42     		cmp	r2, r3
 555 003e 01D0     		beq	.L32
 556 0040 FFF7FEFF 		bl	__stack_chk_fail
 557              	.L32:
 558 0044 09B0     		add	sp, sp, #36
 559              		.cfi_def_cfa_offset 4
 560              		@ sp needed
 561 0046 5DF804FB 		ldr	pc, [sp], #4
 562              	.L34:
 563 004a 00BF     		.align	2
 564              	.L33:
 565 004c 00000000 		.word	__stack_chk_guard
 566              		.cfi_endproc
 567              	.LFE5:
 568              		.size	serial_datagram_rcv_handler_init, .-serial_datagram_rcv_handler_init
 569              		.section	.text.serial_datagram_receive,"ax",%progbits
 570              		.align	1
ARM GAS  C:\Users\PCHAUT~1\AppData\Local\Temp\ccspSFHu.s 			page 11


 571              		.p2align 4,,15
 572              		.global	serial_datagram_receive
 573              		.syntax unified
 574              		.thumb
 575              		.thumb_func
 576              		.fpu fpv4-sp-d16
 577              		.type	serial_datagram_receive, %function
 578              	serial_datagram_receive:
 579              	.LFB6:
 580              		.loc 1 93 0
 581              		.cfi_startproc
 582              		@ args = 0, pretend = 0, frame = 40
 583              		@ frame_needed = 0, uses_anonymous_args = 0
 584 0000 00B5     		push	{lr}
 585              		.cfi_def_cfa_offset 4
 586              		.cfi_offset 14, -4
 587 0002 8BB0     		sub	sp, sp, #44
 588              		.cfi_def_cfa_offset 48
 589 0004 0390     		str	r0, [sp, #12]
 590 0006 0291     		str	r1, [sp, #8]
 591 0008 0192     		str	r2, [sp, #4]
 592              		.loc 1 93 0
 593 000a 604B     		ldr	r3, .L54
 594 000c 1B68     		ldr	r3, [r3]
 595 000e 0993     		str	r3, [sp, #36]
 596              		.loc 1 94 0
 597 0010 029B     		ldr	r3, [sp, #8]
 598 0012 0493     		str	r3, [sp, #16]
 599              		.loc 1 95 0
 600 0014 0023     		movs	r3, #0
 601 0016 0593     		str	r3, [sp, #20]
 602              		.loc 1 96 0
 603 0018 A5E0     		b	.L36
 604              	.L51:
 605              		.loc 1 97 0
 606 001a 039B     		ldr	r3, [sp, #12]
 607 001c 1B7D     		ldrb	r3, [r3, #20]	@ zero_extendqisi2
 608 001e 002B     		cmp	r3, #0
 609 0020 08D0     		beq	.L37
 610              		.loc 1 98 0
 611 0022 049B     		ldr	r3, [sp, #16]
 612 0024 1B78     		ldrb	r3, [r3]	@ zero_extendqisi2
 613 0026 C02B     		cmp	r3, #192
 614 0028 40F09A80 		bne	.L39
 615              		.loc 1 99 0
 616 002c 0398     		ldr	r0, [sp, #12]
 617 002e FFF7FEFF 		bl	rcv_handler_reset
 618 0032 95E0     		b	.L39
 619              	.L37:
 620              		.loc 1 101 0
 621 0034 049B     		ldr	r3, [sp, #16]
 622 0036 1B78     		ldrb	r3, [r3]	@ zero_extendqisi2
 623 0038 C02B     		cmp	r3, #192
 624 003a 47D1     		bne	.L40
 625              	.LBB2:
 626              		.loc 1 102 0
 627 003c 039B     		ldr	r3, [sp, #12]
ARM GAS  C:\Users\PCHAUT~1\AppData\Local\Temp\ccspSFHu.s 			page 12


 628 003e 9B68     		ldr	r3, [r3, #8]
 629 0040 043B     		subs	r3, r3, #4
 630 0042 0693     		str	r3, [sp, #24]
 631              		.loc 1 103 0
 632 0044 069B     		ldr	r3, [sp, #24]
 633 0046 002B     		cmp	r3, #0
 634 0048 3ADB     		blt	.L41
 635              	.LBB3:
 636              		.loc 1 104 0
 637 004a 039B     		ldr	r3, [sp, #12]
 638 004c 1B68     		ldr	r3, [r3]
 639 004e 069A     		ldr	r2, [sp, #24]
 640 0050 1146     		mov	r1, r2
 641 0052 1846     		mov	r0, r3
 642 0054 FFF7FEFF 		bl	compute_crc
 643 0058 0790     		str	r0, [sp, #28]
 644              		.loc 1 106 0
 645 005a 039B     		ldr	r3, [sp, #12]
 646 005c 1A68     		ldr	r2, [r3]
 647 005e 039B     		ldr	r3, [sp, #12]
 648 0060 9B68     		ldr	r3, [r3, #8]
 649 0062 043B     		subs	r3, r3, #4
 650 0064 1344     		add	r3, r3, r2
 651 0066 1B78     		ldrb	r3, [r3]	@ zero_extendqisi2
 652 0068 1A06     		lsls	r2, r3, #24
 653              		.loc 1 107 0
 654 006a 039B     		ldr	r3, [sp, #12]
 655 006c 1968     		ldr	r1, [r3]
 656 006e 039B     		ldr	r3, [sp, #12]
 657 0070 9B68     		ldr	r3, [r3, #8]
 658 0072 033B     		subs	r3, r3, #3
 659 0074 0B44     		add	r3, r3, r1
 660 0076 1B78     		ldrb	r3, [r3]	@ zero_extendqisi2
 661 0078 1B04     		lsls	r3, r3, #16
 662              		.loc 1 106 0
 663 007a 1A43     		orrs	r2, r2, r3
 664              		.loc 1 108 0
 665 007c 039B     		ldr	r3, [sp, #12]
 666 007e 1968     		ldr	r1, [r3]
 667 0080 039B     		ldr	r3, [sp, #12]
 668 0082 9B68     		ldr	r3, [r3, #8]
 669 0084 023B     		subs	r3, r3, #2
 670 0086 0B44     		add	r3, r3, r1
 671 0088 1B78     		ldrb	r3, [r3]	@ zero_extendqisi2
 672 008a 1B02     		lsls	r3, r3, #8
 673              		.loc 1 107 0
 674 008c 1343     		orrs	r3, r3, r2
 675              		.loc 1 109 0
 676 008e 039A     		ldr	r2, [sp, #12]
 677 0090 1168     		ldr	r1, [r2]
 678 0092 039A     		ldr	r2, [sp, #12]
 679 0094 9268     		ldr	r2, [r2, #8]
 680 0096 013A     		subs	r2, r2, #1
 681 0098 0A44     		add	r2, r2, r1
 682 009a 1278     		ldrb	r2, [r2]	@ zero_extendqisi2
 683              		.loc 1 105 0
 684 009c 1343     		orrs	r3, r3, r2
ARM GAS  C:\Users\PCHAUT~1\AppData\Local\Temp\ccspSFHu.s 			page 13


 685 009e 0893     		str	r3, [sp, #32]
 686              		.loc 1 110 0
 687 00a0 079A     		ldr	r2, [sp, #28]
 688 00a2 089B     		ldr	r3, [sp, #32]
 689 00a4 9A42     		cmp	r2, r3
 690 00a6 02D0     		beq	.L42
 691              		.loc 1 111 0
 692 00a8 0223     		movs	r3, #2
 693 00aa 0593     		str	r3, [sp, #20]
 694 00ac 0AE0     		b	.L44
 695              	.L42:
 696              		.loc 1 113 0
 697 00ae 039B     		ldr	r3, [sp, #12]
 698 00b0 DB68     		ldr	r3, [r3, #12]
 699 00b2 039A     		ldr	r2, [sp, #12]
 700 00b4 1068     		ldr	r0, [r2]
 701 00b6 0699     		ldr	r1, [sp, #24]
 702 00b8 039A     		ldr	r2, [sp, #12]
 703 00ba 1269     		ldr	r2, [r2, #16]
 704 00bc 9847     		blx	r3
 705              	.LVL6:
 706 00be 01E0     		b	.L44
 707              	.L41:
 708              	.LBE3:
 709              		.loc 1 116 0
 710 00c0 0323     		movs	r3, #3
 711 00c2 0593     		str	r3, [sp, #20]
 712              	.L44:
 713              		.loc 1 118 0
 714 00c4 0398     		ldr	r0, [sp, #12]
 715 00c6 FFF7FEFF 		bl	rcv_handler_reset
 716              	.LBE2:
 717 00ca 49E0     		b	.L39
 718              	.L40:
 719              		.loc 1 119 0
 720 00cc 039B     		ldr	r3, [sp, #12]
 721 00ce 9A68     		ldr	r2, [r3, #8]
 722 00d0 039B     		ldr	r3, [sp, #12]
 723 00d2 5B68     		ldr	r3, [r3, #4]
 724 00d4 9A42     		cmp	r2, r3
 725 00d6 05D1     		bne	.L45
 726              		.loc 1 120 0
 727 00d8 039B     		ldr	r3, [sp, #12]
 728 00da 0122     		movs	r2, #1
 729 00dc 1A75     		strb	r2, [r3, #20]
 730              		.loc 1 121 0
 731 00de 0123     		movs	r3, #1
 732 00e0 0593     		str	r3, [sp, #20]
 733 00e2 3DE0     		b	.L39
 734              	.L45:
 735              		.loc 1 122 0
 736 00e4 039B     		ldr	r3, [sp, #12]
 737 00e6 5B7D     		ldrb	r3, [r3, #21]	@ zero_extendqisi2
 738 00e8 002B     		cmp	r3, #0
 739 00ea 26D0     		beq	.L46
 740              		.loc 1 123 0
 741 00ec 049B     		ldr	r3, [sp, #16]
ARM GAS  C:\Users\PCHAUT~1\AppData\Local\Temp\ccspSFHu.s 			page 14


 742 00ee 1B78     		ldrb	r3, [r3]	@ zero_extendqisi2
 743 00f0 DD2B     		cmp	r3, #221
 744 00f2 0AD1     		bne	.L47
 745              		.loc 1 124 0
 746 00f4 039B     		ldr	r3, [sp, #12]
 747 00f6 1A68     		ldr	r2, [r3]
 748 00f8 039B     		ldr	r3, [sp, #12]
 749 00fa 9B68     		ldr	r3, [r3, #8]
 750 00fc 581C     		adds	r0, r3, #1
 751 00fe 0399     		ldr	r1, [sp, #12]
 752 0100 8860     		str	r0, [r1, #8]
 753 0102 1344     		add	r3, r3, r2
 754 0104 DB22     		movs	r2, #219
 755 0106 1A70     		strb	r2, [r3]
 756 0108 13E0     		b	.L48
 757              	.L47:
 758              		.loc 1 125 0
 759 010a 049B     		ldr	r3, [sp, #16]
 760 010c 1B78     		ldrb	r3, [r3]	@ zero_extendqisi2
 761 010e DC2B     		cmp	r3, #220
 762 0110 0AD1     		bne	.L49
 763              		.loc 1 126 0
 764 0112 039B     		ldr	r3, [sp, #12]
 765 0114 1A68     		ldr	r2, [r3]
 766 0116 039B     		ldr	r3, [sp, #12]
 767 0118 9B68     		ldr	r3, [r3, #8]
 768 011a 581C     		adds	r0, r3, #1
 769 011c 0399     		ldr	r1, [sp, #12]
 770 011e 8860     		str	r0, [r1, #8]
 771 0120 1344     		add	r3, r3, r2
 772 0122 C022     		movs	r2, #192
 773 0124 1A70     		strb	r2, [r3]
 774 0126 04E0     		b	.L48
 775              	.L49:
 776              		.loc 1 128 0
 777 0128 0323     		movs	r3, #3
 778 012a 0593     		str	r3, [sp, #20]
 779              		.loc 1 129 0
 780 012c 039B     		ldr	r3, [sp, #12]
 781 012e 0122     		movs	r2, #1
 782 0130 1A75     		strb	r2, [r3, #20]
 783              	.L48:
 784              		.loc 1 131 0
 785 0132 039B     		ldr	r3, [sp, #12]
 786 0134 0022     		movs	r2, #0
 787 0136 5A75     		strb	r2, [r3, #21]
 788 0138 12E0     		b	.L39
 789              	.L46:
 790              		.loc 1 132 0
 791 013a 049B     		ldr	r3, [sp, #16]
 792 013c 1B78     		ldrb	r3, [r3]	@ zero_extendqisi2
 793 013e DB2B     		cmp	r3, #219
 794 0140 03D1     		bne	.L50
 795              		.loc 1 133 0
 796 0142 039B     		ldr	r3, [sp, #12]
 797 0144 0122     		movs	r2, #1
 798 0146 5A75     		strb	r2, [r3, #21]
ARM GAS  C:\Users\PCHAUT~1\AppData\Local\Temp\ccspSFHu.s 			page 15


 799 0148 0AE0     		b	.L39
 800              	.L50:
 801              		.loc 1 135 0
 802 014a 039B     		ldr	r3, [sp, #12]
 803 014c 1A68     		ldr	r2, [r3]
 804 014e 039B     		ldr	r3, [sp, #12]
 805 0150 9B68     		ldr	r3, [r3, #8]
 806 0152 581C     		adds	r0, r3, #1
 807 0154 0399     		ldr	r1, [sp, #12]
 808 0156 8860     		str	r0, [r1, #8]
 809 0158 1344     		add	r3, r3, r2
 810 015a 049A     		ldr	r2, [sp, #16]
 811 015c 1278     		ldrb	r2, [r2]	@ zero_extendqisi2
 812 015e 1A70     		strb	r2, [r3]
 813              	.L39:
 814              		.loc 1 137 0
 815 0160 049B     		ldr	r3, [sp, #16]
 816 0162 0133     		adds	r3, r3, #1
 817 0164 0493     		str	r3, [sp, #16]
 818              	.L36:
 819              		.loc 1 96 0
 820 0166 019B     		ldr	r3, [sp, #4]
 821 0168 5A1E     		subs	r2, r3, #1
 822 016a 0192     		str	r2, [sp, #4]
 823 016c 002B     		cmp	r3, #0
 824 016e 7FF454AF 		bne	.L51
 825              		.loc 1 139 0
 826 0172 059B     		ldr	r3, [sp, #20]
 827              		.loc 1 140 0
 828 0174 1846     		mov	r0, r3
 829 0176 054B     		ldr	r3, .L54
 830 0178 099A     		ldr	r2, [sp, #36]
 831 017a 1B68     		ldr	r3, [r3]
 832 017c 9A42     		cmp	r2, r3
 833 017e 01D0     		beq	.L53
 834 0180 FFF7FEFF 		bl	__stack_chk_fail
 835              	.L53:
 836 0184 0BB0     		add	sp, sp, #44
 837              		.cfi_def_cfa_offset 4
 838              		@ sp needed
 839 0186 5DF804FB 		ldr	pc, [sp], #4
 840              	.L55:
 841 018a 00BF     		.align	2
 842              	.L54:
 843 018c 00000000 		.word	__stack_chk_guard
 844              		.cfi_endproc
 845              	.LFE6:
 846              		.size	serial_datagram_receive, .-serial_datagram_receive
 847              		.text
 848              	.Letext0:
 849              		.file 2 "c:\\users\\pchautems\\documents\\robotiquetp\\eclipse_e-puck2\\tools\\gcc-arm-none-eabi-7
 850              		.file 3 "c:\\users\\pchautems\\documents\\robotiquetp\\eclipse_e-puck2\\tools\\gcc-arm-none-eabi-7
 851              		.file 4 "c:\\users\\pchautems\\documents\\robotiquetp\\eclipse_e-puck2\\tools\\gcc-arm-none-eabi-7
 852              		.file 5 "c:\\users\\pchautems\\documents\\robotiquetp\\eclipse_e-puck2\\tools\\gcc-arm-none-eabi-7
 853              		.file 6 "c:\\users\\pchautems\\documents\\robotiquetp\\eclipse_e-puck2\\tools\\gcc-arm-none-eabi-7
 854              		.file 7 "c:\\users\\pchautems\\documents\\robotiquetp\\eclipse_e-puck2\\tools\\gcc-arm-none-eabi-7
 855              		.file 8 "c:\\users\\pchautems\\documents\\robotiquetp\\eclipse_e-puck2\\tools\\gcc-arm-none-eabi-7
ARM GAS  C:\Users\PCHAUT~1\AppData\Local\Temp\ccspSFHu.s 			page 16


 856              		.file 9 "../lib/e-puck2_main-processor/src/serial-datagram/serial_datagram.h"
 857              		.section	.debug_info,"",%progbits
 858              	.Ldebug_info0:
 859 0000 910C0000 		.4byte	0xc91
 860 0004 0400     		.2byte	0x4
 861 0006 00000000 		.4byte	.Ldebug_abbrev0
 862 000a 04       		.byte	0x4
 863 000b 01       		.uleb128 0x1
 864 000c 39010000 		.4byte	.LASF158
 865 0010 0C       		.byte	0xc
 866 0011 C1070000 		.4byte	.LASF159
 867 0015 8E050000 		.4byte	.LASF160
 868 0019 00000000 		.4byte	.Ldebug_ranges0+0
 869 001d 00000000 		.4byte	0
 870 0021 00000000 		.4byte	.Ldebug_line0
 871 0025 02       		.uleb128 0x2
 872 0026 01       		.byte	0x1
 873 0027 06       		.byte	0x6
 874 0028 EB000000 		.4byte	.LASF0
 875 002c 03       		.uleb128 0x3
 876 002d 44000000 		.4byte	.LASF4
 877 0031 02       		.byte	0x2
 878 0032 2B       		.byte	0x2b
 879 0033 37000000 		.4byte	0x37
 880 0037 02       		.uleb128 0x2
 881 0038 01       		.byte	0x1
 882 0039 08       		.byte	0x8
 883 003a F8040000 		.4byte	.LASF1
 884 003e 02       		.uleb128 0x2
 885 003f 02       		.byte	0x2
 886 0040 05       		.byte	0x5
 887 0041 14050000 		.4byte	.LASF2
 888 0045 02       		.uleb128 0x2
 889 0046 02       		.byte	0x2
 890 0047 07       		.byte	0x7
 891 0048 C3030000 		.4byte	.LASF3
 892 004c 03       		.uleb128 0x3
 893 004d 8A060000 		.4byte	.LASF5
 894 0051 02       		.byte	0x2
 895 0052 4D       		.byte	0x4d
 896 0053 57000000 		.4byte	0x57
 897 0057 02       		.uleb128 0x2
 898 0058 04       		.byte	0x4
 899 0059 05       		.byte	0x5
 900 005a 30010000 		.4byte	.LASF6
 901 005e 03       		.uleb128 0x3
 902 005f F9020000 		.4byte	.LASF7
 903 0063 02       		.byte	0x2
 904 0064 4F       		.byte	0x4f
 905 0065 69000000 		.4byte	0x69
 906 0069 02       		.uleb128 0x2
 907 006a 04       		.byte	0x4
 908 006b 07       		.byte	0x7
 909 006c 92030000 		.4byte	.LASF8
 910 0070 02       		.uleb128 0x2
 911 0071 08       		.byte	0x8
 912 0072 05       		.byte	0x5
ARM GAS  C:\Users\PCHAUT~1\AppData\Local\Temp\ccspSFHu.s 			page 17


 913 0073 DD000000 		.4byte	.LASF9
 914 0077 02       		.uleb128 0x2
 915 0078 08       		.byte	0x8
 916 0079 07       		.byte	0x7
 917 007a 74000000 		.4byte	.LASF10
 918 007e 04       		.uleb128 0x4
 919 007f 04       		.byte	0x4
 920 0080 05       		.byte	0x5
 921 0081 696E7400 		.ascii	"int\000"
 922 0085 02       		.uleb128 0x2
 923 0086 04       		.byte	0x4
 924 0087 07       		.byte	0x7
 925 0088 53030000 		.4byte	.LASF11
 926 008c 03       		.uleb128 0x3
 927 008d 44070000 		.4byte	.LASF12
 928 0091 03       		.byte	0x3
 929 0092 18       		.byte	0x18
 930 0093 2C000000 		.4byte	0x2c
 931 0097 05       		.uleb128 0x5
 932 0098 8C000000 		.4byte	0x8c
 933 009c 03       		.uleb128 0x3
 934 009d F0040000 		.4byte	.LASF13
 935 00a1 03       		.byte	0x3
 936 00a2 2C       		.byte	0x2c
 937 00a3 4C000000 		.4byte	0x4c
 938 00a7 03       		.uleb128 0x3
 939 00a8 18060000 		.4byte	.LASF14
 940 00ac 03       		.byte	0x3
 941 00ad 30       		.byte	0x30
 942 00ae 5E000000 		.4byte	0x5e
 943 00b2 03       		.uleb128 0x3
 944 00b3 12000000 		.4byte	.LASF15
 945 00b7 04       		.byte	0x4
 946 00b8 D8       		.byte	0xd8
 947 00b9 85000000 		.4byte	0x85
 948 00bd 02       		.uleb128 0x2
 949 00be 08       		.byte	0x8
 950 00bf 04       		.byte	0x4
 951 00c0 5A040000 		.4byte	.LASF16
 952 00c4 03       		.uleb128 0x3
 953 00c5 1B040000 		.4byte	.LASF17
 954 00c9 05       		.byte	0x5
 955 00ca 22       		.byte	0x22
 956 00cb CF000000 		.4byte	0xcf
 957 00cf 06       		.uleb128 0x6
 958 00d0 04       		.byte	0x4
 959 00d1 D5000000 		.4byte	0xd5
 960 00d5 07       		.uleb128 0x7
 961 00d6 11060000 		.4byte	.LASF124
 962 00da 03       		.uleb128 0x3
 963 00db 93040000 		.4byte	.LASF18
 964 00df 06       		.byte	0x6
 965 00e0 2C       		.byte	0x2c
 966 00e1 57000000 		.4byte	0x57
 967 00e5 03       		.uleb128 0x3
 968 00e6 33060000 		.4byte	.LASF19
 969 00ea 06       		.byte	0x6
ARM GAS  C:\Users\PCHAUT~1\AppData\Local\Temp\ccspSFHu.s 			page 18


 970 00eb 72       		.byte	0x72
 971 00ec 57000000 		.4byte	0x57
 972 00f0 08       		.uleb128 0x8
 973 00f1 23040000 		.4byte	.LASF20
 974 00f5 04       		.byte	0x4
 975 00f6 6501     		.2byte	0x165
 976 00f8 85000000 		.4byte	0x85
 977 00fc 09       		.uleb128 0x9
 978 00fd 04       		.byte	0x4
 979 00fe 06       		.byte	0x6
 980 00ff A6       		.byte	0xa6
 981 0100 1B010000 		.4byte	0x11b
 982 0104 0A       		.uleb128 0xa
 983 0105 0C040000 		.4byte	.LASF21
 984 0109 06       		.byte	0x6
 985 010a A8       		.byte	0xa8
 986 010b F0000000 		.4byte	0xf0
 987 010f 0A       		.uleb128 0xa
 988 0110 60030000 		.4byte	.LASF22
 989 0114 06       		.byte	0x6
 990 0115 A9       		.byte	0xa9
 991 0116 1B010000 		.4byte	0x11b
 992 011a 00       		.byte	0
 993 011b 0B       		.uleb128 0xb
 994 011c 37000000 		.4byte	0x37
 995 0120 2B010000 		.4byte	0x12b
 996 0124 0C       		.uleb128 0xc
 997 0125 85000000 		.4byte	0x85
 998 0129 03       		.byte	0x3
 999 012a 00       		.byte	0
 1000 012b 0D       		.uleb128 0xd
 1001 012c 08       		.byte	0x8
 1002 012d 06       		.byte	0x6
 1003 012e A3       		.byte	0xa3
 1004 012f 4C010000 		.4byte	0x14c
 1005 0133 0E       		.uleb128 0xe
 1006 0134 09060000 		.4byte	.LASF23
 1007 0138 06       		.byte	0x6
 1008 0139 A5       		.byte	0xa5
 1009 013a 7E000000 		.4byte	0x7e
 1010 013e 00       		.byte	0
 1011 013f 0E       		.uleb128 0xe
 1012 0140 AD060000 		.4byte	.LASF24
 1013 0144 06       		.byte	0x6
 1014 0145 AA       		.byte	0xaa
 1015 0146 FC000000 		.4byte	0xfc
 1016 014a 04       		.byte	0x4
 1017 014b 00       		.byte	0
 1018 014c 03       		.uleb128 0x3
 1019 014d 3C050000 		.4byte	.LASF25
 1020 0151 06       		.byte	0x6
 1021 0152 AB       		.byte	0xab
 1022 0153 2B010000 		.4byte	0x12b
 1023 0157 03       		.uleb128 0x3
 1024 0158 0A030000 		.4byte	.LASF26
 1025 015c 06       		.byte	0x6
 1026 015d AF       		.byte	0xaf
ARM GAS  C:\Users\PCHAUT~1\AppData\Local\Temp\ccspSFHu.s 			page 19


 1027 015e C4000000 		.4byte	0xc4
 1028 0162 0F       		.uleb128 0xf
 1029 0163 04       		.byte	0x4
 1030 0164 06       		.uleb128 0x6
 1031 0165 04       		.byte	0x4
 1032 0166 6A010000 		.4byte	0x16a
 1033 016a 02       		.uleb128 0x2
 1034 016b 01       		.byte	0x1
 1035 016c 08       		.byte	0x8
 1036 016d 42060000 		.4byte	.LASF27
 1037 0171 05       		.uleb128 0x5
 1038 0172 6A010000 		.4byte	0x16a
 1039 0176 03       		.uleb128 0x3
 1040 0177 C3060000 		.4byte	.LASF28
 1041 017b 07       		.byte	0x7
 1042 017c 16       		.byte	0x16
 1043 017d 69000000 		.4byte	0x69
 1044 0181 10       		.uleb128 0x10
 1045 0182 1B030000 		.4byte	.LASF33
 1046 0186 18       		.byte	0x18
 1047 0187 07       		.byte	0x7
 1048 0188 2F       		.byte	0x2f
 1049 0189 D4010000 		.4byte	0x1d4
 1050 018d 0E       		.uleb128 0xe
 1051 018e 9A060000 		.4byte	.LASF29
 1052 0192 07       		.byte	0x7
 1053 0193 31       		.byte	0x31
 1054 0194 D4010000 		.4byte	0x1d4
 1055 0198 00       		.byte	0
 1056 0199 11       		.uleb128 0x11
 1057 019a 5F6B00   		.ascii	"_k\000"
 1058 019d 07       		.byte	0x7
 1059 019e 32       		.byte	0x32
 1060 019f 7E000000 		.4byte	0x7e
 1061 01a3 04       		.byte	0x4
 1062 01a4 0E       		.uleb128 0xe
 1063 01a5 F4050000 		.4byte	.LASF30
 1064 01a9 07       		.byte	0x7
 1065 01aa 32       		.byte	0x32
 1066 01ab 7E000000 		.4byte	0x7e
 1067 01af 08       		.byte	0x8
 1068 01b0 0E       		.uleb128 0xe
 1069 01b1 04030000 		.4byte	.LASF31
 1070 01b5 07       		.byte	0x7
 1071 01b6 32       		.byte	0x32
 1072 01b7 7E000000 		.4byte	0x7e
 1073 01bb 0C       		.byte	0xc
 1074 01bc 0E       		.uleb128 0xe
 1075 01bd 27070000 		.4byte	.LASF32
 1076 01c1 07       		.byte	0x7
 1077 01c2 32       		.byte	0x32
 1078 01c3 7E000000 		.4byte	0x7e
 1079 01c7 10       		.byte	0x10
 1080 01c8 11       		.uleb128 0x11
 1081 01c9 5F7800   		.ascii	"_x\000"
 1082 01cc 07       		.byte	0x7
 1083 01cd 33       		.byte	0x33
ARM GAS  C:\Users\PCHAUT~1\AppData\Local\Temp\ccspSFHu.s 			page 20


 1084 01ce DA010000 		.4byte	0x1da
 1085 01d2 14       		.byte	0x14
 1086 01d3 00       		.byte	0
 1087 01d4 06       		.uleb128 0x6
 1088 01d5 04       		.byte	0x4
 1089 01d6 81010000 		.4byte	0x181
 1090 01da 0B       		.uleb128 0xb
 1091 01db 76010000 		.4byte	0x176
 1092 01df EA010000 		.4byte	0x1ea
 1093 01e3 0C       		.uleb128 0xc
 1094 01e4 85000000 		.4byte	0x85
 1095 01e8 00       		.byte	0
 1096 01e9 00       		.byte	0
 1097 01ea 10       		.uleb128 0x10
 1098 01eb 42030000 		.4byte	.LASF34
 1099 01ef 24       		.byte	0x24
 1100 01f0 07       		.byte	0x7
 1101 01f1 37       		.byte	0x37
 1102 01f2 63020000 		.4byte	0x263
 1103 01f6 0E       		.uleb128 0xe
 1104 01f7 BF000000 		.4byte	.LASF35
 1105 01fb 07       		.byte	0x7
 1106 01fc 39       		.byte	0x39
 1107 01fd 7E000000 		.4byte	0x7e
 1108 0201 00       		.byte	0
 1109 0202 0E       		.uleb128 0xe
 1110 0203 47060000 		.4byte	.LASF36
 1111 0207 07       		.byte	0x7
 1112 0208 3A       		.byte	0x3a
 1113 0209 7E000000 		.4byte	0x7e
 1114 020d 04       		.byte	0x4
 1115 020e 0E       		.uleb128 0xe
 1116 020f 03010000 		.4byte	.LASF37
 1117 0213 07       		.byte	0x7
 1118 0214 3B       		.byte	0x3b
 1119 0215 7E000000 		.4byte	0x7e
 1120 0219 08       		.byte	0x8
 1121 021a 0E       		.uleb128 0xe
 1122 021b 05080000 		.4byte	.LASF38
 1123 021f 07       		.byte	0x7
 1124 0220 3C       		.byte	0x3c
 1125 0221 7E000000 		.4byte	0x7e
 1126 0225 0C       		.byte	0xc
 1127 0226 0E       		.uleb128 0xe
 1128 0227 6D040000 		.4byte	.LASF39
 1129 022b 07       		.byte	0x7
 1130 022c 3D       		.byte	0x3d
 1131 022d 7E000000 		.4byte	0x7e
 1132 0231 10       		.byte	0x10
 1133 0232 0E       		.uleb128 0xe
 1134 0233 47040000 		.4byte	.LASF40
 1135 0237 07       		.byte	0x7
 1136 0238 3E       		.byte	0x3e
 1137 0239 7E000000 		.4byte	0x7e
 1138 023d 14       		.byte	0x14
 1139 023e 0E       		.uleb128 0xe
 1140 023f 2C070000 		.4byte	.LASF41
ARM GAS  C:\Users\PCHAUT~1\AppData\Local\Temp\ccspSFHu.s 			page 21


 1141 0243 07       		.byte	0x7
 1142 0244 3F       		.byte	0x3f
 1143 0245 7E000000 		.4byte	0x7e
 1144 0249 18       		.byte	0x18
 1145 024a 0E       		.uleb128 0xe
 1146 024b 1E050000 		.4byte	.LASF42
 1147 024f 07       		.byte	0x7
 1148 0250 40       		.byte	0x40
 1149 0251 7E000000 		.4byte	0x7e
 1150 0255 1C       		.byte	0x1c
 1151 0256 0E       		.uleb128 0xe
 1152 0257 76070000 		.4byte	.LASF43
 1153 025b 07       		.byte	0x7
 1154 025c 41       		.byte	0x41
 1155 025d 7E000000 		.4byte	0x7e
 1156 0261 20       		.byte	0x20
 1157 0262 00       		.byte	0
 1158 0263 12       		.uleb128 0x12
 1159 0264 12010000 		.4byte	.LASF44
 1160 0268 0801     		.2byte	0x108
 1161 026a 07       		.byte	0x7
 1162 026b 4A       		.byte	0x4a
 1163 026c A3020000 		.4byte	0x2a3
 1164 0270 0E       		.uleb128 0xe
 1165 0271 CB020000 		.4byte	.LASF45
 1166 0275 07       		.byte	0x7
 1167 0276 4B       		.byte	0x4b
 1168 0277 A3020000 		.4byte	0x2a3
 1169 027b 00       		.byte	0
 1170 027c 0E       		.uleb128 0xe
 1171 027d 00000000 		.4byte	.LASF46
 1172 0281 07       		.byte	0x7
 1173 0282 4C       		.byte	0x4c
 1174 0283 A3020000 		.4byte	0x2a3
 1175 0287 80       		.byte	0x80
 1176 0288 13       		.uleb128 0x13
 1177 0289 B5060000 		.4byte	.LASF47
 1178 028d 07       		.byte	0x7
 1179 028e 4E       		.byte	0x4e
 1180 028f 76010000 		.4byte	0x176
 1181 0293 0001     		.2byte	0x100
 1182 0295 13       		.uleb128 0x13
 1183 0296 84020000 		.4byte	.LASF48
 1184 029a 07       		.byte	0x7
 1185 029b 51       		.byte	0x51
 1186 029c 76010000 		.4byte	0x176
 1187 02a0 0401     		.2byte	0x104
 1188 02a2 00       		.byte	0
 1189 02a3 0B       		.uleb128 0xb
 1190 02a4 62010000 		.4byte	0x162
 1191 02a8 B3020000 		.4byte	0x2b3
 1192 02ac 0C       		.uleb128 0xc
 1193 02ad 85000000 		.4byte	0x85
 1194 02b1 1F       		.byte	0x1f
 1195 02b2 00       		.byte	0
 1196 02b3 12       		.uleb128 0x12
 1197 02b4 76040000 		.4byte	.LASF49
ARM GAS  C:\Users\PCHAUT~1\AppData\Local\Temp\ccspSFHu.s 			page 22


 1198 02b8 9001     		.2byte	0x190
 1199 02ba 07       		.byte	0x7
 1200 02bb 5D       		.byte	0x5d
 1201 02bc F1020000 		.4byte	0x2f1
 1202 02c0 0E       		.uleb128 0xe
 1203 02c1 9A060000 		.4byte	.LASF29
 1204 02c5 07       		.byte	0x7
 1205 02c6 5E       		.byte	0x5e
 1206 02c7 F1020000 		.4byte	0x2f1
 1207 02cb 00       		.byte	0
 1208 02cc 0E       		.uleb128 0xe
 1209 02cd 89050000 		.4byte	.LASF50
 1210 02d1 07       		.byte	0x7
 1211 02d2 5F       		.byte	0x5f
 1212 02d3 7E000000 		.4byte	0x7e
 1213 02d7 04       		.byte	0x4
 1214 02d8 0E       		.uleb128 0xe
 1215 02d9 F4020000 		.4byte	.LASF51
 1216 02dd 07       		.byte	0x7
 1217 02de 61       		.byte	0x61
 1218 02df F7020000 		.4byte	0x2f7
 1219 02e3 08       		.byte	0x8
 1220 02e4 0E       		.uleb128 0xe
 1221 02e5 12010000 		.4byte	.LASF44
 1222 02e9 07       		.byte	0x7
 1223 02ea 62       		.byte	0x62
 1224 02eb 63020000 		.4byte	0x263
 1225 02ef 88       		.byte	0x88
 1226 02f0 00       		.byte	0
 1227 02f1 06       		.uleb128 0x6
 1228 02f2 04       		.byte	0x4
 1229 02f3 B3020000 		.4byte	0x2b3
 1230 02f7 0B       		.uleb128 0xb
 1231 02f8 07030000 		.4byte	0x307
 1232 02fc 07030000 		.4byte	0x307
 1233 0300 0C       		.uleb128 0xc
 1234 0301 85000000 		.4byte	0x85
 1235 0305 1F       		.byte	0x1f
 1236 0306 00       		.byte	0
 1237 0307 06       		.uleb128 0x6
 1238 0308 04       		.byte	0x4
 1239 0309 0D030000 		.4byte	0x30d
 1240 030d 14       		.uleb128 0x14
 1241 030e 10       		.uleb128 0x10
 1242 030f 28050000 		.4byte	.LASF52
 1243 0313 08       		.byte	0x8
 1244 0314 07       		.byte	0x7
 1245 0315 75       		.byte	0x75
 1246 0316 33030000 		.4byte	0x333
 1247 031a 0E       		.uleb128 0xe
 1248 031b FD000000 		.4byte	.LASF53
 1249 031f 07       		.byte	0x7
 1250 0320 76       		.byte	0x76
 1251 0321 33030000 		.4byte	0x333
 1252 0325 00       		.byte	0
 1253 0326 0E       		.uleb128 0xe
 1254 0327 0C000000 		.4byte	.LASF54
ARM GAS  C:\Users\PCHAUT~1\AppData\Local\Temp\ccspSFHu.s 			page 23


 1255 032b 07       		.byte	0x7
 1256 032c 77       		.byte	0x77
 1257 032d 7E000000 		.4byte	0x7e
 1258 0331 04       		.byte	0x4
 1259 0332 00       		.byte	0
 1260 0333 06       		.uleb128 0x6
 1261 0334 04       		.byte	0x4
 1262 0335 37000000 		.4byte	0x37
 1263 0339 10       		.uleb128 0x10
 1264 033a 47050000 		.4byte	.LASF55
 1265 033e 68       		.byte	0x68
 1266 033f 07       		.byte	0x7
 1267 0340 B5       		.byte	0xb5
 1268 0341 63040000 		.4byte	0x463
 1269 0345 11       		.uleb128 0x11
 1270 0346 5F7000   		.ascii	"_p\000"
 1271 0349 07       		.byte	0x7
 1272 034a B6       		.byte	0xb6
 1273 034b 33030000 		.4byte	0x333
 1274 034f 00       		.byte	0
 1275 0350 11       		.uleb128 0x11
 1276 0351 5F7200   		.ascii	"_r\000"
 1277 0354 07       		.byte	0x7
 1278 0355 B7       		.byte	0xb7
 1279 0356 7E000000 		.4byte	0x7e
 1280 035a 04       		.byte	0x4
 1281 035b 11       		.uleb128 0x11
 1282 035c 5F7700   		.ascii	"_w\000"
 1283 035f 07       		.byte	0x7
 1284 0360 B8       		.byte	0xb8
 1285 0361 7E000000 		.4byte	0x7e
 1286 0365 08       		.byte	0x8
 1287 0366 0E       		.uleb128 0xe
 1288 0367 7D020000 		.4byte	.LASF56
 1289 036b 07       		.byte	0x7
 1290 036c B9       		.byte	0xb9
 1291 036d 3E000000 		.4byte	0x3e
 1292 0371 0C       		.byte	0xc
 1293 0372 0E       		.uleb128 0xe
 1294 0373 A4030000 		.4byte	.LASF57
 1295 0377 07       		.byte	0x7
 1296 0378 BA       		.byte	0xba
 1297 0379 3E000000 		.4byte	0x3e
 1298 037d 0E       		.byte	0xe
 1299 037e 11       		.uleb128 0x11
 1300 037f 5F626600 		.ascii	"_bf\000"
 1301 0383 07       		.byte	0x7
 1302 0384 BB       		.byte	0xbb
 1303 0385 0E030000 		.4byte	0x30e
 1304 0389 10       		.byte	0x10
 1305 038a 0E       		.uleb128 0xe
 1306 038b 8B000000 		.4byte	.LASF58
 1307 038f 07       		.byte	0x7
 1308 0390 BC       		.byte	0xbc
 1309 0391 7E000000 		.4byte	0x7e
 1310 0395 18       		.byte	0x18
 1311 0396 0E       		.uleb128 0xe
ARM GAS  C:\Users\PCHAUT~1\AppData\Local\Temp\ccspSFHu.s 			page 24


 1312 0397 20010000 		.4byte	.LASF59
 1313 039b 07       		.byte	0x7
 1314 039c C3       		.byte	0xc3
 1315 039d 62010000 		.4byte	0x162
 1316 03a1 1C       		.byte	0x1c
 1317 03a2 0E       		.uleb128 0xe
 1318 03a3 32030000 		.4byte	.LASF60
 1319 03a7 07       		.byte	0x7
 1320 03a8 C5       		.byte	0xc5
 1321 03a9 BE050000 		.4byte	0x5be
 1322 03ad 20       		.byte	0x20
 1323 03ae 0E       		.uleb128 0xe
 1324 03af 40040000 		.4byte	.LASF61
 1325 03b3 07       		.byte	0x7
 1326 03b4 C7       		.byte	0xc7
 1327 03b5 E8050000 		.4byte	0x5e8
 1328 03b9 24       		.byte	0x24
 1329 03ba 0E       		.uleb128 0xe
 1330 03bb 21060000 		.4byte	.LASF62
 1331 03bf 07       		.byte	0x7
 1332 03c0 CA       		.byte	0xca
 1333 03c1 0C060000 		.4byte	0x60c
 1334 03c5 28       		.byte	0x28
 1335 03c6 0E       		.uleb128 0xe
 1336 03c7 A2070000 		.4byte	.LASF63
 1337 03cb 07       		.byte	0x7
 1338 03cc CB       		.byte	0xcb
 1339 03cd 26060000 		.4byte	0x626
 1340 03d1 2C       		.byte	0x2c
 1341 03d2 11       		.uleb128 0x11
 1342 03d3 5F756200 		.ascii	"_ub\000"
 1343 03d7 07       		.byte	0x7
 1344 03d8 CE       		.byte	0xce
 1345 03d9 0E030000 		.4byte	0x30e
 1346 03dd 30       		.byte	0x30
 1347 03de 11       		.uleb128 0x11
 1348 03df 5F757000 		.ascii	"_up\000"
 1349 03e3 07       		.byte	0x7
 1350 03e4 CF       		.byte	0xcf
 1351 03e5 33030000 		.4byte	0x333
 1352 03e9 38       		.byte	0x38
 1353 03ea 11       		.uleb128 0x11
 1354 03eb 5F757200 		.ascii	"_ur\000"
 1355 03ef 07       		.byte	0x7
 1356 03f0 D0       		.byte	0xd0
 1357 03f1 7E000000 		.4byte	0x7e
 1358 03f5 3C       		.byte	0x3c
 1359 03f6 0E       		.uleb128 0xe
 1360 03f7 F7000000 		.4byte	.LASF64
 1361 03fb 07       		.byte	0x7
 1362 03fc D3       		.byte	0xd3
 1363 03fd 2C060000 		.4byte	0x62c
 1364 0401 40       		.byte	0x40
 1365 0402 0E       		.uleb128 0xe
 1366 0403 68070000 		.4byte	.LASF65
 1367 0407 07       		.byte	0x7
 1368 0408 D4       		.byte	0xd4
ARM GAS  C:\Users\PCHAUT~1\AppData\Local\Temp\ccspSFHu.s 			page 25


 1369 0409 3C060000 		.4byte	0x63c
 1370 040d 43       		.byte	0x43
 1371 040e 11       		.uleb128 0x11
 1372 040f 5F6C6200 		.ascii	"_lb\000"
 1373 0413 07       		.byte	0x7
 1374 0414 D7       		.byte	0xd7
 1375 0415 0E030000 		.4byte	0x30e
 1376 0419 44       		.byte	0x44
 1377 041a 0E       		.uleb128 0xe
 1378 041b 93020000 		.4byte	.LASF66
 1379 041f 07       		.byte	0x7
 1380 0420 DA       		.byte	0xda
 1381 0421 7E000000 		.4byte	0x7e
 1382 0425 4C       		.byte	0x4c
 1383 0426 0E       		.uleb128 0xe
 1384 0427 A4020000 		.4byte	.LASF67
 1385 042b 07       		.byte	0x7
 1386 042c DB       		.byte	0xdb
 1387 042d DA000000 		.4byte	0xda
 1388 0431 50       		.byte	0x50
 1389 0432 0E       		.uleb128 0xe
 1390 0433 4E000000 		.4byte	.LASF68
 1391 0437 07       		.byte	0x7
 1392 0438 DE       		.byte	0xde
 1393 0439 81040000 		.4byte	0x481
 1394 043d 54       		.byte	0x54
 1395 043e 0E       		.uleb128 0xe
 1396 043f 2A040000 		.4byte	.LASF69
 1397 0443 07       		.byte	0x7
 1398 0444 E2       		.byte	0xe2
 1399 0445 57010000 		.4byte	0x157
 1400 0449 58       		.byte	0x58
 1401 044a 0E       		.uleb128 0xe
 1402 044b 4F050000 		.4byte	.LASF70
 1403 044f 07       		.byte	0x7
 1404 0450 E4       		.byte	0xe4
 1405 0451 4C010000 		.4byte	0x14c
 1406 0455 5C       		.byte	0x5c
 1407 0456 0E       		.uleb128 0xe
 1408 0457 38040000 		.4byte	.LASF71
 1409 045b 07       		.byte	0x7
 1410 045c E5       		.byte	0xe5
 1411 045d 7E000000 		.4byte	0x7e
 1412 0461 64       		.byte	0x64
 1413 0462 00       		.byte	0
 1414 0463 15       		.uleb128 0x15
 1415 0464 7E000000 		.4byte	0x7e
 1416 0468 81040000 		.4byte	0x481
 1417 046c 16       		.uleb128 0x16
 1418 046d 81040000 		.4byte	0x481
 1419 0471 16       		.uleb128 0x16
 1420 0472 62010000 		.4byte	0x162
 1421 0476 16       		.uleb128 0x16
 1422 0477 64010000 		.4byte	0x164
 1423 047b 16       		.uleb128 0x16
 1424 047c 7E000000 		.4byte	0x7e
 1425 0480 00       		.byte	0
ARM GAS  C:\Users\PCHAUT~1\AppData\Local\Temp\ccspSFHu.s 			page 26


 1426 0481 06       		.uleb128 0x6
 1427 0482 04       		.byte	0x4
 1428 0483 8C040000 		.4byte	0x48c
 1429 0487 05       		.uleb128 0x5
 1430 0488 81040000 		.4byte	0x481
 1431 048c 17       		.uleb128 0x17
 1432 048d FC050000 		.4byte	.LASF72
 1433 0491 2804     		.2byte	0x428
 1434 0493 07       		.byte	0x7
 1435 0494 3902     		.2byte	0x239
 1436 0496 BE050000 		.4byte	0x5be
 1437 049a 18       		.uleb128 0x18
 1438 049b 3B060000 		.4byte	.LASF73
 1439 049f 07       		.byte	0x7
 1440 04a0 3B02     		.2byte	0x23b
 1441 04a2 7E000000 		.4byte	0x7e
 1442 04a6 00       		.byte	0
 1443 04a7 18       		.uleb128 0x18
 1444 04a8 8C020000 		.4byte	.LASF74
 1445 04ac 07       		.byte	0x7
 1446 04ad 4002     		.2byte	0x240
 1447 04af 93060000 		.4byte	0x693
 1448 04b3 04       		.byte	0x4
 1449 04b4 18       		.uleb128 0x18
 1450 04b5 6E030000 		.4byte	.LASF75
 1451 04b9 07       		.byte	0x7
 1452 04ba 4002     		.2byte	0x240
 1453 04bc 93060000 		.4byte	0x693
 1454 04c0 08       		.byte	0x8
 1455 04c1 18       		.uleb128 0x18
 1456 04c2 13030000 		.4byte	.LASF76
 1457 04c6 07       		.byte	0x7
 1458 04c7 4002     		.2byte	0x240
 1459 04c9 93060000 		.4byte	0x693
 1460 04cd 0C       		.byte	0xc
 1461 04ce 18       		.uleb128 0x18
 1462 04cf 84050000 		.4byte	.LASF77
 1463 04d3 07       		.byte	0x7
 1464 04d4 4202     		.2byte	0x242
 1465 04d6 7E000000 		.4byte	0x7e
 1466 04da 10       		.byte	0x10
 1467 04db 18       		.uleb128 0x18
 1468 04dc 2E000000 		.4byte	.LASF78
 1469 04e0 07       		.byte	0x7
 1470 04e1 4302     		.2byte	0x243
 1471 04e3 75080000 		.4byte	0x875
 1472 04e7 14       		.byte	0x14
 1473 04e8 18       		.uleb128 0x18
 1474 04e9 DB050000 		.4byte	.LASF79
 1475 04ed 07       		.byte	0x7
 1476 04ee 4602     		.2byte	0x246
 1477 04f0 7E000000 		.4byte	0x7e
 1478 04f4 30       		.byte	0x30
 1479 04f5 18       		.uleb128 0x18
 1480 04f6 C9050000 		.4byte	.LASF80
 1481 04fa 07       		.byte	0x7
 1482 04fb 4702     		.2byte	0x247
ARM GAS  C:\Users\PCHAUT~1\AppData\Local\Temp\ccspSFHu.s 			page 27


 1483 04fd 8A080000 		.4byte	0x88a
 1484 0501 34       		.byte	0x34
 1485 0502 18       		.uleb128 0x18
 1486 0503 88040000 		.4byte	.LASF81
 1487 0507 07       		.byte	0x7
 1488 0508 4902     		.2byte	0x249
 1489 050a 7E000000 		.4byte	0x7e
 1490 050e 38       		.byte	0x38
 1491 050f 18       		.uleb128 0x18
 1492 0510 D1050000 		.4byte	.LASF82
 1493 0514 07       		.byte	0x7
 1494 0515 4B02     		.2byte	0x24b
 1495 0517 9B080000 		.4byte	0x89b
 1496 051b 3C       		.byte	0x3c
 1497 051c 18       		.uleb128 0x18
 1498 051d 04040000 		.4byte	.LASF83
 1499 0521 07       		.byte	0x7
 1500 0522 4E02     		.2byte	0x24e
 1501 0524 D4010000 		.4byte	0x1d4
 1502 0528 40       		.byte	0x40
 1503 0529 18       		.uleb128 0x18
 1504 052a 38030000 		.4byte	.LASF84
 1505 052e 07       		.byte	0x7
 1506 052f 4F02     		.2byte	0x24f
 1507 0531 7E000000 		.4byte	0x7e
 1508 0535 44       		.byte	0x44
 1509 0536 18       		.uleb128 0x18
 1510 0537 BC070000 		.4byte	.LASF85
 1511 053b 07       		.byte	0x7
 1512 053c 5002     		.2byte	0x250
 1513 053e D4010000 		.4byte	0x1d4
 1514 0542 48       		.byte	0x48
 1515 0543 18       		.uleb128 0x18
 1516 0544 BA040000 		.4byte	.LASF86
 1517 0548 07       		.byte	0x7
 1518 0549 5102     		.2byte	0x251
 1519 054b A1080000 		.4byte	0x8a1
 1520 054f 4C       		.byte	0x4c
 1521 0550 18       		.uleb128 0x18
 1522 0551 76030000 		.4byte	.LASF87
 1523 0555 07       		.byte	0x7
 1524 0556 5402     		.2byte	0x254
 1525 0558 7E000000 		.4byte	0x7e
 1526 055c 50       		.byte	0x50
 1527 055d 18       		.uleb128 0x18
 1528 055e 9C020000 		.4byte	.LASF88
 1529 0562 07       		.byte	0x7
 1530 0563 5502     		.2byte	0x255
 1531 0565 64010000 		.4byte	0x164
 1532 0569 54       		.byte	0x54
 1533 056a 18       		.uleb128 0x18
 1534 056b 06050000 		.4byte	.LASF89
 1535 056f 07       		.byte	0x7
 1536 0570 7802     		.2byte	0x278
 1537 0572 53080000 		.4byte	0x853
 1538 0576 58       		.byte	0x58
 1539 0577 19       		.uleb128 0x19
ARM GAS  C:\Users\PCHAUT~1\AppData\Local\Temp\ccspSFHu.s 			page 28


 1540 0578 76040000 		.4byte	.LASF49
 1541 057c 07       		.byte	0x7
 1542 057d 7C02     		.2byte	0x27c
 1543 057f F1020000 		.4byte	0x2f1
 1544 0583 4801     		.2byte	0x148
 1545 0585 19       		.uleb128 0x19
 1546 0586 E2030000 		.4byte	.LASF90
 1547 058a 07       		.byte	0x7
 1548 058b 7D02     		.2byte	0x27d
 1549 058d B3020000 		.4byte	0x2b3
 1550 0591 4C01     		.2byte	0x14c
 1551 0593 19       		.uleb128 0x19
 1552 0594 5E070000 		.4byte	.LASF91
 1553 0598 07       		.byte	0x7
 1554 0599 8102     		.2byte	0x281
 1555 059b B2080000 		.4byte	0x8b2
 1556 059f DC02     		.2byte	0x2dc
 1557 05a1 19       		.uleb128 0x19
 1558 05a2 28010000 		.4byte	.LASF92
 1559 05a6 07       		.byte	0x7
 1560 05a7 8602     		.2byte	0x286
 1561 05a9 58060000 		.4byte	0x658
 1562 05ad E002     		.2byte	0x2e0
 1563 05af 19       		.uleb128 0x19
 1564 05b0 0D010000 		.4byte	.LASF93
 1565 05b4 07       		.byte	0x7
 1566 05b5 8802     		.2byte	0x288
 1567 05b7 BE080000 		.4byte	0x8be
 1568 05bb EC02     		.2byte	0x2ec
 1569 05bd 00       		.byte	0
 1570 05be 06       		.uleb128 0x6
 1571 05bf 04       		.byte	0x4
 1572 05c0 63040000 		.4byte	0x463
 1573 05c4 15       		.uleb128 0x15
 1574 05c5 7E000000 		.4byte	0x7e
 1575 05c9 E2050000 		.4byte	0x5e2
 1576 05cd 16       		.uleb128 0x16
 1577 05ce 81040000 		.4byte	0x481
 1578 05d2 16       		.uleb128 0x16
 1579 05d3 62010000 		.4byte	0x162
 1580 05d7 16       		.uleb128 0x16
 1581 05d8 E2050000 		.4byte	0x5e2
 1582 05dc 16       		.uleb128 0x16
 1583 05dd 7E000000 		.4byte	0x7e
 1584 05e1 00       		.byte	0
 1585 05e2 06       		.uleb128 0x6
 1586 05e3 04       		.byte	0x4
 1587 05e4 71010000 		.4byte	0x171
 1588 05e8 06       		.uleb128 0x6
 1589 05e9 04       		.byte	0x4
 1590 05ea C4050000 		.4byte	0x5c4
 1591 05ee 15       		.uleb128 0x15
 1592 05ef E5000000 		.4byte	0xe5
 1593 05f3 0C060000 		.4byte	0x60c
 1594 05f7 16       		.uleb128 0x16
 1595 05f8 81040000 		.4byte	0x481
 1596 05fc 16       		.uleb128 0x16
ARM GAS  C:\Users\PCHAUT~1\AppData\Local\Temp\ccspSFHu.s 			page 29


 1597 05fd 62010000 		.4byte	0x162
 1598 0601 16       		.uleb128 0x16
 1599 0602 E5000000 		.4byte	0xe5
 1600 0606 16       		.uleb128 0x16
 1601 0607 7E000000 		.4byte	0x7e
 1602 060b 00       		.byte	0
 1603 060c 06       		.uleb128 0x6
 1604 060d 04       		.byte	0x4
 1605 060e EE050000 		.4byte	0x5ee
 1606 0612 15       		.uleb128 0x15
 1607 0613 7E000000 		.4byte	0x7e
 1608 0617 26060000 		.4byte	0x626
 1609 061b 16       		.uleb128 0x16
 1610 061c 81040000 		.4byte	0x481
 1611 0620 16       		.uleb128 0x16
 1612 0621 62010000 		.4byte	0x162
 1613 0625 00       		.byte	0
 1614 0626 06       		.uleb128 0x6
 1615 0627 04       		.byte	0x4
 1616 0628 12060000 		.4byte	0x612
 1617 062c 0B       		.uleb128 0xb
 1618 062d 37000000 		.4byte	0x37
 1619 0631 3C060000 		.4byte	0x63c
 1620 0635 0C       		.uleb128 0xc
 1621 0636 85000000 		.4byte	0x85
 1622 063a 02       		.byte	0x2
 1623 063b 00       		.byte	0
 1624 063c 0B       		.uleb128 0xb
 1625 063d 37000000 		.4byte	0x37
 1626 0641 4C060000 		.4byte	0x64c
 1627 0645 0C       		.uleb128 0xc
 1628 0646 85000000 		.4byte	0x85
 1629 064a 00       		.byte	0
 1630 064b 00       		.byte	0
 1631 064c 08       		.uleb128 0x8
 1632 064d 35050000 		.4byte	.LASF94
 1633 0651 07       		.byte	0x7
 1634 0652 1F01     		.2byte	0x11f
 1635 0654 39030000 		.4byte	0x339
 1636 0658 1A       		.uleb128 0x1a
 1637 0659 36070000 		.4byte	.LASF95
 1638 065d 0C       		.byte	0xc
 1639 065e 07       		.byte	0x7
 1640 065f 2301     		.2byte	0x123
 1641 0661 8D060000 		.4byte	0x68d
 1642 0665 18       		.uleb128 0x18
 1643 0666 9A060000 		.4byte	.LASF29
 1644 066a 07       		.byte	0x7
 1645 066b 2501     		.2byte	0x125
 1646 066d 8D060000 		.4byte	0x68d
 1647 0671 00       		.byte	0
 1648 0672 18       		.uleb128 0x18
 1649 0673 B7030000 		.4byte	.LASF96
 1650 0677 07       		.byte	0x7
 1651 0678 2601     		.2byte	0x126
 1652 067a 7E000000 		.4byte	0x7e
 1653 067e 04       		.byte	0x4
ARM GAS  C:\Users\PCHAUT~1\AppData\Local\Temp\ccspSFHu.s 			page 30


 1654 067f 18       		.uleb128 0x18
 1655 0680 2F050000 		.4byte	.LASF97
 1656 0684 07       		.byte	0x7
 1657 0685 2701     		.2byte	0x127
 1658 0687 93060000 		.4byte	0x693
 1659 068b 08       		.byte	0x8
 1660 068c 00       		.byte	0
 1661 068d 06       		.uleb128 0x6
 1662 068e 04       		.byte	0x4
 1663 068f 58060000 		.4byte	0x658
 1664 0693 06       		.uleb128 0x6
 1665 0694 04       		.byte	0x4
 1666 0695 4C060000 		.4byte	0x64c
 1667 0699 1A       		.uleb128 0x1a
 1668 069a 19000000 		.4byte	.LASF98
 1669 069e 0E       		.byte	0xe
 1670 069f 07       		.byte	0x7
 1671 06a0 3F01     		.2byte	0x13f
 1672 06a2 CE060000 		.4byte	0x6ce
 1673 06a6 18       		.uleb128 0x18
 1674 06a7 03060000 		.4byte	.LASF99
 1675 06ab 07       		.byte	0x7
 1676 06ac 4001     		.2byte	0x140
 1677 06ae CE060000 		.4byte	0x6ce
 1678 06b2 00       		.byte	0
 1679 06b3 18       		.uleb128 0x18
 1680 06b4 94060000 		.4byte	.LASF100
 1681 06b8 07       		.byte	0x7
 1682 06b9 4101     		.2byte	0x141
 1683 06bb CE060000 		.4byte	0x6ce
 1684 06bf 06       		.byte	0x6
 1685 06c0 18       		.uleb128 0x18
 1686 06c1 BE060000 		.4byte	.LASF101
 1687 06c5 07       		.byte	0x7
 1688 06c6 4201     		.2byte	0x142
 1689 06c8 45000000 		.4byte	0x45
 1690 06cc 0C       		.byte	0xc
 1691 06cd 00       		.byte	0
 1692 06ce 0B       		.uleb128 0xb
 1693 06cf 45000000 		.4byte	0x45
 1694 06d3 DE060000 		.4byte	0x6de
 1695 06d7 0C       		.uleb128 0xc
 1696 06d8 85000000 		.4byte	0x85
 1697 06dc 02       		.byte	0x2
 1698 06dd 00       		.byte	0
 1699 06de 1B       		.uleb128 0x1b
 1700 06df D0       		.byte	0xd0
 1701 06e0 07       		.byte	0x7
 1702 06e1 5902     		.2byte	0x259
 1703 06e3 DF070000 		.4byte	0x7df
 1704 06e7 18       		.uleb128 0x18
 1705 06e8 F6060000 		.4byte	.LASF102
 1706 06ec 07       		.byte	0x7
 1707 06ed 5B02     		.2byte	0x25b
 1708 06ef 85000000 		.4byte	0x85
 1709 06f3 00       		.byte	0
 1710 06f4 18       		.uleb128 0x18
ARM GAS  C:\Users\PCHAUT~1\AppData\Local\Temp\ccspSFHu.s 			page 31


 1711 06f5 A0060000 		.4byte	.LASF103
 1712 06f9 07       		.byte	0x7
 1713 06fa 5C02     		.2byte	0x25c
 1714 06fc 64010000 		.4byte	0x164
 1715 0700 04       		.byte	0x4
 1716 0701 18       		.uleb128 0x18
 1717 0702 F7030000 		.4byte	.LASF104
 1718 0706 07       		.byte	0x7
 1719 0707 5D02     		.2byte	0x25d
 1720 0709 DF070000 		.4byte	0x7df
 1721 070d 08       		.byte	0x8
 1722 070e 18       		.uleb128 0x18
 1723 070f 81070000 		.4byte	.LASF105
 1724 0713 07       		.byte	0x7
 1725 0714 5E02     		.2byte	0x25e
 1726 0716 EA010000 		.4byte	0x1ea
 1727 071a 24       		.byte	0x24
 1728 071b 18       		.uleb128 0x18
 1729 071c 23030000 		.4byte	.LASF106
 1730 0720 07       		.byte	0x7
 1731 0721 5F02     		.2byte	0x25f
 1732 0723 7E000000 		.4byte	0x7e
 1733 0727 48       		.byte	0x48
 1734 0728 18       		.uleb128 0x18
 1735 0729 58050000 		.4byte	.LASF107
 1736 072d 07       		.byte	0x7
 1737 072e 6002     		.2byte	0x260
 1738 0730 77000000 		.4byte	0x77
 1739 0734 50       		.byte	0x50
 1740 0735 18       		.uleb128 0x18
 1741 0736 A9070000 		.4byte	.LASF108
 1742 073a 07       		.byte	0x7
 1743 073b 6102     		.2byte	0x261
 1744 073d 99060000 		.4byte	0x699
 1745 0741 58       		.byte	0x58
 1746 0742 18       		.uleb128 0x18
 1747 0743 77050000 		.4byte	.LASF109
 1748 0747 07       		.byte	0x7
 1749 0748 6202     		.2byte	0x262
 1750 074a 4C010000 		.4byte	0x14c
 1751 074e 68       		.byte	0x68
 1752 074f 18       		.uleb128 0x18
 1753 0750 AE070000 		.4byte	.LASF110
 1754 0754 07       		.byte	0x7
 1755 0755 6302     		.2byte	0x263
 1756 0757 4C010000 		.4byte	0x14c
 1757 075b 70       		.byte	0x70
 1758 075c 18       		.uleb128 0x18
 1759 075d C4040000 		.4byte	.LASF111
 1760 0761 07       		.byte	0x7
 1761 0762 6402     		.2byte	0x264
 1762 0764 4C010000 		.4byte	0x14c
 1763 0768 78       		.byte	0x78
 1764 0769 18       		.uleb128 0x18
 1765 076a 4C070000 		.4byte	.LASF112
 1766 076e 07       		.byte	0x7
 1767 076f 6502     		.2byte	0x265
ARM GAS  C:\Users\PCHAUT~1\AppData\Local\Temp\ccspSFHu.s 			page 32


 1768 0771 EF070000 		.4byte	0x7ef
 1769 0775 80       		.byte	0x80
 1770 0776 18       		.uleb128 0x18
 1771 0777 EB030000 		.4byte	.LASF113
 1772 077b 07       		.byte	0x7
 1773 077c 6602     		.2byte	0x266
 1774 077e FF070000 		.4byte	0x7ff
 1775 0782 88       		.byte	0x88
 1776 0783 18       		.uleb128 0x18
 1777 0784 CB060000 		.4byte	.LASF114
 1778 0788 07       		.byte	0x7
 1779 0789 6702     		.2byte	0x267
 1780 078b 7E000000 		.4byte	0x7e
 1781 078f A0       		.byte	0xa0
 1782 0790 18       		.uleb128 0x18
 1783 0791 BD020000 		.4byte	.LASF115
 1784 0795 07       		.byte	0x7
 1785 0796 6802     		.2byte	0x268
 1786 0798 4C010000 		.4byte	0x14c
 1787 079c A4       		.byte	0xa4
 1788 079d 18       		.uleb128 0x18
 1789 079e AA000000 		.4byte	.LASF116
 1790 07a2 07       		.byte	0x7
 1791 07a3 6902     		.2byte	0x269
 1792 07a5 4C010000 		.4byte	0x14c
 1793 07a9 AC       		.byte	0xac
 1794 07aa 18       		.uleb128 0x18
 1795 07ab AC020000 		.4byte	.LASF117
 1796 07af 07       		.byte	0x7
 1797 07b0 6A02     		.2byte	0x26a
 1798 07b2 4C010000 		.4byte	0x14c
 1799 07b6 B4       		.byte	0xb4
 1800 07b7 18       		.uleb128 0x18
 1801 07b8 54000000 		.4byte	.LASF118
 1802 07bc 07       		.byte	0x7
 1803 07bd 6B02     		.2byte	0x26b
 1804 07bf 4C010000 		.4byte	0x14c
 1805 07c3 BC       		.byte	0xbc
 1806 07c4 18       		.uleb128 0x18
 1807 07c5 63000000 		.4byte	.LASF119
 1808 07c9 07       		.byte	0x7
 1809 07ca 6C02     		.2byte	0x26c
 1810 07cc 4C010000 		.4byte	0x14c
 1811 07d0 C4       		.byte	0xc4
 1812 07d1 18       		.uleb128 0x18
 1813 07d2 0B050000 		.4byte	.LASF120
 1814 07d6 07       		.byte	0x7
 1815 07d7 6D02     		.2byte	0x26d
 1816 07d9 7E000000 		.4byte	0x7e
 1817 07dd CC       		.byte	0xcc
 1818 07de 00       		.byte	0
 1819 07df 0B       		.uleb128 0xb
 1820 07e0 6A010000 		.4byte	0x16a
 1821 07e4 EF070000 		.4byte	0x7ef
 1822 07e8 0C       		.uleb128 0xc
 1823 07e9 85000000 		.4byte	0x85
 1824 07ed 19       		.byte	0x19
ARM GAS  C:\Users\PCHAUT~1\AppData\Local\Temp\ccspSFHu.s 			page 33


 1825 07ee 00       		.byte	0
 1826 07ef 0B       		.uleb128 0xb
 1827 07f0 6A010000 		.4byte	0x16a
 1828 07f4 FF070000 		.4byte	0x7ff
 1829 07f8 0C       		.uleb128 0xc
 1830 07f9 85000000 		.4byte	0x85
 1831 07fd 07       		.byte	0x7
 1832 07fe 00       		.byte	0
 1833 07ff 0B       		.uleb128 0xb
 1834 0800 6A010000 		.4byte	0x16a
 1835 0804 0F080000 		.4byte	0x80f
 1836 0808 0C       		.uleb128 0xc
 1837 0809 85000000 		.4byte	0x85
 1838 080d 17       		.byte	0x17
 1839 080e 00       		.byte	0
 1840 080f 1B       		.uleb128 0x1b
 1841 0810 F0       		.byte	0xf0
 1842 0811 07       		.byte	0x7
 1843 0812 7202     		.2byte	0x272
 1844 0814 33080000 		.4byte	0x833
 1845 0818 18       		.uleb128 0x18
 1846 0819 66040000 		.4byte	.LASF121
 1847 081d 07       		.byte	0x7
 1848 081e 7502     		.2byte	0x275
 1849 0820 33080000 		.4byte	0x833
 1850 0824 00       		.byte	0
 1851 0825 18       		.uleb128 0x18
 1852 0826 51040000 		.4byte	.LASF122
 1853 082a 07       		.byte	0x7
 1854 082b 7602     		.2byte	0x276
 1855 082d 43080000 		.4byte	0x843
 1856 0831 78       		.byte	0x78
 1857 0832 00       		.byte	0
 1858 0833 0B       		.uleb128 0xb
 1859 0834 33030000 		.4byte	0x333
 1860 0838 43080000 		.4byte	0x843
 1861 083c 0C       		.uleb128 0xc
 1862 083d 85000000 		.4byte	0x85
 1863 0841 1D       		.byte	0x1d
 1864 0842 00       		.byte	0
 1865 0843 0B       		.uleb128 0xb
 1866 0844 85000000 		.4byte	0x85
 1867 0848 53080000 		.4byte	0x853
 1868 084c 0C       		.uleb128 0xc
 1869 084d 85000000 		.4byte	0x85
 1870 0851 1D       		.byte	0x1d
 1871 0852 00       		.byte	0
 1872 0853 1C       		.uleb128 0x1c
 1873 0854 F0       		.byte	0xf0
 1874 0855 07       		.byte	0x7
 1875 0856 5702     		.2byte	0x257
 1876 0858 75080000 		.4byte	0x875
 1877 085c 1D       		.uleb128 0x1d
 1878 085d FC050000 		.4byte	.LASF72
 1879 0861 07       		.byte	0x7
 1880 0862 6E02     		.2byte	0x26e
 1881 0864 DE060000 		.4byte	0x6de
ARM GAS  C:\Users\PCHAUT~1\AppData\Local\Temp\ccspSFHu.s 			page 34


 1882 0868 1D       		.uleb128 0x1d
 1883 0869 6E070000 		.4byte	.LASF123
 1884 086d 07       		.byte	0x7
 1885 086e 7702     		.2byte	0x277
 1886 0870 0F080000 		.4byte	0x80f
 1887 0874 00       		.byte	0
 1888 0875 0B       		.uleb128 0xb
 1889 0876 6A010000 		.4byte	0x16a
 1890 087a 85080000 		.4byte	0x885
 1891 087e 0C       		.uleb128 0xc
 1892 087f 85000000 		.4byte	0x85
 1893 0883 18       		.byte	0x18
 1894 0884 00       		.byte	0
 1895 0885 07       		.uleb128 0x7
 1896 0886 9F000000 		.4byte	.LASF125
 1897 088a 06       		.uleb128 0x6
 1898 088b 04       		.byte	0x4
 1899 088c 85080000 		.4byte	0x885
 1900 0890 1E       		.uleb128 0x1e
 1901 0891 9B080000 		.4byte	0x89b
 1902 0895 16       		.uleb128 0x16
 1903 0896 81040000 		.4byte	0x481
 1904 089a 00       		.byte	0
 1905 089b 06       		.uleb128 0x6
 1906 089c 04       		.byte	0x4
 1907 089d 90080000 		.4byte	0x890
 1908 08a1 06       		.uleb128 0x6
 1909 08a2 04       		.byte	0x4
 1910 08a3 D4010000 		.4byte	0x1d4
 1911 08a7 1E       		.uleb128 0x1e
 1912 08a8 B2080000 		.4byte	0x8b2
 1913 08ac 16       		.uleb128 0x16
 1914 08ad 7E000000 		.4byte	0x7e
 1915 08b1 00       		.byte	0
 1916 08b2 06       		.uleb128 0x6
 1917 08b3 04       		.byte	0x4
 1918 08b4 B8080000 		.4byte	0x8b8
 1919 08b8 06       		.uleb128 0x6
 1920 08b9 04       		.byte	0x4
 1921 08ba A7080000 		.4byte	0x8a7
 1922 08be 0B       		.uleb128 0xb
 1923 08bf 4C060000 		.4byte	0x64c
 1924 08c3 CE080000 		.4byte	0x8ce
 1925 08c7 0C       		.uleb128 0xc
 1926 08c8 85000000 		.4byte	0x85
 1927 08cc 02       		.byte	0x2
 1928 08cd 00       		.byte	0
 1929 08ce 1F       		.uleb128 0x1f
 1930 08cf 27060000 		.4byte	.LASF126
 1931 08d3 07       		.byte	0x7
 1932 08d4 0703     		.2byte	0x307
 1933 08d6 81040000 		.4byte	0x481
 1934 08da 1F       		.uleb128 0x1f
 1935 08db D8060000 		.4byte	.LASF127
 1936 08df 07       		.byte	0x7
 1937 08e0 0803     		.2byte	0x308
 1938 08e2 87040000 		.4byte	0x487
ARM GAS  C:\Users\PCHAUT~1\AppData\Local\Temp\ccspSFHu.s 			page 35


 1939 08e6 06       		.uleb128 0x6
 1940 08e7 04       		.byte	0x4
 1941 08e8 EC080000 		.4byte	0x8ec
 1942 08ec 20       		.uleb128 0x20
 1943 08ed 21       		.uleb128 0x21
 1944 08ee 7E040000 		.4byte	.LASF128
 1945 08f2 08       		.byte	0x8
 1946 08f3 63       		.byte	0x63
 1947 08f4 64010000 		.4byte	0x164
 1948 08f8 03       		.uleb128 0x3
 1949 08f9 C8000000 		.4byte	.LASF129
 1950 08fd 09       		.byte	0x9
 1951 08fe 0F       		.byte	0xf
 1952 08ff 03090000 		.4byte	0x903
 1953 0903 06       		.uleb128 0x6
 1954 0904 04       		.byte	0x4
 1955 0905 09090000 		.4byte	0x909
 1956 0909 1E       		.uleb128 0x1e
 1957 090a 1E090000 		.4byte	0x91e
 1958 090e 16       		.uleb128 0x16
 1959 090f E6080000 		.4byte	0x8e6
 1960 0913 16       		.uleb128 0x16
 1961 0914 B2000000 		.4byte	0xb2
 1962 0918 16       		.uleb128 0x16
 1963 0919 62010000 		.4byte	0x162
 1964 091d 00       		.byte	0
 1965 091e 0D       		.uleb128 0xd
 1966 091f 18       		.byte	0x18
 1967 0920 09       		.byte	0x9
 1968 0921 15       		.byte	0x15
 1969 0922 7B090000 		.4byte	0x97b
 1970 0926 0E       		.uleb128 0xe
 1971 0927 63050000 		.4byte	.LASF130
 1972 092b 09       		.byte	0x9
 1973 092c 16       		.byte	0x16
 1974 092d 7B090000 		.4byte	0x97b
 1975 0931 00       		.byte	0
 1976 0932 0E       		.uleb128 0xe
 1977 0933 BE030000 		.4byte	.LASF131
 1978 0937 09       		.byte	0x9
 1979 0938 17       		.byte	0x17
 1980 0939 B2000000 		.4byte	0xb2
 1981 093d 04       		.byte	0x4
 1982 093e 0E       		.uleb128 0xe
 1983 093f 7E060000 		.4byte	.LASF132
 1984 0943 09       		.byte	0x9
 1985 0944 18       		.byte	0x18
 1986 0945 A7000000 		.4byte	0xa7
 1987 0949 08       		.byte	0x8
 1988 094a 0E       		.uleb128 0xe
 1989 094b D6030000 		.4byte	.LASF133
 1990 094f 09       		.byte	0x9
 1991 0950 19       		.byte	0x19
 1992 0951 F8080000 		.4byte	0x8f8
 1993 0955 0C       		.byte	0xc
 1994 0956 0E       		.uleb128 0xe
 1995 0957 21000000 		.4byte	.LASF134
ARM GAS  C:\Users\PCHAUT~1\AppData\Local\Temp\ccspSFHu.s 			page 36


 1996 095b 09       		.byte	0x9
 1997 095c 1A       		.byte	0x1a
 1998 095d 62010000 		.4byte	0x162
 1999 0961 10       		.byte	0x10
 2000 0962 0E       		.uleb128 0xe
 2001 0963 EB060000 		.4byte	.LASF135
 2002 0967 09       		.byte	0x9
 2003 0968 1B       		.byte	0x1b
 2004 0969 81090000 		.4byte	0x981
 2005 096d 14       		.byte	0x14
 2006 096e 0E       		.uleb128 0xe
 2007 096f 12040000 		.4byte	.LASF136
 2008 0973 09       		.byte	0x9
 2009 0974 1C       		.byte	0x1c
 2010 0975 81090000 		.4byte	0x981
 2011 0979 15       		.byte	0x15
 2012 097a 00       		.byte	0
 2013 097b 06       		.uleb128 0x6
 2014 097c 04       		.byte	0x4
 2015 097d 8C000000 		.4byte	0x8c
 2016 0981 02       		.uleb128 0x2
 2017 0982 01       		.byte	0x1
 2018 0983 02       		.byte	0x2
 2019 0984 EA040000 		.4byte	.LASF137
 2020 0988 03       		.uleb128 0x3
 2021 0989 09070000 		.4byte	.LASF138
 2022 098d 09       		.byte	0x9
 2023 098e 1D       		.byte	0x1d
 2024 098f 1E090000 		.4byte	0x91e
 2025 0993 0B       		.uleb128 0xb
 2026 0994 97000000 		.4byte	0x97
 2027 0998 A3090000 		.4byte	0x9a3
 2028 099c 0C       		.uleb128 0xc
 2029 099d 85000000 		.4byte	0x85
 2030 09a1 01       		.byte	0x1
 2031 09a2 00       		.byte	0
 2032 09a3 05       		.uleb128 0x5
 2033 09a4 93090000 		.4byte	0x993
 2034 09a8 22       		.uleb128 0x22
 2035 09a9 3C070000 		.4byte	.LASF139
 2036 09ad 01       		.byte	0x1
 2037 09ae 11       		.byte	0x11
 2038 09af A3090000 		.4byte	0x9a3
 2039 09b3 05       		.uleb128 0x5
 2040 09b4 03       		.byte	0x3
 2041 09b5 00000000 		.4byte	esc_end
 2042 09b9 22       		.uleb128 0x22
 2043 09ba 7E030000 		.4byte	.LASF140
 2044 09be 01       		.byte	0x1
 2045 09bf 12       		.byte	0x12
 2046 09c0 A3090000 		.4byte	0x9a3
 2047 09c4 05       		.uleb128 0x5
 2048 09c5 03       		.byte	0x3
 2049 09c6 00000000 		.4byte	esc_esc
 2050 09ca 23       		.uleb128 0x23
 2051 09cb D2040000 		.4byte	.LASF161
 2052 09cf 01       		.byte	0x1
ARM GAS  C:\Users\PCHAUT~1\AppData\Local\Temp\ccspSFHu.s 			page 37


 2053 09d0 5B       		.byte	0x5b
 2054 09d1 7E000000 		.4byte	0x7e
 2055 09d5 00000000 		.4byte	.LFB6
 2056 09d9 90010000 		.4byte	.LFE6-.LFB6
 2057 09dd 01       		.uleb128 0x1
 2058 09de 9C       		.byte	0x9c
 2059 09df 650A0000 		.4byte	0xa65
 2060 09e3 24       		.uleb128 0x24
 2061 09e4 6800     		.ascii	"h\000"
 2062 09e6 01       		.byte	0x1
 2063 09e7 5B       		.byte	0x5b
 2064 09e8 650A0000 		.4byte	0xa65
 2065 09ec 02       		.uleb128 0x2
 2066 09ed 91       		.byte	0x91
 2067 09ee 5C       		.sleb128 -36
 2068 09ef 24       		.uleb128 0x24
 2069 09f0 696E00   		.ascii	"in\000"
 2070 09f3 01       		.byte	0x1
 2071 09f4 5B       		.byte	0x5b
 2072 09f5 E6080000 		.4byte	0x8e6
 2073 09f9 02       		.uleb128 0x2
 2074 09fa 91       		.byte	0x91
 2075 09fb 58       		.sleb128 -40
 2076 09fc 24       		.uleb128 0x24
 2077 09fd 6C656E00 		.ascii	"len\000"
 2078 0a01 01       		.byte	0x1
 2079 0a02 5C       		.byte	0x5c
 2080 0a03 B2000000 		.4byte	0xb2
 2081 0a07 02       		.uleb128 0x2
 2082 0a08 91       		.byte	0x91
 2083 0a09 54       		.sleb128 -44
 2084 0a0a 22       		.uleb128 0x22
 2085 0a0b 9A040000 		.4byte	.LASF141
 2086 0a0f 01       		.byte	0x1
 2087 0a10 5E       		.byte	0x5e
 2088 0a11 6B0A0000 		.4byte	0xa6b
 2089 0a15 02       		.uleb128 0x2
 2090 0a16 91       		.byte	0x91
 2091 0a17 60       		.sleb128 -32
 2092 0a18 22       		.uleb128 0x22
 2093 0a19 39000000 		.4byte	.LASF142
 2094 0a1d 01       		.byte	0x1
 2095 0a1e 5F       		.byte	0x5f
 2096 0a1f 7E000000 		.4byte	0x7e
 2097 0a23 02       		.uleb128 0x2
 2098 0a24 91       		.byte	0x91
 2099 0a25 64       		.sleb128 -28
 2100 0a26 25       		.uleb128 0x25
 2101 0a27 3C000000 		.4byte	.LBB2
 2102 0a2b 8E000000 		.4byte	.LBE2-.LBB2
 2103 0a2f 22       		.uleb128 0x22
 2104 0a30 AA030000 		.4byte	.LASF143
 2105 0a34 01       		.byte	0x1
 2106 0a35 66       		.byte	0x66
 2107 0a36 7E000000 		.4byte	0x7e
 2108 0a3a 02       		.uleb128 0x2
 2109 0a3b 91       		.byte	0x91
ARM GAS  C:\Users\PCHAUT~1\AppData\Local\Temp\ccspSFHu.s 			page 38


 2110 0a3c 68       		.sleb128 -24
 2111 0a3d 25       		.uleb128 0x25
 2112 0a3e 4A000000 		.4byte	.LBB3
 2113 0a42 76000000 		.4byte	.LBE3-.LBB3
 2114 0a46 26       		.uleb128 0x26
 2115 0a47 63726300 		.ascii	"crc\000"
 2116 0a4b 01       		.byte	0x1
 2117 0a4c 68       		.byte	0x68
 2118 0a4d A7000000 		.4byte	0xa7
 2119 0a51 02       		.uleb128 0x2
 2120 0a52 91       		.byte	0x91
 2121 0a53 6C       		.sleb128 -20
 2122 0a54 22       		.uleb128 0x22
 2123 0a55 6A050000 		.4byte	.LASF144
 2124 0a59 01       		.byte	0x1
 2125 0a5a 69       		.byte	0x69
 2126 0a5b A7000000 		.4byte	0xa7
 2127 0a5f 02       		.uleb128 0x2
 2128 0a60 91       		.byte	0x91
 2129 0a61 70       		.sleb128 -16
 2130 0a62 00       		.byte	0
 2131 0a63 00       		.byte	0
 2132 0a64 00       		.byte	0
 2133 0a65 06       		.uleb128 0x6
 2134 0a66 04       		.byte	0x4
 2135 0a67 88090000 		.4byte	0x988
 2136 0a6b 06       		.uleb128 0x6
 2137 0a6c 04       		.byte	0x4
 2138 0a6d 97000000 		.4byte	0x97
 2139 0a71 27       		.uleb128 0x27
 2140 0a72 D3020000 		.4byte	.LASF147
 2141 0a76 01       		.byte	0x1
 2142 0a77 51       		.byte	0x51
 2143 0a78 00000000 		.4byte	.LFB5
 2144 0a7c 50000000 		.4byte	.LFE5-.LFB5
 2145 0a80 01       		.uleb128 0x1
 2146 0a81 9C       		.byte	0x9c
 2147 0a82 CB0A0000 		.4byte	0xacb
 2148 0a86 24       		.uleb128 0x24
 2149 0a87 6800     		.ascii	"h\000"
 2150 0a89 01       		.byte	0x1
 2151 0a8a 51       		.byte	0x51
 2152 0a8b 650A0000 		.4byte	0xa65
 2153 0a8f 02       		.uleb128 0x2
 2154 0a90 91       		.byte	0x91
 2155 0a91 6C       		.sleb128 -20
 2156 0a92 28       		.uleb128 0x28
 2157 0a93 63050000 		.4byte	.LASF130
 2158 0a97 01       		.byte	0x1
 2159 0a98 52       		.byte	0x52
 2160 0a99 62010000 		.4byte	0x162
 2161 0a9d 02       		.uleb128 0x2
 2162 0a9e 91       		.byte	0x91
 2163 0a9f 68       		.sleb128 -24
 2164 0aa0 28       		.uleb128 0x28
 2165 0aa1 BE030000 		.4byte	.LASF131
 2166 0aa5 01       		.byte	0x1
ARM GAS  C:\Users\PCHAUT~1\AppData\Local\Temp\ccspSFHu.s 			page 39


 2167 0aa6 52       		.byte	0x52
 2168 0aa7 B2000000 		.4byte	0xb2
 2169 0aab 02       		.uleb128 0x2
 2170 0aac 91       		.byte	0x91
 2171 0aad 64       		.sleb128 -28
 2172 0aae 28       		.uleb128 0x28
 2173 0aaf 03070000 		.4byte	.LASF145
 2174 0ab3 01       		.byte	0x1
 2175 0ab4 52       		.byte	0x52
 2176 0ab5 F8080000 		.4byte	0x8f8
 2177 0ab9 02       		.uleb128 0x2
 2178 0aba 91       		.byte	0x91
 2179 0abb 60       		.sleb128 -32
 2180 0abc 28       		.uleb128 0x28
 2181 0abd 67030000 		.4byte	.LASF146
 2182 0ac1 01       		.byte	0x1
 2183 0ac2 52       		.byte	0x52
 2184 0ac3 62010000 		.4byte	0x162
 2185 0ac7 02       		.uleb128 0x2
 2186 0ac8 91       		.byte	0x91
 2187 0ac9 5C       		.sleb128 -36
 2188 0aca 00       		.byte	0
 2189 0acb 29       		.uleb128 0x29
 2190 0acc 90070000 		.4byte	.LASF156
 2191 0ad0 01       		.byte	0x1
 2192 0ad1 4A       		.byte	0x4a
 2193 0ad2 00000000 		.4byte	.LFB4
 2194 0ad6 38000000 		.4byte	.LFE4-.LFB4
 2195 0ada 01       		.uleb128 0x1
 2196 0adb 9C       		.byte	0x9c
 2197 0adc ED0A0000 		.4byte	0xaed
 2198 0ae0 24       		.uleb128 0x24
 2199 0ae1 6800     		.ascii	"h\000"
 2200 0ae3 01       		.byte	0x1
 2201 0ae4 4A       		.byte	0x4a
 2202 0ae5 650A0000 		.4byte	0xa65
 2203 0ae9 02       		.uleb128 0x2
 2204 0aea 91       		.byte	0x91
 2205 0aeb 6C       		.sleb128 -20
 2206 0aec 00       		.byte	0
 2207 0aed 27       		.uleb128 0x27
 2208 0aee 50060000 		.4byte	.LASF148
 2209 0af2 01       		.byte	0x1
 2210 0af3 42       		.byte	0x42
 2211 0af4 00000000 		.4byte	.LFB3
 2212 0af8 4C000000 		.4byte	.LFE3-.LFB3
 2213 0afc 01       		.uleb128 0x1
 2214 0afd 9C       		.byte	0x9c
 2215 0afe 490B0000 		.4byte	0xb49
 2216 0b02 28       		.uleb128 0x28
 2217 0b03 B9000000 		.4byte	.LASF149
 2218 0b07 01       		.byte	0x1
 2219 0b08 42       		.byte	0x42
 2220 0b09 E6080000 		.4byte	0x8e6
 2221 0b0d 02       		.uleb128 0x2
 2222 0b0e 91       		.byte	0x91
 2223 0b0f 6C       		.sleb128 -20
ARM GAS  C:\Users\PCHAUT~1\AppData\Local\Temp\ccspSFHu.s 			page 40


 2224 0b10 24       		.uleb128 0x24
 2225 0b11 6C656E00 		.ascii	"len\000"
 2226 0b15 01       		.byte	0x1
 2227 0b16 42       		.byte	0x42
 2228 0b17 B2000000 		.4byte	0xb2
 2229 0b1b 02       		.uleb128 0x2
 2230 0b1c 91       		.byte	0x91
 2231 0b1d 68       		.sleb128 -24
 2232 0b1e 28       		.uleb128 0x28
 2233 0b1f 30040000 		.4byte	.LASF150
 2234 0b23 01       		.byte	0x1
 2235 0b24 43       		.byte	0x43
 2236 0b25 5E0B0000 		.4byte	0xb5e
 2237 0b29 02       		.uleb128 0x2
 2238 0b2a 91       		.byte	0x91
 2239 0b2b 64       		.sleb128 -28
 2240 0b2c 28       		.uleb128 0x28
 2241 0b2d 56070000 		.4byte	.LASF151
 2242 0b31 01       		.byte	0x1
 2243 0b32 43       		.byte	0x43
 2244 0b33 62010000 		.4byte	0x162
 2245 0b37 02       		.uleb128 0x2
 2246 0b38 91       		.byte	0x91
 2247 0b39 60       		.sleb128 -32
 2248 0b3a 26       		.uleb128 0x26
 2249 0b3b 63726300 		.ascii	"crc\000"
 2250 0b3f 01       		.byte	0x1
 2251 0b40 45       		.byte	0x45
 2252 0b41 A7000000 		.4byte	0xa7
 2253 0b45 02       		.uleb128 0x2
 2254 0b46 91       		.byte	0x91
 2255 0b47 70       		.sleb128 -16
 2256 0b48 00       		.byte	0
 2257 0b49 1E       		.uleb128 0x1e
 2258 0b4a 5E0B0000 		.4byte	0xb5e
 2259 0b4e 16       		.uleb128 0x16
 2260 0b4f 62010000 		.4byte	0x162
 2261 0b53 16       		.uleb128 0x16
 2262 0b54 E6080000 		.4byte	0x8e6
 2263 0b58 16       		.uleb128 0x16
 2264 0b59 B2000000 		.4byte	0xb2
 2265 0b5d 00       		.byte	0
 2266 0b5e 06       		.uleb128 0x6
 2267 0b5f 04       		.byte	0x4
 2268 0b60 490B0000 		.4byte	0xb49
 2269 0b64 27       		.uleb128 0x27
 2270 0b65 65060000 		.4byte	.LASF152
 2271 0b69 01       		.byte	0x1
 2272 0b6a 2C       		.byte	0x2c
 2273 0b6b 00000000 		.4byte	.LFB2
 2274 0b6f D4000000 		.4byte	.LFE2-.LFB2
 2275 0b73 01       		.uleb128 0x1
 2276 0b74 9C       		.byte	0x9c
 2277 0b75 CA0B0000 		.4byte	0xbca
 2278 0b79 24       		.uleb128 0x24
 2279 0b7a 63726300 		.ascii	"crc\000"
 2280 0b7e 01       		.byte	0x1
ARM GAS  C:\Users\PCHAUT~1\AppData\Local\Temp\ccspSFHu.s 			page 41


 2281 0b7f 2C       		.byte	0x2c
 2282 0b80 A7000000 		.4byte	0xa7
 2283 0b84 02       		.uleb128 0x2
 2284 0b85 91       		.byte	0x91
 2285 0b86 5C       		.sleb128 -36
 2286 0b87 28       		.uleb128 0x28
 2287 0b88 30040000 		.4byte	.LASF150
 2288 0b8c 01       		.byte	0x1
 2289 0b8d 2D       		.byte	0x2d
 2290 0b8e 5E0B0000 		.4byte	0xb5e
 2291 0b92 02       		.uleb128 0x2
 2292 0b93 91       		.byte	0x91
 2293 0b94 58       		.sleb128 -40
 2294 0b95 28       		.uleb128 0x28
 2295 0b96 56070000 		.4byte	.LASF151
 2296 0b9a 01       		.byte	0x1
 2297 0b9b 2D       		.byte	0x2d
 2298 0b9c 62010000 		.4byte	0x162
 2299 0ba0 02       		.uleb128 0x2
 2300 0ba1 91       		.byte	0x91
 2301 0ba2 54       		.sleb128 -44
 2302 0ba3 22       		.uleb128 0x22
 2303 0ba4 47030000 		.4byte	.LASF153
 2304 0ba8 01       		.byte	0x1
 2305 0ba9 30       		.byte	0x30
 2306 0baa CA0B0000 		.4byte	0xbca
 2307 0bae 02       		.uleb128 0x2
 2308 0baf 91       		.byte	0x91
 2309 0bb0 68       		.sleb128 -24
 2310 0bb1 26       		.uleb128 0x26
 2311 0bb2 6900     		.ascii	"i\000"
 2312 0bb4 01       		.byte	0x1
 2313 0bb5 31       		.byte	0x31
 2314 0bb6 A7000000 		.4byte	0xa7
 2315 0bba 02       		.uleb128 0x2
 2316 0bbb 91       		.byte	0x91
 2317 0bbc 60       		.sleb128 -32
 2318 0bbd 26       		.uleb128 0x26
 2319 0bbe 6A00     		.ascii	"j\000"
 2320 0bc0 01       		.byte	0x1
 2321 0bc1 32       		.byte	0x32
 2322 0bc2 9C000000 		.4byte	0x9c
 2323 0bc6 02       		.uleb128 0x2
 2324 0bc7 91       		.byte	0x91
 2325 0bc8 64       		.sleb128 -28
 2326 0bc9 00       		.byte	0
 2327 0bca 0B       		.uleb128 0xb
 2328 0bcb 8C000000 		.4byte	0x8c
 2329 0bcf DA0B0000 		.4byte	0xbda
 2330 0bd3 0C       		.uleb128 0xc
 2331 0bd4 85000000 		.4byte	0x85
 2332 0bd8 08       		.byte	0x8
 2333 0bd9 00       		.byte	0
 2334 0bda 27       		.uleb128 0x27
 2335 0bdb 9F040000 		.4byte	.LASF154
 2336 0bdf 01       		.byte	0x1
 2337 0be0 14       		.byte	0x14
ARM GAS  C:\Users\PCHAUT~1\AppData\Local\Temp\ccspSFHu.s 			page 42


 2338 0be1 00000000 		.4byte	.LFB1
 2339 0be5 D8000000 		.4byte	.LFE1-.LFB1
 2340 0be9 01       		.uleb128 0x1
 2341 0bea 9C       		.byte	0x9c
 2342 0beb 5C0C0000 		.4byte	0xc5c
 2343 0bef 28       		.uleb128 0x28
 2344 0bf0 B9000000 		.4byte	.LASF149
 2345 0bf4 01       		.byte	0x1
 2346 0bf5 14       		.byte	0x14
 2347 0bf6 E6080000 		.4byte	0x8e6
 2348 0bfa 02       		.uleb128 0x2
 2349 0bfb 91       		.byte	0x91
 2350 0bfc 64       		.sleb128 -28
 2351 0bfd 24       		.uleb128 0x24
 2352 0bfe 6C656E00 		.ascii	"len\000"
 2353 0c02 01       		.byte	0x1
 2354 0c03 14       		.byte	0x14
 2355 0c04 B2000000 		.4byte	0xb2
 2356 0c08 02       		.uleb128 0x2
 2357 0c09 91       		.byte	0x91
 2358 0c0a 60       		.sleb128 -32
 2359 0c0b 24       		.uleb128 0x24
 2360 0c0c 63726300 		.ascii	"crc\000"
 2361 0c10 01       		.byte	0x1
 2362 0c11 14       		.byte	0x14
 2363 0c12 5C0C0000 		.4byte	0xc5c
 2364 0c16 02       		.uleb128 0x2
 2365 0c17 91       		.byte	0x91
 2366 0c18 5C       		.sleb128 -36
 2367 0c19 28       		.uleb128 0x28
 2368 0c1a 30040000 		.4byte	.LASF150
 2369 0c1e 01       		.byte	0x1
 2370 0c1f 15       		.byte	0x15
 2371 0c20 5E0B0000 		.4byte	0xb5e
 2372 0c24 02       		.uleb128 0x2
 2373 0c25 91       		.byte	0x91
 2374 0c26 58       		.sleb128 -40
 2375 0c27 28       		.uleb128 0x28
 2376 0c28 56070000 		.4byte	.LASF151
 2377 0c2c 01       		.byte	0x1
 2378 0c2d 15       		.byte	0x15
 2379 0c2e 62010000 		.4byte	0x162
 2380 0c32 02       		.uleb128 0x2
 2381 0c33 91       		.byte	0x91
 2382 0c34 54       		.sleb128 -44
 2383 0c35 22       		.uleb128 0x22
 2384 0c36 94000000 		.4byte	.LASF155
 2385 0c3a 01       		.byte	0x1
 2386 0c3b 17       		.byte	0x17
 2387 0c3c 6B0A0000 		.4byte	0xa6b
 2388 0c40 02       		.uleb128 0x2
 2389 0c41 91       		.byte	0x91
 2390 0c42 70       		.sleb128 -16
 2391 0c43 26       		.uleb128 0x26
 2392 0c44 6100     		.ascii	"a\000"
 2393 0c46 01       		.byte	0x1
 2394 0c47 19       		.byte	0x19
ARM GAS  C:\Users\PCHAUT~1\AppData\Local\Temp\ccspSFHu.s 			page 43


 2395 0c48 A7000000 		.4byte	0xa7
 2396 0c4c 02       		.uleb128 0x2
 2397 0c4d 91       		.byte	0x91
 2398 0c4e 68       		.sleb128 -24
 2399 0c4f 26       		.uleb128 0x26
 2400 0c50 6200     		.ascii	"b\000"
 2401 0c52 01       		.byte	0x1
 2402 0c53 19       		.byte	0x19
 2403 0c54 A7000000 		.4byte	0xa7
 2404 0c58 02       		.uleb128 0x2
 2405 0c59 91       		.byte	0x91
 2406 0c5a 6C       		.sleb128 -20
 2407 0c5b 00       		.byte	0
 2408 0c5c 06       		.uleb128 0x6
 2409 0c5d 04       		.byte	0x4
 2410 0c5e A7000000 		.4byte	0xa7
 2411 0c62 2A       		.uleb128 0x2a
 2412 0c63 86030000 		.4byte	.LASF157
 2413 0c67 01       		.byte	0x1
 2414 0c68 0C       		.byte	0xc
 2415 0c69 A7000000 		.4byte	0xa7
 2416 0c6d 00000000 		.4byte	.LFB0
 2417 0c71 34000000 		.4byte	.LFE0-.LFB0
 2418 0c75 01       		.uleb128 0x1
 2419 0c76 9C       		.byte	0x9c
 2420 0c77 24       		.uleb128 0x24
 2421 0c78 62756600 		.ascii	"buf\000"
 2422 0c7c 01       		.byte	0x1
 2423 0c7d 0C       		.byte	0xc
 2424 0c7e E6080000 		.4byte	0x8e6
 2425 0c82 02       		.uleb128 0x2
 2426 0c83 91       		.byte	0x91
 2427 0c84 6C       		.sleb128 -20
 2428 0c85 24       		.uleb128 0x24
 2429 0c86 6C656E00 		.ascii	"len\000"
 2430 0c8a 01       		.byte	0x1
 2431 0c8b 0C       		.byte	0xc
 2432 0c8c B2000000 		.4byte	0xb2
 2433 0c90 02       		.uleb128 0x2
 2434 0c91 91       		.byte	0x91
 2435 0c92 68       		.sleb128 -24
 2436 0c93 00       		.byte	0
 2437 0c94 00       		.byte	0
 2438              		.section	.debug_abbrev,"",%progbits
 2439              	.Ldebug_abbrev0:
 2440 0000 01       		.uleb128 0x1
 2441 0001 11       		.uleb128 0x11
 2442 0002 01       		.byte	0x1
 2443 0003 25       		.uleb128 0x25
 2444 0004 0E       		.uleb128 0xe
 2445 0005 13       		.uleb128 0x13
 2446 0006 0B       		.uleb128 0xb
 2447 0007 03       		.uleb128 0x3
 2448 0008 0E       		.uleb128 0xe
 2449 0009 1B       		.uleb128 0x1b
 2450 000a 0E       		.uleb128 0xe
 2451 000b 55       		.uleb128 0x55
ARM GAS  C:\Users\PCHAUT~1\AppData\Local\Temp\ccspSFHu.s 			page 44


 2452 000c 17       		.uleb128 0x17
 2453 000d 11       		.uleb128 0x11
 2454 000e 01       		.uleb128 0x1
 2455 000f 10       		.uleb128 0x10
 2456 0010 17       		.uleb128 0x17
 2457 0011 00       		.byte	0
 2458 0012 00       		.byte	0
 2459 0013 02       		.uleb128 0x2
 2460 0014 24       		.uleb128 0x24
 2461 0015 00       		.byte	0
 2462 0016 0B       		.uleb128 0xb
 2463 0017 0B       		.uleb128 0xb
 2464 0018 3E       		.uleb128 0x3e
 2465 0019 0B       		.uleb128 0xb
 2466 001a 03       		.uleb128 0x3
 2467 001b 0E       		.uleb128 0xe
 2468 001c 00       		.byte	0
 2469 001d 00       		.byte	0
 2470 001e 03       		.uleb128 0x3
 2471 001f 16       		.uleb128 0x16
 2472 0020 00       		.byte	0
 2473 0021 03       		.uleb128 0x3
 2474 0022 0E       		.uleb128 0xe
 2475 0023 3A       		.uleb128 0x3a
 2476 0024 0B       		.uleb128 0xb
 2477 0025 3B       		.uleb128 0x3b
 2478 0026 0B       		.uleb128 0xb
 2479 0027 49       		.uleb128 0x49
 2480 0028 13       		.uleb128 0x13
 2481 0029 00       		.byte	0
 2482 002a 00       		.byte	0
 2483 002b 04       		.uleb128 0x4
 2484 002c 24       		.uleb128 0x24
 2485 002d 00       		.byte	0
 2486 002e 0B       		.uleb128 0xb
 2487 002f 0B       		.uleb128 0xb
 2488 0030 3E       		.uleb128 0x3e
 2489 0031 0B       		.uleb128 0xb
 2490 0032 03       		.uleb128 0x3
 2491 0033 08       		.uleb128 0x8
 2492 0034 00       		.byte	0
 2493 0035 00       		.byte	0
 2494 0036 05       		.uleb128 0x5
 2495 0037 26       		.uleb128 0x26
 2496 0038 00       		.byte	0
 2497 0039 49       		.uleb128 0x49
 2498 003a 13       		.uleb128 0x13
 2499 003b 00       		.byte	0
 2500 003c 00       		.byte	0
 2501 003d 06       		.uleb128 0x6
 2502 003e 0F       		.uleb128 0xf
 2503 003f 00       		.byte	0
 2504 0040 0B       		.uleb128 0xb
 2505 0041 0B       		.uleb128 0xb
 2506 0042 49       		.uleb128 0x49
 2507 0043 13       		.uleb128 0x13
 2508 0044 00       		.byte	0
ARM GAS  C:\Users\PCHAUT~1\AppData\Local\Temp\ccspSFHu.s 			page 45


 2509 0045 00       		.byte	0
 2510 0046 07       		.uleb128 0x7
 2511 0047 13       		.uleb128 0x13
 2512 0048 00       		.byte	0
 2513 0049 03       		.uleb128 0x3
 2514 004a 0E       		.uleb128 0xe
 2515 004b 3C       		.uleb128 0x3c
 2516 004c 19       		.uleb128 0x19
 2517 004d 00       		.byte	0
 2518 004e 00       		.byte	0
 2519 004f 08       		.uleb128 0x8
 2520 0050 16       		.uleb128 0x16
 2521 0051 00       		.byte	0
 2522 0052 03       		.uleb128 0x3
 2523 0053 0E       		.uleb128 0xe
 2524 0054 3A       		.uleb128 0x3a
 2525 0055 0B       		.uleb128 0xb
 2526 0056 3B       		.uleb128 0x3b
 2527 0057 05       		.uleb128 0x5
 2528 0058 49       		.uleb128 0x49
 2529 0059 13       		.uleb128 0x13
 2530 005a 00       		.byte	0
 2531 005b 00       		.byte	0
 2532 005c 09       		.uleb128 0x9
 2533 005d 17       		.uleb128 0x17
 2534 005e 01       		.byte	0x1
 2535 005f 0B       		.uleb128 0xb
 2536 0060 0B       		.uleb128 0xb
 2537 0061 3A       		.uleb128 0x3a
 2538 0062 0B       		.uleb128 0xb
 2539 0063 3B       		.uleb128 0x3b
 2540 0064 0B       		.uleb128 0xb
 2541 0065 01       		.uleb128 0x1
 2542 0066 13       		.uleb128 0x13
 2543 0067 00       		.byte	0
 2544 0068 00       		.byte	0
 2545 0069 0A       		.uleb128 0xa
 2546 006a 0D       		.uleb128 0xd
 2547 006b 00       		.byte	0
 2548 006c 03       		.uleb128 0x3
 2549 006d 0E       		.uleb128 0xe
 2550 006e 3A       		.uleb128 0x3a
 2551 006f 0B       		.uleb128 0xb
 2552 0070 3B       		.uleb128 0x3b
 2553 0071 0B       		.uleb128 0xb
 2554 0072 49       		.uleb128 0x49
 2555 0073 13       		.uleb128 0x13
 2556 0074 00       		.byte	0
 2557 0075 00       		.byte	0
 2558 0076 0B       		.uleb128 0xb
 2559 0077 01       		.uleb128 0x1
 2560 0078 01       		.byte	0x1
 2561 0079 49       		.uleb128 0x49
 2562 007a 13       		.uleb128 0x13
 2563 007b 01       		.uleb128 0x1
 2564 007c 13       		.uleb128 0x13
 2565 007d 00       		.byte	0
ARM GAS  C:\Users\PCHAUT~1\AppData\Local\Temp\ccspSFHu.s 			page 46


 2566 007e 00       		.byte	0
 2567 007f 0C       		.uleb128 0xc
 2568 0080 21       		.uleb128 0x21
 2569 0081 00       		.byte	0
 2570 0082 49       		.uleb128 0x49
 2571 0083 13       		.uleb128 0x13
 2572 0084 2F       		.uleb128 0x2f
 2573 0085 0B       		.uleb128 0xb
 2574 0086 00       		.byte	0
 2575 0087 00       		.byte	0
 2576 0088 0D       		.uleb128 0xd
 2577 0089 13       		.uleb128 0x13
 2578 008a 01       		.byte	0x1
 2579 008b 0B       		.uleb128 0xb
 2580 008c 0B       		.uleb128 0xb
 2581 008d 3A       		.uleb128 0x3a
 2582 008e 0B       		.uleb128 0xb
 2583 008f 3B       		.uleb128 0x3b
 2584 0090 0B       		.uleb128 0xb
 2585 0091 01       		.uleb128 0x1
 2586 0092 13       		.uleb128 0x13
 2587 0093 00       		.byte	0
 2588 0094 00       		.byte	0
 2589 0095 0E       		.uleb128 0xe
 2590 0096 0D       		.uleb128 0xd
 2591 0097 00       		.byte	0
 2592 0098 03       		.uleb128 0x3
 2593 0099 0E       		.uleb128 0xe
 2594 009a 3A       		.uleb128 0x3a
 2595 009b 0B       		.uleb128 0xb
 2596 009c 3B       		.uleb128 0x3b
 2597 009d 0B       		.uleb128 0xb
 2598 009e 49       		.uleb128 0x49
 2599 009f 13       		.uleb128 0x13
 2600 00a0 38       		.uleb128 0x38
 2601 00a1 0B       		.uleb128 0xb
 2602 00a2 00       		.byte	0
 2603 00a3 00       		.byte	0
 2604 00a4 0F       		.uleb128 0xf
 2605 00a5 0F       		.uleb128 0xf
 2606 00a6 00       		.byte	0
 2607 00a7 0B       		.uleb128 0xb
 2608 00a8 0B       		.uleb128 0xb
 2609 00a9 00       		.byte	0
 2610 00aa 00       		.byte	0
 2611 00ab 10       		.uleb128 0x10
 2612 00ac 13       		.uleb128 0x13
 2613 00ad 01       		.byte	0x1
 2614 00ae 03       		.uleb128 0x3
 2615 00af 0E       		.uleb128 0xe
 2616 00b0 0B       		.uleb128 0xb
 2617 00b1 0B       		.uleb128 0xb
 2618 00b2 3A       		.uleb128 0x3a
 2619 00b3 0B       		.uleb128 0xb
 2620 00b4 3B       		.uleb128 0x3b
 2621 00b5 0B       		.uleb128 0xb
 2622 00b6 01       		.uleb128 0x1
ARM GAS  C:\Users\PCHAUT~1\AppData\Local\Temp\ccspSFHu.s 			page 47


 2623 00b7 13       		.uleb128 0x13
 2624 00b8 00       		.byte	0
 2625 00b9 00       		.byte	0
 2626 00ba 11       		.uleb128 0x11
 2627 00bb 0D       		.uleb128 0xd
 2628 00bc 00       		.byte	0
 2629 00bd 03       		.uleb128 0x3
 2630 00be 08       		.uleb128 0x8
 2631 00bf 3A       		.uleb128 0x3a
 2632 00c0 0B       		.uleb128 0xb
 2633 00c1 3B       		.uleb128 0x3b
 2634 00c2 0B       		.uleb128 0xb
 2635 00c3 49       		.uleb128 0x49
 2636 00c4 13       		.uleb128 0x13
 2637 00c5 38       		.uleb128 0x38
 2638 00c6 0B       		.uleb128 0xb
 2639 00c7 00       		.byte	0
 2640 00c8 00       		.byte	0
 2641 00c9 12       		.uleb128 0x12
 2642 00ca 13       		.uleb128 0x13
 2643 00cb 01       		.byte	0x1
 2644 00cc 03       		.uleb128 0x3
 2645 00cd 0E       		.uleb128 0xe
 2646 00ce 0B       		.uleb128 0xb
 2647 00cf 05       		.uleb128 0x5
 2648 00d0 3A       		.uleb128 0x3a
 2649 00d1 0B       		.uleb128 0xb
 2650 00d2 3B       		.uleb128 0x3b
 2651 00d3 0B       		.uleb128 0xb
 2652 00d4 01       		.uleb128 0x1
 2653 00d5 13       		.uleb128 0x13
 2654 00d6 00       		.byte	0
 2655 00d7 00       		.byte	0
 2656 00d8 13       		.uleb128 0x13
 2657 00d9 0D       		.uleb128 0xd
 2658 00da 00       		.byte	0
 2659 00db 03       		.uleb128 0x3
 2660 00dc 0E       		.uleb128 0xe
 2661 00dd 3A       		.uleb128 0x3a
 2662 00de 0B       		.uleb128 0xb
 2663 00df 3B       		.uleb128 0x3b
 2664 00e0 0B       		.uleb128 0xb
 2665 00e1 49       		.uleb128 0x49
 2666 00e2 13       		.uleb128 0x13
 2667 00e3 38       		.uleb128 0x38
 2668 00e4 05       		.uleb128 0x5
 2669 00e5 00       		.byte	0
 2670 00e6 00       		.byte	0
 2671 00e7 14       		.uleb128 0x14
 2672 00e8 15       		.uleb128 0x15
 2673 00e9 00       		.byte	0
 2674 00ea 27       		.uleb128 0x27
 2675 00eb 19       		.uleb128 0x19
 2676 00ec 00       		.byte	0
 2677 00ed 00       		.byte	0
 2678 00ee 15       		.uleb128 0x15
 2679 00ef 15       		.uleb128 0x15
ARM GAS  C:\Users\PCHAUT~1\AppData\Local\Temp\ccspSFHu.s 			page 48


 2680 00f0 01       		.byte	0x1
 2681 00f1 27       		.uleb128 0x27
 2682 00f2 19       		.uleb128 0x19
 2683 00f3 49       		.uleb128 0x49
 2684 00f4 13       		.uleb128 0x13
 2685 00f5 01       		.uleb128 0x1
 2686 00f6 13       		.uleb128 0x13
 2687 00f7 00       		.byte	0
 2688 00f8 00       		.byte	0
 2689 00f9 16       		.uleb128 0x16
 2690 00fa 05       		.uleb128 0x5
 2691 00fb 00       		.byte	0
 2692 00fc 49       		.uleb128 0x49
 2693 00fd 13       		.uleb128 0x13
 2694 00fe 00       		.byte	0
 2695 00ff 00       		.byte	0
 2696 0100 17       		.uleb128 0x17
 2697 0101 13       		.uleb128 0x13
 2698 0102 01       		.byte	0x1
 2699 0103 03       		.uleb128 0x3
 2700 0104 0E       		.uleb128 0xe
 2701 0105 0B       		.uleb128 0xb
 2702 0106 05       		.uleb128 0x5
 2703 0107 3A       		.uleb128 0x3a
 2704 0108 0B       		.uleb128 0xb
 2705 0109 3B       		.uleb128 0x3b
 2706 010a 05       		.uleb128 0x5
 2707 010b 01       		.uleb128 0x1
 2708 010c 13       		.uleb128 0x13
 2709 010d 00       		.byte	0
 2710 010e 00       		.byte	0
 2711 010f 18       		.uleb128 0x18
 2712 0110 0D       		.uleb128 0xd
 2713 0111 00       		.byte	0
 2714 0112 03       		.uleb128 0x3
 2715 0113 0E       		.uleb128 0xe
 2716 0114 3A       		.uleb128 0x3a
 2717 0115 0B       		.uleb128 0xb
 2718 0116 3B       		.uleb128 0x3b
 2719 0117 05       		.uleb128 0x5
 2720 0118 49       		.uleb128 0x49
 2721 0119 13       		.uleb128 0x13
 2722 011a 38       		.uleb128 0x38
 2723 011b 0B       		.uleb128 0xb
 2724 011c 00       		.byte	0
 2725 011d 00       		.byte	0
 2726 011e 19       		.uleb128 0x19
 2727 011f 0D       		.uleb128 0xd
 2728 0120 00       		.byte	0
 2729 0121 03       		.uleb128 0x3
 2730 0122 0E       		.uleb128 0xe
 2731 0123 3A       		.uleb128 0x3a
 2732 0124 0B       		.uleb128 0xb
 2733 0125 3B       		.uleb128 0x3b
 2734 0126 05       		.uleb128 0x5
 2735 0127 49       		.uleb128 0x49
 2736 0128 13       		.uleb128 0x13
ARM GAS  C:\Users\PCHAUT~1\AppData\Local\Temp\ccspSFHu.s 			page 49


 2737 0129 38       		.uleb128 0x38
 2738 012a 05       		.uleb128 0x5
 2739 012b 00       		.byte	0
 2740 012c 00       		.byte	0
 2741 012d 1A       		.uleb128 0x1a
 2742 012e 13       		.uleb128 0x13
 2743 012f 01       		.byte	0x1
 2744 0130 03       		.uleb128 0x3
 2745 0131 0E       		.uleb128 0xe
 2746 0132 0B       		.uleb128 0xb
 2747 0133 0B       		.uleb128 0xb
 2748 0134 3A       		.uleb128 0x3a
 2749 0135 0B       		.uleb128 0xb
 2750 0136 3B       		.uleb128 0x3b
 2751 0137 05       		.uleb128 0x5
 2752 0138 01       		.uleb128 0x1
 2753 0139 13       		.uleb128 0x13
 2754 013a 00       		.byte	0
 2755 013b 00       		.byte	0
 2756 013c 1B       		.uleb128 0x1b
 2757 013d 13       		.uleb128 0x13
 2758 013e 01       		.byte	0x1
 2759 013f 0B       		.uleb128 0xb
 2760 0140 0B       		.uleb128 0xb
 2761 0141 3A       		.uleb128 0x3a
 2762 0142 0B       		.uleb128 0xb
 2763 0143 3B       		.uleb128 0x3b
 2764 0144 05       		.uleb128 0x5
 2765 0145 01       		.uleb128 0x1
 2766 0146 13       		.uleb128 0x13
 2767 0147 00       		.byte	0
 2768 0148 00       		.byte	0
 2769 0149 1C       		.uleb128 0x1c
 2770 014a 17       		.uleb128 0x17
 2771 014b 01       		.byte	0x1
 2772 014c 0B       		.uleb128 0xb
 2773 014d 0B       		.uleb128 0xb
 2774 014e 3A       		.uleb128 0x3a
 2775 014f 0B       		.uleb128 0xb
 2776 0150 3B       		.uleb128 0x3b
 2777 0151 05       		.uleb128 0x5
 2778 0152 01       		.uleb128 0x1
 2779 0153 13       		.uleb128 0x13
 2780 0154 00       		.byte	0
 2781 0155 00       		.byte	0
 2782 0156 1D       		.uleb128 0x1d
 2783 0157 0D       		.uleb128 0xd
 2784 0158 00       		.byte	0
 2785 0159 03       		.uleb128 0x3
 2786 015a 0E       		.uleb128 0xe
 2787 015b 3A       		.uleb128 0x3a
 2788 015c 0B       		.uleb128 0xb
 2789 015d 3B       		.uleb128 0x3b
 2790 015e 05       		.uleb128 0x5
 2791 015f 49       		.uleb128 0x49
 2792 0160 13       		.uleb128 0x13
 2793 0161 00       		.byte	0
ARM GAS  C:\Users\PCHAUT~1\AppData\Local\Temp\ccspSFHu.s 			page 50


 2794 0162 00       		.byte	0
 2795 0163 1E       		.uleb128 0x1e
 2796 0164 15       		.uleb128 0x15
 2797 0165 01       		.byte	0x1
 2798 0166 27       		.uleb128 0x27
 2799 0167 19       		.uleb128 0x19
 2800 0168 01       		.uleb128 0x1
 2801 0169 13       		.uleb128 0x13
 2802 016a 00       		.byte	0
 2803 016b 00       		.byte	0
 2804 016c 1F       		.uleb128 0x1f
 2805 016d 34       		.uleb128 0x34
 2806 016e 00       		.byte	0
 2807 016f 03       		.uleb128 0x3
 2808 0170 0E       		.uleb128 0xe
 2809 0171 3A       		.uleb128 0x3a
 2810 0172 0B       		.uleb128 0xb
 2811 0173 3B       		.uleb128 0x3b
 2812 0174 05       		.uleb128 0x5
 2813 0175 49       		.uleb128 0x49
 2814 0176 13       		.uleb128 0x13
 2815 0177 3F       		.uleb128 0x3f
 2816 0178 19       		.uleb128 0x19
 2817 0179 3C       		.uleb128 0x3c
 2818 017a 19       		.uleb128 0x19
 2819 017b 00       		.byte	0
 2820 017c 00       		.byte	0
 2821 017d 20       		.uleb128 0x20
 2822 017e 26       		.uleb128 0x26
 2823 017f 00       		.byte	0
 2824 0180 00       		.byte	0
 2825 0181 00       		.byte	0
 2826 0182 21       		.uleb128 0x21
 2827 0183 34       		.uleb128 0x34
 2828 0184 00       		.byte	0
 2829 0185 03       		.uleb128 0x3
 2830 0186 0E       		.uleb128 0xe
 2831 0187 3A       		.uleb128 0x3a
 2832 0188 0B       		.uleb128 0xb
 2833 0189 3B       		.uleb128 0x3b
 2834 018a 0B       		.uleb128 0xb
 2835 018b 49       		.uleb128 0x49
 2836 018c 13       		.uleb128 0x13
 2837 018d 3F       		.uleb128 0x3f
 2838 018e 19       		.uleb128 0x19
 2839 018f 3C       		.uleb128 0x3c
 2840 0190 19       		.uleb128 0x19
 2841 0191 00       		.byte	0
 2842 0192 00       		.byte	0
 2843 0193 22       		.uleb128 0x22
 2844 0194 34       		.uleb128 0x34
 2845 0195 00       		.byte	0
 2846 0196 03       		.uleb128 0x3
 2847 0197 0E       		.uleb128 0xe
 2848 0198 3A       		.uleb128 0x3a
 2849 0199 0B       		.uleb128 0xb
 2850 019a 3B       		.uleb128 0x3b
ARM GAS  C:\Users\PCHAUT~1\AppData\Local\Temp\ccspSFHu.s 			page 51


 2851 019b 0B       		.uleb128 0xb
 2852 019c 49       		.uleb128 0x49
 2853 019d 13       		.uleb128 0x13
 2854 019e 02       		.uleb128 0x2
 2855 019f 18       		.uleb128 0x18
 2856 01a0 00       		.byte	0
 2857 01a1 00       		.byte	0
 2858 01a2 23       		.uleb128 0x23
 2859 01a3 2E       		.uleb128 0x2e
 2860 01a4 01       		.byte	0x1
 2861 01a5 3F       		.uleb128 0x3f
 2862 01a6 19       		.uleb128 0x19
 2863 01a7 03       		.uleb128 0x3
 2864 01a8 0E       		.uleb128 0xe
 2865 01a9 3A       		.uleb128 0x3a
 2866 01aa 0B       		.uleb128 0xb
 2867 01ab 3B       		.uleb128 0x3b
 2868 01ac 0B       		.uleb128 0xb
 2869 01ad 27       		.uleb128 0x27
 2870 01ae 19       		.uleb128 0x19
 2871 01af 49       		.uleb128 0x49
 2872 01b0 13       		.uleb128 0x13
 2873 01b1 11       		.uleb128 0x11
 2874 01b2 01       		.uleb128 0x1
 2875 01b3 12       		.uleb128 0x12
 2876 01b4 06       		.uleb128 0x6
 2877 01b5 40       		.uleb128 0x40
 2878 01b6 18       		.uleb128 0x18
 2879 01b7 9642     		.uleb128 0x2116
 2880 01b9 19       		.uleb128 0x19
 2881 01ba 01       		.uleb128 0x1
 2882 01bb 13       		.uleb128 0x13
 2883 01bc 00       		.byte	0
 2884 01bd 00       		.byte	0
 2885 01be 24       		.uleb128 0x24
 2886 01bf 05       		.uleb128 0x5
 2887 01c0 00       		.byte	0
 2888 01c1 03       		.uleb128 0x3
 2889 01c2 08       		.uleb128 0x8
 2890 01c3 3A       		.uleb128 0x3a
 2891 01c4 0B       		.uleb128 0xb
 2892 01c5 3B       		.uleb128 0x3b
 2893 01c6 0B       		.uleb128 0xb
 2894 01c7 49       		.uleb128 0x49
 2895 01c8 13       		.uleb128 0x13
 2896 01c9 02       		.uleb128 0x2
 2897 01ca 18       		.uleb128 0x18
 2898 01cb 00       		.byte	0
 2899 01cc 00       		.byte	0
 2900 01cd 25       		.uleb128 0x25
 2901 01ce 0B       		.uleb128 0xb
 2902 01cf 01       		.byte	0x1
 2903 01d0 11       		.uleb128 0x11
 2904 01d1 01       		.uleb128 0x1
 2905 01d2 12       		.uleb128 0x12
 2906 01d3 06       		.uleb128 0x6
 2907 01d4 00       		.byte	0
ARM GAS  C:\Users\PCHAUT~1\AppData\Local\Temp\ccspSFHu.s 			page 52


 2908 01d5 00       		.byte	0
 2909 01d6 26       		.uleb128 0x26
 2910 01d7 34       		.uleb128 0x34
 2911 01d8 00       		.byte	0
 2912 01d9 03       		.uleb128 0x3
 2913 01da 08       		.uleb128 0x8
 2914 01db 3A       		.uleb128 0x3a
 2915 01dc 0B       		.uleb128 0xb
 2916 01dd 3B       		.uleb128 0x3b
 2917 01de 0B       		.uleb128 0xb
 2918 01df 49       		.uleb128 0x49
 2919 01e0 13       		.uleb128 0x13
 2920 01e1 02       		.uleb128 0x2
 2921 01e2 18       		.uleb128 0x18
 2922 01e3 00       		.byte	0
 2923 01e4 00       		.byte	0
 2924 01e5 27       		.uleb128 0x27
 2925 01e6 2E       		.uleb128 0x2e
 2926 01e7 01       		.byte	0x1
 2927 01e8 3F       		.uleb128 0x3f
 2928 01e9 19       		.uleb128 0x19
 2929 01ea 03       		.uleb128 0x3
 2930 01eb 0E       		.uleb128 0xe
 2931 01ec 3A       		.uleb128 0x3a
 2932 01ed 0B       		.uleb128 0xb
 2933 01ee 3B       		.uleb128 0x3b
 2934 01ef 0B       		.uleb128 0xb
 2935 01f0 27       		.uleb128 0x27
 2936 01f1 19       		.uleb128 0x19
 2937 01f2 11       		.uleb128 0x11
 2938 01f3 01       		.uleb128 0x1
 2939 01f4 12       		.uleb128 0x12
 2940 01f5 06       		.uleb128 0x6
 2941 01f6 40       		.uleb128 0x40
 2942 01f7 18       		.uleb128 0x18
 2943 01f8 9642     		.uleb128 0x2116
 2944 01fa 19       		.uleb128 0x19
 2945 01fb 01       		.uleb128 0x1
 2946 01fc 13       		.uleb128 0x13
 2947 01fd 00       		.byte	0
 2948 01fe 00       		.byte	0
 2949 01ff 28       		.uleb128 0x28
 2950 0200 05       		.uleb128 0x5
 2951 0201 00       		.byte	0
 2952 0202 03       		.uleb128 0x3
 2953 0203 0E       		.uleb128 0xe
 2954 0204 3A       		.uleb128 0x3a
 2955 0205 0B       		.uleb128 0xb
 2956 0206 3B       		.uleb128 0x3b
 2957 0207 0B       		.uleb128 0xb
 2958 0208 49       		.uleb128 0x49
 2959 0209 13       		.uleb128 0x13
 2960 020a 02       		.uleb128 0x2
 2961 020b 18       		.uleb128 0x18
 2962 020c 00       		.byte	0
 2963 020d 00       		.byte	0
 2964 020e 29       		.uleb128 0x29
ARM GAS  C:\Users\PCHAUT~1\AppData\Local\Temp\ccspSFHu.s 			page 53


 2965 020f 2E       		.uleb128 0x2e
 2966 0210 01       		.byte	0x1
 2967 0211 03       		.uleb128 0x3
 2968 0212 0E       		.uleb128 0xe
 2969 0213 3A       		.uleb128 0x3a
 2970 0214 0B       		.uleb128 0xb
 2971 0215 3B       		.uleb128 0x3b
 2972 0216 0B       		.uleb128 0xb
 2973 0217 27       		.uleb128 0x27
 2974 0218 19       		.uleb128 0x19
 2975 0219 11       		.uleb128 0x11
 2976 021a 01       		.uleb128 0x1
 2977 021b 12       		.uleb128 0x12
 2978 021c 06       		.uleb128 0x6
 2979 021d 40       		.uleb128 0x40
 2980 021e 18       		.uleb128 0x18
 2981 021f 9642     		.uleb128 0x2116
 2982 0221 19       		.uleb128 0x19
 2983 0222 01       		.uleb128 0x1
 2984 0223 13       		.uleb128 0x13
 2985 0224 00       		.byte	0
 2986 0225 00       		.byte	0
 2987 0226 2A       		.uleb128 0x2a
 2988 0227 2E       		.uleb128 0x2e
 2989 0228 01       		.byte	0x1
 2990 0229 03       		.uleb128 0x3
 2991 022a 0E       		.uleb128 0xe
 2992 022b 3A       		.uleb128 0x3a
 2993 022c 0B       		.uleb128 0xb
 2994 022d 3B       		.uleb128 0x3b
 2995 022e 0B       		.uleb128 0xb
 2996 022f 27       		.uleb128 0x27
 2997 0230 19       		.uleb128 0x19
 2998 0231 49       		.uleb128 0x49
 2999 0232 13       		.uleb128 0x13
 3000 0233 11       		.uleb128 0x11
 3001 0234 01       		.uleb128 0x1
 3002 0235 12       		.uleb128 0x12
 3003 0236 06       		.uleb128 0x6
 3004 0237 40       		.uleb128 0x40
 3005 0238 18       		.uleb128 0x18
 3006 0239 9642     		.uleb128 0x2116
 3007 023b 19       		.uleb128 0x19
 3008 023c 00       		.byte	0
 3009 023d 00       		.byte	0
 3010 023e 00       		.byte	0
 3011              		.section	.debug_aranges,"",%progbits
 3012 0000 4C000000 		.4byte	0x4c
 3013 0004 0200     		.2byte	0x2
 3014 0006 00000000 		.4byte	.Ldebug_info0
 3015 000a 04       		.byte	0x4
 3016 000b 00       		.byte	0
 3017 000c 0000     		.2byte	0
 3018 000e 0000     		.2byte	0
 3019 0010 00000000 		.4byte	.LFB0
 3020 0014 34000000 		.4byte	.LFE0-.LFB0
 3021 0018 00000000 		.4byte	.LFB1
ARM GAS  C:\Users\PCHAUT~1\AppData\Local\Temp\ccspSFHu.s 			page 54


 3022 001c D8000000 		.4byte	.LFE1-.LFB1
 3023 0020 00000000 		.4byte	.LFB2
 3024 0024 D4000000 		.4byte	.LFE2-.LFB2
 3025 0028 00000000 		.4byte	.LFB3
 3026 002c 4C000000 		.4byte	.LFE3-.LFB3
 3027 0030 00000000 		.4byte	.LFB4
 3028 0034 38000000 		.4byte	.LFE4-.LFB4
 3029 0038 00000000 		.4byte	.LFB5
 3030 003c 50000000 		.4byte	.LFE5-.LFB5
 3031 0040 00000000 		.4byte	.LFB6
 3032 0044 90010000 		.4byte	.LFE6-.LFB6
 3033 0048 00000000 		.4byte	0
 3034 004c 00000000 		.4byte	0
 3035              		.section	.debug_ranges,"",%progbits
 3036              	.Ldebug_ranges0:
 3037 0000 00000000 		.4byte	.LFB0
 3038 0004 34000000 		.4byte	.LFE0
 3039 0008 00000000 		.4byte	.LFB1
 3040 000c D8000000 		.4byte	.LFE1
 3041 0010 00000000 		.4byte	.LFB2
 3042 0014 D4000000 		.4byte	.LFE2
 3043 0018 00000000 		.4byte	.LFB3
 3044 001c 4C000000 		.4byte	.LFE3
 3045 0020 00000000 		.4byte	.LFB4
 3046 0024 38000000 		.4byte	.LFE4
 3047 0028 00000000 		.4byte	.LFB5
 3048 002c 50000000 		.4byte	.LFE5
 3049 0030 00000000 		.4byte	.LFB6
 3050 0034 90010000 		.4byte	.LFE6
 3051 0038 00000000 		.4byte	0
 3052 003c 00000000 		.4byte	0
 3053              		.section	.debug_line,"",%progbits
 3054              	.Ldebug_line0:
 3055 0000 BC030000 		.section	.debug_str,"MS",%progbits,1
 3055      0200D702 
 3055      00000201 
 3055      FB0E0D00 
 3055      01010101 
 3056              	.LASF46:
 3057 0000 5F64736F 		.ascii	"_dso_handle\000"
 3057      5F68616E 
 3057      646C6500 
 3058              	.LASF54:
 3059 000c 5F73697A 		.ascii	"_size\000"
 3059      6500
 3060              	.LASF15:
 3061 0012 73697A65 		.ascii	"size_t\000"
 3061      5F7400
 3062              	.LASF98:
 3063 0019 5F72616E 		.ascii	"_rand48\000"
 3063      64343800 
 3064              	.LASF134:
 3065 0021 63616C6C 		.ascii	"callback_arg\000"
 3065      6261636B 
 3065      5F617267 
 3065      00
 3066              	.LASF78:
ARM GAS  C:\Users\PCHAUT~1\AppData\Local\Temp\ccspSFHu.s 			page 55


 3067 002e 5F656D65 		.ascii	"_emergency\000"
 3067      7267656E 
 3067      637900
 3068              	.LASF142:
 3069 0039 6572726F 		.ascii	"error_code\000"
 3069      725F636F 
 3069      646500
 3070              	.LASF4:
 3071 0044 5F5F7569 		.ascii	"__uint8_t\000"
 3071      6E74385F 
 3071      7400
 3072              	.LASF68:
 3073 004e 5F646174 		.ascii	"_data\000"
 3073      6100
 3074              	.LASF118:
 3075 0054 5F776372 		.ascii	"_wcrtomb_state\000"
 3075      746F6D62 
 3075      5F737461 
 3075      746500
 3076              	.LASF119:
 3077 0063 5F776373 		.ascii	"_wcsrtombs_state\000"
 3077      72746F6D 
 3077      62735F73 
 3077      74617465 
 3077      00
 3078              	.LASF10:
 3079 0074 6C6F6E67 		.ascii	"long long unsigned int\000"
 3079      206C6F6E 
 3079      6720756E 
 3079      7369676E 
 3079      65642069 
 3080              	.LASF58:
 3081 008b 5F6C6266 		.ascii	"_lbfsize\000"
 3081      73697A65 
 3081      00
 3082              	.LASF155:
 3083 0094 64746772 		.ascii	"dtgrm_byte\000"
 3083      6D5F6279 
 3083      746500
 3084              	.LASF125:
 3085 009f 5F5F6C6F 		.ascii	"__locale_t\000"
 3085      63616C65 
 3085      5F7400
 3086              	.LASF116:
 3087 00aa 5F6D6272 		.ascii	"_mbrtowc_state\000"
 3087      746F7763 
 3087      5F737461 
 3087      746500
 3088              	.LASF149:
 3089 00b9 64746772 		.ascii	"dtgrm\000"
 3089      6D00
 3090              	.LASF35:
 3091 00bf 5F5F746D 		.ascii	"__tm_sec\000"
 3091      5F736563 
 3091      00
 3092              	.LASF129:
 3093 00c8 73657269 		.ascii	"serial_datagram_cb_t\000"
ARM GAS  C:\Users\PCHAUT~1\AppData\Local\Temp\ccspSFHu.s 			page 56


 3093      616C5F64 
 3093      61746167 
 3093      72616D5F 
 3093      63625F74 
 3094              	.LASF9:
 3095 00dd 6C6F6E67 		.ascii	"long long int\000"
 3095      206C6F6E 
 3095      6720696E 
 3095      7400
 3096              	.LASF0:
 3097 00eb 7369676E 		.ascii	"signed char\000"
 3097      65642063 
 3097      68617200 
 3098              	.LASF64:
 3099 00f7 5F756275 		.ascii	"_ubuf\000"
 3099      6600
 3100              	.LASF53:
 3101 00fd 5F626173 		.ascii	"_base\000"
 3101      6500
 3102              	.LASF37:
 3103 0103 5F5F746D 		.ascii	"__tm_hour\000"
 3103      5F686F75 
 3103      7200
 3104              	.LASF93:
 3105 010d 5F5F7366 		.ascii	"__sf\000"
 3105      00
 3106              	.LASF44:
 3107 0112 5F6F6E5F 		.ascii	"_on_exit_args\000"
 3107      65786974 
 3107      5F617267 
 3107      7300
 3108              	.LASF59:
 3109 0120 5F636F6F 		.ascii	"_cookie\000"
 3109      6B696500 
 3110              	.LASF92:
 3111 0128 5F5F7367 		.ascii	"__sglue\000"
 3111      6C756500 
 3112              	.LASF6:
 3113 0130 6C6F6E67 		.ascii	"long int\000"
 3113      20696E74 
 3113      00
 3114              	.LASF158:
 3115 0139 474E5520 		.ascii	"GNU C11 7.2.1 20170904 (release) [ARM/embedded-7-br"
 3115      43313120 
 3115      372E322E 
 3115      31203230 
 3115      31373039 
 3116 016c 616E6368 		.ascii	"anch revision 255204] -mcpu=cortex-m4 -mfloat-abi=h"
 3116      20726576 
 3116      6973696F 
 3116      6E203235 
 3116      35323034 
 3117 019f 61726420 		.ascii	"ard -mfpu=fpv4-sp-d16 -mno-thumb-interwork -mthumb "
 3117      2D6D6670 
 3117      753D6670 
 3117      76342D73 
 3117      702D6431 
ARM GAS  C:\Users\PCHAUT~1\AppData\Local\Temp\ccspSFHu.s 			page 57


 3118 01d2 2D676764 		.ascii	"-ggdb -O0 -fomit-frame-pointer -falign-functions=16"
 3118      62202D4F 
 3118      30202D66 
 3118      6F6D6974 
 3118      2D667261 
 3119 0205 202D666E 		.ascii	" -fno-strict-aliasing -fstack-protector-all -ffunct"
 3119      6F2D7374 
 3119      72696374 
 3119      2D616C69 
 3119      6173696E 
 3120 0238 696F6E2D 		.ascii	"ion-sections -fdata-sections -fno-common -fsingle-p"
 3120      73656374 
 3120      696F6E73 
 3120      202D6664 
 3120      6174612D 
 3121 026b 72656369 		.ascii	"recision-constant\000"
 3121      73696F6E 
 3121      2D636F6E 
 3121      7374616E 
 3121      7400
 3122              	.LASF56:
 3123 027d 5F666C61 		.ascii	"_flags\000"
 3123      677300
 3124              	.LASF48:
 3125 0284 5F69735F 		.ascii	"_is_cxa\000"
 3125      63786100 
 3126              	.LASF74:
 3127 028c 5F737464 		.ascii	"_stdin\000"
 3127      696E00
 3128              	.LASF66:
 3129 0293 5F626C6B 		.ascii	"_blksize\000"
 3129      73697A65 
 3129      00
 3130              	.LASF88:
 3131 029c 5F637674 		.ascii	"_cvtbuf\000"
 3131      62756600 
 3132              	.LASF67:
 3133 02a4 5F6F6666 		.ascii	"_offset\000"
 3133      73657400 
 3134              	.LASF117:
 3135 02ac 5F6D6273 		.ascii	"_mbsrtowcs_state\000"
 3135      72746F77 
 3135      63735F73 
 3135      74617465 
 3135      00
 3136              	.LASF115:
 3137 02bd 5F6D6272 		.ascii	"_mbrlen_state\000"
 3137      6C656E5F 
 3137      73746174 
 3137      6500
 3138              	.LASF45:
 3139 02cb 5F666E61 		.ascii	"_fnargs\000"
 3139      72677300 
 3140              	.LASF147:
 3141 02d3 73657269 		.ascii	"serial_datagram_rcv_handler_init\000"
 3141      616C5F64 
 3141      61746167 
ARM GAS  C:\Users\PCHAUT~1\AppData\Local\Temp\ccspSFHu.s 			page 58


 3141      72616D5F 
 3141      7263765F 
 3142              	.LASF51:
 3143 02f4 5F666E73 		.ascii	"_fns\000"
 3143      00
 3144              	.LASF7:
 3145 02f9 5F5F7569 		.ascii	"__uint32_t\000"
 3145      6E743332 
 3145      5F7400
 3146              	.LASF31:
 3147 0304 5F736967 		.ascii	"_sign\000"
 3147      6E00
 3148              	.LASF26:
 3149 030a 5F666C6F 		.ascii	"_flock_t\000"
 3149      636B5F74 
 3149      00
 3150              	.LASF76:
 3151 0313 5F737464 		.ascii	"_stderr\000"
 3151      65727200 
 3152              	.LASF33:
 3153 031b 5F426967 		.ascii	"_Bigint\000"
 3153      696E7400 
 3154              	.LASF106:
 3155 0323 5F67616D 		.ascii	"_gamma_signgam\000"
 3155      6D615F73 
 3155      69676E67 
 3155      616D00
 3156              	.LASF60:
 3157 0332 5F726561 		.ascii	"_read\000"
 3157      6400
 3158              	.LASF84:
 3159 0338 5F726573 		.ascii	"_result_k\000"
 3159      756C745F 
 3159      6B00
 3160              	.LASF34:
 3161 0342 5F5F746D 		.ascii	"__tm\000"
 3161      00
 3162              	.LASF153:
 3163 0347 6372635F 		.ascii	"crc_and_end\000"
 3163      616E645F 
 3163      656E6400 
 3164              	.LASF11:
 3165 0353 756E7369 		.ascii	"unsigned int\000"
 3165      676E6564 
 3165      20696E74 
 3165      00
 3166              	.LASF22:
 3167 0360 5F5F7763 		.ascii	"__wchb\000"
 3167      686200
 3168              	.LASF146:
 3169 0367 63625F61 		.ascii	"cb_arg\000"
 3169      726700
 3170              	.LASF75:
 3171 036e 5F737464 		.ascii	"_stdout\000"
 3171      6F757400 
 3172              	.LASF87:
 3173 0376 5F637674 		.ascii	"_cvtlen\000"
ARM GAS  C:\Users\PCHAUT~1\AppData\Local\Temp\ccspSFHu.s 			page 59


 3173      6C656E00 
 3174              	.LASF140:
 3175 037e 6573635F 		.ascii	"esc_esc\000"
 3175      65736300 
 3176              	.LASF157:
 3177 0386 636F6D70 		.ascii	"compute_crc\000"
 3177      7574655F 
 3177      63726300 
 3178              	.LASF8:
 3179 0392 6C6F6E67 		.ascii	"long unsigned int\000"
 3179      20756E73 
 3179      69676E65 
 3179      6420696E 
 3179      7400
 3180              	.LASF57:
 3181 03a4 5F66696C 		.ascii	"_file\000"
 3181      6500
 3182              	.LASF143:
 3183 03aa 64617461 		.ascii	"datagram_len\000"
 3183      6772616D 
 3183      5F6C656E 
 3183      00
 3184              	.LASF96:
 3185 03b7 5F6E696F 		.ascii	"_niobs\000"
 3185      627300
 3186              	.LASF131:
 3187 03be 73697A65 		.ascii	"size\000"
 3187      00
 3188              	.LASF3:
 3189 03c3 73686F72 		.ascii	"short unsigned int\000"
 3189      7420756E 
 3189      7369676E 
 3189      65642069 
 3189      6E7400
 3190              	.LASF133:
 3191 03d6 63616C6C 		.ascii	"callback_fn\000"
 3191      6261636B 
 3191      5F666E00 
 3192              	.LASF90:
 3193 03e2 5F617465 		.ascii	"_atexit0\000"
 3193      78697430 
 3193      00
 3194              	.LASF113:
 3195 03eb 5F736967 		.ascii	"_signal_buf\000"
 3195      6E616C5F 
 3195      62756600 
 3196              	.LASF104:
 3197 03f7 5F617363 		.ascii	"_asctime_buf\000"
 3197      74696D65 
 3197      5F627566 
 3197      00
 3198              	.LASF83:
 3199 0404 5F726573 		.ascii	"_result\000"
 3199      756C7400 
 3200              	.LASF21:
 3201 040c 5F5F7763 		.ascii	"__wch\000"
 3201      6800
ARM GAS  C:\Users\PCHAUT~1\AppData\Local\Temp\ccspSFHu.s 			page 60


 3202              	.LASF136:
 3203 0412 6573635F 		.ascii	"esc_flag\000"
 3203      666C6167 
 3203      00
 3204              	.LASF17:
 3205 041b 5F4C4F43 		.ascii	"_LOCK_T\000"
 3205      4B5F5400 
 3206              	.LASF20:
 3207 0423 77696E74 		.ascii	"wint_t\000"
 3207      5F7400
 3208              	.LASF69:
 3209 042a 5F6C6F63 		.ascii	"_lock\000"
 3209      6B00
 3210              	.LASF150:
 3211 0430 73656E64 		.ascii	"send_fn\000"
 3211      5F666E00 
 3212              	.LASF71:
 3213 0438 5F666C61 		.ascii	"_flags2\000"
 3213      67733200 
 3214              	.LASF61:
 3215 0440 5F777269 		.ascii	"_write\000"
 3215      746500
 3216              	.LASF40:
 3217 0447 5F5F746D 		.ascii	"__tm_year\000"
 3217      5F796561 
 3217      7200
 3218              	.LASF122:
 3219 0451 5F6E6D61 		.ascii	"_nmalloc\000"
 3219      6C6C6F63 
 3219      00
 3220              	.LASF16:
 3221 045a 6C6F6E67 		.ascii	"long double\000"
 3221      20646F75 
 3221      626C6500 
 3222              	.LASF121:
 3223 0466 5F6E6578 		.ascii	"_nextf\000"
 3223      746600
 3224              	.LASF39:
 3225 046d 5F5F746D 		.ascii	"__tm_mon\000"
 3225      5F6D6F6E 
 3225      00
 3226              	.LASF49:
 3227 0476 5F617465 		.ascii	"_atexit\000"
 3227      78697400 
 3228              	.LASF128:
 3229 047e 7375626F 		.ascii	"suboptarg\000"
 3229      70746172 
 3229      6700
 3230              	.LASF81:
 3231 0488 5F5F7364 		.ascii	"__sdidinit\000"
 3231      6964696E 
 3231      697400
 3232              	.LASF18:
 3233 0493 5F6F6666 		.ascii	"_off_t\000"
 3233      5F7400
 3234              	.LASF141:
 3235 049a 72656164 		.ascii	"read\000"
ARM GAS  C:\Users\PCHAUT~1\AppData\Local\Temp\ccspSFHu.s 			page 61


 3235      00
 3236              	.LASF154:
 3237 049f 73657269 		.ascii	"serial_datagram_send_chunk\000"
 3237      616C5F64 
 3237      61746167 
 3237      72616D5F 
 3237      73656E64 
 3238              	.LASF86:
 3239 04ba 5F667265 		.ascii	"_freelist\000"
 3239      656C6973 
 3239      7400
 3240              	.LASF111:
 3241 04c4 5F776374 		.ascii	"_wctomb_state\000"
 3241      6F6D625F 
 3241      73746174 
 3241      6500
 3242              	.LASF161:
 3243 04d2 73657269 		.ascii	"serial_datagram_receive\000"
 3243      616C5F64 
 3243      61746167 
 3243      72616D5F 
 3243      72656365 
 3244              	.LASF137:
 3245 04ea 5F426F6F 		.ascii	"_Bool\000"
 3245      6C00
 3246              	.LASF13:
 3247 04f0 696E7433 		.ascii	"int32_t\000"
 3247      325F7400 
 3248              	.LASF1:
 3249 04f8 756E7369 		.ascii	"unsigned char\000"
 3249      676E6564 
 3249      20636861 
 3249      7200
 3250              	.LASF89:
 3251 0506 5F6E6577 		.ascii	"_new\000"
 3251      00
 3252              	.LASF120:
 3253 050b 5F685F65 		.ascii	"_h_errno\000"
 3253      72726E6F 
 3253      00
 3254              	.LASF2:
 3255 0514 73686F72 		.ascii	"short int\000"
 3255      7420696E 
 3255      7400
 3256              	.LASF42:
 3257 051e 5F5F746D 		.ascii	"__tm_yday\000"
 3257      5F796461 
 3257      7900
 3258              	.LASF52:
 3259 0528 5F5F7362 		.ascii	"__sbuf\000"
 3259      756600
 3260              	.LASF97:
 3261 052f 5F696F62 		.ascii	"_iobs\000"
 3261      7300
 3262              	.LASF94:
 3263 0535 5F5F4649 		.ascii	"__FILE\000"
 3263      4C4500
ARM GAS  C:\Users\PCHAUT~1\AppData\Local\Temp\ccspSFHu.s 			page 62


 3264              	.LASF25:
 3265 053c 5F6D6273 		.ascii	"_mbstate_t\000"
 3265      74617465 
 3265      5F7400
 3266              	.LASF55:
 3267 0547 5F5F7346 		.ascii	"__sFILE\000"
 3267      494C4500 
 3268              	.LASF70:
 3269 054f 5F6D6273 		.ascii	"_mbstate\000"
 3269      74617465 
 3269      00
 3270              	.LASF107:
 3271 0558 5F72616E 		.ascii	"_rand_next\000"
 3271      645F6E65 
 3271      787400
 3272              	.LASF130:
 3273 0563 62756666 		.ascii	"buffer\000"
 3273      657200
 3274              	.LASF144:
 3275 056a 72656365 		.ascii	"received_crc\000"
 3275      69766564 
 3275      5F637263 
 3275      00
 3276              	.LASF109:
 3277 0577 5F6D626C 		.ascii	"_mblen_state\000"
 3277      656E5F73 
 3277      74617465 
 3277      00
 3278              	.LASF77:
 3279 0584 5F696E63 		.ascii	"_inc\000"
 3279      00
 3280              	.LASF50:
 3281 0589 5F696E64 		.ascii	"_ind\000"
 3281      00
 3282              	.LASF160:
 3283 058e 433A5C55 		.ascii	"C:\\Users\\Pchautems\\Documents\\RobotiqueTP\\Proje"
 3283      73657273 
 3283      5C506368 
 3283      61757465 
 3283      6D735C44 
 3284 05bc 745C6D69 		.ascii	"t\\miniprojet\000"
 3284      6E697072 
 3284      6F6A6574 
 3284      00
 3285              	.LASF80:
 3286 05c9 5F6C6F63 		.ascii	"_locale\000"
 3286      616C6500 
 3287              	.LASF82:
 3288 05d1 5F5F636C 		.ascii	"__cleanup\000"
 3288      65616E75 
 3288      7000
 3289              	.LASF79:
 3290 05db 5F756E73 		.ascii	"_unspecified_locale_info\000"
 3290      70656369 
 3290      66696564 
 3290      5F6C6F63 
 3290      616C655F 
ARM GAS  C:\Users\PCHAUT~1\AppData\Local\Temp\ccspSFHu.s 			page 63


 3291              	.LASF30:
 3292 05f4 5F6D6178 		.ascii	"_maxwds\000"
 3292      77647300 
 3293              	.LASF72:
 3294 05fc 5F726565 		.ascii	"_reent\000"
 3294      6E7400
 3295              	.LASF99:
 3296 0603 5F736565 		.ascii	"_seed\000"
 3296      6400
 3297              	.LASF23:
 3298 0609 5F5F636F 		.ascii	"__count\000"
 3298      756E7400 
 3299              	.LASF124:
 3300 0611 5F5F6C6F 		.ascii	"__lock\000"
 3300      636B00
 3301              	.LASF14:
 3302 0618 75696E74 		.ascii	"uint32_t\000"
 3302      33325F74 
 3302      00
 3303              	.LASF62:
 3304 0621 5F736565 		.ascii	"_seek\000"
 3304      6B00
 3305              	.LASF126:
 3306 0627 5F696D70 		.ascii	"_impure_ptr\000"
 3306      7572655F 
 3306      70747200 
 3307              	.LASF19:
 3308 0633 5F66706F 		.ascii	"_fpos_t\000"
 3308      735F7400 
 3309              	.LASF73:
 3310 063b 5F657272 		.ascii	"_errno\000"
 3310      6E6F00
 3311              	.LASF27:
 3312 0642 63686172 		.ascii	"char\000"
 3312      00
 3313              	.LASF36:
 3314 0647 5F5F746D 		.ascii	"__tm_min\000"
 3314      5F6D696E 
 3314      00
 3315              	.LASF148:
 3316 0650 73657269 		.ascii	"serial_datagram_send\000"
 3316      616C5F64 
 3316      61746167 
 3316      72616D5F 
 3316      73656E64 
 3317              	.LASF152:
 3318 0665 73657269 		.ascii	"serial_datagram_send_end\000"
 3318      616C5F64 
 3318      61746167 
 3318      72616D5F 
 3318      73656E64 
 3319              	.LASF132:
 3320 067e 77726974 		.ascii	"write_index\000"
 3320      655F696E 
 3320      64657800 
 3321              	.LASF5:
 3322 068a 5F5F696E 		.ascii	"__int32_t\000"
ARM GAS  C:\Users\PCHAUT~1\AppData\Local\Temp\ccspSFHu.s 			page 64


 3322      7433325F 
 3322      7400
 3323              	.LASF100:
 3324 0694 5F6D756C 		.ascii	"_mult\000"
 3324      7400
 3325              	.LASF29:
 3326 069a 5F6E6578 		.ascii	"_next\000"
 3326      7400
 3327              	.LASF103:
 3328 06a0 5F737472 		.ascii	"_strtok_last\000"
 3328      746F6B5F 
 3328      6C617374 
 3328      00
 3329              	.LASF24:
 3330 06ad 5F5F7661 		.ascii	"__value\000"
 3330      6C756500 
 3331              	.LASF47:
 3332 06b5 5F666E74 		.ascii	"_fntypes\000"
 3332      79706573 
 3332      00
 3333              	.LASF101:
 3334 06be 5F616464 		.ascii	"_add\000"
 3334      00
 3335              	.LASF28:
 3336 06c3 5F5F554C 		.ascii	"__ULong\000"
 3336      6F6E6700 
 3337              	.LASF114:
 3338 06cb 5F676574 		.ascii	"_getdate_err\000"
 3338      64617465 
 3338      5F657272 
 3338      00
 3339              	.LASF127:
 3340 06d8 5F676C6F 		.ascii	"_global_impure_ptr\000"
 3340      62616C5F 
 3340      696D7075 
 3340      72655F70 
 3340      747200
 3341              	.LASF135:
 3342 06eb 6572726F 		.ascii	"error_flag\000"
 3342      725F666C 
 3342      616700
 3343              	.LASF102:
 3344 06f6 5F756E75 		.ascii	"_unused_rand\000"
 3344      7365645F 
 3344      72616E64 
 3344      00
 3345              	.LASF145:
 3346 0703 63625F66 		.ascii	"cb_fn\000"
 3346      6E00
 3347              	.LASF138:
 3348 0709 73657269 		.ascii	"serial_datagram_rcv_handler_t\000"
 3348      616C5F64 
 3348      61746167 
 3348      72616D5F 
 3348      7263765F 
 3349              	.LASF32:
 3350 0727 5F776473 		.ascii	"_wds\000"
ARM GAS  C:\Users\PCHAUT~1\AppData\Local\Temp\ccspSFHu.s 			page 65


 3350      00
 3351              	.LASF41:
 3352 072c 5F5F746D 		.ascii	"__tm_wday\000"
 3352      5F776461 
 3352      7900
 3353              	.LASF95:
 3354 0736 5F676C75 		.ascii	"_glue\000"
 3354      6500
 3355              	.LASF139:
 3356 073c 6573635F 		.ascii	"esc_end\000"
 3356      656E6400 
 3357              	.LASF12:
 3358 0744 75696E74 		.ascii	"uint8_t\000"
 3358      385F7400 
 3359              	.LASF112:
 3360 074c 5F6C3634 		.ascii	"_l64a_buf\000"
 3360      615F6275 
 3360      6600
 3361              	.LASF151:
 3362 0756 73656E64 		.ascii	"sendarg\000"
 3362      61726700 
 3363              	.LASF91:
 3364 075e 5F736967 		.ascii	"_sig_func\000"
 3364      5F66756E 
 3364      6300
 3365              	.LASF65:
 3366 0768 5F6E6275 		.ascii	"_nbuf\000"
 3366      6600
 3367              	.LASF123:
 3368 076e 5F756E75 		.ascii	"_unused\000"
 3368      73656400 
 3369              	.LASF43:
 3370 0776 5F5F746D 		.ascii	"__tm_isdst\000"
 3370      5F697364 
 3370      737400
 3371              	.LASF105:
 3372 0781 5F6C6F63 		.ascii	"_localtime_buf\000"
 3372      616C7469 
 3372      6D655F62 
 3372      756600
 3373              	.LASF156:
 3374 0790 7263765F 		.ascii	"rcv_handler_reset\000"
 3374      68616E64 
 3374      6C65725F 
 3374      72657365 
 3374      7400
 3375              	.LASF63:
 3376 07a2 5F636C6F 		.ascii	"_close\000"
 3376      736500
 3377              	.LASF108:
 3378 07a9 5F723438 		.ascii	"_r48\000"
 3378      00
 3379              	.LASF110:
 3380 07ae 5F6D6274 		.ascii	"_mbtowc_state\000"
 3380      6F77635F 
 3380      73746174 
 3380      6500
ARM GAS  C:\Users\PCHAUT~1\AppData\Local\Temp\ccspSFHu.s 			page 66


 3381              	.LASF85:
 3382 07bc 5F703573 		.ascii	"_p5s\000"
 3382      00
 3383              	.LASF159:
 3384 07c1 2E2E2F6C 		.ascii	"../lib/e-puck2_main-processor/src/serial-datagram/s"
 3384      69622F65 
 3384      2D707563 
 3384      6B325F6D 
 3384      61696E2D 
 3385 07f4 65726961 		.ascii	"erial_datagram.c\000"
 3385      6C5F6461 
 3385      74616772 
 3385      616D2E63 
 3385      00
 3386              	.LASF38:
 3387 0805 5F5F746D 		.ascii	"__tm_mday\000"
 3387      5F6D6461 
 3387      7900
 3388              		.ident	"GCC: (GNU Tools for Arm Embedded Processors 7-2017-q4-major) 7.2.1 20170904 (release) [ARM
ARM GAS  C:\Users\PCHAUT~1\AppData\Local\Temp\ccspSFHu.s 			page 67


DEFINED SYMBOLS
                            *ABS*:00000000 serial_datagram.c
C:\Users\PCHAUT~1\AppData\Local\Temp\ccspSFHu.s:18     .text.compute_crc:00000000 $t
C:\Users\PCHAUT~1\AppData\Local\Temp\ccspSFHu.s:25     .text.compute_crc:00000000 compute_crc
C:\Users\PCHAUT~1\AppData\Local\Temp\ccspSFHu.s:65     .text.compute_crc:00000030 $d
C:\Users\PCHAUT~1\AppData\Local\Temp\ccspSFHu.s:70     .rodata.esc_end:00000000 $d
C:\Users\PCHAUT~1\AppData\Local\Temp\ccspSFHu.s:73     .rodata.esc_end:00000000 esc_end
C:\Users\PCHAUT~1\AppData\Local\Temp\ccspSFHu.s:77     .rodata.esc_esc:00000000 $d
C:\Users\PCHAUT~1\AppData\Local\Temp\ccspSFHu.s:80     .rodata.esc_esc:00000000 esc_esc
C:\Users\PCHAUT~1\AppData\Local\Temp\ccspSFHu.s:84     .text.serial_datagram_send_chunk:00000000 $t
C:\Users\PCHAUT~1\AppData\Local\Temp\ccspSFHu.s:92     .text.serial_datagram_send_chunk:00000000 serial_datagram_send_chunk
C:\Users\PCHAUT~1\AppData\Local\Temp\ccspSFHu.s:232    .text.serial_datagram_send_chunk:000000cc $d
C:\Users\PCHAUT~1\AppData\Local\Temp\ccspSFHu.s:239    .text.serial_datagram_send_end:00000000 $t
C:\Users\PCHAUT~1\AppData\Local\Temp\ccspSFHu.s:247    .text.serial_datagram_send_end:00000000 serial_datagram_send_end
C:\Users\PCHAUT~1\AppData\Local\Temp\ccspSFHu.s:375    .text.serial_datagram_send_end:000000d0 $d
C:\Users\PCHAUT~1\AppData\Local\Temp\ccspSFHu.s:380    .text.serial_datagram_send:00000000 $t
C:\Users\PCHAUT~1\AppData\Local\Temp\ccspSFHu.s:388    .text.serial_datagram_send:00000000 serial_datagram_send
C:\Users\PCHAUT~1\AppData\Local\Temp\ccspSFHu.s:440    .text.serial_datagram_send:00000048 $d
C:\Users\PCHAUT~1\AppData\Local\Temp\ccspSFHu.s:445    .text.rcv_handler_reset:00000000 $t
C:\Users\PCHAUT~1\AppData\Local\Temp\ccspSFHu.s:452    .text.rcv_handler_reset:00000000 rcv_handler_reset
C:\Users\PCHAUT~1\AppData\Local\Temp\ccspSFHu.s:496    .text.rcv_handler_reset:00000034 $d
C:\Users\PCHAUT~1\AppData\Local\Temp\ccspSFHu.s:501    .text.serial_datagram_rcv_handler_init:00000000 $t
C:\Users\PCHAUT~1\AppData\Local\Temp\ccspSFHu.s:509    .text.serial_datagram_rcv_handler_init:00000000 serial_datagram_rcv_handler_init
C:\Users\PCHAUT~1\AppData\Local\Temp\ccspSFHu.s:565    .text.serial_datagram_rcv_handler_init:0000004c $d
C:\Users\PCHAUT~1\AppData\Local\Temp\ccspSFHu.s:570    .text.serial_datagram_receive:00000000 $t
C:\Users\PCHAUT~1\AppData\Local\Temp\ccspSFHu.s:578    .text.serial_datagram_receive:00000000 serial_datagram_receive
C:\Users\PCHAUT~1\AppData\Local\Temp\ccspSFHu.s:843    .text.serial_datagram_receive:0000018c $d

UNDEFINED SYMBOLS
crc32
__stack_chk_fail
__stack_chk_guard
