ARM GAS  C:\Users\PCHAUT~1\AppData\Local\Temp\ccspSFHu.s 			page 1


   1              		.cpu cortex-m4
   2              		.eabi_attribute 27, 1
   3              		.eabi_attribute 28, 1
   4              		.eabi_attribute 20, 1
   5              		.eabi_attribute 21, 1
   6              		.eabi_attribute 23, 3
   7              		.eabi_attribute 24, 1
   8              		.eabi_attribute 25, 1
   9              		.eabi_attribute 26, 1
  10              		.eabi_attribute 30, 6
  11              		.eabi_attribute 34, 1
  12              		.eabi_attribute 18, 4
  13              		.file	"serial_datagram.c"
  14              		.text
  15              	.Ltext0:
  16              		.cfi_sections	.debug_frame
  17              		.section	.text.compute_crc,"ax",%progbits
  18              		.align	1
  19              		.p2align 4,,15
  20              		.syntax unified
  21              		.thumb
  22              		.thumb_func
  23              		.fpu fpv4-sp-d16
  24              		.type	compute_crc, %function
  25              	compute_crc:
  26              	.LFB0:
  27              		.file 1 "../lib/e-puck2_main-processor/src/serial-datagram/serial_datagram.c"
  28              		.loc 1 13 0
  29              		.cfi_startproc
  30              		@ args = 0, pretend = 0, frame = 16
  31              		@ frame_needed = 0, uses_anonymous_args = 0
  32 0000 00B5     		push	{lr}
  33              		.cfi_def_cfa_offset 4
  34              		.cfi_offset 14, -4
  35 0002 85B0     		sub	sp, sp, #20
  36              		.cfi_def_cfa_offset 24
  37 0004 0190     		str	r0, [sp, #4]
  38 0006 0091     		str	r1, [sp]
  39              		.loc 1 13 0
  40 0008 094B     		ldr	r3, .L4
  41 000a 1B68     		ldr	r3, [r3]
  42 000c 0393     		str	r3, [sp, #12]
  43              		.loc 1 14 0
  44 000e 009A     		ldr	r2, [sp]
  45 0010 0199     		ldr	r1, [sp, #4]
  46 0012 0020     		movs	r0, #0
  47 0014 FFF7FEFF 		bl	crc32
  48 0018 0346     		mov	r3, r0
  49              		.loc 1 15 0
  50 001a 1846     		mov	r0, r3
  51 001c 044B     		ldr	r3, .L4
  52 001e 039A     		ldr	r2, [sp, #12]
  53 0020 1B68     		ldr	r3, [r3]
  54 0022 9A42     		cmp	r2, r3
  55 0024 01D0     		beq	.L3
  56 0026 FFF7FEFF 		bl	__stack_chk_fail
  57              	.L3:
ARM GAS  C:\Users\PCHAUT~1\AppData\Local\Temp\ccspSFHu.s 			page 2


  58 002a 05B0     		add	sp, sp, #20
  59              		.cfi_def_cfa_offset 4
  60              		@ sp needed
  61 002c 5DF804FB 		ldr	pc, [sp], #4
  62              	.L5:
  63              		.align	2
  64              	.L4:
  65 0030 00000000 		.word	__stack_chk_guard
  66              		.cfi_endproc
  67              	.LFE0:
  68              		.size	compute_crc, .-compute_crc
  69              		.section	.rodata.esc_end,"a",%progbits
  70              		.align	2
  71              		.type	esc_end, %object
  72              		.size	esc_end, 2
  73              	esc_end:
  74 0000 DB       		.byte	-37
  75 0001 DC       		.byte	-36
  76              		.section	.rodata.esc_esc,"a",%progbits
  77              		.align	2
  78              		.type	esc_esc, %object
  79              		.size	esc_esc, 2
  80              	esc_esc:
  81 0000 DB       		.byte	-37
  82 0001 DD       		.byte	-35
  83              		.section	.text.serial_datagram_send_chunk,"ax",%progbits
  84              		.align	1
  85              		.p2align 4,,15
  86              		.global	serial_datagram_send_chunk
  87              		.syntax unified
  88              		.thumb
  89              		.thumb_func
  90              		.fpu fpv4-sp-d16
  91              		.type	serial_datagram_send_chunk, %function
  92              	serial_datagram_send_chunk:
  93              	.LFB1:
  94              		.loc 1 22 0
  95              		.cfi_startproc
  96              		@ args = 4, pretend = 0, frame = 40
  97              		@ frame_needed = 0, uses_anonymous_args = 0
  98 0000 00B5     		push	{lr}
  99              		.cfi_def_cfa_offset 4
 100              		.cfi_offset 14, -4
 101 0002 8BB0     		sub	sp, sp, #44
 102              		.cfi_def_cfa_offset 48
 103 0004 0590     		str	r0, [sp, #20]
 104 0006 0491     		str	r1, [sp, #16]
 105 0008 0392     		str	r2, [sp, #12]
 106 000a 0293     		str	r3, [sp, #8]
 107 000c 0C9B     		ldr	r3, [sp, #48]
 108 000e 0193     		str	r3, [sp, #4]
 109              		.loc 1 22 0
 110 0010 2E4B     		ldr	r3, .L12
 111 0012 1B68     		ldr	r3, [r3]
 112 0014 0993     		str	r3, [sp, #36]
 113              		.loc 1 23 0
 114 0016 059B     		ldr	r3, [sp, #20]
ARM GAS  C:\Users\PCHAUT~1\AppData\Local\Temp\ccspSFHu.s 			page 3


 115 0018 0893     		str	r3, [sp, #32]
 116              		.loc 1 25 0
 117 001a 0023     		movs	r3, #0
 118 001c 0693     		str	r3, [sp, #24]
 119 001e 0023     		movs	r3, #0
 120 0020 0793     		str	r3, [sp, #28]
 121              		.loc 1 26 0
 122 0022 31E0     		b	.L7
 123              	.L10:
 124              		.loc 1 27 0
 125 0024 089A     		ldr	r2, [sp, #32]
 126 0026 079B     		ldr	r3, [sp, #28]
 127 0028 1344     		add	r3, r3, r2
 128 002a 1B78     		ldrb	r3, [r3]	@ zero_extendqisi2
 129 002c C02B     		cmp	r3, #192
 130 002e 11D1     		bne	.L8
 131              		.loc 1 28 0
 132 0030 089A     		ldr	r2, [sp, #32]
 133 0032 069B     		ldr	r3, [sp, #24]
 134 0034 D118     		adds	r1, r2, r3
 135 0036 079A     		ldr	r2, [sp, #28]
 136 0038 069B     		ldr	r3, [sp, #24]
 137 003a D21A     		subs	r2, r2, r3
 138 003c 029B     		ldr	r3, [sp, #8]
 139 003e 0198     		ldr	r0, [sp, #4]
 140 0040 9847     		blx	r3
 141              	.LVL0:
 142              		.loc 1 29 0
 143 0042 029B     		ldr	r3, [sp, #8]
 144 0044 0222     		movs	r2, #2
 145 0046 2249     		ldr	r1, .L12+4
 146 0048 0198     		ldr	r0, [sp, #4]
 147 004a 9847     		blx	r3
 148              	.LVL1:
 149              		.loc 1 30 0
 150 004c 079B     		ldr	r3, [sp, #28]
 151 004e 0133     		adds	r3, r3, #1
 152 0050 0693     		str	r3, [sp, #24]
 153 0052 16E0     		b	.L9
 154              	.L8:
 155              		.loc 1 31 0
 156 0054 089A     		ldr	r2, [sp, #32]
 157 0056 079B     		ldr	r3, [sp, #28]
 158 0058 1344     		add	r3, r3, r2
 159 005a 1B78     		ldrb	r3, [r3]	@ zero_extendqisi2
 160 005c DB2B     		cmp	r3, #219
 161 005e 10D1     		bne	.L9
 162              		.loc 1 32 0
 163 0060 089A     		ldr	r2, [sp, #32]
 164 0062 069B     		ldr	r3, [sp, #24]
 165 0064 D118     		adds	r1, r2, r3
 166 0066 079A     		ldr	r2, [sp, #28]
 167 0068 069B     		ldr	r3, [sp, #24]
 168 006a D21A     		subs	r2, r2, r3
 169 006c 029B     		ldr	r3, [sp, #8]
 170 006e 0198     		ldr	r0, [sp, #4]
 171 0070 9847     		blx	r3
ARM GAS  C:\Users\PCHAUT~1\AppData\Local\Temp\ccspSFHu.s 			page 4


 172              	.LVL2:
 173              		.loc 1 33 0
 174 0072 029B     		ldr	r3, [sp, #8]
 175 0074 0222     		movs	r2, #2
 176 0076 1749     		ldr	r1, .L12+8
 177 0078 0198     		ldr	r0, [sp, #4]
 178 007a 9847     		blx	r3
 179              	.LVL3:
 180              		.loc 1 34 0
 181 007c 079B     		ldr	r3, [sp, #28]
 182 007e 0133     		adds	r3, r3, #1
 183 0080 0693     		str	r3, [sp, #24]
 184              	.L9:
 185              		.loc 1 36 0
 186 0082 079B     		ldr	r3, [sp, #28]
 187 0084 0133     		adds	r3, r3, #1
 188 0086 0793     		str	r3, [sp, #28]
 189              	.L7:
 190              		.loc 1 26 0
 191 0088 079A     		ldr	r2, [sp, #28]
 192 008a 049B     		ldr	r3, [sp, #16]
 193 008c 9A42     		cmp	r2, r3
 194 008e C9D3     		bcc	.L10
 195              		.loc 1 38 0
 196 0090 089A     		ldr	r2, [sp, #32]
 197 0092 069B     		ldr	r3, [sp, #24]
 198 0094 D118     		adds	r1, r2, r3
 199 0096 079A     		ldr	r2, [sp, #28]
 200 0098 069B     		ldr	r3, [sp, #24]
 201 009a D21A     		subs	r2, r2, r3
 202 009c 029B     		ldr	r3, [sp, #8]
 203 009e 0198     		ldr	r0, [sp, #4]
 204 00a0 9847     		blx	r3
 205              	.LVL4:
 206              		.loc 1 41 0
 207 00a2 039B     		ldr	r3, [sp, #12]
 208 00a4 1B68     		ldr	r3, [r3]
 209 00a6 049A     		ldr	r2, [sp, #16]
 210 00a8 0599     		ldr	r1, [sp, #20]
 211 00aa 1846     		mov	r0, r3
 212 00ac FFF7FEFF 		bl	crc32
 213 00b0 0246     		mov	r2, r0
 214 00b2 039B     		ldr	r3, [sp, #12]
 215 00b4 1A60     		str	r2, [r3]
 216              		.loc 1 42 0
 217 00b6 00BF     		nop
 218 00b8 044B     		ldr	r3, .L12
 219 00ba 099A     		ldr	r2, [sp, #36]
 220 00bc 1B68     		ldr	r3, [r3]
 221 00be 9A42     		cmp	r2, r3
 222 00c0 01D0     		beq	.L11
 223 00c2 FFF7FEFF 		bl	__stack_chk_fail
 224              	.L11:
 225 00c6 0BB0     		add	sp, sp, #44
 226              		.cfi_def_cfa_offset 4
 227              		@ sp needed
 228 00c8 5DF804FB 		ldr	pc, [sp], #4
ARM GAS  C:\Users\PCHAUT~1\AppData\Local\Temp\ccspSFHu.s 			page 5


 229              	.L13:
 230              		.align	2
 231              	.L12:
 232 00cc 00000000 		.word	__stack_chk_guard
 233 00d0 00000000 		.word	esc_end
 234 00d4 00000000 		.word	esc_esc
 235              		.cfi_endproc
 236              	.LFE1:
 237              		.size	serial_datagram_send_chunk, .-serial_datagram_send_chunk
 238              		.section	.text.serial_datagram_send_end,"ax",%progbits
 239              		.align	1
 240              		.p2align 4,,15
 241              		.global	serial_datagram_send_end
 242              		.syntax unified
 243              		.thumb
 244              		.thumb_func
 245              		.fpu fpv4-sp-d16
 246              		.type	serial_datagram_send_end, %function
 247              	serial_datagram_send_end:
 248              	.LFB2:
 249              		.loc 1 46 0
 250              		.cfi_startproc
 251              		@ args = 0, pretend = 0, frame = 40
 252              		@ frame_needed = 0, uses_anonymous_args = 0
 253 0000 00B5     		push	{lr}
 254              		.cfi_def_cfa_offset 4
 255              		.cfi_offset 14, -4
 256 0002 8BB0     		sub	sp, sp, #44
 257              		.cfi_def_cfa_offset 48
 258 0004 0390     		str	r0, [sp, #12]
 259 0006 0291     		str	r1, [sp, #8]
 260 0008 0192     		str	r2, [sp, #4]
 261              		.loc 1 46 0
 262 000a 314B     		ldr	r3, .L21
 263 000c 1B68     		ldr	r3, [r3]
 264 000e 0993     		str	r3, [sp, #36]
 265              		.loc 1 49 0
 266 0010 0023     		movs	r3, #0
 267 0012 0493     		str	r3, [sp, #16]
 268              		.loc 1 51 0
 269 0014 1823     		movs	r3, #24
 270 0016 0593     		str	r3, [sp, #20]
 271 0018 3EE0     		b	.L15
 272              	.L19:
 273              		.loc 1 52 0
 274 001a 039A     		ldr	r2, [sp, #12]
 275 001c 059B     		ldr	r3, [sp, #20]
 276 001e 22FA03F3 		lsr	r3, r2, r3
 277 0022 DBB2     		uxtb	r3, r3
 278 0024 DB2B     		cmp	r3, #219
 279 0026 10D1     		bne	.L16
 280              		.loc 1 53 0
 281 0028 049B     		ldr	r3, [sp, #16]
 282 002a 5A1C     		adds	r2, r3, #1
 283 002c 0492     		str	r2, [sp, #16]
 284 002e DB22     		movs	r2, #219
 285 0030 0AA9     		add	r1, sp, #40
ARM GAS  C:\Users\PCHAUT~1\AppData\Local\Temp\ccspSFHu.s 			page 6


 286 0032 0B44     		add	r3, r3, r1
 287 0034 03F8102C 		strb	r2, [r3, #-16]
 288              		.loc 1 54 0
 289 0038 049B     		ldr	r3, [sp, #16]
 290 003a 5A1C     		adds	r2, r3, #1
 291 003c 0492     		str	r2, [sp, #16]
 292 003e DD22     		movs	r2, #221
 293 0040 0AA9     		add	r1, sp, #40
 294 0042 0B44     		add	r3, r3, r1
 295 0044 03F8102C 		strb	r2, [r3, #-16]
 296 0048 23E0     		b	.L17
 297              	.L16:
 298              		.loc 1 55 0
 299 004a 039A     		ldr	r2, [sp, #12]
 300 004c 059B     		ldr	r3, [sp, #20]
 301 004e 22FA03F3 		lsr	r3, r2, r3
 302 0052 DBB2     		uxtb	r3, r3
 303 0054 C02B     		cmp	r3, #192
 304 0056 10D1     		bne	.L18
 305              		.loc 1 56 0
 306 0058 049B     		ldr	r3, [sp, #16]
 307 005a 5A1C     		adds	r2, r3, #1
 308 005c 0492     		str	r2, [sp, #16]
 309 005e DB22     		movs	r2, #219
 310 0060 0AA9     		add	r1, sp, #40
 311 0062 0B44     		add	r3, r3, r1
 312 0064 03F8102C 		strb	r2, [r3, #-16]
 313              		.loc 1 57 0
 314 0068 049B     		ldr	r3, [sp, #16]
 315 006a 5A1C     		adds	r2, r3, #1
 316 006c 0492     		str	r2, [sp, #16]
 317 006e DC22     		movs	r2, #220
 318 0070 0AA9     		add	r1, sp, #40
 319 0072 0B44     		add	r3, r3, r1
 320 0074 03F8102C 		strb	r2, [r3, #-16]
 321 0078 0BE0     		b	.L17
 322              	.L18:
 323              		.loc 1 59 0
 324 007a 039A     		ldr	r2, [sp, #12]
 325 007c 059B     		ldr	r3, [sp, #20]
 326 007e 22FA03F1 		lsr	r1, r2, r3
 327 0082 049B     		ldr	r3, [sp, #16]
 328 0084 5A1C     		adds	r2, r3, #1
 329 0086 0492     		str	r2, [sp, #16]
 330 0088 CAB2     		uxtb	r2, r1
 331 008a 0AA9     		add	r1, sp, #40
 332 008c 0B44     		add	r3, r3, r1
 333 008e 03F8102C 		strb	r2, [r3, #-16]
 334              	.L17:
 335              		.loc 1 51 0 discriminator 2
 336 0092 059B     		ldr	r3, [sp, #20]
 337 0094 083B     		subs	r3, r3, #8
 338 0096 0593     		str	r3, [sp, #20]
 339              	.L15:
 340              		.loc 1 51 0 is_stmt 0 discriminator 1
 341 0098 059B     		ldr	r3, [sp, #20]
 342 009a 002B     		cmp	r3, #0
ARM GAS  C:\Users\PCHAUT~1\AppData\Local\Temp\ccspSFHu.s 			page 7


 343 009c BDDA     		bge	.L19
 344              		.loc 1 62 0 is_stmt 1
 345 009e 049B     		ldr	r3, [sp, #16]
 346 00a0 5A1C     		adds	r2, r3, #1
 347 00a2 0492     		str	r2, [sp, #16]
 348 00a4 0AAA     		add	r2, sp, #40
 349 00a6 1344     		add	r3, r3, r2
 350 00a8 C022     		movs	r2, #192
 351 00aa 03F8102C 		strb	r2, [r3, #-16]
 352              		.loc 1 63 0
 353 00ae 06A9     		add	r1, sp, #24
 354 00b0 029B     		ldr	r3, [sp, #8]
 355 00b2 049A     		ldr	r2, [sp, #16]
 356 00b4 0198     		ldr	r0, [sp, #4]
 357 00b6 9847     		blx	r3
 358              	.LVL5:
 359              		.loc 1 64 0
 360 00b8 00BF     		nop
 361 00ba 054B     		ldr	r3, .L21
 362 00bc 099A     		ldr	r2, [sp, #36]
 363 00be 1B68     		ldr	r3, [r3]
 364 00c0 9A42     		cmp	r2, r3
 365 00c2 01D0     		beq	.L20
 366 00c4 FFF7FEFF 		bl	__stack_chk_fail
 367              	.L20:
 368 00c8 0BB0     		add	sp, sp, #44
 369              		.cfi_def_cfa_offset 4
 370              		@ sp needed
 371 00ca 5DF804FB 		ldr	pc, [sp], #4
 372              	.L22:
 373 00ce 00BF     		.align	2
 374              	.L21:
 375 00d0 00000000 		.word	__stack_chk_guard
 376              		.cfi_endproc
 377              	.LFE2:
 378              		.size	serial_datagram_send_end, .-serial_datagram_send_end
 379              		.section	.text.serial_datagram_send,"ax",%progbits
 380              		.align	1
 381              		.p2align 4,,15
 382              		.global	serial_datagram_send
 383              		.syntax unified
 384              		.thumb
 385              		.thumb_func
 386              		.fpu fpv4-sp-d16
 387              		.type	serial_datagram_send, %function
 388              	serial_datagram_send:
 389              	.LFB3:
 390              		.loc 1 68 0
 391              		.cfi_startproc
 392              		@ args = 0, pretend = 0, frame = 24
 393              		@ frame_needed = 0, uses_anonymous_args = 0
 394 0000 00B5     		push	{lr}
 395              		.cfi_def_cfa_offset 4
 396              		.cfi_offset 14, -4
 397 0002 89B0     		sub	sp, sp, #36
 398              		.cfi_def_cfa_offset 40
 399 0004 0590     		str	r0, [sp, #20]
ARM GAS  C:\Users\PCHAUT~1\AppData\Local\Temp\ccspSFHu.s 			page 8


 400 0006 0491     		str	r1, [sp, #16]
 401 0008 0392     		str	r2, [sp, #12]
 402 000a 0293     		str	r3, [sp, #8]
 403              		.loc 1 68 0
 404 000c 0E4B     		ldr	r3, .L25
 405 000e 1B68     		ldr	r3, [r3]
 406 0010 0793     		str	r3, [sp, #28]
 407              		.loc 1 69 0
 408 0012 0023     		movs	r3, #0
 409 0014 0693     		str	r3, [sp, #24]
 410              		.loc 1 70 0
 411 0016 06AA     		add	r2, sp, #24
 412 0018 029B     		ldr	r3, [sp, #8]
 413 001a 0093     		str	r3, [sp]
 414 001c 039B     		ldr	r3, [sp, #12]
 415 001e 0499     		ldr	r1, [sp, #16]
 416 0020 0598     		ldr	r0, [sp, #20]
 417 0022 FFF7FEFF 		bl	serial_datagram_send_chunk
 418              		.loc 1 71 0
 419 0026 069B     		ldr	r3, [sp, #24]
 420 0028 029A     		ldr	r2, [sp, #8]
 421 002a 0399     		ldr	r1, [sp, #12]
 422 002c 1846     		mov	r0, r3
 423 002e FFF7FEFF 		bl	serial_datagram_send_end
 424              		.loc 1 72 0
 425 0032 00BF     		nop
 426 0034 044B     		ldr	r3, .L25
 427 0036 079A     		ldr	r2, [sp, #28]
 428 0038 1B68     		ldr	r3, [r3]
 429 003a 9A42     		cmp	r2, r3
 430 003c 01D0     		beq	.L24
 431 003e FFF7FEFF 		bl	__stack_chk_fail
 432              	.L24:
 433 0042 09B0     		add	sp, sp, #36
 434              		.cfi_def_cfa_offset 4
 435              		@ sp needed
 436 0044 5DF804FB 		ldr	pc, [sp], #4
 437              	.L26:
 438              		.align	2
 439              	.L25:
 440 0048 00000000 		.word	__stack_chk_guard
 441              		.cfi_endproc
 442              	.LFE3:
 443              		.size	serial_datagram_send, .-serial_datagram_send
 444              		.section	.text.rcv_handler_reset,"ax",%progbits
 445              		.align	1
 446              		.p2align 4,,15
 447              		.syntax unified
 448              		.thumb
 449              		.thumb_func
 450              		.fpu fpv4-sp-d16
 451              		.type	rcv_handler_reset, %function
 452              	rcv_handler_reset:
 453              	.LFB4:
 454              		.loc 1 75 0
 455              		.cfi_startproc
 456              		@ args = 0, pretend = 0, frame = 16
ARM GAS  C:\Users\PCHAUT~1\AppData\Local\Temp\ccspSFHu.s 			page 9


 457              		@ frame_needed = 0, uses_anonymous_args = 0
 458 0000 00B5     		push	{lr}
 459              		.cfi_def_cfa_offset 4
 460              		.cfi_offset 14, -4
 461 0002 85B0     		sub	sp, sp, #20
 462              		.cfi_def_cfa_offset 24
 463 0004 0190     		str	r0, [sp, #4]
 464              		.loc 1 75 0
 465 0006 0B4B     		ldr	r3, .L29
 466 0008 1B68     		ldr	r3, [r3]
 467 000a 0393     		str	r3, [sp, #12]
 468              		.loc 1 76 0
 469 000c 019B     		ldr	r3, [sp, #4]
 470 000e 0022     		movs	r2, #0
 471 0010 9A60     		str	r2, [r3, #8]
 472              		.loc 1 77 0
 473 0012 019B     		ldr	r3, [sp, #4]
 474 0014 0022     		movs	r2, #0
 475 0016 1A75     		strb	r2, [r3, #20]
 476              		.loc 1 78 0
 477 0018 019B     		ldr	r3, [sp, #4]
 478 001a 0022     		movs	r2, #0
 479 001c 5A75     		strb	r2, [r3, #21]
 480              		.loc 1 79 0
 481 001e 00BF     		nop
 482 0020 044B     		ldr	r3, .L29
 483 0022 039A     		ldr	r2, [sp, #12]
 484 0024 1B68     		ldr	r3, [r3]
 485 0026 9A42     		cmp	r2, r3
 486 0028 01D0     		beq	.L28
 487 002a FFF7FEFF 		bl	__stack_chk_fail
 488              	.L28:
 489 002e 05B0     		add	sp, sp, #20
 490              		.cfi_def_cfa_offset 4
 491              		@ sp needed
 492 0030 5DF804FB 		ldr	pc, [sp], #4
 493              	.L30:
 494              		.align	2
 495              	.L29:
 496 0034 00000000 		.word	__stack_chk_guard
 497              		.cfi_endproc
 498              	.LFE4:
 499              		.size	rcv_handler_reset, .-rcv_handler_reset
 500              		.section	.text.serial_datagram_rcv_handler_init,"ax",%progbits
 501              		.align	1
 502              		.p2align 4,,15
 503              		.global	serial_datagram_rcv_handler_init
 504              		.syntax unified
 505              		.thumb
 506              		.thumb_func
 507              		.fpu fpv4-sp-d16
 508              		.type	serial_datagram_rcv_handler_init, %function
 509              	serial_datagram_rcv_handler_init:
 510              	.LFB5:
 511              		.loc 1 83 0
 512              		.cfi_startproc
 513              		@ args = 4, pretend = 0, frame = 32
ARM GAS  C:\Users\PCHAUT~1\AppData\Local\Temp\ccspSFHu.s 			page 10


 514              		@ frame_needed = 0, uses_anonymous_args = 0
 515 0000 00B5     		push	{lr}
 516              		.cfi_def_cfa_offset 4
 517              		.cfi_offset 14, -4
 518 0002 89B0     		sub	sp, sp, #36
 519              		.cfi_def_cfa_offset 40
 520 0004 0590     		str	r0, [sp, #20]
 521 0006 0491     		str	r1, [sp, #16]
 522 0008 0392     		str	r2, [sp, #12]
 523 000a 0293     		str	r3, [sp, #8]
 524 000c 0A9B     		ldr	r3, [sp, #40]
 525 000e 0193     		str	r3, [sp, #4]
 526              		.loc 1 83 0
 527 0010 0E4B     		ldr	r3, .L33
 528 0012 1B68     		ldr	r3, [r3]
 529 0014 0793     		str	r3, [sp, #28]
 530              		.loc 1 84 0
 531 0016 059B     		ldr	r3, [sp, #20]
 532 0018 049A     		ldr	r2, [sp, #16]
 533 001a 1A60     		str	r2, [r3]
 534              		.loc 1 85 0
 535 001c 059B     		ldr	r3, [sp, #20]
 536 001e 039A     		ldr	r2, [sp, #12]
 537 0020 5A60     		str	r2, [r3, #4]
 538              		.loc 1 86 0
 539 0022 059B     		ldr	r3, [sp, #20]
 540 0024 029A     		ldr	r2, [sp, #8]
 541 0026 DA60     		str	r2, [r3, #12]
 542              		.loc 1 87 0
 543 0028 059B     		ldr	r3, [sp, #20]
 544 002a 019A     		ldr	r2, [sp, #4]
 545 002c 1A61     		str	r2, [r3, #16]
 546              		.loc 1 88 0
 547 002e 0598     		ldr	r0, [sp, #20]
 548 0030 FFF7FEFF 		bl	rcv_handler_reset
 549              		.loc 1 89 0
 550 0034 00BF     		nop
 551 0036 054B     		ldr	r3, .L33
 552 0038 079A     		ldr	r2, [sp, #28]
 553 003a 1B68     		ldr	r3, [r3]
 554 003c 9A42     		cmp	r2, r3
 555 003e 01D0     		beq	.L32
 556 0040 FFF7FEFF 		bl	__stack_chk_fail
 557              	.L32:
 558 0044 09B0     		add	sp, sp, #36
 559              		.cfi_def_cfa_offset 4
 560              		@ sp needed
 561 0046 5DF804FB 		ldr	pc, [sp], #4
 562              	.L34:
 563 004a 00BF     		.align	2
 564              	.L33:
 565 004c 00000000 		.word	__stack_chk_guard
 566              		.cfi_endproc
 567              	.LFE5:
 568              		.size	serial_datagram_rcv_handler_init, .-serial_datagram_rcv_handler_init
 569              		.section	.text.serial_datagram_receive,"ax",%progbits
 570              		.align	1
ARM GAS  C:\Users\PCHAUT~1\AppData\Local\Temp\ccspSFHu.s 			page 11


 571              		.p2align 4,,15
 572              		.global	serial_datagram_receive
 573              		.syntax unified
 574              		.thumb
 575              		.thumb_func
 576              		.fpu fpv4-sp-d16
 577              		.type	serial_datagram_receive, %function
 578              	serial_datagram_receive:
 579              	.LFB6:
 580              		.loc 1 93 0
 581              		.cfi_startproc
 582              		@ args = 0, pretend = 0, frame = 40
 583              		@ frame_needed = 0, uses_anonymous_args = 0
 584 0000 00B5     		push	{lr}
 585              		.cfi_def_cfa_offset 4
 586              		.cfi_offset 14, -4
 587 0002 8BB0     		sub	sp, sp, #44
 588              		.cfi_def_cfa_offset 48
 589 0004 0390     		str	r0, [sp, #12]
 590 0006 0291     		str	r1, [sp, #8]
 591 0008 0192     		str	r2, [sp, #4]
 592              		.loc 1 93 0
 593 000a 604B     		ldr	r3, .L54
 594 000c 1B68     		ldr	r3, [r3]
 595 000e 0993     		str	r3, [sp, #36]
 596              		.loc 1 94 0
 597 0010 029B     		ldr	r3, [sp, #8]
 598 0012 0493     		str	r3, [sp, #16]
 599              		.loc 1 95 0
 600 0014 0023     		movs	r3, #0
 601 0016 0593     		str	r3, [sp, #20]
 602              		.loc 1 96 0
 603 0018 A5E0     		b	.L36
 604              	.L51:
 605              		.loc 1 97 0
 606 001a 039B     		ldr	r3, [sp, #12]
 607 001c 1B7D     		ldrb	r3, [r3, #20]	@ zero_extendqisi2
 608 001e 002B     		cmp	r3, #0
 609 0020 08D0     		beq	.L37
 610              		.loc 1 98 0
 611 0022 049B     		ldr	r3, [sp, #16]
 612 0024 1B78     		ldrb	r3, [r3]	@ zero_extendqisi2
 613 0026 C02B     		cmp	r3, #192
 614 0028 40F09A80 		bne	.L39
 615              		.loc 1 99 0
 616 002c 0398     		ldr	r0, [sp, #12]
 617 002e FFF7FEFF 		bl	rcv_handler_reset
 618 0032 95E0     		b	.L39
 619              	.L37:
 620              		.loc 1 101 0
 621 0034 049B     		ldr	r3, [sp, #16]
 622 0036 1B78     		ldrb	r3, [r3]	@ zero_extendqisi2
 623 0038 C02B     		cmp	r3, #192
 624 003a 47D1     		bne	.L40
 625              	.LBB2:
 626              		.loc 1 102 0
 627 003c 039B     		ldr	r3, [sp, #12]
ARM GAS  C:\Users\PCHAUT~1\AppData\Local\Temp\ccspSFHu.s 			page 12


 628 003e 9B68     		ldr	r3, [r3, #8]
 629 0040 043B     		subs	r3, r3, #4
 630 0042 0693     		str	r3, [sp, #24]
 631              		.loc 1 103 0
 632 0044 069B     		ldr	r3, [sp, #24]
 633 0046 002B     		cmp	r3, #0
 634 0048 3ADB     		blt	.L41
 635              	.LBB3:
 636              		.loc 1 104 0
 637 004a 039B     		ldr	r3, [sp, #12]
 638 004c 1B68     		ldr	r3, [r3]
 639 004e 069A     		ldr	r2, [sp, #24]
 640 0050 1146     		mov	r1, r2
 641 0052 1846     		mov	r0, r3
 642 0054 FFF7FEFF 		bl	compute_crc
 643 0058 0790     		str	r0, [sp, #28]
 644              		.loc 1 106 0
 645 005a 039B     		ldr	r3, [sp, #12]
 646 005c 1A68     		ldr	r2, [r3]
 647 005e 039B     		ldr	r3, [sp, #12]
 648 0060 9B68     		ldr	r3, [r3, #8]
 649 0062 043B     		subs	r3, r3, #4
 650 0064 1344     		add	r3, r3, r2
 651 0066 1B78     		ldrb	r3, [r3]	@ zero_extendqisi2
 652 0068 1A06     		lsls	r2, r3, #24
 653              		.loc 1 107 0
 654 006a 039B     		ldr	r3, [sp, #12]
 655 006c 1968     		ldr	r1, [r3]
 656 006e 039B     		ldr	r3, [sp, #12]
 657 0070 9B68     		ldr	r3, [r3, #8]
 658 0072 033B     		subs	r3, r3, #3
 659 0074 0B44     		add	r3, r3, r1
 660 0076 1B78     		ldrb	r3, [r3]	@ zero_extendqisi2
 661 0078 1B04     		lsls	r3, r3, #16
 662              		.loc 1 106 0
 663 007a 1A43     		orrs	r2, r2, r3
 664              		.loc 1 108 0
 665 007c 039B     		ldr	r3, [sp, #12]
 666 007e 1968     		ldr	r1, [r3]
 667 0080 039B     		ldr	r3, [sp, #12]
 668 0082 9B68     		ldr	r3, [r3, #8]
 669 0084 023B     		subs	r3, r3, #2
 670 0086 0B44     		add	r3, r3, r1
 671 0088 1B78     		ldrb	r3, [r3]	@ zero_extendqisi2
 672 008a 1B02     		lsls	r3, r3, #8
 673              		.loc 1 107 0
 674 008c 1343     		orrs	r3, r3, r2
 675              		.loc 1 109 0
 676 008e 039A     		ldr	r2, [sp, #12]
 677 0090 1168     		ldr	r1, [r2]
 678 0092 039A     		ldr	r2, [sp, #12]
 679 0094 9268     		ldr	r2, [r2, #8]
 680 0096 013A     		subs	r2, r2, #1
 681 0098 0A44     		add	r2, r2, r1
 682 009a 1278     		ldrb	r2, [r2]	@ zero_extendqisi2
 683              		.loc 1 105 0
 684 009c 1343     		orrs	r3, r3, r2
ARM GAS  C:\Users\PCHAUT~1\AppData\Local\Temp\ccspSFHu.s 			page 13


 685 009e 0893     		str	r3, [sp, #32]
 686              		.loc 1 110 0
 687 00a0 079A     		ldr	r2, [sp, #28]
 688 00a2 089B     		ldr	r3, [sp, #32]
 689 00a4 9A42     		cmp	r2, r3
 690 00a6 02D0     		beq	.L42
 691              		.loc 1 111 0
 692 00a8 0223     		movs	r3, #2
 693 00aa 0593     		str	r3, [sp, #20]
 694 00ac 0AE0     		b	.L44
 695              	.L42:
 696              		.loc 1 113 0
 697 00ae 039B     		ldr	r3, [sp, #12]
 698 00b0 DB68     		ldr	r3, [r3, #12]
 699 00b2 039A     		ldr	r2, [sp, #12]
 700 00b4 1068     		ldr	r0, [r2]
 701 00b6 0699     		ldr	r1, [sp, #24]
 702 00b8 039A     		ldr	r2, [sp, #12]
 703 00ba 1269     		ldr	r2, [r2, #16]
 704 00bc 9847     		blx	r3
 705              	.LVL6:
 706 00be 01E0     		b	.L44
 707              	.L41:
 708              	.LBE3:
 709              		.loc 1 116 0
 710 00c0 0323     		movs	r3, #3
 711 00c2 0593     		str	r3, [sp, #20]
 712              	.L44:
 713              		.loc 1 118 0
 714 00c4 0398     		ldr	r0, [sp, #12]
 715 00c6 FFF7FEFF 		bl	rcv_handler_reset
 716              	.LBE2:
 717 00ca 49E0     		b	.L39
 718              	.L40:
 719              		.loc 1 119 0
 720 00cc 039B     		ldr	r3, [sp, #12]
 721 00ce 9A68     		ldr	r2, [r3, #8]
 722 00d0 039B     		ldr	r3, [sp, #12]
 723 00d2 5B68     		ldr	r3, [r3, #4]
 724 00d4 9A42     		cmp	r2, r3
 725 00d6 05D1     		bne	.L45
 726              		.loc 1 120 0
 727 00d8 039B     		ldr	r3, [sp, #12]
 728 00da 0122     		movs	r2, #1
 729 00dc 1A75     		strb	r2, [r3, #20]
 730              		.loc 1 121 0
 731 00de 0123     		movs	r3, #1
 732 00e0 0593     		str	r3, [sp, #20]
 733 00e2 3DE0     		b	.L39
 734              	.L45:
 735              		.loc 1 122 0
 736 00e4 039B     		ldr	r3, [sp, #12]
 737 00e6 5B7D     		ldrb	r3, [r3, #21]	@ zero_extendqisi2
 738 00e8 002B     		cmp	r3, #0
 739 00ea 26D0     		beq	.L46
 740              		.loc 1 123 0
 741 00ec 049B     		ldr	r3, [sp, #16]
ARM GAS  C:\Users\PCHAUT~1\AppData\Local\Temp\ccspSFHu.s 			page 14


 742 00ee 1B78     		ldrb	r3, [r3]	@ zero_extendqisi2
 743 00f0 DD2B     		cmp	r3, #221
 744 00f2 0AD1     		bne	.L47
 745              		.loc 1 124 0
 746 00f4 039B     		ldr	r3, [sp, #12]
 747 00f6 1A68     		ldr	r2, [r3]
 748 00f8 039B     		ldr	r3, [sp, #12]
 749 00fa 9B68     		ldr	r3, [r3, #8]
 750 00fc 581C     		adds	r0, r3, #1
 751 00fe 0399     		ldr	r1, [sp, #12]
 752 0100 8860     		str	r0, [r1, #8]
 753 0102 1344     		add	r3, r3, r2
 754 0104 DB22     		movs	r2, #219
 755 0106 1A70     		strb	r2, [r3]
 756 0108 13E0     		b	.L48
 757              	.L47:
 758              		.loc 1 125 0
 759 010a 049B     		ldr	r3, [sp, #16]
 760 010c 1B78     		ldrb	r3, [r3]	@ zero_extendqisi2
 761 010e DC2B     		cmp	r3, #220
 762 0110 0AD1     		bne	.L49
 763              		.loc 1 126 0
 764 0112 039B     		ldr	r3, [sp, #12]
 765 0114 1A68     		ldr	r2, [r3]
 766 0116 039B     		ldr	r3, [sp, #12]
 767 0118 9B68     		ldr	r3, [r3, #8]
 768 011a 581C     		adds	r0, r3, #1
 769 011c 0399     		ldr	r1, [sp, #12]
 770 011e 8860     		str	r0, [r1, #8]
 771 0120 1344     		add	r3, r3, r2
 772 0122 C022     		movs	r2, #192
 773 0124 1A70     		strb	r2, [r3]
 774 0126 04E0     		b	.L48
 775              	.L49:
 776              		.loc 1 128 0
 777 0128 0323     		movs	r3, #3
 778 012a 0593     		str	r3, [sp, #20]
 779              		.loc 1 129 0
 780 012c 039B     		ldr	r3, [sp, #12]
 781 012e 0122     		movs	r2, #1
 782 0130 1A75     		strb	r2, [r3, #20]
 783              	.L48:
 784              		.loc 1 131 0
 785 0132 039B     		ldr	r3, [sp, #12]
 786 0134 0022     		movs	r2, #0
 787 0136 5A75     		strb	r2, [r3, #21]
 788 0138 12E0     		b	.L39
 789              	.L46:
 790              		.loc 1 132 0
 791 013a 049B     		ldr	r3, [sp, #16]
 792 013c 1B78     		ldrb	r3, [r3]	@ zero_extendqisi2
 793 013e DB2B     		cmp	r3, #219
 794 0140 03D1     		bne	.L50
 795              		.loc 1 133 0
 796 0142 039B     		ldr	r3, [sp, #12]
 797 0144 0122     		movs	r2, #1
 798 0146 5A75     		strb	r2, [r3, #21]
ARM GAS  C:\Users\PCHAUT~1\AppData\Local\Temp\ccspSFHu.s 			page 15


 799 0148 0AE0     		b	.L39
 800              	.L50:
 801              		.loc 1 135 0
 802 014a 039B     		ldr	r3, [sp, #12]
 803 014c 1A68     		ldr	r2, [r3]
 804 014e 039B     		ldr	r3, [sp, #12]
 805 0150 9B68     		ldr	r3, [r3, #8]
 806 0152 581C     		adds	r0, r3, #1
 807 0154 0399     		ldr	r1, [sp, #12]
 808 0156 8860     		str	r0, [r1, #8]
 809 0158 1344     		add	r3, r3, r2
 810 015a 049A     		ldr	r2, [sp, #16]
 811 015c 1278     		ldrb	r2, [r2]	@ zero_extendqisi2
 812 015e 1A70     		strb	r2, [r3]
 813              	.L39:
 814              		.loc 1 137 0
 815 0160 049B     		ldr	r3, [sp, #16]
 816 0162 0133     		adds	r3, r3, #1
 817 0164 0493     		str	r3, [sp, #16]
 818              	.L36:
 819              		.loc 1 96 0
 820 0166 019B     		ldr	r3, [sp, #4]
 821 0168 5A1E     		subs	r2, r3, #1
 822 016a 0192     		str	r2, [sp, #4]
 823 016c 002B     		cmp	r3, #0
 824 016e 7FF454AF 		bne	.L51
 825              		.loc 1 139 0
 826 0172 059B     		ldr	r3, [sp, #20]
 827              		.loc 1 140 0
 828 0174 1846     		mov	r0, r3
 829 0176 054B     		ldr	r3, .L54
 830 0178 099A     		ldr	r2, [sp, #36]
 831 017a 1B68     		ldr	r3, [r3]
 832 017c 9A42     		cmp	r2, r3
 833 017e 01D0     		beq	.L53
 834 0180 FFF7FEFF 		bl	__stack_chk_fail
 835              	.L53:
 836 0184 0BB0     		add	sp, sp, #44
 837              		.cfi_def_cfa_offset 4
 838              		@ sp needed
 839 0186 5DF804FB 		ldr	pc, [sp], #4
 840              	.L55:
 841 018a 00BF     		.align	2
 842              	.L54:
 843 018c 00000000 		.word	__stack_chk_guard
 844              		.cfi_endproc
 845              	.LFE6:
 846              		.size	serial_datagram_receive, .-serial_datagram_receive
 847              		.text
 848              	.Letext0:
 849              		.file 2 "c:\\users\\pchautems\\documents\\robotiquetp\\eclipse_e-puck2\\tools\\gcc-arm-none-eabi-7
 850              		.file 3 "c:\\users\\pchautems\\documents\\robotiquetp\\eclipse_e-puck2\\tools\\gcc-arm-none-eabi-7
 851              		.file 4 "c:\\users\\pchautems\\documents\\robotiquetp\\eclipse_e-puck2\\tools\\gcc-arm-none-eabi-7
 852              		.file 5 "c:\\users\\pchautems\\documents\\robotiquetp\\eclipse_e-puck2\\tools\\gcc-arm-none-eabi-7
 853              		.file 6 "c:\\users\\pchautems\\documents\\robotiquetp\\eclipse_e-puck2\\tools\\gcc-arm-none-eabi-7
 854              		.file 7 "c:\\users\\pchautems\\documents\\robotiquetp\\eclipse_e-puck2\\tools\\gcc-arm-none-eabi-7
 855              		.file 8 "c:\\users\\pchautems\\documents\\robotiquetp\\eclipse_e-puck2\\tools\\gcc-arm-none-eabi-7
ARM GAS  C:\Users\PCHAUT~1\AppData\Local\Temp\ccspSFHu.s 			page 16


 856              		.file 9 "../lib/e-puck2_main-processor/src/serial-datagram/serial_datagram.h"