ARM GAS  C:\Users\PCHAUT~1\AppData\Local\Temp\ccOhqcVB.s 			page 1


   1              		.cpu cortex-m4
   2              		.eabi_attribute 27, 1
   3              		.eabi_attribute 28, 1
   4              		.eabi_attribute 20, 1
   5              		.eabi_attribute 21, 1
   6              		.eabi_attribute 23, 3
   7              		.eabi_attribute 24, 1
   8              		.eabi_attribute 25, 1
   9              		.eabi_attribute 26, 1
  10              		.eabi_attribute 30, 6
  11              		.eabi_attribute 34, 1
  12              		.eabi_attribute 18, 4
  13              		.file	"serial_usb.c"
  14              		.text
  15              	.Ltext0:
  16              		.cfi_sections	.debug_frame
  17              		.section	.text.port_lock,"ax",%progbits
  18              		.align	1
  19              		.p2align 4,,15
  20              		.syntax unified
  21              		.thumb
  22              		.thumb_func
  23              		.fpu fpv4-sp-d16
  24              		.type	port_lock, %function
  25              	port_lock:
  26              	.LFB116:
  27              		.file 1 "../lib/e-puck2_main-processor/ChibiOS//os/rt/ports/ARMCMx/chcore_v7m.h"
  28              		.loc 1 444 0
  29              		.cfi_startproc
  30              		@ args = 0, pretend = 0, frame = 8
  31              		@ frame_needed = 0, uses_anonymous_args = 0
  32 0000 00B5     		push	{lr}
  33              		.cfi_def_cfa_offset 4
  34              		.cfi_offset 14, -4
  35 0002 83B0     		sub	sp, sp, #12
  36              		.cfi_def_cfa_offset 16
  37              		.loc 1 444 0
  38 0004 094B     		ldr	r3, .L3
  39 0006 1B68     		ldr	r3, [r3]
  40 0008 0193     		str	r3, [sp, #4]
  41 000a 2023     		movs	r3, #32
  42 000c 0093     		str	r3, [sp]
  43              	.LBB6:
  44              	.LBB7:
  45              		.file 2 "../lib/e-puck2_main-processor/ChibiOS//os/ext/CMSIS/include/core_cmFunc.h"
  46              		.loc 2 546 0
  47 000e 009B     		ldr	r3, [sp]
  48              		.syntax unified
  49              	@ 546 "../lib/e-puck2_main-processor/ChibiOS//os/ext/CMSIS/include/core_cmFunc.h" 1
  50 0010 83F31188 		MSR basepri, r3
  51              	@ 0 "" 2
  52              		.thumb
  53              		.syntax unified
  54              	.LBE7:
  55              	.LBE6:
  56              		.loc 1 451 0
  57 0014 00BF     		nop
ARM GAS  C:\Users\PCHAUT~1\AppData\Local\Temp\ccOhqcVB.s 			page 2


  58 0016 054B     		ldr	r3, .L3
  59 0018 019A     		ldr	r2, [sp, #4]
  60 001a 1B68     		ldr	r3, [r3]
  61 001c 9A42     		cmp	r2, r3
  62 001e 01D0     		beq	.L2
  63 0020 FFF7FEFF 		bl	__stack_chk_fail
  64              	.L2:
  65 0024 03B0     		add	sp, sp, #12
  66              		.cfi_def_cfa_offset 4
  67              		@ sp needed
  68 0026 5DF804FB 		ldr	pc, [sp], #4
  69              	.L4:
  70 002a 00BF     		.align	2
  71              	.L3:
  72 002c 00000000 		.word	__stack_chk_guard
  73              		.cfi_endproc
  74              	.LFE116:
  75              		.size	port_lock, .-port_lock
  76              		.section	.text.port_unlock,"ax",%progbits
  77              		.align	1
  78              		.p2align 4,,15
  79              		.syntax unified
  80              		.thumb
  81              		.thumb_func
  82              		.fpu fpv4-sp-d16
  83              		.type	port_unlock, %function
  84              	port_unlock:
  85              	.LFB117:
  86              		.loc 1 458 0
  87              		.cfi_startproc
  88              		@ args = 0, pretend = 0, frame = 8
  89              		@ frame_needed = 0, uses_anonymous_args = 0
  90 0000 00B5     		push	{lr}
  91              		.cfi_def_cfa_offset 4
  92              		.cfi_offset 14, -4
  93 0002 83B0     		sub	sp, sp, #12
  94              		.cfi_def_cfa_offset 16
  95              		.loc 1 458 0
  96 0004 094B     		ldr	r3, .L7
  97 0006 1B68     		ldr	r3, [r3]
  98 0008 0193     		str	r3, [sp, #4]
  99 000a 0023     		movs	r3, #0
 100 000c 0093     		str	r3, [sp]
 101              	.LBB8:
 102              	.LBB9:
 103              		.loc 2 546 0
 104 000e 009B     		ldr	r3, [sp]
 105              		.syntax unified
 106              	@ 546 "../lib/e-puck2_main-processor/ChibiOS//os/ext/CMSIS/include/core_cmFunc.h" 1
 107 0010 83F31188 		MSR basepri, r3
 108              	@ 0 "" 2
 109              		.thumb
 110              		.syntax unified
 111              	.LBE9:
 112              	.LBE8:
 113              		.loc 1 465 0
 114 0014 00BF     		nop
ARM GAS  C:\Users\PCHAUT~1\AppData\Local\Temp\ccOhqcVB.s 			page 3


 115 0016 054B     		ldr	r3, .L7
 116 0018 019A     		ldr	r2, [sp, #4]
 117 001a 1B68     		ldr	r3, [r3]
 118 001c 9A42     		cmp	r2, r3
 119 001e 01D0     		beq	.L6
 120 0020 FFF7FEFF 		bl	__stack_chk_fail
 121              	.L6:
 122 0024 03B0     		add	sp, sp, #12
 123              		.cfi_def_cfa_offset 4
 124              		@ sp needed
 125 0026 5DF804FB 		ldr	pc, [sp], #4
 126              	.L8:
 127 002a 00BF     		.align	2
 128              	.L7:
 129 002c 00000000 		.word	__stack_chk_guard
 130              		.cfi_endproc
 131              	.LFE117:
 132              		.size	port_unlock, .-port_unlock
 133              		.section	.text.port_lock_from_isr,"ax",%progbits
 134              		.align	1
 135              		.p2align 4,,15
 136              		.syntax unified
 137              		.thumb
 138              		.thumb_func
 139              		.fpu fpv4-sp-d16
 140              		.type	port_lock_from_isr, %function
 141              	port_lock_from_isr:
 142              	.LFB118:
 143              		.loc 1 473 0
 144              		.cfi_startproc
 145              		@ args = 0, pretend = 0, frame = 8
 146              		@ frame_needed = 0, uses_anonymous_args = 0
 147 0000 00B5     		push	{lr}
 148              		.cfi_def_cfa_offset 4
 149              		.cfi_offset 14, -4
 150 0002 83B0     		sub	sp, sp, #12
 151              		.cfi_def_cfa_offset 16
 152              		.loc 1 473 0
 153 0004 074B     		ldr	r3, .L11
 154 0006 1B68     		ldr	r3, [r3]
 155 0008 0193     		str	r3, [sp, #4]
 156              		.loc 1 475 0
 157 000a FFF7FEFF 		bl	port_lock
 158              		.loc 1 476 0
 159 000e 00BF     		nop
 160 0010 044B     		ldr	r3, .L11
 161 0012 019A     		ldr	r2, [sp, #4]
 162 0014 1B68     		ldr	r3, [r3]
 163 0016 9A42     		cmp	r2, r3
 164 0018 01D0     		beq	.L10
 165 001a FFF7FEFF 		bl	__stack_chk_fail
 166              	.L10:
 167 001e 03B0     		add	sp, sp, #12
 168              		.cfi_def_cfa_offset 4
 169              		@ sp needed
 170 0020 5DF804FB 		ldr	pc, [sp], #4
 171              	.L12:
ARM GAS  C:\Users\PCHAUT~1\AppData\Local\Temp\ccOhqcVB.s 			page 4


 172              		.align	2
 173              	.L11:
 174 0024 00000000 		.word	__stack_chk_guard
 175              		.cfi_endproc
 176              	.LFE118:
 177              		.size	port_lock_from_isr, .-port_lock_from_isr
 178              		.section	.text.port_unlock_from_isr,"ax",%progbits
 179              		.align	1
 180              		.p2align 4,,15
 181              		.syntax unified
 182              		.thumb
 183              		.thumb_func
 184              		.fpu fpv4-sp-d16
 185              		.type	port_unlock_from_isr, %function
 186              	port_unlock_from_isr:
 187              	.LFB119:
 188              		.loc 1 484 0
 189              		.cfi_startproc
 190              		@ args = 0, pretend = 0, frame = 8
 191              		@ frame_needed = 0, uses_anonymous_args = 0
 192 0000 00B5     		push	{lr}
 193              		.cfi_def_cfa_offset 4
 194              		.cfi_offset 14, -4
 195 0002 83B0     		sub	sp, sp, #12
 196              		.cfi_def_cfa_offset 16
 197              		.loc 1 484 0
 198 0004 074B     		ldr	r3, .L15
 199 0006 1B68     		ldr	r3, [r3]
 200 0008 0193     		str	r3, [sp, #4]
 201              		.loc 1 486 0
 202 000a FFF7FEFF 		bl	port_unlock
 203              		.loc 1 487 0
 204 000e 00BF     		nop
 205 0010 044B     		ldr	r3, .L15
 206 0012 019A     		ldr	r2, [sp, #4]
 207 0014 1B68     		ldr	r3, [r3]
 208 0016 9A42     		cmp	r2, r3
 209 0018 01D0     		beq	.L14
 210 001a FFF7FEFF 		bl	__stack_chk_fail
 211              	.L14:
 212 001e 03B0     		add	sp, sp, #12
 213              		.cfi_def_cfa_offset 4
 214              		@ sp needed
 215 0020 5DF804FB 		ldr	pc, [sp], #4
 216              	.L16:
 217              		.align	2
 218              	.L15:
 219 0024 00000000 		.word	__stack_chk_guard
 220              		.cfi_endproc
 221              	.LFE119:
 222              		.size	port_unlock_from_isr, .-port_unlock_from_isr
 223              		.section	.text.chSysLock,"ax",%progbits
 224              		.align	1
 225              		.p2align 4,,15
 226              		.syntax unified
 227              		.thumb
 228              		.thumb_func
ARM GAS  C:\Users\PCHAUT~1\AppData\Local\Temp\ccOhqcVB.s 			page 5


 229              		.fpu fpv4-sp-d16
 230              		.type	chSysLock, %function
 231              	chSysLock:
 232              	.LFB145:
 233              		.file 3 "../lib/e-puck2_main-processor/ChibiOS//os/rt/include/chsys.h"
 234              		.loc 3 346 0
 235              		.cfi_startproc
 236              		@ args = 0, pretend = 0, frame = 8
 237              		@ frame_needed = 0, uses_anonymous_args = 0
 238 0000 00B5     		push	{lr}
 239              		.cfi_def_cfa_offset 4
 240              		.cfi_offset 14, -4
 241 0002 83B0     		sub	sp, sp, #12
 242              		.cfi_def_cfa_offset 16
 243              		.loc 3 346 0
 244 0004 094B     		ldr	r3, .L19
 245 0006 1B68     		ldr	r3, [r3]
 246 0008 0193     		str	r3, [sp, #4]
 247              		.loc 3 348 0
 248 000a FFF7FEFF 		bl	port_lock
 249              		.loc 3 349 0
 250 000e FFF7FEFF 		bl	_stats_start_measure_crit_thd
 251              		.loc 3 350 0
 252 0012 FFF7FEFF 		bl	_dbg_check_lock
 253              		.loc 3 351 0
 254 0016 00BF     		nop
 255 0018 044B     		ldr	r3, .L19
 256 001a 019A     		ldr	r2, [sp, #4]
 257 001c 1B68     		ldr	r3, [r3]
 258 001e 9A42     		cmp	r2, r3
 259 0020 01D0     		beq	.L18
 260 0022 FFF7FEFF 		bl	__stack_chk_fail
 261              	.L18:
 262 0026 03B0     		add	sp, sp, #12
 263              		.cfi_def_cfa_offset 4
 264              		@ sp needed
 265 0028 5DF804FB 		ldr	pc, [sp], #4
 266              	.L20:
 267              		.align	2
 268              	.L19:
 269 002c 00000000 		.word	__stack_chk_guard
 270              		.cfi_endproc
 271              	.LFE145:
 272              		.size	chSysLock, .-chSysLock
 273              		.section	.text.chSysUnlock,"ax",%progbits
 274              		.align	1
 275              		.p2align 4,,15
 276              		.syntax unified
 277              		.thumb
 278              		.thumb_func
 279              		.fpu fpv4-sp-d16
 280              		.type	chSysUnlock, %function
 281              	chSysUnlock:
 282              	.LFB146:
 283              		.loc 3 358 0
 284              		.cfi_startproc
 285              		@ args = 0, pretend = 0, frame = 8
ARM GAS  C:\Users\PCHAUT~1\AppData\Local\Temp\ccOhqcVB.s 			page 6


 286              		@ frame_needed = 0, uses_anonymous_args = 0
 287 0000 00B5     		push	{lr}
 288              		.cfi_def_cfa_offset 4
 289              		.cfi_offset 14, -4
 290 0002 83B0     		sub	sp, sp, #12
 291              		.cfi_def_cfa_offset 16
 292              		.loc 3 358 0
 293 0004 114B     		ldr	r3, .L24
 294 0006 1B68     		ldr	r3, [r3]
 295 0008 0193     		str	r3, [sp, #4]
 296              		.loc 3 360 0
 297 000a FFF7FEFF 		bl	_dbg_check_unlock
 298              		.loc 3 361 0
 299 000e FFF7FEFF 		bl	_stats_stop_measure_crit_thd
 300              		.loc 3 367 0
 301 0012 0F4B     		ldr	r3, .L24+4
 302 0014 1B68     		ldr	r3, [r3]
 303 0016 0E4A     		ldr	r2, .L24+4
 304 0018 9342     		cmp	r3, r2
 305 001a 0AD0     		beq	.L22
 306              		.loc 3 367 0 is_stmt 0 discriminator 2
 307 001c 0C4B     		ldr	r3, .L24+4
 308 001e 9B69     		ldr	r3, [r3, #24]
 309 0020 9A68     		ldr	r2, [r3, #8]
 310 0022 0B4B     		ldr	r3, .L24+4
 311 0024 1B68     		ldr	r3, [r3]
 312 0026 9B68     		ldr	r3, [r3, #8]
 313 0028 9A42     		cmp	r2, r3
 314 002a 02D2     		bcs	.L22
 315              		.loc 3 367 0 discriminator 3
 316 002c 0948     		ldr	r0, .L24+8
 317 002e FFF7FEFF 		bl	chSysHalt
 318              	.L22:
 319              		.loc 3 371 0 is_stmt 1
 320 0032 FFF7FEFF 		bl	port_unlock
 321              		.loc 3 372 0
 322 0036 00BF     		nop
 323 0038 044B     		ldr	r3, .L24
 324 003a 019A     		ldr	r2, [sp, #4]
 325 003c 1B68     		ldr	r3, [r3]
 326 003e 9A42     		cmp	r2, r3
 327 0040 01D0     		beq	.L23
 328 0042 FFF7FEFF 		bl	__stack_chk_fail
 329              	.L23:
 330 0046 03B0     		add	sp, sp, #12
 331              		.cfi_def_cfa_offset 4
 332              		@ sp needed
 333 0048 5DF804FB 		ldr	pc, [sp], #4
 334              	.L25:
 335              		.align	2
 336              	.L24:
 337 004c 00000000 		.word	__stack_chk_guard
 338 0050 00000000 		.word	ch
 339 0054 00000000 		.word	__func__.7153
 340              		.cfi_endproc
 341              	.LFE146:
 342              		.size	chSysUnlock, .-chSysUnlock
ARM GAS  C:\Users\PCHAUT~1\AppData\Local\Temp\ccOhqcVB.s 			page 7


 343              		.section	.text.chSysLockFromISR,"ax",%progbits
 344              		.align	1
 345              		.p2align 4,,15
 346              		.syntax unified
 347              		.thumb
 348              		.thumb_func
 349              		.fpu fpv4-sp-d16
 350              		.type	chSysLockFromISR, %function
 351              	chSysLockFromISR:
 352              	.LFB147:
 353              		.loc 3 386 0
 354              		.cfi_startproc
 355              		@ args = 0, pretend = 0, frame = 8
 356              		@ frame_needed = 0, uses_anonymous_args = 0
 357 0000 00B5     		push	{lr}
 358              		.cfi_def_cfa_offset 4
 359              		.cfi_offset 14, -4
 360 0002 83B0     		sub	sp, sp, #12
 361              		.cfi_def_cfa_offset 16
 362              		.loc 3 386 0
 363 0004 094B     		ldr	r3, .L28
 364 0006 1B68     		ldr	r3, [r3]
 365 0008 0193     		str	r3, [sp, #4]
 366              		.loc 3 388 0
 367 000a FFF7FEFF 		bl	port_lock_from_isr
 368              		.loc 3 389 0
 369 000e FFF7FEFF 		bl	_stats_start_measure_crit_isr
 370              		.loc 3 390 0
 371 0012 FFF7FEFF 		bl	_dbg_check_lock_from_isr
 372              		.loc 3 391 0
 373 0016 00BF     		nop
 374 0018 044B     		ldr	r3, .L28
 375 001a 019A     		ldr	r2, [sp, #4]
 376 001c 1B68     		ldr	r3, [r3]
 377 001e 9A42     		cmp	r2, r3
 378 0020 01D0     		beq	.L27
 379 0022 FFF7FEFF 		bl	__stack_chk_fail
 380              	.L27:
 381 0026 03B0     		add	sp, sp, #12
 382              		.cfi_def_cfa_offset 4
 383              		@ sp needed
 384 0028 5DF804FB 		ldr	pc, [sp], #4
 385              	.L29:
 386              		.align	2
 387              	.L28:
 388 002c 00000000 		.word	__stack_chk_guard
 389              		.cfi_endproc
 390              	.LFE147:
 391              		.size	chSysLockFromISR, .-chSysLockFromISR
 392              		.section	.text.chSysUnlockFromISR,"ax",%progbits
 393              		.align	1
 394              		.p2align 4,,15
 395              		.syntax unified
 396              		.thumb
 397              		.thumb_func
 398              		.fpu fpv4-sp-d16
 399              		.type	chSysUnlockFromISR, %function
ARM GAS  C:\Users\PCHAUT~1\AppData\Local\Temp\ccOhqcVB.s 			page 8


 400              	chSysUnlockFromISR:
 401              	.LFB148:
 402              		.loc 3 406 0
 403              		.cfi_startproc
 404              		@ args = 0, pretend = 0, frame = 8
 405              		@ frame_needed = 0, uses_anonymous_args = 0
 406 0000 00B5     		push	{lr}
 407              		.cfi_def_cfa_offset 4
 408              		.cfi_offset 14, -4
 409 0002 83B0     		sub	sp, sp, #12
 410              		.cfi_def_cfa_offset 16
 411              		.loc 3 406 0
 412 0004 094B     		ldr	r3, .L32
 413 0006 1B68     		ldr	r3, [r3]
 414 0008 0193     		str	r3, [sp, #4]
 415              		.loc 3 408 0
 416 000a FFF7FEFF 		bl	_dbg_check_unlock_from_isr
 417              		.loc 3 409 0
 418 000e FFF7FEFF 		bl	_stats_stop_measure_crit_isr
 419              		.loc 3 410 0
 420 0012 FFF7FEFF 		bl	port_unlock_from_isr
 421              		.loc 3 411 0
 422 0016 00BF     		nop
 423 0018 044B     		ldr	r3, .L32
 424 001a 019A     		ldr	r2, [sp, #4]
 425 001c 1B68     		ldr	r3, [r3]
 426 001e 9A42     		cmp	r2, r3
 427 0020 01D0     		beq	.L31
 428 0022 FFF7FEFF 		bl	__stack_chk_fail
 429              	.L31:
 430 0026 03B0     		add	sp, sp, #12
 431              		.cfi_def_cfa_offset 4
 432              		@ sp needed
 433 0028 5DF804FB 		ldr	pc, [sp], #4
 434              	.L33:
 435              		.align	2
 436              	.L32:
 437 002c 00000000 		.word	__stack_chk_guard
 438              		.cfi_endproc
 439              	.LFE148:
 440              		.size	chSysUnlockFromISR, .-chSysUnlockFromISR
 441              		.section	.text.chEvtObjectInit,"ax",%progbits
 442              		.align	1
 443              		.p2align 4,,15
 444              		.syntax unified
 445              		.thumb
 446              		.thumb_func
 447              		.fpu fpv4-sp-d16
 448              		.type	chEvtObjectInit, %function
 449              	chEvtObjectInit:
 450              	.LFB194:
 451              		.file 4 "../lib/e-puck2_main-processor/ChibiOS//os/rt/include/chevents.h"
 452              		.loc 4 170 0
 453              		.cfi_startproc
 454              		@ args = 0, pretend = 0, frame = 16
 455              		@ frame_needed = 0, uses_anonymous_args = 0
 456 0000 00B5     		push	{lr}
ARM GAS  C:\Users\PCHAUT~1\AppData\Local\Temp\ccOhqcVB.s 			page 9


 457              		.cfi_def_cfa_offset 4
 458              		.cfi_offset 14, -4
 459 0002 85B0     		sub	sp, sp, #20
 460              		.cfi_def_cfa_offset 24
 461 0004 0190     		str	r0, [sp, #4]
 462              		.loc 4 170 0
 463 0006 084B     		ldr	r3, .L36
 464 0008 1B68     		ldr	r3, [r3]
 465 000a 0393     		str	r3, [sp, #12]
 466              		.loc 4 172 0
 467 000c 019B     		ldr	r3, [sp, #4]
 468 000e 019A     		ldr	r2, [sp, #4]
 469 0010 1A60     		str	r2, [r3]
 470              		.loc 4 173 0
 471 0012 00BF     		nop
 472 0014 044B     		ldr	r3, .L36
 473 0016 039A     		ldr	r2, [sp, #12]
 474 0018 1B68     		ldr	r3, [r3]
 475 001a 9A42     		cmp	r2, r3
 476 001c 01D0     		beq	.L35
 477 001e FFF7FEFF 		bl	__stack_chk_fail
 478              	.L35:
 479 0022 05B0     		add	sp, sp, #20
 480              		.cfi_def_cfa_offset 4
 481              		@ sp needed
 482 0024 5DF804FB 		ldr	pc, [sp], #4
 483              	.L37:
 484              		.align	2
 485              	.L36:
 486 0028 00000000 		.word	__stack_chk_guard
 487              		.cfi_endproc
 488              	.LFE194:
 489              		.size	chEvtObjectInit, .-chEvtObjectInit
 490              		.section	.text.chIQGetEmptyI,"ax",%progbits
 491              		.align	1
 492              		.p2align 4,,15
 493              		.syntax unified
 494              		.thumb
 495              		.thumb_func
 496              		.fpu fpv4-sp-d16
 497              		.type	chIQGetEmptyI, %function
 498              	chIQGetEmptyI:
 499              	.LFB210:
 500              		.file 5 "../lib/e-puck2_main-processor/ChibiOS//os/rt/include/chqueues.h"
 501              		.loc 5 286 0
 502              		.cfi_startproc
 503              		@ args = 0, pretend = 0, frame = 16
 504              		@ frame_needed = 0, uses_anonymous_args = 0
 505 0000 00B5     		push	{lr}
 506              		.cfi_def_cfa_offset 4
 507              		.cfi_offset 14, -4
 508 0002 85B0     		sub	sp, sp, #20
 509              		.cfi_def_cfa_offset 24
 510 0004 0190     		str	r0, [sp, #4]
 511              		.loc 5 286 0
 512 0006 0D4B     		ldr	r3, .L41
 513 0008 1B68     		ldr	r3, [r3]
ARM GAS  C:\Users\PCHAUT~1\AppData\Local\Temp\ccOhqcVB.s 			page 10


 514 000a 0393     		str	r3, [sp, #12]
 515              		.loc 5 288 0
 516 000c FFF7FEFF 		bl	chDbgCheckClassI
 517              		.loc 5 290 0
 518 0010 019B     		ldr	r3, [sp, #4]
 519 0012 1B69     		ldr	r3, [r3, #16]
 520 0014 1A46     		mov	r2, r3
 521 0016 019B     		ldr	r3, [sp, #4]
 522 0018 DB68     		ldr	r3, [r3, #12]
 523 001a D31A     		subs	r3, r2, r3
 524 001c 1A46     		mov	r2, r3
 525 001e 019B     		ldr	r3, [sp, #4]
 526 0020 9B68     		ldr	r3, [r3, #8]
 527 0022 D31A     		subs	r3, r2, r3
 528              		.loc 5 291 0
 529 0024 1846     		mov	r0, r3
 530 0026 054B     		ldr	r3, .L41
 531 0028 039A     		ldr	r2, [sp, #12]
 532 002a 1B68     		ldr	r3, [r3]
 533 002c 9A42     		cmp	r2, r3
 534 002e 01D0     		beq	.L40
 535 0030 FFF7FEFF 		bl	__stack_chk_fail
 536              	.L40:
 537 0034 05B0     		add	sp, sp, #20
 538              		.cfi_def_cfa_offset 4
 539              		@ sp needed
 540 0036 5DF804FB 		ldr	pc, [sp], #4
 541              	.L42:
 542 003a 00BF     		.align	2
 543              	.L41:
 544 003c 00000000 		.word	__stack_chk_guard
 545              		.cfi_endproc
 546              	.LFE210:
 547              		.size	chIQGetEmptyI, .-chIQGetEmptyI
 548              		.section	.text.chOQGetFullI,"ax",%progbits
 549              		.align	1
 550              		.p2align 4,,15
 551              		.syntax unified
 552              		.thumb
 553              		.thumb_func
 554              		.fpu fpv4-sp-d16
 555              		.type	chOQGetFullI, %function
 556              	chOQGetFullI:
 557              	.LFB214:
 558              		.loc 5 353 0
 559              		.cfi_startproc
 560              		@ args = 0, pretend = 0, frame = 16
 561              		@ frame_needed = 0, uses_anonymous_args = 0
 562 0000 00B5     		push	{lr}
 563              		.cfi_def_cfa_offset 4
 564              		.cfi_offset 14, -4
 565 0002 85B0     		sub	sp, sp, #20
 566              		.cfi_def_cfa_offset 24
 567 0004 0190     		str	r0, [sp, #4]
 568              		.loc 5 353 0
 569 0006 0D4B     		ldr	r3, .L46
 570 0008 1B68     		ldr	r3, [r3]
ARM GAS  C:\Users\PCHAUT~1\AppData\Local\Temp\ccOhqcVB.s 			page 11


 571 000a 0393     		str	r3, [sp, #12]
 572              		.loc 5 355 0
 573 000c FFF7FEFF 		bl	chDbgCheckClassI
 574              		.loc 5 357 0
 575 0010 019B     		ldr	r3, [sp, #4]
 576 0012 1B69     		ldr	r3, [r3, #16]
 577 0014 1A46     		mov	r2, r3
 578 0016 019B     		ldr	r3, [sp, #4]
 579 0018 DB68     		ldr	r3, [r3, #12]
 580 001a D31A     		subs	r3, r2, r3
 581 001c 1A46     		mov	r2, r3
 582 001e 019B     		ldr	r3, [sp, #4]
 583 0020 9B68     		ldr	r3, [r3, #8]
 584 0022 D31A     		subs	r3, r2, r3
 585              		.loc 5 358 0
 586 0024 1846     		mov	r0, r3
 587 0026 054B     		ldr	r3, .L46
 588 0028 039A     		ldr	r2, [sp, #12]
 589 002a 1B68     		ldr	r3, [r3]
 590 002c 9A42     		cmp	r2, r3
 591 002e 01D0     		beq	.L45
 592 0030 FFF7FEFF 		bl	__stack_chk_fail
 593              	.L45:
 594 0034 05B0     		add	sp, sp, #20
 595              		.cfi_def_cfa_offset 4
 596              		@ sp needed
 597 0036 5DF804FB 		ldr	pc, [sp], #4
 598              	.L47:
 599 003a 00BF     		.align	2
 600              	.L46:
 601 003c 00000000 		.word	__stack_chk_guard
 602              		.cfi_endproc
 603              	.LFE214:
 604              		.size	chOQGetFullI, .-chOQGetFullI
 605              		.section	.text.osalSysLock,"ax",%progbits
 606              		.align	1
 607              		.p2align 4,,15
 608              		.syntax unified
 609              		.thumb
 610              		.thumb_func
 611              		.fpu fpv4-sp-d16
 612              		.type	osalSysLock, %function
 613              	osalSysLock:
 614              	.LFB223:
 615              		.file 6 "../lib/e-puck2_main-processor/ChibiOS//os/hal/osal/rt/osal.h"
 616              		.loc 6 445 0
 617              		.cfi_startproc
 618              		@ args = 0, pretend = 0, frame = 8
 619              		@ frame_needed = 0, uses_anonymous_args = 0
 620 0000 00B5     		push	{lr}
 621              		.cfi_def_cfa_offset 4
 622              		.cfi_offset 14, -4
 623 0002 83B0     		sub	sp, sp, #12
 624              		.cfi_def_cfa_offset 16
 625              		.loc 6 445 0
 626 0004 074B     		ldr	r3, .L50
 627 0006 1B68     		ldr	r3, [r3]
ARM GAS  C:\Users\PCHAUT~1\AppData\Local\Temp\ccOhqcVB.s 			page 12


 628 0008 0193     		str	r3, [sp, #4]
 629              		.loc 6 447 0
 630 000a FFF7FEFF 		bl	chSysLock
 631              		.loc 6 448 0
 632 000e 00BF     		nop
 633 0010 044B     		ldr	r3, .L50
 634 0012 019A     		ldr	r2, [sp, #4]
 635 0014 1B68     		ldr	r3, [r3]
 636 0016 9A42     		cmp	r2, r3
 637 0018 01D0     		beq	.L49
 638 001a FFF7FEFF 		bl	__stack_chk_fail
 639              	.L49:
 640 001e 03B0     		add	sp, sp, #12
 641              		.cfi_def_cfa_offset 4
 642              		@ sp needed
 643 0020 5DF804FB 		ldr	pc, [sp], #4
 644              	.L51:
 645              		.align	2
 646              	.L50:
 647 0024 00000000 		.word	__stack_chk_guard
 648              		.cfi_endproc
 649              	.LFE223:
 650              		.size	osalSysLock, .-osalSysLock
 651              		.section	.text.osalSysUnlock,"ax",%progbits
 652              		.align	1
 653              		.p2align 4,,15
 654              		.syntax unified
 655              		.thumb
 656              		.thumb_func
 657              		.fpu fpv4-sp-d16
 658              		.type	osalSysUnlock, %function
 659              	osalSysUnlock:
 660              	.LFB224:
 661              		.loc 6 456 0
 662              		.cfi_startproc
 663              		@ args = 0, pretend = 0, frame = 8
 664              		@ frame_needed = 0, uses_anonymous_args = 0
 665 0000 00B5     		push	{lr}
 666              		.cfi_def_cfa_offset 4
 667              		.cfi_offset 14, -4
 668 0002 83B0     		sub	sp, sp, #12
 669              		.cfi_def_cfa_offset 16
 670              		.loc 6 456 0
 671 0004 074B     		ldr	r3, .L54
 672 0006 1B68     		ldr	r3, [r3]
 673 0008 0193     		str	r3, [sp, #4]
 674              		.loc 6 458 0
 675 000a FFF7FEFF 		bl	chSysUnlock
 676              		.loc 6 459 0
 677 000e 00BF     		nop
 678 0010 044B     		ldr	r3, .L54
 679 0012 019A     		ldr	r2, [sp, #4]
 680 0014 1B68     		ldr	r3, [r3]
 681 0016 9A42     		cmp	r2, r3
 682 0018 01D0     		beq	.L53
 683 001a FFF7FEFF 		bl	__stack_chk_fail
 684              	.L53:
ARM GAS  C:\Users\PCHAUT~1\AppData\Local\Temp\ccOhqcVB.s 			page 13


 685 001e 03B0     		add	sp, sp, #12
 686              		.cfi_def_cfa_offset 4
 687              		@ sp needed
 688 0020 5DF804FB 		ldr	pc, [sp], #4
 689              	.L55:
 690              		.align	2
 691              	.L54:
 692 0024 00000000 		.word	__stack_chk_guard
 693              		.cfi_endproc
 694              	.LFE224:
 695              		.size	osalSysUnlock, .-osalSysUnlock
 696              		.section	.text.osalSysLockFromISR,"ax",%progbits
 697              		.align	1
 698              		.p2align 4,,15
 699              		.syntax unified
 700              		.thumb
 701              		.thumb_func
 702              		.fpu fpv4-sp-d16
 703              		.type	osalSysLockFromISR, %function
 704              	osalSysLockFromISR:
 705              	.LFB225:
 706              		.loc 6 467 0
 707              		.cfi_startproc
 708              		@ args = 0, pretend = 0, frame = 8
 709              		@ frame_needed = 0, uses_anonymous_args = 0
 710 0000 00B5     		push	{lr}
 711              		.cfi_def_cfa_offset 4
 712              		.cfi_offset 14, -4
 713 0002 83B0     		sub	sp, sp, #12
 714              		.cfi_def_cfa_offset 16
 715              		.loc 6 467 0
 716 0004 074B     		ldr	r3, .L58
 717 0006 1B68     		ldr	r3, [r3]
 718 0008 0193     		str	r3, [sp, #4]
 719              		.loc 6 469 0
 720 000a FFF7FEFF 		bl	chSysLockFromISR
 721              		.loc 6 470 0
 722 000e 00BF     		nop
 723 0010 044B     		ldr	r3, .L58
 724 0012 019A     		ldr	r2, [sp, #4]
 725 0014 1B68     		ldr	r3, [r3]
 726 0016 9A42     		cmp	r2, r3
 727 0018 01D0     		beq	.L57
 728 001a FFF7FEFF 		bl	__stack_chk_fail
 729              	.L57:
 730 001e 03B0     		add	sp, sp, #12
 731              		.cfi_def_cfa_offset 4
 732              		@ sp needed
 733 0020 5DF804FB 		ldr	pc, [sp], #4
 734              	.L59:
 735              		.align	2
 736              	.L58:
 737 0024 00000000 		.word	__stack_chk_guard
 738              		.cfi_endproc
 739              	.LFE225:
 740              		.size	osalSysLockFromISR, .-osalSysLockFromISR
 741              		.section	.text.osalSysUnlockFromISR,"ax",%progbits
ARM GAS  C:\Users\PCHAUT~1\AppData\Local\Temp\ccOhqcVB.s 			page 14


 742              		.align	1
 743              		.p2align 4,,15
 744              		.syntax unified
 745              		.thumb
 746              		.thumb_func
 747              		.fpu fpv4-sp-d16
 748              		.type	osalSysUnlockFromISR, %function
 749              	osalSysUnlockFromISR:
 750              	.LFB226:
 751              		.loc 6 478 0
 752              		.cfi_startproc
 753              		@ args = 0, pretend = 0, frame = 8
 754              		@ frame_needed = 0, uses_anonymous_args = 0
 755 0000 00B5     		push	{lr}
 756              		.cfi_def_cfa_offset 4
 757              		.cfi_offset 14, -4
 758 0002 83B0     		sub	sp, sp, #12
 759              		.cfi_def_cfa_offset 16
 760              		.loc 6 478 0
 761 0004 074B     		ldr	r3, .L62
 762 0006 1B68     		ldr	r3, [r3]
 763 0008 0193     		str	r3, [sp, #4]
 764              		.loc 6 480 0
 765 000a FFF7FEFF 		bl	chSysUnlockFromISR
 766              		.loc 6 481 0
 767 000e 00BF     		nop
 768 0010 044B     		ldr	r3, .L62
 769 0012 019A     		ldr	r2, [sp, #4]
 770 0014 1B68     		ldr	r3, [r3]
 771 0016 9A42     		cmp	r2, r3
 772 0018 01D0     		beq	.L61
 773 001a FFF7FEFF 		bl	__stack_chk_fail
 774              	.L61:
 775 001e 03B0     		add	sp, sp, #12
 776              		.cfi_def_cfa_offset 4
 777              		@ sp needed
 778 0020 5DF804FB 		ldr	pc, [sp], #4
 779              	.L63:
 780              		.align	2
 781              	.L62:
 782 0024 00000000 		.word	__stack_chk_guard
 783              		.cfi_endproc
 784              	.LFE226:
 785              		.size	osalSysUnlockFromISR, .-osalSysUnlockFromISR
 786              		.section	.text.osalOsRescheduleS,"ax",%progbits
 787              		.align	1
 788              		.p2align 4,,15
 789              		.syntax unified
 790              		.thumb
 791              		.thumb_func
 792              		.fpu fpv4-sp-d16
 793              		.type	osalOsRescheduleS, %function
 794              	osalOsRescheduleS:
 795              	.LFB231:
 796              		.loc 6 552 0
 797              		.cfi_startproc
 798              		@ args = 0, pretend = 0, frame = 8
ARM GAS  C:\Users\PCHAUT~1\AppData\Local\Temp\ccOhqcVB.s 			page 15


 799              		@ frame_needed = 0, uses_anonymous_args = 0
 800 0000 00B5     		push	{lr}
 801              		.cfi_def_cfa_offset 4
 802              		.cfi_offset 14, -4
 803 0002 83B0     		sub	sp, sp, #12
 804              		.cfi_def_cfa_offset 16
 805              		.loc 6 552 0
 806 0004 074B     		ldr	r3, .L66
 807 0006 1B68     		ldr	r3, [r3]
 808 0008 0193     		str	r3, [sp, #4]
 809              		.loc 6 554 0
 810 000a FFF7FEFF 		bl	chSchRescheduleS
 811              		.loc 6 555 0
 812 000e 00BF     		nop
 813 0010 044B     		ldr	r3, .L66
 814 0012 019A     		ldr	r2, [sp, #4]
 815 0014 1B68     		ldr	r3, [r3]
 816 0016 9A42     		cmp	r2, r3
 817 0018 01D0     		beq	.L65
 818 001a FFF7FEFF 		bl	__stack_chk_fail
 819              	.L65:
 820 001e 03B0     		add	sp, sp, #12
 821              		.cfi_def_cfa_offset 4
 822              		@ sp needed
 823 0020 5DF804FB 		ldr	pc, [sp], #4
 824              	.L67:
 825              		.align	2
 826              	.L66:
 827 0024 00000000 		.word	__stack_chk_guard
 828              		.cfi_endproc
 829              	.LFE231:
 830              		.size	osalOsRescheduleS, .-osalOsRescheduleS
 831              		.section	.text.osalEventObjectInit,"ax",%progbits
 832              		.align	1
 833              		.p2align 4,,15
 834              		.syntax unified
 835              		.thumb
 836              		.thumb_func
 837              		.fpu fpv4-sp-d16
 838              		.type	osalEventObjectInit, %function
 839              	osalEventObjectInit:
 840              	.LFB244:
 841              		.loc 6 775 0
 842              		.cfi_startproc
 843              		@ args = 0, pretend = 0, frame = 16
 844              		@ frame_needed = 0, uses_anonymous_args = 0
 845 0000 00B5     		push	{lr}
 846              		.cfi_def_cfa_offset 4
 847              		.cfi_offset 14, -4
 848 0002 85B0     		sub	sp, sp, #20
 849              		.cfi_def_cfa_offset 24
 850 0004 0190     		str	r0, [sp, #4]
 851              		.loc 6 775 0
 852 0006 084B     		ldr	r3, .L70
 853 0008 1B68     		ldr	r3, [r3]
 854 000a 0393     		str	r3, [sp, #12]
 855              		.loc 6 777 0
ARM GAS  C:\Users\PCHAUT~1\AppData\Local\Temp\ccOhqcVB.s 			page 16


 856 000c 0198     		ldr	r0, [sp, #4]
 857 000e FFF7FEFF 		bl	chEvtObjectInit
 858              		.loc 6 778 0
 859 0012 00BF     		nop
 860 0014 044B     		ldr	r3, .L70
 861 0016 039A     		ldr	r2, [sp, #12]
 862 0018 1B68     		ldr	r3, [r3]
 863 001a 9A42     		cmp	r2, r3
 864 001c 01D0     		beq	.L69
 865 001e FFF7FEFF 		bl	__stack_chk_fail
 866              	.L69:
 867 0022 05B0     		add	sp, sp, #20
 868              		.cfi_def_cfa_offset 4
 869              		@ sp needed
 870 0024 5DF804FB 		ldr	pc, [sp], #4
 871              	.L71:
 872              		.align	2
 873              	.L70:
 874 0028 00000000 		.word	__stack_chk_guard
 875              		.cfi_endproc
 876              	.LFE244:
 877              		.size	osalEventObjectInit, .-osalEventObjectInit
 878              		.section	.text.osalEventBroadcastFlagsI,"ax",%progbits
 879              		.align	1
 880              		.p2align 4,,15
 881              		.syntax unified
 882              		.thumb
 883              		.thumb_func
 884              		.fpu fpv4-sp-d16
 885              		.type	osalEventBroadcastFlagsI, %function
 886              	osalEventBroadcastFlagsI:
 887              	.LFB245:
 888              		.loc 6 796 0
 889              		.cfi_startproc
 890              		@ args = 0, pretend = 0, frame = 16
 891              		@ frame_needed = 0, uses_anonymous_args = 0
 892 0000 00B5     		push	{lr}
 893              		.cfi_def_cfa_offset 4
 894              		.cfi_offset 14, -4
 895 0002 85B0     		sub	sp, sp, #20
 896              		.cfi_def_cfa_offset 24
 897 0004 0190     		str	r0, [sp, #4]
 898 0006 0091     		str	r1, [sp]
 899              		.loc 6 796 0
 900 0008 084B     		ldr	r3, .L74
 901 000a 1B68     		ldr	r3, [r3]
 902 000c 0393     		str	r3, [sp, #12]
 903              		.loc 6 798 0
 904 000e 0099     		ldr	r1, [sp]
 905 0010 0198     		ldr	r0, [sp, #4]
 906 0012 FFF7FEFF 		bl	chEvtBroadcastFlagsI
 907              		.loc 6 799 0
 908 0016 00BF     		nop
 909 0018 044B     		ldr	r3, .L74
 910 001a 039A     		ldr	r2, [sp, #12]
 911 001c 1B68     		ldr	r3, [r3]
 912 001e 9A42     		cmp	r2, r3
ARM GAS  C:\Users\PCHAUT~1\AppData\Local\Temp\ccOhqcVB.s 			page 17


 913 0020 01D0     		beq	.L73
 914 0022 FFF7FEFF 		bl	__stack_chk_fail
 915              	.L73:
 916 0026 05B0     		add	sp, sp, #20
 917              		.cfi_def_cfa_offset 4
 918              		@ sp needed
 919 0028 5DF804FB 		ldr	pc, [sp], #4
 920              	.L75:
 921              		.align	2
 922              	.L74:
 923 002c 00000000 		.word	__stack_chk_guard
 924              		.cfi_endproc
 925              	.LFE245:
 926              		.size	osalEventBroadcastFlagsI, .-osalEventBroadcastFlagsI
 927              		.section	.data.linecoding,"aw",%progbits
 928              		.align	2
 929              		.type	linecoding, %object
 930              		.size	linecoding, 7
 931              	linecoding:
 932 0000 00       		.byte	0
 933 0001 96       		.byte	-106
 934 0002 00       		.byte	0
 935 0003 00       		.byte	0
 936 0004 00       		.byte	0
 937 0005 00       		.byte	0
 938 0006 08       		.byte	8
 939              		.section	.text.write,"ax",%progbits
 940              		.align	1
 941              		.p2align 4,,15
 942              		.syntax unified
 943              		.thumb
 944              		.thumb_func
 945              		.fpu fpv4-sp-d16
 946              		.type	write, %function
 947              	write:
 948              	.LFB256:
 949              		.file 7 "../lib/e-puck2_main-processor/ChibiOS//os/hal/src/serial_usb.c"
 950              		.loc 7 57 0
 951              		.cfi_startproc
 952              		@ args = 0, pretend = 0, frame = 24
 953              		@ frame_needed = 0, uses_anonymous_args = 0
 954 0000 00B5     		push	{lr}
 955              		.cfi_def_cfa_offset 4
 956              		.cfi_offset 14, -4
 957 0002 87B0     		sub	sp, sp, #28
 958              		.cfi_def_cfa_offset 32
 959 0004 0390     		str	r0, [sp, #12]
 960 0006 0291     		str	r1, [sp, #8]
 961 0008 0192     		str	r2, [sp, #4]
 962              		.loc 7 57 0
 963 000a 0C4B     		ldr	r3, .L79
 964 000c 1B68     		ldr	r3, [r3]
 965 000e 0593     		str	r3, [sp, #20]
 966              		.loc 7 59 0
 967 0010 039B     		ldr	r3, [sp, #12]
 968 0012 03F13000 		add	r0, r3, #48
 969 0016 4FF0FF33 		mov	r3, #-1
ARM GAS  C:\Users\PCHAUT~1\AppData\Local\Temp\ccOhqcVB.s 			page 18


 970 001a 019A     		ldr	r2, [sp, #4]
 971 001c 0299     		ldr	r1, [sp, #8]
 972 001e FFF7FEFF 		bl	chOQWriteTimeout
 973 0022 0346     		mov	r3, r0
 974              		.loc 7 61 0
 975 0024 1846     		mov	r0, r3
 976 0026 054B     		ldr	r3, .L79
 977 0028 059A     		ldr	r2, [sp, #20]
 978 002a 1B68     		ldr	r3, [r3]
 979 002c 9A42     		cmp	r2, r3
 980 002e 01D0     		beq	.L78
 981 0030 FFF7FEFF 		bl	__stack_chk_fail
 982              	.L78:
 983 0034 07B0     		add	sp, sp, #28
 984              		.cfi_def_cfa_offset 4
 985              		@ sp needed
 986 0036 5DF804FB 		ldr	pc, [sp], #4
 987              	.L80:
 988 003a 00BF     		.align	2
 989              	.L79:
 990 003c 00000000 		.word	__stack_chk_guard
 991              		.cfi_endproc
 992              	.LFE256:
 993              		.size	write, .-write
 994              		.section	.text.read,"ax",%progbits
 995              		.align	1
 996              		.p2align 4,,15
 997              		.syntax unified
 998              		.thumb
 999              		.thumb_func
 1000              		.fpu fpv4-sp-d16
 1001              		.type	read, %function
 1002              	read:
 1003              	.LFB257:
 1004              		.loc 7 63 0
 1005              		.cfi_startproc
 1006              		@ args = 0, pretend = 0, frame = 24
 1007              		@ frame_needed = 0, uses_anonymous_args = 0
 1008 0000 00B5     		push	{lr}
 1009              		.cfi_def_cfa_offset 4
 1010              		.cfi_offset 14, -4
 1011 0002 87B0     		sub	sp, sp, #28
 1012              		.cfi_def_cfa_offset 32
 1013 0004 0390     		str	r0, [sp, #12]
 1014 0006 0291     		str	r1, [sp, #8]
 1015 0008 0192     		str	r2, [sp, #4]
 1016              		.loc 7 63 0
 1017 000a 0C4B     		ldr	r3, .L84
 1018 000c 1B68     		ldr	r3, [r3]
 1019 000e 0593     		str	r3, [sp, #20]
 1020              		.loc 7 65 0
 1021 0010 039B     		ldr	r3, [sp, #12]
 1022 0012 03F10C00 		add	r0, r3, #12
 1023 0016 4FF0FF33 		mov	r3, #-1
 1024 001a 019A     		ldr	r2, [sp, #4]
 1025 001c 0299     		ldr	r1, [sp, #8]
 1026 001e FFF7FEFF 		bl	chIQReadTimeout
ARM GAS  C:\Users\PCHAUT~1\AppData\Local\Temp\ccOhqcVB.s 			page 19


 1027 0022 0346     		mov	r3, r0
 1028              		.loc 7 67 0
 1029 0024 1846     		mov	r0, r3
 1030 0026 054B     		ldr	r3, .L84
 1031 0028 059A     		ldr	r2, [sp, #20]
 1032 002a 1B68     		ldr	r3, [r3]
 1033 002c 9A42     		cmp	r2, r3
 1034 002e 01D0     		beq	.L83
 1035 0030 FFF7FEFF 		bl	__stack_chk_fail
 1036              	.L83:
 1037 0034 07B0     		add	sp, sp, #28
 1038              		.cfi_def_cfa_offset 4
 1039              		@ sp needed
 1040 0036 5DF804FB 		ldr	pc, [sp], #4
 1041              	.L85:
 1042 003a 00BF     		.align	2
 1043              	.L84:
 1044 003c 00000000 		.word	__stack_chk_guard
 1045              		.cfi_endproc
 1046              	.LFE257:
 1047              		.size	read, .-read
 1048              		.section	.text.put,"ax",%progbits
 1049              		.align	1
 1050              		.p2align 4,,15
 1051              		.syntax unified
 1052              		.thumb
 1053              		.thumb_func
 1054              		.fpu fpv4-sp-d16
 1055              		.type	put, %function
 1056              	put:
 1057              	.LFB258:
 1058              		.loc 7 69 0
 1059              		.cfi_startproc
 1060              		@ args = 0, pretend = 0, frame = 16
 1061              		@ frame_needed = 0, uses_anonymous_args = 0
 1062 0000 00B5     		push	{lr}
 1063              		.cfi_def_cfa_offset 4
 1064              		.cfi_offset 14, -4
 1065 0002 85B0     		sub	sp, sp, #20
 1066              		.cfi_def_cfa_offset 24
 1067 0004 0190     		str	r0, [sp, #4]
 1068 0006 0B46     		mov	r3, r1
 1069 0008 8DF80330 		strb	r3, [sp, #3]
 1070              		.loc 7 69 0
 1071 000c 0B4B     		ldr	r3, .L89
 1072 000e 1B68     		ldr	r3, [r3]
 1073 0010 0393     		str	r3, [sp, #12]
 1074              		.loc 7 71 0
 1075 0012 019B     		ldr	r3, [sp, #4]
 1076 0014 3033     		adds	r3, r3, #48
 1077 0016 9DF80310 		ldrb	r1, [sp, #3]	@ zero_extendqisi2
 1078 001a 4FF0FF32 		mov	r2, #-1
 1079 001e 1846     		mov	r0, r3
 1080 0020 FFF7FEFF 		bl	chOQPutTimeout
 1081 0024 0346     		mov	r3, r0
 1082              		.loc 7 72 0
 1083 0026 1846     		mov	r0, r3
ARM GAS  C:\Users\PCHAUT~1\AppData\Local\Temp\ccOhqcVB.s 			page 20


 1084 0028 044B     		ldr	r3, .L89
 1085 002a 039A     		ldr	r2, [sp, #12]
 1086 002c 1B68     		ldr	r3, [r3]
 1087 002e 9A42     		cmp	r2, r3
 1088 0030 01D0     		beq	.L88
 1089 0032 FFF7FEFF 		bl	__stack_chk_fail
 1090              	.L88:
 1091 0036 05B0     		add	sp, sp, #20
 1092              		.cfi_def_cfa_offset 4
 1093              		@ sp needed
 1094 0038 5DF804FB 		ldr	pc, [sp], #4
 1095              	.L90:
 1096              		.align	2
 1097              	.L89:
 1098 003c 00000000 		.word	__stack_chk_guard
 1099              		.cfi_endproc
 1100              	.LFE258:
 1101              		.size	put, .-put
 1102              		.section	.text.get,"ax",%progbits
 1103              		.align	1
 1104              		.p2align 4,,15
 1105              		.syntax unified
 1106              		.thumb
 1107              		.thumb_func
 1108              		.fpu fpv4-sp-d16
 1109              		.type	get, %function
 1110              	get:
 1111              	.LFB259:
 1112              		.loc 7 74 0
 1113              		.cfi_startproc
 1114              		@ args = 0, pretend = 0, frame = 16
 1115              		@ frame_needed = 0, uses_anonymous_args = 0
 1116 0000 00B5     		push	{lr}
 1117              		.cfi_def_cfa_offset 4
 1118              		.cfi_offset 14, -4
 1119 0002 85B0     		sub	sp, sp, #20
 1120              		.cfi_def_cfa_offset 24
 1121 0004 0190     		str	r0, [sp, #4]
 1122              		.loc 7 74 0
 1123 0006 0B4B     		ldr	r3, .L94
 1124 0008 1B68     		ldr	r3, [r3]
 1125 000a 0393     		str	r3, [sp, #12]
 1126              		.loc 7 76 0
 1127 000c 019B     		ldr	r3, [sp, #4]
 1128 000e 0C33     		adds	r3, r3, #12
 1129 0010 4FF0FF31 		mov	r1, #-1
 1130 0014 1846     		mov	r0, r3
 1131 0016 FFF7FEFF 		bl	chIQGetTimeout
 1132 001a 0346     		mov	r3, r0
 1133              		.loc 7 77 0
 1134 001c 1846     		mov	r0, r3
 1135 001e 054B     		ldr	r3, .L94
 1136 0020 039A     		ldr	r2, [sp, #12]
 1137 0022 1B68     		ldr	r3, [r3]
 1138 0024 9A42     		cmp	r2, r3
 1139 0026 01D0     		beq	.L93
 1140 0028 FFF7FEFF 		bl	__stack_chk_fail
ARM GAS  C:\Users\PCHAUT~1\AppData\Local\Temp\ccOhqcVB.s 			page 21


 1141              	.L93:
 1142 002c 05B0     		add	sp, sp, #20
 1143              		.cfi_def_cfa_offset 4
 1144              		@ sp needed
 1145 002e 5DF804FB 		ldr	pc, [sp], #4
 1146              	.L95:
 1147 0032 00BF     		.align	2
 1148              	.L94:
 1149 0034 00000000 		.word	__stack_chk_guard
 1150              		.cfi_endproc
 1151              	.LFE259:
 1152              		.size	get, .-get
 1153              		.section	.text.putt,"ax",%progbits
 1154              		.align	1
 1155              		.p2align 4,,15
 1156              		.syntax unified
 1157              		.thumb
 1158              		.thumb_func
 1159              		.fpu fpv4-sp-d16
 1160              		.type	putt, %function
 1161              	putt:
 1162              	.LFB260:
 1163              		.loc 7 79 0
 1164              		.cfi_startproc
 1165              		@ args = 0, pretend = 0, frame = 24
 1166              		@ frame_needed = 0, uses_anonymous_args = 0
 1167 0000 00B5     		push	{lr}
 1168              		.cfi_def_cfa_offset 4
 1169              		.cfi_offset 14, -4
 1170 0002 87B0     		sub	sp, sp, #28
 1171              		.cfi_def_cfa_offset 32
 1172 0004 0390     		str	r0, [sp, #12]
 1173 0006 0B46     		mov	r3, r1
 1174 0008 0192     		str	r2, [sp, #4]
 1175 000a 8DF80B30 		strb	r3, [sp, #11]
 1176              		.loc 7 79 0
 1177 000e 0B4B     		ldr	r3, .L99
 1178 0010 1B68     		ldr	r3, [r3]
 1179 0012 0593     		str	r3, [sp, #20]
 1180              		.loc 7 81 0
 1181 0014 039B     		ldr	r3, [sp, #12]
 1182 0016 3033     		adds	r3, r3, #48
 1183 0018 9DF80B10 		ldrb	r1, [sp, #11]	@ zero_extendqisi2
 1184 001c 019A     		ldr	r2, [sp, #4]
 1185 001e 1846     		mov	r0, r3
 1186 0020 FFF7FEFF 		bl	chOQPutTimeout
 1187 0024 0346     		mov	r3, r0
 1188              		.loc 7 82 0
 1189 0026 1846     		mov	r0, r3
 1190 0028 044B     		ldr	r3, .L99
 1191 002a 059A     		ldr	r2, [sp, #20]
 1192 002c 1B68     		ldr	r3, [r3]
 1193 002e 9A42     		cmp	r2, r3
 1194 0030 01D0     		beq	.L98
 1195 0032 FFF7FEFF 		bl	__stack_chk_fail
 1196              	.L98:
 1197 0036 07B0     		add	sp, sp, #28
ARM GAS  C:\Users\PCHAUT~1\AppData\Local\Temp\ccOhqcVB.s 			page 22


 1198              		.cfi_def_cfa_offset 4
 1199              		@ sp needed
 1200 0038 5DF804FB 		ldr	pc, [sp], #4
 1201              	.L100:
 1202              		.align	2
 1203              	.L99:
 1204 003c 00000000 		.word	__stack_chk_guard
 1205              		.cfi_endproc
 1206              	.LFE260:
 1207              		.size	putt, .-putt
 1208              		.section	.text.gett,"ax",%progbits
 1209              		.align	1
 1210              		.p2align 4,,15
 1211              		.syntax unified
 1212              		.thumb
 1213              		.thumb_func
 1214              		.fpu fpv4-sp-d16
 1215              		.type	gett, %function
 1216              	gett:
 1217              	.LFB261:
 1218              		.loc 7 84 0
 1219              		.cfi_startproc
 1220              		@ args = 0, pretend = 0, frame = 16
 1221              		@ frame_needed = 0, uses_anonymous_args = 0
 1222 0000 00B5     		push	{lr}
 1223              		.cfi_def_cfa_offset 4
 1224              		.cfi_offset 14, -4
 1225 0002 85B0     		sub	sp, sp, #20
 1226              		.cfi_def_cfa_offset 24
 1227 0004 0190     		str	r0, [sp, #4]
 1228 0006 0091     		str	r1, [sp]
 1229              		.loc 7 84 0
 1230 0008 0A4B     		ldr	r3, .L104
 1231 000a 1B68     		ldr	r3, [r3]
 1232 000c 0393     		str	r3, [sp, #12]
 1233              		.loc 7 86 0
 1234 000e 019B     		ldr	r3, [sp, #4]
 1235 0010 0C33     		adds	r3, r3, #12
 1236 0012 0099     		ldr	r1, [sp]
 1237 0014 1846     		mov	r0, r3
 1238 0016 FFF7FEFF 		bl	chIQGetTimeout
 1239 001a 0346     		mov	r3, r0
 1240              		.loc 7 87 0
 1241 001c 1846     		mov	r0, r3
 1242 001e 054B     		ldr	r3, .L104
 1243 0020 039A     		ldr	r2, [sp, #12]
 1244 0022 1B68     		ldr	r3, [r3]
 1245 0024 9A42     		cmp	r2, r3
 1246 0026 01D0     		beq	.L103
 1247 0028 FFF7FEFF 		bl	__stack_chk_fail
 1248              	.L103:
 1249 002c 05B0     		add	sp, sp, #20
 1250              		.cfi_def_cfa_offset 4
 1251              		@ sp needed
 1252 002e 5DF804FB 		ldr	pc, [sp], #4
 1253              	.L105:
 1254 0032 00BF     		.align	2
ARM GAS  C:\Users\PCHAUT~1\AppData\Local\Temp\ccOhqcVB.s 			page 23


 1255              	.L104:
 1256 0034 00000000 		.word	__stack_chk_guard
 1257              		.cfi_endproc
 1258              	.LFE261:
 1259              		.size	gett, .-gett
 1260              		.section	.text.writet,"ax",%progbits
 1261              		.align	1
 1262              		.p2align 4,,15
 1263              		.syntax unified
 1264              		.thumb
 1265              		.thumb_func
 1266              		.fpu fpv4-sp-d16
 1267              		.type	writet, %function
 1268              	writet:
 1269              	.LFB262:
 1270              		.loc 7 89 0
 1271              		.cfi_startproc
 1272              		@ args = 0, pretend = 0, frame = 24
 1273              		@ frame_needed = 0, uses_anonymous_args = 0
 1274 0000 00B5     		push	{lr}
 1275              		.cfi_def_cfa_offset 4
 1276              		.cfi_offset 14, -4
 1277 0002 87B0     		sub	sp, sp, #28
 1278              		.cfi_def_cfa_offset 32
 1279 0004 0390     		str	r0, [sp, #12]
 1280 0006 0291     		str	r1, [sp, #8]
 1281 0008 0192     		str	r2, [sp, #4]
 1282 000a 0093     		str	r3, [sp]
 1283              		.loc 7 89 0
 1284 000c 0B4B     		ldr	r3, .L109
 1285 000e 1B68     		ldr	r3, [r3]
 1286 0010 0593     		str	r3, [sp, #20]
 1287              		.loc 7 91 0
 1288 0012 039B     		ldr	r3, [sp, #12]
 1289 0014 03F13000 		add	r0, r3, #48
 1290 0018 009B     		ldr	r3, [sp]
 1291 001a 019A     		ldr	r2, [sp, #4]
 1292 001c 0299     		ldr	r1, [sp, #8]
 1293 001e FFF7FEFF 		bl	chOQWriteTimeout
 1294 0022 0346     		mov	r3, r0
 1295              		.loc 7 92 0
 1296 0024 1846     		mov	r0, r3
 1297 0026 054B     		ldr	r3, .L109
 1298 0028 059A     		ldr	r2, [sp, #20]
 1299 002a 1B68     		ldr	r3, [r3]
 1300 002c 9A42     		cmp	r2, r3
 1301 002e 01D0     		beq	.L108
 1302 0030 FFF7FEFF 		bl	__stack_chk_fail
 1303              	.L108:
 1304 0034 07B0     		add	sp, sp, #28
 1305              		.cfi_def_cfa_offset 4
 1306              		@ sp needed
 1307 0036 5DF804FB 		ldr	pc, [sp], #4
 1308              	.L110:
 1309 003a 00BF     		.align	2
 1310              	.L109:
 1311 003c 00000000 		.word	__stack_chk_guard
ARM GAS  C:\Users\PCHAUT~1\AppData\Local\Temp\ccOhqcVB.s 			page 24


 1312              		.cfi_endproc
 1313              	.LFE262:
 1314              		.size	writet, .-writet
 1315              		.section	.text.readt,"ax",%progbits
 1316              		.align	1
 1317              		.p2align 4,,15
 1318              		.syntax unified
 1319              		.thumb
 1320              		.thumb_func
 1321              		.fpu fpv4-sp-d16
 1322              		.type	readt, %function
 1323              	readt:
 1324              	.LFB263:
 1325              		.loc 7 94 0
 1326              		.cfi_startproc
 1327              		@ args = 0, pretend = 0, frame = 24
 1328              		@ frame_needed = 0, uses_anonymous_args = 0
 1329 0000 00B5     		push	{lr}
 1330              		.cfi_def_cfa_offset 4
 1331              		.cfi_offset 14, -4
 1332 0002 87B0     		sub	sp, sp, #28
 1333              		.cfi_def_cfa_offset 32
 1334 0004 0390     		str	r0, [sp, #12]
 1335 0006 0291     		str	r1, [sp, #8]
 1336 0008 0192     		str	r2, [sp, #4]
 1337 000a 0093     		str	r3, [sp]
 1338              		.loc 7 94 0
 1339 000c 0B4B     		ldr	r3, .L114
 1340 000e 1B68     		ldr	r3, [r3]
 1341 0010 0593     		str	r3, [sp, #20]
 1342              		.loc 7 96 0
 1343 0012 039B     		ldr	r3, [sp, #12]
 1344 0014 03F10C00 		add	r0, r3, #12
 1345 0018 009B     		ldr	r3, [sp]
 1346 001a 019A     		ldr	r2, [sp, #4]
 1347 001c 0299     		ldr	r1, [sp, #8]
 1348 001e FFF7FEFF 		bl	chIQReadTimeout
 1349 0022 0346     		mov	r3, r0
 1350              		.loc 7 97 0
 1351 0024 1846     		mov	r0, r3
 1352 0026 054B     		ldr	r3, .L114
 1353 0028 059A     		ldr	r2, [sp, #20]
 1354 002a 1B68     		ldr	r3, [r3]
 1355 002c 9A42     		cmp	r2, r3
 1356 002e 01D0     		beq	.L113
 1357 0030 FFF7FEFF 		bl	__stack_chk_fail
 1358              	.L113:
 1359 0034 07B0     		add	sp, sp, #28
 1360              		.cfi_def_cfa_offset 4
 1361              		@ sp needed
 1362 0036 5DF804FB 		ldr	pc, [sp], #4
 1363              	.L115:
 1364 003a 00BF     		.align	2
 1365              	.L114:
 1366 003c 00000000 		.word	__stack_chk_guard
 1367              		.cfi_endproc
 1368              	.LFE263:
ARM GAS  C:\Users\PCHAUT~1\AppData\Local\Temp\ccOhqcVB.s 			page 25


 1369              		.size	readt, .-readt
 1370              		.section	.rodata.vmt,"a",%progbits
 1371              		.align	2
 1372              		.type	vmt, %object
 1373              		.size	vmt, 32
 1374              	vmt:
 1375 0000 00000000 		.word	write
 1376 0004 00000000 		.word	read
 1377 0008 00000000 		.word	put
 1378 000c 00000000 		.word	get
 1379 0010 00000000 		.word	putt
 1380 0014 00000000 		.word	gett
 1381 0018 00000000 		.word	writet
 1382 001c 00000000 		.word	readt
 1383              		.section	.text.inotify,"ax",%progbits
 1384              		.align	1
 1385              		.p2align 4,,15
 1386              		.syntax unified
 1387              		.thumb
 1388              		.thumb_func
 1389              		.fpu fpv4-sp-d16
 1390              		.type	inotify, %function
 1391              	inotify:
 1392              	.LFB264:
 1393              		.loc 7 109 0
 1394              		.cfi_startproc
 1395              		@ args = 0, pretend = 0, frame = 24
 1396              		@ frame_needed = 0, uses_anonymous_args = 0
 1397 0000 00B5     		push	{lr}
 1398              		.cfi_def_cfa_offset 4
 1399              		.cfi_offset 14, -4
 1400 0002 87B0     		sub	sp, sp, #28
 1401              		.cfi_def_cfa_offset 32
 1402 0004 0190     		str	r0, [sp, #4]
 1403              		.loc 7 109 0
 1404 0006 364B     		ldr	r3, .L122
 1405 0008 1B68     		ldr	r3, [r3]
 1406 000a 0593     		str	r3, [sp, #20]
 1407              		.loc 7 111 0
 1408 000c 019B     		ldr	r3, [sp, #4]
 1409 000e 1B6A     		ldr	r3, [r3, #32]
 1410 0010 0293     		str	r3, [sp, #8]
 1411              		.loc 7 115 0
 1412 0012 029B     		ldr	r3, [sp, #8]
 1413 0014 D3F85432 		ldr	r3, [r3, #596]
 1414 0018 1B68     		ldr	r3, [r3]
 1415 001a 1B78     		ldrb	r3, [r3]	@ zero_extendqisi2
 1416 001c 042B     		cmp	r3, #4
 1417 001e 53D1     		bne	.L121
 1418              		.loc 7 116 0 discriminator 1
 1419 0020 029B     		ldr	r3, [sp, #8]
 1420 0022 1B7A     		ldrb	r3, [r3, #8]	@ zero_extendqisi2
 1421              		.loc 7 115 0 discriminator 1
 1422 0024 022B     		cmp	r3, #2
 1423 0026 4FD1     		bne	.L121
 1424              		.loc 7 123 0
 1425 0028 029B     		ldr	r3, [sp, #8]
ARM GAS  C:\Users\PCHAUT~1\AppData\Local\Temp\ccOhqcVB.s 			page 26


 1426 002a D3F85432 		ldr	r3, [r3, #596]
 1427 002e 1A68     		ldr	r2, [r3]
 1428 0030 029B     		ldr	r3, [sp, #8]
 1429 0032 D3F85432 		ldr	r3, [r3, #596]
 1430 0036 5B79     		ldrb	r3, [r3, #5]	@ zero_extendqisi2
 1431 0038 0233     		adds	r3, r3, #2
 1432 003a 9B00     		lsls	r3, r3, #2
 1433 003c 1344     		add	r3, r3, r2
 1434 003e 5B68     		ldr	r3, [r3, #4]
 1435 0040 5B8A     		ldrh	r3, [r3, #18]
 1436 0042 0393     		str	r3, [sp, #12]
 1437              		.loc 7 124 0
 1438 0044 029B     		ldr	r3, [sp, #8]
 1439 0046 D3F85432 		ldr	r3, [r3, #596]
 1440 004a 1B68     		ldr	r3, [r3]
 1441 004c 5A89     		ldrh	r2, [r3, #10]
 1442 004e 029B     		ldr	r3, [sp, #8]
 1443 0050 D3F85432 		ldr	r3, [r3, #596]
 1444 0054 5B79     		ldrb	r3, [r3, #5]	@ zero_extendqisi2
 1445 0056 1946     		mov	r1, r3
 1446 0058 0123     		movs	r3, #1
 1447 005a 8B40     		lsls	r3, r3, r1
 1448 005c 9BB2     		uxth	r3, r3
 1449 005e 1340     		ands	r3, r3, r2
 1450 0060 9BB2     		uxth	r3, r3
 1451 0062 002B     		cmp	r3, #0
 1452 0064 31D1     		bne	.L116
 1453              		.loc 7 125 0
 1454 0066 029B     		ldr	r3, [sp, #8]
 1455 0068 0C33     		adds	r3, r3, #12
 1456 006a 1846     		mov	r0, r3
 1457 006c FFF7FEFF 		bl	chIQGetEmptyI
 1458 0070 0490     		str	r0, [sp, #16]
 1459 0072 049A     		ldr	r2, [sp, #16]
 1460 0074 039B     		ldr	r3, [sp, #12]
 1461 0076 9A42     		cmp	r2, r3
 1462 0078 27D3     		bcc	.L116
 1463              		.loc 7 126 0
 1464 007a FFF7FEFF 		bl	osalSysUnlock
 1465              		.loc 7 128 0
 1466 007e 049A     		ldr	r2, [sp, #16]
 1467 0080 039B     		ldr	r3, [sp, #12]
 1468 0082 B2FBF3F2 		udiv	r2, r2, r3
 1469 0086 039B     		ldr	r3, [sp, #12]
 1470 0088 02FB03F3 		mul	r3, r2, r3
 1471 008c 0493     		str	r3, [sp, #16]
 1472              		.loc 7 129 0
 1473 008e 029B     		ldr	r3, [sp, #8]
 1474 0090 D3F85432 		ldr	r3, [r3, #596]
 1475 0094 1868     		ldr	r0, [r3]
 1476              		.loc 7 130 0
 1477 0096 029B     		ldr	r3, [sp, #8]
 1478 0098 D3F85432 		ldr	r3, [r3, #596]
 1479              		.loc 7 129 0
 1480 009c 5979     		ldrb	r1, [r3, #5]	@ zero_extendqisi2
 1481 009e 029B     		ldr	r3, [sp, #8]
 1482 00a0 03F10C02 		add	r2, r3, #12
ARM GAS  C:\Users\PCHAUT~1\AppData\Local\Temp\ccOhqcVB.s 			page 27


 1483 00a4 049B     		ldr	r3, [sp, #16]
 1484 00a6 FFF7FEFF 		bl	usbPrepareQueuedReceive
 1485              		.loc 7 133 0
 1486 00aa FFF7FEFF 		bl	osalSysLock
 1487              		.loc 7 134 0
 1488 00ae 029B     		ldr	r3, [sp, #8]
 1489 00b0 D3F85432 		ldr	r3, [r3, #596]
 1490 00b4 1A68     		ldr	r2, [r3]
 1491 00b6 029B     		ldr	r3, [sp, #8]
 1492 00b8 D3F85432 		ldr	r3, [r3, #596]
 1493 00bc 5B79     		ldrb	r3, [r3, #5]	@ zero_extendqisi2
 1494 00be 1946     		mov	r1, r3
 1495 00c0 1046     		mov	r0, r2
 1496 00c2 FFF7FEFF 		bl	usbStartReceiveI
 1497 00c6 00E0     		b	.L116
 1498              	.L121:
 1499              		.loc 7 117 0
 1500 00c8 00BF     		nop
 1501              	.L116:
 1502              		.loc 7 137 0
 1503 00ca 054B     		ldr	r3, .L122
 1504 00cc 059A     		ldr	r2, [sp, #20]
 1505 00ce 1B68     		ldr	r3, [r3]
 1506 00d0 9A42     		cmp	r2, r3
 1507 00d2 01D0     		beq	.L120
 1508 00d4 FFF7FEFF 		bl	__stack_chk_fail
 1509              	.L120:
 1510 00d8 07B0     		add	sp, sp, #28
 1511              		.cfi_def_cfa_offset 4
 1512              		@ sp needed
 1513 00da 5DF804FB 		ldr	pc, [sp], #4
 1514              	.L123:
 1515 00de 00BF     		.align	2
 1516              	.L122:
 1517 00e0 00000000 		.word	__stack_chk_guard
 1518              		.cfi_endproc
 1519              	.LFE264:
 1520              		.size	inotify, .-inotify
 1521              		.section	.text.onotify,"ax",%progbits
 1522              		.align	1
 1523              		.p2align 4,,15
 1524              		.syntax unified
 1525              		.thumb
 1526              		.thumb_func
 1527              		.fpu fpv4-sp-d16
 1528              		.type	onotify, %function
 1529              	onotify:
 1530              	.LFB265:
 1531              		.loc 7 144 0
 1532              		.cfi_startproc
 1533              		@ args = 0, pretend = 0, frame = 24
 1534              		@ frame_needed = 0, uses_anonymous_args = 0
 1535 0000 00B5     		push	{lr}
 1536              		.cfi_def_cfa_offset 4
 1537              		.cfi_offset 14, -4
 1538 0002 87B0     		sub	sp, sp, #28
 1539              		.cfi_def_cfa_offset 32
ARM GAS  C:\Users\PCHAUT~1\AppData\Local\Temp\ccOhqcVB.s 			page 28


 1540 0004 0190     		str	r0, [sp, #4]
 1541              		.loc 7 144 0
 1542 0006 2A4B     		ldr	r3, .L130
 1543 0008 1B68     		ldr	r3, [r3]
 1544 000a 0593     		str	r3, [sp, #20]
 1545              		.loc 7 146 0
 1546 000c 019B     		ldr	r3, [sp, #4]
 1547 000e 1B6A     		ldr	r3, [r3, #32]
 1548 0010 0393     		str	r3, [sp, #12]
 1549              		.loc 7 150 0
 1550 0012 039B     		ldr	r3, [sp, #12]
 1551 0014 D3F85432 		ldr	r3, [r3, #596]
 1552 0018 1B68     		ldr	r3, [r3]
 1553 001a 1B78     		ldrb	r3, [r3]	@ zero_extendqisi2
 1554 001c 042B     		cmp	r3, #4
 1555 001e 3CD1     		bne	.L129
 1556              		.loc 7 151 0 discriminator 1
 1557 0020 039B     		ldr	r3, [sp, #12]
 1558 0022 1B7A     		ldrb	r3, [r3, #8]	@ zero_extendqisi2
 1559              		.loc 7 150 0 discriminator 1
 1560 0024 022B     		cmp	r3, #2
 1561 0026 38D1     		bne	.L129
 1562              		.loc 7 157 0
 1563 0028 039B     		ldr	r3, [sp, #12]
 1564 002a D3F85432 		ldr	r3, [r3, #596]
 1565 002e 1B68     		ldr	r3, [r3]
 1566 0030 1A89     		ldrh	r2, [r3, #8]
 1567 0032 039B     		ldr	r3, [sp, #12]
 1568 0034 D3F85432 		ldr	r3, [r3, #596]
 1569 0038 1B79     		ldrb	r3, [r3, #4]	@ zero_extendqisi2
 1570 003a 1946     		mov	r1, r3
 1571 003c 0123     		movs	r3, #1
 1572 003e 8B40     		lsls	r3, r3, r1
 1573 0040 9BB2     		uxth	r3, r3
 1574 0042 1340     		ands	r3, r3, r2
 1575 0044 9BB2     		uxth	r3, r3
 1576 0046 002B     		cmp	r3, #0
 1577 0048 28D1     		bne	.L124
 1578              		.loc 7 158 0
 1579 004a 039B     		ldr	r3, [sp, #12]
 1580 004c 3033     		adds	r3, r3, #48
 1581 004e 1846     		mov	r0, r3
 1582 0050 FFF7FEFF 		bl	chOQGetFullI
 1583 0054 0490     		str	r0, [sp, #16]
 1584 0056 049B     		ldr	r3, [sp, #16]
 1585 0058 002B     		cmp	r3, #0
 1586 005a 1FD0     		beq	.L124
 1587              		.loc 7 159 0
 1588 005c FFF7FEFF 		bl	osalSysUnlock
 1589              		.loc 7 161 0
 1590 0060 039B     		ldr	r3, [sp, #12]
 1591 0062 D3F85432 		ldr	r3, [r3, #596]
 1592 0066 1868     		ldr	r0, [r3]
 1593              		.loc 7 162 0
 1594 0068 039B     		ldr	r3, [sp, #12]
 1595 006a D3F85432 		ldr	r3, [r3, #596]
 1596              		.loc 7 161 0
ARM GAS  C:\Users\PCHAUT~1\AppData\Local\Temp\ccOhqcVB.s 			page 29


 1597 006e 1979     		ldrb	r1, [r3, #4]	@ zero_extendqisi2
 1598 0070 039B     		ldr	r3, [sp, #12]
 1599 0072 03F13002 		add	r2, r3, #48
 1600 0076 049B     		ldr	r3, [sp, #16]
 1601 0078 FFF7FEFF 		bl	usbPrepareQueuedTransmit
 1602              		.loc 7 165 0
 1603 007c FFF7FEFF 		bl	osalSysLock
 1604              		.loc 7 166 0
 1605 0080 039B     		ldr	r3, [sp, #12]
 1606 0082 D3F85432 		ldr	r3, [r3, #596]
 1607 0086 1A68     		ldr	r2, [r3]
 1608 0088 039B     		ldr	r3, [sp, #12]
 1609 008a D3F85432 		ldr	r3, [r3, #596]
 1610 008e 1B79     		ldrb	r3, [r3, #4]	@ zero_extendqisi2
 1611 0090 1946     		mov	r1, r3
 1612 0092 1046     		mov	r0, r2
 1613 0094 FFF7FEFF 		bl	usbStartTransmitI
 1614 0098 00E0     		b	.L124
 1615              	.L129:
 1616              		.loc 7 152 0
 1617 009a 00BF     		nop
 1618              	.L124:
 1619              		.loc 7 169 0
 1620 009c 044B     		ldr	r3, .L130
 1621 009e 059A     		ldr	r2, [sp, #20]
 1622 00a0 1B68     		ldr	r3, [r3]
 1623 00a2 9A42     		cmp	r2, r3
 1624 00a4 01D0     		beq	.L128
 1625 00a6 FFF7FEFF 		bl	__stack_chk_fail
 1626              	.L128:
 1627 00aa 07B0     		add	sp, sp, #28
 1628              		.cfi_def_cfa_offset 4
 1629              		@ sp needed
 1630 00ac 5DF804FB 		ldr	pc, [sp], #4
 1631              	.L131:
 1632              		.align	2
 1633              	.L130:
 1634 00b0 00000000 		.word	__stack_chk_guard
 1635              		.cfi_endproc
 1636              	.LFE265:
 1637              		.size	onotify, .-onotify
 1638              		.section	.text.sduInit,"ax",%progbits
 1639              		.align	1
 1640              		.p2align 4,,15
 1641              		.global	sduInit
 1642              		.syntax unified
 1643              		.thumb
 1644              		.thumb_func
 1645              		.fpu fpv4-sp-d16
 1646              		.type	sduInit, %function
 1647              	sduInit:
 1648              	.LFB266:
 1649              		.loc 7 182 0
 1650              		.cfi_startproc
 1651              		@ args = 0, pretend = 0, frame = 8
 1652              		@ frame_needed = 0, uses_anonymous_args = 0
 1653 0000 00B5     		push	{lr}
ARM GAS  C:\Users\PCHAUT~1\AppData\Local\Temp\ccOhqcVB.s 			page 30


 1654              		.cfi_def_cfa_offset 4
 1655              		.cfi_offset 14, -4
 1656 0002 83B0     		sub	sp, sp, #12
 1657              		.cfi_def_cfa_offset 16
 1658              		.loc 7 182 0
 1659 0004 064B     		ldr	r3, .L134
 1660 0006 1B68     		ldr	r3, [r3]
 1661 0008 0193     		str	r3, [sp, #4]
 1662              		.loc 7 183 0
 1663 000a 00BF     		nop
 1664 000c 044B     		ldr	r3, .L134
 1665 000e 019A     		ldr	r2, [sp, #4]
 1666 0010 1B68     		ldr	r3, [r3]
 1667 0012 9A42     		cmp	r2, r3
 1668 0014 01D0     		beq	.L133
 1669 0016 FFF7FEFF 		bl	__stack_chk_fail
 1670              	.L133:
 1671 001a 03B0     		add	sp, sp, #12
 1672              		.cfi_def_cfa_offset 4
 1673              		@ sp needed
 1674 001c 5DF804FB 		ldr	pc, [sp], #4
 1675              	.L135:
 1676              		.align	2
 1677              	.L134:
 1678 0020 00000000 		.word	__stack_chk_guard
 1679              		.cfi_endproc
 1680              	.LFE266:
 1681              		.size	sduInit, .-sduInit
 1682              		.section	.text.sduObjectInit,"ax",%progbits
 1683              		.align	1
 1684              		.p2align 4,,15
 1685              		.global	sduObjectInit
 1686              		.syntax unified
 1687              		.thumb
 1688              		.thumb_func
 1689              		.fpu fpv4-sp-d16
 1690              		.type	sduObjectInit, %function
 1691              	sduObjectInit:
 1692              	.LFB267:
 1693              		.loc 7 194 0
 1694              		.cfi_startproc
 1695              		@ args = 0, pretend = 0, frame = 16
 1696              		@ frame_needed = 0, uses_anonymous_args = 0
 1697 0000 00B5     		push	{lr}
 1698              		.cfi_def_cfa_offset 4
 1699              		.cfi_offset 14, -4
 1700 0002 87B0     		sub	sp, sp, #28
 1701              		.cfi_def_cfa_offset 32
 1702 0004 0390     		str	r0, [sp, #12]
 1703              		.loc 7 194 0
 1704 0006 194B     		ldr	r3, .L138
 1705 0008 1B68     		ldr	r3, [r3]
 1706 000a 0593     		str	r3, [sp, #20]
 1707              		.loc 7 196 0
 1708 000c 039B     		ldr	r3, [sp, #12]
 1709 000e 184A     		ldr	r2, .L138+4
 1710 0010 1A60     		str	r2, [r3]
ARM GAS  C:\Users\PCHAUT~1\AppData\Local\Temp\ccOhqcVB.s 			page 31


 1711              		.loc 7 197 0
 1712 0012 039B     		ldr	r3, [sp, #12]
 1713 0014 0433     		adds	r3, r3, #4
 1714 0016 1846     		mov	r0, r3
 1715 0018 FFF7FEFF 		bl	osalEventObjectInit
 1716              		.loc 7 198 0
 1717 001c 039B     		ldr	r3, [sp, #12]
 1718 001e 0122     		movs	r2, #1
 1719 0020 1A72     		strb	r2, [r3, #8]
 1720              		.loc 7 199 0
 1721 0022 039B     		ldr	r3, [sp, #12]
 1722 0024 03F10C00 		add	r0, r3, #12
 1723 0028 039B     		ldr	r3, [sp, #12]
 1724 002a 03F15401 		add	r1, r3, #84
 1725 002e 039B     		ldr	r3, [sp, #12]
 1726 0030 0093     		str	r3, [sp]
 1727 0032 104B     		ldr	r3, .L138+8
 1728 0034 4FF48072 		mov	r2, #256
 1729 0038 FFF7FEFF 		bl	chIQObjectInit
 1730              		.loc 7 200 0
 1731 003c 039B     		ldr	r3, [sp, #12]
 1732 003e 03F13000 		add	r0, r3, #48
 1733 0042 039B     		ldr	r3, [sp, #12]
 1734 0044 03F5AA71 		add	r1, r3, #340
 1735 0048 039B     		ldr	r3, [sp, #12]
 1736 004a 0093     		str	r3, [sp]
 1737 004c 0A4B     		ldr	r3, .L138+12
 1738 004e 4FF48072 		mov	r2, #256
 1739 0052 FFF7FEFF 		bl	chOQObjectInit
 1740              		.loc 7 201 0
 1741 0056 00BF     		nop
 1742 0058 044B     		ldr	r3, .L138
 1743 005a 059A     		ldr	r2, [sp, #20]
 1744 005c 1B68     		ldr	r3, [r3]
 1745 005e 9A42     		cmp	r2, r3
 1746 0060 01D0     		beq	.L137
 1747 0062 FFF7FEFF 		bl	__stack_chk_fail
 1748              	.L137:
 1749 0066 07B0     		add	sp, sp, #28
 1750              		.cfi_def_cfa_offset 4
 1751              		@ sp needed
 1752 0068 5DF804FB 		ldr	pc, [sp], #4
 1753              	.L139:
 1754              		.align	2
 1755              	.L138:
 1756 006c 00000000 		.word	__stack_chk_guard
 1757 0070 00000000 		.word	vmt
 1758 0074 00000000 		.word	inotify
 1759 0078 00000000 		.word	onotify
 1760              		.cfi_endproc
 1761              	.LFE267:
 1762              		.size	sduObjectInit, .-sduObjectInit
 1763              		.section	.text.sduStart,"ax",%progbits
 1764              		.align	1
 1765              		.p2align 4,,15
 1766              		.global	sduStart
 1767              		.syntax unified
ARM GAS  C:\Users\PCHAUT~1\AppData\Local\Temp\ccOhqcVB.s 			page 32


 1768              		.thumb
 1769              		.thumb_func
 1770              		.fpu fpv4-sp-d16
 1771              		.type	sduStart, %function
 1772              	sduStart:
 1773              	.LFB268:
 1774              		.loc 7 211 0
 1775              		.cfi_startproc
 1776              		@ args = 0, pretend = 0, frame = 16
 1777              		@ frame_needed = 0, uses_anonymous_args = 0
 1778 0000 00B5     		push	{lr}
 1779              		.cfi_def_cfa_offset 4
 1780              		.cfi_offset 14, -4
 1781 0002 85B0     		sub	sp, sp, #20
 1782              		.cfi_def_cfa_offset 24
 1783 0004 0190     		str	r0, [sp, #4]
 1784 0006 0091     		str	r1, [sp]
 1785              		.loc 7 211 0
 1786 0008 254B     		ldr	r3, .L145
 1787 000a 1B68     		ldr	r3, [r3]
 1788 000c 0393     		str	r3, [sp, #12]
 1789              		.loc 7 212 0
 1790 000e 009B     		ldr	r3, [sp]
 1791 0010 1B68     		ldr	r3, [r3]
 1792 0012 0293     		str	r3, [sp, #8]
 1793              		.loc 7 214 0
 1794 0014 019B     		ldr	r3, [sp, #4]
 1795 0016 002B     		cmp	r3, #0
 1796 0018 02D1     		bne	.L141
 1797              		.loc 7 214 0 is_stmt 0 discriminator 2
 1798 001a 2248     		ldr	r0, .L145+4
 1799 001c FFF7FEFF 		bl	chSysHalt
 1800              	.L141:
 1801              		.loc 7 216 0 is_stmt 1
 1802 0020 FFF7FEFF 		bl	osalSysLock
 1803              		.loc 7 217 0
 1804 0024 019B     		ldr	r3, [sp, #4]
 1805 0026 1B7A     		ldrb	r3, [r3, #8]	@ zero_extendqisi2
 1806 0028 012B     		cmp	r3, #1
 1807 002a 06D0     		beq	.L142
 1808              		.loc 7 217 0 is_stmt 0 discriminator 2
 1809 002c 019B     		ldr	r3, [sp, #4]
 1810 002e 1B7A     		ldrb	r3, [r3, #8]	@ zero_extendqisi2
 1811 0030 022B     		cmp	r3, #2
 1812 0032 02D0     		beq	.L142
 1813              		.loc 7 217 0 discriminator 3
 1814 0034 1B48     		ldr	r0, .L145+4
 1815 0036 FFF7FEFF 		bl	chSysHalt
 1816              	.L142:
 1817              		.loc 7 219 0 is_stmt 1
 1818 003a 009B     		ldr	r3, [sp]
 1819 003c 1B79     		ldrb	r3, [r3, #4]	@ zero_extendqisi2
 1820 003e 013B     		subs	r3, r3, #1
 1821 0040 029A     		ldr	r2, [sp, #8]
 1822 0042 0633     		adds	r3, r3, #6
 1823 0044 9B00     		lsls	r3, r3, #2
 1824 0046 1344     		add	r3, r3, r2
ARM GAS  C:\Users\PCHAUT~1\AppData\Local\Temp\ccOhqcVB.s 			page 33


 1825 0048 019A     		ldr	r2, [sp, #4]
 1826 004a 5A60     		str	r2, [r3, #4]
 1827              		.loc 7 220 0
 1828 004c 009B     		ldr	r3, [sp]
 1829 004e 5B79     		ldrb	r3, [r3, #5]	@ zero_extendqisi2
 1830 0050 5A1E     		subs	r2, r3, #1
 1831 0052 029B     		ldr	r3, [sp, #8]
 1832 0054 0A32     		adds	r2, r2, #10
 1833 0056 0199     		ldr	r1, [sp, #4]
 1834 0058 43F82210 		str	r1, [r3, r2, lsl #2]
 1835              		.loc 7 221 0
 1836 005c 009B     		ldr	r3, [sp]
 1837 005e 9B79     		ldrb	r3, [r3, #6]	@ zero_extendqisi2
 1838 0060 002B     		cmp	r3, #0
 1839 0062 08D0     		beq	.L143
 1840              		.loc 7 222 0
 1841 0064 009B     		ldr	r3, [sp]
 1842 0066 9B79     		ldrb	r3, [r3, #6]	@ zero_extendqisi2
 1843 0068 013B     		subs	r3, r3, #1
 1844 006a 029A     		ldr	r2, [sp, #8]
 1845 006c 0633     		adds	r3, r3, #6
 1846 006e 9B00     		lsls	r3, r3, #2
 1847 0070 1344     		add	r3, r3, r2
 1848 0072 019A     		ldr	r2, [sp, #4]
 1849 0074 5A60     		str	r2, [r3, #4]
 1850              	.L143:
 1851              		.loc 7 224 0
 1852 0076 019B     		ldr	r3, [sp, #4]
 1853 0078 009A     		ldr	r2, [sp]
 1854 007a C3F85422 		str	r2, [r3, #596]
 1855              		.loc 7 225 0
 1856 007e 019B     		ldr	r3, [sp, #4]
 1857 0080 0222     		movs	r2, #2
 1858 0082 1A72     		strb	r2, [r3, #8]
 1859              		.loc 7 226 0
 1860 0084 FFF7FEFF 		bl	osalSysUnlock
 1861              		.loc 7 227 0
 1862 0088 00BF     		nop
 1863 008a 054B     		ldr	r3, .L145
 1864 008c 039A     		ldr	r2, [sp, #12]
 1865 008e 1B68     		ldr	r3, [r3]
 1866 0090 9A42     		cmp	r2, r3
 1867 0092 01D0     		beq	.L144
 1868 0094 FFF7FEFF 		bl	__stack_chk_fail
 1869              	.L144:
 1870 0098 05B0     		add	sp, sp, #20
 1871              		.cfi_def_cfa_offset 4
 1872              		@ sp needed
 1873 009a 5DF804FB 		ldr	pc, [sp], #4
 1874              	.L146:
 1875 009e 00BF     		.align	2
 1876              	.L145:
 1877 00a0 00000000 		.word	__stack_chk_guard
 1878 00a4 00000000 		.word	__func__.9900
 1879              		.cfi_endproc
 1880              	.LFE268:
 1881              		.size	sduStart, .-sduStart
ARM GAS  C:\Users\PCHAUT~1\AppData\Local\Temp\ccOhqcVB.s 			page 34


 1882              		.section	.text.sduStop,"ax",%progbits
 1883              		.align	1
 1884              		.p2align 4,,15
 1885              		.global	sduStop
 1886              		.syntax unified
 1887              		.thumb
 1888              		.thumb_func
 1889              		.fpu fpv4-sp-d16
 1890              		.type	sduStop, %function
 1891              	sduStop:
 1892              	.LFB269:
 1893              		.loc 7 238 0
 1894              		.cfi_startproc
 1895              		@ args = 0, pretend = 0, frame = 16
 1896              		@ frame_needed = 0, uses_anonymous_args = 0
 1897 0000 00B5     		push	{lr}
 1898              		.cfi_def_cfa_offset 4
 1899              		.cfi_offset 14, -4
 1900 0002 85B0     		sub	sp, sp, #20
 1901              		.cfi_def_cfa_offset 24
 1902 0004 0190     		str	r0, [sp, #4]
 1903              		.loc 7 238 0
 1904 0006 314B     		ldr	r3, .L152
 1905 0008 1B68     		ldr	r3, [r3]
 1906 000a 0393     		str	r3, [sp, #12]
 1907              		.loc 7 239 0
 1908 000c 019B     		ldr	r3, [sp, #4]
 1909 000e D3F85432 		ldr	r3, [r3, #596]
 1910 0012 1B68     		ldr	r3, [r3]
 1911 0014 0293     		str	r3, [sp, #8]
 1912              		.loc 7 241 0
 1913 0016 019B     		ldr	r3, [sp, #4]
 1914 0018 002B     		cmp	r3, #0
 1915 001a 02D1     		bne	.L148
 1916              		.loc 7 241 0 is_stmt 0 discriminator 2
 1917 001c 2C48     		ldr	r0, .L152+4
 1918 001e FFF7FEFF 		bl	chSysHalt
 1919              	.L148:
 1920              		.loc 7 243 0 is_stmt 1
 1921 0022 FFF7FEFF 		bl	osalSysLock
 1922              		.loc 7 244 0
 1923 0026 019B     		ldr	r3, [sp, #4]
 1924 0028 1B7A     		ldrb	r3, [r3, #8]	@ zero_extendqisi2
 1925 002a 012B     		cmp	r3, #1
 1926 002c 06D0     		beq	.L149
 1927              		.loc 7 244 0 is_stmt 0 discriminator 2
 1928 002e 019B     		ldr	r3, [sp, #4]
 1929 0030 1B7A     		ldrb	r3, [r3, #8]	@ zero_extendqisi2
 1930 0032 022B     		cmp	r3, #2
 1931 0034 02D0     		beq	.L149
 1932              		.loc 7 244 0 discriminator 3
 1933 0036 2648     		ldr	r0, .L152+4
 1934 0038 FFF7FEFF 		bl	chSysHalt
 1935              	.L149:
 1936              		.loc 7 248 0 is_stmt 1
 1937 003c 019B     		ldr	r3, [sp, #4]
 1938 003e D3F85432 		ldr	r3, [r3, #596]
ARM GAS  C:\Users\PCHAUT~1\AppData\Local\Temp\ccOhqcVB.s 			page 35


 1939 0042 1B79     		ldrb	r3, [r3, #4]	@ zero_extendqisi2
 1940 0044 013B     		subs	r3, r3, #1
 1941 0046 029A     		ldr	r2, [sp, #8]
 1942 0048 0633     		adds	r3, r3, #6
 1943 004a 9B00     		lsls	r3, r3, #2
 1944 004c 1344     		add	r3, r3, r2
 1945 004e 0022     		movs	r2, #0
 1946 0050 5A60     		str	r2, [r3, #4]
 1947              		.loc 7 249 0
 1948 0052 019B     		ldr	r3, [sp, #4]
 1949 0054 D3F85432 		ldr	r3, [r3, #596]
 1950 0058 5B79     		ldrb	r3, [r3, #5]	@ zero_extendqisi2
 1951 005a 5A1E     		subs	r2, r3, #1
 1952 005c 029B     		ldr	r3, [sp, #8]
 1953 005e 0A32     		adds	r2, r2, #10
 1954 0060 0021     		movs	r1, #0
 1955 0062 43F82210 		str	r1, [r3, r2, lsl #2]
 1956              		.loc 7 250 0
 1957 0066 019B     		ldr	r3, [sp, #4]
 1958 0068 D3F85432 		ldr	r3, [r3, #596]
 1959 006c 9B79     		ldrb	r3, [r3, #6]	@ zero_extendqisi2
 1960 006e 002B     		cmp	r3, #0
 1961 0070 0AD0     		beq	.L150
 1962              		.loc 7 251 0
 1963 0072 019B     		ldr	r3, [sp, #4]
 1964 0074 D3F85432 		ldr	r3, [r3, #596]
 1965 0078 9B79     		ldrb	r3, [r3, #6]	@ zero_extendqisi2
 1966 007a 013B     		subs	r3, r3, #1
 1967 007c 029A     		ldr	r2, [sp, #8]
 1968 007e 0633     		adds	r3, r3, #6
 1969 0080 9B00     		lsls	r3, r3, #2
 1970 0082 1344     		add	r3, r3, r2
 1971 0084 0022     		movs	r2, #0
 1972 0086 5A60     		str	r2, [r3, #4]
 1973              	.L150:
 1974              		.loc 7 253 0
 1975 0088 019B     		ldr	r3, [sp, #4]
 1976 008a 0122     		movs	r2, #1
 1977 008c 1A72     		strb	r2, [r3, #8]
 1978              		.loc 7 256 0
 1979 008e 019B     		ldr	r3, [sp, #4]
 1980 0090 0433     		adds	r3, r3, #4
 1981 0092 0221     		movs	r1, #2
 1982 0094 1846     		mov	r0, r3
 1983 0096 FFF7FEFF 		bl	osalEventBroadcastFlagsI
 1984              		.loc 7 257 0
 1985 009a 019B     		ldr	r3, [sp, #4]
 1986 009c 0C33     		adds	r3, r3, #12
 1987 009e 1846     		mov	r0, r3
 1988 00a0 FFF7FEFF 		bl	chIQResetI
 1989              		.loc 7 258 0
 1990 00a4 019B     		ldr	r3, [sp, #4]
 1991 00a6 3033     		adds	r3, r3, #48
 1992 00a8 1846     		mov	r0, r3
 1993 00aa FFF7FEFF 		bl	chIQResetI
 1994              		.loc 7 259 0
 1995 00ae FFF7FEFF 		bl	osalOsRescheduleS
ARM GAS  C:\Users\PCHAUT~1\AppData\Local\Temp\ccOhqcVB.s 			page 36


 1996              		.loc 7 260 0
 1997 00b2 FFF7FEFF 		bl	osalSysUnlock
 1998              		.loc 7 261 0
 1999 00b6 00BF     		nop
 2000 00b8 044B     		ldr	r3, .L152
 2001 00ba 039A     		ldr	r2, [sp, #12]
 2002 00bc 1B68     		ldr	r3, [r3]
 2003 00be 9A42     		cmp	r2, r3
 2004 00c0 01D0     		beq	.L151
 2005 00c2 FFF7FEFF 		bl	__stack_chk_fail
 2006              	.L151:
 2007 00c6 05B0     		add	sp, sp, #20
 2008              		.cfi_def_cfa_offset 4
 2009              		@ sp needed
 2010 00c8 5DF804FB 		ldr	pc, [sp], #4
 2011              	.L153:
 2012              		.align	2
 2013              	.L152:
 2014 00cc 00000000 		.word	__stack_chk_guard
 2015 00d0 00000000 		.word	__func__.9905
 2016              		.cfi_endproc
 2017              	.LFE269:
 2018              		.size	sduStop, .-sduStop
 2019              		.section	.text.sduConfigureHookI,"ax",%progbits
 2020              		.align	1
 2021              		.p2align 4,,15
 2022              		.global	sduConfigureHookI
 2023              		.syntax unified
 2024              		.thumb
 2025              		.thumb_func
 2026              		.fpu fpv4-sp-d16
 2027              		.type	sduConfigureHookI, %function
 2028              	sduConfigureHookI:
 2029              	.LFB270:
 2030              		.loc 7 270 0
 2031              		.cfi_startproc
 2032              		@ args = 0, pretend = 0, frame = 16
 2033              		@ frame_needed = 0, uses_anonymous_args = 0
 2034 0000 00B5     		push	{lr}
 2035              		.cfi_def_cfa_offset 4
 2036              		.cfi_offset 14, -4
 2037 0002 85B0     		sub	sp, sp, #20
 2038              		.cfi_def_cfa_offset 24
 2039 0004 0190     		str	r0, [sp, #4]
 2040              		.loc 7 270 0
 2041 0006 204B     		ldr	r3, .L156
 2042 0008 1B68     		ldr	r3, [r3]
 2043 000a 0393     		str	r3, [sp, #12]
 2044              		.loc 7 271 0
 2045 000c 019B     		ldr	r3, [sp, #4]
 2046 000e D3F85432 		ldr	r3, [r3, #596]
 2047 0012 1B68     		ldr	r3, [r3]
 2048 0014 0293     		str	r3, [sp, #8]
 2049              		.loc 7 273 0
 2050 0016 019B     		ldr	r3, [sp, #4]
 2051 0018 0C33     		adds	r3, r3, #12
 2052 001a 1846     		mov	r0, r3
ARM GAS  C:\Users\PCHAUT~1\AppData\Local\Temp\ccOhqcVB.s 			page 37


 2053 001c FFF7FEFF 		bl	chIQResetI
 2054              		.loc 7 274 0
 2055 0020 019B     		ldr	r3, [sp, #4]
 2056 0022 3033     		adds	r3, r3, #48
 2057 0024 1846     		mov	r0, r3
 2058 0026 FFF7FEFF 		bl	chOQResetI
 2059              		.loc 7 275 0
 2060 002a 019B     		ldr	r3, [sp, #4]
 2061 002c 0433     		adds	r3, r3, #4
 2062 002e 0121     		movs	r1, #1
 2063 0030 1846     		mov	r0, r3
 2064 0032 FFF7FEFF 		bl	osalEventBroadcastFlagsI
 2065              		.loc 7 278 0
 2066 0036 019B     		ldr	r3, [sp, #4]
 2067 0038 D3F85432 		ldr	r3, [r3, #596]
 2068 003c 5979     		ldrb	r1, [r3, #5]	@ zero_extendqisi2
 2069 003e 019B     		ldr	r3, [sp, #4]
 2070 0040 03F10C00 		add	r0, r3, #12
 2071              		.loc 7 279 0
 2072 0044 019B     		ldr	r3, [sp, #4]
 2073 0046 D3F85432 		ldr	r3, [r3, #596]
 2074 004a 5B79     		ldrb	r3, [r3, #5]	@ zero_extendqisi2
 2075 004c 029A     		ldr	r2, [sp, #8]
 2076 004e 0233     		adds	r3, r3, #2
 2077 0050 9B00     		lsls	r3, r3, #2
 2078 0052 1344     		add	r3, r3, r2
 2079 0054 5B68     		ldr	r3, [r3, #4]
 2080 0056 5B8A     		ldrh	r3, [r3, #18]
 2081              		.loc 7 278 0
 2082 0058 0246     		mov	r2, r0
 2083 005a 0298     		ldr	r0, [sp, #8]
 2084 005c FFF7FEFF 		bl	usbPrepareQueuedReceive
 2085              		.loc 7 280 0
 2086 0060 019B     		ldr	r3, [sp, #4]
 2087 0062 D3F85432 		ldr	r3, [r3, #596]
 2088 0066 5B79     		ldrb	r3, [r3, #5]	@ zero_extendqisi2
 2089 0068 1946     		mov	r1, r3
 2090 006a 0298     		ldr	r0, [sp, #8]
 2091 006c FFF7FEFF 		bl	usbStartReceiveI
 2092              		.loc 7 281 0
 2093 0070 00BF     		nop
 2094 0072 054B     		ldr	r3, .L156
 2095 0074 039A     		ldr	r2, [sp, #12]
 2096 0076 1B68     		ldr	r3, [r3]
 2097 0078 9A42     		cmp	r2, r3
 2098 007a 01D0     		beq	.L155
 2099 007c FFF7FEFF 		bl	__stack_chk_fail
 2100              	.L155:
 2101 0080 05B0     		add	sp, sp, #20
 2102              		.cfi_def_cfa_offset 4
 2103              		@ sp needed
 2104 0082 5DF804FB 		ldr	pc, [sp], #4
 2105              	.L157:
 2106 0086 00BF     		.align	2
 2107              	.L156:
 2108 0088 00000000 		.word	__stack_chk_guard
 2109              		.cfi_endproc
ARM GAS  C:\Users\PCHAUT~1\AppData\Local\Temp\ccOhqcVB.s 			page 38


 2110              	.LFE270:
 2111              		.size	sduConfigureHookI, .-sduConfigureHookI
 2112              		.section	.text.sduRequestsHook,"ax",%progbits
 2113              		.align	1
 2114              		.p2align 4,,15
 2115              		.global	sduRequestsHook
 2116              		.syntax unified
 2117              		.thumb
 2118              		.thumb_func
 2119              		.fpu fpv4-sp-d16
 2120              		.type	sduRequestsHook, %function
 2121              	sduRequestsHook:
 2122              	.LFB271:
 2123              		.loc 7 298 0
 2124              		.cfi_startproc
 2125              		@ args = 0, pretend = 0, frame = 16
 2126              		@ frame_needed = 0, uses_anonymous_args = 0
 2127 0000 00B5     		push	{lr}
 2128              		.cfi_def_cfa_offset 4
 2129              		.cfi_offset 14, -4
 2130 0002 85B0     		sub	sp, sp, #20
 2131              		.cfi_def_cfa_offset 24
 2132 0004 0190     		str	r0, [sp, #4]
 2133              		.loc 7 298 0
 2134 0006 214B     		ldr	r3, .L167
 2135 0008 1B68     		ldr	r3, [r3]
 2136 000a 0393     		str	r3, [sp, #12]
 2137              		.loc 7 300 0
 2138 000c 019B     		ldr	r3, [sp, #4]
 2139 000e 93F84430 		ldrb	r3, [r3, #68]	@ zero_extendqisi2
 2140 0012 03F06003 		and	r3, r3, #96
 2141 0016 202B     		cmp	r3, #32
 2142 0018 2CD1     		bne	.L159
 2143              		.loc 7 301 0
 2144 001a 019B     		ldr	r3, [sp, #4]
 2145 001c 93F84530 		ldrb	r3, [r3, #69]	@ zero_extendqisi2
 2146 0020 212B     		cmp	r3, #33
 2147 0022 04D0     		beq	.L161
 2148 0024 222B     		cmp	r3, #34
 2149 0026 18D0     		beq	.L162
 2150 0028 202B     		cmp	r3, #32
 2151 002a 0BD0     		beq	.L163
 2152 002c 20E0     		b	.L166
 2153              	.L161:
 2154              		.loc 7 303 0
 2155 002e 019B     		ldr	r3, [sp, #4]
 2156 0030 174A     		ldr	r2, .L167+4
 2157 0032 9A63     		str	r2, [r3, #56]
 2158 0034 019B     		ldr	r3, [sp, #4]
 2159 0036 0722     		movs	r2, #7
 2160 0038 DA63     		str	r2, [r3, #60]
 2161 003a 019B     		ldr	r3, [sp, #4]
 2162 003c 0022     		movs	r2, #0
 2163 003e 1A64     		str	r2, [r3, #64]
 2164              		.loc 7 304 0
 2165 0040 0123     		movs	r3, #1
 2166 0042 18E0     		b	.L164
ARM GAS  C:\Users\PCHAUT~1\AppData\Local\Temp\ccOhqcVB.s 			page 39


 2167              	.L163:
 2168              		.loc 7 306 0
 2169 0044 019B     		ldr	r3, [sp, #4]
 2170 0046 124A     		ldr	r2, .L167+4
 2171 0048 9A63     		str	r2, [r3, #56]
 2172 004a 019B     		ldr	r3, [sp, #4]
 2173 004c 0722     		movs	r2, #7
 2174 004e DA63     		str	r2, [r3, #60]
 2175 0050 019B     		ldr	r3, [sp, #4]
 2176 0052 0022     		movs	r2, #0
 2177 0054 1A64     		str	r2, [r3, #64]
 2178              		.loc 7 307 0
 2179 0056 0123     		movs	r3, #1
 2180 0058 0DE0     		b	.L164
 2181              	.L162:
 2182              		.loc 7 310 0
 2183 005a 019B     		ldr	r3, [sp, #4]
 2184 005c 0022     		movs	r2, #0
 2185 005e 9A63     		str	r2, [r3, #56]
 2186 0060 019B     		ldr	r3, [sp, #4]
 2187 0062 0022     		movs	r2, #0
 2188 0064 DA63     		str	r2, [r3, #60]
 2189 0066 019B     		ldr	r3, [sp, #4]
 2190 0068 0022     		movs	r2, #0
 2191 006a 1A64     		str	r2, [r3, #64]
 2192              		.loc 7 311 0
 2193 006c 0123     		movs	r3, #1
 2194 006e 02E0     		b	.L164
 2195              	.L166:
 2196              		.loc 7 313 0
 2197 0070 0023     		movs	r3, #0
 2198 0072 00E0     		b	.L164
 2199              	.L159:
 2200              		.loc 7 316 0
 2201 0074 0023     		movs	r3, #0
 2202              	.L164:
 2203              		.loc 7 317 0
 2204 0076 1846     		mov	r0, r3
 2205 0078 044B     		ldr	r3, .L167
 2206 007a 039A     		ldr	r2, [sp, #12]
 2207 007c 1B68     		ldr	r3, [r3]
 2208 007e 9A42     		cmp	r2, r3
 2209 0080 01D0     		beq	.L165
 2210 0082 FFF7FEFF 		bl	__stack_chk_fail
 2211              	.L165:
 2212 0086 05B0     		add	sp, sp, #20
 2213              		.cfi_def_cfa_offset 4
 2214              		@ sp needed
 2215 0088 5DF804FB 		ldr	pc, [sp], #4
 2216              	.L168:
 2217              		.align	2
 2218              	.L167:
 2219 008c 00000000 		.word	__stack_chk_guard
 2220 0090 00000000 		.word	linecoding
 2221              		.cfi_endproc
 2222              	.LFE271:
 2223              		.size	sduRequestsHook, .-sduRequestsHook
ARM GAS  C:\Users\PCHAUT~1\AppData\Local\Temp\ccOhqcVB.s 			page 40


 2224              		.section	.text.sduDataTransmitted,"ax",%progbits
 2225              		.align	1
 2226              		.p2align 4,,15
 2227              		.global	sduDataTransmitted
 2228              		.syntax unified
 2229              		.thumb
 2230              		.thumb_func
 2231              		.fpu fpv4-sp-d16
 2232              		.type	sduDataTransmitted, %function
 2233              	sduDataTransmitted:
 2234              	.LFB272:
 2235              		.loc 7 327 0
 2236              		.cfi_startproc
 2237              		@ args = 0, pretend = 0, frame = 24
 2238              		@ frame_needed = 0, uses_anonymous_args = 0
 2239 0000 00B5     		push	{lr}
 2240              		.cfi_def_cfa_offset 4
 2241              		.cfi_offset 14, -4
 2242 0002 87B0     		sub	sp, sp, #28
 2243              		.cfi_def_cfa_offset 32
 2244 0004 0190     		str	r0, [sp, #4]
 2245 0006 0B46     		mov	r3, r1
 2246 0008 8DF80330 		strb	r3, [sp, #3]
 2247              		.loc 7 327 0
 2248 000c 3A4B     		ldr	r3, .L176
 2249 000e 1B68     		ldr	r3, [r3]
 2250 0010 0593     		str	r3, [sp, #20]
 2251              		.loc 7 329 0
 2252 0012 9DF80330 		ldrb	r3, [sp, #3]	@ zero_extendqisi2
 2253 0016 013B     		subs	r3, r3, #1
 2254 0018 019A     		ldr	r2, [sp, #4]
 2255 001a 0633     		adds	r3, r3, #6
 2256 001c 9B00     		lsls	r3, r3, #2
 2257 001e 1344     		add	r3, r3, r2
 2258 0020 5B68     		ldr	r3, [r3, #4]
 2259 0022 0393     		str	r3, [sp, #12]
 2260              		.loc 7 331 0
 2261 0024 039B     		ldr	r3, [sp, #12]
 2262 0026 002B     		cmp	r3, #0
 2263 0028 5AD0     		beq	.L175
 2264              		.loc 7 335 0
 2265 002a FFF7FEFF 		bl	osalSysLockFromISR
 2266              		.loc 7 336 0
 2267 002e 039B     		ldr	r3, [sp, #12]
 2268 0030 0433     		adds	r3, r3, #4
 2269 0032 0821     		movs	r1, #8
 2270 0034 1846     		mov	r0, r3
 2271 0036 FFF7FEFF 		bl	osalEventBroadcastFlagsI
 2272              		.loc 7 339 0
 2273 003a 039B     		ldr	r3, [sp, #12]
 2274 003c 3033     		adds	r3, r3, #48
 2275 003e 1846     		mov	r0, r3
 2276 0040 FFF7FEFF 		bl	chOQGetFullI
 2277 0044 0490     		str	r0, [sp, #16]
 2278 0046 049B     		ldr	r3, [sp, #16]
 2279 0048 002B     		cmp	r3, #0
 2280 004a 13D0     		beq	.L172
ARM GAS  C:\Users\PCHAUT~1\AppData\Local\Temp\ccOhqcVB.s 			page 41


 2281              		.loc 7 342 0
 2282 004c FFF7FEFF 		bl	osalSysUnlockFromISR
 2283              		.loc 7 344 0
 2284 0050 039B     		ldr	r3, [sp, #12]
 2285 0052 03F13002 		add	r2, r3, #48
 2286 0056 9DF80310 		ldrb	r1, [sp, #3]	@ zero_extendqisi2
 2287 005a 049B     		ldr	r3, [sp, #16]
 2288 005c 0198     		ldr	r0, [sp, #4]
 2289 005e FFF7FEFF 		bl	usbPrepareQueuedTransmit
 2290              		.loc 7 346 0
 2291 0062 FFF7FEFF 		bl	osalSysLockFromISR
 2292              		.loc 7 347 0
 2293 0066 9DF80330 		ldrb	r3, [sp, #3]	@ zero_extendqisi2
 2294 006a 1946     		mov	r1, r3
 2295 006c 0198     		ldr	r0, [sp, #4]
 2296 006e FFF7FEFF 		bl	usbStartTransmitI
 2297 0072 32E0     		b	.L173
 2298              	.L172:
 2299              		.loc 7 349 0
 2300 0074 9DF80330 		ldrb	r3, [sp, #3]	@ zero_extendqisi2
 2301 0078 019A     		ldr	r2, [sp, #4]
 2302 007a 0233     		adds	r3, r3, #2
 2303 007c 9B00     		lsls	r3, r3, #2
 2304 007e 1344     		add	r3, r3, r2
 2305 0080 5B68     		ldr	r3, [r3, #4]
 2306 0082 5B69     		ldr	r3, [r3, #20]
 2307 0084 5B68     		ldr	r3, [r3, #4]
 2308 0086 002B     		cmp	r3, #0
 2309 0088 27D0     		beq	.L173
 2310              		.loc 7 350 0 discriminator 1
 2311 008a 9DF80330 		ldrb	r3, [sp, #3]	@ zero_extendqisi2
 2312 008e 019A     		ldr	r2, [sp, #4]
 2313 0090 0233     		adds	r3, r3, #2
 2314 0092 9B00     		lsls	r3, r3, #2
 2315 0094 1344     		add	r3, r3, r2
 2316 0096 5B68     		ldr	r3, [r3, #4]
 2317 0098 5B69     		ldr	r3, [r3, #20]
 2318 009a 5A68     		ldr	r2, [r3, #4]
 2319              		.loc 7 351 0 discriminator 1
 2320 009c 9DF80330 		ldrb	r3, [sp, #3]	@ zero_extendqisi2
 2321 00a0 0199     		ldr	r1, [sp, #4]
 2322 00a2 0233     		adds	r3, r3, #2
 2323 00a4 9B00     		lsls	r3, r3, #2
 2324 00a6 0B44     		add	r3, r3, r1
 2325 00a8 5B68     		ldr	r3, [r3, #4]
 2326 00aa 1B8A     		ldrh	r3, [r3, #16]
 2327 00ac 013B     		subs	r3, r3, #1
 2328              		.loc 7 350 0 discriminator 1
 2329 00ae 1340     		ands	r3, r3, r2
 2330              		.loc 7 349 0 discriminator 1
 2331 00b0 002B     		cmp	r3, #0
 2332 00b2 12D1     		bne	.L173
 2333              		.loc 7 356 0
 2334 00b4 FFF7FEFF 		bl	osalSysUnlockFromISR
 2335              		.loc 7 358 0
 2336 00b8 039B     		ldr	r3, [sp, #12]
 2337 00ba 03F13002 		add	r2, r3, #48
ARM GAS  C:\Users\PCHAUT~1\AppData\Local\Temp\ccOhqcVB.s 			page 42


 2338 00be 9DF80310 		ldrb	r1, [sp, #3]	@ zero_extendqisi2
 2339 00c2 0023     		movs	r3, #0
 2340 00c4 0198     		ldr	r0, [sp, #4]
 2341 00c6 FFF7FEFF 		bl	usbPrepareQueuedTransmit
 2342              		.loc 7 360 0
 2343 00ca FFF7FEFF 		bl	osalSysLockFromISR
 2344              		.loc 7 361 0
 2345 00ce 9DF80330 		ldrb	r3, [sp, #3]	@ zero_extendqisi2
 2346 00d2 1946     		mov	r1, r3
 2347 00d4 0198     		ldr	r0, [sp, #4]
 2348 00d6 FFF7FEFF 		bl	usbStartTransmitI
 2349              	.L173:
 2350              		.loc 7 365 0
 2351 00da FFF7FEFF 		bl	osalSysUnlockFromISR
 2352 00de 00E0     		b	.L169
 2353              	.L175:
 2354              		.loc 7 332 0
 2355 00e0 00BF     		nop
 2356              	.L169:
 2357              		.loc 7 366 0
 2358 00e2 054B     		ldr	r3, .L176
 2359 00e4 059A     		ldr	r2, [sp, #20]
 2360 00e6 1B68     		ldr	r3, [r3]
 2361 00e8 9A42     		cmp	r2, r3
 2362 00ea 01D0     		beq	.L174
 2363 00ec FFF7FEFF 		bl	__stack_chk_fail
 2364              	.L174:
 2365 00f0 07B0     		add	sp, sp, #28
 2366              		.cfi_def_cfa_offset 4
 2367              		@ sp needed
 2368 00f2 5DF804FB 		ldr	pc, [sp], #4
 2369              	.L177:
 2370 00f6 00BF     		.align	2
 2371              	.L176:
 2372 00f8 00000000 		.word	__stack_chk_guard
 2373              		.cfi_endproc
 2374              	.LFE272:
 2375              		.size	sduDataTransmitted, .-sduDataTransmitted
 2376              		.section	.text.sduDataReceived,"ax",%progbits
 2377              		.align	1
 2378              		.p2align 4,,15
 2379              		.global	sduDataReceived
 2380              		.syntax unified
 2381              		.thumb
 2382              		.thumb_func
 2383              		.fpu fpv4-sp-d16
 2384              		.type	sduDataReceived, %function
 2385              	sduDataReceived:
 2386              	.LFB273:
 2387              		.loc 7 376 0
 2388              		.cfi_startproc
 2389              		@ args = 0, pretend = 0, frame = 24
 2390              		@ frame_needed = 0, uses_anonymous_args = 0
 2391 0000 00B5     		push	{lr}
 2392              		.cfi_def_cfa_offset 4
 2393              		.cfi_offset 14, -4
 2394 0002 87B0     		sub	sp, sp, #28
ARM GAS  C:\Users\PCHAUT~1\AppData\Local\Temp\ccOhqcVB.s 			page 43


 2395              		.cfi_def_cfa_offset 32
 2396 0004 0190     		str	r0, [sp, #4]
 2397 0006 0B46     		mov	r3, r1
 2398 0008 8DF80330 		strb	r3, [sp, #3]
 2399              		.loc 7 376 0
 2400 000c 284B     		ldr	r3, .L184
 2401 000e 1B68     		ldr	r3, [r3]
 2402 0010 0593     		str	r3, [sp, #20]
 2403              		.loc 7 378 0
 2404 0012 9DF80330 		ldrb	r3, [sp, #3]	@ zero_extendqisi2
 2405 0016 5A1E     		subs	r2, r3, #1
 2406 0018 019B     		ldr	r3, [sp, #4]
 2407 001a 0A32     		adds	r2, r2, #10
 2408 001c 53F82230 		ldr	r3, [r3, r2, lsl #2]
 2409 0020 0293     		str	r3, [sp, #8]
 2410              		.loc 7 380 0
 2411 0022 029B     		ldr	r3, [sp, #8]
 2412 0024 002B     		cmp	r3, #0
 2413 0026 38D0     		beq	.L183
 2414              		.loc 7 384 0
 2415 0028 FFF7FEFF 		bl	osalSysLockFromISR
 2416              		.loc 7 385 0
 2417 002c 029B     		ldr	r3, [sp, #8]
 2418 002e 0433     		adds	r3, r3, #4
 2419 0030 0421     		movs	r1, #4
 2420 0032 1846     		mov	r0, r3
 2421 0034 FFF7FEFF 		bl	osalEventBroadcastFlagsI
 2422              		.loc 7 389 0
 2423 0038 9DF80330 		ldrb	r3, [sp, #3]	@ zero_extendqisi2
 2424 003c 019A     		ldr	r2, [sp, #4]
 2425 003e 0233     		adds	r3, r3, #2
 2426 0040 9B00     		lsls	r3, r3, #2
 2427 0042 1344     		add	r3, r3, r2
 2428 0044 5B68     		ldr	r3, [r3, #4]
 2429 0046 5B8A     		ldrh	r3, [r3, #18]
 2430 0048 0393     		str	r3, [sp, #12]
 2431              		.loc 7 390 0
 2432 004a 029B     		ldr	r3, [sp, #8]
 2433 004c 0C33     		adds	r3, r3, #12
 2434 004e 1846     		mov	r0, r3
 2435 0050 FFF7FEFF 		bl	chIQGetEmptyI
 2436 0054 0490     		str	r0, [sp, #16]
 2437 0056 049A     		ldr	r2, [sp, #16]
 2438 0058 039B     		ldr	r3, [sp, #12]
 2439 005a 9A42     		cmp	r2, r3
 2440 005c 1AD3     		bcc	.L181
 2441              		.loc 7 393 0
 2442 005e FFF7FEFF 		bl	osalSysUnlockFromISR
 2443              		.loc 7 395 0
 2444 0062 049A     		ldr	r2, [sp, #16]
 2445 0064 039B     		ldr	r3, [sp, #12]
 2446 0066 B2FBF3F2 		udiv	r2, r2, r3
 2447 006a 039B     		ldr	r3, [sp, #12]
 2448 006c 02FB03F3 		mul	r3, r2, r3
 2449 0070 0493     		str	r3, [sp, #16]
 2450              		.loc 7 396 0
 2451 0072 029B     		ldr	r3, [sp, #8]
ARM GAS  C:\Users\PCHAUT~1\AppData\Local\Temp\ccOhqcVB.s 			page 44


 2452 0074 03F10C02 		add	r2, r3, #12
 2453 0078 9DF80310 		ldrb	r1, [sp, #3]	@ zero_extendqisi2
 2454 007c 049B     		ldr	r3, [sp, #16]
 2455 007e 0198     		ldr	r0, [sp, #4]
 2456 0080 FFF7FEFF 		bl	usbPrepareQueuedReceive
 2457              		.loc 7 398 0
 2458 0084 FFF7FEFF 		bl	osalSysLockFromISR
 2459              		.loc 7 399 0
 2460 0088 9DF80330 		ldrb	r3, [sp, #3]	@ zero_extendqisi2
 2461 008c 1946     		mov	r1, r3
 2462 008e 0198     		ldr	r0, [sp, #4]
 2463 0090 FFF7FEFF 		bl	usbStartReceiveI
 2464              	.L181:
 2465              		.loc 7 401 0
 2466 0094 FFF7FEFF 		bl	osalSysUnlockFromISR
 2467 0098 00E0     		b	.L178
 2468              	.L183:
 2469              		.loc 7 381 0
 2470 009a 00BF     		nop
 2471              	.L178:
 2472              		.loc 7 402 0
 2473 009c 044B     		ldr	r3, .L184
 2474 009e 059A     		ldr	r2, [sp, #20]
 2475 00a0 1B68     		ldr	r3, [r3]
 2476 00a2 9A42     		cmp	r2, r3
 2477 00a4 01D0     		beq	.L182
 2478 00a6 FFF7FEFF 		bl	__stack_chk_fail
 2479              	.L182:
 2480 00aa 07B0     		add	sp, sp, #28
 2481              		.cfi_def_cfa_offset 4
 2482              		@ sp needed
 2483 00ac 5DF804FB 		ldr	pc, [sp], #4
 2484              	.L185:
 2485              		.align	2
 2486              	.L184:
 2487 00b0 00000000 		.word	__stack_chk_guard
 2488              		.cfi_endproc
 2489              	.LFE273:
 2490              		.size	sduDataReceived, .-sduDataReceived
 2491              		.section	.text.sduInterruptTransmitted,"ax",%progbits
 2492              		.align	1
 2493              		.p2align 4,,15
 2494              		.global	sduInterruptTransmitted
 2495              		.syntax unified
 2496              		.thumb
 2497              		.thumb_func
 2498              		.fpu fpv4-sp-d16
 2499              		.type	sduInterruptTransmitted, %function
 2500              	sduInterruptTransmitted:
 2501              	.LFB274:
 2502              		.loc 7 412 0
 2503              		.cfi_startproc
 2504              		@ args = 0, pretend = 0, frame = 16
 2505              		@ frame_needed = 0, uses_anonymous_args = 0
 2506 0000 00B5     		push	{lr}
 2507              		.cfi_def_cfa_offset 4
 2508              		.cfi_offset 14, -4
ARM GAS  C:\Users\PCHAUT~1\AppData\Local\Temp\ccOhqcVB.s 			page 45


 2509 0002 85B0     		sub	sp, sp, #20
 2510              		.cfi_def_cfa_offset 24
 2511 0004 0190     		str	r0, [sp, #4]
 2512 0006 0B46     		mov	r3, r1
 2513 0008 8DF80330 		strb	r3, [sp, #3]
 2514              		.loc 7 412 0
 2515 000c 064B     		ldr	r3, .L188
 2516 000e 1B68     		ldr	r3, [r3]
 2517 0010 0393     		str	r3, [sp, #12]
 2518              		.loc 7 416 0
 2519 0012 00BF     		nop
 2520 0014 044B     		ldr	r3, .L188
 2521 0016 039A     		ldr	r2, [sp, #12]
 2522 0018 1B68     		ldr	r3, [r3]
 2523 001a 9A42     		cmp	r2, r3
 2524 001c 01D0     		beq	.L187
 2525 001e FFF7FEFF 		bl	__stack_chk_fail
 2526              	.L187:
 2527 0022 05B0     		add	sp, sp, #20
 2528              		.cfi_def_cfa_offset 4
 2529              		@ sp needed
 2530 0024 5DF804FB 		ldr	pc, [sp], #4
 2531              	.L189:
 2532              		.align	2
 2533              	.L188:
 2534 0028 00000000 		.word	__stack_chk_guard
 2535              		.cfi_endproc
 2536              	.LFE274:
 2537              		.size	sduInterruptTransmitted, .-sduInterruptTransmitted
 2538              		.section	.rodata.__func__.7153,"a",%progbits
 2539              		.align	2
 2540              		.type	__func__.7153, %object
 2541              		.size	__func__.7153, 12
 2542              	__func__.7153:
 2543 0000 63685379 		.ascii	"chSysUnlock\000"
 2543      73556E6C 
 2543      6F636B00 
 2544              		.section	.rodata.__func__.9900,"a",%progbits
 2545              		.align	2
 2546              		.type	__func__.9900, %object
 2547              		.size	__func__.9900, 9
 2548              	__func__.9900:
 2549 0000 73647553 		.ascii	"sduStart\000"
 2549      74617274 
 2549      00
 2550              		.section	.rodata.__func__.9905,"a",%progbits
 2551              		.align	2
 2552              		.type	__func__.9905, %object
 2553              		.size	__func__.9905, 8
 2554              	__func__.9905:
 2555 0000 73647553 		.ascii	"sduStop\000"
 2555      746F7000 
 2556              		.text
 2557              	.Letext0:
 2558              		.file 8 "c:\\users\\pchautems\\documents\\robotiquetp\\eclipse_e-puck2\\tools\\gcc-arm-none-eabi-7
 2559              		.file 9 "c:\\users\\pchautems\\documents\\robotiquetp\\eclipse_e-puck2\\tools\\gcc-arm-none-eabi-7
 2560              		.file 10 "c:\\users\\pchautems\\documents\\robotiquetp\\eclipse_e-puck2\\tools\\gcc-arm-none-eabi-
ARM GAS  C:\Users\PCHAUT~1\AppData\Local\Temp\ccOhqcVB.s 			page 46


 2561              		.file 11 "../lib/e-puck2_main-processor/ChibiOS//os/rt/ports/ARMCMx/compilers/GCC/chtypes.h"
 2562              		.file 12 "../lib/e-puck2_main-processor/ChibiOS//os/rt/include/chsystypes.h"
 2563              		.file 13 "../lib/e-puck2_main-processor/ChibiOS//os/rt/include/chschd.h"
 2564              		.file 14 "../lib/e-puck2_main-processor/ChibiOS//os/ext/CMSIS/include/core_cm4.h"
 2565              		.file 15 "../lib/e-puck2_main-processor/ChibiOS//os/ext/CMSIS/ST/system_stm32f4xx.h"
 2566              		.file 16 "../lib/e-puck2_main-processor/ChibiOS//os/ext/CMSIS/ST/stm32f407xx.h"
 2567              		.file 17 "../lib/e-puck2_main-processor/ChibiOS//os/rt/ports/ARMCMx/chcore.h"
 2568              		.file 18 "../lib/e-puck2_main-processor/ChibiOS//os/rt/include/chdebug.h"
 2569              		.file 19 "../lib/e-puck2_main-processor/ChibiOS//os/rt/include/chtm.h"
 2570              		.file 20 "../lib/e-puck2_main-processor/ChibiOS//os/rt/include/chstats.h"
 2571              		.file 21 "../lib/e-puck2_main-processor/ChibiOS//os/rt/include/chsem.h"
 2572              		.file 22 "../lib/e-puck2_main-processor/ChibiOS//os/rt/include/chmtx.h"
 2573              		.file 23 "../lib/e-puck2_main-processor/ChibiOS//os/rt/include/chregistry.h"
 2574              		.file 24 "../lib/e-puck2_main-processor/ChibiOS//os/hal/ports/STM32/STM32F4xx/stm32_dma.h"
 2575              		.file 25 "../lib/e-puck2_main-processor/ChibiOS//os/hal/include/hal_ioblock.h"
 2576              		.file 26 "../lib/e-puck2_main-processor/ChibiOS//os/hal/ports/STM32/LLD/GPIOv2/pal_lld.h"
 2577              		.file 27 "../lib/e-puck2_main-processor/ChibiOS//os/hal/include/adc.h"
 2578              		.file 28 "../lib/e-puck2_main-processor/ChibiOS//os/hal/ports/STM32/STM32F4xx/adc_lld.h"
 2579              		.file 29 "../lib/e-puck2_main-processor/ChibiOS//os/hal/include/can.h"
 2580              		.file 30 "../lib/e-puck2_main-processor/ChibiOS//os/hal/ports/STM32/LLD/can_lld.h"
 2581              		.file 31 "../lib/e-puck2_main-processor/ChibiOS//os/hal/include/dac.h"
 2582              		.file 32 "../lib/e-puck2_main-processor/ChibiOS//os/hal/ports/STM32/LLD/DACv1/dac_lld.h"
 2583              		.file 33 "../lib/e-puck2_main-processor/ChibiOS//os/hal/include/ext.h"
 2584              		.file 34 "../lib/e-puck2_main-processor/ChibiOS//os/hal/ports/STM32/LLD/ext_lld.h"
 2585              		.file 35 "../lib/e-puck2_main-processor/ChibiOS//os/hal/include/gpt.h"
 2586              		.file 36 "../lib/e-puck2_main-processor/ChibiOS//os/hal/ports/STM32/LLD/TIMv1/gpt_lld.h"
 2587              		.file 37 "../lib/e-puck2_main-processor/ChibiOS//os/hal/ports/STM32/LLD/TIMv1/stm32_tim.h"
 2588              		.file 38 "../lib/e-puck2_main-processor/ChibiOS//os/hal/include/i2c.h"
 2589              		.file 39 "../lib/e-puck2_main-processor/ChibiOS//os/hal/ports/STM32/LLD/I2Cv1/i2c_lld.h"
 2590              		.file 40 "../lib/e-puck2_main-processor/ChibiOS//os/hal/include/i2s.h"
 2591              		.file 41 "../lib/e-puck2_main-processor/ChibiOS//os/hal/ports/STM32/LLD/SPIv1/i2s_lld.h"
 2592              		.file 42 "../lib/e-puck2_main-processor/ChibiOS//os/hal/include/pwm.h"
 2593              		.file 43 "../lib/e-puck2_main-processor/ChibiOS//os/hal/ports/STM32/LLD/TIMv1/pwm_lld.h"
 2594              		.file 44 "../lib/e-puck2_main-processor/ChibiOS//os/hal/include/serial.h"
 2595              		.file 45 "../lib/e-puck2_main-processor/ChibiOS//os/hal/ports/STM32/LLD/USARTv1/serial_lld.h"
 2596              		.file 46 "../lib/e-puck2_main-processor/ChibiOS//os/hal/include/sdc.h"
 2597              		.file 47 "../lib/e-puck2_main-processor/ChibiOS//os/hal/ports/STM32/LLD/sdc_lld.h"
 2598              		.file 48 "../lib/e-puck2_main-processor/ChibiOS//os/hal/include/spi.h"
 2599              		.file 49 "../lib/e-puck2_main-processor/ChibiOS//os/hal/ports/STM32/LLD/SPIv1/spi_lld.h"
 2600              		.file 50 "../lib/e-puck2_main-processor/ChibiOS//os/hal/include/usb.h"
 2601              		.file 51 "../lib/e-puck2_main-processor/ChibiOS//os/hal/ports/STM32/LLD/OTGv1/usb_lld.h"
 2602              		.file 52 "../lib/e-puck2_main-processor/ChibiOS//os/hal/ports/STM32/LLD/OTGv1/stm32_otg.h"
 2603              		.file 53 "../lib/e-puck2_main-processor/ChibiOS//os/hal/include/serial_usb.h"