ARM GAS  C:\Users\PCHAUT~1\AppData\Local\Temp\ccCXPUFB.s 			page 1


   1              		.cpu cortex-m4
   2              		.eabi_attribute 27, 1
   3              		.eabi_attribute 28, 1
   4              		.eabi_attribute 20, 1
   5              		.eabi_attribute 21, 1
   6              		.eabi_attribute 23, 3
   7              		.eabi_attribute 24, 1
   8              		.eabi_attribute 25, 1
   9              		.eabi_attribute 26, 1
  10              		.eabi_attribute 30, 6
  11              		.eabi_attribute 34, 1
  12              		.eabi_attribute 18, 4
  13              		.file	"shell.c"
  14              		.text
  15              	.Ltext0:
  16              		.cfi_sections	.debug_frame
  17              		.section	.text.port_lock,"ax",%progbits
  18              		.align	1
  19              		.p2align 4,,15
  20              		.syntax unified
  21              		.thumb
  22              		.thumb_func
  23              		.fpu fpv4-sp-d16
  24              		.type	port_lock, %function
  25              	port_lock:
  26              	.LFB116:
  27              		.file 1 "../lib/e-puck2_main-processor/ChibiOS//os/rt/ports/ARMCMx/chcore_v7m.h"
  28              		.loc 1 444 0
  29              		.cfi_startproc
  30              		@ args = 0, pretend = 0, frame = 8
  31              		@ frame_needed = 0, uses_anonymous_args = 0
  32 0000 00B5     		push	{lr}
  33              		.cfi_def_cfa_offset 4
  34              		.cfi_offset 14, -4
  35 0002 83B0     		sub	sp, sp, #12
  36              		.cfi_def_cfa_offset 16
  37              		.loc 1 444 0
  38 0004 094B     		ldr	r3, .L3
  39 0006 1B68     		ldr	r3, [r3]
  40 0008 0193     		str	r3, [sp, #4]
  41 000a 2023     		movs	r3, #32
  42 000c 0093     		str	r3, [sp]
  43              	.LBB6:
  44              	.LBB7:
  45              		.file 2 "../lib/e-puck2_main-processor/ChibiOS//os/ext/CMSIS/include/core_cmFunc.h"
  46              		.loc 2 546 0
  47 000e 009B     		ldr	r3, [sp]
  48              		.syntax unified
  49              	@ 546 "../lib/e-puck2_main-processor/ChibiOS//os/ext/CMSIS/include/core_cmFunc.h" 1
  50 0010 83F31188 		MSR basepri, r3
  51              	@ 0 "" 2
  52              		.thumb
  53              		.syntax unified
  54              	.LBE7:
  55              	.LBE6:
  56              		.loc 1 451 0
  57 0014 00BF     		nop
ARM GAS  C:\Users\PCHAUT~1\AppData\Local\Temp\ccCXPUFB.s 			page 2


  58 0016 054B     		ldr	r3, .L3
  59 0018 019A     		ldr	r2, [sp, #4]
  60 001a 1B68     		ldr	r3, [r3]
  61 001c 9A42     		cmp	r2, r3
  62 001e 01D0     		beq	.L2
  63 0020 FFF7FEFF 		bl	__stack_chk_fail
  64              	.L2:
  65 0024 03B0     		add	sp, sp, #12
  66              		.cfi_def_cfa_offset 4
  67              		@ sp needed
  68 0026 5DF804FB 		ldr	pc, [sp], #4
  69              	.L4:
  70 002a 00BF     		.align	2
  71              	.L3:
  72 002c 00000000 		.word	__stack_chk_guard
  73              		.cfi_endproc
  74              	.LFE116:
  75              		.size	port_lock, .-port_lock
  76              		.section	.text.port_unlock,"ax",%progbits
  77              		.align	1
  78              		.p2align 4,,15
  79              		.syntax unified
  80              		.thumb
  81              		.thumb_func
  82              		.fpu fpv4-sp-d16
  83              		.type	port_unlock, %function
  84              	port_unlock:
  85              	.LFB117:
  86              		.loc 1 458 0
  87              		.cfi_startproc
  88              		@ args = 0, pretend = 0, frame = 8
  89              		@ frame_needed = 0, uses_anonymous_args = 0
  90 0000 00B5     		push	{lr}
  91              		.cfi_def_cfa_offset 4
  92              		.cfi_offset 14, -4
  93 0002 83B0     		sub	sp, sp, #12
  94              		.cfi_def_cfa_offset 16
  95              		.loc 1 458 0
  96 0004 094B     		ldr	r3, .L7
  97 0006 1B68     		ldr	r3, [r3]
  98 0008 0193     		str	r3, [sp, #4]
  99 000a 0023     		movs	r3, #0
 100 000c 0093     		str	r3, [sp]
 101              	.LBB8:
 102              	.LBB9:
 103              		.loc 2 546 0
 104 000e 009B     		ldr	r3, [sp]
 105              		.syntax unified
 106              	@ 546 "../lib/e-puck2_main-processor/ChibiOS//os/ext/CMSIS/include/core_cmFunc.h" 1
 107 0010 83F31188 		MSR basepri, r3
 108              	@ 0 "" 2
 109              		.thumb
 110              		.syntax unified
 111              	.LBE9:
 112              	.LBE8:
 113              		.loc 1 465 0
 114 0014 00BF     		nop
ARM GAS  C:\Users\PCHAUT~1\AppData\Local\Temp\ccCXPUFB.s 			page 3


 115 0016 054B     		ldr	r3, .L7
 116 0018 019A     		ldr	r2, [sp, #4]
 117 001a 1B68     		ldr	r3, [r3]
 118 001c 9A42     		cmp	r2, r3
 119 001e 01D0     		beq	.L6
 120 0020 FFF7FEFF 		bl	__stack_chk_fail
 121              	.L6:
 122 0024 03B0     		add	sp, sp, #12
 123              		.cfi_def_cfa_offset 4
 124              		@ sp needed
 125 0026 5DF804FB 		ldr	pc, [sp], #4
 126              	.L8:
 127 002a 00BF     		.align	2
 128              	.L7:
 129 002c 00000000 		.word	__stack_chk_guard
 130              		.cfi_endproc
 131              	.LFE117:
 132              		.size	port_unlock, .-port_unlock
 133              		.section	.text.chSysLock,"ax",%progbits
 134              		.align	1
 135              		.p2align 4,,15
 136              		.syntax unified
 137              		.thumb
 138              		.thumb_func
 139              		.fpu fpv4-sp-d16
 140              		.type	chSysLock, %function
 141              	chSysLock:
 142              	.LFB145:
 143              		.file 3 "../lib/e-puck2_main-processor/ChibiOS//os/rt/include/chsys.h"
 144              		.loc 3 346 0
 145              		.cfi_startproc
 146              		@ args = 0, pretend = 0, frame = 8
 147              		@ frame_needed = 0, uses_anonymous_args = 0
 148 0000 00B5     		push	{lr}
 149              		.cfi_def_cfa_offset 4
 150              		.cfi_offset 14, -4
 151 0002 83B0     		sub	sp, sp, #12
 152              		.cfi_def_cfa_offset 16
 153              		.loc 3 346 0
 154 0004 094B     		ldr	r3, .L11
 155 0006 1B68     		ldr	r3, [r3]
 156 0008 0193     		str	r3, [sp, #4]
 157              		.loc 3 348 0
 158 000a FFF7FEFF 		bl	port_lock
 159              		.loc 3 349 0
 160 000e FFF7FEFF 		bl	_stats_start_measure_crit_thd
 161              		.loc 3 350 0
 162 0012 FFF7FEFF 		bl	_dbg_check_lock
 163              		.loc 3 351 0
 164 0016 00BF     		nop
 165 0018 044B     		ldr	r3, .L11
 166 001a 019A     		ldr	r2, [sp, #4]
 167 001c 1B68     		ldr	r3, [r3]
 168 001e 9A42     		cmp	r2, r3
 169 0020 01D0     		beq	.L10
 170 0022 FFF7FEFF 		bl	__stack_chk_fail
 171              	.L10:
ARM GAS  C:\Users\PCHAUT~1\AppData\Local\Temp\ccCXPUFB.s 			page 4


 172 0026 03B0     		add	sp, sp, #12
 173              		.cfi_def_cfa_offset 4
 174              		@ sp needed
 175 0028 5DF804FB 		ldr	pc, [sp], #4
 176              	.L12:
 177              		.align	2
 178              	.L11:
 179 002c 00000000 		.word	__stack_chk_guard
 180              		.cfi_endproc
 181              	.LFE145:
 182              		.size	chSysLock, .-chSysLock
 183              		.section	.text.chSysUnlock,"ax",%progbits
 184              		.align	1
 185              		.p2align 4,,15
 186              		.syntax unified
 187              		.thumb
 188              		.thumb_func
 189              		.fpu fpv4-sp-d16
 190              		.type	chSysUnlock, %function
 191              	chSysUnlock:
 192              	.LFB146:
 193              		.loc 3 358 0
 194              		.cfi_startproc
 195              		@ args = 0, pretend = 0, frame = 8
 196              		@ frame_needed = 0, uses_anonymous_args = 0
 197 0000 00B5     		push	{lr}
 198              		.cfi_def_cfa_offset 4
 199              		.cfi_offset 14, -4
 200 0002 83B0     		sub	sp, sp, #12
 201              		.cfi_def_cfa_offset 16
 202              		.loc 3 358 0
 203 0004 114B     		ldr	r3, .L16
 204 0006 1B68     		ldr	r3, [r3]
 205 0008 0193     		str	r3, [sp, #4]
 206              		.loc 3 360 0
 207 000a FFF7FEFF 		bl	_dbg_check_unlock
 208              		.loc 3 361 0
 209 000e FFF7FEFF 		bl	_stats_stop_measure_crit_thd
 210              		.loc 3 367 0
 211 0012 0F4B     		ldr	r3, .L16+4
 212 0014 1B68     		ldr	r3, [r3]
 213 0016 0E4A     		ldr	r2, .L16+4
 214 0018 9342     		cmp	r3, r2
 215 001a 0AD0     		beq	.L14
 216              		.loc 3 367 0 is_stmt 0 discriminator 2
 217 001c 0C4B     		ldr	r3, .L16+4
 218 001e 9B69     		ldr	r3, [r3, #24]
 219 0020 9A68     		ldr	r2, [r3, #8]
 220 0022 0B4B     		ldr	r3, .L16+4
 221 0024 1B68     		ldr	r3, [r3]
 222 0026 9B68     		ldr	r3, [r3, #8]
 223 0028 9A42     		cmp	r2, r3
 224 002a 02D2     		bcs	.L14
 225              		.loc 3 367 0 discriminator 3
 226 002c 0948     		ldr	r0, .L16+8
 227 002e FFF7FEFF 		bl	chSysHalt
 228              	.L14:
ARM GAS  C:\Users\PCHAUT~1\AppData\Local\Temp\ccCXPUFB.s 			page 5


 229              		.loc 3 371 0 is_stmt 1
 230 0032 FFF7FEFF 		bl	port_unlock
 231              		.loc 3 372 0
 232 0036 00BF     		nop
 233 0038 044B     		ldr	r3, .L16
 234 003a 019A     		ldr	r2, [sp, #4]
 235 003c 1B68     		ldr	r3, [r3]
 236 003e 9A42     		cmp	r2, r3
 237 0040 01D0     		beq	.L15
 238 0042 FFF7FEFF 		bl	__stack_chk_fail
 239              	.L15:
 240 0046 03B0     		add	sp, sp, #12
 241              		.cfi_def_cfa_offset 4
 242              		@ sp needed
 243 0048 5DF804FB 		ldr	pc, [sp], #4
 244              	.L17:
 245              		.align	2
 246              	.L16:
 247 004c 00000000 		.word	__stack_chk_guard
 248 0050 00000000 		.word	ch
 249 0054 00000000 		.word	__func__.7554
 250              		.cfi_endproc
 251              	.LFE146:
 252              		.size	chSysUnlock, .-chSysUnlock
 253              		.section	.text.chVTGetSystemTimeX,"ax",%progbits
 254              		.align	1
 255              		.p2align 4,,15
 256              		.syntax unified
 257              		.thumb
 258              		.thumb_func
 259              		.fpu fpv4-sp-d16
 260              		.type	chVTGetSystemTimeX, %function
 261              	chVTGetSystemTimeX:
 262              	.LFB153:
 263              		.file 4 "../lib/e-puck2_main-processor/ChibiOS//os/rt/include/chvt.h"
 264              		.loc 4 228 0
 265              		.cfi_startproc
 266              		@ args = 0, pretend = 0, frame = 8
 267              		@ frame_needed = 0, uses_anonymous_args = 0
 268 0000 00B5     		push	{lr}
 269              		.cfi_def_cfa_offset 4
 270              		.cfi_offset 14, -4
 271 0002 83B0     		sub	sp, sp, #12
 272              		.cfi_def_cfa_offset 16
 273              		.loc 4 228 0
 274 0004 074B     		ldr	r3, .L21
 275 0006 1B68     		ldr	r3, [r3]
 276 0008 0193     		str	r3, [sp, #4]
 277              		.loc 4 231 0
 278 000a 074B     		ldr	r3, .L21+4
 279 000c 9B6A     		ldr	r3, [r3, #40]
 280              		.loc 4 235 0
 281 000e 1846     		mov	r0, r3
 282 0010 044B     		ldr	r3, .L21
 283 0012 019A     		ldr	r2, [sp, #4]
 284 0014 1B68     		ldr	r3, [r3]
 285 0016 9A42     		cmp	r2, r3
ARM GAS  C:\Users\PCHAUT~1\AppData\Local\Temp\ccCXPUFB.s 			page 6


 286 0018 01D0     		beq	.L20
 287 001a FFF7FEFF 		bl	__stack_chk_fail
 288              	.L20:
 289 001e 03B0     		add	sp, sp, #12
 290              		.cfi_def_cfa_offset 4
 291              		@ sp needed
 292 0020 5DF804FB 		ldr	pc, [sp], #4
 293              	.L22:
 294              		.align	2
 295              	.L21:
 296 0024 00000000 		.word	__stack_chk_guard
 297 0028 00000000 		.word	ch
 298              		.cfi_endproc
 299              	.LFE153:
 300              		.size	chVTGetSystemTimeX, .-chVTGetSystemTimeX
 301              		.section	.text.chVTGetSystemTime,"ax",%progbits
 302              		.align	1
 303              		.p2align 4,,15
 304              		.syntax unified
 305              		.thumb
 306              		.thumb_func
 307              		.fpu fpv4-sp-d16
 308              		.type	chVTGetSystemTime, %function
 309              	chVTGetSystemTime:
 310              	.LFB154:
 311              		.loc 4 247 0
 312              		.cfi_startproc
 313              		@ args = 0, pretend = 0, frame = 8
 314              		@ frame_needed = 0, uses_anonymous_args = 0
 315 0000 00B5     		push	{lr}
 316              		.cfi_def_cfa_offset 4
 317              		.cfi_offset 14, -4
 318 0002 83B0     		sub	sp, sp, #12
 319              		.cfi_def_cfa_offset 16
 320              		.loc 4 247 0
 321 0004 0A4B     		ldr	r3, .L26
 322 0006 1B68     		ldr	r3, [r3]
 323 0008 0193     		str	r3, [sp, #4]
 324              		.loc 4 250 0
 325 000a FFF7FEFF 		bl	chSysLock
 326              		.loc 4 251 0
 327 000e FFF7FEFF 		bl	chVTGetSystemTimeX
 328 0012 0090     		str	r0, [sp]
 329              		.loc 4 252 0
 330 0014 FFF7FEFF 		bl	chSysUnlock
 331              		.loc 4 254 0
 332 0018 009B     		ldr	r3, [sp]
 333              		.loc 4 255 0
 334 001a 1846     		mov	r0, r3
 335 001c 044B     		ldr	r3, .L26
 336 001e 019A     		ldr	r2, [sp, #4]
 337 0020 1B68     		ldr	r3, [r3]
 338 0022 9A42     		cmp	r2, r3
 339 0024 01D0     		beq	.L25
 340 0026 FFF7FEFF 		bl	__stack_chk_fail
 341              	.L25:
 342 002a 03B0     		add	sp, sp, #12
ARM GAS  C:\Users\PCHAUT~1\AppData\Local\Temp\ccCXPUFB.s 			page 7


 343              		.cfi_def_cfa_offset 4
 344              		@ sp needed
 345 002c 5DF804FB 		ldr	pc, [sp], #4
 346              	.L27:
 347              		.align	2
 348              	.L26:
 349 0030 00000000 		.word	__stack_chk_guard
 350              		.cfi_endproc
 351              	.LFE154:
 352              		.size	chVTGetSystemTime, .-chVTGetSystemTime
 353              		.section	.text.chRegSetThreadName,"ax",%progbits
 354              		.align	1
 355              		.p2align 4,,15
 356              		.syntax unified
 357              		.thumb
 358              		.thumb_func
 359              		.fpu fpv4-sp-d16
 360              		.type	chRegSetThreadName, %function
 361              	chRegSetThreadName:
 362              	.LFB176:
 363              		.file 5 "../lib/e-puck2_main-processor/ChibiOS//os/rt/include/chregistry.h"
 364              		.loc 5 132 0
 365              		.cfi_startproc
 366              		@ args = 0, pretend = 0, frame = 16
 367              		@ frame_needed = 0, uses_anonymous_args = 0
 368 0000 00B5     		push	{lr}
 369              		.cfi_def_cfa_offset 4
 370              		.cfi_offset 14, -4
 371 0002 85B0     		sub	sp, sp, #20
 372              		.cfi_def_cfa_offset 24
 373 0004 0190     		str	r0, [sp, #4]
 374              		.loc 5 132 0
 375 0006 094B     		ldr	r3, .L30
 376 0008 1B68     		ldr	r3, [r3]
 377 000a 0393     		str	r3, [sp, #12]
 378              		.loc 5 135 0
 379 000c 084B     		ldr	r3, .L30+4
 380 000e 9B69     		ldr	r3, [r3, #24]
 381 0010 019A     		ldr	r2, [sp, #4]
 382 0012 9A61     		str	r2, [r3, #24]
 383              		.loc 5 139 0
 384 0014 00BF     		nop
 385 0016 054B     		ldr	r3, .L30
 386 0018 039A     		ldr	r2, [sp, #12]
 387 001a 1B68     		ldr	r3, [r3]
 388 001c 9A42     		cmp	r2, r3
 389 001e 01D0     		beq	.L29
 390 0020 FFF7FEFF 		bl	__stack_chk_fail
 391              	.L29:
 392 0024 05B0     		add	sp, sp, #20
 393              		.cfi_def_cfa_offset 4
 394              		@ sp needed
 395 0026 5DF804FB 		ldr	pc, [sp], #4
 396              	.L31:
 397 002a 00BF     		.align	2
 398              	.L30:
 399 002c 00000000 		.word	__stack_chk_guard
ARM GAS  C:\Users\PCHAUT~1\AppData\Local\Temp\ccCXPUFB.s 			page 8


 400 0030 00000000 		.word	ch
 401              		.cfi_endproc
 402              	.LFE176:
 403              		.size	chRegSetThreadName, .-chRegSetThreadName
 404              		.section	.text.chEvtObjectInit,"ax",%progbits
 405              		.align	1
 406              		.p2align 4,,15
 407              		.syntax unified
 408              		.thumb
 409              		.thumb_func
 410              		.fpu fpv4-sp-d16
 411              		.type	chEvtObjectInit, %function
 412              	chEvtObjectInit:
 413              	.LFB194:
 414              		.file 6 "../lib/e-puck2_main-processor/ChibiOS//os/rt/include/chevents.h"
 415              		.loc 6 170 0
 416              		.cfi_startproc
 417              		@ args = 0, pretend = 0, frame = 16
 418              		@ frame_needed = 0, uses_anonymous_args = 0
 419 0000 00B5     		push	{lr}
 420              		.cfi_def_cfa_offset 4
 421              		.cfi_offset 14, -4
 422 0002 85B0     		sub	sp, sp, #20
 423              		.cfi_def_cfa_offset 24
 424 0004 0190     		str	r0, [sp, #4]
 425              		.loc 6 170 0
 426 0006 084B     		ldr	r3, .L34
 427 0008 1B68     		ldr	r3, [r3]
 428 000a 0393     		str	r3, [sp, #12]
 429              		.loc 6 172 0
 430 000c 019B     		ldr	r3, [sp, #4]
 431 000e 019A     		ldr	r2, [sp, #4]
 432 0010 1A60     		str	r2, [r3]
 433              		.loc 6 173 0
 434 0012 00BF     		nop
 435 0014 044B     		ldr	r3, .L34
 436 0016 039A     		ldr	r2, [sp, #12]
 437 0018 1B68     		ldr	r3, [r3]
 438 001a 9A42     		cmp	r2, r3
 439 001c 01D0     		beq	.L33
 440 001e FFF7FEFF 		bl	__stack_chk_fail
 441              	.L33:
 442 0022 05B0     		add	sp, sp, #20
 443              		.cfi_def_cfa_offset 4
 444              		@ sp needed
 445 0024 5DF804FB 		ldr	pc, [sp], #4
 446              	.L35:
 447              		.align	2
 448              	.L34:
 449 0028 00000000 		.word	__stack_chk_guard
 450              		.cfi_endproc
 451              	.LFE194:
 452              		.size	chEvtObjectInit, .-chEvtObjectInit
 453              		.section	.text.chEvtBroadcastI,"ax",%progbits
 454              		.align	1
 455              		.p2align 4,,15
 456              		.syntax unified
ARM GAS  C:\Users\PCHAUT~1\AppData\Local\Temp\ccCXPUFB.s 			page 9


 457              		.thumb
 458              		.thumb_func
 459              		.fpu fpv4-sp-d16
 460              		.type	chEvtBroadcastI, %function
 461              	chEvtBroadcastI:
 462              	.LFB199:
 463              		.loc 6 254 0
 464              		.cfi_startproc
 465              		@ args = 0, pretend = 0, frame = 16
 466              		@ frame_needed = 0, uses_anonymous_args = 0
 467 0000 00B5     		push	{lr}
 468              		.cfi_def_cfa_offset 4
 469              		.cfi_offset 14, -4
 470 0002 85B0     		sub	sp, sp, #20
 471              		.cfi_def_cfa_offset 24
 472 0004 0190     		str	r0, [sp, #4]
 473              		.loc 6 254 0
 474 0006 094B     		ldr	r3, .L38
 475 0008 1B68     		ldr	r3, [r3]
 476 000a 0393     		str	r3, [sp, #12]
 477              		.loc 6 256 0
 478 000c 0021     		movs	r1, #0
 479 000e 0198     		ldr	r0, [sp, #4]
 480 0010 FFF7FEFF 		bl	chEvtBroadcastFlagsI
 481              		.loc 6 257 0
 482 0014 00BF     		nop
 483 0016 054B     		ldr	r3, .L38
 484 0018 039A     		ldr	r2, [sp, #12]
 485 001a 1B68     		ldr	r3, [r3]
 486 001c 9A42     		cmp	r2, r3
 487 001e 01D0     		beq	.L37
 488 0020 FFF7FEFF 		bl	__stack_chk_fail
 489              	.L37:
 490 0024 05B0     		add	sp, sp, #20
 491              		.cfi_def_cfa_offset 4
 492              		@ sp needed
 493 0026 5DF804FB 		ldr	pc, [sp], #4
 494              	.L39:
 495 002a 00BF     		.align	2
 496              	.L38:
 497 002c 00000000 		.word	__stack_chk_guard
 498              		.cfi_endproc
 499              	.LFE199:
 500              		.size	chEvtBroadcastI, .-chEvtBroadcastI
 501              		.section	.text.chprintf,"ax",%progbits
 502              		.align	1
 503              		.p2align 4,,15
 504              		.syntax unified
 505              		.thumb
 506              		.thumb_func
 507              		.fpu fpv4-sp-d16
 508              		.type	chprintf, %function
 509              	chprintf:
 510              	.LFB256:
 511              		.file 7 "../lib/e-puck2_main-processor/ChibiOS//os/hal/lib/streams/chprintf.h"
 512              		.loc 7 69 0
 513              		.cfi_startproc
ARM GAS  C:\Users\PCHAUT~1\AppData\Local\Temp\ccCXPUFB.s 			page 10


 514              		@ args = 4, pretend = 12, frame = 24
 515              		@ frame_needed = 0, uses_anonymous_args = 1
 516 0000 0EB4     		push	{r1, r2, r3}
 517              		.cfi_def_cfa_offset 12
 518              		.cfi_offset 1, -12
 519              		.cfi_offset 2, -8
 520              		.cfi_offset 3, -4
 521 0002 00B5     		push	{lr}
 522              		.cfi_def_cfa_offset 16
 523              		.cfi_offset 14, -16
 524 0004 86B0     		sub	sp, sp, #24
 525              		.cfi_def_cfa_offset 40
 526 0006 0190     		str	r0, [sp, #4]
 527 0008 079B     		ldr	r3, [sp, #28]
 528 000a 0093     		str	r3, [sp]
 529              		.loc 7 69 0
 530 000c 0C4B     		ldr	r3, .L43
 531 000e 1B68     		ldr	r3, [r3]
 532 0010 0593     		str	r3, [sp, #20]
 533              		.loc 7 73 0
 534 0012 08AB     		add	r3, sp, #32
 535 0014 0393     		str	r3, [sp, #12]
 536              		.loc 7 74 0
 537 0016 039A     		ldr	r2, [sp, #12]
 538 0018 0099     		ldr	r1, [sp]
 539 001a 0198     		ldr	r0, [sp, #4]
 540 001c FFF7FEFF 		bl	chvprintf
 541 0020 0490     		str	r0, [sp, #16]
 542              		.loc 7 77 0
 543 0022 049B     		ldr	r3, [sp, #16]
 544              		.loc 7 78 0
 545 0024 1846     		mov	r0, r3
 546 0026 064B     		ldr	r3, .L43
 547 0028 059A     		ldr	r2, [sp, #20]
 548 002a 1B68     		ldr	r3, [r3]
 549 002c 9A42     		cmp	r2, r3
 550 002e 01D0     		beq	.L42
 551 0030 FFF7FEFF 		bl	__stack_chk_fail
 552              	.L42:
 553 0034 06B0     		add	sp, sp, #24
 554              		.cfi_def_cfa_offset 16
 555              		@ sp needed
 556 0036 5DF804EB 		ldr	lr, [sp], #4
 557              		.cfi_restore 14
 558              		.cfi_def_cfa_offset 12
 559 003a 03B0     		add	sp, sp, #12
 560              		.cfi_restore 3
 561              		.cfi_restore 2
 562              		.cfi_restore 1
 563              		.cfi_def_cfa_offset 0
 564 003c 7047     		bx	lr
 565              	.L44:
 566 003e 00BF     		.align	2
 567              	.L43:
 568 0040 00000000 		.word	__stack_chk_guard
 569              		.cfi_endproc
 570              	.LFE256:
ARM GAS  C:\Users\PCHAUT~1\AppData\Local\Temp\ccCXPUFB.s 			page 11


 571              		.size	chprintf, .-chprintf
 572              		.global	shell_terminated
 573              		.section	.bss.shell_terminated,"aw",%nobits
 574              		.align	2
 575              		.type	shell_terminated, %object
 576              		.size	shell_terminated, 4
 577              	shell_terminated:
 578 0000 00000000 		.space	4
 579              		.section	.text._strtok,"ax",%progbits
 580              		.align	1
 581              		.p2align 4,,15
 582              		.syntax unified
 583              		.thumb
 584              		.thumb_func
 585              		.fpu fpv4-sp-d16
 586              		.type	_strtok, %function
 587              	_strtok:
 588              	.LFB257:
 589              		.file 8 "../lib/e-puck2_main-processor/ChibiOS//os/various/shell.c"
 590              		.loc 8 37 0
 591              		.cfi_startproc
 592              		@ args = 0, pretend = 0, frame = 24
 593              		@ frame_needed = 0, uses_anonymous_args = 0
 594 0000 00B5     		push	{lr}
 595              		.cfi_def_cfa_offset 4
 596              		.cfi_offset 14, -4
 597 0002 87B0     		sub	sp, sp, #28
 598              		.cfi_def_cfa_offset 32
 599 0004 0390     		str	r0, [sp, #12]
 600 0006 0291     		str	r1, [sp, #8]
 601 0008 0192     		str	r2, [sp, #4]
 602              		.loc 8 37 0
 603 000a 1E4B     		ldr	r3, .L53
 604 000c 1B68     		ldr	r3, [r3]
 605 000e 0593     		str	r3, [sp, #20]
 606              		.loc 8 39 0
 607 0010 039B     		ldr	r3, [sp, #12]
 608 0012 002B     		cmp	r3, #0
 609 0014 02D0     		beq	.L46
 610              		.loc 8 40 0
 611 0016 019B     		ldr	r3, [sp, #4]
 612 0018 039A     		ldr	r2, [sp, #12]
 613 001a 1A60     		str	r2, [r3]
 614              	.L46:
 615              		.loc 8 41 0
 616 001c 019B     		ldr	r3, [sp, #4]
 617 001e 1B68     		ldr	r3, [r3]
 618 0020 0493     		str	r3, [sp, #16]
 619              		.loc 8 43 0
 620 0022 049B     		ldr	r3, [sp, #16]
 621 0024 002B     		cmp	r3, #0
 622 0026 01D1     		bne	.L47
 623              		.loc 8 44 0
 624 0028 0023     		movs	r3, #0
 625 002a 20E0     		b	.L48
 626              	.L47:
 627              		.loc 8 46 0
ARM GAS  C:\Users\PCHAUT~1\AppData\Local\Temp\ccCXPUFB.s 			page 12


 628 002c 0299     		ldr	r1, [sp, #8]
 629 002e 0498     		ldr	r0, [sp, #16]
 630 0030 FFF7FEFF 		bl	strspn
 631 0034 0246     		mov	r2, r0
 632 0036 049B     		ldr	r3, [sp, #16]
 633 0038 1344     		add	r3, r3, r2
 634 003a 0493     		str	r3, [sp, #16]
 635              		.loc 8 47 0
 636 003c 0299     		ldr	r1, [sp, #8]
 637 003e 0498     		ldr	r0, [sp, #16]
 638 0040 FFF7FEFF 		bl	strpbrk
 639 0044 0246     		mov	r2, r0
 640 0046 019B     		ldr	r3, [sp, #4]
 641 0048 1A60     		str	r2, [r3]
 642              		.loc 8 48 0
 643 004a 019B     		ldr	r3, [sp, #4]
 644 004c 1B68     		ldr	r3, [r3]
 645 004e 002B     		cmp	r3, #0
 646 0050 06D0     		beq	.L49
 647              		.loc 8 49 0
 648 0052 019B     		ldr	r3, [sp, #4]
 649 0054 1B68     		ldr	r3, [r3]
 650 0056 591C     		adds	r1, r3, #1
 651 0058 019A     		ldr	r2, [sp, #4]
 652 005a 1160     		str	r1, [r2]
 653 005c 0022     		movs	r2, #0
 654 005e 1A70     		strb	r2, [r3]
 655              	.L49:
 656              		.loc 8 51 0
 657 0060 049B     		ldr	r3, [sp, #16]
 658 0062 1B78     		ldrb	r3, [r3]	@ zero_extendqisi2
 659 0064 002B     		cmp	r3, #0
 660 0066 01D0     		beq	.L50
 661              		.loc 8 51 0 is_stmt 0 discriminator 1
 662 0068 049B     		ldr	r3, [sp, #16]
 663 006a 00E0     		b	.L48
 664              	.L50:
 665              		.loc 8 51 0 discriminator 2
 666 006c 0023     		movs	r3, #0
 667              	.L48:
 668              		.loc 8 52 0 is_stmt 1
 669 006e 1846     		mov	r0, r3
 670 0070 044B     		ldr	r3, .L53
 671 0072 059A     		ldr	r2, [sp, #20]
 672 0074 1B68     		ldr	r3, [r3]
 673 0076 9A42     		cmp	r2, r3
 674 0078 01D0     		beq	.L52
 675 007a FFF7FEFF 		bl	__stack_chk_fail
 676              	.L52:
 677 007e 07B0     		add	sp, sp, #28
 678              		.cfi_def_cfa_offset 4
 679              		@ sp needed
 680 0080 5DF804FB 		ldr	pc, [sp], #4
 681              	.L54:
 682              		.align	2
 683              	.L53:
 684 0084 00000000 		.word	__stack_chk_guard
ARM GAS  C:\Users\PCHAUT~1\AppData\Local\Temp\ccCXPUFB.s 			page 13


 685              		.cfi_endproc
 686              	.LFE257:
 687              		.size	_strtok, .-_strtok
 688              		.section	.rodata
 689              		.align	2
 690              	.LC0:
 691 0000 55736167 		.ascii	"Usage: %s\015\012\000"
 691      653A2025 
 691      730D0A00 
 692              		.section	.text.usage,"ax",%progbits
 693              		.align	1
 694              		.p2align 4,,15
 695              		.syntax unified
 696              		.thumb
 697              		.thumb_func
 698              		.fpu fpv4-sp-d16
 699              		.type	usage, %function
 700              	usage:
 701              	.LFB258:
 702              		.loc 8 54 0
 703              		.cfi_startproc
 704              		@ args = 0, pretend = 0, frame = 16
 705              		@ frame_needed = 0, uses_anonymous_args = 0
 706 0000 00B5     		push	{lr}
 707              		.cfi_def_cfa_offset 4
 708              		.cfi_offset 14, -4
 709 0002 85B0     		sub	sp, sp, #20
 710              		.cfi_def_cfa_offset 24
 711 0004 0190     		str	r0, [sp, #4]
 712 0006 0091     		str	r1, [sp]
 713              		.loc 8 54 0
 714 0008 094B     		ldr	r3, .L57
 715 000a 1B68     		ldr	r3, [r3]
 716 000c 0393     		str	r3, [sp, #12]
 717              		.loc 8 56 0
 718 000e 009A     		ldr	r2, [sp]
 719 0010 0849     		ldr	r1, .L57+4
 720 0012 0198     		ldr	r0, [sp, #4]
 721 0014 FFF7FEFF 		bl	chprintf
 722              		.loc 8 57 0
 723 0018 00BF     		nop
 724 001a 054B     		ldr	r3, .L57
 725 001c 039A     		ldr	r2, [sp, #12]
 726 001e 1B68     		ldr	r3, [r3]
 727 0020 9A42     		cmp	r2, r3
 728 0022 01D0     		beq	.L56
 729 0024 FFF7FEFF 		bl	__stack_chk_fail
 730              	.L56:
 731 0028 05B0     		add	sp, sp, #20
 732              		.cfi_def_cfa_offset 4
 733              		@ sp needed
 734 002a 5DF804FB 		ldr	pc, [sp], #4
 735              	.L58:
 736 002e 00BF     		.align	2
 737              	.L57:
 738 0030 00000000 		.word	__stack_chk_guard
 739 0034 00000000 		.word	.LC0
ARM GAS  C:\Users\PCHAUT~1\AppData\Local\Temp\ccCXPUFB.s 			page 14


 740              		.cfi_endproc
 741              	.LFE258:
 742              		.size	usage, .-usage
 743              		.section	.rodata
 744              		.align	2
 745              	.LC1:
 746 000c 25732000 		.ascii	"%s \000"
 747              		.section	.text.list_commands,"ax",%progbits
 748              		.align	1
 749              		.p2align 4,,15
 750              		.syntax unified
 751              		.thumb
 752              		.thumb_func
 753              		.fpu fpv4-sp-d16
 754              		.type	list_commands, %function
 755              	list_commands:
 756              	.LFB259:
 757              		.loc 8 59 0
 758              		.cfi_startproc
 759              		@ args = 0, pretend = 0, frame = 16
 760              		@ frame_needed = 0, uses_anonymous_args = 0
 761 0000 00B5     		push	{lr}
 762              		.cfi_def_cfa_offset 4
 763              		.cfi_offset 14, -4
 764 0002 85B0     		sub	sp, sp, #20
 765              		.cfi_def_cfa_offset 24
 766 0004 0190     		str	r0, [sp, #4]
 767 0006 0091     		str	r1, [sp]
 768              		.loc 8 59 0
 769 0008 0E4B     		ldr	r3, .L63
 770 000a 1B68     		ldr	r3, [r3]
 771 000c 0393     		str	r3, [sp, #12]
 772              		.loc 8 61 0
 773 000e 09E0     		b	.L60
 774              	.L61:
 775              		.loc 8 62 0
 776 0010 009B     		ldr	r3, [sp]
 777 0012 1B68     		ldr	r3, [r3]
 778 0014 1A46     		mov	r2, r3
 779 0016 0C49     		ldr	r1, .L63+4
 780 0018 0198     		ldr	r0, [sp, #4]
 781 001a FFF7FEFF 		bl	chprintf
 782              		.loc 8 63 0
 783 001e 009B     		ldr	r3, [sp]
 784 0020 0833     		adds	r3, r3, #8
 785 0022 0093     		str	r3, [sp]
 786              	.L60:
 787              		.loc 8 61 0
 788 0024 009B     		ldr	r3, [sp]
 789 0026 1B68     		ldr	r3, [r3]
 790 0028 002B     		cmp	r3, #0
 791 002a F1D1     		bne	.L61
 792              		.loc 8 65 0
 793 002c 00BF     		nop
 794 002e 054B     		ldr	r3, .L63
 795 0030 039A     		ldr	r2, [sp, #12]
 796 0032 1B68     		ldr	r3, [r3]
ARM GAS  C:\Users\PCHAUT~1\AppData\Local\Temp\ccCXPUFB.s 			page 15


 797 0034 9A42     		cmp	r2, r3
 798 0036 01D0     		beq	.L62
 799 0038 FFF7FEFF 		bl	__stack_chk_fail
 800              	.L62:
 801 003c 05B0     		add	sp, sp, #20
 802              		.cfi_def_cfa_offset 4
 803              		@ sp needed
 804 003e 5DF804FB 		ldr	pc, [sp], #4
 805              	.L64:
 806 0042 00BF     		.align	2
 807              	.L63:
 808 0044 00000000 		.word	__stack_chk_guard
 809 0048 0C000000 		.word	.LC1
 810              		.cfi_endproc
 811              	.LFE259:
 812              		.size	list_commands, .-list_commands
 813              		.section	.rodata
 814              		.align	2
 815              	.LC2:
 816 0010 696E666F 		.ascii	"info\000"
 816      00
 817 0015 000000   		.align	2
 818              	.LC3:
 819 0018 332E302E 		.ascii	"3.0.0\000"
 819      3000
 820 001e 0000     		.align	2
 821              	.LC4:
 822 0020 4B65726E 		.ascii	"Kernel:       %s\015\012\000"
 822      656C3A20 
 822      20202020 
 822      20202573 
 822      0D0A00
 823 0033 00       		.align	2
 824              	.LC5:
 825 0034 47434320 		.ascii	"GCC 7.2.1 20170904 (release) [ARM/embedded-7-branch"
 825      372E322E 
 825      31203230 
 825      31373039 
 825      30342028 
 826 0067 20726576 		.ascii	" revision 255204]\000"
 826      6973696F 
 826      6E203235 
 826      35323034 
 826      5D00
 827 0079 000000   		.align	2
 828              	.LC6:
 829 007c 436F6D70 		.ascii	"Compiler:     %s\015\012\000"
 829      696C6572 
 829      3A202020 
 829      20202573 
 829      0D0A00
 830 008f 00       		.align	2
 831              	.LC7:
 832 0090 41524D76 		.ascii	"ARMv7-ME\000"
 832      372D4D45 
 832      00
 833 0099 000000   		.align	2
ARM GAS  C:\Users\PCHAUT~1\AppData\Local\Temp\ccCXPUFB.s 			page 16


 834              	.LC8:
 835 009c 41726368 		.ascii	"Architecture: %s\015\012\000"
 835      69746563 
 835      74757265 
 835      3A202573 
 835      0D0A00
 836 00af 00       		.align	2
 837              	.LC9:
 838 00b0 436F7274 		.ascii	"Cortex-M4F\000"
 838      65782D4D 
 838      344600
 839 00bb 00       		.align	2
 840              	.LC10:
 841 00bc 436F7265 		.ascii	"Core Variant: %s\015\012\000"
 841      20566172 
 841      69616E74 
 841      3A202573 
 841      0D0A00
 842 00cf 00       		.align	2
 843              	.LC11:
 844 00d0 41647661 		.ascii	"Advanced kernel mode\000"
 844      6E636564 
 844      206B6572 
 844      6E656C20 
 844      6D6F6465 
 845 00e5 000000   		.align	2
 846              	.LC12:
 847 00e8 506F7274 		.ascii	"Port Info:    %s\015\012\000"
 847      20496E66 
 847      6F3A2020 
 847      20202573 
 847      0D0A00
 848 00fb 00       		.align	2
 849              	.LC13:
 850 00fc 53544D33 		.ascii	"STM32F407 High Performance with DSP and FPU\000"
 850      32463430 
 850      37204869 
 850      67682050 
 850      6572666F 
 851              		.align	2
 852              	.LC14:
 853 0128 506C6174 		.ascii	"Platform:     %s\015\012\000"
 853      666F726D 
 853      3A202020 
 853      20202573 
 853      0D0A00
 854 013b 00       		.align	2
 855              	.LC15:
 856 013c 47435472 		.ascii	"GCTronic-MobotsEPFL e-puck V2.0_F\000"
 856      6F6E6963 
 856      2D4D6F62 
 856      6F747345 
 856      50464C20 
 857 015e 0000     		.align	2
 858              	.LC16:
 859 0160 426F6172 		.ascii	"Board:        %s\015\012\000"
 859      643A2020 
ARM GAS  C:\Users\PCHAUT~1\AppData\Local\Temp\ccCXPUFB.s 			page 17


 859      20202020 
 859      20202573 
 859      0D0A00
 860 0173 00       		.align	2
 861              	.LC17:
 862 0174 202D2000 		.ascii	" - \000"
 863              		.align	2
 864              	.LC18:
 865 0178 41707220 		.ascii	"Apr 22 2021\000"
 865      32322032 
 865      30323100 
 866              		.align	2
 867              	.LC19:
 868 0184 4275696C 		.ascii	"Build time:   %s%s%s\015\012\000"
 868      64207469 
 868      6D653A20 
 868      20202573 
 868      25732573 
 869 019b 00       		.align	2
 870              	.LC20:
 871 019c 31353A34 		.ascii	"15:45:50\000"
 871      353A3530 
 871      00
 872              		.section	.text.cmd_info,"ax",%progbits
 873              		.align	1
 874              		.p2align 4,,15
 875              		.syntax unified
 876              		.thumb
 877              		.thumb_func
 878              		.fpu fpv4-sp-d16
 879              		.type	cmd_info, %function
 880              	cmd_info:
 881              	.LFB260:
 882              		.loc 8 67 0
 883              		.cfi_startproc
 884              		@ args = 0, pretend = 0, frame = 24
 885              		@ frame_needed = 0, uses_anonymous_args = 0
 886 0000 00B5     		push	{lr}
 887              		.cfi_def_cfa_offset 4
 888              		.cfi_offset 14, -4
 889 0002 89B0     		sub	sp, sp, #36
 890              		.cfi_def_cfa_offset 40
 891 0004 0590     		str	r0, [sp, #20]
 892 0006 0491     		str	r1, [sp, #16]
 893 0008 0392     		str	r2, [sp, #12]
 894              		.loc 8 67 0
 895 000a 204B     		ldr	r3, .L69
 896 000c 1B68     		ldr	r3, [r3]
 897 000e 0793     		str	r3, [sp, #28]
 898              		.loc 8 70 0
 899 0010 049B     		ldr	r3, [sp, #16]
 900 0012 002B     		cmp	r3, #0
 901 0014 04DD     		ble	.L66
 902              		.loc 8 71 0
 903 0016 1E49     		ldr	r1, .L69+4
 904 0018 0598     		ldr	r0, [sp, #20]
 905 001a FFF7FEFF 		bl	usage
ARM GAS  C:\Users\PCHAUT~1\AppData\Local\Temp\ccCXPUFB.s 			page 18


 906              		.loc 8 72 0
 907 001e 2AE0     		b	.L65
 908              	.L66:
 909              		.loc 8 75 0
 910 0020 1C4A     		ldr	r2, .L69+8
 911 0022 1D49     		ldr	r1, .L69+12
 912 0024 0598     		ldr	r0, [sp, #20]
 913 0026 FFF7FEFF 		bl	chprintf
 914              		.loc 8 77 0
 915 002a 1C4A     		ldr	r2, .L69+16
 916 002c 1C49     		ldr	r1, .L69+20
 917 002e 0598     		ldr	r0, [sp, #20]
 918 0030 FFF7FEFF 		bl	chprintf
 919              		.loc 8 79 0
 920 0034 1B4A     		ldr	r2, .L69+24
 921 0036 1C49     		ldr	r1, .L69+28
 922 0038 0598     		ldr	r0, [sp, #20]
 923 003a FFF7FEFF 		bl	chprintf
 924              		.loc 8 81 0
 925 003e 1B4A     		ldr	r2, .L69+32
 926 0040 1B49     		ldr	r1, .L69+36
 927 0042 0598     		ldr	r0, [sp, #20]
 928 0044 FFF7FEFF 		bl	chprintf
 929              		.loc 8 84 0
 930 0048 1A4A     		ldr	r2, .L69+40
 931 004a 1B49     		ldr	r1, .L69+44
 932 004c 0598     		ldr	r0, [sp, #20]
 933 004e FFF7FEFF 		bl	chprintf
 934              		.loc 8 87 0
 935 0052 1A4A     		ldr	r2, .L69+48
 936 0054 1A49     		ldr	r1, .L69+52
 937 0056 0598     		ldr	r0, [sp, #20]
 938 0058 FFF7FEFF 		bl	chprintf
 939              		.loc 8 90 0
 940 005c 194A     		ldr	r2, .L69+56
 941 005e 1A49     		ldr	r1, .L69+60
 942 0060 0598     		ldr	r0, [sp, #20]
 943 0062 FFF7FEFF 		bl	chprintf
 944              		.loc 8 94 0
 945 0066 194B     		ldr	r3, .L69+64
 946 0068 0093     		str	r3, [sp]
 947 006a 194B     		ldr	r3, .L69+68
 948 006c 194A     		ldr	r2, .L69+72
 949 006e 1A49     		ldr	r1, .L69+76
 950 0070 0598     		ldr	r0, [sp, #20]
 951 0072 FFF7FEFF 		bl	chprintf
 952              	.L65:
 953              		.loc 8 97 0
 954 0076 054B     		ldr	r3, .L69
 955 0078 079A     		ldr	r2, [sp, #28]
 956 007a 1B68     		ldr	r3, [r3]
 957 007c 9A42     		cmp	r2, r3
 958 007e 01D0     		beq	.L68
 959 0080 FFF7FEFF 		bl	__stack_chk_fail
 960              	.L68:
 961 0084 09B0     		add	sp, sp, #36
 962              		.cfi_def_cfa_offset 4
ARM GAS  C:\Users\PCHAUT~1\AppData\Local\Temp\ccCXPUFB.s 			page 19


 963              		@ sp needed
 964 0086 5DF804FB 		ldr	pc, [sp], #4
 965              	.L70:
 966 008a 00BF     		.align	2
 967              	.L69:
 968 008c 00000000 		.word	__stack_chk_guard
 969 0090 10000000 		.word	.LC2
 970 0094 18000000 		.word	.LC3
 971 0098 20000000 		.word	.LC4
 972 009c 34000000 		.word	.LC5
 973 00a0 7C000000 		.word	.LC6
 974 00a4 90000000 		.word	.LC7
 975 00a8 9C000000 		.word	.LC8
 976 00ac B0000000 		.word	.LC9
 977 00b0 BC000000 		.word	.LC10
 978 00b4 D0000000 		.word	.LC11
 979 00b8 E8000000 		.word	.LC12
 980 00bc FC000000 		.word	.LC13
 981 00c0 28010000 		.word	.LC14
 982 00c4 3C010000 		.word	.LC15
 983 00c8 60010000 		.word	.LC16
 984 00cc 9C010000 		.word	.LC20
 985 00d0 74010000 		.word	.LC17
 986 00d4 78010000 		.word	.LC18
 987 00d8 84010000 		.word	.LC19
 988              		.cfi_endproc
 989              	.LFE260:
 990              		.size	cmd_info, .-cmd_info
 991              		.section	.rodata
 992 01a5 000000   		.align	2
 993              	.LC21:
 994 01a8 73797374 		.ascii	"systime\000"
 994      696D6500 
 995              		.align	2
 996              	.LC22:
 997 01b0 256C750D 		.ascii	"%lu\015\012\000"
 997      0A00
 998              		.section	.text.cmd_systime,"ax",%progbits
 999              		.align	1
 1000              		.p2align 4,,15
 1001              		.syntax unified
 1002              		.thumb
 1003              		.thumb_func
 1004              		.fpu fpv4-sp-d16
 1005              		.type	cmd_systime, %function
 1006              	cmd_systime:
 1007              	.LFB261:
 1008              		.loc 8 99 0
 1009              		.cfi_startproc
 1010              		@ args = 0, pretend = 0, frame = 24
 1011              		@ frame_needed = 0, uses_anonymous_args = 0
 1012 0000 00B5     		push	{lr}
 1013              		.cfi_def_cfa_offset 4
 1014              		.cfi_offset 14, -4
 1015 0002 87B0     		sub	sp, sp, #28
 1016              		.cfi_def_cfa_offset 32
 1017 0004 0390     		str	r0, [sp, #12]
ARM GAS  C:\Users\PCHAUT~1\AppData\Local\Temp\ccCXPUFB.s 			page 20


 1018 0006 0291     		str	r1, [sp, #8]
 1019 0008 0192     		str	r2, [sp, #4]
 1020              		.loc 8 99 0
 1021 000a 0E4B     		ldr	r3, .L75
 1022 000c 1B68     		ldr	r3, [r3]
 1023 000e 0593     		str	r3, [sp, #20]
 1024              		.loc 8 102 0
 1025 0010 029B     		ldr	r3, [sp, #8]
 1026 0012 002B     		cmp	r3, #0
 1027 0014 04DD     		ble	.L72
 1028              		.loc 8 103 0
 1029 0016 0C49     		ldr	r1, .L75+4
 1030 0018 0398     		ldr	r0, [sp, #12]
 1031 001a FFF7FEFF 		bl	usage
 1032              		.loc 8 104 0
 1033 001e 07E0     		b	.L71
 1034              	.L72:
 1035              		.loc 8 106 0
 1036 0020 FFF7FEFF 		bl	chVTGetSystemTime
 1037 0024 0346     		mov	r3, r0
 1038 0026 1A46     		mov	r2, r3
 1039 0028 0849     		ldr	r1, .L75+8
 1040 002a 0398     		ldr	r0, [sp, #12]
 1041 002c FFF7FEFF 		bl	chprintf
 1042              	.L71:
 1043              		.loc 8 107 0
 1044 0030 044B     		ldr	r3, .L75
 1045 0032 059A     		ldr	r2, [sp, #20]
 1046 0034 1B68     		ldr	r3, [r3]
 1047 0036 9A42     		cmp	r2, r3
 1048 0038 01D0     		beq	.L74
 1049 003a FFF7FEFF 		bl	__stack_chk_fail
 1050              	.L74:
 1051 003e 07B0     		add	sp, sp, #28
 1052              		.cfi_def_cfa_offset 4
 1053              		@ sp needed
 1054 0040 5DF804FB 		ldr	pc, [sp], #4
 1055              	.L76:
 1056              		.align	2
 1057              	.L75:
 1058 0044 00000000 		.word	__stack_chk_guard
 1059 0048 A8010000 		.word	.LC21
 1060 004c B0010000 		.word	.LC22
 1061              		.cfi_endproc
 1062              	.LFE261:
 1063              		.size	cmd_systime, .-cmd_systime
 1064              		.section	.data.local_commands,"aw",%progbits
 1065              		.align	2
 1066              		.type	local_commands, %object
 1067              		.size	local_commands, 24
 1068              	local_commands:
 1069 0000 10000000 		.word	.LC2
 1070 0004 00000000 		.word	cmd_info
 1071 0008 A8010000 		.word	.LC21
 1072 000c 00000000 		.word	cmd_systime
 1073 0010 00000000 		.word	0
 1074 0014 00000000 		.word	0
ARM GAS  C:\Users\PCHAUT~1\AppData\Local\Temp\ccCXPUFB.s 			page 21


 1075              		.section	.text.cmdexec,"ax",%progbits
 1076              		.align	1
 1077              		.p2align 4,,15
 1078              		.syntax unified
 1079              		.thumb
 1080              		.thumb_func
 1081              		.fpu fpv4-sp-d16
 1082              		.type	cmdexec, %function
 1083              	cmdexec:
 1084              	.LFB262:
 1085              		.loc 8 119 0
 1086              		.cfi_startproc
 1087              		@ args = 4, pretend = 0, frame = 32
 1088              		@ frame_needed = 0, uses_anonymous_args = 0
 1089 0000 00B5     		push	{lr}
 1090              		.cfi_def_cfa_offset 4
 1091              		.cfi_offset 14, -4
 1092 0002 89B0     		sub	sp, sp, #36
 1093              		.cfi_def_cfa_offset 40
 1094 0004 0590     		str	r0, [sp, #20]
 1095 0006 0491     		str	r1, [sp, #16]
 1096 0008 0392     		str	r2, [sp, #12]
 1097 000a 0293     		str	r3, [sp, #8]
 1098 000c 0A9B     		ldr	r3, [sp, #40]
 1099 000e 0193     		str	r3, [sp, #4]
 1100              		.loc 8 119 0
 1101 0010 134B     		ldr	r3, .L83
 1102 0012 1B68     		ldr	r3, [r3]
 1103 0014 0793     		str	r3, [sp, #28]
 1104              		.loc 8 121 0
 1105 0016 13E0     		b	.L78
 1106              	.L81:
 1107              		.loc 8 122 0
 1108 0018 059B     		ldr	r3, [sp, #20]
 1109 001a 1B68     		ldr	r3, [r3]
 1110 001c 0399     		ldr	r1, [sp, #12]
 1111 001e 1846     		mov	r0, r3
 1112 0020 FFF7FEFF 		bl	strcasecmp
 1113 0024 0346     		mov	r3, r0
 1114 0026 002B     		cmp	r3, #0
 1115 0028 07D1     		bne	.L79
 1116              		.loc 8 123 0
 1117 002a 059B     		ldr	r3, [sp, #20]
 1118 002c 5B68     		ldr	r3, [r3, #4]
 1119 002e 019A     		ldr	r2, [sp, #4]
 1120 0030 0299     		ldr	r1, [sp, #8]
 1121 0032 0498     		ldr	r0, [sp, #16]
 1122 0034 9847     		blx	r3
 1123              	.LVL0:
 1124              		.loc 8 124 0
 1125 0036 0023     		movs	r3, #0
 1126 0038 07E0     		b	.L80
 1127              	.L79:
 1128              		.loc 8 126 0
 1129 003a 059B     		ldr	r3, [sp, #20]
 1130 003c 0833     		adds	r3, r3, #8
 1131 003e 0593     		str	r3, [sp, #20]
ARM GAS  C:\Users\PCHAUT~1\AppData\Local\Temp\ccCXPUFB.s 			page 22


 1132              	.L78:
 1133              		.loc 8 121 0
 1134 0040 059B     		ldr	r3, [sp, #20]
 1135 0042 1B68     		ldr	r3, [r3]
 1136 0044 002B     		cmp	r3, #0
 1137 0046 E7D1     		bne	.L81
 1138              		.loc 8 128 0
 1139 0048 0123     		movs	r3, #1
 1140              	.L80:
 1141              		.loc 8 129 0
 1142 004a 1846     		mov	r0, r3
 1143 004c 044B     		ldr	r3, .L83
 1144 004e 079A     		ldr	r2, [sp, #28]
 1145 0050 1B68     		ldr	r3, [r3]
 1146 0052 9A42     		cmp	r2, r3
 1147 0054 01D0     		beq	.L82
 1148 0056 FFF7FEFF 		bl	__stack_chk_fail
 1149              	.L82:
 1150 005a 09B0     		add	sp, sp, #36
 1151              		.cfi_def_cfa_offset 4
 1152              		@ sp needed
 1153 005c 5DF804FB 		ldr	pc, [sp], #4
 1154              	.L84:
 1155              		.align	2
 1156              	.L83:
 1157 0060 00000000 		.word	__stack_chk_guard
 1158              		.cfi_endproc
 1159              	.LFE262:
 1160              		.size	cmdexec, .-cmdexec
 1161              		.section	.rodata
 1162 01b6 0000     		.align	2
 1163              	.LC23:
 1164 01b8 7368656C 		.ascii	"shell\000"
 1164      6C00
 1165 01be 0000     		.align	2
 1166              	.LC24:
 1167 01c0 0D0A4368 		.ascii	"\015\012ChibiOS/RT Shell\015\012\000"
 1167      6962694F 
 1167      532F5254 
 1167      20536865 
 1167      6C6C0D0A 
 1168 01d5 000000   		.align	2
 1169              	.LC25:
 1170 01d8 63683E20 		.ascii	"ch> \000"
 1170      00
 1171 01dd 000000   		.align	2
 1172              	.LC26:
 1173 01e0 0D0A6C6F 		.ascii	"\015\012logout\000"
 1173      676F7574 
 1173      00
 1174 01e9 000000   		.align	2
 1175              	.LC27:
 1176 01ec 200900   		.ascii	" \011\000"
 1177 01ef 00       		.align	2
 1178              	.LC28:
 1179 01f0 746F6F20 		.ascii	"too many arguments\015\012\000"
 1179      6D616E79 
ARM GAS  C:\Users\PCHAUT~1\AppData\Local\Temp\ccCXPUFB.s 			page 23


 1179      20617267 
 1179      756D656E 
 1179      74730D0A 
 1180 0205 000000   		.align	2
 1181              	.LC29:
 1182 0208 65786974 		.ascii	"exit\000"
 1182      00
 1183 020d 000000   		.align	2
 1184              	.LC30:
 1185 0210 68656C70 		.ascii	"help\000"
 1185      00
 1186 0215 000000   		.align	2
 1187              	.LC31:
 1188 0218 436F6D6D 		.ascii	"Commands: help exit \000"
 1188      616E6473 
 1188      3A206865 
 1188      6C702065 
 1188      78697420 
 1189 022d 000000   		.align	2
 1190              	.LC32:
 1191 0230 0D0A00   		.ascii	"\015\012\000"
 1192 0233 00       		.align	2
 1193              	.LC33:
 1194 0234 257300   		.ascii	"%s\000"
 1195 0237 00       		.align	2
 1196              	.LC34:
 1197 0238 203F0D0A 		.ascii	" ?\015\012\000"
 1197      00
 1198              		.section	.text.shell_thread,"ax",%progbits
 1199              		.align	1
 1200              		.p2align 4,,15
 1201              		.syntax unified
 1202              		.thumb
 1203              		.thumb_func
 1204              		.fpu fpv4-sp-d16
 1205              		.type	shell_thread, %function
 1206              	shell_thread:
 1207              	.LFB263:
 1208              		.loc 8 136 0
 1209              		.cfi_startproc
 1210              		@ args = 0, pretend = 0, frame = 120
 1211              		@ frame_needed = 0, uses_anonymous_args = 0
 1212 0000 00B5     		push	{lr}
 1213              		.cfi_def_cfa_offset 4
 1214              		.cfi_offset 14, -4
 1215 0002 A1B0     		sub	sp, sp, #132
 1216              		.cfi_def_cfa_offset 136
 1217 0004 0390     		str	r0, [sp, #12]
 1218              		.loc 8 136 0
 1219 0006 5D4B     		ldr	r3, .L102
 1220 0008 1B68     		ldr	r3, [r3]
 1221 000a 1F93     		str	r3, [sp, #124]
 1222              		.loc 8 138 0
 1223 000c 039B     		ldr	r3, [sp, #12]
 1224 000e 1B68     		ldr	r3, [r3]
 1225 0010 0793     		str	r3, [sp, #28]
 1226              		.loc 8 139 0
ARM GAS  C:\Users\PCHAUT~1\AppData\Local\Temp\ccCXPUFB.s 			page 24


 1227 0012 039B     		ldr	r3, [sp, #12]
 1228 0014 5B68     		ldr	r3, [r3, #4]
 1229 0016 0893     		str	r3, [sp, #32]
 1230              		.loc 8 143 0
 1231 0018 5948     		ldr	r0, .L102+4
 1232 001a FFF7FEFF 		bl	chRegSetThreadName
 1233              		.loc 8 144 0
 1234 001e 5949     		ldr	r1, .L102+8
 1235 0020 0798     		ldr	r0, [sp, #28]
 1236 0022 FFF7FEFF 		bl	chprintf
 1237              	.L99:
 1238              		.loc 8 146 0
 1239 0026 5849     		ldr	r1, .L102+12
 1240 0028 0798     		ldr	r0, [sp, #28]
 1241 002a FFF7FEFF 		bl	chprintf
 1242              		.loc 8 147 0
 1243 002e 0FAB     		add	r3, sp, #60
 1244 0030 4022     		movs	r2, #64
 1245 0032 1946     		mov	r1, r3
 1246 0034 0798     		ldr	r0, [sp, #28]
 1247 0036 FFF7FEFF 		bl	shellGetLine
 1248 003a 0346     		mov	r3, r0
 1249 003c 002B     		cmp	r3, #0
 1250 003e 04D0     		beq	.L86
 1251              		.loc 8 148 0
 1252 0040 5249     		ldr	r1, .L102+16
 1253 0042 0798     		ldr	r0, [sp, #28]
 1254 0044 FFF7FEFF 		bl	chprintf
 1255              		.loc 8 149 0
 1256 0048 8AE0     		b	.L87
 1257              	.L86:
 1258              		.loc 8 151 0
 1259 004a 04AA     		add	r2, sp, #16
 1260 004c 0FAB     		add	r3, sp, #60
 1261 004e 5049     		ldr	r1, .L102+20
 1262 0050 1846     		mov	r0, r3
 1263 0052 FFF7FEFF 		bl	_strtok
 1264 0056 0990     		str	r0, [sp, #36]
 1265              		.loc 8 152 0
 1266 0058 099B     		ldr	r3, [sp, #36]
 1267 005a 0693     		str	r3, [sp, #24]
 1268              		.loc 8 153 0
 1269 005c 0023     		movs	r3, #0
 1270 005e 0593     		str	r3, [sp, #20]
 1271              		.loc 8 154 0
 1272 0060 12E0     		b	.L88
 1273              	.L91:
 1274              		.loc 8 155 0
 1275 0062 059B     		ldr	r3, [sp, #20]
 1276 0064 032B     		cmp	r3, #3
 1277 0066 06DD     		ble	.L89
 1278              		.loc 8 156 0
 1279 0068 4A49     		ldr	r1, .L102+24
 1280 006a 0798     		ldr	r0, [sp, #28]
 1281 006c FFF7FEFF 		bl	chprintf
 1282              		.loc 8 157 0
 1283 0070 0023     		movs	r3, #0
ARM GAS  C:\Users\PCHAUT~1\AppData\Local\Temp\ccCXPUFB.s 			page 25


 1284 0072 0693     		str	r3, [sp, #24]
 1285              		.loc 8 158 0
 1286 0074 12E0     		b	.L90
 1287              	.L89:
 1288              		.loc 8 160 0
 1289 0076 059B     		ldr	r3, [sp, #20]
 1290 0078 5A1C     		adds	r2, r3, #1
 1291 007a 0592     		str	r2, [sp, #20]
 1292 007c 9B00     		lsls	r3, r3, #2
 1293 007e 20AA     		add	r2, sp, #128
 1294 0080 1344     		add	r3, r3, r2
 1295 0082 099A     		ldr	r2, [sp, #36]
 1296 0084 43F8582C 		str	r2, [r3, #-88]
 1297              	.L88:
 1298              		.loc 8 154 0
 1299 0088 04AB     		add	r3, sp, #16
 1300 008a 1A46     		mov	r2, r3
 1301 008c 4049     		ldr	r1, .L102+20
 1302 008e 0020     		movs	r0, #0
 1303 0090 FFF7FEFF 		bl	_strtok
 1304 0094 0990     		str	r0, [sp, #36]
 1305 0096 099B     		ldr	r3, [sp, #36]
 1306 0098 002B     		cmp	r3, #0
 1307 009a E2D1     		bne	.L91
 1308              	.L90:
 1309              		.loc 8 162 0
 1310 009c 059B     		ldr	r3, [sp, #20]
 1311 009e 9B00     		lsls	r3, r3, #2
 1312 00a0 20AA     		add	r2, sp, #128
 1313 00a2 1344     		add	r3, r3, r2
 1314 00a4 0022     		movs	r2, #0
 1315 00a6 43F8582C 		str	r2, [r3, #-88]
 1316              		.loc 8 163 0
 1317 00aa 069B     		ldr	r3, [sp, #24]
 1318 00ac 002B     		cmp	r3, #0
 1319 00ae BAD0     		beq	.L99
 1320              		.loc 8 164 0
 1321 00b0 3949     		ldr	r1, .L102+28
 1322 00b2 0698     		ldr	r0, [sp, #24]
 1323 00b4 FFF7FEFF 		bl	strcasecmp
 1324 00b8 0346     		mov	r3, r0
 1325 00ba 002B     		cmp	r3, #0
 1326 00bc 07D1     		bne	.L93
 1327              		.loc 8 165 0
 1328 00be 059B     		ldr	r3, [sp, #20]
 1329 00c0 002B     		cmp	r3, #0
 1330 00c2 4CDD     		ble	.L101
 1331              		.loc 8 166 0
 1332 00c4 3449     		ldr	r1, .L102+28
 1333 00c6 0798     		ldr	r0, [sp, #28]
 1334 00c8 FFF7FEFF 		bl	usage
 1335              		.loc 8 167 0
 1336 00cc 46E0     		b	.L92
 1337              	.L93:
 1338              		.loc 8 171 0
 1339 00ce 3349     		ldr	r1, .L102+32
 1340 00d0 0698     		ldr	r0, [sp, #24]
ARM GAS  C:\Users\PCHAUT~1\AppData\Local\Temp\ccCXPUFB.s 			page 26


 1341 00d2 FFF7FEFF 		bl	strcasecmp
 1342 00d6 0346     		mov	r3, r0
 1343 00d8 002B     		cmp	r3, #0
 1344 00da 1BD1     		bne	.L95
 1345              		.loc 8 172 0
 1346 00dc 059B     		ldr	r3, [sp, #20]
 1347 00de 002B     		cmp	r3, #0
 1348 00e0 04DD     		ble	.L96
 1349              		.loc 8 173 0
 1350 00e2 2E49     		ldr	r1, .L102+32
 1351 00e4 0798     		ldr	r0, [sp, #28]
 1352 00e6 FFF7FEFF 		bl	usage
 1353              		.loc 8 174 0
 1354 00ea 37E0     		b	.L92
 1355              	.L96:
 1356              		.loc 8 176 0
 1357 00ec 2C49     		ldr	r1, .L102+36
 1358 00ee 0798     		ldr	r0, [sp, #28]
 1359 00f0 FFF7FEFF 		bl	chprintf
 1360              		.loc 8 177 0
 1361 00f4 2B49     		ldr	r1, .L102+40
 1362 00f6 0798     		ldr	r0, [sp, #28]
 1363 00f8 FFF7FEFF 		bl	list_commands
 1364              		.loc 8 178 0
 1365 00fc 089B     		ldr	r3, [sp, #32]
 1366 00fe 002B     		cmp	r3, #0
 1367 0100 03D0     		beq	.L97
 1368              		.loc 8 179 0
 1369 0102 0899     		ldr	r1, [sp, #32]
 1370 0104 0798     		ldr	r0, [sp, #28]
 1371 0106 FFF7FEFF 		bl	list_commands
 1372              	.L97:
 1373              		.loc 8 180 0
 1374 010a 2749     		ldr	r1, .L102+44
 1375 010c 0798     		ldr	r0, [sp, #28]
 1376 010e FFF7FEFF 		bl	chprintf
 1377 0112 88E7     		b	.L99
 1378              	.L95:
 1379              		.loc 8 182 0
 1380 0114 0AAB     		add	r3, sp, #40
 1381 0116 0093     		str	r3, [sp]
 1382 0118 059B     		ldr	r3, [sp, #20]
 1383 011a 069A     		ldr	r2, [sp, #24]
 1384 011c 0799     		ldr	r1, [sp, #28]
 1385 011e 2148     		ldr	r0, .L102+40
 1386 0120 FFF7FEFF 		bl	cmdexec
 1387 0124 0346     		mov	r3, r0
 1388 0126 002B     		cmp	r3, #0
 1389 0128 3FF47DAF 		beq	.L99
 1390              		.loc 8 182 0 is_stmt 0 discriminator 1
 1391 012c 089B     		ldr	r3, [sp, #32]
 1392 012e 002B     		cmp	r3, #0
 1393 0130 0BD0     		beq	.L98
 1394              		.loc 8 183 0 is_stmt 1
 1395 0132 0AAB     		add	r3, sp, #40
 1396 0134 0093     		str	r3, [sp]
 1397 0136 059B     		ldr	r3, [sp, #20]
ARM GAS  C:\Users\PCHAUT~1\AppData\Local\Temp\ccCXPUFB.s 			page 27


 1398 0138 069A     		ldr	r2, [sp, #24]
 1399 013a 0799     		ldr	r1, [sp, #28]
 1400 013c 0898     		ldr	r0, [sp, #32]
 1401 013e FFF7FEFF 		bl	cmdexec
 1402 0142 0346     		mov	r3, r0
 1403 0144 002B     		cmp	r3, #0
 1404 0146 3FF46EAF 		beq	.L99
 1405              	.L98:
 1406              		.loc 8 184 0
 1407 014a 069A     		ldr	r2, [sp, #24]
 1408 014c 1749     		ldr	r1, .L102+48
 1409 014e 0798     		ldr	r0, [sp, #28]
 1410 0150 FFF7FEFF 		bl	chprintf
 1411              		.loc 8 185 0
 1412 0154 1649     		ldr	r1, .L102+52
 1413 0156 0798     		ldr	r0, [sp, #28]
 1414 0158 FFF7FEFF 		bl	chprintf
 1415              	.L92:
 1416              		.loc 8 146 0
 1417 015c 63E7     		b	.L99
 1418              	.L101:
 1419              		.loc 8 169 0
 1420 015e 00BF     		nop
 1421              	.L87:
 1422              		.loc 8 189 0
 1423 0160 0020     		movs	r0, #0
 1424 0162 FFF7FEFF 		bl	shellExit
 1425              		.loc 8 190 0
 1426 0166 00BF     		nop
 1427 0168 044B     		ldr	r3, .L102
 1428 016a 1F9A     		ldr	r2, [sp, #124]
 1429 016c 1B68     		ldr	r3, [r3]
 1430 016e 9A42     		cmp	r2, r3
 1431 0170 01D0     		beq	.L100
 1432 0172 FFF7FEFF 		bl	__stack_chk_fail
 1433              	.L100:
 1434 0176 21B0     		add	sp, sp, #132
 1435              		.cfi_def_cfa_offset 4
 1436              		@ sp needed
 1437 0178 5DF804FB 		ldr	pc, [sp], #4
 1438              	.L103:
 1439              		.align	2
 1440              	.L102:
 1441 017c 00000000 		.word	__stack_chk_guard
 1442 0180 B8010000 		.word	.LC23
 1443 0184 C0010000 		.word	.LC24
 1444 0188 D8010000 		.word	.LC25
 1445 018c E0010000 		.word	.LC26
 1446 0190 EC010000 		.word	.LC27
 1447 0194 F0010000 		.word	.LC28
 1448 0198 08020000 		.word	.LC29
 1449 019c 10020000 		.word	.LC30
 1450 01a0 18020000 		.word	.LC31
 1451 01a4 00000000 		.word	local_commands
 1452 01a8 30020000 		.word	.LC32
 1453 01ac 34020000 		.word	.LC33
 1454 01b0 38020000 		.word	.LC34
ARM GAS  C:\Users\PCHAUT~1\AppData\Local\Temp\ccCXPUFB.s 			page 28


 1455              		.cfi_endproc
 1456              	.LFE263:
 1457              		.size	shell_thread, .-shell_thread
 1458              		.section	.text.shellInit,"ax",%progbits
 1459              		.align	1
 1460              		.p2align 4,,15
 1461              		.global	shellInit
 1462              		.syntax unified
 1463              		.thumb
 1464              		.thumb_func
 1465              		.fpu fpv4-sp-d16
 1466              		.type	shellInit, %function
 1467              	shellInit:
 1468              	.LFB264:
 1469              		.loc 8 197 0
 1470              		.cfi_startproc
 1471              		@ args = 0, pretend = 0, frame = 8
 1472              		@ frame_needed = 0, uses_anonymous_args = 0
 1473 0000 00B5     		push	{lr}
 1474              		.cfi_def_cfa_offset 4
 1475              		.cfi_offset 14, -4
 1476 0002 83B0     		sub	sp, sp, #12
 1477              		.cfi_def_cfa_offset 16
 1478              		.loc 8 197 0
 1479 0004 084B     		ldr	r3, .L106
 1480 0006 1B68     		ldr	r3, [r3]
 1481 0008 0193     		str	r3, [sp, #4]
 1482              		.loc 8 199 0
 1483 000a 0848     		ldr	r0, .L106+4
 1484 000c FFF7FEFF 		bl	chEvtObjectInit
 1485              		.loc 8 200 0
 1486 0010 00BF     		nop
 1487 0012 054B     		ldr	r3, .L106
 1488 0014 019A     		ldr	r2, [sp, #4]
 1489 0016 1B68     		ldr	r3, [r3]
 1490 0018 9A42     		cmp	r2, r3
 1491 001a 01D0     		beq	.L105
 1492 001c FFF7FEFF 		bl	__stack_chk_fail
 1493              	.L105:
 1494 0020 03B0     		add	sp, sp, #12
 1495              		.cfi_def_cfa_offset 4
 1496              		@ sp needed
 1497 0022 5DF804FB 		ldr	pc, [sp], #4
 1498              	.L107:
 1499 0026 00BF     		.align	2
 1500              	.L106:
 1501 0028 00000000 		.word	__stack_chk_guard
 1502 002c 00000000 		.word	shell_terminated
 1503              		.cfi_endproc
 1504              	.LFE264:
 1505              		.size	shellInit, .-shellInit
 1506              		.section	.text.shellExit,"ax",%progbits
 1507              		.align	1
 1508              		.p2align 4,,15
 1509              		.global	shellExit
 1510              		.syntax unified
 1511              		.thumb
ARM GAS  C:\Users\PCHAUT~1\AppData\Local\Temp\ccCXPUFB.s 			page 29


 1512              		.thumb_func
 1513              		.fpu fpv4-sp-d16
 1514              		.type	shellExit, %function
 1515              	shellExit:
 1516              	.LFB265:
 1517              		.loc 8 211 0
 1518              		.cfi_startproc
 1519              		@ args = 0, pretend = 0, frame = 16
 1520              		@ frame_needed = 0, uses_anonymous_args = 0
 1521 0000 00B5     		push	{lr}
 1522              		.cfi_def_cfa_offset 4
 1523              		.cfi_offset 14, -4
 1524 0002 85B0     		sub	sp, sp, #20
 1525              		.cfi_def_cfa_offset 24
 1526 0004 0190     		str	r0, [sp, #4]
 1527              		.loc 8 211 0
 1528 0006 0B4B     		ldr	r3, .L110
 1529 0008 1B68     		ldr	r3, [r3]
 1530 000a 0393     		str	r3, [sp, #12]
 1531              		.loc 8 215 0
 1532 000c FFF7FEFF 		bl	chSysLock
 1533              		.loc 8 216 0
 1534 0010 0948     		ldr	r0, .L110+4
 1535 0012 FFF7FEFF 		bl	chEvtBroadcastI
 1536              		.loc 8 217 0
 1537 0016 0198     		ldr	r0, [sp, #4]
 1538 0018 FFF7FEFF 		bl	chThdExitS
 1539              		.loc 8 218 0
 1540 001c 00BF     		nop
 1541 001e 054B     		ldr	r3, .L110
 1542 0020 039A     		ldr	r2, [sp, #12]
 1543 0022 1B68     		ldr	r3, [r3]
 1544 0024 9A42     		cmp	r2, r3
 1545 0026 01D0     		beq	.L109
 1546 0028 FFF7FEFF 		bl	__stack_chk_fail
 1547              	.L109:
 1548 002c 05B0     		add	sp, sp, #20
 1549              		.cfi_def_cfa_offset 4
 1550              		@ sp needed
 1551 002e 5DF804FB 		ldr	pc, [sp], #4
 1552              	.L111:
 1553 0032 00BF     		.align	2
 1554              	.L110:
 1555 0034 00000000 		.word	__stack_chk_guard
 1556 0038 00000000 		.word	shell_terminated
 1557              		.cfi_endproc
 1558              	.LFE265:
 1559              		.size	shellExit, .-shellExit
 1560              		.section	.text.shellCreate,"ax",%progbits
 1561              		.align	1
 1562              		.p2align 4,,15
 1563              		.global	shellCreate
 1564              		.syntax unified
 1565              		.thumb
 1566              		.thumb_func
 1567              		.fpu fpv4-sp-d16
 1568              		.type	shellCreate, %function
ARM GAS  C:\Users\PCHAUT~1\AppData\Local\Temp\ccCXPUFB.s 			page 30


 1569              	shellCreate:
 1570              	.LFB266:
 1571              		.loc 8 233 0
 1572              		.cfi_startproc
 1573              		@ args = 0, pretend = 0, frame = 24
 1574              		@ frame_needed = 0, uses_anonymous_args = 0
 1575 0000 00B5     		push	{lr}
 1576              		.cfi_def_cfa_offset 4
 1577              		.cfi_offset 14, -4
 1578 0002 89B0     		sub	sp, sp, #36
 1579              		.cfi_def_cfa_offset 40
 1580 0004 0590     		str	r0, [sp, #20]
 1581 0006 0491     		str	r1, [sp, #16]
 1582 0008 0392     		str	r2, [sp, #12]
 1583              		.loc 8 233 0
 1584 000a 0B4B     		ldr	r3, .L115
 1585 000c 1B68     		ldr	r3, [r3]
 1586 000e 0793     		str	r3, [sp, #28]
 1587              		.loc 8 235 0
 1588 0010 059B     		ldr	r3, [sp, #20]
 1589 0012 0093     		str	r3, [sp]
 1590 0014 094B     		ldr	r3, .L115+4
 1591 0016 039A     		ldr	r2, [sp, #12]
 1592 0018 0499     		ldr	r1, [sp, #16]
 1593 001a 0020     		movs	r0, #0
 1594 001c FFF7FEFF 		bl	chThdCreateFromHeap
 1595 0020 0346     		mov	r3, r0
 1596              		.loc 8 236 0
 1597 0022 1846     		mov	r0, r3
 1598 0024 044B     		ldr	r3, .L115
 1599 0026 079A     		ldr	r2, [sp, #28]
 1600 0028 1B68     		ldr	r3, [r3]
 1601 002a 9A42     		cmp	r2, r3
 1602 002c 01D0     		beq	.L114
 1603 002e FFF7FEFF 		bl	__stack_chk_fail
 1604              	.L114:
 1605 0032 09B0     		add	sp, sp, #36
 1606              		.cfi_def_cfa_offset 4
 1607              		@ sp needed
 1608 0034 5DF804FB 		ldr	pc, [sp], #4
 1609              	.L116:
 1610              		.align	2
 1611              	.L115:
 1612 0038 00000000 		.word	__stack_chk_guard
 1613 003c 00000000 		.word	shell_thread
 1614              		.cfi_endproc
 1615              	.LFE266:
 1616              		.size	shellCreate, .-shellCreate
 1617              		.section	.text.shellCreateStatic,"ax",%progbits
 1618              		.align	1
 1619              		.p2align 4,,15
 1620              		.global	shellCreateStatic
 1621              		.syntax unified
 1622              		.thumb
 1623              		.thumb_func
 1624              		.fpu fpv4-sp-d16
 1625              		.type	shellCreateStatic, %function
ARM GAS  C:\Users\PCHAUT~1\AppData\Local\Temp\ccCXPUFB.s 			page 31


 1626              	shellCreateStatic:
 1627              	.LFB267:
 1628              		.loc 8 251 0
 1629              		.cfi_startproc
 1630              		@ args = 0, pretend = 0, frame = 24
 1631              		@ frame_needed = 0, uses_anonymous_args = 0
 1632 0000 00B5     		push	{lr}
 1633              		.cfi_def_cfa_offset 4
 1634              		.cfi_offset 14, -4
 1635 0002 89B0     		sub	sp, sp, #36
 1636              		.cfi_def_cfa_offset 40
 1637 0004 0590     		str	r0, [sp, #20]
 1638 0006 0491     		str	r1, [sp, #16]
 1639 0008 0392     		str	r2, [sp, #12]
 1640 000a 0293     		str	r3, [sp, #8]
 1641              		.loc 8 251 0
 1642 000c 0B4B     		ldr	r3, .L120
 1643 000e 1B68     		ldr	r3, [r3]
 1644 0010 0793     		str	r3, [sp, #28]
 1645              		.loc 8 253 0
 1646 0012 059B     		ldr	r3, [sp, #20]
 1647 0014 0093     		str	r3, [sp]
 1648 0016 0A4B     		ldr	r3, .L120+4
 1649 0018 029A     		ldr	r2, [sp, #8]
 1650 001a 0399     		ldr	r1, [sp, #12]
 1651 001c 0498     		ldr	r0, [sp, #16]
 1652 001e FFF7FEFF 		bl	chThdCreateStatic
 1653 0022 0346     		mov	r3, r0
 1654              		.loc 8 254 0
 1655 0024 1846     		mov	r0, r3
 1656 0026 054B     		ldr	r3, .L120
 1657 0028 079A     		ldr	r2, [sp, #28]
 1658 002a 1B68     		ldr	r3, [r3]
 1659 002c 9A42     		cmp	r2, r3
 1660 002e 01D0     		beq	.L119
 1661 0030 FFF7FEFF 		bl	__stack_chk_fail
 1662              	.L119:
 1663 0034 09B0     		add	sp, sp, #36
 1664              		.cfi_def_cfa_offset 4
 1665              		@ sp needed
 1666 0036 5DF804FB 		ldr	pc, [sp], #4
 1667              	.L121:
 1668 003a 00BF     		.align	2
 1669              	.L120:
 1670 003c 00000000 		.word	__stack_chk_guard
 1671 0040 00000000 		.word	shell_thread
 1672              		.cfi_endproc
 1673              	.LFE267:
 1674              		.size	shellCreateStatic, .-shellCreateStatic
 1675              		.section	.rodata
 1676 023d 000000   		.align	2
 1677              	.LC35:
 1678 0240 5E4400   		.ascii	"^D\000"
 1679              		.section	.text.shellGetLine,"ax",%progbits
 1680              		.align	1
 1681              		.p2align 4,,15
 1682              		.global	shellGetLine
ARM GAS  C:\Users\PCHAUT~1\AppData\Local\Temp\ccCXPUFB.s 			page 32


 1683              		.syntax unified
 1684              		.thumb
 1685              		.thumb_func
 1686              		.fpu fpv4-sp-d16
 1687              		.type	shellGetLine, %function
 1688              	shellGetLine:
 1689              	.LFB268:
 1690              		.loc 8 268 0
 1691              		.cfi_startproc
 1692              		@ args = 0, pretend = 0, frame = 32
 1693              		@ frame_needed = 0, uses_anonymous_args = 0
 1694 0000 00B5     		push	{lr}
 1695              		.cfi_def_cfa_offset 4
 1696              		.cfi_offset 14, -4
 1697 0002 89B0     		sub	sp, sp, #36
 1698              		.cfi_def_cfa_offset 40
 1699 0004 0390     		str	r0, [sp, #12]
 1700 0006 0291     		str	r1, [sp, #8]
 1701 0008 0192     		str	r2, [sp, #4]
 1702              		.loc 8 268 0
 1703 000a 3C4B     		ldr	r3, .L139
 1704 000c 1B68     		ldr	r3, [r3]
 1705 000e 0793     		str	r3, [sp, #28]
 1706              		.loc 8 269 0
 1707 0010 029B     		ldr	r3, [sp, #8]
 1708 0012 0693     		str	r3, [sp, #24]
 1709              	.L135:
 1710              	.LBB10:
 1711              		.loc 8 274 0
 1712 0014 039B     		ldr	r3, [sp, #12]
 1713 0016 1B68     		ldr	r3, [r3]
 1714 0018 5B68     		ldr	r3, [r3, #4]
 1715 001a 0DF11701 		add	r1, sp, #23
 1716 001e 0122     		movs	r2, #1
 1717 0020 0398     		ldr	r0, [sp, #12]
 1718 0022 9847     		blx	r3
 1719              	.LVL1:
 1720 0024 0346     		mov	r3, r0
 1721 0026 002B     		cmp	r3, #0
 1722 0028 01D1     		bne	.L123
 1723              		.loc 8 275 0
 1724 002a 0123     		movs	r3, #1
 1725 002c 5AE0     		b	.L134
 1726              	.L123:
 1727              		.loc 8 276 0
 1728 002e 9DF81730 		ldrb	r3, [sp, #23]	@ zero_extendqisi2
 1729 0032 042B     		cmp	r3, #4
 1730 0034 05D1     		bne	.L125
 1731              		.loc 8 277 0
 1732 0036 3249     		ldr	r1, .L139+4
 1733 0038 0398     		ldr	r0, [sp, #12]
 1734 003a FFF7FEFF 		bl	chprintf
 1735              		.loc 8 278 0
 1736 003e 0123     		movs	r3, #1
 1737 0040 50E0     		b	.L134
 1738              	.L125:
 1739              		.loc 8 280 0
ARM GAS  C:\Users\PCHAUT~1\AppData\Local\Temp\ccCXPUFB.s 			page 33


 1740 0042 9DF81730 		ldrb	r3, [sp, #23]	@ zero_extendqisi2
 1741 0046 082B     		cmp	r3, #8
 1742 0048 03D0     		beq	.L126
 1743              		.loc 8 280 0 is_stmt 0 discriminator 1
 1744 004a 9DF81730 		ldrb	r3, [sp, #23]	@ zero_extendqisi2
 1745 004e 7F2B     		cmp	r3, #127
 1746 0050 1DD1     		bne	.L127
 1747              	.L126:
 1748              		.loc 8 281 0 is_stmt 1
 1749 0052 069A     		ldr	r2, [sp, #24]
 1750 0054 029B     		ldr	r3, [sp, #8]
 1751 0056 9A42     		cmp	r2, r3
 1752 0058 40D0     		beq	.L137
 1753              		.loc 8 282 0
 1754 005a 039B     		ldr	r3, [sp, #12]
 1755 005c 1B68     		ldr	r3, [r3]
 1756 005e 9B68     		ldr	r3, [r3, #8]
 1757 0060 9DF81720 		ldrb	r2, [sp, #23]	@ zero_extendqisi2
 1758 0064 1146     		mov	r1, r2
 1759 0066 0398     		ldr	r0, [sp, #12]
 1760 0068 9847     		blx	r3
 1761              	.LVL2:
 1762              		.loc 8 283 0
 1763 006a 039B     		ldr	r3, [sp, #12]
 1764 006c 1B68     		ldr	r3, [r3]
 1765 006e 9B68     		ldr	r3, [r3, #8]
 1766 0070 2021     		movs	r1, #32
 1767 0072 0398     		ldr	r0, [sp, #12]
 1768 0074 9847     		blx	r3
 1769              	.LVL3:
 1770              		.loc 8 284 0
 1771 0076 039B     		ldr	r3, [sp, #12]
 1772 0078 1B68     		ldr	r3, [r3]
 1773 007a 9B68     		ldr	r3, [r3, #8]
 1774 007c 9DF81720 		ldrb	r2, [sp, #23]	@ zero_extendqisi2
 1775 0080 1146     		mov	r1, r2
 1776 0082 0398     		ldr	r0, [sp, #12]
 1777 0084 9847     		blx	r3
 1778              	.LVL4:
 1779              		.loc 8 285 0
 1780 0086 069B     		ldr	r3, [sp, #24]
 1781 0088 013B     		subs	r3, r3, #1
 1782 008a 0693     		str	r3, [sp, #24]
 1783              		.loc 8 287 0
 1784 008c 26E0     		b	.L137
 1785              	.L127:
 1786              		.loc 8 289 0
 1787 008e 9DF81730 		ldrb	r3, [sp, #23]	@ zero_extendqisi2
 1788 0092 0D2B     		cmp	r3, #13
 1789 0094 08D1     		bne	.L130
 1790              		.loc 8 290 0
 1791 0096 1B49     		ldr	r1, .L139+8
 1792 0098 0398     		ldr	r0, [sp, #12]
 1793 009a FFF7FEFF 		bl	chprintf
 1794              		.loc 8 291 0
 1795 009e 069B     		ldr	r3, [sp, #24]
 1796 00a0 0022     		movs	r2, #0
ARM GAS  C:\Users\PCHAUT~1\AppData\Local\Temp\ccCXPUFB.s 			page 34


 1797 00a2 1A70     		strb	r2, [r3]
 1798              		.loc 8 292 0
 1799 00a4 0023     		movs	r3, #0
 1800 00a6 1DE0     		b	.L134
 1801              	.L130:
 1802              		.loc 8 294 0
 1803 00a8 9DF81730 		ldrb	r3, [sp, #23]	@ zero_extendqisi2
 1804 00ac 1F2B     		cmp	r3, #31
 1805 00ae 17D9     		bls	.L138
 1806              		.loc 8 296 0
 1807 00b0 019B     		ldr	r3, [sp, #4]
 1808 00b2 013B     		subs	r3, r3, #1
 1809 00b4 029A     		ldr	r2, [sp, #8]
 1810 00b6 1344     		add	r3, r3, r2
 1811 00b8 069A     		ldr	r2, [sp, #24]
 1812 00ba 9A42     		cmp	r2, r3
 1813 00bc AAD2     		bcs	.L135
 1814              		.loc 8 297 0
 1815 00be 039B     		ldr	r3, [sp, #12]
 1816 00c0 1B68     		ldr	r3, [r3]
 1817 00c2 9B68     		ldr	r3, [r3, #8]
 1818 00c4 9DF81720 		ldrb	r2, [sp, #23]	@ zero_extendqisi2
 1819 00c8 1146     		mov	r1, r2
 1820 00ca 0398     		ldr	r0, [sp, #12]
 1821 00cc 9847     		blx	r3
 1822              	.LVL5:
 1823              		.loc 8 298 0
 1824 00ce 069B     		ldr	r3, [sp, #24]
 1825 00d0 5A1C     		adds	r2, r3, #1
 1826 00d2 0692     		str	r2, [sp, #24]
 1827 00d4 9DF81720 		ldrb	r2, [sp, #23]	@ zero_extendqisi2
 1828 00d8 1A70     		strb	r2, [r3]
 1829 00da 9BE7     		b	.L135
 1830              	.L137:
 1831              		.loc 8 287 0
 1832 00dc 00BF     		nop
 1833 00de 99E7     		b	.L135
 1834              	.L138:
 1835              		.loc 8 295 0
 1836 00e0 00BF     		nop
 1837              	.LBE10:
 1838              		.loc 8 271 0
 1839 00e2 97E7     		b	.L135
 1840              	.L134:
 1841              		.loc 8 301 0
 1842 00e4 1846     		mov	r0, r3
 1843 00e6 054B     		ldr	r3, .L139
 1844 00e8 079A     		ldr	r2, [sp, #28]
 1845 00ea 1B68     		ldr	r3, [r3]
 1846 00ec 9A42     		cmp	r2, r3
 1847 00ee 01D0     		beq	.L136
 1848 00f0 FFF7FEFF 		bl	__stack_chk_fail
 1849              	.L136:
 1850 00f4 09B0     		add	sp, sp, #36
 1851              		.cfi_def_cfa_offset 4
 1852              		@ sp needed
 1853 00f6 5DF804FB 		ldr	pc, [sp], #4
ARM GAS  C:\Users\PCHAUT~1\AppData\Local\Temp\ccCXPUFB.s 			page 35


 1854              	.L140:
 1855 00fa 00BF     		.align	2
 1856              	.L139:
 1857 00fc 00000000 		.word	__stack_chk_guard
 1858 0100 40020000 		.word	.LC35
 1859 0104 30020000 		.word	.LC32
 1860              		.cfi_endproc
 1861              	.LFE268:
 1862              		.size	shellGetLine, .-shellGetLine
 1863              		.section	.rodata.__func__.7554,"a",%progbits
 1864              		.align	2
 1865              		.type	__func__.7554, %object
 1866              		.size	__func__.7554, 12
 1867              	__func__.7554:
 1868 0000 63685379 		.ascii	"chSysUnlock\000"
 1868      73556E6C 
 1868      6F636B00 
 1869              		.text
 1870              	.Letext0:
 1871              		.file 9 "c:\\users\\pchautems\\documents\\robotiquetp\\eclipse_e-puck2\\tools\\gcc-arm-none-eabi-7
 1872              		.file 10 "c:\\users\\pchautems\\documents\\robotiquetp\\eclipse_e-puck2\\tools\\gcc-arm-none-eabi-
 1873              		.file 11 "c:\\users\\pchautems\\documents\\robotiquetp\\eclipse_e-puck2\\tools\\gcc-arm-none-eabi-
 1874              		.file 12 "c:\\users\\pchautems\\documents\\robotiquetp\\eclipse_e-puck2\\tools\\gcc-arm-none-eabi-
 1875              		.file 13 "c:\\users\\pchautems\\documents\\robotiquetp\\eclipse_e-puck2\\tools\\gcc-arm-none-eabi-
 1876              		.file 14 "c:\\users\\pchautems\\documents\\robotiquetp\\eclipse_e-puck2\\tools\\gcc-arm-none-eabi-
 1877              		.file 15 "../lib/e-puck2_main-processor/ChibiOS//os/rt/ports/ARMCMx/compilers/GCC/chtypes.h"
 1878              		.file 16 "../lib/e-puck2_main-processor/ChibiOS//os/rt/include/chsystypes.h"
 1879              		.file 17 "../lib/e-puck2_main-processor/ChibiOS//os/rt/include/chschd.h"
 1880              		.file 18 "../lib/e-puck2_main-processor/ChibiOS//os/ext/CMSIS/include/core_cm4.h"
 1881              		.file 19 "../lib/e-puck2_main-processor/ChibiOS//os/ext/CMSIS/ST/system_stm32f4xx.h"
 1882              		.file 20 "../lib/e-puck2_main-processor/ChibiOS//os/ext/CMSIS/ST/stm32f407xx.h"
 1883              		.file 21 "../lib/e-puck2_main-processor/ChibiOS//os/rt/ports/ARMCMx/chcore.h"
 1884              		.file 22 "../lib/e-puck2_main-processor/ChibiOS//os/rt/include/chdebug.h"
 1885              		.file 23 "../lib/e-puck2_main-processor/ChibiOS//os/rt/include/chtm.h"
 1886              		.file 24 "../lib/e-puck2_main-processor/ChibiOS//os/rt/include/chstats.h"
 1887              		.file 25 "../lib/e-puck2_main-processor/ChibiOS//os/rt/include/chsem.h"
 1888              		.file 26 "../lib/e-puck2_main-processor/ChibiOS//os/rt/include/chmtx.h"
 1889              		.file 27 "../lib/e-puck2_main-processor/ChibiOS//os/rt/include/chqueues.h"
 1890              		.file 28 "../lib/e-puck2_main-processor/ChibiOS//os/rt/include/chstreams.h"
 1891              		.file 29 "../lib/e-puck2_main-processor/ChibiOS//os/hal/ports/STM32/STM32F4xx/stm32_dma.h"
 1892              		.file 30 "../lib/e-puck2_main-processor/ChibiOS//os/hal/include/hal_ioblock.h"
 1893              		.file 31 "../lib/e-puck2_main-processor/ChibiOS//os/hal/ports/STM32/LLD/GPIOv2/pal_lld.h"
 1894              		.file 32 "../lib/e-puck2_main-processor/ChibiOS//os/hal/include/adc.h"
 1895              		.file 33 "../lib/e-puck2_main-processor/ChibiOS//os/hal/ports/STM32/STM32F4xx/adc_lld.h"
 1896              		.file 34 "../lib/e-puck2_main-processor/ChibiOS//os/hal/include/can.h"
 1897              		.file 35 "../lib/e-puck2_main-processor/ChibiOS//os/hal/ports/STM32/LLD/can_lld.h"
 1898              		.file 36 "../lib/e-puck2_main-processor/ChibiOS//os/hal/include/dac.h"
 1899              		.file 37 "../lib/e-puck2_main-processor/ChibiOS//os/hal/ports/STM32/LLD/DACv1/dac_lld.h"
 1900              		.file 38 "../lib/e-puck2_main-processor/ChibiOS//os/hal/include/ext.h"
 1901              		.file 39 "../lib/e-puck2_main-processor/ChibiOS//os/hal/ports/STM32/LLD/ext_lld.h"
 1902              		.file 40 "../lib/e-puck2_main-processor/ChibiOS//os/hal/include/gpt.h"
 1903              		.file 41 "../lib/e-puck2_main-processor/ChibiOS//os/hal/ports/STM32/LLD/TIMv1/gpt_lld.h"
 1904              		.file 42 "../lib/e-puck2_main-processor/ChibiOS//os/hal/ports/STM32/LLD/TIMv1/stm32_tim.h"
 1905              		.file 43 "../lib/e-puck2_main-processor/ChibiOS//os/hal/include/i2c.h"
 1906              		.file 44 "../lib/e-puck2_main-processor/ChibiOS//os/hal/ports/STM32/LLD/I2Cv1/i2c_lld.h"
 1907              		.file 45 "../lib/e-puck2_main-processor/ChibiOS//os/hal/include/i2s.h"
 1908              		.file 46 "../lib/e-puck2_main-processor/ChibiOS//os/hal/ports/STM32/LLD/SPIv1/i2s_lld.h"
ARM GAS  C:\Users\PCHAUT~1\AppData\Local\Temp\ccCXPUFB.s 			page 36


 1909              		.file 47 "../lib/e-puck2_main-processor/ChibiOS//os/hal/include/pwm.h"
 1910              		.file 48 "../lib/e-puck2_main-processor/ChibiOS//os/hal/ports/STM32/LLD/TIMv1/pwm_lld.h"
 1911              		.file 49 "../lib/e-puck2_main-processor/ChibiOS//os/hal/include/serial.h"
 1912              		.file 50 "../lib/e-puck2_main-processor/ChibiOS//os/hal/ports/STM32/LLD/USARTv1/serial_lld.h"
 1913              		.file 51 "../lib/e-puck2_main-processor/ChibiOS//os/hal/include/sdc.h"
 1914              		.file 52 "../lib/e-puck2_main-processor/ChibiOS//os/hal/ports/STM32/LLD/sdc_lld.h"
 1915              		.file 53 "../lib/e-puck2_main-processor/ChibiOS//os/hal/include/spi.h"
 1916              		.file 54 "../lib/e-puck2_main-processor/ChibiOS//os/hal/ports/STM32/LLD/SPIv1/spi_lld.h"
 1917              		.file 55 "../lib/e-puck2_main-processor/ChibiOS//os/hal/include/usb.h"
 1918              		.file 56 "../lib/e-puck2_main-processor/ChibiOS//os/hal/ports/STM32/LLD/OTGv1/usb_lld.h"
 1919              		.file 57 "../lib/e-puck2_main-processor/ChibiOS//os/hal/ports/STM32/LLD/OTGv1/stm32_otg.h"
 1920              		.file 58 "../lib/e-puck2_main-processor/ChibiOS//os/various/shell.h"
 1921              		.file 59 "c:\\users\\pchautems\\documents\\robotiquetp\\eclipse_e-puck2\\tools\\gcc-arm-none-eabi-
 1922              		.file 60 "<built-in>"