ARM GAS  C:\Users\PCHAUT~1\AppData\Local\Temp\cci3bHWK.s 			page 1


   1              		.cpu cortex-m4
   2              		.eabi_attribute 27, 1
   3              		.eabi_attribute 28, 1
   4              		.eabi_attribute 20, 1
   5              		.eabi_attribute 21, 1
   6              		.eabi_attribute 23, 3
   7              		.eabi_attribute 24, 1
   8              		.eabi_attribute 25, 1
   9              		.eabi_attribute 26, 1
  10              		.eabi_attribute 30, 6
  11              		.eabi_attribute 34, 1
  12              		.eabi_attribute 18, 4
  13              		.file	"skel_user.c"
  14              		.text
  15              	.Ltext0:
  16              		.cfi_sections	.debug_frame
  17              		.section	.text.NVIC_SystemReset,"ax",%progbits
  18              		.align	1
  19              		.p2align 4,,15
  20              		.syntax unified
  21              		.thumb
  22              		.thumb_func
  23              		.fpu fpv4-sp-d16
  24              		.type	NVIC_SystemReset, %function
  25              	NVIC_SystemReset:
  26              	.LFB110:
  27              		.file 1 "../lib/e-puck2_main-processor/ChibiOS//os/ext/CMSIS/include/core_cm4.h"
  28              		.loc 1 1639 0
  29              		.cfi_startproc
  30              		@ args = 0, pretend = 0, frame = 8
  31              		@ frame_needed = 0, uses_anonymous_args = 0
  32              		@ link register save eliminated.
  33 0000 82B0     		sub	sp, sp, #8
  34              		.cfi_def_cfa_offset 8
  35              		.loc 1 1639 0
  36 0002 084B     		ldr	r3, .L4
  37 0004 1B68     		ldr	r3, [r3]
  38 0006 0193     		str	r3, [sp, #4]
  39              	.LBB6:
  40              	.LBB7:
  41              		.file 2 "../lib/e-puck2_main-processor/ChibiOS//os/ext/CMSIS/include/core_cmInstr.h"
  42              		.loc 2 382 0
  43              		.syntax unified
  44              	@ 382 "../lib/e-puck2_main-processor/ChibiOS//os/ext/CMSIS/include/core_cmInstr.h" 1
  45 0008 BFF34F8F 		dsb
  46              	@ 0 "" 2
  47              		.thumb
  48              		.syntax unified
  49              	.LBE7:
  50              	.LBE6:
  51              		.loc 1 1643 0
  52 000c 064B     		ldr	r3, .L4+4
  53 000e DB68     		ldr	r3, [r3, #12]
  54 0010 03F4E062 		and	r2, r3, #1792
  55              		.loc 1 1642 0
  56 0014 0449     		ldr	r1, .L4+4
  57              		.loc 1 1643 0
ARM GAS  C:\Users\PCHAUT~1\AppData\Local\Temp\cci3bHWK.s 			page 2


  58 0016 054B     		ldr	r3, .L4+8
  59 0018 1343     		orrs	r3, r3, r2
  60              		.loc 1 1642 0
  61 001a CB60     		str	r3, [r1, #12]
  62              	.LBB8:
  63              	.LBB9:
  64              		.loc 2 382 0
  65              		.syntax unified
  66              	@ 382 "../lib/e-puck2_main-processor/ChibiOS//os/ext/CMSIS/include/core_cmInstr.h" 1
  67 001c BFF34F8F 		dsb
  68              	@ 0 "" 2
  69              		.thumb
  70              		.syntax unified
  71              	.L2:
  72              	.LBE9:
  73              	.LBE8:
  74              		.loc 1 1646 0 discriminator 1
  75 0020 FEE7     		b	.L2
  76              	.L5:
  77 0022 00BF     		.align	2
  78              	.L4:
  79 0024 00000000 		.word	__stack_chk_guard
  80 0028 00ED00E0 		.word	-536810240
  81 002c 0400FA05 		.word	100270084
  82              		.cfi_endproc
  83              	.LFE110:
  84              		.size	NVIC_SystemReset, .-NVIC_SystemReset
  85              		.section	.text.AsebaNativePopArg,"ax",%progbits
  86              		.align	1
  87              		.p2align 4,,15
  88              		.syntax unified
  89              		.thumb
  90              		.thumb_func
  91              		.fpu fpv4-sp-d16
  92              		.type	AsebaNativePopArg, %function
  93              	AsebaNativePopArg:
  94              	.LFB259:
  95              		.file 3 "../lib/e-puck2_main-processor/aseba/vm/natives.h"
  96              		.loc 3 89 0
  97              		.cfi_startproc
  98              		@ args = 0, pretend = 0, frame = 16
  99              		@ frame_needed = 0, uses_anonymous_args = 0
 100 0000 00B5     		push	{lr}
 101              		.cfi_def_cfa_offset 4
 102              		.cfi_offset 14, -4
 103 0002 85B0     		sub	sp, sp, #20
 104              		.cfi_def_cfa_offset 24
 105 0004 0190     		str	r0, [sp, #4]
 106              		.loc 3 89 0
 107 0006 0F4B     		ldr	r3, .L9
 108 0008 1B68     		ldr	r3, [r3]
 109 000a 0393     		str	r3, [sp, #12]
 110              		.loc 3 90 0
 111 000c 019B     		ldr	r3, [sp, #4]
 112 000e 5A69     		ldr	r2, [r3, #20]
 113 0010 019B     		ldr	r3, [sp, #4]
 114 0012 B3F91C10 		ldrsh	r1, [r3, #28]
ARM GAS  C:\Users\PCHAUT~1\AppData\Local\Temp\cci3bHWK.s 			page 3


 115 0016 8BB2     		uxth	r3, r1
 116 0018 013B     		subs	r3, r3, #1
 117 001a 9BB2     		uxth	r3, r3
 118 001c 18B2     		sxth	r0, r3
 119 001e 019B     		ldr	r3, [sp, #4]
 120 0020 9883     		strh	r0, [r3, #28]	@ movhi
 121 0022 0B46     		mov	r3, r1
 122 0024 5B00     		lsls	r3, r3, #1
 123 0026 1344     		add	r3, r3, r2
 124 0028 B3F90030 		ldrsh	r3, [r3]
 125              		.loc 3 91 0
 126 002c 1846     		mov	r0, r3
 127 002e 054B     		ldr	r3, .L9
 128 0030 039A     		ldr	r2, [sp, #12]
 129 0032 1B68     		ldr	r3, [r3]
 130 0034 9A42     		cmp	r2, r3
 131 0036 01D0     		beq	.L8
 132 0038 FFF7FEFF 		bl	__stack_chk_fail
 133              	.L8:
 134 003c 05B0     		add	sp, sp, #20
 135              		.cfi_def_cfa_offset 4
 136              		@ sp needed
 137 003e 5DF804FB 		ldr	pc, [sp], #4
 138              	.L10:
 139 0042 00BF     		.align	2
 140              	.L9:
 141 0044 00000000 		.word	__stack_chk_guard
 142              		.cfi_endproc
 143              	.LFE259:
 144              		.size	AsebaNativePopArg, .-AsebaNativePopArg
 145              		.section	.bss.aseba_settings,"aw",%nobits
 146              		.align	2
 147              		.type	aseba_settings, %object
 148              		.size	aseba_settings, 768
 149              	aseba_settings:
 150 0000 00000000 		.space	768
 150      00000000 
 150      00000000 
 150      00000000 
 150      00000000 
 151              		.section	.bss.aseba_settings_name,"aw",%nobits
 152              		.align	2
 153              		.type	aseba_settings_name, %object
 154              		.size	aseba_settings_name, 320
 155              	aseba_settings_name:
 156 0000 00000000 		.space	320
 156      00000000 
 156      00000000 
 156      00000000 
 156      00000000 
 157              		.global	vmVariables
 158              		.section	.bss.vmVariables,"aw",%nobits
 159              		.align	2
 160              		.type	vmVariables, %object
 161              		.size	vmVariables, 630
 162              	vmVariables:
 163 0000 00000000 		.space	630
ARM GAS  C:\Users\PCHAUT~1\AppData\Local\Temp\cci3bHWK.s 			page 4


 163      00000000 
 163      00000000 
 163      00000000 
 163      00000000 
 164              		.global	vmDescription
 165              		.section	.rodata
 166              		.align	2
 167              	.LC0:
 168 0000 47435472 		.ascii	"GCTronic-MobotsEPFL e-puck V2.0_F\000"
 168      6F6E6963 
 168      2D4D6F62 
 168      6F747345 
 168      50464C20 
 169 0022 0000     		.align	2
 170              	.LC1:
 171 0024 5F696400 		.ascii	"_id\000"
 172              		.align	2
 173              	.LC2:
 174 0028 6576656E 		.ascii	"event.source\000"
 174      742E736F 
 174      75726365 
 174      00
 175 0035 000000   		.align	2
 176              	.LC3:
 177 0038 6576656E 		.ascii	"event.args\000"
 177      742E6172 
 177      677300
 178 0043 00       		.align	2
 179              	.LC4:
 180 0044 5F667776 		.ascii	"_fwversion\000"
 180      65727369 
 180      6F6E00
 181 004f 00       		.align	2
 182              	.LC5:
 183 0050 5F70726F 		.ascii	"_productId\000"
 183      64756374 
 183      496400
 184 005b 00       		.align	2
 185              	.LC6:
 186 005c 6C656431 		.ascii	"led1\000"
 186      00
 187 0061 000000   		.align	2
 188              	.LC7:
 189 0064 6C656432 		.ascii	"led2\000"
 189      00
 190 0069 000000   		.align	2
 191              	.LC8:
 192 006c 6C656433 		.ascii	"led3\000"
 192      00
 193 0071 000000   		.align	2
 194              	.LC9:
 195 0074 6C656434 		.ascii	"led4\000"
 195      00
 196 0079 000000   		.align	2
 197              	.LC10:
 198 007c 6C656435 		.ascii	"led5\000"
 198      00
ARM GAS  C:\Users\PCHAUT~1\AppData\Local\Temp\cci3bHWK.s 			page 5


 199 0081 000000   		.align	2
 200              	.LC11:
 201 0084 6C656436 		.ascii	"led6\000"
 201      00
 202 0089 000000   		.align	2
 203              	.LC12:
 204 008c 6C656437 		.ascii	"led7\000"
 204      00
 205 0091 000000   		.align	2
 206              	.LC13:
 207 0094 6C656438 		.ascii	"led8\000"
 207      00
 208 0099 000000   		.align	2
 209              	.LC14:
 210 009c 61636300 		.ascii	"acc\000"
 211              		.align	2
 212              	.LC15:
 213 00a0 6779726F 		.ascii	"gyro\000"
 213      00
 214              		.section	.rodata.vmDescription,"a",%progbits
 215              		.align	2
 216              		.type	vmDescription, %object
 217              		.size	vmDescription, 132
 218              	vmDescription:
 219 0000 00000000 		.word	.LC0
 220 0004 0100     		.short	1
 221 0006 0000     		.space	2
 222 0008 24000000 		.word	.LC1
 223 000c 0100     		.short	1
 224 000e 0000     		.space	2
 225 0010 28000000 		.word	.LC2
 226 0014 2000     		.short	32
 227 0016 0000     		.space	2
 228 0018 38000000 		.word	.LC3
 229 001c 0200     		.short	2
 230 001e 0000     		.space	2
 231 0020 44000000 		.word	.LC4
 232 0024 0100     		.short	1
 233 0026 0000     		.space	2
 234 0028 50000000 		.word	.LC5
 235 002c 0100     		.short	1
 236 002e 0000     		.space	2
 237 0030 5C000000 		.word	.LC6
 238 0034 0300     		.short	3
 239 0036 0000     		.space	2
 240 0038 64000000 		.word	.LC7
 241 003c 0100     		.short	1
 242 003e 0000     		.space	2
 243 0040 6C000000 		.word	.LC8
 244 0044 0300     		.short	3
 245 0046 0000     		.space	2
 246 0048 74000000 		.word	.LC9
 247 004c 0100     		.short	1
 248 004e 0000     		.space	2
 249 0050 7C000000 		.word	.LC10
 250 0054 0300     		.short	3
 251 0056 0000     		.space	2
ARM GAS  C:\Users\PCHAUT~1\AppData\Local\Temp\cci3bHWK.s 			page 6


 252 0058 84000000 		.word	.LC11
 253 005c 0100     		.short	1
 254 005e 0000     		.space	2
 255 0060 8C000000 		.word	.LC12
 256 0064 0300     		.short	3
 257 0066 0000     		.space	2
 258 0068 94000000 		.word	.LC13
 259 006c 0300     		.short	3
 260 006e 0000     		.space	2
 261 0070 9C000000 		.word	.LC14
 262 0074 0300     		.short	3
 263 0076 0000     		.space	2
 264 0078 A0000000 		.word	.LC15
 265 007c 0000     		.short	0
 266 007e 0000     		.space	2
 267 0080 00000000 		.word	0
 268              		.global	localEvents
 269              		.section	.rodata
 270 00a5 000000   		.align	2
 271              	.LC16:
 272 00a8 6E65775F 		.ascii	"new_imu\000"
 272      696D7500 
 273              		.align	2
 274              	.LC17:
 275 00b0 4E657720 		.ascii	"New imu measurement\000"
 275      696D7520 
 275      6D656173 
 275      7572656D 
 275      656E7400 
 276              		.align	2
 277              	.LC18:
 278 00c4 62757474 		.ascii	"button\000"
 278      6F6E00
 279 00cb 00       		.align	2
 280              	.LC19:
 281 00cc 55736572 		.ascii	"User button clicked\000"
 281      20627574 
 281      746F6E20 
 281      636C6963 
 281      6B656400 
 282              		.section	.rodata.localEvents,"a",%progbits
 283              		.align	2
 284              		.type	localEvents, %object
 285              		.size	localEvents, 24
 286              	localEvents:
 287 0000 A8000000 		.word	.LC16
 288 0004 B0000000 		.word	.LC17
 289 0008 C4000000 		.word	.LC18
 290 000c CC000000 		.word	.LC19
 291 0010 00000000 		.word	0
 292 0014 00000000 		.word	0
 293              		.section	.rodata
 294              		.align	2
 295              	.LC20:
 296 00e0 256400   		.ascii	"%d\000"
 297              		.section	.text.aseba_variables_init,"ax",%progbits
 298              		.align	1
ARM GAS  C:\Users\PCHAUT~1\AppData\Local\Temp\cci3bHWK.s 			page 7


 299              		.p2align 4,,15
 300              		.global	aseba_variables_init
 301              		.syntax unified
 302              		.thumb
 303              		.thumb_func
 304              		.fpu fpv4-sp-d16
 305              		.type	aseba_variables_init, %function
 306              	aseba_variables_init:
 307              	.LFB260:
 308              		.file 4 "../lib/e-puck2_main-processor/src/aseba_vm/skel_user.c"
 309              		.loc 4 57 0
 310              		.cfi_startproc
 311              		@ args = 0, pretend = 0, frame = 16
 312              		@ frame_needed = 0, uses_anonymous_args = 0
 313 0000 00B5     		push	{lr}
 314              		.cfi_def_cfa_offset 4
 315              		.cfi_offset 14, -4
 316 0002 85B0     		sub	sp, sp, #20
 317              		.cfi_def_cfa_offset 24
 318 0004 0190     		str	r0, [sp, #4]
 319              		.loc 4 57 0
 320 0006 234B     		ldr	r3, .L15
 321 0008 1B68     		ldr	r3, [r3]
 322 000a 0393     		str	r3, [sp, #12]
 323              		.loc 4 59 0
 324 000c 40F27622 		movw	r2, #630
 325 0010 0021     		movs	r1, #0
 326 0012 2148     		ldr	r0, .L15+4
 327 0014 FFF7FEFF 		bl	memset
 328              		.loc 4 61 0
 329 0018 1F4B     		ldr	r3, .L15+4
 330 001a 0022     		movs	r2, #0
 331 001c A3F84820 		strh	r2, [r3, #72]	@ movhi
 332              		.loc 4 62 0
 333 0020 1D4B     		ldr	r3, .L15+4
 334 0022 0022     		movs	r2, #0
 335 0024 A3F84420 		strh	r2, [r3, #68]	@ movhi
 336              		.loc 4 63 0
 337 0028 1B4B     		ldr	r3, .L15+4
 338 002a 0122     		movs	r2, #1
 339 002c A3F84620 		strh	r2, [r3, #70]	@ movhi
 340              		.loc 4 69 0
 341 0030 1F23     		movs	r3, #31
 342 0032 0293     		str	r3, [sp, #8]
 343 0034 20E0     		b	.L12
 344              	.L13:
 345              		.loc 4 70 0 discriminator 3
 346 0036 029A     		ldr	r2, [sp, #8]
 347 0038 1346     		mov	r3, r2
 348 003a 9B00     		lsls	r3, r3, #2
 349 003c 1344     		add	r3, r3, r2
 350 003e 5B00     		lsls	r3, r3, #1
 351 0040 164A     		ldr	r2, .L15+8
 352 0042 1344     		add	r3, r3, r2
 353 0044 029A     		ldr	r2, [sp, #8]
 354 0046 1649     		ldr	r1, .L15+12
 355 0048 1846     		mov	r0, r3
ARM GAS  C:\Users\PCHAUT~1\AppData\Local\Temp\cci3bHWK.s 			page 8


 356 004a FFF7FEFF 		bl	sprintf
 357              		.loc 4 71 0 discriminator 3
 358 004e 029A     		ldr	r2, [sp, #8]
 359 0050 1346     		mov	r3, r2
 360 0052 5B00     		lsls	r3, r3, #1
 361 0054 1344     		add	r3, r3, r2
 362 0056 DB00     		lsls	r3, r3, #3
 363 0058 124A     		ldr	r2, .L15+16
 364 005a 9818     		adds	r0, r3, r2
 365              		.loc 4 73 0 discriminator 3
 366 005c 029A     		ldr	r2, [sp, #8]
 367 005e 1346     		mov	r3, r2
 368 0060 9B00     		lsls	r3, r3, #2
 369 0062 1344     		add	r3, r3, r2
 370 0064 5B00     		lsls	r3, r3, #1
 371 0066 0D4A     		ldr	r2, .L15+8
 372 0068 1A44     		add	r2, r2, r3
 373              		.loc 4 71 0 discriminator 3
 374 006a 0023     		movs	r3, #0
 375 006c 0199     		ldr	r1, [sp, #4]
 376 006e FFF7FEFF 		bl	parameter_integer_declare_with_default
 377              		.loc 4 69 0 discriminator 3
 378 0072 029B     		ldr	r3, [sp, #8]
 379 0074 013B     		subs	r3, r3, #1
 380 0076 0293     		str	r3, [sp, #8]
 381              	.L12:
 382              		.loc 4 69 0 is_stmt 0 discriminator 1
 383 0078 029B     		ldr	r3, [sp, #8]
 384 007a 002B     		cmp	r3, #0
 385 007c DBDA     		bge	.L13
 386              		.loc 4 76 0 is_stmt 1
 387 007e 00BF     		nop
 388 0080 044B     		ldr	r3, .L15
 389 0082 039A     		ldr	r2, [sp, #12]
 390 0084 1B68     		ldr	r3, [r3]
 391 0086 9A42     		cmp	r2, r3
 392 0088 01D0     		beq	.L14
 393 008a FFF7FEFF 		bl	__stack_chk_fail
 394              	.L14:
 395 008e 05B0     		add	sp, sp, #20
 396              		.cfi_def_cfa_offset 4
 397              		@ sp needed
 398 0090 5DF804FB 		ldr	pc, [sp], #4
 399              	.L16:
 400              		.align	2
 401              	.L15:
 402 0094 00000000 		.word	__stack_chk_guard
 403 0098 00000000 		.word	vmVariables
 404 009c 00000000 		.word	aseba_settings_name
 405 00a0 E0000000 		.word	.LC20
 406 00a4 00000000 		.word	aseba_settings
 407              		.cfi_endproc
 408              	.LFE260:
 409              		.size	aseba_variables_init, .-aseba_variables_init
 410              		.section	.text.aseba_read_variables_from_system,"ax",%progbits
 411              		.align	1
 412              		.p2align 4,,15
ARM GAS  C:\Users\PCHAUT~1\AppData\Local\Temp\cci3bHWK.s 			page 9


 413              		.global	aseba_read_variables_from_system
 414              		.syntax unified
 415              		.thumb
 416              		.thumb_func
 417              		.fpu fpv4-sp-d16
 418              		.type	aseba_read_variables_from_system, %function
 419              	aseba_read_variables_from_system:
 420              	.LFB261:
 421              		.loc 4 79 0
 422              		.cfi_startproc
 423              		@ args = 0, pretend = 0, frame = 16
 424              		@ frame_needed = 0, uses_anonymous_args = 0
 425 0000 00B5     		push	{lr}
 426              		.cfi_def_cfa_offset 4
 427              		.cfi_offset 14, -4
 428 0002 85B0     		sub	sp, sp, #20
 429              		.cfi_def_cfa_offset 24
 430 0004 0190     		str	r0, [sp, #4]
 431              		.loc 4 79 0
 432 0006 094B     		ldr	r3, .L19
 433 0008 1B68     		ldr	r3, [r3]
 434 000a 0393     		str	r3, [sp, #12]
 435              		.loc 4 80 0
 436 000c 019B     		ldr	r3, [sp, #4]
 437 000e 1B88     		ldrh	r3, [r3]
 438 0010 1AB2     		sxth	r2, r3
 439 0012 074B     		ldr	r3, .L19+4
 440 0014 1A80     		strh	r2, [r3]	@ movhi
 441              		.loc 4 81 0
 442 0016 00BF     		nop
 443 0018 044B     		ldr	r3, .L19
 444 001a 039A     		ldr	r2, [sp, #12]
 445 001c 1B68     		ldr	r3, [r3]
 446 001e 9A42     		cmp	r2, r3
 447 0020 01D0     		beq	.L18
 448 0022 FFF7FEFF 		bl	__stack_chk_fail
 449              	.L18:
 450 0026 05B0     		add	sp, sp, #20
 451              		.cfi_def_cfa_offset 4
 452              		@ sp needed
 453 0028 5DF804FB 		ldr	pc, [sp], #4
 454              	.L20:
 455              		.align	2
 456              	.L19:
 457 002c 00000000 		.word	__stack_chk_guard
 458 0030 00000000 		.word	vmVariables
 459              		.cfi_endproc
 460              	.LFE261:
 461              		.size	aseba_read_variables_from_system, .-aseba_read_variables_from_system
 462              		.section	.text.aseba_write_variables_to_system,"ax",%progbits
 463              		.align	1
 464              		.p2align 4,,15
 465              		.global	aseba_write_variables_to_system
 466              		.syntax unified
 467              		.thumb
 468              		.thumb_func
 469              		.fpu fpv4-sp-d16
ARM GAS  C:\Users\PCHAUT~1\AppData\Local\Temp\cci3bHWK.s 			page 10


 470              		.type	aseba_write_variables_to_system, %function
 471              	aseba_write_variables_to_system:
 472              	.LFB262:
 473              		.loc 4 84 0
 474              		.cfi_startproc
 475              		@ args = 0, pretend = 0, frame = 16
 476              		@ frame_needed = 0, uses_anonymous_args = 0
 477 0000 00B5     		push	{lr}
 478              		.cfi_def_cfa_offset 4
 479              		.cfi_offset 14, -4
 480 0002 85B0     		sub	sp, sp, #20
 481              		.cfi_def_cfa_offset 24
 482 0004 0190     		str	r0, [sp, #4]
 483              		.loc 4 84 0
 484 0006 094B     		ldr	r3, .L23
 485 0008 1B68     		ldr	r3, [r3]
 486 000a 0393     		str	r3, [sp, #12]
 487              		.loc 4 87 0
 488 000c FFF7FEFF 		bl	imu_cb
 489              		.loc 4 88 0
 490 0010 FFF7FEFF 		bl	leds_cb
 491              		.loc 4 89 0
 492 0014 00BF     		nop
 493 0016 054B     		ldr	r3, .L23
 494 0018 039A     		ldr	r2, [sp, #12]
 495 001a 1B68     		ldr	r3, [r3]
 496 001c 9A42     		cmp	r2, r3
 497 001e 01D0     		beq	.L22
 498 0020 FFF7FEFF 		bl	__stack_chk_fail
 499              	.L22:
 500 0024 05B0     		add	sp, sp, #20
 501              		.cfi_def_cfa_offset 4
 502              		@ sp needed
 503 0026 5DF804FB 		ldr	pc, [sp], #4
 504              	.L24:
 505 002a 00BF     		.align	2
 506              	.L23:
 507 002c 00000000 		.word	__stack_chk_guard
 508              		.cfi_endproc
 509              	.LFE262:
 510              		.size	aseba_write_variables_to_system, .-aseba_write_variables_to_system
 511              		.section	.text.imu_cb,"ax",%progbits
 512              		.align	1
 513              		.p2align 4,,15
 514              		.global	imu_cb
 515              		.syntax unified
 516              		.thumb
 517              		.thumb_func
 518              		.fpu fpv4-sp-d16
 519              		.type	imu_cb, %function
 520              	imu_cb:
 521              	.LFB263:
 522              		.loc 4 93 0
 523              		.cfi_startproc
 524              		@ args = 0, pretend = 0, frame = 8
 525              		@ frame_needed = 0, uses_anonymous_args = 0
 526 0000 00B5     		push	{lr}
ARM GAS  C:\Users\PCHAUT~1\AppData\Local\Temp\cci3bHWK.s 			page 11


 527              		.cfi_def_cfa_offset 4
 528              		.cfi_offset 14, -4
 529 0002 83B0     		sub	sp, sp, #12
 530              		.cfi_def_cfa_offset 16
 531              		.loc 4 93 0
 532 0004 2F4B     		ldr	r3, .L27
 533 0006 1B68     		ldr	r3, [r3]
 534 0008 0193     		str	r3, [sp, #4]
 535              		.loc 4 94 0
 536 000a 0020     		movs	r0, #0
 537 000c FFF7FEFF 		bl	get_acceleration
 538 0010 B0EE407A 		vmov.f32	s14, s0
 539 0014 DFED2C7A 		vldr.32	s15, .L27+4
 540 0018 67EE277A 		vmul.f32	s15, s14, s15
 541 001c FDEEE77A 		vcvt.s32.f32	s15, s15
 542 0020 17EE903A 		vmov	r3, s15	@ int
 543 0024 1AB2     		sxth	r2, r3
 544 0026 294B     		ldr	r3, .L27+8
 545 0028 A3F86A20 		strh	r2, [r3, #106]	@ movhi
 546              		.loc 4 95 0
 547 002c 0120     		movs	r0, #1
 548 002e FFF7FEFF 		bl	get_acceleration
 549 0032 B0EE407A 		vmov.f32	s14, s0
 550 0036 DFED247A 		vldr.32	s15, .L27+4
 551 003a 67EE277A 		vmul.f32	s15, s14, s15
 552 003e FDEEE77A 		vcvt.s32.f32	s15, s15
 553 0042 17EE903A 		vmov	r3, s15	@ int
 554 0046 1AB2     		sxth	r2, r3
 555 0048 204B     		ldr	r3, .L27+8
 556 004a A3F86C20 		strh	r2, [r3, #108]	@ movhi
 557              		.loc 4 96 0
 558 004e 0220     		movs	r0, #2
 559 0050 FFF7FEFF 		bl	get_acceleration
 560 0054 B0EE407A 		vmov.f32	s14, s0
 561 0058 DFED1B7A 		vldr.32	s15, .L27+4
 562 005c 67EE277A 		vmul.f32	s15, s14, s15
 563 0060 FDEEE77A 		vcvt.s32.f32	s15, s15
 564 0064 17EE903A 		vmov	r3, s15	@ int
 565 0068 1AB2     		sxth	r2, r3
 566 006a 184B     		ldr	r3, .L27+8
 567 006c A3F86E20 		strh	r2, [r3, #110]	@ movhi
 568              		.loc 4 98 0
 569 0070 0020     		movs	r0, #0
 570 0072 FFF7FEFF 		bl	get_gyro
 571 0076 0346     		mov	r3, r0
 572 0078 1A46     		mov	r2, r3
 573 007a 144B     		ldr	r3, .L27+8
 574 007c A3F87020 		strh	r2, [r3, #112]	@ movhi
 575              		.loc 4 99 0
 576 0080 0120     		movs	r0, #1
 577 0082 FFF7FEFF 		bl	get_gyro
 578 0086 0346     		mov	r3, r0
 579 0088 1A46     		mov	r2, r3
 580 008a 104B     		ldr	r3, .L27+8
 581 008c A3F87220 		strh	r2, [r3, #114]	@ movhi
 582              		.loc 4 100 0
 583 0090 0220     		movs	r0, #2
ARM GAS  C:\Users\PCHAUT~1\AppData\Local\Temp\cci3bHWK.s 			page 12


 584 0092 FFF7FEFF 		bl	get_gyro
 585 0096 0346     		mov	r3, r0
 586 0098 1A46     		mov	r2, r3
 587 009a 0C4B     		ldr	r3, .L27+8
 588 009c A3F87420 		strh	r2, [r3, #116]	@ movhi
 589              		.loc 4 102 0
 590 00a0 0B4B     		ldr	r3, .L27+12
 591 00a2 1B68     		ldr	r3, [r3]
 592 00a4 43F00103 		orr	r3, r3, #1
 593 00a8 094A     		ldr	r2, .L27+12
 594 00aa 1360     		str	r3, [r2]
 595              		.loc 4 103 0
 596 00ac 00BF     		nop
 597 00ae 054B     		ldr	r3, .L27
 598 00b0 019A     		ldr	r2, [sp, #4]
 599 00b2 1B68     		ldr	r3, [r3]
 600 00b4 9A42     		cmp	r2, r3
 601 00b6 01D0     		beq	.L26
 602 00b8 FFF7FEFF 		bl	__stack_chk_fail
 603              	.L26:
 604 00bc 03B0     		add	sp, sp, #12
 605              		.cfi_def_cfa_offset 4
 606              		@ sp needed
 607 00be 5DF804FB 		ldr	pc, [sp], #4
 608              	.L28:
 609 00c2 00BF     		.align	2
 610              	.L27:
 611 00c4 00000000 		.word	__stack_chk_guard
 612 00c8 00007A44 		.word	1148846080
 613 00cc 00000000 		.word	vmVariables
 614 00d0 00000000 		.word	events_flags
 615              		.cfi_endproc
 616              	.LFE263:
 617              		.size	imu_cb, .-imu_cb
 618              		.section	.text.leds_cb,"ax",%progbits
 619              		.align	1
 620              		.p2align 4,,15
 621              		.global	leds_cb
 622              		.syntax unified
 623              		.thumb
 624              		.thumb_func
 625              		.fpu fpv4-sp-d16
 626              		.type	leds_cb, %function
 627              	leds_cb:
 628              	.LFB264:
 629              		.loc 4 105 0
 630              		.cfi_startproc
 631              		@ args = 0, pretend = 0, frame = 8
 632              		@ frame_needed = 0, uses_anonymous_args = 0
 633 0000 00B5     		push	{lr}
 634              		.cfi_def_cfa_offset 4
 635              		.cfi_offset 14, -4
 636 0002 83B0     		sub	sp, sp, #12
 637              		.cfi_def_cfa_offset 16
 638              		.loc 4 105 0
 639 0004 324B     		ldr	r3, .L31
 640 0006 1B68     		ldr	r3, [r3]
ARM GAS  C:\Users\PCHAUT~1\AppData\Local\Temp\cci3bHWK.s 			page 13


 641 0008 0193     		str	r3, [sp, #4]
 642              		.loc 4 107 0
 643 000a 324B     		ldr	r3, .L31+4
 644 000c B3F84A30 		ldrh	r3, [r3, #74]
 645 0010 1946     		mov	r1, r3
 646 0012 0020     		movs	r0, #0
 647 0014 FFF7FEFF 		bl	set_led
 648              		.loc 4 108 0
 649 0018 2E4B     		ldr	r3, .L31+4
 650 001a B3F84C30 		ldrh	r3, [r3, #76]
 651 001e D9B2     		uxtb	r1, r3
 652 0020 2C4B     		ldr	r3, .L31+4
 653 0022 B3F84E30 		ldrh	r3, [r3, #78]
 654 0026 DAB2     		uxtb	r2, r3
 655 0028 2A4B     		ldr	r3, .L31+4
 656 002a B3F85030 		ldrh	r3, [r3, #80]
 657 002e DBB2     		uxtb	r3, r3
 658 0030 0020     		movs	r0, #0
 659 0032 FFF7FEFF 		bl	set_rgb_led
 660              		.loc 4 109 0
 661 0036 274B     		ldr	r3, .L31+4
 662 0038 B3F85230 		ldrh	r3, [r3, #82]
 663 003c 1946     		mov	r1, r3
 664 003e 0120     		movs	r0, #1
 665 0040 FFF7FEFF 		bl	set_led
 666              		.loc 4 110 0
 667 0044 234B     		ldr	r3, .L31+4
 668 0046 B3F85430 		ldrh	r3, [r3, #84]
 669 004a D9B2     		uxtb	r1, r3
 670 004c 214B     		ldr	r3, .L31+4
 671 004e B3F85630 		ldrh	r3, [r3, #86]
 672 0052 DAB2     		uxtb	r2, r3
 673 0054 1F4B     		ldr	r3, .L31+4
 674 0056 B3F85830 		ldrh	r3, [r3, #88]
 675 005a DBB2     		uxtb	r3, r3
 676 005c 0120     		movs	r0, #1
 677 005e FFF7FEFF 		bl	set_rgb_led
 678              		.loc 4 111 0
 679 0062 1C4B     		ldr	r3, .L31+4
 680 0064 B3F85A30 		ldrh	r3, [r3, #90]
 681 0068 1946     		mov	r1, r3
 682 006a 0220     		movs	r0, #2
 683 006c FFF7FEFF 		bl	set_led
 684              		.loc 4 112 0
 685 0070 184B     		ldr	r3, .L31+4
 686 0072 B3F85C30 		ldrh	r3, [r3, #92]
 687 0076 D9B2     		uxtb	r1, r3
 688 0078 164B     		ldr	r3, .L31+4
 689 007a B3F85E30 		ldrh	r3, [r3, #94]
 690 007e DAB2     		uxtb	r2, r3
 691 0080 144B     		ldr	r3, .L31+4
 692 0082 B3F86030 		ldrh	r3, [r3, #96]
 693 0086 DBB2     		uxtb	r3, r3
 694 0088 0220     		movs	r0, #2
 695 008a FFF7FEFF 		bl	set_rgb_led
 696              		.loc 4 113 0
 697 008e 114B     		ldr	r3, .L31+4
ARM GAS  C:\Users\PCHAUT~1\AppData\Local\Temp\cci3bHWK.s 			page 14


 698 0090 B3F86230 		ldrh	r3, [r3, #98]
 699 0094 1946     		mov	r1, r3
 700 0096 0320     		movs	r0, #3
 701 0098 FFF7FEFF 		bl	set_led
 702              		.loc 4 114 0
 703 009c 0D4B     		ldr	r3, .L31+4
 704 009e B3F86430 		ldrh	r3, [r3, #100]
 705 00a2 D9B2     		uxtb	r1, r3
 706 00a4 0B4B     		ldr	r3, .L31+4
 707 00a6 B3F86630 		ldrh	r3, [r3, #102]
 708 00aa DAB2     		uxtb	r2, r3
 709 00ac 094B     		ldr	r3, .L31+4
 710 00ae B3F86830 		ldrh	r3, [r3, #104]
 711 00b2 DBB2     		uxtb	r3, r3
 712 00b4 0320     		movs	r0, #3
 713 00b6 FFF7FEFF 		bl	set_rgb_led
 714              		.loc 4 115 0
 715 00ba 00BF     		nop
 716 00bc 044B     		ldr	r3, .L31
 717 00be 019A     		ldr	r2, [sp, #4]
 718 00c0 1B68     		ldr	r3, [r3]
 719 00c2 9A42     		cmp	r2, r3
 720 00c4 01D0     		beq	.L30
 721 00c6 FFF7FEFF 		bl	__stack_chk_fail
 722              	.L30:
 723 00ca 03B0     		add	sp, sp, #12
 724              		.cfi_def_cfa_offset 4
 725              		@ sp needed
 726 00cc 5DF804FB 		ldr	pc, [sp], #4
 727              	.L32:
 728              		.align	2
 729              	.L31:
 730 00d0 00000000 		.word	__stack_chk_guard
 731 00d4 00000000 		.word	vmVariables
 732              		.cfi_endproc
 733              	.LFE264:
 734              		.size	leds_cb, .-leds_cb
 735              		.section	.text.button_cb,"ax",%progbits
 736              		.align	1
 737              		.p2align 4,,15
 738              		.global	button_cb
 739              		.syntax unified
 740              		.thumb
 741              		.thumb_func
 742              		.fpu fpv4-sp-d16
 743              		.type	button_cb, %function
 744              	button_cb:
 745              	.LFB265:
 746              		.loc 4 118 0
 747              		.cfi_startproc
 748              		@ args = 0, pretend = 0, frame = 8
 749              		@ frame_needed = 0, uses_anonymous_args = 0
 750 0000 00B5     		push	{lr}
 751              		.cfi_def_cfa_offset 4
 752              		.cfi_offset 14, -4
 753 0002 83B0     		sub	sp, sp, #12
 754              		.cfi_def_cfa_offset 16
ARM GAS  C:\Users\PCHAUT~1\AppData\Local\Temp\cci3bHWK.s 			page 15


 755              		.loc 4 118 0
 756 0004 094B     		ldr	r3, .L35
 757 0006 1B68     		ldr	r3, [r3]
 758 0008 0193     		str	r3, [sp, #4]
 759              		.loc 4 119 0
 760 000a 094B     		ldr	r3, .L35+4
 761 000c 1B68     		ldr	r3, [r3]
 762 000e 43F00203 		orr	r3, r3, #2
 763 0012 074A     		ldr	r2, .L35+4
 764 0014 1360     		str	r3, [r2]
 765              		.loc 4 120 0
 766 0016 00BF     		nop
 767 0018 044B     		ldr	r3, .L35
 768 001a 019A     		ldr	r2, [sp, #4]
 769 001c 1B68     		ldr	r3, [r3]
 770 001e 9A42     		cmp	r2, r3
 771 0020 01D0     		beq	.L34
 772 0022 FFF7FEFF 		bl	__stack_chk_fail
 773              	.L34:
 774 0026 03B0     		add	sp, sp, #12
 775              		.cfi_def_cfa_offset 4
 776              		@ sp needed
 777 0028 5DF804FB 		ldr	pc, [sp], #4
 778              	.L36:
 779              		.align	2
 780              	.L35:
 781 002c 00000000 		.word	__stack_chk_guard
 782 0030 00000000 		.word	events_flags
 783              		.cfi_endproc
 784              	.LFE265:
 785              		.size	button_cb, .-button_cb
 786              		.section	.rodata
 787 00e3 00       		.align	2
 788              	.LC21:
 789 00e4 5F737973 		.ascii	"_system.reboot\000"
 789      74656D2E 
 789      7265626F 
 789      6F7400
 790 00f3 00       		.align	2
 791              	.LC22:
 792 00f4 5265626F 		.ascii	"Reboot the microcontroller\000"
 792      6F742074 
 792      6865206D 
 792      6963726F 
 792      636F6E74 
 793              		.section	.data.AsebaNativeDescription__system_reboot,"aw",%progbits
 794              		.align	2
 795              		.type	AsebaNativeDescription__system_reboot, %object
 796              		.size	AsebaNativeDescription__system_reboot, 16
 797              	AsebaNativeDescription__system_reboot:
 798 0000 E4000000 		.word	.LC21
 799 0004 F4000000 		.word	.LC22
 800 0008 0000     		.short	0
 801 000a 0000     		.space	2
 802 000c 00000000 		.word	0
 803              		.section	.text.AsebaNative__system_reboot,"ax",%progbits
 804              		.align	1
ARM GAS  C:\Users\PCHAUT~1\AppData\Local\Temp\cci3bHWK.s 			page 16


 805              		.p2align 4,,15
 806              		.global	AsebaNative__system_reboot
 807              		.syntax unified
 808              		.thumb
 809              		.thumb_func
 810              		.fpu fpv4-sp-d16
 811              		.type	AsebaNative__system_reboot, %function
 812              	AsebaNative__system_reboot:
 813              	.LFB266:
 814              		.loc 4 134 0
 815              		.cfi_startproc
 816              		@ args = 0, pretend = 0, frame = 16
 817              		@ frame_needed = 0, uses_anonymous_args = 0
 818 0000 00B5     		push	{lr}
 819              		.cfi_def_cfa_offset 4
 820              		.cfi_offset 14, -4
 821 0002 85B0     		sub	sp, sp, #20
 822              		.cfi_def_cfa_offset 24
 823 0004 0190     		str	r0, [sp, #4]
 824              		.loc 4 134 0
 825 0006 084B     		ldr	r3, .L39
 826 0008 1B68     		ldr	r3, [r3]
 827 000a 0393     		str	r3, [sp, #12]
 828              		.loc 4 136 0
 829 000c FFF7FEFF 		bl	NVIC_SystemReset
 830              		.loc 4 137 0
 831 0010 00BF     		nop
 832 0012 054B     		ldr	r3, .L39
 833 0014 039A     		ldr	r2, [sp, #12]
 834 0016 1B68     		ldr	r3, [r3]
 835 0018 9A42     		cmp	r2, r3
 836 001a 01D0     		beq	.L38
 837 001c FFF7FEFF 		bl	__stack_chk_fail
 838              	.L38:
 839 0020 05B0     		add	sp, sp, #20
 840              		.cfi_def_cfa_offset 4
 841              		@ sp needed
 842 0022 5DF804FB 		ldr	pc, [sp], #4
 843              	.L40:
 844 0026 00BF     		.align	2
 845              	.L39:
 846 0028 00000000 		.word	__stack_chk_guard
 847              		.cfi_endproc
 848              	.LFE266:
 849              		.size	AsebaNative__system_reboot, .-AsebaNative__system_reboot
 850              		.section	.rodata
 851 010f 00       		.align	2
 852              	.LC23:
 853 0110 5F737973 		.ascii	"_system.settings.read\000"
 853      74656D2E 
 853      73657474 
 853      696E6773 
 853      2E726561 
 854 0126 0000     		.align	2
 855              	.LC24:
 856 0128 52656164 		.ascii	"Read a setting\000"
 856      20612073 
ARM GAS  C:\Users\PCHAUT~1\AppData\Local\Temp\cci3bHWK.s 			page 17


 856      65747469 
 856      6E6700
 857 0137 00       		.align	2
 858              	.LC25:
 859 0138 61646472 		.ascii	"address\000"
 859      65737300 
 860              		.align	2
 861              	.LC26:
 862 0140 76616C75 		.ascii	"value\000"
 862      6500
 863              		.section	.data.AsebaNativeDescription__system_settings_read,"aw",%progbits
 864              		.align	2
 865              		.type	AsebaNativeDescription__system_settings_read, %object
 866              		.size	AsebaNativeDescription__system_settings_read, 32
 867              	AsebaNativeDescription__system_settings_read:
 868 0000 10010000 		.word	.LC23
 869 0004 28010000 		.word	.LC24
 870 0008 0100     		.short	1
 871 000a 0000     		.space	2
 872 000c 38010000 		.word	.LC25
 873 0010 0100     		.short	1
 874 0012 0000     		.space	2
 875 0014 40010000 		.word	.LC26
 876 0018 0000     		.short	0
 877 001a 0000     		.space	2
 878 001c 00000000 		.word	0
 879              		.section	.rodata
 880 0146 0000     		.align	2
 881              	.LC27:
 882 0148 496E7661 		.ascii	"Invalid settings address.\000"
 882      6C696420 
 882      73657474 
 882      696E6773 
 882      20616464 
 883              		.section	.text.AsebaNative__system_settings_read,"ax",%progbits
 884              		.align	1
 885              		.p2align 4,,15
 886              		.syntax unified
 887              		.thumb
 888              		.thumb_func
 889              		.fpu fpv4-sp-d16
 890              		.type	AsebaNative__system_settings_read, %function
 891              	AsebaNative__system_settings_read:
 892              	.LFB267:
 893              		.loc 4 151 0
 894              		.cfi_startproc
 895              		@ args = 0, pretend = 0, frame = 16
 896              		@ frame_needed = 0, uses_anonymous_args = 0
 897 0000 10B5     		push	{r4, lr}
 898              		.cfi_def_cfa_offset 8
 899              		.cfi_offset 4, -8
 900              		.cfi_offset 14, -4
 901 0002 84B0     		sub	sp, sp, #16
 902              		.cfi_def_cfa_offset 24
 903 0004 0190     		str	r0, [sp, #4]
 904              		.loc 4 151 0
 905 0006 1E4B     		ldr	r3, .L46
ARM GAS  C:\Users\PCHAUT~1\AppData\Local\Temp\cci3bHWK.s 			page 18


 906 0008 1B68     		ldr	r3, [r3]
 907 000a 0393     		str	r3, [sp, #12]
 908              		.loc 4 152 0
 909 000c 019B     		ldr	r3, [sp, #4]
 910 000e DC68     		ldr	r4, [r3, #12]
 911 0010 0198     		ldr	r0, [sp, #4]
 912 0012 FFF7FEFF 		bl	AsebaNativePopArg
 913 0016 0346     		mov	r3, r0
 914 0018 5B00     		lsls	r3, r3, #1
 915 001a 2344     		add	r3, r3, r4
 916 001c B3F90030 		ldrsh	r3, [r3]
 917 0020 ADF80830 		strh	r3, [sp, #8]	@ movhi
 918              		.loc 4 153 0
 919 0024 0198     		ldr	r0, [sp, #4]
 920 0026 FFF7FEFF 		bl	AsebaNativePopArg
 921 002a 0346     		mov	r3, r0
 922 002c ADF80A30 		strh	r3, [sp, #10]	@ movhi
 923              		.loc 4 154 0
 924 0030 BDF80830 		ldrh	r3, [sp, #8]
 925 0034 1F2B     		cmp	r3, #31
 926 0036 14D8     		bhi	.L42
 927              		.loc 4 155 0
 928 0038 BDF80820 		ldrh	r2, [sp, #8]
 929 003c 1346     		mov	r3, r2
 930 003e 5B00     		lsls	r3, r3, #1
 931 0040 1344     		add	r3, r3, r2
 932 0042 DB00     		lsls	r3, r3, #3
 933 0044 0F4A     		ldr	r2, .L46+4
 934 0046 1344     		add	r3, r3, r2
 935 0048 1846     		mov	r0, r3
 936 004a FFF7FEFF 		bl	parameter_integer_get
 937 004e 0146     		mov	r1, r0
 938 0050 019B     		ldr	r3, [sp, #4]
 939 0052 DA68     		ldr	r2, [r3, #12]
 940 0054 BDF80A30 		ldrh	r3, [sp, #10]
 941 0058 5B00     		lsls	r3, r3, #1
 942 005a 1344     		add	r3, r3, r2
 943 005c 0AB2     		sxth	r2, r1
 944 005e 1A80     		strh	r2, [r3]	@ movhi
 945              		.loc 4 159 0
 946 0060 03E0     		b	.L45
 947              	.L42:
 948              		.loc 4 157 0
 949 0062 0949     		ldr	r1, .L46+8
 950 0064 0198     		ldr	r0, [sp, #4]
 951 0066 FFF7FEFF 		bl	AsebaVMEmitNodeSpecificError
 952              	.L45:
 953              		.loc 4 159 0
 954 006a 00BF     		nop
 955 006c 044B     		ldr	r3, .L46
 956 006e 039A     		ldr	r2, [sp, #12]
 957 0070 1B68     		ldr	r3, [r3]
 958 0072 9A42     		cmp	r2, r3
 959 0074 01D0     		beq	.L44
 960 0076 FFF7FEFF 		bl	__stack_chk_fail
 961              	.L44:
 962 007a 04B0     		add	sp, sp, #16
ARM GAS  C:\Users\PCHAUT~1\AppData\Local\Temp\cci3bHWK.s 			page 19


 963              		.cfi_def_cfa_offset 8
 964              		@ sp needed
 965 007c 10BD     		pop	{r4, pc}
 966              	.L47:
 967 007e 00BF     		.align	2
 968              	.L46:
 969 0080 00000000 		.word	__stack_chk_guard
 970 0084 00000000 		.word	aseba_settings
 971 0088 48010000 		.word	.LC27
 972              		.cfi_endproc
 973              	.LFE267:
 974              		.size	AsebaNative__system_settings_read, .-AsebaNative__system_settings_read
 975              		.section	.rodata
 976 0162 0000     		.align	2
 977              	.LC28:
 978 0164 5F737973 		.ascii	"_system.settings.write\000"
 978      74656D2E 
 978      73657474 
 978      696E6773 
 978      2E777269 
 979 017b 00       		.align	2
 980              	.LC29:
 981 017c 57726974 		.ascii	"Write a setting\000"
 981      65206120 
 981      73657474 
 981      696E6700 
 982              		.section	.data.AsebaNativeDescription__system_settings_write,"aw",%progbits
 983              		.align	2
 984              		.type	AsebaNativeDescription__system_settings_write, %object
 985              		.size	AsebaNativeDescription__system_settings_write, 32
 986              	AsebaNativeDescription__system_settings_write:
 987 0000 64010000 		.word	.LC28
 988 0004 7C010000 		.word	.LC29
 989 0008 0100     		.short	1
 990 000a 0000     		.space	2
 991 000c 38010000 		.word	.LC25
 992 0010 0100     		.short	1
 993 0012 0000     		.space	2
 994 0014 40010000 		.word	.LC26
 995 0018 0000     		.short	0
 996 001a 0000     		.space	2
 997 001c 00000000 		.word	0
 998              		.section	.text.AsebaNative__system_settings_write,"ax",%progbits
 999              		.align	1
 1000              		.p2align 4,,15
 1001              		.syntax unified
 1002              		.thumb
 1003              		.thumb_func
 1004              		.fpu fpv4-sp-d16
 1005              		.type	AsebaNative__system_settings_write, %function
 1006              	AsebaNative__system_settings_write:
 1007              	.LFB268:
 1008              		.loc 4 173 0
 1009              		.cfi_startproc
 1010              		@ args = 0, pretend = 0, frame = 16
 1011              		@ frame_needed = 0, uses_anonymous_args = 0
 1012 0000 10B5     		push	{r4, lr}
ARM GAS  C:\Users\PCHAUT~1\AppData\Local\Temp\cci3bHWK.s 			page 20


 1013              		.cfi_def_cfa_offset 8
 1014              		.cfi_offset 4, -8
 1015              		.cfi_offset 14, -4
 1016 0002 84B0     		sub	sp, sp, #16
 1017              		.cfi_def_cfa_offset 24
 1018 0004 0190     		str	r0, [sp, #4]
 1019              		.loc 4 173 0
 1020 0006 1E4B     		ldr	r3, .L53
 1021 0008 1B68     		ldr	r3, [r3]
 1022 000a 0393     		str	r3, [sp, #12]
 1023              		.loc 4 174 0
 1024 000c 019B     		ldr	r3, [sp, #4]
 1025 000e DC68     		ldr	r4, [r3, #12]
 1026 0010 0198     		ldr	r0, [sp, #4]
 1027 0012 FFF7FEFF 		bl	AsebaNativePopArg
 1028 0016 0346     		mov	r3, r0
 1029 0018 5B00     		lsls	r3, r3, #1
 1030 001a 2344     		add	r3, r3, r4
 1031 001c B3F90030 		ldrsh	r3, [r3]
 1032 0020 ADF80830 		strh	r3, [sp, #8]	@ movhi
 1033              		.loc 4 175 0
 1034 0024 019B     		ldr	r3, [sp, #4]
 1035 0026 DC68     		ldr	r4, [r3, #12]
 1036 0028 0198     		ldr	r0, [sp, #4]
 1037 002a FFF7FEFF 		bl	AsebaNativePopArg
 1038 002e 0346     		mov	r3, r0
 1039 0030 5B00     		lsls	r3, r3, #1
 1040 0032 2344     		add	r3, r3, r4
 1041 0034 B3F90030 		ldrsh	r3, [r3]
 1042 0038 ADF80A30 		strh	r3, [sp, #10]	@ movhi
 1043              		.loc 4 177 0
 1044 003c BDF80830 		ldrh	r3, [sp, #8]
 1045 0040 1F2B     		cmp	r3, #31
 1046 0042 0ED8     		bhi	.L49
 1047              		.loc 4 178 0
 1048 0044 BDF80820 		ldrh	r2, [sp, #8]
 1049 0048 1346     		mov	r3, r2
 1050 004a 5B00     		lsls	r3, r3, #1
 1051 004c 1344     		add	r3, r3, r2
 1052 004e DB00     		lsls	r3, r3, #3
 1053 0050 0C4A     		ldr	r2, .L53+4
 1054 0052 1344     		add	r3, r3, r2
 1055 0054 BDF80A20 		ldrh	r2, [sp, #10]
 1056 0058 1146     		mov	r1, r2
 1057 005a 1846     		mov	r0, r3
 1058 005c FFF7FEFF 		bl	parameter_integer_set
 1059              		.loc 4 182 0
 1060 0060 03E0     		b	.L52
 1061              	.L49:
 1062              		.loc 4 180 0
 1063 0062 0949     		ldr	r1, .L53+8
 1064 0064 0198     		ldr	r0, [sp, #4]
 1065 0066 FFF7FEFF 		bl	AsebaVMEmitNodeSpecificError
 1066              	.L52:
 1067              		.loc 4 182 0
 1068 006a 00BF     		nop
 1069 006c 044B     		ldr	r3, .L53
ARM GAS  C:\Users\PCHAUT~1\AppData\Local\Temp\cci3bHWK.s 			page 21


 1070 006e 039A     		ldr	r2, [sp, #12]
 1071 0070 1B68     		ldr	r3, [r3]
 1072 0072 9A42     		cmp	r2, r3
 1073 0074 01D0     		beq	.L51
 1074 0076 FFF7FEFF 		bl	__stack_chk_fail
 1075              	.L51:
 1076 007a 04B0     		add	sp, sp, #16
 1077              		.cfi_def_cfa_offset 8
 1078              		@ sp needed
 1079 007c 10BD     		pop	{r4, pc}
 1080              	.L54:
 1081 007e 00BF     		.align	2
 1082              	.L53:
 1083 0080 00000000 		.word	__stack_chk_guard
 1084 0084 00000000 		.word	aseba_settings
 1085 0088 48010000 		.word	.LC27
 1086              		.cfi_endproc
 1087              	.LFE268:
 1088              		.size	AsebaNative__system_settings_write, .-AsebaNative__system_settings_write
 1089              		.section	.rodata
 1090              		.align	2
 1091              	.LC30:
 1092 018c 5F737973 		.ascii	"_system.settings.flash\000"
 1092      74656D2E 
 1092      73657474 
 1092      696E6773 
 1092      2E666C61 
 1093 01a3 00       		.align	2
 1094              	.LC31:
 1095 01a4 53617665 		.ascii	"Save settings into flash\000"
 1095      20736574 
 1095      74696E67 
 1095      7320696E 
 1095      746F2066 
 1096              		.section	.data.AsebaNativeDescription_settings_save,"aw",%progbits
 1097              		.align	2
 1098              		.type	AsebaNativeDescription_settings_save, %object
 1099              		.size	AsebaNativeDescription_settings_save, 16
 1100              	AsebaNativeDescription_settings_save:
 1101 0000 8C010000 		.word	.LC30
 1102 0004 A4010000 		.word	.LC31
 1103 0008 0000     		.short	0
 1104 000a 0000     		.space	2
 1105 000c 00000000 		.word	0
 1106              		.section	.rodata
 1107 01bd 000000   		.align	2
 1108              	.LC32:
 1109 01c0 436F6E66 		.ascii	"Config save failed!\000"
 1109      69672073 
 1109      61766520 
 1109      6661696C 
 1109      65642100 
 1110              		.section	.text.AsebaNative_settings_save,"ax",%progbits
 1111              		.align	1
 1112              		.p2align 4,,15
 1113              		.global	AsebaNative_settings_save
 1114              		.syntax unified
ARM GAS  C:\Users\PCHAUT~1\AppData\Local\Temp\cci3bHWK.s 			page 22


 1115              		.thumb
 1116              		.thumb_func
 1117              		.fpu fpv4-sp-d16
 1118              		.type	AsebaNative_settings_save, %function
 1119              	AsebaNative_settings_save:
 1120              	.LFB269:
 1121              		.loc 4 197 0
 1122              		.cfi_startproc
 1123              		@ args = 0, pretend = 0, frame = 24
 1124              		@ frame_needed = 0, uses_anonymous_args = 0
 1125 0000 00B5     		push	{lr}
 1126              		.cfi_def_cfa_offset 4
 1127              		.cfi_offset 14, -4
 1128 0002 87B0     		sub	sp, sp, #28
 1129              		.cfi_def_cfa_offset 32
 1130 0004 0190     		str	r0, [sp, #4]
 1131              		.loc 4 197 0
 1132 0006 154B     		ldr	r3, .L59
 1133 0008 1B68     		ldr	r3, [r3]
 1134 000a 0593     		str	r3, [sp, #20]
 1135              		.loc 4 199 0
 1136 000c 144A     		ldr	r2, .L59+4
 1137 000e 154B     		ldr	r3, .L59+8
 1138 0010 D31A     		subs	r3, r2, r3
 1139 0012 9B10     		asrs	r3, r3, #2
 1140 0014 0493     		str	r3, [sp, #16]
 1141              		.loc 4 203 0
 1142 0016 144A     		ldr	r2, .L59+12
 1143 0018 0499     		ldr	r1, [sp, #16]
 1144 001a 1248     		ldr	r0, .L59+8
 1145 001c FFF7FEFF 		bl	config_save
 1146              		.loc 4 206 0
 1147 0020 1049     		ldr	r1, .L59+8
 1148 0022 1148     		ldr	r0, .L59+12
 1149 0024 FFF7FEFF 		bl	config_load
 1150 0028 0346     		mov	r3, r0
 1151 002a 8DF80F30 		strb	r3, [sp, #15]
 1152              		.loc 4 208 0
 1153 002e 9DF80F30 		ldrb	r3, [sp, #15]
 1154 0032 83F00103 		eor	r3, r3, #1
 1155 0036 DBB2     		uxtb	r3, r3
 1156 0038 002B     		cmp	r3, #0
 1157 003a 03D0     		beq	.L58
 1158              		.loc 4 209 0
 1159 003c 0B49     		ldr	r1, .L59+16
 1160 003e 0198     		ldr	r0, [sp, #4]
 1161 0040 FFF7FEFF 		bl	AsebaVMEmitNodeSpecificError
 1162              	.L58:
 1163              		.loc 4 211 0
 1164 0044 00BF     		nop
 1165 0046 054B     		ldr	r3, .L59
 1166 0048 059A     		ldr	r2, [sp, #20]
 1167 004a 1B68     		ldr	r3, [r3]
 1168 004c 9A42     		cmp	r2, r3
 1169 004e 01D0     		beq	.L57
 1170 0050 FFF7FEFF 		bl	__stack_chk_fail
 1171              	.L57:
ARM GAS  C:\Users\PCHAUT~1\AppData\Local\Temp\cci3bHWK.s 			page 23


 1172 0054 07B0     		add	sp, sp, #28
 1173              		.cfi_def_cfa_offset 4
 1174              		@ sp needed
 1175 0056 5DF804FB 		ldr	pc, [sp], #4
 1176              	.L60:
 1177 005a 00BF     		.align	2
 1178              	.L59:
 1179 005c 00000000 		.word	__stack_chk_guard
 1180 0060 00000000 		.word	_config_end
 1181 0064 00000000 		.word	_config_start
 1182 0068 00000000 		.word	parameter_root
 1183 006c C0010000 		.word	.LC32
 1184              		.cfi_endproc
 1185              	.LFE269:
 1186              		.size	AsebaNative_settings_save, .-AsebaNative_settings_save
 1187              		.section	.rodata
 1188              		.align	2
 1189              	.LC33:
 1190 01d4 5F737973 		.ascii	"_system.settings.erase\000"
 1190      74656D2E 
 1190      73657474 
 1190      696E6773 
 1190      2E657261 
 1191 01eb 00       		.align	2
 1192              	.LC34:
 1193 01ec 52657374 		.ascii	"Restore settings to default value (erases flash)\000"
 1193      6F726520 
 1193      73657474 
 1193      696E6773 
 1193      20746F20 
 1194              		.section	.data.AsebaNativeDescription_settings_erase,"aw",%progbits
 1195              		.align	2
 1196              		.type	AsebaNativeDescription_settings_erase, %object
 1197              		.size	AsebaNativeDescription_settings_erase, 16
 1198              	AsebaNativeDescription_settings_erase:
 1199 0000 D4010000 		.word	.LC33
 1200 0004 EC010000 		.word	.LC34
 1201 0008 0000     		.short	0
 1202 000a 0000     		.space	2
 1203 000c 00000000 		.word	0
 1204              		.section	.text.AsebaNative_settings_erase,"ax",%progbits
 1205              		.align	1
 1206              		.p2align 4,,15
 1207              		.global	AsebaNative_settings_erase
 1208              		.syntax unified
 1209              		.thumb
 1210              		.thumb_func
 1211              		.fpu fpv4-sp-d16
 1212              		.type	AsebaNative_settings_erase, %function
 1213              	AsebaNative_settings_erase:
 1214              	.LFB270:
 1215              		.loc 4 224 0
 1216              		.cfi_startproc
 1217              		@ args = 0, pretend = 0, frame = 16
 1218              		@ frame_needed = 0, uses_anonymous_args = 0
 1219 0000 00B5     		push	{lr}
 1220              		.cfi_def_cfa_offset 4
ARM GAS  C:\Users\PCHAUT~1\AppData\Local\Temp\cci3bHWK.s 			page 24


 1221              		.cfi_offset 14, -4
 1222 0002 85B0     		sub	sp, sp, #20
 1223              		.cfi_def_cfa_offset 24
 1224 0004 0190     		str	r0, [sp, #4]
 1225              		.loc 4 224 0
 1226 0006 084B     		ldr	r3, .L63
 1227 0008 1B68     		ldr	r3, [r3]
 1228 000a 0393     		str	r3, [sp, #12]
 1229              		.loc 4 229 0
 1230 000c 0748     		ldr	r0, .L63+4
 1231 000e FFF7FEFF 		bl	config_erase
 1232              		.loc 4 230 0
 1233 0012 00BF     		nop
 1234 0014 044B     		ldr	r3, .L63
 1235 0016 039A     		ldr	r2, [sp, #12]
 1236 0018 1B68     		ldr	r3, [r3]
 1237 001a 9A42     		cmp	r2, r3
 1238 001c 01D0     		beq	.L62
 1239 001e FFF7FEFF 		bl	__stack_chk_fail
 1240              	.L62:
 1241 0022 05B0     		add	sp, sp, #20
 1242              		.cfi_def_cfa_offset 4
 1243              		@ sp needed
 1244 0024 5DF804FB 		ldr	pc, [sp], #4
 1245              	.L64:
 1246              		.align	2
 1247              	.L63:
 1248 0028 00000000 		.word	__stack_chk_guard
 1249 002c 00000000 		.word	_config_start
 1250              		.cfi_endproc
 1251              	.LFE270:
 1252              		.size	AsebaNative_settings_erase, .-AsebaNative_settings_erase
 1253              		.global	AsebaNativeDescription_clear_all_leds
 1254              		.section	.rodata
 1255 021d 000000   		.align	2
 1256              	.LC35:
 1257 0220 6C656473 		.ascii	"leds.clear_all\000"
 1257      2E636C65 
 1257      61725F61 
 1257      6C6C00
 1258 022f 00       		.align	2
 1259              	.LC36:
 1260 0230 436C6561 		.ascii	"Clear all the LEDs\000"
 1260      7220616C 
 1260      6C207468 
 1260      65204C45 
 1260      447300
 1261              		.section	.data.AsebaNativeDescription_clear_all_leds,"aw",%progbits
 1262              		.align	2
 1263              		.type	AsebaNativeDescription_clear_all_leds, %object
 1264              		.size	AsebaNativeDescription_clear_all_leds, 16
 1265              	AsebaNativeDescription_clear_all_leds:
 1266 0000 20020000 		.word	.LC35
 1267 0004 30020000 		.word	.LC36
 1268 0008 0000     		.short	0
 1269 000a 0000     		.space	2
 1270 000c 00000000 		.word	0
ARM GAS  C:\Users\PCHAUT~1\AppData\Local\Temp\cci3bHWK.s 			page 25


 1271              		.section	.text.clear_all_leds,"ax",%progbits
 1272              		.align	1
 1273              		.p2align 4,,15
 1274              		.global	clear_all_leds
 1275              		.syntax unified
 1276              		.thumb
 1277              		.thumb_func
 1278              		.fpu fpv4-sp-d16
 1279              		.type	clear_all_leds, %function
 1280              	clear_all_leds:
 1281              	.LFB271:
 1282              		.loc 4 242 0
 1283              		.cfi_startproc
 1284              		@ args = 0, pretend = 0, frame = 16
 1285              		@ frame_needed = 0, uses_anonymous_args = 0
 1286 0000 00B5     		push	{lr}
 1287              		.cfi_def_cfa_offset 4
 1288              		.cfi_offset 14, -4
 1289 0002 85B0     		sub	sp, sp, #20
 1290              		.cfi_def_cfa_offset 24
 1291 0004 0190     		str	r0, [sp, #4]
 1292              		.loc 4 242 0
 1293 0006 274B     		ldr	r3, .L67
 1294 0008 1B68     		ldr	r3, [r3]
 1295 000a 0393     		str	r3, [sp, #12]
 1296              		.loc 4 245 0
 1297 000c 264B     		ldr	r3, .L67+4
 1298 000e 0022     		movs	r2, #0
 1299 0010 A3F84A20 		strh	r2, [r3, #74]	@ movhi
 1300              		.loc 4 246 0
 1301 0014 244B     		ldr	r3, .L67+4
 1302 0016 0022     		movs	r2, #0
 1303 0018 A3F84C20 		strh	r2, [r3, #76]	@ movhi
 1304              		.loc 4 247 0
 1305 001c 224B     		ldr	r3, .L67+4
 1306 001e 0022     		movs	r2, #0
 1307 0020 A3F84E20 		strh	r2, [r3, #78]	@ movhi
 1308              		.loc 4 248 0
 1309 0024 204B     		ldr	r3, .L67+4
 1310 0026 0022     		movs	r2, #0
 1311 0028 A3F85020 		strh	r2, [r3, #80]	@ movhi
 1312              		.loc 4 249 0
 1313 002c 1E4B     		ldr	r3, .L67+4
 1314 002e 0022     		movs	r2, #0
 1315 0030 A3F85220 		strh	r2, [r3, #82]	@ movhi
 1316              		.loc 4 250 0
 1317 0034 1C4B     		ldr	r3, .L67+4
 1318 0036 0022     		movs	r2, #0
 1319 0038 A3F85420 		strh	r2, [r3, #84]	@ movhi
 1320              		.loc 4 251 0
 1321 003c 1A4B     		ldr	r3, .L67+4
 1322 003e 0022     		movs	r2, #0
 1323 0040 A3F85620 		strh	r2, [r3, #86]	@ movhi
 1324              		.loc 4 252 0
 1325 0044 184B     		ldr	r3, .L67+4
 1326 0046 0022     		movs	r2, #0
 1327 0048 A3F85820 		strh	r2, [r3, #88]	@ movhi
ARM GAS  C:\Users\PCHAUT~1\AppData\Local\Temp\cci3bHWK.s 			page 26


 1328              		.loc 4 253 0
 1329 004c 164B     		ldr	r3, .L67+4
 1330 004e 0022     		movs	r2, #0
 1331 0050 A3F85A20 		strh	r2, [r3, #90]	@ movhi
 1332              		.loc 4 254 0
 1333 0054 144B     		ldr	r3, .L67+4
 1334 0056 0022     		movs	r2, #0
 1335 0058 A3F85C20 		strh	r2, [r3, #92]	@ movhi
 1336              		.loc 4 255 0
 1337 005c 124B     		ldr	r3, .L67+4
 1338 005e 0022     		movs	r2, #0
 1339 0060 A3F85E20 		strh	r2, [r3, #94]	@ movhi
 1340              		.loc 4 256 0
 1341 0064 104B     		ldr	r3, .L67+4
 1342 0066 0022     		movs	r2, #0
 1343 0068 A3F86020 		strh	r2, [r3, #96]	@ movhi
 1344              		.loc 4 257 0
 1345 006c 0E4B     		ldr	r3, .L67+4
 1346 006e 0022     		movs	r2, #0
 1347 0070 A3F86220 		strh	r2, [r3, #98]	@ movhi
 1348              		.loc 4 258 0
 1349 0074 0C4B     		ldr	r3, .L67+4
 1350 0076 0022     		movs	r2, #0
 1351 0078 A3F86420 		strh	r2, [r3, #100]	@ movhi
 1352              		.loc 4 259 0
 1353 007c 0A4B     		ldr	r3, .L67+4
 1354 007e 0022     		movs	r2, #0
 1355 0080 A3F86620 		strh	r2, [r3, #102]	@ movhi
 1356              		.loc 4 260 0
 1357 0084 084B     		ldr	r3, .L67+4
 1358 0086 0022     		movs	r2, #0
 1359 0088 A3F86820 		strh	r2, [r3, #104]	@ movhi
 1360              		.loc 4 262 0
 1361 008c 00BF     		nop
 1362 008e 054B     		ldr	r3, .L67
 1363 0090 039A     		ldr	r2, [sp, #12]
 1364 0092 1B68     		ldr	r3, [r3]
 1365 0094 9A42     		cmp	r2, r3
 1366 0096 01D0     		beq	.L66
 1367 0098 FFF7FEFF 		bl	__stack_chk_fail
 1368              	.L66:
 1369 009c 05B0     		add	sp, sp, #20
 1370              		.cfi_def_cfa_offset 4
 1371              		@ sp needed
 1372 009e 5DF804FB 		ldr	pc, [sp], #4
 1373              	.L68:
 1374 00a2 00BF     		.align	2
 1375              	.L67:
 1376 00a4 00000000 		.word	__stack_chk_guard
 1377 00a8 00000000 		.word	vmVariables
 1378              		.cfi_endproc
 1379              	.LFE271:
 1380              		.size	clear_all_leds, .-clear_all_leds
 1381              		.global	nativeFunctionsDescription
 1382              		.section	.data.nativeFunctionsDescription,"aw",%progbits
 1383              		.align	2
 1384              		.type	nativeFunctionsDescription, %object
ARM GAS  C:\Users\PCHAUT~1\AppData\Local\Temp\cci3bHWK.s 			page 27


 1385              		.size	nativeFunctionsDescription, 112
 1386              	nativeFunctionsDescription:
 1387 0000 00000000 		.word	AsebaNativeDescription__system_reboot
 1388 0004 00000000 		.word	AsebaNativeDescription__system_settings_read
 1389 0008 00000000 		.word	AsebaNativeDescription__system_settings_write
 1390 000c 00000000 		.word	AsebaNativeDescription_settings_save
 1391 0010 00000000 		.word	AsebaNativeDescription_settings_erase
 1392 0014 00000000 		.word	AsebaNativeDescription_clear_all_leds
 1393 0018 00000000 		.word	AsebaNativeDescription_veccopy
 1394 001c 00000000 		.word	AsebaNativeDescription_vecfill
 1395 0020 00000000 		.word	AsebaNativeDescription_vecaddscalar
 1396 0024 00000000 		.word	AsebaNativeDescription_vecadd
 1397 0028 00000000 		.word	AsebaNativeDescription_vecsub
 1398 002c 00000000 		.word	AsebaNativeDescription_vecmul
 1399 0030 00000000 		.word	AsebaNativeDescription_vecdiv
 1400 0034 00000000 		.word	AsebaNativeDescription_vecmin
 1401 0038 00000000 		.word	AsebaNativeDescription_vecmax
 1402 003c 00000000 		.word	AsebaNativeDescription_vecclamp
 1403 0040 00000000 		.word	AsebaNativeDescription_vecdot
 1404 0044 00000000 		.word	AsebaNativeDescription_vecstat
 1405 0048 00000000 		.word	AsebaNativeDescription_vecargbounds
 1406 004c 00000000 		.word	AsebaNativeDescription_vecsort
 1407 0050 00000000 		.word	AsebaNativeDescription_mathmuldiv
 1408 0054 00000000 		.word	AsebaNativeDescription_mathatan2
 1409 0058 00000000 		.word	AsebaNativeDescription_mathsin
 1410 005c 00000000 		.word	AsebaNativeDescription_mathcos
 1411 0060 00000000 		.word	AsebaNativeDescription_mathrot2
 1412 0064 00000000 		.word	AsebaNativeDescription_mathsqrt
 1413 0068 00000000 		.word	AsebaNativeDescription_rand
 1414 006c 00000000 		.word	0
 1415              		.global	nativeFunctions
 1416              		.section	.data.nativeFunctions,"aw",%progbits
 1417              		.align	2
 1418              		.type	nativeFunctions, %object
 1419              		.size	nativeFunctions, 108
 1420              	nativeFunctions:
 1421 0000 00000000 		.word	AsebaNative__system_reboot
 1422 0004 00000000 		.word	AsebaNative__system_settings_read
 1423 0008 00000000 		.word	AsebaNative__system_settings_write
 1424 000c 00000000 		.word	AsebaNative_settings_save
 1425 0010 00000000 		.word	AsebaNative_settings_erase
 1426 0014 00000000 		.word	clear_all_leds
 1427 0018 00000000 		.word	AsebaNative_veccopy
 1428 001c 00000000 		.word	AsebaNative_vecfill
 1429 0020 00000000 		.word	AsebaNative_vecaddscalar
 1430 0024 00000000 		.word	AsebaNative_vecadd
 1431 0028 00000000 		.word	AsebaNative_vecsub
 1432 002c 00000000 		.word	AsebaNative_vecmul
 1433 0030 00000000 		.word	AsebaNative_vecdiv
 1434 0034 00000000 		.word	AsebaNative_vecmin
 1435 0038 00000000 		.word	AsebaNative_vecmax
 1436 003c 00000000 		.word	AsebaNative_vecclamp
 1437 0040 00000000 		.word	AsebaNative_vecdot
 1438 0044 00000000 		.word	AsebaNative_vecstat
 1439 0048 00000000 		.word	AsebaNative_vecargbounds
 1440 004c 00000000 		.word	AsebaNative_vecsort
 1441 0050 00000000 		.word	AsebaNative_mathmuldiv
ARM GAS  C:\Users\PCHAUT~1\AppData\Local\Temp\cci3bHWK.s 			page 28


 1442 0054 00000000 		.word	AsebaNative_mathatan2
 1443 0058 00000000 		.word	AsebaNative_mathsin
 1444 005c 00000000 		.word	AsebaNative_mathcos
 1445 0060 00000000 		.word	AsebaNative_mathrot2
 1446 0064 00000000 		.word	AsebaNative_mathsqrt
 1447 0068 00000000 		.word	AsebaNative_rand
 1448              		.global	nativeFunctions_length
 1449              		.section	.rodata.nativeFunctions_length,"a",%progbits
 1450              		.align	2
 1451              		.type	nativeFunctions_length, %object
 1452              		.size	nativeFunctions_length, 4
 1453              	nativeFunctions_length:
 1454 0000 1B000000 		.word	27
 1455              		.text
 1456              	.Letext0:
 1457              		.file 5 "c:\\users\\pchautems\\documents\\robotiquetp\\eclipse_e-puck2\\tools\\gcc-arm-none-eabi-7
 1458              		.file 6 "c:\\users\\pchautems\\documents\\robotiquetp\\eclipse_e-puck2\\tools\\gcc-arm-none-eabi-7
 1459              		.file 7 "c:\\users\\pchautems\\documents\\robotiquetp\\eclipse_e-puck2\\tools\\gcc-arm-none-eabi-7
 1460              		.file 8 "c:\\users\\pchautems\\documents\\robotiquetp\\eclipse_e-puck2\\tools\\gcc-arm-none-eabi-7
 1461              		.file 9 "c:\\users\\pchautems\\documents\\robotiquetp\\eclipse_e-puck2\\tools\\gcc-arm-none-eabi-7
 1462              		.file 10 "c:\\users\\pchautems\\documents\\robotiquetp\\eclipse_e-puck2\\tools\\gcc-arm-none-eabi-
 1463              		.file 11 "../lib/e-puck2_main-processor/ChibiOS//os/rt/ports/ARMCMx/compilers/GCC/chtypes.h"
 1464              		.file 12 "../lib/e-puck2_main-processor/ChibiOS//os/rt/include/chsystypes.h"
 1465              		.file 13 "../lib/e-puck2_main-processor/ChibiOS//os/rt/include/chschd.h"
 1466              		.file 14 "../lib/e-puck2_main-processor/ChibiOS//os/ext/CMSIS/ST/system_stm32f4xx.h"
 1467              		.file 15 "../lib/e-puck2_main-processor/ChibiOS//os/ext/CMSIS/ST/stm32f407xx.h"
 1468              		.file 16 "../lib/e-puck2_main-processor/ChibiOS//os/rt/ports/ARMCMx/chcore.h"
 1469              		.file 17 "../lib/e-puck2_main-processor/ChibiOS//os/rt/ports/ARMCMx/chcore_v7m.h"
 1470              		.file 18 "../lib/e-puck2_main-processor/ChibiOS//os/rt/include/chdebug.h"
 1471              		.file 19 "../lib/e-puck2_main-processor/ChibiOS//os/rt/include/chtm.h"
 1472              		.file 20 "../lib/e-puck2_main-processor/ChibiOS//os/rt/include/chstats.h"
 1473              		.file 21 "../lib/e-puck2_main-processor/ChibiOS//os/rt/include/chsem.h"
 1474              		.file 22 "../lib/e-puck2_main-processor/ChibiOS//os/rt/include/chmtx.h"
 1475              		.file 23 "../lib/e-puck2_main-processor/ChibiOS//os/rt/include/chregistry.h"
 1476              		.file 24 "../lib/e-puck2_main-processor/ChibiOS//os/rt/include/chevents.h"
 1477              		.file 25 "../lib/e-puck2_main-processor/ChibiOS//os/rt/include/chqueues.h"
 1478              		.file 26 "../lib/e-puck2_main-processor/ChibiOS//os/hal/ports/STM32/STM32F4xx/stm32_dma.h"
 1479              		.file 27 "../lib/e-puck2_main-processor/ChibiOS//os/hal/include/hal_ioblock.h"
 1480              		.file 28 "../lib/e-puck2_main-processor/ChibiOS//os/hal/ports/STM32/LLD/GPIOv2/pal_lld.h"
 1481              		.file 29 "../lib/e-puck2_main-processor/ChibiOS//os/hal/include/adc.h"
 1482              		.file 30 "../lib/e-puck2_main-processor/ChibiOS//os/hal/ports/STM32/STM32F4xx/adc_lld.h"
 1483              		.file 31 "../lib/e-puck2_main-processor/ChibiOS//os/hal/include/can.h"
 1484              		.file 32 "../lib/e-puck2_main-processor/ChibiOS//os/hal/ports/STM32/LLD/can_lld.h"
 1485              		.file 33 "../lib/e-puck2_main-processor/ChibiOS//os/hal/include/dac.h"
 1486              		.file 34 "../lib/e-puck2_main-processor/ChibiOS//os/hal/ports/STM32/LLD/DACv1/dac_lld.h"
 1487              		.file 35 "../lib/e-puck2_main-processor/ChibiOS//os/hal/include/ext.h"
 1488              		.file 36 "../lib/e-puck2_main-processor/ChibiOS//os/hal/ports/STM32/LLD/ext_lld.h"
 1489              		.file 37 "../lib/e-puck2_main-processor/ChibiOS//os/hal/include/gpt.h"
 1490              		.file 38 "../lib/e-puck2_main-processor/ChibiOS//os/hal/ports/STM32/LLD/TIMv1/gpt_lld.h"
 1491              		.file 39 "../lib/e-puck2_main-processor/ChibiOS//os/hal/ports/STM32/LLD/TIMv1/stm32_tim.h"
 1492              		.file 40 "../lib/e-puck2_main-processor/ChibiOS//os/hal/include/i2c.h"
 1493              		.file 41 "../lib/e-puck2_main-processor/ChibiOS//os/hal/ports/STM32/LLD/I2Cv1/i2c_lld.h"
 1494              		.file 42 "../lib/e-puck2_main-processor/ChibiOS//os/hal/include/i2s.h"
 1495              		.file 43 "../lib/e-puck2_main-processor/ChibiOS//os/hal/ports/STM32/LLD/SPIv1/i2s_lld.h"
 1496              		.file 44 "../lib/e-puck2_main-processor/ChibiOS//os/hal/include/pwm.h"
 1497              		.file 45 "../lib/e-puck2_main-processor/ChibiOS//os/hal/ports/STM32/LLD/TIMv1/pwm_lld.h"
 1498              		.file 46 "../lib/e-puck2_main-processor/ChibiOS//os/hal/include/serial.h"
ARM GAS  C:\Users\PCHAUT~1\AppData\Local\Temp\cci3bHWK.s 			page 29


 1499              		.file 47 "../lib/e-puck2_main-processor/ChibiOS//os/hal/ports/STM32/LLD/USARTv1/serial_lld.h"
 1500              		.file 48 "../lib/e-puck2_main-processor/ChibiOS//os/hal/include/sdc.h"
 1501              		.file 49 "../lib/e-puck2_main-processor/ChibiOS//os/hal/ports/STM32/LLD/sdc_lld.h"
 1502              		.file 50 "../lib/e-puck2_main-processor/ChibiOS//os/hal/include/spi.h"
 1503              		.file 51 "../lib/e-puck2_main-processor/ChibiOS//os/hal/ports/STM32/LLD/SPIv1/spi_lld.h"
 1504              		.file 52 "../lib/e-puck2_main-processor/ChibiOS//os/hal/include/usb.h"
 1505              		.file 53 "../lib/e-puck2_main-processor/ChibiOS//os/hal/ports/STM32/LLD/OTGv1/usb_lld.h"
 1506              		.file 54 "../lib/e-puck2_main-processor/ChibiOS//os/hal/ports/STM32/LLD/OTGv1/stm32_otg.h"
 1507              		.file 55 "c:\\users\\pchautems\\documents\\robotiquetp\\eclipse_e-puck2\\tools\\gcc-arm-none-eabi-
 1508              		.file 56 "../lib/e-puck2_main-processor/aseba/common/types.h"
 1509              		.file 57 "../lib/e-puck2_main-processor/aseba/vm/vm.h"
 1510              		.file 58 "../lib/e-puck2_main-processor/src/parameter/parameter.h"
 1511              		.file 59 "../lib/e-puck2_main-processor/src/aseba_vm/aseba_node.h"
 1512              		.file 60 "../lib/e-puck2_main-processor/src/sensors/mpu9250.h"
 1513              		.file 61 "../lib/e-puck2_main-processor/src/leds.h"
 1514              		.file 62 "../lib/e-puck2_main-processor/src/aseba_vm/skel_user.h"
 1515              		.file 63 "../lib/e-puck2_main-processor/aseba/common/productids.h"
 1516              		.file 64 "../lib/e-puck2_main-processor/ChibiOS_ext/os/hal/include/../ports/STM32/STM32F4xx/dcmi_l
 1517              		.file 65 "c:\\users\\pchautems\\documents\\robotiquetp\\eclipse_e-puck2\\tools\\gcc-arm-none-eabi-
 1518              		.file 66 "../lib/e-puck2_main-processor/src/msgbus/messagebus.h"
 1519              		.file 67 "./main.h"