ARM GAS  C:\Users\PCHAUT~1\AppData\Local\Temp\ccbA1O25.s 			page 1


   1              		.cpu cortex-m4
   2              		.eabi_attribute 27, 1
   3              		.eabi_attribute 28, 1
   4              		.eabi_attribute 20, 1
   5              		.eabi_attribute 21, 1
   6              		.eabi_attribute 23, 3
   7              		.eabi_attribute 24, 1
   8              		.eabi_attribute 25, 1
   9              		.eabi_attribute 26, 1
  10              		.eabi_attribute 30, 6
  11              		.eabi_attribute 34, 1
  12              		.eabi_attribute 18, 4
  13              		.file	"spi3_slave_lld.c"
  14              		.text
  15              	.Ltext0:
  16              		.cfi_sections	.debug_frame
  17              		.section	.text.port_lock,"ax",%progbits
  18              		.align	1
  19              		.p2align 4,,15
  20              		.syntax unified
  21              		.thumb
  22              		.thumb_func
  23              		.fpu fpv4-sp-d16
  24              		.type	port_lock, %function
  25              	port_lock:
  26              	.LFB116:
  27              		.file 1 "../lib/e-puck2_main-processor/ChibiOS//os/rt/ports/ARMCMx/chcore_v7m.h"
  28              		.loc 1 444 0
  29              		.cfi_startproc
  30              		@ args = 0, pretend = 0, frame = 8
  31              		@ frame_needed = 0, uses_anonymous_args = 0
  32 0000 00B5     		push	{lr}
  33              		.cfi_def_cfa_offset 4
  34              		.cfi_offset 14, -4
  35 0002 83B0     		sub	sp, sp, #12
  36              		.cfi_def_cfa_offset 16
  37              		.loc 1 444 0
  38 0004 094B     		ldr	r3, .L3
  39 0006 1B68     		ldr	r3, [r3]
  40 0008 0193     		str	r3, [sp, #4]
  41 000a 2023     		movs	r3, #32
  42 000c 0093     		str	r3, [sp]
  43              	.LBB6:
  44              	.LBB7:
  45              		.file 2 "../lib/e-puck2_main-processor/ChibiOS//os/ext/CMSIS/include/core_cmFunc.h"
  46              		.loc 2 546 0
  47 000e 009B     		ldr	r3, [sp]
  48              		.syntax unified
  49              	@ 546 "../lib/e-puck2_main-processor/ChibiOS//os/ext/CMSIS/include/core_cmFunc.h" 1
  50 0010 83F31188 		MSR basepri, r3
  51              	@ 0 "" 2
  52              		.thumb
  53              		.syntax unified
  54              	.LBE7:
  55              	.LBE6:
  56              		.loc 1 451 0
  57 0014 00BF     		nop
ARM GAS  C:\Users\PCHAUT~1\AppData\Local\Temp\ccbA1O25.s 			page 2


  58 0016 054B     		ldr	r3, .L3
  59 0018 019A     		ldr	r2, [sp, #4]
  60 001a 1B68     		ldr	r3, [r3]
  61 001c 9A42     		cmp	r2, r3
  62 001e 01D0     		beq	.L2
  63 0020 FFF7FEFF 		bl	__stack_chk_fail
  64              	.L2:
  65 0024 03B0     		add	sp, sp, #12
  66              		.cfi_def_cfa_offset 4
  67              		@ sp needed
  68 0026 5DF804FB 		ldr	pc, [sp], #4
  69              	.L4:
  70 002a 00BF     		.align	2
  71              	.L3:
  72 002c 00000000 		.word	__stack_chk_guard
  73              		.cfi_endproc
  74              	.LFE116:
  75              		.size	port_lock, .-port_lock
  76              		.section	.text.port_unlock,"ax",%progbits
  77              		.align	1
  78              		.p2align 4,,15
  79              		.syntax unified
  80              		.thumb
  81              		.thumb_func
  82              		.fpu fpv4-sp-d16
  83              		.type	port_unlock, %function
  84              	port_unlock:
  85              	.LFB117:
  86              		.loc 1 458 0
  87              		.cfi_startproc
  88              		@ args = 0, pretend = 0, frame = 8
  89              		@ frame_needed = 0, uses_anonymous_args = 0
  90 0000 00B5     		push	{lr}
  91              		.cfi_def_cfa_offset 4
  92              		.cfi_offset 14, -4
  93 0002 83B0     		sub	sp, sp, #12
  94              		.cfi_def_cfa_offset 16
  95              		.loc 1 458 0
  96 0004 094B     		ldr	r3, .L7
  97 0006 1B68     		ldr	r3, [r3]
  98 0008 0193     		str	r3, [sp, #4]
  99 000a 0023     		movs	r3, #0
 100 000c 0093     		str	r3, [sp]
 101              	.LBB8:
 102              	.LBB9:
 103              		.loc 2 546 0
 104 000e 009B     		ldr	r3, [sp]
 105              		.syntax unified
 106              	@ 546 "../lib/e-puck2_main-processor/ChibiOS//os/ext/CMSIS/include/core_cmFunc.h" 1
 107 0010 83F31188 		MSR basepri, r3
 108              	@ 0 "" 2
 109              		.thumb
 110              		.syntax unified
 111              	.LBE9:
 112              	.LBE8:
 113              		.loc 1 465 0
 114 0014 00BF     		nop
ARM GAS  C:\Users\PCHAUT~1\AppData\Local\Temp\ccbA1O25.s 			page 3


 115 0016 054B     		ldr	r3, .L7
 116 0018 019A     		ldr	r2, [sp, #4]
 117 001a 1B68     		ldr	r3, [r3]
 118 001c 9A42     		cmp	r2, r3
 119 001e 01D0     		beq	.L6
 120 0020 FFF7FEFF 		bl	__stack_chk_fail
 121              	.L6:
 122 0024 03B0     		add	sp, sp, #12
 123              		.cfi_def_cfa_offset 4
 124              		@ sp needed
 125 0026 5DF804FB 		ldr	pc, [sp], #4
 126              	.L8:
 127 002a 00BF     		.align	2
 128              	.L7:
 129 002c 00000000 		.word	__stack_chk_guard
 130              		.cfi_endproc
 131              	.LFE117:
 132              		.size	port_unlock, .-port_unlock
 133              		.section	.text.port_lock_from_isr,"ax",%progbits
 134              		.align	1
 135              		.p2align 4,,15
 136              		.syntax unified
 137              		.thumb
 138              		.thumb_func
 139              		.fpu fpv4-sp-d16
 140              		.type	port_lock_from_isr, %function
 141              	port_lock_from_isr:
 142              	.LFB118:
 143              		.loc 1 473 0
 144              		.cfi_startproc
 145              		@ args = 0, pretend = 0, frame = 8
 146              		@ frame_needed = 0, uses_anonymous_args = 0
 147 0000 00B5     		push	{lr}
 148              		.cfi_def_cfa_offset 4
 149              		.cfi_offset 14, -4
 150 0002 83B0     		sub	sp, sp, #12
 151              		.cfi_def_cfa_offset 16
 152              		.loc 1 473 0
 153 0004 074B     		ldr	r3, .L11
 154 0006 1B68     		ldr	r3, [r3]
 155 0008 0193     		str	r3, [sp, #4]
 156              		.loc 1 475 0
 157 000a FFF7FEFF 		bl	port_lock
 158              		.loc 1 476 0
 159 000e 00BF     		nop
 160 0010 044B     		ldr	r3, .L11
 161 0012 019A     		ldr	r2, [sp, #4]
 162 0014 1B68     		ldr	r3, [r3]
 163 0016 9A42     		cmp	r2, r3
 164 0018 01D0     		beq	.L10
 165 001a FFF7FEFF 		bl	__stack_chk_fail
 166              	.L10:
 167 001e 03B0     		add	sp, sp, #12
 168              		.cfi_def_cfa_offset 4
 169              		@ sp needed
 170 0020 5DF804FB 		ldr	pc, [sp], #4
 171              	.L12:
ARM GAS  C:\Users\PCHAUT~1\AppData\Local\Temp\ccbA1O25.s 			page 4


 172              		.align	2
 173              	.L11:
 174 0024 00000000 		.word	__stack_chk_guard
 175              		.cfi_endproc
 176              	.LFE118:
 177              		.size	port_lock_from_isr, .-port_lock_from_isr
 178              		.section	.text.port_unlock_from_isr,"ax",%progbits
 179              		.align	1
 180              		.p2align 4,,15
 181              		.syntax unified
 182              		.thumb
 183              		.thumb_func
 184              		.fpu fpv4-sp-d16
 185              		.type	port_unlock_from_isr, %function
 186              	port_unlock_from_isr:
 187              	.LFB119:
 188              		.loc 1 484 0
 189              		.cfi_startproc
 190              		@ args = 0, pretend = 0, frame = 8
 191              		@ frame_needed = 0, uses_anonymous_args = 0
 192 0000 00B5     		push	{lr}
 193              		.cfi_def_cfa_offset 4
 194              		.cfi_offset 14, -4
 195 0002 83B0     		sub	sp, sp, #12
 196              		.cfi_def_cfa_offset 16
 197              		.loc 1 484 0
 198 0004 074B     		ldr	r3, .L15
 199 0006 1B68     		ldr	r3, [r3]
 200 0008 0193     		str	r3, [sp, #4]
 201              		.loc 1 486 0
 202 000a FFF7FEFF 		bl	port_unlock
 203              		.loc 1 487 0
 204 000e 00BF     		nop
 205 0010 044B     		ldr	r3, .L15
 206 0012 019A     		ldr	r2, [sp, #4]
 207 0014 1B68     		ldr	r3, [r3]
 208 0016 9A42     		cmp	r2, r3
 209 0018 01D0     		beq	.L14
 210 001a FFF7FEFF 		bl	__stack_chk_fail
 211              	.L14:
 212 001e 03B0     		add	sp, sp, #12
 213              		.cfi_def_cfa_offset 4
 214              		@ sp needed
 215 0020 5DF804FB 		ldr	pc, [sp], #4
 216              	.L16:
 217              		.align	2
 218              	.L15:
 219 0024 00000000 		.word	__stack_chk_guard
 220              		.cfi_endproc
 221              	.LFE119:
 222              		.size	port_unlock_from_isr, .-port_unlock_from_isr
 223              		.section	.text.chSysLockFromISR,"ax",%progbits
 224              		.align	1
 225              		.p2align 4,,15
 226              		.syntax unified
 227              		.thumb
 228              		.thumb_func
ARM GAS  C:\Users\PCHAUT~1\AppData\Local\Temp\ccbA1O25.s 			page 5


 229              		.fpu fpv4-sp-d16
 230              		.type	chSysLockFromISR, %function
 231              	chSysLockFromISR:
 232              	.LFB147:
 233              		.file 3 "../lib/e-puck2_main-processor/ChibiOS//os/rt/include/chsys.h"
 234              		.loc 3 386 0
 235              		.cfi_startproc
 236              		@ args = 0, pretend = 0, frame = 8
 237              		@ frame_needed = 0, uses_anonymous_args = 0
 238 0000 00B5     		push	{lr}
 239              		.cfi_def_cfa_offset 4
 240              		.cfi_offset 14, -4
 241 0002 83B0     		sub	sp, sp, #12
 242              		.cfi_def_cfa_offset 16
 243              		.loc 3 386 0
 244 0004 094B     		ldr	r3, .L19
 245 0006 1B68     		ldr	r3, [r3]
 246 0008 0193     		str	r3, [sp, #4]
 247              		.loc 3 388 0
 248 000a FFF7FEFF 		bl	port_lock_from_isr
 249              		.loc 3 389 0
 250 000e FFF7FEFF 		bl	_stats_start_measure_crit_isr
 251              		.loc 3 390 0
 252 0012 FFF7FEFF 		bl	_dbg_check_lock_from_isr
 253              		.loc 3 391 0
 254 0016 00BF     		nop
 255 0018 044B     		ldr	r3, .L19
 256 001a 019A     		ldr	r2, [sp, #4]
 257 001c 1B68     		ldr	r3, [r3]
 258 001e 9A42     		cmp	r2, r3
 259 0020 01D0     		beq	.L18
 260 0022 FFF7FEFF 		bl	__stack_chk_fail
 261              	.L18:
 262 0026 03B0     		add	sp, sp, #12
 263              		.cfi_def_cfa_offset 4
 264              		@ sp needed
 265 0028 5DF804FB 		ldr	pc, [sp], #4
 266              	.L20:
 267              		.align	2
 268              	.L19:
 269 002c 00000000 		.word	__stack_chk_guard
 270              		.cfi_endproc
 271              	.LFE147:
 272              		.size	chSysLockFromISR, .-chSysLockFromISR
 273              		.section	.text.chSysUnlockFromISR,"ax",%progbits
 274              		.align	1
 275              		.p2align 4,,15
 276              		.syntax unified
 277              		.thumb
 278              		.thumb_func
 279              		.fpu fpv4-sp-d16
 280              		.type	chSysUnlockFromISR, %function
 281              	chSysUnlockFromISR:
 282              	.LFB148:
 283              		.loc 3 406 0
 284              		.cfi_startproc
 285              		@ args = 0, pretend = 0, frame = 8
ARM GAS  C:\Users\PCHAUT~1\AppData\Local\Temp\ccbA1O25.s 			page 6


 286              		@ frame_needed = 0, uses_anonymous_args = 0
 287 0000 00B5     		push	{lr}
 288              		.cfi_def_cfa_offset 4
 289              		.cfi_offset 14, -4
 290 0002 83B0     		sub	sp, sp, #12
 291              		.cfi_def_cfa_offset 16
 292              		.loc 3 406 0
 293 0004 094B     		ldr	r3, .L23
 294 0006 1B68     		ldr	r3, [r3]
 295 0008 0193     		str	r3, [sp, #4]
 296              		.loc 3 408 0
 297 000a FFF7FEFF 		bl	_dbg_check_unlock_from_isr
 298              		.loc 3 409 0
 299 000e FFF7FEFF 		bl	_stats_stop_measure_crit_isr
 300              		.loc 3 410 0
 301 0012 FFF7FEFF 		bl	port_unlock_from_isr
 302              		.loc 3 411 0
 303 0016 00BF     		nop
 304 0018 044B     		ldr	r3, .L23
 305 001a 019A     		ldr	r2, [sp, #4]
 306 001c 1B68     		ldr	r3, [r3]
 307 001e 9A42     		cmp	r2, r3
 308 0020 01D0     		beq	.L22
 309 0022 FFF7FEFF 		bl	__stack_chk_fail
 310              	.L22:
 311 0026 03B0     		add	sp, sp, #12
 312              		.cfi_def_cfa_offset 4
 313              		@ sp needed
 314 0028 5DF804FB 		ldr	pc, [sp], #4
 315              	.L24:
 316              		.align	2
 317              	.L23:
 318 002c 00000000 		.word	__stack_chk_guard
 319              		.cfi_endproc
 320              	.LFE148:
 321              		.size	chSysUnlockFromISR, .-chSysUnlockFromISR
 322              		.section	.text.osalSysHalt,"ax",%progbits
 323              		.align	1
 324              		.p2align 4,,15
 325              		.syntax unified
 326              		.thumb
 327              		.thumb_func
 328              		.fpu fpv4-sp-d16
 329              		.type	osalSysHalt, %function
 330              	osalSysHalt:
 331              	.LFB220:
 332              		.file 4 "../lib/e-puck2_main-processor/ChibiOS//os/hal/osal/rt/osal.h"
 333              		.loc 4 414 0
 334              		.cfi_startproc
 335              		@ args = 0, pretend = 0, frame = 16
 336              		@ frame_needed = 0, uses_anonymous_args = 0
 337 0000 00B5     		push	{lr}
 338              		.cfi_def_cfa_offset 4
 339              		.cfi_offset 14, -4
 340 0002 85B0     		sub	sp, sp, #20
 341              		.cfi_def_cfa_offset 24
 342 0004 0190     		str	r0, [sp, #4]
ARM GAS  C:\Users\PCHAUT~1\AppData\Local\Temp\ccbA1O25.s 			page 7


 343              		.loc 4 414 0
 344 0006 084B     		ldr	r3, .L27
 345 0008 1B68     		ldr	r3, [r3]
 346 000a 0393     		str	r3, [sp, #12]
 347              		.loc 4 416 0
 348 000c 0198     		ldr	r0, [sp, #4]
 349 000e FFF7FEFF 		bl	chSysHalt
 350              		.loc 4 417 0
 351 0012 00BF     		nop
 352 0014 044B     		ldr	r3, .L27
 353 0016 039A     		ldr	r2, [sp, #12]
 354 0018 1B68     		ldr	r3, [r3]
 355 001a 9A42     		cmp	r2, r3
 356 001c 01D0     		beq	.L26
 357 001e FFF7FEFF 		bl	__stack_chk_fail
 358              	.L26:
 359 0022 05B0     		add	sp, sp, #20
 360              		.cfi_def_cfa_offset 4
 361              		@ sp needed
 362 0024 5DF804FB 		ldr	pc, [sp], #4
 363              	.L28:
 364              		.align	2
 365              	.L27:
 366 0028 00000000 		.word	__stack_chk_guard
 367              		.cfi_endproc
 368              	.LFE220:
 369              		.size	osalSysHalt, .-osalSysHalt
 370              		.section	.text.osalSysLockFromISR,"ax",%progbits
 371              		.align	1
 372              		.p2align 4,,15
 373              		.syntax unified
 374              		.thumb
 375              		.thumb_func
 376              		.fpu fpv4-sp-d16
 377              		.type	osalSysLockFromISR, %function
 378              	osalSysLockFromISR:
 379              	.LFB225:
 380              		.loc 4 467 0
 381              		.cfi_startproc
 382              		@ args = 0, pretend = 0, frame = 8
 383              		@ frame_needed = 0, uses_anonymous_args = 0
 384 0000 00B5     		push	{lr}
 385              		.cfi_def_cfa_offset 4
 386              		.cfi_offset 14, -4
 387 0002 83B0     		sub	sp, sp, #12
 388              		.cfi_def_cfa_offset 16
 389              		.loc 4 467 0
 390 0004 074B     		ldr	r3, .L31
 391 0006 1B68     		ldr	r3, [r3]
 392 0008 0193     		str	r3, [sp, #4]
 393              		.loc 4 469 0
 394 000a FFF7FEFF 		bl	chSysLockFromISR
 395              		.loc 4 470 0
 396 000e 00BF     		nop
 397 0010 044B     		ldr	r3, .L31
 398 0012 019A     		ldr	r2, [sp, #4]
 399 0014 1B68     		ldr	r3, [r3]
ARM GAS  C:\Users\PCHAUT~1\AppData\Local\Temp\ccbA1O25.s 			page 8


 400 0016 9A42     		cmp	r2, r3
 401 0018 01D0     		beq	.L30
 402 001a FFF7FEFF 		bl	__stack_chk_fail
 403              	.L30:
 404 001e 03B0     		add	sp, sp, #12
 405              		.cfi_def_cfa_offset 4
 406              		@ sp needed
 407 0020 5DF804FB 		ldr	pc, [sp], #4
 408              	.L32:
 409              		.align	2
 410              	.L31:
 411 0024 00000000 		.word	__stack_chk_guard
 412              		.cfi_endproc
 413              	.LFE225:
 414              		.size	osalSysLockFromISR, .-osalSysLockFromISR
 415              		.section	.text.osalSysUnlockFromISR,"ax",%progbits
 416              		.align	1
 417              		.p2align 4,,15
 418              		.syntax unified
 419              		.thumb
 420              		.thumb_func
 421              		.fpu fpv4-sp-d16
 422              		.type	osalSysUnlockFromISR, %function
 423              	osalSysUnlockFromISR:
 424              	.LFB226:
 425              		.loc 4 478 0
 426              		.cfi_startproc
 427              		@ args = 0, pretend = 0, frame = 8
 428              		@ frame_needed = 0, uses_anonymous_args = 0
 429 0000 00B5     		push	{lr}
 430              		.cfi_def_cfa_offset 4
 431              		.cfi_offset 14, -4
 432 0002 83B0     		sub	sp, sp, #12
 433              		.cfi_def_cfa_offset 16
 434              		.loc 4 478 0
 435 0004 074B     		ldr	r3, .L35
 436 0006 1B68     		ldr	r3, [r3]
 437 0008 0193     		str	r3, [sp, #4]
 438              		.loc 4 480 0
 439 000a FFF7FEFF 		bl	chSysUnlockFromISR
 440              		.loc 4 481 0
 441 000e 00BF     		nop
 442 0010 044B     		ldr	r3, .L35
 443 0012 019A     		ldr	r2, [sp, #4]
 444 0014 1B68     		ldr	r3, [r3]
 445 0016 9A42     		cmp	r2, r3
 446 0018 01D0     		beq	.L34
 447 001a FFF7FEFF 		bl	__stack_chk_fail
 448              	.L34:
 449 001e 03B0     		add	sp, sp, #12
 450              		.cfi_def_cfa_offset 4
 451              		@ sp needed
 452 0020 5DF804FB 		ldr	pc, [sp], #4
 453              	.L36:
 454              		.align	2
 455              	.L35:
 456 0024 00000000 		.word	__stack_chk_guard
ARM GAS  C:\Users\PCHAUT~1\AppData\Local\Temp\ccbA1O25.s 			page 9


 457              		.cfi_endproc
 458              	.LFE226:
 459              		.size	osalSysUnlockFromISR, .-osalSysUnlockFromISR
 460              		.section	.text.osalThreadResumeI,"ax",%progbits
 461              		.align	1
 462              		.p2align 4,,15
 463              		.syntax unified
 464              		.thumb
 465              		.thumb_func
 466              		.fpu fpv4-sp-d16
 467              		.type	osalThreadResumeI, %function
 468              	osalThreadResumeI:
 469              	.LFB238:
 470              		.loc 4 680 0
 471              		.cfi_startproc
 472              		@ args = 0, pretend = 0, frame = 16
 473              		@ frame_needed = 0, uses_anonymous_args = 0
 474 0000 00B5     		push	{lr}
 475              		.cfi_def_cfa_offset 4
 476              		.cfi_offset 14, -4
 477 0002 85B0     		sub	sp, sp, #20
 478              		.cfi_def_cfa_offset 24
 479 0004 0190     		str	r0, [sp, #4]
 480 0006 0091     		str	r1, [sp]
 481              		.loc 4 680 0
 482 0008 084B     		ldr	r3, .L39
 483 000a 1B68     		ldr	r3, [r3]
 484 000c 0393     		str	r3, [sp, #12]
 485              		.loc 4 682 0
 486 000e 0099     		ldr	r1, [sp]
 487 0010 0198     		ldr	r0, [sp, #4]
 488 0012 FFF7FEFF 		bl	chThdResumeI
 489              		.loc 4 683 0
 490 0016 00BF     		nop
 491 0018 044B     		ldr	r3, .L39
 492 001a 039A     		ldr	r2, [sp, #12]
 493 001c 1B68     		ldr	r3, [r3]
 494 001e 9A42     		cmp	r2, r3
 495 0020 01D0     		beq	.L38
 496 0022 FFF7FEFF 		bl	__stack_chk_fail
 497              	.L38:
 498 0026 05B0     		add	sp, sp, #20
 499              		.cfi_def_cfa_offset 4
 500              		@ sp needed
 501 0028 5DF804FB 		ldr	pc, [sp], #4
 502              	.L40:
 503              		.align	2
 504              	.L39:
 505 002c 00000000 		.word	__stack_chk_guard
 506              		.cfi_endproc
 507              	.LFE238:
 508              		.size	osalThreadResumeI, .-osalThreadResumeI
 509              		.section	.bss.dummytx,"aw",%nobits
 510              		.align	1
 511              		.type	dummytx, %object
 512              		.size	dummytx, 2
 513              	dummytx:
ARM GAS  C:\Users\PCHAUT~1\AppData\Local\Temp\ccbA1O25.s 			page 10


 514 0000 0000     		.space	2
 515              		.section	.bss.dummyrx,"aw",%nobits
 516              		.align	1
 517              		.type	dummyrx, %object
 518              		.size	dummyrx, 2
 519              	dummyrx:
 520 0000 0000     		.space	2
 521              		.section	.rodata
 522              		.align	2
 523              	.LC0:
 524 0000 444D4120 		.ascii	"DMA failure\000"
 524      6661696C 
 524      75726500 
 525              		.section	.text.spi3_slave_lld_serve_rx_interrupt,"ax",%progbits
 526              		.align	1
 527              		.p2align 4,,15
 528              		.syntax unified
 529              		.thumb
 530              		.thumb_func
 531              		.fpu fpv4-sp-d16
 532              		.type	spi3_slave_lld_serve_rx_interrupt, %function
 533              	spi3_slave_lld_serve_rx_interrupt:
 534              	.LFB256:
 535              		.file 5 "../lib/e-puck2_main-processor/ChibiOS_ext/os/hal/ports/STM32/LLD/SPIv1/spi3_slave_lld.c"
 536              		.loc 5 62 0
 537              		.cfi_startproc
 538              		@ args = 0, pretend = 0, frame = 16
 539              		@ frame_needed = 0, uses_anonymous_args = 0
 540 0000 00B5     		push	{lr}
 541              		.cfi_def_cfa_offset 4
 542              		.cfi_offset 14, -4
 543 0002 85B0     		sub	sp, sp, #20
 544              		.cfi_def_cfa_offset 24
 545 0004 0190     		str	r0, [sp, #4]
 546 0006 0091     		str	r1, [sp]
 547              		.loc 5 62 0
 548 0008 2C4B     		ldr	r3, .L50
 549 000a 1B68     		ldr	r3, [r3]
 550 000c 0393     		str	r3, [sp, #12]
 551              		.loc 5 66 0
 552 000e 009B     		ldr	r3, [sp]
 553 0010 03F00C03 		and	r3, r3, #12
 554 0014 002B     		cmp	r3, #0
 555 0016 02D0     		beq	.L42
 556              		.loc 5 67 0
 557 0018 2948     		ldr	r0, .L50+4
 558 001a FFF7FEFF 		bl	osalSysHalt
 559              	.L42:
 560              		.loc 5 75 0
 561 001e 009B     		ldr	r3, [sp]
 562 0020 03F02003 		and	r3, r3, #32
 563 0024 002B     		cmp	r3, #0
 564 0026 2AD0     		beq	.L43
 565              		.loc 5 77 0
 566 0028 019B     		ldr	r3, [sp, #4]
 567 002a 5B68     		ldr	r3, [r3, #4]
 568 002c 1B68     		ldr	r3, [r3]
ARM GAS  C:\Users\PCHAUT~1\AppData\Local\Temp\ccbA1O25.s 			page 11


 569 002e 002B     		cmp	r3, #0
 570 0030 17D0     		beq	.L44
 571              		.loc 5 77 0 is_stmt 0 discriminator 1
 572 0032 019B     		ldr	r3, [sp, #4]
 573 0034 0422     		movs	r2, #4
 574 0036 1A70     		strb	r2, [r3]
 575 0038 019B     		ldr	r3, [sp, #4]
 576 003a 5B68     		ldr	r3, [r3, #4]
 577 003c 1B68     		ldr	r3, [r3]
 578 003e 019A     		ldr	r2, [sp, #4]
 579 0040 5268     		ldr	r2, [r2, #4]
 580 0042 D268     		ldr	r2, [r2, #12]
 581 0044 5108     		lsrs	r1, r2, #1
 582 0046 019A     		ldr	r2, [sp, #4]
 583 0048 5268     		ldr	r2, [r2, #4]
 584 004a D268     		ldr	r2, [r2, #12]
 585 004c 5208     		lsrs	r2, r2, #1
 586 004e 0198     		ldr	r0, [sp, #4]
 587 0050 9847     		blx	r3
 588              	.LVL0:
 589 0052 019B     		ldr	r3, [sp, #4]
 590 0054 1B78     		ldrb	r3, [r3]	@ zero_extendqisi2
 591 0056 042B     		cmp	r3, #4
 592 0058 06D1     		bne	.L46
 593              		.loc 5 77 0 discriminator 3
 594 005a 019B     		ldr	r3, [sp, #4]
 595 005c 0222     		movs	r2, #2
 596 005e 1A70     		strb	r2, [r3]
 597 0060 02E0     		b	.L46
 598              	.L44:
 599              		.loc 5 77 0 discriminator 2
 600 0062 019B     		ldr	r3, [sp, #4]
 601 0064 0222     		movs	r2, #2
 602 0066 1A70     		strb	r2, [r3]
 603              	.L46:
 604              		.loc 5 77 0 discriminator 4
 605 0068 FFF7FEFF 		bl	osalSysLockFromISR
 606 006c 019B     		ldr	r3, [sp, #4]
 607 006e 0833     		adds	r3, r3, #8
 608 0070 0021     		movs	r1, #0
 609 0072 1846     		mov	r0, r3
 610 0074 FFF7FEFF 		bl	osalThreadResumeI
 611 0078 FFF7FEFF 		bl	osalSysUnlockFromISR
 612              		.loc 5 84 0 is_stmt 1 discriminator 4
 613 007c 13E0     		b	.L49
 614              	.L43:
 615              		.loc 5 79 0
 616 007e 009B     		ldr	r3, [sp]
 617 0080 03F01003 		and	r3, r3, #16
 618 0084 002B     		cmp	r3, #0
 619 0086 0ED0     		beq	.L49
 620              		.loc 5 81 0
 621 0088 019B     		ldr	r3, [sp, #4]
 622 008a 5B68     		ldr	r3, [r3, #4]
 623 008c 1B68     		ldr	r3, [r3]
 624 008e 002B     		cmp	r3, #0
 625 0090 09D0     		beq	.L49
ARM GAS  C:\Users\PCHAUT~1\AppData\Local\Temp\ccbA1O25.s 			page 12


 626              		.loc 5 81 0 is_stmt 0 discriminator 1
 627 0092 019B     		ldr	r3, [sp, #4]
 628 0094 5B68     		ldr	r3, [r3, #4]
 629 0096 1B68     		ldr	r3, [r3]
 630 0098 019A     		ldr	r2, [sp, #4]
 631 009a 5268     		ldr	r2, [r2, #4]
 632 009c D268     		ldr	r2, [r2, #12]
 633 009e 5208     		lsrs	r2, r2, #1
 634 00a0 0021     		movs	r1, #0
 635 00a2 0198     		ldr	r0, [sp, #4]
 636 00a4 9847     		blx	r3
 637              	.LVL1:
 638              	.L49:
 639              		.loc 5 84 0 is_stmt 1
 640 00a6 00BF     		nop
 641 00a8 044B     		ldr	r3, .L50
 642 00aa 039A     		ldr	r2, [sp, #12]
 643 00ac 1B68     		ldr	r3, [r3]
 644 00ae 9A42     		cmp	r2, r3
 645 00b0 01D0     		beq	.L48
 646 00b2 FFF7FEFF 		bl	__stack_chk_fail
 647              	.L48:
 648 00b6 05B0     		add	sp, sp, #20
 649              		.cfi_def_cfa_offset 4
 650              		@ sp needed
 651 00b8 5DF804FB 		ldr	pc, [sp], #4
 652              	.L51:
 653              		.align	2
 654              	.L50:
 655 00bc 00000000 		.word	__stack_chk_guard
 656 00c0 00000000 		.word	.LC0
 657              		.cfi_endproc
 658              	.LFE256:
 659              		.size	spi3_slave_lld_serve_rx_interrupt, .-spi3_slave_lld_serve_rx_interrupt
 660              		.section	.text.spi3_slave_lld_serve_tx_interrupt,"ax",%progbits
 661              		.align	1
 662              		.p2align 4,,15
 663              		.syntax unified
 664              		.thumb
 665              		.thumb_func
 666              		.fpu fpv4-sp-d16
 667              		.type	spi3_slave_lld_serve_tx_interrupt, %function
 668              	spi3_slave_lld_serve_tx_interrupt:
 669              	.LFB257:
 670              		.loc 5 92 0
 671              		.cfi_startproc
 672              		@ args = 0, pretend = 0, frame = 16
 673              		@ frame_needed = 0, uses_anonymous_args = 0
 674 0000 00B5     		push	{lr}
 675              		.cfi_def_cfa_offset 4
 676              		.cfi_offset 14, -4
 677 0002 85B0     		sub	sp, sp, #20
 678              		.cfi_def_cfa_offset 24
 679 0004 0190     		str	r0, [sp, #4]
 680 0006 0091     		str	r1, [sp]
 681              		.loc 5 92 0
 682 0008 2C4B     		ldr	r3, .L61
ARM GAS  C:\Users\PCHAUT~1\AppData\Local\Temp\ccbA1O25.s 			page 13


 683 000a 1B68     		ldr	r3, [r3]
 684 000c 0393     		str	r3, [sp, #12]
 685              		.loc 5 97 0
 686 000e 009B     		ldr	r3, [sp]
 687 0010 03F00C03 		and	r3, r3, #12
 688 0014 002B     		cmp	r3, #0
 689 0016 02D0     		beq	.L53
 690              		.loc 5 98 0
 691 0018 2948     		ldr	r0, .L61+4
 692 001a FFF7FEFF 		bl	osalSysHalt
 693              	.L53:
 694              		.loc 5 107 0
 695 001e 009B     		ldr	r3, [sp]
 696 0020 03F02003 		and	r3, r3, #32
 697 0024 002B     		cmp	r3, #0
 698 0026 2AD0     		beq	.L54
 699              		.loc 5 109 0
 700 0028 019B     		ldr	r3, [sp, #4]
 701 002a 5B68     		ldr	r3, [r3, #4]
 702 002c 1B68     		ldr	r3, [r3]
 703 002e 002B     		cmp	r3, #0
 704 0030 17D0     		beq	.L55
 705              		.loc 5 109 0 is_stmt 0 discriminator 1
 706 0032 019B     		ldr	r3, [sp, #4]
 707 0034 0422     		movs	r2, #4
 708 0036 1A70     		strb	r2, [r3]
 709 0038 019B     		ldr	r3, [sp, #4]
 710 003a 5B68     		ldr	r3, [r3, #4]
 711 003c 1B68     		ldr	r3, [r3]
 712 003e 019A     		ldr	r2, [sp, #4]
 713 0040 5268     		ldr	r2, [r2, #4]
 714 0042 D268     		ldr	r2, [r2, #12]
 715 0044 5108     		lsrs	r1, r2, #1
 716 0046 019A     		ldr	r2, [sp, #4]
 717 0048 5268     		ldr	r2, [r2, #4]
 718 004a D268     		ldr	r2, [r2, #12]
 719 004c 5208     		lsrs	r2, r2, #1
 720 004e 0198     		ldr	r0, [sp, #4]
 721 0050 9847     		blx	r3
 722              	.LVL2:
 723 0052 019B     		ldr	r3, [sp, #4]
 724 0054 1B78     		ldrb	r3, [r3]	@ zero_extendqisi2
 725 0056 042B     		cmp	r3, #4
 726 0058 06D1     		bne	.L57
 727              		.loc 5 109 0 discriminator 3
 728 005a 019B     		ldr	r3, [sp, #4]
 729 005c 0222     		movs	r2, #2
 730 005e 1A70     		strb	r2, [r3]
 731 0060 02E0     		b	.L57
 732              	.L55:
 733              		.loc 5 109 0 discriminator 2
 734 0062 019B     		ldr	r3, [sp, #4]
 735 0064 0222     		movs	r2, #2
 736 0066 1A70     		strb	r2, [r3]
 737              	.L57:
 738              		.loc 5 109 0 discriminator 4
 739 0068 FFF7FEFF 		bl	osalSysLockFromISR
ARM GAS  C:\Users\PCHAUT~1\AppData\Local\Temp\ccbA1O25.s 			page 14


 740 006c 019B     		ldr	r3, [sp, #4]
 741 006e 0833     		adds	r3, r3, #8
 742 0070 0021     		movs	r1, #0
 743 0072 1846     		mov	r0, r3
 744 0074 FFF7FEFF 		bl	osalThreadResumeI
 745 0078 FFF7FEFF 		bl	osalSysUnlockFromISR
 746              		.loc 5 115 0 is_stmt 1 discriminator 4
 747 007c 13E0     		b	.L60
 748              	.L54:
 749              		.loc 5 111 0
 750 007e 009B     		ldr	r3, [sp]
 751 0080 03F01003 		and	r3, r3, #16
 752 0084 002B     		cmp	r3, #0
 753 0086 0ED0     		beq	.L60
 754              		.loc 5 113 0
 755 0088 019B     		ldr	r3, [sp, #4]
 756 008a 5B68     		ldr	r3, [r3, #4]
 757 008c 1B68     		ldr	r3, [r3]
 758 008e 002B     		cmp	r3, #0
 759 0090 09D0     		beq	.L60
 760              		.loc 5 113 0 is_stmt 0 discriminator 1
 761 0092 019B     		ldr	r3, [sp, #4]
 762 0094 5B68     		ldr	r3, [r3, #4]
 763 0096 1B68     		ldr	r3, [r3]
 764 0098 019A     		ldr	r2, [sp, #4]
 765 009a 5268     		ldr	r2, [r2, #4]
 766 009c D268     		ldr	r2, [r2, #12]
 767 009e 5208     		lsrs	r2, r2, #1
 768 00a0 0021     		movs	r1, #0
 769 00a2 0198     		ldr	r0, [sp, #4]
 770 00a4 9847     		blx	r3
 771              	.LVL3:
 772              	.L60:
 773              		.loc 5 115 0 is_stmt 1
 774 00a6 00BF     		nop
 775 00a8 044B     		ldr	r3, .L61
 776 00aa 039A     		ldr	r2, [sp, #12]
 777 00ac 1B68     		ldr	r3, [r3]
 778 00ae 9A42     		cmp	r2, r3
 779 00b0 01D0     		beq	.L59
 780 00b2 FFF7FEFF 		bl	__stack_chk_fail
 781              	.L59:
 782 00b6 05B0     		add	sp, sp, #20
 783              		.cfi_def_cfa_offset 4
 784              		@ sp needed
 785 00b8 5DF804FB 		ldr	pc, [sp], #4
 786              	.L62:
 787              		.align	2
 788              	.L61:
 789 00bc 00000000 		.word	__stack_chk_guard
 790 00c0 00000000 		.word	.LC0
 791              		.cfi_endproc
 792              	.LFE257:
 793              		.size	spi3_slave_lld_serve_tx_interrupt, .-spi3_slave_lld_serve_tx_interrupt
 794              		.section	.text.spi3_slave_lld_init,"ax",%progbits
 795              		.align	1
 796              		.p2align 4,,15
ARM GAS  C:\Users\PCHAUT~1\AppData\Local\Temp\ccbA1O25.s 			page 15


 797              		.global	spi3_slave_lld_init
 798              		.syntax unified
 799              		.thumb
 800              		.thumb_func
 801              		.fpu fpv4-sp-d16
 802              		.type	spi3_slave_lld_init, %function
 803              	spi3_slave_lld_init:
 804              	.LFB258:
 805              		.loc 5 130 0
 806              		.cfi_startproc
 807              		@ args = 0, pretend = 0, frame = 8
 808              		@ frame_needed = 0, uses_anonymous_args = 0
 809 0000 00B5     		push	{lr}
 810              		.cfi_def_cfa_offset 4
 811              		.cfi_offset 14, -4
 812 0002 83B0     		sub	sp, sp, #12
 813              		.cfi_def_cfa_offset 16
 814              		.loc 5 130 0
 815 0004 114B     		ldr	r3, .L65
 816 0006 1B68     		ldr	r3, [r3]
 817 0008 0193     		str	r3, [sp, #4]
 818              		.loc 5 132 0
 819 000a 114B     		ldr	r3, .L65+4
 820 000c 4FF6FF72 		movw	r2, #65535
 821 0010 1A80     		strh	r2, [r3]	@ movhi
 822              		.loc 5 135 0
 823 0012 1048     		ldr	r0, .L65+8
 824 0014 FFF7FEFF 		bl	spi3SlaveObjectInit
 825              		.loc 5 136 0
 826 0018 0E4B     		ldr	r3, .L65+8
 827 001a 0F4A     		ldr	r2, .L65+12
 828 001c 1A62     		str	r2, [r3, #32]
 829              		.loc 5 137 0
 830 001e 0D4B     		ldr	r3, .L65+8
 831 0020 0E4A     		ldr	r2, .L65+16
 832 0022 5A62     		str	r2, [r3, #36]
 833              		.loc 5 138 0
 834 0024 0B4B     		ldr	r3, .L65+8
 835 0026 0E4A     		ldr	r2, .L65+20
 836 0028 9A62     		str	r2, [r3, #40]
 837              		.loc 5 139 0
 838 002a 0A4B     		ldr	r3, .L65+8
 839 002c 0D4A     		ldr	r2, .L65+24
 840 002e DA62     		str	r2, [r3, #44]
 841              		.loc 5 147 0
 842 0030 084B     		ldr	r3, .L65+8
 843 0032 0D4A     		ldr	r2, .L65+28
 844 0034 1A63     		str	r2, [r3, #48]
 845              		.loc 5 154 0
 846 0036 00BF     		nop
 847 0038 044B     		ldr	r3, .L65
 848 003a 019A     		ldr	r2, [sp, #4]
 849 003c 1B68     		ldr	r3, [r3]
 850 003e 9A42     		cmp	r2, r3
 851 0040 01D0     		beq	.L64
 852 0042 FFF7FEFF 		bl	__stack_chk_fail
 853              	.L64:
ARM GAS  C:\Users\PCHAUT~1\AppData\Local\Temp\ccbA1O25.s 			page 16


 854 0046 03B0     		add	sp, sp, #12
 855              		.cfi_def_cfa_offset 4
 856              		@ sp needed
 857 0048 5DF804FB 		ldr	pc, [sp], #4
 858              	.L66:
 859              		.align	2
 860              	.L65:
 861 004c 00000000 		.word	__stack_chk_guard
 862 0050 00000000 		.word	dummytx
 863 0054 00000000 		.word	SPISLAVED3
 864 0058 003C0040 		.word	1073757184
 865 005c 18000000 		.word	_stm32_dma_streams+24
 866 0060 3C000000 		.word	_stm32_dma_streams+60
 867 0064 1E010100 		.word	65822
 868 0068 46000100 		.word	65606
 869              		.cfi_endproc
 870              	.LFE258:
 871              		.size	spi3_slave_lld_init, .-spi3_slave_lld_init
 872              		.section	.text.spi3_slave_lld_start,"ax",%progbits
 873              		.align	1
 874              		.p2align 4,,15
 875              		.global	spi3_slave_lld_start
 876              		.syntax unified
 877              		.thumb
 878              		.thumb_func
 879              		.fpu fpv4-sp-d16
 880              		.type	spi3_slave_lld_start, %function
 881              	spi3_slave_lld_start:
 882              	.LFB259:
 883              		.loc 5 163 0
 884              		.cfi_startproc
 885              		@ args = 0, pretend = 0, frame = 16
 886              		@ frame_needed = 0, uses_anonymous_args = 0
 887 0000 00B5     		push	{lr}
 888              		.cfi_def_cfa_offset 4
 889              		.cfi_offset 14, -4
 890 0002 85B0     		sub	sp, sp, #20
 891              		.cfi_def_cfa_offset 24
 892 0004 0190     		str	r0, [sp, #4]
 893              		.loc 5 163 0
 894 0006 444B     		ldr	r3, .L75
 895 0008 1B68     		ldr	r3, [r3]
 896 000a 0393     		str	r3, [sp, #12]
 897              		.loc 5 166 0
 898 000c 019B     		ldr	r3, [sp, #4]
 899 000e 1B78     		ldrb	r3, [r3]	@ zero_extendqisi2
 900 0010 012B     		cmp	r3, #1
 901 0012 3BD1     		bne	.L68
 902              		.loc 5 168 0
 903 0014 019B     		ldr	r3, [sp, #4]
 904 0016 414A     		ldr	r2, .L75+4
 905 0018 9342     		cmp	r3, r2
 906 001a 27D1     		bne	.L69
 907              	.LBB10:
 908              		.loc 5 170 0
 909 001c 019B     		ldr	r3, [sp, #4]
 910 001e 586A     		ldr	r0, [r3, #36]
ARM GAS  C:\Users\PCHAUT~1\AppData\Local\Temp\ccbA1O25.s 			page 17


 911 0020 019B     		ldr	r3, [sp, #4]
 912 0022 3F4A     		ldr	r2, .L75+8
 913 0024 0A21     		movs	r1, #10
 914 0026 FFF7FEFF 		bl	dmaStreamAllocate
 915 002a 0346     		mov	r3, r0
 916 002c 8DF80B30 		strb	r3, [sp, #11]
 917              		.loc 5 174 0
 918 0030 9DF80B30 		ldrb	r3, [sp, #11]	@ zero_extendqisi2
 919 0034 002B     		cmp	r3, #0
 920 0036 02D0     		beq	.L70
 921              		.loc 5 174 0 is_stmt 0 discriminator 2
 922 0038 3A48     		ldr	r0, .L75+12
 923 003a FFF7FEFF 		bl	chSysHalt
 924              	.L70:
 925              		.loc 5 175 0 is_stmt 1
 926 003e 019B     		ldr	r3, [sp, #4]
 927 0040 986A     		ldr	r0, [r3, #40]
 928 0042 019B     		ldr	r3, [sp, #4]
 929 0044 384A     		ldr	r2, .L75+16
 930 0046 0A21     		movs	r1, #10
 931 0048 FFF7FEFF 		bl	dmaStreamAllocate
 932 004c 0346     		mov	r3, r0
 933 004e 8DF80B30 		strb	r3, [sp, #11]
 934              		.loc 5 179 0
 935 0052 9DF80B30 		ldrb	r3, [sp, #11]	@ zero_extendqisi2
 936 0056 002B     		cmp	r3, #0
 937 0058 02D0     		beq	.L71
 938              		.loc 5 179 0 is_stmt 0 discriminator 2
 939 005a 3248     		ldr	r0, .L75+12
 940 005c FFF7FEFF 		bl	chSysHalt
 941              	.L71:
 942              		.loc 5 180 0 is_stmt 1
 943 0060 324B     		ldr	r3, .L75+20
 944 0062 1B6C     		ldr	r3, [r3, #64]
 945 0064 314A     		ldr	r2, .L75+20
 946 0066 43F40043 		orr	r3, r3, #32768
 947 006a 1364     		str	r3, [r2, #64]
 948              	.L69:
 949              	.LBE10:
 950              		.loc 5 185 0
 951 006c 019B     		ldr	r3, [sp, #4]
 952 006e 1B6A     		ldr	r3, [r3, #32]
 953 0070 03F10C02 		add	r2, r3, #12
 954 0074 019B     		ldr	r3, [sp, #4]
 955 0076 5B6A     		ldr	r3, [r3, #36]
 956 0078 1B68     		ldr	r3, [r3]
 957 007a 9A60     		str	r2, [r3, #8]
 958              		.loc 5 186 0
 959 007c 019B     		ldr	r3, [sp, #4]
 960 007e 1B6A     		ldr	r3, [r3, #32]
 961 0080 03F10C02 		add	r2, r3, #12
 962 0084 019B     		ldr	r3, [sp, #4]
 963 0086 9B6A     		ldr	r3, [r3, #40]
 964 0088 1B68     		ldr	r3, [r3]
 965 008a 9A60     		str	r2, [r3, #8]
 966              	.L68:
 967              		.loc 5 190 0
ARM GAS  C:\Users\PCHAUT~1\AppData\Local\Temp\ccbA1O25.s 			page 18


 968 008c 019B     		ldr	r3, [sp, #4]
 969 008e 5B68     		ldr	r3, [r3, #4]
 970 0090 5B89     		ldrh	r3, [r3, #10]
 971 0092 03F40063 		and	r3, r3, #2048
 972 0096 002B     		cmp	r3, #0
 973 0098 0CD1     		bne	.L72
 974              		.loc 5 192 0
 975 009a 019B     		ldr	r3, [sp, #4]
 976 009c DB6A     		ldr	r3, [r3, #44]
 977              		.loc 5 193 0
 978 009e 23F4F042 		bic	r2, r3, #30720
 979              		.loc 5 192 0
 980 00a2 019B     		ldr	r3, [sp, #4]
 981 00a4 DA62     		str	r2, [r3, #44]
 982              		.loc 5 194 0
 983 00a6 019B     		ldr	r3, [sp, #4]
 984 00a8 1B6B     		ldr	r3, [r3, #48]
 985              		.loc 5 195 0
 986 00aa 23F4F042 		bic	r2, r3, #30720
 987              		.loc 5 194 0
 988 00ae 019B     		ldr	r3, [sp, #4]
 989 00b0 1A63     		str	r2, [r3, #48]
 990 00b2 0FE0     		b	.L73
 991              	.L72:
 992              		.loc 5 199 0
 993 00b4 019B     		ldr	r3, [sp, #4]
 994 00b6 DB6A     		ldr	r3, [r3, #44]
 995 00b8 23F4F043 		bic	r3, r3, #30720
 996              		.loc 5 200 0
 997 00bc 43F42052 		orr	r2, r3, #10240
 998              		.loc 5 199 0
 999 00c0 019B     		ldr	r3, [sp, #4]
 1000 00c2 DA62     		str	r2, [r3, #44]
 1001              		.loc 5 201 0
 1002 00c4 019B     		ldr	r3, [sp, #4]
 1003 00c6 1B6B     		ldr	r3, [r3, #48]
 1004 00c8 23F4F043 		bic	r3, r3, #30720
 1005              		.loc 5 202 0
 1006 00cc 43F42052 		orr	r2, r3, #10240
 1007              		.loc 5 201 0
 1008 00d0 019B     		ldr	r3, [sp, #4]
 1009 00d2 1A63     		str	r2, [r3, #48]
 1010              	.L73:
 1011              		.loc 5 205 0
 1012 00d4 019B     		ldr	r3, [sp, #4]
 1013 00d6 1B6A     		ldr	r3, [r3, #32]
 1014 00d8 0022     		movs	r2, #0
 1015 00da 1A60     		str	r2, [r3]
 1016              		.loc 5 206 0
 1017 00dc 019B     		ldr	r3, [sp, #4]
 1018 00de 5B68     		ldr	r3, [r3, #4]
 1019 00e0 5A89     		ldrh	r2, [r3, #10]
 1020 00e2 019B     		ldr	r3, [sp, #4]
 1021 00e4 1B6A     		ldr	r3, [r3, #32]
 1022 00e6 1A60     		str	r2, [r3]
 1023              		.loc 5 207 0
 1024 00e8 019B     		ldr	r3, [sp, #4]
ARM GAS  C:\Users\PCHAUT~1\AppData\Local\Temp\ccbA1O25.s 			page 19


 1025 00ea 1B6A     		ldr	r3, [r3, #32]
 1026 00ec 0322     		movs	r2, #3
 1027 00ee 5A60     		str	r2, [r3, #4]
 1028              		.loc 5 208 0
 1029 00f0 019B     		ldr	r3, [sp, #4]
 1030 00f2 1B6A     		ldr	r3, [r3, #32]
 1031 00f4 1A68     		ldr	r2, [r3]
 1032 00f6 019B     		ldr	r3, [sp, #4]
 1033 00f8 1B6A     		ldr	r3, [r3, #32]
 1034 00fa 42F04002 		orr	r2, r2, #64
 1035 00fe 1A60     		str	r2, [r3]
 1036              		.loc 5 209 0
 1037 0100 00BF     		nop
 1038 0102 054B     		ldr	r3, .L75
 1039 0104 039A     		ldr	r2, [sp, #12]
 1040 0106 1B68     		ldr	r3, [r3]
 1041 0108 9A42     		cmp	r2, r3
 1042 010a 01D0     		beq	.L74
 1043 010c FFF7FEFF 		bl	__stack_chk_fail
 1044              	.L74:
 1045 0110 05B0     		add	sp, sp, #20
 1046              		.cfi_def_cfa_offset 4
 1047              		@ sp needed
 1048 0112 5DF804FB 		ldr	pc, [sp], #4
 1049              	.L76:
 1050 0116 00BF     		.align	2
 1051              	.L75:
 1052 0118 00000000 		.word	__stack_chk_guard
 1053 011c 00000000 		.word	SPISLAVED3
 1054 0120 00000000 		.word	spi3_slave_lld_serve_rx_interrupt
 1055 0124 00000000 		.word	__func__.9960
 1056 0128 00000000 		.word	spi3_slave_lld_serve_tx_interrupt
 1057 012c 00380240 		.word	1073887232
 1058              		.cfi_endproc
 1059              	.LFE259:
 1060              		.size	spi3_slave_lld_start, .-spi3_slave_lld_start
 1061              		.section	.text.spi3_slave_lld_stop,"ax",%progbits
 1062              		.align	1
 1063              		.p2align 4,,15
 1064              		.global	spi3_slave_lld_stop
 1065              		.syntax unified
 1066              		.thumb
 1067              		.thumb_func
 1068              		.fpu fpv4-sp-d16
 1069              		.type	spi3_slave_lld_stop, %function
 1070              	spi3_slave_lld_stop:
 1071              	.LFB260:
 1072              		.loc 5 218 0
 1073              		.cfi_startproc
 1074              		@ args = 0, pretend = 0, frame = 16
 1075              		@ frame_needed = 0, uses_anonymous_args = 0
 1076 0000 00B5     		push	{lr}
 1077              		.cfi_def_cfa_offset 4
 1078              		.cfi_offset 14, -4
 1079 0002 85B0     		sub	sp, sp, #20
 1080              		.cfi_def_cfa_offset 24
 1081 0004 0190     		str	r0, [sp, #4]
ARM GAS  C:\Users\PCHAUT~1\AppData\Local\Temp\ccbA1O25.s 			page 20


 1082              		.loc 5 218 0
 1083 0006 174B     		ldr	r3, .L81
 1084 0008 1B68     		ldr	r3, [r3]
 1085 000a 0393     		str	r3, [sp, #12]
 1086              		.loc 5 221 0
 1087 000c 019B     		ldr	r3, [sp, #4]
 1088 000e 1B78     		ldrb	r3, [r3]	@ zero_extendqisi2
 1089 0010 022B     		cmp	r3, #2
 1090 0012 1BD1     		bne	.L80
 1091              		.loc 5 224 0
 1092 0014 019B     		ldr	r3, [sp, #4]
 1093 0016 1B6A     		ldr	r3, [r3, #32]
 1094 0018 0022     		movs	r2, #0
 1095 001a 1A60     		str	r2, [r3]
 1096              		.loc 5 225 0
 1097 001c 019B     		ldr	r3, [sp, #4]
 1098 001e 1B6A     		ldr	r3, [r3, #32]
 1099 0020 0022     		movs	r2, #0
 1100 0022 5A60     		str	r2, [r3, #4]
 1101              		.loc 5 226 0
 1102 0024 019B     		ldr	r3, [sp, #4]
 1103 0026 5B6A     		ldr	r3, [r3, #36]
 1104 0028 1846     		mov	r0, r3
 1105 002a FFF7FEFF 		bl	dmaStreamRelease
 1106              		.loc 5 227 0
 1107 002e 019B     		ldr	r3, [sp, #4]
 1108 0030 9B6A     		ldr	r3, [r3, #40]
 1109 0032 1846     		mov	r0, r3
 1110 0034 FFF7FEFF 		bl	dmaStreamRelease
 1111              		.loc 5 230 0
 1112 0038 019B     		ldr	r3, [sp, #4]
 1113 003a 0B4A     		ldr	r2, .L81+4
 1114 003c 9342     		cmp	r3, r2
 1115 003e 05D1     		bne	.L80
 1116              		.loc 5 231 0
 1117 0040 0A4B     		ldr	r3, .L81+8
 1118 0042 1B6C     		ldr	r3, [r3, #64]
 1119 0044 094A     		ldr	r2, .L81+8
 1120 0046 23F40043 		bic	r3, r3, #32768
 1121 004a 1364     		str	r3, [r2, #64]
 1122              	.L80:
 1123              		.loc 5 235 0
 1124 004c 00BF     		nop
 1125 004e 054B     		ldr	r3, .L81
 1126 0050 039A     		ldr	r2, [sp, #12]
 1127 0052 1B68     		ldr	r3, [r3]
 1128 0054 9A42     		cmp	r2, r3
 1129 0056 01D0     		beq	.L79
 1130 0058 FFF7FEFF 		bl	__stack_chk_fail
 1131              	.L79:
 1132 005c 05B0     		add	sp, sp, #20
 1133              		.cfi_def_cfa_offset 4
 1134              		@ sp needed
 1135 005e 5DF804FB 		ldr	pc, [sp], #4
 1136              	.L82:
 1137 0062 00BF     		.align	2
 1138              	.L81:
ARM GAS  C:\Users\PCHAUT~1\AppData\Local\Temp\ccbA1O25.s 			page 21


 1139 0064 00000000 		.word	__stack_chk_guard
 1140 0068 00000000 		.word	SPISLAVED3
 1141 006c 00380240 		.word	1073887232
 1142              		.cfi_endproc
 1143              	.LFE260:
 1144              		.size	spi3_slave_lld_stop, .-spi3_slave_lld_stop
 1145              		.section	.text.spi3_slave_lld_ignore,"ax",%progbits
 1146              		.align	1
 1147              		.p2align 4,,15
 1148              		.global	spi3_slave_lld_ignore
 1149              		.syntax unified
 1150              		.thumb
 1151              		.thumb_func
 1152              		.fpu fpv4-sp-d16
 1153              		.type	spi3_slave_lld_ignore, %function
 1154              	spi3_slave_lld_ignore:
 1155              	.LFB261:
 1156              		.loc 5 248 0
 1157              		.cfi_startproc
 1158              		@ args = 0, pretend = 0, frame = 16
 1159              		@ frame_needed = 0, uses_anonymous_args = 0
 1160 0000 00B5     		push	{lr}
 1161              		.cfi_def_cfa_offset 4
 1162              		.cfi_offset 14, -4
 1163 0002 85B0     		sub	sp, sp, #20
 1164              		.cfi_def_cfa_offset 24
 1165 0004 0190     		str	r0, [sp, #4]
 1166 0006 0091     		str	r1, [sp]
 1167              		.loc 5 248 0
 1168 0008 204B     		ldr	r3, .L85
 1169 000a 1B68     		ldr	r3, [r3]
 1170 000c 0393     		str	r3, [sp, #12]
 1171              		.loc 5 250 0
 1172 000e 019B     		ldr	r3, [sp, #4]
 1173 0010 5B6A     		ldr	r3, [r3, #36]
 1174 0012 1B68     		ldr	r3, [r3]
 1175 0014 1E4A     		ldr	r2, .L85+4
 1176 0016 DA60     		str	r2, [r3, #12]
 1177              		.loc 5 251 0
 1178 0018 019B     		ldr	r3, [sp, #4]
 1179 001a 5B6A     		ldr	r3, [r3, #36]
 1180 001c 1B68     		ldr	r3, [r3]
 1181 001e 009A     		ldr	r2, [sp]
 1182 0020 5A60     		str	r2, [r3, #4]
 1183              		.loc 5 252 0
 1184 0022 019B     		ldr	r3, [sp, #4]
 1185 0024 5B6A     		ldr	r3, [r3, #36]
 1186 0026 1B68     		ldr	r3, [r3]
 1187 0028 019A     		ldr	r2, [sp, #4]
 1188 002a D26A     		ldr	r2, [r2, #44]
 1189 002c 1A60     		str	r2, [r3]
 1190              		.loc 5 254 0
 1191 002e 019B     		ldr	r3, [sp, #4]
 1192 0030 9B6A     		ldr	r3, [r3, #40]
 1193 0032 1B68     		ldr	r3, [r3]
 1194 0034 174A     		ldr	r2, .L85+8
 1195 0036 DA60     		str	r2, [r3, #12]
ARM GAS  C:\Users\PCHAUT~1\AppData\Local\Temp\ccbA1O25.s 			page 22


 1196              		.loc 5 255 0
 1197 0038 019B     		ldr	r3, [sp, #4]
 1198 003a 9B6A     		ldr	r3, [r3, #40]
 1199 003c 1B68     		ldr	r3, [r3]
 1200 003e 009A     		ldr	r2, [sp]
 1201 0040 5A60     		str	r2, [r3, #4]
 1202              		.loc 5 256 0
 1203 0042 019B     		ldr	r3, [sp, #4]
 1204 0044 9B6A     		ldr	r3, [r3, #40]
 1205 0046 1B68     		ldr	r3, [r3]
 1206 0048 019A     		ldr	r2, [sp, #4]
 1207 004a 126B     		ldr	r2, [r2, #48]
 1208 004c 1A60     		str	r2, [r3]
 1209              		.loc 5 258 0
 1210 004e 019B     		ldr	r3, [sp, #4]
 1211 0050 5B6A     		ldr	r3, [r3, #36]
 1212 0052 1B68     		ldr	r3, [r3]
 1213 0054 1A68     		ldr	r2, [r3]
 1214 0056 019B     		ldr	r3, [sp, #4]
 1215 0058 5B6A     		ldr	r3, [r3, #36]
 1216 005a 1B68     		ldr	r3, [r3]
 1217 005c 42F00102 		orr	r2, r2, #1
 1218 0060 1A60     		str	r2, [r3]
 1219              		.loc 5 259 0
 1220 0062 019B     		ldr	r3, [sp, #4]
 1221 0064 9B6A     		ldr	r3, [r3, #40]
 1222 0066 1B68     		ldr	r3, [r3]
 1223 0068 1A68     		ldr	r2, [r3]
 1224 006a 019B     		ldr	r3, [sp, #4]
 1225 006c 9B6A     		ldr	r3, [r3, #40]
 1226 006e 1B68     		ldr	r3, [r3]
 1227 0070 42F00102 		orr	r2, r2, #1
 1228 0074 1A60     		str	r2, [r3]
 1229              		.loc 5 260 0
 1230 0076 00BF     		nop
 1231 0078 044B     		ldr	r3, .L85
 1232 007a 039A     		ldr	r2, [sp, #12]
 1233 007c 1B68     		ldr	r3, [r3]
 1234 007e 9A42     		cmp	r2, r3
 1235 0080 01D0     		beq	.L84
 1236 0082 FFF7FEFF 		bl	__stack_chk_fail
 1237              	.L84:
 1238 0086 05B0     		add	sp, sp, #20
 1239              		.cfi_def_cfa_offset 4
 1240              		@ sp needed
 1241 0088 5DF804FB 		ldr	pc, [sp], #4
 1242              	.L86:
 1243              		.align	2
 1244              	.L85:
 1245 008c 00000000 		.word	__stack_chk_guard
 1246 0090 00000000 		.word	dummyrx
 1247 0094 00000000 		.word	dummytx
 1248              		.cfi_endproc
 1249              	.LFE261:
 1250              		.size	spi3_slave_lld_ignore, .-spi3_slave_lld_ignore
 1251              		.section	.text.spi3_slave_lld_exchange,"ax",%progbits
 1252              		.align	1
ARM GAS  C:\Users\PCHAUT~1\AppData\Local\Temp\ccbA1O25.s 			page 23


 1253              		.p2align 4,,15
 1254              		.global	spi3_slave_lld_exchange
 1255              		.syntax unified
 1256              		.thumb
 1257              		.thumb_func
 1258              		.fpu fpv4-sp-d16
 1259              		.type	spi3_slave_lld_exchange, %function
 1260              	spi3_slave_lld_exchange:
 1261              	.LFB262:
 1262              		.loc 5 278 0
 1263              		.cfi_startproc
 1264              		@ args = 0, pretend = 0, frame = 24
 1265              		@ frame_needed = 0, uses_anonymous_args = 0
 1266 0000 00B5     		push	{lr}
 1267              		.cfi_def_cfa_offset 4
 1268              		.cfi_offset 14, -4
 1269 0002 87B0     		sub	sp, sp, #28
 1270              		.cfi_def_cfa_offset 32
 1271 0004 0390     		str	r0, [sp, #12]
 1272 0006 0291     		str	r1, [sp, #8]
 1273 0008 0192     		str	r2, [sp, #4]
 1274 000a 0093     		str	r3, [sp]
 1275              		.loc 5 278 0
 1276 000c 224B     		ldr	r3, .L89
 1277 000e 1B68     		ldr	r3, [r3]
 1278 0010 0593     		str	r3, [sp, #20]
 1279              		.loc 5 280 0
 1280 0012 039B     		ldr	r3, [sp, #12]
 1281 0014 5B6A     		ldr	r3, [r3, #36]
 1282 0016 1B68     		ldr	r3, [r3]
 1283 0018 009A     		ldr	r2, [sp]
 1284 001a DA60     		str	r2, [r3, #12]
 1285              		.loc 5 281 0
 1286 001c 039B     		ldr	r3, [sp, #12]
 1287 001e 5B6A     		ldr	r3, [r3, #36]
 1288 0020 1B68     		ldr	r3, [r3]
 1289 0022 029A     		ldr	r2, [sp, #8]
 1290 0024 5A60     		str	r2, [r3, #4]
 1291              		.loc 5 282 0
 1292 0026 039B     		ldr	r3, [sp, #12]
 1293 0028 DA6A     		ldr	r2, [r3, #44]
 1294 002a 039B     		ldr	r3, [sp, #12]
 1295 002c 5B6A     		ldr	r3, [r3, #36]
 1296 002e 1B68     		ldr	r3, [r3]
 1297 0030 42F48062 		orr	r2, r2, #1024
 1298 0034 1A60     		str	r2, [r3]
 1299              		.loc 5 284 0
 1300 0036 039B     		ldr	r3, [sp, #12]
 1301 0038 9B6A     		ldr	r3, [r3, #40]
 1302 003a 1B68     		ldr	r3, [r3]
 1303 003c 019A     		ldr	r2, [sp, #4]
 1304 003e DA60     		str	r2, [r3, #12]
 1305              		.loc 5 285 0
 1306 0040 039B     		ldr	r3, [sp, #12]
 1307 0042 9B6A     		ldr	r3, [r3, #40]
 1308 0044 1B68     		ldr	r3, [r3]
 1309 0046 029A     		ldr	r2, [sp, #8]
ARM GAS  C:\Users\PCHAUT~1\AppData\Local\Temp\ccbA1O25.s 			page 24


 1310 0048 5A60     		str	r2, [r3, #4]
 1311              		.loc 5 286 0
 1312 004a 039B     		ldr	r3, [sp, #12]
 1313 004c 1A6B     		ldr	r2, [r3, #48]
 1314 004e 039B     		ldr	r3, [sp, #12]
 1315 0050 9B6A     		ldr	r3, [r3, #40]
 1316 0052 1B68     		ldr	r3, [r3]
 1317 0054 42F48062 		orr	r2, r2, #1024
 1318 0058 1A60     		str	r2, [r3]
 1319              		.loc 5 288 0
 1320 005a 039B     		ldr	r3, [sp, #12]
 1321 005c 5B6A     		ldr	r3, [r3, #36]
 1322 005e 1B68     		ldr	r3, [r3]
 1323 0060 1A68     		ldr	r2, [r3]
 1324 0062 039B     		ldr	r3, [sp, #12]
 1325 0064 5B6A     		ldr	r3, [r3, #36]
 1326 0066 1B68     		ldr	r3, [r3]
 1327 0068 42F00102 		orr	r2, r2, #1
 1328 006c 1A60     		str	r2, [r3]
 1329              		.loc 5 289 0
 1330 006e 039B     		ldr	r3, [sp, #12]
 1331 0070 9B6A     		ldr	r3, [r3, #40]
 1332 0072 1B68     		ldr	r3, [r3]
 1333 0074 1A68     		ldr	r2, [r3]
 1334 0076 039B     		ldr	r3, [sp, #12]
 1335 0078 9B6A     		ldr	r3, [r3, #40]
 1336 007a 1B68     		ldr	r3, [r3]
 1337 007c 42F00102 		orr	r2, r2, #1
 1338 0080 1A60     		str	r2, [r3]
 1339              		.loc 5 290 0
 1340 0082 00BF     		nop
 1341 0084 044B     		ldr	r3, .L89
 1342 0086 059A     		ldr	r2, [sp, #20]
 1343 0088 1B68     		ldr	r3, [r3]
 1344 008a 9A42     		cmp	r2, r3
 1345 008c 01D0     		beq	.L88
 1346 008e FFF7FEFF 		bl	__stack_chk_fail
 1347              	.L88:
 1348 0092 07B0     		add	sp, sp, #28
 1349              		.cfi_def_cfa_offset 4
 1350              		@ sp needed
 1351 0094 5DF804FB 		ldr	pc, [sp], #4
 1352              	.L90:
 1353              		.align	2
 1354              	.L89:
 1355 0098 00000000 		.word	__stack_chk_guard
 1356              		.cfi_endproc
 1357              	.LFE262:
 1358              		.size	spi3_slave_lld_exchange, .-spi3_slave_lld_exchange
 1359              		.section	.text.spi3_slave_lld_send,"ax",%progbits
 1360              		.align	1
 1361              		.p2align 4,,15
 1362              		.global	spi3_slave_lld_send
 1363              		.syntax unified
 1364              		.thumb
 1365              		.thumb_func
 1366              		.fpu fpv4-sp-d16
ARM GAS  C:\Users\PCHAUT~1\AppData\Local\Temp\ccbA1O25.s 			page 25


 1367              		.type	spi3_slave_lld_send, %function
 1368              	spi3_slave_lld_send:
 1369              	.LFB263:
 1370              		.loc 5 305 0
 1371              		.cfi_startproc
 1372              		@ args = 0, pretend = 0, frame = 24
 1373              		@ frame_needed = 0, uses_anonymous_args = 0
 1374 0000 00B5     		push	{lr}
 1375              		.cfi_def_cfa_offset 4
 1376              		.cfi_offset 14, -4
 1377 0002 87B0     		sub	sp, sp, #28
 1378              		.cfi_def_cfa_offset 32
 1379 0004 0390     		str	r0, [sp, #12]
 1380 0006 0291     		str	r1, [sp, #8]
 1381 0008 0192     		str	r2, [sp, #4]
 1382              		.loc 5 305 0
 1383 000a 224B     		ldr	r3, .L93
 1384 000c 1B68     		ldr	r3, [r3]
 1385 000e 0593     		str	r3, [sp, #20]
 1386              		.loc 5 307 0
 1387 0010 039B     		ldr	r3, [sp, #12]
 1388 0012 5B6A     		ldr	r3, [r3, #36]
 1389 0014 1B68     		ldr	r3, [r3]
 1390 0016 204A     		ldr	r2, .L93+4
 1391 0018 DA60     		str	r2, [r3, #12]
 1392              		.loc 5 308 0
 1393 001a 039B     		ldr	r3, [sp, #12]
 1394 001c 5B6A     		ldr	r3, [r3, #36]
 1395 001e 1B68     		ldr	r3, [r3]
 1396 0020 029A     		ldr	r2, [sp, #8]
 1397 0022 5A60     		str	r2, [r3, #4]
 1398              		.loc 5 309 0
 1399 0024 039B     		ldr	r3, [sp, #12]
 1400 0026 5B6A     		ldr	r3, [r3, #36]
 1401 0028 1B68     		ldr	r3, [r3]
 1402 002a 039A     		ldr	r2, [sp, #12]
 1403 002c D26A     		ldr	r2, [r2, #44]
 1404 002e 1A60     		str	r2, [r3]
 1405              		.loc 5 311 0
 1406 0030 039B     		ldr	r3, [sp, #12]
 1407 0032 9B6A     		ldr	r3, [r3, #40]
 1408 0034 1B68     		ldr	r3, [r3]
 1409 0036 019A     		ldr	r2, [sp, #4]
 1410 0038 DA60     		str	r2, [r3, #12]
 1411              		.loc 5 312 0
 1412 003a 039B     		ldr	r3, [sp, #12]
 1413 003c 9B6A     		ldr	r3, [r3, #40]
 1414 003e 1B68     		ldr	r3, [r3]
 1415 0040 029A     		ldr	r2, [sp, #8]
 1416 0042 5A60     		str	r2, [r3, #4]
 1417              		.loc 5 313 0
 1418 0044 039B     		ldr	r3, [sp, #12]
 1419 0046 1A6B     		ldr	r2, [r3, #48]
 1420 0048 039B     		ldr	r3, [sp, #12]
 1421 004a 9B6A     		ldr	r3, [r3, #40]
 1422 004c 1B68     		ldr	r3, [r3]
 1423 004e 42F48062 		orr	r2, r2, #1024
ARM GAS  C:\Users\PCHAUT~1\AppData\Local\Temp\ccbA1O25.s 			page 26


 1424 0052 1A60     		str	r2, [r3]
 1425              		.loc 5 315 0
 1426 0054 039B     		ldr	r3, [sp, #12]
 1427 0056 5B6A     		ldr	r3, [r3, #36]
 1428 0058 1B68     		ldr	r3, [r3]
 1429 005a 1A68     		ldr	r2, [r3]
 1430 005c 039B     		ldr	r3, [sp, #12]
 1431 005e 5B6A     		ldr	r3, [r3, #36]
 1432 0060 1B68     		ldr	r3, [r3]
 1433 0062 42F00102 		orr	r2, r2, #1
 1434 0066 1A60     		str	r2, [r3]
 1435              		.loc 5 316 0
 1436 0068 039B     		ldr	r3, [sp, #12]
 1437 006a 9B6A     		ldr	r3, [r3, #40]
 1438 006c 1B68     		ldr	r3, [r3]
 1439 006e 1A68     		ldr	r2, [r3]
 1440 0070 039B     		ldr	r3, [sp, #12]
 1441 0072 9B6A     		ldr	r3, [r3, #40]
 1442 0074 1B68     		ldr	r3, [r3]
 1443 0076 42F00102 		orr	r2, r2, #1
 1444 007a 1A60     		str	r2, [r3]
 1445              		.loc 5 317 0
 1446 007c 00BF     		nop
 1447 007e 054B     		ldr	r3, .L93
 1448 0080 059A     		ldr	r2, [sp, #20]
 1449 0082 1B68     		ldr	r3, [r3]
 1450 0084 9A42     		cmp	r2, r3
 1451 0086 01D0     		beq	.L92
 1452 0088 FFF7FEFF 		bl	__stack_chk_fail
 1453              	.L92:
 1454 008c 07B0     		add	sp, sp, #28
 1455              		.cfi_def_cfa_offset 4
 1456              		@ sp needed
 1457 008e 5DF804FB 		ldr	pc, [sp], #4
 1458              	.L94:
 1459 0092 00BF     		.align	2
 1460              	.L93:
 1461 0094 00000000 		.word	__stack_chk_guard
 1462 0098 00000000 		.word	dummyrx
 1463              		.cfi_endproc
 1464              	.LFE263:
 1465              		.size	spi3_slave_lld_send, .-spi3_slave_lld_send
 1466              		.section	.text.spi3_slave_lld_receive,"ax",%progbits
 1467              		.align	1
 1468              		.p2align 4,,15
 1469              		.global	spi3_slave_lld_receive
 1470              		.syntax unified
 1471              		.thumb
 1472              		.thumb_func
 1473              		.fpu fpv4-sp-d16
 1474              		.type	spi3_slave_lld_receive, %function
 1475              	spi3_slave_lld_receive:
 1476              	.LFB264:
 1477              		.loc 5 332 0
 1478              		.cfi_startproc
 1479              		@ args = 0, pretend = 0, frame = 24
 1480              		@ frame_needed = 0, uses_anonymous_args = 0
ARM GAS  C:\Users\PCHAUT~1\AppData\Local\Temp\ccbA1O25.s 			page 27


 1481 0000 00B5     		push	{lr}
 1482              		.cfi_def_cfa_offset 4
 1483              		.cfi_offset 14, -4
 1484 0002 87B0     		sub	sp, sp, #28
 1485              		.cfi_def_cfa_offset 32
 1486 0004 0390     		str	r0, [sp, #12]
 1487 0006 0291     		str	r1, [sp, #8]
 1488 0008 0192     		str	r2, [sp, #4]
 1489              		.loc 5 332 0
 1490 000a 224B     		ldr	r3, .L97
 1491 000c 1B68     		ldr	r3, [r3]
 1492 000e 0593     		str	r3, [sp, #20]
 1493              		.loc 5 334 0
 1494 0010 039B     		ldr	r3, [sp, #12]
 1495 0012 5B6A     		ldr	r3, [r3, #36]
 1496 0014 1B68     		ldr	r3, [r3]
 1497 0016 019A     		ldr	r2, [sp, #4]
 1498 0018 DA60     		str	r2, [r3, #12]
 1499              		.loc 5 335 0
 1500 001a 039B     		ldr	r3, [sp, #12]
 1501 001c 5B6A     		ldr	r3, [r3, #36]
 1502 001e 1B68     		ldr	r3, [r3]
 1503 0020 029A     		ldr	r2, [sp, #8]
 1504 0022 5A60     		str	r2, [r3, #4]
 1505              		.loc 5 336 0
 1506 0024 039B     		ldr	r3, [sp, #12]
 1507 0026 DA6A     		ldr	r2, [r3, #44]
 1508 0028 039B     		ldr	r3, [sp, #12]
 1509 002a 5B6A     		ldr	r3, [r3, #36]
 1510 002c 1B68     		ldr	r3, [r3]
 1511 002e 42F48062 		orr	r2, r2, #1024
 1512 0032 1A60     		str	r2, [r3]
 1513              		.loc 5 338 0
 1514 0034 039B     		ldr	r3, [sp, #12]
 1515 0036 9B6A     		ldr	r3, [r3, #40]
 1516 0038 1B68     		ldr	r3, [r3]
 1517 003a 174A     		ldr	r2, .L97+4
 1518 003c DA60     		str	r2, [r3, #12]
 1519              		.loc 5 339 0
 1520 003e 039B     		ldr	r3, [sp, #12]
 1521 0040 9B6A     		ldr	r3, [r3, #40]
 1522 0042 1B68     		ldr	r3, [r3]
 1523 0044 029A     		ldr	r2, [sp, #8]
 1524 0046 5A60     		str	r2, [r3, #4]
 1525              		.loc 5 340 0
 1526 0048 039B     		ldr	r3, [sp, #12]
 1527 004a 9B6A     		ldr	r3, [r3, #40]
 1528 004c 1B68     		ldr	r3, [r3]
 1529 004e 039A     		ldr	r2, [sp, #12]
 1530 0050 126B     		ldr	r2, [r2, #48]
 1531 0052 1A60     		str	r2, [r3]
 1532              		.loc 5 342 0
 1533 0054 039B     		ldr	r3, [sp, #12]
 1534 0056 5B6A     		ldr	r3, [r3, #36]
 1535 0058 1B68     		ldr	r3, [r3]
 1536 005a 1A68     		ldr	r2, [r3]
 1537 005c 039B     		ldr	r3, [sp, #12]
ARM GAS  C:\Users\PCHAUT~1\AppData\Local\Temp\ccbA1O25.s 			page 28


 1538 005e 5B6A     		ldr	r3, [r3, #36]
 1539 0060 1B68     		ldr	r3, [r3]
 1540 0062 42F00102 		orr	r2, r2, #1
 1541 0066 1A60     		str	r2, [r3]
 1542              		.loc 5 343 0
 1543 0068 039B     		ldr	r3, [sp, #12]
 1544 006a 9B6A     		ldr	r3, [r3, #40]
 1545 006c 1B68     		ldr	r3, [r3]
 1546 006e 1A68     		ldr	r2, [r3]
 1547 0070 039B     		ldr	r3, [sp, #12]
 1548 0072 9B6A     		ldr	r3, [r3, #40]
 1549 0074 1B68     		ldr	r3, [r3]
 1550 0076 42F00102 		orr	r2, r2, #1
 1551 007a 1A60     		str	r2, [r3]
 1552              		.loc 5 344 0
 1553 007c 00BF     		nop
 1554 007e 054B     		ldr	r3, .L97
 1555 0080 059A     		ldr	r2, [sp, #20]
 1556 0082 1B68     		ldr	r3, [r3]
 1557 0084 9A42     		cmp	r2, r3
 1558 0086 01D0     		beq	.L96
 1559 0088 FFF7FEFF 		bl	__stack_chk_fail
 1560              	.L96:
 1561 008c 07B0     		add	sp, sp, #28
 1562              		.cfi_def_cfa_offset 4
 1563              		@ sp needed
 1564 008e 5DF804FB 		ldr	pc, [sp], #4
 1565              	.L98:
 1566 0092 00BF     		.align	2
 1567              	.L97:
 1568 0094 00000000 		.word	__stack_chk_guard
 1569 0098 00000000 		.word	dummytx
 1570              		.cfi_endproc
 1571              	.LFE264:
 1572              		.size	spi3_slave_lld_receive, .-spi3_slave_lld_receive
 1573              		.section	.text.spi3_slave_lld_polled_exchange,"ax",%progbits
 1574              		.align	1
 1575              		.p2align 4,,15
 1576              		.global	spi3_slave_lld_polled_exchange
 1577              		.syntax unified
 1578              		.thumb
 1579              		.thumb_func
 1580              		.fpu fpv4-sp-d16
 1581              		.type	spi3_slave_lld_polled_exchange, %function
 1582              	spi3_slave_lld_polled_exchange:
 1583              	.LFB265:
 1584              		.loc 5 358 0
 1585              		.cfi_startproc
 1586              		@ args = 0, pretend = 0, frame = 16
 1587              		@ frame_needed = 0, uses_anonymous_args = 0
 1588 0000 00B5     		push	{lr}
 1589              		.cfi_def_cfa_offset 4
 1590              		.cfi_offset 14, -4
 1591 0002 85B0     		sub	sp, sp, #20
 1592              		.cfi_def_cfa_offset 24
 1593 0004 0190     		str	r0, [sp, #4]
 1594 0006 0B46     		mov	r3, r1
ARM GAS  C:\Users\PCHAUT~1\AppData\Local\Temp\ccbA1O25.s 			page 29


 1595 0008 ADF80230 		strh	r3, [sp, #2]	@ movhi
 1596              		.loc 5 358 0
 1597 000c 0F4B     		ldr	r3, .L103
 1598 000e 1B68     		ldr	r3, [r3]
 1599 0010 0393     		str	r3, [sp, #12]
 1600              		.loc 5 360 0
 1601 0012 019B     		ldr	r3, [sp, #4]
 1602 0014 1B6A     		ldr	r3, [r3, #32]
 1603 0016 BDF80220 		ldrh	r2, [sp, #2]
 1604 001a DA60     		str	r2, [r3, #12]
 1605              		.loc 5 361 0
 1606 001c 00BF     		nop
 1607              	.L100:
 1608              		.loc 5 361 0 is_stmt 0 discriminator 1
 1609 001e 019B     		ldr	r3, [sp, #4]
 1610 0020 1B6A     		ldr	r3, [r3, #32]
 1611 0022 9B68     		ldr	r3, [r3, #8]
 1612 0024 03F00103 		and	r3, r3, #1
 1613 0028 002B     		cmp	r3, #0
 1614 002a F8D0     		beq	.L100
 1615              		.loc 5 363 0 is_stmt 1
 1616 002c 019B     		ldr	r3, [sp, #4]
 1617 002e 1B6A     		ldr	r3, [r3, #32]
 1618 0030 DB68     		ldr	r3, [r3, #12]
 1619 0032 9BB2     		uxth	r3, r3
 1620              		.loc 5 364 0
 1621 0034 1846     		mov	r0, r3
 1622 0036 054B     		ldr	r3, .L103
 1623 0038 039A     		ldr	r2, [sp, #12]
 1624 003a 1B68     		ldr	r3, [r3]
 1625 003c 9A42     		cmp	r2, r3
 1626 003e 01D0     		beq	.L102
 1627 0040 FFF7FEFF 		bl	__stack_chk_fail
 1628              	.L102:
 1629 0044 05B0     		add	sp, sp, #20
 1630              		.cfi_def_cfa_offset 4
 1631              		@ sp needed
 1632 0046 5DF804FB 		ldr	pc, [sp], #4
 1633              	.L104:
 1634 004a 00BF     		.align	2
 1635              	.L103:
 1636 004c 00000000 		.word	__stack_chk_guard
 1637              		.cfi_endproc
 1638              	.LFE265:
 1639              		.size	spi3_slave_lld_polled_exchange, .-spi3_slave_lld_polled_exchange
 1640              		.section	.text.spi3_slave_lld_stop_exchange,"ax",%progbits
 1641              		.align	1
 1642              		.p2align 4,,15
 1643              		.global	spi3_slave_lld_stop_exchange
 1644              		.syntax unified
 1645              		.thumb
 1646              		.thumb_func
 1647              		.fpu fpv4-sp-d16
 1648              		.type	spi3_slave_lld_stop_exchange, %function
 1649              	spi3_slave_lld_stop_exchange:
 1650              	.LFB266:
 1651              		.loc 5 375 0
ARM GAS  C:\Users\PCHAUT~1\AppData\Local\Temp\ccbA1O25.s 			page 30


 1652              		.cfi_startproc
 1653              		@ args = 0, pretend = 0, frame = 16
 1654              		@ frame_needed = 0, uses_anonymous_args = 0
 1655 0000 00B5     		push	{lr}
 1656              		.cfi_def_cfa_offset 4
 1657              		.cfi_offset 14, -4
 1658 0002 85B0     		sub	sp, sp, #20
 1659              		.cfi_def_cfa_offset 24
 1660 0004 0190     		str	r0, [sp, #4]
 1661              		.loc 5 375 0
 1662 0006 294B     		ldr	r3, .L112
 1663 0008 1B68     		ldr	r3, [r3]
 1664 000a 0393     		str	r3, [sp, #12]
 1665              		.loc 5 378 0
 1666 000c 019B     		ldr	r3, [sp, #4]
 1667 000e 9B6A     		ldr	r3, [r3, #40]
 1668 0010 002B     		cmp	r3, #0
 1669 0012 1DD0     		beq	.L106
 1670              		.loc 5 379 0
 1671 0014 019B     		ldr	r3, [sp, #4]
 1672 0016 9B6A     		ldr	r3, [r3, #40]
 1673 0018 1B68     		ldr	r3, [r3]
 1674 001a 1A68     		ldr	r2, [r3]
 1675 001c 019B     		ldr	r3, [sp, #4]
 1676 001e 9B6A     		ldr	r3, [r3, #40]
 1677 0020 1B68     		ldr	r3, [r3]
 1678 0022 22F01F02 		bic	r2, r2, #31
 1679 0026 1A60     		str	r2, [r3]
 1680 0028 00BF     		nop
 1681              	.L107:
 1682              		.loc 5 379 0 is_stmt 0 discriminator 2
 1683 002a 019B     		ldr	r3, [sp, #4]
 1684 002c 9B6A     		ldr	r3, [r3, #40]
 1685 002e 1B68     		ldr	r3, [r3]
 1686 0030 1B68     		ldr	r3, [r3]
 1687 0032 03F00103 		and	r3, r3, #1
 1688 0036 002B     		cmp	r3, #0
 1689 0038 F7D1     		bne	.L107
 1690              		.loc 5 379 0 discriminator 3
 1691 003a 019B     		ldr	r3, [sp, #4]
 1692 003c 9B6A     		ldr	r3, [r3, #40]
 1693 003e 1B7A     		ldrb	r3, [r3, #8]	@ zero_extendqisi2
 1694 0040 1A46     		mov	r2, r3
 1695 0042 3D23     		movs	r3, #61
 1696 0044 03FA02F2 		lsl	r2, r3, r2
 1697 0048 019B     		ldr	r3, [sp, #4]
 1698 004a 9B6A     		ldr	r3, [r3, #40]
 1699 004c 5B68     		ldr	r3, [r3, #4]
 1700 004e 1A60     		str	r2, [r3]
 1701              	.L106:
 1702              		.loc 5 382 0 is_stmt 1
 1703 0050 019B     		ldr	r3, [sp, #4]
 1704 0052 5B6A     		ldr	r3, [r3, #36]
 1705 0054 002B     		cmp	r3, #0
 1706 0056 1DD0     		beq	.L111
 1707              		.loc 5 383 0
 1708 0058 019B     		ldr	r3, [sp, #4]
ARM GAS  C:\Users\PCHAUT~1\AppData\Local\Temp\ccbA1O25.s 			page 31


 1709 005a 5B6A     		ldr	r3, [r3, #36]
 1710 005c 1B68     		ldr	r3, [r3]
 1711 005e 1A68     		ldr	r2, [r3]
 1712 0060 019B     		ldr	r3, [sp, #4]
 1713 0062 5B6A     		ldr	r3, [r3, #36]
 1714 0064 1B68     		ldr	r3, [r3]
 1715 0066 22F01F02 		bic	r2, r2, #31
 1716 006a 1A60     		str	r2, [r3]
 1717 006c 00BF     		nop
 1718              	.L109:
 1719              		.loc 5 383 0 is_stmt 0 discriminator 2
 1720 006e 019B     		ldr	r3, [sp, #4]
 1721 0070 5B6A     		ldr	r3, [r3, #36]
 1722 0072 1B68     		ldr	r3, [r3]
 1723 0074 1B68     		ldr	r3, [r3]
 1724 0076 03F00103 		and	r3, r3, #1
 1725 007a 002B     		cmp	r3, #0
 1726 007c F7D1     		bne	.L109
 1727              		.loc 5 383 0 discriminator 3
 1728 007e 019B     		ldr	r3, [sp, #4]
 1729 0080 5B6A     		ldr	r3, [r3, #36]
 1730 0082 1B7A     		ldrb	r3, [r3, #8]	@ zero_extendqisi2
 1731 0084 1A46     		mov	r2, r3
 1732 0086 3D23     		movs	r3, #61
 1733 0088 03FA02F2 		lsl	r2, r3, r2
 1734 008c 019B     		ldr	r3, [sp, #4]
 1735 008e 5B6A     		ldr	r3, [r3, #36]
 1736 0090 5B68     		ldr	r3, [r3, #4]
 1737 0092 1A60     		str	r2, [r3]
 1738              	.L111:
 1739              		.loc 5 384 0 is_stmt 1
 1740 0094 00BF     		nop
 1741 0096 054B     		ldr	r3, .L112
 1742 0098 039A     		ldr	r2, [sp, #12]
 1743 009a 1B68     		ldr	r3, [r3]
 1744 009c 9A42     		cmp	r2, r3
 1745 009e 01D0     		beq	.L110
 1746 00a0 FFF7FEFF 		bl	__stack_chk_fail
 1747              	.L110:
 1748 00a4 05B0     		add	sp, sp, #20
 1749              		.cfi_def_cfa_offset 4
 1750              		@ sp needed
 1751 00a6 5DF804FB 		ldr	pc, [sp], #4
 1752              	.L113:
 1753 00aa 00BF     		.align	2
 1754              	.L112:
 1755 00ac 00000000 		.word	__stack_chk_guard
 1756              		.cfi_endproc
 1757              	.LFE266:
 1758              		.size	spi3_slave_lld_stop_exchange, .-spi3_slave_lld_stop_exchange
 1759              		.section	.rodata.__func__.9960,"a",%progbits
 1760              		.align	2
 1761              		.type	__func__.9960, %object
 1762              		.size	__func__.9960, 21
 1763              	__func__.9960:
 1764 0000 73706933 		.ascii	"spi3_slave_lld_start\000"
 1764      5F736C61 
ARM GAS  C:\Users\PCHAUT~1\AppData\Local\Temp\ccbA1O25.s 			page 32


 1764      76655F6C 
 1764      6C645F73 
 1764      74617274 
 1765              		.text
 1766              	.Letext0:
 1767              		.file 6 "c:\\users\\pchautems\\documents\\robotiquetp\\eclipse_e-puck2\\tools\\gcc-arm-none-eabi-7
 1768              		.file 7 "c:\\users\\pchautems\\documents\\robotiquetp\\eclipse_e-puck2\\tools\\gcc-arm-none-eabi-7
 1769              		.file 8 "c:\\users\\pchautems\\documents\\robotiquetp\\eclipse_e-puck2\\tools\\gcc-arm-none-eabi-7
 1770              		.file 9 "../lib/e-puck2_main-processor/ChibiOS//os/rt/ports/ARMCMx/compilers/GCC/chtypes.h"
 1771              		.file 10 "../lib/e-puck2_main-processor/ChibiOS//os/rt/include/chsystypes.h"
 1772              		.file 11 "../lib/e-puck2_main-processor/ChibiOS//os/rt/include/chschd.h"
 1773              		.file 12 "../lib/e-puck2_main-processor/ChibiOS//os/ext/CMSIS/include/core_cm4.h"
 1774              		.file 13 "../lib/e-puck2_main-processor/ChibiOS//os/ext/CMSIS/ST/system_stm32f4xx.h"
 1775              		.file 14 "../lib/e-puck2_main-processor/ChibiOS//os/ext/CMSIS/ST/stm32f407xx.h"
 1776              		.file 15 "../lib/e-puck2_main-processor/ChibiOS//os/rt/ports/ARMCMx/chcore.h"
 1777              		.file 16 "../lib/e-puck2_main-processor/ChibiOS//os/rt/include/chdebug.h"
 1778              		.file 17 "../lib/e-puck2_main-processor/ChibiOS//os/rt/include/chtm.h"
 1779              		.file 18 "../lib/e-puck2_main-processor/ChibiOS//os/rt/include/chstats.h"
 1780              		.file 19 "../lib/e-puck2_main-processor/ChibiOS//os/rt/include/chsem.h"
 1781              		.file 20 "../lib/e-puck2_main-processor/ChibiOS//os/rt/include/chmtx.h"
 1782              		.file 21 "../lib/e-puck2_main-processor/ChibiOS//os/rt/include/chregistry.h"
 1783              		.file 22 "../lib/e-puck2_main-processor/ChibiOS//os/rt/include/chevents.h"
 1784              		.file 23 "../lib/e-puck2_main-processor/ChibiOS//os/rt/include/chqueues.h"
 1785              		.file 24 "../lib/e-puck2_main-processor/ChibiOS//os/hal/ports/STM32/STM32F4xx/stm32_dma.h"
 1786              		.file 25 "../lib/e-puck2_main-processor/ChibiOS//os/hal/include/hal_ioblock.h"
 1787              		.file 26 "../lib/e-puck2_main-processor/ChibiOS//os/hal/ports/STM32/LLD/GPIOv2/pal_lld.h"
 1788              		.file 27 "../lib/e-puck2_main-processor/ChibiOS//os/hal/include/adc.h"
 1789              		.file 28 "../lib/e-puck2_main-processor/ChibiOS//os/hal/ports/STM32/STM32F4xx/adc_lld.h"
 1790              		.file 29 "../lib/e-puck2_main-processor/ChibiOS//os/hal/include/can.h"
 1791              		.file 30 "../lib/e-puck2_main-processor/ChibiOS//os/hal/ports/STM32/LLD/can_lld.h"
 1792              		.file 31 "../lib/e-puck2_main-processor/ChibiOS//os/hal/include/dac.h"
 1793              		.file 32 "../lib/e-puck2_main-processor/ChibiOS//os/hal/ports/STM32/LLD/DACv1/dac_lld.h"
 1794              		.file 33 "../lib/e-puck2_main-processor/ChibiOS//os/hal/include/ext.h"
 1795              		.file 34 "../lib/e-puck2_main-processor/ChibiOS//os/hal/ports/STM32/LLD/ext_lld.h"
 1796              		.file 35 "../lib/e-puck2_main-processor/ChibiOS//os/hal/include/gpt.h"
 1797              		.file 36 "../lib/e-puck2_main-processor/ChibiOS//os/hal/ports/STM32/LLD/TIMv1/gpt_lld.h"
 1798              		.file 37 "../lib/e-puck2_main-processor/ChibiOS//os/hal/ports/STM32/LLD/TIMv1/stm32_tim.h"
 1799              		.file 38 "../lib/e-puck2_main-processor/ChibiOS//os/hal/include/i2c.h"
 1800              		.file 39 "../lib/e-puck2_main-processor/ChibiOS//os/hal/ports/STM32/LLD/I2Cv1/i2c_lld.h"
 1801              		.file 40 "../lib/e-puck2_main-processor/ChibiOS//os/hal/include/i2s.h"
 1802              		.file 41 "../lib/e-puck2_main-processor/ChibiOS//os/hal/ports/STM32/LLD/SPIv1/i2s_lld.h"
 1803              		.file 42 "../lib/e-puck2_main-processor/ChibiOS//os/hal/include/pwm.h"
 1804              		.file 43 "../lib/e-puck2_main-processor/ChibiOS//os/hal/ports/STM32/LLD/TIMv1/pwm_lld.h"
 1805              		.file 44 "../lib/e-puck2_main-processor/ChibiOS//os/hal/include/serial.h"
 1806              		.file 45 "../lib/e-puck2_main-processor/ChibiOS//os/hal/ports/STM32/LLD/USARTv1/serial_lld.h"
 1807              		.file 46 "../lib/e-puck2_main-processor/ChibiOS//os/hal/include/sdc.h"
 1808              		.file 47 "../lib/e-puck2_main-processor/ChibiOS//os/hal/ports/STM32/LLD/sdc_lld.h"
 1809              		.file 48 "../lib/e-puck2_main-processor/ChibiOS//os/hal/include/spi.h"
 1810              		.file 49 "../lib/e-puck2_main-processor/ChibiOS//os/hal/ports/STM32/LLD/SPIv1/spi_lld.h"
 1811              		.file 50 "../lib/e-puck2_main-processor/ChibiOS//os/hal/include/usb.h"
 1812              		.file 51 "../lib/e-puck2_main-processor/ChibiOS//os/hal/ports/STM32/LLD/OTGv1/usb_lld.h"
 1813              		.file 52 "../lib/e-puck2_main-processor/ChibiOS//os/hal/ports/STM32/LLD/OTGv1/stm32_otg.h"
 1814              		.file 53 "../lib/e-puck2_main-processor/ChibiOS_ext/os/hal/include/spi3_slave.h"