ARM GAS  C:\Users\PCHAUT~1\AppData\Local\Temp\cc8SOeDa.s 			page 1


   1              		.cpu cortex-m4
   2              		.eabi_attribute 27, 1
   3              		.eabi_attribute 28, 1
   4              		.eabi_attribute 20, 1
   5              		.eabi_attribute 21, 1
   6              		.eabi_attribute 23, 3
   7              		.eabi_attribute 24, 1
   8              		.eabi_attribute 25, 1
   9              		.eabi_attribute 26, 1
  10              		.eabi_attribute 30, 6
  11              		.eabi_attribute 34, 1
  12              		.eabi_attribute 18, 4
  13              		.file	"spi_lld.c"
  14              		.text
  15              	.Ltext0:
  16              		.cfi_sections	.debug_frame
  17              		.section	.text.port_lock,"ax",%progbits
  18              		.align	1
  19              		.p2align 4,,15
  20              		.syntax unified
  21              		.thumb
  22              		.thumb_func
  23              		.fpu fpv4-sp-d16
  24              		.type	port_lock, %function
  25              	port_lock:
  26              	.LFB116:
  27              		.file 1 "../lib/e-puck2_main-processor/ChibiOS//os/rt/ports/ARMCMx/chcore_v7m.h"
  28              		.loc 1 444 0
  29              		.cfi_startproc
  30              		@ args = 0, pretend = 0, frame = 8
  31              		@ frame_needed = 0, uses_anonymous_args = 0
  32 0000 00B5     		push	{lr}
  33              		.cfi_def_cfa_offset 4
  34              		.cfi_offset 14, -4
  35 0002 83B0     		sub	sp, sp, #12
  36              		.cfi_def_cfa_offset 16
  37              		.loc 1 444 0
  38 0004 094B     		ldr	r3, .L3
  39 0006 1B68     		ldr	r3, [r3]
  40 0008 0193     		str	r3, [sp, #4]
  41 000a 2023     		movs	r3, #32
  42 000c 0093     		str	r3, [sp]
  43              	.LBB6:
  44              	.LBB7:
  45              		.file 2 "../lib/e-puck2_main-processor/ChibiOS//os/ext/CMSIS/include/core_cmFunc.h"
  46              		.loc 2 546 0
  47 000e 009B     		ldr	r3, [sp]
  48              		.syntax unified
  49              	@ 546 "../lib/e-puck2_main-processor/ChibiOS//os/ext/CMSIS/include/core_cmFunc.h" 1
  50 0010 83F31188 		MSR basepri, r3
  51              	@ 0 "" 2
  52              		.thumb
  53              		.syntax unified
  54              	.LBE7:
  55              	.LBE6:
  56              		.loc 1 451 0
  57 0014 00BF     		nop
ARM GAS  C:\Users\PCHAUT~1\AppData\Local\Temp\cc8SOeDa.s 			page 2


  58 0016 054B     		ldr	r3, .L3
  59 0018 019A     		ldr	r2, [sp, #4]
  60 001a 1B68     		ldr	r3, [r3]
  61 001c 9A42     		cmp	r2, r3
  62 001e 01D0     		beq	.L2
  63 0020 FFF7FEFF 		bl	__stack_chk_fail
  64              	.L2:
  65 0024 03B0     		add	sp, sp, #12
  66              		.cfi_def_cfa_offset 4
  67              		@ sp needed
  68 0026 5DF804FB 		ldr	pc, [sp], #4
  69              	.L4:
  70 002a 00BF     		.align	2
  71              	.L3:
  72 002c 00000000 		.word	__stack_chk_guard
  73              		.cfi_endproc
  74              	.LFE116:
  75              		.size	port_lock, .-port_lock
  76              		.section	.text.port_unlock,"ax",%progbits
  77              		.align	1
  78              		.p2align 4,,15
  79              		.syntax unified
  80              		.thumb
  81              		.thumb_func
  82              		.fpu fpv4-sp-d16
  83              		.type	port_unlock, %function
  84              	port_unlock:
  85              	.LFB117:
  86              		.loc 1 458 0
  87              		.cfi_startproc
  88              		@ args = 0, pretend = 0, frame = 8
  89              		@ frame_needed = 0, uses_anonymous_args = 0
  90 0000 00B5     		push	{lr}
  91              		.cfi_def_cfa_offset 4
  92              		.cfi_offset 14, -4
  93 0002 83B0     		sub	sp, sp, #12
  94              		.cfi_def_cfa_offset 16
  95              		.loc 1 458 0
  96 0004 094B     		ldr	r3, .L7
  97 0006 1B68     		ldr	r3, [r3]
  98 0008 0193     		str	r3, [sp, #4]
  99 000a 0023     		movs	r3, #0
 100 000c 0093     		str	r3, [sp]
 101              	.LBB8:
 102              	.LBB9:
 103              		.loc 2 546 0
 104 000e 009B     		ldr	r3, [sp]
 105              		.syntax unified
 106              	@ 546 "../lib/e-puck2_main-processor/ChibiOS//os/ext/CMSIS/include/core_cmFunc.h" 1
 107 0010 83F31188 		MSR basepri, r3
 108              	@ 0 "" 2
 109              		.thumb
 110              		.syntax unified
 111              	.LBE9:
 112              	.LBE8:
 113              		.loc 1 465 0
 114 0014 00BF     		nop
ARM GAS  C:\Users\PCHAUT~1\AppData\Local\Temp\cc8SOeDa.s 			page 3


 115 0016 054B     		ldr	r3, .L7
 116 0018 019A     		ldr	r2, [sp, #4]
 117 001a 1B68     		ldr	r3, [r3]
 118 001c 9A42     		cmp	r2, r3
 119 001e 01D0     		beq	.L6
 120 0020 FFF7FEFF 		bl	__stack_chk_fail
 121              	.L6:
 122 0024 03B0     		add	sp, sp, #12
 123              		.cfi_def_cfa_offset 4
 124              		@ sp needed
 125 0026 5DF804FB 		ldr	pc, [sp], #4
 126              	.L8:
 127 002a 00BF     		.align	2
 128              	.L7:
 129 002c 00000000 		.word	__stack_chk_guard
 130              		.cfi_endproc
 131              	.LFE117:
 132              		.size	port_unlock, .-port_unlock
 133              		.section	.text.port_lock_from_isr,"ax",%progbits
 134              		.align	1
 135              		.p2align 4,,15
 136              		.syntax unified
 137              		.thumb
 138              		.thumb_func
 139              		.fpu fpv4-sp-d16
 140              		.type	port_lock_from_isr, %function
 141              	port_lock_from_isr:
 142              	.LFB118:
 143              		.loc 1 473 0
 144              		.cfi_startproc
 145              		@ args = 0, pretend = 0, frame = 8
 146              		@ frame_needed = 0, uses_anonymous_args = 0
 147 0000 00B5     		push	{lr}
 148              		.cfi_def_cfa_offset 4
 149              		.cfi_offset 14, -4
 150 0002 83B0     		sub	sp, sp, #12
 151              		.cfi_def_cfa_offset 16
 152              		.loc 1 473 0
 153 0004 074B     		ldr	r3, .L11
 154 0006 1B68     		ldr	r3, [r3]
 155 0008 0193     		str	r3, [sp, #4]
 156              		.loc 1 475 0
 157 000a FFF7FEFF 		bl	port_lock
 158              		.loc 1 476 0
 159 000e 00BF     		nop
 160 0010 044B     		ldr	r3, .L11
 161 0012 019A     		ldr	r2, [sp, #4]
 162 0014 1B68     		ldr	r3, [r3]
 163 0016 9A42     		cmp	r2, r3
 164 0018 01D0     		beq	.L10
 165 001a FFF7FEFF 		bl	__stack_chk_fail
 166              	.L10:
 167 001e 03B0     		add	sp, sp, #12
 168              		.cfi_def_cfa_offset 4
 169              		@ sp needed
 170 0020 5DF804FB 		ldr	pc, [sp], #4
 171              	.L12:
ARM GAS  C:\Users\PCHAUT~1\AppData\Local\Temp\cc8SOeDa.s 			page 4


 172              		.align	2
 173              	.L11:
 174 0024 00000000 		.word	__stack_chk_guard
 175              		.cfi_endproc
 176              	.LFE118:
 177              		.size	port_lock_from_isr, .-port_lock_from_isr
 178              		.section	.text.port_unlock_from_isr,"ax",%progbits
 179              		.align	1
 180              		.p2align 4,,15
 181              		.syntax unified
 182              		.thumb
 183              		.thumb_func
 184              		.fpu fpv4-sp-d16
 185              		.type	port_unlock_from_isr, %function
 186              	port_unlock_from_isr:
 187              	.LFB119:
 188              		.loc 1 484 0
 189              		.cfi_startproc
 190              		@ args = 0, pretend = 0, frame = 8
 191              		@ frame_needed = 0, uses_anonymous_args = 0
 192 0000 00B5     		push	{lr}
 193              		.cfi_def_cfa_offset 4
 194              		.cfi_offset 14, -4
 195 0002 83B0     		sub	sp, sp, #12
 196              		.cfi_def_cfa_offset 16
 197              		.loc 1 484 0
 198 0004 074B     		ldr	r3, .L15
 199 0006 1B68     		ldr	r3, [r3]
 200 0008 0193     		str	r3, [sp, #4]
 201              		.loc 1 486 0
 202 000a FFF7FEFF 		bl	port_unlock
 203              		.loc 1 487 0
 204 000e 00BF     		nop
 205 0010 044B     		ldr	r3, .L15
 206 0012 019A     		ldr	r2, [sp, #4]
 207 0014 1B68     		ldr	r3, [r3]
 208 0016 9A42     		cmp	r2, r3
 209 0018 01D0     		beq	.L14
 210 001a FFF7FEFF 		bl	__stack_chk_fail
 211              	.L14:
 212 001e 03B0     		add	sp, sp, #12
 213              		.cfi_def_cfa_offset 4
 214              		@ sp needed
 215 0020 5DF804FB 		ldr	pc, [sp], #4
 216              	.L16:
 217              		.align	2
 218              	.L15:
 219 0024 00000000 		.word	__stack_chk_guard
 220              		.cfi_endproc
 221              	.LFE119:
 222              		.size	port_unlock_from_isr, .-port_unlock_from_isr
 223              		.section	.text.chSysLockFromISR,"ax",%progbits
 224              		.align	1
 225              		.p2align 4,,15
 226              		.syntax unified
 227              		.thumb
 228              		.thumb_func
ARM GAS  C:\Users\PCHAUT~1\AppData\Local\Temp\cc8SOeDa.s 			page 5


 229              		.fpu fpv4-sp-d16
 230              		.type	chSysLockFromISR, %function
 231              	chSysLockFromISR:
 232              	.LFB147:
 233              		.file 3 "../lib/e-puck2_main-processor/ChibiOS//os/rt/include/chsys.h"
 234              		.loc 3 386 0
 235              		.cfi_startproc
 236              		@ args = 0, pretend = 0, frame = 8
 237              		@ frame_needed = 0, uses_anonymous_args = 0
 238 0000 00B5     		push	{lr}
 239              		.cfi_def_cfa_offset 4
 240              		.cfi_offset 14, -4
 241 0002 83B0     		sub	sp, sp, #12
 242              		.cfi_def_cfa_offset 16
 243              		.loc 3 386 0
 244 0004 094B     		ldr	r3, .L19
 245 0006 1B68     		ldr	r3, [r3]
 246 0008 0193     		str	r3, [sp, #4]
 247              		.loc 3 388 0
 248 000a FFF7FEFF 		bl	port_lock_from_isr
 249              		.loc 3 389 0
 250 000e FFF7FEFF 		bl	_stats_start_measure_crit_isr
 251              		.loc 3 390 0
 252 0012 FFF7FEFF 		bl	_dbg_check_lock_from_isr
 253              		.loc 3 391 0
 254 0016 00BF     		nop
 255 0018 044B     		ldr	r3, .L19
 256 001a 019A     		ldr	r2, [sp, #4]
 257 001c 1B68     		ldr	r3, [r3]
 258 001e 9A42     		cmp	r2, r3
 259 0020 01D0     		beq	.L18
 260 0022 FFF7FEFF 		bl	__stack_chk_fail
 261              	.L18:
 262 0026 03B0     		add	sp, sp, #12
 263              		.cfi_def_cfa_offset 4
 264              		@ sp needed
 265 0028 5DF804FB 		ldr	pc, [sp], #4
 266              	.L20:
 267              		.align	2
 268              	.L19:
 269 002c 00000000 		.word	__stack_chk_guard
 270              		.cfi_endproc
 271              	.LFE147:
 272              		.size	chSysLockFromISR, .-chSysLockFromISR
 273              		.section	.text.chSysUnlockFromISR,"ax",%progbits
 274              		.align	1
 275              		.p2align 4,,15
 276              		.syntax unified
 277              		.thumb
 278              		.thumb_func
 279              		.fpu fpv4-sp-d16
 280              		.type	chSysUnlockFromISR, %function
 281              	chSysUnlockFromISR:
 282              	.LFB148:
 283              		.loc 3 406 0
 284              		.cfi_startproc
 285              		@ args = 0, pretend = 0, frame = 8
ARM GAS  C:\Users\PCHAUT~1\AppData\Local\Temp\cc8SOeDa.s 			page 6


 286              		@ frame_needed = 0, uses_anonymous_args = 0
 287 0000 00B5     		push	{lr}
 288              		.cfi_def_cfa_offset 4
 289              		.cfi_offset 14, -4
 290 0002 83B0     		sub	sp, sp, #12
 291              		.cfi_def_cfa_offset 16
 292              		.loc 3 406 0
 293 0004 094B     		ldr	r3, .L23
 294 0006 1B68     		ldr	r3, [r3]
 295 0008 0193     		str	r3, [sp, #4]
 296              		.loc 3 408 0
 297 000a FFF7FEFF 		bl	_dbg_check_unlock_from_isr
 298              		.loc 3 409 0
 299 000e FFF7FEFF 		bl	_stats_stop_measure_crit_isr
 300              		.loc 3 410 0
 301 0012 FFF7FEFF 		bl	port_unlock_from_isr
 302              		.loc 3 411 0
 303 0016 00BF     		nop
 304 0018 044B     		ldr	r3, .L23
 305 001a 019A     		ldr	r2, [sp, #4]
 306 001c 1B68     		ldr	r3, [r3]
 307 001e 9A42     		cmp	r2, r3
 308 0020 01D0     		beq	.L22
 309 0022 FFF7FEFF 		bl	__stack_chk_fail
 310              	.L22:
 311 0026 03B0     		add	sp, sp, #12
 312              		.cfi_def_cfa_offset 4
 313              		@ sp needed
 314 0028 5DF804FB 		ldr	pc, [sp], #4
 315              	.L24:
 316              		.align	2
 317              	.L23:
 318 002c 00000000 		.word	__stack_chk_guard
 319              		.cfi_endproc
 320              	.LFE148:
 321              		.size	chSysUnlockFromISR, .-chSysUnlockFromISR
 322              		.section	.text.osalSysHalt,"ax",%progbits
 323              		.align	1
 324              		.p2align 4,,15
 325              		.syntax unified
 326              		.thumb
 327              		.thumb_func
 328              		.fpu fpv4-sp-d16
 329              		.type	osalSysHalt, %function
 330              	osalSysHalt:
 331              	.LFB220:
 332              		.file 4 "../lib/e-puck2_main-processor/ChibiOS//os/hal/osal/rt/osal.h"
 333              		.loc 4 414 0
 334              		.cfi_startproc
 335              		@ args = 0, pretend = 0, frame = 16
 336              		@ frame_needed = 0, uses_anonymous_args = 0
 337 0000 00B5     		push	{lr}
 338              		.cfi_def_cfa_offset 4
 339              		.cfi_offset 14, -4
 340 0002 85B0     		sub	sp, sp, #20
 341              		.cfi_def_cfa_offset 24
 342 0004 0190     		str	r0, [sp, #4]
ARM GAS  C:\Users\PCHAUT~1\AppData\Local\Temp\cc8SOeDa.s 			page 7


 343              		.loc 4 414 0
 344 0006 084B     		ldr	r3, .L27
 345 0008 1B68     		ldr	r3, [r3]
 346 000a 0393     		str	r3, [sp, #12]
 347              		.loc 4 416 0
 348 000c 0198     		ldr	r0, [sp, #4]
 349 000e FFF7FEFF 		bl	chSysHalt
 350              		.loc 4 417 0
 351 0012 00BF     		nop
 352 0014 044B     		ldr	r3, .L27
 353 0016 039A     		ldr	r2, [sp, #12]
 354 0018 1B68     		ldr	r3, [r3]
 355 001a 9A42     		cmp	r2, r3
 356 001c 01D0     		beq	.L26
 357 001e FFF7FEFF 		bl	__stack_chk_fail
 358              	.L26:
 359 0022 05B0     		add	sp, sp, #20
 360              		.cfi_def_cfa_offset 4
 361              		@ sp needed
 362 0024 5DF804FB 		ldr	pc, [sp], #4
 363              	.L28:
 364              		.align	2
 365              	.L27:
 366 0028 00000000 		.word	__stack_chk_guard
 367              		.cfi_endproc
 368              	.LFE220:
 369              		.size	osalSysHalt, .-osalSysHalt
 370              		.section	.text.osalSysLockFromISR,"ax",%progbits
 371              		.align	1
 372              		.p2align 4,,15
 373              		.syntax unified
 374              		.thumb
 375              		.thumb_func
 376              		.fpu fpv4-sp-d16
 377              		.type	osalSysLockFromISR, %function
 378              	osalSysLockFromISR:
 379              	.LFB225:
 380              		.loc 4 467 0
 381              		.cfi_startproc
 382              		@ args = 0, pretend = 0, frame = 8
 383              		@ frame_needed = 0, uses_anonymous_args = 0
 384 0000 00B5     		push	{lr}
 385              		.cfi_def_cfa_offset 4
 386              		.cfi_offset 14, -4
 387 0002 83B0     		sub	sp, sp, #12
 388              		.cfi_def_cfa_offset 16
 389              		.loc 4 467 0
 390 0004 074B     		ldr	r3, .L31
 391 0006 1B68     		ldr	r3, [r3]
 392 0008 0193     		str	r3, [sp, #4]
 393              		.loc 4 469 0
 394 000a FFF7FEFF 		bl	chSysLockFromISR
 395              		.loc 4 470 0
 396 000e 00BF     		nop
 397 0010 044B     		ldr	r3, .L31
 398 0012 019A     		ldr	r2, [sp, #4]
 399 0014 1B68     		ldr	r3, [r3]
ARM GAS  C:\Users\PCHAUT~1\AppData\Local\Temp\cc8SOeDa.s 			page 8


 400 0016 9A42     		cmp	r2, r3
 401 0018 01D0     		beq	.L30
 402 001a FFF7FEFF 		bl	__stack_chk_fail
 403              	.L30:
 404 001e 03B0     		add	sp, sp, #12
 405              		.cfi_def_cfa_offset 4
 406              		@ sp needed
 407 0020 5DF804FB 		ldr	pc, [sp], #4
 408              	.L32:
 409              		.align	2
 410              	.L31:
 411 0024 00000000 		.word	__stack_chk_guard
 412              		.cfi_endproc
 413              	.LFE225:
 414              		.size	osalSysLockFromISR, .-osalSysLockFromISR
 415              		.section	.text.osalSysUnlockFromISR,"ax",%progbits
 416              		.align	1
 417              		.p2align 4,,15
 418              		.syntax unified
 419              		.thumb
 420              		.thumb_func
 421              		.fpu fpv4-sp-d16
 422              		.type	osalSysUnlockFromISR, %function
 423              	osalSysUnlockFromISR:
 424              	.LFB226:
 425              		.loc 4 478 0
 426              		.cfi_startproc
 427              		@ args = 0, pretend = 0, frame = 8
 428              		@ frame_needed = 0, uses_anonymous_args = 0
 429 0000 00B5     		push	{lr}
 430              		.cfi_def_cfa_offset 4
 431              		.cfi_offset 14, -4
 432 0002 83B0     		sub	sp, sp, #12
 433              		.cfi_def_cfa_offset 16
 434              		.loc 4 478 0
 435 0004 074B     		ldr	r3, .L35
 436 0006 1B68     		ldr	r3, [r3]
 437 0008 0193     		str	r3, [sp, #4]
 438              		.loc 4 480 0
 439 000a FFF7FEFF 		bl	chSysUnlockFromISR
 440              		.loc 4 481 0
 441 000e 00BF     		nop
 442 0010 044B     		ldr	r3, .L35
 443 0012 019A     		ldr	r2, [sp, #4]
 444 0014 1B68     		ldr	r3, [r3]
 445 0016 9A42     		cmp	r2, r3
 446 0018 01D0     		beq	.L34
 447 001a FFF7FEFF 		bl	__stack_chk_fail
 448              	.L34:
 449 001e 03B0     		add	sp, sp, #12
 450              		.cfi_def_cfa_offset 4
 451              		@ sp needed
 452 0020 5DF804FB 		ldr	pc, [sp], #4
 453              	.L36:
 454              		.align	2
 455              	.L35:
 456 0024 00000000 		.word	__stack_chk_guard
ARM GAS  C:\Users\PCHAUT~1\AppData\Local\Temp\cc8SOeDa.s 			page 9


 457              		.cfi_endproc
 458              	.LFE226:
 459              		.size	osalSysUnlockFromISR, .-osalSysUnlockFromISR
 460              		.section	.text.osalThreadResumeI,"ax",%progbits
 461              		.align	1
 462              		.p2align 4,,15
 463              		.syntax unified
 464              		.thumb
 465              		.thumb_func
 466              		.fpu fpv4-sp-d16
 467              		.type	osalThreadResumeI, %function
 468              	osalThreadResumeI:
 469              	.LFB238:
 470              		.loc 4 680 0
 471              		.cfi_startproc
 472              		@ args = 0, pretend = 0, frame = 16
 473              		@ frame_needed = 0, uses_anonymous_args = 0
 474 0000 00B5     		push	{lr}
 475              		.cfi_def_cfa_offset 4
 476              		.cfi_offset 14, -4
 477 0002 85B0     		sub	sp, sp, #20
 478              		.cfi_def_cfa_offset 24
 479 0004 0190     		str	r0, [sp, #4]
 480 0006 0091     		str	r1, [sp]
 481              		.loc 4 680 0
 482 0008 084B     		ldr	r3, .L39
 483 000a 1B68     		ldr	r3, [r3]
 484 000c 0393     		str	r3, [sp, #12]
 485              		.loc 4 682 0
 486 000e 0099     		ldr	r1, [sp]
 487 0010 0198     		ldr	r0, [sp, #4]
 488 0012 FFF7FEFF 		bl	chThdResumeI
 489              		.loc 4 683 0
 490 0016 00BF     		nop
 491 0018 044B     		ldr	r3, .L39
 492 001a 039A     		ldr	r2, [sp, #12]
 493 001c 1B68     		ldr	r3, [r3]
 494 001e 9A42     		cmp	r2, r3
 495 0020 01D0     		beq	.L38
 496 0022 FFF7FEFF 		bl	__stack_chk_fail
 497              	.L38:
 498 0026 05B0     		add	sp, sp, #20
 499              		.cfi_def_cfa_offset 4
 500              		@ sp needed
 501 0028 5DF804FB 		ldr	pc, [sp], #4
 502              	.L40:
 503              		.align	2
 504              	.L39:
 505 002c 00000000 		.word	__stack_chk_guard
 506              		.cfi_endproc
 507              	.LFE238:
 508              		.size	osalThreadResumeI, .-osalThreadResumeI
 509              		.global	SPID1
 510              		.section	.bss.SPID1,"aw",%nobits
 511              		.align	2
 512              		.type	SPID1, %object
 513              		.size	SPID1, 52
ARM GAS  C:\Users\PCHAUT~1\AppData\Local\Temp\cc8SOeDa.s 			page 10


 514              	SPID1:
 515 0000 00000000 		.space	52
 515      00000000 
 515      00000000 
 515      00000000 
 515      00000000 
 516              		.section	.bss.dummytx,"aw",%nobits
 517              		.align	1
 518              		.type	dummytx, %object
 519              		.size	dummytx, 2
 520              	dummytx:
 521 0000 0000     		.space	2
 522              		.section	.bss.dummyrx,"aw",%nobits
 523              		.align	1
 524              		.type	dummyrx, %object
 525              		.size	dummyrx, 2
 526              	dummyrx:
 527 0000 0000     		.space	2
 528              		.section	.rodata
 529              		.align	2
 530              	.LC0:
 531 0000 444D4120 		.ascii	"DMA failure\000"
 531      6661696C 
 531      75726500 
 532              		.section	.text.spi_lld_serve_rx_interrupt,"ax",%progbits
 533              		.align	1
 534              		.p2align 4,,15
 535              		.syntax unified
 536              		.thumb
 537              		.thumb_func
 538              		.fpu fpv4-sp-d16
 539              		.type	spi_lld_serve_rx_interrupt, %function
 540              	spi_lld_serve_rx_interrupt:
 541              	.LFB256:
 542              		.file 5 "../lib/e-puck2_main-processor/ChibiOS//os/hal/ports/STM32/LLD/SPIv1/spi_lld.c"
 543              		.loc 5 132 0
 544              		.cfi_startproc
 545              		@ args = 0, pretend = 0, frame = 16
 546              		@ frame_needed = 0, uses_anonymous_args = 0
 547 0000 00B5     		push	{lr}
 548              		.cfi_def_cfa_offset 4
 549              		.cfi_offset 14, -4
 550 0002 85B0     		sub	sp, sp, #20
 551              		.cfi_def_cfa_offset 24
 552 0004 0190     		str	r0, [sp, #4]
 553 0006 0091     		str	r1, [sp]
 554              		.loc 5 132 0
 555 0008 394B     		ldr	r3, .L49
 556 000a 1B68     		ldr	r3, [r3]
 557 000c 0393     		str	r3, [sp, #12]
 558              		.loc 5 136 0
 559 000e 009B     		ldr	r3, [sp]
 560 0010 03F00C03 		and	r3, r3, #12
 561 0014 002B     		cmp	r3, #0
 562 0016 02D0     		beq	.L42
 563              		.loc 5 137 0
 564 0018 3648     		ldr	r0, .L49+4
ARM GAS  C:\Users\PCHAUT~1\AppData\Local\Temp\cc8SOeDa.s 			page 11


 565 001a FFF7FEFF 		bl	osalSysHalt
 566              	.L42:
 567              		.loc 5 144 0
 568 001e 019B     		ldr	r3, [sp, #4]
 569 0020 9B6A     		ldr	r3, [r3, #40]
 570 0022 1B68     		ldr	r3, [r3]
 571 0024 1A68     		ldr	r2, [r3]
 572 0026 019B     		ldr	r3, [sp, #4]
 573 0028 9B6A     		ldr	r3, [r3, #40]
 574 002a 1B68     		ldr	r3, [r3]
 575 002c 22F01F02 		bic	r2, r2, #31
 576 0030 1A60     		str	r2, [r3]
 577 0032 00BF     		nop
 578              	.L43:
 579              		.loc 5 144 0 is_stmt 0 discriminator 2
 580 0034 019B     		ldr	r3, [sp, #4]
 581 0036 9B6A     		ldr	r3, [r3, #40]
 582 0038 1B68     		ldr	r3, [r3]
 583 003a 1B68     		ldr	r3, [r3]
 584 003c 03F00103 		and	r3, r3, #1
 585 0040 002B     		cmp	r3, #0
 586 0042 F7D1     		bne	.L43
 587              		.loc 5 144 0 discriminator 3
 588 0044 019B     		ldr	r3, [sp, #4]
 589 0046 9B6A     		ldr	r3, [r3, #40]
 590 0048 1B7A     		ldrb	r3, [r3, #8]	@ zero_extendqisi2
 591 004a 1A46     		mov	r2, r3
 592 004c 3D23     		movs	r3, #61
 593 004e 03FA02F2 		lsl	r2, r3, r2
 594 0052 019B     		ldr	r3, [sp, #4]
 595 0054 9B6A     		ldr	r3, [r3, #40]
 596 0056 5B68     		ldr	r3, [r3, #4]
 597 0058 1A60     		str	r2, [r3]
 598              		.loc 5 145 0 is_stmt 1 discriminator 3
 599 005a 019B     		ldr	r3, [sp, #4]
 600 005c 5B6A     		ldr	r3, [r3, #36]
 601 005e 1B68     		ldr	r3, [r3]
 602 0060 1A68     		ldr	r2, [r3]
 603 0062 019B     		ldr	r3, [sp, #4]
 604 0064 5B6A     		ldr	r3, [r3, #36]
 605 0066 1B68     		ldr	r3, [r3]
 606 0068 22F01F02 		bic	r2, r2, #31
 607 006c 1A60     		str	r2, [r3]
 608 006e 00BF     		nop
 609              	.L44:
 610              		.loc 5 145 0 is_stmt 0 discriminator 2
 611 0070 019B     		ldr	r3, [sp, #4]
 612 0072 5B6A     		ldr	r3, [r3, #36]
 613 0074 1B68     		ldr	r3, [r3]
 614 0076 1B68     		ldr	r3, [r3]
 615 0078 03F00103 		and	r3, r3, #1
 616 007c 002B     		cmp	r3, #0
 617 007e F7D1     		bne	.L44
 618              		.loc 5 145 0 discriminator 3
 619 0080 019B     		ldr	r3, [sp, #4]
 620 0082 5B6A     		ldr	r3, [r3, #36]
 621 0084 1B7A     		ldrb	r3, [r3, #8]	@ zero_extendqisi2
ARM GAS  C:\Users\PCHAUT~1\AppData\Local\Temp\cc8SOeDa.s 			page 12


 622 0086 1A46     		mov	r2, r3
 623 0088 3D23     		movs	r3, #61
 624 008a 03FA02F2 		lsl	r2, r3, r2
 625 008e 019B     		ldr	r3, [sp, #4]
 626 0090 5B6A     		ldr	r3, [r3, #36]
 627 0092 5B68     		ldr	r3, [r3, #4]
 628 0094 1A60     		str	r2, [r3]
 629              		.loc 5 149 0 is_stmt 1 discriminator 3
 630 0096 019B     		ldr	r3, [sp, #4]
 631 0098 5B68     		ldr	r3, [r3, #4]
 632 009a 1B68     		ldr	r3, [r3]
 633 009c 002B     		cmp	r3, #0
 634 009e 0FD0     		beq	.L45
 635              		.loc 5 149 0 is_stmt 0 discriminator 1
 636 00a0 019B     		ldr	r3, [sp, #4]
 637 00a2 0422     		movs	r2, #4
 638 00a4 1A70     		strb	r2, [r3]
 639 00a6 019B     		ldr	r3, [sp, #4]
 640 00a8 5B68     		ldr	r3, [r3, #4]
 641 00aa 1B68     		ldr	r3, [r3]
 642 00ac 0198     		ldr	r0, [sp, #4]
 643 00ae 9847     		blx	r3
 644              	.LVL0:
 645 00b0 019B     		ldr	r3, [sp, #4]
 646 00b2 1B78     		ldrb	r3, [r3]	@ zero_extendqisi2
 647 00b4 042B     		cmp	r3, #4
 648 00b6 06D1     		bne	.L47
 649              		.loc 5 149 0 discriminator 3
 650 00b8 019B     		ldr	r3, [sp, #4]
 651 00ba 0222     		movs	r2, #2
 652 00bc 1A70     		strb	r2, [r3]
 653 00be 02E0     		b	.L47
 654              	.L45:
 655              		.loc 5 149 0 discriminator 2
 656 00c0 019B     		ldr	r3, [sp, #4]
 657 00c2 0222     		movs	r2, #2
 658 00c4 1A70     		strb	r2, [r3]
 659              	.L47:
 660              		.loc 5 149 0 discriminator 4
 661 00c6 FFF7FEFF 		bl	osalSysLockFromISR
 662 00ca 019B     		ldr	r3, [sp, #4]
 663 00cc 0833     		adds	r3, r3, #8
 664 00ce 0021     		movs	r1, #0
 665 00d0 1846     		mov	r0, r3
 666 00d2 FFF7FEFF 		bl	osalThreadResumeI
 667 00d6 FFF7FEFF 		bl	osalSysUnlockFromISR
 668              		.loc 5 150 0 is_stmt 1 discriminator 4
 669 00da 00BF     		nop
 670 00dc 044B     		ldr	r3, .L49
 671 00de 039A     		ldr	r2, [sp, #12]
 672 00e0 1B68     		ldr	r3, [r3]
 673 00e2 9A42     		cmp	r2, r3
 674 00e4 01D0     		beq	.L48
 675              		.loc 5 150 0 is_stmt 0
 676 00e6 FFF7FEFF 		bl	__stack_chk_fail
 677              	.L48:
 678 00ea 05B0     		add	sp, sp, #20
ARM GAS  C:\Users\PCHAUT~1\AppData\Local\Temp\cc8SOeDa.s 			page 13


 679              		.cfi_def_cfa_offset 4
 680              		@ sp needed
 681 00ec 5DF804FB 		ldr	pc, [sp], #4
 682              	.L50:
 683              		.align	2
 684              	.L49:
 685 00f0 00000000 		.word	__stack_chk_guard
 686 00f4 00000000 		.word	.LC0
 687              		.cfi_endproc
 688              	.LFE256:
 689              		.size	spi_lld_serve_rx_interrupt, .-spi_lld_serve_rx_interrupt
 690              		.section	.text.spi_lld_serve_tx_interrupt,"ax",%progbits
 691              		.align	1
 692              		.p2align 4,,15
 693              		.syntax unified
 694              		.thumb
 695              		.thumb_func
 696              		.fpu fpv4-sp-d16
 697              		.type	spi_lld_serve_tx_interrupt, %function
 698              	spi_lld_serve_tx_interrupt:
 699              	.LFB257:
 700              		.loc 5 158 0 is_stmt 1
 701              		.cfi_startproc
 702              		@ args = 0, pretend = 0, frame = 16
 703              		@ frame_needed = 0, uses_anonymous_args = 0
 704 0000 00B5     		push	{lr}
 705              		.cfi_def_cfa_offset 4
 706              		.cfi_offset 14, -4
 707 0002 85B0     		sub	sp, sp, #20
 708              		.cfi_def_cfa_offset 24
 709 0004 0190     		str	r0, [sp, #4]
 710 0006 0091     		str	r1, [sp]
 711              		.loc 5 158 0
 712 0008 0A4B     		ldr	r3, .L55
 713 000a 1B68     		ldr	r3, [r3]
 714 000c 0393     		str	r3, [sp, #12]
 715              		.loc 5 163 0
 716 000e 009B     		ldr	r3, [sp]
 717 0010 03F00C03 		and	r3, r3, #12
 718 0014 002B     		cmp	r3, #0
 719 0016 02D0     		beq	.L54
 720              		.loc 5 164 0
 721 0018 0748     		ldr	r0, .L55+4
 722 001a FFF7FEFF 		bl	osalSysHalt
 723              	.L54:
 724              		.loc 5 170 0
 725 001e 00BF     		nop
 726 0020 044B     		ldr	r3, .L55
 727 0022 039A     		ldr	r2, [sp, #12]
 728 0024 1B68     		ldr	r3, [r3]
 729 0026 9A42     		cmp	r2, r3
 730 0028 01D0     		beq	.L53
 731 002a FFF7FEFF 		bl	__stack_chk_fail
 732              	.L53:
 733 002e 05B0     		add	sp, sp, #20
 734              		.cfi_def_cfa_offset 4
 735              		@ sp needed
ARM GAS  C:\Users\PCHAUT~1\AppData\Local\Temp\cc8SOeDa.s 			page 14


 736 0030 5DF804FB 		ldr	pc, [sp], #4
 737              	.L56:
 738              		.align	2
 739              	.L55:
 740 0034 00000000 		.word	__stack_chk_guard
 741 0038 00000000 		.word	.LC0
 742              		.cfi_endproc
 743              	.LFE257:
 744              		.size	spi_lld_serve_tx_interrupt, .-spi_lld_serve_tx_interrupt
 745              		.section	.text.spi_lld_init,"ax",%progbits
 746              		.align	1
 747              		.p2align 4,,15
 748              		.global	spi_lld_init
 749              		.syntax unified
 750              		.thumb
 751              		.thumb_func
 752              		.fpu fpv4-sp-d16
 753              		.type	spi_lld_init, %function
 754              	spi_lld_init:
 755              	.LFB258:
 756              		.loc 5 185 0
 757              		.cfi_startproc
 758              		@ args = 0, pretend = 0, frame = 8
 759              		@ frame_needed = 0, uses_anonymous_args = 0
 760 0000 00B5     		push	{lr}
 761              		.cfi_def_cfa_offset 4
 762              		.cfi_offset 14, -4
 763 0002 83B0     		sub	sp, sp, #12
 764              		.cfi_def_cfa_offset 16
 765              		.loc 5 185 0
 766 0004 114B     		ldr	r3, .L59
 767 0006 1B68     		ldr	r3, [r3]
 768 0008 0193     		str	r3, [sp, #4]
 769              		.loc 5 187 0
 770 000a 114B     		ldr	r3, .L59+4
 771 000c 4FF6FF72 		movw	r2, #65535
 772 0010 1A80     		strh	r2, [r3]	@ movhi
 773              		.loc 5 190 0
 774 0012 1048     		ldr	r0, .L59+8
 775 0014 FFF7FEFF 		bl	spiObjectInit
 776              		.loc 5 191 0
 777 0018 0E4B     		ldr	r3, .L59+8
 778 001a 0F4A     		ldr	r2, .L59+12
 779 001c 1A62     		str	r2, [r3, #32]
 780              		.loc 5 192 0
 781 001e 0D4B     		ldr	r3, .L59+8
 782 0020 0E4A     		ldr	r2, .L59+16
 783 0022 5A62     		str	r2, [r3, #36]
 784              		.loc 5 193 0
 785 0024 0B4B     		ldr	r3, .L59+8
 786 0026 0E4A     		ldr	r2, .L59+20
 787 0028 9A62     		str	r2, [r3, #40]
 788              		.loc 5 194 0
 789 002a 0A4B     		ldr	r3, .L59+8
 790 002c 0D4A     		ldr	r2, .L59+24
 791 002e DA62     		str	r2, [r3, #44]
 792              		.loc 5 200 0
ARM GAS  C:\Users\PCHAUT~1\AppData\Local\Temp\cc8SOeDa.s 			page 15


 793 0030 084B     		ldr	r3, .L59+8
 794 0032 0D4A     		ldr	r2, .L59+28
 795 0034 1A63     		str	r2, [r3, #48]
 796              		.loc 5 296 0
 797 0036 00BF     		nop
 798 0038 044B     		ldr	r3, .L59
 799 003a 019A     		ldr	r2, [sp, #4]
 800 003c 1B68     		ldr	r3, [r3]
 801 003e 9A42     		cmp	r2, r3
 802 0040 01D0     		beq	.L58
 803 0042 FFF7FEFF 		bl	__stack_chk_fail
 804              	.L58:
 805 0046 03B0     		add	sp, sp, #12
 806              		.cfi_def_cfa_offset 4
 807              		@ sp needed
 808 0048 5DF804FB 		ldr	pc, [sp], #4
 809              	.L60:
 810              		.align	2
 811              	.L59:
 812 004c 00000000 		.word	__stack_chk_guard
 813 0050 00000000 		.word	dummytx
 814 0054 00000000 		.word	SPID1
 815 0058 00300140 		.word	1073819648
 816 005c 60000000 		.word	_stm32_dma_streams+96
 817 0060 9C000000 		.word	_stm32_dma_streams+156
 818 0064 16000106 		.word	100728854
 819 0068 46000106 		.word	100728902
 820              		.cfi_endproc
 821              	.LFE258:
 822              		.size	spi_lld_init, .-spi_lld_init
 823              		.section	.text.spi_lld_start,"ax",%progbits
 824              		.align	1
 825              		.p2align 4,,15
 826              		.global	spi_lld_start
 827              		.syntax unified
 828              		.thumb
 829              		.thumb_func
 830              		.fpu fpv4-sp-d16
 831              		.type	spi_lld_start, %function
 832              	spi_lld_start:
 833              	.LFB259:
 834              		.loc 5 305 0
 835              		.cfi_startproc
 836              		@ args = 0, pretend = 0, frame = 16
 837              		@ frame_needed = 0, uses_anonymous_args = 0
 838 0000 00B5     		push	{lr}
 839              		.cfi_def_cfa_offset 4
 840              		.cfi_offset 14, -4
 841 0002 85B0     		sub	sp, sp, #20
 842              		.cfi_def_cfa_offset 24
 843 0004 0190     		str	r0, [sp, #4]
 844              		.loc 5 305 0
 845 0006 454B     		ldr	r3, .L69
 846 0008 1B68     		ldr	r3, [r3]
 847 000a 0393     		str	r3, [sp, #12]
 848              		.loc 5 308 0
 849 000c 019B     		ldr	r3, [sp, #4]
ARM GAS  C:\Users\PCHAUT~1\AppData\Local\Temp\cc8SOeDa.s 			page 16


 850 000e 1B78     		ldrb	r3, [r3]	@ zero_extendqisi2
 851 0010 012B     		cmp	r3, #1
 852 0012 3BD1     		bne	.L62
 853              		.loc 5 310 0
 854 0014 019B     		ldr	r3, [sp, #4]
 855 0016 424A     		ldr	r2, .L69+4
 856 0018 9342     		cmp	r3, r2
 857 001a 27D1     		bne	.L63
 858              	.LBB10:
 859              		.loc 5 312 0
 860 001c 019B     		ldr	r3, [sp, #4]
 861 001e 586A     		ldr	r0, [r3, #36]
 862 0020 019B     		ldr	r3, [sp, #4]
 863 0022 404A     		ldr	r2, .L69+8
 864 0024 0A21     		movs	r1, #10
 865 0026 FFF7FEFF 		bl	dmaStreamAllocate
 866 002a 0346     		mov	r3, r0
 867 002c 8DF80B30 		strb	r3, [sp, #11]
 868              		.loc 5 316 0
 869 0030 9DF80B30 		ldrb	r3, [sp, #11]	@ zero_extendqisi2
 870 0034 002B     		cmp	r3, #0
 871 0036 02D0     		beq	.L64
 872              		.loc 5 316 0 is_stmt 0 discriminator 2
 873 0038 3B48     		ldr	r0, .L69+12
 874 003a FFF7FEFF 		bl	chSysHalt
 875              	.L64:
 876              		.loc 5 317 0 is_stmt 1
 877 003e 019B     		ldr	r3, [sp, #4]
 878 0040 986A     		ldr	r0, [r3, #40]
 879 0042 019B     		ldr	r3, [sp, #4]
 880 0044 394A     		ldr	r2, .L69+16
 881 0046 0A21     		movs	r1, #10
 882 0048 FFF7FEFF 		bl	dmaStreamAllocate
 883 004c 0346     		mov	r3, r0
 884 004e 8DF80B30 		strb	r3, [sp, #11]
 885              		.loc 5 321 0
 886 0052 9DF80B30 		ldrb	r3, [sp, #11]	@ zero_extendqisi2
 887 0056 002B     		cmp	r3, #0
 888 0058 02D0     		beq	.L65
 889              		.loc 5 321 0 is_stmt 0 discriminator 2
 890 005a 3348     		ldr	r0, .L69+12
 891 005c FFF7FEFF 		bl	chSysHalt
 892              	.L65:
 893              		.loc 5 322 0 is_stmt 1
 894 0060 334B     		ldr	r3, .L69+20
 895 0062 5B6C     		ldr	r3, [r3, #68]
 896 0064 324A     		ldr	r2, .L69+20
 897 0066 43F48053 		orr	r3, r3, #4096
 898 006a 5364     		str	r3, [r2, #68]
 899              	.L63:
 900              	.LBE10:
 901              		.loc 5 407 0
 902 006c 019B     		ldr	r3, [sp, #4]
 903 006e 1B6A     		ldr	r3, [r3, #32]
 904 0070 03F10C02 		add	r2, r3, #12
 905 0074 019B     		ldr	r3, [sp, #4]
 906 0076 5B6A     		ldr	r3, [r3, #36]
ARM GAS  C:\Users\PCHAUT~1\AppData\Local\Temp\cc8SOeDa.s 			page 17


 907 0078 1B68     		ldr	r3, [r3]
 908 007a 9A60     		str	r2, [r3, #8]
 909              		.loc 5 408 0
 910 007c 019B     		ldr	r3, [sp, #4]
 911 007e 1B6A     		ldr	r3, [r3, #32]
 912 0080 03F10C02 		add	r2, r3, #12
 913 0084 019B     		ldr	r3, [sp, #4]
 914 0086 9B6A     		ldr	r3, [r3, #40]
 915 0088 1B68     		ldr	r3, [r3]
 916 008a 9A60     		str	r2, [r3, #8]
 917              	.L62:
 918              		.loc 5 412 0
 919 008c 019B     		ldr	r3, [sp, #4]
 920 008e 5B68     		ldr	r3, [r3, #4]
 921 0090 5B89     		ldrh	r3, [r3, #10]
 922 0092 03F40063 		and	r3, r3, #2048
 923 0096 002B     		cmp	r3, #0
 924 0098 0CD1     		bne	.L66
 925              		.loc 5 414 0
 926 009a 019B     		ldr	r3, [sp, #4]
 927 009c DB6A     		ldr	r3, [r3, #44]
 928              		.loc 5 415 0
 929 009e 23F4F042 		bic	r2, r3, #30720
 930              		.loc 5 414 0
 931 00a2 019B     		ldr	r3, [sp, #4]
 932 00a4 DA62     		str	r2, [r3, #44]
 933              		.loc 5 416 0
 934 00a6 019B     		ldr	r3, [sp, #4]
 935 00a8 1B6B     		ldr	r3, [r3, #48]
 936              		.loc 5 417 0
 937 00aa 23F4F042 		bic	r2, r3, #30720
 938              		.loc 5 416 0
 939 00ae 019B     		ldr	r3, [sp, #4]
 940 00b0 1A63     		str	r2, [r3, #48]
 941 00b2 0FE0     		b	.L67
 942              	.L66:
 943              		.loc 5 421 0
 944 00b4 019B     		ldr	r3, [sp, #4]
 945 00b6 DB6A     		ldr	r3, [r3, #44]
 946 00b8 23F4F043 		bic	r3, r3, #30720
 947              		.loc 5 422 0
 948 00bc 43F42052 		orr	r2, r3, #10240
 949              		.loc 5 421 0
 950 00c0 019B     		ldr	r3, [sp, #4]
 951 00c2 DA62     		str	r2, [r3, #44]
 952              		.loc 5 423 0
 953 00c4 019B     		ldr	r3, [sp, #4]
 954 00c6 1B6B     		ldr	r3, [r3, #48]
 955 00c8 23F4F043 		bic	r3, r3, #30720
 956              		.loc 5 424 0
 957 00cc 43F42052 		orr	r2, r3, #10240
 958              		.loc 5 423 0
 959 00d0 019B     		ldr	r3, [sp, #4]
 960 00d2 1A63     		str	r2, [r3, #48]
 961              	.L67:
 962              		.loc 5 427 0
 963 00d4 019B     		ldr	r3, [sp, #4]
ARM GAS  C:\Users\PCHAUT~1\AppData\Local\Temp\cc8SOeDa.s 			page 18


 964 00d6 1B6A     		ldr	r3, [r3, #32]
 965 00d8 0022     		movs	r2, #0
 966 00da 1A60     		str	r2, [r3]
 967              		.loc 5 428 0
 968 00dc 019B     		ldr	r3, [sp, #4]
 969 00de 5B68     		ldr	r3, [r3, #4]
 970 00e0 5B89     		ldrh	r3, [r3, #10]
 971 00e2 43F44173 		orr	r3, r3, #772
 972 00e6 9AB2     		uxth	r2, r3
 973 00e8 019B     		ldr	r3, [sp, #4]
 974 00ea 1B6A     		ldr	r3, [r3, #32]
 975 00ec 1A60     		str	r2, [r3]
 976              		.loc 5 430 0
 977 00ee 019B     		ldr	r3, [sp, #4]
 978 00f0 1B6A     		ldr	r3, [r3, #32]
 979 00f2 0722     		movs	r2, #7
 980 00f4 5A60     		str	r2, [r3, #4]
 981              		.loc 5 431 0
 982 00f6 019B     		ldr	r3, [sp, #4]
 983 00f8 1B6A     		ldr	r3, [r3, #32]
 984 00fa 1A68     		ldr	r2, [r3]
 985 00fc 019B     		ldr	r3, [sp, #4]
 986 00fe 1B6A     		ldr	r3, [r3, #32]
 987 0100 42F04002 		orr	r2, r2, #64
 988 0104 1A60     		str	r2, [r3]
 989              		.loc 5 432 0
 990 0106 00BF     		nop
 991 0108 044B     		ldr	r3, .L69
 992 010a 039A     		ldr	r2, [sp, #12]
 993 010c 1B68     		ldr	r3, [r3]
 994 010e 9A42     		cmp	r2, r3
 995 0110 01D0     		beq	.L68
 996 0112 FFF7FEFF 		bl	__stack_chk_fail
 997              	.L68:
 998 0116 05B0     		add	sp, sp, #20
 999              		.cfi_def_cfa_offset 4
 1000              		@ sp needed
 1001 0118 5DF804FB 		ldr	pc, [sp], #4
 1002              	.L70:
 1003              		.align	2
 1004              	.L69:
 1005 011c 00000000 		.word	__stack_chk_guard
 1006 0120 00000000 		.word	SPID1
 1007 0124 00000000 		.word	spi_lld_serve_rx_interrupt
 1008 0128 00000000 		.word	__func__.9862
 1009 012c 00000000 		.word	spi_lld_serve_tx_interrupt
 1010 0130 00380240 		.word	1073887232
 1011              		.cfi_endproc
 1012              	.LFE259:
 1013              		.size	spi_lld_start, .-spi_lld_start
 1014              		.section	.text.spi_lld_stop,"ax",%progbits
 1015              		.align	1
 1016              		.p2align 4,,15
 1017              		.global	spi_lld_stop
 1018              		.syntax unified
 1019              		.thumb
 1020              		.thumb_func
ARM GAS  C:\Users\PCHAUT~1\AppData\Local\Temp\cc8SOeDa.s 			page 19


 1021              		.fpu fpv4-sp-d16
 1022              		.type	spi_lld_stop, %function
 1023              	spi_lld_stop:
 1024              	.LFB260:
 1025              		.loc 5 441 0
 1026              		.cfi_startproc
 1027              		@ args = 0, pretend = 0, frame = 16
 1028              		@ frame_needed = 0, uses_anonymous_args = 0
 1029 0000 00B5     		push	{lr}
 1030              		.cfi_def_cfa_offset 4
 1031              		.cfi_offset 14, -4
 1032 0002 85B0     		sub	sp, sp, #20
 1033              		.cfi_def_cfa_offset 24
 1034 0004 0190     		str	r0, [sp, #4]
 1035              		.loc 5 441 0
 1036 0006 174B     		ldr	r3, .L75
 1037 0008 1B68     		ldr	r3, [r3]
 1038 000a 0393     		str	r3, [sp, #12]
 1039              		.loc 5 444 0
 1040 000c 019B     		ldr	r3, [sp, #4]
 1041 000e 1B78     		ldrb	r3, [r3]	@ zero_extendqisi2
 1042 0010 022B     		cmp	r3, #2
 1043 0012 1BD1     		bne	.L74
 1044              		.loc 5 447 0
 1045 0014 019B     		ldr	r3, [sp, #4]
 1046 0016 1B6A     		ldr	r3, [r3, #32]
 1047 0018 0022     		movs	r2, #0
 1048 001a 1A60     		str	r2, [r3]
 1049              		.loc 5 448 0
 1050 001c 019B     		ldr	r3, [sp, #4]
 1051 001e 1B6A     		ldr	r3, [r3, #32]
 1052 0020 0022     		movs	r2, #0
 1053 0022 5A60     		str	r2, [r3, #4]
 1054              		.loc 5 449 0
 1055 0024 019B     		ldr	r3, [sp, #4]
 1056 0026 5B6A     		ldr	r3, [r3, #36]
 1057 0028 1846     		mov	r0, r3
 1058 002a FFF7FEFF 		bl	dmaStreamRelease
 1059              		.loc 5 450 0
 1060 002e 019B     		ldr	r3, [sp, #4]
 1061 0030 9B6A     		ldr	r3, [r3, #40]
 1062 0032 1846     		mov	r0, r3
 1063 0034 FFF7FEFF 		bl	dmaStreamRelease
 1064              		.loc 5 453 0
 1065 0038 019B     		ldr	r3, [sp, #4]
 1066 003a 0B4A     		ldr	r2, .L75+4
 1067 003c 9342     		cmp	r3, r2
 1068 003e 05D1     		bne	.L74
 1069              		.loc 5 454 0
 1070 0040 0A4B     		ldr	r3, .L75+8
 1071 0042 5B6C     		ldr	r3, [r3, #68]
 1072 0044 094A     		ldr	r2, .L75+8
 1073 0046 23F48053 		bic	r3, r3, #4096
 1074 004a 5364     		str	r3, [r2, #68]
 1075              	.L74:
 1076              		.loc 5 477 0
 1077 004c 00BF     		nop
ARM GAS  C:\Users\PCHAUT~1\AppData\Local\Temp\cc8SOeDa.s 			page 20


 1078 004e 054B     		ldr	r3, .L75
 1079 0050 039A     		ldr	r2, [sp, #12]
 1080 0052 1B68     		ldr	r3, [r3]
 1081 0054 9A42     		cmp	r2, r3
 1082 0056 01D0     		beq	.L73
 1083 0058 FFF7FEFF 		bl	__stack_chk_fail
 1084              	.L73:
 1085 005c 05B0     		add	sp, sp, #20
 1086              		.cfi_def_cfa_offset 4
 1087              		@ sp needed
 1088 005e 5DF804FB 		ldr	pc, [sp], #4
 1089              	.L76:
 1090 0062 00BF     		.align	2
 1091              	.L75:
 1092 0064 00000000 		.word	__stack_chk_guard
 1093 0068 00000000 		.word	SPID1
 1094 006c 00380240 		.word	1073887232
 1095              		.cfi_endproc
 1096              	.LFE260:
 1097              		.size	spi_lld_stop, .-spi_lld_stop
 1098              		.section	.text.spi_lld_select,"ax",%progbits
 1099              		.align	1
 1100              		.p2align 4,,15
 1101              		.global	spi_lld_select
 1102              		.syntax unified
 1103              		.thumb
 1104              		.thumb_func
 1105              		.fpu fpv4-sp-d16
 1106              		.type	spi_lld_select, %function
 1107              	spi_lld_select:
 1108              	.LFB261:
 1109              		.loc 5 486 0
 1110              		.cfi_startproc
 1111              		@ args = 0, pretend = 0, frame = 16
 1112              		@ frame_needed = 0, uses_anonymous_args = 0
 1113 0000 00B5     		push	{lr}
 1114              		.cfi_def_cfa_offset 4
 1115              		.cfi_offset 14, -4
 1116 0002 85B0     		sub	sp, sp, #20
 1117              		.cfi_def_cfa_offset 24
 1118 0004 0190     		str	r0, [sp, #4]
 1119              		.loc 5 486 0
 1120 0006 0D4B     		ldr	r3, .L79
 1121 0008 1B68     		ldr	r3, [r3]
 1122 000a 0393     		str	r3, [sp, #12]
 1123              		.loc 5 488 0
 1124 000c 019B     		ldr	r3, [sp, #4]
 1125 000e 5B68     		ldr	r3, [r3, #4]
 1126 0010 1B89     		ldrh	r3, [r3, #8]
 1127 0012 1A46     		mov	r2, r3
 1128 0014 0123     		movs	r3, #1
 1129 0016 03FA02F2 		lsl	r2, r3, r2
 1130 001a 019B     		ldr	r3, [sp, #4]
 1131 001c 5B68     		ldr	r3, [r3, #4]
 1132 001e 5B68     		ldr	r3, [r3, #4]
 1133 0020 92B2     		uxth	r2, r2
 1134 0022 5A83     		strh	r2, [r3, #26]	@ movhi
ARM GAS  C:\Users\PCHAUT~1\AppData\Local\Temp\cc8SOeDa.s 			page 21


 1135              		.loc 5 489 0
 1136 0024 00BF     		nop
 1137 0026 054B     		ldr	r3, .L79
 1138 0028 039A     		ldr	r2, [sp, #12]
 1139 002a 1B68     		ldr	r3, [r3]
 1140 002c 9A42     		cmp	r2, r3
 1141 002e 01D0     		beq	.L78
 1142 0030 FFF7FEFF 		bl	__stack_chk_fail
 1143              	.L78:
 1144 0034 05B0     		add	sp, sp, #20
 1145              		.cfi_def_cfa_offset 4
 1146              		@ sp needed
 1147 0036 5DF804FB 		ldr	pc, [sp], #4
 1148              	.L80:
 1149 003a 00BF     		.align	2
 1150              	.L79:
 1151 003c 00000000 		.word	__stack_chk_guard
 1152              		.cfi_endproc
 1153              	.LFE261:
 1154              		.size	spi_lld_select, .-spi_lld_select
 1155              		.section	.text.spi_lld_unselect,"ax",%progbits
 1156              		.align	1
 1157              		.p2align 4,,15
 1158              		.global	spi_lld_unselect
 1159              		.syntax unified
 1160              		.thumb
 1161              		.thumb_func
 1162              		.fpu fpv4-sp-d16
 1163              		.type	spi_lld_unselect, %function
 1164              	spi_lld_unselect:
 1165              	.LFB262:
 1166              		.loc 5 499 0
 1167              		.cfi_startproc
 1168              		@ args = 0, pretend = 0, frame = 16
 1169              		@ frame_needed = 0, uses_anonymous_args = 0
 1170 0000 00B5     		push	{lr}
 1171              		.cfi_def_cfa_offset 4
 1172              		.cfi_offset 14, -4
 1173 0002 85B0     		sub	sp, sp, #20
 1174              		.cfi_def_cfa_offset 24
 1175 0004 0190     		str	r0, [sp, #4]
 1176              		.loc 5 499 0
 1177 0006 0D4B     		ldr	r3, .L83
 1178 0008 1B68     		ldr	r3, [r3]
 1179 000a 0393     		str	r3, [sp, #12]
 1180              		.loc 5 501 0
 1181 000c 019B     		ldr	r3, [sp, #4]
 1182 000e 5B68     		ldr	r3, [r3, #4]
 1183 0010 1B89     		ldrh	r3, [r3, #8]
 1184 0012 1A46     		mov	r2, r3
 1185 0014 0123     		movs	r3, #1
 1186 0016 03FA02F2 		lsl	r2, r3, r2
 1187 001a 019B     		ldr	r3, [sp, #4]
 1188 001c 5B68     		ldr	r3, [r3, #4]
 1189 001e 5B68     		ldr	r3, [r3, #4]
 1190 0020 92B2     		uxth	r2, r2
 1191 0022 1A83     		strh	r2, [r3, #24]	@ movhi
ARM GAS  C:\Users\PCHAUT~1\AppData\Local\Temp\cc8SOeDa.s 			page 22


 1192              		.loc 5 502 0
 1193 0024 00BF     		nop
 1194 0026 054B     		ldr	r3, .L83
 1195 0028 039A     		ldr	r2, [sp, #12]
 1196 002a 1B68     		ldr	r3, [r3]
 1197 002c 9A42     		cmp	r2, r3
 1198 002e 01D0     		beq	.L82
 1199 0030 FFF7FEFF 		bl	__stack_chk_fail
 1200              	.L82:
 1201 0034 05B0     		add	sp, sp, #20
 1202              		.cfi_def_cfa_offset 4
 1203              		@ sp needed
 1204 0036 5DF804FB 		ldr	pc, [sp], #4
 1205              	.L84:
 1206 003a 00BF     		.align	2
 1207              	.L83:
 1208 003c 00000000 		.word	__stack_chk_guard
 1209              		.cfi_endproc
 1210              	.LFE262:
 1211              		.size	spi_lld_unselect, .-spi_lld_unselect
 1212              		.section	.text.spi_lld_ignore,"ax",%progbits
 1213              		.align	1
 1214              		.p2align 4,,15
 1215              		.global	spi_lld_ignore
 1216              		.syntax unified
 1217              		.thumb
 1218              		.thumb_func
 1219              		.fpu fpv4-sp-d16
 1220              		.type	spi_lld_ignore, %function
 1221              	spi_lld_ignore:
 1222              	.LFB263:
 1223              		.loc 5 515 0
 1224              		.cfi_startproc
 1225              		@ args = 0, pretend = 0, frame = 16
 1226              		@ frame_needed = 0, uses_anonymous_args = 0
 1227 0000 00B5     		push	{lr}
 1228              		.cfi_def_cfa_offset 4
 1229              		.cfi_offset 14, -4
 1230 0002 85B0     		sub	sp, sp, #20
 1231              		.cfi_def_cfa_offset 24
 1232 0004 0190     		str	r0, [sp, #4]
 1233 0006 0091     		str	r1, [sp]
 1234              		.loc 5 515 0
 1235 0008 204B     		ldr	r3, .L87
 1236 000a 1B68     		ldr	r3, [r3]
 1237 000c 0393     		str	r3, [sp, #12]
 1238              		.loc 5 517 0
 1239 000e 019B     		ldr	r3, [sp, #4]
 1240 0010 5B6A     		ldr	r3, [r3, #36]
 1241 0012 1B68     		ldr	r3, [r3]
 1242 0014 1E4A     		ldr	r2, .L87+4
 1243 0016 DA60     		str	r2, [r3, #12]
 1244              		.loc 5 518 0
 1245 0018 019B     		ldr	r3, [sp, #4]
 1246 001a 5B6A     		ldr	r3, [r3, #36]
 1247 001c 1B68     		ldr	r3, [r3]
 1248 001e 009A     		ldr	r2, [sp]
ARM GAS  C:\Users\PCHAUT~1\AppData\Local\Temp\cc8SOeDa.s 			page 23


 1249 0020 5A60     		str	r2, [r3, #4]
 1250              		.loc 5 519 0
 1251 0022 019B     		ldr	r3, [sp, #4]
 1252 0024 5B6A     		ldr	r3, [r3, #36]
 1253 0026 1B68     		ldr	r3, [r3]
 1254 0028 019A     		ldr	r2, [sp, #4]
 1255 002a D26A     		ldr	r2, [r2, #44]
 1256 002c 1A60     		str	r2, [r3]
 1257              		.loc 5 521 0
 1258 002e 019B     		ldr	r3, [sp, #4]
 1259 0030 9B6A     		ldr	r3, [r3, #40]
 1260 0032 1B68     		ldr	r3, [r3]
 1261 0034 174A     		ldr	r2, .L87+8
 1262 0036 DA60     		str	r2, [r3, #12]
 1263              		.loc 5 522 0
 1264 0038 019B     		ldr	r3, [sp, #4]
 1265 003a 9B6A     		ldr	r3, [r3, #40]
 1266 003c 1B68     		ldr	r3, [r3]
 1267 003e 009A     		ldr	r2, [sp]
 1268 0040 5A60     		str	r2, [r3, #4]
 1269              		.loc 5 523 0
 1270 0042 019B     		ldr	r3, [sp, #4]
 1271 0044 9B6A     		ldr	r3, [r3, #40]
 1272 0046 1B68     		ldr	r3, [r3]
 1273 0048 019A     		ldr	r2, [sp, #4]
 1274 004a 126B     		ldr	r2, [r2, #48]
 1275 004c 1A60     		str	r2, [r3]
 1276              		.loc 5 525 0
 1277 004e 019B     		ldr	r3, [sp, #4]
 1278 0050 5B6A     		ldr	r3, [r3, #36]
 1279 0052 1B68     		ldr	r3, [r3]
 1280 0054 1A68     		ldr	r2, [r3]
 1281 0056 019B     		ldr	r3, [sp, #4]
 1282 0058 5B6A     		ldr	r3, [r3, #36]
 1283 005a 1B68     		ldr	r3, [r3]
 1284 005c 42F00102 		orr	r2, r2, #1
 1285 0060 1A60     		str	r2, [r3]
 1286              		.loc 5 526 0
 1287 0062 019B     		ldr	r3, [sp, #4]
 1288 0064 9B6A     		ldr	r3, [r3, #40]
 1289 0066 1B68     		ldr	r3, [r3]
 1290 0068 1A68     		ldr	r2, [r3]
 1291 006a 019B     		ldr	r3, [sp, #4]
 1292 006c 9B6A     		ldr	r3, [r3, #40]
 1293 006e 1B68     		ldr	r3, [r3]
 1294 0070 42F00102 		orr	r2, r2, #1
 1295 0074 1A60     		str	r2, [r3]
 1296              		.loc 5 527 0
 1297 0076 00BF     		nop
 1298 0078 044B     		ldr	r3, .L87
 1299 007a 039A     		ldr	r2, [sp, #12]
 1300 007c 1B68     		ldr	r3, [r3]
 1301 007e 9A42     		cmp	r2, r3
 1302 0080 01D0     		beq	.L86
 1303 0082 FFF7FEFF 		bl	__stack_chk_fail
 1304              	.L86:
 1305 0086 05B0     		add	sp, sp, #20
ARM GAS  C:\Users\PCHAUT~1\AppData\Local\Temp\cc8SOeDa.s 			page 24


 1306              		.cfi_def_cfa_offset 4
 1307              		@ sp needed
 1308 0088 5DF804FB 		ldr	pc, [sp], #4
 1309              	.L88:
 1310              		.align	2
 1311              	.L87:
 1312 008c 00000000 		.word	__stack_chk_guard
 1313 0090 00000000 		.word	dummyrx
 1314 0094 00000000 		.word	dummytx
 1315              		.cfi_endproc
 1316              	.LFE263:
 1317              		.size	spi_lld_ignore, .-spi_lld_ignore
 1318              		.section	.text.spi_lld_exchange,"ax",%progbits
 1319              		.align	1
 1320              		.p2align 4,,15
 1321              		.global	spi_lld_exchange
 1322              		.syntax unified
 1323              		.thumb
 1324              		.thumb_func
 1325              		.fpu fpv4-sp-d16
 1326              		.type	spi_lld_exchange, %function
 1327              	spi_lld_exchange:
 1328              	.LFB264:
 1329              		.loc 5 545 0
 1330              		.cfi_startproc
 1331              		@ args = 0, pretend = 0, frame = 24
 1332              		@ frame_needed = 0, uses_anonymous_args = 0
 1333 0000 00B5     		push	{lr}
 1334              		.cfi_def_cfa_offset 4
 1335              		.cfi_offset 14, -4
 1336 0002 87B0     		sub	sp, sp, #28
 1337              		.cfi_def_cfa_offset 32
 1338 0004 0390     		str	r0, [sp, #12]
 1339 0006 0291     		str	r1, [sp, #8]
 1340 0008 0192     		str	r2, [sp, #4]
 1341 000a 0093     		str	r3, [sp]
 1342              		.loc 5 545 0
 1343 000c 224B     		ldr	r3, .L91
 1344 000e 1B68     		ldr	r3, [r3]
 1345 0010 0593     		str	r3, [sp, #20]
 1346              		.loc 5 547 0
 1347 0012 039B     		ldr	r3, [sp, #12]
 1348 0014 5B6A     		ldr	r3, [r3, #36]
 1349 0016 1B68     		ldr	r3, [r3]
 1350 0018 009A     		ldr	r2, [sp]
 1351 001a DA60     		str	r2, [r3, #12]
 1352              		.loc 5 548 0
 1353 001c 039B     		ldr	r3, [sp, #12]
 1354 001e 5B6A     		ldr	r3, [r3, #36]
 1355 0020 1B68     		ldr	r3, [r3]
 1356 0022 029A     		ldr	r2, [sp, #8]
 1357 0024 5A60     		str	r2, [r3, #4]
 1358              		.loc 5 549 0
 1359 0026 039B     		ldr	r3, [sp, #12]
 1360 0028 DA6A     		ldr	r2, [r3, #44]
 1361 002a 039B     		ldr	r3, [sp, #12]
 1362 002c 5B6A     		ldr	r3, [r3, #36]
ARM GAS  C:\Users\PCHAUT~1\AppData\Local\Temp\cc8SOeDa.s 			page 25


 1363 002e 1B68     		ldr	r3, [r3]
 1364 0030 42F48062 		orr	r2, r2, #1024
 1365 0034 1A60     		str	r2, [r3]
 1366              		.loc 5 551 0
 1367 0036 039B     		ldr	r3, [sp, #12]
 1368 0038 9B6A     		ldr	r3, [r3, #40]
 1369 003a 1B68     		ldr	r3, [r3]
 1370 003c 019A     		ldr	r2, [sp, #4]
 1371 003e DA60     		str	r2, [r3, #12]
 1372              		.loc 5 552 0
 1373 0040 039B     		ldr	r3, [sp, #12]
 1374 0042 9B6A     		ldr	r3, [r3, #40]
 1375 0044 1B68     		ldr	r3, [r3]
 1376 0046 029A     		ldr	r2, [sp, #8]
 1377 0048 5A60     		str	r2, [r3, #4]
 1378              		.loc 5 553 0
 1379 004a 039B     		ldr	r3, [sp, #12]
 1380 004c 1A6B     		ldr	r2, [r3, #48]
 1381 004e 039B     		ldr	r3, [sp, #12]
 1382 0050 9B6A     		ldr	r3, [r3, #40]
 1383 0052 1B68     		ldr	r3, [r3]
 1384 0054 42F48062 		orr	r2, r2, #1024
 1385 0058 1A60     		str	r2, [r3]
 1386              		.loc 5 555 0
 1387 005a 039B     		ldr	r3, [sp, #12]
 1388 005c 5B6A     		ldr	r3, [r3, #36]
 1389 005e 1B68     		ldr	r3, [r3]
 1390 0060 1A68     		ldr	r2, [r3]
 1391 0062 039B     		ldr	r3, [sp, #12]
 1392 0064 5B6A     		ldr	r3, [r3, #36]
 1393 0066 1B68     		ldr	r3, [r3]
 1394 0068 42F00102 		orr	r2, r2, #1
 1395 006c 1A60     		str	r2, [r3]
 1396              		.loc 5 556 0
 1397 006e 039B     		ldr	r3, [sp, #12]
 1398 0070 9B6A     		ldr	r3, [r3, #40]
 1399 0072 1B68     		ldr	r3, [r3]
 1400 0074 1A68     		ldr	r2, [r3]
 1401 0076 039B     		ldr	r3, [sp, #12]
 1402 0078 9B6A     		ldr	r3, [r3, #40]
 1403 007a 1B68     		ldr	r3, [r3]
 1404 007c 42F00102 		orr	r2, r2, #1
 1405 0080 1A60     		str	r2, [r3]
 1406              		.loc 5 557 0
 1407 0082 00BF     		nop
 1408 0084 044B     		ldr	r3, .L91
 1409 0086 059A     		ldr	r2, [sp, #20]
 1410 0088 1B68     		ldr	r3, [r3]
 1411 008a 9A42     		cmp	r2, r3
 1412 008c 01D0     		beq	.L90
 1413 008e FFF7FEFF 		bl	__stack_chk_fail
 1414              	.L90:
 1415 0092 07B0     		add	sp, sp, #28
 1416              		.cfi_def_cfa_offset 4
 1417              		@ sp needed
 1418 0094 5DF804FB 		ldr	pc, [sp], #4
 1419              	.L92:
ARM GAS  C:\Users\PCHAUT~1\AppData\Local\Temp\cc8SOeDa.s 			page 26


 1420              		.align	2
 1421              	.L91:
 1422 0098 00000000 		.word	__stack_chk_guard
 1423              		.cfi_endproc
 1424              	.LFE264:
 1425              		.size	spi_lld_exchange, .-spi_lld_exchange
 1426              		.section	.text.spi_lld_send,"ax",%progbits
 1427              		.align	1
 1428              		.p2align 4,,15
 1429              		.global	spi_lld_send
 1430              		.syntax unified
 1431              		.thumb
 1432              		.thumb_func
 1433              		.fpu fpv4-sp-d16
 1434              		.type	spi_lld_send, %function
 1435              	spi_lld_send:
 1436              	.LFB265:
 1437              		.loc 5 572 0
 1438              		.cfi_startproc
 1439              		@ args = 0, pretend = 0, frame = 24
 1440              		@ frame_needed = 0, uses_anonymous_args = 0
 1441 0000 00B5     		push	{lr}
 1442              		.cfi_def_cfa_offset 4
 1443              		.cfi_offset 14, -4
 1444 0002 87B0     		sub	sp, sp, #28
 1445              		.cfi_def_cfa_offset 32
 1446 0004 0390     		str	r0, [sp, #12]
 1447 0006 0291     		str	r1, [sp, #8]
 1448 0008 0192     		str	r2, [sp, #4]
 1449              		.loc 5 572 0
 1450 000a 224B     		ldr	r3, .L95
 1451 000c 1B68     		ldr	r3, [r3]
 1452 000e 0593     		str	r3, [sp, #20]
 1453              		.loc 5 574 0
 1454 0010 039B     		ldr	r3, [sp, #12]
 1455 0012 5B6A     		ldr	r3, [r3, #36]
 1456 0014 1B68     		ldr	r3, [r3]
 1457 0016 204A     		ldr	r2, .L95+4
 1458 0018 DA60     		str	r2, [r3, #12]
 1459              		.loc 5 575 0
 1460 001a 039B     		ldr	r3, [sp, #12]
 1461 001c 5B6A     		ldr	r3, [r3, #36]
 1462 001e 1B68     		ldr	r3, [r3]
 1463 0020 029A     		ldr	r2, [sp, #8]
 1464 0022 5A60     		str	r2, [r3, #4]
 1465              		.loc 5 576 0
 1466 0024 039B     		ldr	r3, [sp, #12]
 1467 0026 5B6A     		ldr	r3, [r3, #36]
 1468 0028 1B68     		ldr	r3, [r3]
 1469 002a 039A     		ldr	r2, [sp, #12]
 1470 002c D26A     		ldr	r2, [r2, #44]
 1471 002e 1A60     		str	r2, [r3]
 1472              		.loc 5 578 0
 1473 0030 039B     		ldr	r3, [sp, #12]
 1474 0032 9B6A     		ldr	r3, [r3, #40]
 1475 0034 1B68     		ldr	r3, [r3]
 1476 0036 019A     		ldr	r2, [sp, #4]
ARM GAS  C:\Users\PCHAUT~1\AppData\Local\Temp\cc8SOeDa.s 			page 27


 1477 0038 DA60     		str	r2, [r3, #12]
 1478              		.loc 5 579 0
 1479 003a 039B     		ldr	r3, [sp, #12]
 1480 003c 9B6A     		ldr	r3, [r3, #40]
 1481 003e 1B68     		ldr	r3, [r3]
 1482 0040 029A     		ldr	r2, [sp, #8]
 1483 0042 5A60     		str	r2, [r3, #4]
 1484              		.loc 5 580 0
 1485 0044 039B     		ldr	r3, [sp, #12]
 1486 0046 1A6B     		ldr	r2, [r3, #48]
 1487 0048 039B     		ldr	r3, [sp, #12]
 1488 004a 9B6A     		ldr	r3, [r3, #40]
 1489 004c 1B68     		ldr	r3, [r3]
 1490 004e 42F48062 		orr	r2, r2, #1024
 1491 0052 1A60     		str	r2, [r3]
 1492              		.loc 5 582 0
 1493 0054 039B     		ldr	r3, [sp, #12]
 1494 0056 5B6A     		ldr	r3, [r3, #36]
 1495 0058 1B68     		ldr	r3, [r3]
 1496 005a 1A68     		ldr	r2, [r3]
 1497 005c 039B     		ldr	r3, [sp, #12]
 1498 005e 5B6A     		ldr	r3, [r3, #36]
 1499 0060 1B68     		ldr	r3, [r3]
 1500 0062 42F00102 		orr	r2, r2, #1
 1501 0066 1A60     		str	r2, [r3]
 1502              		.loc 5 583 0
 1503 0068 039B     		ldr	r3, [sp, #12]
 1504 006a 9B6A     		ldr	r3, [r3, #40]
 1505 006c 1B68     		ldr	r3, [r3]
 1506 006e 1A68     		ldr	r2, [r3]
 1507 0070 039B     		ldr	r3, [sp, #12]
 1508 0072 9B6A     		ldr	r3, [r3, #40]
 1509 0074 1B68     		ldr	r3, [r3]
 1510 0076 42F00102 		orr	r2, r2, #1
 1511 007a 1A60     		str	r2, [r3]
 1512              		.loc 5 584 0
 1513 007c 00BF     		nop
 1514 007e 054B     		ldr	r3, .L95
 1515 0080 059A     		ldr	r2, [sp, #20]
 1516 0082 1B68     		ldr	r3, [r3]
 1517 0084 9A42     		cmp	r2, r3
 1518 0086 01D0     		beq	.L94
 1519 0088 FFF7FEFF 		bl	__stack_chk_fail
 1520              	.L94:
 1521 008c 07B0     		add	sp, sp, #28
 1522              		.cfi_def_cfa_offset 4
 1523              		@ sp needed
 1524 008e 5DF804FB 		ldr	pc, [sp], #4
 1525              	.L96:
 1526 0092 00BF     		.align	2
 1527              	.L95:
 1528 0094 00000000 		.word	__stack_chk_guard
 1529 0098 00000000 		.word	dummyrx
 1530              		.cfi_endproc
 1531              	.LFE265:
 1532              		.size	spi_lld_send, .-spi_lld_send
 1533              		.section	.text.spi_lld_receive,"ax",%progbits
ARM GAS  C:\Users\PCHAUT~1\AppData\Local\Temp\cc8SOeDa.s 			page 28


 1534              		.align	1
 1535              		.p2align 4,,15
 1536              		.global	spi_lld_receive
 1537              		.syntax unified
 1538              		.thumb
 1539              		.thumb_func
 1540              		.fpu fpv4-sp-d16
 1541              		.type	spi_lld_receive, %function
 1542              	spi_lld_receive:
 1543              	.LFB266:
 1544              		.loc 5 599 0
 1545              		.cfi_startproc
 1546              		@ args = 0, pretend = 0, frame = 24
 1547              		@ frame_needed = 0, uses_anonymous_args = 0
 1548 0000 00B5     		push	{lr}
 1549              		.cfi_def_cfa_offset 4
 1550              		.cfi_offset 14, -4
 1551 0002 87B0     		sub	sp, sp, #28
 1552              		.cfi_def_cfa_offset 32
 1553 0004 0390     		str	r0, [sp, #12]
 1554 0006 0291     		str	r1, [sp, #8]
 1555 0008 0192     		str	r2, [sp, #4]
 1556              		.loc 5 599 0
 1557 000a 224B     		ldr	r3, .L99
 1558 000c 1B68     		ldr	r3, [r3]
 1559 000e 0593     		str	r3, [sp, #20]
 1560              		.loc 5 601 0
 1561 0010 039B     		ldr	r3, [sp, #12]
 1562 0012 5B6A     		ldr	r3, [r3, #36]
 1563 0014 1B68     		ldr	r3, [r3]
 1564 0016 019A     		ldr	r2, [sp, #4]
 1565 0018 DA60     		str	r2, [r3, #12]
 1566              		.loc 5 602 0
 1567 001a 039B     		ldr	r3, [sp, #12]
 1568 001c 5B6A     		ldr	r3, [r3, #36]
 1569 001e 1B68     		ldr	r3, [r3]
 1570 0020 029A     		ldr	r2, [sp, #8]
 1571 0022 5A60     		str	r2, [r3, #4]
 1572              		.loc 5 603 0
 1573 0024 039B     		ldr	r3, [sp, #12]
 1574 0026 DA6A     		ldr	r2, [r3, #44]
 1575 0028 039B     		ldr	r3, [sp, #12]
 1576 002a 5B6A     		ldr	r3, [r3, #36]
 1577 002c 1B68     		ldr	r3, [r3]
 1578 002e 42F48062 		orr	r2, r2, #1024
 1579 0032 1A60     		str	r2, [r3]
 1580              		.loc 5 605 0
 1581 0034 039B     		ldr	r3, [sp, #12]
 1582 0036 9B6A     		ldr	r3, [r3, #40]
 1583 0038 1B68     		ldr	r3, [r3]
 1584 003a 174A     		ldr	r2, .L99+4
 1585 003c DA60     		str	r2, [r3, #12]
 1586              		.loc 5 606 0
 1587 003e 039B     		ldr	r3, [sp, #12]
 1588 0040 9B6A     		ldr	r3, [r3, #40]
 1589 0042 1B68     		ldr	r3, [r3]
 1590 0044 029A     		ldr	r2, [sp, #8]
ARM GAS  C:\Users\PCHAUT~1\AppData\Local\Temp\cc8SOeDa.s 			page 29


 1591 0046 5A60     		str	r2, [r3, #4]
 1592              		.loc 5 607 0
 1593 0048 039B     		ldr	r3, [sp, #12]
 1594 004a 9B6A     		ldr	r3, [r3, #40]
 1595 004c 1B68     		ldr	r3, [r3]
 1596 004e 039A     		ldr	r2, [sp, #12]
 1597 0050 126B     		ldr	r2, [r2, #48]
 1598 0052 1A60     		str	r2, [r3]
 1599              		.loc 5 609 0
 1600 0054 039B     		ldr	r3, [sp, #12]
 1601 0056 5B6A     		ldr	r3, [r3, #36]
 1602 0058 1B68     		ldr	r3, [r3]
 1603 005a 1A68     		ldr	r2, [r3]
 1604 005c 039B     		ldr	r3, [sp, #12]
 1605 005e 5B6A     		ldr	r3, [r3, #36]
 1606 0060 1B68     		ldr	r3, [r3]
 1607 0062 42F00102 		orr	r2, r2, #1
 1608 0066 1A60     		str	r2, [r3]
 1609              		.loc 5 610 0
 1610 0068 039B     		ldr	r3, [sp, #12]
 1611 006a 9B6A     		ldr	r3, [r3, #40]
 1612 006c 1B68     		ldr	r3, [r3]
 1613 006e 1A68     		ldr	r2, [r3]
 1614 0070 039B     		ldr	r3, [sp, #12]
 1615 0072 9B6A     		ldr	r3, [r3, #40]
 1616 0074 1B68     		ldr	r3, [r3]
 1617 0076 42F00102 		orr	r2, r2, #1
 1618 007a 1A60     		str	r2, [r3]
 1619              		.loc 5 611 0
 1620 007c 00BF     		nop
 1621 007e 054B     		ldr	r3, .L99
 1622 0080 059A     		ldr	r2, [sp, #20]
 1623 0082 1B68     		ldr	r3, [r3]
 1624 0084 9A42     		cmp	r2, r3
 1625 0086 01D0     		beq	.L98
 1626 0088 FFF7FEFF 		bl	__stack_chk_fail
 1627              	.L98:
 1628 008c 07B0     		add	sp, sp, #28
 1629              		.cfi_def_cfa_offset 4
 1630              		@ sp needed
 1631 008e 5DF804FB 		ldr	pc, [sp], #4
 1632              	.L100:
 1633 0092 00BF     		.align	2
 1634              	.L99:
 1635 0094 00000000 		.word	__stack_chk_guard
 1636 0098 00000000 		.word	dummytx
 1637              		.cfi_endproc
 1638              	.LFE266:
 1639              		.size	spi_lld_receive, .-spi_lld_receive
 1640              		.section	.text.spi_lld_polled_exchange,"ax",%progbits
 1641              		.align	1
 1642              		.p2align 4,,15
 1643              		.global	spi_lld_polled_exchange
 1644              		.syntax unified
 1645              		.thumb
 1646              		.thumb_func
 1647              		.fpu fpv4-sp-d16
ARM GAS  C:\Users\PCHAUT~1\AppData\Local\Temp\cc8SOeDa.s 			page 30


 1648              		.type	spi_lld_polled_exchange, %function
 1649              	spi_lld_polled_exchange:
 1650              	.LFB267:
 1651              		.loc 5 625 0
 1652              		.cfi_startproc
 1653              		@ args = 0, pretend = 0, frame = 16
 1654              		@ frame_needed = 0, uses_anonymous_args = 0
 1655 0000 00B5     		push	{lr}
 1656              		.cfi_def_cfa_offset 4
 1657              		.cfi_offset 14, -4
 1658 0002 85B0     		sub	sp, sp, #20
 1659              		.cfi_def_cfa_offset 24
 1660 0004 0190     		str	r0, [sp, #4]
 1661 0006 0B46     		mov	r3, r1
 1662 0008 ADF80230 		strh	r3, [sp, #2]	@ movhi
 1663              		.loc 5 625 0
 1664 000c 0F4B     		ldr	r3, .L105
 1665 000e 1B68     		ldr	r3, [r3]
 1666 0010 0393     		str	r3, [sp, #12]
 1667              		.loc 5 627 0
 1668 0012 019B     		ldr	r3, [sp, #4]
 1669 0014 1B6A     		ldr	r3, [r3, #32]
 1670 0016 BDF80220 		ldrh	r2, [sp, #2]
 1671 001a DA60     		str	r2, [r3, #12]
 1672              		.loc 5 628 0
 1673 001c 00BF     		nop
 1674              	.L102:
 1675              		.loc 5 628 0 is_stmt 0 discriminator 1
 1676 001e 019B     		ldr	r3, [sp, #4]
 1677 0020 1B6A     		ldr	r3, [r3, #32]
 1678 0022 9B68     		ldr	r3, [r3, #8]
 1679 0024 03F00103 		and	r3, r3, #1
 1680 0028 002B     		cmp	r3, #0
 1681 002a F8D0     		beq	.L102
 1682              		.loc 5 630 0 is_stmt 1
 1683 002c 019B     		ldr	r3, [sp, #4]
 1684 002e 1B6A     		ldr	r3, [r3, #32]
 1685 0030 DB68     		ldr	r3, [r3, #12]
 1686 0032 9BB2     		uxth	r3, r3
 1687              		.loc 5 631 0
 1688 0034 1846     		mov	r0, r3
 1689 0036 054B     		ldr	r3, .L105
 1690 0038 039A     		ldr	r2, [sp, #12]
 1691 003a 1B68     		ldr	r3, [r3]
 1692 003c 9A42     		cmp	r2, r3
 1693 003e 01D0     		beq	.L104
 1694 0040 FFF7FEFF 		bl	__stack_chk_fail
 1695              	.L104:
 1696 0044 05B0     		add	sp, sp, #20
 1697              		.cfi_def_cfa_offset 4
 1698              		@ sp needed
 1699 0046 5DF804FB 		ldr	pc, [sp], #4
 1700              	.L106:
 1701 004a 00BF     		.align	2
 1702              	.L105:
 1703 004c 00000000 		.word	__stack_chk_guard
 1704              		.cfi_endproc
ARM GAS  C:\Users\PCHAUT~1\AppData\Local\Temp\cc8SOeDa.s 			page 31


 1705              	.LFE267:
 1706              		.size	spi_lld_polled_exchange, .-spi_lld_polled_exchange
 1707              		.section	.rodata.__func__.9862,"a",%progbits
 1708              		.align	2
 1709              		.type	__func__.9862, %object
 1710              		.size	__func__.9862, 14
 1711              	__func__.9862:
 1712 0000 7370695F 		.ascii	"spi_lld_start\000"
 1712      6C6C645F 
 1712      73746172 
 1712      7400
 1713              		.text
 1714              	.Letext0:
 1715              		.file 6 "c:\\users\\pchautems\\documents\\robotiquetp\\eclipse_e-puck2\\tools\\gcc-arm-none-eabi-7
 1716              		.file 7 "c:\\users\\pchautems\\documents\\robotiquetp\\eclipse_e-puck2\\tools\\gcc-arm-none-eabi-7
 1717              		.file 8 "c:\\users\\pchautems\\documents\\robotiquetp\\eclipse_e-puck2\\tools\\gcc-arm-none-eabi-7
 1718              		.file 9 "../lib/e-puck2_main-processor/ChibiOS//os/rt/ports/ARMCMx/compilers/GCC/chtypes.h"
 1719              		.file 10 "../lib/e-puck2_main-processor/ChibiOS//os/rt/include/chsystypes.h"
 1720              		.file 11 "../lib/e-puck2_main-processor/ChibiOS//os/rt/include/chschd.h"
 1721              		.file 12 "../lib/e-puck2_main-processor/ChibiOS//os/ext/CMSIS/include/core_cm4.h"
 1722              		.file 13 "../lib/e-puck2_main-processor/ChibiOS//os/ext/CMSIS/ST/system_stm32f4xx.h"
 1723              		.file 14 "../lib/e-puck2_main-processor/ChibiOS//os/ext/CMSIS/ST/stm32f407xx.h"
 1724              		.file 15 "../lib/e-puck2_main-processor/ChibiOS//os/rt/ports/ARMCMx/chcore.h"
 1725              		.file 16 "../lib/e-puck2_main-processor/ChibiOS//os/rt/include/chdebug.h"
 1726              		.file 17 "../lib/e-puck2_main-processor/ChibiOS//os/rt/include/chtm.h"
 1727              		.file 18 "../lib/e-puck2_main-processor/ChibiOS//os/rt/include/chstats.h"
 1728              		.file 19 "../lib/e-puck2_main-processor/ChibiOS//os/rt/include/chsem.h"
 1729              		.file 20 "../lib/e-puck2_main-processor/ChibiOS//os/rt/include/chmtx.h"
 1730              		.file 21 "../lib/e-puck2_main-processor/ChibiOS//os/rt/include/chregistry.h"
 1731              		.file 22 "../lib/e-puck2_main-processor/ChibiOS//os/rt/include/chevents.h"
 1732              		.file 23 "../lib/e-puck2_main-processor/ChibiOS//os/rt/include/chqueues.h"
 1733              		.file 24 "../lib/e-puck2_main-processor/ChibiOS//os/hal/ports/STM32/STM32F4xx/stm32_dma.h"
 1734              		.file 25 "../lib/e-puck2_main-processor/ChibiOS//os/hal/include/hal_ioblock.h"
 1735              		.file 26 "../lib/e-puck2_main-processor/ChibiOS//os/hal/ports/STM32/LLD/GPIOv2/pal_lld.h"
 1736              		.file 27 "../lib/e-puck2_main-processor/ChibiOS//os/hal/include/adc.h"
 1737              		.file 28 "../lib/e-puck2_main-processor/ChibiOS//os/hal/ports/STM32/STM32F4xx/adc_lld.h"
 1738              		.file 29 "../lib/e-puck2_main-processor/ChibiOS//os/hal/include/can.h"
 1739              		.file 30 "../lib/e-puck2_main-processor/ChibiOS//os/hal/ports/STM32/LLD/can_lld.h"
 1740              		.file 31 "../lib/e-puck2_main-processor/ChibiOS//os/hal/include/dac.h"
 1741              		.file 32 "../lib/e-puck2_main-processor/ChibiOS//os/hal/ports/STM32/LLD/DACv1/dac_lld.h"
 1742              		.file 33 "../lib/e-puck2_main-processor/ChibiOS//os/hal/include/ext.h"
 1743              		.file 34 "../lib/e-puck2_main-processor/ChibiOS//os/hal/ports/STM32/LLD/ext_lld.h"
 1744              		.file 35 "../lib/e-puck2_main-processor/ChibiOS//os/hal/include/gpt.h"
 1745              		.file 36 "../lib/e-puck2_main-processor/ChibiOS//os/hal/ports/STM32/LLD/TIMv1/gpt_lld.h"
 1746              		.file 37 "../lib/e-puck2_main-processor/ChibiOS//os/hal/ports/STM32/LLD/TIMv1/stm32_tim.h"
 1747              		.file 38 "../lib/e-puck2_main-processor/ChibiOS//os/hal/include/i2c.h"
 1748              		.file 39 "../lib/e-puck2_main-processor/ChibiOS//os/hal/ports/STM32/LLD/I2Cv1/i2c_lld.h"
 1749              		.file 40 "../lib/e-puck2_main-processor/ChibiOS//os/hal/include/i2s.h"
 1750              		.file 41 "../lib/e-puck2_main-processor/ChibiOS//os/hal/ports/STM32/LLD/SPIv1/i2s_lld.h"
 1751              		.file 42 "../lib/e-puck2_main-processor/ChibiOS//os/hal/include/pwm.h"
 1752              		.file 43 "../lib/e-puck2_main-processor/ChibiOS//os/hal/ports/STM32/LLD/TIMv1/pwm_lld.h"
 1753              		.file 44 "../lib/e-puck2_main-processor/ChibiOS//os/hal/include/serial.h"
 1754              		.file 45 "../lib/e-puck2_main-processor/ChibiOS//os/hal/ports/STM32/LLD/USARTv1/serial_lld.h"
 1755              		.file 46 "../lib/e-puck2_main-processor/ChibiOS//os/hal/include/sdc.h"
 1756              		.file 47 "../lib/e-puck2_main-processor/ChibiOS//os/hal/ports/STM32/LLD/sdc_lld.h"
 1757              		.file 48 "../lib/e-puck2_main-processor/ChibiOS//os/hal/include/spi.h"
 1758              		.file 49 "../lib/e-puck2_main-processor/ChibiOS//os/hal/ports/STM32/LLD/SPIv1/spi_lld.h"
ARM GAS  C:\Users\PCHAUT~1\AppData\Local\Temp\cc8SOeDa.s 			page 32


 1759              		.file 50 "../lib/e-puck2_main-processor/ChibiOS//os/hal/include/usb.h"
 1760              		.file 51 "../lib/e-puck2_main-processor/ChibiOS//os/hal/ports/STM32/LLD/OTGv1/usb_lld.h"
 1761              		.file 52 "../lib/e-puck2_main-processor/ChibiOS//os/hal/ports/STM32/LLD/OTGv1/stm32_otg.h"