ARM GAS  C:\Users\PCHAUT~1\AppData\Local\Temp\ccBCSEAg.s 			page 1


   1              		.cpu cortex-m4
   2              		.eabi_attribute 27, 1
   3              		.eabi_attribute 28, 1
   4              		.eabi_attribute 20, 1
   5              		.eabi_attribute 21, 1
   6              		.eabi_attribute 23, 3
   7              		.eabi_attribute 24, 1
   8              		.eabi_attribute 25, 1
   9              		.eabi_attribute 26, 1
  10              		.eabi_attribute 30, 6
  11              		.eabi_attribute 34, 1
  12              		.eabi_attribute 18, 4
  13              		.file	"spi_comm.c"
  14              		.text
  15              	.Ltext0:
  16              		.cfi_sections	.debug_frame
  17              		.section	.text.chRegSetThreadName,"ax",%progbits
  18              		.align	1
  19              		.p2align 4,,15
  20              		.syntax unified
  21              		.thumb
  22              		.thumb_func
  23              		.fpu fpv4-sp-d16
  24              		.type	chRegSetThreadName, %function
  25              	chRegSetThreadName:
  26              	.LFB176:
  27              		.file 1 "../lib/e-puck2_main-processor/ChibiOS//os/rt/include/chregistry.h"
  28              		.loc 1 132 0
  29              		.cfi_startproc
  30              		@ args = 0, pretend = 0, frame = 16
  31              		@ frame_needed = 0, uses_anonymous_args = 0
  32 0000 00B5     		push	{lr}
  33              		.cfi_def_cfa_offset 4
  34              		.cfi_offset 14, -4
  35 0002 85B0     		sub	sp, sp, #20
  36              		.cfi_def_cfa_offset 24
  37 0004 0190     		str	r0, [sp, #4]
  38              		.loc 1 132 0
  39 0006 094B     		ldr	r3, .L3
  40 0008 1B68     		ldr	r3, [r3]
  41 000a 0393     		str	r3, [sp, #12]
  42              		.loc 1 135 0
  43 000c 084B     		ldr	r3, .L3+4
  44 000e 9B69     		ldr	r3, [r3, #24]
  45 0010 019A     		ldr	r2, [sp, #4]
  46 0012 9A61     		str	r2, [r3, #24]
  47              		.loc 1 139 0
  48 0014 00BF     		nop
  49 0016 054B     		ldr	r3, .L3
  50 0018 039A     		ldr	r2, [sp, #12]
  51 001a 1B68     		ldr	r3, [r3]
  52 001c 9A42     		cmp	r2, r3
  53 001e 01D0     		beq	.L2
  54 0020 FFF7FEFF 		bl	__stack_chk_fail
  55              	.L2:
  56 0024 05B0     		add	sp, sp, #20
  57              		.cfi_def_cfa_offset 4
ARM GAS  C:\Users\PCHAUT~1\AppData\Local\Temp\ccBCSEAg.s 			page 2


  58              		@ sp needed
  59 0026 5DF804FB 		ldr	pc, [sp], #4
  60              	.L4:
  61 002a 00BF     		.align	2
  62              	.L3:
  63 002c 00000000 		.word	__stack_chk_guard
  64 0030 00000000 		.word	ch
  65              		.cfi_endproc
  66              	.LFE176:
  67              		.size	chRegSetThreadName, .-chRegSetThreadName
  68              		.global	spi_rx_buff
  69              		.section	.bss.spi_rx_buff,"aw",%nobits
  70              		.align	2
  71              		.type	spi_rx_buff, %object
  72              		.size	spi_rx_buff, 4092
  73              	spi_rx_buff:
  74 0000 00000000 		.space	4092
  74      00000000 
  74      00000000 
  74      00000000 
  74      00000000 
  75              		.global	spi_tx_buff
  76              		.section	.bss.spi_tx_buff,"aw",%nobits
  77              		.align	2
  78              		.type	spi_tx_buff, %object
  79              		.size	spi_tx_buff, 4092
  80              	spi_tx_buff:
  81 0000 00000000 		.space	4092
  81      00000000 
  81      00000000 
  81      00000000 
  81      00000000 
  82              		.global	ss_event
  83              		.section	.bss.ss_event,"aw",%nobits
  84              		.align	2
  85              		.type	ss_event, %object
  86              		.size	ss_event, 4
  87              	ss_event:
  88 0000 00000000 		.space	4
  89              		.section	.bss.spi_thread_wa,"aw",%nobits
  90              		.align	3
  91              		.type	spi_thread_wa, %object
  92              		.size	spi_thread_wa, 1400
  93              	spi_thread_wa:
  94 0000 00000000 		.space	1400
  94      00000000 
  94      00000000 
  94      00000000 
  94      00000000 
  95              		.section	.rodata
  96              		.align	2
  97              	.LC0:
  98 0000 53504920 		.ascii	"SPI thread\000"
  98      74687265 
  98      616400
  99              		.section	.text.spi_thread,"ax",%progbits
 100              		.align	1
ARM GAS  C:\Users\PCHAUT~1\AppData\Local\Temp\ccBCSEAg.s 			page 3


 101              		.p2align 4,,15
 102              		.syntax unified
 103              		.thumb
 104              		.thumb_func
 105              		.fpu fpv4-sp-d16
 106              		.type	spi_thread, %function
 107              	spi_thread:
 108              	.LFB256:
 109              		.file 2 "../lib/e-puck2_main-processor/src/spi_comm.c"
 110              		.loc 2 23 0
 111              		.cfi_startproc
 112              		@ args = 0, pretend = 0, frame = 16
 113              		@ frame_needed = 0, uses_anonymous_args = 0
 114 0000 00B5     		push	{lr}
 115              		.cfi_def_cfa_offset 4
 116              		.cfi_offset 14, -4
 117 0002 85B0     		sub	sp, sp, #20
 118              		.cfi_def_cfa_offset 24
 119 0004 0190     		str	r0, [sp, #4]
 120              		.loc 2 23 0
 121 0006 144B     		ldr	r3, .L11
 122 0008 1B68     		ldr	r3, [r3]
 123 000a 0393     		str	r3, [sp, #12]
 124              		.loc 2 25 0
 125 000c 1348     		ldr	r0, .L11+4
 126 000e FFF7FEFF 		bl	chRegSetThreadName
 127              	.L9:
 128              		.loc 2 74 0
 129 0012 1348     		ldr	r0, .L11+8
 130 0014 FFF7FEFF 		bl	get_all_rgb_state
 131              		.loc 2 81 0
 132 0018 1248     		ldr	r0, .L11+12
 133 001a FFF7FEFF 		bl	spiSelect
 134              		.loc 2 85 0
 135 001e 124B     		ldr	r3, .L11+16
 136 0020 0F4A     		ldr	r2, .L11+8
 137 0022 0C21     		movs	r1, #12
 138 0024 0F48     		ldr	r0, .L11+12
 139 0026 FFF7FEFF 		bl	spiExchange
 140              		.loc 2 89 0
 141 002a 0E48     		ldr	r0, .L11+12
 142 002c FFF7FEFF 		bl	spiUnselect
 143              		.loc 2 97 0
 144 0030 0D4B     		ldr	r3, .L11+16
 145 0032 1B78     		ldrb	r3, [r3]	@ zero_extendqisi2
 146 0034 1846     		mov	r0, r3
 147 0036 FFF7FEFF 		bl	button_set_state
 148              		.loc 2 102 0
 149 003a 0C4B     		ldr	r3, .L11+20
 150 003c 1B78     		ldrb	r3, [r3]	@ zero_extendqisi2
 151 003e 032B     		cmp	r3, #3
 152 0040 03D0     		beq	.L6
 153              		.loc 2 102 0 is_stmt 0 discriminator 1
 154 0042 0A4B     		ldr	r3, .L11+20
 155 0044 1B78     		ldrb	r3, [r3]	@ zero_extendqisi2
 156 0046 042B     		cmp	r3, #4
 157 0048 02D1     		bne	.L7
ARM GAS  C:\Users\PCHAUT~1\AppData\Local\Temp\ccBCSEAg.s 			page 4


 158              	.L6:
 159              		.loc 2 104 0 is_stmt 1
 160 004a FFF7FEFF 		bl	wait_image_ready
 161 004e 02E0     		b	.L8
 162              	.L7:
 163              		.loc 2 108 0
 164 0050 1420     		movs	r0, #20
 165 0052 FFF7FEFF 		bl	chThdSleep
 166              	.L8:
 167              		.loc 2 74 0
 168 0056 DCE7     		b	.L9
 169              	.L12:
 170              		.align	2
 171              	.L11:
 172 0058 00000000 		.word	__stack_chk_guard
 173 005c 00000000 		.word	.LC0
 174 0060 00000000 		.word	spi_tx_buff
 175 0064 00000000 		.word	SPID1
 176 0068 00000000 		.word	spi_rx_buff
 177 006c 00000000 		.word	DCMID
 178              		.cfi_endproc
 179              	.LFE256:
 180              		.size	spi_thread, .-spi_thread
 181              		.section	.text.spi_comm_start,"ax",%progbits
 182              		.align	1
 183              		.p2align 4,,15
 184              		.global	spi_comm_start
 185              		.syntax unified
 186              		.thumb
 187              		.thumb_func
 188              		.fpu fpv4-sp-d16
 189              		.type	spi_comm_start, %function
 190              	spi_comm_start:
 191              	.LFB257:
 192              		.loc 2 268 0
 193              		.cfi_startproc
 194              		@ args = 0, pretend = 0, frame = 8
 195              		@ frame_needed = 0, uses_anonymous_args = 0
 196 0000 00B5     		push	{lr}
 197              		.cfi_def_cfa_offset 4
 198              		.cfi_offset 14, -4
 199 0002 85B0     		sub	sp, sp, #20
 200              		.cfi_def_cfa_offset 24
 201              		.loc 2 268 0
 202 0004 0D4B     		ldr	r3, .L15
 203 0006 1B68     		ldr	r3, [r3]
 204 0008 0393     		str	r3, [sp, #12]
 205              		.loc 2 280 0
 206 000a 0D49     		ldr	r1, .L15+4
 207 000c 0D48     		ldr	r0, .L15+8
 208 000e FFF7FEFF 		bl	spiStart
 209              		.loc 2 281 0
 210 0012 0023     		movs	r3, #0
 211 0014 0093     		str	r3, [sp]
 212 0016 0C4B     		ldr	r3, .L15+12
 213 0018 4122     		movs	r2, #65
 214 001a 4FF4AF61 		mov	r1, #1400
ARM GAS  C:\Users\PCHAUT~1\AppData\Local\Temp\ccBCSEAg.s 			page 5


 215 001e 0B48     		ldr	r0, .L15+16
 216 0020 FFF7FEFF 		bl	chThdCreateStatic
 217              		.loc 2 283 0
 218 0024 00BF     		nop
 219 0026 054B     		ldr	r3, .L15
 220 0028 039A     		ldr	r2, [sp, #12]
 221 002a 1B68     		ldr	r3, [r3]
 222 002c 9A42     		cmp	r2, r3
 223 002e 01D0     		beq	.L14
 224 0030 FFF7FEFF 		bl	__stack_chk_fail
 225              	.L14:
 226 0034 05B0     		add	sp, sp, #20
 227              		.cfi_def_cfa_offset 4
 228              		@ sp needed
 229 0036 5DF804FB 		ldr	pc, [sp], #4
 230              	.L16:
 231 003a 00BF     		.align	2
 232              	.L15:
 233 003c 00000000 		.word	__stack_chk_guard
 234 0040 00000000 		.word	hs_spicfg.10879
 235 0044 00000000 		.word	SPID1
 236 0048 00000000 		.word	spi_thread
 237 004c 00000000 		.word	spi_thread_wa
 238              		.cfi_endproc
 239              	.LFE257:
 240              		.size	spi_comm_start, .-spi_comm_start
 241              		.section	.rodata.hs_spicfg.10879,"a",%progbits
 242              		.align	2
 243              		.type	hs_spicfg.10879, %object
 244              		.size	hs_spicfg.10879, 12
 245              	hs_spicfg.10879:
 246 0000 00000000 		.word	0
 247 0004 00000240 		.word	1073872896
 248 0008 0F00     		.short	15
 249 000a 1000     		.short	16
 250              		.text
 251              	.Letext0:
 252              		.file 3 "c:\\users\\pchautems\\documents\\robotiquetp\\eclipse_e-puck2\\tools\\gcc-arm-none-eabi-7
 253              		.file 4 "c:\\users\\pchautems\\documents\\robotiquetp\\eclipse_e-puck2\\tools\\gcc-arm-none-eabi-7
 254              		.file 5 "c:\\users\\pchautems\\documents\\robotiquetp\\eclipse_e-puck2\\tools\\gcc-arm-none-eabi-7
 255              		.file 6 "c:\\users\\pchautems\\documents\\robotiquetp\\eclipse_e-puck2\\tools\\gcc-arm-none-eabi-7
 256              		.file 7 "c:\\users\\pchautems\\documents\\robotiquetp\\eclipse_e-puck2\\tools\\gcc-arm-none-eabi-7
 257              		.file 8 "c:\\users\\pchautems\\documents\\robotiquetp\\eclipse_e-puck2\\tools\\gcc-arm-none-eabi-7
 258              		.file 9 "c:\\users\\pchautems\\documents\\robotiquetp\\eclipse_e-puck2\\tools\\gcc-arm-none-eabi-7
 259              		.file 10 "../lib/e-puck2_main-processor/ChibiOS//os/rt/ports/ARMCMx/compilers/GCC/chtypes.h"
 260              		.file 11 "../lib/e-puck2_main-processor/ChibiOS//os/rt/include/chsystypes.h"
 261              		.file 12 "../lib/e-puck2_main-processor/ChibiOS//os/rt/include/chschd.h"
 262              		.file 13 "../lib/e-puck2_main-processor/ChibiOS//os/ext/CMSIS/include/core_cm4.h"
 263              		.file 14 "../lib/e-puck2_main-processor/ChibiOS//os/ext/CMSIS/ST/system_stm32f4xx.h"
 264              		.file 15 "../lib/e-puck2_main-processor/ChibiOS//os/ext/CMSIS/ST/stm32f407xx.h"
 265              		.file 16 "../lib/e-puck2_main-processor/ChibiOS//os/rt/ports/ARMCMx/chcore.h"
 266              		.file 17 "../lib/e-puck2_main-processor/ChibiOS//os/rt/ports/ARMCMx/chcore_v7m.h"
 267              		.file 18 "../lib/e-puck2_main-processor/ChibiOS//os/rt/include/chdebug.h"
 268              		.file 19 "../lib/e-puck2_main-processor/ChibiOS//os/rt/include/chtm.h"
 269              		.file 20 "../lib/e-puck2_main-processor/ChibiOS//os/rt/include/chstats.h"
 270              		.file 21 "../lib/e-puck2_main-processor/ChibiOS//os/rt/include/chsem.h"
 271              		.file 22 "../lib/e-puck2_main-processor/ChibiOS//os/rt/include/chmtx.h"
ARM GAS  C:\Users\PCHAUT~1\AppData\Local\Temp\ccBCSEAg.s 			page 6


 272              		.file 23 "../lib/e-puck2_main-processor/ChibiOS//os/rt/include/chevents.h"
 273              		.file 24 "../lib/e-puck2_main-processor/ChibiOS//os/rt/include/chqueues.h"
 274              		.file 25 "../lib/e-puck2_main-processor/ChibiOS//os/hal/ports/STM32/STM32F4xx/stm32_dma.h"
 275              		.file 26 "../lib/e-puck2_main-processor/ChibiOS//os/hal/include/hal_ioblock.h"
 276              		.file 27 "../lib/e-puck2_main-processor/ChibiOS//os/hal/ports/STM32/LLD/GPIOv2/pal_lld.h"
 277              		.file 28 "../lib/e-puck2_main-processor/ChibiOS//os/hal/include/adc.h"
 278              		.file 29 "../lib/e-puck2_main-processor/ChibiOS//os/hal/ports/STM32/STM32F4xx/adc_lld.h"
 279              		.file 30 "../lib/e-puck2_main-processor/ChibiOS//os/hal/include/can.h"
 280              		.file 31 "../lib/e-puck2_main-processor/ChibiOS//os/hal/ports/STM32/LLD/can_lld.h"
 281              		.file 32 "../lib/e-puck2_main-processor/ChibiOS//os/hal/include/dac.h"
 282              		.file 33 "../lib/e-puck2_main-processor/ChibiOS//os/hal/ports/STM32/LLD/DACv1/dac_lld.h"
 283              		.file 34 "../lib/e-puck2_main-processor/ChibiOS//os/hal/include/ext.h"
 284              		.file 35 "../lib/e-puck2_main-processor/ChibiOS//os/hal/ports/STM32/LLD/ext_lld.h"
 285              		.file 36 "../lib/e-puck2_main-processor/ChibiOS//os/hal/include/gpt.h"
 286              		.file 37 "../lib/e-puck2_main-processor/ChibiOS//os/hal/ports/STM32/LLD/TIMv1/gpt_lld.h"
 287              		.file 38 "../lib/e-puck2_main-processor/ChibiOS//os/hal/ports/STM32/LLD/TIMv1/stm32_tim.h"
 288              		.file 39 "../lib/e-puck2_main-processor/ChibiOS//os/hal/include/i2c.h"
 289              		.file 40 "../lib/e-puck2_main-processor/ChibiOS//os/hal/ports/STM32/LLD/I2Cv1/i2c_lld.h"
 290              		.file 41 "../lib/e-puck2_main-processor/ChibiOS//os/hal/include/i2s.h"
 291              		.file 42 "../lib/e-puck2_main-processor/ChibiOS//os/hal/ports/STM32/LLD/SPIv1/i2s_lld.h"
 292              		.file 43 "../lib/e-puck2_main-processor/ChibiOS//os/hal/include/pwm.h"
 293              		.file 44 "../lib/e-puck2_main-processor/ChibiOS//os/hal/ports/STM32/LLD/TIMv1/pwm_lld.h"
 294              		.file 45 "../lib/e-puck2_main-processor/ChibiOS//os/hal/include/serial.h"
 295              		.file 46 "../lib/e-puck2_main-processor/ChibiOS//os/hal/ports/STM32/LLD/USARTv1/serial_lld.h"
 296              		.file 47 "../lib/e-puck2_main-processor/ChibiOS//os/hal/include/sdc.h"
 297              		.file 48 "../lib/e-puck2_main-processor/ChibiOS//os/hal/ports/STM32/LLD/sdc_lld.h"
 298              		.file 49 "../lib/e-puck2_main-processor/ChibiOS//os/hal/include/spi.h"
 299              		.file 50 "../lib/e-puck2_main-processor/ChibiOS//os/hal/ports/STM32/LLD/SPIv1/spi_lld.h"
 300              		.file 51 "../lib/e-puck2_main-processor/ChibiOS//os/hal/include/usb.h"
 301              		.file 52 "../lib/e-puck2_main-processor/ChibiOS//os/hal/ports/STM32/LLD/OTGv1/usb_lld.h"
 302              		.file 53 "../lib/e-puck2_main-processor/ChibiOS//os/hal/ports/STM32/LLD/OTGv1/stm32_otg.h"
 303              		.file 54 "../lib/e-puck2_main-processor/ChibiOS_ext/os/hal/include/../ports/STM32/STM32F4xx/dcmi_l