ARM GAS  C:\Users\PCHAUT~1\AppData\Local\Temp\cctONd8a.s 			page 1


   1              		.cpu cortex-m4
   2              		.eabi_attribute 27, 1
   3              		.eabi_attribute 28, 1
   4              		.eabi_attribute 20, 1
   5              		.eabi_attribute 21, 1
   6              		.eabi_attribute 23, 3
   7              		.eabi_attribute 24, 1
   8              		.eabi_attribute 25, 1
   9              		.eabi_attribute 26, 1
  10              		.eabi_attribute 30, 6
  11              		.eabi_attribute 34, 1
  12              		.eabi_attribute 18, 4
  13              		.file	"st.c"
  14              		.text
  15              	.Ltext0:
  16              		.cfi_sections	.debug_frame
  17              		.section	.text.st_lld_start_alarm,"ax",%progbits
  18              		.align	1
  19              		.p2align 4,,15
  20              		.syntax unified
  21              		.thumb
  22              		.thumb_func
  23              		.fpu fpv4-sp-d16
  24              		.type	st_lld_start_alarm, %function
  25              	st_lld_start_alarm:
  26              	.LFB251:
  27              		.file 1 "../lib/e-puck2_main-processor/ChibiOS//os/hal/ports/STM32/LLD/TIMv1/st_lld.h"
  28              		.loc 1 141 0
  29              		.cfi_startproc
  30              		@ args = 0, pretend = 0, frame = 16
  31              		@ frame_needed = 0, uses_anonymous_args = 0
  32 0000 00B5     		push	{lr}
  33              		.cfi_def_cfa_offset 4
  34              		.cfi_offset 14, -4
  35 0002 85B0     		sub	sp, sp, #20
  36              		.cfi_def_cfa_offset 24
  37 0004 0190     		str	r0, [sp, #4]
  38              		.loc 1 141 0
  39 0006 0D4B     		ldr	r3, .L3
  40 0008 1B68     		ldr	r3, [r3]
  41 000a 0393     		str	r3, [sp, #12]
  42              		.loc 1 143 0
  43 000c 4FF08042 		mov	r2, #1073741824
  44 0010 019B     		ldr	r3, [sp, #4]
  45 0012 5363     		str	r3, [r2, #52]
  46              		.loc 1 144 0
  47 0014 4FF08043 		mov	r3, #1073741824
  48 0018 0022     		movs	r2, #0
  49 001a 1A61     		str	r2, [r3, #16]
  50              		.loc 1 145 0
  51 001c 4FF08043 		mov	r3, #1073741824
  52 0020 0222     		movs	r2, #2
  53 0022 DA60     		str	r2, [r3, #12]
  54              		.loc 1 146 0
  55 0024 00BF     		nop
  56 0026 054B     		ldr	r3, .L3
  57 0028 039A     		ldr	r2, [sp, #12]
ARM GAS  C:\Users\PCHAUT~1\AppData\Local\Temp\cctONd8a.s 			page 2


  58 002a 1B68     		ldr	r3, [r3]
  59 002c 9A42     		cmp	r2, r3
  60 002e 01D0     		beq	.L2
  61 0030 FFF7FEFF 		bl	__stack_chk_fail
  62              	.L2:
  63 0034 05B0     		add	sp, sp, #20
  64              		.cfi_def_cfa_offset 4
  65              		@ sp needed
  66 0036 5DF804FB 		ldr	pc, [sp], #4
  67              	.L4:
  68 003a 00BF     		.align	2
  69              	.L3:
  70 003c 00000000 		.word	__stack_chk_guard
  71              		.cfi_endproc
  72              	.LFE251:
  73              		.size	st_lld_start_alarm, .-st_lld_start_alarm
  74              		.section	.text.st_lld_stop_alarm,"ax",%progbits
  75              		.align	1
  76              		.p2align 4,,15
  77              		.syntax unified
  78              		.thumb
  79              		.thumb_func
  80              		.fpu fpv4-sp-d16
  81              		.type	st_lld_stop_alarm, %function
  82              	st_lld_stop_alarm:
  83              	.LFB252:
  84              		.loc 1 153 0
  85              		.cfi_startproc
  86              		@ args = 0, pretend = 0, frame = 8
  87              		@ frame_needed = 0, uses_anonymous_args = 0
  88 0000 00B5     		push	{lr}
  89              		.cfi_def_cfa_offset 4
  90              		.cfi_offset 14, -4
  91 0002 83B0     		sub	sp, sp, #12
  92              		.cfi_def_cfa_offset 16
  93              		.loc 1 153 0
  94 0004 084B     		ldr	r3, .L7
  95 0006 1B68     		ldr	r3, [r3]
  96 0008 0193     		str	r3, [sp, #4]
  97              		.loc 1 155 0
  98 000a 4FF08043 		mov	r3, #1073741824
  99 000e 0022     		movs	r2, #0
 100 0010 DA60     		str	r2, [r3, #12]
 101              		.loc 1 156 0
 102 0012 00BF     		nop
 103 0014 044B     		ldr	r3, .L7
 104 0016 019A     		ldr	r2, [sp, #4]
 105 0018 1B68     		ldr	r3, [r3]
 106 001a 9A42     		cmp	r2, r3
 107 001c 01D0     		beq	.L6
 108 001e FFF7FEFF 		bl	__stack_chk_fail
 109              	.L6:
 110 0022 03B0     		add	sp, sp, #12
 111              		.cfi_def_cfa_offset 4
 112              		@ sp needed
 113 0024 5DF804FB 		ldr	pc, [sp], #4
 114              	.L8:
ARM GAS  C:\Users\PCHAUT~1\AppData\Local\Temp\cctONd8a.s 			page 3


 115              		.align	2
 116              	.L7:
 117 0028 00000000 		.word	__stack_chk_guard
 118              		.cfi_endproc
 119              	.LFE252:
 120              		.size	st_lld_stop_alarm, .-st_lld_stop_alarm
 121              		.section	.text.st_lld_set_alarm,"ax",%progbits
 122              		.align	1
 123              		.p2align 4,,15
 124              		.syntax unified
 125              		.thumb
 126              		.thumb_func
 127              		.fpu fpv4-sp-d16
 128              		.type	st_lld_set_alarm, %function
 129              	st_lld_set_alarm:
 130              	.LFB253:
 131              		.loc 1 165 0
 132              		.cfi_startproc
 133              		@ args = 0, pretend = 0, frame = 16
 134              		@ frame_needed = 0, uses_anonymous_args = 0
 135 0000 00B5     		push	{lr}
 136              		.cfi_def_cfa_offset 4
 137              		.cfi_offset 14, -4
 138 0002 85B0     		sub	sp, sp, #20
 139              		.cfi_def_cfa_offset 24
 140 0004 0190     		str	r0, [sp, #4]
 141              		.loc 1 165 0
 142 0006 094B     		ldr	r3, .L11
 143 0008 1B68     		ldr	r3, [r3]
 144 000a 0393     		str	r3, [sp, #12]
 145              		.loc 1 167 0
 146 000c 4FF08042 		mov	r2, #1073741824
 147 0010 019B     		ldr	r3, [sp, #4]
 148 0012 5363     		str	r3, [r2, #52]
 149              		.loc 1 168 0
 150 0014 00BF     		nop
 151 0016 054B     		ldr	r3, .L11
 152 0018 039A     		ldr	r2, [sp, #12]
 153 001a 1B68     		ldr	r3, [r3]
 154 001c 9A42     		cmp	r2, r3
 155 001e 01D0     		beq	.L10
 156 0020 FFF7FEFF 		bl	__stack_chk_fail
 157              	.L10:
 158 0024 05B0     		add	sp, sp, #20
 159              		.cfi_def_cfa_offset 4
 160              		@ sp needed
 161 0026 5DF804FB 		ldr	pc, [sp], #4
 162              	.L12:
 163 002a 00BF     		.align	2
 164              	.L11:
 165 002c 00000000 		.word	__stack_chk_guard
 166              		.cfi_endproc
 167              	.LFE253:
 168              		.size	st_lld_set_alarm, .-st_lld_set_alarm
 169              		.section	.text.st_lld_get_alarm,"ax",%progbits
 170              		.align	1
 171              		.p2align 4,,15
ARM GAS  C:\Users\PCHAUT~1\AppData\Local\Temp\cctONd8a.s 			page 4


 172              		.syntax unified
 173              		.thumb
 174              		.thumb_func
 175              		.fpu fpv4-sp-d16
 176              		.type	st_lld_get_alarm, %function
 177              	st_lld_get_alarm:
 178              	.LFB254:
 179              		.loc 1 177 0
 180              		.cfi_startproc
 181              		@ args = 0, pretend = 0, frame = 8
 182              		@ frame_needed = 0, uses_anonymous_args = 0
 183 0000 00B5     		push	{lr}
 184              		.cfi_def_cfa_offset 4
 185              		.cfi_offset 14, -4
 186 0002 83B0     		sub	sp, sp, #12
 187              		.cfi_def_cfa_offset 16
 188              		.loc 1 177 0
 189 0004 084B     		ldr	r3, .L16
 190 0006 1B68     		ldr	r3, [r3]
 191 0008 0193     		str	r3, [sp, #4]
 192              		.loc 1 179 0
 193 000a 4FF08043 		mov	r3, #1073741824
 194 000e 5B6B     		ldr	r3, [r3, #52]
 195              		.loc 1 180 0
 196 0010 1846     		mov	r0, r3
 197 0012 054B     		ldr	r3, .L16
 198 0014 019A     		ldr	r2, [sp, #4]
 199 0016 1B68     		ldr	r3, [r3]
 200 0018 9A42     		cmp	r2, r3
 201 001a 01D0     		beq	.L15
 202 001c FFF7FEFF 		bl	__stack_chk_fail
 203              	.L15:
 204 0020 03B0     		add	sp, sp, #12
 205              		.cfi_def_cfa_offset 4
 206              		@ sp needed
 207 0022 5DF804FB 		ldr	pc, [sp], #4
 208              	.L17:
 209 0026 00BF     		.align	2
 210              	.L16:
 211 0028 00000000 		.word	__stack_chk_guard
 212              		.cfi_endproc
 213              	.LFE254:
 214              		.size	st_lld_get_alarm, .-st_lld_get_alarm
 215              		.section	.text.st_lld_is_alarm_active,"ax",%progbits
 216              		.align	1
 217              		.p2align 4,,15
 218              		.syntax unified
 219              		.thumb
 220              		.thumb_func
 221              		.fpu fpv4-sp-d16
 222              		.type	st_lld_is_alarm_active, %function
 223              	st_lld_is_alarm_active:
 224              	.LFB255:
 225              		.loc 1 191 0
 226              		.cfi_startproc
 227              		@ args = 0, pretend = 0, frame = 8
 228              		@ frame_needed = 0, uses_anonymous_args = 0
ARM GAS  C:\Users\PCHAUT~1\AppData\Local\Temp\cctONd8a.s 			page 5


 229 0000 00B5     		push	{lr}
 230              		.cfi_def_cfa_offset 4
 231              		.cfi_offset 14, -4
 232 0002 83B0     		sub	sp, sp, #12
 233              		.cfi_def_cfa_offset 16
 234              		.loc 1 191 0
 235 0004 0B4B     		ldr	r3, .L21
 236 0006 1B68     		ldr	r3, [r3]
 237 0008 0193     		str	r3, [sp, #4]
 238              		.loc 1 193 0
 239 000a 4FF08043 		mov	r3, #1073741824
 240 000e DB68     		ldr	r3, [r3, #12]
 241 0010 03F00203 		and	r3, r3, #2
 242 0014 002B     		cmp	r3, #0
 243 0016 14BF     		ite	ne
 244 0018 0123     		movne	r3, #1
 245 001a 0023     		moveq	r3, #0
 246 001c DBB2     		uxtb	r3, r3
 247              		.loc 1 194 0
 248 001e 1846     		mov	r0, r3
 249 0020 044B     		ldr	r3, .L21
 250 0022 019A     		ldr	r2, [sp, #4]
 251 0024 1B68     		ldr	r3, [r3]
 252 0026 9A42     		cmp	r2, r3
 253 0028 01D0     		beq	.L20
 254 002a FFF7FEFF 		bl	__stack_chk_fail
 255              	.L20:
 256 002e 03B0     		add	sp, sp, #12
 257              		.cfi_def_cfa_offset 4
 258              		@ sp needed
 259 0030 5DF804FB 		ldr	pc, [sp], #4
 260              	.L22:
 261              		.align	2
 262              	.L21:
 263 0034 00000000 		.word	__stack_chk_guard
 264              		.cfi_endproc
 265              	.LFE255:
 266              		.size	st_lld_is_alarm_active, .-st_lld_is_alarm_active
 267              		.section	.text.stInit,"ax",%progbits
 268              		.align	1
 269              		.p2align 4,,15
 270              		.global	stInit
 271              		.syntax unified
 272              		.thumb
 273              		.thumb_func
 274              		.fpu fpv4-sp-d16
 275              		.type	stInit, %function
 276              	stInit:
 277              	.LFB256:
 278              		.file 2 "../lib/e-puck2_main-processor/ChibiOS//os/hal/src/st.c"
 279              		.loc 2 60 0
 280              		.cfi_startproc
 281              		@ args = 0, pretend = 0, frame = 8
 282              		@ frame_needed = 0, uses_anonymous_args = 0
 283 0000 00B5     		push	{lr}
 284              		.cfi_def_cfa_offset 4
 285              		.cfi_offset 14, -4
ARM GAS  C:\Users\PCHAUT~1\AppData\Local\Temp\cctONd8a.s 			page 6


 286 0002 83B0     		sub	sp, sp, #12
 287              		.cfi_def_cfa_offset 16
 288              		.loc 2 60 0
 289 0004 074B     		ldr	r3, .L25
 290 0006 1B68     		ldr	r3, [r3]
 291 0008 0193     		str	r3, [sp, #4]
 292              		.loc 2 62 0
 293 000a FFF7FEFF 		bl	st_lld_init
 294              		.loc 2 63 0
 295 000e 00BF     		nop
 296 0010 044B     		ldr	r3, .L25
 297 0012 019A     		ldr	r2, [sp, #4]
 298 0014 1B68     		ldr	r3, [r3]
 299 0016 9A42     		cmp	r2, r3
 300 0018 01D0     		beq	.L24
 301 001a FFF7FEFF 		bl	__stack_chk_fail
 302              	.L24:
 303 001e 03B0     		add	sp, sp, #12
 304              		.cfi_def_cfa_offset 4
 305              		@ sp needed
 306 0020 5DF804FB 		ldr	pc, [sp], #4
 307              	.L26:
 308              		.align	2
 309              	.L25:
 310 0024 00000000 		.word	__stack_chk_guard
 311              		.cfi_endproc
 312              	.LFE256:
 313              		.size	stInit, .-stInit
 314              		.section	.text.stStartAlarm,"ax",%progbits
 315              		.align	1
 316              		.p2align 4,,15
 317              		.global	stStartAlarm
 318              		.syntax unified
 319              		.thumb
 320              		.thumb_func
 321              		.fpu fpv4-sp-d16
 322              		.type	stStartAlarm, %function
 323              	stStartAlarm:
 324              	.LFB257:
 325              		.loc 2 77 0
 326              		.cfi_startproc
 327              		@ args = 0, pretend = 0, frame = 16
 328              		@ frame_needed = 0, uses_anonymous_args = 0
 329 0000 00B5     		push	{lr}
 330              		.cfi_def_cfa_offset 4
 331              		.cfi_offset 14, -4
 332 0002 85B0     		sub	sp, sp, #20
 333              		.cfi_def_cfa_offset 24
 334 0004 0190     		str	r0, [sp, #4]
 335              		.loc 2 77 0
 336 0006 0C4B     		ldr	r3, .L30
 337 0008 1B68     		ldr	r3, [r3]
 338 000a 0393     		str	r3, [sp, #12]
 339              		.loc 2 79 0
 340 000c FFF7FEFF 		bl	st_lld_is_alarm_active
 341 0010 0346     		mov	r3, r0
 342 0012 002B     		cmp	r3, #0
ARM GAS  C:\Users\PCHAUT~1\AppData\Local\Temp\cctONd8a.s 			page 7


 343 0014 02D0     		beq	.L28
 344              		.loc 2 79 0 is_stmt 0 discriminator 2
 345 0016 0948     		ldr	r0, .L30+4
 346 0018 FFF7FEFF 		bl	chSysHalt
 347              	.L28:
 348              		.loc 2 81 0 is_stmt 1
 349 001c 0198     		ldr	r0, [sp, #4]
 350 001e FFF7FEFF 		bl	st_lld_start_alarm
 351              		.loc 2 82 0
 352 0022 00BF     		nop
 353 0024 044B     		ldr	r3, .L30
 354 0026 039A     		ldr	r2, [sp, #12]
 355 0028 1B68     		ldr	r3, [r3]
 356 002a 9A42     		cmp	r2, r3
 357 002c 01D0     		beq	.L29
 358 002e FFF7FEFF 		bl	__stack_chk_fail
 359              	.L29:
 360 0032 05B0     		add	sp, sp, #20
 361              		.cfi_def_cfa_offset 4
 362              		@ sp needed
 363 0034 5DF804FB 		ldr	pc, [sp], #4
 364              	.L31:
 365              		.align	2
 366              	.L30:
 367 0038 00000000 		.word	__stack_chk_guard
 368 003c 00000000 		.word	__func__.9844
 369              		.cfi_endproc
 370              	.LFE257:
 371              		.size	stStartAlarm, .-stStartAlarm
 372              		.section	.text.stStopAlarm,"ax",%progbits
 373              		.align	1
 374              		.p2align 4,,15
 375              		.global	stStopAlarm
 376              		.syntax unified
 377              		.thumb
 378              		.thumb_func
 379              		.fpu fpv4-sp-d16
 380              		.type	stStopAlarm, %function
 381              	stStopAlarm:
 382              	.LFB258:
 383              		.loc 2 91 0
 384              		.cfi_startproc
 385              		@ args = 0, pretend = 0, frame = 8
 386              		@ frame_needed = 0, uses_anonymous_args = 0
 387 0000 00B5     		push	{lr}
 388              		.cfi_def_cfa_offset 4
 389              		.cfi_offset 14, -4
 390 0002 83B0     		sub	sp, sp, #12
 391              		.cfi_def_cfa_offset 16
 392              		.loc 2 91 0
 393 0004 074B     		ldr	r3, .L34
 394 0006 1B68     		ldr	r3, [r3]
 395 0008 0193     		str	r3, [sp, #4]
 396              		.loc 2 93 0
 397 000a FFF7FEFF 		bl	st_lld_stop_alarm
 398              		.loc 2 94 0
 399 000e 00BF     		nop
ARM GAS  C:\Users\PCHAUT~1\AppData\Local\Temp\cctONd8a.s 			page 8


 400 0010 044B     		ldr	r3, .L34
 401 0012 019A     		ldr	r2, [sp, #4]
 402 0014 1B68     		ldr	r3, [r3]
 403 0016 9A42     		cmp	r2, r3
 404 0018 01D0     		beq	.L33
 405 001a FFF7FEFF 		bl	__stack_chk_fail
 406              	.L33:
 407 001e 03B0     		add	sp, sp, #12
 408              		.cfi_def_cfa_offset 4
 409              		@ sp needed
 410 0020 5DF804FB 		ldr	pc, [sp], #4
 411              	.L35:
 412              		.align	2
 413              	.L34:
 414 0024 00000000 		.word	__stack_chk_guard
 415              		.cfi_endproc
 416              	.LFE258:
 417              		.size	stStopAlarm, .-stStopAlarm
 418              		.section	.text.stSetAlarm,"ax",%progbits
 419              		.align	1
 420              		.p2align 4,,15
 421              		.global	stSetAlarm
 422              		.syntax unified
 423              		.thumb
 424              		.thumb_func
 425              		.fpu fpv4-sp-d16
 426              		.type	stSetAlarm, %function
 427              	stSetAlarm:
 428              	.LFB259:
 429              		.loc 2 105 0
 430              		.cfi_startproc
 431              		@ args = 0, pretend = 0, frame = 16
 432              		@ frame_needed = 0, uses_anonymous_args = 0
 433 0000 00B5     		push	{lr}
 434              		.cfi_def_cfa_offset 4
 435              		.cfi_offset 14, -4
 436 0002 85B0     		sub	sp, sp, #20
 437              		.cfi_def_cfa_offset 24
 438 0004 0190     		str	r0, [sp, #4]
 439              		.loc 2 105 0
 440 0006 0E4B     		ldr	r3, .L39
 441 0008 1B68     		ldr	r3, [r3]
 442 000a 0393     		str	r3, [sp, #12]
 443              		.loc 2 107 0
 444 000c FFF7FEFF 		bl	st_lld_is_alarm_active
 445 0010 0346     		mov	r3, r0
 446 0012 83F00103 		eor	r3, r3, #1
 447 0016 DBB2     		uxtb	r3, r3
 448 0018 002B     		cmp	r3, #0
 449 001a 02D0     		beq	.L37
 450              		.loc 2 107 0 is_stmt 0 discriminator 2
 451 001c 0948     		ldr	r0, .L39+4
 452 001e FFF7FEFF 		bl	chSysHalt
 453              	.L37:
 454              		.loc 2 109 0 is_stmt 1
 455 0022 0198     		ldr	r0, [sp, #4]
 456 0024 FFF7FEFF 		bl	st_lld_set_alarm
ARM GAS  C:\Users\PCHAUT~1\AppData\Local\Temp\cctONd8a.s 			page 9


 457              		.loc 2 110 0
 458 0028 00BF     		nop
 459 002a 054B     		ldr	r3, .L39
 460 002c 039A     		ldr	r2, [sp, #12]
 461 002e 1B68     		ldr	r3, [r3]
 462 0030 9A42     		cmp	r2, r3
 463 0032 01D0     		beq	.L38
 464 0034 FFF7FEFF 		bl	__stack_chk_fail
 465              	.L38:
 466 0038 05B0     		add	sp, sp, #20
 467              		.cfi_def_cfa_offset 4
 468              		@ sp needed
 469 003a 5DF804FB 		ldr	pc, [sp], #4
 470              	.L40:
 471 003e 00BF     		.align	2
 472              	.L39:
 473 0040 00000000 		.word	__stack_chk_guard
 474 0044 00000000 		.word	__func__.9851
 475              		.cfi_endproc
 476              	.LFE259:
 477              		.size	stSetAlarm, .-stSetAlarm
 478              		.section	.text.stGetAlarm,"ax",%progbits
 479              		.align	1
 480              		.p2align 4,,15
 481              		.global	stGetAlarm
 482              		.syntax unified
 483              		.thumb
 484              		.thumb_func
 485              		.fpu fpv4-sp-d16
 486              		.type	stGetAlarm, %function
 487              	stGetAlarm:
 488              	.LFB260:
 489              		.loc 2 121 0
 490              		.cfi_startproc
 491              		@ args = 0, pretend = 0, frame = 8
 492              		@ frame_needed = 0, uses_anonymous_args = 0
 493 0000 00B5     		push	{lr}
 494              		.cfi_def_cfa_offset 4
 495              		.cfi_offset 14, -4
 496 0002 83B0     		sub	sp, sp, #12
 497              		.cfi_def_cfa_offset 16
 498              		.loc 2 121 0
 499 0004 0D4B     		ldr	r3, .L45
 500 0006 1B68     		ldr	r3, [r3]
 501 0008 0193     		str	r3, [sp, #4]
 502              		.loc 2 123 0
 503 000a FFF7FEFF 		bl	st_lld_is_alarm_active
 504 000e 0346     		mov	r3, r0
 505 0010 83F00103 		eor	r3, r3, #1
 506 0014 DBB2     		uxtb	r3, r3
 507 0016 002B     		cmp	r3, #0
 508 0018 02D0     		beq	.L42
 509              		.loc 2 123 0 is_stmt 0 discriminator 2
 510 001a 0948     		ldr	r0, .L45+4
 511 001c FFF7FEFF 		bl	chSysHalt
 512              	.L42:
 513              		.loc 2 125 0 is_stmt 1
ARM GAS  C:\Users\PCHAUT~1\AppData\Local\Temp\cctONd8a.s 			page 10


 514 0020 FFF7FEFF 		bl	st_lld_get_alarm
 515 0024 0346     		mov	r3, r0
 516              		.loc 2 126 0
 517 0026 1846     		mov	r0, r3
 518 0028 044B     		ldr	r3, .L45
 519 002a 019A     		ldr	r2, [sp, #4]
 520 002c 1B68     		ldr	r3, [r3]
 521 002e 9A42     		cmp	r2, r3
 522 0030 01D0     		beq	.L44
 523 0032 FFF7FEFF 		bl	__stack_chk_fail
 524              	.L44:
 525 0036 03B0     		add	sp, sp, #12
 526              		.cfi_def_cfa_offset 4
 527              		@ sp needed
 528 0038 5DF804FB 		ldr	pc, [sp], #4
 529              	.L46:
 530              		.align	2
 531              	.L45:
 532 003c 00000000 		.word	__stack_chk_guard
 533 0040 00000000 		.word	__func__.9855
 534              		.cfi_endproc
 535              	.LFE260:
 536              		.size	stGetAlarm, .-stGetAlarm
 537              		.section	.rodata.__func__.9844,"a",%progbits
 538              		.align	2
 539              		.type	__func__.9844, %object
 540              		.size	__func__.9844, 13
 541              	__func__.9844:
 542 0000 73745374 		.ascii	"stStartAlarm\000"
 542      61727441 
 542      6C61726D 
 542      00
 543              		.section	.rodata.__func__.9851,"a",%progbits
 544              		.align	2
 545              		.type	__func__.9851, %object
 546              		.size	__func__.9851, 11
 547              	__func__.9851:
 548 0000 73745365 		.ascii	"stSetAlarm\000"
 548      74416C61 
 548      726D00
 549              		.section	.rodata.__func__.9855,"a",%progbits
 550              		.align	2
 551              		.type	__func__.9855, %object
 552              		.size	__func__.9855, 11
 553              	__func__.9855:
 554 0000 73744765 		.ascii	"stGetAlarm\000"
 554      74416C61 
 554      726D00
 555              		.text
 556              	.Letext0:
 557              		.file 3 "c:\\users\\pchautems\\documents\\robotiquetp\\eclipse_e-puck2\\tools\\gcc-arm-none-eabi-7
 558              		.file 4 "c:\\users\\pchautems\\documents\\robotiquetp\\eclipse_e-puck2\\tools\\gcc-arm-none-eabi-7
 559              		.file 5 "c:\\users\\pchautems\\documents\\robotiquetp\\eclipse_e-puck2\\tools\\gcc-arm-none-eabi-7
 560              		.file 6 "../lib/e-puck2_main-processor/ChibiOS//os/rt/ports/ARMCMx/compilers/GCC/chtypes.h"
 561              		.file 7 "../lib/e-puck2_main-processor/ChibiOS//os/rt/include/chsystypes.h"
 562              		.file 8 "../lib/e-puck2_main-processor/ChibiOS//os/rt/include/chschd.h"
 563              		.file 9 "../lib/e-puck2_main-processor/ChibiOS//os/ext/CMSIS/include/core_cm4.h"
ARM GAS  C:\Users\PCHAUT~1\AppData\Local\Temp\cctONd8a.s 			page 11


 564              		.file 10 "../lib/e-puck2_main-processor/ChibiOS//os/ext/CMSIS/ST/system_stm32f4xx.h"
 565              		.file 11 "../lib/e-puck2_main-processor/ChibiOS//os/ext/CMSIS/ST/stm32f407xx.h"
 566              		.file 12 "../lib/e-puck2_main-processor/ChibiOS//os/rt/ports/ARMCMx/chcore.h"
 567              		.file 13 "../lib/e-puck2_main-processor/ChibiOS//os/rt/ports/ARMCMx/chcore_v7m.h"
 568              		.file 14 "../lib/e-puck2_main-processor/ChibiOS//os/rt/include/chdebug.h"
 569              		.file 15 "../lib/e-puck2_main-processor/ChibiOS//os/rt/include/chtm.h"
 570              		.file 16 "../lib/e-puck2_main-processor/ChibiOS//os/rt/include/chstats.h"
 571              		.file 17 "../lib/e-puck2_main-processor/ChibiOS//os/rt/include/chsem.h"
 572              		.file 18 "../lib/e-puck2_main-processor/ChibiOS//os/rt/include/chmtx.h"
 573              		.file 19 "../lib/e-puck2_main-processor/ChibiOS//os/rt/include/chregistry.h"
 574              		.file 20 "../lib/e-puck2_main-processor/ChibiOS//os/rt/include/chevents.h"
 575              		.file 21 "../lib/e-puck2_main-processor/ChibiOS//os/rt/include/chqueues.h"
 576              		.file 22 "../lib/e-puck2_main-processor/ChibiOS//os/hal/ports/STM32/STM32F4xx/stm32_dma.h"
 577              		.file 23 "../lib/e-puck2_main-processor/ChibiOS//os/hal/include/hal_ioblock.h"
 578              		.file 24 "../lib/e-puck2_main-processor/ChibiOS//os/hal/ports/STM32/LLD/GPIOv2/pal_lld.h"
 579              		.file 25 "../lib/e-puck2_main-processor/ChibiOS//os/hal/include/adc.h"
 580              		.file 26 "../lib/e-puck2_main-processor/ChibiOS//os/hal/ports/STM32/STM32F4xx/adc_lld.h"
 581              		.file 27 "../lib/e-puck2_main-processor/ChibiOS//os/hal/include/can.h"
 582              		.file 28 "../lib/e-puck2_main-processor/ChibiOS//os/hal/ports/STM32/LLD/can_lld.h"
 583              		.file 29 "../lib/e-puck2_main-processor/ChibiOS//os/hal/include/dac.h"
 584              		.file 30 "../lib/e-puck2_main-processor/ChibiOS//os/hal/ports/STM32/LLD/DACv1/dac_lld.h"
 585              		.file 31 "../lib/e-puck2_main-processor/ChibiOS//os/hal/include/ext.h"
 586              		.file 32 "../lib/e-puck2_main-processor/ChibiOS//os/hal/ports/STM32/LLD/ext_lld.h"
 587              		.file 33 "../lib/e-puck2_main-processor/ChibiOS//os/hal/include/gpt.h"
 588              		.file 34 "../lib/e-puck2_main-processor/ChibiOS//os/hal/ports/STM32/LLD/TIMv1/gpt_lld.h"
 589              		.file 35 "../lib/e-puck2_main-processor/ChibiOS//os/hal/ports/STM32/LLD/TIMv1/stm32_tim.h"
 590              		.file 36 "../lib/e-puck2_main-processor/ChibiOS//os/hal/include/i2c.h"
 591              		.file 37 "../lib/e-puck2_main-processor/ChibiOS//os/hal/ports/STM32/LLD/I2Cv1/i2c_lld.h"
 592              		.file 38 "../lib/e-puck2_main-processor/ChibiOS//os/hal/include/i2s.h"
 593              		.file 39 "../lib/e-puck2_main-processor/ChibiOS//os/hal/ports/STM32/LLD/SPIv1/i2s_lld.h"
 594              		.file 40 "../lib/e-puck2_main-processor/ChibiOS//os/hal/include/pwm.h"
 595              		.file 41 "../lib/e-puck2_main-processor/ChibiOS//os/hal/ports/STM32/LLD/TIMv1/pwm_lld.h"
 596              		.file 42 "../lib/e-puck2_main-processor/ChibiOS//os/hal/include/serial.h"
 597              		.file 43 "../lib/e-puck2_main-processor/ChibiOS//os/hal/ports/STM32/LLD/USARTv1/serial_lld.h"
 598              		.file 44 "../lib/e-puck2_main-processor/ChibiOS//os/hal/include/sdc.h"
 599              		.file 45 "../lib/e-puck2_main-processor/ChibiOS//os/hal/ports/STM32/LLD/sdc_lld.h"
 600              		.file 46 "../lib/e-puck2_main-processor/ChibiOS//os/hal/include/spi.h"
 601              		.file 47 "../lib/e-puck2_main-processor/ChibiOS//os/hal/ports/STM32/LLD/SPIv1/spi_lld.h"
 602              		.file 48 "../lib/e-puck2_main-processor/ChibiOS//os/hal/include/usb.h"
 603              		.file 49 "../lib/e-puck2_main-processor/ChibiOS//os/hal/ports/STM32/LLD/OTGv1/usb_lld.h"
 604              		.file 50 "../lib/e-puck2_main-processor/ChibiOS//os/hal/ports/STM32/LLD/OTGv1/stm32_otg.h"