ARM GAS  C:\Users\PCHAUT~1\AppData\Local\Temp\cc4us1Pe.s 			page 1


   1              		.cpu cortex-m4
   2              		.eabi_attribute 27, 1
   3              		.eabi_attribute 28, 1
   4              		.eabi_attribute 20, 1
   5              		.eabi_attribute 21, 1
   6              		.eabi_attribute 23, 3
   7              		.eabi_attribute 24, 1
   8              		.eabi_attribute 25, 1
   9              		.eabi_attribute 26, 1
  10              		.eabi_attribute 30, 6
  11              		.eabi_attribute 34, 1
  12              		.eabi_attribute 18, 4
  13              		.file	"testmtx.c"
  14              		.text
  15              	.Ltext0:
  16              		.cfi_sections	.debug_frame
  17              		.section	.text.port_lock,"ax",%progbits
  18              		.align	1
  19              		.p2align 4,,15
  20              		.syntax unified
  21              		.thumb
  22              		.thumb_func
  23              		.fpu fpv4-sp-d16
  24              		.type	port_lock, %function
  25              	port_lock:
  26              	.LFB116:
  27              		.file 1 "../lib/e-puck2_main-processor/ChibiOS//os/rt/ports/ARMCMx/chcore_v7m.h"
  28              		.loc 1 444 0
  29              		.cfi_startproc
  30              		@ args = 0, pretend = 0, frame = 8
  31              		@ frame_needed = 0, uses_anonymous_args = 0
  32 0000 00B5     		push	{lr}
  33              		.cfi_def_cfa_offset 4
  34              		.cfi_offset 14, -4
  35 0002 83B0     		sub	sp, sp, #12
  36              		.cfi_def_cfa_offset 16
  37              		.loc 1 444 0
  38 0004 094B     		ldr	r3, .L3
  39 0006 1B68     		ldr	r3, [r3]
  40 0008 0193     		str	r3, [sp, #4]
  41 000a 2023     		movs	r3, #32
  42 000c 0093     		str	r3, [sp]
  43              	.LBB6:
  44              	.LBB7:
  45              		.file 2 "../lib/e-puck2_main-processor/ChibiOS//os/ext/CMSIS/include/core_cmFunc.h"
  46              		.loc 2 546 0
  47 000e 009B     		ldr	r3, [sp]
  48              		.syntax unified
  49              	@ 546 "../lib/e-puck2_main-processor/ChibiOS//os/ext/CMSIS/include/core_cmFunc.h" 1
  50 0010 83F31188 		MSR basepri, r3
  51              	@ 0 "" 2
  52              		.thumb
  53              		.syntax unified
  54              	.LBE7:
  55              	.LBE6:
  56              		.loc 1 451 0
  57 0014 00BF     		nop
ARM GAS  C:\Users\PCHAUT~1\AppData\Local\Temp\cc4us1Pe.s 			page 2


  58 0016 054B     		ldr	r3, .L3
  59 0018 019A     		ldr	r2, [sp, #4]
  60 001a 1B68     		ldr	r3, [r3]
  61 001c 9A42     		cmp	r2, r3
  62 001e 01D0     		beq	.L2
  63 0020 FFF7FEFF 		bl	__stack_chk_fail
  64              	.L2:
  65 0024 03B0     		add	sp, sp, #12
  66              		.cfi_def_cfa_offset 4
  67              		@ sp needed
  68 0026 5DF804FB 		ldr	pc, [sp], #4
  69              	.L4:
  70 002a 00BF     		.align	2
  71              	.L3:
  72 002c 00000000 		.word	__stack_chk_guard
  73              		.cfi_endproc
  74              	.LFE116:
  75              		.size	port_lock, .-port_lock
  76              		.section	.text.port_unlock,"ax",%progbits
  77              		.align	1
  78              		.p2align 4,,15
  79              		.syntax unified
  80              		.thumb
  81              		.thumb_func
  82              		.fpu fpv4-sp-d16
  83              		.type	port_unlock, %function
  84              	port_unlock:
  85              	.LFB117:
  86              		.loc 1 458 0
  87              		.cfi_startproc
  88              		@ args = 0, pretend = 0, frame = 8
  89              		@ frame_needed = 0, uses_anonymous_args = 0
  90 0000 00B5     		push	{lr}
  91              		.cfi_def_cfa_offset 4
  92              		.cfi_offset 14, -4
  93 0002 83B0     		sub	sp, sp, #12
  94              		.cfi_def_cfa_offset 16
  95              		.loc 1 458 0
  96 0004 094B     		ldr	r3, .L7
  97 0006 1B68     		ldr	r3, [r3]
  98 0008 0193     		str	r3, [sp, #4]
  99 000a 0023     		movs	r3, #0
 100 000c 0093     		str	r3, [sp]
 101              	.LBB8:
 102              	.LBB9:
 103              		.loc 2 546 0
 104 000e 009B     		ldr	r3, [sp]
 105              		.syntax unified
 106              	@ 546 "../lib/e-puck2_main-processor/ChibiOS//os/ext/CMSIS/include/core_cmFunc.h" 1
 107 0010 83F31188 		MSR basepri, r3
 108              	@ 0 "" 2
 109              		.thumb
 110              		.syntax unified
 111              	.LBE9:
 112              	.LBE8:
 113              		.loc 1 465 0
 114 0014 00BF     		nop
ARM GAS  C:\Users\PCHAUT~1\AppData\Local\Temp\cc4us1Pe.s 			page 3


 115 0016 054B     		ldr	r3, .L7
 116 0018 019A     		ldr	r2, [sp, #4]
 117 001a 1B68     		ldr	r3, [r3]
 118 001c 9A42     		cmp	r2, r3
 119 001e 01D0     		beq	.L6
 120 0020 FFF7FEFF 		bl	__stack_chk_fail
 121              	.L6:
 122 0024 03B0     		add	sp, sp, #12
 123              		.cfi_def_cfa_offset 4
 124              		@ sp needed
 125 0026 5DF804FB 		ldr	pc, [sp], #4
 126              	.L8:
 127 002a 00BF     		.align	2
 128              	.L7:
 129 002c 00000000 		.word	__stack_chk_guard
 130              		.cfi_endproc
 131              	.LFE117:
 132              		.size	port_unlock, .-port_unlock
 133              		.section	.text.queue_isempty,"ax",%progbits
 134              		.align	1
 135              		.p2align 4,,15
 136              		.syntax unified
 137              		.thumb
 138              		.thumb_func
 139              		.fpu fpv4-sp-d16
 140              		.type	queue_isempty, %function
 141              	queue_isempty:
 142              	.LFB129:
 143              		.file 3 "../lib/e-puck2_main-processor/ChibiOS//os/rt/include/chschd.h"
 144              		.loc 3 616 0
 145              		.cfi_startproc
 146              		@ args = 0, pretend = 0, frame = 16
 147              		@ frame_needed = 0, uses_anonymous_args = 0
 148 0000 00B5     		push	{lr}
 149              		.cfi_def_cfa_offset 4
 150              		.cfi_offset 14, -4
 151 0002 85B0     		sub	sp, sp, #20
 152              		.cfi_def_cfa_offset 24
 153 0004 0190     		str	r0, [sp, #4]
 154              		.loc 3 616 0
 155 0006 0B4B     		ldr	r3, .L12
 156 0008 1B68     		ldr	r3, [r3]
 157 000a 0393     		str	r3, [sp, #12]
 158              		.loc 3 618 0
 159 000c 019B     		ldr	r3, [sp, #4]
 160 000e 1B68     		ldr	r3, [r3]
 161 0010 019A     		ldr	r2, [sp, #4]
 162 0012 9A42     		cmp	r2, r3
 163 0014 0CBF     		ite	eq
 164 0016 0123     		moveq	r3, #1
 165 0018 0023     		movne	r3, #0
 166 001a DBB2     		uxtb	r3, r3
 167              		.loc 3 619 0
 168 001c 1846     		mov	r0, r3
 169 001e 054B     		ldr	r3, .L12
 170 0020 039A     		ldr	r2, [sp, #12]
 171 0022 1B68     		ldr	r3, [r3]
ARM GAS  C:\Users\PCHAUT~1\AppData\Local\Temp\cc4us1Pe.s 			page 4


 172 0024 9A42     		cmp	r2, r3
 173 0026 01D0     		beq	.L11
 174 0028 FFF7FEFF 		bl	__stack_chk_fail
 175              	.L11:
 176 002c 05B0     		add	sp, sp, #20
 177              		.cfi_def_cfa_offset 4
 178              		@ sp needed
 179 002e 5DF804FB 		ldr	pc, [sp], #4
 180              	.L13:
 181 0032 00BF     		.align	2
 182              	.L12:
 183 0034 00000000 		.word	__stack_chk_guard
 184              		.cfi_endproc
 185              	.LFE129:
 186              		.size	queue_isempty, .-queue_isempty
 187              		.section	.text.chSysLock,"ax",%progbits
 188              		.align	1
 189              		.p2align 4,,15
 190              		.syntax unified
 191              		.thumb
 192              		.thumb_func
 193              		.fpu fpv4-sp-d16
 194              		.type	chSysLock, %function
 195              	chSysLock:
 196              	.LFB145:
 197              		.file 4 "../lib/e-puck2_main-processor/ChibiOS//os/rt/include/chsys.h"
 198              		.loc 4 346 0
 199              		.cfi_startproc
 200              		@ args = 0, pretend = 0, frame = 8
 201              		@ frame_needed = 0, uses_anonymous_args = 0
 202 0000 00B5     		push	{lr}
 203              		.cfi_def_cfa_offset 4
 204              		.cfi_offset 14, -4
 205 0002 83B0     		sub	sp, sp, #12
 206              		.cfi_def_cfa_offset 16
 207              		.loc 4 346 0
 208 0004 094B     		ldr	r3, .L16
 209 0006 1B68     		ldr	r3, [r3]
 210 0008 0193     		str	r3, [sp, #4]
 211              		.loc 4 348 0
 212 000a FFF7FEFF 		bl	port_lock
 213              		.loc 4 349 0
 214 000e FFF7FEFF 		bl	_stats_start_measure_crit_thd
 215              		.loc 4 350 0
 216 0012 FFF7FEFF 		bl	_dbg_check_lock
 217              		.loc 4 351 0
 218 0016 00BF     		nop
 219 0018 044B     		ldr	r3, .L16
 220 001a 019A     		ldr	r2, [sp, #4]
 221 001c 1B68     		ldr	r3, [r3]
 222 001e 9A42     		cmp	r2, r3
 223 0020 01D0     		beq	.L15
 224 0022 FFF7FEFF 		bl	__stack_chk_fail
 225              	.L15:
 226 0026 03B0     		add	sp, sp, #12
 227              		.cfi_def_cfa_offset 4
 228              		@ sp needed
ARM GAS  C:\Users\PCHAUT~1\AppData\Local\Temp\cc4us1Pe.s 			page 5


 229 0028 5DF804FB 		ldr	pc, [sp], #4
 230              	.L17:
 231              		.align	2
 232              	.L16:
 233 002c 00000000 		.word	__stack_chk_guard
 234              		.cfi_endproc
 235              	.LFE145:
 236              		.size	chSysLock, .-chSysLock
 237              		.section	.text.chSysUnlock,"ax",%progbits
 238              		.align	1
 239              		.p2align 4,,15
 240              		.syntax unified
 241              		.thumb
 242              		.thumb_func
 243              		.fpu fpv4-sp-d16
 244              		.type	chSysUnlock, %function
 245              	chSysUnlock:
 246              	.LFB146:
 247              		.loc 4 358 0
 248              		.cfi_startproc
 249              		@ args = 0, pretend = 0, frame = 8
 250              		@ frame_needed = 0, uses_anonymous_args = 0
 251 0000 00B5     		push	{lr}
 252              		.cfi_def_cfa_offset 4
 253              		.cfi_offset 14, -4
 254 0002 83B0     		sub	sp, sp, #12
 255              		.cfi_def_cfa_offset 16
 256              		.loc 4 358 0
 257 0004 114B     		ldr	r3, .L21
 258 0006 1B68     		ldr	r3, [r3]
 259 0008 0193     		str	r3, [sp, #4]
 260              		.loc 4 360 0
 261 000a FFF7FEFF 		bl	_dbg_check_unlock
 262              		.loc 4 361 0
 263 000e FFF7FEFF 		bl	_stats_stop_measure_crit_thd
 264              		.loc 4 367 0
 265 0012 0F4B     		ldr	r3, .L21+4
 266 0014 1B68     		ldr	r3, [r3]
 267 0016 0E4A     		ldr	r2, .L21+4
 268 0018 9342     		cmp	r3, r2
 269 001a 0AD0     		beq	.L19
 270              		.loc 4 367 0 is_stmt 0 discriminator 2
 271 001c 0C4B     		ldr	r3, .L21+4
 272 001e 9B69     		ldr	r3, [r3, #24]
 273 0020 9A68     		ldr	r2, [r3, #8]
 274 0022 0B4B     		ldr	r3, .L21+4
 275 0024 1B68     		ldr	r3, [r3]
 276 0026 9B68     		ldr	r3, [r3, #8]
 277 0028 9A42     		cmp	r2, r3
 278 002a 02D2     		bcs	.L19
 279              		.loc 4 367 0 discriminator 3
 280 002c 0948     		ldr	r0, .L21+8
 281 002e FFF7FEFF 		bl	chSysHalt
 282              	.L19:
 283              		.loc 4 371 0 is_stmt 1
 284 0032 FFF7FEFF 		bl	port_unlock
 285              		.loc 4 372 0
ARM GAS  C:\Users\PCHAUT~1\AppData\Local\Temp\cc4us1Pe.s 			page 6


 286 0036 00BF     		nop
 287 0038 044B     		ldr	r3, .L21
 288 003a 019A     		ldr	r2, [sp, #4]
 289 003c 1B68     		ldr	r3, [r3]
 290 003e 9A42     		cmp	r2, r3
 291 0040 01D0     		beq	.L20
 292 0042 FFF7FEFF 		bl	__stack_chk_fail
 293              	.L20:
 294 0046 03B0     		add	sp, sp, #12
 295              		.cfi_def_cfa_offset 4
 296              		@ sp needed
 297 0048 5DF804FB 		ldr	pc, [sp], #4
 298              	.L22:
 299              		.align	2
 300              	.L21:
 301 004c 00000000 		.word	__stack_chk_guard
 302 0050 00000000 		.word	ch
 303 0054 00000000 		.word	__func__.7153
 304              		.cfi_endproc
 305              	.LFE146:
 306              		.size	chSysUnlock, .-chSysUnlock
 307              		.section	.text.chVTGetSystemTimeX,"ax",%progbits
 308              		.align	1
 309              		.p2align 4,,15
 310              		.syntax unified
 311              		.thumb
 312              		.thumb_func
 313              		.fpu fpv4-sp-d16
 314              		.type	chVTGetSystemTimeX, %function
 315              	chVTGetSystemTimeX:
 316              	.LFB153:
 317              		.file 5 "../lib/e-puck2_main-processor/ChibiOS//os/rt/include/chvt.h"
 318              		.loc 5 228 0
 319              		.cfi_startproc
 320              		@ args = 0, pretend = 0, frame = 8
 321              		@ frame_needed = 0, uses_anonymous_args = 0
 322 0000 00B5     		push	{lr}
 323              		.cfi_def_cfa_offset 4
 324              		.cfi_offset 14, -4
 325 0002 83B0     		sub	sp, sp, #12
 326              		.cfi_def_cfa_offset 16
 327              		.loc 5 228 0
 328 0004 074B     		ldr	r3, .L26
 329 0006 1B68     		ldr	r3, [r3]
 330 0008 0193     		str	r3, [sp, #4]
 331              		.loc 5 231 0
 332 000a 074B     		ldr	r3, .L26+4
 333 000c 9B6A     		ldr	r3, [r3, #40]
 334              		.loc 5 235 0
 335 000e 1846     		mov	r0, r3
 336 0010 044B     		ldr	r3, .L26
 337 0012 019A     		ldr	r2, [sp, #4]
 338 0014 1B68     		ldr	r3, [r3]
 339 0016 9A42     		cmp	r2, r3
 340 0018 01D0     		beq	.L25
 341 001a FFF7FEFF 		bl	__stack_chk_fail
 342              	.L25:
ARM GAS  C:\Users\PCHAUT~1\AppData\Local\Temp\cc4us1Pe.s 			page 7


 343 001e 03B0     		add	sp, sp, #12
 344              		.cfi_def_cfa_offset 4
 345              		@ sp needed
 346 0020 5DF804FB 		ldr	pc, [sp], #4
 347              	.L27:
 348              		.align	2
 349              	.L26:
 350 0024 00000000 		.word	__stack_chk_guard
 351 0028 00000000 		.word	ch
 352              		.cfi_endproc
 353              	.LFE153:
 354              		.size	chVTGetSystemTimeX, .-chVTGetSystemTimeX
 355              		.section	.text.chVTGetSystemTime,"ax",%progbits
 356              		.align	1
 357              		.p2align 4,,15
 358              		.syntax unified
 359              		.thumb
 360              		.thumb_func
 361              		.fpu fpv4-sp-d16
 362              		.type	chVTGetSystemTime, %function
 363              	chVTGetSystemTime:
 364              	.LFB154:
 365              		.loc 5 247 0
 366              		.cfi_startproc
 367              		@ args = 0, pretend = 0, frame = 8
 368              		@ frame_needed = 0, uses_anonymous_args = 0
 369 0000 00B5     		push	{lr}
 370              		.cfi_def_cfa_offset 4
 371              		.cfi_offset 14, -4
 372 0002 83B0     		sub	sp, sp, #12
 373              		.cfi_def_cfa_offset 16
 374              		.loc 5 247 0
 375 0004 0A4B     		ldr	r3, .L31
 376 0006 1B68     		ldr	r3, [r3]
 377 0008 0193     		str	r3, [sp, #4]
 378              		.loc 5 250 0
 379 000a FFF7FEFF 		bl	chSysLock
 380              		.loc 5 251 0
 381 000e FFF7FEFF 		bl	chVTGetSystemTimeX
 382 0012 0090     		str	r0, [sp]
 383              		.loc 5 252 0
 384 0014 FFF7FEFF 		bl	chSysUnlock
 385              		.loc 5 254 0
 386 0018 009B     		ldr	r3, [sp]
 387              		.loc 5 255 0
 388 001a 1846     		mov	r0, r3
 389 001c 044B     		ldr	r3, .L31
 390 001e 019A     		ldr	r2, [sp, #4]
 391 0020 1B68     		ldr	r3, [r3]
 392 0022 9A42     		cmp	r2, r3
 393 0024 01D0     		beq	.L30
 394 0026 FFF7FEFF 		bl	__stack_chk_fail
 395              	.L30:
 396 002a 03B0     		add	sp, sp, #12
 397              		.cfi_def_cfa_offset 4
 398              		@ sp needed
 399 002c 5DF804FB 		ldr	pc, [sp], #4
ARM GAS  C:\Users\PCHAUT~1\AppData\Local\Temp\cc4us1Pe.s 			page 8


 400              	.L32:
 401              		.align	2
 402              	.L31:
 403 0030 00000000 		.word	__stack_chk_guard
 404              		.cfi_endproc
 405              	.LFE154:
 406              		.size	chVTGetSystemTime, .-chVTGetSystemTime
 407              		.section	.text.chThdGetSelfX,"ax",%progbits
 408              		.align	1
 409              		.p2align 4,,15
 410              		.syntax unified
 411              		.thumb
 412              		.thumb_func
 413              		.fpu fpv4-sp-d16
 414              		.type	chThdGetSelfX, %function
 415              	chThdGetSelfX:
 416              	.LFB166:
 417              		.file 6 "../lib/e-puck2_main-processor/ChibiOS//os/rt/include/chthreads.h"
 418              		.loc 6 174 0
 419              		.cfi_startproc
 420              		@ args = 0, pretend = 0, frame = 8
 421              		@ frame_needed = 0, uses_anonymous_args = 0
 422 0000 00B5     		push	{lr}
 423              		.cfi_def_cfa_offset 4
 424              		.cfi_offset 14, -4
 425 0002 83B0     		sub	sp, sp, #12
 426              		.cfi_def_cfa_offset 16
 427              		.loc 6 174 0
 428 0004 074B     		ldr	r3, .L36
 429 0006 1B68     		ldr	r3, [r3]
 430 0008 0193     		str	r3, [sp, #4]
 431              		.loc 6 176 0
 432 000a 074B     		ldr	r3, .L36+4
 433 000c 9B69     		ldr	r3, [r3, #24]
 434              		.loc 6 177 0
 435 000e 1846     		mov	r0, r3
 436 0010 044B     		ldr	r3, .L36
 437 0012 019A     		ldr	r2, [sp, #4]
 438 0014 1B68     		ldr	r3, [r3]
 439 0016 9A42     		cmp	r2, r3
 440 0018 01D0     		beq	.L35
 441 001a FFF7FEFF 		bl	__stack_chk_fail
 442              	.L35:
 443 001e 03B0     		add	sp, sp, #12
 444              		.cfi_def_cfa_offset 4
 445              		@ sp needed
 446 0020 5DF804FB 		ldr	pc, [sp], #4
 447              	.L37:
 448              		.align	2
 449              	.L36:
 450 0024 00000000 		.word	__stack_chk_guard
 451 0028 00000000 		.word	ch
 452              		.cfi_endproc
 453              	.LFE166:
 454              		.size	chThdGetSelfX, .-chThdGetSelfX
 455              		.section	.text.chThdGetPriorityX,"ax",%progbits
 456              		.align	1
ARM GAS  C:\Users\PCHAUT~1\AppData\Local\Temp\cc4us1Pe.s 			page 9


 457              		.p2align 4,,15
 458              		.syntax unified
 459              		.thumb
 460              		.thumb_func
 461              		.fpu fpv4-sp-d16
 462              		.type	chThdGetPriorityX, %function
 463              	chThdGetPriorityX:
 464              	.LFB167:
 465              		.loc 6 187 0
 466              		.cfi_startproc
 467              		@ args = 0, pretend = 0, frame = 8
 468              		@ frame_needed = 0, uses_anonymous_args = 0
 469 0000 00B5     		push	{lr}
 470              		.cfi_def_cfa_offset 4
 471              		.cfi_offset 14, -4
 472 0002 83B0     		sub	sp, sp, #12
 473              		.cfi_def_cfa_offset 16
 474              		.loc 6 187 0
 475 0004 084B     		ldr	r3, .L41
 476 0006 1B68     		ldr	r3, [r3]
 477 0008 0193     		str	r3, [sp, #4]
 478              		.loc 6 189 0
 479 000a FFF7FEFF 		bl	chThdGetSelfX
 480 000e 0346     		mov	r3, r0
 481 0010 9B68     		ldr	r3, [r3, #8]
 482              		.loc 6 190 0
 483 0012 1846     		mov	r0, r3
 484 0014 044B     		ldr	r3, .L41
 485 0016 019A     		ldr	r2, [sp, #4]
 486 0018 1B68     		ldr	r3, [r3]
 487 001a 9A42     		cmp	r2, r3
 488 001c 01D0     		beq	.L40
 489 001e FFF7FEFF 		bl	__stack_chk_fail
 490              	.L40:
 491 0022 03B0     		add	sp, sp, #12
 492              		.cfi_def_cfa_offset 4
 493              		@ sp needed
 494 0024 5DF804FB 		ldr	pc, [sp], #4
 495              	.L42:
 496              		.align	2
 497              	.L41:
 498 0028 00000000 		.word	__stack_chk_guard
 499              		.cfi_endproc
 500              	.LFE167:
 501              		.size	chThdGetPriorityX, .-chThdGetPriorityX
 502              		.section	.data.m1,"aw",%progbits
 503              		.align	2
 504              		.type	m1, %object
 505              		.size	m1, 20
 506              	m1:
 507 0000 00000000 		.word	m1
 508 0004 00000000 		.word	m1
 509 0008 00000000 		.word	0
 510 000c 00000000 		.word	0
 511 0010 00000000 		.word	0
 512              		.section	.data.m2,"aw",%progbits
 513              		.align	2
ARM GAS  C:\Users\PCHAUT~1\AppData\Local\Temp\cc4us1Pe.s 			page 10


 514              		.type	m2, %object
 515              		.size	m2, 20
 516              	m2:
 517 0000 00000000 		.word	m2
 518 0004 00000000 		.word	m2
 519 0008 00000000 		.word	0
 520 000c 00000000 		.word	0
 521 0010 00000000 		.word	0
 522              		.section	.data.c1,"aw",%progbits
 523              		.align	2
 524              		.type	c1, %object
 525              		.size	c1, 8
 526              	c1:
 527 0000 00000000 		.word	c1
 528 0004 00000000 		.word	c1
 529              		.section	.text.mtx1_setup,"ax",%progbits
 530              		.align	1
 531              		.p2align 4,,15
 532              		.syntax unified
 533              		.thumb
 534              		.thumb_func
 535              		.fpu fpv4-sp-d16
 536              		.type	mtx1_setup, %function
 537              	mtx1_setup:
 538              	.LFB219:
 539              		.file 7 "../lib/e-puck2_main-processor/ChibiOS//test/rt/testmtx.c"
 540              		.loc 7 84 0
 541              		.cfi_startproc
 542              		@ args = 0, pretend = 0, frame = 8
 543              		@ frame_needed = 0, uses_anonymous_args = 0
 544 0000 00B5     		push	{lr}
 545              		.cfi_def_cfa_offset 4
 546              		.cfi_offset 14, -4
 547 0002 83B0     		sub	sp, sp, #12
 548              		.cfi_def_cfa_offset 16
 549              		.loc 7 84 0
 550 0004 084B     		ldr	r3, .L45
 551 0006 1B68     		ldr	r3, [r3]
 552 0008 0193     		str	r3, [sp, #4]
 553              		.loc 7 86 0
 554 000a 0848     		ldr	r0, .L45+4
 555 000c FFF7FEFF 		bl	chMtxObjectInit
 556              		.loc 7 87 0
 557 0010 00BF     		nop
 558 0012 054B     		ldr	r3, .L45
 559 0014 019A     		ldr	r2, [sp, #4]
 560 0016 1B68     		ldr	r3, [r3]
 561 0018 9A42     		cmp	r2, r3
 562 001a 01D0     		beq	.L44
 563 001c FFF7FEFF 		bl	__stack_chk_fail
 564              	.L44:
 565 0020 03B0     		add	sp, sp, #12
 566              		.cfi_def_cfa_offset 4
 567              		@ sp needed
 568 0022 5DF804FB 		ldr	pc, [sp], #4
 569              	.L46:
 570 0026 00BF     		.align	2
ARM GAS  C:\Users\PCHAUT~1\AppData\Local\Temp\cc4us1Pe.s 			page 11


 571              	.L45:
 572 0028 00000000 		.word	__stack_chk_guard
 573 002c 00000000 		.word	m1
 574              		.cfi_endproc
 575              	.LFE219:
 576              		.size	mtx1_setup, .-mtx1_setup
 577              		.section	.text.thread1,"ax",%progbits
 578              		.align	1
 579              		.p2align 4,,15
 580              		.syntax unified
 581              		.thumb
 582              		.thumb_func
 583              		.fpu fpv4-sp-d16
 584              		.type	thread1, %function
 585              	thread1:
 586              	.LFB220:
 587              		.loc 7 89 0
 588              		.cfi_startproc
 589              		@ args = 0, pretend = 0, frame = 16
 590              		@ frame_needed = 0, uses_anonymous_args = 0
 591 0000 00B5     		push	{lr}
 592              		.cfi_def_cfa_offset 4
 593              		.cfi_offset 14, -4
 594 0002 85B0     		sub	sp, sp, #20
 595              		.cfi_def_cfa_offset 24
 596 0004 0190     		str	r0, [sp, #4]
 597              		.loc 7 89 0
 598 0006 0C4B     		ldr	r3, .L49
 599 0008 1B68     		ldr	r3, [r3]
 600 000a 0393     		str	r3, [sp, #12]
 601              		.loc 7 91 0
 602 000c 0B48     		ldr	r0, .L49+4
 603 000e FFF7FEFF 		bl	chMtxLock
 604              		.loc 7 92 0
 605 0012 019B     		ldr	r3, [sp, #4]
 606 0014 1B78     		ldrb	r3, [r3]	@ zero_extendqisi2
 607 0016 1846     		mov	r0, r3
 608 0018 FFF7FEFF 		bl	test_emit_token
 609              		.loc 7 93 0
 610 001c 0748     		ldr	r0, .L49+4
 611 001e FFF7FEFF 		bl	chMtxUnlock
 612              		.loc 7 94 0
 613 0022 00BF     		nop
 614 0024 044B     		ldr	r3, .L49
 615 0026 039A     		ldr	r2, [sp, #12]
 616 0028 1B68     		ldr	r3, [r3]
 617 002a 9A42     		cmp	r2, r3
 618 002c 01D0     		beq	.L48
 619 002e FFF7FEFF 		bl	__stack_chk_fail
 620              	.L48:
 621 0032 05B0     		add	sp, sp, #20
 622              		.cfi_def_cfa_offset 4
 623              		@ sp needed
 624 0034 5DF804FB 		ldr	pc, [sp], #4
 625              	.L50:
 626              		.align	2
 627              	.L49:
ARM GAS  C:\Users\PCHAUT~1\AppData\Local\Temp\cc4us1Pe.s 			page 12


 628 0038 00000000 		.word	__stack_chk_guard
 629 003c 00000000 		.word	m1
 630              		.cfi_endproc
 631              	.LFE220:
 632              		.size	thread1, .-thread1
 633              		.section	.rodata
 634              		.align	2
 635              	.LC0:
 636 0000 4500     		.ascii	"E\000"
 637 0002 0000     		.align	2
 638              	.LC1:
 639 0004 4400     		.ascii	"D\000"
 640 0006 0000     		.align	2
 641              	.LC2:
 642 0008 4300     		.ascii	"C\000"
 643 000a 0000     		.align	2
 644              	.LC3:
 645 000c 4200     		.ascii	"B\000"
 646 000e 0000     		.align	2
 647              	.LC4:
 648 0010 4100     		.ascii	"A\000"
 649 0012 0000     		.align	2
 650              	.LC5:
 651 0014 41424344 		.ascii	"ABCDE\000"
 651      4500
 652              		.section	.text.mtx1_execute,"ax",%progbits
 653              		.align	1
 654              		.p2align 4,,15
 655              		.syntax unified
 656              		.thumb
 657              		.thumb_func
 658              		.fpu fpv4-sp-d16
 659              		.type	mtx1_execute, %function
 660              	mtx1_execute:
 661              	.LFB221:
 662              		.loc 7 96 0
 663              		.cfi_startproc
 664              		@ args = 0, pretend = 0, frame = 8
 665              		@ frame_needed = 0, uses_anonymous_args = 0
 666 0000 00B5     		push	{lr}
 667              		.cfi_def_cfa_offset 4
 668              		.cfi_offset 14, -4
 669 0002 85B0     		sub	sp, sp, #20
 670              		.cfi_def_cfa_offset 24
 671              		.loc 7 96 0
 672 0004 3A4B     		ldr	r3, .L56
 673 0006 1B68     		ldr	r3, [r3]
 674 0008 0393     		str	r3, [sp, #12]
 675              		.loc 7 98 0
 676 000a FFF7FEFF 		bl	chThdGetPriorityX
 677 000e 0290     		str	r0, [sp, #8]
 678              		.loc 7 99 0
 679 0010 3848     		ldr	r0, .L56+4
 680 0012 FFF7FEFF 		bl	chMtxLock
 681              		.loc 7 100 0
 682 0016 384B     		ldr	r3, .L56+8
 683 0018 1868     		ldr	r0, [r3]
ARM GAS  C:\Users\PCHAUT~1\AppData\Local\Temp\cc4us1Pe.s 			page 13


 684 001a 029B     		ldr	r3, [sp, #8]
 685 001c 5A1C     		adds	r2, r3, #1
 686 001e 374B     		ldr	r3, .L56+12
 687 0020 0093     		str	r3, [sp]
 688 0022 374B     		ldr	r3, .L56+16
 689 0024 4FF4FC71 		mov	r1, #504
 690 0028 FFF7FEFF 		bl	chThdCreateStatic
 691 002c 0246     		mov	r2, r0
 692 002e 354B     		ldr	r3, .L56+20
 693 0030 1A60     		str	r2, [r3]
 694              		.loc 7 101 0
 695 0032 314B     		ldr	r3, .L56+8
 696 0034 5868     		ldr	r0, [r3, #4]
 697 0036 029B     		ldr	r3, [sp, #8]
 698 0038 9A1C     		adds	r2, r3, #2
 699 003a 334B     		ldr	r3, .L56+24
 700 003c 0093     		str	r3, [sp]
 701 003e 304B     		ldr	r3, .L56+16
 702 0040 4FF4FC71 		mov	r1, #504
 703 0044 FFF7FEFF 		bl	chThdCreateStatic
 704 0048 0246     		mov	r2, r0
 705 004a 2E4B     		ldr	r3, .L56+20
 706 004c 5A60     		str	r2, [r3, #4]
 707              		.loc 7 102 0
 708 004e 2A4B     		ldr	r3, .L56+8
 709 0050 9868     		ldr	r0, [r3, #8]
 710 0052 029B     		ldr	r3, [sp, #8]
 711 0054 DA1C     		adds	r2, r3, #3
 712 0056 2D4B     		ldr	r3, .L56+28
 713 0058 0093     		str	r3, [sp]
 714 005a 294B     		ldr	r3, .L56+16
 715 005c 4FF4FC71 		mov	r1, #504
 716 0060 FFF7FEFF 		bl	chThdCreateStatic
 717 0064 0246     		mov	r2, r0
 718 0066 274B     		ldr	r3, .L56+20
 719 0068 9A60     		str	r2, [r3, #8]
 720              		.loc 7 103 0
 721 006a 234B     		ldr	r3, .L56+8
 722 006c D868     		ldr	r0, [r3, #12]
 723 006e 029B     		ldr	r3, [sp, #8]
 724 0070 1A1D     		adds	r2, r3, #4
 725 0072 274B     		ldr	r3, .L56+32
 726 0074 0093     		str	r3, [sp]
 727 0076 224B     		ldr	r3, .L56+16
 728 0078 4FF4FC71 		mov	r1, #504
 729 007c FFF7FEFF 		bl	chThdCreateStatic
 730 0080 0246     		mov	r2, r0
 731 0082 204B     		ldr	r3, .L56+20
 732 0084 DA60     		str	r2, [r3, #12]
 733              		.loc 7 104 0
 734 0086 1C4B     		ldr	r3, .L56+8
 735 0088 1869     		ldr	r0, [r3, #16]
 736 008a 029B     		ldr	r3, [sp, #8]
 737 008c 5A1D     		adds	r2, r3, #5
 738 008e 214B     		ldr	r3, .L56+36
 739 0090 0093     		str	r3, [sp]
 740 0092 1B4B     		ldr	r3, .L56+16
ARM GAS  C:\Users\PCHAUT~1\AppData\Local\Temp\cc4us1Pe.s 			page 14


 741 0094 4FF4FC71 		mov	r1, #504
 742 0098 FFF7FEFF 		bl	chThdCreateStatic
 743 009c 0246     		mov	r2, r0
 744 009e 194B     		ldr	r3, .L56+20
 745 00a0 1A61     		str	r2, [r3, #16]
 746              		.loc 7 105 0
 747 00a2 1448     		ldr	r0, .L56+4
 748 00a4 FFF7FEFF 		bl	chMtxUnlock
 749              		.loc 7 106 0
 750 00a8 FFF7FEFF 		bl	test_wait_threads
 751              		.loc 7 107 0
 752 00ac FFF7FEFF 		bl	chThdGetPriorityX
 753 00b0 0246     		mov	r2, r0
 754 00b2 029B     		ldr	r3, [sp, #8]
 755 00b4 9342     		cmp	r3, r2
 756 00b6 0CBF     		ite	eq
 757 00b8 0123     		moveq	r3, #1
 758 00ba 0023     		movne	r3, #0
 759 00bc DBB2     		uxtb	r3, r3
 760 00be 1946     		mov	r1, r3
 761 00c0 0120     		movs	r0, #1
 762 00c2 FFF7FEFF 		bl	_test_assert
 763 00c6 0346     		mov	r3, r0
 764 00c8 002B     		cmp	r3, #0
 765 00ca 06D1     		bne	.L55
 766              		.loc 7 108 0
 767 00cc 1249     		ldr	r1, .L56+40
 768 00ce 0220     		movs	r0, #2
 769 00d0 FFF7FEFF 		bl	_test_assert_sequence
 770 00d4 0346     		mov	r3, r0
 771 00d6 002B     		cmp	r3, #0
 772 00d8 00E0     		b	.L51
 773              	.L55:
 774              		.loc 7 107 0
 775 00da 00BF     		nop
 776              	.L51:
 777              		.loc 7 109 0
 778 00dc 044B     		ldr	r3, .L56
 779 00de 039A     		ldr	r2, [sp, #12]
 780 00e0 1B68     		ldr	r3, [r3]
 781 00e2 9A42     		cmp	r2, r3
 782 00e4 01D0     		beq	.L54
 783 00e6 FFF7FEFF 		bl	__stack_chk_fail
 784              	.L54:
 785 00ea 05B0     		add	sp, sp, #20
 786              		.cfi_def_cfa_offset 4
 787              		@ sp needed
 788 00ec 5DF804FB 		ldr	pc, [sp], #4
 789              	.L57:
 790              		.align	2
 791              	.L56:
 792 00f0 00000000 		.word	__stack_chk_guard
 793 00f4 00000000 		.word	m1
 794 00f8 00000000 		.word	wa
 795 00fc 00000000 		.word	.LC0
 796 0100 00000000 		.word	thread1
 797 0104 00000000 		.word	threads
ARM GAS  C:\Users\PCHAUT~1\AppData\Local\Temp\cc4us1Pe.s 			page 15


 798 0108 04000000 		.word	.LC1
 799 010c 08000000 		.word	.LC2
 800 0110 0C000000 		.word	.LC3
 801 0114 10000000 		.word	.LC4
 802 0118 14000000 		.word	.LC5
 803              		.cfi_endproc
 804              	.LFE221:
 805              		.size	mtx1_execute, .-mtx1_execute
 806              		.global	testmtx1
 807              		.section	.rodata
 808 001a 0000     		.align	2
 809              	.LC6:
 810 001c 4D757465 		.ascii	"Mutexes, priority enqueuing test\000"
 810      7865732C 
 810      20707269 
 810      6F726974 
 810      7920656E 
 811              		.section	.rodata.testmtx1,"a",%progbits
 812              		.align	2
 813              		.type	testmtx1, %object
 814              		.size	testmtx1, 16
 815              	testmtx1:
 816 0000 1C000000 		.word	.LC6
 817 0004 00000000 		.word	mtx1_setup
 818 0008 00000000 		.word	0
 819 000c 00000000 		.word	mtx1_execute
 820              		.section	.text.mtx2_setup,"ax",%progbits
 821              		.align	1
 822              		.p2align 4,,15
 823              		.syntax unified
 824              		.thumb
 825              		.thumb_func
 826              		.fpu fpv4-sp-d16
 827              		.type	mtx2_setup, %function
 828              	mtx2_setup:
 829              	.LFB222:
 830              		.loc 7 150 0
 831              		.cfi_startproc
 832              		@ args = 0, pretend = 0, frame = 8
 833              		@ frame_needed = 0, uses_anonymous_args = 0
 834 0000 00B5     		push	{lr}
 835              		.cfi_def_cfa_offset 4
 836              		.cfi_offset 14, -4
 837 0002 83B0     		sub	sp, sp, #12
 838              		.cfi_def_cfa_offset 16
 839              		.loc 7 150 0
 840 0004 084B     		ldr	r3, .L60
 841 0006 1B68     		ldr	r3, [r3]
 842 0008 0193     		str	r3, [sp, #4]
 843              		.loc 7 152 0
 844 000a 0848     		ldr	r0, .L60+4
 845 000c FFF7FEFF 		bl	chMtxObjectInit
 846              		.loc 7 153 0
 847 0010 00BF     		nop
 848 0012 054B     		ldr	r3, .L60
 849 0014 019A     		ldr	r2, [sp, #4]
 850 0016 1B68     		ldr	r3, [r3]
ARM GAS  C:\Users\PCHAUT~1\AppData\Local\Temp\cc4us1Pe.s 			page 16


 851 0018 9A42     		cmp	r2, r3
 852 001a 01D0     		beq	.L59
 853 001c FFF7FEFF 		bl	__stack_chk_fail
 854              	.L59:
 855 0020 03B0     		add	sp, sp, #12
 856              		.cfi_def_cfa_offset 4
 857              		@ sp needed
 858 0022 5DF804FB 		ldr	pc, [sp], #4
 859              	.L61:
 860 0026 00BF     		.align	2
 861              	.L60:
 862 0028 00000000 		.word	__stack_chk_guard
 863 002c 00000000 		.word	m1
 864              		.cfi_endproc
 865              	.LFE222:
 866              		.size	mtx2_setup, .-mtx2_setup
 867              		.section	.text.thread2L,"ax",%progbits
 868              		.align	1
 869              		.p2align 4,,15
 870              		.syntax unified
 871              		.thumb
 872              		.thumb_func
 873              		.fpu fpv4-sp-d16
 874              		.type	thread2L, %function
 875              	thread2L:
 876              	.LFB223:
 877              		.loc 7 156 0
 878              		.cfi_startproc
 879              		@ args = 0, pretend = 0, frame = 16
 880              		@ frame_needed = 0, uses_anonymous_args = 0
 881 0000 00B5     		push	{lr}
 882              		.cfi_def_cfa_offset 4
 883              		.cfi_offset 14, -4
 884 0002 85B0     		sub	sp, sp, #20
 885              		.cfi_def_cfa_offset 24
 886 0004 0190     		str	r0, [sp, #4]
 887              		.loc 7 156 0
 888 0006 0E4B     		ldr	r3, .L64
 889 0008 1B68     		ldr	r3, [r3]
 890 000a 0393     		str	r3, [sp, #12]
 891              		.loc 7 159 0
 892 000c 0D48     		ldr	r0, .L64+4
 893 000e FFF7FEFF 		bl	chMtxLock
 894              		.loc 7 160 0
 895 0012 2820     		movs	r0, #40
 896 0014 FFF7FEFF 		bl	test_cpu_pulse
 897              		.loc 7 161 0
 898 0018 0A48     		ldr	r0, .L64+4
 899 001a FFF7FEFF 		bl	chMtxUnlock
 900              		.loc 7 162 0
 901 001e 0A20     		movs	r0, #10
 902 0020 FFF7FEFF 		bl	test_cpu_pulse
 903              		.loc 7 163 0
 904 0024 4320     		movs	r0, #67
 905 0026 FFF7FEFF 		bl	test_emit_token
 906              		.loc 7 164 0
 907 002a 00BF     		nop
ARM GAS  C:\Users\PCHAUT~1\AppData\Local\Temp\cc4us1Pe.s 			page 17


 908 002c 044B     		ldr	r3, .L64
 909 002e 039A     		ldr	r2, [sp, #12]
 910 0030 1B68     		ldr	r3, [r3]
 911 0032 9A42     		cmp	r2, r3
 912 0034 01D0     		beq	.L63
 913 0036 FFF7FEFF 		bl	__stack_chk_fail
 914              	.L63:
 915 003a 05B0     		add	sp, sp, #20
 916              		.cfi_def_cfa_offset 4
 917              		@ sp needed
 918 003c 5DF804FB 		ldr	pc, [sp], #4
 919              	.L65:
 920              		.align	2
 921              	.L64:
 922 0040 00000000 		.word	__stack_chk_guard
 923 0044 00000000 		.word	m1
 924              		.cfi_endproc
 925              	.LFE223:
 926              		.size	thread2L, .-thread2L
 927              		.section	.text.thread2M,"ax",%progbits
 928              		.align	1
 929              		.p2align 4,,15
 930              		.syntax unified
 931              		.thumb
 932              		.thumb_func
 933              		.fpu fpv4-sp-d16
 934              		.type	thread2M, %function
 935              	thread2M:
 936              	.LFB224:
 937              		.loc 7 167 0
 938              		.cfi_startproc
 939              		@ args = 0, pretend = 0, frame = 16
 940              		@ frame_needed = 0, uses_anonymous_args = 0
 941 0000 00B5     		push	{lr}
 942              		.cfi_def_cfa_offset 4
 943              		.cfi_offset 14, -4
 944 0002 85B0     		sub	sp, sp, #20
 945              		.cfi_def_cfa_offset 24
 946 0004 0190     		str	r0, [sp, #4]
 947              		.loc 7 167 0
 948 0006 0B4B     		ldr	r3, .L68
 949 0008 1B68     		ldr	r3, [r3]
 950 000a 0393     		str	r3, [sp, #12]
 951              		.loc 7 170 0
 952 000c 1420     		movs	r0, #20
 953 000e FFF7FEFF 		bl	chThdSleep
 954              		.loc 7 171 0
 955 0012 2820     		movs	r0, #40
 956 0014 FFF7FEFF 		bl	test_cpu_pulse
 957              		.loc 7 172 0
 958 0018 4220     		movs	r0, #66
 959 001a FFF7FEFF 		bl	test_emit_token
 960              		.loc 7 173 0
 961 001e 00BF     		nop
 962 0020 044B     		ldr	r3, .L68
 963 0022 039A     		ldr	r2, [sp, #12]
 964 0024 1B68     		ldr	r3, [r3]
ARM GAS  C:\Users\PCHAUT~1\AppData\Local\Temp\cc4us1Pe.s 			page 18


 965 0026 9A42     		cmp	r2, r3
 966 0028 01D0     		beq	.L67
 967 002a FFF7FEFF 		bl	__stack_chk_fail
 968              	.L67:
 969 002e 05B0     		add	sp, sp, #20
 970              		.cfi_def_cfa_offset 4
 971              		@ sp needed
 972 0030 5DF804FB 		ldr	pc, [sp], #4
 973              	.L69:
 974              		.align	2
 975              	.L68:
 976 0034 00000000 		.word	__stack_chk_guard
 977              		.cfi_endproc
 978              	.LFE224:
 979              		.size	thread2M, .-thread2M
 980              		.section	.text.thread2H,"ax",%progbits
 981              		.align	1
 982              		.p2align 4,,15
 983              		.syntax unified
 984              		.thumb
 985              		.thumb_func
 986              		.fpu fpv4-sp-d16
 987              		.type	thread2H, %function
 988              	thread2H:
 989              	.LFB225:
 990              		.loc 7 176 0
 991              		.cfi_startproc
 992              		@ args = 0, pretend = 0, frame = 16
 993              		@ frame_needed = 0, uses_anonymous_args = 0
 994 0000 00B5     		push	{lr}
 995              		.cfi_def_cfa_offset 4
 996              		.cfi_offset 14, -4
 997 0002 85B0     		sub	sp, sp, #20
 998              		.cfi_def_cfa_offset 24
 999 0004 0190     		str	r0, [sp, #4]
 1000              		.loc 7 176 0
 1001 0006 0E4B     		ldr	r3, .L72
 1002 0008 1B68     		ldr	r3, [r3]
 1003 000a 0393     		str	r3, [sp, #12]
 1004              		.loc 7 179 0
 1005 000c 2820     		movs	r0, #40
 1006 000e FFF7FEFF 		bl	chThdSleep
 1007              		.loc 7 180 0
 1008 0012 0C48     		ldr	r0, .L72+4
 1009 0014 FFF7FEFF 		bl	chMtxLock
 1010              		.loc 7 181 0
 1011 0018 0A20     		movs	r0, #10
 1012 001a FFF7FEFF 		bl	test_cpu_pulse
 1013              		.loc 7 182 0
 1014 001e 0948     		ldr	r0, .L72+4
 1015 0020 FFF7FEFF 		bl	chMtxUnlock
 1016              		.loc 7 183 0
 1017 0024 4120     		movs	r0, #65
 1018 0026 FFF7FEFF 		bl	test_emit_token
 1019              		.loc 7 184 0
 1020 002a 00BF     		nop
 1021 002c 044B     		ldr	r3, .L72
ARM GAS  C:\Users\PCHAUT~1\AppData\Local\Temp\cc4us1Pe.s 			page 19


 1022 002e 039A     		ldr	r2, [sp, #12]
 1023 0030 1B68     		ldr	r3, [r3]
 1024 0032 9A42     		cmp	r2, r3
 1025 0034 01D0     		beq	.L71
 1026 0036 FFF7FEFF 		bl	__stack_chk_fail
 1027              	.L71:
 1028 003a 05B0     		add	sp, sp, #20
 1029              		.cfi_def_cfa_offset 4
 1030              		@ sp needed
 1031 003c 5DF804FB 		ldr	pc, [sp], #4
 1032              	.L73:
 1033              		.align	2
 1034              	.L72:
 1035 0040 00000000 		.word	__stack_chk_guard
 1036 0044 00000000 		.word	m1
 1037              		.cfi_endproc
 1038              	.LFE225:
 1039              		.size	thread2H, .-thread2H
 1040              		.section	.rodata
 1041 003d 000000   		.align	2
 1042              	.LC7:
 1043 0040 41424300 		.ascii	"ABC\000"
 1044              		.section	.text.mtx2_execute,"ax",%progbits
 1045              		.align	1
 1046              		.p2align 4,,15
 1047              		.syntax unified
 1048              		.thumb
 1049              		.thumb_func
 1050              		.fpu fpv4-sp-d16
 1051              		.type	mtx2_execute, %function
 1052              	mtx2_execute:
 1053              	.LFB226:
 1054              		.loc 7 186 0
 1055              		.cfi_startproc
 1056              		@ args = 0, pretend = 0, frame = 8
 1057              		@ frame_needed = 0, uses_anonymous_args = 0
 1058 0000 10B5     		push	{r4, lr}
 1059              		.cfi_def_cfa_offset 8
 1060              		.cfi_offset 4, -8
 1061              		.cfi_offset 14, -4
 1062 0002 84B0     		sub	sp, sp, #16
 1063              		.cfi_def_cfa_offset 24
 1064              		.loc 7 186 0
 1065 0004 2C4B     		ldr	r3, .L79
 1066 0006 1B68     		ldr	r3, [r3]
 1067 0008 0393     		str	r3, [sp, #12]
 1068              		.loc 7 189 0
 1069 000a FFF7FEFF 		bl	test_wait_tick
 1070              		.loc 7 190 0
 1071 000e FFF7FEFF 		bl	chVTGetSystemTime
 1072 0012 0290     		str	r0, [sp, #8]
 1073              		.loc 7 191 0
 1074 0014 294B     		ldr	r3, .L79+4
 1075 0016 1C68     		ldr	r4, [r3]
 1076 0018 FFF7FEFF 		bl	chThdGetPriorityX
 1077 001c 0346     		mov	r3, r0
 1078 001e 5A1E     		subs	r2, r3, #1
ARM GAS  C:\Users\PCHAUT~1\AppData\Local\Temp\cc4us1Pe.s 			page 20


 1079 0020 0023     		movs	r3, #0
 1080 0022 0093     		str	r3, [sp]
 1081 0024 264B     		ldr	r3, .L79+8
 1082 0026 4FF4FC71 		mov	r1, #504
 1083 002a 2046     		mov	r0, r4
 1084 002c FFF7FEFF 		bl	chThdCreateStatic
 1085 0030 0246     		mov	r2, r0
 1086 0032 244B     		ldr	r3, .L79+12
 1087 0034 1A60     		str	r2, [r3]
 1088              		.loc 7 192 0
 1089 0036 214B     		ldr	r3, .L79+4
 1090 0038 5C68     		ldr	r4, [r3, #4]
 1091 003a FFF7FEFF 		bl	chThdGetPriorityX
 1092 003e 0346     		mov	r3, r0
 1093 0040 9A1E     		subs	r2, r3, #2
 1094 0042 0023     		movs	r3, #0
 1095 0044 0093     		str	r3, [sp]
 1096 0046 204B     		ldr	r3, .L79+16
 1097 0048 4FF4FC71 		mov	r1, #504
 1098 004c 2046     		mov	r0, r4
 1099 004e FFF7FEFF 		bl	chThdCreateStatic
 1100 0052 0246     		mov	r2, r0
 1101 0054 1B4B     		ldr	r3, .L79+12
 1102 0056 5A60     		str	r2, [r3, #4]
 1103              		.loc 7 193 0
 1104 0058 184B     		ldr	r3, .L79+4
 1105 005a 9C68     		ldr	r4, [r3, #8]
 1106 005c FFF7FEFF 		bl	chThdGetPriorityX
 1107 0060 0346     		mov	r3, r0
 1108 0062 DA1E     		subs	r2, r3, #3
 1109 0064 0023     		movs	r3, #0
 1110 0066 0093     		str	r3, [sp]
 1111 0068 184B     		ldr	r3, .L79+20
 1112 006a 4FF4FC71 		mov	r1, #504
 1113 006e 2046     		mov	r0, r4
 1114 0070 FFF7FEFF 		bl	chThdCreateStatic
 1115 0074 0246     		mov	r2, r0
 1116 0076 134B     		ldr	r3, .L79+12
 1117 0078 9A60     		str	r2, [r3, #8]
 1118              		.loc 7 194 0
 1119 007a FFF7FEFF 		bl	test_wait_threads
 1120              		.loc 7 195 0
 1121 007e 1449     		ldr	r1, .L79+24
 1122 0080 0120     		movs	r0, #1
 1123 0082 FFF7FEFF 		bl	_test_assert_sequence
 1124 0086 0346     		mov	r3, r0
 1125 0088 002B     		cmp	r3, #0
 1126 008a 0BD1     		bne	.L78
 1127              		.loc 7 196 0
 1128 008c 029B     		ldr	r3, [sp, #8]
 1129 008e 03F16401 		add	r1, r3, #100
 1130 0092 029B     		ldr	r3, [sp, #8]
 1131 0094 6933     		adds	r3, r3, #105
 1132 0096 1A46     		mov	r2, r3
 1133 0098 0220     		movs	r0, #2
 1134 009a FFF7FEFF 		bl	_test_assert_time_window
 1135 009e 0346     		mov	r3, r0
ARM GAS  C:\Users\PCHAUT~1\AppData\Local\Temp\cc4us1Pe.s 			page 21


 1136 00a0 002B     		cmp	r3, #0
 1137 00a2 00E0     		b	.L74
 1138              	.L78:
 1139              		.loc 7 195 0
 1140 00a4 00BF     		nop
 1141              	.L74:
 1142              		.loc 7 197 0
 1143 00a6 044B     		ldr	r3, .L79
 1144 00a8 039A     		ldr	r2, [sp, #12]
 1145 00aa 1B68     		ldr	r3, [r3]
 1146 00ac 9A42     		cmp	r2, r3
 1147 00ae 01D0     		beq	.L77
 1148 00b0 FFF7FEFF 		bl	__stack_chk_fail
 1149              	.L77:
 1150 00b4 04B0     		add	sp, sp, #16
 1151              		.cfi_def_cfa_offset 8
 1152              		@ sp needed
 1153 00b6 10BD     		pop	{r4, pc}
 1154              	.L80:
 1155              		.align	2
 1156              	.L79:
 1157 00b8 00000000 		.word	__stack_chk_guard
 1158 00bc 00000000 		.word	wa
 1159 00c0 00000000 		.word	thread2H
 1160 00c4 00000000 		.word	threads
 1161 00c8 00000000 		.word	thread2M
 1162 00cc 00000000 		.word	thread2L
 1163 00d0 40000000 		.word	.LC7
 1164              		.cfi_endproc
 1165              	.LFE226:
 1166              		.size	mtx2_execute, .-mtx2_execute
 1167              		.global	testmtx2
 1168              		.section	.rodata
 1169              		.align	2
 1170              	.LC8:
 1171 0044 4D757465 		.ascii	"Mutexes, priority inheritance, simple case\000"
 1171      7865732C 
 1171      20707269 
 1171      6F726974 
 1171      7920696E 
 1172              		.section	.rodata.testmtx2,"a",%progbits
 1173              		.align	2
 1174              		.type	testmtx2, %object
 1175              		.size	testmtx2, 16
 1176              	testmtx2:
 1177 0000 44000000 		.word	.LC8
 1178 0004 00000000 		.word	mtx2_setup
 1179 0008 00000000 		.word	0
 1180 000c 00000000 		.word	mtx2_execute
 1181              		.section	.text.mtx3_setup,"ax",%progbits
 1182              		.align	1
 1183              		.p2align 4,,15
 1184              		.syntax unified
 1185              		.thumb
 1186              		.thumb_func
 1187              		.fpu fpv4-sp-d16
 1188              		.type	mtx3_setup, %function
ARM GAS  C:\Users\PCHAUT~1\AppData\Local\Temp\cc4us1Pe.s 			page 22


 1189              	mtx3_setup:
 1190              	.LFB227:
 1191              		.loc 7 237 0
 1192              		.cfi_startproc
 1193              		@ args = 0, pretend = 0, frame = 8
 1194              		@ frame_needed = 0, uses_anonymous_args = 0
 1195 0000 00B5     		push	{lr}
 1196              		.cfi_def_cfa_offset 4
 1197              		.cfi_offset 14, -4
 1198 0002 83B0     		sub	sp, sp, #12
 1199              		.cfi_def_cfa_offset 16
 1200              		.loc 7 237 0
 1201 0004 094B     		ldr	r3, .L83
 1202 0006 1B68     		ldr	r3, [r3]
 1203 0008 0193     		str	r3, [sp, #4]
 1204              		.loc 7 239 0
 1205 000a 0948     		ldr	r0, .L83+4
 1206 000c FFF7FEFF 		bl	chMtxObjectInit
 1207              		.loc 7 240 0
 1208 0010 0848     		ldr	r0, .L83+8
 1209 0012 FFF7FEFF 		bl	chMtxObjectInit
 1210              		.loc 7 241 0
 1211 0016 00BF     		nop
 1212 0018 044B     		ldr	r3, .L83
 1213 001a 019A     		ldr	r2, [sp, #4]
 1214 001c 1B68     		ldr	r3, [r3]
 1215 001e 9A42     		cmp	r2, r3
 1216 0020 01D0     		beq	.L82
 1217 0022 FFF7FEFF 		bl	__stack_chk_fail
 1218              	.L82:
 1219 0026 03B0     		add	sp, sp, #12
 1220              		.cfi_def_cfa_offset 4
 1221              		@ sp needed
 1222 0028 5DF804FB 		ldr	pc, [sp], #4
 1223              	.L84:
 1224              		.align	2
 1225              	.L83:
 1226 002c 00000000 		.word	__stack_chk_guard
 1227 0030 00000000 		.word	m1
 1228 0034 00000000 		.word	m2
 1229              		.cfi_endproc
 1230              	.LFE227:
 1231              		.size	mtx3_setup, .-mtx3_setup
 1232              		.section	.text.thread3LL,"ax",%progbits
 1233              		.align	1
 1234              		.p2align 4,,15
 1235              		.syntax unified
 1236              		.thumb
 1237              		.thumb_func
 1238              		.fpu fpv4-sp-d16
 1239              		.type	thread3LL, %function
 1240              	thread3LL:
 1241              	.LFB228:
 1242              		.loc 7 244 0
 1243              		.cfi_startproc
 1244              		@ args = 0, pretend = 0, frame = 16
 1245              		@ frame_needed = 0, uses_anonymous_args = 0
ARM GAS  C:\Users\PCHAUT~1\AppData\Local\Temp\cc4us1Pe.s 			page 23


 1246 0000 00B5     		push	{lr}
 1247              		.cfi_def_cfa_offset 4
 1248              		.cfi_offset 14, -4
 1249 0002 85B0     		sub	sp, sp, #20
 1250              		.cfi_def_cfa_offset 24
 1251 0004 0190     		str	r0, [sp, #4]
 1252              		.loc 7 244 0
 1253 0006 0D4B     		ldr	r3, .L87
 1254 0008 1B68     		ldr	r3, [r3]
 1255 000a 0393     		str	r3, [sp, #12]
 1256              		.loc 7 247 0
 1257 000c 0C48     		ldr	r0, .L87+4
 1258 000e FFF7FEFF 		bl	chMtxLock
 1259              		.loc 7 248 0
 1260 0012 1E20     		movs	r0, #30
 1261 0014 FFF7FEFF 		bl	test_cpu_pulse
 1262              		.loc 7 249 0
 1263 0018 0948     		ldr	r0, .L87+4
 1264 001a FFF7FEFF 		bl	chMtxUnlock
 1265              		.loc 7 250 0
 1266 001e 4520     		movs	r0, #69
 1267 0020 FFF7FEFF 		bl	test_emit_token
 1268              		.loc 7 251 0
 1269 0024 00BF     		nop
 1270 0026 054B     		ldr	r3, .L87
 1271 0028 039A     		ldr	r2, [sp, #12]
 1272 002a 1B68     		ldr	r3, [r3]
 1273 002c 9A42     		cmp	r2, r3
 1274 002e 01D0     		beq	.L86
 1275 0030 FFF7FEFF 		bl	__stack_chk_fail
 1276              	.L86:
 1277 0034 05B0     		add	sp, sp, #20
 1278              		.cfi_def_cfa_offset 4
 1279              		@ sp needed
 1280 0036 5DF804FB 		ldr	pc, [sp], #4
 1281              	.L88:
 1282 003a 00BF     		.align	2
 1283              	.L87:
 1284 003c 00000000 		.word	__stack_chk_guard
 1285 0040 00000000 		.word	m1
 1286              		.cfi_endproc
 1287              	.LFE228:
 1288              		.size	thread3LL, .-thread3LL
 1289              		.section	.text.thread3L,"ax",%progbits
 1290              		.align	1
 1291              		.p2align 4,,15
 1292              		.syntax unified
 1293              		.thumb
 1294              		.thumb_func
 1295              		.fpu fpv4-sp-d16
 1296              		.type	thread3L, %function
 1297              	thread3L:
 1298              	.LFB229:
 1299              		.loc 7 254 0
 1300              		.cfi_startproc
 1301              		@ args = 0, pretend = 0, frame = 16
 1302              		@ frame_needed = 0, uses_anonymous_args = 0
ARM GAS  C:\Users\PCHAUT~1\AppData\Local\Temp\cc4us1Pe.s 			page 24


 1303 0000 00B5     		push	{lr}
 1304              		.cfi_def_cfa_offset 4
 1305              		.cfi_offset 14, -4
 1306 0002 85B0     		sub	sp, sp, #20
 1307              		.cfi_def_cfa_offset 24
 1308 0004 0190     		str	r0, [sp, #4]
 1309              		.loc 7 254 0
 1310 0006 144B     		ldr	r3, .L91
 1311 0008 1B68     		ldr	r3, [r3]
 1312 000a 0393     		str	r3, [sp, #12]
 1313              		.loc 7 257 0
 1314 000c 0A20     		movs	r0, #10
 1315 000e FFF7FEFF 		bl	chThdSleep
 1316              		.loc 7 258 0
 1317 0012 1248     		ldr	r0, .L91+4
 1318 0014 FFF7FEFF 		bl	chMtxLock
 1319              		.loc 7 259 0
 1320 0018 1420     		movs	r0, #20
 1321 001a FFF7FEFF 		bl	test_cpu_pulse
 1322              		.loc 7 260 0
 1323 001e 1048     		ldr	r0, .L91+8
 1324 0020 FFF7FEFF 		bl	chMtxLock
 1325              		.loc 7 261 0
 1326 0024 0A20     		movs	r0, #10
 1327 0026 FFF7FEFF 		bl	test_cpu_pulse
 1328              		.loc 7 262 0
 1329 002a 0D48     		ldr	r0, .L91+8
 1330 002c FFF7FEFF 		bl	chMtxUnlock
 1331              		.loc 7 263 0
 1332 0030 0A20     		movs	r0, #10
 1333 0032 FFF7FEFF 		bl	test_cpu_pulse
 1334              		.loc 7 264 0
 1335 0036 0948     		ldr	r0, .L91+4
 1336 0038 FFF7FEFF 		bl	chMtxUnlock
 1337              		.loc 7 265 0
 1338 003c 4420     		movs	r0, #68
 1339 003e FFF7FEFF 		bl	test_emit_token
 1340              		.loc 7 266 0
 1341 0042 00BF     		nop
 1342 0044 044B     		ldr	r3, .L91
 1343 0046 039A     		ldr	r2, [sp, #12]
 1344 0048 1B68     		ldr	r3, [r3]
 1345 004a 9A42     		cmp	r2, r3
 1346 004c 01D0     		beq	.L90
 1347 004e FFF7FEFF 		bl	__stack_chk_fail
 1348              	.L90:
 1349 0052 05B0     		add	sp, sp, #20
 1350              		.cfi_def_cfa_offset 4
 1351              		@ sp needed
 1352 0054 5DF804FB 		ldr	pc, [sp], #4
 1353              	.L92:
 1354              		.align	2
 1355              	.L91:
 1356 0058 00000000 		.word	__stack_chk_guard
 1357 005c 00000000 		.word	m2
 1358 0060 00000000 		.word	m1
 1359              		.cfi_endproc
ARM GAS  C:\Users\PCHAUT~1\AppData\Local\Temp\cc4us1Pe.s 			page 25


 1360              	.LFE229:
 1361              		.size	thread3L, .-thread3L
 1362              		.section	.text.thread3M,"ax",%progbits
 1363              		.align	1
 1364              		.p2align 4,,15
 1365              		.syntax unified
 1366              		.thumb
 1367              		.thumb_func
 1368              		.fpu fpv4-sp-d16
 1369              		.type	thread3M, %function
 1370              	thread3M:
 1371              	.LFB230:
 1372              		.loc 7 269 0
 1373              		.cfi_startproc
 1374              		@ args = 0, pretend = 0, frame = 16
 1375              		@ frame_needed = 0, uses_anonymous_args = 0
 1376 0000 00B5     		push	{lr}
 1377              		.cfi_def_cfa_offset 4
 1378              		.cfi_offset 14, -4
 1379 0002 85B0     		sub	sp, sp, #20
 1380              		.cfi_def_cfa_offset 24
 1381 0004 0190     		str	r0, [sp, #4]
 1382              		.loc 7 269 0
 1383 0006 0E4B     		ldr	r3, .L95
 1384 0008 1B68     		ldr	r3, [r3]
 1385 000a 0393     		str	r3, [sp, #12]
 1386              		.loc 7 272 0
 1387 000c 1420     		movs	r0, #20
 1388 000e FFF7FEFF 		bl	chThdSleep
 1389              		.loc 7 273 0
 1390 0012 0C48     		ldr	r0, .L95+4
 1391 0014 FFF7FEFF 		bl	chMtxLock
 1392              		.loc 7 274 0
 1393 0018 0A20     		movs	r0, #10
 1394 001a FFF7FEFF 		bl	test_cpu_pulse
 1395              		.loc 7 275 0
 1396 001e 0948     		ldr	r0, .L95+4
 1397 0020 FFF7FEFF 		bl	chMtxUnlock
 1398              		.loc 7 276 0
 1399 0024 4320     		movs	r0, #67
 1400 0026 FFF7FEFF 		bl	test_emit_token
 1401              		.loc 7 277 0
 1402 002a 00BF     		nop
 1403 002c 044B     		ldr	r3, .L95
 1404 002e 039A     		ldr	r2, [sp, #12]
 1405 0030 1B68     		ldr	r3, [r3]
 1406 0032 9A42     		cmp	r2, r3
 1407 0034 01D0     		beq	.L94
 1408 0036 FFF7FEFF 		bl	__stack_chk_fail
 1409              	.L94:
 1410 003a 05B0     		add	sp, sp, #20
 1411              		.cfi_def_cfa_offset 4
 1412              		@ sp needed
 1413 003c 5DF804FB 		ldr	pc, [sp], #4
 1414              	.L96:
 1415              		.align	2
 1416              	.L95:
ARM GAS  C:\Users\PCHAUT~1\AppData\Local\Temp\cc4us1Pe.s 			page 26


 1417 0040 00000000 		.word	__stack_chk_guard
 1418 0044 00000000 		.word	m2
 1419              		.cfi_endproc
 1420              	.LFE230:
 1421              		.size	thread3M, .-thread3M
 1422              		.section	.text.thread3H,"ax",%progbits
 1423              		.align	1
 1424              		.p2align 4,,15
 1425              		.syntax unified
 1426              		.thumb
 1427              		.thumb_func
 1428              		.fpu fpv4-sp-d16
 1429              		.type	thread3H, %function
 1430              	thread3H:
 1431              	.LFB231:
 1432              		.loc 7 280 0
 1433              		.cfi_startproc
 1434              		@ args = 0, pretend = 0, frame = 16
 1435              		@ frame_needed = 0, uses_anonymous_args = 0
 1436 0000 00B5     		push	{lr}
 1437              		.cfi_def_cfa_offset 4
 1438              		.cfi_offset 14, -4
 1439 0002 85B0     		sub	sp, sp, #20
 1440              		.cfi_def_cfa_offset 24
 1441 0004 0190     		str	r0, [sp, #4]
 1442              		.loc 7 280 0
 1443 0006 0B4B     		ldr	r3, .L99
 1444 0008 1B68     		ldr	r3, [r3]
 1445 000a 0393     		str	r3, [sp, #12]
 1446              		.loc 7 283 0
 1447 000c 2820     		movs	r0, #40
 1448 000e FFF7FEFF 		bl	chThdSleep
 1449              		.loc 7 284 0
 1450 0012 1420     		movs	r0, #20
 1451 0014 FFF7FEFF 		bl	test_cpu_pulse
 1452              		.loc 7 285 0
 1453 0018 4220     		movs	r0, #66
 1454 001a FFF7FEFF 		bl	test_emit_token
 1455              		.loc 7 286 0
 1456 001e 00BF     		nop
 1457 0020 044B     		ldr	r3, .L99
 1458 0022 039A     		ldr	r2, [sp, #12]
 1459 0024 1B68     		ldr	r3, [r3]
 1460 0026 9A42     		cmp	r2, r3
 1461 0028 01D0     		beq	.L98
 1462 002a FFF7FEFF 		bl	__stack_chk_fail
 1463              	.L98:
 1464 002e 05B0     		add	sp, sp, #20
 1465              		.cfi_def_cfa_offset 4
 1466              		@ sp needed
 1467 0030 5DF804FB 		ldr	pc, [sp], #4
 1468              	.L100:
 1469              		.align	2
 1470              	.L99:
 1471 0034 00000000 		.word	__stack_chk_guard
 1472              		.cfi_endproc
 1473              	.LFE231:
ARM GAS  C:\Users\PCHAUT~1\AppData\Local\Temp\cc4us1Pe.s 			page 27


 1474              		.size	thread3H, .-thread3H
 1475              		.section	.text.thread3HH,"ax",%progbits
 1476              		.align	1
 1477              		.p2align 4,,15
 1478              		.syntax unified
 1479              		.thumb
 1480              		.thumb_func
 1481              		.fpu fpv4-sp-d16
 1482              		.type	thread3HH, %function
 1483              	thread3HH:
 1484              	.LFB232:
 1485              		.loc 7 289 0
 1486              		.cfi_startproc
 1487              		@ args = 0, pretend = 0, frame = 16
 1488              		@ frame_needed = 0, uses_anonymous_args = 0
 1489 0000 00B5     		push	{lr}
 1490              		.cfi_def_cfa_offset 4
 1491              		.cfi_offset 14, -4
 1492 0002 85B0     		sub	sp, sp, #20
 1493              		.cfi_def_cfa_offset 24
 1494 0004 0190     		str	r0, [sp, #4]
 1495              		.loc 7 289 0
 1496 0006 0E4B     		ldr	r3, .L103
 1497 0008 1B68     		ldr	r3, [r3]
 1498 000a 0393     		str	r3, [sp, #12]
 1499              		.loc 7 292 0
 1500 000c 3220     		movs	r0, #50
 1501 000e FFF7FEFF 		bl	chThdSleep
 1502              		.loc 7 293 0
 1503 0012 0C48     		ldr	r0, .L103+4
 1504 0014 FFF7FEFF 		bl	chMtxLock
 1505              		.loc 7 294 0
 1506 0018 0A20     		movs	r0, #10
 1507 001a FFF7FEFF 		bl	test_cpu_pulse
 1508              		.loc 7 295 0
 1509 001e 0948     		ldr	r0, .L103+4
 1510 0020 FFF7FEFF 		bl	chMtxUnlock
 1511              		.loc 7 296 0
 1512 0024 4120     		movs	r0, #65
 1513 0026 FFF7FEFF 		bl	test_emit_token
 1514              		.loc 7 297 0
 1515 002a 00BF     		nop
 1516 002c 044B     		ldr	r3, .L103
 1517 002e 039A     		ldr	r2, [sp, #12]
 1518 0030 1B68     		ldr	r3, [r3]
 1519 0032 9A42     		cmp	r2, r3
 1520 0034 01D0     		beq	.L102
 1521 0036 FFF7FEFF 		bl	__stack_chk_fail
 1522              	.L102:
 1523 003a 05B0     		add	sp, sp, #20
 1524              		.cfi_def_cfa_offset 4
 1525              		@ sp needed
 1526 003c 5DF804FB 		ldr	pc, [sp], #4
 1527              	.L104:
 1528              		.align	2
 1529              	.L103:
 1530 0040 00000000 		.word	__stack_chk_guard
ARM GAS  C:\Users\PCHAUT~1\AppData\Local\Temp\cc4us1Pe.s 			page 28


 1531 0044 00000000 		.word	m2
 1532              		.cfi_endproc
 1533              	.LFE232:
 1534              		.size	thread3HH, .-thread3HH
 1535              		.section	.text.mtx3_execute,"ax",%progbits
 1536              		.align	1
 1537              		.p2align 4,,15
 1538              		.syntax unified
 1539              		.thumb
 1540              		.thumb_func
 1541              		.fpu fpv4-sp-d16
 1542              		.type	mtx3_execute, %function
 1543              	mtx3_execute:
 1544              	.LFB233:
 1545              		.loc 7 299 0
 1546              		.cfi_startproc
 1547              		@ args = 0, pretend = 0, frame = 8
 1548              		@ frame_needed = 0, uses_anonymous_args = 0
 1549 0000 10B5     		push	{r4, lr}
 1550              		.cfi_def_cfa_offset 8
 1551              		.cfi_offset 4, -8
 1552              		.cfi_offset 14, -4
 1553 0002 84B0     		sub	sp, sp, #16
 1554              		.cfi_def_cfa_offset 24
 1555              		.loc 7 299 0
 1556 0004 3D4B     		ldr	r3, .L110
 1557 0006 1B68     		ldr	r3, [r3]
 1558 0008 0393     		str	r3, [sp, #12]
 1559              		.loc 7 302 0
 1560 000a FFF7FEFF 		bl	test_wait_tick
 1561              		.loc 7 303 0
 1562 000e FFF7FEFF 		bl	chVTGetSystemTime
 1563 0012 0290     		str	r0, [sp, #8]
 1564              		.loc 7 304 0
 1565 0014 3A4B     		ldr	r3, .L110+4
 1566 0016 1C68     		ldr	r4, [r3]
 1567 0018 FFF7FEFF 		bl	chThdGetPriorityX
 1568 001c 0346     		mov	r3, r0
 1569 001e 5A1F     		subs	r2, r3, #5
 1570 0020 0023     		movs	r3, #0
 1571 0022 0093     		str	r3, [sp]
 1572 0024 374B     		ldr	r3, .L110+8
 1573 0026 4FF4FC71 		mov	r1, #504
 1574 002a 2046     		mov	r0, r4
 1575 002c FFF7FEFF 		bl	chThdCreateStatic
 1576 0030 0246     		mov	r2, r0
 1577 0032 354B     		ldr	r3, .L110+12
 1578 0034 1A60     		str	r2, [r3]
 1579              		.loc 7 305 0
 1580 0036 324B     		ldr	r3, .L110+4
 1581 0038 5C68     		ldr	r4, [r3, #4]
 1582 003a FFF7FEFF 		bl	chThdGetPriorityX
 1583 003e 0346     		mov	r3, r0
 1584 0040 1A1F     		subs	r2, r3, #4
 1585 0042 0023     		movs	r3, #0
 1586 0044 0093     		str	r3, [sp]
 1587 0046 314B     		ldr	r3, .L110+16
ARM GAS  C:\Users\PCHAUT~1\AppData\Local\Temp\cc4us1Pe.s 			page 29


 1588 0048 4FF4FC71 		mov	r1, #504
 1589 004c 2046     		mov	r0, r4
 1590 004e FFF7FEFF 		bl	chThdCreateStatic
 1591 0052 0246     		mov	r2, r0
 1592 0054 2C4B     		ldr	r3, .L110+12
 1593 0056 5A60     		str	r2, [r3, #4]
 1594              		.loc 7 306 0
 1595 0058 294B     		ldr	r3, .L110+4
 1596 005a 9C68     		ldr	r4, [r3, #8]
 1597 005c FFF7FEFF 		bl	chThdGetPriorityX
 1598 0060 0346     		mov	r3, r0
 1599 0062 DA1E     		subs	r2, r3, #3
 1600 0064 0023     		movs	r3, #0
 1601 0066 0093     		str	r3, [sp]
 1602 0068 294B     		ldr	r3, .L110+20
 1603 006a 4FF4FC71 		mov	r1, #504
 1604 006e 2046     		mov	r0, r4
 1605 0070 FFF7FEFF 		bl	chThdCreateStatic
 1606 0074 0246     		mov	r2, r0
 1607 0076 244B     		ldr	r3, .L110+12
 1608 0078 9A60     		str	r2, [r3, #8]
 1609              		.loc 7 307 0
 1610 007a 214B     		ldr	r3, .L110+4
 1611 007c DC68     		ldr	r4, [r3, #12]
 1612 007e FFF7FEFF 		bl	chThdGetPriorityX
 1613 0082 0346     		mov	r3, r0
 1614 0084 9A1E     		subs	r2, r3, #2
 1615 0086 0023     		movs	r3, #0
 1616 0088 0093     		str	r3, [sp]
 1617 008a 224B     		ldr	r3, .L110+24
 1618 008c 4FF4FC71 		mov	r1, #504
 1619 0090 2046     		mov	r0, r4
 1620 0092 FFF7FEFF 		bl	chThdCreateStatic
 1621 0096 0246     		mov	r2, r0
 1622 0098 1B4B     		ldr	r3, .L110+12
 1623 009a DA60     		str	r2, [r3, #12]
 1624              		.loc 7 308 0
 1625 009c 184B     		ldr	r3, .L110+4
 1626 009e 1C69     		ldr	r4, [r3, #16]
 1627 00a0 FFF7FEFF 		bl	chThdGetPriorityX
 1628 00a4 0346     		mov	r3, r0
 1629 00a6 5A1E     		subs	r2, r3, #1
 1630 00a8 0023     		movs	r3, #0
 1631 00aa 0093     		str	r3, [sp]
 1632 00ac 1A4B     		ldr	r3, .L110+28
 1633 00ae 4FF4FC71 		mov	r1, #504
 1634 00b2 2046     		mov	r0, r4
 1635 00b4 FFF7FEFF 		bl	chThdCreateStatic
 1636 00b8 0246     		mov	r2, r0
 1637 00ba 134B     		ldr	r3, .L110+12
 1638 00bc 1A61     		str	r2, [r3, #16]
 1639              		.loc 7 309 0
 1640 00be FFF7FEFF 		bl	test_wait_threads
 1641              		.loc 7 310 0
 1642 00c2 1649     		ldr	r1, .L110+32
 1643 00c4 0120     		movs	r0, #1
 1644 00c6 FFF7FEFF 		bl	_test_assert_sequence
ARM GAS  C:\Users\PCHAUT~1\AppData\Local\Temp\cc4us1Pe.s 			page 30


 1645 00ca 0346     		mov	r3, r0
 1646 00cc 002B     		cmp	r3, #0
 1647 00ce 0BD1     		bne	.L109
 1648              		.loc 7 311 0
 1649 00d0 029B     		ldr	r3, [sp, #8]
 1650 00d2 03F16E01 		add	r1, r3, #110
 1651 00d6 029B     		ldr	r3, [sp, #8]
 1652 00d8 7333     		adds	r3, r3, #115
 1653 00da 1A46     		mov	r2, r3
 1654 00dc 0220     		movs	r0, #2
 1655 00de FFF7FEFF 		bl	_test_assert_time_window
 1656 00e2 0346     		mov	r3, r0
 1657 00e4 002B     		cmp	r3, #0
 1658 00e6 00E0     		b	.L105
 1659              	.L109:
 1660              		.loc 7 310 0
 1661 00e8 00BF     		nop
 1662              	.L105:
 1663              		.loc 7 312 0
 1664 00ea 044B     		ldr	r3, .L110
 1665 00ec 039A     		ldr	r2, [sp, #12]
 1666 00ee 1B68     		ldr	r3, [r3]
 1667 00f0 9A42     		cmp	r2, r3
 1668 00f2 01D0     		beq	.L108
 1669 00f4 FFF7FEFF 		bl	__stack_chk_fail
 1670              	.L108:
 1671 00f8 04B0     		add	sp, sp, #16
 1672              		.cfi_def_cfa_offset 8
 1673              		@ sp needed
 1674 00fa 10BD     		pop	{r4, pc}
 1675              	.L111:
 1676              		.align	2
 1677              	.L110:
 1678 00fc 00000000 		.word	__stack_chk_guard
 1679 0100 00000000 		.word	wa
 1680 0104 00000000 		.word	thread3LL
 1681 0108 00000000 		.word	threads
 1682 010c 00000000 		.word	thread3L
 1683 0110 00000000 		.word	thread3M
 1684 0114 00000000 		.word	thread3H
 1685 0118 00000000 		.word	thread3HH
 1686 011c 14000000 		.word	.LC5
 1687              		.cfi_endproc
 1688              	.LFE233:
 1689              		.size	mtx3_execute, .-mtx3_execute
 1690              		.global	testmtx3
 1691              		.section	.rodata
 1692 006f 00       		.align	2
 1693              	.LC9:
 1694 0070 4D757465 		.ascii	"Mutexes, priority inheritance, complex case\000"
 1694      7865732C 
 1694      20707269 
 1694      6F726974 
 1694      7920696E 
 1695              		.section	.rodata.testmtx3,"a",%progbits
 1696              		.align	2
 1697              		.type	testmtx3, %object
ARM GAS  C:\Users\PCHAUT~1\AppData\Local\Temp\cc4us1Pe.s 			page 31


 1698              		.size	testmtx3, 16
 1699              	testmtx3:
 1700 0000 70000000 		.word	.LC9
 1701 0004 00000000 		.word	mtx3_setup
 1702 0008 00000000 		.word	0
 1703 000c 00000000 		.word	mtx3_execute
 1704              		.section	.text.mtx4_setup,"ax",%progbits
 1705              		.align	1
 1706              		.p2align 4,,15
 1707              		.syntax unified
 1708              		.thumb
 1709              		.thumb_func
 1710              		.fpu fpv4-sp-d16
 1711              		.type	mtx4_setup, %function
 1712              	mtx4_setup:
 1713              	.LFB234:
 1714              		.loc 7 332 0
 1715              		.cfi_startproc
 1716              		@ args = 0, pretend = 0, frame = 8
 1717              		@ frame_needed = 0, uses_anonymous_args = 0
 1718 0000 00B5     		push	{lr}
 1719              		.cfi_def_cfa_offset 4
 1720              		.cfi_offset 14, -4
 1721 0002 83B0     		sub	sp, sp, #12
 1722              		.cfi_def_cfa_offset 16
 1723              		.loc 7 332 0
 1724 0004 094B     		ldr	r3, .L114
 1725 0006 1B68     		ldr	r3, [r3]
 1726 0008 0193     		str	r3, [sp, #4]
 1727              		.loc 7 334 0
 1728 000a 0948     		ldr	r0, .L114+4
 1729 000c FFF7FEFF 		bl	chMtxObjectInit
 1730              		.loc 7 335 0
 1731 0010 0848     		ldr	r0, .L114+8
 1732 0012 FFF7FEFF 		bl	chMtxObjectInit
 1733              		.loc 7 336 0
 1734 0016 00BF     		nop
 1735 0018 044B     		ldr	r3, .L114
 1736 001a 019A     		ldr	r2, [sp, #4]
 1737 001c 1B68     		ldr	r3, [r3]
 1738 001e 9A42     		cmp	r2, r3
 1739 0020 01D0     		beq	.L113
 1740 0022 FFF7FEFF 		bl	__stack_chk_fail
 1741              	.L113:
 1742 0026 03B0     		add	sp, sp, #12
 1743              		.cfi_def_cfa_offset 4
 1744              		@ sp needed
 1745 0028 5DF804FB 		ldr	pc, [sp], #4
 1746              	.L115:
 1747              		.align	2
 1748              	.L114:
 1749 002c 00000000 		.word	__stack_chk_guard
 1750 0030 00000000 		.word	m1
 1751 0034 00000000 		.word	m2
 1752              		.cfi_endproc
 1753              	.LFE234:
 1754              		.size	mtx4_setup, .-mtx4_setup
ARM GAS  C:\Users\PCHAUT~1\AppData\Local\Temp\cc4us1Pe.s 			page 32


 1755              		.section	.text.thread4a,"ax",%progbits
 1756              		.align	1
 1757              		.p2align 4,,15
 1758              		.syntax unified
 1759              		.thumb
 1760              		.thumb_func
 1761              		.fpu fpv4-sp-d16
 1762              		.type	thread4a, %function
 1763              	thread4a:
 1764              	.LFB235:
 1765              		.loc 7 338 0
 1766              		.cfi_startproc
 1767              		@ args = 0, pretend = 0, frame = 16
 1768              		@ frame_needed = 0, uses_anonymous_args = 0
 1769 0000 00B5     		push	{lr}
 1770              		.cfi_def_cfa_offset 4
 1771              		.cfi_offset 14, -4
 1772 0002 85B0     		sub	sp, sp, #20
 1773              		.cfi_def_cfa_offset 24
 1774 0004 0190     		str	r0, [sp, #4]
 1775              		.loc 7 338 0
 1776 0006 0B4B     		ldr	r3, .L118
 1777 0008 1B68     		ldr	r3, [r3]
 1778 000a 0393     		str	r3, [sp, #12]
 1779              		.loc 7 341 0
 1780 000c 3220     		movs	r0, #50
 1781 000e FFF7FEFF 		bl	chThdSleep
 1782              		.loc 7 342 0
 1783 0012 0948     		ldr	r0, .L118+4
 1784 0014 FFF7FEFF 		bl	chMtxLock
 1785              		.loc 7 343 0
 1786 0018 0748     		ldr	r0, .L118+4
 1787 001a FFF7FEFF 		bl	chMtxUnlock
 1788              		.loc 7 344 0
 1789 001e 00BF     		nop
 1790 0020 044B     		ldr	r3, .L118
 1791 0022 039A     		ldr	r2, [sp, #12]
 1792 0024 1B68     		ldr	r3, [r3]
 1793 0026 9A42     		cmp	r2, r3
 1794 0028 01D0     		beq	.L117
 1795 002a FFF7FEFF 		bl	__stack_chk_fail
 1796              	.L117:
 1797 002e 05B0     		add	sp, sp, #20
 1798              		.cfi_def_cfa_offset 4
 1799              		@ sp needed
 1800 0030 5DF804FB 		ldr	pc, [sp], #4
 1801              	.L119:
 1802              		.align	2
 1803              	.L118:
 1804 0034 00000000 		.word	__stack_chk_guard
 1805 0038 00000000 		.word	m2
 1806              		.cfi_endproc
 1807              	.LFE235:
 1808              		.size	thread4a, .-thread4a
 1809              		.section	.text.thread4b,"ax",%progbits
 1810              		.align	1
 1811              		.p2align 4,,15
ARM GAS  C:\Users\PCHAUT~1\AppData\Local\Temp\cc4us1Pe.s 			page 33


 1812              		.syntax unified
 1813              		.thumb
 1814              		.thumb_func
 1815              		.fpu fpv4-sp-d16
 1816              		.type	thread4b, %function
 1817              	thread4b:
 1818              	.LFB236:
 1819              		.loc 7 346 0
 1820              		.cfi_startproc
 1821              		@ args = 0, pretend = 0, frame = 16
 1822              		@ frame_needed = 0, uses_anonymous_args = 0
 1823 0000 00B5     		push	{lr}
 1824              		.cfi_def_cfa_offset 4
 1825              		.cfi_offset 14, -4
 1826 0002 85B0     		sub	sp, sp, #20
 1827              		.cfi_def_cfa_offset 24
 1828 0004 0190     		str	r0, [sp, #4]
 1829              		.loc 7 346 0
 1830 0006 0B4B     		ldr	r3, .L122
 1831 0008 1B68     		ldr	r3, [r3]
 1832 000a 0393     		str	r3, [sp, #12]
 1833              		.loc 7 349 0
 1834 000c 9620     		movs	r0, #150
 1835 000e FFF7FEFF 		bl	chThdSleep
 1836              		.loc 7 350 0
 1837 0012 0948     		ldr	r0, .L122+4
 1838 0014 FFF7FEFF 		bl	chMtxLock
 1839              		.loc 7 351 0
 1840 0018 0748     		ldr	r0, .L122+4
 1841 001a FFF7FEFF 		bl	chMtxUnlock
 1842              		.loc 7 352 0
 1843 001e 00BF     		nop
 1844 0020 044B     		ldr	r3, .L122
 1845 0022 039A     		ldr	r2, [sp, #12]
 1846 0024 1B68     		ldr	r3, [r3]
 1847 0026 9A42     		cmp	r2, r3
 1848 0028 01D0     		beq	.L121
 1849 002a FFF7FEFF 		bl	__stack_chk_fail
 1850              	.L121:
 1851 002e 05B0     		add	sp, sp, #20
 1852              		.cfi_def_cfa_offset 4
 1853              		@ sp needed
 1854 0030 5DF804FB 		ldr	pc, [sp], #4
 1855              	.L123:
 1856              		.align	2
 1857              	.L122:
 1858 0034 00000000 		.word	__stack_chk_guard
 1859 0038 00000000 		.word	m1
 1860              		.cfi_endproc
 1861              	.LFE236:
 1862              		.size	thread4b, .-thread4b
 1863              		.section	.text.mtx4_execute,"ax",%progbits
 1864              		.align	1
 1865              		.p2align 4,,15
 1866              		.syntax unified
 1867              		.thumb
 1868              		.thumb_func
ARM GAS  C:\Users\PCHAUT~1\AppData\Local\Temp\cc4us1Pe.s 			page 34


 1869              		.fpu fpv4-sp-d16
 1870              		.type	mtx4_execute, %function
 1871              	mtx4_execute:
 1872              	.LFB237:
 1873              		.loc 7 354 0
 1874              		.cfi_startproc
 1875              		@ args = 0, pretend = 0, frame = 16
 1876              		@ frame_needed = 0, uses_anonymous_args = 0
 1877 0000 00B5     		push	{lr}
 1878              		.cfi_def_cfa_offset 4
 1879              		.cfi_offset 14, -4
 1880 0002 87B0     		sub	sp, sp, #28
 1881              		.cfi_def_cfa_offset 32
 1882              		.loc 7 354 0
 1883 0004 B94B     		ldr	r3, .L155
 1884 0006 1B68     		ldr	r3, [r3]
 1885 0008 0593     		str	r3, [sp, #20]
 1886              		.loc 7 357 0
 1887 000a FFF7FEFF 		bl	chThdGetPriorityX
 1888 000e 0290     		str	r0, [sp, #8]
 1889              		.loc 7 358 0
 1890 0010 029B     		ldr	r3, [sp, #8]
 1891 0012 0133     		adds	r3, r3, #1
 1892 0014 0393     		str	r3, [sp, #12]
 1893              		.loc 7 359 0
 1894 0016 029B     		ldr	r3, [sp, #8]
 1895 0018 0233     		adds	r3, r3, #2
 1896 001a 0493     		str	r3, [sp, #16]
 1897              		.loc 7 360 0
 1898 001c B44B     		ldr	r3, .L155+4
 1899 001e 1868     		ldr	r0, [r3]
 1900 0020 B44B     		ldr	r3, .L155+8
 1901 0022 0093     		str	r3, [sp]
 1902 0024 B44B     		ldr	r3, .L155+12
 1903 0026 039A     		ldr	r2, [sp, #12]
 1904 0028 4FF4FC71 		mov	r1, #504
 1905 002c FFF7FEFF 		bl	chThdCreateStatic
 1906 0030 0246     		mov	r2, r0
 1907 0032 B24B     		ldr	r3, .L155+16
 1908 0034 1A60     		str	r2, [r3]
 1909              		.loc 7 361 0
 1910 0036 AE4B     		ldr	r3, .L155+4
 1911 0038 5868     		ldr	r0, [r3, #4]
 1912 003a B14B     		ldr	r3, .L155+20
 1913 003c 0093     		str	r3, [sp]
 1914 003e B14B     		ldr	r3, .L155+24
 1915 0040 049A     		ldr	r2, [sp, #16]
 1916 0042 4FF4FC71 		mov	r1, #504
 1917 0046 FFF7FEFF 		bl	chThdCreateStatic
 1918 004a 0246     		mov	r2, r0
 1919 004c AB4B     		ldr	r3, .L155+16
 1920 004e 5A60     		str	r2, [r3, #4]
 1921              		.loc 7 362 0
 1922 0050 AD48     		ldr	r0, .L155+28
 1923 0052 FFF7FEFF 		bl	chMtxLock
 1924              		.loc 7 363 0
 1925 0056 FFF7FEFF 		bl	chThdGetPriorityX
ARM GAS  C:\Users\PCHAUT~1\AppData\Local\Temp\cc4us1Pe.s 			page 35


 1926 005a 0246     		mov	r2, r0
 1927 005c 029B     		ldr	r3, [sp, #8]
 1928 005e 9342     		cmp	r3, r2
 1929 0060 0CBF     		ite	eq
 1930 0062 0123     		moveq	r3, #1
 1931 0064 0023     		movne	r3, #0
 1932 0066 DBB2     		uxtb	r3, r3
 1933 0068 1946     		mov	r1, r3
 1934 006a 0120     		movs	r0, #1
 1935 006c FFF7FEFF 		bl	_test_assert
 1936 0070 0346     		mov	r3, r0
 1937 0072 002B     		cmp	r3, #0
 1938 0074 40F02181 		bne	.L141
 1939              		.loc 7 364 0
 1940 0078 6420     		movs	r0, #100
 1941 007a FFF7FEFF 		bl	chThdSleep
 1942              		.loc 7 365 0
 1943 007e FFF7FEFF 		bl	chThdGetPriorityX
 1944 0082 0246     		mov	r2, r0
 1945 0084 039B     		ldr	r3, [sp, #12]
 1946 0086 9342     		cmp	r3, r2
 1947 0088 0CBF     		ite	eq
 1948 008a 0123     		moveq	r3, #1
 1949 008c 0023     		movne	r3, #0
 1950 008e DBB2     		uxtb	r3, r3
 1951 0090 1946     		mov	r1, r3
 1952 0092 0220     		movs	r0, #2
 1953 0094 FFF7FEFF 		bl	_test_assert
 1954 0098 0346     		mov	r3, r0
 1955 009a 002B     		cmp	r3, #0
 1956 009c 40F00F81 		bne	.L142
 1957              		.loc 7 366 0
 1958 00a0 9A48     		ldr	r0, .L155+32
 1959 00a2 FFF7FEFF 		bl	chMtxLock
 1960              		.loc 7 367 0
 1961 00a6 FFF7FEFF 		bl	chThdGetPriorityX
 1962 00aa 0246     		mov	r2, r0
 1963 00ac 039B     		ldr	r3, [sp, #12]
 1964 00ae 9342     		cmp	r3, r2
 1965 00b0 0CBF     		ite	eq
 1966 00b2 0123     		moveq	r3, #1
 1967 00b4 0023     		movne	r3, #0
 1968 00b6 DBB2     		uxtb	r3, r3
 1969 00b8 1946     		mov	r1, r3
 1970 00ba 0320     		movs	r0, #3
 1971 00bc FFF7FEFF 		bl	_test_assert
 1972 00c0 0346     		mov	r3, r0
 1973 00c2 002B     		cmp	r3, #0
 1974 00c4 40F0FD80 		bne	.L143
 1975              		.loc 7 368 0
 1976 00c8 6420     		movs	r0, #100
 1977 00ca FFF7FEFF 		bl	chThdSleep
 1978              		.loc 7 369 0
 1979 00ce FFF7FEFF 		bl	chThdGetPriorityX
 1980 00d2 0246     		mov	r2, r0
 1981 00d4 049B     		ldr	r3, [sp, #16]
 1982 00d6 9342     		cmp	r3, r2
ARM GAS  C:\Users\PCHAUT~1\AppData\Local\Temp\cc4us1Pe.s 			page 36


 1983 00d8 0CBF     		ite	eq
 1984 00da 0123     		moveq	r3, #1
 1985 00dc 0023     		movne	r3, #0
 1986 00de DBB2     		uxtb	r3, r3
 1987 00e0 1946     		mov	r1, r3
 1988 00e2 0420     		movs	r0, #4
 1989 00e4 FFF7FEFF 		bl	_test_assert
 1990 00e8 0346     		mov	r3, r0
 1991 00ea 002B     		cmp	r3, #0
 1992 00ec 40F0EB80 		bne	.L144
 1993              		.loc 7 370 0
 1994 00f0 8648     		ldr	r0, .L155+32
 1995 00f2 FFF7FEFF 		bl	chMtxUnlock
 1996              		.loc 7 371 0
 1997 00f6 FFF7FEFF 		bl	chThdGetPriorityX
 1998 00fa 0246     		mov	r2, r0
 1999 00fc 039B     		ldr	r3, [sp, #12]
 2000 00fe 9342     		cmp	r3, r2
 2001 0100 0CBF     		ite	eq
 2002 0102 0123     		moveq	r3, #1
 2003 0104 0023     		movne	r3, #0
 2004 0106 DBB2     		uxtb	r3, r3
 2005 0108 1946     		mov	r1, r3
 2006 010a 0520     		movs	r0, #5
 2007 010c FFF7FEFF 		bl	_test_assert
 2008 0110 0346     		mov	r3, r0
 2009 0112 002B     		cmp	r3, #0
 2010 0114 40F0D980 		bne	.L145
 2011              		.loc 7 372 0
 2012 0118 6420     		movs	r0, #100
 2013 011a FFF7FEFF 		bl	chThdSleep
 2014              		.loc 7 373 0
 2015 011e FFF7FEFF 		bl	chThdGetPriorityX
 2016 0122 0246     		mov	r2, r0
 2017 0124 039B     		ldr	r3, [sp, #12]
 2018 0126 9342     		cmp	r3, r2
 2019 0128 0CBF     		ite	eq
 2020 012a 0123     		moveq	r3, #1
 2021 012c 0023     		movne	r3, #0
 2022 012e DBB2     		uxtb	r3, r3
 2023 0130 1946     		mov	r1, r3
 2024 0132 0620     		movs	r0, #6
 2025 0134 FFF7FEFF 		bl	_test_assert
 2026 0138 0346     		mov	r3, r0
 2027 013a 002B     		cmp	r3, #0
 2028 013c 40F0C780 		bne	.L146
 2029              		.loc 7 374 0
 2030 0140 FFF7FEFF 		bl	chMtxUnlockAll
 2031              		.loc 7 375 0
 2032 0144 FFF7FEFF 		bl	chThdGetPriorityX
 2033 0148 0246     		mov	r2, r0
 2034 014a 029B     		ldr	r3, [sp, #8]
 2035 014c 9342     		cmp	r3, r2
 2036 014e 0CBF     		ite	eq
 2037 0150 0123     		moveq	r3, #1
 2038 0152 0023     		movne	r3, #0
 2039 0154 DBB2     		uxtb	r3, r3
ARM GAS  C:\Users\PCHAUT~1\AppData\Local\Temp\cc4us1Pe.s 			page 37


 2040 0156 1946     		mov	r1, r3
 2041 0158 0720     		movs	r0, #7
 2042 015a FFF7FEFF 		bl	_test_assert
 2043 015e 0346     		mov	r3, r0
 2044 0160 002B     		cmp	r3, #0
 2045 0162 40F0B680 		bne	.L147
 2046              		.loc 7 376 0
 2047 0166 FFF7FEFF 		bl	test_wait_threads
 2048              		.loc 7 379 0
 2049 016a 614B     		ldr	r3, .L155+4
 2050 016c 1868     		ldr	r0, [r3]
 2051 016e 684B     		ldr	r3, .L155+36
 2052 0170 0093     		str	r3, [sp]
 2053 0172 614B     		ldr	r3, .L155+12
 2054 0174 039A     		ldr	r2, [sp, #12]
 2055 0176 4FF4FC71 		mov	r1, #504
 2056 017a FFF7FEFF 		bl	chThdCreateStatic
 2057 017e 0246     		mov	r2, r0
 2058 0180 5E4B     		ldr	r3, .L155+16
 2059 0182 1A60     		str	r2, [r3]
 2060              		.loc 7 380 0
 2061 0184 5A4B     		ldr	r3, .L155+4
 2062 0186 5868     		ldr	r0, [r3, #4]
 2063 0188 624B     		ldr	r3, .L155+40
 2064 018a 0093     		str	r3, [sp]
 2065 018c 5D4B     		ldr	r3, .L155+24
 2066 018e 049A     		ldr	r2, [sp, #16]
 2067 0190 4FF4FC71 		mov	r1, #504
 2068 0194 FFF7FEFF 		bl	chThdCreateStatic
 2069 0198 0246     		mov	r2, r0
 2070 019a 584B     		ldr	r3, .L155+16
 2071 019c 5A60     		str	r2, [r3, #4]
 2072              		.loc 7 381 0
 2073 019e 5A48     		ldr	r0, .L155+28
 2074 01a0 FFF7FEFF 		bl	chMtxLock
 2075              		.loc 7 382 0
 2076 01a4 FFF7FEFF 		bl	chThdGetPriorityX
 2077 01a8 0246     		mov	r2, r0
 2078 01aa 029B     		ldr	r3, [sp, #8]
 2079 01ac 9342     		cmp	r3, r2
 2080 01ae 0CBF     		ite	eq
 2081 01b0 0123     		moveq	r3, #1
 2082 01b2 0023     		movne	r3, #0
 2083 01b4 DBB2     		uxtb	r3, r3
 2084 01b6 1946     		mov	r1, r3
 2085 01b8 0820     		movs	r0, #8
 2086 01ba FFF7FEFF 		bl	_test_assert
 2087 01be 0346     		mov	r3, r0
 2088 01c0 002B     		cmp	r3, #0
 2089 01c2 40F08880 		bne	.L148
 2090              		.loc 7 383 0
 2091 01c6 6420     		movs	r0, #100
 2092 01c8 FFF7FEFF 		bl	chThdSleep
 2093              		.loc 7 384 0
 2094 01cc FFF7FEFF 		bl	chThdGetPriorityX
 2095 01d0 0246     		mov	r2, r0
 2096 01d2 039B     		ldr	r3, [sp, #12]
ARM GAS  C:\Users\PCHAUT~1\AppData\Local\Temp\cc4us1Pe.s 			page 38


 2097 01d4 9342     		cmp	r3, r2
 2098 01d6 0CBF     		ite	eq
 2099 01d8 0123     		moveq	r3, #1
 2100 01da 0023     		movne	r3, #0
 2101 01dc DBB2     		uxtb	r3, r3
 2102 01de 1946     		mov	r1, r3
 2103 01e0 0920     		movs	r0, #9
 2104 01e2 FFF7FEFF 		bl	_test_assert
 2105 01e6 0346     		mov	r3, r0
 2106 01e8 002B     		cmp	r3, #0
 2107 01ea 76D1     		bne	.L149
 2108              		.loc 7 385 0
 2109 01ec 4748     		ldr	r0, .L155+32
 2110 01ee FFF7FEFF 		bl	chMtxLock
 2111              		.loc 7 386 0
 2112 01f2 FFF7FEFF 		bl	chThdGetPriorityX
 2113 01f6 0246     		mov	r2, r0
 2114 01f8 039B     		ldr	r3, [sp, #12]
 2115 01fa 9342     		cmp	r3, r2
 2116 01fc 0CBF     		ite	eq
 2117 01fe 0123     		moveq	r3, #1
 2118 0200 0023     		movne	r3, #0
 2119 0202 DBB2     		uxtb	r3, r3
 2120 0204 1946     		mov	r1, r3
 2121 0206 0A20     		movs	r0, #10
 2122 0208 FFF7FEFF 		bl	_test_assert
 2123 020c 0346     		mov	r3, r0
 2124 020e 002B     		cmp	r3, #0
 2125 0210 65D1     		bne	.L150
 2126              		.loc 7 387 0
 2127 0212 6420     		movs	r0, #100
 2128 0214 FFF7FEFF 		bl	chThdSleep
 2129              		.loc 7 388 0
 2130 0218 FFF7FEFF 		bl	chThdGetPriorityX
 2131 021c 0246     		mov	r2, r0
 2132 021e 049B     		ldr	r3, [sp, #16]
 2133 0220 9342     		cmp	r3, r2
 2134 0222 0CBF     		ite	eq
 2135 0224 0123     		moveq	r3, #1
 2136 0226 0023     		movne	r3, #0
 2137 0228 DBB2     		uxtb	r3, r3
 2138 022a 1946     		mov	r1, r3
 2139 022c 0B20     		movs	r0, #11
 2140 022e FFF7FEFF 		bl	_test_assert
 2141 0232 0346     		mov	r3, r0
 2142 0234 002B     		cmp	r3, #0
 2143 0236 54D1     		bne	.L151
 2144              		.loc 7 389 0
 2145 0238 FFF7FEFF 		bl	chSysLock
 2146              		.loc 7 390 0
 2147 023c 3348     		ldr	r0, .L155+32
 2148 023e FFF7FEFF 		bl	chMtxUnlockS
 2149              		.loc 7 391 0
 2150 0242 FFF7FEFF 		bl	chSchRescheduleS
 2151              		.loc 7 392 0
 2152 0246 FFF7FEFF 		bl	chSysUnlock
 2153              		.loc 7 393 0
ARM GAS  C:\Users\PCHAUT~1\AppData\Local\Temp\cc4us1Pe.s 			page 39


 2154 024a FFF7FEFF 		bl	chThdGetPriorityX
 2155 024e 0246     		mov	r2, r0
 2156 0250 039B     		ldr	r3, [sp, #12]
 2157 0252 9342     		cmp	r3, r2
 2158 0254 0CBF     		ite	eq
 2159 0256 0123     		moveq	r3, #1
 2160 0258 0023     		movne	r3, #0
 2161 025a DBB2     		uxtb	r3, r3
 2162 025c 1946     		mov	r1, r3
 2163 025e 0C20     		movs	r0, #12
 2164 0260 FFF7FEFF 		bl	_test_assert
 2165 0264 0346     		mov	r3, r0
 2166 0266 002B     		cmp	r3, #0
 2167 0268 3DD1     		bne	.L152
 2168              		.loc 7 394 0
 2169 026a 6420     		movs	r0, #100
 2170 026c FFF7FEFF 		bl	chThdSleep
 2171              		.loc 7 395 0
 2172 0270 FFF7FEFF 		bl	chThdGetPriorityX
 2173 0274 0246     		mov	r2, r0
 2174 0276 039B     		ldr	r3, [sp, #12]
 2175 0278 9342     		cmp	r3, r2
 2176 027a 0CBF     		ite	eq
 2177 027c 0123     		moveq	r3, #1
 2178 027e 0023     		movne	r3, #0
 2179 0280 DBB2     		uxtb	r3, r3
 2180 0282 1946     		mov	r1, r3
 2181 0284 0D20     		movs	r0, #13
 2182 0286 FFF7FEFF 		bl	_test_assert
 2183 028a 0346     		mov	r3, r0
 2184 028c 002B     		cmp	r3, #0
 2185 028e 43D1     		bne	.L153
 2186              		.loc 7 396 0
 2187 0290 FFF7FEFF 		bl	chMtxUnlockAll
 2188              		.loc 7 397 0
 2189 0294 FFF7FEFF 		bl	chThdGetPriorityX
 2190 0298 0246     		mov	r2, r0
 2191 029a 029B     		ldr	r3, [sp, #8]
 2192 029c 9342     		cmp	r3, r2
 2193 029e 0CBF     		ite	eq
 2194 02a0 0123     		moveq	r3, #1
 2195 02a2 0023     		movne	r3, #0
 2196 02a4 DBB2     		uxtb	r3, r3
 2197 02a6 1946     		mov	r1, r3
 2198 02a8 0E20     		movs	r0, #14
 2199 02aa FFF7FEFF 		bl	_test_assert
 2200 02ae 0346     		mov	r3, r0
 2201 02b0 002B     		cmp	r3, #0
 2202 02b2 33D1     		bne	.L154
 2203              		.loc 7 398 0
 2204 02b4 FFF7FEFF 		bl	test_wait_threads
 2205 02b8 31E0     		b	.L124
 2206              	.L141:
 2207              		.loc 7 363 0
 2208 02ba 00BF     		nop
 2209 02bc 2FE0     		b	.L124
 2210              	.L142:
ARM GAS  C:\Users\PCHAUT~1\AppData\Local\Temp\cc4us1Pe.s 			page 40


 2211              		.loc 7 365 0
 2212 02be 00BF     		nop
 2213 02c0 2DE0     		b	.L124
 2214              	.L143:
 2215              		.loc 7 367 0
 2216 02c2 00BF     		nop
 2217 02c4 2BE0     		b	.L124
 2218              	.L144:
 2219              		.loc 7 369 0
 2220 02c6 00BF     		nop
 2221 02c8 29E0     		b	.L124
 2222              	.L145:
 2223              		.loc 7 371 0
 2224 02ca 00BF     		nop
 2225 02cc 27E0     		b	.L124
 2226              	.L146:
 2227              		.loc 7 373 0
 2228 02ce 00BF     		nop
 2229 02d0 25E0     		b	.L124
 2230              	.L147:
 2231              		.loc 7 375 0
 2232 02d2 00BF     		nop
 2233 02d4 23E0     		b	.L124
 2234              	.L148:
 2235              		.loc 7 382 0
 2236 02d6 00BF     		nop
 2237 02d8 21E0     		b	.L124
 2238              	.L149:
 2239              		.loc 7 384 0
 2240 02da 00BF     		nop
 2241 02dc 1FE0     		b	.L124
 2242              	.L150:
 2243              		.loc 7 386 0
 2244 02de 00BF     		nop
 2245 02e0 1DE0     		b	.L124
 2246              	.L151:
 2247              		.loc 7 388 0
 2248 02e2 00BF     		nop
 2249 02e4 1BE0     		b	.L124
 2250              	.L152:
 2251              		.loc 7 393 0
 2252 02e6 00BF     		nop
 2253 02e8 19E0     		b	.L124
 2254              	.L156:
 2255 02ea 00BF     		.align	2
 2256              	.L155:
 2257 02ec 00000000 		.word	__stack_chk_guard
 2258 02f0 00000000 		.word	wa
 2259 02f4 0C000000 		.word	.LC3
 2260 02f8 00000000 		.word	thread4a
 2261 02fc 00000000 		.word	threads
 2262 0300 10000000 		.word	.LC4
 2263 0304 00000000 		.word	thread4b
 2264 0308 00000000 		.word	m2
 2265 030c 00000000 		.word	m1
 2266 0310 04000000 		.word	.LC1
 2267 0314 08000000 		.word	.LC2
ARM GAS  C:\Users\PCHAUT~1\AppData\Local\Temp\cc4us1Pe.s 			page 41


 2268              	.L153:
 2269              		.loc 7 395 0
 2270 0318 00BF     		nop
 2271 031a 00E0     		b	.L124
 2272              	.L154:
 2273              		.loc 7 397 0
 2274 031c 00BF     		nop
 2275              	.L124:
 2276              		.loc 7 399 0
 2277 031e 054B     		ldr	r3, .L157
 2278 0320 059A     		ldr	r2, [sp, #20]
 2279 0322 1B68     		ldr	r3, [r3]
 2280 0324 9A42     		cmp	r2, r3
 2281 0326 01D0     		beq	.L140
 2282 0328 FFF7FEFF 		bl	__stack_chk_fail
 2283              	.L140:
 2284 032c 07B0     		add	sp, sp, #28
 2285              		.cfi_def_cfa_offset 4
 2286              		@ sp needed
 2287 032e 5DF804FB 		ldr	pc, [sp], #4
 2288              	.L158:
 2289 0332 00BF     		.align	2
 2290              	.L157:
 2291 0334 00000000 		.word	__stack_chk_guard
 2292              		.cfi_endproc
 2293              	.LFE237:
 2294              		.size	mtx4_execute, .-mtx4_execute
 2295              		.global	testmtx4
 2296              		.section	.rodata
 2297              		.align	2
 2298              	.LC10:
 2299 009c 4D757465 		.ascii	"Mutexes, priority return\000"
 2299      7865732C 
 2299      20707269 
 2299      6F726974 
 2299      79207265 
 2300              		.section	.rodata.testmtx4,"a",%progbits
 2301              		.align	2
 2302              		.type	testmtx4, %object
 2303              		.size	testmtx4, 16
 2304              	testmtx4:
 2305 0000 9C000000 		.word	.LC10
 2306 0004 00000000 		.word	mtx4_setup
 2307 0008 00000000 		.word	0
 2308 000c 00000000 		.word	mtx4_execute
 2309              		.section	.text.mtx5_setup,"ax",%progbits
 2310              		.align	1
 2311              		.p2align 4,,15
 2312              		.syntax unified
 2313              		.thumb
 2314              		.thumb_func
 2315              		.fpu fpv4-sp-d16
 2316              		.type	mtx5_setup, %function
 2317              	mtx5_setup:
 2318              	.LFB238:
 2319              		.loc 7 418 0
 2320              		.cfi_startproc
ARM GAS  C:\Users\PCHAUT~1\AppData\Local\Temp\cc4us1Pe.s 			page 42


 2321              		@ args = 0, pretend = 0, frame = 8
 2322              		@ frame_needed = 0, uses_anonymous_args = 0
 2323 0000 00B5     		push	{lr}
 2324              		.cfi_def_cfa_offset 4
 2325              		.cfi_offset 14, -4
 2326 0002 83B0     		sub	sp, sp, #12
 2327              		.cfi_def_cfa_offset 16
 2328              		.loc 7 418 0
 2329 0004 084B     		ldr	r3, .L161
 2330 0006 1B68     		ldr	r3, [r3]
 2331 0008 0193     		str	r3, [sp, #4]
 2332              		.loc 7 420 0
 2333 000a 0848     		ldr	r0, .L161+4
 2334 000c FFF7FEFF 		bl	chMtxObjectInit
 2335              		.loc 7 421 0
 2336 0010 00BF     		nop
 2337 0012 054B     		ldr	r3, .L161
 2338 0014 019A     		ldr	r2, [sp, #4]
 2339 0016 1B68     		ldr	r3, [r3]
 2340 0018 9A42     		cmp	r2, r3
 2341 001a 01D0     		beq	.L160
 2342 001c FFF7FEFF 		bl	__stack_chk_fail
 2343              	.L160:
 2344 0020 03B0     		add	sp, sp, #12
 2345              		.cfi_def_cfa_offset 4
 2346              		@ sp needed
 2347 0022 5DF804FB 		ldr	pc, [sp], #4
 2348              	.L162:
 2349 0026 00BF     		.align	2
 2350              	.L161:
 2351 0028 00000000 		.word	__stack_chk_guard
 2352 002c 00000000 		.word	m1
 2353              		.cfi_endproc
 2354              	.LFE238:
 2355              		.size	mtx5_setup, .-mtx5_setup
 2356              		.section	.text.mtx5_execute,"ax",%progbits
 2357              		.align	1
 2358              		.p2align 4,,15
 2359              		.syntax unified
 2360              		.thumb
 2361              		.thumb_func
 2362              		.fpu fpv4-sp-d16
 2363              		.type	mtx5_execute, %function
 2364              	mtx5_execute:
 2365              	.LFB239:
 2366              		.loc 7 423 0
 2367              		.cfi_startproc
 2368              		@ args = 0, pretend = 0, frame = 8
 2369              		@ frame_needed = 0, uses_anonymous_args = 0
 2370 0000 00B5     		push	{lr}
 2371              		.cfi_def_cfa_offset 4
 2372              		.cfi_offset 14, -4
 2373 0002 83B0     		sub	sp, sp, #12
 2374              		.cfi_def_cfa_offset 16
 2375              		.loc 7 423 0
 2376 0004 154B     		ldr	r3, .L168
 2377 0006 1B68     		ldr	r3, [r3]
ARM GAS  C:\Users\PCHAUT~1\AppData\Local\Temp\cc4us1Pe.s 			page 43


 2378 0008 0193     		str	r3, [sp, #4]
 2379              		.loc 7 444 0
 2380 000a 1548     		ldr	r0, .L168+4
 2381 000c FFF7FEFF 		bl	chMtxLock
 2382              		.loc 7 445 0
 2383 0010 FFF7FEFF 		bl	chMtxUnlockAll
 2384              		.loc 7 446 0
 2385 0014 1248     		ldr	r0, .L168+4
 2386 0016 FFF7FEFF 		bl	queue_isempty
 2387 001a 0346     		mov	r3, r0
 2388 001c 1946     		mov	r1, r3
 2389 001e 0620     		movs	r0, #6
 2390 0020 FFF7FEFF 		bl	_test_assert
 2391 0024 0346     		mov	r3, r0
 2392 0026 002B     		cmp	r3, #0
 2393 0028 0DD1     		bne	.L167
 2394              		.loc 7 447 0
 2395 002a 0D4B     		ldr	r3, .L168+4
 2396 002c 9B68     		ldr	r3, [r3, #8]
 2397 002e 002B     		cmp	r3, #0
 2398 0030 0CBF     		ite	eq
 2399 0032 0123     		moveq	r3, #1
 2400 0034 0023     		movne	r3, #0
 2401 0036 DBB2     		uxtb	r3, r3
 2402 0038 1946     		mov	r1, r3
 2403 003a 0720     		movs	r0, #7
 2404 003c FFF7FEFF 		bl	_test_assert
 2405 0040 0346     		mov	r3, r0
 2406 0042 002B     		cmp	r3, #0
 2407 0044 00E0     		b	.L163
 2408              	.L167:
 2409              		.loc 7 446 0
 2410 0046 00BF     		nop
 2411              	.L163:
 2412              		.loc 7 448 0
 2413 0048 044B     		ldr	r3, .L168
 2414 004a 019A     		ldr	r2, [sp, #4]
 2415 004c 1B68     		ldr	r3, [r3]
 2416 004e 9A42     		cmp	r2, r3
 2417 0050 01D0     		beq	.L166
 2418 0052 FFF7FEFF 		bl	__stack_chk_fail
 2419              	.L166:
 2420 0056 03B0     		add	sp, sp, #12
 2421              		.cfi_def_cfa_offset 4
 2422              		@ sp needed
 2423 0058 5DF804FB 		ldr	pc, [sp], #4
 2424              	.L169:
 2425              		.align	2
 2426              	.L168:
 2427 005c 00000000 		.word	__stack_chk_guard
 2428 0060 00000000 		.word	m1
 2429              		.cfi_endproc
 2430              	.LFE239:
 2431              		.size	mtx5_execute, .-mtx5_execute
 2432              		.global	testmtx5
 2433              		.section	.rodata
 2434 00b5 000000   		.align	2
ARM GAS  C:\Users\PCHAUT~1\AppData\Local\Temp\cc4us1Pe.s 			page 44


 2435              	.LC11:
 2436 00b8 4D757465 		.ascii	"Mutexes, status\000"
 2436      7865732C 
 2436      20737461 
 2436      74757300 
 2437              		.section	.rodata.testmtx5,"a",%progbits
 2438              		.align	2
 2439              		.type	testmtx5, %object
 2440              		.size	testmtx5, 16
 2441              	testmtx5:
 2442 0000 B8000000 		.word	.LC11
 2443 0004 00000000 		.word	mtx5_setup
 2444 0008 00000000 		.word	0
 2445 000c 00000000 		.word	mtx5_execute
 2446              		.section	.text.mtx6_setup,"ax",%progbits
 2447              		.align	1
 2448              		.p2align 4,,15
 2449              		.syntax unified
 2450              		.thumb
 2451              		.thumb_func
 2452              		.fpu fpv4-sp-d16
 2453              		.type	mtx6_setup, %function
 2454              	mtx6_setup:
 2455              	.LFB240:
 2456              		.loc 7 469 0
 2457              		.cfi_startproc
 2458              		@ args = 0, pretend = 0, frame = 8
 2459              		@ frame_needed = 0, uses_anonymous_args = 0
 2460 0000 00B5     		push	{lr}
 2461              		.cfi_def_cfa_offset 4
 2462              		.cfi_offset 14, -4
 2463 0002 83B0     		sub	sp, sp, #12
 2464              		.cfi_def_cfa_offset 16
 2465              		.loc 7 469 0
 2466 0004 094B     		ldr	r3, .L172
 2467 0006 1B68     		ldr	r3, [r3]
 2468 0008 0193     		str	r3, [sp, #4]
 2469              		.loc 7 471 0
 2470 000a 0948     		ldr	r0, .L172+4
 2471 000c FFF7FEFF 		bl	chCondObjectInit
 2472              		.loc 7 472 0
 2473 0010 0848     		ldr	r0, .L172+8
 2474 0012 FFF7FEFF 		bl	chMtxObjectInit
 2475              		.loc 7 473 0
 2476 0016 00BF     		nop
 2477 0018 044B     		ldr	r3, .L172
 2478 001a 019A     		ldr	r2, [sp, #4]
 2479 001c 1B68     		ldr	r3, [r3]
 2480 001e 9A42     		cmp	r2, r3
 2481 0020 01D0     		beq	.L171
 2482 0022 FFF7FEFF 		bl	__stack_chk_fail
 2483              	.L171:
 2484 0026 03B0     		add	sp, sp, #12
 2485              		.cfi_def_cfa_offset 4
 2486              		@ sp needed
 2487 0028 5DF804FB 		ldr	pc, [sp], #4
 2488              	.L173:
ARM GAS  C:\Users\PCHAUT~1\AppData\Local\Temp\cc4us1Pe.s 			page 45


 2489              		.align	2
 2490              	.L172:
 2491 002c 00000000 		.word	__stack_chk_guard
 2492 0030 00000000 		.word	c1
 2493 0034 00000000 		.word	m1
 2494              		.cfi_endproc
 2495              	.LFE240:
 2496              		.size	mtx6_setup, .-mtx6_setup
 2497              		.section	.text.thread10,"ax",%progbits
 2498              		.align	1
 2499              		.p2align 4,,15
 2500              		.syntax unified
 2501              		.thumb
 2502              		.thumb_func
 2503              		.fpu fpv4-sp-d16
 2504              		.type	thread10, %function
 2505              	thread10:
 2506              	.LFB241:
 2507              		.loc 7 475 0
 2508              		.cfi_startproc
 2509              		@ args = 0, pretend = 0, frame = 16
 2510              		@ frame_needed = 0, uses_anonymous_args = 0
 2511 0000 00B5     		push	{lr}
 2512              		.cfi_def_cfa_offset 4
 2513              		.cfi_offset 14, -4
 2514 0002 85B0     		sub	sp, sp, #20
 2515              		.cfi_def_cfa_offset 24
 2516 0004 0190     		str	r0, [sp, #4]
 2517              		.loc 7 475 0
 2518 0006 0E4B     		ldr	r3, .L176
 2519 0008 1B68     		ldr	r3, [r3]
 2520 000a 0393     		str	r3, [sp, #12]
 2521              		.loc 7 477 0
 2522 000c 0D48     		ldr	r0, .L176+4
 2523 000e FFF7FEFF 		bl	chMtxLock
 2524              		.loc 7 478 0
 2525 0012 0D48     		ldr	r0, .L176+8
 2526 0014 FFF7FEFF 		bl	chCondWait
 2527              		.loc 7 479 0
 2528 0018 019B     		ldr	r3, [sp, #4]
 2529 001a 1B78     		ldrb	r3, [r3]	@ zero_extendqisi2
 2530 001c 1846     		mov	r0, r3
 2531 001e FFF7FEFF 		bl	test_emit_token
 2532              		.loc 7 480 0
 2533 0022 0848     		ldr	r0, .L176+4
 2534 0024 FFF7FEFF 		bl	chMtxUnlock
 2535              		.loc 7 481 0
 2536 0028 00BF     		nop
 2537 002a 054B     		ldr	r3, .L176
 2538 002c 039A     		ldr	r2, [sp, #12]
 2539 002e 1B68     		ldr	r3, [r3]
 2540 0030 9A42     		cmp	r2, r3
 2541 0032 01D0     		beq	.L175
 2542 0034 FFF7FEFF 		bl	__stack_chk_fail
 2543              	.L175:
 2544 0038 05B0     		add	sp, sp, #20
 2545              		.cfi_def_cfa_offset 4
ARM GAS  C:\Users\PCHAUT~1\AppData\Local\Temp\cc4us1Pe.s 			page 46


 2546              		@ sp needed
 2547 003a 5DF804FB 		ldr	pc, [sp], #4
 2548              	.L177:
 2549 003e 00BF     		.align	2
 2550              	.L176:
 2551 0040 00000000 		.word	__stack_chk_guard
 2552 0044 00000000 		.word	m1
 2553 0048 00000000 		.word	c1
 2554              		.cfi_endproc
 2555              	.LFE241:
 2556              		.size	thread10, .-thread10
 2557              		.section	.text.mtx6_execute,"ax",%progbits
 2558              		.align	1
 2559              		.p2align 4,,15
 2560              		.syntax unified
 2561              		.thumb
 2562              		.thumb_func
 2563              		.fpu fpv4-sp-d16
 2564              		.type	mtx6_execute, %function
 2565              	mtx6_execute:
 2566              	.LFB242:
 2567              		.loc 7 483 0
 2568              		.cfi_startproc
 2569              		@ args = 0, pretend = 0, frame = 8
 2570              		@ frame_needed = 0, uses_anonymous_args = 0
 2571 0000 00B5     		push	{lr}
 2572              		.cfi_def_cfa_offset 4
 2573              		.cfi_offset 14, -4
 2574 0002 85B0     		sub	sp, sp, #20
 2575              		.cfi_def_cfa_offset 24
 2576              		.loc 7 483 0
 2577 0004 394B     		ldr	r3, .L181
 2578 0006 1B68     		ldr	r3, [r3]
 2579 0008 0393     		str	r3, [sp, #12]
 2580              		.loc 7 485 0
 2581 000a FFF7FEFF 		bl	chThdGetPriorityX
 2582 000e 0290     		str	r0, [sp, #8]
 2583              		.loc 7 486 0
 2584 0010 374B     		ldr	r3, .L181+4
 2585 0012 1868     		ldr	r0, [r3]
 2586 0014 029B     		ldr	r3, [sp, #8]
 2587 0016 5A1C     		adds	r2, r3, #1
 2588 0018 364B     		ldr	r3, .L181+8
 2589 001a 0093     		str	r3, [sp]
 2590 001c 364B     		ldr	r3, .L181+12
 2591 001e 4FF4FC71 		mov	r1, #504
 2592 0022 FFF7FEFF 		bl	chThdCreateStatic
 2593 0026 0246     		mov	r2, r0
 2594 0028 344B     		ldr	r3, .L181+16
 2595 002a 1A60     		str	r2, [r3]
 2596              		.loc 7 487 0
 2597 002c 304B     		ldr	r3, .L181+4
 2598 002e 5868     		ldr	r0, [r3, #4]
 2599 0030 029B     		ldr	r3, [sp, #8]
 2600 0032 9A1C     		adds	r2, r3, #2
 2601 0034 324B     		ldr	r3, .L181+20
 2602 0036 0093     		str	r3, [sp]
ARM GAS  C:\Users\PCHAUT~1\AppData\Local\Temp\cc4us1Pe.s 			page 47


 2603 0038 2F4B     		ldr	r3, .L181+12
 2604 003a 4FF4FC71 		mov	r1, #504
 2605 003e FFF7FEFF 		bl	chThdCreateStatic
 2606 0042 0246     		mov	r2, r0
 2607 0044 2D4B     		ldr	r3, .L181+16
 2608 0046 5A60     		str	r2, [r3, #4]
 2609              		.loc 7 488 0
 2610 0048 294B     		ldr	r3, .L181+4
 2611 004a 9868     		ldr	r0, [r3, #8]
 2612 004c 029B     		ldr	r3, [sp, #8]
 2613 004e DA1C     		adds	r2, r3, #3
 2614 0050 2C4B     		ldr	r3, .L181+24
 2615 0052 0093     		str	r3, [sp]
 2616 0054 284B     		ldr	r3, .L181+12
 2617 0056 4FF4FC71 		mov	r1, #504
 2618 005a FFF7FEFF 		bl	chThdCreateStatic
 2619 005e 0246     		mov	r2, r0
 2620 0060 264B     		ldr	r3, .L181+16
 2621 0062 9A60     		str	r2, [r3, #8]
 2622              		.loc 7 489 0
 2623 0064 224B     		ldr	r3, .L181+4
 2624 0066 D868     		ldr	r0, [r3, #12]
 2625 0068 029B     		ldr	r3, [sp, #8]
 2626 006a 1A1D     		adds	r2, r3, #4
 2627 006c 264B     		ldr	r3, .L181+28
 2628 006e 0093     		str	r3, [sp]
 2629 0070 214B     		ldr	r3, .L181+12
 2630 0072 4FF4FC71 		mov	r1, #504
 2631 0076 FFF7FEFF 		bl	chThdCreateStatic
 2632 007a 0246     		mov	r2, r0
 2633 007c 1F4B     		ldr	r3, .L181+16
 2634 007e DA60     		str	r2, [r3, #12]
 2635              		.loc 7 490 0
 2636 0080 1B4B     		ldr	r3, .L181+4
 2637 0082 1869     		ldr	r0, [r3, #16]
 2638 0084 029B     		ldr	r3, [sp, #8]
 2639 0086 5A1D     		adds	r2, r3, #5
 2640 0088 204B     		ldr	r3, .L181+32
 2641 008a 0093     		str	r3, [sp]
 2642 008c 1A4B     		ldr	r3, .L181+12
 2643 008e 4FF4FC71 		mov	r1, #504
 2644 0092 FFF7FEFF 		bl	chThdCreateStatic
 2645 0096 0246     		mov	r2, r0
 2646 0098 184B     		ldr	r3, .L181+16
 2647 009a 1A61     		str	r2, [r3, #16]
 2648              		.loc 7 491 0
 2649 009c FFF7FEFF 		bl	chSysLock
 2650              		.loc 7 492 0
 2651 00a0 1B48     		ldr	r0, .L181+36
 2652 00a2 FFF7FEFF 		bl	chCondSignalI
 2653              		.loc 7 493 0
 2654 00a6 1A48     		ldr	r0, .L181+36
 2655 00a8 FFF7FEFF 		bl	chCondSignalI
 2656              		.loc 7 494 0
 2657 00ac 1848     		ldr	r0, .L181+36
 2658 00ae FFF7FEFF 		bl	chCondSignalI
 2659              		.loc 7 495 0
ARM GAS  C:\Users\PCHAUT~1\AppData\Local\Temp\cc4us1Pe.s 			page 48


 2660 00b2 1748     		ldr	r0, .L181+36
 2661 00b4 FFF7FEFF 		bl	chCondSignalI
 2662              		.loc 7 496 0
 2663 00b8 1548     		ldr	r0, .L181+36
 2664 00ba FFF7FEFF 		bl	chCondSignalI
 2665              		.loc 7 497 0
 2666 00be FFF7FEFF 		bl	chSchRescheduleS
 2667              		.loc 7 498 0
 2668 00c2 FFF7FEFF 		bl	chSysUnlock
 2669              		.loc 7 499 0
 2670 00c6 FFF7FEFF 		bl	test_wait_threads
 2671              		.loc 7 500 0
 2672 00ca 1249     		ldr	r1, .L181+40
 2673 00cc 0120     		movs	r0, #1
 2674 00ce FFF7FEFF 		bl	_test_assert_sequence
 2675 00d2 0346     		mov	r3, r0
 2676 00d4 002B     		cmp	r3, #0
 2677              		.loc 7 501 0
 2678 00d6 054B     		ldr	r3, .L181
 2679 00d8 039A     		ldr	r2, [sp, #12]
 2680 00da 1B68     		ldr	r3, [r3]
 2681 00dc 9A42     		cmp	r2, r3
 2682 00de 01D0     		beq	.L180
 2683 00e0 FFF7FEFF 		bl	__stack_chk_fail
 2684              	.L180:
 2685 00e4 05B0     		add	sp, sp, #20
 2686              		.cfi_def_cfa_offset 4
 2687              		@ sp needed
 2688 00e6 5DF804FB 		ldr	pc, [sp], #4
 2689              	.L182:
 2690 00ea 00BF     		.align	2
 2691              	.L181:
 2692 00ec 00000000 		.word	__stack_chk_guard
 2693 00f0 00000000 		.word	wa
 2694 00f4 00000000 		.word	.LC0
 2695 00f8 00000000 		.word	thread10
 2696 00fc 00000000 		.word	threads
 2697 0100 04000000 		.word	.LC1
 2698 0104 08000000 		.word	.LC2
 2699 0108 0C000000 		.word	.LC3
 2700 010c 10000000 		.word	.LC4
 2701 0110 00000000 		.word	c1
 2702 0114 14000000 		.word	.LC5
 2703              		.cfi_endproc
 2704              	.LFE242:
 2705              		.size	mtx6_execute, .-mtx6_execute
 2706              		.global	testmtx6
 2707              		.section	.rodata
 2708              		.align	2
 2709              	.LC12:
 2710 00c8 436F6E64 		.ascii	"CondVar, signal test\000"
 2710      5661722C 
 2710      20736967 
 2710      6E616C20 
 2710      74657374 
 2711              		.section	.rodata.testmtx6,"a",%progbits
 2712              		.align	2
ARM GAS  C:\Users\PCHAUT~1\AppData\Local\Temp\cc4us1Pe.s 			page 49


 2713              		.type	testmtx6, %object
 2714              		.size	testmtx6, 16
 2715              	testmtx6:
 2716 0000 C8000000 		.word	.LC12
 2717 0004 00000000 		.word	mtx6_setup
 2718 0008 00000000 		.word	0
 2719 000c 00000000 		.word	mtx6_execute
 2720              		.section	.text.mtx7_setup,"ax",%progbits
 2721              		.align	1
 2722              		.p2align 4,,15
 2723              		.syntax unified
 2724              		.thumb
 2725              		.thumb_func
 2726              		.fpu fpv4-sp-d16
 2727              		.type	mtx7_setup, %function
 2728              	mtx7_setup:
 2729              	.LFB243:
 2730              		.loc 7 520 0
 2731              		.cfi_startproc
 2732              		@ args = 0, pretend = 0, frame = 8
 2733              		@ frame_needed = 0, uses_anonymous_args = 0
 2734 0000 00B5     		push	{lr}
 2735              		.cfi_def_cfa_offset 4
 2736              		.cfi_offset 14, -4
 2737 0002 83B0     		sub	sp, sp, #12
 2738              		.cfi_def_cfa_offset 16
 2739              		.loc 7 520 0
 2740 0004 094B     		ldr	r3, .L185
 2741 0006 1B68     		ldr	r3, [r3]
 2742 0008 0193     		str	r3, [sp, #4]
 2743              		.loc 7 522 0
 2744 000a 0948     		ldr	r0, .L185+4
 2745 000c FFF7FEFF 		bl	chCondObjectInit
 2746              		.loc 7 523 0
 2747 0010 0848     		ldr	r0, .L185+8
 2748 0012 FFF7FEFF 		bl	chMtxObjectInit
 2749              		.loc 7 524 0
 2750 0016 00BF     		nop
 2751 0018 044B     		ldr	r3, .L185
 2752 001a 019A     		ldr	r2, [sp, #4]
 2753 001c 1B68     		ldr	r3, [r3]
 2754 001e 9A42     		cmp	r2, r3
 2755 0020 01D0     		beq	.L184
 2756 0022 FFF7FEFF 		bl	__stack_chk_fail
 2757              	.L184:
 2758 0026 03B0     		add	sp, sp, #12
 2759              		.cfi_def_cfa_offset 4
 2760              		@ sp needed
 2761 0028 5DF804FB 		ldr	pc, [sp], #4
 2762              	.L186:
 2763              		.align	2
 2764              	.L185:
 2765 002c 00000000 		.word	__stack_chk_guard
 2766 0030 00000000 		.word	c1
 2767 0034 00000000 		.word	m1
 2768              		.cfi_endproc
 2769              	.LFE243:
ARM GAS  C:\Users\PCHAUT~1\AppData\Local\Temp\cc4us1Pe.s 			page 50


 2770              		.size	mtx7_setup, .-mtx7_setup
 2771              		.section	.text.mtx7_execute,"ax",%progbits
 2772              		.align	1
 2773              		.p2align 4,,15
 2774              		.syntax unified
 2775              		.thumb
 2776              		.thumb_func
 2777              		.fpu fpv4-sp-d16
 2778              		.type	mtx7_execute, %function
 2779              	mtx7_execute:
 2780              	.LFB244:
 2781              		.loc 7 526 0
 2782              		.cfi_startproc
 2783              		@ args = 0, pretend = 0, frame = 8
 2784              		@ frame_needed = 0, uses_anonymous_args = 0
 2785 0000 00B5     		push	{lr}
 2786              		.cfi_def_cfa_offset 4
 2787              		.cfi_offset 14, -4
 2788 0002 85B0     		sub	sp, sp, #20
 2789              		.cfi_def_cfa_offset 24
 2790              		.loc 7 526 0
 2791 0004 304B     		ldr	r3, .L190
 2792 0006 1B68     		ldr	r3, [r3]
 2793 0008 0393     		str	r3, [sp, #12]
 2794              		.loc 7 528 0
 2795 000a FFF7FEFF 		bl	chThdGetPriorityX
 2796 000e 0290     		str	r0, [sp, #8]
 2797              		.loc 7 529 0
 2798 0010 2E4B     		ldr	r3, .L190+4
 2799 0012 1868     		ldr	r0, [r3]
 2800 0014 029B     		ldr	r3, [sp, #8]
 2801 0016 5A1C     		adds	r2, r3, #1
 2802 0018 2D4B     		ldr	r3, .L190+8
 2803 001a 0093     		str	r3, [sp]
 2804 001c 2D4B     		ldr	r3, .L190+12
 2805 001e 4FF4FC71 		mov	r1, #504
 2806 0022 FFF7FEFF 		bl	chThdCreateStatic
 2807 0026 0246     		mov	r2, r0
 2808 0028 2B4B     		ldr	r3, .L190+16
 2809 002a 1A60     		str	r2, [r3]
 2810              		.loc 7 530 0
 2811 002c 274B     		ldr	r3, .L190+4
 2812 002e 5868     		ldr	r0, [r3, #4]
 2813 0030 029B     		ldr	r3, [sp, #8]
 2814 0032 9A1C     		adds	r2, r3, #2
 2815 0034 294B     		ldr	r3, .L190+20
 2816 0036 0093     		str	r3, [sp]
 2817 0038 264B     		ldr	r3, .L190+12
 2818 003a 4FF4FC71 		mov	r1, #504
 2819 003e FFF7FEFF 		bl	chThdCreateStatic
 2820 0042 0246     		mov	r2, r0
 2821 0044 244B     		ldr	r3, .L190+16
 2822 0046 5A60     		str	r2, [r3, #4]
 2823              		.loc 7 531 0
 2824 0048 204B     		ldr	r3, .L190+4
 2825 004a 9868     		ldr	r0, [r3, #8]
 2826 004c 029B     		ldr	r3, [sp, #8]
ARM GAS  C:\Users\PCHAUT~1\AppData\Local\Temp\cc4us1Pe.s 			page 51


 2827 004e DA1C     		adds	r2, r3, #3
 2828 0050 234B     		ldr	r3, .L190+24
 2829 0052 0093     		str	r3, [sp]
 2830 0054 1F4B     		ldr	r3, .L190+12
 2831 0056 4FF4FC71 		mov	r1, #504
 2832 005a FFF7FEFF 		bl	chThdCreateStatic
 2833 005e 0246     		mov	r2, r0
 2834 0060 1D4B     		ldr	r3, .L190+16
 2835 0062 9A60     		str	r2, [r3, #8]
 2836              		.loc 7 532 0
 2837 0064 194B     		ldr	r3, .L190+4
 2838 0066 D868     		ldr	r0, [r3, #12]
 2839 0068 029B     		ldr	r3, [sp, #8]
 2840 006a 1A1D     		adds	r2, r3, #4
 2841 006c 1D4B     		ldr	r3, .L190+28
 2842 006e 0093     		str	r3, [sp]
 2843 0070 184B     		ldr	r3, .L190+12
 2844 0072 4FF4FC71 		mov	r1, #504
 2845 0076 FFF7FEFF 		bl	chThdCreateStatic
 2846 007a 0246     		mov	r2, r0
 2847 007c 164B     		ldr	r3, .L190+16
 2848 007e DA60     		str	r2, [r3, #12]
 2849              		.loc 7 533 0
 2850 0080 124B     		ldr	r3, .L190+4
 2851 0082 1869     		ldr	r0, [r3, #16]
 2852 0084 029B     		ldr	r3, [sp, #8]
 2853 0086 5A1D     		adds	r2, r3, #5
 2854 0088 174B     		ldr	r3, .L190+32
 2855 008a 0093     		str	r3, [sp]
 2856 008c 114B     		ldr	r3, .L190+12
 2857 008e 4FF4FC71 		mov	r1, #504
 2858 0092 FFF7FEFF 		bl	chThdCreateStatic
 2859 0096 0246     		mov	r2, r0
 2860 0098 0F4B     		ldr	r3, .L190+16
 2861 009a 1A61     		str	r2, [r3, #16]
 2862              		.loc 7 534 0
 2863 009c 1348     		ldr	r0, .L190+36
 2864 009e FFF7FEFF 		bl	chCondBroadcast
 2865              		.loc 7 535 0
 2866 00a2 FFF7FEFF 		bl	test_wait_threads
 2867              		.loc 7 536 0
 2868 00a6 1249     		ldr	r1, .L190+40
 2869 00a8 0120     		movs	r0, #1
 2870 00aa FFF7FEFF 		bl	_test_assert_sequence
 2871 00ae 0346     		mov	r3, r0
 2872 00b0 002B     		cmp	r3, #0
 2873              		.loc 7 537 0
 2874 00b2 054B     		ldr	r3, .L190
 2875 00b4 039A     		ldr	r2, [sp, #12]
 2876 00b6 1B68     		ldr	r3, [r3]
 2877 00b8 9A42     		cmp	r2, r3
 2878 00ba 01D0     		beq	.L189
 2879 00bc FFF7FEFF 		bl	__stack_chk_fail
 2880              	.L189:
 2881 00c0 05B0     		add	sp, sp, #20
 2882              		.cfi_def_cfa_offset 4
 2883              		@ sp needed
ARM GAS  C:\Users\PCHAUT~1\AppData\Local\Temp\cc4us1Pe.s 			page 52


 2884 00c2 5DF804FB 		ldr	pc, [sp], #4
 2885              	.L191:
 2886 00c6 00BF     		.align	2
 2887              	.L190:
 2888 00c8 00000000 		.word	__stack_chk_guard
 2889 00cc 00000000 		.word	wa
 2890 00d0 00000000 		.word	.LC0
 2891 00d4 00000000 		.word	thread10
 2892 00d8 00000000 		.word	threads
 2893 00dc 04000000 		.word	.LC1
 2894 00e0 08000000 		.word	.LC2
 2895 00e4 0C000000 		.word	.LC3
 2896 00e8 10000000 		.word	.LC4
 2897 00ec 00000000 		.word	c1
 2898 00f0 14000000 		.word	.LC5
 2899              		.cfi_endproc
 2900              	.LFE244:
 2901              		.size	mtx7_execute, .-mtx7_execute
 2902              		.global	testmtx7
 2903              		.section	.rodata
 2904 00dd 000000   		.align	2
 2905              	.LC13:
 2906 00e0 436F6E64 		.ascii	"CondVar, broadcast test\000"
 2906      5661722C 
 2906      2062726F 
 2906      61646361 
 2906      73742074 
 2907              		.section	.rodata.testmtx7,"a",%progbits
 2908              		.align	2
 2909              		.type	testmtx7, %object
 2910              		.size	testmtx7, 16
 2911              	testmtx7:
 2912 0000 E0000000 		.word	.LC13
 2913 0004 00000000 		.word	mtx7_setup
 2914 0008 00000000 		.word	0
 2915 000c 00000000 		.word	mtx7_execute
 2916              		.section	.text.mtx8_setup,"ax",%progbits
 2917              		.align	1
 2918              		.p2align 4,,15
 2919              		.syntax unified
 2920              		.thumb
 2921              		.thumb_func
 2922              		.fpu fpv4-sp-d16
 2923              		.type	mtx8_setup, %function
 2924              	mtx8_setup:
 2925              	.LFB245:
 2926              		.loc 7 555 0
 2927              		.cfi_startproc
 2928              		@ args = 0, pretend = 0, frame = 8
 2929              		@ frame_needed = 0, uses_anonymous_args = 0
 2930 0000 00B5     		push	{lr}
 2931              		.cfi_def_cfa_offset 4
 2932              		.cfi_offset 14, -4
 2933 0002 83B0     		sub	sp, sp, #12
 2934              		.cfi_def_cfa_offset 16
 2935              		.loc 7 555 0
 2936 0004 0B4B     		ldr	r3, .L194
ARM GAS  C:\Users\PCHAUT~1\AppData\Local\Temp\cc4us1Pe.s 			page 53


 2937 0006 1B68     		ldr	r3, [r3]
 2938 0008 0193     		str	r3, [sp, #4]
 2939              		.loc 7 557 0
 2940 000a 0B48     		ldr	r0, .L194+4
 2941 000c FFF7FEFF 		bl	chCondObjectInit
 2942              		.loc 7 558 0
 2943 0010 0A48     		ldr	r0, .L194+8
 2944 0012 FFF7FEFF 		bl	chMtxObjectInit
 2945              		.loc 7 559 0
 2946 0016 0A48     		ldr	r0, .L194+12
 2947 0018 FFF7FEFF 		bl	chMtxObjectInit
 2948              		.loc 7 560 0
 2949 001c 00BF     		nop
 2950 001e 054B     		ldr	r3, .L194
 2951 0020 019A     		ldr	r2, [sp, #4]
 2952 0022 1B68     		ldr	r3, [r3]
 2953 0024 9A42     		cmp	r2, r3
 2954 0026 01D0     		beq	.L193
 2955 0028 FFF7FEFF 		bl	__stack_chk_fail
 2956              	.L193:
 2957 002c 03B0     		add	sp, sp, #12
 2958              		.cfi_def_cfa_offset 4
 2959              		@ sp needed
 2960 002e 5DF804FB 		ldr	pc, [sp], #4
 2961              	.L195:
 2962 0032 00BF     		.align	2
 2963              	.L194:
 2964 0034 00000000 		.word	__stack_chk_guard
 2965 0038 00000000 		.word	c1
 2966 003c 00000000 		.word	m1
 2967 0040 00000000 		.word	m2
 2968              		.cfi_endproc
 2969              	.LFE245:
 2970              		.size	mtx8_setup, .-mtx8_setup
 2971              		.section	.text.thread11,"ax",%progbits
 2972              		.align	1
 2973              		.p2align 4,,15
 2974              		.syntax unified
 2975              		.thumb
 2976              		.thumb_func
 2977              		.fpu fpv4-sp-d16
 2978              		.type	thread11, %function
 2979              	thread11:
 2980              	.LFB246:
 2981              		.loc 7 562 0
 2982              		.cfi_startproc
 2983              		@ args = 0, pretend = 0, frame = 16
 2984              		@ frame_needed = 0, uses_anonymous_args = 0
 2985 0000 00B5     		push	{lr}
 2986              		.cfi_def_cfa_offset 4
 2987              		.cfi_offset 14, -4
 2988 0002 85B0     		sub	sp, sp, #20
 2989              		.cfi_def_cfa_offset 24
 2990 0004 0190     		str	r0, [sp, #4]
 2991              		.loc 7 562 0
 2992 0006 124B     		ldr	r3, .L198
 2993 0008 1B68     		ldr	r3, [r3]
ARM GAS  C:\Users\PCHAUT~1\AppData\Local\Temp\cc4us1Pe.s 			page 54


 2994 000a 0393     		str	r3, [sp, #12]
 2995              		.loc 7 564 0
 2996 000c 1148     		ldr	r0, .L198+4
 2997 000e FFF7FEFF 		bl	chMtxLock
 2998              		.loc 7 565 0
 2999 0012 1148     		ldr	r0, .L198+8
 3000 0014 FFF7FEFF 		bl	chMtxLock
 3001              		.loc 7 567 0
 3002 0018 4FF0FF31 		mov	r1, #-1
 3003 001c 0F48     		ldr	r0, .L198+12
 3004 001e FFF7FEFF 		bl	chCondWaitTimeout
 3005              		.loc 7 571 0
 3006 0022 019B     		ldr	r3, [sp, #4]
 3007 0024 1B78     		ldrb	r3, [r3]	@ zero_extendqisi2
 3008 0026 1846     		mov	r0, r3
 3009 0028 FFF7FEFF 		bl	test_emit_token
 3010              		.loc 7 572 0
 3011 002c 0A48     		ldr	r0, .L198+8
 3012 002e FFF7FEFF 		bl	chMtxUnlock
 3013              		.loc 7 573 0
 3014 0032 0848     		ldr	r0, .L198+4
 3015 0034 FFF7FEFF 		bl	chMtxUnlock
 3016              		.loc 7 574 0
 3017 0038 00BF     		nop
 3018 003a 054B     		ldr	r3, .L198
 3019 003c 039A     		ldr	r2, [sp, #12]
 3020 003e 1B68     		ldr	r3, [r3]
 3021 0040 9A42     		cmp	r2, r3
 3022 0042 01D0     		beq	.L197
 3023 0044 FFF7FEFF 		bl	__stack_chk_fail
 3024              	.L197:
 3025 0048 05B0     		add	sp, sp, #20
 3026              		.cfi_def_cfa_offset 4
 3027              		@ sp needed
 3028 004a 5DF804FB 		ldr	pc, [sp], #4
 3029              	.L199:
 3030 004e 00BF     		.align	2
 3031              	.L198:
 3032 0050 00000000 		.word	__stack_chk_guard
 3033 0054 00000000 		.word	m2
 3034 0058 00000000 		.word	m1
 3035 005c 00000000 		.word	c1
 3036              		.cfi_endproc
 3037              	.LFE246:
 3038              		.size	thread11, .-thread11
 3039              		.section	.text.thread12,"ax",%progbits
 3040              		.align	1
 3041              		.p2align 4,,15
 3042              		.syntax unified
 3043              		.thumb
 3044              		.thumb_func
 3045              		.fpu fpv4-sp-d16
 3046              		.type	thread12, %function
 3047              	thread12:
 3048              	.LFB247:
 3049              		.loc 7 576 0
 3050              		.cfi_startproc
ARM GAS  C:\Users\PCHAUT~1\AppData\Local\Temp\cc4us1Pe.s 			page 55


 3051              		@ args = 0, pretend = 0, frame = 16
 3052              		@ frame_needed = 0, uses_anonymous_args = 0
 3053 0000 00B5     		push	{lr}
 3054              		.cfi_def_cfa_offset 4
 3055              		.cfi_offset 14, -4
 3056 0002 85B0     		sub	sp, sp, #20
 3057              		.cfi_def_cfa_offset 24
 3058 0004 0190     		str	r0, [sp, #4]
 3059              		.loc 7 576 0
 3060 0006 0C4B     		ldr	r3, .L202
 3061 0008 1B68     		ldr	r3, [r3]
 3062 000a 0393     		str	r3, [sp, #12]
 3063              		.loc 7 578 0
 3064 000c 0B48     		ldr	r0, .L202+4
 3065 000e FFF7FEFF 		bl	chMtxLock
 3066              		.loc 7 579 0
 3067 0012 019B     		ldr	r3, [sp, #4]
 3068 0014 1B78     		ldrb	r3, [r3]	@ zero_extendqisi2
 3069 0016 1846     		mov	r0, r3
 3070 0018 FFF7FEFF 		bl	test_emit_token
 3071              		.loc 7 580 0
 3072 001c 0748     		ldr	r0, .L202+4
 3073 001e FFF7FEFF 		bl	chMtxUnlock
 3074              		.loc 7 581 0
 3075 0022 00BF     		nop
 3076 0024 044B     		ldr	r3, .L202
 3077 0026 039A     		ldr	r2, [sp, #12]
 3078 0028 1B68     		ldr	r3, [r3]
 3079 002a 9A42     		cmp	r2, r3
 3080 002c 01D0     		beq	.L201
 3081 002e FFF7FEFF 		bl	__stack_chk_fail
 3082              	.L201:
 3083 0032 05B0     		add	sp, sp, #20
 3084              		.cfi_def_cfa_offset 4
 3085              		@ sp needed
 3086 0034 5DF804FB 		ldr	pc, [sp], #4
 3087              	.L203:
 3088              		.align	2
 3089              	.L202:
 3090 0038 00000000 		.word	__stack_chk_guard
 3091 003c 00000000 		.word	m2
 3092              		.cfi_endproc
 3093              	.LFE247:
 3094              		.size	thread12, .-thread12
 3095              		.section	.text.mtx8_execute,"ax",%progbits
 3096              		.align	1
 3097              		.p2align 4,,15
 3098              		.syntax unified
 3099              		.thumb
 3100              		.thumb_func
 3101              		.fpu fpv4-sp-d16
 3102              		.type	mtx8_execute, %function
 3103              	mtx8_execute:
 3104              	.LFB248:
 3105              		.loc 7 583 0
 3106              		.cfi_startproc
 3107              		@ args = 0, pretend = 0, frame = 8
ARM GAS  C:\Users\PCHAUT~1\AppData\Local\Temp\cc4us1Pe.s 			page 56


 3108              		@ frame_needed = 0, uses_anonymous_args = 0
 3109 0000 00B5     		push	{lr}
 3110              		.cfi_def_cfa_offset 4
 3111              		.cfi_offset 14, -4
 3112 0002 85B0     		sub	sp, sp, #20
 3113              		.cfi_def_cfa_offset 24
 3114              		.loc 7 583 0
 3115 0004 234B     		ldr	r3, .L207
 3116 0006 1B68     		ldr	r3, [r3]
 3117 0008 0393     		str	r3, [sp, #12]
 3118              		.loc 7 585 0
 3119 000a FFF7FEFF 		bl	chThdGetPriorityX
 3120 000e 0290     		str	r0, [sp, #8]
 3121              		.loc 7 586 0
 3122 0010 214B     		ldr	r3, .L207+4
 3123 0012 1868     		ldr	r0, [r3]
 3124 0014 029B     		ldr	r3, [sp, #8]
 3125 0016 5A1C     		adds	r2, r3, #1
 3126 0018 204B     		ldr	r3, .L207+8
 3127 001a 0093     		str	r3, [sp]
 3128 001c 204B     		ldr	r3, .L207+12
 3129 001e 4FF4FC71 		mov	r1, #504
 3130 0022 FFF7FEFF 		bl	chThdCreateStatic
 3131 0026 0246     		mov	r2, r0
 3132 0028 1E4B     		ldr	r3, .L207+16
 3133 002a 1A60     		str	r2, [r3]
 3134              		.loc 7 587 0
 3135 002c 1A4B     		ldr	r3, .L207+4
 3136 002e 5868     		ldr	r0, [r3, #4]
 3137 0030 029B     		ldr	r3, [sp, #8]
 3138 0032 9A1C     		adds	r2, r3, #2
 3139 0034 1C4B     		ldr	r3, .L207+20
 3140 0036 0093     		str	r3, [sp]
 3141 0038 1C4B     		ldr	r3, .L207+24
 3142 003a 4FF4FC71 		mov	r1, #504
 3143 003e FFF7FEFF 		bl	chThdCreateStatic
 3144 0042 0246     		mov	r2, r0
 3145 0044 174B     		ldr	r3, .L207+16
 3146 0046 5A60     		str	r2, [r3, #4]
 3147              		.loc 7 588 0
 3148 0048 134B     		ldr	r3, .L207+4
 3149 004a 9868     		ldr	r0, [r3, #8]
 3150 004c 029B     		ldr	r3, [sp, #8]
 3151 004e DA1C     		adds	r2, r3, #3
 3152 0050 174B     		ldr	r3, .L207+28
 3153 0052 0093     		str	r3, [sp]
 3154 0054 174B     		ldr	r3, .L207+32
 3155 0056 4FF4FC71 		mov	r1, #504
 3156 005a FFF7FEFF 		bl	chThdCreateStatic
 3157 005e 0246     		mov	r2, r0
 3158 0060 104B     		ldr	r3, .L207+16
 3159 0062 9A60     		str	r2, [r3, #8]
 3160              		.loc 7 589 0
 3161 0064 1448     		ldr	r0, .L207+36
 3162 0066 FFF7FEFF 		bl	chCondSignal
 3163              		.loc 7 590 0
 3164 006a 1348     		ldr	r0, .L207+36
ARM GAS  C:\Users\PCHAUT~1\AppData\Local\Temp\cc4us1Pe.s 			page 57


 3165 006c FFF7FEFF 		bl	chCondSignal
 3166              		.loc 7 591 0
 3167 0070 FFF7FEFF 		bl	test_wait_threads
 3168              		.loc 7 592 0
 3169 0074 1149     		ldr	r1, .L207+40
 3170 0076 0120     		movs	r0, #1
 3171 0078 FFF7FEFF 		bl	_test_assert_sequence
 3172 007c 0346     		mov	r3, r0
 3173 007e 002B     		cmp	r3, #0
 3174              		.loc 7 593 0
 3175 0080 044B     		ldr	r3, .L207
 3176 0082 039A     		ldr	r2, [sp, #12]
 3177 0084 1B68     		ldr	r3, [r3]
 3178 0086 9A42     		cmp	r2, r3
 3179 0088 01D0     		beq	.L206
 3180 008a FFF7FEFF 		bl	__stack_chk_fail
 3181              	.L206:
 3182 008e 05B0     		add	sp, sp, #20
 3183              		.cfi_def_cfa_offset 4
 3184              		@ sp needed
 3185 0090 5DF804FB 		ldr	pc, [sp], #4
 3186              	.L208:
 3187              		.align	2
 3188              	.L207:
 3189 0094 00000000 		.word	__stack_chk_guard
 3190 0098 00000000 		.word	wa
 3191 009c 10000000 		.word	.LC4
 3192 00a0 00000000 		.word	thread11
 3193 00a4 00000000 		.word	threads
 3194 00a8 08000000 		.word	.LC2
 3195 00ac 00000000 		.word	thread10
 3196 00b0 0C000000 		.word	.LC3
 3197 00b4 00000000 		.word	thread12
 3198 00b8 00000000 		.word	c1
 3199 00bc 40000000 		.word	.LC7
 3200              		.cfi_endproc
 3201              	.LFE248:
 3202              		.size	mtx8_execute, .-mtx8_execute
 3203              		.global	testmtx8
 3204              		.section	.rodata
 3205              		.align	2
 3206              	.LC14:
 3207 00f8 436F6E64 		.ascii	"CondVar, boost test\000"
 3207      5661722C 
 3207      20626F6F 
 3207      73742074 
 3207      65737400 
 3208              		.section	.rodata.testmtx8,"a",%progbits
 3209              		.align	2
 3210              		.type	testmtx8, %object
 3211              		.size	testmtx8, 16
 3212              	testmtx8:
 3213 0000 F8000000 		.word	.LC14
 3214 0004 00000000 		.word	mtx8_setup
 3215 0008 00000000 		.word	0
 3216 000c 00000000 		.word	mtx8_execute
 3217              		.global	patternmtx
ARM GAS  C:\Users\PCHAUT~1\AppData\Local\Temp\cc4us1Pe.s 			page 58


 3218              		.section	.rodata.patternmtx,"a",%progbits
 3219              		.align	2
 3220              		.type	patternmtx, %object
 3221              		.size	patternmtx, 36
 3222              	patternmtx:
 3223 0000 00000000 		.word	testmtx1
 3224 0004 00000000 		.word	testmtx2
 3225 0008 00000000 		.word	testmtx3
 3226 000c 00000000 		.word	testmtx4
 3227 0010 00000000 		.word	testmtx5
 3228 0014 00000000 		.word	testmtx6
 3229 0018 00000000 		.word	testmtx7
 3230 001c 00000000 		.word	testmtx8
 3231 0020 00000000 		.word	0
 3232              		.section	.rodata.__func__.7153,"a",%progbits
 3233              		.align	2
 3234              		.type	__func__.7153, %object
 3235              		.size	__func__.7153, 12
 3236              	__func__.7153:
 3237 0000 63685379 		.ascii	"chSysUnlock\000"
 3237      73556E6C 
 3237      6F636B00 
 3238              		.text
 3239              	.Letext0:
 3240              		.file 8 "c:\\users\\pchautems\\documents\\robotiquetp\\eclipse_e-puck2\\tools\\gcc-arm-none-eabi-7
 3241              		.file 9 "c:\\users\\pchautems\\documents\\robotiquetp\\eclipse_e-puck2\\tools\\gcc-arm-none-eabi-7
 3242              		.file 10 "c:\\users\\pchautems\\documents\\robotiquetp\\eclipse_e-puck2\\tools\\gcc-arm-none-eabi-
 3243              		.file 11 "../lib/e-puck2_main-processor/ChibiOS//os/rt/ports/ARMCMx/compilers/GCC/chtypes.h"
 3244              		.file 12 "../lib/e-puck2_main-processor/ChibiOS//os/rt/include/chsystypes.h"
 3245              		.file 13 "../lib/e-puck2_main-processor/ChibiOS//os/ext/CMSIS/include/core_cm4.h"
 3246              		.file 14 "../lib/e-puck2_main-processor/ChibiOS//os/ext/CMSIS/ST/system_stm32f4xx.h"
 3247              		.file 15 "../lib/e-puck2_main-processor/ChibiOS//os/rt/ports/ARMCMx/chcore.h"
 3248              		.file 16 "../lib/e-puck2_main-processor/ChibiOS//os/rt/include/chdebug.h"
 3249              		.file 17 "../lib/e-puck2_main-processor/ChibiOS//os/rt/include/chtm.h"
 3250              		.file 18 "../lib/e-puck2_main-processor/ChibiOS//os/rt/include/chstats.h"
 3251              		.file 19 "../lib/e-puck2_main-processor/ChibiOS//os/rt/include/chsem.h"
 3252              		.file 20 "../lib/e-puck2_main-processor/ChibiOS//os/rt/include/chmtx.h"
 3253              		.file 21 "../lib/e-puck2_main-processor/ChibiOS//os/rt/include/chregistry.h"
 3254              		.file 22 "../lib/e-puck2_main-processor/ChibiOS//os/rt/include/chcond.h"
 3255              		.file 23 "../lib/e-puck2_main-processor/ChibiOS//test/rt/test.h"