ARM GAS  C:\Users\PCHAUT~1\AppData\Local\Temp\ccqSs9HN.s 			page 1


   1              		.cpu cortex-m4
   2              		.eabi_attribute 27, 1
   3              		.eabi_attribute 28, 1
   4              		.eabi_attribute 20, 1
   5              		.eabi_attribute 21, 1
   6              		.eabi_attribute 23, 3
   7              		.eabi_attribute 24, 1
   8              		.eabi_attribute 25, 1
   9              		.eabi_attribute 26, 1
  10              		.eabi_attribute 30, 6
  11              		.eabi_attribute 34, 1
  12              		.eabi_attribute 18, 4
  13              		.file	"testmbox.c"
  14              		.text
  15              	.Ltext0:
  16              		.cfi_sections	.debug_frame
  17              		.section	.text.port_lock,"ax",%progbits
  18              		.align	1
  19              		.p2align 4,,15
  20              		.syntax unified
  21              		.thumb
  22              		.thumb_func
  23              		.fpu fpv4-sp-d16
  24              		.type	port_lock, %function
  25              	port_lock:
  26              	.LFB116:
  27              		.file 1 "../lib/e-puck2_main-processor/ChibiOS//os/rt/ports/ARMCMx/chcore_v7m.h"
  28              		.loc 1 444 0
  29              		.cfi_startproc
  30              		@ args = 0, pretend = 0, frame = 8
  31              		@ frame_needed = 0, uses_anonymous_args = 0
  32 0000 00B5     		push	{lr}
  33              		.cfi_def_cfa_offset 4
  34              		.cfi_offset 14, -4
  35 0002 83B0     		sub	sp, sp, #12
  36              		.cfi_def_cfa_offset 16
  37              		.loc 1 444 0
  38 0004 094B     		ldr	r3, .L3
  39 0006 1B68     		ldr	r3, [r3]
  40 0008 0193     		str	r3, [sp, #4]
  41 000a 2023     		movs	r3, #32
  42 000c 0093     		str	r3, [sp]
  43              	.LBB6:
  44              	.LBB7:
  45              		.file 2 "../lib/e-puck2_main-processor/ChibiOS//os/ext/CMSIS/include/core_cmFunc.h"
  46              		.loc 2 546 0
  47 000e 009B     		ldr	r3, [sp]
  48              		.syntax unified
  49              	@ 546 "../lib/e-puck2_main-processor/ChibiOS//os/ext/CMSIS/include/core_cmFunc.h" 1
  50 0010 83F31188 		MSR basepri, r3
  51              	@ 0 "" 2
  52              		.thumb
  53              		.syntax unified
  54              	.LBE7:
  55              	.LBE6:
  56              		.loc 1 451 0
  57 0014 00BF     		nop
ARM GAS  C:\Users\PCHAUT~1\AppData\Local\Temp\ccqSs9HN.s 			page 2


  58 0016 054B     		ldr	r3, .L3
  59 0018 019A     		ldr	r2, [sp, #4]
  60 001a 1B68     		ldr	r3, [r3]
  61 001c 9A42     		cmp	r2, r3
  62 001e 01D0     		beq	.L2
  63 0020 FFF7FEFF 		bl	__stack_chk_fail
  64              	.L2:
  65 0024 03B0     		add	sp, sp, #12
  66              		.cfi_def_cfa_offset 4
  67              		@ sp needed
  68 0026 5DF804FB 		ldr	pc, [sp], #4
  69              	.L4:
  70 002a 00BF     		.align	2
  71              	.L3:
  72 002c 00000000 		.word	__stack_chk_guard
  73              		.cfi_endproc
  74              	.LFE116:
  75              		.size	port_lock, .-port_lock
  76              		.section	.text.port_unlock,"ax",%progbits
  77              		.align	1
  78              		.p2align 4,,15
  79              		.syntax unified
  80              		.thumb
  81              		.thumb_func
  82              		.fpu fpv4-sp-d16
  83              		.type	port_unlock, %function
  84              	port_unlock:
  85              	.LFB117:
  86              		.loc 1 458 0
  87              		.cfi_startproc
  88              		@ args = 0, pretend = 0, frame = 8
  89              		@ frame_needed = 0, uses_anonymous_args = 0
  90 0000 00B5     		push	{lr}
  91              		.cfi_def_cfa_offset 4
  92              		.cfi_offset 14, -4
  93 0002 83B0     		sub	sp, sp, #12
  94              		.cfi_def_cfa_offset 16
  95              		.loc 1 458 0
  96 0004 094B     		ldr	r3, .L7
  97 0006 1B68     		ldr	r3, [r3]
  98 0008 0193     		str	r3, [sp, #4]
  99 000a 0023     		movs	r3, #0
 100 000c 0093     		str	r3, [sp]
 101              	.LBB8:
 102              	.LBB9:
 103              		.loc 2 546 0
 104 000e 009B     		ldr	r3, [sp]
 105              		.syntax unified
 106              	@ 546 "../lib/e-puck2_main-processor/ChibiOS//os/ext/CMSIS/include/core_cmFunc.h" 1
 107 0010 83F31188 		MSR basepri, r3
 108              	@ 0 "" 2
 109              		.thumb
 110              		.syntax unified
 111              	.LBE9:
 112              	.LBE8:
 113              		.loc 1 465 0
 114 0014 00BF     		nop
ARM GAS  C:\Users\PCHAUT~1\AppData\Local\Temp\ccqSs9HN.s 			page 3


 115 0016 054B     		ldr	r3, .L7
 116 0018 019A     		ldr	r2, [sp, #4]
 117 001a 1B68     		ldr	r3, [r3]
 118 001c 9A42     		cmp	r2, r3
 119 001e 01D0     		beq	.L6
 120 0020 FFF7FEFF 		bl	__stack_chk_fail
 121              	.L6:
 122 0024 03B0     		add	sp, sp, #12
 123              		.cfi_def_cfa_offset 4
 124              		@ sp needed
 125 0026 5DF804FB 		ldr	pc, [sp], #4
 126              	.L8:
 127 002a 00BF     		.align	2
 128              	.L7:
 129 002c 00000000 		.word	__stack_chk_guard
 130              		.cfi_endproc
 131              	.LFE117:
 132              		.size	port_unlock, .-port_unlock
 133              		.section	.text.chSysLock,"ax",%progbits
 134              		.align	1
 135              		.p2align 4,,15
 136              		.syntax unified
 137              		.thumb
 138              		.thumb_func
 139              		.fpu fpv4-sp-d16
 140              		.type	chSysLock, %function
 141              	chSysLock:
 142              	.LFB145:
 143              		.file 3 "../lib/e-puck2_main-processor/ChibiOS//os/rt/include/chsys.h"
 144              		.loc 3 346 0
 145              		.cfi_startproc
 146              		@ args = 0, pretend = 0, frame = 8
 147              		@ frame_needed = 0, uses_anonymous_args = 0
 148 0000 00B5     		push	{lr}
 149              		.cfi_def_cfa_offset 4
 150              		.cfi_offset 14, -4
 151 0002 83B0     		sub	sp, sp, #12
 152              		.cfi_def_cfa_offset 16
 153              		.loc 3 346 0
 154 0004 094B     		ldr	r3, .L11
 155 0006 1B68     		ldr	r3, [r3]
 156 0008 0193     		str	r3, [sp, #4]
 157              		.loc 3 348 0
 158 000a FFF7FEFF 		bl	port_lock
 159              		.loc 3 349 0
 160 000e FFF7FEFF 		bl	_stats_start_measure_crit_thd
 161              		.loc 3 350 0
 162 0012 FFF7FEFF 		bl	_dbg_check_lock
 163              		.loc 3 351 0
 164 0016 00BF     		nop
 165 0018 044B     		ldr	r3, .L11
 166 001a 019A     		ldr	r2, [sp, #4]
 167 001c 1B68     		ldr	r3, [r3]
 168 001e 9A42     		cmp	r2, r3
 169 0020 01D0     		beq	.L10
 170 0022 FFF7FEFF 		bl	__stack_chk_fail
 171              	.L10:
ARM GAS  C:\Users\PCHAUT~1\AppData\Local\Temp\ccqSs9HN.s 			page 4


 172 0026 03B0     		add	sp, sp, #12
 173              		.cfi_def_cfa_offset 4
 174              		@ sp needed
 175 0028 5DF804FB 		ldr	pc, [sp], #4
 176              	.L12:
 177              		.align	2
 178              	.L11:
 179 002c 00000000 		.word	__stack_chk_guard
 180              		.cfi_endproc
 181              	.LFE145:
 182              		.size	chSysLock, .-chSysLock
 183              		.section	.text.chSysUnlock,"ax",%progbits
 184              		.align	1
 185              		.p2align 4,,15
 186              		.syntax unified
 187              		.thumb
 188              		.thumb_func
 189              		.fpu fpv4-sp-d16
 190              		.type	chSysUnlock, %function
 191              	chSysUnlock:
 192              	.LFB146:
 193              		.loc 3 358 0
 194              		.cfi_startproc
 195              		@ args = 0, pretend = 0, frame = 8
 196              		@ frame_needed = 0, uses_anonymous_args = 0
 197 0000 00B5     		push	{lr}
 198              		.cfi_def_cfa_offset 4
 199              		.cfi_offset 14, -4
 200 0002 83B0     		sub	sp, sp, #12
 201              		.cfi_def_cfa_offset 16
 202              		.loc 3 358 0
 203 0004 114B     		ldr	r3, .L16
 204 0006 1B68     		ldr	r3, [r3]
 205 0008 0193     		str	r3, [sp, #4]
 206              		.loc 3 360 0
 207 000a FFF7FEFF 		bl	_dbg_check_unlock
 208              		.loc 3 361 0
 209 000e FFF7FEFF 		bl	_stats_stop_measure_crit_thd
 210              		.loc 3 367 0
 211 0012 0F4B     		ldr	r3, .L16+4
 212 0014 1B68     		ldr	r3, [r3]
 213 0016 0E4A     		ldr	r2, .L16+4
 214 0018 9342     		cmp	r3, r2
 215 001a 0AD0     		beq	.L14
 216              		.loc 3 367 0 is_stmt 0 discriminator 2
 217 001c 0C4B     		ldr	r3, .L16+4
 218 001e 9B69     		ldr	r3, [r3, #24]
 219 0020 9A68     		ldr	r2, [r3, #8]
 220 0022 0B4B     		ldr	r3, .L16+4
 221 0024 1B68     		ldr	r3, [r3]
 222 0026 9B68     		ldr	r3, [r3, #8]
 223 0028 9A42     		cmp	r2, r3
 224 002a 02D2     		bcs	.L14
 225              		.loc 3 367 0 discriminator 3
 226 002c 0948     		ldr	r0, .L16+8
 227 002e FFF7FEFF 		bl	chSysHalt
 228              	.L14:
ARM GAS  C:\Users\PCHAUT~1\AppData\Local\Temp\ccqSs9HN.s 			page 5


 229              		.loc 3 371 0 is_stmt 1
 230 0032 FFF7FEFF 		bl	port_unlock
 231              		.loc 3 372 0
 232 0036 00BF     		nop
 233 0038 044B     		ldr	r3, .L16
 234 003a 019A     		ldr	r2, [sp, #4]
 235 003c 1B68     		ldr	r3, [r3]
 236 003e 9A42     		cmp	r2, r3
 237 0040 01D0     		beq	.L15
 238 0042 FFF7FEFF 		bl	__stack_chk_fail
 239              	.L15:
 240 0046 03B0     		add	sp, sp, #12
 241              		.cfi_def_cfa_offset 4
 242              		@ sp needed
 243 0048 5DF804FB 		ldr	pc, [sp], #4
 244              	.L17:
 245              		.align	2
 246              	.L16:
 247 004c 00000000 		.word	__stack_chk_guard
 248 0050 00000000 		.word	ch
 249 0054 00000000 		.word	__func__.7153
 250              		.cfi_endproc
 251              	.LFE146:
 252              		.size	chSysUnlock, .-chSysUnlock
 253              		.section	.text.chSemGetCounterI,"ax",%progbits
 254              		.align	1
 255              		.p2align 4,,15
 256              		.syntax unified
 257              		.thumb
 258              		.thumb_func
 259              		.fpu fpv4-sp-d16
 260              		.type	chSemGetCounterI, %function
 261              	chSemGetCounterI:
 262              	.LFB181:
 263              		.file 4 "../lib/e-puck2_main-processor/ChibiOS//os/rt/include/chsem.h"
 264              		.loc 4 149 0
 265              		.cfi_startproc
 266              		@ args = 0, pretend = 0, frame = 16
 267              		@ frame_needed = 0, uses_anonymous_args = 0
 268 0000 00B5     		push	{lr}
 269              		.cfi_def_cfa_offset 4
 270              		.cfi_offset 14, -4
 271 0002 85B0     		sub	sp, sp, #20
 272              		.cfi_def_cfa_offset 24
 273 0004 0190     		str	r0, [sp, #4]
 274              		.loc 4 149 0
 275 0006 094B     		ldr	r3, .L21
 276 0008 1B68     		ldr	r3, [r3]
 277 000a 0393     		str	r3, [sp, #12]
 278              		.loc 4 151 0
 279 000c FFF7FEFF 		bl	chDbgCheckClassI
 280              		.loc 4 153 0
 281 0010 019B     		ldr	r3, [sp, #4]
 282 0012 9B68     		ldr	r3, [r3, #8]
 283              		.loc 4 154 0
 284 0014 1846     		mov	r0, r3
 285 0016 054B     		ldr	r3, .L21
ARM GAS  C:\Users\PCHAUT~1\AppData\Local\Temp\ccqSs9HN.s 			page 6


 286 0018 039A     		ldr	r2, [sp, #12]
 287 001a 1B68     		ldr	r3, [r3]
 288 001c 9A42     		cmp	r2, r3
 289 001e 01D0     		beq	.L20
 290 0020 FFF7FEFF 		bl	__stack_chk_fail
 291              	.L20:
 292 0024 05B0     		add	sp, sp, #20
 293              		.cfi_def_cfa_offset 4
 294              		@ sp needed
 295 0026 5DF804FB 		ldr	pc, [sp], #4
 296              	.L22:
 297 002a 00BF     		.align	2
 298              	.L21:
 299 002c 00000000 		.word	__stack_chk_guard
 300              		.cfi_endproc
 301              	.LFE181:
 302              		.size	chSemGetCounterI, .-chSemGetCounterI
 303              		.section	.text.chMBGetFreeCountI,"ax",%progbits
 304              		.align	1
 305              		.p2align 4,,15
 306              		.syntax unified
 307              		.thumb
 308              		.thumb_func
 309              		.fpu fpv4-sp-d16
 310              		.type	chMBGetFreeCountI, %function
 311              	chMBGetFreeCountI:
 312              	.LFB204:
 313              		.file 5 "../lib/e-puck2_main-processor/ChibiOS//os/rt/include/chmboxes.h"
 314              		.loc 5 158 0
 315              		.cfi_startproc
 316              		@ args = 0, pretend = 0, frame = 16
 317              		@ frame_needed = 0, uses_anonymous_args = 0
 318 0000 00B5     		push	{lr}
 319              		.cfi_def_cfa_offset 4
 320              		.cfi_offset 14, -4
 321 0002 85B0     		sub	sp, sp, #20
 322              		.cfi_def_cfa_offset 24
 323 0004 0190     		str	r0, [sp, #4]
 324              		.loc 5 158 0
 325 0006 0B4B     		ldr	r3, .L26
 326 0008 1B68     		ldr	r3, [r3]
 327 000a 0393     		str	r3, [sp, #12]
 328              		.loc 5 160 0
 329 000c FFF7FEFF 		bl	chDbgCheckClassI
 330              		.loc 5 162 0
 331 0010 019B     		ldr	r3, [sp, #4]
 332 0012 1C33     		adds	r3, r3, #28
 333 0014 1846     		mov	r0, r3
 334 0016 FFF7FEFF 		bl	chSemGetCounterI
 335 001a 0346     		mov	r3, r0
 336              		.loc 5 163 0
 337 001c 1846     		mov	r0, r3
 338 001e 054B     		ldr	r3, .L26
 339 0020 039A     		ldr	r2, [sp, #12]
 340 0022 1B68     		ldr	r3, [r3]
 341 0024 9A42     		cmp	r2, r3
 342 0026 01D0     		beq	.L25
ARM GAS  C:\Users\PCHAUT~1\AppData\Local\Temp\ccqSs9HN.s 			page 7


 343 0028 FFF7FEFF 		bl	__stack_chk_fail
 344              	.L25:
 345 002c 05B0     		add	sp, sp, #20
 346              		.cfi_def_cfa_offset 4
 347              		@ sp needed
 348 002e 5DF804FB 		ldr	pc, [sp], #4
 349              	.L27:
 350 0032 00BF     		.align	2
 351              	.L26:
 352 0034 00000000 		.word	__stack_chk_guard
 353              		.cfi_endproc
 354              	.LFE204:
 355              		.size	chMBGetFreeCountI, .-chMBGetFreeCountI
 356              		.section	.text.chMBGetUsedCountI,"ax",%progbits
 357              		.align	1
 358              		.p2align 4,,15
 359              		.syntax unified
 360              		.thumb
 361              		.thumb_func
 362              		.fpu fpv4-sp-d16
 363              		.type	chMBGetUsedCountI, %function
 364              	chMBGetUsedCountI:
 365              	.LFB205:
 366              		.loc 5 177 0
 367              		.cfi_startproc
 368              		@ args = 0, pretend = 0, frame = 16
 369              		@ frame_needed = 0, uses_anonymous_args = 0
 370 0000 00B5     		push	{lr}
 371              		.cfi_def_cfa_offset 4
 372              		.cfi_offset 14, -4
 373 0002 85B0     		sub	sp, sp, #20
 374              		.cfi_def_cfa_offset 24
 375 0004 0190     		str	r0, [sp, #4]
 376              		.loc 5 177 0
 377 0006 0B4B     		ldr	r3, .L31
 378 0008 1B68     		ldr	r3, [r3]
 379 000a 0393     		str	r3, [sp, #12]
 380              		.loc 5 179 0
 381 000c FFF7FEFF 		bl	chDbgCheckClassI
 382              		.loc 5 181 0
 383 0010 019B     		ldr	r3, [sp, #4]
 384 0012 1033     		adds	r3, r3, #16
 385 0014 1846     		mov	r0, r3
 386 0016 FFF7FEFF 		bl	chSemGetCounterI
 387 001a 0346     		mov	r3, r0
 388              		.loc 5 182 0
 389 001c 1846     		mov	r0, r3
 390 001e 054B     		ldr	r3, .L31
 391 0020 039A     		ldr	r2, [sp, #12]
 392 0022 1B68     		ldr	r3, [r3]
 393 0024 9A42     		cmp	r2, r3
 394 0026 01D0     		beq	.L30
 395 0028 FFF7FEFF 		bl	__stack_chk_fail
 396              	.L30:
 397 002c 05B0     		add	sp, sp, #20
 398              		.cfi_def_cfa_offset 4
 399              		@ sp needed
ARM GAS  C:\Users\PCHAUT~1\AppData\Local\Temp\ccqSs9HN.s 			page 8


 400 002e 5DF804FB 		ldr	pc, [sp], #4
 401              	.L32:
 402 0032 00BF     		.align	2
 403              	.L31:
 404 0034 00000000 		.word	__stack_chk_guard
 405              		.cfi_endproc
 406              	.LFE205:
 407              		.size	chMBGetUsedCountI, .-chMBGetUsedCountI
 408              		.section	.data.mb1,"aw",%progbits
 409              		.align	2
 410              		.type	mb1, %object
 411              		.size	mb1, 40
 412              	mb1:
 413 0000 00000000 		.word	test
 414 0004 14000000 		.word	test+20
 415 0008 00000000 		.word	test
 416 000c 00000000 		.word	test
 417 0010 10000000 		.word	mb1+16
 418 0014 10000000 		.word	mb1+16
 419 0018 00000000 		.word	0
 420 001c 1C000000 		.word	mb1+28
 421 0020 1C000000 		.word	mb1+28
 422 0024 05000000 		.word	5
 423              		.section	.text.mbox1_setup,"ax",%progbits
 424              		.align	1
 425              		.p2align 4,,15
 426              		.syntax unified
 427              		.thumb
 428              		.thumb_func
 429              		.fpu fpv4-sp-d16
 430              		.type	mbox1_setup, %function
 431              	mbox1_setup:
 432              	.LFB219:
 433              		.file 6 "../lib/e-puck2_main-processor/ChibiOS//test/rt/testmbox.c"
 434              		.loc 6 71 0
 435              		.cfi_startproc
 436              		@ args = 0, pretend = 0, frame = 8
 437              		@ frame_needed = 0, uses_anonymous_args = 0
 438 0000 00B5     		push	{lr}
 439              		.cfi_def_cfa_offset 4
 440              		.cfi_offset 14, -4
 441 0002 83B0     		sub	sp, sp, #12
 442              		.cfi_def_cfa_offset 16
 443              		.loc 6 71 0
 444 0004 094B     		ldr	r3, .L35
 445 0006 1B68     		ldr	r3, [r3]
 446 0008 0193     		str	r3, [sp, #4]
 447              		.loc 6 73 0
 448 000a 0522     		movs	r2, #5
 449 000c 0849     		ldr	r1, .L35+4
 450 000e 0948     		ldr	r0, .L35+8
 451 0010 FFF7FEFF 		bl	chMBObjectInit
 452              		.loc 6 74 0
 453 0014 00BF     		nop
 454 0016 054B     		ldr	r3, .L35
 455 0018 019A     		ldr	r2, [sp, #4]
 456 001a 1B68     		ldr	r3, [r3]
ARM GAS  C:\Users\PCHAUT~1\AppData\Local\Temp\ccqSs9HN.s 			page 9


 457 001c 9A42     		cmp	r2, r3
 458 001e 01D0     		beq	.L34
 459 0020 FFF7FEFF 		bl	__stack_chk_fail
 460              	.L34:
 461 0024 03B0     		add	sp, sp, #12
 462              		.cfi_def_cfa_offset 4
 463              		@ sp needed
 464 0026 5DF804FB 		ldr	pc, [sp], #4
 465              	.L36:
 466 002a 00BF     		.align	2
 467              	.L35:
 468 002c 00000000 		.word	__stack_chk_guard
 469 0030 00000000 		.word	test
 470 0034 00000000 		.word	mb1
 471              		.cfi_endproc
 472              	.LFE219:
 473              		.size	mbox1_setup, .-mbox1_setup
 474              		.section	.rodata
 475              		.align	2
 476              	.LC0:
 477 0000 41424344 		.ascii	"ABCDE\000"
 477      4500
 478              		.section	.text.mbox1_execute,"ax",%progbits
 479              		.align	1
 480              		.p2align 4,,15
 481              		.syntax unified
 482              		.thumb
 483              		.thumb_func
 484              		.fpu fpv4-sp-d16
 485              		.type	mbox1_execute, %function
 486              	mbox1_execute:
 487              	.LFB220:
 488              		.loc 6 76 0
 489              		.cfi_startproc
 490              		@ args = 0, pretend = 0, frame = 16
 491              		@ frame_needed = 0, uses_anonymous_args = 0
 492 0000 00B5     		push	{lr}
 493              		.cfi_def_cfa_offset 4
 494              		.cfi_offset 14, -4
 495 0002 85B0     		sub	sp, sp, #20
 496              		.cfi_def_cfa_offset 24
 497              		.loc 6 76 0
 498 0004 784B     		ldr	r3, .L128
 499 0006 1B68     		ldr	r3, [r3]
 500 0008 0393     		str	r3, [sp, #12]
 501              		.loc 6 83 0
 502 000a FFF7FEFF 		bl	chSysLock
 503 000e 7748     		ldr	r0, .L128+4
 504 0010 FFF7FEFF 		bl	chMBGetFreeCountI
 505 0014 0346     		mov	r3, r0
 506 0016 052B     		cmp	r3, #5
 507 0018 0CBF     		ite	eq
 508 001a 0123     		moveq	r3, #1
 509 001c 0023     		movne	r3, #0
 510 001e DBB2     		uxtb	r3, r3
 511 0020 1946     		mov	r1, r3
 512 0022 0120     		movs	r0, #1
ARM GAS  C:\Users\PCHAUT~1\AppData\Local\Temp\ccqSs9HN.s 			page 10


 513 0024 FFF7FEFF 		bl	_test_assert
 514 0028 0346     		mov	r3, r0
 515 002a 002B     		cmp	r3, #0
 516 002c 03D0     		beq	.L38
 517              		.loc 6 83 0 is_stmt 0 discriminator 1
 518 002e FFF7FEFF 		bl	chSysUnlock
 519 0032 00F033BC 		b	.L37
 520              	.L38:
 521              		.loc 6 83 0 discriminator 2
 522 0036 FFF7FEFF 		bl	chSysUnlock
 523              		.loc 6 88 0 is_stmt 1 discriminator 2
 524 003a 0023     		movs	r3, #0
 525 003c 0193     		str	r3, [sp, #4]
 526 003e 19E0     		b	.L40
 527              	.L42:
 528              		.loc 6 89 0
 529 0040 019B     		ldr	r3, [sp, #4]
 530 0042 4233     		adds	r3, r3, #66
 531 0044 4FF0FF32 		mov	r2, #-1
 532 0048 1946     		mov	r1, r3
 533 004a 6848     		ldr	r0, .L128+4
 534 004c FFF7FEFF 		bl	chMBPost
 535 0050 0290     		str	r0, [sp, #8]
 536              		.loc 6 90 0
 537 0052 029B     		ldr	r3, [sp, #8]
 538 0054 002B     		cmp	r3, #0
 539 0056 0CBF     		ite	eq
 540 0058 0123     		moveq	r3, #1
 541 005a 0023     		movne	r3, #0
 542 005c DBB2     		uxtb	r3, r3
 543 005e 1946     		mov	r1, r3
 544 0060 0220     		movs	r0, #2
 545 0062 FFF7FEFF 		bl	_test_assert
 546 0066 0346     		mov	r3, r0
 547 0068 002B     		cmp	r3, #0
 548 006a 40F0D883 		bne	.L96
 549              		.loc 6 88 0 discriminator 2
 550 006e 019B     		ldr	r3, [sp, #4]
 551 0070 0133     		adds	r3, r3, #1
 552 0072 0193     		str	r3, [sp, #4]
 553              	.L40:
 554              		.loc 6 88 0 is_stmt 0 discriminator 1
 555 0074 019B     		ldr	r3, [sp, #4]
 556 0076 032B     		cmp	r3, #3
 557 0078 E2D9     		bls	.L42
 558              		.loc 6 92 0 is_stmt 1
 559 007a 4FF0FF32 		mov	r2, #-1
 560 007e 4121     		movs	r1, #65
 561 0080 5A48     		ldr	r0, .L128+4
 562 0082 FFF7FEFF 		bl	chMBPostAhead
 563 0086 0290     		str	r0, [sp, #8]
 564              		.loc 6 93 0
 565 0088 029B     		ldr	r3, [sp, #8]
 566 008a 002B     		cmp	r3, #0
 567 008c 0CBF     		ite	eq
 568 008e 0123     		moveq	r3, #1
 569 0090 0023     		movne	r3, #0
ARM GAS  C:\Users\PCHAUT~1\AppData\Local\Temp\ccqSs9HN.s 			page 11


 570 0092 DBB2     		uxtb	r3, r3
 571 0094 1946     		mov	r1, r3
 572 0096 0320     		movs	r0, #3
 573 0098 FFF7FEFF 		bl	_test_assert
 574 009c 0346     		mov	r3, r0
 575 009e 002B     		cmp	r3, #0
 576 00a0 40F0BF83 		bne	.L97
 577              		.loc 6 98 0
 578 00a4 0122     		movs	r2, #1
 579 00a6 5821     		movs	r1, #88
 580 00a8 5048     		ldr	r0, .L128+4
 581 00aa FFF7FEFF 		bl	chMBPost
 582 00ae 0290     		str	r0, [sp, #8]
 583              		.loc 6 99 0
 584 00b0 029B     		ldr	r3, [sp, #8]
 585 00b2 B3F1FF3F 		cmp	r3, #-1
 586 00b6 0CBF     		ite	eq
 587 00b8 0123     		moveq	r3, #1
 588 00ba 0023     		movne	r3, #0
 589 00bc DBB2     		uxtb	r3, r3
 590 00be 1946     		mov	r1, r3
 591 00c0 0420     		movs	r0, #4
 592 00c2 FFF7FEFF 		bl	_test_assert
 593 00c6 0346     		mov	r3, r0
 594 00c8 002B     		cmp	r3, #0
 595 00ca 40F0AC83 		bne	.L98
 596              		.loc 6 100 0
 597 00ce FFF7FEFF 		bl	chSysLock
 598              		.loc 6 101 0
 599 00d2 5821     		movs	r1, #88
 600 00d4 4548     		ldr	r0, .L128+4
 601 00d6 FFF7FEFF 		bl	chMBPostI
 602 00da 0290     		str	r0, [sp, #8]
 603              		.loc 6 102 0
 604 00dc FFF7FEFF 		bl	chSysUnlock
 605              		.loc 6 103 0
 606 00e0 029B     		ldr	r3, [sp, #8]
 607 00e2 B3F1FF3F 		cmp	r3, #-1
 608 00e6 0CBF     		ite	eq
 609 00e8 0123     		moveq	r3, #1
 610 00ea 0023     		movne	r3, #0
 611 00ec DBB2     		uxtb	r3, r3
 612 00ee 1946     		mov	r1, r3
 613 00f0 0520     		movs	r0, #5
 614 00f2 FFF7FEFF 		bl	_test_assert
 615 00f6 0346     		mov	r3, r0
 616 00f8 002B     		cmp	r3, #0
 617 00fa 40F09683 		bne	.L99
 618              		.loc 6 104 0
 619 00fe 0122     		movs	r2, #1
 620 0100 5821     		movs	r1, #88
 621 0102 3A48     		ldr	r0, .L128+4
 622 0104 FFF7FEFF 		bl	chMBPostAhead
 623 0108 0290     		str	r0, [sp, #8]
 624              		.loc 6 105 0
 625 010a 029B     		ldr	r3, [sp, #8]
 626 010c B3F1FF3F 		cmp	r3, #-1
ARM GAS  C:\Users\PCHAUT~1\AppData\Local\Temp\ccqSs9HN.s 			page 12


 627 0110 0CBF     		ite	eq
 628 0112 0123     		moveq	r3, #1
 629 0114 0023     		movne	r3, #0
 630 0116 DBB2     		uxtb	r3, r3
 631 0118 1946     		mov	r1, r3
 632 011a 0620     		movs	r0, #6
 633 011c FFF7FEFF 		bl	_test_assert
 634 0120 0346     		mov	r3, r0
 635 0122 002B     		cmp	r3, #0
 636 0124 40F08383 		bne	.L100
 637              		.loc 6 106 0
 638 0128 FFF7FEFF 		bl	chSysLock
 639              		.loc 6 107 0
 640 012c 5821     		movs	r1, #88
 641 012e 2F48     		ldr	r0, .L128+4
 642 0130 FFF7FEFF 		bl	chMBPostAheadI
 643 0134 0290     		str	r0, [sp, #8]
 644              		.loc 6 108 0
 645 0136 FFF7FEFF 		bl	chSysUnlock
 646              		.loc 6 109 0
 647 013a 029B     		ldr	r3, [sp, #8]
 648 013c B3F1FF3F 		cmp	r3, #-1
 649 0140 0CBF     		ite	eq
 650 0142 0123     		moveq	r3, #1
 651 0144 0023     		movne	r3, #0
 652 0146 DBB2     		uxtb	r3, r3
 653 0148 1946     		mov	r1, r3
 654 014a 0720     		movs	r0, #7
 655 014c FFF7FEFF 		bl	_test_assert
 656 0150 0346     		mov	r3, r0
 657 0152 002B     		cmp	r3, #0
 658 0154 40F06D83 		bne	.L101
 659              		.loc 6 114 0
 660 0158 FFF7FEFF 		bl	chSysLock
 661 015c 2348     		ldr	r0, .L128+4
 662 015e FFF7FEFF 		bl	chMBGetFreeCountI
 663 0162 0346     		mov	r3, r0
 664 0164 002B     		cmp	r3, #0
 665 0166 0CBF     		ite	eq
 666 0168 0123     		moveq	r3, #1
 667 016a 0023     		movne	r3, #0
 668 016c DBB2     		uxtb	r3, r3
 669 016e 1946     		mov	r1, r3
 670 0170 0820     		movs	r0, #8
 671 0172 FFF7FEFF 		bl	_test_assert
 672 0176 0346     		mov	r3, r0
 673 0178 002B     		cmp	r3, #0
 674 017a 02D0     		beq	.L48
 675              		.loc 6 114 0 is_stmt 0 discriminator 1
 676 017c FFF7FEFF 		bl	chSysUnlock
 677 0180 8CE3     		b	.L37
 678              	.L48:
 679              		.loc 6 114 0 discriminator 2
 680 0182 FFF7FEFF 		bl	chSysUnlock
 681              		.loc 6 115 0 is_stmt 1 discriminator 2
 682 0186 FFF7FEFF 		bl	chSysLock
 683 018a 1848     		ldr	r0, .L128+4
ARM GAS  C:\Users\PCHAUT~1\AppData\Local\Temp\ccqSs9HN.s 			page 13


 684 018c FFF7FEFF 		bl	chMBGetUsedCountI
 685 0190 0346     		mov	r3, r0
 686 0192 052B     		cmp	r3, #5
 687 0194 0CBF     		ite	eq
 688 0196 0123     		moveq	r3, #1
 689 0198 0023     		movne	r3, #0
 690 019a DBB2     		uxtb	r3, r3
 691 019c 1946     		mov	r1, r3
 692 019e 0920     		movs	r0, #9
 693 01a0 FFF7FEFF 		bl	_test_assert
 694 01a4 0346     		mov	r3, r0
 695 01a6 002B     		cmp	r3, #0
 696 01a8 02D0     		beq	.L49
 697              		.loc 6 115 0 is_stmt 0 discriminator 1
 698 01aa FFF7FEFF 		bl	chSysUnlock
 699 01ae 75E3     		b	.L37
 700              	.L49:
 701              		.loc 6 115 0 discriminator 2
 702 01b0 FFF7FEFF 		bl	chSysUnlock
 703              		.loc 6 116 0 is_stmt 1 discriminator 2
 704 01b4 FFF7FEFF 		bl	chSysLock
 705 01b8 0C4B     		ldr	r3, .L128+4
 706 01ba DA68     		ldr	r2, [r3, #12]
 707 01bc 0B4B     		ldr	r3, .L128+4
 708 01be 9B68     		ldr	r3, [r3, #8]
 709 01c0 9A42     		cmp	r2, r3
 710 01c2 0CBF     		ite	eq
 711 01c4 0123     		moveq	r3, #1
 712 01c6 0023     		movne	r3, #0
 713 01c8 DBB2     		uxtb	r3, r3
 714 01ca 1946     		mov	r1, r3
 715 01cc 0A20     		movs	r0, #10
 716 01ce FFF7FEFF 		bl	_test_assert
 717 01d2 0346     		mov	r3, r0
 718 01d4 002B     		cmp	r3, #0
 719 01d6 02D0     		beq	.L50
 720              		.loc 6 116 0 is_stmt 0 discriminator 1
 721 01d8 FFF7FEFF 		bl	chSysUnlock
 722 01dc 5EE3     		b	.L37
 723              	.L50:
 724              		.loc 6 116 0 discriminator 2
 725 01de FFF7FEFF 		bl	chSysUnlock
 726              		.loc 6 121 0 is_stmt 1 discriminator 2
 727 01e2 0023     		movs	r3, #0
 728 01e4 0193     		str	r3, [sp, #4]
 729 01e6 21E0     		b	.L51
 730              	.L129:
 731              		.align	2
 732              	.L128:
 733 01e8 00000000 		.word	__stack_chk_guard
 734 01ec 00000000 		.word	mb1
 735              	.L53:
 736              		.loc 6 122 0
 737 01f0 6B46     		mov	r3, sp
 738 01f2 4FF0FF32 		mov	r2, #-1
 739 01f6 1946     		mov	r1, r3
 740 01f8 AF48     		ldr	r0, .L130
ARM GAS  C:\Users\PCHAUT~1\AppData\Local\Temp\ccqSs9HN.s 			page 14


 741 01fa FFF7FEFF 		bl	chMBFetch
 742 01fe 0290     		str	r0, [sp, #8]
 743              		.loc 6 123 0
 744 0200 029B     		ldr	r3, [sp, #8]
 745 0202 002B     		cmp	r3, #0
 746 0204 0CBF     		ite	eq
 747 0206 0123     		moveq	r3, #1
 748 0208 0023     		movne	r3, #0
 749 020a DBB2     		uxtb	r3, r3
 750 020c 1946     		mov	r1, r3
 751 020e 0B20     		movs	r0, #11
 752 0210 FFF7FEFF 		bl	_test_assert
 753 0214 0346     		mov	r3, r0
 754 0216 002B     		cmp	r3, #0
 755 0218 40F00D83 		bne	.L102
 756              		.loc 6 124 0 discriminator 2
 757 021c 009B     		ldr	r3, [sp]
 758 021e DBB2     		uxtb	r3, r3
 759 0220 1846     		mov	r0, r3
 760 0222 FFF7FEFF 		bl	test_emit_token
 761              		.loc 6 121 0 discriminator 2
 762 0226 019B     		ldr	r3, [sp, #4]
 763 0228 0133     		adds	r3, r3, #1
 764 022a 0193     		str	r3, [sp, #4]
 765              	.L51:
 766              		.loc 6 121 0 is_stmt 0 discriminator 1
 767 022c 019B     		ldr	r3, [sp, #4]
 768 022e 042B     		cmp	r3, #4
 769 0230 DED9     		bls	.L53
 770              		.loc 6 126 0 is_stmt 1
 771 0232 A249     		ldr	r1, .L130+4
 772 0234 0C20     		movs	r0, #12
 773 0236 FFF7FEFF 		bl	_test_assert_sequence
 774 023a 0346     		mov	r3, r0
 775 023c 002B     		cmp	r3, #0
 776 023e 40F0FC82 		bne	.L103
 777              		.loc 6 131 0
 778 0242 019B     		ldr	r3, [sp, #4]
 779 0244 4233     		adds	r3, r3, #66
 780 0246 4FF0FF32 		mov	r2, #-1
 781 024a 1946     		mov	r1, r3
 782 024c 9A48     		ldr	r0, .L130
 783 024e FFF7FEFF 		bl	chMBPost
 784 0252 0290     		str	r0, [sp, #8]
 785              		.loc 6 132 0
 786 0254 029B     		ldr	r3, [sp, #8]
 787 0256 002B     		cmp	r3, #0
 788 0258 0CBF     		ite	eq
 789 025a 0123     		moveq	r3, #1
 790 025c 0023     		movne	r3, #0
 791 025e DBB2     		uxtb	r3, r3
 792 0260 1946     		mov	r1, r3
 793 0262 0D20     		movs	r0, #13
 794 0264 FFF7FEFF 		bl	_test_assert
 795 0268 0346     		mov	r3, r0
 796 026a 002B     		cmp	r3, #0
 797 026c 40F0E782 		bne	.L104
ARM GAS  C:\Users\PCHAUT~1\AppData\Local\Temp\ccqSs9HN.s 			page 15


 798              		.loc 6 133 0
 799 0270 6B46     		mov	r3, sp
 800 0272 4FF0FF32 		mov	r2, #-1
 801 0276 1946     		mov	r1, r3
 802 0278 8F48     		ldr	r0, .L130
 803 027a FFF7FEFF 		bl	chMBFetch
 804 027e 0290     		str	r0, [sp, #8]
 805              		.loc 6 134 0
 806 0280 029B     		ldr	r3, [sp, #8]
 807 0282 002B     		cmp	r3, #0
 808 0284 0CBF     		ite	eq
 809 0286 0123     		moveq	r3, #1
 810 0288 0023     		movne	r3, #0
 811 028a DBB2     		uxtb	r3, r3
 812 028c 1946     		mov	r1, r3
 813 028e 0E20     		movs	r0, #14
 814 0290 FFF7FEFF 		bl	_test_assert
 815 0294 0346     		mov	r3, r0
 816 0296 002B     		cmp	r3, #0
 817 0298 40F0D382 		bne	.L105
 818              		.loc 6 135 0
 819 029c 864B     		ldr	r3, .L130
 820 029e 1A68     		ldr	r2, [r3]
 821 02a0 854B     		ldr	r3, .L130
 822 02a2 9B68     		ldr	r3, [r3, #8]
 823 02a4 9A42     		cmp	r2, r3
 824 02a6 0CBF     		ite	eq
 825 02a8 0123     		moveq	r3, #1
 826 02aa 0023     		movne	r3, #0
 827 02ac DBB2     		uxtb	r3, r3
 828 02ae 1946     		mov	r1, r3
 829 02b0 0F20     		movs	r0, #15
 830 02b2 FFF7FEFF 		bl	_test_assert
 831 02b6 0346     		mov	r3, r0
 832 02b8 002B     		cmp	r3, #0
 833 02ba 40F0C482 		bne	.L106
 834              		.loc 6 136 0
 835 02be 7E4B     		ldr	r3, .L130
 836 02c0 1A68     		ldr	r2, [r3]
 837 02c2 7D4B     		ldr	r3, .L130
 838 02c4 DB68     		ldr	r3, [r3, #12]
 839 02c6 9A42     		cmp	r2, r3
 840 02c8 0CBF     		ite	eq
 841 02ca 0123     		moveq	r3, #1
 842 02cc 0023     		movne	r3, #0
 843 02ce DBB2     		uxtb	r3, r3
 844 02d0 1946     		mov	r1, r3
 845 02d2 1020     		movs	r0, #16
 846 02d4 FFF7FEFF 		bl	_test_assert
 847 02d8 0346     		mov	r3, r0
 848 02da 002B     		cmp	r3, #0
 849 02dc 40F0B582 		bne	.L107
 850              		.loc 6 141 0
 851 02e0 6B46     		mov	r3, sp
 852 02e2 0122     		movs	r2, #1
 853 02e4 1946     		mov	r1, r3
 854 02e6 7448     		ldr	r0, .L130
ARM GAS  C:\Users\PCHAUT~1\AppData\Local\Temp\ccqSs9HN.s 			page 16


 855 02e8 FFF7FEFF 		bl	chMBFetch
 856 02ec 0290     		str	r0, [sp, #8]
 857              		.loc 6 142 0
 858 02ee 029B     		ldr	r3, [sp, #8]
 859 02f0 B3F1FF3F 		cmp	r3, #-1
 860 02f4 0CBF     		ite	eq
 861 02f6 0123     		moveq	r3, #1
 862 02f8 0023     		movne	r3, #0
 863 02fa DBB2     		uxtb	r3, r3
 864 02fc 1946     		mov	r1, r3
 865 02fe 1120     		movs	r0, #17
 866 0300 FFF7FEFF 		bl	_test_assert
 867 0304 0346     		mov	r3, r0
 868 0306 002B     		cmp	r3, #0
 869 0308 40F0A182 		bne	.L108
 870              		.loc 6 143 0
 871 030c FFF7FEFF 		bl	chSysLock
 872              		.loc 6 144 0
 873 0310 6B46     		mov	r3, sp
 874 0312 1946     		mov	r1, r3
 875 0314 6848     		ldr	r0, .L130
 876 0316 FFF7FEFF 		bl	chMBFetchI
 877 031a 0290     		str	r0, [sp, #8]
 878              		.loc 6 145 0
 879 031c FFF7FEFF 		bl	chSysUnlock
 880              		.loc 6 146 0
 881 0320 029B     		ldr	r3, [sp, #8]
 882 0322 B3F1FF3F 		cmp	r3, #-1
 883 0326 0CBF     		ite	eq
 884 0328 0123     		moveq	r3, #1
 885 032a 0023     		movne	r3, #0
 886 032c DBB2     		uxtb	r3, r3
 887 032e 1946     		mov	r1, r3
 888 0330 1220     		movs	r0, #18
 889 0332 FFF7FEFF 		bl	_test_assert
 890 0336 0346     		mov	r3, r0
 891 0338 002B     		cmp	r3, #0
 892 033a 40F08A82 		bne	.L109
 893              		.loc 6 151 0
 894 033e FFF7FEFF 		bl	chSysLock
 895 0342 5D48     		ldr	r0, .L130
 896 0344 FFF7FEFF 		bl	chMBGetFreeCountI
 897 0348 0346     		mov	r3, r0
 898 034a 052B     		cmp	r3, #5
 899 034c 0CBF     		ite	eq
 900 034e 0123     		moveq	r3, #1
 901 0350 0023     		movne	r3, #0
 902 0352 DBB2     		uxtb	r3, r3
 903 0354 1946     		mov	r1, r3
 904 0356 1320     		movs	r0, #19
 905 0358 FFF7FEFF 		bl	_test_assert
 906 035c 0346     		mov	r3, r0
 907 035e 002B     		cmp	r3, #0
 908 0360 02D0     		beq	.L61
 909              		.loc 6 151 0 is_stmt 0 discriminator 1
 910 0362 FFF7FEFF 		bl	chSysUnlock
 911 0366 99E2     		b	.L37
ARM GAS  C:\Users\PCHAUT~1\AppData\Local\Temp\ccqSs9HN.s 			page 17


 912              	.L61:
 913              		.loc 6 151 0 discriminator 2
 914 0368 FFF7FEFF 		bl	chSysUnlock
 915              		.loc 6 152 0 is_stmt 1 discriminator 2
 916 036c FFF7FEFF 		bl	chSysLock
 917 0370 5148     		ldr	r0, .L130
 918 0372 FFF7FEFF 		bl	chMBGetUsedCountI
 919 0376 0346     		mov	r3, r0
 920 0378 002B     		cmp	r3, #0
 921 037a 0CBF     		ite	eq
 922 037c 0123     		moveq	r3, #1
 923 037e 0023     		movne	r3, #0
 924 0380 DBB2     		uxtb	r3, r3
 925 0382 1946     		mov	r1, r3
 926 0384 1420     		movs	r0, #20
 927 0386 FFF7FEFF 		bl	_test_assert
 928 038a 0346     		mov	r3, r0
 929 038c 002B     		cmp	r3, #0
 930 038e 02D0     		beq	.L62
 931              		.loc 6 152 0 is_stmt 0 discriminator 1
 932 0390 FFF7FEFF 		bl	chSysUnlock
 933 0394 82E2     		b	.L37
 934              	.L62:
 935              		.loc 6 152 0 discriminator 2
 936 0396 FFF7FEFF 		bl	chSysUnlock
 937              		.loc 6 153 0 is_stmt 1 discriminator 2
 938 039a FFF7FEFF 		bl	chSysLock
 939 039e 464B     		ldr	r3, .L130
 940 03a0 DA68     		ldr	r2, [r3, #12]
 941 03a2 454B     		ldr	r3, .L130
 942 03a4 9B68     		ldr	r3, [r3, #8]
 943 03a6 9A42     		cmp	r2, r3
 944 03a8 0CBF     		ite	eq
 945 03aa 0123     		moveq	r3, #1
 946 03ac 0023     		movne	r3, #0
 947 03ae DBB2     		uxtb	r3, r3
 948 03b0 1946     		mov	r1, r3
 949 03b2 1520     		movs	r0, #21
 950 03b4 FFF7FEFF 		bl	_test_assert
 951 03b8 0346     		mov	r3, r0
 952 03ba 002B     		cmp	r3, #0
 953 03bc 02D0     		beq	.L63
 954              		.loc 6 153 0 is_stmt 0 discriminator 1
 955 03be FFF7FEFF 		bl	chSysUnlock
 956 03c2 6BE2     		b	.L37
 957              	.L63:
 958              		.loc 6 153 0 discriminator 2
 959 03c4 FFF7FEFF 		bl	chSysUnlock
 960              		.loc 6 158 0 is_stmt 1 discriminator 2
 961 03c8 FFF7FEFF 		bl	chSysLock
 962              		.loc 6 159 0 discriminator 2
 963 03cc 4121     		movs	r1, #65
 964 03ce 3A48     		ldr	r0, .L130
 965 03d0 FFF7FEFF 		bl	chMBPostI
 966 03d4 0290     		str	r0, [sp, #8]
 967              		.loc 6 160 0 discriminator 2
 968 03d6 029B     		ldr	r3, [sp, #8]
ARM GAS  C:\Users\PCHAUT~1\AppData\Local\Temp\ccqSs9HN.s 			page 18


 969 03d8 002B     		cmp	r3, #0
 970 03da 0CBF     		ite	eq
 971 03dc 0123     		moveq	r3, #1
 972 03de 0023     		movne	r3, #0
 973 03e0 DBB2     		uxtb	r3, r3
 974 03e2 1946     		mov	r1, r3
 975 03e4 1620     		movs	r0, #22
 976 03e6 FFF7FEFF 		bl	_test_assert
 977 03ea 0346     		mov	r3, r0
 978 03ec 002B     		cmp	r3, #0
 979 03ee 40F03282 		bne	.L110
 980              		.loc 6 161 0
 981 03f2 4221     		movs	r1, #66
 982 03f4 3048     		ldr	r0, .L130
 983 03f6 FFF7FEFF 		bl	chMBPostI
 984 03fa 0290     		str	r0, [sp, #8]
 985              		.loc 6 162 0
 986 03fc 029B     		ldr	r3, [sp, #8]
 987 03fe 002B     		cmp	r3, #0
 988 0400 0CBF     		ite	eq
 989 0402 0123     		moveq	r3, #1
 990 0404 0023     		movne	r3, #0
 991 0406 DBB2     		uxtb	r3, r3
 992 0408 1946     		mov	r1, r3
 993 040a 1720     		movs	r0, #23
 994 040c FFF7FEFF 		bl	_test_assert
 995 0410 0346     		mov	r3, r0
 996 0412 002B     		cmp	r3, #0
 997 0414 40F02182 		bne	.L111
 998              		.loc 6 163 0
 999 0418 4321     		movs	r1, #67
 1000 041a 2748     		ldr	r0, .L130
 1001 041c FFF7FEFF 		bl	chMBPostI
 1002 0420 0290     		str	r0, [sp, #8]
 1003              		.loc 6 164 0
 1004 0422 029B     		ldr	r3, [sp, #8]
 1005 0424 002B     		cmp	r3, #0
 1006 0426 0CBF     		ite	eq
 1007 0428 0123     		moveq	r3, #1
 1008 042a 0023     		movne	r3, #0
 1009 042c DBB2     		uxtb	r3, r3
 1010 042e 1946     		mov	r1, r3
 1011 0430 1820     		movs	r0, #24
 1012 0432 FFF7FEFF 		bl	_test_assert
 1013 0436 0346     		mov	r3, r0
 1014 0438 002B     		cmp	r3, #0
 1015 043a 40F01082 		bne	.L112
 1016              		.loc 6 165 0
 1017 043e 4421     		movs	r1, #68
 1018 0440 1D48     		ldr	r0, .L130
 1019 0442 FFF7FEFF 		bl	chMBPostI
 1020 0446 0290     		str	r0, [sp, #8]
 1021              		.loc 6 166 0
 1022 0448 029B     		ldr	r3, [sp, #8]
 1023 044a 002B     		cmp	r3, #0
 1024 044c 0CBF     		ite	eq
 1025 044e 0123     		moveq	r3, #1
ARM GAS  C:\Users\PCHAUT~1\AppData\Local\Temp\ccqSs9HN.s 			page 19


 1026 0450 0023     		movne	r3, #0
 1027 0452 DBB2     		uxtb	r3, r3
 1028 0454 1946     		mov	r1, r3
 1029 0456 1920     		movs	r0, #25
 1030 0458 FFF7FEFF 		bl	_test_assert
 1031 045c 0346     		mov	r3, r0
 1032 045e 002B     		cmp	r3, #0
 1033 0460 40F0FF81 		bne	.L113
 1034              		.loc 6 167 0
 1035 0464 4521     		movs	r1, #69
 1036 0466 1448     		ldr	r0, .L130
 1037 0468 FFF7FEFF 		bl	chMBPostI
 1038 046c 0290     		str	r0, [sp, #8]
 1039              		.loc 6 168 0
 1040 046e FFF7FEFF 		bl	chSysUnlock
 1041              		.loc 6 169 0
 1042 0472 029B     		ldr	r3, [sp, #8]
 1043 0474 002B     		cmp	r3, #0
 1044 0476 0CBF     		ite	eq
 1045 0478 0123     		moveq	r3, #1
 1046 047a 0023     		movne	r3, #0
 1047 047c DBB2     		uxtb	r3, r3
 1048 047e 1946     		mov	r1, r3
 1049 0480 1A20     		movs	r0, #26
 1050 0482 FFF7FEFF 		bl	_test_assert
 1051 0486 0346     		mov	r3, r0
 1052 0488 002B     		cmp	r3, #0
 1053 048a 40F0EC81 		bne	.L114
 1054              		.loc 6 170 0
 1055 048e 0A4B     		ldr	r3, .L130
 1056 0490 DA68     		ldr	r2, [r3, #12]
 1057 0492 094B     		ldr	r3, .L130
 1058 0494 9B68     		ldr	r3, [r3, #8]
 1059 0496 9A42     		cmp	r2, r3
 1060 0498 0CBF     		ite	eq
 1061 049a 0123     		moveq	r3, #1
 1062 049c 0023     		movne	r3, #0
 1063 049e DBB2     		uxtb	r3, r3
 1064 04a0 1946     		mov	r1, r3
 1065 04a2 1B20     		movs	r0, #27
 1066 04a4 FFF7FEFF 		bl	_test_assert
 1067 04a8 0346     		mov	r3, r0
 1068 04aa 002B     		cmp	r3, #0
 1069 04ac 40F0DD81 		bne	.L115
 1070              		.loc 6 171 0
 1071 04b0 0023     		movs	r3, #0
 1072 04b2 0193     		str	r3, [sp, #4]
 1073 04b4 24E0     		b	.L70
 1074              	.L131:
 1075 04b6 00BF     		.align	2
 1076              	.L130:
 1077 04b8 00000000 		.word	mb1
 1078 04bc 00000000 		.word	.LC0
 1079              	.L72:
 1080              		.loc 6 172 0
 1081 04c0 FFF7FEFF 		bl	chSysLock
 1082              		.loc 6 173 0
ARM GAS  C:\Users\PCHAUT~1\AppData\Local\Temp\ccqSs9HN.s 			page 20


 1083 04c4 6B46     		mov	r3, sp
 1084 04c6 1946     		mov	r1, r3
 1085 04c8 BA48     		ldr	r0, .L132
 1086 04ca FFF7FEFF 		bl	chMBFetchI
 1087 04ce 0290     		str	r0, [sp, #8]
 1088              		.loc 6 174 0
 1089 04d0 FFF7FEFF 		bl	chSysUnlock
 1090              		.loc 6 175 0
 1091 04d4 029B     		ldr	r3, [sp, #8]
 1092 04d6 002B     		cmp	r3, #0
 1093 04d8 0CBF     		ite	eq
 1094 04da 0123     		moveq	r3, #1
 1095 04dc 0023     		movne	r3, #0
 1096 04de DBB2     		uxtb	r3, r3
 1097 04e0 1946     		mov	r1, r3
 1098 04e2 1C20     		movs	r0, #28
 1099 04e4 FFF7FEFF 		bl	_test_assert
 1100 04e8 0346     		mov	r3, r0
 1101 04ea 002B     		cmp	r3, #0
 1102 04ec 40F0BF81 		bne	.L116
 1103              		.loc 6 176 0 discriminator 2
 1104 04f0 009B     		ldr	r3, [sp]
 1105 04f2 DBB2     		uxtb	r3, r3
 1106 04f4 1846     		mov	r0, r3
 1107 04f6 FFF7FEFF 		bl	test_emit_token
 1108              		.loc 6 171 0 discriminator 2
 1109 04fa 019B     		ldr	r3, [sp, #4]
 1110 04fc 0133     		adds	r3, r3, #1
 1111 04fe 0193     		str	r3, [sp, #4]
 1112              	.L70:
 1113              		.loc 6 171 0 is_stmt 0 discriminator 1
 1114 0500 019B     		ldr	r3, [sp, #4]
 1115 0502 042B     		cmp	r3, #4
 1116 0504 DCD9     		bls	.L72
 1117              		.loc 6 178 0 is_stmt 1
 1118 0506 AC49     		ldr	r1, .L132+4
 1119 0508 1D20     		movs	r0, #29
 1120 050a FFF7FEFF 		bl	_test_assert_sequence
 1121 050e 0346     		mov	r3, r0
 1122 0510 002B     		cmp	r3, #0
 1123 0512 40F0AE81 		bne	.L117
 1124              		.loc 6 179 0
 1125 0516 FFF7FEFF 		bl	chSysLock
 1126 051a A648     		ldr	r0, .L132
 1127 051c FFF7FEFF 		bl	chMBGetFreeCountI
 1128 0520 0346     		mov	r3, r0
 1129 0522 052B     		cmp	r3, #5
 1130 0524 0CBF     		ite	eq
 1131 0526 0123     		moveq	r3, #1
 1132 0528 0023     		movne	r3, #0
 1133 052a DBB2     		uxtb	r3, r3
 1134 052c 1946     		mov	r1, r3
 1135 052e 1E20     		movs	r0, #30
 1136 0530 FFF7FEFF 		bl	_test_assert
 1137 0534 0346     		mov	r3, r0
 1138 0536 002B     		cmp	r3, #0
 1139 0538 02D0     		beq	.L74
ARM GAS  C:\Users\PCHAUT~1\AppData\Local\Temp\ccqSs9HN.s 			page 21


 1140              		.loc 6 179 0 is_stmt 0 discriminator 1
 1141 053a FFF7FEFF 		bl	chSysUnlock
 1142 053e ADE1     		b	.L37
 1143              	.L74:
 1144              		.loc 6 179 0 discriminator 2
 1145 0540 FFF7FEFF 		bl	chSysUnlock
 1146              		.loc 6 180 0 is_stmt 1 discriminator 2
 1147 0544 FFF7FEFF 		bl	chSysLock
 1148 0548 9A48     		ldr	r0, .L132
 1149 054a FFF7FEFF 		bl	chMBGetUsedCountI
 1150 054e 0346     		mov	r3, r0
 1151 0550 002B     		cmp	r3, #0
 1152 0552 0CBF     		ite	eq
 1153 0554 0123     		moveq	r3, #1
 1154 0556 0023     		movne	r3, #0
 1155 0558 DBB2     		uxtb	r3, r3
 1156 055a 1946     		mov	r1, r3
 1157 055c 1F20     		movs	r0, #31
 1158 055e FFF7FEFF 		bl	_test_assert
 1159 0562 0346     		mov	r3, r0
 1160 0564 002B     		cmp	r3, #0
 1161 0566 02D0     		beq	.L75
 1162              		.loc 6 180 0 is_stmt 0 discriminator 1
 1163 0568 FFF7FEFF 		bl	chSysUnlock
 1164 056c 96E1     		b	.L37
 1165              	.L75:
 1166              		.loc 6 180 0 discriminator 2
 1167 056e FFF7FEFF 		bl	chSysUnlock
 1168              		.loc 6 181 0 is_stmt 1 discriminator 2
 1169 0572 904B     		ldr	r3, .L132
 1170 0574 DA68     		ldr	r2, [r3, #12]
 1171 0576 8F4B     		ldr	r3, .L132
 1172 0578 9B68     		ldr	r3, [r3, #8]
 1173 057a 9A42     		cmp	r2, r3
 1174 057c 0CBF     		ite	eq
 1175 057e 0123     		moveq	r3, #1
 1176 0580 0023     		movne	r3, #0
 1177 0582 DBB2     		uxtb	r3, r3
 1178 0584 1946     		mov	r1, r3
 1179 0586 2020     		movs	r0, #32
 1180 0588 FFF7FEFF 		bl	_test_assert
 1181 058c 0346     		mov	r3, r0
 1182 058e 002B     		cmp	r3, #0
 1183 0590 40F07181 		bne	.L118
 1184              		.loc 6 183 0
 1185 0594 FFF7FEFF 		bl	chSysLock
 1186              		.loc 6 184 0
 1187 0598 4521     		movs	r1, #69
 1188 059a 8648     		ldr	r0, .L132
 1189 059c FFF7FEFF 		bl	chMBPostAheadI
 1190 05a0 0290     		str	r0, [sp, #8]
 1191              		.loc 6 185 0
 1192 05a2 029B     		ldr	r3, [sp, #8]
 1193 05a4 002B     		cmp	r3, #0
 1194 05a6 0CBF     		ite	eq
 1195 05a8 0123     		moveq	r3, #1
 1196 05aa 0023     		movne	r3, #0
ARM GAS  C:\Users\PCHAUT~1\AppData\Local\Temp\ccqSs9HN.s 			page 22


 1197 05ac DBB2     		uxtb	r3, r3
 1198 05ae 1946     		mov	r1, r3
 1199 05b0 2120     		movs	r0, #33
 1200 05b2 FFF7FEFF 		bl	_test_assert
 1201 05b6 0346     		mov	r3, r0
 1202 05b8 002B     		cmp	r3, #0
 1203 05ba 40F05E81 		bne	.L119
 1204              		.loc 6 186 0
 1205 05be 4421     		movs	r1, #68
 1206 05c0 7C48     		ldr	r0, .L132
 1207 05c2 FFF7FEFF 		bl	chMBPostAheadI
 1208 05c6 0290     		str	r0, [sp, #8]
 1209              		.loc 6 187 0
 1210 05c8 029B     		ldr	r3, [sp, #8]
 1211 05ca 002B     		cmp	r3, #0
 1212 05cc 0CBF     		ite	eq
 1213 05ce 0123     		moveq	r3, #1
 1214 05d0 0023     		movne	r3, #0
 1215 05d2 DBB2     		uxtb	r3, r3
 1216 05d4 1946     		mov	r1, r3
 1217 05d6 2220     		movs	r0, #34
 1218 05d8 FFF7FEFF 		bl	_test_assert
 1219 05dc 0346     		mov	r3, r0
 1220 05de 002B     		cmp	r3, #0
 1221 05e0 40F04D81 		bne	.L120
 1222              		.loc 6 188 0
 1223 05e4 4321     		movs	r1, #67
 1224 05e6 7348     		ldr	r0, .L132
 1225 05e8 FFF7FEFF 		bl	chMBPostAheadI
 1226 05ec 0290     		str	r0, [sp, #8]
 1227              		.loc 6 189 0
 1228 05ee 029B     		ldr	r3, [sp, #8]
 1229 05f0 002B     		cmp	r3, #0
 1230 05f2 0CBF     		ite	eq
 1231 05f4 0123     		moveq	r3, #1
 1232 05f6 0023     		movne	r3, #0
 1233 05f8 DBB2     		uxtb	r3, r3
 1234 05fa 1946     		mov	r1, r3
 1235 05fc 2320     		movs	r0, #35
 1236 05fe FFF7FEFF 		bl	_test_assert
 1237 0602 0346     		mov	r3, r0
 1238 0604 002B     		cmp	r3, #0
 1239 0606 40F03C81 		bne	.L121
 1240              		.loc 6 190 0
 1241 060a 4221     		movs	r1, #66
 1242 060c 6948     		ldr	r0, .L132
 1243 060e FFF7FEFF 		bl	chMBPostAheadI
 1244 0612 0290     		str	r0, [sp, #8]
 1245              		.loc 6 191 0
 1246 0614 029B     		ldr	r3, [sp, #8]
 1247 0616 002B     		cmp	r3, #0
 1248 0618 0CBF     		ite	eq
 1249 061a 0123     		moveq	r3, #1
 1250 061c 0023     		movne	r3, #0
 1251 061e DBB2     		uxtb	r3, r3
 1252 0620 1946     		mov	r1, r3
 1253 0622 2420     		movs	r0, #36
ARM GAS  C:\Users\PCHAUT~1\AppData\Local\Temp\ccqSs9HN.s 			page 23


 1254 0624 FFF7FEFF 		bl	_test_assert
 1255 0628 0346     		mov	r3, r0
 1256 062a 002B     		cmp	r3, #0
 1257 062c 40F02B81 		bne	.L122
 1258              		.loc 6 192 0
 1259 0630 4121     		movs	r1, #65
 1260 0632 6048     		ldr	r0, .L132
 1261 0634 FFF7FEFF 		bl	chMBPostAheadI
 1262 0638 0290     		str	r0, [sp, #8]
 1263              		.loc 6 193 0
 1264 063a FFF7FEFF 		bl	chSysUnlock
 1265              		.loc 6 194 0
 1266 063e 029B     		ldr	r3, [sp, #8]
 1267 0640 002B     		cmp	r3, #0
 1268 0642 0CBF     		ite	eq
 1269 0644 0123     		moveq	r3, #1
 1270 0646 0023     		movne	r3, #0
 1271 0648 DBB2     		uxtb	r3, r3
 1272 064a 1946     		mov	r1, r3
 1273 064c 2520     		movs	r0, #37
 1274 064e FFF7FEFF 		bl	_test_assert
 1275 0652 0346     		mov	r3, r0
 1276 0654 002B     		cmp	r3, #0
 1277 0656 40F01881 		bne	.L123
 1278              		.loc 6 195 0
 1279 065a 564B     		ldr	r3, .L132
 1280 065c DA68     		ldr	r2, [r3, #12]
 1281 065e 554B     		ldr	r3, .L132
 1282 0660 9B68     		ldr	r3, [r3, #8]
 1283 0662 9A42     		cmp	r2, r3
 1284 0664 0CBF     		ite	eq
 1285 0666 0123     		moveq	r3, #1
 1286 0668 0023     		movne	r3, #0
 1287 066a DBB2     		uxtb	r3, r3
 1288 066c 1946     		mov	r1, r3
 1289 066e 2620     		movs	r0, #38
 1290 0670 FFF7FEFF 		bl	_test_assert
 1291 0674 0346     		mov	r3, r0
 1292 0676 002B     		cmp	r3, #0
 1293 0678 40F00981 		bne	.L124
 1294              		.loc 6 196 0
 1295 067c 0023     		movs	r3, #0
 1296 067e 0193     		str	r3, [sp, #4]
 1297 0680 1FE0     		b	.L83
 1298              	.L85:
 1299              		.loc 6 197 0
 1300 0682 FFF7FEFF 		bl	chSysLock
 1301              		.loc 6 198 0
 1302 0686 6B46     		mov	r3, sp
 1303 0688 1946     		mov	r1, r3
 1304 068a 4A48     		ldr	r0, .L132
 1305 068c FFF7FEFF 		bl	chMBFetchI
 1306 0690 0290     		str	r0, [sp, #8]
 1307              		.loc 6 199 0
 1308 0692 FFF7FEFF 		bl	chSysUnlock
 1309              		.loc 6 200 0
 1310 0696 029B     		ldr	r3, [sp, #8]
ARM GAS  C:\Users\PCHAUT~1\AppData\Local\Temp\ccqSs9HN.s 			page 24


 1311 0698 002B     		cmp	r3, #0
 1312 069a 0CBF     		ite	eq
 1313 069c 0123     		moveq	r3, #1
 1314 069e 0023     		movne	r3, #0
 1315 06a0 DBB2     		uxtb	r3, r3
 1316 06a2 1946     		mov	r1, r3
 1317 06a4 2720     		movs	r0, #39
 1318 06a6 FFF7FEFF 		bl	_test_assert
 1319 06aa 0346     		mov	r3, r0
 1320 06ac 002B     		cmp	r3, #0
 1321 06ae 40F0F080 		bne	.L125
 1322              		.loc 6 201 0 discriminator 2
 1323 06b2 009B     		ldr	r3, [sp]
 1324 06b4 DBB2     		uxtb	r3, r3
 1325 06b6 1846     		mov	r0, r3
 1326 06b8 FFF7FEFF 		bl	test_emit_token
 1327              		.loc 6 196 0 discriminator 2
 1328 06bc 019B     		ldr	r3, [sp, #4]
 1329 06be 0133     		adds	r3, r3, #1
 1330 06c0 0193     		str	r3, [sp, #4]
 1331              	.L83:
 1332              		.loc 6 196 0 is_stmt 0 discriminator 1
 1333 06c2 019B     		ldr	r3, [sp, #4]
 1334 06c4 042B     		cmp	r3, #4
 1335 06c6 DCD9     		bls	.L85
 1336              		.loc 6 203 0 is_stmt 1
 1337 06c8 3B49     		ldr	r1, .L132+4
 1338 06ca 2820     		movs	r0, #40
 1339 06cc FFF7FEFF 		bl	_test_assert_sequence
 1340 06d0 0346     		mov	r3, r0
 1341 06d2 002B     		cmp	r3, #0
 1342 06d4 40F0DF80 		bne	.L126
 1343              		.loc 6 204 0
 1344 06d8 FFF7FEFF 		bl	chSysLock
 1345 06dc 3548     		ldr	r0, .L132
 1346 06de FFF7FEFF 		bl	chMBGetFreeCountI
 1347 06e2 0346     		mov	r3, r0
 1348 06e4 052B     		cmp	r3, #5
 1349 06e6 0CBF     		ite	eq
 1350 06e8 0123     		moveq	r3, #1
 1351 06ea 0023     		movne	r3, #0
 1352 06ec DBB2     		uxtb	r3, r3
 1353 06ee 1946     		mov	r1, r3
 1354 06f0 2920     		movs	r0, #41
 1355 06f2 FFF7FEFF 		bl	_test_assert
 1356 06f6 0346     		mov	r3, r0
 1357 06f8 002B     		cmp	r3, #0
 1358 06fa 02D0     		beq	.L87
 1359              		.loc 6 204 0 is_stmt 0 discriminator 1
 1360 06fc FFF7FEFF 		bl	chSysUnlock
 1361 0700 CCE0     		b	.L37
 1362              	.L87:
 1363              		.loc 6 204 0 discriminator 2
 1364 0702 FFF7FEFF 		bl	chSysUnlock
 1365              		.loc 6 205 0 is_stmt 1 discriminator 2
 1366 0706 FFF7FEFF 		bl	chSysLock
 1367 070a 2A48     		ldr	r0, .L132
ARM GAS  C:\Users\PCHAUT~1\AppData\Local\Temp\ccqSs9HN.s 			page 25


 1368 070c FFF7FEFF 		bl	chMBGetUsedCountI
 1369 0710 0346     		mov	r3, r0
 1370 0712 002B     		cmp	r3, #0
 1371 0714 0CBF     		ite	eq
 1372 0716 0123     		moveq	r3, #1
 1373 0718 0023     		movne	r3, #0
 1374 071a DBB2     		uxtb	r3, r3
 1375 071c 1946     		mov	r1, r3
 1376 071e 2A20     		movs	r0, #42
 1377 0720 FFF7FEFF 		bl	_test_assert
 1378 0724 0346     		mov	r3, r0
 1379 0726 002B     		cmp	r3, #0
 1380 0728 02D0     		beq	.L88
 1381              		.loc 6 205 0 is_stmt 0 discriminator 1
 1382 072a FFF7FEFF 		bl	chSysUnlock
 1383 072e B5E0     		b	.L37
 1384              	.L88:
 1385              		.loc 6 205 0 discriminator 2
 1386 0730 FFF7FEFF 		bl	chSysUnlock
 1387              		.loc 6 206 0 is_stmt 1 discriminator 2
 1388 0734 1F4B     		ldr	r3, .L132
 1389 0736 DA68     		ldr	r2, [r3, #12]
 1390 0738 1E4B     		ldr	r3, .L132
 1391 073a 9B68     		ldr	r3, [r3, #8]
 1392 073c 9A42     		cmp	r2, r3
 1393 073e 0CBF     		ite	eq
 1394 0740 0123     		moveq	r3, #1
 1395 0742 0023     		movne	r3, #0
 1396 0744 DBB2     		uxtb	r3, r3
 1397 0746 1946     		mov	r1, r3
 1398 0748 2B20     		movs	r0, #43
 1399 074a FFF7FEFF 		bl	_test_assert
 1400 074e 0346     		mov	r3, r0
 1401 0750 002B     		cmp	r3, #0
 1402 0752 40F0A280 		bne	.L127
 1403              		.loc 6 211 0
 1404 0756 1748     		ldr	r0, .L132
 1405 0758 FFF7FEFF 		bl	chMBReset
 1406              		.loc 6 216 0
 1407 075c FFF7FEFF 		bl	chSysLock
 1408 0760 1448     		ldr	r0, .L132
 1409 0762 FFF7FEFF 		bl	chMBGetFreeCountI
 1410 0766 0346     		mov	r3, r0
 1411 0768 052B     		cmp	r3, #5
 1412 076a 0CBF     		ite	eq
 1413 076c 0123     		moveq	r3, #1
 1414 076e 0023     		movne	r3, #0
 1415 0770 DBB2     		uxtb	r3, r3
 1416 0772 1946     		mov	r1, r3
 1417 0774 2C20     		movs	r0, #44
 1418 0776 FFF7FEFF 		bl	_test_assert
 1419 077a 0346     		mov	r3, r0
 1420 077c 002B     		cmp	r3, #0
 1421 077e 02D0     		beq	.L90
 1422              		.loc 6 216 0 is_stmt 0 discriminator 1
 1423 0780 FFF7FEFF 		bl	chSysUnlock
 1424 0784 8AE0     		b	.L37
ARM GAS  C:\Users\PCHAUT~1\AppData\Local\Temp\ccqSs9HN.s 			page 26


 1425              	.L90:
 1426              		.loc 6 216 0 discriminator 2
 1427 0786 FFF7FEFF 		bl	chSysUnlock
 1428              		.loc 6 217 0 is_stmt 1 discriminator 2
 1429 078a FFF7FEFF 		bl	chSysLock
 1430 078e 0948     		ldr	r0, .L132
 1431 0790 FFF7FEFF 		bl	chMBGetUsedCountI
 1432 0794 0346     		mov	r3, r0
 1433 0796 002B     		cmp	r3, #0
 1434 0798 0CBF     		ite	eq
 1435 079a 0123     		moveq	r3, #1
 1436 079c 0023     		movne	r3, #0
 1437 079e DBB2     		uxtb	r3, r3
 1438 07a0 1946     		mov	r1, r3
 1439 07a2 2D20     		movs	r0, #45
 1440 07a4 FFF7FEFF 		bl	_test_assert
 1441 07a8 0346     		mov	r3, r0
 1442 07aa 002B     		cmp	r3, #0
 1443 07ac 06D0     		beq	.L91
 1444              		.loc 6 217 0 is_stmt 0 discriminator 1
 1445 07ae FFF7FEFF 		bl	chSysUnlock
 1446 07b2 73E0     		b	.L37
 1447              	.L133:
 1448              		.align	2
 1449              	.L132:
 1450 07b4 00000000 		.word	mb1
 1451 07b8 00000000 		.word	.LC0
 1452              	.L91:
 1453              		.loc 6 217 0 discriminator 2
 1454 07bc FFF7FEFF 		bl	chSysUnlock
 1455              		.loc 6 218 0 is_stmt 1 discriminator 2
 1456 07c0 FFF7FEFF 		bl	chSysLock
 1457 07c4 3A4B     		ldr	r3, .L134
 1458 07c6 1A68     		ldr	r2, [r3]
 1459 07c8 394B     		ldr	r3, .L134
 1460 07ca 9B68     		ldr	r3, [r3, #8]
 1461 07cc 9A42     		cmp	r2, r3
 1462 07ce 0CBF     		ite	eq
 1463 07d0 0123     		moveq	r3, #1
 1464 07d2 0023     		movne	r3, #0
 1465 07d4 DBB2     		uxtb	r3, r3
 1466 07d6 1946     		mov	r1, r3
 1467 07d8 2E20     		movs	r0, #46
 1468 07da FFF7FEFF 		bl	_test_assert
 1469 07de 0346     		mov	r3, r0
 1470 07e0 002B     		cmp	r3, #0
 1471 07e2 02D0     		beq	.L92
 1472              		.loc 6 218 0 is_stmt 0 discriminator 1
 1473 07e4 FFF7FEFF 		bl	chSysUnlock
 1474 07e8 58E0     		b	.L37
 1475              	.L92:
 1476              		.loc 6 218 0 discriminator 2
 1477 07ea FFF7FEFF 		bl	chSysUnlock
 1478              		.loc 6 219 0 is_stmt 1 discriminator 2
 1479 07ee FFF7FEFF 		bl	chSysLock
 1480 07f2 2F4B     		ldr	r3, .L134
 1481 07f4 1A68     		ldr	r2, [r3]
ARM GAS  C:\Users\PCHAUT~1\AppData\Local\Temp\ccqSs9HN.s 			page 27


 1482 07f6 2E4B     		ldr	r3, .L134
 1483 07f8 DB68     		ldr	r3, [r3, #12]
 1484 07fa 9A42     		cmp	r2, r3
 1485 07fc 0CBF     		ite	eq
 1486 07fe 0123     		moveq	r3, #1
 1487 0800 0023     		movne	r3, #0
 1488 0802 DBB2     		uxtb	r3, r3
 1489 0804 1946     		mov	r1, r3
 1490 0806 2F20     		movs	r0, #47
 1491 0808 FFF7FEFF 		bl	_test_assert
 1492 080c 0346     		mov	r3, r0
 1493 080e 002B     		cmp	r3, #0
 1494 0810 02D0     		beq	.L93
 1495              		.loc 6 219 0 is_stmt 0 discriminator 1
 1496 0812 FFF7FEFF 		bl	chSysUnlock
 1497 0816 41E0     		b	.L37
 1498              	.L93:
 1499              		.loc 6 219 0 discriminator 2
 1500 0818 FFF7FEFF 		bl	chSysUnlock
 1501 081c 3EE0     		b	.L37
 1502              	.L96:
 1503              		.loc 6 90 0 is_stmt 1
 1504 081e 00BF     		nop
 1505 0820 3CE0     		b	.L37
 1506              	.L97:
 1507              		.loc 6 93 0
 1508 0822 00BF     		nop
 1509 0824 3AE0     		b	.L37
 1510              	.L98:
 1511              		.loc 6 99 0
 1512 0826 00BF     		nop
 1513 0828 38E0     		b	.L37
 1514              	.L99:
 1515              		.loc 6 103 0
 1516 082a 00BF     		nop
 1517 082c 36E0     		b	.L37
 1518              	.L100:
 1519              		.loc 6 105 0
 1520 082e 00BF     		nop
 1521 0830 34E0     		b	.L37
 1522              	.L101:
 1523              		.loc 6 109 0
 1524 0832 00BF     		nop
 1525 0834 32E0     		b	.L37
 1526              	.L102:
 1527              		.loc 6 123 0
 1528 0836 00BF     		nop
 1529 0838 30E0     		b	.L37
 1530              	.L103:
 1531              		.loc 6 126 0
 1532 083a 00BF     		nop
 1533 083c 2EE0     		b	.L37
 1534              	.L104:
 1535              		.loc 6 132 0
 1536 083e 00BF     		nop
 1537 0840 2CE0     		b	.L37
 1538              	.L105:
ARM GAS  C:\Users\PCHAUT~1\AppData\Local\Temp\ccqSs9HN.s 			page 28


 1539              		.loc 6 134 0
 1540 0842 00BF     		nop
 1541 0844 2AE0     		b	.L37
 1542              	.L106:
 1543              		.loc 6 135 0
 1544 0846 00BF     		nop
 1545 0848 28E0     		b	.L37
 1546              	.L107:
 1547              		.loc 6 136 0
 1548 084a 00BF     		nop
 1549 084c 26E0     		b	.L37
 1550              	.L108:
 1551              		.loc 6 142 0
 1552 084e 00BF     		nop
 1553 0850 24E0     		b	.L37
 1554              	.L109:
 1555              		.loc 6 146 0
 1556 0852 00BF     		nop
 1557 0854 22E0     		b	.L37
 1558              	.L110:
 1559              		.loc 6 160 0
 1560 0856 00BF     		nop
 1561 0858 20E0     		b	.L37
 1562              	.L111:
 1563              		.loc 6 162 0
 1564 085a 00BF     		nop
 1565 085c 1EE0     		b	.L37
 1566              	.L112:
 1567              		.loc 6 164 0
 1568 085e 00BF     		nop
 1569 0860 1CE0     		b	.L37
 1570              	.L113:
 1571              		.loc 6 166 0
 1572 0862 00BF     		nop
 1573 0864 1AE0     		b	.L37
 1574              	.L114:
 1575              		.loc 6 169 0
 1576 0866 00BF     		nop
 1577 0868 18E0     		b	.L37
 1578              	.L115:
 1579              		.loc 6 170 0
 1580 086a 00BF     		nop
 1581 086c 16E0     		b	.L37
 1582              	.L116:
 1583              		.loc 6 175 0
 1584 086e 00BF     		nop
 1585 0870 14E0     		b	.L37
 1586              	.L117:
 1587              		.loc 6 178 0
 1588 0872 00BF     		nop
 1589 0874 12E0     		b	.L37
 1590              	.L118:
 1591              		.loc 6 181 0
 1592 0876 00BF     		nop
 1593 0878 10E0     		b	.L37
 1594              	.L119:
 1595              		.loc 6 185 0
ARM GAS  C:\Users\PCHAUT~1\AppData\Local\Temp\ccqSs9HN.s 			page 29


 1596 087a 00BF     		nop
 1597 087c 0EE0     		b	.L37
 1598              	.L120:
 1599              		.loc 6 187 0
 1600 087e 00BF     		nop
 1601 0880 0CE0     		b	.L37
 1602              	.L121:
 1603              		.loc 6 189 0
 1604 0882 00BF     		nop
 1605 0884 0AE0     		b	.L37
 1606              	.L122:
 1607              		.loc 6 191 0
 1608 0886 00BF     		nop
 1609 0888 08E0     		b	.L37
 1610              	.L123:
 1611              		.loc 6 194 0
 1612 088a 00BF     		nop
 1613 088c 06E0     		b	.L37
 1614              	.L124:
 1615              		.loc 6 195 0
 1616 088e 00BF     		nop
 1617 0890 04E0     		b	.L37
 1618              	.L125:
 1619              		.loc 6 200 0
 1620 0892 00BF     		nop
 1621 0894 02E0     		b	.L37
 1622              	.L126:
 1623              		.loc 6 203 0
 1624 0896 00BF     		nop
 1625 0898 00E0     		b	.L37
 1626              	.L127:
 1627              		.loc 6 206 0
 1628 089a 00BF     		nop
 1629              	.L37:
 1630              		.loc 6 220 0
 1631 089c 054B     		ldr	r3, .L134+4
 1632 089e 039A     		ldr	r2, [sp, #12]
 1633 08a0 1B68     		ldr	r3, [r3]
 1634 08a2 9A42     		cmp	r2, r3
 1635 08a4 01D0     		beq	.L95
 1636 08a6 FFF7FEFF 		bl	__stack_chk_fail
 1637              	.L95:
 1638 08aa 05B0     		add	sp, sp, #20
 1639              		.cfi_def_cfa_offset 4
 1640              		@ sp needed
 1641 08ac 5DF804FB 		ldr	pc, [sp], #4
 1642              	.L135:
 1643              		.align	2
 1644              	.L134:
 1645 08b0 00000000 		.word	mb1
 1646 08b4 00000000 		.word	__stack_chk_guard
 1647              		.cfi_endproc
 1648              	.LFE220:
 1649              		.size	mbox1_execute, .-mbox1_execute
 1650              		.global	testmbox1
 1651              		.section	.rodata
 1652 0006 0000     		.align	2
ARM GAS  C:\Users\PCHAUT~1\AppData\Local\Temp\ccqSs9HN.s 			page 30


 1653              	.LC1:
 1654 0008 4D61696C 		.ascii	"Mailboxes, queuing and timeouts\000"
 1654      626F7865 
 1654      732C2071 
 1654      75657569 
 1654      6E672061 
 1655              		.section	.rodata.testmbox1,"a",%progbits
 1656              		.align	2
 1657              		.type	testmbox1, %object
 1658              		.size	testmbox1, 16
 1659              	testmbox1:
 1660 0000 08000000 		.word	.LC1
 1661 0004 00000000 		.word	mbox1_setup
 1662 0008 00000000 		.word	0
 1663 000c 00000000 		.word	mbox1_execute
 1664              		.global	patternmbox
 1665              		.section	.rodata.patternmbox,"a",%progbits
 1666              		.align	2
 1667              		.type	patternmbox, %object
 1668              		.size	patternmbox, 8
 1669              	patternmbox:
 1670 0000 00000000 		.word	testmbox1
 1671 0004 00000000 		.word	0
 1672              		.section	.rodata.__func__.7153,"a",%progbits
 1673              		.align	2
 1674              		.type	__func__.7153, %object
 1675              		.size	__func__.7153, 12
 1676              	__func__.7153:
 1677 0000 63685379 		.ascii	"chSysUnlock\000"
 1677      73556E6C 
 1677      6F636B00 
 1678              		.text
 1679              	.Letext0:
 1680              		.file 7 "c:\\users\\pchautems\\documents\\robotiquetp\\eclipse_e-puck2\\tools\\gcc-arm-none-eabi-7
 1681              		.file 8 "c:\\users\\pchautems\\documents\\robotiquetp\\eclipse_e-puck2\\tools\\gcc-arm-none-eabi-7
 1682              		.file 9 "c:\\users\\pchautems\\documents\\robotiquetp\\eclipse_e-puck2\\tools\\gcc-arm-none-eabi-7
 1683              		.file 10 "../lib/e-puck2_main-processor/ChibiOS//os/rt/ports/ARMCMx/compilers/GCC/chtypes.h"
 1684              		.file 11 "../lib/e-puck2_main-processor/ChibiOS//os/rt/include/chsystypes.h"
 1685              		.file 12 "../lib/e-puck2_main-processor/ChibiOS//os/rt/include/chschd.h"
 1686              		.file 13 "../lib/e-puck2_main-processor/ChibiOS//os/ext/CMSIS/include/core_cm4.h"
 1687              		.file 14 "../lib/e-puck2_main-processor/ChibiOS//os/ext/CMSIS/ST/system_stm32f4xx.h"
 1688              		.file 15 "../lib/e-puck2_main-processor/ChibiOS//os/rt/ports/ARMCMx/chcore.h"
 1689              		.file 16 "../lib/e-puck2_main-processor/ChibiOS//os/rt/include/chdebug.h"
 1690              		.file 17 "../lib/e-puck2_main-processor/ChibiOS//os/rt/include/chtm.h"
 1691              		.file 18 "../lib/e-puck2_main-processor/ChibiOS//os/rt/include/chstats.h"
 1692              		.file 19 "../lib/e-puck2_main-processor/ChibiOS//os/rt/include/chmtx.h"
 1693              		.file 20 "../lib/e-puck2_main-processor/ChibiOS//os/rt/include/chregistry.h"
 1694              		.file 21 "../lib/e-puck2_main-processor/ChibiOS//test/rt/test.h"
 1695              		.section	.debug_info,"",%progbits
 1696              	.Ldebug_info0:
 1697 0000 7D0D0000 		.4byte	0xd7d
 1698 0004 0400     		.2byte	0x4
 1699 0006 00000000 		.4byte	.Ldebug_abbrev0
 1700 000a 04       		.byte	0x4
 1701 000b 01       		.uleb128 0x1
 1702 000c C0010000 		.4byte	.LASF189
 1703 0010 0C       		.byte	0xc
ARM GAS  C:\Users\PCHAUT~1\AppData\Local\Temp\ccqSs9HN.s 			page 31


 1704 0011 E8080000 		.4byte	.LASF190
 1705 0015 17070000 		.4byte	.LASF191
 1706 0019 00000000 		.4byte	.Ldebug_ranges0+0
 1707 001d 00000000 		.4byte	0
 1708 0021 00000000 		.4byte	.Ldebug_line0
 1709 0025 02       		.uleb128 0x2
 1710 0026 04       		.byte	0x4
 1711 0027 05       		.byte	0x5
 1712 0028 696E7400 		.ascii	"int\000"
 1713 002c 03       		.uleb128 0x3
 1714 002d 22000000 		.4byte	.LASF4
 1715 0031 07       		.byte	0x7
 1716 0032 D8       		.byte	0xd8
 1717 0033 37000000 		.4byte	0x37
 1718 0037 04       		.uleb128 0x4
 1719 0038 04       		.byte	0x4
 1720 0039 07       		.byte	0x7
 1721 003a BC030000 		.4byte	.LASF0
 1722 003e 04       		.uleb128 0x4
 1723 003f 08       		.byte	0x8
 1724 0040 05       		.byte	0x5
 1725 0041 43010000 		.4byte	.LASF1
 1726 0045 04       		.uleb128 0x4
 1727 0046 08       		.byte	0x8
 1728 0047 04       		.byte	0x4
 1729 0048 46030000 		.4byte	.LASF2
 1730 004c 04       		.uleb128 0x4
 1731 004d 01       		.byte	0x1
 1732 004e 06       		.byte	0x6
 1733 004f 51010000 		.4byte	.LASF3
 1734 0053 03       		.uleb128 0x3
 1735 0054 46000000 		.4byte	.LASF5
 1736 0058 08       		.byte	0x8
 1737 0059 2B       		.byte	0x2b
 1738 005a 5E000000 		.4byte	0x5e
 1739 005e 04       		.uleb128 0x4
 1740 005f 01       		.byte	0x1
 1741 0060 08       		.byte	0x8
 1742 0061 5D060000 		.4byte	.LASF6
 1743 0065 04       		.uleb128 0x4
 1744 0066 02       		.byte	0x2
 1745 0067 05       		.byte	0x5
 1746 0068 9B060000 		.4byte	.LASF7
 1747 006c 03       		.uleb128 0x3
 1748 006d EC070000 		.4byte	.LASF8
 1749 0071 08       		.byte	0x8
 1750 0072 39       		.byte	0x39
 1751 0073 77000000 		.4byte	0x77
 1752 0077 04       		.uleb128 0x4
 1753 0078 02       		.byte	0x2
 1754 0079 07       		.byte	0x7
 1755 007a 32040000 		.4byte	.LASF9
 1756 007e 03       		.uleb128 0x3
 1757 007f D0040000 		.4byte	.LASF10
 1758 0083 08       		.byte	0x8
 1759 0084 4D       		.byte	0x4d
 1760 0085 89000000 		.4byte	0x89
ARM GAS  C:\Users\PCHAUT~1\AppData\Local\Temp\ccqSs9HN.s 			page 32


 1761 0089 04       		.uleb128 0x4
 1762 008a 04       		.byte	0x4
 1763 008b 05       		.byte	0x5
 1764 008c B7010000 		.4byte	.LASF11
 1765 0090 03       		.uleb128 0x3
 1766 0091 A0030000 		.4byte	.LASF12
 1767 0095 08       		.byte	0x8
 1768 0096 4F       		.byte	0x4f
 1769 0097 9B000000 		.4byte	0x9b
 1770 009b 04       		.uleb128 0x4
 1771 009c 04       		.byte	0x4
 1772 009d 07       		.byte	0x7
 1773 009e CE070000 		.4byte	.LASF13
 1774 00a2 03       		.uleb128 0x3
 1775 00a3 E2050000 		.4byte	.LASF14
 1776 00a7 08       		.byte	0x8
 1777 00a8 69       		.byte	0x69
 1778 00a9 AD000000 		.4byte	0xad
 1779 00ad 04       		.uleb128 0x4
 1780 00ae 08       		.byte	0x8
 1781 00af 07       		.byte	0x7
 1782 00b0 AE000000 		.4byte	.LASF15
 1783 00b4 03       		.uleb128 0x3
 1784 00b5 BF080000 		.4byte	.LASF16
 1785 00b9 09       		.byte	0x9
 1786 00ba 18       		.byte	0x18
 1787 00bb 53000000 		.4byte	0x53
 1788 00bf 03       		.uleb128 0x3
 1789 00c0 D1030000 		.4byte	.LASF17
 1790 00c4 09       		.byte	0x9
 1791 00c5 24       		.byte	0x24
 1792 00c6 6C000000 		.4byte	0x6c
 1793 00ca 03       		.uleb128 0x3
 1794 00cb 55060000 		.4byte	.LASF18
 1795 00cf 09       		.byte	0x9
 1796 00d0 2C       		.byte	0x2c
 1797 00d1 7E000000 		.4byte	0x7e
 1798 00d5 05       		.uleb128 0x5
 1799 00d6 CA000000 		.4byte	0xca
 1800 00da 03       		.uleb128 0x3
 1801 00db A1070000 		.4byte	.LASF19
 1802 00df 09       		.byte	0x9
 1803 00e0 30       		.byte	0x30
 1804 00e1 90000000 		.4byte	0x90
 1805 00e5 03       		.uleb128 0x3
 1806 00e6 30000000 		.4byte	.LASF20
 1807 00ea 09       		.byte	0x9
 1808 00eb 3C       		.byte	0x3c
 1809 00ec A2000000 		.4byte	0xa2
 1810 00f0 03       		.uleb128 0x3
 1811 00f1 2F050000 		.4byte	.LASF21
 1812 00f5 0A       		.byte	0xa
 1813 00f6 45       		.byte	0x45
 1814 00f7 DA000000 		.4byte	0xda
 1815 00fb 03       		.uleb128 0x3
 1816 00fc 1D010000 		.4byte	.LASF22
 1817 0100 0A       		.byte	0xa
ARM GAS  C:\Users\PCHAUT~1\AppData\Local\Temp\ccqSs9HN.s 			page 33


 1818 0101 46       		.byte	0x46
 1819 0102 E5000000 		.4byte	0xe5
 1820 0106 03       		.uleb128 0x3
 1821 0107 DD060000 		.4byte	.LASF23
 1822 010b 0A       		.byte	0xa
 1823 010c 48       		.byte	0x48
 1824 010d B4000000 		.4byte	0xb4
 1825 0111 03       		.uleb128 0x3
 1826 0112 04030000 		.4byte	.LASF24
 1827 0116 0A       		.byte	0xa
 1828 0117 49       		.byte	0x49
 1829 0118 B4000000 		.4byte	0xb4
 1830 011c 03       		.uleb128 0x3
 1831 011d 02060000 		.4byte	.LASF25
 1832 0121 0A       		.byte	0xa
 1833 0122 4A       		.byte	0x4a
 1834 0123 B4000000 		.4byte	0xb4
 1835 0127 03       		.uleb128 0x3
 1836 0128 9D010000 		.4byte	.LASF26
 1837 012c 0A       		.byte	0xa
 1838 012d 4B       		.byte	0x4b
 1839 012e B4000000 		.4byte	0xb4
 1840 0132 03       		.uleb128 0x3
 1841 0133 3E060000 		.4byte	.LASF27
 1842 0137 0A       		.byte	0xa
 1843 0138 4C       		.byte	0x4c
 1844 0139 DA000000 		.4byte	0xda
 1845 013d 03       		.uleb128 0x3
 1846 013e 6A040000 		.4byte	.LASF28
 1847 0142 0A       		.byte	0xa
 1848 0143 4D       		.byte	0x4d
 1849 0144 CA000000 		.4byte	0xca
 1850 0148 03       		.uleb128 0x3
 1851 0149 C4040000 		.4byte	.LASF29
 1852 014d 0A       		.byte	0xa
 1853 014e 4F       		.byte	0x4f
 1854 014f DA000000 		.4byte	0xda
 1855 0153 03       		.uleb128 0x3
 1856 0154 AB030000 		.4byte	.LASF30
 1857 0158 0A       		.byte	0xa
 1858 0159 51       		.byte	0x51
 1859 015a CA000000 		.4byte	0xca
 1860 015e 03       		.uleb128 0x3
 1861 015f 75040000 		.4byte	.LASF31
 1862 0163 0A       		.byte	0xa
 1863 0164 52       		.byte	0x52
 1864 0165 DA000000 		.4byte	0xda
 1865 0169 03       		.uleb128 0x3
 1866 016a 0C080000 		.4byte	.LASF32
 1867 016e 0B       		.byte	0xb
 1868 016f 33       		.byte	0x33
 1869 0170 DA000000 		.4byte	0xda
 1870 0174 05       		.uleb128 0x5
 1871 0175 69010000 		.4byte	0x169
 1872 0179 03       		.uleb128 0x3
 1873 017a F7070000 		.4byte	.LASF33
 1874 017e 0B       		.byte	0xb
ARM GAS  C:\Users\PCHAUT~1\AppData\Local\Temp\ccqSs9HN.s 			page 34


 1875 017f 3F       		.byte	0x3f
 1876 0180 84010000 		.4byte	0x184
 1877 0184 06       		.uleb128 0x6
 1878 0185 54040000 		.4byte	.LASF57
 1879 0189 68       		.byte	0x68
 1880 018a 0C       		.byte	0xc
 1881 018b C2       		.byte	0xc2
 1882 018c A2020000 		.4byte	0x2a2
 1883 0190 07       		.uleb128 0x7
 1884 0191 D6060000 		.4byte	.LASF34
 1885 0195 0C       		.byte	0xc
 1886 0196 C3       		.byte	0xc3
 1887 0197 AD020000 		.4byte	0x2ad
 1888 019b 00       		.byte	0
 1889 019c 07       		.uleb128 0x7
 1890 019d 2F060000 		.4byte	.LASF35
 1891 01a1 0C       		.byte	0xc
 1892 01a2 C5       		.byte	0xc5
 1893 01a3 AD020000 		.4byte	0x2ad
 1894 01a7 04       		.byte	0x4
 1895 01a8 07       		.uleb128 0x7
 1896 01a9 26010000 		.4byte	.LASF36
 1897 01ad 0C       		.byte	0xc
 1898 01ae C7       		.byte	0xc7
 1899 01af 32010000 		.4byte	0x132
 1900 01b3 08       		.byte	0x8
 1901 01b4 07       		.uleb128 0x7
 1902 01b5 A4050000 		.4byte	.LASF37
 1903 01b9 0C       		.byte	0xc
 1904 01ba C8       		.byte	0xc8
 1905 01bb 2B050000 		.4byte	0x52b
 1906 01bf 0C       		.byte	0xc
 1907 01c0 07       		.uleb128 0x7
 1908 01c1 24030000 		.4byte	.LASF38
 1909 01c5 0C       		.byte	0xc
 1910 01c6 CA       		.byte	0xca
 1911 01c7 AD020000 		.4byte	0x2ad
 1912 01cb 10       		.byte	0x10
 1913 01cc 07       		.uleb128 0x7
 1914 01cd 96050000 		.4byte	.LASF39
 1915 01d1 0C       		.byte	0xc
 1916 01d2 CB       		.byte	0xcb
 1917 01d3 AD020000 		.4byte	0x2ad
 1918 01d7 14       		.byte	0x14
 1919 01d8 07       		.uleb128 0x7
 1920 01d9 E1080000 		.4byte	.LASF40
 1921 01dd 0C       		.byte	0xc
 1922 01de D2       		.byte	0xd2
 1923 01df A1080000 		.4byte	0x8a1
 1924 01e3 18       		.byte	0x18
 1925 01e4 07       		.uleb128 0x7
 1926 01e5 B1030000 		.4byte	.LASF41
 1927 01e9 0C       		.byte	0xc
 1928 01ea D8       		.byte	0xd8
 1929 01eb B8080000 		.4byte	0x8b8
 1930 01ef 1C       		.byte	0x1c
 1931 01f0 07       		.uleb128 0x7
ARM GAS  C:\Users\PCHAUT~1\AppData\Local\Temp\ccqSs9HN.s 			page 35


 1932 01f1 A5060000 		.4byte	.LASF42
 1933 01f5 0C       		.byte	0xc
 1934 01f6 DD       		.byte	0xdd
 1935 01f7 11010000 		.4byte	0x111
 1936 01fb 20       		.byte	0x20
 1937 01fc 07       		.uleb128 0x7
 1938 01fd F4060000 		.4byte	.LASF43
 1939 0201 0C       		.byte	0xc
 1940 0202 E1       		.byte	0xe1
 1941 0203 06010000 		.4byte	0x106
 1942 0207 21       		.byte	0x21
 1943 0208 07       		.uleb128 0x7
 1944 0209 A1080000 		.4byte	.LASF44
 1945 020d 0C       		.byte	0xc
 1946 020e E6       		.byte	0xe6
 1947 020f 1C010000 		.4byte	0x11c
 1948 0213 22       		.byte	0x22
 1949 0214 07       		.uleb128 0x7
 1950 0215 AD060000 		.4byte	.LASF45
 1951 0219 0C       		.byte	0xc
 1952 021a EC       		.byte	0xec
 1953 021b 27010000 		.4byte	0x127
 1954 021f 23       		.byte	0x23
 1955 0220 07       		.uleb128 0x7
 1956 0221 EA030000 		.4byte	.LASF46
 1957 0225 0C       		.byte	0xc
 1958 0226 F3       		.byte	0xf3
 1959 0227 74010000 		.4byte	0x174
 1960 022b 24       		.byte	0x24
 1961 022c 08       		.uleb128 0x8
 1962 022d 705F7500 		.ascii	"p_u\000"
 1963 0231 0C       		.byte	0xc
 1964 0232 3101     		.2byte	0x131
 1965 0234 D0070000 		.4byte	0x7d0
 1966 0238 28       		.byte	0x28
 1967 0239 09       		.uleb128 0x9
 1968 023a 25050000 		.4byte	.LASF47
 1969 023e 0C       		.byte	0xc
 1970 023f 3601     		.2byte	0x136
 1971 0241 B3020000 		.4byte	0x2b3
 1972 0245 2C       		.byte	0x2c
 1973 0246 09       		.uleb128 0x9
 1974 0247 01040000 		.4byte	.LASF48
 1975 024b 0C       		.byte	0xc
 1976 024c 3C01     		.2byte	0x13c
 1977 024e D7020000 		.4byte	0x2d7
 1978 0252 30       		.byte	0x30
 1979 0253 09       		.uleb128 0x9
 1980 0254 73080000 		.4byte	.LASF49
 1981 0258 0C       		.byte	0xc
 1982 0259 4001     		.2byte	0x140
 1983 025b 3D010000 		.4byte	0x13d
 1984 025f 38       		.byte	0x38
 1985 0260 09       		.uleb128 0x9
 1986 0261 96070000 		.4byte	.LASF50
 1987 0265 0C       		.byte	0xc
 1988 0266 4601     		.2byte	0x146
ARM GAS  C:\Users\PCHAUT~1\AppData\Local\Temp\ccqSs9HN.s 			page 36


 1989 0268 48010000 		.4byte	0x148
 1990 026c 3C       		.byte	0x3c
 1991 026d 09       		.uleb128 0x9
 1992 026e 91060000 		.4byte	.LASF51
 1993 0272 0C       		.byte	0xc
 1994 0273 4D01     		.2byte	0x14d
 1995 0275 9B080000 		.4byte	0x89b
 1996 0279 40       		.byte	0x40
 1997 027a 09       		.uleb128 0x9
 1998 027b 16080000 		.4byte	.LASF52
 1999 027f 0C       		.byte	0xc
 2000 0280 5101     		.2byte	0x151
 2001 0282 32010000 		.4byte	0x132
 2002 0286 44       		.byte	0x44
 2003 0287 09       		.uleb128 0x9
 2004 0288 7A010000 		.4byte	.LASF53
 2005 028c 0C       		.byte	0xc
 2006 028d 5801     		.2byte	0x158
 2007 028f 8A030000 		.4byte	0x38a
 2008 0293 48       		.byte	0x48
 2009 0294 09       		.uleb128 0x9
 2010 0295 05070000 		.4byte	.LASF54
 2011 0299 0C       		.byte	0xc
 2012 029a 5E01     		.2byte	0x15e
 2013 029c 81070000 		.4byte	0x781
 2014 02a0 50       		.byte	0x50
 2015 02a1 00       		.byte	0
 2016 02a2 03       		.uleb128 0x3
 2017 02a3 C7080000 		.4byte	.LASF55
 2018 02a7 0B       		.byte	0xb
 2019 02a8 44       		.byte	0x44
 2020 02a9 AD020000 		.4byte	0x2ad
 2021 02ad 0A       		.uleb128 0xa
 2022 02ae 04       		.byte	0x4
 2023 02af 79010000 		.4byte	0x179
 2024 02b3 03       		.uleb128 0x3
 2025 02b4 EF040000 		.4byte	.LASF56
 2026 02b8 0B       		.byte	0xb
 2027 02b9 49       		.byte	0x49
 2028 02ba BE020000 		.4byte	0x2be
 2029 02be 06       		.uleb128 0x6
 2030 02bf BE070000 		.4byte	.LASF58
 2031 02c3 04       		.byte	0x4
 2032 02c4 0C       		.byte	0xc
 2033 02c5 B0       		.byte	0xb0
 2034 02c6 D7020000 		.4byte	0x2d7
 2035 02ca 07       		.uleb128 0x7
 2036 02cb D6060000 		.4byte	.LASF34
 2037 02cf 0C       		.byte	0xc
 2038 02d0 B1       		.byte	0xb1
 2039 02d1 AD020000 		.4byte	0x2ad
 2040 02d5 00       		.byte	0
 2041 02d6 00       		.byte	0
 2042 02d7 03       		.uleb128 0x3
 2043 02d8 52070000 		.4byte	.LASF59
 2044 02dc 0B       		.byte	0xb
 2045 02dd 50       		.byte	0x50
ARM GAS  C:\Users\PCHAUT~1\AppData\Local\Temp\ccqSs9HN.s 			page 37


 2046 02de E2020000 		.4byte	0x2e2
 2047 02e2 06       		.uleb128 0x6
 2048 02e3 5C000000 		.4byte	.LASF60
 2049 02e7 08       		.byte	0x8
 2050 02e8 0C       		.byte	0xc
 2051 02e9 B7       		.byte	0xb7
 2052 02ea 07030000 		.4byte	0x307
 2053 02ee 07       		.uleb128 0x7
 2054 02ef D6060000 		.4byte	.LASF34
 2055 02f3 0C       		.byte	0xc
 2056 02f4 B8       		.byte	0xb8
 2057 02f5 AD020000 		.4byte	0x2ad
 2058 02f9 00       		.byte	0
 2059 02fa 07       		.uleb128 0x7
 2060 02fb 2F060000 		.4byte	.LASF35
 2061 02ff 0C       		.byte	0xc
 2062 0300 B9       		.byte	0xb9
 2063 0301 AD020000 		.4byte	0x2ad
 2064 0305 04       		.byte	0x4
 2065 0306 00       		.byte	0
 2066 0307 03       		.uleb128 0x3
 2067 0308 0D000000 		.4byte	.LASF61
 2068 030c 0B       		.byte	0xb
 2069 030d 57       		.byte	0x57
 2070 030e 12030000 		.4byte	0x312
 2071 0312 0B       		.uleb128 0xb
 2072 0313 B6040000 		.4byte	.LASF62
 2073 0317 1C       		.byte	0x1c
 2074 0318 0C       		.byte	0xc
 2075 0319 9001     		.2byte	0x190
 2076 031b 6E030000 		.4byte	0x36e
 2077 031f 09       		.uleb128 0x9
 2078 0320 B6070000 		.4byte	.LASF63
 2079 0324 0C       		.byte	0xc
 2080 0325 9101     		.2byte	0x191
 2081 0327 D7020000 		.4byte	0x2d7
 2082 032b 00       		.byte	0
 2083 032c 09       		.uleb128 0x9
 2084 032d 12050000 		.4byte	.LASF64
 2085 0331 0C       		.byte	0xc
 2086 0332 9201     		.2byte	0x192
 2087 0334 32010000 		.4byte	0x132
 2088 0338 08       		.byte	0x8
 2089 0339 09       		.uleb128 0x9
 2090 033a 9E050000 		.4byte	.LASF65
 2091 033e 0C       		.byte	0xc
 2092 033f 9401     		.2byte	0x194
 2093 0341 2B050000 		.4byte	0x52b
 2094 0345 0C       		.byte	0xc
 2095 0346 09       		.uleb128 0x9
 2096 0347 5A030000 		.4byte	.LASF66
 2097 034b 0C       		.byte	0xc
 2098 034c 9701     		.2byte	0x197
 2099 034e AD020000 		.4byte	0x2ad
 2100 0352 10       		.byte	0x10
 2101 0353 09       		.uleb128 0x9
 2102 0354 DA050000 		.4byte	.LASF67
ARM GAS  C:\Users\PCHAUT~1\AppData\Local\Temp\ccqSs9HN.s 			page 38


 2103 0358 0C       		.byte	0xc
 2104 0359 9801     		.2byte	0x198
 2105 035b AD020000 		.4byte	0x2ad
 2106 035f 14       		.byte	0x14
 2107 0360 09       		.uleb128 0x9
 2108 0361 D0050000 		.4byte	.LASF68
 2109 0365 0C       		.byte	0xc
 2110 0366 9B01     		.2byte	0x19b
 2111 0368 AD020000 		.4byte	0x2ad
 2112 036c 18       		.byte	0x18
 2113 036d 00       		.byte	0
 2114 036e 03       		.uleb128 0x3
 2115 036f 21080000 		.4byte	.LASF69
 2116 0373 0B       		.byte	0xb
 2117 0374 5C       		.byte	0x5c
 2118 0375 79030000 		.4byte	0x379
 2119 0379 0A       		.uleb128 0xa
 2120 037a 04       		.byte	0x4
 2121 037b 7F030000 		.4byte	0x37f
 2122 037f 0C       		.uleb128 0xc
 2123 0380 8A030000 		.4byte	0x38a
 2124 0384 0D       		.uleb128 0xd
 2125 0385 8A030000 		.4byte	0x38a
 2126 0389 00       		.byte	0
 2127 038a 0E       		.uleb128 0xe
 2128 038b 04       		.byte	0x4
 2129 038c 0F       		.uleb128 0xf
 2130 038d 8A030000 		.4byte	0x38a
 2131 0391 03       		.uleb128 0x3
 2132 0392 1F060000 		.4byte	.LASF70
 2133 0396 0B       		.byte	0xb
 2134 0397 61       		.byte	0x61
 2135 0398 9C030000 		.4byte	0x39c
 2136 039c 0B       		.uleb128 0xb
 2137 039d 62070000 		.4byte	.LASF71
 2138 03a1 14       		.byte	0x14
 2139 03a2 0C       		.byte	0xc
 2140 03a3 6B01     		.2byte	0x16b
 2141 03a5 EB030000 		.4byte	0x3eb
 2142 03a9 09       		.uleb128 0x9
 2143 03aa C9030000 		.4byte	.LASF72
 2144 03ae 0C       		.byte	0xc
 2145 03af 6C01     		.2byte	0x16c
 2146 03b1 BE080000 		.4byte	0x8be
 2147 03b5 00       		.byte	0
 2148 03b6 09       		.uleb128 0x9
 2149 03b7 6B030000 		.4byte	.LASF73
 2150 03bb 0C       		.byte	0xc
 2151 03bc 6D01     		.2byte	0x16d
 2152 03be BE080000 		.4byte	0x8be
 2153 03c2 04       		.byte	0x4
 2154 03c3 09       		.uleb128 0x9
 2155 03c4 F8030000 		.4byte	.LASF74
 2156 03c8 0C       		.byte	0xc
 2157 03c9 6E01     		.2byte	0x16e
 2158 03cb 69010000 		.4byte	0x169
 2159 03cf 08       		.byte	0x8
ARM GAS  C:\Users\PCHAUT~1\AppData\Local\Temp\ccqSs9HN.s 			page 39


 2160 03d0 09       		.uleb128 0x9
 2161 03d1 86090000 		.4byte	.LASF75
 2162 03d5 0C       		.byte	0xc
 2163 03d6 6F01     		.2byte	0x16f
 2164 03d8 6E030000 		.4byte	0x36e
 2165 03dc 0C       		.byte	0xc
 2166 03dd 09       		.uleb128 0x9
 2167 03de 79080000 		.4byte	.LASF76
 2168 03e2 0C       		.byte	0xc
 2169 03e3 7101     		.2byte	0x171
 2170 03e5 8A030000 		.4byte	0x38a
 2171 03e9 10       		.byte	0x10
 2172 03ea 00       		.byte	0
 2173 03eb 03       		.uleb128 0x3
 2174 03ec FE000000 		.4byte	.LASF77
 2175 03f0 0B       		.byte	0xb
 2176 03f1 66       		.byte	0x66
 2177 03f2 F6030000 		.4byte	0x3f6
 2178 03f6 0B       		.uleb128 0xb
 2179 03f7 48050000 		.4byte	.LASF78
 2180 03fb 10       		.byte	0x10
 2181 03fc 0C       		.byte	0xc
 2182 03fd 7B01     		.2byte	0x17b
 2183 03ff 38040000 		.4byte	0x438
 2184 0403 09       		.uleb128 0x9
 2185 0404 C9030000 		.4byte	.LASF72
 2186 0408 0C       		.byte	0xc
 2187 0409 7C01     		.2byte	0x17c
 2188 040b BE080000 		.4byte	0x8be
 2189 040f 00       		.byte	0
 2190 0410 09       		.uleb128 0x9
 2191 0411 6B030000 		.4byte	.LASF73
 2192 0415 0C       		.byte	0xc
 2193 0416 7E01     		.2byte	0x17e
 2194 0418 BE080000 		.4byte	0x8be
 2195 041c 04       		.byte	0x4
 2196 041d 09       		.uleb128 0x9
 2197 041e F8030000 		.4byte	.LASF74
 2198 0422 0C       		.byte	0xc
 2199 0423 8001     		.2byte	0x180
 2200 0425 69010000 		.4byte	0x169
 2201 0429 08       		.byte	0x8
 2202 042a 09       		.uleb128 0x9
 2203 042b 22090000 		.4byte	.LASF79
 2204 042f 0C       		.byte	0xc
 2205 0430 8201     		.2byte	0x182
 2206 0432 74010000 		.4byte	0x174
 2207 0436 0C       		.byte	0xc
 2208 0437 00       		.byte	0
 2209 0438 03       		.uleb128 0x3
 2210 0439 6D000000 		.4byte	.LASF80
 2211 043d 0B       		.byte	0xb
 2212 043e 6B       		.byte	0x6b
 2213 043f 43040000 		.4byte	0x443
 2214 0443 10       		.uleb128 0x10
 2215 0444 73030000 		.4byte	.LASF81
 2216 0448 1404     		.2byte	0x414
ARM GAS  C:\Users\PCHAUT~1\AppData\Local\Temp\ccqSs9HN.s 			page 40


 2217 044a 0C       		.byte	0xc
 2218 044b A201     		.2byte	0x1a2
 2219 044d 86040000 		.4byte	0x486
 2220 0451 09       		.uleb128 0x9
 2221 0452 49080000 		.4byte	.LASF82
 2222 0456 0C       		.byte	0xc
 2223 0457 AA01     		.2byte	0x1aa
 2224 0459 A7080000 		.4byte	0x8a7
 2225 045d 00       		.byte	0
 2226 045e 09       		.uleb128 0x9
 2227 045f A8080000 		.4byte	.LASF83
 2228 0463 0C       		.byte	0xc
 2229 0464 AF01     		.2byte	0x1af
 2230 0466 53010000 		.4byte	0x153
 2231 046a 04       		.byte	0x4
 2232 046b 09       		.uleb128 0x9
 2233 046c 97030000 		.4byte	.LASF84
 2234 0470 0C       		.byte	0xc
 2235 0471 B301     		.2byte	0x1b3
 2236 0473 53010000 		.4byte	0x153
 2237 0477 08       		.byte	0x8
 2238 0478 09       		.uleb128 0x9
 2239 0479 37090000 		.4byte	.LASF85
 2240 047d 0C       		.byte	0xc
 2241 047e B901     		.2byte	0x1b9
 2242 0480 13070000 		.4byte	0x713
 2243 0484 0C       		.byte	0xc
 2244 0485 00       		.byte	0
 2245 0486 03       		.uleb128 0x3
 2246 0487 7C040000 		.4byte	.LASF86
 2247 048b 0B       		.byte	0xb
 2248 048c 70       		.byte	0x70
 2249 048d 91040000 		.4byte	0x491
 2250 0491 10       		.uleb128 0x10
 2251 0492 AD010000 		.4byte	.LASF87
 2252 0496 7006     		.2byte	0x670
 2253 0498 0C       		.byte	0xc
 2254 0499 C201     		.2byte	0x1c2
 2255 049b FE040000 		.4byte	0x4fe
 2256 049f 09       		.uleb128 0x9
 2257 04a0 B9080000 		.4byte	.LASF88
 2258 04a4 0C       		.byte	0xc
 2259 04a5 C601     		.2byte	0x1c6
 2260 04a7 07030000 		.4byte	0x307
 2261 04ab 00       		.byte	0
 2262 04ac 09       		.uleb128 0x9
 2263 04ad 8A010000 		.4byte	.LASF89
 2264 04b1 0C       		.byte	0xc
 2265 04b2 CA01     		.2byte	0x1ca
 2266 04b4 EB030000 		.4byte	0x3eb
 2267 04b8 1C       		.byte	0x1c
 2268 04b9 08       		.uleb128 0x8
 2269 04ba 64626700 		.ascii	"dbg\000"
 2270 04be 0C       		.byte	0xc
 2271 04bf CE01     		.2byte	0x1ce
 2272 04c1 38040000 		.4byte	0x438
 2273 04c5 2C       		.byte	0x2c
ARM GAS  C:\Users\PCHAUT~1\AppData\Local\Temp\ccqSs9HN.s 			page 41


 2274 04c6 11       		.uleb128 0x11
 2275 04c7 EE000000 		.4byte	.LASF90
 2276 04cb 0C       		.byte	0xc
 2277 04cc D201     		.2byte	0x1d2
 2278 04ce 79010000 		.4byte	0x179
 2279 04d2 4004     		.2byte	0x440
 2280 04d4 12       		.uleb128 0x12
 2281 04d5 746D00   		.ascii	"tm\000"
 2282 04d8 0C       		.byte	0xc
 2283 04d9 D701     		.2byte	0x1d7
 2284 04db 33070000 		.4byte	0x733
 2285 04df A804     		.2byte	0x4a8
 2286 04e1 11       		.uleb128 0x11
 2287 04e2 39000000 		.4byte	.LASF91
 2288 04e6 0C       		.byte	0xc
 2289 04e7 DD01     		.2byte	0x1dd
 2290 04e9 C5070000 		.4byte	0x7c5
 2291 04ed B004     		.2byte	0x4b0
 2292 04ef 11       		.uleb128 0x11
 2293 04f0 7C000000 		.4byte	.LASF92
 2294 04f4 0C       		.byte	0xc
 2295 04f5 E301     		.2byte	0x1e3
 2296 04f7 C4080000 		.4byte	0x8c4
 2297 04fb E804     		.2byte	0x4e8
 2298 04fd 00       		.byte	0
 2299 04fe 13       		.uleb128 0x13
 2300 04ff 84060000 		.4byte	.LASF93
 2301 0503 0D       		.byte	0xd
 2302 0504 A706     		.2byte	0x6a7
 2303 0506 D5000000 		.4byte	0xd5
 2304 050a 14       		.uleb128 0x14
 2305 050b DA030000 		.4byte	.LASF94
 2306 050f 0E       		.byte	0xe
 2307 0510 4C       		.byte	0x4c
 2308 0511 DA000000 		.4byte	0xda
 2309 0515 03       		.uleb128 0x3
 2310 0516 62030000 		.4byte	.LASF95
 2311 051a 0F       		.byte	0xf
 2312 051b 65       		.byte	0x65
 2313 051c 8A030000 		.4byte	0x38a
 2314 0520 03       		.uleb128 0x3
 2315 0521 E4040000 		.4byte	.LASF96
 2316 0525 0F       		.byte	0xf
 2317 0526 6D       		.byte	0x6d
 2318 0527 E5000000 		.4byte	0xe5
 2319 052b 06       		.uleb128 0x6
 2320 052c 6B080000 		.4byte	.LASF97
 2321 0530 04       		.byte	0x4
 2322 0531 0F       		.byte	0xf
 2323 0532 89       		.byte	0x89
 2324 0533 44050000 		.4byte	0x544
 2325 0537 15       		.uleb128 0x15
 2326 0538 72313300 		.ascii	"r13\000"
 2327 053c 0F       		.byte	0xf
 2328 053d 8A       		.byte	0x8a
 2329 053e 85060000 		.4byte	0x685
 2330 0542 00       		.byte	0
ARM GAS  C:\Users\PCHAUT~1\AppData\Local\Temp\ccqSs9HN.s 			page 42


 2331 0543 00       		.byte	0
 2332 0544 06       		.uleb128 0x6
 2333 0545 50000000 		.4byte	.LASF98
 2334 0549 64       		.byte	0x64
 2335 054a 01       		.byte	0x1
 2336 054b F4       		.byte	0xf4
 2337 054c 85060000 		.4byte	0x685
 2338 0550 15       		.uleb128 0x15
 2339 0551 73313600 		.ascii	"s16\000"
 2340 0555 01       		.byte	0x1
 2341 0556 F6       		.byte	0xf6
 2342 0557 15050000 		.4byte	0x515
 2343 055b 00       		.byte	0
 2344 055c 15       		.uleb128 0x15
 2345 055d 73313700 		.ascii	"s17\000"
 2346 0561 01       		.byte	0x1
 2347 0562 F7       		.byte	0xf7
 2348 0563 15050000 		.4byte	0x515
 2349 0567 04       		.byte	0x4
 2350 0568 15       		.uleb128 0x15
 2351 0569 73313800 		.ascii	"s18\000"
 2352 056d 01       		.byte	0x1
 2353 056e F8       		.byte	0xf8
 2354 056f 15050000 		.4byte	0x515
 2355 0573 08       		.byte	0x8
 2356 0574 15       		.uleb128 0x15
 2357 0575 73313900 		.ascii	"s19\000"
 2358 0579 01       		.byte	0x1
 2359 057a F9       		.byte	0xf9
 2360 057b 15050000 		.4byte	0x515
 2361 057f 0C       		.byte	0xc
 2362 0580 15       		.uleb128 0x15
 2363 0581 73323000 		.ascii	"s20\000"
 2364 0585 01       		.byte	0x1
 2365 0586 FA       		.byte	0xfa
 2366 0587 15050000 		.4byte	0x515
 2367 058b 10       		.byte	0x10
 2368 058c 15       		.uleb128 0x15
 2369 058d 73323100 		.ascii	"s21\000"
 2370 0591 01       		.byte	0x1
 2371 0592 FB       		.byte	0xfb
 2372 0593 15050000 		.4byte	0x515
 2373 0597 14       		.byte	0x14
 2374 0598 15       		.uleb128 0x15
 2375 0599 73323200 		.ascii	"s22\000"
 2376 059d 01       		.byte	0x1
 2377 059e FC       		.byte	0xfc
 2378 059f 15050000 		.4byte	0x515
 2379 05a3 18       		.byte	0x18
 2380 05a4 15       		.uleb128 0x15
 2381 05a5 73323300 		.ascii	"s23\000"
 2382 05a9 01       		.byte	0x1
 2383 05aa FD       		.byte	0xfd
 2384 05ab 15050000 		.4byte	0x515
 2385 05af 1C       		.byte	0x1c
 2386 05b0 15       		.uleb128 0x15
 2387 05b1 73323400 		.ascii	"s24\000"
ARM GAS  C:\Users\PCHAUT~1\AppData\Local\Temp\ccqSs9HN.s 			page 43


 2388 05b5 01       		.byte	0x1
 2389 05b6 FE       		.byte	0xfe
 2390 05b7 15050000 		.4byte	0x515
 2391 05bb 20       		.byte	0x20
 2392 05bc 15       		.uleb128 0x15
 2393 05bd 73323500 		.ascii	"s25\000"
 2394 05c1 01       		.byte	0x1
 2395 05c2 FF       		.byte	0xff
 2396 05c3 15050000 		.4byte	0x515
 2397 05c7 24       		.byte	0x24
 2398 05c8 08       		.uleb128 0x8
 2399 05c9 73323600 		.ascii	"s26\000"
 2400 05cd 01       		.byte	0x1
 2401 05ce 0001     		.2byte	0x100
 2402 05d0 15050000 		.4byte	0x515
 2403 05d4 28       		.byte	0x28
 2404 05d5 08       		.uleb128 0x8
 2405 05d6 73323700 		.ascii	"s27\000"
 2406 05da 01       		.byte	0x1
 2407 05db 0101     		.2byte	0x101
 2408 05dd 15050000 		.4byte	0x515
 2409 05e1 2C       		.byte	0x2c
 2410 05e2 08       		.uleb128 0x8
 2411 05e3 73323800 		.ascii	"s28\000"
 2412 05e7 01       		.byte	0x1
 2413 05e8 0201     		.2byte	0x102
 2414 05ea 15050000 		.4byte	0x515
 2415 05ee 30       		.byte	0x30
 2416 05ef 08       		.uleb128 0x8
 2417 05f0 73323900 		.ascii	"s29\000"
 2418 05f4 01       		.byte	0x1
 2419 05f5 0301     		.2byte	0x103
 2420 05f7 15050000 		.4byte	0x515
 2421 05fb 34       		.byte	0x34
 2422 05fc 08       		.uleb128 0x8
 2423 05fd 73333000 		.ascii	"s30\000"
 2424 0601 01       		.byte	0x1
 2425 0602 0401     		.2byte	0x104
 2426 0604 15050000 		.4byte	0x515
 2427 0608 38       		.byte	0x38
 2428 0609 08       		.uleb128 0x8
 2429 060a 73333100 		.ascii	"s31\000"
 2430 060e 01       		.byte	0x1
 2431 060f 0501     		.2byte	0x105
 2432 0611 15050000 		.4byte	0x515
 2433 0615 3C       		.byte	0x3c
 2434 0616 08       		.uleb128 0x8
 2435 0617 723400   		.ascii	"r4\000"
 2436 061a 01       		.byte	0x1
 2437 061b 0701     		.2byte	0x107
 2438 061d 15050000 		.4byte	0x515
 2439 0621 40       		.byte	0x40
 2440 0622 08       		.uleb128 0x8
 2441 0623 723500   		.ascii	"r5\000"
 2442 0626 01       		.byte	0x1
 2443 0627 0801     		.2byte	0x108
 2444 0629 15050000 		.4byte	0x515
ARM GAS  C:\Users\PCHAUT~1\AppData\Local\Temp\ccqSs9HN.s 			page 44


 2445 062d 44       		.byte	0x44
 2446 062e 08       		.uleb128 0x8
 2447 062f 723600   		.ascii	"r6\000"
 2448 0632 01       		.byte	0x1
 2449 0633 0901     		.2byte	0x109
 2450 0635 15050000 		.4byte	0x515
 2451 0639 48       		.byte	0x48
 2452 063a 08       		.uleb128 0x8
 2453 063b 723700   		.ascii	"r7\000"
 2454 063e 01       		.byte	0x1
 2455 063f 0A01     		.2byte	0x10a
 2456 0641 15050000 		.4byte	0x515
 2457 0645 4C       		.byte	0x4c
 2458 0646 08       		.uleb128 0x8
 2459 0647 723800   		.ascii	"r8\000"
 2460 064a 01       		.byte	0x1
 2461 064b 0B01     		.2byte	0x10b
 2462 064d 15050000 		.4byte	0x515
 2463 0651 50       		.byte	0x50
 2464 0652 08       		.uleb128 0x8
 2465 0653 723900   		.ascii	"r9\000"
 2466 0656 01       		.byte	0x1
 2467 0657 0C01     		.2byte	0x10c
 2468 0659 15050000 		.4byte	0x515
 2469 065d 54       		.byte	0x54
 2470 065e 08       		.uleb128 0x8
 2471 065f 72313000 		.ascii	"r10\000"
 2472 0663 01       		.byte	0x1
 2473 0664 0D01     		.2byte	0x10d
 2474 0666 15050000 		.4byte	0x515
 2475 066a 58       		.byte	0x58
 2476 066b 08       		.uleb128 0x8
 2477 066c 72313100 		.ascii	"r11\000"
 2478 0670 01       		.byte	0x1
 2479 0671 0E01     		.2byte	0x10e
 2480 0673 15050000 		.4byte	0x515
 2481 0677 5C       		.byte	0x5c
 2482 0678 08       		.uleb128 0x8
 2483 0679 6C7200   		.ascii	"lr\000"
 2484 067c 01       		.byte	0x1
 2485 067d 0F01     		.2byte	0x10f
 2486 067f 15050000 		.4byte	0x515
 2487 0683 60       		.byte	0x60
 2488 0684 00       		.byte	0
 2489 0685 0A       		.uleb128 0xa
 2490 0686 04       		.byte	0x4
 2491 0687 44050000 		.4byte	0x544
 2492 068b 16       		.uleb128 0x16
 2493 068c 10       		.byte	0x10
 2494 068d 10       		.byte	0x10
 2495 068e 51       		.byte	0x51
 2496 068f C4060000 		.4byte	0x6c4
 2497 0693 07       		.uleb128 0x7
 2498 0694 1A000000 		.4byte	.LASF99
 2499 0698 10       		.byte	0x10
 2500 0699 55       		.byte	0x55
 2501 069a 69010000 		.4byte	0x169
ARM GAS  C:\Users\PCHAUT~1\AppData\Local\Temp\ccqSs9HN.s 			page 45


 2502 069e 00       		.byte	0
 2503 069f 07       		.uleb128 0x7
 2504 06a0 0D030000 		.4byte	.LASF100
 2505 06a4 10       		.byte	0x10
 2506 06a5 59       		.byte	0x59
 2507 06a6 AD020000 		.4byte	0x2ad
 2508 06aa 04       		.byte	0x4
 2509 06ab 07       		.uleb128 0x7
 2510 06ac 6E090000 		.4byte	.LASF101
 2511 06b0 10       		.byte	0x10
 2512 06b1 5D       		.byte	0x5d
 2513 06b2 8A030000 		.4byte	0x38a
 2514 06b6 08       		.byte	0x8
 2515 06b7 07       		.uleb128 0x7
 2516 06b8 B0080000 		.4byte	.LASF102
 2517 06bc 10       		.byte	0x10
 2518 06bd 61       		.byte	0x61
 2519 06be B4000000 		.4byte	0xb4
 2520 06c2 0C       		.byte	0xc
 2521 06c3 00       		.byte	0
 2522 06c4 03       		.uleb128 0x3
 2523 06c5 7B050000 		.4byte	.LASF103
 2524 06c9 10       		.byte	0x10
 2525 06ca 62       		.byte	0x62
 2526 06cb 8B060000 		.4byte	0x68b
 2527 06cf 17       		.uleb128 0x17
 2528 06d0 0804     		.2byte	0x408
 2529 06d2 10       		.byte	0x10
 2530 06d3 67       		.byte	0x67
 2531 06d4 FD060000 		.4byte	0x6fd
 2532 06d8 07       		.uleb128 0x7
 2533 06d9 52030000 		.4byte	.LASF104
 2534 06dd 10       		.byte	0x10
 2535 06de 6B       		.byte	0x6b
 2536 06df 37000000 		.4byte	0x37
 2537 06e3 00       		.byte	0
 2538 06e4 07       		.uleb128 0x7
 2539 06e5 74050000 		.4byte	.LASF105
 2540 06e9 10       		.byte	0x10
 2541 06ea 6F       		.byte	0x6f
 2542 06eb FD060000 		.4byte	0x6fd
 2543 06ef 04       		.byte	0x4
 2544 06f0 07       		.uleb128 0x7
 2545 06f1 0A060000 		.4byte	.LASF106
 2546 06f5 10       		.byte	0x10
 2547 06f6 73       		.byte	0x73
 2548 06f7 03070000 		.4byte	0x703
 2549 06fb 08       		.byte	0x8
 2550 06fc 00       		.byte	0
 2551 06fd 0A       		.uleb128 0xa
 2552 06fe 04       		.byte	0x4
 2553 06ff C4060000 		.4byte	0x6c4
 2554 0703 18       		.uleb128 0x18
 2555 0704 C4060000 		.4byte	0x6c4
 2556 0708 13070000 		.4byte	0x713
 2557 070c 19       		.uleb128 0x19
 2558 070d 37000000 		.4byte	0x37
ARM GAS  C:\Users\PCHAUT~1\AppData\Local\Temp\ccqSs9HN.s 			page 46


 2559 0711 3F       		.byte	0x3f
 2560 0712 00       		.byte	0
 2561 0713 03       		.uleb128 0x3
 2562 0714 C5000000 		.4byte	.LASF107
 2563 0718 10       		.byte	0x10
 2564 0719 74       		.byte	0x74
 2565 071a CF060000 		.4byte	0x6cf
 2566 071e 16       		.uleb128 0x16
 2567 071f 04       		.byte	0x4
 2568 0720 11       		.byte	0x11
 2569 0721 38       		.byte	0x38
 2570 0722 33070000 		.4byte	0x733
 2571 0726 07       		.uleb128 0x7
 2572 0727 64080000 		.4byte	.LASF108
 2573 072b 11       		.byte	0x11
 2574 072c 3C       		.byte	0x3c
 2575 072d F0000000 		.4byte	0xf0
 2576 0731 00       		.byte	0
 2577 0732 00       		.byte	0
 2578 0733 03       		.uleb128 0x3
 2579 0734 37050000 		.4byte	.LASF109
 2580 0738 11       		.byte	0x11
 2581 0739 3D       		.byte	0x3d
 2582 073a 1E070000 		.4byte	0x71e
 2583 073e 16       		.uleb128 0x16
 2584 073f 18       		.byte	0x18
 2585 0740 11       		.byte	0x11
 2586 0741 48       		.byte	0x48
 2587 0742 81070000 		.4byte	0x781
 2588 0746 07       		.uleb128 0x7
 2589 0747 00080000 		.4byte	.LASF110
 2590 074b 11       		.byte	0x11
 2591 074c 49       		.byte	0x49
 2592 074d F0000000 		.4byte	0xf0
 2593 0751 00       		.byte	0
 2594 0752 07       		.uleb128 0x7
 2595 0753 95000000 		.4byte	.LASF111
 2596 0757 11       		.byte	0x11
 2597 0758 4A       		.byte	0x4a
 2598 0759 F0000000 		.4byte	0xf0
 2599 075d 04       		.byte	0x4
 2600 075e 07       		.uleb128 0x7
 2601 075f 70040000 		.4byte	.LASF112
 2602 0763 11       		.byte	0x11
 2603 0764 4B       		.byte	0x4b
 2604 0765 F0000000 		.4byte	0xf0
 2605 0769 08       		.byte	0x8
 2606 076a 15       		.uleb128 0x15
 2607 076b 6E00     		.ascii	"n\000"
 2608 076d 11       		.byte	0x11
 2609 076e 4C       		.byte	0x4c
 2610 076f 5E010000 		.4byte	0x15e
 2611 0773 0C       		.byte	0xc
 2612 0774 07       		.uleb128 0x7
 2613 0775 ED050000 		.4byte	.LASF113
 2614 0779 11       		.byte	0x11
 2615 077a 4D       		.byte	0x4d
ARM GAS  C:\Users\PCHAUT~1\AppData\Local\Temp\ccqSs9HN.s 			page 47


 2616 077b FB000000 		.4byte	0xfb
 2617 077f 10       		.byte	0x10
 2618 0780 00       		.byte	0
 2619 0781 03       		.uleb128 0x3
 2620 0782 9B000000 		.4byte	.LASF114
 2621 0786 11       		.byte	0x11
 2622 0787 4E       		.byte	0x4e
 2623 0788 3E070000 		.4byte	0x73e
 2624 078c 16       		.uleb128 0x16
 2625 078d 38       		.byte	0x38
 2626 078e 12       		.byte	0x12
 2627 078f 38       		.byte	0x38
 2628 0790 C5070000 		.4byte	0x7c5
 2629 0794 07       		.uleb128 0x7
 2630 0795 21040000 		.4byte	.LASF115
 2631 0799 12       		.byte	0x12
 2632 079a 39       		.byte	0x39
 2633 079b 5E010000 		.4byte	0x15e
 2634 079f 00       		.byte	0
 2635 07a0 07       		.uleb128 0x7
 2636 07a1 46060000 		.4byte	.LASF116
 2637 07a5 12       		.byte	0x12
 2638 07a6 3A       		.byte	0x3a
 2639 07a7 5E010000 		.4byte	0x15e
 2640 07ab 04       		.byte	0x4
 2641 07ac 07       		.uleb128 0x7
 2642 07ad 5B090000 		.4byte	.LASF117
 2643 07b1 12       		.byte	0x12
 2644 07b2 3B       		.byte	0x3b
 2645 07b3 81070000 		.4byte	0x781
 2646 07b7 08       		.byte	0x8
 2647 07b8 07       		.uleb128 0x7
 2648 07b9 AB040000 		.4byte	.LASF118
 2649 07bd 12       		.byte	0x12
 2650 07be 3D       		.byte	0x3d
 2651 07bf 81070000 		.4byte	0x781
 2652 07c3 20       		.byte	0x20
 2653 07c4 00       		.byte	0
 2654 07c5 03       		.uleb128 0x3
 2655 07c6 45040000 		.4byte	.LASF119
 2656 07ca 12       		.byte	0x12
 2657 07cb 3F       		.byte	0x3f
 2658 07cc 8C070000 		.4byte	0x78c
 2659 07d0 1A       		.uleb128 0x1a
 2660 07d1 04       		.byte	0x4
 2661 07d2 0C       		.byte	0xc
 2662 07d3 FA       		.byte	0xfa
 2663 07d4 2D080000 		.4byte	0x82d
 2664 07d8 1B       		.uleb128 0x1b
 2665 07d9 29000000 		.4byte	.LASF120
 2666 07dd 0C       		.byte	0xc
 2667 07de 0101     		.2byte	0x101
 2668 07e0 3D010000 		.4byte	0x13d
 2669 07e4 1B       		.uleb128 0x1b
 2670 07e5 E5000000 		.4byte	.LASF121
 2671 07e9 0C       		.byte	0xc
 2672 07ea 0801     		.2byte	0x108
ARM GAS  C:\Users\PCHAUT~1\AppData\Local\Temp\ccqSs9HN.s 			page 48


 2673 07ec 3D010000 		.4byte	0x13d
 2674 07f0 1B       		.uleb128 0x1b
 2675 07f1 DA080000 		.4byte	.LASF122
 2676 07f5 0C       		.byte	0xc
 2677 07f6 0F01     		.2byte	0x10f
 2678 07f8 8A030000 		.4byte	0x38a
 2679 07fc 1B       		.uleb128 0x1b
 2680 07fd A7010000 		.4byte	.LASF123
 2681 0801 0C       		.byte	0xc
 2682 0802 1601     		.2byte	0x116
 2683 0804 2D080000 		.4byte	0x82d
 2684 0808 1B       		.uleb128 0x1b
 2685 0809 F1030000 		.4byte	.LASF124
 2686 080d 0C       		.byte	0xc
 2687 080e 1E01     		.2byte	0x11e
 2688 0810 58080000 		.4byte	0x858
 2689 0814 1B       		.uleb128 0x1b
 2690 0815 E5070000 		.4byte	.LASF125
 2691 0819 0C       		.byte	0xc
 2692 081a 2701     		.2byte	0x127
 2693 081c 9B080000 		.4byte	0x89b
 2694 0820 1B       		.uleb128 0x1b
 2695 0821 CF060000 		.4byte	.LASF126
 2696 0825 0C       		.byte	0xc
 2697 0826 2F01     		.2byte	0x12f
 2698 0828 48010000 		.4byte	0x148
 2699 082c 00       		.byte	0
 2700 082d 0A       		.uleb128 0xa
 2701 082e 04       		.byte	0x4
 2702 082f A2020000 		.4byte	0x2a2
 2703 0833 06       		.uleb128 0x6
 2704 0834 89070000 		.4byte	.LASF127
 2705 0838 0C       		.byte	0xc
 2706 0839 04       		.byte	0x4
 2707 083a 34       		.byte	0x34
 2708 083b 58080000 		.4byte	0x858
 2709 083f 07       		.uleb128 0x7
 2710 0840 2C030000 		.4byte	.LASF128
 2711 0844 04       		.byte	0x4
 2712 0845 35       		.byte	0x35
 2713 0846 D7020000 		.4byte	0x2d7
 2714 084a 00       		.byte	0
 2715 084b 07       		.uleb128 0x7
 2716 084c 27040000 		.4byte	.LASF129
 2717 0850 04       		.byte	0x4
 2718 0851 37       		.byte	0x37
 2719 0852 53010000 		.4byte	0x153
 2720 0856 08       		.byte	0x8
 2721 0857 00       		.byte	0
 2722 0858 0A       		.uleb128 0xa
 2723 0859 04       		.byte	0x4
 2724 085a 33080000 		.4byte	0x833
 2725 085e 06       		.uleb128 0x6
 2726 085f 98080000 		.4byte	.LASF130
 2727 0863 14       		.byte	0x14
 2728 0864 13       		.byte	0x13
 2729 0865 39       		.byte	0x39
ARM GAS  C:\Users\PCHAUT~1\AppData\Local\Temp\ccqSs9HN.s 			page 49


 2730 0866 9B080000 		.4byte	0x89b
 2731 086a 07       		.uleb128 0x7
 2732 086b 82010000 		.4byte	.LASF131
 2733 086f 13       		.byte	0x13
 2734 0870 3A       		.byte	0x3a
 2735 0871 D7020000 		.4byte	0x2d7
 2736 0875 00       		.byte	0
 2737 0876 07       		.uleb128 0x7
 2738 0877 66090000 		.4byte	.LASF132
 2739 087b 13       		.byte	0x13
 2740 087c 3C       		.byte	0x3c
 2741 087d AD020000 		.4byte	0x2ad
 2742 0881 08       		.byte	0x8
 2743 0882 07       		.uleb128 0x7
 2744 0883 05080000 		.4byte	.LASF133
 2745 0887 13       		.byte	0x13
 2746 0888 3E       		.byte	0x3e
 2747 0889 010A0000 		.4byte	0xa01
 2748 088d 0C       		.byte	0xc
 2749 088e 07       		.uleb128 0x7
 2750 088f 83030000 		.4byte	.LASF134
 2751 0893 13       		.byte	0x13
 2752 0894 41       		.byte	0x41
 2753 0895 53010000 		.4byte	0x153
 2754 0899 10       		.byte	0x10
 2755 089a 00       		.byte	0
 2756 089b 0A       		.uleb128 0xa
 2757 089c 04       		.byte	0x4
 2758 089d 5E080000 		.4byte	0x85e
 2759 08a1 0A       		.uleb128 0xa
 2760 08a2 04       		.byte	0x4
 2761 08a3 B3080000 		.4byte	0x8b3
 2762 08a7 05       		.uleb128 0x5
 2763 08a8 A1080000 		.4byte	0x8a1
 2764 08ac 04       		.uleb128 0x4
 2765 08ad 01       		.byte	0x1
 2766 08ae 08       		.byte	0x8
 2767 08af E0070000 		.4byte	.LASF135
 2768 08b3 0F       		.uleb128 0xf
 2769 08b4 AC080000 		.4byte	0x8ac
 2770 08b8 0A       		.uleb128 0xa
 2771 08b9 04       		.byte	0x4
 2772 08ba 20050000 		.4byte	0x520
 2773 08be 0A       		.uleb128 0xa
 2774 08bf 04       		.byte	0x4
 2775 08c0 91030000 		.4byte	0x391
 2776 08c4 18       		.uleb128 0x18
 2777 08c5 20050000 		.4byte	0x520
 2778 08c9 D4080000 		.4byte	0x8d4
 2779 08cd 19       		.uleb128 0x19
 2780 08ce 37000000 		.4byte	0x37
 2781 08d2 30       		.byte	0x30
 2782 08d3 00       		.byte	0
 2783 08d4 1C       		.uleb128 0x1c
 2784 08d5 636800   		.ascii	"ch\000"
 2785 08d8 0C       		.byte	0xc
 2786 08d9 0902     		.2byte	0x209
ARM GAS  C:\Users\PCHAUT~1\AppData\Local\Temp\ccqSs9HN.s 			page 50


 2787 08db 86040000 		.4byte	0x486
 2788 08df 16       		.uleb128 0x16
 2789 08e0 16       		.byte	0x16
 2790 08e1 14       		.byte	0x14
 2791 08e2 34       		.byte	0x34
 2792 08e3 C0090000 		.4byte	0x9c0
 2793 08e7 07       		.uleb128 0x7
 2794 08e8 78090000 		.4byte	.LASF136
 2795 08ec 14       		.byte	0x14
 2796 08ed 35       		.byte	0x35
 2797 08ee C0090000 		.4byte	0x9c0
 2798 08f2 00       		.byte	0
 2799 08f3 07       		.uleb128 0x7
 2800 08f4 FE040000 		.4byte	.LASF137
 2801 08f8 14       		.byte	0x14
 2802 08f9 36       		.byte	0x36
 2803 08fa B4000000 		.4byte	0xb4
 2804 08fe 04       		.byte	0x4
 2805 08ff 07       		.uleb128 0x7
 2806 0900 AA050000 		.4byte	.LASF138
 2807 0904 14       		.byte	0x14
 2808 0905 37       		.byte	0x37
 2809 0906 B4000000 		.4byte	0xb4
 2810 090a 05       		.byte	0x5
 2811 090b 07       		.uleb128 0x7
 2812 090c 50090000 		.4byte	.LASF139
 2813 0910 14       		.byte	0x14
 2814 0911 38       		.byte	0x38
 2815 0912 BF000000 		.4byte	0xbf
 2816 0916 06       		.byte	0x6
 2817 0917 07       		.uleb128 0x7
 2818 0918 14060000 		.4byte	.LASF140
 2819 091c 14       		.byte	0x14
 2820 091d 39       		.byte	0x39
 2821 091e B4000000 		.4byte	0xb4
 2822 0922 08       		.byte	0x8
 2823 0923 07       		.uleb128 0x7
 2824 0924 68050000 		.4byte	.LASF141
 2825 0928 14       		.byte	0x14
 2826 0929 3A       		.byte	0x3a
 2827 092a B4000000 		.4byte	0xb4
 2828 092e 09       		.byte	0x9
 2829 092f 07       		.uleb128 0x7
 2830 0930 D7000000 		.4byte	.LASF142
 2831 0934 14       		.byte	0x14
 2832 0935 3B       		.byte	0x3b
 2833 0936 B4000000 		.4byte	0xb4
 2834 093a 0A       		.byte	0xa
 2835 093b 07       		.uleb128 0x7
 2836 093c AA070000 		.4byte	.LASF143
 2837 0940 14       		.byte	0x14
 2838 0941 3C       		.byte	0x3c
 2839 0942 B4000000 		.4byte	0xb4
 2840 0946 0B       		.byte	0xb
 2841 0947 07       		.uleb128 0x7
 2842 0948 88040000 		.4byte	.LASF144
 2843 094c 14       		.byte	0x14
ARM GAS  C:\Users\PCHAUT~1\AppData\Local\Temp\ccqSs9HN.s 			page 51


 2844 094d 3D       		.byte	0x3d
 2845 094e B4000000 		.4byte	0xb4
 2846 0952 0C       		.byte	0xc
 2847 0953 07       		.uleb128 0x7
 2848 0954 73070000 		.4byte	.LASF145
 2849 0958 14       		.byte	0x14
 2850 0959 3E       		.byte	0x3e
 2851 095a B4000000 		.4byte	0xb4
 2852 095e 0D       		.byte	0xd
 2853 095f 07       		.uleb128 0x7
 2854 0960 00000000 		.4byte	.LASF146
 2855 0964 14       		.byte	0x14
 2856 0965 3F       		.byte	0x3f
 2857 0966 B4000000 		.4byte	0xb4
 2858 096a 0E       		.byte	0xe
 2859 096b 07       		.uleb128 0x7
 2860 096c 8A050000 		.4byte	.LASF147
 2861 0970 14       		.byte	0x14
 2862 0971 40       		.byte	0x40
 2863 0972 B4000000 		.4byte	0xb4
 2864 0976 0F       		.byte	0xf
 2865 0977 07       		.uleb128 0x7
 2866 0978 5D010000 		.4byte	.LASF148
 2867 097c 14       		.byte	0x14
 2868 097d 41       		.byte	0x41
 2869 097e B4000000 		.4byte	0xb4
 2870 0982 10       		.byte	0x10
 2871 0983 07       		.uleb128 0x7
 2872 0984 2D010000 		.4byte	.LASF149
 2873 0988 14       		.byte	0x14
 2874 0989 43       		.byte	0x43
 2875 098a B4000000 		.4byte	0xb4
 2876 098e 11       		.byte	0x11
 2877 098f 07       		.uleb128 0x7
 2878 0990 6D010000 		.4byte	.LASF150
 2879 0994 14       		.byte	0x14
 2880 0995 44       		.byte	0x44
 2881 0996 B4000000 		.4byte	0xb4
 2882 099a 12       		.byte	0x12
 2883 099b 07       		.uleb128 0x7
 2884 099c 06050000 		.4byte	.LASF151
 2885 09a0 14       		.byte	0x14
 2886 09a1 45       		.byte	0x45
 2887 09a2 B4000000 		.4byte	0xb4
 2888 09a6 13       		.byte	0x13
 2889 09a7 07       		.uleb128 0x7
 2890 09a8 E5060000 		.4byte	.LASF152
 2891 09ac 14       		.byte	0x14
 2892 09ad 46       		.byte	0x46
 2893 09ae B4000000 		.4byte	0xb4
 2894 09b2 14       		.byte	0x14
 2895 09b3 07       		.uleb128 0x7
 2896 09b4 93040000 		.4byte	.LASF153
 2897 09b8 14       		.byte	0x14
 2898 09b9 48       		.byte	0x48
 2899 09ba B4000000 		.4byte	0xb4
 2900 09be 15       		.byte	0x15
ARM GAS  C:\Users\PCHAUT~1\AppData\Local\Temp\ccqSs9HN.s 			page 52


 2901 09bf 00       		.byte	0
 2902 09c0 18       		.uleb128 0x18
 2903 09c1 AC080000 		.4byte	0x8ac
 2904 09c5 D0090000 		.4byte	0x9d0
 2905 09c9 19       		.uleb128 0x19
 2906 09ca 37000000 		.4byte	0x37
 2907 09ce 03       		.byte	0x3
 2908 09cf 00       		.byte	0
 2909 09d0 03       		.uleb128 0x3
 2910 09d1 13030000 		.4byte	.LASF154
 2911 09d5 14       		.byte	0x14
 2912 09d6 49       		.byte	0x49
 2913 09d7 DF080000 		.4byte	0x8df
 2914 09db 0F       		.uleb128 0xf
 2915 09dc D0090000 		.4byte	0x9d0
 2916 09e0 14       		.uleb128 0x14
 2917 09e1 0C040000 		.4byte	.LASF155
 2918 09e5 14       		.byte	0x14
 2919 09e6 6E       		.byte	0x6e
 2920 09e7 DB090000 		.4byte	0x9db
 2921 09eb 03       		.uleb128 0x3
 2922 09ec 19050000 		.4byte	.LASF156
 2923 09f0 04       		.byte	0x4
 2924 09f1 38       		.byte	0x38
 2925 09f2 33080000 		.4byte	0x833
 2926 09f6 03       		.uleb128 0x3
 2927 09f7 89030000 		.4byte	.LASF157
 2928 09fb 13       		.byte	0x13
 2929 09fc 34       		.byte	0x34
 2930 09fd 5E080000 		.4byte	0x85e
 2931 0a01 0A       		.uleb128 0xa
 2932 0a02 04       		.byte	0x4
 2933 0a03 F6090000 		.4byte	0x9f6
 2934 0a07 16       		.uleb128 0x16
 2935 0a08 28       		.byte	0x28
 2936 0a09 05       		.byte	0x5
 2937 0a0a 38       		.byte	0x38
 2938 0a0b 580A0000 		.4byte	0xa58
 2939 0a0f 07       		.uleb128 0x7
 2940 0a10 B8050000 		.4byte	.LASF158
 2941 0a14 05       		.byte	0x5
 2942 0a15 39       		.byte	0x39
 2943 0a16 580A0000 		.4byte	0xa58
 2944 0a1a 00       		.byte	0
 2945 0a1b 07       		.uleb128 0x7
 2946 0a1c 7D060000 		.4byte	.LASF159
 2947 0a20 05       		.byte	0x5
 2948 0a21 3B       		.byte	0x3b
 2949 0a22 580A0000 		.4byte	0xa58
 2950 0a26 04       		.byte	0x4
 2951 0a27 07       		.uleb128 0x7
 2952 0a28 14010000 		.4byte	.LASF160
 2953 0a2c 05       		.byte	0x5
 2954 0a2d 3D       		.byte	0x3d
 2955 0a2e 580A0000 		.4byte	0xa58
 2956 0a32 08       		.byte	0x8
 2957 0a33 07       		.uleb128 0x7
ARM GAS  C:\Users\PCHAUT~1\AppData\Local\Temp\ccqSs9HN.s 			page 53


 2958 0a34 5F050000 		.4byte	.LASF161
 2959 0a38 05       		.byte	0x5
 2960 0a39 3E       		.byte	0x3e
 2961 0a3a 580A0000 		.4byte	0xa58
 2962 0a3e 0C       		.byte	0xc
 2963 0a3f 07       		.uleb128 0x7
 2964 0a40 80080000 		.4byte	.LASF162
 2965 0a44 05       		.byte	0x5
 2966 0a45 3F       		.byte	0x3f
 2967 0a46 EB090000 		.4byte	0x9eb
 2968 0a4a 10       		.byte	0x10
 2969 0a4b 07       		.uleb128 0x7
 2970 0a4c 15040000 		.4byte	.LASF163
 2971 0a50 05       		.byte	0x5
 2972 0a51 41       		.byte	0x41
 2973 0a52 EB090000 		.4byte	0x9eb
 2974 0a56 1C       		.byte	0x1c
 2975 0a57 00       		.byte	0
 2976 0a58 0A       		.uleb128 0xa
 2977 0a59 04       		.byte	0x4
 2978 0a5a 3D010000 		.4byte	0x13d
 2979 0a5e 03       		.uleb128 0x3
 2980 0a5f 2D090000 		.4byte	.LASF164
 2981 0a63 05       		.byte	0x5
 2982 0a64 43       		.byte	0x43
 2983 0a65 070A0000 		.4byte	0xa07
 2984 0a69 06       		.uleb128 0x6
 2985 0a6a 80070000 		.4byte	.LASF165
 2986 0a6e 10       		.byte	0x10
 2987 0a6f 15       		.byte	0x15
 2988 0a70 3B       		.byte	0x3b
 2989 0a71 A60A0000 		.4byte	0xaa6
 2990 0a75 07       		.uleb128 0x7
 2991 0a76 2D040000 		.4byte	.LASF166
 2992 0a7a 15       		.byte	0x15
 2993 0a7b 3C       		.byte	0x3c
 2994 0a7c A1080000 		.4byte	0x8a1
 2995 0a80 00       		.byte	0
 2996 0a81 07       		.uleb128 0x7
 2997 0a82 B2050000 		.4byte	.LASF167
 2998 0a86 15       		.byte	0x15
 2999 0a87 3D       		.byte	0x3d
 3000 0a88 AC0A0000 		.4byte	0xaac
 3001 0a8c 04       		.byte	0x4
 3002 0a8d 07       		.uleb128 0x7
 3003 0a8e 3A010000 		.4byte	.LASF168
 3004 0a92 15       		.byte	0x15
 3005 0a93 3E       		.byte	0x3e
 3006 0a94 AC0A0000 		.4byte	0xaac
 3007 0a98 08       		.byte	0x8
 3008 0a99 07       		.uleb128 0x7
 3009 0a9a 36060000 		.4byte	.LASF169
 3010 0a9e 15       		.byte	0x15
 3011 0a9f 3F       		.byte	0x3f
 3012 0aa0 AC0A0000 		.4byte	0xaac
 3013 0aa4 0C       		.byte	0xc
 3014 0aa5 00       		.byte	0
ARM GAS  C:\Users\PCHAUT~1\AppData\Local\Temp\ccqSs9HN.s 			page 54


 3015 0aa6 0F       		.uleb128 0xf
 3016 0aa7 690A0000 		.4byte	0xa69
 3017 0aab 1D       		.uleb128 0x1d
 3018 0aac 0A       		.uleb128 0xa
 3019 0aad 04       		.byte	0x4
 3020 0aae AB0A0000 		.4byte	0xaab
 3021 0ab2 17       		.uleb128 0x17
 3022 0ab3 D809     		.2byte	0x9d8
 3023 0ab5 15       		.byte	0x15
 3024 0ab6 44       		.byte	0x44
 3025 0ab7 F70A0000 		.4byte	0xaf7
 3026 0abb 15       		.uleb128 0x15
 3027 0abc 543000   		.ascii	"T0\000"
 3028 0abf 15       		.byte	0x15
 3029 0ac0 45       		.byte	0x45
 3030 0ac1 F70A0000 		.4byte	0xaf7
 3031 0ac5 00       		.byte	0
 3032 0ac6 1E       		.uleb128 0x1e
 3033 0ac7 543100   		.ascii	"T1\000"
 3034 0aca 15       		.byte	0x15
 3035 0acb 46       		.byte	0x46
 3036 0acc F70A0000 		.4byte	0xaf7
 3037 0ad0 F801     		.2byte	0x1f8
 3038 0ad2 1E       		.uleb128 0x1e
 3039 0ad3 543200   		.ascii	"T2\000"
 3040 0ad6 15       		.byte	0x15
 3041 0ad7 47       		.byte	0x47
 3042 0ad8 F70A0000 		.4byte	0xaf7
 3043 0adc F003     		.2byte	0x3f0
 3044 0ade 1E       		.uleb128 0x1e
 3045 0adf 543300   		.ascii	"T3\000"
 3046 0ae2 15       		.byte	0x15
 3047 0ae3 48       		.byte	0x48
 3048 0ae4 F70A0000 		.4byte	0xaf7
 3049 0ae8 E805     		.2byte	0x5e8
 3050 0aea 1E       		.uleb128 0x1e
 3051 0aeb 543400   		.ascii	"T4\000"
 3052 0aee 15       		.byte	0x15
 3053 0aef 49       		.byte	0x49
 3054 0af0 F70A0000 		.4byte	0xaf7
 3055 0af4 E007     		.2byte	0x7e0
 3056 0af6 00       		.byte	0
 3057 0af7 18       		.uleb128 0x18
 3058 0af8 20050000 		.4byte	0x520
 3059 0afc 070B0000 		.4byte	0xb07
 3060 0b00 19       		.uleb128 0x19
 3061 0b01 37000000 		.4byte	0x37
 3062 0b05 3E       		.byte	0x3e
 3063 0b06 00       		.byte	0
 3064 0b07 1F       		.uleb128 0x1f
 3065 0b08 8B080000 		.4byte	.LASF192
 3066 0b0c D809     		.2byte	0x9d8
 3067 0b0e 15       		.byte	0x15
 3068 0b0f 43       		.byte	0x43
 3069 0b10 2A0B0000 		.4byte	0xb2a
 3070 0b14 20       		.uleb128 0x20
 3071 0b15 776100   		.ascii	"wa\000"
ARM GAS  C:\Users\PCHAUT~1\AppData\Local\Temp\ccqSs9HN.s 			page 55


 3072 0b18 15       		.byte	0x15
 3073 0b19 4A       		.byte	0x4a
 3074 0b1a B20A0000 		.4byte	0xab2
 3075 0b1e 21       		.uleb128 0x21
 3076 0b1f 1D030000 		.4byte	.LASF170
 3077 0b23 15       		.byte	0x15
 3078 0b24 4B       		.byte	0x4b
 3079 0b25 2A0B0000 		.4byte	0xb2a
 3080 0b29 00       		.byte	0
 3081 0b2a 18       		.uleb128 0x18
 3082 0b2b B4000000 		.4byte	0xb4
 3083 0b2f 3B0B0000 		.4byte	0xb3b
 3084 0b33 22       		.uleb128 0x22
 3085 0b34 37000000 		.4byte	0x37
 3086 0b38 D709     		.2byte	0x9d7
 3087 0b3a 00       		.byte	0
 3088 0b3b 14       		.uleb128 0x14
 3089 0b3c 53080000 		.4byte	.LASF171
 3090 0b40 15       		.byte	0x15
 3091 0b41 4F       		.byte	0x4f
 3092 0b42 460B0000 		.4byte	0xb46
 3093 0b46 04       		.uleb128 0x4
 3094 0b47 01       		.byte	0x1
 3095 0b48 02       		.byte	0x2
 3096 0b49 4F060000 		.4byte	.LASF172
 3097 0b4d 18       		.uleb128 0x18
 3098 0b4e AD020000 		.4byte	0x2ad
 3099 0b52 5D0B0000 		.4byte	0xb5d
 3100 0b56 19       		.uleb128 0x19
 3101 0b57 37000000 		.4byte	0x37
 3102 0b5b 04       		.byte	0x4
 3103 0b5c 00       		.byte	0
 3104 0b5d 14       		.uleb128 0x14
 3105 0b5e B7060000 		.4byte	.LASF173
 3106 0b62 15       		.byte	0x15
 3107 0b63 A7       		.byte	0xa7
 3108 0b64 4D0B0000 		.4byte	0xb4d
 3109 0b68 14       		.uleb128 0x14
 3110 0b69 F9000000 		.4byte	.LASF174
 3111 0b6d 15       		.byte	0x15
 3112 0b6e A8       		.byte	0xa8
 3113 0b6f 070B0000 		.4byte	0xb07
 3114 0b73 18       		.uleb128 0x18
 3115 0b74 8C030000 		.4byte	0x38c
 3116 0b78 7E0B0000 		.4byte	0xb7e
 3117 0b7c 23       		.uleb128 0x23
 3118 0b7d 00       		.byte	0
 3119 0b7e 0F       		.uleb128 0xf
 3120 0b7f 730B0000 		.4byte	0xb73
 3121 0b83 24       		.uleb128 0x24
 3122 0b84 776100   		.ascii	"wa\000"
 3123 0b87 15       		.byte	0x15
 3124 0b88 A9       		.byte	0xa9
 3125 0b89 7E0B0000 		.4byte	0xb7e
 3126 0b8d 14       		.uleb128 0x14
 3127 0b8e BF060000 		.4byte	.LASF175
 3128 0b92 15       		.byte	0x15
ARM GAS  C:\Users\PCHAUT~1\AppData\Local\Temp\ccqSs9HN.s 			page 56


 3129 0b93 AA       		.byte	0xaa
 3130 0b94 460B0000 		.4byte	0xb46
 3131 0b98 25       		.uleb128 0x25
 3132 0b99 6D623100 		.ascii	"mb1\000"
 3133 0b9d 06       		.byte	0x6
 3134 0b9e 3C       		.byte	0x3c
 3135 0b9f 5E0A0000 		.4byte	0xa5e
 3136 0ba3 05       		.uleb128 0x5
 3137 0ba4 03       		.byte	0x3
 3138 0ba5 00000000 		.4byte	mb1
 3139 0ba9 26       		.uleb128 0x26
 3140 0baa DA040000 		.4byte	.LASF176
 3141 0bae 06       		.byte	0x6
 3142 0baf DE       		.byte	0xde
 3143 0bb0 A60A0000 		.4byte	0xaa6
 3144 0bb4 05       		.uleb128 0x5
 3145 0bb5 03       		.byte	0x3
 3146 0bb6 00000000 		.4byte	testmbox1
 3147 0bba 18       		.uleb128 0x18
 3148 0bbb D50B0000 		.4byte	0xbd5
 3149 0bbf CA0B0000 		.4byte	0xbca
 3150 0bc3 19       		.uleb128 0x19
 3151 0bc4 37000000 		.4byte	0x37
 3152 0bc8 01       		.byte	0x1
 3153 0bc9 00       		.byte	0
 3154 0bca 0F       		.uleb128 0xf
 3155 0bcb BA0B0000 		.4byte	0xbba
 3156 0bcf 0A       		.uleb128 0xa
 3157 0bd0 04       		.byte	0x4
 3158 0bd1 A60A0000 		.4byte	0xaa6
 3159 0bd5 0F       		.uleb128 0xf
 3160 0bd6 CF0B0000 		.4byte	0xbcf
 3161 0bda 26       		.uleb128 0x26
 3162 0bdb 5E040000 		.4byte	.LASF177
 3163 0bdf 06       		.byte	0x6
 3164 0be0 EA       		.byte	0xea
 3165 0be1 CA0B0000 		.4byte	0xbca
 3166 0be5 05       		.uleb128 0x5
 3167 0be6 03       		.byte	0x3
 3168 0be7 00000000 		.4byte	patternmbox
 3169 0beb 27       		.uleb128 0x27
 3170 0bec C2050000 		.4byte	.LASF183
 3171 0bf0 06       		.byte	0x6
 3172 0bf1 4C       		.byte	0x4c
 3173 0bf2 00000000 		.4byte	.LFB220
 3174 0bf6 B8080000 		.4byte	.LFE220-.LFB220
 3175 0bfa 01       		.uleb128 0x1
 3176 0bfb 9C       		.byte	0x9c
 3177 0bfc 290C0000 		.4byte	0xc29
 3178 0c00 28       		.uleb128 0x28
 3179 0c01 F8050000 		.4byte	.LASF178
 3180 0c05 06       		.byte	0x6
 3181 0c06 4D       		.byte	0x4d
 3182 0c07 3D010000 		.4byte	0x13d
 3183 0c0b 02       		.uleb128 0x2
 3184 0c0c 91       		.byte	0x91
 3185 0c0d 70       		.sleb128 -16
ARM GAS  C:\Users\PCHAUT~1\AppData\Local\Temp\ccqSs9HN.s 			page 57


 3186 0c0e 28       		.uleb128 0x28
 3187 0c0f FD050000 		.4byte	.LASF179
 3188 0c13 06       		.byte	0x6
 3189 0c14 4D       		.byte	0x4d
 3190 0c15 3D010000 		.4byte	0x13d
 3191 0c19 02       		.uleb128 0x2
 3192 0c1a 91       		.byte	0x91
 3193 0c1b 68       		.sleb128 -24
 3194 0c1c 25       		.uleb128 0x25
 3195 0c1d 6900     		.ascii	"i\000"
 3196 0c1f 06       		.byte	0x6
 3197 0c20 4E       		.byte	0x4e
 3198 0c21 37000000 		.4byte	0x37
 3199 0c25 02       		.uleb128 0x2
 3200 0c26 91       		.byte	0x91
 3201 0c27 6C       		.sleb128 -20
 3202 0c28 00       		.byte	0
 3203 0c29 29       		.uleb128 0x29
 3204 0c2a 9F040000 		.4byte	.LASF185
 3205 0c2e 06       		.byte	0x6
 3206 0c2f 47       		.byte	0x47
 3207 0c30 00000000 		.4byte	.LFB219
 3208 0c34 38000000 		.4byte	.LFE219-.LFB219
 3209 0c38 01       		.uleb128 0x1
 3210 0c39 9C       		.byte	0x9c
 3211 0c3a 2A       		.uleb128 0x2a
 3212 0c3b 6B060000 		.4byte	.LASF180
 3213 0c3f 05       		.byte	0x5
 3214 0c40 B1       		.byte	0xb1
 3215 0c41 53010000 		.4byte	0x153
 3216 0c45 00000000 		.4byte	.LFB205
 3217 0c49 38000000 		.4byte	.LFE205-.LFB205
 3218 0c4d 01       		.uleb128 0x1
 3219 0c4e 9C       		.byte	0x9c
 3220 0c4f 620C0000 		.4byte	0xc62
 3221 0c53 2B       		.uleb128 0x2b
 3222 0c54 6D627000 		.ascii	"mbp\000"
 3223 0c58 05       		.byte	0x5
 3224 0c59 B1       		.byte	0xb1
 3225 0c5a 620C0000 		.4byte	0xc62
 3226 0c5e 02       		.uleb128 0x2
 3227 0c5f 91       		.byte	0x91
 3228 0c60 6C       		.sleb128 -20
 3229 0c61 00       		.byte	0
 3230 0c62 0A       		.uleb128 0xa
 3231 0c63 04       		.byte	0x4
 3232 0c64 5E0A0000 		.4byte	0xa5e
 3233 0c68 2A       		.uleb128 0x2a
 3234 0c69 34030000 		.4byte	.LASF181
 3235 0c6d 05       		.byte	0x5
 3236 0c6e 9E       		.byte	0x9e
 3237 0c6f 53010000 		.4byte	0x153
 3238 0c73 00000000 		.4byte	.LFB204
 3239 0c77 38000000 		.4byte	.LFE204-.LFB204
 3240 0c7b 01       		.uleb128 0x1
 3241 0c7c 9C       		.byte	0x9c
 3242 0c7d 900C0000 		.4byte	0xc90
ARM GAS  C:\Users\PCHAUT~1\AppData\Local\Temp\ccqSs9HN.s 			page 58


 3243 0c81 2B       		.uleb128 0x2b
 3244 0c82 6D627000 		.ascii	"mbp\000"
 3245 0c86 05       		.byte	0x5
 3246 0c87 9E       		.byte	0x9e
 3247 0c88 620C0000 		.4byte	0xc62
 3248 0c8c 02       		.uleb128 0x2
 3249 0c8d 91       		.byte	0x91
 3250 0c8e 6C       		.sleb128 -20
 3251 0c8f 00       		.byte	0
 3252 0c90 2A       		.uleb128 0x2a
 3253 0c91 2A080000 		.4byte	.LASF182
 3254 0c95 04       		.byte	0x4
 3255 0c96 95       		.byte	0x95
 3256 0c97 53010000 		.4byte	0x153
 3257 0c9b 00000000 		.4byte	.LFB181
 3258 0c9f 30000000 		.4byte	.LFE181-.LFB181
 3259 0ca3 01       		.uleb128 0x1
 3260 0ca4 9C       		.byte	0x9c
 3261 0ca5 B70C0000 		.4byte	0xcb7
 3262 0ca9 2B       		.uleb128 0x2b
 3263 0caa 737000   		.ascii	"sp\000"
 3264 0cad 04       		.byte	0x4
 3265 0cae 95       		.byte	0x95
 3266 0caf B70C0000 		.4byte	0xcb7
 3267 0cb3 02       		.uleb128 0x2
 3268 0cb4 91       		.byte	0x91
 3269 0cb5 6C       		.sleb128 -20
 3270 0cb6 00       		.byte	0
 3271 0cb7 0A       		.uleb128 0xa
 3272 0cb8 04       		.byte	0x4
 3273 0cb9 EB090000 		.4byte	0x9eb
 3274 0cbd 2C       		.uleb128 0x2c
 3275 0cbe 44090000 		.4byte	.LASF184
 3276 0cc2 03       		.byte	0x3
 3277 0cc3 6601     		.2byte	0x166
 3278 0cc5 00000000 		.4byte	.LFB146
 3279 0cc9 58000000 		.4byte	.LFE146-.LFB146
 3280 0ccd 01       		.uleb128 0x1
 3281 0cce 9C       		.byte	0x9c
 3282 0ccf E30C0000 		.4byte	0xce3
 3283 0cd3 2D       		.uleb128 0x2d
 3284 0cd4 FC060000 		.4byte	.LASF193
 3285 0cd8 F30C0000 		.4byte	0xcf3
 3286 0cdc 05       		.uleb128 0x5
 3287 0cdd 03       		.byte	0x3
 3288 0cde 00000000 		.4byte	__func__.7153
 3289 0ce2 00       		.byte	0
 3290 0ce3 18       		.uleb128 0x18
 3291 0ce4 B3080000 		.4byte	0x8b3
 3292 0ce8 F30C0000 		.4byte	0xcf3
 3293 0cec 19       		.uleb128 0x19
 3294 0ced 37000000 		.4byte	0x37
 3295 0cf1 0B       		.byte	0xb
 3296 0cf2 00       		.byte	0
 3297 0cf3 0F       		.uleb128 0xf
 3298 0cf4 E30C0000 		.4byte	0xce3
 3299 0cf8 2E       		.uleb128 0x2e
ARM GAS  C:\Users\PCHAUT~1\AppData\Local\Temp\ccqSs9HN.s 			page 59


 3300 0cf9 0D070000 		.4byte	.LASF186
 3301 0cfd 03       		.byte	0x3
 3302 0cfe 5A01     		.2byte	0x15a
 3303 0d00 00000000 		.4byte	.LFB145
 3304 0d04 30000000 		.4byte	.LFE145-.LFB145
 3305 0d08 01       		.uleb128 0x1
 3306 0d09 9C       		.byte	0x9c
 3307 0d0a 2C       		.uleb128 0x2c
 3308 0d0b 91010000 		.4byte	.LASF187
 3309 0d0f 01       		.byte	0x1
 3310 0d10 CA01     		.2byte	0x1ca
 3311 0d12 00000000 		.4byte	.LFB117
 3312 0d16 30000000 		.4byte	.LFE117-.LFB117
 3313 0d1a 01       		.uleb128 0x1
 3314 0d1b 9C       		.byte	0x9c
 3315 0d1c 3A0D0000 		.4byte	0xd3a
 3316 0d20 2F       		.uleb128 0x2f
 3317 0d21 6A0D0000 		.4byte	0xd6a
 3318 0d25 0E000000 		.4byte	.LBB8
 3319 0d29 06000000 		.4byte	.LBE8-.LBB8
 3320 0d2d 01       		.byte	0x1
 3321 0d2e CD01     		.2byte	0x1cd
 3322 0d30 30       		.uleb128 0x30
 3323 0d31 730D0000 		.4byte	0xd73
 3324 0d35 02       		.uleb128 0x2
 3325 0d36 91       		.byte	0x91
 3326 0d37 70       		.sleb128 -16
 3327 0d38 00       		.byte	0
 3328 0d39 00       		.byte	0
 3329 0d3a 2C       		.uleb128 0x2c
 3330 0d3b 8B000000 		.4byte	.LASF188
 3331 0d3f 01       		.byte	0x1
 3332 0d40 BC01     		.2byte	0x1bc
 3333 0d42 00000000 		.4byte	.LFB116
 3334 0d46 30000000 		.4byte	.LFE116-.LFB116
 3335 0d4a 01       		.uleb128 0x1
 3336 0d4b 9C       		.byte	0x9c
 3337 0d4c 6A0D0000 		.4byte	0xd6a
 3338 0d50 2F       		.uleb128 0x2f
 3339 0d51 6A0D0000 		.4byte	0xd6a
 3340 0d55 0E000000 		.4byte	.LBB6
 3341 0d59 06000000 		.4byte	.LBE6-.LBB6
 3342 0d5d 01       		.byte	0x1
 3343 0d5e BF01     		.2byte	0x1bf
 3344 0d60 30       		.uleb128 0x30
 3345 0d61 730D0000 		.4byte	0xd73
 3346 0d65 02       		.uleb128 0x2
 3347 0d66 91       		.byte	0x91
 3348 0d67 70       		.sleb128 -16
 3349 0d68 00       		.byte	0
 3350 0d69 00       		.byte	0
 3351 0d6a 31       		.uleb128 0x31
 3352 0d6b 3B080000 		.4byte	.LASF194
 3353 0d6f 02       		.byte	0x2
 3354 0d70 2002     		.2byte	0x220
 3355 0d72 03       		.byte	0x3
 3356 0d73 32       		.uleb128 0x32
ARM GAS  C:\Users\PCHAUT~1\AppData\Local\Temp\ccqSs9HN.s 			page 60


 3357 0d74 91030000 		.4byte	.LASF195
 3358 0d78 02       		.byte	0x2
 3359 0d79 2002     		.2byte	0x220
 3360 0d7b DA000000 		.4byte	0xda
 3361 0d7f 00       		.byte	0
 3362 0d80 00       		.byte	0
 3363              		.section	.debug_abbrev,"",%progbits
 3364              	.Ldebug_abbrev0:
 3365 0000 01       		.uleb128 0x1
 3366 0001 11       		.uleb128 0x11
 3367 0002 01       		.byte	0x1
 3368 0003 25       		.uleb128 0x25
 3369 0004 0E       		.uleb128 0xe
 3370 0005 13       		.uleb128 0x13
 3371 0006 0B       		.uleb128 0xb
 3372 0007 03       		.uleb128 0x3
 3373 0008 0E       		.uleb128 0xe
 3374 0009 1B       		.uleb128 0x1b
 3375 000a 0E       		.uleb128 0xe
 3376 000b 55       		.uleb128 0x55
 3377 000c 17       		.uleb128 0x17
 3378 000d 11       		.uleb128 0x11
 3379 000e 01       		.uleb128 0x1
 3380 000f 10       		.uleb128 0x10
 3381 0010 17       		.uleb128 0x17
 3382 0011 00       		.byte	0
 3383 0012 00       		.byte	0
 3384 0013 02       		.uleb128 0x2
 3385 0014 24       		.uleb128 0x24
 3386 0015 00       		.byte	0
 3387 0016 0B       		.uleb128 0xb
 3388 0017 0B       		.uleb128 0xb
 3389 0018 3E       		.uleb128 0x3e
 3390 0019 0B       		.uleb128 0xb
 3391 001a 03       		.uleb128 0x3
 3392 001b 08       		.uleb128 0x8
 3393 001c 00       		.byte	0
 3394 001d 00       		.byte	0
 3395 001e 03       		.uleb128 0x3
 3396 001f 16       		.uleb128 0x16
 3397 0020 00       		.byte	0
 3398 0021 03       		.uleb128 0x3
 3399 0022 0E       		.uleb128 0xe
 3400 0023 3A       		.uleb128 0x3a
 3401 0024 0B       		.uleb128 0xb
 3402 0025 3B       		.uleb128 0x3b
 3403 0026 0B       		.uleb128 0xb
 3404 0027 49       		.uleb128 0x49
 3405 0028 13       		.uleb128 0x13
 3406 0029 00       		.byte	0
 3407 002a 00       		.byte	0
 3408 002b 04       		.uleb128 0x4
 3409 002c 24       		.uleb128 0x24
 3410 002d 00       		.byte	0
 3411 002e 0B       		.uleb128 0xb
 3412 002f 0B       		.uleb128 0xb
 3413 0030 3E       		.uleb128 0x3e
ARM GAS  C:\Users\PCHAUT~1\AppData\Local\Temp\ccqSs9HN.s 			page 61


 3414 0031 0B       		.uleb128 0xb
 3415 0032 03       		.uleb128 0x3
 3416 0033 0E       		.uleb128 0xe
 3417 0034 00       		.byte	0
 3418 0035 00       		.byte	0
 3419 0036 05       		.uleb128 0x5
 3420 0037 35       		.uleb128 0x35
 3421 0038 00       		.byte	0
 3422 0039 49       		.uleb128 0x49
 3423 003a 13       		.uleb128 0x13
 3424 003b 00       		.byte	0
 3425 003c 00       		.byte	0
 3426 003d 06       		.uleb128 0x6
 3427 003e 13       		.uleb128 0x13
 3428 003f 01       		.byte	0x1
 3429 0040 03       		.uleb128 0x3
 3430 0041 0E       		.uleb128 0xe
 3431 0042 0B       		.uleb128 0xb
 3432 0043 0B       		.uleb128 0xb
 3433 0044 3A       		.uleb128 0x3a
 3434 0045 0B       		.uleb128 0xb
 3435 0046 3B       		.uleb128 0x3b
 3436 0047 0B       		.uleb128 0xb
 3437 0048 01       		.uleb128 0x1
 3438 0049 13       		.uleb128 0x13
 3439 004a 00       		.byte	0
 3440 004b 00       		.byte	0
 3441 004c 07       		.uleb128 0x7
 3442 004d 0D       		.uleb128 0xd
 3443 004e 00       		.byte	0
 3444 004f 03       		.uleb128 0x3
 3445 0050 0E       		.uleb128 0xe
 3446 0051 3A       		.uleb128 0x3a
 3447 0052 0B       		.uleb128 0xb
 3448 0053 3B       		.uleb128 0x3b
 3449 0054 0B       		.uleb128 0xb
 3450 0055 49       		.uleb128 0x49
 3451 0056 13       		.uleb128 0x13
 3452 0057 38       		.uleb128 0x38
 3453 0058 0B       		.uleb128 0xb
 3454 0059 00       		.byte	0
 3455 005a 00       		.byte	0
 3456 005b 08       		.uleb128 0x8
 3457 005c 0D       		.uleb128 0xd
 3458 005d 00       		.byte	0
 3459 005e 03       		.uleb128 0x3
 3460 005f 08       		.uleb128 0x8
 3461 0060 3A       		.uleb128 0x3a
 3462 0061 0B       		.uleb128 0xb
 3463 0062 3B       		.uleb128 0x3b
 3464 0063 05       		.uleb128 0x5
 3465 0064 49       		.uleb128 0x49
 3466 0065 13       		.uleb128 0x13
 3467 0066 38       		.uleb128 0x38
 3468 0067 0B       		.uleb128 0xb
 3469 0068 00       		.byte	0
 3470 0069 00       		.byte	0
ARM GAS  C:\Users\PCHAUT~1\AppData\Local\Temp\ccqSs9HN.s 			page 62


 3471 006a 09       		.uleb128 0x9
 3472 006b 0D       		.uleb128 0xd
 3473 006c 00       		.byte	0
 3474 006d 03       		.uleb128 0x3
 3475 006e 0E       		.uleb128 0xe
 3476 006f 3A       		.uleb128 0x3a
 3477 0070 0B       		.uleb128 0xb
 3478 0071 3B       		.uleb128 0x3b
 3479 0072 05       		.uleb128 0x5
 3480 0073 49       		.uleb128 0x49
 3481 0074 13       		.uleb128 0x13
 3482 0075 38       		.uleb128 0x38
 3483 0076 0B       		.uleb128 0xb
 3484 0077 00       		.byte	0
 3485 0078 00       		.byte	0
 3486 0079 0A       		.uleb128 0xa
 3487 007a 0F       		.uleb128 0xf
 3488 007b 00       		.byte	0
 3489 007c 0B       		.uleb128 0xb
 3490 007d 0B       		.uleb128 0xb
 3491 007e 49       		.uleb128 0x49
 3492 007f 13       		.uleb128 0x13
 3493 0080 00       		.byte	0
 3494 0081 00       		.byte	0
 3495 0082 0B       		.uleb128 0xb
 3496 0083 13       		.uleb128 0x13
 3497 0084 01       		.byte	0x1
 3498 0085 03       		.uleb128 0x3
 3499 0086 0E       		.uleb128 0xe
 3500 0087 0B       		.uleb128 0xb
 3501 0088 0B       		.uleb128 0xb
 3502 0089 3A       		.uleb128 0x3a
 3503 008a 0B       		.uleb128 0xb
 3504 008b 3B       		.uleb128 0x3b
 3505 008c 05       		.uleb128 0x5
 3506 008d 01       		.uleb128 0x1
 3507 008e 13       		.uleb128 0x13
 3508 008f 00       		.byte	0
 3509 0090 00       		.byte	0
 3510 0091 0C       		.uleb128 0xc
 3511 0092 15       		.uleb128 0x15
 3512 0093 01       		.byte	0x1
 3513 0094 27       		.uleb128 0x27
 3514 0095 19       		.uleb128 0x19
 3515 0096 01       		.uleb128 0x1
 3516 0097 13       		.uleb128 0x13
 3517 0098 00       		.byte	0
 3518 0099 00       		.byte	0
 3519 009a 0D       		.uleb128 0xd
 3520 009b 05       		.uleb128 0x5
 3521 009c 00       		.byte	0
 3522 009d 49       		.uleb128 0x49
 3523 009e 13       		.uleb128 0x13
 3524 009f 00       		.byte	0
 3525 00a0 00       		.byte	0
 3526 00a1 0E       		.uleb128 0xe
 3527 00a2 0F       		.uleb128 0xf
ARM GAS  C:\Users\PCHAUT~1\AppData\Local\Temp\ccqSs9HN.s 			page 63


 3528 00a3 00       		.byte	0
 3529 00a4 0B       		.uleb128 0xb
 3530 00a5 0B       		.uleb128 0xb
 3531 00a6 00       		.byte	0
 3532 00a7 00       		.byte	0
 3533 00a8 0F       		.uleb128 0xf
 3534 00a9 26       		.uleb128 0x26
 3535 00aa 00       		.byte	0
 3536 00ab 49       		.uleb128 0x49
 3537 00ac 13       		.uleb128 0x13
 3538 00ad 00       		.byte	0
 3539 00ae 00       		.byte	0
 3540 00af 10       		.uleb128 0x10
 3541 00b0 13       		.uleb128 0x13
 3542 00b1 01       		.byte	0x1
 3543 00b2 03       		.uleb128 0x3
 3544 00b3 0E       		.uleb128 0xe
 3545 00b4 0B       		.uleb128 0xb
 3546 00b5 05       		.uleb128 0x5
 3547 00b6 3A       		.uleb128 0x3a
 3548 00b7 0B       		.uleb128 0xb
 3549 00b8 3B       		.uleb128 0x3b
 3550 00b9 05       		.uleb128 0x5
 3551 00ba 01       		.uleb128 0x1
 3552 00bb 13       		.uleb128 0x13
 3553 00bc 00       		.byte	0
 3554 00bd 00       		.byte	0
 3555 00be 11       		.uleb128 0x11
 3556 00bf 0D       		.uleb128 0xd
 3557 00c0 00       		.byte	0
 3558 00c1 03       		.uleb128 0x3
 3559 00c2 0E       		.uleb128 0xe
 3560 00c3 3A       		.uleb128 0x3a
 3561 00c4 0B       		.uleb128 0xb
 3562 00c5 3B       		.uleb128 0x3b
 3563 00c6 05       		.uleb128 0x5
 3564 00c7 49       		.uleb128 0x49
 3565 00c8 13       		.uleb128 0x13
 3566 00c9 38       		.uleb128 0x38
 3567 00ca 05       		.uleb128 0x5
 3568 00cb 00       		.byte	0
 3569 00cc 00       		.byte	0
 3570 00cd 12       		.uleb128 0x12
 3571 00ce 0D       		.uleb128 0xd
 3572 00cf 00       		.byte	0
 3573 00d0 03       		.uleb128 0x3
 3574 00d1 08       		.uleb128 0x8
 3575 00d2 3A       		.uleb128 0x3a
 3576 00d3 0B       		.uleb128 0xb
 3577 00d4 3B       		.uleb128 0x3b
 3578 00d5 05       		.uleb128 0x5
 3579 00d6 49       		.uleb128 0x49
 3580 00d7 13       		.uleb128 0x13
 3581 00d8 38       		.uleb128 0x38
 3582 00d9 05       		.uleb128 0x5
 3583 00da 00       		.byte	0
 3584 00db 00       		.byte	0
ARM GAS  C:\Users\PCHAUT~1\AppData\Local\Temp\ccqSs9HN.s 			page 64


 3585 00dc 13       		.uleb128 0x13
 3586 00dd 34       		.uleb128 0x34
 3587 00de 00       		.byte	0
 3588 00df 03       		.uleb128 0x3
 3589 00e0 0E       		.uleb128 0xe
 3590 00e1 3A       		.uleb128 0x3a
 3591 00e2 0B       		.uleb128 0xb
 3592 00e3 3B       		.uleb128 0x3b
 3593 00e4 05       		.uleb128 0x5
 3594 00e5 49       		.uleb128 0x49
 3595 00e6 13       		.uleb128 0x13
 3596 00e7 3F       		.uleb128 0x3f
 3597 00e8 19       		.uleb128 0x19
 3598 00e9 3C       		.uleb128 0x3c
 3599 00ea 19       		.uleb128 0x19
 3600 00eb 00       		.byte	0
 3601 00ec 00       		.byte	0
 3602 00ed 14       		.uleb128 0x14
 3603 00ee 34       		.uleb128 0x34
 3604 00ef 00       		.byte	0
 3605 00f0 03       		.uleb128 0x3
 3606 00f1 0E       		.uleb128 0xe
 3607 00f2 3A       		.uleb128 0x3a
 3608 00f3 0B       		.uleb128 0xb
 3609 00f4 3B       		.uleb128 0x3b
 3610 00f5 0B       		.uleb128 0xb
 3611 00f6 49       		.uleb128 0x49
 3612 00f7 13       		.uleb128 0x13
 3613 00f8 3F       		.uleb128 0x3f
 3614 00f9 19       		.uleb128 0x19
 3615 00fa 3C       		.uleb128 0x3c
 3616 00fb 19       		.uleb128 0x19
 3617 00fc 00       		.byte	0
 3618 00fd 00       		.byte	0
 3619 00fe 15       		.uleb128 0x15
 3620 00ff 0D       		.uleb128 0xd
 3621 0100 00       		.byte	0
 3622 0101 03       		.uleb128 0x3
 3623 0102 08       		.uleb128 0x8
 3624 0103 3A       		.uleb128 0x3a
 3625 0104 0B       		.uleb128 0xb
 3626 0105 3B       		.uleb128 0x3b
 3627 0106 0B       		.uleb128 0xb
 3628 0107 49       		.uleb128 0x49
 3629 0108 13       		.uleb128 0x13
 3630 0109 38       		.uleb128 0x38
 3631 010a 0B       		.uleb128 0xb
 3632 010b 00       		.byte	0
 3633 010c 00       		.byte	0
 3634 010d 16       		.uleb128 0x16
 3635 010e 13       		.uleb128 0x13
 3636 010f 01       		.byte	0x1
 3637 0110 0B       		.uleb128 0xb
 3638 0111 0B       		.uleb128 0xb
 3639 0112 3A       		.uleb128 0x3a
 3640 0113 0B       		.uleb128 0xb
 3641 0114 3B       		.uleb128 0x3b
ARM GAS  C:\Users\PCHAUT~1\AppData\Local\Temp\ccqSs9HN.s 			page 65


 3642 0115 0B       		.uleb128 0xb
 3643 0116 01       		.uleb128 0x1
 3644 0117 13       		.uleb128 0x13
 3645 0118 00       		.byte	0
 3646 0119 00       		.byte	0
 3647 011a 17       		.uleb128 0x17
 3648 011b 13       		.uleb128 0x13
 3649 011c 01       		.byte	0x1
 3650 011d 0B       		.uleb128 0xb
 3651 011e 05       		.uleb128 0x5
 3652 011f 3A       		.uleb128 0x3a
 3653 0120 0B       		.uleb128 0xb
 3654 0121 3B       		.uleb128 0x3b
 3655 0122 0B       		.uleb128 0xb
 3656 0123 01       		.uleb128 0x1
 3657 0124 13       		.uleb128 0x13
 3658 0125 00       		.byte	0
 3659 0126 00       		.byte	0
 3660 0127 18       		.uleb128 0x18
 3661 0128 01       		.uleb128 0x1
 3662 0129 01       		.byte	0x1
 3663 012a 49       		.uleb128 0x49
 3664 012b 13       		.uleb128 0x13
 3665 012c 01       		.uleb128 0x1
 3666 012d 13       		.uleb128 0x13
 3667 012e 00       		.byte	0
 3668 012f 00       		.byte	0
 3669 0130 19       		.uleb128 0x19
 3670 0131 21       		.uleb128 0x21
 3671 0132 00       		.byte	0
 3672 0133 49       		.uleb128 0x49
 3673 0134 13       		.uleb128 0x13
 3674 0135 2F       		.uleb128 0x2f
 3675 0136 0B       		.uleb128 0xb
 3676 0137 00       		.byte	0
 3677 0138 00       		.byte	0
 3678 0139 1A       		.uleb128 0x1a
 3679 013a 17       		.uleb128 0x17
 3680 013b 01       		.byte	0x1
 3681 013c 0B       		.uleb128 0xb
 3682 013d 0B       		.uleb128 0xb
 3683 013e 3A       		.uleb128 0x3a
 3684 013f 0B       		.uleb128 0xb
 3685 0140 3B       		.uleb128 0x3b
 3686 0141 0B       		.uleb128 0xb
 3687 0142 01       		.uleb128 0x1
 3688 0143 13       		.uleb128 0x13
 3689 0144 00       		.byte	0
 3690 0145 00       		.byte	0
 3691 0146 1B       		.uleb128 0x1b
 3692 0147 0D       		.uleb128 0xd
 3693 0148 00       		.byte	0
 3694 0149 03       		.uleb128 0x3
 3695 014a 0E       		.uleb128 0xe
 3696 014b 3A       		.uleb128 0x3a
 3697 014c 0B       		.uleb128 0xb
 3698 014d 3B       		.uleb128 0x3b
ARM GAS  C:\Users\PCHAUT~1\AppData\Local\Temp\ccqSs9HN.s 			page 66


 3699 014e 05       		.uleb128 0x5
 3700 014f 49       		.uleb128 0x49
 3701 0150 13       		.uleb128 0x13
 3702 0151 00       		.byte	0
 3703 0152 00       		.byte	0
 3704 0153 1C       		.uleb128 0x1c
 3705 0154 34       		.uleb128 0x34
 3706 0155 00       		.byte	0
 3707 0156 03       		.uleb128 0x3
 3708 0157 08       		.uleb128 0x8
 3709 0158 3A       		.uleb128 0x3a
 3710 0159 0B       		.uleb128 0xb
 3711 015a 3B       		.uleb128 0x3b
 3712 015b 05       		.uleb128 0x5
 3713 015c 49       		.uleb128 0x49
 3714 015d 13       		.uleb128 0x13
 3715 015e 3F       		.uleb128 0x3f
 3716 015f 19       		.uleb128 0x19
 3717 0160 3C       		.uleb128 0x3c
 3718 0161 19       		.uleb128 0x19
 3719 0162 00       		.byte	0
 3720 0163 00       		.byte	0
 3721 0164 1D       		.uleb128 0x1d
 3722 0165 15       		.uleb128 0x15
 3723 0166 00       		.byte	0
 3724 0167 27       		.uleb128 0x27
 3725 0168 19       		.uleb128 0x19
 3726 0169 00       		.byte	0
 3727 016a 00       		.byte	0
 3728 016b 1E       		.uleb128 0x1e
 3729 016c 0D       		.uleb128 0xd
 3730 016d 00       		.byte	0
 3731 016e 03       		.uleb128 0x3
 3732 016f 08       		.uleb128 0x8
 3733 0170 3A       		.uleb128 0x3a
 3734 0171 0B       		.uleb128 0xb
 3735 0172 3B       		.uleb128 0x3b
 3736 0173 0B       		.uleb128 0xb
 3737 0174 49       		.uleb128 0x49
 3738 0175 13       		.uleb128 0x13
 3739 0176 38       		.uleb128 0x38
 3740 0177 05       		.uleb128 0x5
 3741 0178 00       		.byte	0
 3742 0179 00       		.byte	0
 3743 017a 1F       		.uleb128 0x1f
 3744 017b 17       		.uleb128 0x17
 3745 017c 01       		.byte	0x1
 3746 017d 03       		.uleb128 0x3
 3747 017e 0E       		.uleb128 0xe
 3748 017f 0B       		.uleb128 0xb
 3749 0180 05       		.uleb128 0x5
 3750 0181 3A       		.uleb128 0x3a
 3751 0182 0B       		.uleb128 0xb
 3752 0183 3B       		.uleb128 0x3b
 3753 0184 0B       		.uleb128 0xb
 3754 0185 01       		.uleb128 0x1
 3755 0186 13       		.uleb128 0x13
ARM GAS  C:\Users\PCHAUT~1\AppData\Local\Temp\ccqSs9HN.s 			page 67


 3756 0187 00       		.byte	0
 3757 0188 00       		.byte	0
 3758 0189 20       		.uleb128 0x20
 3759 018a 0D       		.uleb128 0xd
 3760 018b 00       		.byte	0
 3761 018c 03       		.uleb128 0x3
 3762 018d 08       		.uleb128 0x8
 3763 018e 3A       		.uleb128 0x3a
 3764 018f 0B       		.uleb128 0xb
 3765 0190 3B       		.uleb128 0x3b
 3766 0191 0B       		.uleb128 0xb
 3767 0192 49       		.uleb128 0x49
 3768 0193 13       		.uleb128 0x13
 3769 0194 00       		.byte	0
 3770 0195 00       		.byte	0
 3771 0196 21       		.uleb128 0x21
 3772 0197 0D       		.uleb128 0xd
 3773 0198 00       		.byte	0
 3774 0199 03       		.uleb128 0x3
 3775 019a 0E       		.uleb128 0xe
 3776 019b 3A       		.uleb128 0x3a
 3777 019c 0B       		.uleb128 0xb
 3778 019d 3B       		.uleb128 0x3b
 3779 019e 0B       		.uleb128 0xb
 3780 019f 49       		.uleb128 0x49
 3781 01a0 13       		.uleb128 0x13
 3782 01a1 00       		.byte	0
 3783 01a2 00       		.byte	0
 3784 01a3 22       		.uleb128 0x22
 3785 01a4 21       		.uleb128 0x21
 3786 01a5 00       		.byte	0
 3787 01a6 49       		.uleb128 0x49
 3788 01a7 13       		.uleb128 0x13
 3789 01a8 2F       		.uleb128 0x2f
 3790 01a9 05       		.uleb128 0x5
 3791 01aa 00       		.byte	0
 3792 01ab 00       		.byte	0
 3793 01ac 23       		.uleb128 0x23
 3794 01ad 21       		.uleb128 0x21
 3795 01ae 00       		.byte	0
 3796 01af 00       		.byte	0
 3797 01b0 00       		.byte	0
 3798 01b1 24       		.uleb128 0x24
 3799 01b2 34       		.uleb128 0x34
 3800 01b3 00       		.byte	0
 3801 01b4 03       		.uleb128 0x3
 3802 01b5 08       		.uleb128 0x8
 3803 01b6 3A       		.uleb128 0x3a
 3804 01b7 0B       		.uleb128 0xb
 3805 01b8 3B       		.uleb128 0x3b
 3806 01b9 0B       		.uleb128 0xb
 3807 01ba 49       		.uleb128 0x49
 3808 01bb 13       		.uleb128 0x13
 3809 01bc 3F       		.uleb128 0x3f
 3810 01bd 19       		.uleb128 0x19
 3811 01be 3C       		.uleb128 0x3c
 3812 01bf 19       		.uleb128 0x19
ARM GAS  C:\Users\PCHAUT~1\AppData\Local\Temp\ccqSs9HN.s 			page 68


 3813 01c0 00       		.byte	0
 3814 01c1 00       		.byte	0
 3815 01c2 25       		.uleb128 0x25
 3816 01c3 34       		.uleb128 0x34
 3817 01c4 00       		.byte	0
 3818 01c5 03       		.uleb128 0x3
 3819 01c6 08       		.uleb128 0x8
 3820 01c7 3A       		.uleb128 0x3a
 3821 01c8 0B       		.uleb128 0xb
 3822 01c9 3B       		.uleb128 0x3b
 3823 01ca 0B       		.uleb128 0xb
 3824 01cb 49       		.uleb128 0x49
 3825 01cc 13       		.uleb128 0x13
 3826 01cd 02       		.uleb128 0x2
 3827 01ce 18       		.uleb128 0x18
 3828 01cf 00       		.byte	0
 3829 01d0 00       		.byte	0
 3830 01d1 26       		.uleb128 0x26
 3831 01d2 34       		.uleb128 0x34
 3832 01d3 00       		.byte	0
 3833 01d4 03       		.uleb128 0x3
 3834 01d5 0E       		.uleb128 0xe
 3835 01d6 3A       		.uleb128 0x3a
 3836 01d7 0B       		.uleb128 0xb
 3837 01d8 3B       		.uleb128 0x3b
 3838 01d9 0B       		.uleb128 0xb
 3839 01da 49       		.uleb128 0x49
 3840 01db 13       		.uleb128 0x13
 3841 01dc 3F       		.uleb128 0x3f
 3842 01dd 19       		.uleb128 0x19
 3843 01de 02       		.uleb128 0x2
 3844 01df 18       		.uleb128 0x18
 3845 01e0 00       		.byte	0
 3846 01e1 00       		.byte	0
 3847 01e2 27       		.uleb128 0x27
 3848 01e3 2E       		.uleb128 0x2e
 3849 01e4 01       		.byte	0x1
 3850 01e5 03       		.uleb128 0x3
 3851 01e6 0E       		.uleb128 0xe
 3852 01e7 3A       		.uleb128 0x3a
 3853 01e8 0B       		.uleb128 0xb
 3854 01e9 3B       		.uleb128 0x3b
 3855 01ea 0B       		.uleb128 0xb
 3856 01eb 27       		.uleb128 0x27
 3857 01ec 19       		.uleb128 0x19
 3858 01ed 11       		.uleb128 0x11
 3859 01ee 01       		.uleb128 0x1
 3860 01ef 12       		.uleb128 0x12
 3861 01f0 06       		.uleb128 0x6
 3862 01f1 40       		.uleb128 0x40
 3863 01f2 18       		.uleb128 0x18
 3864 01f3 9642     		.uleb128 0x2116
 3865 01f5 19       		.uleb128 0x19
 3866 01f6 01       		.uleb128 0x1
 3867 01f7 13       		.uleb128 0x13
 3868 01f8 00       		.byte	0
 3869 01f9 00       		.byte	0
ARM GAS  C:\Users\PCHAUT~1\AppData\Local\Temp\ccqSs9HN.s 			page 69


 3870 01fa 28       		.uleb128 0x28
 3871 01fb 34       		.uleb128 0x34
 3872 01fc 00       		.byte	0
 3873 01fd 03       		.uleb128 0x3
 3874 01fe 0E       		.uleb128 0xe
 3875 01ff 3A       		.uleb128 0x3a
 3876 0200 0B       		.uleb128 0xb
 3877 0201 3B       		.uleb128 0x3b
 3878 0202 0B       		.uleb128 0xb
 3879 0203 49       		.uleb128 0x49
 3880 0204 13       		.uleb128 0x13
 3881 0205 02       		.uleb128 0x2
 3882 0206 18       		.uleb128 0x18
 3883 0207 00       		.byte	0
 3884 0208 00       		.byte	0
 3885 0209 29       		.uleb128 0x29
 3886 020a 2E       		.uleb128 0x2e
 3887 020b 00       		.byte	0
 3888 020c 03       		.uleb128 0x3
 3889 020d 0E       		.uleb128 0xe
 3890 020e 3A       		.uleb128 0x3a
 3891 020f 0B       		.uleb128 0xb
 3892 0210 3B       		.uleb128 0x3b
 3893 0211 0B       		.uleb128 0xb
 3894 0212 27       		.uleb128 0x27
 3895 0213 19       		.uleb128 0x19
 3896 0214 11       		.uleb128 0x11
 3897 0215 01       		.uleb128 0x1
 3898 0216 12       		.uleb128 0x12
 3899 0217 06       		.uleb128 0x6
 3900 0218 40       		.uleb128 0x40
 3901 0219 18       		.uleb128 0x18
 3902 021a 9642     		.uleb128 0x2116
 3903 021c 19       		.uleb128 0x19
 3904 021d 00       		.byte	0
 3905 021e 00       		.byte	0
 3906 021f 2A       		.uleb128 0x2a
 3907 0220 2E       		.uleb128 0x2e
 3908 0221 01       		.byte	0x1
 3909 0222 03       		.uleb128 0x3
 3910 0223 0E       		.uleb128 0xe
 3911 0224 3A       		.uleb128 0x3a
 3912 0225 0B       		.uleb128 0xb
 3913 0226 3B       		.uleb128 0x3b
 3914 0227 0B       		.uleb128 0xb
 3915 0228 27       		.uleb128 0x27
 3916 0229 19       		.uleb128 0x19
 3917 022a 49       		.uleb128 0x49
 3918 022b 13       		.uleb128 0x13
 3919 022c 11       		.uleb128 0x11
 3920 022d 01       		.uleb128 0x1
 3921 022e 12       		.uleb128 0x12
 3922 022f 06       		.uleb128 0x6
 3923 0230 40       		.uleb128 0x40
 3924 0231 18       		.uleb128 0x18
 3925 0232 9642     		.uleb128 0x2116
 3926 0234 19       		.uleb128 0x19
ARM GAS  C:\Users\PCHAUT~1\AppData\Local\Temp\ccqSs9HN.s 			page 70


 3927 0235 01       		.uleb128 0x1
 3928 0236 13       		.uleb128 0x13
 3929 0237 00       		.byte	0
 3930 0238 00       		.byte	0
 3931 0239 2B       		.uleb128 0x2b
 3932 023a 05       		.uleb128 0x5
 3933 023b 00       		.byte	0
 3934 023c 03       		.uleb128 0x3
 3935 023d 08       		.uleb128 0x8
 3936 023e 3A       		.uleb128 0x3a
 3937 023f 0B       		.uleb128 0xb
 3938 0240 3B       		.uleb128 0x3b
 3939 0241 0B       		.uleb128 0xb
 3940 0242 49       		.uleb128 0x49
 3941 0243 13       		.uleb128 0x13
 3942 0244 02       		.uleb128 0x2
 3943 0245 18       		.uleb128 0x18
 3944 0246 00       		.byte	0
 3945 0247 00       		.byte	0
 3946 0248 2C       		.uleb128 0x2c
 3947 0249 2E       		.uleb128 0x2e
 3948 024a 01       		.byte	0x1
 3949 024b 03       		.uleb128 0x3
 3950 024c 0E       		.uleb128 0xe
 3951 024d 3A       		.uleb128 0x3a
 3952 024e 0B       		.uleb128 0xb
 3953 024f 3B       		.uleb128 0x3b
 3954 0250 05       		.uleb128 0x5
 3955 0251 27       		.uleb128 0x27
 3956 0252 19       		.uleb128 0x19
 3957 0253 11       		.uleb128 0x11
 3958 0254 01       		.uleb128 0x1
 3959 0255 12       		.uleb128 0x12
 3960 0256 06       		.uleb128 0x6
 3961 0257 40       		.uleb128 0x40
 3962 0258 18       		.uleb128 0x18
 3963 0259 9642     		.uleb128 0x2116
 3964 025b 19       		.uleb128 0x19
 3965 025c 01       		.uleb128 0x1
 3966 025d 13       		.uleb128 0x13
 3967 025e 00       		.byte	0
 3968 025f 00       		.byte	0
 3969 0260 2D       		.uleb128 0x2d
 3970 0261 34       		.uleb128 0x34
 3971 0262 00       		.byte	0
 3972 0263 03       		.uleb128 0x3
 3973 0264 0E       		.uleb128 0xe
 3974 0265 49       		.uleb128 0x49
 3975 0266 13       		.uleb128 0x13
 3976 0267 34       		.uleb128 0x34
 3977 0268 19       		.uleb128 0x19
 3978 0269 02       		.uleb128 0x2
 3979 026a 18       		.uleb128 0x18
 3980 026b 00       		.byte	0
 3981 026c 00       		.byte	0
 3982 026d 2E       		.uleb128 0x2e
 3983 026e 2E       		.uleb128 0x2e
ARM GAS  C:\Users\PCHAUT~1\AppData\Local\Temp\ccqSs9HN.s 			page 71


 3984 026f 00       		.byte	0
 3985 0270 03       		.uleb128 0x3
 3986 0271 0E       		.uleb128 0xe
 3987 0272 3A       		.uleb128 0x3a
 3988 0273 0B       		.uleb128 0xb
 3989 0274 3B       		.uleb128 0x3b
 3990 0275 05       		.uleb128 0x5
 3991 0276 27       		.uleb128 0x27
 3992 0277 19       		.uleb128 0x19
 3993 0278 11       		.uleb128 0x11
 3994 0279 01       		.uleb128 0x1
 3995 027a 12       		.uleb128 0x12
 3996 027b 06       		.uleb128 0x6
 3997 027c 40       		.uleb128 0x40
 3998 027d 18       		.uleb128 0x18
 3999 027e 9642     		.uleb128 0x2116
 4000 0280 19       		.uleb128 0x19
 4001 0281 00       		.byte	0
 4002 0282 00       		.byte	0
 4003 0283 2F       		.uleb128 0x2f
 4004 0284 1D       		.uleb128 0x1d
 4005 0285 01       		.byte	0x1
 4006 0286 31       		.uleb128 0x31
 4007 0287 13       		.uleb128 0x13
 4008 0288 11       		.uleb128 0x11
 4009 0289 01       		.uleb128 0x1
 4010 028a 12       		.uleb128 0x12
 4011 028b 06       		.uleb128 0x6
 4012 028c 58       		.uleb128 0x58
 4013 028d 0B       		.uleb128 0xb
 4014 028e 59       		.uleb128 0x59
 4015 028f 05       		.uleb128 0x5
 4016 0290 00       		.byte	0
 4017 0291 00       		.byte	0
 4018 0292 30       		.uleb128 0x30
 4019 0293 05       		.uleb128 0x5
 4020 0294 00       		.byte	0
 4021 0295 31       		.uleb128 0x31
 4022 0296 13       		.uleb128 0x13
 4023 0297 02       		.uleb128 0x2
 4024 0298 18       		.uleb128 0x18
 4025 0299 00       		.byte	0
 4026 029a 00       		.byte	0
 4027 029b 31       		.uleb128 0x31
 4028 029c 2E       		.uleb128 0x2e
 4029 029d 01       		.byte	0x1
 4030 029e 03       		.uleb128 0x3
 4031 029f 0E       		.uleb128 0xe
 4032 02a0 3A       		.uleb128 0x3a
 4033 02a1 0B       		.uleb128 0xb
 4034 02a2 3B       		.uleb128 0x3b
 4035 02a3 05       		.uleb128 0x5
 4036 02a4 27       		.uleb128 0x27
 4037 02a5 19       		.uleb128 0x19
 4038 02a6 20       		.uleb128 0x20
 4039 02a7 0B       		.uleb128 0xb
 4040 02a8 00       		.byte	0
ARM GAS  C:\Users\PCHAUT~1\AppData\Local\Temp\ccqSs9HN.s 			page 72


 4041 02a9 00       		.byte	0
 4042 02aa 32       		.uleb128 0x32
 4043 02ab 05       		.uleb128 0x5
 4044 02ac 00       		.byte	0
 4045 02ad 03       		.uleb128 0x3
 4046 02ae 0E       		.uleb128 0xe
 4047 02af 3A       		.uleb128 0x3a
 4048 02b0 0B       		.uleb128 0xb
 4049 02b1 3B       		.uleb128 0x3b
 4050 02b2 05       		.uleb128 0x5
 4051 02b3 49       		.uleb128 0x49
 4052 02b4 13       		.uleb128 0x13
 4053 02b5 00       		.byte	0
 4054 02b6 00       		.byte	0
 4055 02b7 00       		.byte	0
 4056              		.section	.debug_aranges,"",%progbits
 4057 0000 5C000000 		.4byte	0x5c
 4058 0004 0200     		.2byte	0x2
 4059 0006 00000000 		.4byte	.Ldebug_info0
 4060 000a 04       		.byte	0x4
 4061 000b 00       		.byte	0
 4062 000c 0000     		.2byte	0
 4063 000e 0000     		.2byte	0
 4064 0010 00000000 		.4byte	.LFB116
 4065 0014 30000000 		.4byte	.LFE116-.LFB116
 4066 0018 00000000 		.4byte	.LFB117
 4067 001c 30000000 		.4byte	.LFE117-.LFB117
 4068 0020 00000000 		.4byte	.LFB145
 4069 0024 30000000 		.4byte	.LFE145-.LFB145
 4070 0028 00000000 		.4byte	.LFB146
 4071 002c 58000000 		.4byte	.LFE146-.LFB146
 4072 0030 00000000 		.4byte	.LFB181
 4073 0034 30000000 		.4byte	.LFE181-.LFB181
 4074 0038 00000000 		.4byte	.LFB204
 4075 003c 38000000 		.4byte	.LFE204-.LFB204
 4076 0040 00000000 		.4byte	.LFB205
 4077 0044 38000000 		.4byte	.LFE205-.LFB205
 4078 0048 00000000 		.4byte	.LFB219
 4079 004c 38000000 		.4byte	.LFE219-.LFB219
 4080 0050 00000000 		.4byte	.LFB220
 4081 0054 B8080000 		.4byte	.LFE220-.LFB220
 4082 0058 00000000 		.4byte	0
 4083 005c 00000000 		.4byte	0
 4084              		.section	.debug_ranges,"",%progbits
 4085              	.Ldebug_ranges0:
 4086 0000 00000000 		.4byte	.LFB116
 4087 0004 30000000 		.4byte	.LFE116
 4088 0008 00000000 		.4byte	.LFB117
 4089 000c 30000000 		.4byte	.LFE117
 4090 0010 00000000 		.4byte	.LFB145
 4091 0014 30000000 		.4byte	.LFE145
 4092 0018 00000000 		.4byte	.LFB146
 4093 001c 58000000 		.4byte	.LFE146
 4094 0020 00000000 		.4byte	.LFB181
 4095 0024 30000000 		.4byte	.LFE181
 4096 0028 00000000 		.4byte	.LFB204
 4097 002c 38000000 		.4byte	.LFE204
ARM GAS  C:\Users\PCHAUT~1\AppData\Local\Temp\ccqSs9HN.s 			page 73


 4098 0030 00000000 		.4byte	.LFB205
 4099 0034 38000000 		.4byte	.LFE205
 4100 0038 00000000 		.4byte	.LFB219
 4101 003c 38000000 		.4byte	.LFE219
 4102 0040 00000000 		.4byte	.LFB220
 4103 0044 B8080000 		.4byte	.LFE220
 4104 0048 00000000 		.4byte	0
 4105 004c 00000000 		.4byte	0
 4106              		.section	.debug_line,"",%progbits
 4107              	.Ldebug_line0:
 4108 0000 CE060000 		.section	.debug_str,"MS",%progbits,1
 4108      02001F04 
 4108      00000201 
 4108      FB0E0D00 
 4108      01010101 
 4109              	.LASF146:
 4110 0000 63665F6F 		.ascii	"cf_off_older\000"
 4110      66665F6F 
 4110      6C646572 
 4110      00
 4111              	.LASF61:
 4112 000d 72656164 		.ascii	"ready_list_t\000"
 4112      795F6C69 
 4112      73745F74 
 4112      00
 4113              	.LASF99:
 4114 001a 73655F74 		.ascii	"se_time\000"
 4114      696D6500 
 4115              	.LASF4:
 4116 0022 73697A65 		.ascii	"size_t\000"
 4116      5F7400
 4117              	.LASF120:
 4118 0029 7264796D 		.ascii	"rdymsg\000"
 4118      736700
 4119              	.LASF20:
 4120 0030 75696E74 		.ascii	"uint64_t\000"
 4120      36345F74 
 4120      00
 4121              	.LASF91:
 4122 0039 6B65726E 		.ascii	"kernel_stats\000"
 4122      656C5F73 
 4122      74617473 
 4122      00
 4123              	.LASF5:
 4124 0046 5F5F7569 		.ascii	"__uint8_t\000"
 4124      6E74385F 
 4124      7400
 4125              	.LASF98:
 4126 0050 706F7274 		.ascii	"port_intctx\000"
 4126      5F696E74 
 4126      63747800 
 4127              	.LASF60:
 4128 005c 63685F74 		.ascii	"ch_threads_queue\000"
 4128      68726561 
 4128      64735F71 
 4128      75657565 
 4128      00
ARM GAS  C:\Users\PCHAUT~1\AppData\Local\Temp\ccqSs9HN.s 			page 74


 4129              	.LASF80:
 4130 006d 73797374 		.ascii	"system_debug_t\000"
 4130      656D5F64 
 4130      65627567 
 4130      5F7400
 4131              	.LASF92:
 4132 007c 69646C65 		.ascii	"idle_thread_wa\000"
 4132      5F746872 
 4132      6561645F 
 4132      776100
 4133              	.LASF188:
 4134 008b 706F7274 		.ascii	"port_lock\000"
 4134      5F6C6F63 
 4134      6B00
 4135              	.LASF111:
 4136 0095 776F7273 		.ascii	"worst\000"
 4136      7400
 4137              	.LASF114:
 4138 009b 74696D65 		.ascii	"time_measurement_t\000"
 4138      5F6D6561 
 4138      73757265 
 4138      6D656E74 
 4138      5F7400
 4139              	.LASF15:
 4140 00ae 6C6F6E67 		.ascii	"long long unsigned int\000"
 4140      206C6F6E 
 4140      6720756E 
 4140      7369676E 
 4140      65642069 
 4141              	.LASF107:
 4142 00c5 63685F74 		.ascii	"ch_trace_buffer_t\000"
 4142      72616365 
 4142      5F627566 
 4142      6665725F 
 4142      7400
 4143              	.LASF142:
 4144 00d7 63685F74 		.ascii	"ch_threadsize\000"
 4144      68726561 
 4144      6473697A 
 4144      6500
 4145              	.LASF121:
 4146 00e5 65786974 		.ascii	"exitcode\000"
 4146      636F6465 
 4146      00
 4147              	.LASF90:
 4148 00ee 6D61696E 		.ascii	"mainthread\000"
 4148      74687265 
 4148      616400
 4149              	.LASF174:
 4150 00f9 74657374 		.ascii	"test\000"
 4150      00
 4151              	.LASF77:
 4152 00fe 76697274 		.ascii	"virtual_timers_list_t\000"
 4152      75616C5F 
 4152      74696D65 
 4152      72735F6C 
 4152      6973745F 
ARM GAS  C:\Users\PCHAUT~1\AppData\Local\Temp\ccqSs9HN.s 			page 75


 4153              	.LASF160:
 4154 0114 6D625F77 		.ascii	"mb_wrptr\000"
 4154      72707472 
 4154      00
 4155              	.LASF22:
 4156 011d 72747469 		.ascii	"rttime_t\000"
 4156      6D655F74 
 4156      00
 4157              	.LASF36:
 4158 0126 705F7072 		.ascii	"p_prio\000"
 4158      696F00
 4159              	.LASF149:
 4160 012d 63665F6F 		.ascii	"cf_off_state\000"
 4160      66665F73 
 4160      74617465 
 4160      00
 4161              	.LASF168:
 4162 013a 74656172 		.ascii	"teardown\000"
 4162      646F776E 
 4162      00
 4163              	.LASF1:
 4164 0143 6C6F6E67 		.ascii	"long long int\000"
 4164      206C6F6E 
 4164      6720696E 
 4164      7400
 4165              	.LASF3:
 4166 0151 7369676E 		.ascii	"signed char\000"
 4166      65642063 
 4166      68617200 
 4167              	.LASF148:
 4168 015d 63665F6F 		.ascii	"cf_off_stklimit\000"
 4168      66665F73 
 4168      746B6C69 
 4168      6D697400 
 4169              	.LASF150:
 4170 016d 63665F6F 		.ascii	"cf_off_flags\000"
 4170      66665F66 
 4170      6C616773 
 4170      00
 4171              	.LASF53:
 4172 017a 705F6D70 		.ascii	"p_mpool\000"
 4172      6F6F6C00 
 4173              	.LASF131:
 4174 0182 6D5F7175 		.ascii	"m_queue\000"
 4174      65756500 
 4175              	.LASF89:
 4176 018a 76746C69 		.ascii	"vtlist\000"
 4176      737400
 4177              	.LASF187:
 4178 0191 706F7274 		.ascii	"port_unlock\000"
 4178      5F756E6C 
 4178      6F636B00 
 4179              	.LASF26:
 4180 019d 74736C69 		.ascii	"tslices_t\000"
 4180      6365735F 
 4180      7400
 4181              	.LASF123:
ARM GAS  C:\Users\PCHAUT~1\AppData\Local\Temp\ccqSs9HN.s 			page 76


 4182 01a7 77747472 		.ascii	"wttrp\000"
 4182      7000
 4183              	.LASF87:
 4184 01ad 63685F73 		.ascii	"ch_system\000"
 4184      79737465 
 4184      6D00
 4185              	.LASF11:
 4186 01b7 6C6F6E67 		.ascii	"long int\000"
 4186      20696E74 
 4186      00
 4187              	.LASF189:
 4188 01c0 474E5520 		.ascii	"GNU C11 7.2.1 20170904 (release) [ARM/embedded-7-br"
 4188      43313120 
 4188      372E322E 
 4188      31203230 
 4188      31373039 
 4189 01f3 616E6368 		.ascii	"anch revision 255204] -mcpu=cortex-m4 -mfloat-abi=h"
 4189      20726576 
 4189      6973696F 
 4189      6E203235 
 4189      35323034 
 4190 0226 61726420 		.ascii	"ard -mfpu=fpv4-sp-d16 -mno-thumb-interwork -mthumb "
 4190      2D6D6670 
 4190      753D6670 
 4190      76342D73 
 4190      702D6431 
 4191 0259 2D676764 		.ascii	"-ggdb -O0 -fomit-frame-pointer -falign-functions=16"
 4191      62202D4F 
 4191      30202D66 
 4191      6F6D6974 
 4191      2D667261 
 4192 028c 202D666E 		.ascii	" -fno-strict-aliasing -fstack-protector-all -ffunct"
 4192      6F2D7374 
 4192      72696374 
 4192      2D616C69 
 4192      6173696E 
 4193 02bf 696F6E2D 		.ascii	"ion-sections -fdata-sections -fno-common -fsingle-p"
 4193      73656374 
 4193      696F6E73 
 4193      202D6664 
 4193      6174612D 
 4194 02f2 72656369 		.ascii	"recision-constant\000"
 4194      73696F6E 
 4194      2D636F6E 
 4194      7374616E 
 4194      7400
 4195              	.LASF24:
 4196 0304 74737461 		.ascii	"tstate_t\000"
 4196      74655F74 
 4196      00
 4197              	.LASF100:
 4198 030d 73655F74 		.ascii	"se_tp\000"
 4198      7000
 4199              	.LASF154:
 4200 0313 63686465 		.ascii	"chdebug_t\000"
 4200      6275675F 
 4200      7400
ARM GAS  C:\Users\PCHAUT~1\AppData\Local\Temp\ccqSs9HN.s 			page 77


 4201              	.LASF170:
 4202 031d 62756666 		.ascii	"buffer\000"
 4202      657200
 4203              	.LASF38:
 4204 0324 705F6E65 		.ascii	"p_newer\000"
 4204      77657200 
 4205              	.LASF128:
 4206 032c 735F7175 		.ascii	"s_queue\000"
 4206      65756500 
 4207              	.LASF181:
 4208 0334 63684D42 		.ascii	"chMBGetFreeCountI\000"
 4208      47657446 
 4208      72656543 
 4208      6F756E74 
 4208      4900
 4209              	.LASF2:
 4210 0346 6C6F6E67 		.ascii	"long double\000"
 4210      20646F75 
 4210      626C6500 
 4211              	.LASF104:
 4212 0352 74625F73 		.ascii	"tb_size\000"
 4212      697A6500 
 4213              	.LASF66:
 4214 035a 725F6E65 		.ascii	"r_newer\000"
 4214      77657200 
 4215              	.LASF95:
 4216 0362 72656761 		.ascii	"regarm_t\000"
 4216      726D5F74 
 4216      00
 4217              	.LASF73:
 4218 036b 76745F70 		.ascii	"vt_prev\000"
 4218      72657600 
 4219              	.LASF81:
 4220 0373 63685F73 		.ascii	"ch_system_debug\000"
 4220      79737465 
 4220      6D5F6465 
 4220      62756700 
 4221              	.LASF134:
 4222 0383 6D5F636E 		.ascii	"m_cnt\000"
 4222      7400
 4223              	.LASF157:
 4224 0389 6D757465 		.ascii	"mutex_t\000"
 4224      785F7400 
 4225              	.LASF195:
 4226 0391 76616C75 		.ascii	"value\000"
 4226      6500
 4227              	.LASF84:
 4228 0397 6C6F636B 		.ascii	"lock_cnt\000"
 4228      5F636E74 
 4228      00
 4229              	.LASF12:
 4230 03a0 5F5F7569 		.ascii	"__uint32_t\000"
 4230      6E743332 
 4230      5F7400
 4231              	.LASF30:
 4232 03ab 636E745F 		.ascii	"cnt_t\000"
 4232      7400
ARM GAS  C:\Users\PCHAUT~1\AppData\Local\Temp\ccqSs9HN.s 			page 78


 4233              	.LASF41:
 4234 03b1 705F7374 		.ascii	"p_stklimit\000"
 4234      6B6C696D 
 4234      697400
 4235              	.LASF0:
 4236 03bc 756E7369 		.ascii	"unsigned int\000"
 4236      676E6564 
 4236      20696E74 
 4236      00
 4237              	.LASF72:
 4238 03c9 76745F6E 		.ascii	"vt_next\000"
 4238      65787400 
 4239              	.LASF17:
 4240 03d1 75696E74 		.ascii	"uint16_t\000"
 4240      31365F74 
 4240      00
 4241              	.LASF94:
 4242 03da 53797374 		.ascii	"SystemCoreClock\000"
 4242      656D436F 
 4242      7265436C 
 4242      6F636B00 
 4243              	.LASF46:
 4244 03ea 705F7469 		.ascii	"p_time\000"
 4244      6D6500
 4245              	.LASF124:
 4246 03f1 77747365 		.ascii	"wtsemp\000"
 4246      6D7000
 4247              	.LASF74:
 4248 03f8 76745F64 		.ascii	"vt_delta\000"
 4248      656C7461 
 4248      00
 4249              	.LASF48:
 4250 0401 705F6D73 		.ascii	"p_msgqueue\000"
 4250      67717565 
 4250      756500
 4251              	.LASF155:
 4252 040c 63685F64 		.ascii	"ch_debug\000"
 4252      65627567 
 4252      00
 4253              	.LASF163:
 4254 0415 6D625F65 		.ascii	"mb_emptysem\000"
 4254      6D707479 
 4254      73656D00 
 4255              	.LASF115:
 4256 0421 6E5F6972 		.ascii	"n_irq\000"
 4256      7100
 4257              	.LASF129:
 4258 0427 735F636E 		.ascii	"s_cnt\000"
 4258      7400
 4259              	.LASF166:
 4260 042d 6E616D65 		.ascii	"name\000"
 4260      00
 4261              	.LASF9:
 4262 0432 73686F72 		.ascii	"short unsigned int\000"
 4262      7420756E 
 4262      7369676E 
 4262      65642069 
ARM GAS  C:\Users\PCHAUT~1\AppData\Local\Temp\ccqSs9HN.s 			page 79


 4262      6E7400
 4263              	.LASF119:
 4264 0445 6B65726E 		.ascii	"kernel_stats_t\000"
 4264      656C5F73 
 4264      74617473 
 4264      5F7400
 4265              	.LASF57:
 4266 0454 63685F74 		.ascii	"ch_thread\000"
 4266      68726561 
 4266      6400
 4267              	.LASF177:
 4268 045e 70617474 		.ascii	"patternmbox\000"
 4268      65726E6D 
 4268      626F7800 
 4269              	.LASF28:
 4270 046a 6D73675F 		.ascii	"msg_t\000"
 4270      7400
 4271              	.LASF112:
 4272 0470 6C617374 		.ascii	"last\000"
 4272      00
 4273              	.LASF31:
 4274 0475 75636E74 		.ascii	"ucnt_t\000"
 4274      5F7400
 4275              	.LASF86:
 4276 047c 63685F73 		.ascii	"ch_system_t\000"
 4276      79737465 
 4276      6D5F7400 
 4277              	.LASF144:
 4278 0488 63665F6F 		.ascii	"cf_off_ctx\000"
 4278      66665F63 
 4278      747800
 4279              	.LASF153:
 4280 0493 63665F6F 		.ascii	"cf_off_time\000"
 4280      66665F74 
 4280      696D6500 
 4281              	.LASF185:
 4282 049f 6D626F78 		.ascii	"mbox1_setup\000"
 4282      315F7365 
 4282      74757000 
 4283              	.LASF118:
 4284 04ab 6D5F6372 		.ascii	"m_crit_isr\000"
 4284      69745F69 
 4284      737200
 4285              	.LASF62:
 4286 04b6 63685F72 		.ascii	"ch_ready_list\000"
 4286      65616479 
 4286      5F6C6973 
 4286      7400
 4287              	.LASF29:
 4288 04c4 6576656E 		.ascii	"eventmask_t\000"
 4288      746D6173 
 4288      6B5F7400 
 4289              	.LASF10:
 4290 04d0 5F5F696E 		.ascii	"__int32_t\000"
 4290      7433325F 
 4290      7400
 4291              	.LASF176:
ARM GAS  C:\Users\PCHAUT~1\AppData\Local\Temp\ccqSs9HN.s 			page 80


 4292 04da 74657374 		.ascii	"testmbox1\000"
 4292      6D626F78 
 4292      3100
 4293              	.LASF96:
 4294 04e4 73746B61 		.ascii	"stkalign_t\000"
 4294      6C69676E 
 4294      5F7400
 4295              	.LASF56:
 4296 04ef 74687265 		.ascii	"threads_list_t\000"
 4296      6164735F 
 4296      6C697374 
 4296      5F7400
 4297              	.LASF137:
 4298 04fe 63685F7A 		.ascii	"ch_zero\000"
 4298      65726F00 
 4299              	.LASF151:
 4300 0506 63665F6F 		.ascii	"cf_off_refs\000"
 4300      66665F72 
 4300      65667300 
 4301              	.LASF64:
 4302 0512 725F7072 		.ascii	"r_prio\000"
 4302      696F00
 4303              	.LASF156:
 4304 0519 73656D61 		.ascii	"semaphore_t\000"
 4304      70686F72 
 4304      655F7400 
 4305              	.LASF47:
 4306 0525 705F7761 		.ascii	"p_waiting\000"
 4306      6974696E 
 4306      6700
 4307              	.LASF21:
 4308 052f 7274636E 		.ascii	"rtcnt_t\000"
 4308      745F7400 
 4309              	.LASF109:
 4310 0537 746D5F63 		.ascii	"tm_calibration_t\000"
 4310      616C6962 
 4310      72617469 
 4310      6F6E5F74 
 4310      00
 4311              	.LASF78:
 4312 0548 63685F76 		.ascii	"ch_virtual_timers_list\000"
 4312      69727475 
 4312      616C5F74 
 4312      696D6572 
 4312      735F6C69 
 4313              	.LASF161:
 4314 055f 6D625F72 		.ascii	"mb_rdptr\000"
 4314      64707472 
 4314      00
 4315              	.LASF141:
 4316 0568 63685F74 		.ascii	"ch_timesize\000"
 4316      696D6573 
 4316      697A6500 
 4317              	.LASF105:
 4318 0574 74625F70 		.ascii	"tb_ptr\000"
 4318      747200
 4319              	.LASF103:
ARM GAS  C:\Users\PCHAUT~1\AppData\Local\Temp\ccqSs9HN.s 			page 81


 4320 057b 63685F73 		.ascii	"ch_swc_event_t\000"
 4320      77635F65 
 4320      76656E74 
 4320      5F7400
 4321              	.LASF147:
 4322 058a 63665F6F 		.ascii	"cf_off_name\000"
 4322      66665F6E 
 4322      616D6500 
 4323              	.LASF39:
 4324 0596 705F6F6C 		.ascii	"p_older\000"
 4324      64657200 
 4325              	.LASF65:
 4326 059e 725F6374 		.ascii	"r_ctx\000"
 4326      7800
 4327              	.LASF37:
 4328 05a4 705F6374 		.ascii	"p_ctx\000"
 4328      7800
 4329              	.LASF138:
 4330 05aa 63685F73 		.ascii	"ch_size\000"
 4330      697A6500 
 4331              	.LASF167:
 4332 05b2 73657475 		.ascii	"setup\000"
 4332      7000
 4333              	.LASF158:
 4334 05b8 6D625F62 		.ascii	"mb_buffer\000"
 4334      75666665 
 4334      7200
 4335              	.LASF183:
 4336 05c2 6D626F78 		.ascii	"mbox1_execute\000"
 4336      315F6578 
 4336      65637574 
 4336      6500
 4337              	.LASF68:
 4338 05d0 725F6375 		.ascii	"r_current\000"
 4338      7272656E 
 4338      7400
 4339              	.LASF67:
 4340 05da 725F6F6C 		.ascii	"r_older\000"
 4340      64657200 
 4341              	.LASF14:
 4342 05e2 5F5F7569 		.ascii	"__uint64_t\000"
 4342      6E743634 
 4342      5F7400
 4343              	.LASF113:
 4344 05ed 63756D75 		.ascii	"cumulative\000"
 4344      6C617469 
 4344      766500
 4345              	.LASF178:
 4346 05f8 6D736731 		.ascii	"msg1\000"
 4346      00
 4347              	.LASF179:
 4348 05fd 6D736732 		.ascii	"msg2\000"
 4348      00
 4349              	.LASF25:
 4350 0602 74726566 		.ascii	"trefs_t\000"
 4350      735F7400 
 4351              	.LASF106:
ARM GAS  C:\Users\PCHAUT~1\AppData\Local\Temp\ccqSs9HN.s 			page 82


 4352 060a 74625F62 		.ascii	"tb_buffer\000"
 4352      75666665 
 4352      7200
 4353              	.LASF140:
 4354 0614 63685F70 		.ascii	"ch_ptrsize\000"
 4354      74727369 
 4354      7A6500
 4355              	.LASF70:
 4356 061f 76697274 		.ascii	"virtual_timer_t\000"
 4356      75616C5F 
 4356      74696D65 
 4356      725F7400 
 4357              	.LASF35:
 4358 062f 705F7072 		.ascii	"p_prev\000"
 4358      657600
 4359              	.LASF169:
 4360 0636 65786563 		.ascii	"execute\000"
 4360      75746500 
 4361              	.LASF27:
 4362 063e 74707269 		.ascii	"tprio_t\000"
 4362      6F5F7400 
 4363              	.LASF116:
 4364 0646 6E5F6374 		.ascii	"n_ctxswc\000"
 4364      78737763 
 4364      00
 4365              	.LASF172:
 4366 064f 5F426F6F 		.ascii	"_Bool\000"
 4366      6C00
 4367              	.LASF18:
 4368 0655 696E7433 		.ascii	"int32_t\000"
 4368      325F7400 
 4369              	.LASF6:
 4370 065d 756E7369 		.ascii	"unsigned char\000"
 4370      676E6564 
 4370      20636861 
 4370      7200
 4371              	.LASF180:
 4372 066b 63684D42 		.ascii	"chMBGetUsedCountI\000"
 4372      47657455 
 4372      73656443 
 4372      6F756E74 
 4372      4900
 4373              	.LASF159:
 4374 067d 6D625F74 		.ascii	"mb_top\000"
 4374      6F7000
 4375              	.LASF93:
 4376 0684 49544D5F 		.ascii	"ITM_RxBuffer\000"
 4376      52784275 
 4376      66666572 
 4376      00
 4377              	.LASF51:
 4378 0691 705F6D74 		.ascii	"p_mtxlist\000"
 4378      786C6973 
 4378      7400
 4379              	.LASF7:
 4380 069b 73686F72 		.ascii	"short int\000"
 4380      7420696E 
ARM GAS  C:\Users\PCHAUT~1\AppData\Local\Temp\ccqSs9HN.s 			page 83


 4380      7400
 4381              	.LASF42:
 4382 06a5 705F7374 		.ascii	"p_state\000"
 4382      61746500 
 4383              	.LASF45:
 4384 06ad 705F7072 		.ascii	"p_preempt\000"
 4384      65656D70 
 4384      7400
 4385              	.LASF173:
 4386 06b7 74687265 		.ascii	"threads\000"
 4386      61647300 
 4387              	.LASF175:
 4388 06bf 74657374 		.ascii	"test_timer_done\000"
 4388      5F74696D 
 4388      65725F64 
 4388      6F6E6500 
 4389              	.LASF126:
 4390 06cf 65776D61 		.ascii	"ewmask\000"
 4390      736B00
 4391              	.LASF34:
 4392 06d6 705F6E65 		.ascii	"p_next\000"
 4392      787400
 4393              	.LASF23:
 4394 06dd 746D6F64 		.ascii	"tmode_t\000"
 4394      655F7400 
 4395              	.LASF152:
 4396 06e5 63665F6F 		.ascii	"cf_off_preempt\000"
 4396      66665F70 
 4396      7265656D 
 4396      707400
 4397              	.LASF43:
 4398 06f4 705F666C 		.ascii	"p_flags\000"
 4398      61677300 
 4399              	.LASF193:
 4400 06fc 5F5F6675 		.ascii	"__func__\000"
 4400      6E635F5F 
 4400      00
 4401              	.LASF54:
 4402 0705 705F7374 		.ascii	"p_stats\000"
 4402      61747300 
 4403              	.LASF186:
 4404 070d 63685379 		.ascii	"chSysLock\000"
 4404      734C6F63 
 4404      6B00
 4405              	.LASF191:
 4406 0717 433A5C55 		.ascii	"C:\\Users\\Pchautems\\Documents\\RobotiqueTP\\Proje"
 4406      73657273 
 4406      5C506368 
 4406      61757465 
 4406      6D735C44 
 4407 0745 745C6D69 		.ascii	"t\\miniprojet\000"
 4407      6E697072 
 4407      6F6A6574 
 4407      00
 4408              	.LASF59:
 4409 0752 74687265 		.ascii	"threads_queue_t\000"
 4409      6164735F 
ARM GAS  C:\Users\PCHAUT~1\AppData\Local\Temp\ccqSs9HN.s 			page 84


 4409      71756575 
 4409      655F7400 
 4410              	.LASF71:
 4411 0762 63685F76 		.ascii	"ch_virtual_timer\000"
 4411      69727475 
 4411      616C5F74 
 4411      696D6572 
 4411      00
 4412              	.LASF145:
 4413 0773 63665F6F 		.ascii	"cf_off_newer\000"
 4413      66665F6E 
 4413      65776572 
 4413      00
 4414              	.LASF165:
 4415 0780 74657374 		.ascii	"testcase\000"
 4415      63617365 
 4415      00
 4416              	.LASF127:
 4417 0789 63685F73 		.ascii	"ch_semaphore\000"
 4417      656D6170 
 4417      686F7265 
 4417      00
 4418              	.LASF50:
 4419 0796 705F6570 		.ascii	"p_epending\000"
 4419      656E6469 
 4419      6E6700
 4420              	.LASF19:
 4421 07a1 75696E74 		.ascii	"uint32_t\000"
 4421      33325F74 
 4421      00
 4422              	.LASF143:
 4423 07aa 63665F6F 		.ascii	"cf_off_prio\000"
 4423      66665F70 
 4423      72696F00 
 4424              	.LASF63:
 4425 07b6 725F7175 		.ascii	"r_queue\000"
 4425      65756500 
 4426              	.LASF58:
 4427 07be 63685F74 		.ascii	"ch_threads_list\000"
 4427      68726561 
 4427      64735F6C 
 4427      69737400 
 4428              	.LASF13:
 4429 07ce 6C6F6E67 		.ascii	"long unsigned int\000"
 4429      20756E73 
 4429      69676E65 
 4429      6420696E 
 4429      7400
 4430              	.LASF135:
 4431 07e0 63686172 		.ascii	"char\000"
 4431      00
 4432              	.LASF125:
 4433 07e5 77746D74 		.ascii	"wtmtxp\000"
 4433      787000
 4434              	.LASF8:
 4435 07ec 5F5F7569 		.ascii	"__uint16_t\000"
 4435      6E743136 
ARM GAS  C:\Users\PCHAUT~1\AppData\Local\Temp\ccqSs9HN.s 			page 85


 4435      5F7400
 4436              	.LASF33:
 4437 07f7 74687265 		.ascii	"thread_t\000"
 4437      61645F74 
 4437      00
 4438              	.LASF110:
 4439 0800 62657374 		.ascii	"best\000"
 4439      00
 4440              	.LASF133:
 4441 0805 6D5F6E65 		.ascii	"m_next\000"
 4441      787400
 4442              	.LASF32:
 4443 080c 73797374 		.ascii	"systime_t\000"
 4443      696D655F 
 4443      7400
 4444              	.LASF52:
 4445 0816 705F7265 		.ascii	"p_realprio\000"
 4445      616C7072 
 4445      696F00
 4446              	.LASF69:
 4447 0821 76746675 		.ascii	"vtfunc_t\000"
 4447      6E635F74 
 4447      00
 4448              	.LASF182:
 4449 082a 63685365 		.ascii	"chSemGetCounterI\000"
 4449      6D476574 
 4449      436F756E 
 4449      74657249 
 4449      00
 4450              	.LASF194:
 4451 083b 5F5F7365 		.ascii	"__set_BASEPRI\000"
 4451      745F4241 
 4451      53455052 
 4451      4900
 4452              	.LASF82:
 4453 0849 70616E69 		.ascii	"panic_msg\000"
 4453      635F6D73 
 4453      6700
 4454              	.LASF171:
 4455 0853 74657374 		.ascii	"test_global_fail\000"
 4455      5F676C6F 
 4455      62616C5F 
 4455      6661696C 
 4455      00
 4456              	.LASF108:
 4457 0864 6F666673 		.ascii	"offset\000"
 4457      657400
 4458              	.LASF97:
 4459 086b 636F6E74 		.ascii	"context\000"
 4459      65787400 
 4460              	.LASF49:
 4461 0873 705F6D73 		.ascii	"p_msg\000"
 4461      6700
 4462              	.LASF76:
 4463 0879 76745F70 		.ascii	"vt_par\000"
 4463      617200
 4464              	.LASF162:
ARM GAS  C:\Users\PCHAUT~1\AppData\Local\Temp\ccqSs9HN.s 			page 86


 4465 0880 6D625F66 		.ascii	"mb_fullsem\000"
 4465      756C6C73 
 4465      656D00
 4466              	.LASF192:
 4467 088b 74657374 		.ascii	"test_buffers\000"
 4467      5F627566 
 4467      66657273 
 4467      00
 4468              	.LASF130:
 4469 0898 63685F6D 		.ascii	"ch_mutex\000"
 4469      75746578 
 4469      00
 4470              	.LASF44:
 4471 08a1 705F7265 		.ascii	"p_refs\000"
 4471      667300
 4472              	.LASF83:
 4473 08a8 6973725F 		.ascii	"isr_cnt\000"
 4473      636E7400 
 4474              	.LASF102:
 4475 08b0 73655F73 		.ascii	"se_state\000"
 4475      74617465 
 4475      00
 4476              	.LASF88:
 4477 08b9 726C6973 		.ascii	"rlist\000"
 4477      7400
 4478              	.LASF16:
 4479 08bf 75696E74 		.ascii	"uint8_t\000"
 4479      385F7400 
 4480              	.LASF55:
 4481 08c7 74687265 		.ascii	"thread_reference_t\000"
 4481      61645F72 
 4481      65666572 
 4481      656E6365 
 4481      5F7400
 4482              	.LASF122:
 4483 08da 77746F62 		.ascii	"wtobjp\000"
 4483      6A7000
 4484              	.LASF40:
 4485 08e1 705F6E61 		.ascii	"p_name\000"
 4485      6D6500
 4486              	.LASF190:
 4487 08e8 2E2E2F6C 		.ascii	"../lib/e-puck2_main-processor/ChibiOS//test/rt/test"
 4487      69622F65 
 4487      2D707563 
 4487      6B325F6D 
 4487      61696E2D 
 4488 091b 6D626F78 		.ascii	"mbox.c\000"
 4488      2E6300
 4489              	.LASF79:
 4490 0922 76745F73 		.ascii	"vt_systime\000"
 4490      79737469 
 4490      6D6500
 4491              	.LASF164:
 4492 092d 6D61696C 		.ascii	"mailbox_t\000"
 4492      626F785F 
 4492      7400
 4493              	.LASF85:
ARM GAS  C:\Users\PCHAUT~1\AppData\Local\Temp\ccqSs9HN.s 			page 87


 4494 0937 74726163 		.ascii	"trace_buffer\000"
 4494      655F6275 
 4494      66666572 
 4494      00
 4495              	.LASF184:
 4496 0944 63685379 		.ascii	"chSysUnlock\000"
 4496      73556E6C 
 4496      6F636B00 
 4497              	.LASF139:
 4498 0950 63685F76 		.ascii	"ch_version\000"
 4498      65727369 
 4498      6F6E00
 4499              	.LASF117:
 4500 095b 6D5F6372 		.ascii	"m_crit_thd\000"
 4500      69745F74 
 4500      686400
 4501              	.LASF132:
 4502 0966 6D5F6F77 		.ascii	"m_owner\000"
 4502      6E657200 
 4503              	.LASF101:
 4504 096e 73655F77 		.ascii	"se_wtobjp\000"
 4504      746F626A 
 4504      7000
 4505              	.LASF136:
 4506 0978 63685F69 		.ascii	"ch_identifier\000"
 4506      64656E74 
 4506      69666965 
 4506      7200
 4507              	.LASF75:
 4508 0986 76745F66 		.ascii	"vt_func\000"
 4508      756E6300 
 4509              		.ident	"GCC: (GNU Tools for Arm Embedded Processors 7-2017-q4-major) 7.2.1 20170904 (release) [ARM
ARM GAS  C:\Users\PCHAUT~1\AppData\Local\Temp\ccqSs9HN.s 			page 88


DEFINED SYMBOLS
                            *ABS*:00000000 testmbox.c
C:\Users\PCHAUT~1\AppData\Local\Temp\ccqSs9HN.s:18     .text.port_lock:00000000 $t
C:\Users\PCHAUT~1\AppData\Local\Temp\ccqSs9HN.s:25     .text.port_lock:00000000 port_lock
C:\Users\PCHAUT~1\AppData\Local\Temp\ccqSs9HN.s:72     .text.port_lock:0000002c $d
C:\Users\PCHAUT~1\AppData\Local\Temp\ccqSs9HN.s:77     .text.port_unlock:00000000 $t
C:\Users\PCHAUT~1\AppData\Local\Temp\ccqSs9HN.s:84     .text.port_unlock:00000000 port_unlock
C:\Users\PCHAUT~1\AppData\Local\Temp\ccqSs9HN.s:129    .text.port_unlock:0000002c $d
C:\Users\PCHAUT~1\AppData\Local\Temp\ccqSs9HN.s:134    .text.chSysLock:00000000 $t
C:\Users\PCHAUT~1\AppData\Local\Temp\ccqSs9HN.s:141    .text.chSysLock:00000000 chSysLock
C:\Users\PCHAUT~1\AppData\Local\Temp\ccqSs9HN.s:179    .text.chSysLock:0000002c $d
C:\Users\PCHAUT~1\AppData\Local\Temp\ccqSs9HN.s:184    .text.chSysUnlock:00000000 $t
C:\Users\PCHAUT~1\AppData\Local\Temp\ccqSs9HN.s:191    .text.chSysUnlock:00000000 chSysUnlock
C:\Users\PCHAUT~1\AppData\Local\Temp\ccqSs9HN.s:247    .text.chSysUnlock:0000004c $d
C:\Users\PCHAUT~1\AppData\Local\Temp\ccqSs9HN.s:1676   .rodata.__func__.7153:00000000 __func__.7153
C:\Users\PCHAUT~1\AppData\Local\Temp\ccqSs9HN.s:254    .text.chSemGetCounterI:00000000 $t
C:\Users\PCHAUT~1\AppData\Local\Temp\ccqSs9HN.s:261    .text.chSemGetCounterI:00000000 chSemGetCounterI
C:\Users\PCHAUT~1\AppData\Local\Temp\ccqSs9HN.s:299    .text.chSemGetCounterI:0000002c $d
C:\Users\PCHAUT~1\AppData\Local\Temp\ccqSs9HN.s:304    .text.chMBGetFreeCountI:00000000 $t
C:\Users\PCHAUT~1\AppData\Local\Temp\ccqSs9HN.s:311    .text.chMBGetFreeCountI:00000000 chMBGetFreeCountI
C:\Users\PCHAUT~1\AppData\Local\Temp\ccqSs9HN.s:352    .text.chMBGetFreeCountI:00000034 $d
C:\Users\PCHAUT~1\AppData\Local\Temp\ccqSs9HN.s:357    .text.chMBGetUsedCountI:00000000 $t
C:\Users\PCHAUT~1\AppData\Local\Temp\ccqSs9HN.s:364    .text.chMBGetUsedCountI:00000000 chMBGetUsedCountI
C:\Users\PCHAUT~1\AppData\Local\Temp\ccqSs9HN.s:404    .text.chMBGetUsedCountI:00000034 $d
C:\Users\PCHAUT~1\AppData\Local\Temp\ccqSs9HN.s:409    .data.mb1:00000000 $d
C:\Users\PCHAUT~1\AppData\Local\Temp\ccqSs9HN.s:412    .data.mb1:00000000 mb1
C:\Users\PCHAUT~1\AppData\Local\Temp\ccqSs9HN.s:424    .text.mbox1_setup:00000000 $t
C:\Users\PCHAUT~1\AppData\Local\Temp\ccqSs9HN.s:431    .text.mbox1_setup:00000000 mbox1_setup
C:\Users\PCHAUT~1\AppData\Local\Temp\ccqSs9HN.s:468    .text.mbox1_setup:0000002c $d
C:\Users\PCHAUT~1\AppData\Local\Temp\ccqSs9HN.s:475    .rodata:00000000 $d
C:\Users\PCHAUT~1\AppData\Local\Temp\ccqSs9HN.s:479    .text.mbox1_execute:00000000 $t
C:\Users\PCHAUT~1\AppData\Local\Temp\ccqSs9HN.s:486    .text.mbox1_execute:00000000 mbox1_execute
C:\Users\PCHAUT~1\AppData\Local\Temp\ccqSs9HN.s:733    .text.mbox1_execute:000001e8 $d
C:\Users\PCHAUT~1\AppData\Local\Temp\ccqSs9HN.s:737    .text.mbox1_execute:000001f0 $t
C:\Users\PCHAUT~1\AppData\Local\Temp\ccqSs9HN.s:1077   .text.mbox1_execute:000004b8 $d
C:\Users\PCHAUT~1\AppData\Local\Temp\ccqSs9HN.s:1081   .text.mbox1_execute:000004c0 $t
C:\Users\PCHAUT~1\AppData\Local\Temp\ccqSs9HN.s:1450   .text.mbox1_execute:000007b4 $d
C:\Users\PCHAUT~1\AppData\Local\Temp\ccqSs9HN.s:1454   .text.mbox1_execute:000007bc $t
C:\Users\PCHAUT~1\AppData\Local\Temp\ccqSs9HN.s:1645   .text.mbox1_execute:000008b0 $d
C:\Users\PCHAUT~1\AppData\Local\Temp\ccqSs9HN.s:1659   .rodata.testmbox1:00000000 testmbox1
C:\Users\PCHAUT~1\AppData\Local\Temp\ccqSs9HN.s:1656   .rodata.testmbox1:00000000 $d
C:\Users\PCHAUT~1\AppData\Local\Temp\ccqSs9HN.s:1669   .rodata.patternmbox:00000000 patternmbox
C:\Users\PCHAUT~1\AppData\Local\Temp\ccqSs9HN.s:1666   .rodata.patternmbox:00000000 $d
C:\Users\PCHAUT~1\AppData\Local\Temp\ccqSs9HN.s:1673   .rodata.__func__.7153:00000000 $d

UNDEFINED SYMBOLS
__stack_chk_fail
__stack_chk_guard
_stats_start_measure_crit_thd
_dbg_check_lock
_dbg_check_unlock
_stats_stop_measure_crit_thd
chSysHalt
ch
chDbgCheckClassI
test
chMBObjectInit
ARM GAS  C:\Users\PCHAUT~1\AppData\Local\Temp\ccqSs9HN.s 			page 89


_test_assert
chMBPost
chMBPostAhead
chMBPostI
chMBPostAheadI
chMBFetch
test_emit_token
_test_assert_sequence
chMBFetchI
chMBReset
