ARM GAS  C:\Users\PCHAUT~1\AppData\Local\Temp\ccry1Rip.s 			page 1


   1              		.cpu cortex-m4
   2              		.eabi_attribute 27, 1
   3              		.eabi_attribute 28, 1
   4              		.eabi_attribute 20, 1
   5              		.eabi_attribute 21, 1
   6              		.eabi_attribute 23, 3
   7              		.eabi_attribute 24, 1
   8              		.eabi_attribute 25, 1
   9              		.eabi_attribute 26, 1
  10              		.eabi_attribute 30, 6
  11              		.eabi_attribute 34, 1
  12              		.eabi_attribute 18, 4
  13              		.file	"testpools.c"
  14              		.text
  15              	.Ltext0:
  16              		.cfi_sections	.debug_frame
  17              		.section	.data.mp1,"aw",%progbits
  18              		.align	2
  19              		.type	mp1, %object
  20              		.size	mp1, 12
  21              	mp1:
  22 0000 00000000 		.word	0
  23 0004 F8010000 		.word	504
  24 0008 00000000 		.word	0
  25              		.section	.text.null_provider,"ax",%progbits
  26              		.align	1
  27              		.p2align 4,,15
  28              		.syntax unified
  29              		.thumb
  30              		.thumb_func
  31              		.fpu fpv4-sp-d16
  32              		.type	null_provider, %function
  33              	null_provider:
  34              	.LFB219:
  35              		.file 1 "../lib/e-puck2_main-processor/ChibiOS//test/rt/testpools.c"
  36              		.loc 1 60 0
  37              		.cfi_startproc
  38              		@ args = 0, pretend = 0, frame = 16
  39              		@ frame_needed = 0, uses_anonymous_args = 0
  40 0000 00B5     		push	{lr}
  41              		.cfi_def_cfa_offset 4
  42              		.cfi_offset 14, -4
  43 0002 85B0     		sub	sp, sp, #20
  44              		.cfi_def_cfa_offset 24
  45 0004 0190     		str	r0, [sp, #4]
  46              		.loc 1 60 0
  47 0006 074B     		ldr	r3, .L4
  48 0008 1B68     		ldr	r3, [r3]
  49 000a 0393     		str	r3, [sp, #12]
  50              		.loc 1 63 0
  51 000c 0023     		movs	r3, #0
  52              		.loc 1 64 0
  53 000e 1846     		mov	r0, r3
  54 0010 044B     		ldr	r3, .L4
  55 0012 039A     		ldr	r2, [sp, #12]
  56 0014 1B68     		ldr	r3, [r3]
  57 0016 9A42     		cmp	r2, r3
ARM GAS  C:\Users\PCHAUT~1\AppData\Local\Temp\ccry1Rip.s 			page 2


  58 0018 01D0     		beq	.L3
  59 001a FFF7FEFF 		bl	__stack_chk_fail
  60              	.L3:
  61 001e 05B0     		add	sp, sp, #20
  62              		.cfi_def_cfa_offset 4
  63              		@ sp needed
  64 0020 5DF804FB 		ldr	pc, [sp], #4
  65              	.L5:
  66              		.align	2
  67              	.L4:
  68 0024 00000000 		.word	__stack_chk_guard
  69              		.cfi_endproc
  70              	.LFE219:
  71              		.size	null_provider, .-null_provider
  72              		.section	.text.pools1_setup,"ax",%progbits
  73              		.align	1
  74              		.p2align 4,,15
  75              		.syntax unified
  76              		.thumb
  77              		.thumb_func
  78              		.fpu fpv4-sp-d16
  79              		.type	pools1_setup, %function
  80              	pools1_setup:
  81              	.LFB220:
  82              		.loc 1 66 0
  83              		.cfi_startproc
  84              		@ args = 0, pretend = 0, frame = 8
  85              		@ frame_needed = 0, uses_anonymous_args = 0
  86 0000 00B5     		push	{lr}
  87              		.cfi_def_cfa_offset 4
  88              		.cfi_offset 14, -4
  89 0002 83B0     		sub	sp, sp, #12
  90              		.cfi_def_cfa_offset 16
  91              		.loc 1 66 0
  92 0004 094B     		ldr	r3, .L8
  93 0006 1B68     		ldr	r3, [r3]
  94 0008 0193     		str	r3, [sp, #4]
  95              		.loc 1 68 0
  96 000a 0022     		movs	r2, #0
  97 000c 4FF4FC71 		mov	r1, #504
  98 0010 0748     		ldr	r0, .L8+4
  99 0012 FFF7FEFF 		bl	chPoolObjectInit
 100              		.loc 1 69 0
 101 0016 00BF     		nop
 102 0018 044B     		ldr	r3, .L8
 103 001a 019A     		ldr	r2, [sp, #4]
 104 001c 1B68     		ldr	r3, [r3]
 105 001e 9A42     		cmp	r2, r3
 106 0020 01D0     		beq	.L7
 107 0022 FFF7FEFF 		bl	__stack_chk_fail
 108              	.L7:
 109 0026 03B0     		add	sp, sp, #12
 110              		.cfi_def_cfa_offset 4
 111              		@ sp needed
 112 0028 5DF804FB 		ldr	pc, [sp], #4
 113              	.L9:
 114              		.align	2
ARM GAS  C:\Users\PCHAUT~1\AppData\Local\Temp\ccry1Rip.s 			page 3


 115              	.L8:
 116 002c 00000000 		.word	__stack_chk_guard
 117 0030 00000000 		.word	mp1
 118              		.cfi_endproc
 119              	.LFE220:
 120              		.size	pools1_setup, .-pools1_setup
 121              		.section	.text.pools1_execute,"ax",%progbits
 122              		.align	1
 123              		.p2align 4,,15
 124              		.syntax unified
 125              		.thumb
 126              		.thumb_func
 127              		.fpu fpv4-sp-d16
 128              		.type	pools1_execute, %function
 129              	pools1_execute:
 130              	.LFB221:
 131              		.loc 1 71 0
 132              		.cfi_startproc
 133              		@ args = 0, pretend = 0, frame = 8
 134              		@ frame_needed = 0, uses_anonymous_args = 0
 135 0000 00B5     		push	{lr}
 136              		.cfi_def_cfa_offset 4
 137              		.cfi_offset 14, -4
 138 0002 83B0     		sub	sp, sp, #12
 139              		.cfi_def_cfa_offset 16
 140              		.loc 1 71 0
 141 0004 494B     		ldr	r3, .L27
 142 0006 1B68     		ldr	r3, [r3]
 143 0008 0193     		str	r3, [sp, #4]
 144              		.loc 1 75 0
 145 000a 494B     		ldr	r3, .L27+4
 146 000c 1B68     		ldr	r3, [r3]
 147 000e 0522     		movs	r2, #5
 148 0010 1946     		mov	r1, r3
 149 0012 4848     		ldr	r0, .L27+8
 150 0014 FFF7FEFF 		bl	chPoolLoadArray
 151              		.loc 1 78 0
 152 0018 0023     		movs	r3, #0
 153 001a 0093     		str	r3, [sp]
 154 001c 12E0     		b	.L11
 155              	.L14:
 156              		.loc 1 79 0
 157 001e 4548     		ldr	r0, .L27+8
 158 0020 FFF7FEFF 		bl	chPoolAlloc
 159 0024 0346     		mov	r3, r0
 160 0026 002B     		cmp	r3, #0
 161 0028 14BF     		ite	ne
 162 002a 0123     		movne	r3, #1
 163 002c 0023     		moveq	r3, #0
 164 002e DBB2     		uxtb	r3, r3
 165 0030 1946     		mov	r1, r3
 166 0032 0120     		movs	r0, #1
 167 0034 FFF7FEFF 		bl	_test_assert
 168 0038 0346     		mov	r3, r0
 169 003a 002B     		cmp	r3, #0
 170 003c 64D1     		bne	.L23
 171              		.loc 1 78 0 discriminator 2
ARM GAS  C:\Users\PCHAUT~1\AppData\Local\Temp\ccry1Rip.s 			page 4


 172 003e 009B     		ldr	r3, [sp]
 173 0040 0133     		adds	r3, r3, #1
 174 0042 0093     		str	r3, [sp]
 175              	.L11:
 176              		.loc 1 78 0 is_stmt 0 discriminator 1
 177 0044 009B     		ldr	r3, [sp]
 178 0046 042B     		cmp	r3, #4
 179 0048 E9DD     		ble	.L14
 180              		.loc 1 82 0 is_stmt 1
 181 004a 3A48     		ldr	r0, .L27+8
 182 004c FFF7FEFF 		bl	chPoolAlloc
 183 0050 0346     		mov	r3, r0
 184 0052 002B     		cmp	r3, #0
 185 0054 0CBF     		ite	eq
 186 0056 0123     		moveq	r3, #1
 187 0058 0023     		movne	r3, #0
 188 005a DBB2     		uxtb	r3, r3
 189 005c 1946     		mov	r1, r3
 190 005e 0220     		movs	r0, #2
 191 0060 FFF7FEFF 		bl	_test_assert
 192 0064 0346     		mov	r3, r0
 193 0066 002B     		cmp	r3, #0
 194 0068 50D1     		bne	.L24
 195              		.loc 1 85 0
 196 006a 0023     		movs	r3, #0
 197 006c 0093     		str	r3, [sp]
 198 006e 0AE0     		b	.L16
 199              	.L17:
 200              		.loc 1 86 0 discriminator 3
 201 0070 2F4A     		ldr	r2, .L27+4
 202 0072 009B     		ldr	r3, [sp]
 203 0074 52F82330 		ldr	r3, [r2, r3, lsl #2]
 204 0078 1946     		mov	r1, r3
 205 007a 2E48     		ldr	r0, .L27+8
 206 007c FFF7FEFF 		bl	chPoolFree
 207              		.loc 1 85 0 discriminator 3
 208 0080 009B     		ldr	r3, [sp]
 209 0082 0133     		adds	r3, r3, #1
 210 0084 0093     		str	r3, [sp]
 211              	.L16:
 212              		.loc 1 85 0 is_stmt 0 discriminator 1
 213 0086 009B     		ldr	r3, [sp]
 214 0088 042B     		cmp	r3, #4
 215 008a F1DD     		ble	.L17
 216              		.loc 1 89 0 is_stmt 1
 217 008c 0023     		movs	r3, #0
 218 008e 0093     		str	r3, [sp]
 219 0090 12E0     		b	.L18
 220              	.L20:
 221              		.loc 1 90 0
 222 0092 2848     		ldr	r0, .L27+8
 223 0094 FFF7FEFF 		bl	chPoolAlloc
 224 0098 0346     		mov	r3, r0
 225 009a 002B     		cmp	r3, #0
 226 009c 14BF     		ite	ne
 227 009e 0123     		movne	r3, #1
 228 00a0 0023     		moveq	r3, #0
ARM GAS  C:\Users\PCHAUT~1\AppData\Local\Temp\ccry1Rip.s 			page 5


 229 00a2 DBB2     		uxtb	r3, r3
 230 00a4 1946     		mov	r1, r3
 231 00a6 0320     		movs	r0, #3
 232 00a8 FFF7FEFF 		bl	_test_assert
 233 00ac 0346     		mov	r3, r0
 234 00ae 002B     		cmp	r3, #0
 235 00b0 2ED1     		bne	.L25
 236              		.loc 1 89 0 discriminator 2
 237 00b2 009B     		ldr	r3, [sp]
 238 00b4 0133     		adds	r3, r3, #1
 239 00b6 0093     		str	r3, [sp]
 240              	.L18:
 241              		.loc 1 89 0 is_stmt 0 discriminator 1
 242 00b8 009B     		ldr	r3, [sp]
 243 00ba 042B     		cmp	r3, #4
 244 00bc E9DD     		ble	.L20
 245              		.loc 1 93 0 is_stmt 1
 246 00be 1D48     		ldr	r0, .L27+8
 247 00c0 FFF7FEFF 		bl	chPoolAlloc
 248 00c4 0346     		mov	r3, r0
 249 00c6 002B     		cmp	r3, #0
 250 00c8 0CBF     		ite	eq
 251 00ca 0123     		moveq	r3, #1
 252 00cc 0023     		movne	r3, #0
 253 00ce DBB2     		uxtb	r3, r3
 254 00d0 1946     		mov	r1, r3
 255 00d2 0420     		movs	r0, #4
 256 00d4 FFF7FEFF 		bl	_test_assert
 257 00d8 0346     		mov	r3, r0
 258 00da 002B     		cmp	r3, #0
 259 00dc 1AD1     		bne	.L26
 260              		.loc 1 96 0
 261 00de 164A     		ldr	r2, .L27+12
 262 00e0 1021     		movs	r1, #16
 263 00e2 1448     		ldr	r0, .L27+8
 264 00e4 FFF7FEFF 		bl	chPoolObjectInit
 265              		.loc 1 97 0
 266 00e8 1248     		ldr	r0, .L27+8
 267 00ea FFF7FEFF 		bl	chPoolAlloc
 268 00ee 0346     		mov	r3, r0
 269 00f0 002B     		cmp	r3, #0
 270 00f2 0CBF     		ite	eq
 271 00f4 0123     		moveq	r3, #1
 272 00f6 0023     		movne	r3, #0
 273 00f8 DBB2     		uxtb	r3, r3
 274 00fa 1946     		mov	r1, r3
 275 00fc 0520     		movs	r0, #5
 276 00fe FFF7FEFF 		bl	_test_assert
 277 0102 0346     		mov	r3, r0
 278 0104 002B     		cmp	r3, #0
 279 0106 06E0     		b	.L10
 280              	.L23:
 281              		.loc 1 79 0
 282 0108 00BF     		nop
 283 010a 04E0     		b	.L10
 284              	.L24:
 285              		.loc 1 82 0
ARM GAS  C:\Users\PCHAUT~1\AppData\Local\Temp\ccry1Rip.s 			page 6


 286 010c 00BF     		nop
 287 010e 02E0     		b	.L10
 288              	.L25:
 289              		.loc 1 90 0
 290 0110 00BF     		nop
 291 0112 00E0     		b	.L10
 292              	.L26:
 293              		.loc 1 93 0
 294 0114 00BF     		nop
 295              	.L10:
 296              		.loc 1 98 0
 297 0116 054B     		ldr	r3, .L27
 298 0118 019A     		ldr	r2, [sp, #4]
 299 011a 1B68     		ldr	r3, [r3]
 300 011c 9A42     		cmp	r2, r3
 301 011e 01D0     		beq	.L22
 302 0120 FFF7FEFF 		bl	__stack_chk_fail
 303              	.L22:
 304 0124 03B0     		add	sp, sp, #12
 305              		.cfi_def_cfa_offset 4
 306              		@ sp needed
 307 0126 5DF804FB 		ldr	pc, [sp], #4
 308              	.L28:
 309 012a 00BF     		.align	2
 310              	.L27:
 311 012c 00000000 		.word	__stack_chk_guard
 312 0130 00000000 		.word	wa
 313 0134 00000000 		.word	mp1
 314 0138 00000000 		.word	null_provider
 315              		.cfi_endproc
 316              	.LFE221:
 317              		.size	pools1_execute, .-pools1_execute
 318              		.global	testpools1
 319              		.section	.rodata
 320              		.align	2
 321              	.LC0:
 322 0000 4D656D6F 		.ascii	"Memory Pools, queue/dequeue\000"
 322      72792050 
 322      6F6F6C73 
 322      2C207175 
 322      6575652F 
 323              		.section	.rodata.testpools1,"a",%progbits
 324              		.align	2
 325              		.type	testpools1, %object
 326              		.size	testpools1, 16
 327              	testpools1:
 328 0000 00000000 		.word	.LC0
 329 0004 00000000 		.word	pools1_setup
 330 0008 00000000 		.word	0
 331 000c 00000000 		.word	pools1_execute
 332              		.global	patternpools
 333              		.section	.rodata.patternpools,"a",%progbits
 334              		.align	2
 335              		.type	patternpools, %object
 336              		.size	patternpools, 8
 337              	patternpools:
 338 0000 00000000 		.word	testpools1
ARM GAS  C:\Users\PCHAUT~1\AppData\Local\Temp\ccry1Rip.s 			page 7


 339 0004 00000000 		.word	0
 340              		.text
 341              	.Letext0:
 342              		.file 2 "c:\\users\\pchautems\\documents\\robotiquetp\\eclipse_e-puck2\\tools\\gcc-arm-none-eabi-7
 343              		.file 3 "c:\\users\\pchautems\\documents\\robotiquetp\\eclipse_e-puck2\\tools\\gcc-arm-none-eabi-7
 344              		.file 4 "c:\\users\\pchautems\\documents\\robotiquetp\\eclipse_e-puck2\\tools\\gcc-arm-none-eabi-7
 345              		.file 5 "../lib/e-puck2_main-processor/ChibiOS//os/rt/ports/ARMCMx/compilers/GCC/chtypes.h"
 346              		.file 6 "../lib/e-puck2_main-processor/ChibiOS//os/rt/include/chsystypes.h"
 347              		.file 7 "../lib/e-puck2_main-processor/ChibiOS//os/rt/include/chschd.h"
 348              		.file 8 "../lib/e-puck2_main-processor/ChibiOS//os/ext/CMSIS/include/core_cm4.h"
 349              		.file 9 "../lib/e-puck2_main-processor/ChibiOS//os/ext/CMSIS/ST/system_stm32f4xx.h"
 350              		.file 10 "../lib/e-puck2_main-processor/ChibiOS//os/rt/ports/ARMCMx/chcore.h"
 351              		.file 11 "../lib/e-puck2_main-processor/ChibiOS//os/rt/ports/ARMCMx/chcore_v7m.h"
 352              		.file 12 "../lib/e-puck2_main-processor/ChibiOS//os/rt/include/chdebug.h"
 353              		.file 13 "../lib/e-puck2_main-processor/ChibiOS//os/rt/include/chtm.h"
 354              		.file 14 "../lib/e-puck2_main-processor/ChibiOS//os/rt/include/chstats.h"
 355              		.file 15 "../lib/e-puck2_main-processor/ChibiOS//os/rt/include/chsem.h"
 356              		.file 16 "../lib/e-puck2_main-processor/ChibiOS//os/rt/include/chmtx.h"
 357              		.file 17 "../lib/e-puck2_main-processor/ChibiOS//os/rt/include/chregistry.h"
 358              		.file 18 "../lib/e-puck2_main-processor/ChibiOS//os/rt/include/chmemcore.h"
 359              		.file 19 "../lib/e-puck2_main-processor/ChibiOS//os/rt/include/chmempools.h"
 360              		.file 20 "../lib/e-puck2_main-processor/ChibiOS//test/rt/test.h"