ARM GAS  C:\Users\PCHAUT~1\AppData\Local\Temp\ccmYir0w.s 			page 1


   1              		.cpu cortex-m4
   2              		.eabi_attribute 27, 1
   3              		.eabi_attribute 28, 1
   4              		.eabi_attribute 20, 1
   5              		.eabi_attribute 21, 1
   6              		.eabi_attribute 23, 3
   7              		.eabi_attribute 24, 1
   8              		.eabi_attribute 25, 1
   9              		.eabi_attribute 26, 1
  10              		.eabi_attribute 30, 6
  11              		.eabi_attribute 34, 1
  12              		.eabi_attribute 18, 4
  13              		.file	"testmsg.c"
  14              		.text
  15              	.Ltext0:
  16              		.cfi_sections	.debug_frame
  17              		.section	.text.chThdGetSelfX,"ax",%progbits
  18              		.align	1
  19              		.p2align 4,,15
  20              		.syntax unified
  21              		.thumb
  22              		.thumb_func
  23              		.fpu fpv4-sp-d16
  24              		.type	chThdGetSelfX, %function
  25              	chThdGetSelfX:
  26              	.LFB166:
  27              		.file 1 "../lib/e-puck2_main-processor/ChibiOS//os/rt/include/chthreads.h"
  28              		.loc 1 174 0
  29              		.cfi_startproc
  30              		@ args = 0, pretend = 0, frame = 8
  31              		@ frame_needed = 0, uses_anonymous_args = 0
  32 0000 00B5     		push	{lr}
  33              		.cfi_def_cfa_offset 4
  34              		.cfi_offset 14, -4
  35 0002 83B0     		sub	sp, sp, #12
  36              		.cfi_def_cfa_offset 16
  37              		.loc 1 174 0
  38 0004 074B     		ldr	r3, .L4
  39 0006 1B68     		ldr	r3, [r3]
  40 0008 0193     		str	r3, [sp, #4]
  41              		.loc 1 176 0
  42 000a 074B     		ldr	r3, .L4+4
  43 000c 9B69     		ldr	r3, [r3, #24]
  44              		.loc 1 177 0
  45 000e 1846     		mov	r0, r3
  46 0010 044B     		ldr	r3, .L4
  47 0012 019A     		ldr	r2, [sp, #4]
  48 0014 1B68     		ldr	r3, [r3]
  49 0016 9A42     		cmp	r2, r3
  50 0018 01D0     		beq	.L3
  51 001a FFF7FEFF 		bl	__stack_chk_fail
  52              	.L3:
  53 001e 03B0     		add	sp, sp, #12
  54              		.cfi_def_cfa_offset 4
  55              		@ sp needed
  56 0020 5DF804FB 		ldr	pc, [sp], #4
  57              	.L5:
ARM GAS  C:\Users\PCHAUT~1\AppData\Local\Temp\ccmYir0w.s 			page 2


  58              		.align	2
  59              	.L4:
  60 0024 00000000 		.word	__stack_chk_guard
  61 0028 00000000 		.word	ch
  62              		.cfi_endproc
  63              	.LFE166:
  64              		.size	chThdGetSelfX, .-chThdGetSelfX
  65              		.section	.text.chThdGetPriorityX,"ax",%progbits
  66              		.align	1
  67              		.p2align 4,,15
  68              		.syntax unified
  69              		.thumb
  70              		.thumb_func
  71              		.fpu fpv4-sp-d16
  72              		.type	chThdGetPriorityX, %function
  73              	chThdGetPriorityX:
  74              	.LFB167:
  75              		.loc 1 187 0
  76              		.cfi_startproc
  77              		@ args = 0, pretend = 0, frame = 8
  78              		@ frame_needed = 0, uses_anonymous_args = 0
  79 0000 00B5     		push	{lr}
  80              		.cfi_def_cfa_offset 4
  81              		.cfi_offset 14, -4
  82 0002 83B0     		sub	sp, sp, #12
  83              		.cfi_def_cfa_offset 16
  84              		.loc 1 187 0
  85 0004 084B     		ldr	r3, .L9
  86 0006 1B68     		ldr	r3, [r3]
  87 0008 0193     		str	r3, [sp, #4]
  88              		.loc 1 189 0
  89 000a FFF7FEFF 		bl	chThdGetSelfX
  90 000e 0346     		mov	r3, r0
  91 0010 9B68     		ldr	r3, [r3, #8]
  92              		.loc 1 190 0
  93 0012 1846     		mov	r0, r3
  94 0014 044B     		ldr	r3, .L9
  95 0016 019A     		ldr	r2, [sp, #4]
  96 0018 1B68     		ldr	r3, [r3]
  97 001a 9A42     		cmp	r2, r3
  98 001c 01D0     		beq	.L8
  99 001e FFF7FEFF 		bl	__stack_chk_fail
 100              	.L8:
 101 0022 03B0     		add	sp, sp, #12
 102              		.cfi_def_cfa_offset 4
 103              		@ sp needed
 104 0024 5DF804FB 		ldr	pc, [sp], #4
 105              	.L10:
 106              		.align	2
 107              	.L9:
 108 0028 00000000 		.word	__stack_chk_guard
 109              		.cfi_endproc
 110              	.LFE167:
 111              		.size	chThdGetPriorityX, .-chThdGetPriorityX
 112              		.section	.text.chMsgGet,"ax",%progbits
 113              		.align	1
 114              		.p2align 4,,15
ARM GAS  C:\Users\PCHAUT~1\AppData\Local\Temp\ccmYir0w.s 			page 3


 115              		.syntax unified
 116              		.thumb
 117              		.thumb_func
 118              		.fpu fpv4-sp-d16
 119              		.type	chMsgGet, %function
 120              	chMsgGet:
 121              	.LFB201:
 122              		.file 2 "../lib/e-puck2_main-processor/ChibiOS//os/rt/include/chmsg.h"
 123              		.loc 2 96 0
 124              		.cfi_startproc
 125              		@ args = 0, pretend = 0, frame = 16
 126              		@ frame_needed = 0, uses_anonymous_args = 0
 127 0000 00B5     		push	{lr}
 128              		.cfi_def_cfa_offset 4
 129              		.cfi_offset 14, -4
 130 0002 85B0     		sub	sp, sp, #20
 131              		.cfi_def_cfa_offset 24
 132 0004 0190     		str	r0, [sp, #4]
 133              		.loc 2 96 0
 134 0006 084B     		ldr	r3, .L14
 135 0008 1B68     		ldr	r3, [r3]
 136 000a 0393     		str	r3, [sp, #12]
 137              		.loc 2 98 0
 138 000c 019B     		ldr	r3, [sp, #4]
 139 000e 9B6B     		ldr	r3, [r3, #56]
 140              		.loc 2 99 0
 141 0010 1846     		mov	r0, r3
 142 0012 054B     		ldr	r3, .L14
 143 0014 039A     		ldr	r2, [sp, #12]
 144 0016 1B68     		ldr	r3, [r3]
 145 0018 9A42     		cmp	r2, r3
 146 001a 01D0     		beq	.L13
 147 001c FFF7FEFF 		bl	__stack_chk_fail
 148              	.L13:
 149 0020 05B0     		add	sp, sp, #20
 150              		.cfi_def_cfa_offset 4
 151              		@ sp needed
 152 0022 5DF804FB 		ldr	pc, [sp], #4
 153              	.L15:
 154 0026 00BF     		.align	2
 155              	.L14:
 156 0028 00000000 		.word	__stack_chk_guard
 157              		.cfi_endproc
 158              	.LFE201:
 159              		.size	chMsgGet, .-chMsgGet
 160              		.section	.text.thread,"ax",%progbits
 161              		.align	1
 162              		.p2align 4,,15
 163              		.syntax unified
 164              		.thumb
 165              		.thumb_func
 166              		.fpu fpv4-sp-d16
 167              		.type	thread, %function
 168              	thread:
 169              	.LFB219:
 170              		.file 3 "../lib/e-puck2_main-processor/ChibiOS//test/rt/testmsg.c"
 171              		.loc 3 59 0
ARM GAS  C:\Users\PCHAUT~1\AppData\Local\Temp\ccmYir0w.s 			page 4


 172              		.cfi_startproc
 173              		@ args = 0, pretend = 0, frame = 16
 174              		@ frame_needed = 0, uses_anonymous_args = 0
 175 0000 00B5     		push	{lr}
 176              		.cfi_def_cfa_offset 4
 177              		.cfi_offset 14, -4
 178 0002 85B0     		sub	sp, sp, #20
 179              		.cfi_def_cfa_offset 24
 180 0004 0190     		str	r0, [sp, #4]
 181              		.loc 3 59 0
 182 0006 0D4B     		ldr	r3, .L18
 183 0008 1B68     		ldr	r3, [r3]
 184 000a 0393     		str	r3, [sp, #12]
 185              		.loc 3 61 0
 186 000c 4121     		movs	r1, #65
 187 000e 0198     		ldr	r0, [sp, #4]
 188 0010 FFF7FEFF 		bl	chMsgSend
 189              		.loc 3 62 0
 190 0014 4221     		movs	r1, #66
 191 0016 0198     		ldr	r0, [sp, #4]
 192 0018 FFF7FEFF 		bl	chMsgSend
 193              		.loc 3 63 0
 194 001c 4321     		movs	r1, #67
 195 001e 0198     		ldr	r0, [sp, #4]
 196 0020 FFF7FEFF 		bl	chMsgSend
 197              		.loc 3 64 0
 198 0024 00BF     		nop
 199 0026 054B     		ldr	r3, .L18
 200 0028 039A     		ldr	r2, [sp, #12]
 201 002a 1B68     		ldr	r3, [r3]
 202 002c 9A42     		cmp	r2, r3
 203 002e 01D0     		beq	.L17
 204 0030 FFF7FEFF 		bl	__stack_chk_fail
 205              	.L17:
 206 0034 05B0     		add	sp, sp, #20
 207              		.cfi_def_cfa_offset 4
 208              		@ sp needed
 209 0036 5DF804FB 		ldr	pc, [sp], #4
 210              	.L19:
 211 003a 00BF     		.align	2
 212              	.L18:
 213 003c 00000000 		.word	__stack_chk_guard
 214              		.cfi_endproc
 215              	.LFE219:
 216              		.size	thread, .-thread
 217              		.section	.rodata
 218              		.align	2
 219              	.LC0:
 220 0000 41424300 		.ascii	"ABC\000"
 221              		.section	.text.msg1_execute,"ax",%progbits
 222              		.align	1
 223              		.p2align 4,,15
 224              		.syntax unified
 225              		.thumb
 226              		.thumb_func
 227              		.fpu fpv4-sp-d16
 228              		.type	msg1_execute, %function
ARM GAS  C:\Users\PCHAUT~1\AppData\Local\Temp\ccmYir0w.s 			page 5


 229              	msg1_execute:
 230              	.LFB220:
 231              		.loc 3 66 0
 232              		.cfi_startproc
 233              		@ args = 0, pretend = 0, frame = 16
 234              		@ frame_needed = 0, uses_anonymous_args = 0
 235 0000 30B5     		push	{r4, r5, lr}
 236              		.cfi_def_cfa_offset 12
 237              		.cfi_offset 4, -12
 238              		.cfi_offset 5, -8
 239              		.cfi_offset 14, -4
 240 0002 87B0     		sub	sp, sp, #28
 241              		.cfi_def_cfa_offset 40
 242              		.loc 3 66 0
 243 0004 2A4B     		ldr	r3, .L23
 244 0006 1B68     		ldr	r3, [r3]
 245 0008 0593     		str	r3, [sp, #20]
 246              		.loc 3 73 0
 247 000a 2A4B     		ldr	r3, .L23+4
 248 000c 1C68     		ldr	r4, [r3]
 249 000e FFF7FEFF 		bl	chThdGetPriorityX
 250 0012 0346     		mov	r3, r0
 251 0014 5D1C     		adds	r5, r3, #1
 252              		.loc 3 74 0
 253 0016 FFF7FEFF 		bl	chThdGetSelfX
 254 001a 0346     		mov	r3, r0
 255              		.loc 3 73 0
 256 001c 0093     		str	r3, [sp]
 257 001e 264B     		ldr	r3, .L23+8
 258 0020 2A46     		mov	r2, r5
 259 0022 4FF4FC71 		mov	r1, #504
 260 0026 2046     		mov	r0, r4
 261 0028 FFF7FEFF 		bl	chThdCreateStatic
 262 002c 0246     		mov	r2, r0
 263 002e 234B     		ldr	r3, .L23+12
 264 0030 1A60     		str	r2, [r3]
 265              		.loc 3 75 0
 266 0032 FFF7FEFF 		bl	chMsgWait
 267 0036 0390     		str	r0, [sp, #12]
 268              		.loc 3 76 0
 269 0038 0398     		ldr	r0, [sp, #12]
 270 003a FFF7FEFF 		bl	chMsgGet
 271 003e 0490     		str	r0, [sp, #16]
 272              		.loc 3 77 0
 273 0040 0499     		ldr	r1, [sp, #16]
 274 0042 0398     		ldr	r0, [sp, #12]
 275 0044 FFF7FEFF 		bl	chMsgRelease
 276              		.loc 3 78 0
 277 0048 049B     		ldr	r3, [sp, #16]
 278 004a DBB2     		uxtb	r3, r3
 279 004c 1846     		mov	r0, r3
 280 004e FFF7FEFF 		bl	test_emit_token
 281              		.loc 3 79 0
 282 0052 FFF7FEFF 		bl	chMsgWait
 283 0056 0390     		str	r0, [sp, #12]
 284              		.loc 3 80 0
 285 0058 0398     		ldr	r0, [sp, #12]
ARM GAS  C:\Users\PCHAUT~1\AppData\Local\Temp\ccmYir0w.s 			page 6


 286 005a FFF7FEFF 		bl	chMsgGet
 287 005e 0490     		str	r0, [sp, #16]
 288              		.loc 3 81 0
 289 0060 0499     		ldr	r1, [sp, #16]
 290 0062 0398     		ldr	r0, [sp, #12]
 291 0064 FFF7FEFF 		bl	chMsgRelease
 292              		.loc 3 82 0
 293 0068 049B     		ldr	r3, [sp, #16]
 294 006a DBB2     		uxtb	r3, r3
 295 006c 1846     		mov	r0, r3
 296 006e FFF7FEFF 		bl	test_emit_token
 297              		.loc 3 83 0
 298 0072 FFF7FEFF 		bl	chMsgWait
 299 0076 0390     		str	r0, [sp, #12]
 300              		.loc 3 84 0
 301 0078 0398     		ldr	r0, [sp, #12]
 302 007a FFF7FEFF 		bl	chMsgGet
 303 007e 0490     		str	r0, [sp, #16]
 304              		.loc 3 85 0
 305 0080 0499     		ldr	r1, [sp, #16]
 306 0082 0398     		ldr	r0, [sp, #12]
 307 0084 FFF7FEFF 		bl	chMsgRelease
 308              		.loc 3 86 0
 309 0088 049B     		ldr	r3, [sp, #16]
 310 008a DBB2     		uxtb	r3, r3
 311 008c 1846     		mov	r0, r3
 312 008e FFF7FEFF 		bl	test_emit_token
 313              		.loc 3 87 0
 314 0092 0B49     		ldr	r1, .L23+16
 315 0094 0120     		movs	r0, #1
 316 0096 FFF7FEFF 		bl	_test_assert_sequence
 317 009a 0346     		mov	r3, r0
 318 009c 002B     		cmp	r3, #0
 319              		.loc 3 88 0
 320 009e 044B     		ldr	r3, .L23
 321 00a0 059A     		ldr	r2, [sp, #20]
 322 00a2 1B68     		ldr	r3, [r3]
 323 00a4 9A42     		cmp	r2, r3
 324 00a6 01D0     		beq	.L22
 325 00a8 FFF7FEFF 		bl	__stack_chk_fail
 326              	.L22:
 327 00ac 07B0     		add	sp, sp, #28
 328              		.cfi_def_cfa_offset 12
 329              		@ sp needed
 330 00ae 30BD     		pop	{r4, r5, pc}
 331              	.L24:
 332              		.align	2
 333              	.L23:
 334 00b0 00000000 		.word	__stack_chk_guard
 335 00b4 00000000 		.word	wa
 336 00b8 00000000 		.word	thread
 337 00bc 00000000 		.word	threads
 338 00c0 00000000 		.word	.LC0
 339              		.cfi_endproc
 340              	.LFE220:
 341              		.size	msg1_execute, .-msg1_execute
 342              		.global	testmsg1
ARM GAS  C:\Users\PCHAUT~1\AppData\Local\Temp\ccmYir0w.s 			page 7


 343              		.section	.rodata
 344              		.align	2
 345              	.LC1:
 346 0004 4D657373 		.ascii	"Messages, loop\000"
 346      61676573 
 346      2C206C6F 
 346      6F7000
 347              		.section	.rodata.testmsg1,"a",%progbits
 348              		.align	2
 349              		.type	testmsg1, %object
 350              		.size	testmsg1, 16
 351              	testmsg1:
 352 0000 04000000 		.word	.LC1
 353 0004 00000000 		.word	0
 354 0008 00000000 		.word	0
 355 000c 00000000 		.word	msg1_execute
 356              		.global	patternmsg
 357              		.section	.rodata.patternmsg,"a",%progbits
 358              		.align	2
 359              		.type	patternmsg, %object
 360              		.size	patternmsg, 8
 361              	patternmsg:
 362 0000 00000000 		.word	testmsg1
 363 0004 00000000 		.word	0
 364              		.text
 365              	.Letext0:
 366              		.file 4 "c:\\users\\pchautems\\documents\\robotiquetp\\eclipse_e-puck2\\tools\\gcc-arm-none-eabi-7
 367              		.file 5 "c:\\users\\pchautems\\documents\\robotiquetp\\eclipse_e-puck2\\tools\\gcc-arm-none-eabi-7
 368              		.file 6 "c:\\users\\pchautems\\documents\\robotiquetp\\eclipse_e-puck2\\tools\\gcc-arm-none-eabi-7
 369              		.file 7 "../lib/e-puck2_main-processor/ChibiOS//os/rt/ports/ARMCMx/compilers/GCC/chtypes.h"
 370              		.file 8 "../lib/e-puck2_main-processor/ChibiOS//os/rt/include/chsystypes.h"
 371              		.file 9 "../lib/e-puck2_main-processor/ChibiOS//os/rt/include/chschd.h"
 372              		.file 10 "../lib/e-puck2_main-processor/ChibiOS//os/ext/CMSIS/include/core_cm4.h"
 373              		.file 11 "../lib/e-puck2_main-processor/ChibiOS//os/ext/CMSIS/ST/system_stm32f4xx.h"
 374              		.file 12 "../lib/e-puck2_main-processor/ChibiOS//os/rt/ports/ARMCMx/chcore.h"
 375              		.file 13 "../lib/e-puck2_main-processor/ChibiOS//os/rt/ports/ARMCMx/chcore_v7m.h"
 376              		.file 14 "../lib/e-puck2_main-processor/ChibiOS//os/rt/include/chdebug.h"
 377              		.file 15 "../lib/e-puck2_main-processor/ChibiOS//os/rt/include/chtm.h"
 378              		.file 16 "../lib/e-puck2_main-processor/ChibiOS//os/rt/include/chstats.h"
 379              		.file 17 "../lib/e-puck2_main-processor/ChibiOS//os/rt/include/chsem.h"
 380              		.file 18 "../lib/e-puck2_main-processor/ChibiOS//os/rt/include/chmtx.h"
 381              		.file 19 "../lib/e-puck2_main-processor/ChibiOS//os/rt/include/chregistry.h"
 382              		.file 20 "../lib/e-puck2_main-processor/ChibiOS//test/rt/test.h"