ARM GAS  C:\Users\PCHAUT~1\AppData\Local\Temp\cc4us1Pe.s 			page 1


   1              		.cpu cortex-m4
   2              		.eabi_attribute 27, 1
   3              		.eabi_attribute 28, 1
   4              		.eabi_attribute 20, 1
   5              		.eabi_attribute 21, 1
   6              		.eabi_attribute 23, 3
   7              		.eabi_attribute 24, 1
   8              		.eabi_attribute 25, 1
   9              		.eabi_attribute 26, 1
  10              		.eabi_attribute 30, 6
  11              		.eabi_attribute 34, 1
  12              		.eabi_attribute 18, 4
  13              		.file	"testmtx.c"
  14              		.text
  15              	.Ltext0:
  16              		.cfi_sections	.debug_frame
  17              		.section	.text.port_lock,"ax",%progbits
  18              		.align	1
  19              		.p2align 4,,15
  20              		.syntax unified
  21              		.thumb
  22              		.thumb_func
  23              		.fpu fpv4-sp-d16
  24              		.type	port_lock, %function
  25              	port_lock:
  26              	.LFB116:
  27              		.file 1 "../lib/e-puck2_main-processor/ChibiOS//os/rt/ports/ARMCMx/chcore_v7m.h"
  28              		.loc 1 444 0
  29              		.cfi_startproc
  30              		@ args = 0, pretend = 0, frame = 8
  31              		@ frame_needed = 0, uses_anonymous_args = 0
  32 0000 00B5     		push	{lr}
  33              		.cfi_def_cfa_offset 4
  34              		.cfi_offset 14, -4
  35 0002 83B0     		sub	sp, sp, #12
  36              		.cfi_def_cfa_offset 16
  37              		.loc 1 444 0
  38 0004 094B     		ldr	r3, .L3
  39 0006 1B68     		ldr	r3, [r3]
  40 0008 0193     		str	r3, [sp, #4]
  41 000a 2023     		movs	r3, #32
  42 000c 0093     		str	r3, [sp]
  43              	.LBB6:
  44              	.LBB7:
  45              		.file 2 "../lib/e-puck2_main-processor/ChibiOS//os/ext/CMSIS/include/core_cmFunc.h"
  46              		.loc 2 546 0
  47 000e 009B     		ldr	r3, [sp]
  48              		.syntax unified
  49              	@ 546 "../lib/e-puck2_main-processor/ChibiOS//os/ext/CMSIS/include/core_cmFunc.h" 1
  50 0010 83F31188 		MSR basepri, r3
  51              	@ 0 "" 2
  52              		.thumb
  53              		.syntax unified
  54              	.LBE7:
  55              	.LBE6:
  56              		.loc 1 451 0
  57 0014 00BF     		nop
ARM GAS  C:\Users\PCHAUT~1\AppData\Local\Temp\cc4us1Pe.s 			page 2


  58 0016 054B     		ldr	r3, .L3
  59 0018 019A     		ldr	r2, [sp, #4]
  60 001a 1B68     		ldr	r3, [r3]
  61 001c 9A42     		cmp	r2, r3
  62 001e 01D0     		beq	.L2
  63 0020 FFF7FEFF 		bl	__stack_chk_fail
  64              	.L2:
  65 0024 03B0     		add	sp, sp, #12
  66              		.cfi_def_cfa_offset 4
  67              		@ sp needed
  68 0026 5DF804FB 		ldr	pc, [sp], #4
  69              	.L4:
  70 002a 00BF     		.align	2
  71              	.L3:
  72 002c 00000000 		.word	__stack_chk_guard
  73              		.cfi_endproc
  74              	.LFE116:
  75              		.size	port_lock, .-port_lock
  76              		.section	.text.port_unlock,"ax",%progbits
  77              		.align	1
  78              		.p2align 4,,15
  79              		.syntax unified
  80              		.thumb
  81              		.thumb_func
  82              		.fpu fpv4-sp-d16
  83              		.type	port_unlock, %function
  84              	port_unlock:
  85              	.LFB117:
  86              		.loc 1 458 0
  87              		.cfi_startproc
  88              		@ args = 0, pretend = 0, frame = 8
  89              		@ frame_needed = 0, uses_anonymous_args = 0
  90 0000 00B5     		push	{lr}
  91              		.cfi_def_cfa_offset 4
  92              		.cfi_offset 14, -4
  93 0002 83B0     		sub	sp, sp, #12
  94              		.cfi_def_cfa_offset 16
  95              		.loc 1 458 0
  96 0004 094B     		ldr	r3, .L7
  97 0006 1B68     		ldr	r3, [r3]
  98 0008 0193     		str	r3, [sp, #4]
  99 000a 0023     		movs	r3, #0
 100 000c 0093     		str	r3, [sp]
 101              	.LBB8:
 102              	.LBB9:
 103              		.loc 2 546 0
 104 000e 009B     		ldr	r3, [sp]
 105              		.syntax unified
 106              	@ 546 "../lib/e-puck2_main-processor/ChibiOS//os/ext/CMSIS/include/core_cmFunc.h" 1
 107 0010 83F31188 		MSR basepri, r3
 108              	@ 0 "" 2
 109              		.thumb
 110              		.syntax unified
 111              	.LBE9:
 112              	.LBE8:
 113              		.loc 1 465 0
 114 0014 00BF     		nop
ARM GAS  C:\Users\PCHAUT~1\AppData\Local\Temp\cc4us1Pe.s 			page 3


 115 0016 054B     		ldr	r3, .L7
 116 0018 019A     		ldr	r2, [sp, #4]
 117 001a 1B68     		ldr	r3, [r3]
 118 001c 9A42     		cmp	r2, r3
 119 001e 01D0     		beq	.L6
 120 0020 FFF7FEFF 		bl	__stack_chk_fail
 121              	.L6:
 122 0024 03B0     		add	sp, sp, #12
 123              		.cfi_def_cfa_offset 4
 124              		@ sp needed
 125 0026 5DF804FB 		ldr	pc, [sp], #4
 126              	.L8:
 127 002a 00BF     		.align	2
 128              	.L7:
 129 002c 00000000 		.word	__stack_chk_guard
 130              		.cfi_endproc
 131              	.LFE117:
 132              		.size	port_unlock, .-port_unlock
 133              		.section	.text.queue_isempty,"ax",%progbits
 134              		.align	1
 135              		.p2align 4,,15
 136              		.syntax unified
 137              		.thumb
 138              		.thumb_func
 139              		.fpu fpv4-sp-d16
 140              		.type	queue_isempty, %function
 141              	queue_isempty:
 142              	.LFB129:
 143              		.file 3 "../lib/e-puck2_main-processor/ChibiOS//os/rt/include/chschd.h"
 144              		.loc 3 616 0
 145              		.cfi_startproc
 146              		@ args = 0, pretend = 0, frame = 16
 147              		@ frame_needed = 0, uses_anonymous_args = 0
 148 0000 00B5     		push	{lr}
 149              		.cfi_def_cfa_offset 4
 150              		.cfi_offset 14, -4
 151 0002 85B0     		sub	sp, sp, #20
 152              		.cfi_def_cfa_offset 24
 153 0004 0190     		str	r0, [sp, #4]
 154              		.loc 3 616 0
 155 0006 0B4B     		ldr	r3, .L12
 156 0008 1B68     		ldr	r3, [r3]
 157 000a 0393     		str	r3, [sp, #12]
 158              		.loc 3 618 0
 159 000c 019B     		ldr	r3, [sp, #4]
 160 000e 1B68     		ldr	r3, [r3]
 161 0010 019A     		ldr	r2, [sp, #4]
 162 0012 9A42     		cmp	r2, r3
 163 0014 0CBF     		ite	eq
 164 0016 0123     		moveq	r3, #1
 165 0018 0023     		movne	r3, #0
 166 001a DBB2     		uxtb	r3, r3
 167              		.loc 3 619 0
 168 001c 1846     		mov	r0, r3
 169 001e 054B     		ldr	r3, .L12
 170 0020 039A     		ldr	r2, [sp, #12]
 171 0022 1B68     		ldr	r3, [r3]
ARM GAS  C:\Users\PCHAUT~1\AppData\Local\Temp\cc4us1Pe.s 			page 4


 172 0024 9A42     		cmp	r2, r3
 173 0026 01D0     		beq	.L11
 174 0028 FFF7FEFF 		bl	__stack_chk_fail
 175              	.L11:
 176 002c 05B0     		add	sp, sp, #20
 177              		.cfi_def_cfa_offset 4
 178              		@ sp needed
 179 002e 5DF804FB 		ldr	pc, [sp], #4
 180              	.L13:
 181 0032 00BF     		.align	2
 182              	.L12:
 183 0034 00000000 		.word	__stack_chk_guard
 184              		.cfi_endproc
 185              	.LFE129:
 186              		.size	queue_isempty, .-queue_isempty
 187              		.section	.text.chSysLock,"ax",%progbits
 188              		.align	1
 189              		.p2align 4,,15
 190              		.syntax unified
 191              		.thumb
 192              		.thumb_func
 193              		.fpu fpv4-sp-d16
 194              		.type	chSysLock, %function
 195              	chSysLock:
 196              	.LFB145:
 197              		.file 4 "../lib/e-puck2_main-processor/ChibiOS//os/rt/include/chsys.h"
 198              		.loc 4 346 0
 199              		.cfi_startproc
 200              		@ args = 0, pretend = 0, frame = 8
 201              		@ frame_needed = 0, uses_anonymous_args = 0
 202 0000 00B5     		push	{lr}
 203              		.cfi_def_cfa_offset 4
 204              		.cfi_offset 14, -4
 205 0002 83B0     		sub	sp, sp, #12
 206              		.cfi_def_cfa_offset 16
 207              		.loc 4 346 0
 208 0004 094B     		ldr	r3, .L16
 209 0006 1B68     		ldr	r3, [r3]
 210 0008 0193     		str	r3, [sp, #4]
 211              		.loc 4 348 0
 212 000a FFF7FEFF 		bl	port_lock
 213              		.loc 4 349 0
 214 000e FFF7FEFF 		bl	_stats_start_measure_crit_thd
 215              		.loc 4 350 0
 216 0012 FFF7FEFF 		bl	_dbg_check_lock
 217              		.loc 4 351 0
 218 0016 00BF     		nop
 219 0018 044B     		ldr	r3, .L16
 220 001a 019A     		ldr	r2, [sp, #4]
 221 001c 1B68     		ldr	r3, [r3]
 222 001e 9A42     		cmp	r2, r3
 223 0020 01D0     		beq	.L15
 224 0022 FFF7FEFF 		bl	__stack_chk_fail
 225              	.L15:
 226 0026 03B0     		add	sp, sp, #12
 227              		.cfi_def_cfa_offset 4
 228              		@ sp needed
ARM GAS  C:\Users\PCHAUT~1\AppData\Local\Temp\cc4us1Pe.s 			page 5


 229 0028 5DF804FB 		ldr	pc, [sp], #4
 230              	.L17:
 231              		.align	2
 232              	.L16:
 233 002c 00000000 		.word	__stack_chk_guard
 234              		.cfi_endproc
 235              	.LFE145:
 236              		.size	chSysLock, .-chSysLock
 237              		.section	.text.chSysUnlock,"ax",%progbits
 238              		.align	1
 239              		.p2align 4,,15
 240              		.syntax unified
 241              		.thumb
 242              		.thumb_func
 243              		.fpu fpv4-sp-d16
 244              		.type	chSysUnlock, %function
 245              	chSysUnlock:
 246              	.LFB146:
 247              		.loc 4 358 0
 248              		.cfi_startproc
 249              		@ args = 0, pretend = 0, frame = 8
 250              		@ frame_needed = 0, uses_anonymous_args = 0
 251 0000 00B5     		push	{lr}
 252              		.cfi_def_cfa_offset 4
 253              		.cfi_offset 14, -4
 254 0002 83B0     		sub	sp, sp, #12
 255              		.cfi_def_cfa_offset 16
 256              		.loc 4 358 0
 257 0004 114B     		ldr	r3, .L21
 258 0006 1B68     		ldr	r3, [r3]
 259 0008 0193     		str	r3, [sp, #4]
 260              		.loc 4 360 0
 261 000a FFF7FEFF 		bl	_dbg_check_unlock
 262              		.loc 4 361 0
 263 000e FFF7FEFF 		bl	_stats_stop_measure_crit_thd
 264              		.loc 4 367 0
 265 0012 0F4B     		ldr	r3, .L21+4
 266 0014 1B68     		ldr	r3, [r3]
 267 0016 0E4A     		ldr	r2, .L21+4
 268 0018 9342     		cmp	r3, r2
 269 001a 0AD0     		beq	.L19
 270              		.loc 4 367 0 is_stmt 0 discriminator 2
 271 001c 0C4B     		ldr	r3, .L21+4
 272 001e 9B69     		ldr	r3, [r3, #24]
 273 0020 9A68     		ldr	r2, [r3, #8]
 274 0022 0B4B     		ldr	r3, .L21+4
 275 0024 1B68     		ldr	r3, [r3]
 276 0026 9B68     		ldr	r3, [r3, #8]
 277 0028 9A42     		cmp	r2, r3
 278 002a 02D2     		bcs	.L19
 279              		.loc 4 367 0 discriminator 3
 280 002c 0948     		ldr	r0, .L21+8
 281 002e FFF7FEFF 		bl	chSysHalt
 282              	.L19:
 283              		.loc 4 371 0 is_stmt 1
 284 0032 FFF7FEFF 		bl	port_unlock
 285              		.loc 4 372 0
ARM GAS  C:\Users\PCHAUT~1\AppData\Local\Temp\cc4us1Pe.s 			page 6


 286 0036 00BF     		nop
 287 0038 044B     		ldr	r3, .L21
 288 003a 019A     		ldr	r2, [sp, #4]
 289 003c 1B68     		ldr	r3, [r3]
 290 003e 9A42     		cmp	r2, r3
 291 0040 01D0     		beq	.L20
 292 0042 FFF7FEFF 		bl	__stack_chk_fail
 293              	.L20:
 294 0046 03B0     		add	sp, sp, #12
 295              		.cfi_def_cfa_offset 4
 296              		@ sp needed
 297 0048 5DF804FB 		ldr	pc, [sp], #4
 298              	.L22:
 299              		.align	2
 300              	.L21:
 301 004c 00000000 		.word	__stack_chk_guard
 302 0050 00000000 		.word	ch
 303 0054 00000000 		.word	__func__.7153
 304              		.cfi_endproc
 305              	.LFE146:
 306              		.size	chSysUnlock, .-chSysUnlock
 307              		.section	.text.chVTGetSystemTimeX,"ax",%progbits
 308              		.align	1
 309              		.p2align 4,,15
 310              		.syntax unified
 311              		.thumb
 312              		.thumb_func
 313              		.fpu fpv4-sp-d16
 314              		.type	chVTGetSystemTimeX, %function
 315              	chVTGetSystemTimeX:
 316              	.LFB153:
 317              		.file 5 "../lib/e-puck2_main-processor/ChibiOS//os/rt/include/chvt.h"
 318              		.loc 5 228 0
 319              		.cfi_startproc
 320              		@ args = 0, pretend = 0, frame = 8
 321              		@ frame_needed = 0, uses_anonymous_args = 0
 322 0000 00B5     		push	{lr}
 323              		.cfi_def_cfa_offset 4
 324              		.cfi_offset 14, -4
 325 0002 83B0     		sub	sp, sp, #12
 326              		.cfi_def_cfa_offset 16
 327              		.loc 5 228 0
 328 0004 074B     		ldr	r3, .L26
 329 0006 1B68     		ldr	r3, [r3]
 330 0008 0193     		str	r3, [sp, #4]
 331              		.loc 5 231 0
 332 000a 074B     		ldr	r3, .L26+4
 333 000c 9B6A     		ldr	r3, [r3, #40]
 334              		.loc 5 235 0
 335 000e 1846     		mov	r0, r3
 336 0010 044B     		ldr	r3, .L26
 337 0012 019A     		ldr	r2, [sp, #4]
 338 0014 1B68     		ldr	r3, [r3]
 339 0016 9A42     		cmp	r2, r3
 340 0018 01D0     		beq	.L25
 341 001a FFF7FEFF 		bl	__stack_chk_fail
 342              	.L25:
ARM GAS  C:\Users\PCHAUT~1\AppData\Local\Temp\cc4us1Pe.s 			page 7


 343 001e 03B0     		add	sp, sp, #12
 344              		.cfi_def_cfa_offset 4
 345              		@ sp needed
 346 0020 5DF804FB 		ldr	pc, [sp], #4
 347              	.L27:
 348              		.align	2
 349              	.L26:
 350 0024 00000000 		.word	__stack_chk_guard
 351 0028 00000000 		.word	ch
 352              		.cfi_endproc
 353              	.LFE153:
 354              		.size	chVTGetSystemTimeX, .-chVTGetSystemTimeX
 355              		.section	.text.chVTGetSystemTime,"ax",%progbits
 356              		.align	1
 357              		.p2align 4,,15
 358              		.syntax unified
 359              		.thumb
 360              		.thumb_func
 361              		.fpu fpv4-sp-d16
 362              		.type	chVTGetSystemTime, %function
 363              	chVTGetSystemTime:
 364              	.LFB154:
 365              		.loc 5 247 0
 366              		.cfi_startproc
 367              		@ args = 0, pretend = 0, frame = 8
 368              		@ frame_needed = 0, uses_anonymous_args = 0
 369 0000 00B5     		push	{lr}
 370              		.cfi_def_cfa_offset 4
 371              		.cfi_offset 14, -4
 372 0002 83B0     		sub	sp, sp, #12
 373              		.cfi_def_cfa_offset 16
 374              		.loc 5 247 0
 375 0004 0A4B     		ldr	r3, .L31
 376 0006 1B68     		ldr	r3, [r3]
 377 0008 0193     		str	r3, [sp, #4]
 378              		.loc 5 250 0
 379 000a FFF7FEFF 		bl	chSysLock
 380              		.loc 5 251 0
 381 000e FFF7FEFF 		bl	chVTGetSystemTimeX
 382 0012 0090     		str	r0, [sp]
 383              		.loc 5 252 0
 384 0014 FFF7FEFF 		bl	chSysUnlock
 385              		.loc 5 254 0
 386 0018 009B     		ldr	r3, [sp]
 387              		.loc 5 255 0
 388 001a 1846     		mov	r0, r3
 389 001c 044B     		ldr	r3, .L31
 390 001e 019A     		ldr	r2, [sp, #4]
 391 0020 1B68     		ldr	r3, [r3]
 392 0022 9A42     		cmp	r2, r3
 393 0024 01D0     		beq	.L30
 394 0026 FFF7FEFF 		bl	__stack_chk_fail
 395              	.L30:
 396 002a 03B0     		add	sp, sp, #12
 397              		.cfi_def_cfa_offset 4
 398              		@ sp needed
 399 002c 5DF804FB 		ldr	pc, [sp], #4
ARM GAS  C:\Users\PCHAUT~1\AppData\Local\Temp\cc4us1Pe.s 			page 8


 400              	.L32:
 401              		.align	2
 402              	.L31:
 403 0030 00000000 		.word	__stack_chk_guard
 404              		.cfi_endproc
 405              	.LFE154:
 406              		.size	chVTGetSystemTime, .-chVTGetSystemTime
 407              		.section	.text.chThdGetSelfX,"ax",%progbits
 408              		.align	1
 409              		.p2align 4,,15
 410              		.syntax unified
 411              		.thumb
 412              		.thumb_func
 413              		.fpu fpv4-sp-d16
 414              		.type	chThdGetSelfX, %function
 415              	chThdGetSelfX:
 416              	.LFB166:
 417              		.file 6 "../lib/e-puck2_main-processor/ChibiOS//os/rt/include/chthreads.h"
 418              		.loc 6 174 0
 419              		.cfi_startproc
 420              		@ args = 0, pretend = 0, frame = 8
 421              		@ frame_needed = 0, uses_anonymous_args = 0
 422 0000 00B5     		push	{lr}
 423              		.cfi_def_cfa_offset 4
 424              		.cfi_offset 14, -4
 425 0002 83B0     		sub	sp, sp, #12
 426              		.cfi_def_cfa_offset 16
 427              		.loc 6 174 0
 428 0004 074B     		ldr	r3, .L36
 429 0006 1B68     		ldr	r3, [r3]
 430 0008 0193     		str	r3, [sp, #4]
 431              		.loc 6 176 0
 432 000a 074B     		ldr	r3, .L36+4
 433 000c 9B69     		ldr	r3, [r3, #24]
 434              		.loc 6 177 0
 435 000e 1846     		mov	r0, r3
 436 0010 044B     		ldr	r3, .L36
 437 0012 019A     		ldr	r2, [sp, #4]
 438 0014 1B68     		ldr	r3, [r3]
 439 0016 9A42     		cmp	r2, r3
 440 0018 01D0     		beq	.L35
 441 001a FFF7FEFF 		bl	__stack_chk_fail
 442              	.L35:
 443 001e 03B0     		add	sp, sp, #12
 444              		.cfi_def_cfa_offset 4
 445              		@ sp needed
 446 0020 5DF804FB 		ldr	pc, [sp], #4
 447              	.L37:
 448              		.align	2
 449              	.L36:
 450 0024 00000000 		.word	__stack_chk_guard
 451 0028 00000000 		.word	ch
 452              		.cfi_endproc
 453              	.LFE166:
 454              		.size	chThdGetSelfX, .-chThdGetSelfX
 455              		.section	.text.chThdGetPriorityX,"ax",%progbits
 456              		.align	1
ARM GAS  C:\Users\PCHAUT~1\AppData\Local\Temp\cc4us1Pe.s 			page 9


 457              		.p2align 4,,15
 458              		.syntax unified
 459              		.thumb
 460              		.thumb_func
 461              		.fpu fpv4-sp-d16
 462              		.type	chThdGetPriorityX, %function
 463              	chThdGetPriorityX:
 464              	.LFB167:
 465              		.loc 6 187 0
 466              		.cfi_startproc
 467              		@ args = 0, pretend = 0, frame = 8
 468              		@ frame_needed = 0, uses_anonymous_args = 0
 469 0000 00B5     		push	{lr}
 470              		.cfi_def_cfa_offset 4
 471              		.cfi_offset 14, -4
 472 0002 83B0     		sub	sp, sp, #12
 473              		.cfi_def_cfa_offset 16
 474              		.loc 6 187 0
 475 0004 084B     		ldr	r3, .L41
 476 0006 1B68     		ldr	r3, [r3]
 477 0008 0193     		str	r3, [sp, #4]
 478              		.loc 6 189 0
 479 000a FFF7FEFF 		bl	chThdGetSelfX
 480 000e 0346     		mov	r3, r0
 481 0010 9B68     		ldr	r3, [r3, #8]
 482              		.loc 6 190 0
 483 0012 1846     		mov	r0, r3
 484 0014 044B     		ldr	r3, .L41
 485 0016 019A     		ldr	r2, [sp, #4]
 486 0018 1B68     		ldr	r3, [r3]
 487 001a 9A42     		cmp	r2, r3
 488 001c 01D0     		beq	.L40
 489 001e FFF7FEFF 		bl	__stack_chk_fail
 490              	.L40:
 491 0022 03B0     		add	sp, sp, #12
 492              		.cfi_def_cfa_offset 4
 493              		@ sp needed
 494 0024 5DF804FB 		ldr	pc, [sp], #4
 495              	.L42:
 496              		.align	2
 497              	.L41:
 498 0028 00000000 		.word	__stack_chk_guard
 499              		.cfi_endproc
 500              	.LFE167:
 501              		.size	chThdGetPriorityX, .-chThdGetPriorityX
 502              		.section	.data.m1,"aw",%progbits
 503              		.align	2
 504              		.type	m1, %object
 505              		.size	m1, 20
 506              	m1:
 507 0000 00000000 		.word	m1
 508 0004 00000000 		.word	m1
 509 0008 00000000 		.word	0
 510 000c 00000000 		.word	0
 511 0010 00000000 		.word	0
 512              		.section	.data.m2,"aw",%progbits
 513              		.align	2
ARM GAS  C:\Users\PCHAUT~1\AppData\Local\Temp\cc4us1Pe.s 			page 10


 514              		.type	m2, %object
 515              		.size	m2, 20
 516              	m2:
 517 0000 00000000 		.word	m2
 518 0004 00000000 		.word	m2
 519 0008 00000000 		.word	0
 520 000c 00000000 		.word	0
 521 0010 00000000 		.word	0
 522              		.section	.data.c1,"aw",%progbits
 523              		.align	2
 524              		.type	c1, %object
 525              		.size	c1, 8
 526              	c1:
 527 0000 00000000 		.word	c1
 528 0004 00000000 		.word	c1
 529              		.section	.text.mtx1_setup,"ax",%progbits
 530              		.align	1
 531              		.p2align 4,,15
 532              		.syntax unified
 533              		.thumb
 534              		.thumb_func
 535              		.fpu fpv4-sp-d16
 536              		.type	mtx1_setup, %function
 537              	mtx1_setup:
 538              	.LFB219:
 539              		.file 7 "../lib/e-puck2_main-processor/ChibiOS//test/rt/testmtx.c"
 540              		.loc 7 84 0
 541              		.cfi_startproc
 542              		@ args = 0, pretend = 0, frame = 8
 543              		@ frame_needed = 0, uses_anonymous_args = 0
 544 0000 00B5     		push	{lr}
 545              		.cfi_def_cfa_offset 4
 546              		.cfi_offset 14, -4
 547 0002 83B0     		sub	sp, sp, #12
 548              		.cfi_def_cfa_offset 16
 549              		.loc 7 84 0
 550 0004 084B     		ldr	r3, .L45
 551 0006 1B68     		ldr	r3, [r3]
 552 0008 0193     		str	r3, [sp, #4]
 553              		.loc 7 86 0
 554 000a 0848     		ldr	r0, .L45+4
 555 000c FFF7FEFF 		bl	chMtxObjectInit
 556              		.loc 7 87 0
 557 0010 00BF     		nop
 558 0012 054B     		ldr	r3, .L45
 559 0014 019A     		ldr	r2, [sp, #4]
 560 0016 1B68     		ldr	r3, [r3]
 561 0018 9A42     		cmp	r2, r3
 562 001a 01D0     		beq	.L44
 563 001c FFF7FEFF 		bl	__stack_chk_fail
 564              	.L44:
 565 0020 03B0     		add	sp, sp, #12
 566              		.cfi_def_cfa_offset 4
 567              		@ sp needed
 568 0022 5DF804FB 		ldr	pc, [sp], #4
 569              	.L46:
 570 0026 00BF     		.align	2
ARM GAS  C:\Users\PCHAUT~1\AppData\Local\Temp\cc4us1Pe.s 			page 11


 571              	.L45:
 572 0028 00000000 		.word	__stack_chk_guard
 573 002c 00000000 		.word	m1
 574              		.cfi_endproc
 575              	.LFE219:
 576              		.size	mtx1_setup, .-mtx1_setup
 577              		.section	.text.thread1,"ax",%progbits
 578              		.align	1
 579              		.p2align 4,,15
 580              		.syntax unified
 581              		.thumb
 582              		.thumb_func
 583              		.fpu fpv4-sp-d16
 584              		.type	thread1, %function
 585              	thread1:
 586              	.LFB220:
 587              		.loc 7 89 0
 588              		.cfi_startproc
 589              		@ args = 0, pretend = 0, frame = 16
 590              		@ frame_needed = 0, uses_anonymous_args = 0
 591 0000 00B5     		push	{lr}
 592              		.cfi_def_cfa_offset 4
 593              		.cfi_offset 14, -4
 594 0002 85B0     		sub	sp, sp, #20
 595              		.cfi_def_cfa_offset 24
 596 0004 0190     		str	r0, [sp, #4]
 597              		.loc 7 89 0
 598 0006 0C4B     		ldr	r3, .L49
 599 0008 1B68     		ldr	r3, [r3]
 600 000a 0393     		str	r3, [sp, #12]
 601              		.loc 7 91 0
 602 000c 0B48     		ldr	r0, .L49+4
 603 000e FFF7FEFF 		bl	chMtxLock
 604              		.loc 7 92 0
 605 0012 019B     		ldr	r3, [sp, #4]
 606 0014 1B78     		ldrb	r3, [r3]	@ zero_extendqisi2
 607 0016 1846     		mov	r0, r3
 608 0018 FFF7FEFF 		bl	test_emit_token
 609              		.loc 7 93 0
 610 001c 0748     		ldr	r0, .L49+4
 611 001e FFF7FEFF 		bl	chMtxUnlock
 612              		.loc 7 94 0
 613 0022 00BF     		nop
 614 0024 044B     		ldr	r3, .L49
 615 0026 039A     		ldr	r2, [sp, #12]
 616 0028 1B68     		ldr	r3, [r3]
 617 002a 9A42     		cmp	r2, r3
 618 002c 01D0     		beq	.L48
 619 002e FFF7FEFF 		bl	__stack_chk_fail
 620              	.L48:
 621 0032 05B0     		add	sp, sp, #20
 622              		.cfi_def_cfa_offset 4
 623              		@ sp needed
 624 0034 5DF804FB 		ldr	pc, [sp], #4
 625              	.L50:
 626              		.align	2
 627              	.L49:
ARM GAS  C:\Users\PCHAUT~1\AppData\Local\Temp\cc4us1Pe.s 			page 12


 628 0038 00000000 		.word	__stack_chk_guard
 629 003c 00000000 		.word	m1
 630              		.cfi_endproc
 631              	.LFE220:
 632              		.size	thread1, .-thread1
 633              		.section	.rodata
 634              		.align	2
 635              	.LC0:
 636 0000 4500     		.ascii	"E\000"
 637 0002 0000     		.align	2
 638              	.LC1:
 639 0004 4400     		.ascii	"D\000"
 640 0006 0000     		.align	2
 641              	.LC2:
 642 0008 4300     		.ascii	"C\000"
 643 000a 0000     		.align	2
 644              	.LC3:
 645 000c 4200     		.ascii	"B\000"
 646 000e 0000     		.align	2
 647              	.LC4:
 648 0010 4100     		.ascii	"A\000"
 649 0012 0000     		.align	2
 650              	.LC5:
 651 0014 41424344 		.ascii	"ABCDE\000"
 651      4500
 652              		.section	.text.mtx1_execute,"ax",%progbits
 653              		.align	1
 654              		.p2align 4,,15
 655              		.syntax unified
 656              		.thumb
 657              		.thumb_func
 658              		.fpu fpv4-sp-d16
 659              		.type	mtx1_execute, %function
 660              	mtx1_execute:
 661              	.LFB221:
 662              		.loc 7 96 0
 663              		.cfi_startproc
 664              		@ args = 0, pretend = 0, frame = 8
 665              		@ frame_needed = 0, uses_anonymous_args = 0
 666 0000 00B5     		push	{lr}
 667              		.cfi_def_cfa_offset 4
 668              		.cfi_offset 14, -4
 669 0002 85B0     		sub	sp, sp, #20
 670              		.cfi_def_cfa_offset 24
 671              		.loc 7 96 0
 672 0004 3A4B     		ldr	r3, .L56
 673 0006 1B68     		ldr	r3, [r3]
 674 0008 0393     		str	r3, [sp, #12]
 675              		.loc 7 98 0
 676 000a FFF7FEFF 		bl	chThdGetPriorityX
 677 000e 0290     		str	r0, [sp, #8]
 678              		.loc 7 99 0
 679 0010 3848     		ldr	r0, .L56+4
 680 0012 FFF7FEFF 		bl	chMtxLock
 681              		.loc 7 100 0
 682 0016 384B     		ldr	r3, .L56+8
 683 0018 1868     		ldr	r0, [r3]
ARM GAS  C:\Users\PCHAUT~1\AppData\Local\Temp\cc4us1Pe.s 			page 13


 684 001a 029B     		ldr	r3, [sp, #8]
 685 001c 5A1C     		adds	r2, r3, #1
 686 001e 374B     		ldr	r3, .L56+12
 687 0020 0093     		str	r3, [sp]
 688 0022 374B     		ldr	r3, .L56+16
 689 0024 4FF4FC71 		mov	r1, #504
 690 0028 FFF7FEFF 		bl	chThdCreateStatic
 691 002c 0246     		mov	r2, r0
 692 002e 354B     		ldr	r3, .L56+20
 693 0030 1A60     		str	r2, [r3]
 694              		.loc 7 101 0
 695 0032 314B     		ldr	r3, .L56+8
 696 0034 5868     		ldr	r0, [r3, #4]
 697 0036 029B     		ldr	r3, [sp, #8]
 698 0038 9A1C     		adds	r2, r3, #2
 699 003a 334B     		ldr	r3, .L56+24
 700 003c 0093     		str	r3, [sp]
 701 003e 304B     		ldr	r3, .L56+16
 702 0040 4FF4FC71 		mov	r1, #504
 703 0044 FFF7FEFF 		bl	chThdCreateStatic
 704 0048 0246     		mov	r2, r0
 705 004a 2E4B     		ldr	r3, .L56+20
 706 004c 5A60     		str	r2, [r3, #4]
 707              		.loc 7 102 0
 708 004e 2A4B     		ldr	r3, .L56+8
 709 0050 9868     		ldr	r0, [r3, #8]
 710 0052 029B     		ldr	r3, [sp, #8]
 711 0054 DA1C     		adds	r2, r3, #3
 712 0056 2D4B     		ldr	r3, .L56+28
 713 0058 0093     		str	r3, [sp]
 714 005a 294B     		ldr	r3, .L56+16
 715 005c 4FF4FC71 		mov	r1, #504
 716 0060 FFF7FEFF 		bl	chThdCreateStatic
 717 0064 0246     		mov	r2, r0
 718 0066 274B     		ldr	r3, .L56+20
 719 0068 9A60     		str	r2, [r3, #8]
 720              		.loc 7 103 0
 721 006a 234B     		ldr	r3, .L56+8
 722 006c D868     		ldr	r0, [r3, #12]
 723 006e 029B     		ldr	r3, [sp, #8]
 724 0070 1A1D     		adds	r2, r3, #4
 725 0072 274B     		ldr	r3, .L56+32
 726 0074 0093     		str	r3, [sp]
 727 0076 224B     		ldr	r3, .L56+16
 728 0078 4FF4FC71 		mov	r1, #504
 729 007c FFF7FEFF 		bl	chThdCreateStatic
 730 0080 0246     		mov	r2, r0
 731 0082 204B     		ldr	r3, .L56+20
 732 0084 DA60     		str	r2, [r3, #12]
 733              		.loc 7 104 0
 734 0086 1C4B     		ldr	r3, .L56+8
 735 0088 1869     		ldr	r0, [r3, #16]
 736 008a 029B     		ldr	r3, [sp, #8]
 737 008c 5A1D     		adds	r2, r3, #5
 738 008e 214B     		ldr	r3, .L56+36
 739 0090 0093     		str	r3, [sp]
 740 0092 1B4B     		ldr	r3, .L56+16
ARM GAS  C:\Users\PCHAUT~1\AppData\Local\Temp\cc4us1Pe.s 			page 14


 741 0094 4FF4FC71 		mov	r1, #504
 742 0098 FFF7FEFF 		bl	chThdCreateStatic
 743 009c 0246     		mov	r2, r0
 744 009e 194B     		ldr	r3, .L56+20
 745 00a0 1A61     		str	r2, [r3, #16]
 746              		.loc 7 105 0
 747 00a2 1448     		ldr	r0, .L56+4
 748 00a4 FFF7FEFF 		bl	chMtxUnlock
 749              		.loc 7 106 0
 750 00a8 FFF7FEFF 		bl	test_wait_threads
 751              		.loc 7 107 0
 752 00ac FFF7FEFF 		bl	chThdGetPriorityX
 753 00b0 0246     		mov	r2, r0
 754 00b2 029B     		ldr	r3, [sp, #8]
 755 00b4 9342     		cmp	r3, r2
 756 00b6 0CBF     		ite	eq
 757 00b8 0123     		moveq	r3, #1
 758 00ba 0023     		movne	r3, #0
 759 00bc DBB2     		uxtb	r3, r3
 760 00be 1946     		mov	r1, r3
 761 00c0 0120     		movs	r0, #1
 762 00c2 FFF7FEFF 		bl	_test_assert
 763 00c6 0346     		mov	r3, r0
 764 00c8 002B     		cmp	r3, #0
 765 00ca 06D1     		bne	.L55
 766              		.loc 7 108 0
 767 00cc 1249     		ldr	r1, .L56+40
 768 00ce 0220     		movs	r0, #2
 769 00d0 FFF7FEFF 		bl	_test_assert_sequence
 770 00d4 0346     		mov	r3, r0
 771 00d6 002B     		cmp	r3, #0
 772 00d8 00E0     		b	.L51
 773              	.L55:
 774              		.loc 7 107 0
 775 00da 00BF     		nop
 776              	.L51:
 777              		.loc 7 109 0
 778 00dc 044B     		ldr	r3, .L56
 779 00de 039A     		ldr	r2, [sp, #12]
 780 00e0 1B68     		ldr	r3, [r3]
 781 00e2 9A42     		cmp	r2, r3
 782 00e4 01D0     		beq	.L54
 783 00e6 FFF7FEFF 		bl	__stack_chk_fail
 784              	.L54:
 785 00ea 05B0     		add	sp, sp, #20
 786              		.cfi_def_cfa_offset 4
 787              		@ sp needed
 788 00ec 5DF804FB 		ldr	pc, [sp], #4
 789              	.L57:
 790              		.align	2
 791              	.L56:
 792 00f0 00000000 		.word	__stack_chk_guard
 793 00f4 00000000 		.word	m1
 794 00f8 00000000 		.word	wa
 795 00fc 00000000 		.word	.LC0
 796 0100 00000000 		.word	thread1
 797 0104 00000000 		.word	threads
ARM GAS  C:\Users\PCHAUT~1\AppData\Local\Temp\cc4us1Pe.s 			page 15


 798 0108 04000000 		.word	.LC1
 799 010c 08000000 		.word	.LC2
 800 0110 0C000000 		.word	.LC3
 801 0114 10000000 		.word	.LC4
 802 0118 14000000 		.word	.LC5
 803              		.cfi_endproc
 804              	.LFE221:
 805              		.size	mtx1_execute, .-mtx1_execute
 806              		.global	testmtx1
 807              		.section	.rodata
 808 001a 0000     		.align	2
 809              	.LC6:
 810 001c 4D757465 		.ascii	"Mutexes, priority enqueuing test\000"
 810      7865732C 
 810      20707269 
 810      6F726974 
 810      7920656E 
 811              		.section	.rodata.testmtx1,"a",%progbits
 812              		.align	2
 813              		.type	testmtx1, %object
 814              		.size	testmtx1, 16
 815              	testmtx1:
 816 0000 1C000000 		.word	.LC6
 817 0004 00000000 		.word	mtx1_setup
 818 0008 00000000 		.word	0
 819 000c 00000000 		.word	mtx1_execute
 820              		.section	.text.mtx2_setup,"ax",%progbits
 821              		.align	1
 822              		.p2align 4,,15
 823              		.syntax unified
 824              		.thumb
 825              		.thumb_func
 826              		.fpu fpv4-sp-d16
 827              		.type	mtx2_setup, %function
 828              	mtx2_setup:
 829              	.LFB222:
 830              		.loc 7 150 0
 831              		.cfi_startproc
 832              		@ args = 0, pretend = 0, frame = 8
 833              		@ frame_needed = 0, uses_anonymous_args = 0
 834 0000 00B5     		push	{lr}
 835              		.cfi_def_cfa_offset 4
 836              		.cfi_offset 14, -4
 837 0002 83B0     		sub	sp, sp, #12
 838              		.cfi_def_cfa_offset 16
 839              		.loc 7 150 0
 840 0004 084B     		ldr	r3, .L60
 841 0006 1B68     		ldr	r3, [r3]
 842 0008 0193     		str	r3, [sp, #4]
 843              		.loc 7 152 0
 844 000a 0848     		ldr	r0, .L60+4
 845 000c FFF7FEFF 		bl	chMtxObjectInit
 846              		.loc 7 153 0
 847 0010 00BF     		nop
 848 0012 054B     		ldr	r3, .L60
 849 0014 019A     		ldr	r2, [sp, #4]
 850 0016 1B68     		ldr	r3, [r3]
ARM GAS  C:\Users\PCHAUT~1\AppData\Local\Temp\cc4us1Pe.s 			page 16


 851 0018 9A42     		cmp	r2, r3
 852 001a 01D0     		beq	.L59
 853 001c FFF7FEFF 		bl	__stack_chk_fail
 854              	.L59:
 855 0020 03B0     		add	sp, sp, #12
 856              		.cfi_def_cfa_offset 4
 857              		@ sp needed
 858 0022 5DF804FB 		ldr	pc, [sp], #4
 859              	.L61:
 860 0026 00BF     		.align	2
 861              	.L60:
 862 0028 00000000 		.word	__stack_chk_guard
 863 002c 00000000 		.word	m1
 864              		.cfi_endproc
 865              	.LFE222:
 866              		.size	mtx2_setup, .-mtx2_setup
 867              		.section	.text.thread2L,"ax",%progbits
 868              		.align	1
 869              		.p2align 4,,15
 870              		.syntax unified
 871              		.thumb
 872              		.thumb_func
 873              		.fpu fpv4-sp-d16
 874              		.type	thread2L, %function
 875              	thread2L:
 876              	.LFB223:
 877              		.loc 7 156 0
 878              		.cfi_startproc
 879              		@ args = 0, pretend = 0, frame = 16
 880              		@ frame_needed = 0, uses_anonymous_args = 0
 881 0000 00B5     		push	{lr}
 882              		.cfi_def_cfa_offset 4
 883              		.cfi_offset 14, -4
 884 0002 85B0     		sub	sp, sp, #20
 885              		.cfi_def_cfa_offset 24
 886 0004 0190     		str	r0, [sp, #4]
 887              		.loc 7 156 0
 888 0006 0E4B     		ldr	r3, .L64
 889 0008 1B68     		ldr	r3, [r3]
 890 000a 0393     		str	r3, [sp, #12]
 891              		.loc 7 159 0
 892 000c 0D48     		ldr	r0, .L64+4
 893 000e FFF7FEFF 		bl	chMtxLock
 894              		.loc 7 160 0
 895 0012 2820     		movs	r0, #40
 896 0014 FFF7FEFF 		bl	test_cpu_pulse
 897              		.loc 7 161 0
 898 0018 0A48     		ldr	r0, .L64+4
 899 001a FFF7FEFF 		bl	chMtxUnlock
 900              		.loc 7 162 0
 901 001e 0A20     		movs	r0, #10
 902 0020 FFF7FEFF 		bl	test_cpu_pulse
 903              		.loc 7 163 0
 904 0024 4320     		movs	r0, #67
 905 0026 FFF7FEFF 		bl	test_emit_token
 906              		.loc 7 164 0
 907 002a 00BF     		nop
ARM GAS  C:\Users\PCHAUT~1\AppData\Local\Temp\cc4us1Pe.s 			page 17


 908 002c 044B     		ldr	r3, .L64
 909 002e 039A     		ldr	r2, [sp, #12]
 910 0030 1B68     		ldr	r3, [r3]
 911 0032 9A42     		cmp	r2, r3
 912 0034 01D0     		beq	.L63
 913 0036 FFF7FEFF 		bl	__stack_chk_fail
 914              	.L63:
 915 003a 05B0     		add	sp, sp, #20
 916              		.cfi_def_cfa_offset 4
 917              		@ sp needed
 918 003c 5DF804FB 		ldr	pc, [sp], #4
 919              	.L65:
 920              		.align	2
 921              	.L64:
 922 0040 00000000 		.word	__stack_chk_guard
 923 0044 00000000 		.word	m1
 924              		.cfi_endproc
 925              	.LFE223:
 926              		.size	thread2L, .-thread2L
 927              		.section	.text.thread2M,"ax",%progbits
 928              		.align	1
 929              		.p2align 4,,15
 930              		.syntax unified
 931              		.thumb
 932              		.thumb_func
 933              		.fpu fpv4-sp-d16
 934              		.type	thread2M, %function
 935              	thread2M:
 936              	.LFB224:
 937              		.loc 7 167 0
 938              		.cfi_startproc
 939              		@ args = 0, pretend = 0, frame = 16
 940              		@ frame_needed = 0, uses_anonymous_args = 0
 941 0000 00B5     		push	{lr}
 942              		.cfi_def_cfa_offset 4
 943              		.cfi_offset 14, -4
 944 0002 85B0     		sub	sp, sp, #20
 945              		.cfi_def_cfa_offset 24
 946 0004 0190     		str	r0, [sp, #4]
 947              		.loc 7 167 0
 948 0006 0B4B     		ldr	r3, .L68
 949 0008 1B68     		ldr	r3, [r3]
 950 000a 0393     		str	r3, [sp, #12]
 951              		.loc 7 170 0
 952 000c 1420     		movs	r0, #20
 953 000e FFF7FEFF 		bl	chThdSleep
 954              		.loc 7 171 0
 955 0012 2820     		movs	r0, #40
 956 0014 FFF7FEFF 		bl	test_cpu_pulse
 957              		.loc 7 172 0
 958 0018 4220     		movs	r0, #66
 959 001a FFF7FEFF 		bl	test_emit_token
 960              		.loc 7 173 0
 961 001e 00BF     		nop
 962 0020 044B     		ldr	r3, .L68
 963 0022 039A     		ldr	r2, [sp, #12]
 964 0024 1B68     		ldr	r3, [r3]
ARM GAS  C:\Users\PCHAUT~1\AppData\Local\Temp\cc4us1Pe.s 			page 18


 965 0026 9A42     		cmp	r2, r3
 966 0028 01D0     		beq	.L67
 967 002a FFF7FEFF 		bl	__stack_chk_fail
 968              	.L67:
 969 002e 05B0     		add	sp, sp, #20
 970              		.cfi_def_cfa_offset 4
 971              		@ sp needed
 972 0030 5DF804FB 		ldr	pc, [sp], #4
 973              	.L69:
 974              		.align	2
 975              	.L68:
 976 0034 00000000 		.word	__stack_chk_guard
 977              		.cfi_endproc
 978              	.LFE224:
 979              		.size	thread2M, .-thread2M
 980              		.section	.text.thread2H,"ax",%progbits
 981              		.align	1
 982              		.p2align 4,,15
 983              		.syntax unified
 984              		.thumb
 985              		.thumb_func
 986              		.fpu fpv4-sp-d16
 987              		.type	thread2H, %function
 988              	thread2H:
 989              	.LFB225:
 990              		.loc 7 176 0
 991              		.cfi_startproc
 992              		@ args = 0, pretend = 0, frame = 16
 993              		@ frame_needed = 0, uses_anonymous_args = 0
 994 0000 00B5     		push	{lr}
 995              		.cfi_def_cfa_offset 4
 996              		.cfi_offset 14, -4
 997 0002 85B0     		sub	sp, sp, #20
 998              		.cfi_def_cfa_offset 24
 999 0004 0190     		str	r0, [sp, #4]
 1000              		.loc 7 176 0
 1001 0006 0E4B     		ldr	r3, .L72
 1002 0008 1B68     		ldr	r3, [r3]
 1003 000a 0393     		str	r3, [sp, #12]
 1004              		.loc 7 179 0
 1005 000c 2820     		movs	r0, #40
 1006 000e FFF7FEFF 		bl	chThdSleep
 1007              		.loc 7 180 0
 1008 0012 0C48     		ldr	r0, .L72+4
 1009 0014 FFF7FEFF 		bl	chMtxLock
 1010              		.loc 7 181 0
 1011 0018 0A20     		movs	r0, #10
 1012 001a FFF7FEFF 		bl	test_cpu_pulse
 1013              		.loc 7 182 0
 1014 001e 0948     		ldr	r0, .L72+4
 1015 0020 FFF7FEFF 		bl	chMtxUnlock
 1016              		.loc 7 183 0
 1017 0024 4120     		movs	r0, #65
 1018 0026 FFF7FEFF 		bl	test_emit_token
 1019              		.loc 7 184 0
 1020 002a 00BF     		nop
 1021 002c 044B     		ldr	r3, .L72
ARM GAS  C:\Users\PCHAUT~1\AppData\Local\Temp\cc4us1Pe.s 			page 19


 1022 002e 039A     		ldr	r2, [sp, #12]
 1023 0030 1B68     		ldr	r3, [r3]
 1024 0032 9A42     		cmp	r2, r3
 1025 0034 01D0     		beq	.L71
 1026 0036 FFF7FEFF 		bl	__stack_chk_fail
 1027              	.L71:
 1028 003a 05B0     		add	sp, sp, #20
 1029              		.cfi_def_cfa_offset 4
 1030              		@ sp needed
 1031 003c 5DF804FB 		ldr	pc, [sp], #4
 1032              	.L73:
 1033              		.align	2
 1034              	.L72:
 1035 0040 00000000 		.word	__stack_chk_guard
 1036 0044 00000000 		.word	m1
 1037              		.cfi_endproc
 1038              	.LFE225:
 1039              		.size	thread2H, .-thread2H
 1040              		.section	.rodata
 1041 003d 000000   		.align	2
 1042              	.LC7:
 1043 0040 41424300 		.ascii	"ABC\000"
 1044              		.section	.text.mtx2_execute,"ax",%progbits
 1045              		.align	1
 1046              		.p2align 4,,15
 1047              		.syntax unified
 1048              		.thumb
 1049              		.thumb_func
 1050              		.fpu fpv4-sp-d16
 1051              		.type	mtx2_execute, %function
 1052              	mtx2_execute:
 1053              	.LFB226:
 1054              		.loc 7 186 0
 1055              		.cfi_startproc
 1056              		@ args = 0, pretend = 0, frame = 8
 1057              		@ frame_needed = 0, uses_anonymous_args = 0
 1058 0000 10B5     		push	{r4, lr}
 1059              		.cfi_def_cfa_offset 8
 1060              		.cfi_offset 4, -8
 1061              		.cfi_offset 14, -4
 1062 0002 84B0     		sub	sp, sp, #16
 1063              		.cfi_def_cfa_offset 24
 1064              		.loc 7 186 0
 1065 0004 2C4B     		ldr	r3, .L79
 1066 0006 1B68     		ldr	r3, [r3]
 1067 0008 0393     		str	r3, [sp, #12]
 1068              		.loc 7 189 0
 1069 000a FFF7FEFF 		bl	test_wait_tick
 1070              		.loc 7 190 0
 1071 000e FFF7FEFF 		bl	chVTGetSystemTime
 1072 0012 0290     		str	r0, [sp, #8]
 1073              		.loc 7 191 0
 1074 0014 294B     		ldr	r3, .L79+4
 1075 0016 1C68     		ldr	r4, [r3]
 1076 0018 FFF7FEFF 		bl	chThdGetPriorityX
 1077 001c 0346     		mov	r3, r0
 1078 001e 5A1E     		subs	r2, r3, #1
ARM GAS  C:\Users\PCHAUT~1\AppData\Local\Temp\cc4us1Pe.s 			page 20


 1079 0020 0023     		movs	r3, #0
 1080 0022 0093     		str	r3, [sp]
 1081 0024 264B     		ldr	r3, .L79+8
 1082 0026 4FF4FC71 		mov	r1, #504
 1083 002a 2046     		mov	r0, r4
 1084 002c FFF7FEFF 		bl	chThdCreateStatic
 1085 0030 0246     		mov	r2, r0
 1086 0032 244B     		ldr	r3, .L79+12
 1087 0034 1A60     		str	r2, [r3]
 1088              		.loc 7 192 0
 1089 0036 214B     		ldr	r3, .L79+4
 1090 0038 5C68     		ldr	r4, [r3, #4]
 1091 003a FFF7FEFF 		bl	chThdGetPriorityX
 1092 003e 0346     		mov	r3, r0
 1093 0040 9A1E     		subs	r2, r3, #2
 1094 0042 0023     		movs	r3, #0
 1095 0044 0093     		str	r3, [sp]
 1096 0046 204B     		ldr	r3, .L79+16
 1097 0048 4FF4FC71 		mov	r1, #504
 1098 004c 2046     		mov	r0, r4
 1099 004e FFF7FEFF 		bl	chThdCreateStatic
 1100 0052 0246     		mov	r2, r0
 1101 0054 1B4B     		ldr	r3, .L79+12
 1102 0056 5A60     		str	r2, [r3, #4]
 1103              		.loc 7 193 0
 1104 0058 184B     		ldr	r3, .L79+4
 1105 005a 9C68     		ldr	r4, [r3, #8]
 1106 005c FFF7FEFF 		bl	chThdGetPriorityX
 1107 0060 0346     		mov	r3, r0
 1108 0062 DA1E     		subs	r2, r3, #3
 1109 0064 0023     		movs	r3, #0
 1110 0066 0093     		str	r3, [sp]
 1111 0068 184B     		ldr	r3, .L79+20
 1112 006a 4FF4FC71 		mov	r1, #504
 1113 006e 2046     		mov	r0, r4
 1114 0070 FFF7FEFF 		bl	chThdCreateStatic
 1115 0074 0246     		mov	r2, r0
 1116 0076 134B     		ldr	r3, .L79+12
 1117 0078 9A60     		str	r2, [r3, #8]
 1118              		.loc 7 194 0
 1119 007a FFF7FEFF 		bl	test_wait_threads
 1120              		.loc 7 195 0
 1121 007e 1449     		ldr	r1, .L79+24
 1122 0080 0120     		movs	r0, #1
 1123 0082 FFF7FEFF 		bl	_test_assert_sequence
 1124 0086 0346     		mov	r3, r0
 1125 0088 002B     		cmp	r3, #0
 1126 008a 0BD1     		bne	.L78
 1127              		.loc 7 196 0
 1128 008c 029B     		ldr	r3, [sp, #8]
 1129 008e 03F16401 		add	r1, r3, #100
 1130 0092 029B     		ldr	r3, [sp, #8]
 1131 0094 6933     		adds	r3, r3, #105
 1132 0096 1A46     		mov	r2, r3
 1133 0098 0220     		movs	r0, #2
 1134 009a FFF7FEFF 		bl	_test_assert_time_window
 1135 009e 0346     		mov	r3, r0
ARM GAS  C:\Users\PCHAUT~1\AppData\Local\Temp\cc4us1Pe.s 			page 21


 1136 00a0 002B     		cmp	r3, #0
 1137 00a2 00E0     		b	.L74
 1138              	.L78:
 1139              		.loc 7 195 0
 1140 00a4 00BF     		nop
 1141              	.L74:
 1142              		.loc 7 197 0
 1143 00a6 044B     		ldr	r3, .L79
 1144 00a8 039A     		ldr	r2, [sp, #12]
 1145 00aa 1B68     		ldr	r3, [r3]
 1146 00ac 9A42     		cmp	r2, r3
 1147 00ae 01D0     		beq	.L77
 1148 00b0 FFF7FEFF 		bl	__stack_chk_fail
 1149              	.L77:
 1150 00b4 04B0     		add	sp, sp, #16
 1151              		.cfi_def_cfa_offset 8
 1152              		@ sp needed
 1153 00b6 10BD     		pop	{r4, pc}
 1154              	.L80:
 1155              		.align	2
 1156              	.L79:
 1157 00b8 00000000 		.word	__stack_chk_guard
 1158 00bc 00000000 		.word	wa
 1159 00c0 00000000 		.word	thread2H
 1160 00c4 00000000 		.word	threads
 1161 00c8 00000000 		.word	thread2M
 1162 00cc 00000000 		.word	thread2L
 1163 00d0 40000000 		.word	.LC7
 1164              		.cfi_endproc
 1165              	.LFE226:
 1166              		.size	mtx2_execute, .-mtx2_execute
 1167              		.global	testmtx2
 1168              		.section	.rodata
 1169              		.align	2
 1170              	.LC8:
 1171 0044 4D757465 		.ascii	"Mutexes, priority inheritance, simple case\000"
 1171      7865732C 
 1171      20707269 
 1171      6F726974 
 1171      7920696E 
 1172              		.section	.rodata.testmtx2,"a",%progbits
 1173              		.align	2
 1174              		.type	testmtx2, %object
 1175              		.size	testmtx2, 16
 1176              	testmtx2:
 1177 0000 44000000 		.word	.LC8
 1178 0004 00000000 		.word	mtx2_setup
 1179 0008 00000000 		.word	0
 1180 000c 00000000 		.word	mtx2_execute
 1181              		.section	.text.mtx3_setup,"ax",%progbits
 1182              		.align	1
 1183              		.p2align 4,,15
 1184              		.syntax unified
 1185              		.thumb
 1186              		.thumb_func
 1187              		.fpu fpv4-sp-d16
 1188              		.type	mtx3_setup, %function
ARM GAS  C:\Users\PCHAUT~1\AppData\Local\Temp\cc4us1Pe.s 			page 22


 1189              	mtx3_setup:
 1190              	.LFB227:
 1191              		.loc 7 237 0
 1192              		.cfi_startproc
 1193              		@ args = 0, pretend = 0, frame = 8
 1194              		@ frame_needed = 0, uses_anonymous_args = 0
 1195 0000 00B5     		push	{lr}
 1196              		.cfi_def_cfa_offset 4
 1197              		.cfi_offset 14, -4
 1198 0002 83B0     		sub	sp, sp, #12
 1199              		.cfi_def_cfa_offset 16
 1200              		.loc 7 237 0
 1201 0004 094B     		ldr	r3, .L83
 1202 0006 1B68     		ldr	r3, [r3]
 1203 0008 0193     		str	r3, [sp, #4]
 1204              		.loc 7 239 0
 1205 000a 0948     		ldr	r0, .L83+4
 1206 000c FFF7FEFF 		bl	chMtxObjectInit
 1207              		.loc 7 240 0
 1208 0010 0848     		ldr	r0, .L83+8
 1209 0012 FFF7FEFF 		bl	chMtxObjectInit
 1210              		.loc 7 241 0
 1211 0016 00BF     		nop
 1212 0018 044B     		ldr	r3, .L83
 1213 001a 019A     		ldr	r2, [sp, #4]
 1214 001c 1B68     		ldr	r3, [r3]
 1215 001e 9A42     		cmp	r2, r3
 1216 0020 01D0     		beq	.L82
 1217 0022 FFF7FEFF 		bl	__stack_chk_fail
 1218              	.L82:
 1219 0026 03B0     		add	sp, sp, #12
 1220              		.cfi_def_cfa_offset 4
 1221              		@ sp needed
 1222 0028 5DF804FB 		ldr	pc, [sp], #4
 1223              	.L84:
 1224              		.align	2
 1225              	.L83:
 1226 002c 00000000 		.word	__stack_chk_guard
 1227 0030 00000000 		.word	m1
 1228 0034 00000000 		.word	m2
 1229              		.cfi_endproc
 1230              	.LFE227:
 1231              		.size	mtx3_setup, .-mtx3_setup
 1232              		.section	.text.thread3LL,"ax",%progbits
 1233              		.align	1
 1234              		.p2align 4,,15
 1235              		.syntax unified
 1236              		.thumb
 1237              		.thumb_func
 1238              		.fpu fpv4-sp-d16
 1239              		.type	thread3LL, %function
 1240              	thread3LL:
 1241              	.LFB228:
 1242              		.loc 7 244 0
 1243              		.cfi_startproc
 1244              		@ args = 0, pretend = 0, frame = 16
 1245              		@ frame_needed = 0, uses_anonymous_args = 0
ARM GAS  C:\Users\PCHAUT~1\AppData\Local\Temp\cc4us1Pe.s 			page 23


 1246 0000 00B5     		push	{lr}
 1247              		.cfi_def_cfa_offset 4
 1248              		.cfi_offset 14, -4
 1249 0002 85B0     		sub	sp, sp, #20
 1250              		.cfi_def_cfa_offset 24
 1251 0004 0190     		str	r0, [sp, #4]
 1252              		.loc 7 244 0
 1253 0006 0D4B     		ldr	r3, .L87
 1254 0008 1B68     		ldr	r3, [r3]
 1255 000a 0393     		str	r3, [sp, #12]
 1256              		.loc 7 247 0
 1257 000c 0C48     		ldr	r0, .L87+4
 1258 000e FFF7FEFF 		bl	chMtxLock
 1259              		.loc 7 248 0
 1260 0012 1E20     		movs	r0, #30
 1261 0014 FFF7FEFF 		bl	test_cpu_pulse
 1262              		.loc 7 249 0
 1263 0018 0948     		ldr	r0, .L87+4
 1264 001a FFF7FEFF 		bl	chMtxUnlock
 1265              		.loc 7 250 0
 1266 001e 4520     		movs	r0, #69
 1267 0020 FFF7FEFF 		bl	test_emit_token
 1268              		.loc 7 251 0
 1269 0024 00BF     		nop
 1270 0026 054B     		ldr	r3, .L87
 1271 0028 039A     		ldr	r2, [sp, #12]
 1272 002a 1B68     		ldr	r3, [r3]
 1273 002c 9A42     		cmp	r2, r3
 1274 002e 01D0     		beq	.L86
 1275 0030 FFF7FEFF 		bl	__stack_chk_fail
 1276              	.L86:
 1277 0034 05B0     		add	sp, sp, #20
 1278              		.cfi_def_cfa_offset 4
 1279              		@ sp needed
 1280 0036 5DF804FB 		ldr	pc, [sp], #4
 1281              	.L88:
 1282 003a 00BF     		.align	2
 1283              	.L87:
 1284 003c 00000000 		.word	__stack_chk_guard
 1285 0040 00000000 		.word	m1
 1286              		.cfi_endproc
 1287              	.LFE228:
 1288              		.size	thread3LL, .-thread3LL
 1289              		.section	.text.thread3L,"ax",%progbits
 1290              		.align	1
 1291              		.p2align 4,,15
 1292              		.syntax unified
 1293              		.thumb
 1294              		.thumb_func
 1295              		.fpu fpv4-sp-d16
 1296              		.type	thread3L, %function
 1297              	thread3L:
 1298              	.LFB229:
 1299              		.loc 7 254 0
 1300              		.cfi_startproc
 1301              		@ args = 0, pretend = 0, frame = 16
 1302              		@ frame_needed = 0, uses_anonymous_args = 0
ARM GAS  C:\Users\PCHAUT~1\AppData\Local\Temp\cc4us1Pe.s 			page 24


 1303 0000 00B5     		push	{lr}
 1304              		.cfi_def_cfa_offset 4
 1305              		.cfi_offset 14, -4
 1306 0002 85B0     		sub	sp, sp, #20
 1307              		.cfi_def_cfa_offset 24
 1308 0004 0190     		str	r0, [sp, #4]
 1309              		.loc 7 254 0
 1310 0006 144B     		ldr	r3, .L91
 1311 0008 1B68     		ldr	r3, [r3]
 1312 000a 0393     		str	r3, [sp, #12]
 1313              		.loc 7 257 0
 1314 000c 0A20     		movs	r0, #10
 1315 000e FFF7FEFF 		bl	chThdSleep
 1316              		.loc 7 258 0
 1317 0012 1248     		ldr	r0, .L91+4
 1318 0014 FFF7FEFF 		bl	chMtxLock
 1319              		.loc 7 259 0
 1320 0018 1420     		movs	r0, #20
 1321 001a FFF7FEFF 		bl	test_cpu_pulse
 1322              		.loc 7 260 0
 1323 001e 1048     		ldr	r0, .L91+8
 1324 0020 FFF7FEFF 		bl	chMtxLock
 1325              		.loc 7 261 0
 1326 0024 0A20     		movs	r0, #10
 1327 0026 FFF7FEFF 		bl	test_cpu_pulse
 1328              		.loc 7 262 0
 1329 002a 0D48     		ldr	r0, .L91+8
 1330 002c FFF7FEFF 		bl	chMtxUnlock
 1331              		.loc 7 263 0
 1332 0030 0A20     		movs	r0, #10
 1333 0032 FFF7FEFF 		bl	test_cpu_pulse
 1334              		.loc 7 264 0
 1335 0036 0948     		ldr	r0, .L91+4
 1336 0038 FFF7FEFF 		bl	chMtxUnlock
 1337              		.loc 7 265 0
 1338 003c 4420     		movs	r0, #68
 1339 003e FFF7FEFF 		bl	test_emit_token
 1340              		.loc 7 266 0
 1341 0042 00BF     		nop
 1342 0044 044B     		ldr	r3, .L91
 1343 0046 039A     		ldr	r2, [sp, #12]
 1344 0048 1B68     		ldr	r3, [r3]
 1345 004a 9A42     		cmp	r2, r3
 1346 004c 01D0     		beq	.L90
 1347 004e FFF7FEFF 		bl	__stack_chk_fail
 1348              	.L90:
 1349 0052 05B0     		add	sp, sp, #20
 1350              		.cfi_def_cfa_offset 4
 1351              		@ sp needed
 1352 0054 5DF804FB 		ldr	pc, [sp], #4
 1353              	.L92:
 1354              		.align	2
 1355              	.L91:
 1356 0058 00000000 		.word	__stack_chk_guard
 1357 005c 00000000 		.word	m2
 1358 0060 00000000 		.word	m1
 1359              		.cfi_endproc
ARM GAS  C:\Users\PCHAUT~1\AppData\Local\Temp\cc4us1Pe.s 			page 25


 1360              	.LFE229:
 1361              		.size	thread3L, .-thread3L
 1362              		.section	.text.thread3M,"ax",%progbits
 1363              		.align	1
 1364              		.p2align 4,,15
 1365              		.syntax unified
 1366              		.thumb
 1367              		.thumb_func
 1368              		.fpu fpv4-sp-d16
 1369              		.type	thread3M, %function
 1370              	thread3M:
 1371              	.LFB230:
 1372              		.loc 7 269 0
 1373              		.cfi_startproc
 1374              		@ args = 0, pretend = 0, frame = 16
 1375              		@ frame_needed = 0, uses_anonymous_args = 0
 1376 0000 00B5     		push	{lr}
 1377              		.cfi_def_cfa_offset 4
 1378              		.cfi_offset 14, -4
 1379 0002 85B0     		sub	sp, sp, #20
 1380              		.cfi_def_cfa_offset 24
 1381 0004 0190     		str	r0, [sp, #4]
 1382              		.loc 7 269 0
 1383 0006 0E4B     		ldr	r3, .L95
 1384 0008 1B68     		ldr	r3, [r3]
 1385 000a 0393     		str	r3, [sp, #12]
 1386              		.loc 7 272 0
 1387 000c 1420     		movs	r0, #20
 1388 000e FFF7FEFF 		bl	chThdSleep
 1389              		.loc 7 273 0
 1390 0012 0C48     		ldr	r0, .L95+4
 1391 0014 FFF7FEFF 		bl	chMtxLock
 1392              		.loc 7 274 0
 1393 0018 0A20     		movs	r0, #10
 1394 001a FFF7FEFF 		bl	test_cpu_pulse
 1395              		.loc 7 275 0
 1396 001e 0948     		ldr	r0, .L95+4
 1397 0020 FFF7FEFF 		bl	chMtxUnlock
 1398              		.loc 7 276 0
 1399 0024 4320     		movs	r0, #67
 1400 0026 FFF7FEFF 		bl	test_emit_token
 1401              		.loc 7 277 0
 1402 002a 00BF     		nop
 1403 002c 044B     		ldr	r3, .L95
 1404 002e 039A     		ldr	r2, [sp, #12]
 1405 0030 1B68     		ldr	r3, [r3]
 1406 0032 9A42     		cmp	r2, r3
 1407 0034 01D0     		beq	.L94
 1408 0036 FFF7FEFF 		bl	__stack_chk_fail
 1409              	.L94:
 1410 003a 05B0     		add	sp, sp, #20
 1411              		.cfi_def_cfa_offset 4
 1412              		@ sp needed
 1413 003c 5DF804FB 		ldr	pc, [sp], #4
 1414              	.L96:
 1415              		.align	2
 1416              	.L95:
ARM GAS  C:\Users\PCHAUT~1\AppData\Local\Temp\cc4us1Pe.s 			page 26


 1417 0040 00000000 		.word	__stack_chk_guard
 1418 0044 00000000 		.word	m2
 1419              		.cfi_endproc
 1420              	.LFE230:
 1421              		.size	thread3M, .-thread3M
 1422              		.section	.text.thread3H,"ax",%progbits
 1423              		.align	1
 1424              		.p2align 4,,15
 1425              		.syntax unified
 1426              		.thumb
 1427              		.thumb_func
 1428              		.fpu fpv4-sp-d16
 1429              		.type	thread3H, %function
 1430              	thread3H:
 1431              	.LFB231:
 1432              		.loc 7 280 0
 1433              		.cfi_startproc
 1434              		@ args = 0, pretend = 0, frame = 16
 1435              		@ frame_needed = 0, uses_anonymous_args = 0
 1436 0000 00B5     		push	{lr}
 1437              		.cfi_def_cfa_offset 4
 1438              		.cfi_offset 14, -4
 1439 0002 85B0     		sub	sp, sp, #20
 1440              		.cfi_def_cfa_offset 24
 1441 0004 0190     		str	r0, [sp, #4]
 1442              		.loc 7 280 0
 1443 0006 0B4B     		ldr	r3, .L99
 1444 0008 1B68     		ldr	r3, [r3]
 1445 000a 0393     		str	r3, [sp, #12]
 1446              		.loc 7 283 0
 1447 000c 2820     		movs	r0, #40
 1448 000e FFF7FEFF 		bl	chThdSleep
 1449              		.loc 7 284 0
 1450 0012 1420     		movs	r0, #20
 1451 0014 FFF7FEFF 		bl	test_cpu_pulse
 1452              		.loc 7 285 0
 1453 0018 4220     		movs	r0, #66
 1454 001a FFF7FEFF 		bl	test_emit_token
 1455              		.loc 7 286 0
 1456 001e 00BF     		nop
 1457 0020 044B     		ldr	r3, .L99
 1458 0022 039A     		ldr	r2, [sp, #12]
 1459 0024 1B68     		ldr	r3, [r3]
 1460 0026 9A42     		cmp	r2, r3
 1461 0028 01D0     		beq	.L98
 1462 002a FFF7FEFF 		bl	__stack_chk_fail
 1463              	.L98:
 1464 002e 05B0     		add	sp, sp, #20
 1465              		.cfi_def_cfa_offset 4
 1466              		@ sp needed
 1467 0030 5DF804FB 		ldr	pc, [sp], #4
 1468              	.L100:
 1469              		.align	2
 1470              	.L99:
 1471 0034 00000000 		.word	__stack_chk_guard
 1472              		.cfi_endproc
 1473              	.LFE231:
ARM GAS  C:\Users\PCHAUT~1\AppData\Local\Temp\cc4us1Pe.s 			page 27


 1474              		.size	thread3H, .-thread3H
 1475              		.section	.text.thread3HH,"ax",%progbits
 1476              		.align	1
 1477              		.p2align 4,,15
 1478              		.syntax unified
 1479              		.thumb
 1480              		.thumb_func
 1481              		.fpu fpv4-sp-d16
 1482              		.type	thread3HH, %function
 1483              	thread3HH:
 1484              	.LFB232:
 1485              		.loc 7 289 0
 1486              		.cfi_startproc
 1487              		@ args = 0, pretend = 0, frame = 16
 1488              		@ frame_needed = 0, uses_anonymous_args = 0
 1489 0000 00B5     		push	{lr}
 1490              		.cfi_def_cfa_offset 4
 1491              		.cfi_offset 14, -4
 1492 0002 85B0     		sub	sp, sp, #20
 1493              		.cfi_def_cfa_offset 24
 1494 0004 0190     		str	r0, [sp, #4]
 1495              		.loc 7 289 0
 1496 0006 0E4B     		ldr	r3, .L103
 1497 0008 1B68     		ldr	r3, [r3]
 1498 000a 0393     		str	r3, [sp, #12]
 1499              		.loc 7 292 0
 1500 000c 3220     		movs	r0, #50
 1501 000e FFF7FEFF 		bl	chThdSleep
 1502              		.loc 7 293 0
 1503 0012 0C48     		ldr	r0, .L103+4
 1504 0014 FFF7FEFF 		bl	chMtxLock
 1505              		.loc 7 294 0
 1506 0018 0A20     		movs	r0, #10
 1507 001a FFF7FEFF 		bl	test_cpu_pulse
 1508              		.loc 7 295 0
 1509 001e 0948     		ldr	r0, .L103+4
 1510 0020 FFF7FEFF 		bl	chMtxUnlock
 1511              		.loc 7 296 0
 1512 0024 4120     		movs	r0, #65
 1513 0026 FFF7FEFF 		bl	test_emit_token
 1514              		.loc 7 297 0
 1515 002a 00BF     		nop
 1516 002c 044B     		ldr	r3, .L103
 1517 002e 039A     		ldr	r2, [sp, #12]
 1518 0030 1B68     		ldr	r3, [r3]
 1519 0032 9A42     		cmp	r2, r3
 1520 0034 01D0     		beq	.L102
 1521 0036 FFF7FEFF 		bl	__stack_chk_fail
 1522              	.L102:
 1523 003a 05B0     		add	sp, sp, #20
 1524              		.cfi_def_cfa_offset 4
 1525              		@ sp needed
 1526 003c 5DF804FB 		ldr	pc, [sp], #4
 1527              	.L104:
 1528              		.align	2
 1529              	.L103:
 1530 0040 00000000 		.word	__stack_chk_guard
ARM GAS  C:\Users\PCHAUT~1\AppData\Local\Temp\cc4us1Pe.s 			page 28


 1531 0044 00000000 		.word	m2
 1532              		.cfi_endproc
 1533              	.LFE232:
 1534              		.size	thread3HH, .-thread3HH
 1535              		.section	.text.mtx3_execute,"ax",%progbits
 1536              		.align	1
 1537              		.p2align 4,,15
 1538              		.syntax unified
 1539              		.thumb
 1540              		.thumb_func
 1541              		.fpu fpv4-sp-d16
 1542              		.type	mtx3_execute, %function
 1543              	mtx3_execute:
 1544              	.LFB233:
 1545              		.loc 7 299 0
 1546              		.cfi_startproc
 1547              		@ args = 0, pretend = 0, frame = 8
 1548              		@ frame_needed = 0, uses_anonymous_args = 0
 1549 0000 10B5     		push	{r4, lr}
 1550              		.cfi_def_cfa_offset 8
 1551              		.cfi_offset 4, -8
 1552              		.cfi_offset 14, -4
 1553 0002 84B0     		sub	sp, sp, #16
 1554              		.cfi_def_cfa_offset 24
 1555              		.loc 7 299 0
 1556 0004 3D4B     		ldr	r3, .L110
 1557 0006 1B68     		ldr	r3, [r3]
 1558 0008 0393     		str	r3, [sp, #12]
 1559              		.loc 7 302 0
 1560 000a FFF7FEFF 		bl	test_wait_tick
 1561              		.loc 7 303 0
 1562 000e FFF7FEFF 		bl	chVTGetSystemTime
 1563 0012 0290     		str	r0, [sp, #8]
 1564              		.loc 7 304 0
 1565 0014 3A4B     		ldr	r3, .L110+4
 1566 0016 1C68     		ldr	r4, [r3]
 1567 0018 FFF7FEFF 		bl	chThdGetPriorityX
 1568 001c 0346     		mov	r3, r0
 1569 001e 5A1F     		subs	r2, r3, #5
 1570 0020 0023     		movs	r3, #0
 1571 0022 0093     		str	r3, [sp]
 1572 0024 374B     		ldr	r3, .L110+8
 1573 0026 4FF4FC71 		mov	r1, #504
 1574 002a 2046     		mov	r0, r4
 1575 002c FFF7FEFF 		bl	chThdCreateStatic
 1576 0030 0246     		mov	r2, r0
 1577 0032 354B     		ldr	r3, .L110+12
 1578 0034 1A60     		str	r2, [r3]
 1579              		.loc 7 305 0
 1580 0036 324B     		ldr	r3, .L110+4
 1581 0038 5C68     		ldr	r4, [r3, #4]
 1582 003a FFF7FEFF 		bl	chThdGetPriorityX
 1583 003e 0346     		mov	r3, r0
 1584 0040 1A1F     		subs	r2, r3, #4
 1585 0042 0023     		movs	r3, #0
 1586 0044 0093     		str	r3, [sp]
 1587 0046 314B     		ldr	r3, .L110+16
ARM GAS  C:\Users\PCHAUT~1\AppData\Local\Temp\cc4us1Pe.s 			page 29


 1588 0048 4FF4FC71 		mov	r1, #504
 1589 004c 2046     		mov	r0, r4
 1590 004e FFF7FEFF 		bl	chThdCreateStatic
 1591 0052 0246     		mov	r2, r0
 1592 0054 2C4B     		ldr	r3, .L110+12
 1593 0056 5A60     		str	r2, [r3, #4]
 1594              		.loc 7 306 0
 1595 0058 294B     		ldr	r3, .L110+4
 1596 005a 9C68     		ldr	r4, [r3, #8]
 1597 005c FFF7FEFF 		bl	chThdGetPriorityX
 1598 0060 0346     		mov	r3, r0
 1599 0062 DA1E     		subs	r2, r3, #3
 1600 0064 0023     		movs	r3, #0
 1601 0066 0093     		str	r3, [sp]
 1602 0068 294B     		ldr	r3, .L110+20
 1603 006a 4FF4FC71 		mov	r1, #504
 1604 006e 2046     		mov	r0, r4
 1605 0070 FFF7FEFF 		bl	chThdCreateStatic
 1606 0074 0246     		mov	r2, r0
 1607 0076 244B     		ldr	r3, .L110+12
 1608 0078 9A60     		str	r2, [r3, #8]
 1609              		.loc 7 307 0
 1610 007a 214B     		ldr	r3, .L110+4
 1611 007c DC68     		ldr	r4, [r3, #12]
 1612 007e FFF7FEFF 		bl	chThdGetPriorityX
 1613 0082 0346     		mov	r3, r0
 1614 0084 9A1E     		subs	r2, r3, #2
 1615 0086 0023     		movs	r3, #0
 1616 0088 0093     		str	r3, [sp]
 1617 008a 224B     		ldr	r3, .L110+24
 1618 008c 4FF4FC71 		mov	r1, #504
 1619 0090 2046     		mov	r0, r4
 1620 0092 FFF7FEFF 		bl	chThdCreateStatic
 1621 0096 0246     		mov	r2, r0
 1622 0098 1B4B     		ldr	r3, .L110+12
 1623 009a DA60     		str	r2, [r3, #12]
 1624              		.loc 7 308 0
 1625 009c 184B     		ldr	r3, .L110+4
 1626 009e 1C69     		ldr	r4, [r3, #16]
 1627 00a0 FFF7FEFF 		bl	chThdGetPriorityX
 1628 00a4 0346     		mov	r3, r0
 1629 00a6 5A1E     		subs	r2, r3, #1
 1630 00a8 0023     		movs	r3, #0
 1631 00aa 0093     		str	r3, [sp]
 1632 00ac 1A4B     		ldr	r3, .L110+28
 1633 00ae 4FF4FC71 		mov	r1, #504
 1634 00b2 2046     		mov	r0, r4
 1635 00b4 FFF7FEFF 		bl	chThdCreateStatic
 1636 00b8 0246     		mov	r2, r0
 1637 00ba 134B     		ldr	r3, .L110+12
 1638 00bc 1A61     		str	r2, [r3, #16]
 1639              		.loc 7 309 0
 1640 00be FFF7FEFF 		bl	test_wait_threads
 1641              		.loc 7 310 0
 1642 00c2 1649     		ldr	r1, .L110+32
 1643 00c4 0120     		movs	r0, #1
 1644 00c6 FFF7FEFF 		bl	_test_assert_sequence
ARM GAS  C:\Users\PCHAUT~1\AppData\Local\Temp\cc4us1Pe.s 			page 30


 1645 00ca 0346     		mov	r3, r0
 1646 00cc 002B     		cmp	r3, #0
 1647 00ce 0BD1     		bne	.L109
 1648              		.loc 7 311 0
 1649 00d0 029B     		ldr	r3, [sp, #8]
 1650 00d2 03F16E01 		add	r1, r3, #110
 1651 00d6 029B     		ldr	r3, [sp, #8]
 1652 00d8 7333     		adds	r3, r3, #115
 1653 00da 1A46     		mov	r2, r3
 1654 00dc 0220     		movs	r0, #2
 1655 00de FFF7FEFF 		bl	_test_assert_time_window
 1656 00e2 0346     		mov	r3, r0
 1657 00e4 002B     		cmp	r3, #0
 1658 00e6 00E0     		b	.L105
 1659              	.L109:
 1660              		.loc 7 310 0
 1661 00e8 00BF     		nop
 1662              	.L105:
 1663              		.loc 7 312 0
 1664 00ea 044B     		ldr	r3, .L110
 1665 00ec 039A     		ldr	r2, [sp, #12]
 1666 00ee 1B68     		ldr	r3, [r3]
 1667 00f0 9A42     		cmp	r2, r3
 1668 00f2 01D0     		beq	.L108
 1669 00f4 FFF7FEFF 		bl	__stack_chk_fail
 1670              	.L108:
 1671 00f8 04B0     		add	sp, sp, #16
 1672              		.cfi_def_cfa_offset 8
 1673              		@ sp needed
 1674 00fa 10BD     		pop	{r4, pc}
 1675              	.L111:
 1676              		.align	2
 1677              	.L110:
 1678 00fc 00000000 		.word	__stack_chk_guard
 1679 0100 00000000 		.word	wa
 1680 0104 00000000 		.word	thread3LL
 1681 0108 00000000 		.word	threads
 1682 010c 00000000 		.word	thread3L
 1683 0110 00000000 		.word	thread3M
 1684 0114 00000000 		.word	thread3H
 1685 0118 00000000 		.word	thread3HH
 1686 011c 14000000 		.word	.LC5
 1687              		.cfi_endproc
 1688              	.LFE233:
 1689              		.size	mtx3_execute, .-mtx3_execute
 1690              		.global	testmtx3
 1691              		.section	.rodata
 1692 006f 00       		.align	2
 1693              	.LC9:
 1694 0070 4D757465 		.ascii	"Mutexes, priority inheritance, complex case\000"
 1694      7865732C 
 1694      20707269 
 1694      6F726974 
 1694      7920696E 
 1695              		.section	.rodata.testmtx3,"a",%progbits
 1696              		.align	2
 1697              		.type	testmtx3, %object
ARM GAS  C:\Users\PCHAUT~1\AppData\Local\Temp\cc4us1Pe.s 			page 31


 1698              		.size	testmtx3, 16
 1699              	testmtx3:
 1700 0000 70000000 		.word	.LC9
 1701 0004 00000000 		.word	mtx3_setup
 1702 0008 00000000 		.word	0
 1703 000c 00000000 		.word	mtx3_execute
 1704              		.section	.text.mtx4_setup,"ax",%progbits
 1705              		.align	1
 1706              		.p2align 4,,15
 1707              		.syntax unified
 1708              		.thumb
 1709              		.thumb_func
 1710              		.fpu fpv4-sp-d16
 1711              		.type	mtx4_setup, %function
 1712              	mtx4_setup:
 1713              	.LFB234:
 1714              		.loc 7 332 0
 1715              		.cfi_startproc
 1716              		@ args = 0, pretend = 0, frame = 8
 1717              		@ frame_needed = 0, uses_anonymous_args = 0
 1718 0000 00B5     		push	{lr}
 1719              		.cfi_def_cfa_offset 4
 1720              		.cfi_offset 14, -4
 1721 0002 83B0     		sub	sp, sp, #12
 1722              		.cfi_def_cfa_offset 16
 1723              		.loc 7 332 0
 1724 0004 094B     		ldr	r3, .L114
 1725 0006 1B68     		ldr	r3, [r3]
 1726 0008 0193     		str	r3, [sp, #4]
 1727              		.loc 7 334 0
 1728 000a 0948     		ldr	r0, .L114+4
 1729 000c FFF7FEFF 		bl	chMtxObjectInit
 1730              		.loc 7 335 0
 1731 0010 0848     		ldr	r0, .L114+8
 1732 0012 FFF7FEFF 		bl	chMtxObjectInit
 1733              		.loc 7 336 0
 1734 0016 00BF     		nop
 1735 0018 044B     		ldr	r3, .L114
 1736 001a 019A     		ldr	r2, [sp, #4]
 1737 001c 1B68     		ldr	r3, [r3]
 1738 001e 9A42     		cmp	r2, r3
 1739 0020 01D0     		beq	.L113
 1740 0022 FFF7FEFF 		bl	__stack_chk_fail
 1741              	.L113:
 1742 0026 03B0     		add	sp, sp, #12
 1743              		.cfi_def_cfa_offset 4
 1744              		@ sp needed
 1745 0028 5DF804FB 		ldr	pc, [sp], #4
 1746              	.L115:
 1747              		.align	2
 1748              	.L114:
 1749 002c 00000000 		.word	__stack_chk_guard
 1750 0030 00000000 		.word	m1
 1751 0034 00000000 		.word	m2
 1752              		.cfi_endproc
 1753              	.LFE234:
 1754              		.size	mtx4_setup, .-mtx4_setup
ARM GAS  C:\Users\PCHAUT~1\AppData\Local\Temp\cc4us1Pe.s 			page 32


 1755              		.section	.text.thread4a,"ax",%progbits
 1756              		.align	1
 1757              		.p2align 4,,15
 1758              		.syntax unified
 1759              		.thumb
 1760              		.thumb_func
 1761              		.fpu fpv4-sp-d16
 1762              		.type	thread4a, %function
 1763              	thread4a:
 1764              	.LFB235:
 1765              		.loc 7 338 0
 1766              		.cfi_startproc
 1767              		@ args = 0, pretend = 0, frame = 16
 1768              		@ frame_needed = 0, uses_anonymous_args = 0
 1769 0000 00B5     		push	{lr}
 1770              		.cfi_def_cfa_offset 4
 1771              		.cfi_offset 14, -4
 1772 0002 85B0     		sub	sp, sp, #20
 1773              		.cfi_def_cfa_offset 24
 1774 0004 0190     		str	r0, [sp, #4]
 1775              		.loc 7 338 0
 1776 0006 0B4B     		ldr	r3, .L118
 1777 0008 1B68     		ldr	r3, [r3]
 1778 000a 0393     		str	r3, [sp, #12]
 1779              		.loc 7 341 0
 1780 000c 3220     		movs	r0, #50
 1781 000e FFF7FEFF 		bl	chThdSleep
 1782              		.loc 7 342 0
 1783 0012 0948     		ldr	r0, .L118+4
 1784 0014 FFF7FEFF 		bl	chMtxLock
 1785              		.loc 7 343 0
 1786 0018 0748     		ldr	r0, .L118+4
 1787 001a FFF7FEFF 		bl	chMtxUnlock
 1788              		.loc 7 344 0
 1789 001e 00BF     		nop
 1790 0020 044B     		ldr	r3, .L118
 1791 0022 039A     		ldr	r2, [sp, #12]
 1792 0024 1B68     		ldr	r3, [r3]
 1793 0026 9A42     		cmp	r2, r3
 1794 0028 01D0     		beq	.L117
 1795 002a FFF7FEFF 		bl	__stack_chk_fail
 1796              	.L117:
 1797 002e 05B0     		add	sp, sp, #20
 1798              		.cfi_def_cfa_offset 4
 1799              		@ sp needed
 1800 0030 5DF804FB 		ldr	pc, [sp], #4
 1801              	.L119:
 1802              		.align	2
 1803              	.L118:
 1804 0034 00000000 		.word	__stack_chk_guard
 1805 0038 00000000 		.word	m2
 1806              		.cfi_endproc
 1807              	.LFE235:
 1808              		.size	thread4a, .-thread4a
 1809              		.section	.text.thread4b,"ax",%progbits
 1810              		.align	1
 1811              		.p2align 4,,15
ARM GAS  C:\Users\PCHAUT~1\AppData\Local\Temp\cc4us1Pe.s 			page 33


 1812              		.syntax unified
 1813              		.thumb
 1814              		.thumb_func
 1815              		.fpu fpv4-sp-d16
 1816              		.type	thread4b, %function
 1817              	thread4b:
 1818              	.LFB236:
 1819              		.loc 7 346 0
 1820              		.cfi_startproc
 1821              		@ args = 0, pretend = 0, frame = 16
 1822              		@ frame_needed = 0, uses_anonymous_args = 0
 1823 0000 00B5     		push	{lr}
 1824              		.cfi_def_cfa_offset 4
 1825              		.cfi_offset 14, -4
 1826 0002 85B0     		sub	sp, sp, #20
 1827              		.cfi_def_cfa_offset 24
 1828 0004 0190     		str	r0, [sp, #4]
 1829              		.loc 7 346 0
 1830 0006 0B4B     		ldr	r3, .L122
 1831 0008 1B68     		ldr	r3, [r3]
 1832 000a 0393     		str	r3, [sp, #12]
 1833              		.loc 7 349 0
 1834 000c 9620     		movs	r0, #150
 1835 000e FFF7FEFF 		bl	chThdSleep
 1836              		.loc 7 350 0
 1837 0012 0948     		ldr	r0, .L122+4
 1838 0014 FFF7FEFF 		bl	chMtxLock
 1839              		.loc 7 351 0
 1840 0018 0748     		ldr	r0, .L122+4
 1841 001a FFF7FEFF 		bl	chMtxUnlock
 1842              		.loc 7 352 0
 1843 001e 00BF     		nop
 1844 0020 044B     		ldr	r3, .L122
 1845 0022 039A     		ldr	r2, [sp, #12]
 1846 0024 1B68     		ldr	r3, [r3]
 1847 0026 9A42     		cmp	r2, r3
 1848 0028 01D0     		beq	.L121
 1849 002a FFF7FEFF 		bl	__stack_chk_fail
 1850              	.L121:
 1851 002e 05B0     		add	sp, sp, #20
 1852              		.cfi_def_cfa_offset 4
 1853              		@ sp needed
 1854 0030 5DF804FB 		ldr	pc, [sp], #4
 1855              	.L123:
 1856              		.align	2
 1857              	.L122:
 1858 0034 00000000 		.word	__stack_chk_guard
 1859 0038 00000000 		.word	m1
 1860              		.cfi_endproc
 1861              	.LFE236:
 1862              		.size	thread4b, .-thread4b
 1863              		.section	.text.mtx4_execute,"ax",%progbits
 1864              		.align	1
 1865              		.p2align 4,,15
 1866              		.syntax unified
 1867              		.thumb
 1868              		.thumb_func
ARM GAS  C:\Users\PCHAUT~1\AppData\Local\Temp\cc4us1Pe.s 			page 34


 1869              		.fpu fpv4-sp-d16
 1870              		.type	mtx4_execute, %function
 1871              	mtx4_execute:
 1872              	.LFB237:
 1873              		.loc 7 354 0
 1874              		.cfi_startproc
 1875              		@ args = 0, pretend = 0, frame = 16
 1876              		@ frame_needed = 0, uses_anonymous_args = 0
 1877 0000 00B5     		push	{lr}
 1878              		.cfi_def_cfa_offset 4
 1879              		.cfi_offset 14, -4
 1880 0002 87B0     		sub	sp, sp, #28
 1881              		.cfi_def_cfa_offset 32
 1882              		.loc 7 354 0
 1883 0004 B94B     		ldr	r3, .L155
 1884 0006 1B68     		ldr	r3, [r3]
 1885 0008 0593     		str	r3, [sp, #20]
 1886              		.loc 7 357 0
 1887 000a FFF7FEFF 		bl	chThdGetPriorityX
 1888 000e 0290     		str	r0, [sp, #8]
 1889              		.loc 7 358 0
 1890 0010 029B     		ldr	r3, [sp, #8]
 1891 0012 0133     		adds	r3, r3, #1
 1892 0014 0393     		str	r3, [sp, #12]
 1893              		.loc 7 359 0
 1894 0016 029B     		ldr	r3, [sp, #8]
 1895 0018 0233     		adds	r3, r3, #2
 1896 001a 0493     		str	r3, [sp, #16]
 1897              		.loc 7 360 0
 1898 001c B44B     		ldr	r3, .L155+4
 1899 001e 1868     		ldr	r0, [r3]
 1900 0020 B44B     		ldr	r3, .L155+8
 1901 0022 0093     		str	r3, [sp]
 1902 0024 B44B     		ldr	r3, .L155+12
 1903 0026 039A     		ldr	r2, [sp, #12]
 1904 0028 4FF4FC71 		mov	r1, #504
 1905 002c FFF7FEFF 		bl	chThdCreateStatic
 1906 0030 0246     		mov	r2, r0
 1907 0032 B24B     		ldr	r3, .L155+16
 1908 0034 1A60     		str	r2, [r3]
 1909              		.loc 7 361 0
 1910 0036 AE4B     		ldr	r3, .L155+4
 1911 0038 5868     		ldr	r0, [r3, #4]
 1912 003a B14B     		ldr	r3, .L155+20
 1913 003c 0093     		str	r3, [sp]
 1914 003e B14B     		ldr	r3, .L155+24
 1915 0040 049A     		ldr	r2, [sp, #16]
 1916 0042 4FF4FC71 		mov	r1, #504
 1917 0046 FFF7FEFF 		bl	chThdCreateStatic
 1918 004a 0246     		mov	r2, r0
 1919 004c AB4B     		ldr	r3, .L155+16
 1920 004e 5A60     		str	r2, [r3, #4]
 1921              		.loc 7 362 0
 1922 0050 AD48     		ldr	r0, .L155+28
 1923 0052 FFF7FEFF 		bl	chMtxLock
 1924              		.loc 7 363 0
 1925 0056 FFF7FEFF 		bl	chThdGetPriorityX
ARM GAS  C:\Users\PCHAUT~1\AppData\Local\Temp\cc4us1Pe.s 			page 35


 1926 005a 0246     		mov	r2, r0
 1927 005c 029B     		ldr	r3, [sp, #8]
 1928 005e 9342     		cmp	r3, r2
 1929 0060 0CBF     		ite	eq
 1930 0062 0123     		moveq	r3, #1
 1931 0064 0023     		movne	r3, #0
 1932 0066 DBB2     		uxtb	r3, r3
 1933 0068 1946     		mov	r1, r3
 1934 006a 0120     		movs	r0, #1
 1935 006c FFF7FEFF 		bl	_test_assert
 1936 0070 0346     		mov	r3, r0
 1937 0072 002B     		cmp	r3, #0
 1938 0074 40F02181 		bne	.L141
 1939              		.loc 7 364 0
 1940 0078 6420     		movs	r0, #100
 1941 007a FFF7FEFF 		bl	chThdSleep
 1942              		.loc 7 365 0
 1943 007e FFF7FEFF 		bl	chThdGetPriorityX
 1944 0082 0246     		mov	r2, r0
 1945 0084 039B     		ldr	r3, [sp, #12]
 1946 0086 9342     		cmp	r3, r2
 1947 0088 0CBF     		ite	eq
 1948 008a 0123     		moveq	r3, #1
 1949 008c 0023     		movne	r3, #0
 1950 008e DBB2     		uxtb	r3, r3
 1951 0090 1946     		mov	r1, r3
 1952 0092 0220     		movs	r0, #2
 1953 0094 FFF7FEFF 		bl	_test_assert
 1954 0098 0346     		mov	r3, r0
 1955 009a 002B     		cmp	r3, #0
 1956 009c 40F00F81 		bne	.L142
 1957              		.loc 7 366 0
 1958 00a0 9A48     		ldr	r0, .L155+32
 1959 00a2 FFF7FEFF 		bl	chMtxLock
 1960              		.loc 7 367 0
 1961 00a6 FFF7FEFF 		bl	chThdGetPriorityX
 1962 00aa 0246     		mov	r2, r0
 1963 00ac 039B     		ldr	r3, [sp, #12]
 1964 00ae 9342     		cmp	r3, r2
 1965 00b0 0CBF     		ite	eq
 1966 00b2 0123     		moveq	r3, #1
 1967 00b4 0023     		movne	r3, #0
 1968 00b6 DBB2     		uxtb	r3, r3
 1969 00b8 1946     		mov	r1, r3
 1970 00ba 0320     		movs	r0, #3
 1971 00bc FFF7FEFF 		bl	_test_assert
 1972 00c0 0346     		mov	r3, r0
 1973 00c2 002B     		cmp	r3, #0
 1974 00c4 40F0FD80 		bne	.L143
 1975              		.loc 7 368 0
 1976 00c8 6420     		movs	r0, #100
 1977 00ca FFF7FEFF 		bl	chThdSleep
 1978              		.loc 7 369 0
 1979 00ce FFF7FEFF 		bl	chThdGetPriorityX
 1980 00d2 0246     		mov	r2, r0
 1981 00d4 049B     		ldr	r3, [sp, #16]
 1982 00d6 9342     		cmp	r3, r2
ARM GAS  C:\Users\PCHAUT~1\AppData\Local\Temp\cc4us1Pe.s 			page 36


 1983 00d8 0CBF     		ite	eq
 1984 00da 0123     		moveq	r3, #1
 1985 00dc 0023     		movne	r3, #0
 1986 00de DBB2     		uxtb	r3, r3
 1987 00e0 1946     		mov	r1, r3
 1988 00e2 0420     		movs	r0, #4
 1989 00e4 FFF7FEFF 		bl	_test_assert
 1990 00e8 0346     		mov	r3, r0
 1991 00ea 002B     		cmp	r3, #0
 1992 00ec 40F0EB80 		bne	.L144
 1993              		.loc 7 370 0
 1994 00f0 8648     		ldr	r0, .L155+32
 1995 00f2 FFF7FEFF 		bl	chMtxUnlock
 1996              		.loc 7 371 0
 1997 00f6 FFF7FEFF 		bl	chThdGetPriorityX
 1998 00fa 0246     		mov	r2, r0
 1999 00fc 039B     		ldr	r3, [sp, #12]
 2000 00fe 9342     		cmp	r3, r2
 2001 0100 0CBF     		ite	eq
 2002 0102 0123     		moveq	r3, #1
 2003 0104 0023     		movne	r3, #0
 2004 0106 DBB2     		uxtb	r3, r3
 2005 0108 1946     		mov	r1, r3
 2006 010a 0520     		movs	r0, #5
 2007 010c FFF7FEFF 		bl	_test_assert
 2008 0110 0346     		mov	r3, r0
 2009 0112 002B     		cmp	r3, #0
 2010 0114 40F0D980 		bne	.L145
 2011              		.loc 7 372 0
 2012 0118 6420     		movs	r0, #100
 2013 011a FFF7FEFF 		bl	chThdSleep
 2014              		.loc 7 373 0
 2015 011e FFF7FEFF 		bl	chThdGetPriorityX
 2016 0122 0246     		mov	r2, r0
 2017 0124 039B     		ldr	r3, [sp, #12]
 2018 0126 9342     		cmp	r3, r2
 2019 0128 0CBF     		ite	eq
 2020 012a 0123     		moveq	r3, #1
 2021 012c 0023     		movne	r3, #0
 2022 012e DBB2     		uxtb	r3, r3
 2023 0130 1946     		mov	r1, r3
 2024 0132 0620     		movs	r0, #6
 2025 0134 FFF7FEFF 		bl	_test_assert
 2026 0138 0346     		mov	r3, r0
 2027 013a 002B     		cmp	r3, #0
 2028 013c 40F0C780 		bne	.L146
 2029              		.loc 7 374 0
 2030 0140 FFF7FEFF 		bl	chMtxUnlockAll
 2031              		.loc 7 375 0
 2032 0144 FFF7FEFF 		bl	chThdGetPriorityX
 2033 0148 0246     		mov	r2, r0
 2034 014a 029B     		ldr	r3, [sp, #8]
 2035 014c 9342     		cmp	r3, r2
 2036 014e 0CBF     		ite	eq
 2037 0150 0123     		moveq	r3, #1
 2038 0152 0023     		movne	r3, #0
 2039 0154 DBB2     		uxtb	r3, r3
ARM GAS  C:\Users\PCHAUT~1\AppData\Local\Temp\cc4us1Pe.s 			page 37


 2040 0156 1946     		mov	r1, r3
 2041 0158 0720     		movs	r0, #7
 2042 015a FFF7FEFF 		bl	_test_assert
 2043 015e 0346     		mov	r3, r0
 2044 0160 002B     		cmp	r3, #0
 2045 0162 40F0B680 		bne	.L147
 2046              		.loc 7 376 0
 2047 0166 FFF7FEFF 		bl	test_wait_threads
 2048              		.loc 7 379 0
 2049 016a 614B     		ldr	r3, .L155+4
 2050 016c 1868     		ldr	r0, [r3]
 2051 016e 684B     		ldr	r3, .L155+36
 2052 0170 0093     		str	r3, [sp]
 2053 0172 614B     		ldr	r3, .L155+12
 2054 0174 039A     		ldr	r2, [sp, #12]
 2055 0176 4FF4FC71 		mov	r1, #504
 2056 017a FFF7FEFF 		bl	chThdCreateStatic
 2057 017e 0246     		mov	r2, r0
 2058 0180 5E4B     		ldr	r3, .L155+16
 2059 0182 1A60     		str	r2, [r3]
 2060              		.loc 7 380 0
 2061 0184 5A4B     		ldr	r3, .L155+4
 2062 0186 5868     		ldr	r0, [r3, #4]
 2063 0188 624B     		ldr	r3, .L155+40
 2064 018a 0093     		str	r3, [sp]
 2065 018c 5D4B     		ldr	r3, .L155+24
 2066 018e 049A     		ldr	r2, [sp, #16]
 2067 0190 4FF4FC71 		mov	r1, #504
 2068 0194 FFF7FEFF 		bl	chThdCreateStatic
 2069 0198 0246     		mov	r2, r0
 2070 019a 584B     		ldr	r3, .L155+16
 2071 019c 5A60     		str	r2, [r3, #4]
 2072              		.loc 7 381 0
 2073 019e 5A48     		ldr	r0, .L155+28
 2074 01a0 FFF7FEFF 		bl	chMtxLock
 2075              		.loc 7 382 0
 2076 01a4 FFF7FEFF 		bl	chThdGetPriorityX
 2077 01a8 0246     		mov	r2, r0
 2078 01aa 029B     		ldr	r3, [sp, #8]
 2079 01ac 9342     		cmp	r3, r2
 2080 01ae 0CBF     		ite	eq
 2081 01b0 0123     		moveq	r3, #1
 2082 01b2 0023     		movne	r3, #0
 2083 01b4 DBB2     		uxtb	r3, r3
 2084 01b6 1946     		mov	r1, r3
 2085 01b8 0820     		movs	r0, #8
 2086 01ba FFF7FEFF 		bl	_test_assert
 2087 01be 0346     		mov	r3, r0
 2088 01c0 002B     		cmp	r3, #0
 2089 01c2 40F08880 		bne	.L148
 2090              		.loc 7 383 0
 2091 01c6 6420     		movs	r0, #100
 2092 01c8 FFF7FEFF 		bl	chThdSleep
 2093              		.loc 7 384 0
 2094 01cc FFF7FEFF 		bl	chThdGetPriorityX
 2095 01d0 0246     		mov	r2, r0
 2096 01d2 039B     		ldr	r3, [sp, #12]
ARM GAS  C:\Users\PCHAUT~1\AppData\Local\Temp\cc4us1Pe.s 			page 38


 2097 01d4 9342     		cmp	r3, r2
 2098 01d6 0CBF     		ite	eq
 2099 01d8 0123     		moveq	r3, #1
 2100 01da 0023     		movne	r3, #0
 2101 01dc DBB2     		uxtb	r3, r3
 2102 01de 1946     		mov	r1, r3
 2103 01e0 0920     		movs	r0, #9
 2104 01e2 FFF7FEFF 		bl	_test_assert
 2105 01e6 0346     		mov	r3, r0
 2106 01e8 002B     		cmp	r3, #0
 2107 01ea 76D1     		bne	.L149
 2108              		.loc 7 385 0
 2109 01ec 4748     		ldr	r0, .L155+32
 2110 01ee FFF7FEFF 		bl	chMtxLock
 2111              		.loc 7 386 0
 2112 01f2 FFF7FEFF 		bl	chThdGetPriorityX
 2113 01f6 0246     		mov	r2, r0
 2114 01f8 039B     		ldr	r3, [sp, #12]
 2115 01fa 9342     		cmp	r3, r2
 2116 01fc 0CBF     		ite	eq
 2117 01fe 0123     		moveq	r3, #1
 2118 0200 0023     		movne	r3, #0
 2119 0202 DBB2     		uxtb	r3, r3
 2120 0204 1946     		mov	r1, r3
 2121 0206 0A20     		movs	r0, #10
 2122 0208 FFF7FEFF 		bl	_test_assert
 2123 020c 0346     		mov	r3, r0
 2124 020e 002B     		cmp	r3, #0
 2125 0210 65D1     		bne	.L150
 2126              		.loc 7 387 0
 2127 0212 6420     		movs	r0, #100
 2128 0214 FFF7FEFF 		bl	chThdSleep
 2129              		.loc 7 388 0
 2130 0218 FFF7FEFF 		bl	chThdGetPriorityX
 2131 021c 0246     		mov	r2, r0
 2132 021e 049B     		ldr	r3, [sp, #16]
 2133 0220 9342     		cmp	r3, r2
 2134 0222 0CBF     		ite	eq
 2135 0224 0123     		moveq	r3, #1
 2136 0226 0023     		movne	r3, #0
 2137 0228 DBB2     		uxtb	r3, r3
 2138 022a 1946     		mov	r1, r3
 2139 022c 0B20     		movs	r0, #11
 2140 022e FFF7FEFF 		bl	_test_assert
 2141 0232 0346     		mov	r3, r0
 2142 0234 002B     		cmp	r3, #0
 2143 0236 54D1     		bne	.L151
 2144              		.loc 7 389 0
 2145 0238 FFF7FEFF 		bl	chSysLock
 2146              		.loc 7 390 0
 2147 023c 3348     		ldr	r0, .L155+32
 2148 023e FFF7FEFF 		bl	chMtxUnlockS
 2149              		.loc 7 391 0
 2150 0242 FFF7FEFF 		bl	chSchRescheduleS
 2151              		.loc 7 392 0
 2152 0246 FFF7FEFF 		bl	chSysUnlock
 2153              		.loc 7 393 0
ARM GAS  C:\Users\PCHAUT~1\AppData\Local\Temp\cc4us1Pe.s 			page 39


 2154 024a FFF7FEFF 		bl	chThdGetPriorityX
 2155 024e 0246     		mov	r2, r0
 2156 0250 039B     		ldr	r3, [sp, #12]
 2157 0252 9342     		cmp	r3, r2
 2158 0254 0CBF     		ite	eq
 2159 0256 0123     		moveq	r3, #1
 2160 0258 0023     		movne	r3, #0
 2161 025a DBB2     		uxtb	r3, r3
 2162 025c 1946     		mov	r1, r3
 2163 025e 0C20     		movs	r0, #12
 2164 0260 FFF7FEFF 		bl	_test_assert
 2165 0264 0346     		mov	r3, r0
 2166 0266 002B     		cmp	r3, #0
 2167 0268 3DD1     		bne	.L152
 2168              		.loc 7 394 0
 2169 026a 6420     		movs	r0, #100
 2170 026c FFF7FEFF 		bl	chThdSleep
 2171              		.loc 7 395 0
 2172 0270 FFF7FEFF 		bl	chThdGetPriorityX
 2173 0274 0246     		mov	r2, r0
 2174 0276 039B     		ldr	r3, [sp, #12]
 2175 0278 9342     		cmp	r3, r2
 2176 027a 0CBF     		ite	eq
 2177 027c 0123     		moveq	r3, #1
 2178 027e 0023     		movne	r3, #0
 2179 0280 DBB2     		uxtb	r3, r3
 2180 0282 1946     		mov	r1, r3
 2181 0284 0D20     		movs	r0, #13
 2182 0286 FFF7FEFF 		bl	_test_assert
 2183 028a 0346     		mov	r3, r0
 2184 028c 002B     		cmp	r3, #0
 2185 028e 43D1     		bne	.L153
 2186              		.loc 7 396 0
 2187 0290 FFF7FEFF 		bl	chMtxUnlockAll
 2188              		.loc 7 397 0
 2189 0294 FFF7FEFF 		bl	chThdGetPriorityX
 2190 0298 0246     		mov	r2, r0
 2191 029a 029B     		ldr	r3, [sp, #8]
 2192 029c 9342     		cmp	r3, r2
 2193 029e 0CBF     		ite	eq
 2194 02a0 0123     		moveq	r3, #1
 2195 02a2 0023     		movne	r3, #0
 2196 02a4 DBB2     		uxtb	r3, r3
 2197 02a6 1946     		mov	r1, r3
 2198 02a8 0E20     		movs	r0, #14
 2199 02aa FFF7FEFF 		bl	_test_assert
 2200 02ae 0346     		mov	r3, r0
 2201 02b0 002B     		cmp	r3, #0
 2202 02b2 33D1     		bne	.L154
 2203              		.loc 7 398 0
 2204 02b4 FFF7FEFF 		bl	test_wait_threads
 2205 02b8 31E0     		b	.L124
 2206              	.L141:
 2207              		.loc 7 363 0
 2208 02ba 00BF     		nop
 2209 02bc 2FE0     		b	.L124
 2210              	.L142:
ARM GAS  C:\Users\PCHAUT~1\AppData\Local\Temp\cc4us1Pe.s 			page 40


 2211              		.loc 7 365 0
 2212 02be 00BF     		nop
 2213 02c0 2DE0     		b	.L124
 2214              	.L143:
 2215              		.loc 7 367 0
 2216 02c2 00BF     		nop
 2217 02c4 2BE0     		b	.L124
 2218              	.L144:
 2219              		.loc 7 369 0
 2220 02c6 00BF     		nop
 2221 02c8 29E0     		b	.L124
 2222              	.L145:
 2223              		.loc 7 371 0
 2224 02ca 00BF     		nop
 2225 02cc 27E0     		b	.L124
 2226              	.L146:
 2227              		.loc 7 373 0
 2228 02ce 00BF     		nop
 2229 02d0 25E0     		b	.L124
 2230              	.L147:
 2231              		.loc 7 375 0
 2232 02d2 00BF     		nop
 2233 02d4 23E0     		b	.L124
 2234              	.L148:
 2235              		.loc 7 382 0
 2236 02d6 00BF     		nop
 2237 02d8 21E0     		b	.L124
 2238              	.L149:
 2239              		.loc 7 384 0
 2240 02da 00BF     		nop
 2241 02dc 1FE0     		b	.L124
 2242              	.L150:
 2243              		.loc 7 386 0
 2244 02de 00BF     		nop
 2245 02e0 1DE0     		b	.L124
 2246              	.L151:
 2247              		.loc 7 388 0
 2248 02e2 00BF     		nop
 2249 02e4 1BE0     		b	.L124
 2250              	.L152:
 2251              		.loc 7 393 0
 2252 02e6 00BF     		nop
 2253 02e8 19E0     		b	.L124
 2254              	.L156:
 2255 02ea 00BF     		.align	2
 2256              	.L155:
 2257 02ec 00000000 		.word	__stack_chk_guard
 2258 02f0 00000000 		.word	wa
 2259 02f4 0C000000 		.word	.LC3
 2260 02f8 00000000 		.word	thread4a
 2261 02fc 00000000 		.word	threads
 2262 0300 10000000 		.word	.LC4
 2263 0304 00000000 		.word	thread4b
 2264 0308 00000000 		.word	m2
 2265 030c 00000000 		.word	m1
 2266 0310 04000000 		.word	.LC1
 2267 0314 08000000 		.word	.LC2
ARM GAS  C:\Users\PCHAUT~1\AppData\Local\Temp\cc4us1Pe.s 			page 41


 2268              	.L153:
 2269              		.loc 7 395 0
 2270 0318 00BF     		nop
 2271 031a 00E0     		b	.L124
 2272              	.L154:
 2273              		.loc 7 397 0
 2274 031c 00BF     		nop
 2275              	.L124:
 2276              		.loc 7 399 0
 2277 031e 054B     		ldr	r3, .L157
 2278 0320 059A     		ldr	r2, [sp, #20]
 2279 0322 1B68     		ldr	r3, [r3]
 2280 0324 9A42     		cmp	r2, r3
 2281 0326 01D0     		beq	.L140
 2282 0328 FFF7FEFF 		bl	__stack_chk_fail
 2283              	.L140:
 2284 032c 07B0     		add	sp, sp, #28
 2285              		.cfi_def_cfa_offset 4
 2286              		@ sp needed
 2287 032e 5DF804FB 		ldr	pc, [sp], #4
 2288              	.L158:
 2289 0332 00BF     		.align	2
 2290              	.L157:
 2291 0334 00000000 		.word	__stack_chk_guard
 2292              		.cfi_endproc
 2293              	.LFE237:
 2294              		.size	mtx4_execute, .-mtx4_execute
 2295              		.global	testmtx4
 2296              		.section	.rodata
 2297              		.align	2
 2298              	.LC10:
 2299 009c 4D757465 		.ascii	"Mutexes, priority return\000"
 2299      7865732C 
 2299      20707269 
 2299      6F726974 
 2299      79207265 
 2300              		.section	.rodata.testmtx4,"a",%progbits
 2301              		.align	2
 2302              		.type	testmtx4, %object
 2303              		.size	testmtx4, 16
 2304              	testmtx4:
 2305 0000 9C000000 		.word	.LC10
 2306 0004 00000000 		.word	mtx4_setup
 2307 0008 00000000 		.word	0
 2308 000c 00000000 		.word	mtx4_execute
 2309              		.section	.text.mtx5_setup,"ax",%progbits
 2310              		.align	1
 2311              		.p2align 4,,15
 2312              		.syntax unified
 2313              		.thumb
 2314              		.thumb_func
 2315              		.fpu fpv4-sp-d16
 2316              		.type	mtx5_setup, %function
 2317              	mtx5_setup:
 2318              	.LFB238:
 2319              		.loc 7 418 0
 2320              		.cfi_startproc
ARM GAS  C:\Users\PCHAUT~1\AppData\Local\Temp\cc4us1Pe.s 			page 42


 2321              		@ args = 0, pretend = 0, frame = 8
 2322              		@ frame_needed = 0, uses_anonymous_args = 0
 2323 0000 00B5     		push	{lr}
 2324              		.cfi_def_cfa_offset 4
 2325              		.cfi_offset 14, -4
 2326 0002 83B0     		sub	sp, sp, #12
 2327              		.cfi_def_cfa_offset 16
 2328              		.loc 7 418 0
 2329 0004 084B     		ldr	r3, .L161
 2330 0006 1B68     		ldr	r3, [r3]
 2331 0008 0193     		str	r3, [sp, #4]
 2332              		.loc 7 420 0
 2333 000a 0848     		ldr	r0, .L161+4
 2334 000c FFF7FEFF 		bl	chMtxObjectInit
 2335              		.loc 7 421 0
 2336 0010 00BF     		nop
 2337 0012 054B     		ldr	r3, .L161
 2338 0014 019A     		ldr	r2, [sp, #4]
 2339 0016 1B68     		ldr	r3, [r3]
 2340 0018 9A42     		cmp	r2, r3
 2341 001a 01D0     		beq	.L160
 2342 001c FFF7FEFF 		bl	__stack_chk_fail
 2343              	.L160:
 2344 0020 03B0     		add	sp, sp, #12
 2345              		.cfi_def_cfa_offset 4
 2346              		@ sp needed
 2347 0022 5DF804FB 		ldr	pc, [sp], #4
 2348              	.L162:
 2349 0026 00BF     		.align	2
 2350              	.L161:
 2351 0028 00000000 		.word	__stack_chk_guard
 2352 002c 00000000 		.word	m1
 2353              		.cfi_endproc
 2354              	.LFE238:
 2355              		.size	mtx5_setup, .-mtx5_setup
 2356              		.section	.text.mtx5_execute,"ax",%progbits
 2357              		.align	1
 2358              		.p2align 4,,15
 2359              		.syntax unified
 2360              		.thumb
 2361              		.thumb_func
 2362              		.fpu fpv4-sp-d16
 2363              		.type	mtx5_execute, %function
 2364              	mtx5_execute:
 2365              	.LFB239:
 2366              		.loc 7 423 0
 2367              		.cfi_startproc
 2368              		@ args = 0, pretend = 0, frame = 8
 2369              		@ frame_needed = 0, uses_anonymous_args = 0
 2370 0000 00B5     		push	{lr}
 2371              		.cfi_def_cfa_offset 4
 2372              		.cfi_offset 14, -4
 2373 0002 83B0     		sub	sp, sp, #12
 2374              		.cfi_def_cfa_offset 16
 2375              		.loc 7 423 0
 2376 0004 154B     		ldr	r3, .L168
 2377 0006 1B68     		ldr	r3, [r3]
ARM GAS  C:\Users\PCHAUT~1\AppData\Local\Temp\cc4us1Pe.s 			page 43


 2378 0008 0193     		str	r3, [sp, #4]
 2379              		.loc 7 444 0
 2380 000a 1548     		ldr	r0, .L168+4
 2381 000c FFF7FEFF 		bl	chMtxLock
 2382              		.loc 7 445 0
 2383 0010 FFF7FEFF 		bl	chMtxUnlockAll
 2384              		.loc 7 446 0
 2385 0014 1248     		ldr	r0, .L168+4
 2386 0016 FFF7FEFF 		bl	queue_isempty
 2387 001a 0346     		mov	r3, r0
 2388 001c 1946     		mov	r1, r3
 2389 001e 0620     		movs	r0, #6
 2390 0020 FFF7FEFF 		bl	_test_assert
 2391 0024 0346     		mov	r3, r0
 2392 0026 002B     		cmp	r3, #0
 2393 0028 0DD1     		bne	.L167
 2394              		.loc 7 447 0
 2395 002a 0D4B     		ldr	r3, .L168+4
 2396 002c 9B68     		ldr	r3, [r3, #8]
 2397 002e 002B     		cmp	r3, #0
 2398 0030 0CBF     		ite	eq
 2399 0032 0123     		moveq	r3, #1
 2400 0034 0023     		movne	r3, #0
 2401 0036 DBB2     		uxtb	r3, r3
 2402 0038 1946     		mov	r1, r3
 2403 003a 0720     		movs	r0, #7
 2404 003c FFF7FEFF 		bl	_test_assert
 2405 0040 0346     		mov	r3, r0
 2406 0042 002B     		cmp	r3, #0
 2407 0044 00E0     		b	.L163
 2408              	.L167:
 2409              		.loc 7 446 0
 2410 0046 00BF     		nop
 2411              	.L163:
 2412              		.loc 7 448 0
 2413 0048 044B     		ldr	r3, .L168
 2414 004a 019A     		ldr	r2, [sp, #4]
 2415 004c 1B68     		ldr	r3, [r3]
 2416 004e 9A42     		cmp	r2, r3
 2417 0050 01D0     		beq	.L166
 2418 0052 FFF7FEFF 		bl	__stack_chk_fail
 2419              	.L166:
 2420 0056 03B0     		add	sp, sp, #12
 2421              		.cfi_def_cfa_offset 4
 2422              		@ sp needed
 2423 0058 5DF804FB 		ldr	pc, [sp], #4
 2424              	.L169:
 2425              		.align	2
 2426              	.L168:
 2427 005c 00000000 		.word	__stack_chk_guard
 2428 0060 00000000 		.word	m1
 2429              		.cfi_endproc
 2430              	.LFE239:
 2431              		.size	mtx5_execute, .-mtx5_execute
 2432              		.global	testmtx5
 2433              		.section	.rodata
 2434 00b5 000000   		.align	2
ARM GAS  C:\Users\PCHAUT~1\AppData\Local\Temp\cc4us1Pe.s 			page 44


 2435              	.LC11:
 2436 00b8 4D757465 		.ascii	"Mutexes, status\000"
 2436      7865732C 
 2436      20737461 
 2436      74757300 
 2437              		.section	.rodata.testmtx5,"a",%progbits
 2438              		.align	2
 2439              		.type	testmtx5, %object
 2440              		.size	testmtx5, 16
 2441              	testmtx5:
 2442 0000 B8000000 		.word	.LC11
 2443 0004 00000000 		.word	mtx5_setup
 2444 0008 00000000 		.word	0
 2445 000c 00000000 		.word	mtx5_execute
 2446              		.section	.text.mtx6_setup,"ax",%progbits
 2447              		.align	1
 2448              		.p2align 4,,15
 2449              		.syntax unified
 2450              		.thumb
 2451              		.thumb_func
 2452              		.fpu fpv4-sp-d16
 2453              		.type	mtx6_setup, %function
 2454              	mtx6_setup:
 2455              	.LFB240:
 2456              		.loc 7 469 0
 2457              		.cfi_startproc
 2458              		@ args = 0, pretend = 0, frame = 8
 2459              		@ frame_needed = 0, uses_anonymous_args = 0
 2460 0000 00B5     		push	{lr}
 2461              		.cfi_def_cfa_offset 4
 2462              		.cfi_offset 14, -4
 2463 0002 83B0     		sub	sp, sp, #12
 2464              		.cfi_def_cfa_offset 16
 2465              		.loc 7 469 0
 2466 0004 094B     		ldr	r3, .L172
 2467 0006 1B68     		ldr	r3, [r3]
 2468 0008 0193     		str	r3, [sp, #4]
 2469              		.loc 7 471 0
 2470 000a 0948     		ldr	r0, .L172+4
 2471 000c FFF7FEFF 		bl	chCondObjectInit
 2472              		.loc 7 472 0
 2473 0010 0848     		ldr	r0, .L172+8
 2474 0012 FFF7FEFF 		bl	chMtxObjectInit
 2475              		.loc 7 473 0
 2476 0016 00BF     		nop
 2477 0018 044B     		ldr	r3, .L172
 2478 001a 019A     		ldr	r2, [sp, #4]
 2479 001c 1B68     		ldr	r3, [r3]
 2480 001e 9A42     		cmp	r2, r3
 2481 0020 01D0     		beq	.L171
 2482 0022 FFF7FEFF 		bl	__stack_chk_fail
 2483              	.L171:
 2484 0026 03B0     		add	sp, sp, #12
 2485              		.cfi_def_cfa_offset 4
 2486              		@ sp needed
 2487 0028 5DF804FB 		ldr	pc, [sp], #4
 2488              	.L173:
ARM GAS  C:\Users\PCHAUT~1\AppData\Local\Temp\cc4us1Pe.s 			page 45


 2489              		.align	2
 2490              	.L172:
 2491 002c 00000000 		.word	__stack_chk_guard
 2492 0030 00000000 		.word	c1
 2493 0034 00000000 		.word	m1
 2494              		.cfi_endproc
 2495              	.LFE240:
 2496              		.size	mtx6_setup, .-mtx6_setup
 2497              		.section	.text.thread10,"ax",%progbits
 2498              		.align	1
 2499              		.p2align 4,,15
 2500              		.syntax unified
 2501              		.thumb
 2502              		.thumb_func
 2503              		.fpu fpv4-sp-d16
 2504              		.type	thread10, %function
 2505              	thread10:
 2506              	.LFB241:
 2507              		.loc 7 475 0
 2508              		.cfi_startproc
 2509              		@ args = 0, pretend = 0, frame = 16
 2510              		@ frame_needed = 0, uses_anonymous_args = 0
 2511 0000 00B5     		push	{lr}
 2512              		.cfi_def_cfa_offset 4
 2513              		.cfi_offset 14, -4
 2514 0002 85B0     		sub	sp, sp, #20
 2515              		.cfi_def_cfa_offset 24
 2516 0004 0190     		str	r0, [sp, #4]
 2517              		.loc 7 475 0
 2518 0006 0E4B     		ldr	r3, .L176
 2519 0008 1B68     		ldr	r3, [r3]
 2520 000a 0393     		str	r3, [sp, #12]
 2521              		.loc 7 477 0
 2522 000c 0D48     		ldr	r0, .L176+4
 2523 000e FFF7FEFF 		bl	chMtxLock
 2524              		.loc 7 478 0
 2525 0012 0D48     		ldr	r0, .L176+8
 2526 0014 FFF7FEFF 		bl	chCondWait
 2527              		.loc 7 479 0
 2528 0018 019B     		ldr	r3, [sp, #4]
 2529 001a 1B78     		ldrb	r3, [r3]	@ zero_extendqisi2
 2530 001c 1846     		mov	r0, r3
 2531 001e FFF7FEFF 		bl	test_emit_token
 2532              		.loc 7 480 0
 2533 0022 0848     		ldr	r0, .L176+4
 2534 0024 FFF7FEFF 		bl	chMtxUnlock
 2535              		.loc 7 481 0
 2536 0028 00BF     		nop
 2537 002a 054B     		ldr	r3, .L176
 2538 002c 039A     		ldr	r2, [sp, #12]
 2539 002e 1B68     		ldr	r3, [r3]
 2540 0030 9A42     		cmp	r2, r3
 2541 0032 01D0     		beq	.L175
 2542 0034 FFF7FEFF 		bl	__stack_chk_fail
 2543              	.L175:
 2544 0038 05B0     		add	sp, sp, #20
 2545              		.cfi_def_cfa_offset 4
ARM GAS  C:\Users\PCHAUT~1\AppData\Local\Temp\cc4us1Pe.s 			page 46


 2546              		@ sp needed
 2547 003a 5DF804FB 		ldr	pc, [sp], #4
 2548              	.L177:
 2549 003e 00BF     		.align	2
 2550              	.L176:
 2551 0040 00000000 		.word	__stack_chk_guard
 2552 0044 00000000 		.word	m1
 2553 0048 00000000 		.word	c1
 2554              		.cfi_endproc
 2555              	.LFE241:
 2556              		.size	thread10, .-thread10
 2557              		.section	.text.mtx6_execute,"ax",%progbits
 2558              		.align	1
 2559              		.p2align 4,,15
 2560              		.syntax unified
 2561              		.thumb
 2562              		.thumb_func
 2563              		.fpu fpv4-sp-d16
 2564              		.type	mtx6_execute, %function
 2565              	mtx6_execute:
 2566              	.LFB242:
 2567              		.loc 7 483 0
 2568              		.cfi_startproc
 2569              		@ args = 0, pretend = 0, frame = 8
 2570              		@ frame_needed = 0, uses_anonymous_args = 0
 2571 0000 00B5     		push	{lr}
 2572              		.cfi_def_cfa_offset 4
 2573              		.cfi_offset 14, -4
 2574 0002 85B0     		sub	sp, sp, #20
 2575              		.cfi_def_cfa_offset 24
 2576              		.loc 7 483 0
 2577 0004 394B     		ldr	r3, .L181
 2578 0006 1B68     		ldr	r3, [r3]
 2579 0008 0393     		str	r3, [sp, #12]
 2580              		.loc 7 485 0
 2581 000a FFF7FEFF 		bl	chThdGetPriorityX
 2582 000e 0290     		str	r0, [sp, #8]
 2583              		.loc 7 486 0
 2584 0010 374B     		ldr	r3, .L181+4
 2585 0012 1868     		ldr	r0, [r3]
 2586 0014 029B     		ldr	r3, [sp, #8]
 2587 0016 5A1C     		adds	r2, r3, #1
 2588 0018 364B     		ldr	r3, .L181+8
 2589 001a 0093     		str	r3, [sp]
 2590 001c 364B     		ldr	r3, .L181+12
 2591 001e 4FF4FC71 		mov	r1, #504
 2592 0022 FFF7FEFF 		bl	chThdCreateStatic
 2593 0026 0246     		mov	r2, r0
 2594 0028 344B     		ldr	r3, .L181+16
 2595 002a 1A60     		str	r2, [r3]
 2596              		.loc 7 487 0
 2597 002c 304B     		ldr	r3, .L181+4
 2598 002e 5868     		ldr	r0, [r3, #4]
 2599 0030 029B     		ldr	r3, [sp, #8]
 2600 0032 9A1C     		adds	r2, r3, #2
 2601 0034 324B     		ldr	r3, .L181+20
 2602 0036 0093     		str	r3, [sp]
ARM GAS  C:\Users\PCHAUT~1\AppData\Local\Temp\cc4us1Pe.s 			page 47


 2603 0038 2F4B     		ldr	r3, .L181+12
 2604 003a 4FF4FC71 		mov	r1, #504
 2605 003e FFF7FEFF 		bl	chThdCreateStatic
 2606 0042 0246     		mov	r2, r0
 2607 0044 2D4B     		ldr	r3, .L181+16
 2608 0046 5A60     		str	r2, [r3, #4]
 2609              		.loc 7 488 0
 2610 0048 294B     		ldr	r3, .L181+4
 2611 004a 9868     		ldr	r0, [r3, #8]
 2612 004c 029B     		ldr	r3, [sp, #8]
 2613 004e DA1C     		adds	r2, r3, #3
 2614 0050 2C4B     		ldr	r3, .L181+24
 2615 0052 0093     		str	r3, [sp]
 2616 0054 284B     		ldr	r3, .L181+12
 2617 0056 4FF4FC71 		mov	r1, #504
 2618 005a FFF7FEFF 		bl	chThdCreateStatic
 2619 005e 0246     		mov	r2, r0
 2620 0060 264B     		ldr	r3, .L181+16
 2621 0062 9A60     		str	r2, [r3, #8]
 2622              		.loc 7 489 0
 2623 0064 224B     		ldr	r3, .L181+4
 2624 0066 D868     		ldr	r0, [r3, #12]
 2625 0068 029B     		ldr	r3, [sp, #8]
 2626 006a 1A1D     		adds	r2, r3, #4
 2627 006c 264B     		ldr	r3, .L181+28
 2628 006e 0093     		str	r3, [sp]
 2629 0070 214B     		ldr	r3, .L181+12
 2630 0072 4FF4FC71 		mov	r1, #504
 2631 0076 FFF7FEFF 		bl	chThdCreateStatic
 2632 007a 0246     		mov	r2, r0
 2633 007c 1F4B     		ldr	r3, .L181+16
 2634 007e DA60     		str	r2, [r3, #12]
 2635              		.loc 7 490 0
 2636 0080 1B4B     		ldr	r3, .L181+4
 2637 0082 1869     		ldr	r0, [r3, #16]
 2638 0084 029B     		ldr	r3, [sp, #8]
 2639 0086 5A1D     		adds	r2, r3, #5
 2640 0088 204B     		ldr	r3, .L181+32
 2641 008a 0093     		str	r3, [sp]
 2642 008c 1A4B     		ldr	r3, .L181+12
 2643 008e 4FF4FC71 		mov	r1, #504
 2644 0092 FFF7FEFF 		bl	chThdCreateStatic
 2645 0096 0246     		mov	r2, r0
 2646 0098 184B     		ldr	r3, .L181+16
 2647 009a 1A61     		str	r2, [r3, #16]
 2648              		.loc 7 491 0
 2649 009c FFF7FEFF 		bl	chSysLock
 2650              		.loc 7 492 0
 2651 00a0 1B48     		ldr	r0, .L181+36
 2652 00a2 FFF7FEFF 		bl	chCondSignalI
 2653              		.loc 7 493 0
 2654 00a6 1A48     		ldr	r0, .L181+36
 2655 00a8 FFF7FEFF 		bl	chCondSignalI
 2656              		.loc 7 494 0
 2657 00ac 1848     		ldr	r0, .L181+36
 2658 00ae FFF7FEFF 		bl	chCondSignalI
 2659              		.loc 7 495 0
ARM GAS  C:\Users\PCHAUT~1\AppData\Local\Temp\cc4us1Pe.s 			page 48


 2660 00b2 1748     		ldr	r0, .L181+36
 2661 00b4 FFF7FEFF 		bl	chCondSignalI
 2662              		.loc 7 496 0
 2663 00b8 1548     		ldr	r0, .L181+36
 2664 00ba FFF7FEFF 		bl	chCondSignalI
 2665              		.loc 7 497 0
 2666 00be FFF7FEFF 		bl	chSchRescheduleS
 2667              		.loc 7 498 0
 2668 00c2 FFF7FEFF 		bl	chSysUnlock
 2669              		.loc 7 499 0
 2670 00c6 FFF7FEFF 		bl	test_wait_threads
 2671              		.loc 7 500 0
 2672 00ca 1249     		ldr	r1, .L181+40
 2673 00cc 0120     		movs	r0, #1
 2674 00ce FFF7FEFF 		bl	_test_assert_sequence
 2675 00d2 0346     		mov	r3, r0
 2676 00d4 002B     		cmp	r3, #0
 2677              		.loc 7 501 0
 2678 00d6 054B     		ldr	r3, .L181
 2679 00d8 039A     		ldr	r2, [sp, #12]
 2680 00da 1B68     		ldr	r3, [r3]
 2681 00dc 9A42     		cmp	r2, r3
 2682 00de 01D0     		beq	.L180
 2683 00e0 FFF7FEFF 		bl	__stack_chk_fail
 2684              	.L180:
 2685 00e4 05B0     		add	sp, sp, #20
 2686              		.cfi_def_cfa_offset 4
 2687              		@ sp needed
 2688 00e6 5DF804FB 		ldr	pc, [sp], #4
 2689              	.L182:
 2690 00ea 00BF     		.align	2
 2691              	.L181:
 2692 00ec 00000000 		.word	__stack_chk_guard
 2693 00f0 00000000 		.word	wa
 2694 00f4 00000000 		.word	.LC0
 2695 00f8 00000000 		.word	thread10
 2696 00fc 00000000 		.word	threads
 2697 0100 04000000 		.word	.LC1
 2698 0104 08000000 		.word	.LC2
 2699 0108 0C000000 		.word	.LC3
 2700 010c 10000000 		.word	.LC4
 2701 0110 00000000 		.word	c1
 2702 0114 14000000 		.word	.LC5
 2703              		.cfi_endproc
 2704              	.LFE242:
 2705              		.size	mtx6_execute, .-mtx6_execute
 2706              		.global	testmtx6
 2707              		.section	.rodata
 2708              		.align	2
 2709              	.LC12:
 2710 00c8 436F6E64 		.ascii	"CondVar, signal test\000"
 2710      5661722C 
 2710      20736967 
 2710      6E616C20 
 2710      74657374 
 2711              		.section	.rodata.testmtx6,"a",%progbits
 2712              		.align	2
ARM GAS  C:\Users\PCHAUT~1\AppData\Local\Temp\cc4us1Pe.s 			page 49


 2713              		.type	testmtx6, %object
 2714              		.size	testmtx6, 16
 2715              	testmtx6:
 2716 0000 C8000000 		.word	.LC12
 2717 0004 00000000 		.word	mtx6_setup
 2718 0008 00000000 		.word	0
 2719 000c 00000000 		.word	mtx6_execute
 2720              		.section	.text.mtx7_setup,"ax",%progbits
 2721              		.align	1
 2722              		.p2align 4,,15
 2723              		.syntax unified
 2724              		.thumb
 2725              		.thumb_func
 2726              		.fpu fpv4-sp-d16
 2727              		.type	mtx7_setup, %function
 2728              	mtx7_setup:
 2729              	.LFB243:
 2730              		.loc 7 520 0
 2731              		.cfi_startproc
 2732              		@ args = 0, pretend = 0, frame = 8
 2733              		@ frame_needed = 0, uses_anonymous_args = 0
 2734 0000 00B5     		push	{lr}
 2735              		.cfi_def_cfa_offset 4
 2736              		.cfi_offset 14, -4
 2737 0002 83B0     		sub	sp, sp, #12
 2738              		.cfi_def_cfa_offset 16
 2739              		.loc 7 520 0
 2740 0004 094B     		ldr	r3, .L185
 2741 0006 1B68     		ldr	r3, [r3]
 2742 0008 0193     		str	r3, [sp, #4]
 2743              		.loc 7 522 0
 2744 000a 0948     		ldr	r0, .L185+4
 2745 000c FFF7FEFF 		bl	chCondObjectInit
 2746              		.loc 7 523 0
 2747 0010 0848     		ldr	r0, .L185+8
 2748 0012 FFF7FEFF 		bl	chMtxObjectInit
 2749              		.loc 7 524 0
 2750 0016 00BF     		nop
 2751 0018 044B     		ldr	r3, .L185
 2752 001a 019A     		ldr	r2, [sp, #4]
 2753 001c 1B68     		ldr	r3, [r3]
 2754 001e 9A42     		cmp	r2, r3
 2755 0020 01D0     		beq	.L184
 2756 0022 FFF7FEFF 		bl	__stack_chk_fail
 2757              	.L184:
 2758 0026 03B0     		add	sp, sp, #12
 2759              		.cfi_def_cfa_offset 4
 2760              		@ sp needed
 2761 0028 5DF804FB 		ldr	pc, [sp], #4
 2762              	.L186:
 2763              		.align	2
 2764              	.L185:
 2765 002c 00000000 		.word	__stack_chk_guard
 2766 0030 00000000 		.word	c1
 2767 0034 00000000 		.word	m1
 2768              		.cfi_endproc
 2769              	.LFE243:
ARM GAS  C:\Users\PCHAUT~1\AppData\Local\Temp\cc4us1Pe.s 			page 50


 2770              		.size	mtx7_setup, .-mtx7_setup
 2771              		.section	.text.mtx7_execute,"ax",%progbits
 2772              		.align	1
 2773              		.p2align 4,,15
 2774              		.syntax unified
 2775              		.thumb
 2776              		.thumb_func
 2777              		.fpu fpv4-sp-d16
 2778              		.type	mtx7_execute, %function
 2779              	mtx7_execute:
 2780              	.LFB244:
 2781              		.loc 7 526 0
 2782              		.cfi_startproc
 2783              		@ args = 0, pretend = 0, frame = 8
 2784              		@ frame_needed = 0, uses_anonymous_args = 0
 2785 0000 00B5     		push	{lr}
 2786              		.cfi_def_cfa_offset 4
 2787              		.cfi_offset 14, -4
 2788 0002 85B0     		sub	sp, sp, #20
 2789              		.cfi_def_cfa_offset 24
 2790              		.loc 7 526 0
 2791 0004 304B     		ldr	r3, .L190
 2792 0006 1B68     		ldr	r3, [r3]
 2793 0008 0393     		str	r3, [sp, #12]
 2794              		.loc 7 528 0
 2795 000a FFF7FEFF 		bl	chThdGetPriorityX
 2796 000e 0290     		str	r0, [sp, #8]
 2797              		.loc 7 529 0
 2798 0010 2E4B     		ldr	r3, .L190+4
 2799 0012 1868     		ldr	r0, [r3]
 2800 0014 029B     		ldr	r3, [sp, #8]
 2801 0016 5A1C     		adds	r2, r3, #1
 2802 0018 2D4B     		ldr	r3, .L190+8
 2803 001a 0093     		str	r3, [sp]
 2804 001c 2D4B     		ldr	r3, .L190+12
 2805 001e 4FF4FC71 		mov	r1, #504
 2806 0022 FFF7FEFF 		bl	chThdCreateStatic
 2807 0026 0246     		mov	r2, r0
 2808 0028 2B4B     		ldr	r3, .L190+16
 2809 002a 1A60     		str	r2, [r3]
 2810              		.loc 7 530 0
 2811 002c 274B     		ldr	r3, .L190+4
 2812 002e 5868     		ldr	r0, [r3, #4]
 2813 0030 029B     		ldr	r3, [sp, #8]
 2814 0032 9A1C     		adds	r2, r3, #2
 2815 0034 294B     		ldr	r3, .L190+20
 2816 0036 0093     		str	r3, [sp]
 2817 0038 264B     		ldr	r3, .L190+12
 2818 003a 4FF4FC71 		mov	r1, #504
 2819 003e FFF7FEFF 		bl	chThdCreateStatic
 2820 0042 0246     		mov	r2, r0
 2821 0044 244B     		ldr	r3, .L190+16
 2822 0046 5A60     		str	r2, [r3, #4]
 2823              		.loc 7 531 0
 2824 0048 204B     		ldr	r3, .L190+4
 2825 004a 9868     		ldr	r0, [r3, #8]
 2826 004c 029B     		ldr	r3, [sp, #8]
ARM GAS  C:\Users\PCHAUT~1\AppData\Local\Temp\cc4us1Pe.s 			page 51


 2827 004e DA1C     		adds	r2, r3, #3
 2828 0050 234B     		ldr	r3, .L190+24
 2829 0052 0093     		str	r3, [sp]
 2830 0054 1F4B     		ldr	r3, .L190+12
 2831 0056 4FF4FC71 		mov	r1, #504
 2832 005a FFF7FEFF 		bl	chThdCreateStatic
 2833 005e 0246     		mov	r2, r0
 2834 0060 1D4B     		ldr	r3, .L190+16
 2835 0062 9A60     		str	r2, [r3, #8]
 2836              		.loc 7 532 0
 2837 0064 194B     		ldr	r3, .L190+4
 2838 0066 D868     		ldr	r0, [r3, #12]
 2839 0068 029B     		ldr	r3, [sp, #8]
 2840 006a 1A1D     		adds	r2, r3, #4
 2841 006c 1D4B     		ldr	r3, .L190+28
 2842 006e 0093     		str	r3, [sp]
 2843 0070 184B     		ldr	r3, .L190+12
 2844 0072 4FF4FC71 		mov	r1, #504
 2845 0076 FFF7FEFF 		bl	chThdCreateStatic
 2846 007a 0246     		mov	r2, r0
 2847 007c 164B     		ldr	r3, .L190+16
 2848 007e DA60     		str	r2, [r3, #12]
 2849              		.loc 7 533 0
 2850 0080 124B     		ldr	r3, .L190+4
 2851 0082 1869     		ldr	r0, [r3, #16]
 2852 0084 029B     		ldr	r3, [sp, #8]
 2853 0086 5A1D     		adds	r2, r3, #5
 2854 0088 174B     		ldr	r3, .L190+32
 2855 008a 0093     		str	r3, [sp]
 2856 008c 114B     		ldr	r3, .L190+12
 2857 008e 4FF4FC71 		mov	r1, #504
 2858 0092 FFF7FEFF 		bl	chThdCreateStatic
 2859 0096 0246     		mov	r2, r0
 2860 0098 0F4B     		ldr	r3, .L190+16
 2861 009a 1A61     		str	r2, [r3, #16]
 2862              		.loc 7 534 0
 2863 009c 1348     		ldr	r0, .L190+36
 2864 009e FFF7FEFF 		bl	chCondBroadcast
 2865              		.loc 7 535 0
 2866 00a2 FFF7FEFF 		bl	test_wait_threads
 2867              		.loc 7 536 0
 2868 00a6 1249     		ldr	r1, .L190+40
 2869 00a8 0120     		movs	r0, #1
 2870 00aa FFF7FEFF 		bl	_test_assert_sequence
 2871 00ae 0346     		mov	r3, r0
 2872 00b0 002B     		cmp	r3, #0
 2873              		.loc 7 537 0
 2874 00b2 054B     		ldr	r3, .L190
 2875 00b4 039A     		ldr	r2, [sp, #12]
 2876 00b6 1B68     		ldr	r3, [r3]
 2877 00b8 9A42     		cmp	r2, r3
 2878 00ba 01D0     		beq	.L189
 2879 00bc FFF7FEFF 		bl	__stack_chk_fail
 2880              	.L189:
 2881 00c0 05B0     		add	sp, sp, #20
 2882              		.cfi_def_cfa_offset 4
 2883              		@ sp needed
ARM GAS  C:\Users\PCHAUT~1\AppData\Local\Temp\cc4us1Pe.s 			page 52


 2884 00c2 5DF804FB 		ldr	pc, [sp], #4
 2885              	.L191:
 2886 00c6 00BF     		.align	2
 2887              	.L190:
 2888 00c8 00000000 		.word	__stack_chk_guard
 2889 00cc 00000000 		.word	wa
 2890 00d0 00000000 		.word	.LC0
 2891 00d4 00000000 		.word	thread10
 2892 00d8 00000000 		.word	threads
 2893 00dc 04000000 		.word	.LC1
 2894 00e0 08000000 		.word	.LC2
 2895 00e4 0C000000 		.word	.LC3
 2896 00e8 10000000 		.word	.LC4
 2897 00ec 00000000 		.word	c1
 2898 00f0 14000000 		.word	.LC5
 2899              		.cfi_endproc
 2900              	.LFE244:
 2901              		.size	mtx7_execute, .-mtx7_execute
 2902              		.global	testmtx7
 2903              		.section	.rodata
 2904 00dd 000000   		.align	2
 2905              	.LC13:
 2906 00e0 436F6E64 		.ascii	"CondVar, broadcast test\000"
 2906      5661722C 
 2906      2062726F 
 2906      61646361 
 2906      73742074 
 2907              		.section	.rodata.testmtx7,"a",%progbits
 2908              		.align	2
 2909              		.type	testmtx7, %object
 2910              		.size	testmtx7, 16
 2911              	testmtx7:
 2912 0000 E0000000 		.word	.LC13
 2913 0004 00000000 		.word	mtx7_setup
 2914 0008 00000000 		.word	0
 2915 000c 00000000 		.word	mtx7_execute
 2916              		.section	.text.mtx8_setup,"ax",%progbits
 2917              		.align	1
 2918              		.p2align 4,,15
 2919              		.syntax unified
 2920              		.thumb
 2921              		.thumb_func
 2922              		.fpu fpv4-sp-d16
 2923              		.type	mtx8_setup, %function
 2924              	mtx8_setup:
 2925              	.LFB245:
 2926              		.loc 7 555 0
 2927              		.cfi_startproc
 2928              		@ args = 0, pretend = 0, frame = 8
 2929              		@ frame_needed = 0, uses_anonymous_args = 0
 2930 0000 00B5     		push	{lr}
 2931              		.cfi_def_cfa_offset 4
 2932              		.cfi_offset 14, -4
 2933 0002 83B0     		sub	sp, sp, #12
 2934              		.cfi_def_cfa_offset 16
 2935              		.loc 7 555 0
 2936 0004 0B4B     		ldr	r3, .L194
ARM GAS  C:\Users\PCHAUT~1\AppData\Local\Temp\cc4us1Pe.s 			page 53


 2937 0006 1B68     		ldr	r3, [r3]
 2938 0008 0193     		str	r3, [sp, #4]
 2939              		.loc 7 557 0
 2940 000a 0B48     		ldr	r0, .L194+4
 2941 000c FFF7FEFF 		bl	chCondObjectInit
 2942              		.loc 7 558 0
 2943 0010 0A48     		ldr	r0, .L194+8
 2944 0012 FFF7FEFF 		bl	chMtxObjectInit
 2945              		.loc 7 559 0
 2946 0016 0A48     		ldr	r0, .L194+12
 2947 0018 FFF7FEFF 		bl	chMtxObjectInit
 2948              		.loc 7 560 0
 2949 001c 00BF     		nop
 2950 001e 054B     		ldr	r3, .L194
 2951 0020 019A     		ldr	r2, [sp, #4]
 2952 0022 1B68     		ldr	r3, [r3]
 2953 0024 9A42     		cmp	r2, r3
 2954 0026 01D0     		beq	.L193
 2955 0028 FFF7FEFF 		bl	__stack_chk_fail
 2956              	.L193:
 2957 002c 03B0     		add	sp, sp, #12
 2958              		.cfi_def_cfa_offset 4
 2959              		@ sp needed
 2960 002e 5DF804FB 		ldr	pc, [sp], #4
 2961              	.L195:
 2962 0032 00BF     		.align	2
 2963              	.L194:
 2964 0034 00000000 		.word	__stack_chk_guard
 2965 0038 00000000 		.word	c1
 2966 003c 00000000 		.word	m1
 2967 0040 00000000 		.word	m2
 2968              		.cfi_endproc
 2969              	.LFE245:
 2970              		.size	mtx8_setup, .-mtx8_setup
 2971              		.section	.text.thread11,"ax",%progbits
 2972              		.align	1
 2973              		.p2align 4,,15
 2974              		.syntax unified
 2975              		.thumb
 2976              		.thumb_func
 2977              		.fpu fpv4-sp-d16
 2978              		.type	thread11, %function
 2979              	thread11:
 2980              	.LFB246:
 2981              		.loc 7 562 0
 2982              		.cfi_startproc
 2983              		@ args = 0, pretend = 0, frame = 16
 2984              		@ frame_needed = 0, uses_anonymous_args = 0
 2985 0000 00B5     		push	{lr}
 2986              		.cfi_def_cfa_offset 4
 2987              		.cfi_offset 14, -4
 2988 0002 85B0     		sub	sp, sp, #20
 2989              		.cfi_def_cfa_offset 24
 2990 0004 0190     		str	r0, [sp, #4]
 2991              		.loc 7 562 0
 2992 0006 124B     		ldr	r3, .L198
 2993 0008 1B68     		ldr	r3, [r3]
ARM GAS  C:\Users\PCHAUT~1\AppData\Local\Temp\cc4us1Pe.s 			page 54


 2994 000a 0393     		str	r3, [sp, #12]
 2995              		.loc 7 564 0
 2996 000c 1148     		ldr	r0, .L198+4
 2997 000e FFF7FEFF 		bl	chMtxLock
 2998              		.loc 7 565 0
 2999 0012 1148     		ldr	r0, .L198+8
 3000 0014 FFF7FEFF 		bl	chMtxLock
 3001              		.loc 7 567 0
 3002 0018 4FF0FF31 		mov	r1, #-1
 3003 001c 0F48     		ldr	r0, .L198+12
 3004 001e FFF7FEFF 		bl	chCondWaitTimeout
 3005              		.loc 7 571 0
 3006 0022 019B     		ldr	r3, [sp, #4]
 3007 0024 1B78     		ldrb	r3, [r3]	@ zero_extendqisi2
 3008 0026 1846     		mov	r0, r3
 3009 0028 FFF7FEFF 		bl	test_emit_token
 3010              		.loc 7 572 0
 3011 002c 0A48     		ldr	r0, .L198+8
 3012 002e FFF7FEFF 		bl	chMtxUnlock
 3013              		.loc 7 573 0
 3014 0032 0848     		ldr	r0, .L198+4
 3015 0034 FFF7FEFF 		bl	chMtxUnlock
 3016              		.loc 7 574 0
 3017 0038 00BF     		nop
 3018 003a 054B     		ldr	r3, .L198
 3019 003c 039A     		ldr	r2, [sp, #12]
 3020 003e 1B68     		ldr	r3, [r3]
 3021 0040 9A42     		cmp	r2, r3
 3022 0042 01D0     		beq	.L197
 3023 0044 FFF7FEFF 		bl	__stack_chk_fail
 3024              	.L197:
 3025 0048 05B0     		add	sp, sp, #20
 3026              		.cfi_def_cfa_offset 4
 3027              		@ sp needed
 3028 004a 5DF804FB 		ldr	pc, [sp], #4
 3029              	.L199:
 3030 004e 00BF     		.align	2
 3031              	.L198:
 3032 0050 00000000 		.word	__stack_chk_guard
 3033 0054 00000000 		.word	m2
 3034 0058 00000000 		.word	m1
 3035 005c 00000000 		.word	c1
 3036              		.cfi_endproc
 3037              	.LFE246:
 3038              		.size	thread11, .-thread11
 3039              		.section	.text.thread12,"ax",%progbits
 3040              		.align	1
 3041              		.p2align 4,,15
 3042              		.syntax unified
 3043              		.thumb
 3044              		.thumb_func
 3045              		.fpu fpv4-sp-d16
 3046              		.type	thread12, %function
 3047              	thread12:
 3048              	.LFB247:
 3049              		.loc 7 576 0
 3050              		.cfi_startproc
ARM GAS  C:\Users\PCHAUT~1\AppData\Local\Temp\cc4us1Pe.s 			page 55


 3051              		@ args = 0, pretend = 0, frame = 16
 3052              		@ frame_needed = 0, uses_anonymous_args = 0
 3053 0000 00B5     		push	{lr}
 3054              		.cfi_def_cfa_offset 4
 3055              		.cfi_offset 14, -4
 3056 0002 85B0     		sub	sp, sp, #20
 3057              		.cfi_def_cfa_offset 24
 3058 0004 0190     		str	r0, [sp, #4]
 3059              		.loc 7 576 0
 3060 0006 0C4B     		ldr	r3, .L202
 3061 0008 1B68     		ldr	r3, [r3]
 3062 000a 0393     		str	r3, [sp, #12]
 3063              		.loc 7 578 0
 3064 000c 0B48     		ldr	r0, .L202+4
 3065 000e FFF7FEFF 		bl	chMtxLock
 3066              		.loc 7 579 0
 3067 0012 019B     		ldr	r3, [sp, #4]
 3068 0014 1B78     		ldrb	r3, [r3]	@ zero_extendqisi2
 3069 0016 1846     		mov	r0, r3
 3070 0018 FFF7FEFF 		bl	test_emit_token
 3071              		.loc 7 580 0
 3072 001c 0748     		ldr	r0, .L202+4
 3073 001e FFF7FEFF 		bl	chMtxUnlock
 3074              		.loc 7 581 0
 3075 0022 00BF     		nop
 3076 0024 044B     		ldr	r3, .L202
 3077 0026 039A     		ldr	r2, [sp, #12]
 3078 0028 1B68     		ldr	r3, [r3]
 3079 002a 9A42     		cmp	r2, r3
 3080 002c 01D0     		beq	.L201
 3081 002e FFF7FEFF 		bl	__stack_chk_fail
 3082              	.L201:
 3083 0032 05B0     		add	sp, sp, #20
 3084              		.cfi_def_cfa_offset 4
 3085              		@ sp needed
 3086 0034 5DF804FB 		ldr	pc, [sp], #4
 3087              	.L203:
 3088              		.align	2
 3089              	.L202:
 3090 0038 00000000 		.word	__stack_chk_guard
 3091 003c 00000000 		.word	m2
 3092              		.cfi_endproc
 3093              	.LFE247:
 3094              		.size	thread12, .-thread12
 3095              		.section	.text.mtx8_execute,"ax",%progbits
 3096              		.align	1
 3097              		.p2align 4,,15
 3098              		.syntax unified
 3099              		.thumb
 3100              		.thumb_func
 3101              		.fpu fpv4-sp-d16
 3102              		.type	mtx8_execute, %function
 3103              	mtx8_execute:
 3104              	.LFB248:
 3105              		.loc 7 583 0
 3106              		.cfi_startproc
 3107              		@ args = 0, pretend = 0, frame = 8
ARM GAS  C:\Users\PCHAUT~1\AppData\Local\Temp\cc4us1Pe.s 			page 56


 3108              		@ frame_needed = 0, uses_anonymous_args = 0
 3109 0000 00B5     		push	{lr}
 3110              		.cfi_def_cfa_offset 4
 3111              		.cfi_offset 14, -4
 3112 0002 85B0     		sub	sp, sp, #20
 3113              		.cfi_def_cfa_offset 24
 3114              		.loc 7 583 0
 3115 0004 234B     		ldr	r3, .L207
 3116 0006 1B68     		ldr	r3, [r3]
 3117 0008 0393     		str	r3, [sp, #12]
 3118              		.loc 7 585 0
 3119 000a FFF7FEFF 		bl	chThdGetPriorityX
 3120 000e 0290     		str	r0, [sp, #8]
 3121              		.loc 7 586 0
 3122 0010 214B     		ldr	r3, .L207+4
 3123 0012 1868     		ldr	r0, [r3]
 3124 0014 029B     		ldr	r3, [sp, #8]
 3125 0016 5A1C     		adds	r2, r3, #1
 3126 0018 204B     		ldr	r3, .L207+8
 3127 001a 0093     		str	r3, [sp]
 3128 001c 204B     		ldr	r3, .L207+12
 3129 001e 4FF4FC71 		mov	r1, #504
 3130 0022 FFF7FEFF 		bl	chThdCreateStatic
 3131 0026 0246     		mov	r2, r0
 3132 0028 1E4B     		ldr	r3, .L207+16
 3133 002a 1A60     		str	r2, [r3]
 3134              		.loc 7 587 0
 3135 002c 1A4B     		ldr	r3, .L207+4
 3136 002e 5868     		ldr	r0, [r3, #4]
 3137 0030 029B     		ldr	r3, [sp, #8]
 3138 0032 9A1C     		adds	r2, r3, #2
 3139 0034 1C4B     		ldr	r3, .L207+20
 3140 0036 0093     		str	r3, [sp]
 3141 0038 1C4B     		ldr	r3, .L207+24
 3142 003a 4FF4FC71 		mov	r1, #504
 3143 003e FFF7FEFF 		bl	chThdCreateStatic
 3144 0042 0246     		mov	r2, r0
 3145 0044 174B     		ldr	r3, .L207+16
 3146 0046 5A60     		str	r2, [r3, #4]
 3147              		.loc 7 588 0
 3148 0048 134B     		ldr	r3, .L207+4
 3149 004a 9868     		ldr	r0, [r3, #8]
 3150 004c 029B     		ldr	r3, [sp, #8]
 3151 004e DA1C     		adds	r2, r3, #3
 3152 0050 174B     		ldr	r3, .L207+28
 3153 0052 0093     		str	r3, [sp]
 3154 0054 174B     		ldr	r3, .L207+32
 3155 0056 4FF4FC71 		mov	r1, #504
 3156 005a FFF7FEFF 		bl	chThdCreateStatic
 3157 005e 0246     		mov	r2, r0
 3158 0060 104B     		ldr	r3, .L207+16
 3159 0062 9A60     		str	r2, [r3, #8]
 3160              		.loc 7 589 0
 3161 0064 1448     		ldr	r0, .L207+36
 3162 0066 FFF7FEFF 		bl	chCondSignal
 3163              		.loc 7 590 0
 3164 006a 1348     		ldr	r0, .L207+36
ARM GAS  C:\Users\PCHAUT~1\AppData\Local\Temp\cc4us1Pe.s 			page 57


 3165 006c FFF7FEFF 		bl	chCondSignal
 3166              		.loc 7 591 0
 3167 0070 FFF7FEFF 		bl	test_wait_threads
 3168              		.loc 7 592 0
 3169 0074 1149     		ldr	r1, .L207+40
 3170 0076 0120     		movs	r0, #1
 3171 0078 FFF7FEFF 		bl	_test_assert_sequence
 3172 007c 0346     		mov	r3, r0
 3173 007e 002B     		cmp	r3, #0
 3174              		.loc 7 593 0
 3175 0080 044B     		ldr	r3, .L207
 3176 0082 039A     		ldr	r2, [sp, #12]
 3177 0084 1B68     		ldr	r3, [r3]
 3178 0086 9A42     		cmp	r2, r3
 3179 0088 01D0     		beq	.L206
 3180 008a FFF7FEFF 		bl	__stack_chk_fail
 3181              	.L206:
 3182 008e 05B0     		add	sp, sp, #20
 3183              		.cfi_def_cfa_offset 4
 3184              		@ sp needed
 3185 0090 5DF804FB 		ldr	pc, [sp], #4
 3186              	.L208:
 3187              		.align	2
 3188              	.L207:
 3189 0094 00000000 		.word	__stack_chk_guard
 3190 0098 00000000 		.word	wa
 3191 009c 10000000 		.word	.LC4
 3192 00a0 00000000 		.word	thread11
 3193 00a4 00000000 		.word	threads
 3194 00a8 08000000 		.word	.LC2
 3195 00ac 00000000 		.word	thread10
 3196 00b0 0C000000 		.word	.LC3
 3197 00b4 00000000 		.word	thread12
 3198 00b8 00000000 		.word	c1
 3199 00bc 40000000 		.word	.LC7
 3200              		.cfi_endproc
 3201              	.LFE248:
 3202              		.size	mtx8_execute, .-mtx8_execute
 3203              		.global	testmtx8
 3204              		.section	.rodata
 3205              		.align	2
 3206              	.LC14:
 3207 00f8 436F6E64 		.ascii	"CondVar, boost test\000"
 3207      5661722C 
 3207      20626F6F 
 3207      73742074 
 3207      65737400 
 3208              		.section	.rodata.testmtx8,"a",%progbits
 3209              		.align	2
 3210              		.type	testmtx8, %object
 3211              		.size	testmtx8, 16
 3212              	testmtx8:
 3213 0000 F8000000 		.word	.LC14
 3214 0004 00000000 		.word	mtx8_setup
 3215 0008 00000000 		.word	0
 3216 000c 00000000 		.word	mtx8_execute
 3217              		.global	patternmtx
ARM GAS  C:\Users\PCHAUT~1\AppData\Local\Temp\cc4us1Pe.s 			page 58


 3218              		.section	.rodata.patternmtx,"a",%progbits
 3219              		.align	2
 3220              		.type	patternmtx, %object
 3221              		.size	patternmtx, 36
 3222              	patternmtx:
 3223 0000 00000000 		.word	testmtx1
 3224 0004 00000000 		.word	testmtx2
 3225 0008 00000000 		.word	testmtx3
 3226 000c 00000000 		.word	testmtx4
 3227 0010 00000000 		.word	testmtx5
 3228 0014 00000000 		.word	testmtx6
 3229 0018 00000000 		.word	testmtx7
 3230 001c 00000000 		.word	testmtx8
 3231 0020 00000000 		.word	0
 3232              		.section	.rodata.__func__.7153,"a",%progbits
 3233              		.align	2
 3234              		.type	__func__.7153, %object
 3235              		.size	__func__.7153, 12
 3236              	__func__.7153:
 3237 0000 63685379 		.ascii	"chSysUnlock\000"
 3237      73556E6C 
 3237      6F636B00 
 3238              		.text
 3239              	.Letext0:
 3240              		.file 8 "c:\\users\\pchautems\\documents\\robotiquetp\\eclipse_e-puck2\\tools\\gcc-arm-none-eabi-7
 3241              		.file 9 "c:\\users\\pchautems\\documents\\robotiquetp\\eclipse_e-puck2\\tools\\gcc-arm-none-eabi-7
 3242              		.file 10 "c:\\users\\pchautems\\documents\\robotiquetp\\eclipse_e-puck2\\tools\\gcc-arm-none-eabi-
 3243              		.file 11 "../lib/e-puck2_main-processor/ChibiOS//os/rt/ports/ARMCMx/compilers/GCC/chtypes.h"
 3244              		.file 12 "../lib/e-puck2_main-processor/ChibiOS//os/rt/include/chsystypes.h"
 3245              		.file 13 "../lib/e-puck2_main-processor/ChibiOS//os/ext/CMSIS/include/core_cm4.h"
 3246              		.file 14 "../lib/e-puck2_main-processor/ChibiOS//os/ext/CMSIS/ST/system_stm32f4xx.h"
 3247              		.file 15 "../lib/e-puck2_main-processor/ChibiOS//os/rt/ports/ARMCMx/chcore.h"
 3248              		.file 16 "../lib/e-puck2_main-processor/ChibiOS//os/rt/include/chdebug.h"
 3249              		.file 17 "../lib/e-puck2_main-processor/ChibiOS//os/rt/include/chtm.h"
 3250              		.file 18 "../lib/e-puck2_main-processor/ChibiOS//os/rt/include/chstats.h"
 3251              		.file 19 "../lib/e-puck2_main-processor/ChibiOS//os/rt/include/chsem.h"
 3252              		.file 20 "../lib/e-puck2_main-processor/ChibiOS//os/rt/include/chmtx.h"
 3253              		.file 21 "../lib/e-puck2_main-processor/ChibiOS//os/rt/include/chregistry.h"
 3254              		.file 22 "../lib/e-puck2_main-processor/ChibiOS//os/rt/include/chcond.h"
 3255              		.file 23 "../lib/e-puck2_main-processor/ChibiOS//test/rt/test.h"
 3256              		.section	.debug_info,"",%progbits
 3257              	.Ldebug_info0:
 3258 0000 46110000 		.4byte	0x1146
 3259 0004 0400     		.2byte	0x4
 3260 0006 00000000 		.4byte	.Ldebug_abbrev0
 3261 000a 04       		.byte	0x4
 3262 000b 01       		.uleb128 0x1
 3263 000c 62050000 		.4byte	.LASF222
 3264 0010 0C       		.byte	0xc
 3265 0011 A4020000 		.4byte	.LASF223
 3266 0015 FB060000 		.4byte	.LASF224
 3267 0019 00000000 		.4byte	.Ldebug_ranges0+0
 3268 001d 00000000 		.4byte	0
 3269 0021 00000000 		.4byte	.Ldebug_line0
 3270 0025 02       		.uleb128 0x2
 3271 0026 04       		.byte	0x4
 3272 0027 05       		.byte	0x5
ARM GAS  C:\Users\PCHAUT~1\AppData\Local\Temp\cc4us1Pe.s 			page 59


 3273 0028 696E7400 		.ascii	"int\000"
 3274 002c 03       		.uleb128 0x3
 3275 002d 08000000 		.4byte	.LASF4
 3276 0031 08       		.byte	0x8
 3277 0032 D8       		.byte	0xd8
 3278 0033 37000000 		.4byte	0x37
 3279 0037 04       		.uleb128 0x4
 3280 0038 04       		.byte	0x4
 3281 0039 07       		.byte	0x7
 3282 003a DE060000 		.4byte	.LASF0
 3283 003e 04       		.uleb128 0x4
 3284 003f 08       		.byte	0x8
 3285 0040 05       		.byte	0x5
 3286 0041 16050000 		.4byte	.LASF1
 3287 0045 04       		.uleb128 0x4
 3288 0046 08       		.byte	0x8
 3289 0047 04       		.byte	0x4
 3290 0048 A6070000 		.4byte	.LASF2
 3291 004c 04       		.uleb128 0x4
 3292 004d 01       		.byte	0x1
 3293 004e 06       		.byte	0x6
 3294 004f 42020000 		.4byte	.LASF3
 3295 0053 03       		.uleb128 0x3
 3296 0054 58010000 		.4byte	.LASF5
 3297 0058 09       		.byte	0x9
 3298 0059 2B       		.byte	0x2b
 3299 005a 5E000000 		.4byte	0x5e
 3300 005e 04       		.uleb128 0x4
 3301 005f 01       		.byte	0x1
 3302 0060 08       		.byte	0x8
 3303 0061 8C020000 		.4byte	.LASF6
 3304 0065 04       		.uleb128 0x4
 3305 0066 02       		.byte	0x2
 3306 0067 05       		.byte	0x5
 3307 0068 64090000 		.4byte	.LASF7
 3308 006c 03       		.uleb128 0x3
 3309 006d 2A030000 		.4byte	.LASF8
 3310 0071 09       		.byte	0x9
 3311 0072 39       		.byte	0x39
 3312 0073 77000000 		.4byte	0x77
 3313 0077 04       		.uleb128 0x4
 3314 0078 02       		.byte	0x2
 3315 0079 07       		.byte	0x7
 3316 007a 690A0000 		.4byte	.LASF9
 3317 007e 03       		.uleb128 0x3
 3318 007f A50A0000 		.4byte	.LASF10
 3319 0083 09       		.byte	0x9
 3320 0084 4D       		.byte	0x4d
 3321 0085 89000000 		.4byte	0x89
 3322 0089 04       		.uleb128 0x4
 3323 008a 04       		.byte	0x4
 3324 008b 05       		.byte	0x5
 3325 008c 99010000 		.4byte	.LASF11
 3326 0090 03       		.uleb128 0x3
 3327 0091 0B050000 		.4byte	.LASF12
 3328 0095 09       		.byte	0x9
 3329 0096 4F       		.byte	0x4f
ARM GAS  C:\Users\PCHAUT~1\AppData\Local\Temp\cc4us1Pe.s 			page 60


 3330 0097 9B000000 		.4byte	0x9b
 3331 009b 04       		.uleb128 0x4
 3332 009c 04       		.byte	0x4
 3333 009d 07       		.byte	0x7
 3334 009e 22040000 		.4byte	.LASF13
 3335 00a2 03       		.uleb128 0x3
 3336 00a3 0B040000 		.4byte	.LASF14
 3337 00a7 09       		.byte	0x9
 3338 00a8 69       		.byte	0x69
 3339 00a9 AD000000 		.4byte	0xad
 3340 00ad 04       		.uleb128 0x4
 3341 00ae 08       		.byte	0x8
 3342 00af 07       		.byte	0x7
 3343 00b0 48080000 		.4byte	.LASF15
 3344 00b4 03       		.uleb128 0x3
 3345 00b5 58020000 		.4byte	.LASF16
 3346 00b9 0A       		.byte	0xa
 3347 00ba 18       		.byte	0x18
 3348 00bb 53000000 		.4byte	0x53
 3349 00bf 03       		.uleb128 0x3
 3350 00c0 67080000 		.4byte	.LASF17
 3351 00c4 0A       		.byte	0xa
 3352 00c5 24       		.byte	0x24
 3353 00c6 6C000000 		.4byte	0x6c
 3354 00ca 03       		.uleb128 0x3
 3355 00cb 79000000 		.4byte	.LASF18
 3356 00cf 0A       		.byte	0xa
 3357 00d0 2C       		.byte	0x2c
 3358 00d1 7E000000 		.4byte	0x7e
 3359 00d5 05       		.uleb128 0x5
 3360 00d6 CA000000 		.4byte	0xca
 3361 00da 03       		.uleb128 0x3
 3362 00db 590A0000 		.4byte	.LASF19
 3363 00df 0A       		.byte	0xa
 3364 00e0 30       		.byte	0x30
 3365 00e1 90000000 		.4byte	0x90
 3366 00e5 03       		.uleb128 0x3
 3367 00e6 6E090000 		.4byte	.LASF20
 3368 00ea 0A       		.byte	0xa
 3369 00eb 3C       		.byte	0x3c
 3370 00ec A2000000 		.4byte	0xa2
 3371 00f0 03       		.uleb128 0x3
 3372 00f1 EB060000 		.4byte	.LASF21
 3373 00f5 0B       		.byte	0xb
 3374 00f6 45       		.byte	0x45
 3375 00f7 DA000000 		.4byte	0xda
 3376 00fb 03       		.uleb128 0x3
 3377 00fc EC010000 		.4byte	.LASF22
 3378 0100 0B       		.byte	0xb
 3379 0101 46       		.byte	0x46
 3380 0102 E5000000 		.4byte	0xe5
 3381 0106 03       		.uleb128 0x3
 3382 0107 16090000 		.4byte	.LASF23
 3383 010b 0B       		.byte	0xb
 3384 010c 48       		.byte	0x48
 3385 010d B4000000 		.4byte	0xb4
 3386 0111 03       		.uleb128 0x3
ARM GAS  C:\Users\PCHAUT~1\AppData\Local\Temp\cc4us1Pe.s 			page 61


 3387 0112 E3010000 		.4byte	.LASF24
 3388 0116 0B       		.byte	0xb
 3389 0117 49       		.byte	0x49
 3390 0118 B4000000 		.4byte	0xb4
 3391 011c 03       		.uleb128 0x3
 3392 011d 280A0000 		.4byte	.LASF25
 3393 0121 0B       		.byte	0xb
 3394 0122 4A       		.byte	0x4a
 3395 0123 B4000000 		.4byte	0xb4
 3396 0127 03       		.uleb128 0x3
 3397 0128 9D080000 		.4byte	.LASF26
 3398 012c 0B       		.byte	0xb
 3399 012d 4B       		.byte	0x4b
 3400 012e B4000000 		.4byte	0xb4
 3401 0132 03       		.uleb128 0x3
 3402 0133 40000000 		.4byte	.LASF27
 3403 0137 0B       		.byte	0xb
 3404 0138 4C       		.byte	0x4c
 3405 0139 DA000000 		.4byte	0xda
 3406 013d 03       		.uleb128 0x3
 3407 013e 70080000 		.4byte	.LASF28
 3408 0142 0B       		.byte	0xb
 3409 0143 4D       		.byte	0x4d
 3410 0144 CA000000 		.4byte	0xca
 3411 0148 03       		.uleb128 0x3
 3412 0149 60020000 		.4byte	.LASF29
 3413 014d 0B       		.byte	0xb
 3414 014e 4F       		.byte	0x4f
 3415 014f DA000000 		.4byte	0xda
 3416 0153 03       		.uleb128 0x3
 3417 0154 7A030000 		.4byte	.LASF30
 3418 0158 0B       		.byte	0xb
 3419 0159 51       		.byte	0x51
 3420 015a CA000000 		.4byte	0xca
 3421 015e 03       		.uleb128 0x3
 3422 015f D0040000 		.4byte	.LASF31
 3423 0163 0B       		.byte	0xb
 3424 0164 52       		.byte	0x52
 3425 0165 DA000000 		.4byte	0xda
 3426 0169 03       		.uleb128 0x3
 3427 016a 22000000 		.4byte	.LASF32
 3428 016e 0C       		.byte	0xc
 3429 016f 33       		.byte	0x33
 3430 0170 DA000000 		.4byte	0xda
 3431 0174 05       		.uleb128 0x5
 3432 0175 69010000 		.4byte	0x169
 3433 0179 03       		.uleb128 0x3
 3434 017a 92070000 		.4byte	.LASF33
 3435 017e 0C       		.byte	0xc
 3436 017f 3F       		.byte	0x3f
 3437 0180 84010000 		.4byte	0x184
 3438 0184 06       		.uleb128 0x6
 3439 0185 85040000 		.4byte	.LASF57
 3440 0189 68       		.byte	0x68
 3441 018a 03       		.byte	0x3
 3442 018b C2       		.byte	0xc2
 3443 018c A2020000 		.4byte	0x2a2
ARM GAS  C:\Users\PCHAUT~1\AppData\Local\Temp\cc4us1Pe.s 			page 62


 3444 0190 07       		.uleb128 0x7
 3445 0191 A2010000 		.4byte	.LASF34
 3446 0195 03       		.byte	0x3
 3447 0196 C3       		.byte	0xc3
 3448 0197 AD020000 		.4byte	0x2ad
 3449 019b 00       		.byte	0
 3450 019c 07       		.uleb128 0x7
 3451 019d C2010000 		.4byte	.LASF35
 3452 01a1 03       		.byte	0x3
 3453 01a2 C5       		.byte	0xc5
 3454 01a3 AD020000 		.4byte	0x2ad
 3455 01a7 04       		.byte	0x4
 3456 01a8 07       		.uleb128 0x7
 3457 01a9 23030000 		.4byte	.LASF36
 3458 01ad 03       		.byte	0x3
 3459 01ae C7       		.byte	0xc7
 3460 01af 32010000 		.4byte	0x132
 3461 01b3 08       		.byte	0x8
 3462 01b4 07       		.uleb128 0x7
 3463 01b5 3A000000 		.4byte	.LASF37
 3464 01b9 03       		.byte	0x3
 3465 01ba C8       		.byte	0xc8
 3466 01bb 30050000 		.4byte	0x530
 3467 01bf 0C       		.byte	0xc
 3468 01c0 07       		.uleb128 0x7
 3469 01c1 88010000 		.4byte	.LASF38
 3470 01c5 03       		.byte	0x3
 3471 01c6 CA       		.byte	0xca
 3472 01c7 AD020000 		.4byte	0x2ad
 3473 01cb 10       		.byte	0x10
 3474 01cc 07       		.uleb128 0x7
 3475 01cd 5F080000 		.4byte	.LASF39
 3476 01d1 03       		.byte	0x3
 3477 01d2 CB       		.byte	0xcb
 3478 01d3 AD020000 		.4byte	0x2ad
 3479 01d7 14       		.byte	0x14
 3480 01d8 07       		.uleb128 0x7
 3481 01d9 C40A0000 		.4byte	.LASF40
 3482 01dd 03       		.byte	0x3
 3483 01de D2       		.byte	0xd2
 3484 01df A6080000 		.4byte	0x8a6
 3485 01e3 18       		.byte	0x18
 3486 01e4 07       		.uleb128 0x7
 3487 01e5 9A0A0000 		.4byte	.LASF41
 3488 01e9 03       		.byte	0x3
 3489 01ea D8       		.byte	0xd8
 3490 01eb BD080000 		.4byte	0x8bd
 3491 01ef 1C       		.byte	0x1c
 3492 01f0 07       		.uleb128 0x7
 3493 01f1 ED0A0000 		.4byte	.LASF42
 3494 01f5 03       		.byte	0x3
 3495 01f6 DD       		.byte	0xdd
 3496 01f7 11010000 		.4byte	0x111
 3497 01fb 20       		.byte	0x20
 3498 01fc 07       		.uleb128 0x7
 3499 01fd C7060000 		.4byte	.LASF43
 3500 0201 03       		.byte	0x3
ARM GAS  C:\Users\PCHAUT~1\AppData\Local\Temp\cc4us1Pe.s 			page 63


 3501 0202 E1       		.byte	0xe1
 3502 0203 06010000 		.4byte	0x106
 3503 0207 21       		.byte	0x21
 3504 0208 07       		.uleb128 0x7
 3505 0209 36070000 		.4byte	.LASF44
 3506 020d 03       		.byte	0x3
 3507 020e E6       		.byte	0xe6
 3508 020f 1C010000 		.4byte	0x11c
 3509 0213 22       		.byte	0x22
 3510 0214 07       		.uleb128 0x7
 3511 0215 4E020000 		.4byte	.LASF45
 3512 0219 03       		.byte	0x3
 3513 021a EC       		.byte	0xec
 3514 021b 27010000 		.4byte	0x127
 3515 021f 23       		.byte	0x23
 3516 0220 07       		.uleb128 0x7
 3517 0221 72070000 		.4byte	.LASF46
 3518 0225 03       		.byte	0x3
 3519 0226 F3       		.byte	0xf3
 3520 0227 74010000 		.4byte	0x174
 3521 022b 24       		.byte	0x24
 3522 022c 08       		.uleb128 0x8
 3523 022d 705F7500 		.ascii	"p_u\000"
 3524 0231 03       		.byte	0x3
 3525 0232 3101     		.2byte	0x131
 3526 0234 D5070000 		.4byte	0x7d5
 3527 0238 28       		.byte	0x28
 3528 0239 09       		.uleb128 0x9
 3529 023a B3060000 		.4byte	.LASF47
 3530 023e 03       		.byte	0x3
 3531 023f 3601     		.2byte	0x136
 3532 0241 B3020000 		.4byte	0x2b3
 3533 0245 2C       		.byte	0x2c
 3534 0246 09       		.uleb128 0x9
 3535 0247 68000000 		.4byte	.LASF48
 3536 024b 03       		.byte	0x3
 3537 024c 3C01     		.2byte	0x13c
 3538 024e D7020000 		.4byte	0x2d7
 3539 0252 30       		.byte	0x30
 3540 0253 09       		.uleb128 0x9
 3541 0254 E70A0000 		.4byte	.LASF49
 3542 0258 03       		.byte	0x3
 3543 0259 4001     		.2byte	0x140
 3544 025b 3D010000 		.4byte	0x13d
 3545 025f 38       		.byte	0x38
 3546 0260 09       		.uleb128 0x9
 3547 0261 A7030000 		.4byte	.LASF50
 3548 0265 03       		.byte	0x3
 3549 0266 4601     		.2byte	0x146
 3550 0268 48010000 		.4byte	0x148
 3551 026c 3C       		.byte	0x3c
 3552 026d 09       		.uleb128 0x9
 3553 026e 05020000 		.4byte	.LASF51
 3554 0272 03       		.byte	0x3
 3555 0273 4D01     		.2byte	0x14d
 3556 0275 A0080000 		.4byte	0x8a0
 3557 0279 40       		.byte	0x40
ARM GAS  C:\Users\PCHAUT~1\AppData\Local\Temp\cc4us1Pe.s 			page 64


 3558 027a 09       		.uleb128 0x9
 3559 027b D8070000 		.4byte	.LASF52
 3560 027f 03       		.byte	0x3
 3561 0280 5101     		.2byte	0x151
 3562 0282 32010000 		.4byte	0x132
 3563 0286 44       		.byte	0x44
 3564 0287 09       		.uleb128 0x9
 3565 0288 F3060000 		.4byte	.LASF53
 3566 028c 03       		.byte	0x3
 3567 028d 5801     		.2byte	0x158
 3568 028f 8F030000 		.4byte	0x38f
 3569 0293 48       		.byte	0x48
 3570 0294 09       		.uleb128 0x9
 3571 0295 00000000 		.4byte	.LASF54
 3572 0299 03       		.byte	0x3
 3573 029a 5E01     		.2byte	0x15e
 3574 029c 86070000 		.4byte	0x786
 3575 02a0 50       		.byte	0x50
 3576 02a1 00       		.byte	0
 3577 02a2 03       		.uleb128 0x3
 3578 02a3 B2070000 		.4byte	.LASF55
 3579 02a7 0C       		.byte	0xc
 3580 02a8 44       		.byte	0x44
 3581 02a9 AD020000 		.4byte	0x2ad
 3582 02ad 0A       		.uleb128 0xa
 3583 02ae 04       		.byte	0x4
 3584 02af 79010000 		.4byte	0x179
 3585 02b3 03       		.uleb128 0x3
 3586 02b4 400A0000 		.4byte	.LASF56
 3587 02b8 0C       		.byte	0xc
 3588 02b9 49       		.byte	0x49
 3589 02ba BE020000 		.4byte	0x2be
 3590 02be 06       		.uleb128 0x6
 3591 02bf D7040000 		.4byte	.LASF58
 3592 02c3 04       		.byte	0x4
 3593 02c4 03       		.byte	0x3
 3594 02c5 B0       		.byte	0xb0
 3595 02c6 D7020000 		.4byte	0x2d7
 3596 02ca 07       		.uleb128 0x7
 3597 02cb A2010000 		.4byte	.LASF34
 3598 02cf 03       		.byte	0x3
 3599 02d0 B1       		.byte	0xb1
 3600 02d1 AD020000 		.4byte	0x2ad
 3601 02d5 00       		.byte	0
 3602 02d6 00       		.byte	0
 3603 02d7 03       		.uleb128 0x3
 3604 02d8 F5010000 		.4byte	.LASF59
 3605 02dc 0C       		.byte	0xc
 3606 02dd 50       		.byte	0x50
 3607 02de E7020000 		.4byte	0x2e7
 3608 02e2 0B       		.uleb128 0xb
 3609 02e3 D7020000 		.4byte	0x2d7
 3610 02e7 06       		.uleb128 0x6
 3611 02e8 76080000 		.4byte	.LASF60
 3612 02ec 08       		.byte	0x8
 3613 02ed 03       		.byte	0x3
 3614 02ee B7       		.byte	0xb7
ARM GAS  C:\Users\PCHAUT~1\AppData\Local\Temp\cc4us1Pe.s 			page 65


 3615 02ef 0C030000 		.4byte	0x30c
 3616 02f3 07       		.uleb128 0x7
 3617 02f4 A2010000 		.4byte	.LASF34
 3618 02f8 03       		.byte	0x3
 3619 02f9 B8       		.byte	0xb8
 3620 02fa AD020000 		.4byte	0x2ad
 3621 02fe 00       		.byte	0
 3622 02ff 07       		.uleb128 0x7
 3623 0300 C2010000 		.4byte	.LASF35
 3624 0304 03       		.byte	0x3
 3625 0305 B9       		.byte	0xb9
 3626 0306 AD020000 		.4byte	0x2ad
 3627 030a 04       		.byte	0x4
 3628 030b 00       		.byte	0
 3629 030c 03       		.uleb128 0x3
 3630 030d B5040000 		.4byte	.LASF61
 3631 0311 0C       		.byte	0xc
 3632 0312 57       		.byte	0x57
 3633 0313 17030000 		.4byte	0x317
 3634 0317 0C       		.uleb128 0xc
 3635 0318 B9030000 		.4byte	.LASF62
 3636 031c 1C       		.byte	0x1c
 3637 031d 03       		.byte	0x3
 3638 031e 9001     		.2byte	0x190
 3639 0320 73030000 		.4byte	0x373
 3640 0324 09       		.uleb128 0x9
 3641 0325 F0080000 		.4byte	.LASF63
 3642 0329 03       		.byte	0x3
 3643 032a 9101     		.2byte	0x191
 3644 032c D7020000 		.4byte	0x2d7
 3645 0330 00       		.byte	0
 3646 0331 09       		.uleb128 0x9
 3647 0332 97090000 		.4byte	.LASF64
 3648 0336 03       		.byte	0x3
 3649 0337 9201     		.2byte	0x192
 3650 0339 32010000 		.4byte	0x132
 3651 033d 08       		.byte	0x8
 3652 033e 09       		.uleb128 0x9
 3653 033f 73000000 		.4byte	.LASF65
 3654 0343 03       		.byte	0x3
 3655 0344 9401     		.2byte	0x194
 3656 0346 30050000 		.4byte	0x530
 3657 034a 0C       		.byte	0xc
 3658 034b 09       		.uleb128 0x9
 3659 034c EA020000 		.4byte	.LASF66
 3660 0350 03       		.byte	0x3
 3661 0351 9701     		.2byte	0x197
 3662 0353 AD020000 		.4byte	0x2ad
 3663 0357 10       		.byte	0x10
 3664 0358 09       		.uleb128 0x9
 3665 0359 34090000 		.4byte	.LASF67
 3666 035d 03       		.byte	0x3
 3667 035e 9801     		.2byte	0x198
 3668 0360 AD020000 		.4byte	0x2ad
 3669 0364 14       		.byte	0x14
 3670 0365 09       		.uleb128 0x9
 3671 0366 A7080000 		.4byte	.LASF68
ARM GAS  C:\Users\PCHAUT~1\AppData\Local\Temp\cc4us1Pe.s 			page 66


 3672 036a 03       		.byte	0x3
 3673 036b 9B01     		.2byte	0x19b
 3674 036d AD020000 		.4byte	0x2ad
 3675 0371 18       		.byte	0x18
 3676 0372 00       		.byte	0
 3677 0373 03       		.uleb128 0x3
 3678 0374 8C000000 		.4byte	.LASF69
 3679 0378 0C       		.byte	0xc
 3680 0379 5C       		.byte	0x5c
 3681 037a 7E030000 		.4byte	0x37e
 3682 037e 0A       		.uleb128 0xa
 3683 037f 04       		.byte	0x4
 3684 0380 84030000 		.4byte	0x384
 3685 0384 0D       		.uleb128 0xd
 3686 0385 8F030000 		.4byte	0x38f
 3687 0389 0E       		.uleb128 0xe
 3688 038a 8F030000 		.4byte	0x38f
 3689 038e 00       		.byte	0
 3690 038f 0F       		.uleb128 0xf
 3691 0390 04       		.byte	0x4
 3692 0391 0B       		.uleb128 0xb
 3693 0392 8F030000 		.4byte	0x38f
 3694 0396 03       		.uleb128 0x3
 3695 0397 A5040000 		.4byte	.LASF70
 3696 039b 0C       		.byte	0xc
 3697 039c 61       		.byte	0x61
 3698 039d A1030000 		.4byte	0x3a1
 3699 03a1 0C       		.uleb128 0xc
 3700 03a2 11080000 		.4byte	.LASF71
 3701 03a6 14       		.byte	0x14
 3702 03a7 03       		.byte	0x3
 3703 03a8 6B01     		.2byte	0x16b
 3704 03aa F0030000 		.4byte	0x3f0
 3705 03ae 09       		.uleb128 0x9
 3706 03af 4A050000 		.4byte	.LASF72
 3707 03b3 03       		.byte	0x3
 3708 03b4 6C01     		.2byte	0x16c
 3709 03b6 C3080000 		.4byte	0x8c3
 3710 03ba 00       		.byte	0
 3711 03bb 09       		.uleb128 0x9
 3712 03bc 52050000 		.4byte	.LASF73
 3713 03c0 03       		.byte	0x3
 3714 03c1 6D01     		.2byte	0x16d
 3715 03c3 C3080000 		.4byte	0x8c3
 3716 03c7 04       		.byte	0x4
 3717 03c8 09       		.uleb128 0x9
 3718 03c9 FB070000 		.4byte	.LASF74
 3719 03cd 03       		.byte	0x3
 3720 03ce 6E01     		.2byte	0x16e
 3721 03d0 69010000 		.4byte	0x169
 3722 03d4 08       		.byte	0x8
 3723 03d5 09       		.uleb128 0x9
 3724 03d6 80030000 		.4byte	.LASF75
 3725 03da 03       		.byte	0x3
 3726 03db 6F01     		.2byte	0x16f
 3727 03dd 73030000 		.4byte	0x373
 3728 03e1 0C       		.byte	0xc
ARM GAS  C:\Users\PCHAUT~1\AppData\Local\Temp\cc4us1Pe.s 			page 67


 3729 03e2 09       		.uleb128 0x9
 3730 03e3 48010000 		.4byte	.LASF76
 3731 03e7 03       		.byte	0x3
 3732 03e8 7101     		.2byte	0x171
 3733 03ea 8F030000 		.4byte	0x38f
 3734 03ee 10       		.byte	0x10
 3735 03ef 00       		.byte	0
 3736 03f0 03       		.uleb128 0x3
 3737 03f1 8F040000 		.4byte	.LASF77
 3738 03f5 0C       		.byte	0xc
 3739 03f6 66       		.byte	0x66
 3740 03f7 FB030000 		.4byte	0x3fb
 3741 03fb 0C       		.uleb128 0xc
 3742 03fc 95000000 		.4byte	.LASF78
 3743 0400 10       		.byte	0x10
 3744 0401 03       		.byte	0x3
 3745 0402 7B01     		.2byte	0x17b
 3746 0404 3D040000 		.4byte	0x43d
 3747 0408 09       		.uleb128 0x9
 3748 0409 4A050000 		.4byte	.LASF72
 3749 040d 03       		.byte	0x3
 3750 040e 7C01     		.2byte	0x17c
 3751 0410 C3080000 		.4byte	0x8c3
 3752 0414 00       		.byte	0
 3753 0415 09       		.uleb128 0x9
 3754 0416 52050000 		.4byte	.LASF73
 3755 041a 03       		.byte	0x3
 3756 041b 7E01     		.2byte	0x17e
 3757 041d C3080000 		.4byte	0x8c3
 3758 0421 04       		.byte	0x4
 3759 0422 09       		.uleb128 0x9
 3760 0423 FB070000 		.4byte	.LASF74
 3761 0427 03       		.byte	0x3
 3762 0428 8001     		.2byte	0x180
 3763 042a 69010000 		.4byte	0x169
 3764 042e 08       		.byte	0x8
 3765 042f 09       		.uleb128 0x9
 3766 0430 29090000 		.4byte	.LASF79
 3767 0434 03       		.byte	0x3
 3768 0435 8201     		.2byte	0x182
 3769 0437 74010000 		.4byte	0x174
 3770 043b 0C       		.byte	0xc
 3771 043c 00       		.byte	0
 3772 043d 03       		.uleb128 0x3
 3773 043e F2020000 		.4byte	.LASF80
 3774 0442 0C       		.byte	0xc
 3775 0443 6B       		.byte	0x6b
 3776 0444 48040000 		.4byte	0x448
 3777 0448 10       		.uleb128 0x10
 3778 0449 A7090000 		.4byte	.LASF81
 3779 044d 1404     		.2byte	0x414
 3780 044f 03       		.byte	0x3
 3781 0450 A201     		.2byte	0x1a2
 3782 0452 8B040000 		.4byte	0x48b
 3783 0456 09       		.uleb128 0x9
 3784 0457 9A020000 		.4byte	.LASF82
 3785 045b 03       		.byte	0x3
ARM GAS  C:\Users\PCHAUT~1\AppData\Local\Temp\cc4us1Pe.s 			page 68


 3786 045c AA01     		.2byte	0x1aa
 3787 045e AC080000 		.4byte	0x8ac
 3788 0462 00       		.byte	0
 3789 0463 09       		.uleb128 0x9
 3790 0464 D7030000 		.4byte	.LASF83
 3791 0468 03       		.byte	0x3
 3792 0469 AF01     		.2byte	0x1af
 3793 046b 53010000 		.4byte	0x153
 3794 046f 04       		.byte	0x4
 3795 0470 09       		.uleb128 0x9
 3796 0471 DF000000 		.4byte	.LASF84
 3797 0475 03       		.byte	0x3
 3798 0476 B301     		.2byte	0x1b3
 3799 0478 53010000 		.4byte	0x153
 3800 047c 08       		.byte	0x8
 3801 047d 09       		.uleb128 0x9
 3802 047e DD020000 		.4byte	.LASF85
 3803 0482 03       		.byte	0x3
 3804 0483 B901     		.2byte	0x1b9
 3805 0485 18070000 		.4byte	0x718
 3806 0489 0C       		.byte	0xc
 3807 048a 00       		.byte	0
 3808 048b 03       		.uleb128 0x3
 3809 048c 7C0A0000 		.4byte	.LASF86
 3810 0490 0C       		.byte	0xc
 3811 0491 70       		.byte	0x70
 3812 0492 96040000 		.4byte	0x496
 3813 0496 10       		.uleb128 0x10
 3814 0497 4F0A0000 		.4byte	.LASF87
 3815 049b 7006     		.2byte	0x670
 3816 049d 03       		.byte	0x3
 3817 049e C201     		.2byte	0x1c2
 3818 04a0 03050000 		.4byte	0x503
 3819 04a4 09       		.uleb128 0x9
 3820 04a5 10090000 		.4byte	.LASF88
 3821 04a9 03       		.byte	0x3
 3822 04aa C601     		.2byte	0x1c6
 3823 04ac 0C030000 		.4byte	0x30c
 3824 04b0 00       		.byte	0
 3825 04b1 09       		.uleb128 0x9
 3826 04b2 190A0000 		.4byte	.LASF89
 3827 04b6 03       		.byte	0x3
 3828 04b7 CA01     		.2byte	0x1ca
 3829 04b9 F0030000 		.4byte	0x3f0
 3830 04bd 1C       		.byte	0x1c
 3831 04be 08       		.uleb128 0x8
 3832 04bf 64626700 		.ascii	"dbg\000"
 3833 04c3 03       		.byte	0x3
 3834 04c4 CE01     		.2byte	0x1ce
 3835 04c6 3D040000 		.4byte	0x43d
 3836 04ca 2C       		.byte	0x2c
 3837 04cb 11       		.uleb128 0x11
 3838 04cc D2080000 		.4byte	.LASF90
 3839 04d0 03       		.byte	0x3
 3840 04d1 D201     		.2byte	0x1d2
 3841 04d3 79010000 		.4byte	0x179
 3842 04d7 4004     		.2byte	0x440
ARM GAS  C:\Users\PCHAUT~1\AppData\Local\Temp\cc4us1Pe.s 			page 69


 3843 04d9 12       		.uleb128 0x12
 3844 04da 746D00   		.ascii	"tm\000"
 3845 04dd 03       		.byte	0x3
 3846 04de D701     		.2byte	0x1d7
 3847 04e0 38070000 		.4byte	0x738
 3848 04e4 A804     		.2byte	0x4a8
 3849 04e6 11       		.uleb128 0x11
 3850 04e7 30080000 		.4byte	.LASF91
 3851 04eb 03       		.byte	0x3
 3852 04ec DD01     		.2byte	0x1dd
 3853 04ee CA070000 		.4byte	0x7ca
 3854 04f2 B004     		.2byte	0x4b0
 3855 04f4 11       		.uleb128 0x11
 3856 04f5 CF060000 		.4byte	.LASF92
 3857 04f9 03       		.byte	0x3
 3858 04fa E301     		.2byte	0x1e3
 3859 04fc C9080000 		.4byte	0x8c9
 3860 0500 E804     		.2byte	0x4e8
 3861 0502 00       		.byte	0
 3862 0503 13       		.uleb128 0x13
 3863 0504 A6060000 		.4byte	.LASF93
 3864 0508 0D       		.byte	0xd
 3865 0509 A706     		.2byte	0x6a7
 3866 050b D5000000 		.4byte	0xd5
 3867 050f 14       		.uleb128 0x14
 3868 0510 68040000 		.4byte	.LASF94
 3869 0514 0E       		.byte	0xe
 3870 0515 4C       		.byte	0x4c
 3871 0516 DA000000 		.4byte	0xda
 3872 051a 03       		.uleb128 0x3
 3873 051b 0F020000 		.4byte	.LASF95
 3874 051f 0F       		.byte	0xf
 3875 0520 65       		.byte	0x65
 3876 0521 8F030000 		.4byte	0x38f
 3877 0525 03       		.uleb128 0x3
 3878 0526 52030000 		.4byte	.LASF96
 3879 052a 0F       		.byte	0xf
 3880 052b 6D       		.byte	0x6d
 3881 052c E5000000 		.4byte	0xe5
 3882 0530 06       		.uleb128 0x6
 3883 0531 6C020000 		.4byte	.LASF97
 3884 0535 04       		.byte	0x4
 3885 0536 0F       		.byte	0xf
 3886 0537 89       		.byte	0x89
 3887 0538 49050000 		.4byte	0x549
 3888 053c 15       		.uleb128 0x15
 3889 053d 72313300 		.ascii	"r13\000"
 3890 0541 0F       		.byte	0xf
 3891 0542 8A       		.byte	0x8a
 3892 0543 8A060000 		.4byte	0x68a
 3893 0547 00       		.byte	0
 3894 0548 00       		.byte	0
 3895 0549 06       		.uleb128 0x6
 3896 054a E3070000 		.4byte	.LASF98
 3897 054e 64       		.byte	0x64
 3898 054f 01       		.byte	0x1
 3899 0550 F4       		.byte	0xf4
ARM GAS  C:\Users\PCHAUT~1\AppData\Local\Temp\cc4us1Pe.s 			page 70


 3900 0551 8A060000 		.4byte	0x68a
 3901 0555 15       		.uleb128 0x15
 3902 0556 73313600 		.ascii	"s16\000"
 3903 055a 01       		.byte	0x1
 3904 055b F6       		.byte	0xf6
 3905 055c 1A050000 		.4byte	0x51a
 3906 0560 00       		.byte	0
 3907 0561 15       		.uleb128 0x15
 3908 0562 73313700 		.ascii	"s17\000"
 3909 0566 01       		.byte	0x1
 3910 0567 F7       		.byte	0xf7
 3911 0568 1A050000 		.4byte	0x51a
 3912 056c 04       		.byte	0x4
 3913 056d 15       		.uleb128 0x15
 3914 056e 73313800 		.ascii	"s18\000"
 3915 0572 01       		.byte	0x1
 3916 0573 F8       		.byte	0xf8
 3917 0574 1A050000 		.4byte	0x51a
 3918 0578 08       		.byte	0x8
 3919 0579 15       		.uleb128 0x15
 3920 057a 73313900 		.ascii	"s19\000"
 3921 057e 01       		.byte	0x1
 3922 057f F9       		.byte	0xf9
 3923 0580 1A050000 		.4byte	0x51a
 3924 0584 0C       		.byte	0xc
 3925 0585 15       		.uleb128 0x15
 3926 0586 73323000 		.ascii	"s20\000"
 3927 058a 01       		.byte	0x1
 3928 058b FA       		.byte	0xfa
 3929 058c 1A050000 		.4byte	0x51a
 3930 0590 10       		.byte	0x10
 3931 0591 15       		.uleb128 0x15
 3932 0592 73323100 		.ascii	"s21\000"
 3933 0596 01       		.byte	0x1
 3934 0597 FB       		.byte	0xfb
 3935 0598 1A050000 		.4byte	0x51a
 3936 059c 14       		.byte	0x14
 3937 059d 15       		.uleb128 0x15
 3938 059e 73323200 		.ascii	"s22\000"
 3939 05a2 01       		.byte	0x1
 3940 05a3 FC       		.byte	0xfc
 3941 05a4 1A050000 		.4byte	0x51a
 3942 05a8 18       		.byte	0x18
 3943 05a9 15       		.uleb128 0x15
 3944 05aa 73323300 		.ascii	"s23\000"
 3945 05ae 01       		.byte	0x1
 3946 05af FD       		.byte	0xfd
 3947 05b0 1A050000 		.4byte	0x51a
 3948 05b4 1C       		.byte	0x1c
 3949 05b5 15       		.uleb128 0x15
 3950 05b6 73323400 		.ascii	"s24\000"
 3951 05ba 01       		.byte	0x1
 3952 05bb FE       		.byte	0xfe
 3953 05bc 1A050000 		.4byte	0x51a
 3954 05c0 20       		.byte	0x20
 3955 05c1 15       		.uleb128 0x15
 3956 05c2 73323500 		.ascii	"s25\000"
ARM GAS  C:\Users\PCHAUT~1\AppData\Local\Temp\cc4us1Pe.s 			page 71


 3957 05c6 01       		.byte	0x1
 3958 05c7 FF       		.byte	0xff
 3959 05c8 1A050000 		.4byte	0x51a
 3960 05cc 24       		.byte	0x24
 3961 05cd 08       		.uleb128 0x8
 3962 05ce 73323600 		.ascii	"s26\000"
 3963 05d2 01       		.byte	0x1
 3964 05d3 0001     		.2byte	0x100
 3965 05d5 1A050000 		.4byte	0x51a
 3966 05d9 28       		.byte	0x28
 3967 05da 08       		.uleb128 0x8
 3968 05db 73323700 		.ascii	"s27\000"
 3969 05df 01       		.byte	0x1
 3970 05e0 0101     		.2byte	0x101
 3971 05e2 1A050000 		.4byte	0x51a
 3972 05e6 2C       		.byte	0x2c
 3973 05e7 08       		.uleb128 0x8
 3974 05e8 73323800 		.ascii	"s28\000"
 3975 05ec 01       		.byte	0x1
 3976 05ed 0201     		.2byte	0x102
 3977 05ef 1A050000 		.4byte	0x51a
 3978 05f3 30       		.byte	0x30
 3979 05f4 08       		.uleb128 0x8
 3980 05f5 73323900 		.ascii	"s29\000"
 3981 05f9 01       		.byte	0x1
 3982 05fa 0301     		.2byte	0x103
 3983 05fc 1A050000 		.4byte	0x51a
 3984 0600 34       		.byte	0x34
 3985 0601 08       		.uleb128 0x8
 3986 0602 73333000 		.ascii	"s30\000"
 3987 0606 01       		.byte	0x1
 3988 0607 0401     		.2byte	0x104
 3989 0609 1A050000 		.4byte	0x51a
 3990 060d 38       		.byte	0x38
 3991 060e 08       		.uleb128 0x8
 3992 060f 73333100 		.ascii	"s31\000"
 3993 0613 01       		.byte	0x1
 3994 0614 0501     		.2byte	0x105
 3995 0616 1A050000 		.4byte	0x51a
 3996 061a 3C       		.byte	0x3c
 3997 061b 08       		.uleb128 0x8
 3998 061c 723400   		.ascii	"r4\000"
 3999 061f 01       		.byte	0x1
 4000 0620 0701     		.2byte	0x107
 4001 0622 1A050000 		.4byte	0x51a
 4002 0626 40       		.byte	0x40
 4003 0627 08       		.uleb128 0x8
 4004 0628 723500   		.ascii	"r5\000"
 4005 062b 01       		.byte	0x1
 4006 062c 0801     		.2byte	0x108
 4007 062e 1A050000 		.4byte	0x51a
 4008 0632 44       		.byte	0x44
 4009 0633 08       		.uleb128 0x8
 4010 0634 723600   		.ascii	"r6\000"
 4011 0637 01       		.byte	0x1
 4012 0638 0901     		.2byte	0x109
 4013 063a 1A050000 		.4byte	0x51a
ARM GAS  C:\Users\PCHAUT~1\AppData\Local\Temp\cc4us1Pe.s 			page 72


 4014 063e 48       		.byte	0x48
 4015 063f 08       		.uleb128 0x8
 4016 0640 723700   		.ascii	"r7\000"
 4017 0643 01       		.byte	0x1
 4018 0644 0A01     		.2byte	0x10a
 4019 0646 1A050000 		.4byte	0x51a
 4020 064a 4C       		.byte	0x4c
 4021 064b 08       		.uleb128 0x8
 4022 064c 723800   		.ascii	"r8\000"
 4023 064f 01       		.byte	0x1
 4024 0650 0B01     		.2byte	0x10b
 4025 0652 1A050000 		.4byte	0x51a
 4026 0656 50       		.byte	0x50
 4027 0657 08       		.uleb128 0x8
 4028 0658 723900   		.ascii	"r9\000"
 4029 065b 01       		.byte	0x1
 4030 065c 0C01     		.2byte	0x10c
 4031 065e 1A050000 		.4byte	0x51a
 4032 0662 54       		.byte	0x54
 4033 0663 08       		.uleb128 0x8
 4034 0664 72313000 		.ascii	"r10\000"
 4035 0668 01       		.byte	0x1
 4036 0669 0D01     		.2byte	0x10d
 4037 066b 1A050000 		.4byte	0x51a
 4038 066f 58       		.byte	0x58
 4039 0670 08       		.uleb128 0x8
 4040 0671 72313100 		.ascii	"r11\000"
 4041 0675 01       		.byte	0x1
 4042 0676 0E01     		.2byte	0x10e
 4043 0678 1A050000 		.4byte	0x51a
 4044 067c 5C       		.byte	0x5c
 4045 067d 08       		.uleb128 0x8
 4046 067e 6C7200   		.ascii	"lr\000"
 4047 0681 01       		.byte	0x1
 4048 0682 0F01     		.2byte	0x10f
 4049 0684 1A050000 		.4byte	0x51a
 4050 0688 60       		.byte	0x60
 4051 0689 00       		.byte	0
 4052 068a 0A       		.uleb128 0xa
 4053 068b 04       		.byte	0x4
 4054 068c 49050000 		.4byte	0x549
 4055 0690 16       		.uleb128 0x16
 4056 0691 10       		.byte	0x10
 4057 0692 10       		.byte	0x10
 4058 0693 51       		.byte	0x51
 4059 0694 C9060000 		.4byte	0x6c9
 4060 0698 07       		.uleb128 0x7
 4061 0699 BC0A0000 		.4byte	.LASF99
 4062 069d 10       		.byte	0x10
 4063 069e 55       		.byte	0x55
 4064 069f 69010000 		.4byte	0x169
 4065 06a3 00       		.byte	0
 4066 06a4 07       		.uleb128 0x7
 4067 06a5 F3000000 		.4byte	.LASF100
 4068 06a9 10       		.byte	0x10
 4069 06aa 59       		.byte	0x59
 4070 06ab AD020000 		.4byte	0x2ad
ARM GAS  C:\Users\PCHAUT~1\AppData\Local\Temp\cc4us1Pe.s 			page 73


 4071 06af 04       		.byte	0x4
 4072 06b0 07       		.uleb128 0x7
 4073 06b1 BD060000 		.4byte	.LASF101
 4074 06b5 10       		.byte	0x10
 4075 06b6 5D       		.byte	0x5d
 4076 06b7 8F030000 		.4byte	0x38f
 4077 06bb 08       		.byte	0x8
 4078 06bc 07       		.uleb128 0x7
 4079 06bd EA030000 		.4byte	.LASF102
 4080 06c1 10       		.byte	0x10
 4081 06c2 61       		.byte	0x61
 4082 06c3 B4000000 		.4byte	0xb4
 4083 06c7 0C       		.byte	0xc
 4084 06c8 00       		.byte	0
 4085 06c9 03       		.uleb128 0x3
 4086 06ca E7040000 		.4byte	.LASF103
 4087 06ce 10       		.byte	0x10
 4088 06cf 62       		.byte	0x62
 4089 06d0 90060000 		.4byte	0x690
 4090 06d4 17       		.uleb128 0x17
 4091 06d5 0804     		.2byte	0x408
 4092 06d7 10       		.byte	0x10
 4093 06d8 67       		.byte	0x67
 4094 06d9 02070000 		.4byte	0x702
 4095 06dd 07       		.uleb128 0x7
 4096 06de 5A050000 		.4byte	.LASF104
 4097 06e2 10       		.byte	0x10
 4098 06e3 6B       		.byte	0x6b
 4099 06e4 37000000 		.4byte	0x37
 4100 06e8 00       		.byte	0
 4101 06e9 07       		.uleb128 0x7
 4102 06ea D20A0000 		.4byte	.LASF105
 4103 06ee 10       		.byte	0x10
 4104 06ef 6F       		.byte	0x6f
 4105 06f0 02070000 		.4byte	0x702
 4106 06f4 04       		.byte	0x4
 4107 06f5 07       		.uleb128 0x7
 4108 06f6 68070000 		.4byte	.LASF106
 4109 06fa 10       		.byte	0x10
 4110 06fb 73       		.byte	0x73
 4111 06fc 08070000 		.4byte	0x708
 4112 0700 08       		.byte	0x8
 4113 0701 00       		.byte	0
 4114 0702 0A       		.uleb128 0xa
 4115 0703 04       		.byte	0x4
 4116 0704 C9060000 		.4byte	0x6c9
 4117 0708 18       		.uleb128 0x18
 4118 0709 C9060000 		.4byte	0x6c9
 4119 070d 18070000 		.4byte	0x718
 4120 0711 19       		.uleb128 0x19
 4121 0712 37000000 		.4byte	0x37
 4122 0716 3F       		.byte	0x3f
 4123 0717 00       		.byte	0
 4124 0718 03       		.uleb128 0x3
 4125 0719 95030000 		.4byte	.LASF107
 4126 071d 10       		.byte	0x10
 4127 071e 74       		.byte	0x74
ARM GAS  C:\Users\PCHAUT~1\AppData\Local\Temp\cc4us1Pe.s 			page 74


 4128 071f D4060000 		.4byte	0x6d4
 4129 0723 16       		.uleb128 0x16
 4130 0724 04       		.byte	0x4
 4131 0725 11       		.byte	0x11
 4132 0726 38       		.byte	0x38
 4133 0727 38070000 		.4byte	0x738
 4134 072b 07       		.uleb128 0x7
 4135 072c 61070000 		.4byte	.LASF108
 4136 0730 11       		.byte	0x11
 4137 0731 3C       		.byte	0x3c
 4138 0732 F0000000 		.4byte	0xf0
 4139 0736 00       		.byte	0
 4140 0737 00       		.byte	0
 4141 0738 03       		.uleb128 0x3
 4142 0739 3C090000 		.4byte	.LASF109
 4143 073d 11       		.byte	0x11
 4144 073e 3D       		.byte	0x3d
 4145 073f 23070000 		.4byte	0x723
 4146 0743 16       		.uleb128 0x16
 4147 0744 18       		.byte	0x18
 4148 0745 11       		.byte	0x11
 4149 0746 48       		.byte	0x48
 4150 0747 86070000 		.4byte	0x786
 4151 074b 07       		.uleb128 0x7
 4152 074c EB080000 		.4byte	.LASF110
 4153 0750 11       		.byte	0x11
 4154 0751 49       		.byte	0x49
 4155 0752 F0000000 		.4byte	0xf0
 4156 0756 00       		.byte	0
 4157 0757 07       		.uleb128 0x7
 4158 0758 74030000 		.4byte	.LASF111
 4159 075c 11       		.byte	0x11
 4160 075d 4A       		.byte	0x4a
 4161 075e F0000000 		.4byte	0xf0
 4162 0762 04       		.byte	0x4
 4163 0763 07       		.uleb128 0x7
 4164 0764 E20A0000 		.4byte	.LASF112
 4165 0768 11       		.byte	0x11
 4166 0769 4B       		.byte	0x4b
 4167 076a F0000000 		.4byte	0xf0
 4168 076e 08       		.byte	0x8
 4169 076f 15       		.uleb128 0x15
 4170 0770 6E00     		.ascii	"n\000"
 4171 0772 11       		.byte	0x11
 4172 0773 4C       		.byte	0x4c
 4173 0774 5E010000 		.4byte	0x15e
 4174 0778 0C       		.byte	0xc
 4175 0779 07       		.uleb128 0x7
 4176 077a 37020000 		.4byte	.LASF113
 4177 077e 11       		.byte	0x11
 4178 077f 4D       		.byte	0x4d
 4179 0780 FB000000 		.4byte	0xfb
 4180 0784 10       		.byte	0x10
 4181 0785 00       		.byte	0
 4182 0786 03       		.uleb128 0x3
 4183 0787 0B010000 		.4byte	.LASF114
 4184 078b 11       		.byte	0x11
ARM GAS  C:\Users\PCHAUT~1\AppData\Local\Temp\cc4us1Pe.s 			page 75


 4185 078c 4E       		.byte	0x4e
 4186 078d 43070000 		.4byte	0x743
 4187 0791 16       		.uleb128 0x16
 4188 0792 38       		.byte	0x38
 4189 0793 12       		.byte	0x12
 4190 0794 38       		.byte	0x38
 4191 0795 CA070000 		.4byte	0x7ca
 4192 0799 07       		.uleb128 0x7
 4193 079a F6040000 		.4byte	.LASF115
 4194 079e 12       		.byte	0x12
 4195 079f 39       		.byte	0x39
 4196 07a0 5E010000 		.4byte	0x15e
 4197 07a4 00       		.byte	0
 4198 07a5 07       		.uleb128 0x7
 4199 07a6 3C030000 		.4byte	.LASF116
 4200 07aa 12       		.byte	0x12
 4201 07ab 3A       		.byte	0x3a
 4202 07ac 5E010000 		.4byte	0x15e
 4203 07b0 04       		.byte	0x4
 4204 07b1 07       		.uleb128 0x7
 4205 07b2 00040000 		.4byte	.LASF117
 4206 07b6 12       		.byte	0x12
 4207 07b7 3B       		.byte	0x3b
 4208 07b8 86070000 		.4byte	0x786
 4209 07bc 08       		.byte	0x8
 4210 07bd 07       		.uleb128 0x7
 4211 07be DF030000 		.4byte	.LASF118
 4212 07c2 12       		.byte	0x12
 4213 07c3 3D       		.byte	0x3d
 4214 07c4 86070000 		.4byte	0x786
 4215 07c8 20       		.byte	0x20
 4216 07c9 00       		.byte	0
 4217 07ca 03       		.uleb128 0x3
 4218 07cb 49070000 		.4byte	.LASF119
 4219 07cf 12       		.byte	0x12
 4220 07d0 3F       		.byte	0x3f
 4221 07d1 91070000 		.4byte	0x791
 4222 07d5 1A       		.uleb128 0x1a
 4223 07d6 04       		.byte	0x4
 4224 07d7 03       		.byte	0x3
 4225 07d8 FA       		.byte	0xfa
 4226 07d9 32080000 		.4byte	0x832
 4227 07dd 1B       		.uleb128 0x1b
 4228 07de 620A0000 		.4byte	.LASF120
 4229 07e2 03       		.byte	0x3
 4230 07e3 0101     		.2byte	0x101
 4231 07e5 3D010000 		.4byte	0x13d
 4232 07e9 1B       		.uleb128 0x1b
 4233 07ea 4F010000 		.4byte	.LASF121
 4234 07ee 03       		.byte	0x3
 4235 07ef 0801     		.2byte	0x108
 4236 07f1 3D010000 		.4byte	0x13d
 4237 07f5 1B       		.uleb128 0x1b
 4238 07f6 35030000 		.4byte	.LASF122
 4239 07fa 03       		.byte	0x3
 4240 07fb 0F01     		.2byte	0x10f
 4241 07fd 8F030000 		.4byte	0x38f
ARM GAS  C:\Users\PCHAUT~1\AppData\Local\Temp\cc4us1Pe.s 			page 76


 4242 0801 1B       		.uleb128 0x1b
 4243 0802 86020000 		.4byte	.LASF123
 4244 0806 03       		.byte	0x3
 4245 0807 1601     		.2byte	0x116
 4246 0809 32080000 		.4byte	0x832
 4247 080d 1B       		.uleb128 0x1b
 4248 080e 0F000000 		.4byte	.LASF124
 4249 0812 03       		.byte	0x3
 4250 0813 1E01     		.2byte	0x11e
 4251 0815 5D080000 		.4byte	0x85d
 4252 0819 1B       		.uleb128 0x1b
 4253 081a B2030000 		.4byte	.LASF125
 4254 081e 03       		.byte	0x3
 4255 081f 2701     		.2byte	0x127
 4256 0821 A0080000 		.4byte	0x8a0
 4257 0825 1B       		.uleb128 0x1b
 4258 0826 62010000 		.4byte	.LASF126
 4259 082a 03       		.byte	0x3
 4260 082b 2F01     		.2byte	0x12f
 4261 082d 48010000 		.4byte	0x148
 4262 0831 00       		.byte	0
 4263 0832 0A       		.uleb128 0xa
 4264 0833 04       		.byte	0x4
 4265 0834 A2020000 		.4byte	0x2a2
 4266 0838 06       		.uleb128 0x6
 4267 0839 78040000 		.4byte	.LASF127
 4268 083d 0C       		.byte	0xc
 4269 083e 13       		.byte	0x13
 4270 083f 34       		.byte	0x34
 4271 0840 5D080000 		.4byte	0x85d
 4272 0844 07       		.uleb128 0x7
 4273 0845 5C090000 		.4byte	.LASF128
 4274 0849 13       		.byte	0x13
 4275 084a 35       		.byte	0x35
 4276 084b D7020000 		.4byte	0x2d7
 4277 084f 00       		.byte	0
 4278 0850 07       		.uleb128 0x7
 4279 0851 22080000 		.4byte	.LASF129
 4280 0855 13       		.byte	0x13
 4281 0856 37       		.byte	0x37
 4282 0857 53010000 		.4byte	0x153
 4283 085b 08       		.byte	0x8
 4284 085c 00       		.byte	0
 4285 085d 0A       		.uleb128 0xa
 4286 085e 04       		.byte	0x4
 4287 085f 38080000 		.4byte	0x838
 4288 0863 06       		.uleb128 0x6
 4289 0864 77090000 		.4byte	.LASF130
 4290 0868 14       		.byte	0x14
 4291 0869 14       		.byte	0x14
 4292 086a 39       		.byte	0x39
 4293 086b A0080000 		.4byte	0x8a0
 4294 086f 07       		.uleb128 0x7
 4295 0870 2F050000 		.4byte	.LASF131
 4296 0874 14       		.byte	0x14
 4297 0875 3A       		.byte	0x3a
 4298 0876 D7020000 		.4byte	0x2d7
ARM GAS  C:\Users\PCHAUT~1\AppData\Local\Temp\cc4us1Pe.s 			page 77


 4299 087a 00       		.byte	0
 4300 087b 07       		.uleb128 0x7
 4301 087c 40010000 		.4byte	.LASF132
 4302 0880 14       		.byte	0x14
 4303 0881 3C       		.byte	0x3c
 4304 0882 AD020000 		.4byte	0x2ad
 4305 0886 08       		.byte	0x8
 4306 0887 07       		.uleb128 0x7
 4307 0888 CB0A0000 		.4byte	.LASF133
 4308 088c 14       		.byte	0x14
 4309 088d 3E       		.byte	0x3e
 4310 088e FB090000 		.4byte	0x9fb
 4311 0892 0C       		.byte	0xc
 4312 0893 07       		.uleb128 0x7
 4313 0894 1D030000 		.4byte	.LASF134
 4314 0898 14       		.byte	0x14
 4315 0899 41       		.byte	0x41
 4316 089a 53010000 		.4byte	0x153
 4317 089e 10       		.byte	0x10
 4318 089f 00       		.byte	0
 4319 08a0 0A       		.uleb128 0xa
 4320 08a1 04       		.byte	0x4
 4321 08a2 63080000 		.4byte	0x863
 4322 08a6 0A       		.uleb128 0xa
 4323 08a7 04       		.byte	0x4
 4324 08a8 B8080000 		.4byte	0x8b8
 4325 08ac 05       		.uleb128 0x5
 4326 08ad A6080000 		.4byte	0x8a6
 4327 08b1 04       		.uleb128 0x4
 4328 08b2 01       		.byte	0x1
 4329 08b3 08       		.byte	0x8
 4330 08b4 18030000 		.4byte	.LASF135
 4331 08b8 0B       		.uleb128 0xb
 4332 08b9 B1080000 		.4byte	0x8b1
 4333 08bd 0A       		.uleb128 0xa
 4334 08be 04       		.byte	0x4
 4335 08bf 25050000 		.4byte	0x525
 4336 08c3 0A       		.uleb128 0xa
 4337 08c4 04       		.byte	0x4
 4338 08c5 96030000 		.4byte	0x396
 4339 08c9 18       		.uleb128 0x18
 4340 08ca 25050000 		.4byte	0x525
 4341 08ce D9080000 		.4byte	0x8d9
 4342 08d2 19       		.uleb128 0x19
 4343 08d3 37000000 		.4byte	0x37
 4344 08d7 30       		.byte	0x30
 4345 08d8 00       		.byte	0
 4346 08d9 1C       		.uleb128 0x1c
 4347 08da 636800   		.ascii	"ch\000"
 4348 08dd 03       		.byte	0x3
 4349 08de 0902     		.2byte	0x209
 4350 08e0 8B040000 		.4byte	0x48b
 4351 08e4 16       		.uleb128 0x16
 4352 08e5 16       		.byte	0x16
 4353 08e6 15       		.byte	0x15
 4354 08e7 34       		.byte	0x34
 4355 08e8 C5090000 		.4byte	0x9c5
ARM GAS  C:\Users\PCHAUT~1\AppData\Local\Temp\cc4us1Pe.s 			page 78


 4356 08ec 07       		.uleb128 0x7
 4357 08ed 2C000000 		.4byte	.LASF136
 4358 08f1 15       		.byte	0x15
 4359 08f2 35       		.byte	0x35
 4360 08f3 C5090000 		.4byte	0x9c5
 4361 08f7 00       		.byte	0
 4362 08f8 07       		.uleb128 0x7
 4363 08f9 34040000 		.4byte	.LASF137
 4364 08fd 15       		.byte	0x15
 4365 08fe 36       		.byte	0x36
 4366 08ff B4000000 		.4byte	0xb4
 4367 0903 04       		.byte	0x4
 4368 0904 07       		.uleb128 0x7
 4369 0905 920A0000 		.4byte	.LASF138
 4370 0909 15       		.byte	0x15
 4371 090a 37       		.byte	0x37
 4372 090b B4000000 		.4byte	0xb4
 4373 090f 05       		.byte	0x5
 4374 0910 07       		.uleb128 0x7
 4375 0911 24050000 		.4byte	.LASF139
 4376 0915 15       		.byte	0x15
 4377 0916 38       		.byte	0x38
 4378 0917 BF000000 		.4byte	0xbf
 4379 091b 06       		.byte	0x6
 4380 091c 07       		.uleb128 0x7
 4381 091d E8000000 		.4byte	.LASF140
 4382 0921 15       		.byte	0x15
 4383 0922 39       		.byte	0x39
 4384 0923 B4000000 		.4byte	0xb4
 4385 0927 08       		.byte	0x8
 4386 0928 07       		.uleb128 0x7
 4387 0929 3D070000 		.4byte	.LASF141
 4388 092d 15       		.byte	0x15
 4389 092e 3A       		.byte	0x3a
 4390 092f B4000000 		.4byte	0xb4
 4391 0933 09       		.byte	0x9
 4392 0934 07       		.uleb128 0x7
 4393 0935 69010000 		.4byte	.LASF142
 4394 0939 15       		.byte	0x15
 4395 093a 3B       		.byte	0x3b
 4396 093b B4000000 		.4byte	0xb4
 4397 093f 0A       		.byte	0xa
 4398 0940 07       		.uleb128 0x7
 4399 0941 68030000 		.4byte	.LASF143
 4400 0945 15       		.byte	0x15
 4401 0946 3C       		.byte	0x3c
 4402 0947 B4000000 		.4byte	0xb4
 4403 094b 0B       		.byte	0xb
 4404 094c 07       		.uleb128 0x7
 4405 094d 81000000 		.4byte	.LASF144
 4406 0951 15       		.byte	0x15
 4407 0952 3D       		.byte	0x3d
 4408 0953 B4000000 		.4byte	0xb4
 4409 0957 0C       		.byte	0xc
 4410 0958 07       		.uleb128 0x7
 4411 0959 45030000 		.4byte	.LASF145
 4412 095d 15       		.byte	0x15
ARM GAS  C:\Users\PCHAUT~1\AppData\Local\Temp\cc4us1Pe.s 			page 79


 4413 095e 3E       		.byte	0x3e
 4414 095f B4000000 		.4byte	0xb4
 4415 0963 0D       		.byte	0xd
 4416 0964 07       		.uleb128 0x7
 4417 0965 C4090000 		.4byte	.LASF146
 4418 0969 15       		.byte	0x15
 4419 096a 3F       		.byte	0x3f
 4420 096b B4000000 		.4byte	0xb4
 4421 096f 0E       		.byte	0xe
 4422 0970 07       		.uleb128 0x7
 4423 0971 16000000 		.4byte	.LASF147
 4424 0975 15       		.byte	0x15
 4425 0976 40       		.byte	0x40
 4426 0977 B4000000 		.4byte	0xb4
 4427 097b 0F       		.byte	0xf
 4428 097c 07       		.uleb128 0x7
 4429 097d 300A0000 		.4byte	.LASF148
 4430 0981 15       		.byte	0x15
 4431 0982 41       		.byte	0x41
 4432 0983 B4000000 		.4byte	0xb4
 4433 0987 10       		.byte	0x10
 4434 0988 07       		.uleb128 0x7
 4435 0989 B5010000 		.4byte	.LASF149
 4436 098d 15       		.byte	0x15
 4437 098e 43       		.byte	0x43
 4438 098f B4000000 		.4byte	0xb4
 4439 0993 11       		.byte	0x11
 4440 0994 07       		.uleb128 0x7
 4441 0995 87080000 		.4byte	.LASF150
 4442 0999 15       		.byte	0x15
 4443 099a 44       		.byte	0x44
 4444 099b B4000000 		.4byte	0xb4
 4445 099f 12       		.byte	0x12
 4446 09a0 07       		.uleb128 0x7
 4447 09a1 79070000 		.4byte	.LASF151
 4448 09a5 15       		.byte	0x15
 4449 09a6 45       		.byte	0x45
 4450 09a7 B4000000 		.4byte	0xb4
 4451 09ab 13       		.byte	0x13
 4452 09ac 07       		.uleb128 0x7
 4453 09ad FC040000 		.4byte	.LASF152
 4454 09b1 15       		.byte	0x15
 4455 09b2 46       		.byte	0x46
 4456 09b3 B4000000 		.4byte	0xb4
 4457 09b7 14       		.byte	0x14
 4458 09b8 07       		.uleb128 0x7
 4459 09b9 EF070000 		.4byte	.LASF153
 4460 09bd 15       		.byte	0x15
 4461 09be 48       		.byte	0x48
 4462 09bf B4000000 		.4byte	0xb4
 4463 09c3 15       		.byte	0x15
 4464 09c4 00       		.byte	0
 4465 09c5 18       		.uleb128 0x18
 4466 09c6 B1080000 		.4byte	0x8b1
 4467 09ca D5090000 		.4byte	0x9d5
 4468 09ce 19       		.uleb128 0x19
 4469 09cf 37000000 		.4byte	0x37
ARM GAS  C:\Users\PCHAUT~1\AppData\Local\Temp\cc4us1Pe.s 			page 80


 4470 09d3 03       		.byte	0x3
 4471 09d4 00       		.byte	0
 4472 09d5 03       		.uleb128 0x3
 4473 09d6 880A0000 		.4byte	.LASF154
 4474 09da 15       		.byte	0x15
 4475 09db 49       		.byte	0x49
 4476 09dc E4080000 		.4byte	0x8e4
 4477 09e0 0B       		.uleb128 0xb
 4478 09e1 D5090000 		.4byte	0x9d5
 4479 09e5 14       		.uleb128 0x14
 4480 09e6 48000000 		.4byte	.LASF155
 4481 09ea 15       		.byte	0x15
 4482 09eb 6E       		.byte	0x6e
 4483 09ec E0090000 		.4byte	0x9e0
 4484 09f0 03       		.uleb128 0x3
 4485 09f1 200A0000 		.4byte	.LASF156
 4486 09f5 14       		.byte	0x14
 4487 09f6 34       		.byte	0x34
 4488 09f7 63080000 		.4byte	0x863
 4489 09fb 0A       		.uleb128 0xa
 4490 09fc 04       		.byte	0x4
 4491 09fd F0090000 		.4byte	0x9f0
 4492 0a01 06       		.uleb128 0x6
 4493 0a02 37050000 		.4byte	.LASF157
 4494 0a06 08       		.byte	0x8
 4495 0a07 16       		.byte	0x16
 4496 0a08 3B       		.byte	0x3b
 4497 0a09 1A0A0000 		.4byte	0xa1a
 4498 0a0d 07       		.uleb128 0x7
 4499 0a0e 28080000 		.4byte	.LASF158
 4500 0a12 16       		.byte	0x16
 4501 0a13 3C       		.byte	0x3c
 4502 0a14 D7020000 		.4byte	0x2d7
 4503 0a18 00       		.byte	0
 4504 0a19 00       		.byte	0
 4505 0a1a 03       		.uleb128 0x3
 4506 0a1b 46040000 		.4byte	.LASF159
 4507 0a1f 16       		.byte	0x16
 4508 0a20 3E       		.byte	0x3e
 4509 0a21 010A0000 		.4byte	0xa01
 4510 0a25 06       		.uleb128 0x6
 4511 0a26 9E090000 		.4byte	.LASF160
 4512 0a2a 10       		.byte	0x10
 4513 0a2b 17       		.byte	0x17
 4514 0a2c 3B       		.byte	0x3b
 4515 0a2d 620A0000 		.4byte	0xa62
 4516 0a31 07       		.uleb128 0x7
 4517 0a32 4D090000 		.4byte	.LASF161
 4518 0a36 17       		.byte	0x17
 4519 0a37 3C       		.byte	0x3c
 4520 0a38 A6080000 		.4byte	0x8a6
 4521 0a3c 00       		.byte	0
 4522 0a3d 07       		.uleb128 0x7
 4523 0a3e 8F030000 		.4byte	.LASF162
 4524 0a42 17       		.byte	0x17
 4525 0a43 3D       		.byte	0x3d
 4526 0a44 680A0000 		.4byte	0xa68
ARM GAS  C:\Users\PCHAUT~1\AppData\Local\Temp\cc4us1Pe.s 			page 81


 4527 0a48 04       		.byte	0x4
 4528 0a49 07       		.uleb128 0x7
 4529 0a4a 58070000 		.4byte	.LASF163
 4530 0a4e 17       		.byte	0x17
 4531 0a4f 3E       		.byte	0x3e
 4532 0a50 680A0000 		.4byte	0xa68
 4533 0a54 08       		.byte	0x8
 4534 0a55 07       		.uleb128 0x7
 4535 0a56 B1080000 		.4byte	.LASF164
 4536 0a5a 17       		.byte	0x17
 4537 0a5b 3F       		.byte	0x3f
 4538 0a5c 680A0000 		.4byte	0xa68
 4539 0a60 0C       		.byte	0xc
 4540 0a61 00       		.byte	0
 4541 0a62 0B       		.uleb128 0xb
 4542 0a63 250A0000 		.4byte	0xa25
 4543 0a67 1D       		.uleb128 0x1d
 4544 0a68 0A       		.uleb128 0xa
 4545 0a69 04       		.byte	0x4
 4546 0a6a 670A0000 		.4byte	0xa67
 4547 0a6e 17       		.uleb128 0x17
 4548 0a6f D809     		.2byte	0x9d8
 4549 0a71 17       		.byte	0x17
 4550 0a72 44       		.byte	0x44
 4551 0a73 B30A0000 		.4byte	0xab3
 4552 0a77 15       		.uleb128 0x15
 4553 0a78 543000   		.ascii	"T0\000"
 4554 0a7b 17       		.byte	0x17
 4555 0a7c 45       		.byte	0x45
 4556 0a7d B30A0000 		.4byte	0xab3
 4557 0a81 00       		.byte	0
 4558 0a82 1E       		.uleb128 0x1e
 4559 0a83 543100   		.ascii	"T1\000"
 4560 0a86 17       		.byte	0x17
 4561 0a87 46       		.byte	0x46
 4562 0a88 B30A0000 		.4byte	0xab3
 4563 0a8c F801     		.2byte	0x1f8
 4564 0a8e 1E       		.uleb128 0x1e
 4565 0a8f 543200   		.ascii	"T2\000"
 4566 0a92 17       		.byte	0x17
 4567 0a93 47       		.byte	0x47
 4568 0a94 B30A0000 		.4byte	0xab3
 4569 0a98 F003     		.2byte	0x3f0
 4570 0a9a 1E       		.uleb128 0x1e
 4571 0a9b 543300   		.ascii	"T3\000"
 4572 0a9e 17       		.byte	0x17
 4573 0a9f 48       		.byte	0x48
 4574 0aa0 B30A0000 		.4byte	0xab3
 4575 0aa4 E805     		.2byte	0x5e8
 4576 0aa6 1E       		.uleb128 0x1e
 4577 0aa7 543400   		.ascii	"T4\000"
 4578 0aaa 17       		.byte	0x17
 4579 0aab 49       		.byte	0x49
 4580 0aac B30A0000 		.4byte	0xab3
 4581 0ab0 E007     		.2byte	0x7e0
 4582 0ab2 00       		.byte	0
 4583 0ab3 18       		.uleb128 0x18
ARM GAS  C:\Users\PCHAUT~1\AppData\Local\Temp\cc4us1Pe.s 			page 82


 4584 0ab4 25050000 		.4byte	0x525
 4585 0ab8 C30A0000 		.4byte	0xac3
 4586 0abc 19       		.uleb128 0x19
 4587 0abd 37000000 		.4byte	0x37
 4588 0ac1 3E       		.byte	0x3e
 4589 0ac2 00       		.byte	0
 4590 0ac3 1F       		.uleb128 0x1f
 4591 0ac4 5B000000 		.4byte	.LASF225
 4592 0ac8 D809     		.2byte	0x9d8
 4593 0aca 17       		.byte	0x17
 4594 0acb 43       		.byte	0x43
 4595 0acc E60A0000 		.4byte	0xae6
 4596 0ad0 20       		.uleb128 0x20
 4597 0ad1 776100   		.ascii	"wa\000"
 4598 0ad4 17       		.byte	0x17
 4599 0ad5 4A       		.byte	0x4a
 4600 0ad6 6E0A0000 		.4byte	0xa6e
 4601 0ada 21       		.uleb128 0x21
 4602 0adb 88030000 		.4byte	.LASF165
 4603 0adf 17       		.byte	0x17
 4604 0ae0 4B       		.byte	0x4b
 4605 0ae1 E60A0000 		.4byte	0xae6
 4606 0ae5 00       		.byte	0
 4607 0ae6 18       		.uleb128 0x18
 4608 0ae7 B4000000 		.4byte	0xb4
 4609 0aeb F70A0000 		.4byte	0xaf7
 4610 0aef 22       		.uleb128 0x22
 4611 0af0 37000000 		.4byte	0x37
 4612 0af4 D709     		.2byte	0x9d7
 4613 0af6 00       		.byte	0
 4614 0af7 14       		.uleb128 0x14
 4615 0af8 B9080000 		.4byte	.LASF166
 4616 0afc 17       		.byte	0x17
 4617 0afd 4F       		.byte	0x4f
 4618 0afe 020B0000 		.4byte	0xb02
 4619 0b02 04       		.uleb128 0x4
 4620 0b03 01       		.byte	0x1
 4621 0b04 02       		.byte	0x2
 4622 0b05 01030000 		.4byte	.LASF167
 4623 0b09 18       		.uleb128 0x18
 4624 0b0a AD020000 		.4byte	0x2ad
 4625 0b0e 190B0000 		.4byte	0xb19
 4626 0b12 19       		.uleb128 0x19
 4627 0b13 37000000 		.4byte	0x37
 4628 0b17 04       		.byte	0x4
 4629 0b18 00       		.byte	0
 4630 0b19 14       		.uleb128 0x14
 4631 0b1a 08090000 		.4byte	.LASF168
 4632 0b1e 17       		.byte	0x17
 4633 0b1f A7       		.byte	0xa7
 4634 0b20 090B0000 		.4byte	0xb09
 4635 0b24 14       		.uleb128 0x14
 4636 0b25 D3010000 		.4byte	.LASF169
 4637 0b29 17       		.byte	0x17
 4638 0b2a A8       		.byte	0xa8
 4639 0b2b C30A0000 		.4byte	0xac3
 4640 0b2f 18       		.uleb128 0x18
ARM GAS  C:\Users\PCHAUT~1\AppData\Local\Temp\cc4us1Pe.s 			page 83


 4641 0b30 91030000 		.4byte	0x391
 4642 0b34 3A0B0000 		.4byte	0xb3a
 4643 0b38 23       		.uleb128 0x23
 4644 0b39 00       		.byte	0
 4645 0b3a 0B       		.uleb128 0xb
 4646 0b3b 2F0B0000 		.4byte	0xb2f
 4647 0b3f 24       		.uleb128 0x24
 4648 0b40 776100   		.ascii	"wa\000"
 4649 0b43 17       		.byte	0x17
 4650 0b44 A9       		.byte	0xa9
 4651 0b45 3A0B0000 		.4byte	0xb3a
 4652 0b49 14       		.uleb128 0x14
 4653 0b4a C7030000 		.4byte	.LASF170
 4654 0b4e 17       		.byte	0x17
 4655 0b4f AA       		.byte	0xaa
 4656 0b50 020B0000 		.4byte	0xb02
 4657 0b54 25       		.uleb128 0x25
 4658 0b55 6D3100   		.ascii	"m1\000"
 4659 0b58 07       		.byte	0x7
 4660 0b59 44       		.byte	0x44
 4661 0b5a F0090000 		.4byte	0x9f0
 4662 0b5e 05       		.uleb128 0x5
 4663 0b5f 03       		.byte	0x3
 4664 0b60 00000000 		.4byte	m1
 4665 0b64 25       		.uleb128 0x25
 4666 0b65 6D3200   		.ascii	"m2\000"
 4667 0b68 07       		.byte	0x7
 4668 0b69 45       		.byte	0x45
 4669 0b6a F0090000 		.4byte	0x9f0
 4670 0b6e 05       		.uleb128 0x5
 4671 0b6f 03       		.byte	0x3
 4672 0b70 00000000 		.4byte	m2
 4673 0b74 25       		.uleb128 0x25
 4674 0b75 633100   		.ascii	"c1\000"
 4675 0b78 07       		.byte	0x7
 4676 0b79 47       		.byte	0x47
 4677 0b7a 1A0A0000 		.4byte	0xa1a
 4678 0b7e 05       		.uleb128 0x5
 4679 0b7f 03       		.byte	0x3
 4680 0b80 00000000 		.4byte	c1
 4681 0b84 26       		.uleb128 0x26
 4682 0b85 D1090000 		.4byte	.LASF171
 4683 0b89 07       		.byte	0x7
 4684 0b8a 6F       		.byte	0x6f
 4685 0b8b 620A0000 		.4byte	0xa62
 4686 0b8f 05       		.uleb128 0x5
 4687 0b90 03       		.byte	0x3
 4688 0b91 00000000 		.4byte	testmtx1
 4689 0b95 26       		.uleb128 0x26
 4690 0b96 DA090000 		.4byte	.LASF172
 4691 0b9a 07       		.byte	0x7
 4692 0b9b C7       		.byte	0xc7
 4693 0b9c 620A0000 		.4byte	0xa62
 4694 0ba0 05       		.uleb128 0x5
 4695 0ba1 03       		.byte	0x3
 4696 0ba2 00000000 		.4byte	testmtx2
 4697 0ba6 27       		.uleb128 0x27
ARM GAS  C:\Users\PCHAUT~1\AppData\Local\Temp\cc4us1Pe.s 			page 84


 4698 0ba7 E3090000 		.4byte	.LASF173
 4699 0bab 07       		.byte	0x7
 4700 0bac 3A01     		.2byte	0x13a
 4701 0bae 620A0000 		.4byte	0xa62
 4702 0bb2 05       		.uleb128 0x5
 4703 0bb3 03       		.byte	0x3
 4704 0bb4 00000000 		.4byte	testmtx3
 4705 0bb8 27       		.uleb128 0x27
 4706 0bb9 EC090000 		.4byte	.LASF174
 4707 0bbd 07       		.byte	0x7
 4708 0bbe 9101     		.2byte	0x191
 4709 0bc0 620A0000 		.4byte	0xa62
 4710 0bc4 05       		.uleb128 0x5
 4711 0bc5 03       		.byte	0x3
 4712 0bc6 00000000 		.4byte	testmtx4
 4713 0bca 27       		.uleb128 0x27
 4714 0bcb F5090000 		.4byte	.LASF175
 4715 0bcf 07       		.byte	0x7
 4716 0bd0 C201     		.2byte	0x1c2
 4717 0bd2 620A0000 		.4byte	0xa62
 4718 0bd6 05       		.uleb128 0x5
 4719 0bd7 03       		.byte	0x3
 4720 0bd8 00000000 		.4byte	testmtx5
 4721 0bdc 27       		.uleb128 0x27
 4722 0bdd FE090000 		.4byte	.LASF176
 4723 0be1 07       		.byte	0x7
 4724 0be2 F701     		.2byte	0x1f7
 4725 0be4 620A0000 		.4byte	0xa62
 4726 0be8 05       		.uleb128 0x5
 4727 0be9 03       		.byte	0x3
 4728 0bea 00000000 		.4byte	testmtx6
 4729 0bee 27       		.uleb128 0x27
 4730 0bef 070A0000 		.4byte	.LASF177
 4731 0bf3 07       		.byte	0x7
 4732 0bf4 1B02     		.2byte	0x21b
 4733 0bf6 620A0000 		.4byte	0xa62
 4734 0bfa 05       		.uleb128 0x5
 4735 0bfb 03       		.byte	0x3
 4736 0bfc 00000000 		.4byte	testmtx7
 4737 0c00 27       		.uleb128 0x27
 4738 0c01 100A0000 		.4byte	.LASF178
 4739 0c05 07       		.byte	0x7
 4740 0c06 5302     		.2byte	0x253
 4741 0c08 620A0000 		.4byte	0xa62
 4742 0c0c 05       		.uleb128 0x5
 4743 0c0d 03       		.byte	0x3
 4744 0c0e 00000000 		.4byte	testmtx8
 4745 0c12 18       		.uleb128 0x18
 4746 0c13 2D0C0000 		.4byte	0xc2d
 4747 0c17 220C0000 		.4byte	0xc22
 4748 0c1b 19       		.uleb128 0x19
 4749 0c1c 37000000 		.4byte	0x37
 4750 0c20 08       		.byte	0x8
 4751 0c21 00       		.byte	0
 4752 0c22 0B       		.uleb128 0xb
 4753 0c23 120C0000 		.4byte	0xc12
 4754 0c27 0A       		.uleb128 0xa
ARM GAS  C:\Users\PCHAUT~1\AppData\Local\Temp\cc4us1Pe.s 			page 85


 4755 0c28 04       		.byte	0x4
 4756 0c29 620A0000 		.4byte	0xa62
 4757 0c2d 0B       		.uleb128 0xb
 4758 0c2e 270C0000 		.4byte	0xc27
 4759 0c32 27       		.uleb128 0x27
 4760 0c33 9B070000 		.4byte	.LASF179
 4761 0c37 07       		.byte	0x7
 4762 0c38 5F02     		.2byte	0x25f
 4763 0c3a 220C0000 		.4byte	0xc22
 4764 0c3e 05       		.uleb128 0x5
 4765 0c3f 03       		.byte	0x3
 4766 0c40 00000000 		.4byte	patternmtx
 4767 0c44 28       		.uleb128 0x28
 4768 0c45 5B040000 		.4byte	.LASF181
 4769 0c49 07       		.byte	0x7
 4770 0c4a 4702     		.2byte	0x247
 4771 0c4c 00000000 		.4byte	.LFB248
 4772 0c50 C0000000 		.4byte	.LFE248-.LFB248
 4773 0c54 01       		.uleb128 0x1
 4774 0c55 9C       		.byte	0x9c
 4775 0c56 6A0C0000 		.4byte	0xc6a
 4776 0c5a 29       		.uleb128 0x29
 4777 0c5b 30010000 		.4byte	.LASF180
 4778 0c5f 07       		.byte	0x7
 4779 0c60 4902     		.2byte	0x249
 4780 0c62 32010000 		.4byte	0x132
 4781 0c66 02       		.uleb128 0x2
 4782 0c67 91       		.byte	0x91
 4783 0c68 70       		.sleb128 -16
 4784 0c69 00       		.byte	0
 4785 0c6a 28       		.uleb128 0x28
 4786 0c6b 02010000 		.4byte	.LASF182
 4787 0c6f 07       		.byte	0x7
 4788 0c70 4002     		.2byte	0x240
 4789 0c72 00000000 		.4byte	.LFB247
 4790 0c76 40000000 		.4byte	.LFE247-.LFB247
 4791 0c7a 01       		.uleb128 0x1
 4792 0c7b 9C       		.byte	0x9c
 4793 0c7c 8E0C0000 		.4byte	0xc8e
 4794 0c80 2A       		.uleb128 0x2a
 4795 0c81 7000     		.ascii	"p\000"
 4796 0c83 07       		.byte	0x7
 4797 0c84 4002     		.2byte	0x240
 4798 0c86 8F030000 		.4byte	0x38f
 4799 0c8a 02       		.uleb128 0x2
 4800 0c8b 91       		.byte	0x91
 4801 0c8c 6C       		.sleb128 -20
 4802 0c8d 00       		.byte	0
 4803 0c8e 28       		.uleb128 0x28
 4804 0c8f F9000000 		.4byte	.LASF183
 4805 0c93 07       		.byte	0x7
 4806 0c94 3202     		.2byte	0x232
 4807 0c96 00000000 		.4byte	.LFB246
 4808 0c9a 60000000 		.4byte	.LFE246-.LFB246
 4809 0c9e 01       		.uleb128 0x1
 4810 0c9f 9C       		.byte	0x9c
 4811 0ca0 B20C0000 		.4byte	0xcb2
ARM GAS  C:\Users\PCHAUT~1\AppData\Local\Temp\cc4us1Pe.s 			page 86


 4812 0ca4 2A       		.uleb128 0x2a
 4813 0ca5 7000     		.ascii	"p\000"
 4814 0ca7 07       		.byte	0x7
 4815 0ca8 3202     		.2byte	0x232
 4816 0caa 8F030000 		.4byte	0x38f
 4817 0cae 02       		.uleb128 0x2
 4818 0caf 91       		.byte	0x91
 4819 0cb0 6C       		.sleb128 -20
 4820 0cb1 00       		.byte	0
 4821 0cb2 2B       		.uleb128 0x2b
 4822 0cb3 3D080000 		.4byte	.LASF185
 4823 0cb7 07       		.byte	0x7
 4824 0cb8 2B02     		.2byte	0x22b
 4825 0cba 00000000 		.4byte	.LFB245
 4826 0cbe 44000000 		.4byte	.LFE245-.LFB245
 4827 0cc2 01       		.uleb128 0x1
 4828 0cc3 9C       		.byte	0x9c
 4829 0cc4 28       		.uleb128 0x28
 4830 0cc5 C7000000 		.4byte	.LASF184
 4831 0cc9 07       		.byte	0x7
 4832 0cca 0E02     		.2byte	0x20e
 4833 0ccc 00000000 		.4byte	.LFB244
 4834 0cd0 F4000000 		.4byte	.LFE244-.LFB244
 4835 0cd4 01       		.uleb128 0x1
 4836 0cd5 9C       		.byte	0x9c
 4837 0cd6 EA0C0000 		.4byte	0xcea
 4838 0cda 29       		.uleb128 0x29
 4839 0cdb 30010000 		.4byte	.LASF180
 4840 0cdf 07       		.byte	0x7
 4841 0ce0 1002     		.2byte	0x210
 4842 0ce2 32010000 		.4byte	0x132
 4843 0ce6 02       		.uleb128 0x2
 4844 0ce7 91       		.byte	0x91
 4845 0ce8 70       		.sleb128 -16
 4846 0ce9 00       		.byte	0
 4847 0cea 2B       		.uleb128 0x2b
 4848 0ceb 5D030000 		.4byte	.LASF186
 4849 0cef 07       		.byte	0x7
 4850 0cf0 0802     		.2byte	0x208
 4851 0cf2 00000000 		.4byte	.LFB243
 4852 0cf6 38000000 		.4byte	.LFE243-.LFB243
 4853 0cfa 01       		.uleb128 0x1
 4854 0cfb 9C       		.byte	0x9c
 4855 0cfc 28       		.uleb128 0x28
 4856 0cfd B7090000 		.4byte	.LASF187
 4857 0d01 07       		.byte	0x7
 4858 0d02 E301     		.2byte	0x1e3
 4859 0d04 00000000 		.4byte	.LFB242
 4860 0d08 18010000 		.4byte	.LFE242-.LFB242
 4861 0d0c 01       		.uleb128 0x1
 4862 0d0d 9C       		.byte	0x9c
 4863 0d0e 220D0000 		.4byte	0xd22
 4864 0d12 29       		.uleb128 0x29
 4865 0d13 30010000 		.4byte	.LASF180
 4866 0d17 07       		.byte	0x7
 4867 0d18 E501     		.2byte	0x1e5
 4868 0d1a 32010000 		.4byte	0x132
ARM GAS  C:\Users\PCHAUT~1\AppData\Local\Temp\cc4us1Pe.s 			page 87


 4869 0d1e 02       		.uleb128 0x2
 4870 0d1f 91       		.byte	0x91
 4871 0d20 70       		.sleb128 -16
 4872 0d21 00       		.byte	0
 4873 0d22 28       		.uleb128 0x28
 4874 0d23 8E090000 		.4byte	.LASF188
 4875 0d27 07       		.byte	0x7
 4876 0d28 DB01     		.2byte	0x1db
 4877 0d2a 00000000 		.4byte	.LFB241
 4878 0d2e 4C000000 		.4byte	.LFE241-.LFB241
 4879 0d32 01       		.uleb128 0x1
 4880 0d33 9C       		.byte	0x9c
 4881 0d34 460D0000 		.4byte	0xd46
 4882 0d38 2A       		.uleb128 0x2a
 4883 0d39 7000     		.ascii	"p\000"
 4884 0d3b 07       		.byte	0x7
 4885 0d3c DB01     		.2byte	0x1db
 4886 0d3e 8F030000 		.4byte	0x38f
 4887 0d42 02       		.uleb128 0x2
 4888 0d43 91       		.byte	0x91
 4889 0d44 6C       		.sleb128 -20
 4890 0d45 00       		.byte	0
 4891 0d46 2B       		.uleb128 0x2b
 4892 0d47 0D030000 		.4byte	.LASF189
 4893 0d4b 07       		.byte	0x7
 4894 0d4c D501     		.2byte	0x1d5
 4895 0d4e 00000000 		.4byte	.LFB240
 4896 0d52 38000000 		.4byte	.LFE240-.LFB240
 4897 0d56 01       		.uleb128 0x1
 4898 0d57 9C       		.byte	0x9c
 4899 0d58 2B       		.uleb128 0x2b
 4900 0d59 85070000 		.4byte	.LASF190
 4901 0d5d 07       		.byte	0x7
 4902 0d5e A701     		.2byte	0x1a7
 4903 0d60 00000000 		.4byte	.LFB239
 4904 0d64 64000000 		.4byte	.LFE239-.LFB239
 4905 0d68 01       		.uleb128 0x1
 4906 0d69 9C       		.byte	0x9c
 4907 0d6a 2B       		.uleb128 0x2b
 4908 0d6b 1E090000 		.4byte	.LASF191
 4909 0d6f 07       		.byte	0x7
 4910 0d70 A201     		.2byte	0x1a2
 4911 0d72 00000000 		.4byte	.LFB238
 4912 0d76 30000000 		.4byte	.LFE238-.LFB238
 4913 0d7a 01       		.uleb128 0x1
 4914 0d7b 9C       		.byte	0x9c
 4915 0d7c 28       		.uleb128 0x28
 4916 0d7d F3030000 		.4byte	.LASF192
 4917 0d81 07       		.byte	0x7
 4918 0d82 6201     		.2byte	0x162
 4919 0d84 00000000 		.4byte	.LFB237
 4920 0d88 38030000 		.4byte	.LFE237-.LFB237
 4921 0d8c 01       		.uleb128 0x1
 4922 0d8d 9C       		.byte	0x9c
 4923 0d8e BC0D0000 		.4byte	0xdbc
 4924 0d92 2C       		.uleb128 0x2c
 4925 0d93 7000     		.ascii	"p\000"
ARM GAS  C:\Users\PCHAUT~1\AppData\Local\Temp\cc4us1Pe.s 			page 88


 4926 0d95 07       		.byte	0x7
 4927 0d96 6301     		.2byte	0x163
 4928 0d98 32010000 		.4byte	0x132
 4929 0d9c 02       		.uleb128 0x2
 4930 0d9d 91       		.byte	0x91
 4931 0d9e 68       		.sleb128 -24
 4932 0d9f 2C       		.uleb128 0x2c
 4933 0da0 703100   		.ascii	"p1\000"
 4934 0da3 07       		.byte	0x7
 4935 0da4 6301     		.2byte	0x163
 4936 0da6 32010000 		.4byte	0x132
 4937 0daa 02       		.uleb128 0x2
 4938 0dab 91       		.byte	0x91
 4939 0dac 6C       		.sleb128 -20
 4940 0dad 2C       		.uleb128 0x2c
 4941 0dae 703200   		.ascii	"p2\000"
 4942 0db1 07       		.byte	0x7
 4943 0db2 6301     		.2byte	0x163
 4944 0db4 32010000 		.4byte	0x132
 4945 0db8 02       		.uleb128 0x2
 4946 0db9 91       		.byte	0x91
 4947 0dba 70       		.sleb128 -16
 4948 0dbb 00       		.byte	0
 4949 0dbc 28       		.uleb128 0x28
 4950 0dbd 7D020000 		.4byte	.LASF193
 4951 0dc1 07       		.byte	0x7
 4952 0dc2 5A01     		.2byte	0x15a
 4953 0dc4 00000000 		.4byte	.LFB236
 4954 0dc8 3C000000 		.4byte	.LFE236-.LFB236
 4955 0dcc 01       		.uleb128 0x1
 4956 0dcd 9C       		.byte	0x9c
 4957 0dce E00D0000 		.4byte	0xde0
 4958 0dd2 2A       		.uleb128 0x2a
 4959 0dd3 7000     		.ascii	"p\000"
 4960 0dd5 07       		.byte	0x7
 4961 0dd6 5A01     		.2byte	0x15a
 4962 0dd8 8F030000 		.4byte	0x38f
 4963 0ddc 02       		.uleb128 0x2
 4964 0ddd 91       		.byte	0x91
 4965 0dde 6C       		.sleb128 -20
 4966 0ddf 00       		.byte	0
 4967 0de0 28       		.uleb128 0x28
 4968 0de1 74020000 		.4byte	.LASF194
 4969 0de5 07       		.byte	0x7
 4970 0de6 5201     		.2byte	0x152
 4971 0de8 00000000 		.4byte	.LFB235
 4972 0dec 3C000000 		.4byte	.LFE235-.LFB235
 4973 0df0 01       		.uleb128 0x1
 4974 0df1 9C       		.byte	0x9c
 4975 0df2 040E0000 		.4byte	0xe04
 4976 0df6 2A       		.uleb128 0x2a
 4977 0df7 7000     		.ascii	"p\000"
 4978 0df9 07       		.byte	0x7
 4979 0dfa 5201     		.2byte	0x152
 4980 0dfc 8F030000 		.4byte	0x38f
 4981 0e00 02       		.uleb128 0x2
 4982 0e01 91       		.byte	0x91
ARM GAS  C:\Users\PCHAUT~1\AppData\Local\Temp\cc4us1Pe.s 			page 89


 4983 0e02 6C       		.sleb128 -20
 4984 0e03 00       		.byte	0
 4985 0e04 2B       		.uleb128 0x2b
 4986 0e05 D8010000 		.4byte	.LASF195
 4987 0e09 07       		.byte	0x7
 4988 0e0a 4C01     		.2byte	0x14c
 4989 0e0c 00000000 		.4byte	.LFB234
 4990 0e10 38000000 		.4byte	.LFE234-.LFB234
 4991 0e14 01       		.uleb128 0x1
 4992 0e15 9C       		.byte	0x9c
 4993 0e16 28       		.uleb128 0x28
 4994 0e17 2A020000 		.4byte	.LASF196
 4995 0e1b 07       		.byte	0x7
 4996 0e1c 2B01     		.2byte	0x12b
 4997 0e1e 00000000 		.4byte	.LFB233
 4998 0e22 20010000 		.4byte	.LFE233-.LFB233
 4999 0e26 01       		.uleb128 0x1
 5000 0e27 9C       		.byte	0x9c
 5001 0e28 3C0E0000 		.4byte	0xe3c
 5002 0e2c 29       		.uleb128 0x29
 5003 0e2d 03090000 		.4byte	.LASF197
 5004 0e31 07       		.byte	0x7
 5005 0e32 2C01     		.2byte	0x12c
 5006 0e34 69010000 		.4byte	0x169
 5007 0e38 02       		.uleb128 0x2
 5008 0e39 91       		.byte	0x91
 5009 0e3a 70       		.sleb128 -16
 5010 0e3b 00       		.byte	0
 5011 0e3c 28       		.uleb128 0x28
 5012 0e3d 51000000 		.4byte	.LASF198
 5013 0e41 07       		.byte	0x7
 5014 0e42 2101     		.2byte	0x121
 5015 0e44 00000000 		.4byte	.LFB232
 5016 0e48 48000000 		.4byte	.LFE232-.LFB232
 5017 0e4c 01       		.uleb128 0x1
 5018 0e4d 9C       		.byte	0x9c
 5019 0e4e 600E0000 		.4byte	0xe60
 5020 0e52 2A       		.uleb128 0x2a
 5021 0e53 7000     		.ascii	"p\000"
 5022 0e55 07       		.byte	0x7
 5023 0e56 2101     		.2byte	0x121
 5024 0e58 8F030000 		.4byte	0x38f
 5025 0e5c 02       		.uleb128 0x2
 5026 0e5d 91       		.byte	0x91
 5027 0e5e 6C       		.sleb128 -20
 5028 0e5f 00       		.byte	0
 5029 0e60 28       		.uleb128 0x28
 5030 0e61 18020000 		.4byte	.LASF199
 5031 0e65 07       		.byte	0x7
 5032 0e66 1801     		.2byte	0x118
 5033 0e68 00000000 		.4byte	.LFB231
 5034 0e6c 38000000 		.4byte	.LFE231-.LFB231
 5035 0e70 01       		.uleb128 0x1
 5036 0e71 9C       		.byte	0x9c
 5037 0e72 840E0000 		.4byte	0xe84
 5038 0e76 2A       		.uleb128 0x2a
 5039 0e77 7000     		.ascii	"p\000"
ARM GAS  C:\Users\PCHAUT~1\AppData\Local\Temp\cc4us1Pe.s 			page 90


 5040 0e79 07       		.byte	0x7
 5041 0e7a 1801     		.2byte	0x118
 5042 0e7c 8F030000 		.4byte	0x38f
 5043 0e80 02       		.uleb128 0x2
 5044 0e81 91       		.byte	0x91
 5045 0e82 6C       		.sleb128 -20
 5046 0e83 00       		.byte	0
 5047 0e84 28       		.uleb128 0x28
 5048 0e85 21020000 		.4byte	.LASF200
 5049 0e89 07       		.byte	0x7
 5050 0e8a 0D01     		.2byte	0x10d
 5051 0e8c 00000000 		.4byte	.LFB230
 5052 0e90 48000000 		.4byte	.LFE230-.LFB230
 5053 0e94 01       		.uleb128 0x1
 5054 0e95 9C       		.byte	0x9c
 5055 0e96 A80E0000 		.4byte	0xea8
 5056 0e9a 2A       		.uleb128 0x2a
 5057 0e9b 7000     		.ascii	"p\000"
 5058 0e9d 07       		.byte	0x7
 5059 0e9e 0D01     		.2byte	0x10d
 5060 0ea0 8F030000 		.4byte	0x38f
 5061 0ea4 02       		.uleb128 0x2
 5062 0ea5 91       		.byte	0x91
 5063 0ea6 6C       		.sleb128 -20
 5064 0ea7 00       		.byte	0
 5065 0ea8 2D       		.uleb128 0x2d
 5066 0ea9 D90A0000 		.4byte	.LASF201
 5067 0ead 07       		.byte	0x7
 5068 0eae FE       		.byte	0xfe
 5069 0eaf 00000000 		.4byte	.LFB229
 5070 0eb3 64000000 		.4byte	.LFE229-.LFB229
 5071 0eb7 01       		.uleb128 0x1
 5072 0eb8 9C       		.byte	0x9c
 5073 0eb9 CA0E0000 		.4byte	0xeca
 5074 0ebd 2E       		.uleb128 0x2e
 5075 0ebe 7000     		.ascii	"p\000"
 5076 0ec0 07       		.byte	0x7
 5077 0ec1 FE       		.byte	0xfe
 5078 0ec2 8F030000 		.4byte	0x38f
 5079 0ec6 02       		.uleb128 0x2
 5080 0ec7 91       		.byte	0x91
 5081 0ec8 6C       		.sleb128 -20
 5082 0ec9 00       		.byte	0
 5083 0eca 2D       		.uleb128 0x2d
 5084 0ecb C9010000 		.4byte	.LASF202
 5085 0ecf 07       		.byte	0x7
 5086 0ed0 F4       		.byte	0xf4
 5087 0ed1 00000000 		.4byte	.LFB228
 5088 0ed5 44000000 		.4byte	.LFE228-.LFB228
 5089 0ed9 01       		.uleb128 0x1
 5090 0eda 9C       		.byte	0x9c
 5091 0edb EC0E0000 		.4byte	0xeec
 5092 0edf 2E       		.uleb128 0x2e
 5093 0ee0 7000     		.ascii	"p\000"
 5094 0ee2 07       		.byte	0x7
 5095 0ee3 F4       		.byte	0xf4
 5096 0ee4 8F030000 		.4byte	0x38f
ARM GAS  C:\Users\PCHAUT~1\AppData\Local\Temp\cc4us1Pe.s 			page 91


 5097 0ee8 02       		.uleb128 0x2
 5098 0ee9 91       		.byte	0x91
 5099 0eea 6C       		.sleb128 -20
 5100 0eeb 00       		.byte	0
 5101 0eec 2F       		.uleb128 0x2f
 5102 0eed 35010000 		.4byte	.LASF203
 5103 0ef1 07       		.byte	0x7
 5104 0ef2 ED       		.byte	0xed
 5105 0ef3 00000000 		.4byte	.LFB227
 5106 0ef7 38000000 		.4byte	.LFE227-.LFB227
 5107 0efb 01       		.uleb128 0x1
 5108 0efc 9C       		.byte	0x9c
 5109 0efd 2D       		.uleb128 0x2d
 5110 0efe AF0A0000 		.4byte	.LASF204
 5111 0f02 07       		.byte	0x7
 5112 0f03 BA       		.byte	0xba
 5113 0f04 00000000 		.4byte	.LFB226
 5114 0f08 D4000000 		.4byte	.LFE226-.LFB226
 5115 0f0c 01       		.uleb128 0x1
 5116 0f0d 9C       		.byte	0x9c
 5117 0f0e 210F0000 		.4byte	0xf21
 5118 0f12 30       		.uleb128 0x30
 5119 0f13 03090000 		.4byte	.LASF197
 5120 0f17 07       		.byte	0x7
 5121 0f18 BB       		.byte	0xbb
 5122 0f19 69010000 		.4byte	0x169
 5123 0f1d 02       		.uleb128 0x2
 5124 0f1e 91       		.byte	0x91
 5125 0f1f 70       		.sleb128 -16
 5126 0f20 00       		.byte	0
 5127 0f21 2D       		.uleb128 0x2d
 5128 0f22 7F010000 		.4byte	.LASF205
 5129 0f26 07       		.byte	0x7
 5130 0f27 B0       		.byte	0xb0
 5131 0f28 00000000 		.4byte	.LFB225
 5132 0f2c 48000000 		.4byte	.LFE225-.LFB225
 5133 0f30 01       		.uleb128 0x1
 5134 0f31 9C       		.byte	0x9c
 5135 0f32 430F0000 		.4byte	0xf43
 5136 0f36 2E       		.uleb128 0x2e
 5137 0f37 7000     		.ascii	"p\000"
 5138 0f39 07       		.byte	0x7
 5139 0f3a B0       		.byte	0xb0
 5140 0f3b 8F030000 		.4byte	0x38f
 5141 0f3f 02       		.uleb128 0x2
 5142 0f40 91       		.byte	0x91
 5143 0f41 6C       		.sleb128 -20
 5144 0f42 00       		.byte	0
 5145 0f43 2D       		.uleb128 0x2d
 5146 0f44 90010000 		.4byte	.LASF206
 5147 0f48 07       		.byte	0x7
 5148 0f49 A7       		.byte	0xa7
 5149 0f4a 00000000 		.4byte	.LFB224
 5150 0f4e 38000000 		.4byte	.LFE224-.LFB224
 5151 0f52 01       		.uleb128 0x1
 5152 0f53 9C       		.byte	0x9c
 5153 0f54 650F0000 		.4byte	0xf65
ARM GAS  C:\Users\PCHAUT~1\AppData\Local\Temp\cc4us1Pe.s 			page 92


 5154 0f58 2E       		.uleb128 0x2e
 5155 0f59 7000     		.ascii	"p\000"
 5156 0f5b 07       		.byte	0x7
 5157 0f5c A7       		.byte	0xa7
 5158 0f5d 8F030000 		.4byte	0x38f
 5159 0f61 02       		.uleb128 0x2
 5160 0f62 91       		.byte	0x91
 5161 0f63 6C       		.sleb128 -20
 5162 0f64 00       		.byte	0
 5163 0f65 2D       		.uleb128 0x2d
 5164 0f66 94080000 		.4byte	.LASF207
 5165 0f6a 07       		.byte	0x7
 5166 0f6b 9C       		.byte	0x9c
 5167 0f6c 00000000 		.4byte	.LFB223
 5168 0f70 48000000 		.4byte	.LFE223-.LFB223
 5169 0f74 01       		.uleb128 0x1
 5170 0f75 9C       		.byte	0x9c
 5171 0f76 870F0000 		.4byte	0xf87
 5172 0f7a 2E       		.uleb128 0x2e
 5173 0f7b 7000     		.ascii	"p\000"
 5174 0f7d 07       		.byte	0x7
 5175 0f7e 9C       		.byte	0x9c
 5176 0f7f 8F030000 		.4byte	0x38f
 5177 0f83 02       		.uleb128 0x2
 5178 0f84 91       		.byte	0x91
 5179 0f85 6C       		.sleb128 -20
 5180 0f86 00       		.byte	0
 5181 0f87 2F       		.uleb128 0x2f
 5182 0f88 D4000000 		.4byte	.LASF208
 5183 0f8c 07       		.byte	0x7
 5184 0f8d 96       		.byte	0x96
 5185 0f8e 00000000 		.4byte	.LFB222
 5186 0f92 30000000 		.4byte	.LFE222-.LFB222
 5187 0f96 01       		.uleb128 0x1
 5188 0f97 9C       		.byte	0x9c
 5189 0f98 2D       		.uleb128 0x2d
 5190 0f99 04080000 		.4byte	.LASF209
 5191 0f9d 07       		.byte	0x7
 5192 0f9e 60       		.byte	0x60
 5193 0f9f 00000000 		.4byte	.LFB221
 5194 0fa3 1C010000 		.4byte	.LFE221-.LFB221
 5195 0fa7 01       		.uleb128 0x1
 5196 0fa8 9C       		.byte	0x9c
 5197 0fa9 BC0F0000 		.4byte	0xfbc
 5198 0fad 30       		.uleb128 0x30
 5199 0fae 30010000 		.4byte	.LASF180
 5200 0fb2 07       		.byte	0x7
 5201 0fb3 62       		.byte	0x62
 5202 0fb4 32010000 		.4byte	0x132
 5203 0fb8 02       		.uleb128 0x2
 5204 0fb9 91       		.byte	0x91
 5205 0fba 70       		.sleb128 -16
 5206 0fbb 00       		.byte	0
 5207 0fbc 2D       		.uleb128 0x2d
 5208 0fbd CA080000 		.4byte	.LASF210
 5209 0fc1 07       		.byte	0x7
 5210 0fc2 59       		.byte	0x59
ARM GAS  C:\Users\PCHAUT~1\AppData\Local\Temp\cc4us1Pe.s 			page 93


 5211 0fc3 00000000 		.4byte	.LFB220
 5212 0fc7 40000000 		.4byte	.LFE220-.LFB220
 5213 0fcb 01       		.uleb128 0x1
 5214 0fcc 9C       		.byte	0x9c
 5215 0fcd DE0F0000 		.4byte	0xfde
 5216 0fd1 2E       		.uleb128 0x2e
 5217 0fd2 7000     		.ascii	"p\000"
 5218 0fd4 07       		.byte	0x7
 5219 0fd5 59       		.byte	0x59
 5220 0fd6 8F030000 		.4byte	0x38f
 5221 0fda 02       		.uleb128 0x2
 5222 0fdb 91       		.byte	0x91
 5223 0fdc 6C       		.sleb128 -20
 5224 0fdd 00       		.byte	0
 5225 0fde 2F       		.uleb128 0x2f
 5226 0fdf F8080000 		.4byte	.LASF211
 5227 0fe3 07       		.byte	0x7
 5228 0fe4 54       		.byte	0x54
 5229 0fe5 00000000 		.4byte	.LFB219
 5230 0fe9 30000000 		.4byte	.LFE219-.LFB219
 5231 0fed 01       		.uleb128 0x1
 5232 0fee 9C       		.byte	0x9c
 5233 0fef 31       		.uleb128 0x31
 5234 0ff0 AC000000 		.4byte	.LASF212
 5235 0ff4 06       		.byte	0x6
 5236 0ff5 BB       		.byte	0xbb
 5237 0ff6 32010000 		.4byte	0x132
 5238 0ffa 00000000 		.4byte	.LFB167
 5239 0ffe 2C000000 		.4byte	.LFE167-.LFB167
 5240 1002 01       		.uleb128 0x1
 5241 1003 9C       		.byte	0x9c
 5242 1004 31       		.uleb128 0x31
 5243 1005 80090000 		.4byte	.LASF213
 5244 1009 06       		.byte	0x6
 5245 100a AE       		.byte	0xae
 5246 100b AD020000 		.4byte	0x2ad
 5247 100f 00000000 		.4byte	.LFB166
 5248 1013 2C000000 		.4byte	.LFE166-.LFB166
 5249 1017 01       		.uleb128 0x1
 5250 1018 9C       		.byte	0x9c
 5251 1019 32       		.uleb128 0x32
 5252 101a 1E010000 		.4byte	.LASF218
 5253 101e 05       		.byte	0x5
 5254 101f F7       		.byte	0xf7
 5255 1020 69010000 		.4byte	0x169
 5256 1024 00000000 		.4byte	.LFB154
 5257 1028 34000000 		.4byte	.LFE154-.LFB154
 5258 102c 01       		.uleb128 0x1
 5259 102d 9C       		.byte	0x9c
 5260 102e 41100000 		.4byte	0x1041
 5261 1032 30       		.uleb128 0x30
 5262 1033 77010000 		.4byte	.LASF214
 5263 1037 05       		.byte	0x5
 5264 1038 F8       		.byte	0xf8
 5265 1039 69010000 		.4byte	0x169
 5266 103d 02       		.uleb128 0x2
 5267 103e 91       		.byte	0x91
ARM GAS  C:\Users\PCHAUT~1\AppData\Local\Temp\cc4us1Pe.s 			page 94


 5268 103f 70       		.sleb128 -16
 5269 1040 00       		.byte	0
 5270 1041 31       		.uleb128 0x31
 5271 1042 C5070000 		.4byte	.LASF215
 5272 1046 05       		.byte	0x5
 5273 1047 E4       		.byte	0xe4
 5274 1048 69010000 		.4byte	0x169
 5275 104c 00000000 		.4byte	.LFB153
 5276 1050 2C000000 		.4byte	.LFE153-.LFB153
 5277 1054 01       		.uleb128 0x1
 5278 1055 9C       		.byte	0x9c
 5279 1056 28       		.uleb128 0x28
 5280 1057 16040000 		.4byte	.LASF216
 5281 105b 04       		.byte	0x4
 5282 105c 6601     		.2byte	0x166
 5283 105e 00000000 		.4byte	.LFB146
 5284 1062 58000000 		.4byte	.LFE146-.LFB146
 5285 1066 01       		.uleb128 0x1
 5286 1067 9C       		.byte	0x9c
 5287 1068 7C100000 		.4byte	0x107c
 5288 106c 33       		.uleb128 0x33
 5289 106d BE000000 		.4byte	.LASF226
 5290 1071 8C100000 		.4byte	0x108c
 5291 1075 05       		.uleb128 0x5
 5292 1076 03       		.byte	0x3
 5293 1077 00000000 		.4byte	__func__.7153
 5294 107b 00       		.byte	0
 5295 107c 18       		.uleb128 0x18
 5296 107d B8080000 		.4byte	0x8b8
 5297 1081 8C100000 		.4byte	0x108c
 5298 1085 19       		.uleb128 0x19
 5299 1086 37000000 		.4byte	0x37
 5300 108a 0B       		.byte	0xb
 5301 108b 00       		.byte	0
 5302 108c 0B       		.uleb128 0xb
 5303 108d 7C100000 		.4byte	0x107c
 5304 1091 2B       		.uleb128 0x2b
 5305 1092 3C040000 		.4byte	.LASF217
 5306 1096 04       		.byte	0x4
 5307 1097 5A01     		.2byte	0x15a
 5308 1099 00000000 		.4byte	.LFB145
 5309 109d 30000000 		.4byte	.LFE145-.LFB145
 5310 10a1 01       		.uleb128 0x1
 5311 10a2 9C       		.byte	0x9c
 5312 10a3 34       		.uleb128 0x34
 5313 10a4 C2040000 		.4byte	.LASF219
 5314 10a8 03       		.byte	0x3
 5315 10a9 6802     		.2byte	0x268
 5316 10ab 020B0000 		.4byte	0xb02
 5317 10af 00000000 		.4byte	.LFB129
 5318 10b3 38000000 		.4byte	.LFE129-.LFB129
 5319 10b7 01       		.uleb128 0x1
 5320 10b8 9C       		.byte	0x9c
 5321 10b9 CD100000 		.4byte	0x10cd
 5322 10bd 2A       		.uleb128 0x2a
 5323 10be 74717000 		.ascii	"tqp\000"
 5324 10c2 03       		.byte	0x3
ARM GAS  C:\Users\PCHAUT~1\AppData\Local\Temp\cc4us1Pe.s 			page 95


 5325 10c3 6802     		.2byte	0x268
 5326 10c5 CD100000 		.4byte	0x10cd
 5327 10c9 02       		.uleb128 0x2
 5328 10ca 91       		.byte	0x91
 5329 10cb 6C       		.sleb128 -20
 5330 10cc 00       		.byte	0
 5331 10cd 0A       		.uleb128 0xa
 5332 10ce 04       		.byte	0x4
 5333 10cf E2020000 		.4byte	0x2e2
 5334 10d3 28       		.uleb128 0x28
 5335 10d4 A9010000 		.4byte	.LASF220
 5336 10d8 01       		.byte	0x1
 5337 10d9 CA01     		.2byte	0x1ca
 5338 10db 00000000 		.4byte	.LFB117
 5339 10df 30000000 		.4byte	.LFE117-.LFB117
 5340 10e3 01       		.uleb128 0x1
 5341 10e4 9C       		.byte	0x9c
 5342 10e5 03110000 		.4byte	0x1103
 5343 10e9 35       		.uleb128 0x35
 5344 10ea 33110000 		.4byte	0x1133
 5345 10ee 0E000000 		.4byte	.LBB8
 5346 10f2 06000000 		.4byte	.LBE8-.LBB8
 5347 10f6 01       		.byte	0x1
 5348 10f7 CD01     		.2byte	0x1cd
 5349 10f9 36       		.uleb128 0x36
 5350 10fa 3C110000 		.4byte	0x113c
 5351 10fe 02       		.uleb128 0x2
 5352 10ff 91       		.byte	0x91
 5353 1100 70       		.sleb128 -16
 5354 1101 00       		.byte	0
 5355 1102 00       		.byte	0
 5356 1103 28       		.uleb128 0x28
 5357 1104 52090000 		.4byte	.LASF221
 5358 1108 01       		.byte	0x1
 5359 1109 BC01     		.2byte	0x1bc
 5360 110b 00000000 		.4byte	.LFB116
 5361 110f 30000000 		.4byte	.LFE116-.LFB116
 5362 1113 01       		.uleb128 0x1
 5363 1114 9C       		.byte	0x9c
 5364 1115 33110000 		.4byte	0x1133
 5365 1119 35       		.uleb128 0x35
 5366 111a 33110000 		.4byte	0x1133
 5367 111e 0E000000 		.4byte	.LBB6
 5368 1122 06000000 		.4byte	.LBE6-.LBB6
 5369 1126 01       		.byte	0x1
 5370 1127 BF01     		.2byte	0x1bf
 5371 1129 36       		.uleb128 0x36
 5372 112a 3C110000 		.4byte	0x113c
 5373 112e 02       		.uleb128 0x2
 5374 112f 91       		.byte	0x91
 5375 1130 70       		.sleb128 -16
 5376 1131 00       		.byte	0
 5377 1132 00       		.byte	0
 5378 1133 37       		.uleb128 0x37
 5379 1134 DD080000 		.4byte	.LASF227
 5380 1138 02       		.byte	0x2
 5381 1139 2002     		.2byte	0x220
ARM GAS  C:\Users\PCHAUT~1\AppData\Local\Temp\cc4us1Pe.s 			page 96


 5382 113b 03       		.byte	0x3
 5383 113c 38       		.uleb128 0x38
 5384 113d 07030000 		.4byte	.LASF228
 5385 1141 02       		.byte	0x2
 5386 1142 2002     		.2byte	0x220
 5387 1144 DA000000 		.4byte	0xda
 5388 1148 00       		.byte	0
 5389 1149 00       		.byte	0
 5390              		.section	.debug_abbrev,"",%progbits
 5391              	.Ldebug_abbrev0:
 5392 0000 01       		.uleb128 0x1
 5393 0001 11       		.uleb128 0x11
 5394 0002 01       		.byte	0x1
 5395 0003 25       		.uleb128 0x25
 5396 0004 0E       		.uleb128 0xe
 5397 0005 13       		.uleb128 0x13
 5398 0006 0B       		.uleb128 0xb
 5399 0007 03       		.uleb128 0x3
 5400 0008 0E       		.uleb128 0xe
 5401 0009 1B       		.uleb128 0x1b
 5402 000a 0E       		.uleb128 0xe
 5403 000b 55       		.uleb128 0x55
 5404 000c 17       		.uleb128 0x17
 5405 000d 11       		.uleb128 0x11
 5406 000e 01       		.uleb128 0x1
 5407 000f 10       		.uleb128 0x10
 5408 0010 17       		.uleb128 0x17
 5409 0011 00       		.byte	0
 5410 0012 00       		.byte	0
 5411 0013 02       		.uleb128 0x2
 5412 0014 24       		.uleb128 0x24
 5413 0015 00       		.byte	0
 5414 0016 0B       		.uleb128 0xb
 5415 0017 0B       		.uleb128 0xb
 5416 0018 3E       		.uleb128 0x3e
 5417 0019 0B       		.uleb128 0xb
 5418 001a 03       		.uleb128 0x3
 5419 001b 08       		.uleb128 0x8
 5420 001c 00       		.byte	0
 5421 001d 00       		.byte	0
 5422 001e 03       		.uleb128 0x3
 5423 001f 16       		.uleb128 0x16
 5424 0020 00       		.byte	0
 5425 0021 03       		.uleb128 0x3
 5426 0022 0E       		.uleb128 0xe
 5427 0023 3A       		.uleb128 0x3a
 5428 0024 0B       		.uleb128 0xb
 5429 0025 3B       		.uleb128 0x3b
 5430 0026 0B       		.uleb128 0xb
 5431 0027 49       		.uleb128 0x49
 5432 0028 13       		.uleb128 0x13
 5433 0029 00       		.byte	0
 5434 002a 00       		.byte	0
 5435 002b 04       		.uleb128 0x4
 5436 002c 24       		.uleb128 0x24
 5437 002d 00       		.byte	0
 5438 002e 0B       		.uleb128 0xb
ARM GAS  C:\Users\PCHAUT~1\AppData\Local\Temp\cc4us1Pe.s 			page 97


 5439 002f 0B       		.uleb128 0xb
 5440 0030 3E       		.uleb128 0x3e
 5441 0031 0B       		.uleb128 0xb
 5442 0032 03       		.uleb128 0x3
 5443 0033 0E       		.uleb128 0xe
 5444 0034 00       		.byte	0
 5445 0035 00       		.byte	0
 5446 0036 05       		.uleb128 0x5
 5447 0037 35       		.uleb128 0x35
 5448 0038 00       		.byte	0
 5449 0039 49       		.uleb128 0x49
 5450 003a 13       		.uleb128 0x13
 5451 003b 00       		.byte	0
 5452 003c 00       		.byte	0
 5453 003d 06       		.uleb128 0x6
 5454 003e 13       		.uleb128 0x13
 5455 003f 01       		.byte	0x1
 5456 0040 03       		.uleb128 0x3
 5457 0041 0E       		.uleb128 0xe
 5458 0042 0B       		.uleb128 0xb
 5459 0043 0B       		.uleb128 0xb
 5460 0044 3A       		.uleb128 0x3a
 5461 0045 0B       		.uleb128 0xb
 5462 0046 3B       		.uleb128 0x3b
 5463 0047 0B       		.uleb128 0xb
 5464 0048 01       		.uleb128 0x1
 5465 0049 13       		.uleb128 0x13
 5466 004a 00       		.byte	0
 5467 004b 00       		.byte	0
 5468 004c 07       		.uleb128 0x7
 5469 004d 0D       		.uleb128 0xd
 5470 004e 00       		.byte	0
 5471 004f 03       		.uleb128 0x3
 5472 0050 0E       		.uleb128 0xe
 5473 0051 3A       		.uleb128 0x3a
 5474 0052 0B       		.uleb128 0xb
 5475 0053 3B       		.uleb128 0x3b
 5476 0054 0B       		.uleb128 0xb
 5477 0055 49       		.uleb128 0x49
 5478 0056 13       		.uleb128 0x13
 5479 0057 38       		.uleb128 0x38
 5480 0058 0B       		.uleb128 0xb
 5481 0059 00       		.byte	0
 5482 005a 00       		.byte	0
 5483 005b 08       		.uleb128 0x8
 5484 005c 0D       		.uleb128 0xd
 5485 005d 00       		.byte	0
 5486 005e 03       		.uleb128 0x3
 5487 005f 08       		.uleb128 0x8
 5488 0060 3A       		.uleb128 0x3a
 5489 0061 0B       		.uleb128 0xb
 5490 0062 3B       		.uleb128 0x3b
 5491 0063 05       		.uleb128 0x5
 5492 0064 49       		.uleb128 0x49
 5493 0065 13       		.uleb128 0x13
 5494 0066 38       		.uleb128 0x38
 5495 0067 0B       		.uleb128 0xb
ARM GAS  C:\Users\PCHAUT~1\AppData\Local\Temp\cc4us1Pe.s 			page 98


 5496 0068 00       		.byte	0
 5497 0069 00       		.byte	0
 5498 006a 09       		.uleb128 0x9
 5499 006b 0D       		.uleb128 0xd
 5500 006c 00       		.byte	0
 5501 006d 03       		.uleb128 0x3
 5502 006e 0E       		.uleb128 0xe
 5503 006f 3A       		.uleb128 0x3a
 5504 0070 0B       		.uleb128 0xb
 5505 0071 3B       		.uleb128 0x3b
 5506 0072 05       		.uleb128 0x5
 5507 0073 49       		.uleb128 0x49
 5508 0074 13       		.uleb128 0x13
 5509 0075 38       		.uleb128 0x38
 5510 0076 0B       		.uleb128 0xb
 5511 0077 00       		.byte	0
 5512 0078 00       		.byte	0
 5513 0079 0A       		.uleb128 0xa
 5514 007a 0F       		.uleb128 0xf
 5515 007b 00       		.byte	0
 5516 007c 0B       		.uleb128 0xb
 5517 007d 0B       		.uleb128 0xb
 5518 007e 49       		.uleb128 0x49
 5519 007f 13       		.uleb128 0x13
 5520 0080 00       		.byte	0
 5521 0081 00       		.byte	0
 5522 0082 0B       		.uleb128 0xb
 5523 0083 26       		.uleb128 0x26
 5524 0084 00       		.byte	0
 5525 0085 49       		.uleb128 0x49
 5526 0086 13       		.uleb128 0x13
 5527 0087 00       		.byte	0
 5528 0088 00       		.byte	0
 5529 0089 0C       		.uleb128 0xc
 5530 008a 13       		.uleb128 0x13
 5531 008b 01       		.byte	0x1
 5532 008c 03       		.uleb128 0x3
 5533 008d 0E       		.uleb128 0xe
 5534 008e 0B       		.uleb128 0xb
 5535 008f 0B       		.uleb128 0xb
 5536 0090 3A       		.uleb128 0x3a
 5537 0091 0B       		.uleb128 0xb
 5538 0092 3B       		.uleb128 0x3b
 5539 0093 05       		.uleb128 0x5
 5540 0094 01       		.uleb128 0x1
 5541 0095 13       		.uleb128 0x13
 5542 0096 00       		.byte	0
 5543 0097 00       		.byte	0
 5544 0098 0D       		.uleb128 0xd
 5545 0099 15       		.uleb128 0x15
 5546 009a 01       		.byte	0x1
 5547 009b 27       		.uleb128 0x27
 5548 009c 19       		.uleb128 0x19
 5549 009d 01       		.uleb128 0x1
 5550 009e 13       		.uleb128 0x13
 5551 009f 00       		.byte	0
 5552 00a0 00       		.byte	0
ARM GAS  C:\Users\PCHAUT~1\AppData\Local\Temp\cc4us1Pe.s 			page 99


 5553 00a1 0E       		.uleb128 0xe
 5554 00a2 05       		.uleb128 0x5
 5555 00a3 00       		.byte	0
 5556 00a4 49       		.uleb128 0x49
 5557 00a5 13       		.uleb128 0x13
 5558 00a6 00       		.byte	0
 5559 00a7 00       		.byte	0
 5560 00a8 0F       		.uleb128 0xf
 5561 00a9 0F       		.uleb128 0xf
 5562 00aa 00       		.byte	0
 5563 00ab 0B       		.uleb128 0xb
 5564 00ac 0B       		.uleb128 0xb
 5565 00ad 00       		.byte	0
 5566 00ae 00       		.byte	0
 5567 00af 10       		.uleb128 0x10
 5568 00b0 13       		.uleb128 0x13
 5569 00b1 01       		.byte	0x1
 5570 00b2 03       		.uleb128 0x3
 5571 00b3 0E       		.uleb128 0xe
 5572 00b4 0B       		.uleb128 0xb
 5573 00b5 05       		.uleb128 0x5
 5574 00b6 3A       		.uleb128 0x3a
 5575 00b7 0B       		.uleb128 0xb
 5576 00b8 3B       		.uleb128 0x3b
 5577 00b9 05       		.uleb128 0x5
 5578 00ba 01       		.uleb128 0x1
 5579 00bb 13       		.uleb128 0x13
 5580 00bc 00       		.byte	0
 5581 00bd 00       		.byte	0
 5582 00be 11       		.uleb128 0x11
 5583 00bf 0D       		.uleb128 0xd
 5584 00c0 00       		.byte	0
 5585 00c1 03       		.uleb128 0x3
 5586 00c2 0E       		.uleb128 0xe
 5587 00c3 3A       		.uleb128 0x3a
 5588 00c4 0B       		.uleb128 0xb
 5589 00c5 3B       		.uleb128 0x3b
 5590 00c6 05       		.uleb128 0x5
 5591 00c7 49       		.uleb128 0x49
 5592 00c8 13       		.uleb128 0x13
 5593 00c9 38       		.uleb128 0x38
 5594 00ca 05       		.uleb128 0x5
 5595 00cb 00       		.byte	0
 5596 00cc 00       		.byte	0
 5597 00cd 12       		.uleb128 0x12
 5598 00ce 0D       		.uleb128 0xd
 5599 00cf 00       		.byte	0
 5600 00d0 03       		.uleb128 0x3
 5601 00d1 08       		.uleb128 0x8
 5602 00d2 3A       		.uleb128 0x3a
 5603 00d3 0B       		.uleb128 0xb
 5604 00d4 3B       		.uleb128 0x3b
 5605 00d5 05       		.uleb128 0x5
 5606 00d6 49       		.uleb128 0x49
 5607 00d7 13       		.uleb128 0x13
 5608 00d8 38       		.uleb128 0x38
 5609 00d9 05       		.uleb128 0x5
ARM GAS  C:\Users\PCHAUT~1\AppData\Local\Temp\cc4us1Pe.s 			page 100


 5610 00da 00       		.byte	0
 5611 00db 00       		.byte	0
 5612 00dc 13       		.uleb128 0x13
 5613 00dd 34       		.uleb128 0x34
 5614 00de 00       		.byte	0
 5615 00df 03       		.uleb128 0x3
 5616 00e0 0E       		.uleb128 0xe
 5617 00e1 3A       		.uleb128 0x3a
 5618 00e2 0B       		.uleb128 0xb
 5619 00e3 3B       		.uleb128 0x3b
 5620 00e4 05       		.uleb128 0x5
 5621 00e5 49       		.uleb128 0x49
 5622 00e6 13       		.uleb128 0x13
 5623 00e7 3F       		.uleb128 0x3f
 5624 00e8 19       		.uleb128 0x19
 5625 00e9 3C       		.uleb128 0x3c
 5626 00ea 19       		.uleb128 0x19
 5627 00eb 00       		.byte	0
 5628 00ec 00       		.byte	0
 5629 00ed 14       		.uleb128 0x14
 5630 00ee 34       		.uleb128 0x34
 5631 00ef 00       		.byte	0
 5632 00f0 03       		.uleb128 0x3
 5633 00f1 0E       		.uleb128 0xe
 5634 00f2 3A       		.uleb128 0x3a
 5635 00f3 0B       		.uleb128 0xb
 5636 00f4 3B       		.uleb128 0x3b
 5637 00f5 0B       		.uleb128 0xb
 5638 00f6 49       		.uleb128 0x49
 5639 00f7 13       		.uleb128 0x13
 5640 00f8 3F       		.uleb128 0x3f
 5641 00f9 19       		.uleb128 0x19
 5642 00fa 3C       		.uleb128 0x3c
 5643 00fb 19       		.uleb128 0x19
 5644 00fc 00       		.byte	0
 5645 00fd 00       		.byte	0
 5646 00fe 15       		.uleb128 0x15
 5647 00ff 0D       		.uleb128 0xd
 5648 0100 00       		.byte	0
 5649 0101 03       		.uleb128 0x3
 5650 0102 08       		.uleb128 0x8
 5651 0103 3A       		.uleb128 0x3a
 5652 0104 0B       		.uleb128 0xb
 5653 0105 3B       		.uleb128 0x3b
 5654 0106 0B       		.uleb128 0xb
 5655 0107 49       		.uleb128 0x49
 5656 0108 13       		.uleb128 0x13
 5657 0109 38       		.uleb128 0x38
 5658 010a 0B       		.uleb128 0xb
 5659 010b 00       		.byte	0
 5660 010c 00       		.byte	0
 5661 010d 16       		.uleb128 0x16
 5662 010e 13       		.uleb128 0x13
 5663 010f 01       		.byte	0x1
 5664 0110 0B       		.uleb128 0xb
 5665 0111 0B       		.uleb128 0xb
 5666 0112 3A       		.uleb128 0x3a
ARM GAS  C:\Users\PCHAUT~1\AppData\Local\Temp\cc4us1Pe.s 			page 101


 5667 0113 0B       		.uleb128 0xb
 5668 0114 3B       		.uleb128 0x3b
 5669 0115 0B       		.uleb128 0xb
 5670 0116 01       		.uleb128 0x1
 5671 0117 13       		.uleb128 0x13
 5672 0118 00       		.byte	0
 5673 0119 00       		.byte	0
 5674 011a 17       		.uleb128 0x17
 5675 011b 13       		.uleb128 0x13
 5676 011c 01       		.byte	0x1
 5677 011d 0B       		.uleb128 0xb
 5678 011e 05       		.uleb128 0x5
 5679 011f 3A       		.uleb128 0x3a
 5680 0120 0B       		.uleb128 0xb
 5681 0121 3B       		.uleb128 0x3b
 5682 0122 0B       		.uleb128 0xb
 5683 0123 01       		.uleb128 0x1
 5684 0124 13       		.uleb128 0x13
 5685 0125 00       		.byte	0
 5686 0126 00       		.byte	0
 5687 0127 18       		.uleb128 0x18
 5688 0128 01       		.uleb128 0x1
 5689 0129 01       		.byte	0x1
 5690 012a 49       		.uleb128 0x49
 5691 012b 13       		.uleb128 0x13
 5692 012c 01       		.uleb128 0x1
 5693 012d 13       		.uleb128 0x13
 5694 012e 00       		.byte	0
 5695 012f 00       		.byte	0
 5696 0130 19       		.uleb128 0x19
 5697 0131 21       		.uleb128 0x21
 5698 0132 00       		.byte	0
 5699 0133 49       		.uleb128 0x49
 5700 0134 13       		.uleb128 0x13
 5701 0135 2F       		.uleb128 0x2f
 5702 0136 0B       		.uleb128 0xb
 5703 0137 00       		.byte	0
 5704 0138 00       		.byte	0
 5705 0139 1A       		.uleb128 0x1a
 5706 013a 17       		.uleb128 0x17
 5707 013b 01       		.byte	0x1
 5708 013c 0B       		.uleb128 0xb
 5709 013d 0B       		.uleb128 0xb
 5710 013e 3A       		.uleb128 0x3a
 5711 013f 0B       		.uleb128 0xb
 5712 0140 3B       		.uleb128 0x3b
 5713 0141 0B       		.uleb128 0xb
 5714 0142 01       		.uleb128 0x1
 5715 0143 13       		.uleb128 0x13
 5716 0144 00       		.byte	0
 5717 0145 00       		.byte	0
 5718 0146 1B       		.uleb128 0x1b
 5719 0147 0D       		.uleb128 0xd
 5720 0148 00       		.byte	0
 5721 0149 03       		.uleb128 0x3
 5722 014a 0E       		.uleb128 0xe
 5723 014b 3A       		.uleb128 0x3a
ARM GAS  C:\Users\PCHAUT~1\AppData\Local\Temp\cc4us1Pe.s 			page 102


 5724 014c 0B       		.uleb128 0xb
 5725 014d 3B       		.uleb128 0x3b
 5726 014e 05       		.uleb128 0x5
 5727 014f 49       		.uleb128 0x49
 5728 0150 13       		.uleb128 0x13
 5729 0151 00       		.byte	0
 5730 0152 00       		.byte	0
 5731 0153 1C       		.uleb128 0x1c
 5732 0154 34       		.uleb128 0x34
 5733 0155 00       		.byte	0
 5734 0156 03       		.uleb128 0x3
 5735 0157 08       		.uleb128 0x8
 5736 0158 3A       		.uleb128 0x3a
 5737 0159 0B       		.uleb128 0xb
 5738 015a 3B       		.uleb128 0x3b
 5739 015b 05       		.uleb128 0x5
 5740 015c 49       		.uleb128 0x49
 5741 015d 13       		.uleb128 0x13
 5742 015e 3F       		.uleb128 0x3f
 5743 015f 19       		.uleb128 0x19
 5744 0160 3C       		.uleb128 0x3c
 5745 0161 19       		.uleb128 0x19
 5746 0162 00       		.byte	0
 5747 0163 00       		.byte	0
 5748 0164 1D       		.uleb128 0x1d
 5749 0165 15       		.uleb128 0x15
 5750 0166 00       		.byte	0
 5751 0167 27       		.uleb128 0x27
 5752 0168 19       		.uleb128 0x19
 5753 0169 00       		.byte	0
 5754 016a 00       		.byte	0
 5755 016b 1E       		.uleb128 0x1e
 5756 016c 0D       		.uleb128 0xd
 5757 016d 00       		.byte	0
 5758 016e 03       		.uleb128 0x3
 5759 016f 08       		.uleb128 0x8
 5760 0170 3A       		.uleb128 0x3a
 5761 0171 0B       		.uleb128 0xb
 5762 0172 3B       		.uleb128 0x3b
 5763 0173 0B       		.uleb128 0xb
 5764 0174 49       		.uleb128 0x49
 5765 0175 13       		.uleb128 0x13
 5766 0176 38       		.uleb128 0x38
 5767 0177 05       		.uleb128 0x5
 5768 0178 00       		.byte	0
 5769 0179 00       		.byte	0
 5770 017a 1F       		.uleb128 0x1f
 5771 017b 17       		.uleb128 0x17
 5772 017c 01       		.byte	0x1
 5773 017d 03       		.uleb128 0x3
 5774 017e 0E       		.uleb128 0xe
 5775 017f 0B       		.uleb128 0xb
 5776 0180 05       		.uleb128 0x5
 5777 0181 3A       		.uleb128 0x3a
 5778 0182 0B       		.uleb128 0xb
 5779 0183 3B       		.uleb128 0x3b
 5780 0184 0B       		.uleb128 0xb
ARM GAS  C:\Users\PCHAUT~1\AppData\Local\Temp\cc4us1Pe.s 			page 103


 5781 0185 01       		.uleb128 0x1
 5782 0186 13       		.uleb128 0x13
 5783 0187 00       		.byte	0
 5784 0188 00       		.byte	0
 5785 0189 20       		.uleb128 0x20
 5786 018a 0D       		.uleb128 0xd
 5787 018b 00       		.byte	0
 5788 018c 03       		.uleb128 0x3
 5789 018d 08       		.uleb128 0x8
 5790 018e 3A       		.uleb128 0x3a
 5791 018f 0B       		.uleb128 0xb
 5792 0190 3B       		.uleb128 0x3b
 5793 0191 0B       		.uleb128 0xb
 5794 0192 49       		.uleb128 0x49
 5795 0193 13       		.uleb128 0x13
 5796 0194 00       		.byte	0
 5797 0195 00       		.byte	0
 5798 0196 21       		.uleb128 0x21
 5799 0197 0D       		.uleb128 0xd
 5800 0198 00       		.byte	0
 5801 0199 03       		.uleb128 0x3
 5802 019a 0E       		.uleb128 0xe
 5803 019b 3A       		.uleb128 0x3a
 5804 019c 0B       		.uleb128 0xb
 5805 019d 3B       		.uleb128 0x3b
 5806 019e 0B       		.uleb128 0xb
 5807 019f 49       		.uleb128 0x49
 5808 01a0 13       		.uleb128 0x13
 5809 01a1 00       		.byte	0
 5810 01a2 00       		.byte	0
 5811 01a3 22       		.uleb128 0x22
 5812 01a4 21       		.uleb128 0x21
 5813 01a5 00       		.byte	0
 5814 01a6 49       		.uleb128 0x49
 5815 01a7 13       		.uleb128 0x13
 5816 01a8 2F       		.uleb128 0x2f
 5817 01a9 05       		.uleb128 0x5
 5818 01aa 00       		.byte	0
 5819 01ab 00       		.byte	0
 5820 01ac 23       		.uleb128 0x23
 5821 01ad 21       		.uleb128 0x21
 5822 01ae 00       		.byte	0
 5823 01af 00       		.byte	0
 5824 01b0 00       		.byte	0
 5825 01b1 24       		.uleb128 0x24
 5826 01b2 34       		.uleb128 0x34
 5827 01b3 00       		.byte	0
 5828 01b4 03       		.uleb128 0x3
 5829 01b5 08       		.uleb128 0x8
 5830 01b6 3A       		.uleb128 0x3a
 5831 01b7 0B       		.uleb128 0xb
 5832 01b8 3B       		.uleb128 0x3b
 5833 01b9 0B       		.uleb128 0xb
 5834 01ba 49       		.uleb128 0x49
 5835 01bb 13       		.uleb128 0x13
 5836 01bc 3F       		.uleb128 0x3f
 5837 01bd 19       		.uleb128 0x19
ARM GAS  C:\Users\PCHAUT~1\AppData\Local\Temp\cc4us1Pe.s 			page 104


 5838 01be 3C       		.uleb128 0x3c
 5839 01bf 19       		.uleb128 0x19
 5840 01c0 00       		.byte	0
 5841 01c1 00       		.byte	0
 5842 01c2 25       		.uleb128 0x25
 5843 01c3 34       		.uleb128 0x34
 5844 01c4 00       		.byte	0
 5845 01c5 03       		.uleb128 0x3
 5846 01c6 08       		.uleb128 0x8
 5847 01c7 3A       		.uleb128 0x3a
 5848 01c8 0B       		.uleb128 0xb
 5849 01c9 3B       		.uleb128 0x3b
 5850 01ca 0B       		.uleb128 0xb
 5851 01cb 49       		.uleb128 0x49
 5852 01cc 13       		.uleb128 0x13
 5853 01cd 02       		.uleb128 0x2
 5854 01ce 18       		.uleb128 0x18
 5855 01cf 00       		.byte	0
 5856 01d0 00       		.byte	0
 5857 01d1 26       		.uleb128 0x26
 5858 01d2 34       		.uleb128 0x34
 5859 01d3 00       		.byte	0
 5860 01d4 03       		.uleb128 0x3
 5861 01d5 0E       		.uleb128 0xe
 5862 01d6 3A       		.uleb128 0x3a
 5863 01d7 0B       		.uleb128 0xb
 5864 01d8 3B       		.uleb128 0x3b
 5865 01d9 0B       		.uleb128 0xb
 5866 01da 49       		.uleb128 0x49
 5867 01db 13       		.uleb128 0x13
 5868 01dc 3F       		.uleb128 0x3f
 5869 01dd 19       		.uleb128 0x19
 5870 01de 02       		.uleb128 0x2
 5871 01df 18       		.uleb128 0x18
 5872 01e0 00       		.byte	0
 5873 01e1 00       		.byte	0
 5874 01e2 27       		.uleb128 0x27
 5875 01e3 34       		.uleb128 0x34
 5876 01e4 00       		.byte	0
 5877 01e5 03       		.uleb128 0x3
 5878 01e6 0E       		.uleb128 0xe
 5879 01e7 3A       		.uleb128 0x3a
 5880 01e8 0B       		.uleb128 0xb
 5881 01e9 3B       		.uleb128 0x3b
 5882 01ea 05       		.uleb128 0x5
 5883 01eb 49       		.uleb128 0x49
 5884 01ec 13       		.uleb128 0x13
 5885 01ed 3F       		.uleb128 0x3f
 5886 01ee 19       		.uleb128 0x19
 5887 01ef 02       		.uleb128 0x2
 5888 01f0 18       		.uleb128 0x18
 5889 01f1 00       		.byte	0
 5890 01f2 00       		.byte	0
 5891 01f3 28       		.uleb128 0x28
 5892 01f4 2E       		.uleb128 0x2e
 5893 01f5 01       		.byte	0x1
 5894 01f6 03       		.uleb128 0x3
ARM GAS  C:\Users\PCHAUT~1\AppData\Local\Temp\cc4us1Pe.s 			page 105


 5895 01f7 0E       		.uleb128 0xe
 5896 01f8 3A       		.uleb128 0x3a
 5897 01f9 0B       		.uleb128 0xb
 5898 01fa 3B       		.uleb128 0x3b
 5899 01fb 05       		.uleb128 0x5
 5900 01fc 27       		.uleb128 0x27
 5901 01fd 19       		.uleb128 0x19
 5902 01fe 11       		.uleb128 0x11
 5903 01ff 01       		.uleb128 0x1
 5904 0200 12       		.uleb128 0x12
 5905 0201 06       		.uleb128 0x6
 5906 0202 40       		.uleb128 0x40
 5907 0203 18       		.uleb128 0x18
 5908 0204 9642     		.uleb128 0x2116
 5909 0206 19       		.uleb128 0x19
 5910 0207 01       		.uleb128 0x1
 5911 0208 13       		.uleb128 0x13
 5912 0209 00       		.byte	0
 5913 020a 00       		.byte	0
 5914 020b 29       		.uleb128 0x29
 5915 020c 34       		.uleb128 0x34
 5916 020d 00       		.byte	0
 5917 020e 03       		.uleb128 0x3
 5918 020f 0E       		.uleb128 0xe
 5919 0210 3A       		.uleb128 0x3a
 5920 0211 0B       		.uleb128 0xb
 5921 0212 3B       		.uleb128 0x3b
 5922 0213 05       		.uleb128 0x5
 5923 0214 49       		.uleb128 0x49
 5924 0215 13       		.uleb128 0x13
 5925 0216 02       		.uleb128 0x2
 5926 0217 18       		.uleb128 0x18
 5927 0218 00       		.byte	0
 5928 0219 00       		.byte	0
 5929 021a 2A       		.uleb128 0x2a
 5930 021b 05       		.uleb128 0x5
 5931 021c 00       		.byte	0
 5932 021d 03       		.uleb128 0x3
 5933 021e 08       		.uleb128 0x8
 5934 021f 3A       		.uleb128 0x3a
 5935 0220 0B       		.uleb128 0xb
 5936 0221 3B       		.uleb128 0x3b
 5937 0222 05       		.uleb128 0x5
 5938 0223 49       		.uleb128 0x49
 5939 0224 13       		.uleb128 0x13
 5940 0225 02       		.uleb128 0x2
 5941 0226 18       		.uleb128 0x18
 5942 0227 00       		.byte	0
 5943 0228 00       		.byte	0
 5944 0229 2B       		.uleb128 0x2b
 5945 022a 2E       		.uleb128 0x2e
 5946 022b 00       		.byte	0
 5947 022c 03       		.uleb128 0x3
 5948 022d 0E       		.uleb128 0xe
 5949 022e 3A       		.uleb128 0x3a
 5950 022f 0B       		.uleb128 0xb
 5951 0230 3B       		.uleb128 0x3b
ARM GAS  C:\Users\PCHAUT~1\AppData\Local\Temp\cc4us1Pe.s 			page 106


 5952 0231 05       		.uleb128 0x5
 5953 0232 27       		.uleb128 0x27
 5954 0233 19       		.uleb128 0x19
 5955 0234 11       		.uleb128 0x11
 5956 0235 01       		.uleb128 0x1
 5957 0236 12       		.uleb128 0x12
 5958 0237 06       		.uleb128 0x6
 5959 0238 40       		.uleb128 0x40
 5960 0239 18       		.uleb128 0x18
 5961 023a 9642     		.uleb128 0x2116
 5962 023c 19       		.uleb128 0x19
 5963 023d 00       		.byte	0
 5964 023e 00       		.byte	0
 5965 023f 2C       		.uleb128 0x2c
 5966 0240 34       		.uleb128 0x34
 5967 0241 00       		.byte	0
 5968 0242 03       		.uleb128 0x3
 5969 0243 08       		.uleb128 0x8
 5970 0244 3A       		.uleb128 0x3a
 5971 0245 0B       		.uleb128 0xb
 5972 0246 3B       		.uleb128 0x3b
 5973 0247 05       		.uleb128 0x5
 5974 0248 49       		.uleb128 0x49
 5975 0249 13       		.uleb128 0x13
 5976 024a 02       		.uleb128 0x2
 5977 024b 18       		.uleb128 0x18
 5978 024c 00       		.byte	0
 5979 024d 00       		.byte	0
 5980 024e 2D       		.uleb128 0x2d
 5981 024f 2E       		.uleb128 0x2e
 5982 0250 01       		.byte	0x1
 5983 0251 03       		.uleb128 0x3
 5984 0252 0E       		.uleb128 0xe
 5985 0253 3A       		.uleb128 0x3a
 5986 0254 0B       		.uleb128 0xb
 5987 0255 3B       		.uleb128 0x3b
 5988 0256 0B       		.uleb128 0xb
 5989 0257 27       		.uleb128 0x27
 5990 0258 19       		.uleb128 0x19
 5991 0259 11       		.uleb128 0x11
 5992 025a 01       		.uleb128 0x1
 5993 025b 12       		.uleb128 0x12
 5994 025c 06       		.uleb128 0x6
 5995 025d 40       		.uleb128 0x40
 5996 025e 18       		.uleb128 0x18
 5997 025f 9642     		.uleb128 0x2116
 5998 0261 19       		.uleb128 0x19
 5999 0262 01       		.uleb128 0x1
 6000 0263 13       		.uleb128 0x13
 6001 0264 00       		.byte	0
 6002 0265 00       		.byte	0
 6003 0266 2E       		.uleb128 0x2e
 6004 0267 05       		.uleb128 0x5
 6005 0268 00       		.byte	0
 6006 0269 03       		.uleb128 0x3
 6007 026a 08       		.uleb128 0x8
 6008 026b 3A       		.uleb128 0x3a
ARM GAS  C:\Users\PCHAUT~1\AppData\Local\Temp\cc4us1Pe.s 			page 107


 6009 026c 0B       		.uleb128 0xb
 6010 026d 3B       		.uleb128 0x3b
 6011 026e 0B       		.uleb128 0xb
 6012 026f 49       		.uleb128 0x49
 6013 0270 13       		.uleb128 0x13
 6014 0271 02       		.uleb128 0x2
 6015 0272 18       		.uleb128 0x18
 6016 0273 00       		.byte	0
 6017 0274 00       		.byte	0
 6018 0275 2F       		.uleb128 0x2f
 6019 0276 2E       		.uleb128 0x2e
 6020 0277 00       		.byte	0
 6021 0278 03       		.uleb128 0x3
 6022 0279 0E       		.uleb128 0xe
 6023 027a 3A       		.uleb128 0x3a
 6024 027b 0B       		.uleb128 0xb
 6025 027c 3B       		.uleb128 0x3b
 6026 027d 0B       		.uleb128 0xb
 6027 027e 27       		.uleb128 0x27
 6028 027f 19       		.uleb128 0x19
 6029 0280 11       		.uleb128 0x11
 6030 0281 01       		.uleb128 0x1
 6031 0282 12       		.uleb128 0x12
 6032 0283 06       		.uleb128 0x6
 6033 0284 40       		.uleb128 0x40
 6034 0285 18       		.uleb128 0x18
 6035 0286 9642     		.uleb128 0x2116
 6036 0288 19       		.uleb128 0x19
 6037 0289 00       		.byte	0
 6038 028a 00       		.byte	0
 6039 028b 30       		.uleb128 0x30
 6040 028c 34       		.uleb128 0x34
 6041 028d 00       		.byte	0
 6042 028e 03       		.uleb128 0x3
 6043 028f 0E       		.uleb128 0xe
 6044 0290 3A       		.uleb128 0x3a
 6045 0291 0B       		.uleb128 0xb
 6046 0292 3B       		.uleb128 0x3b
 6047 0293 0B       		.uleb128 0xb
 6048 0294 49       		.uleb128 0x49
 6049 0295 13       		.uleb128 0x13
 6050 0296 02       		.uleb128 0x2
 6051 0297 18       		.uleb128 0x18
 6052 0298 00       		.byte	0
 6053 0299 00       		.byte	0
 6054 029a 31       		.uleb128 0x31
 6055 029b 2E       		.uleb128 0x2e
 6056 029c 00       		.byte	0
 6057 029d 03       		.uleb128 0x3
 6058 029e 0E       		.uleb128 0xe
 6059 029f 3A       		.uleb128 0x3a
 6060 02a0 0B       		.uleb128 0xb
 6061 02a1 3B       		.uleb128 0x3b
 6062 02a2 0B       		.uleb128 0xb
 6063 02a3 27       		.uleb128 0x27
 6064 02a4 19       		.uleb128 0x19
 6065 02a5 49       		.uleb128 0x49
ARM GAS  C:\Users\PCHAUT~1\AppData\Local\Temp\cc4us1Pe.s 			page 108


 6066 02a6 13       		.uleb128 0x13
 6067 02a7 11       		.uleb128 0x11
 6068 02a8 01       		.uleb128 0x1
 6069 02a9 12       		.uleb128 0x12
 6070 02aa 06       		.uleb128 0x6
 6071 02ab 40       		.uleb128 0x40
 6072 02ac 18       		.uleb128 0x18
 6073 02ad 9642     		.uleb128 0x2116
 6074 02af 19       		.uleb128 0x19
 6075 02b0 00       		.byte	0
 6076 02b1 00       		.byte	0
 6077 02b2 32       		.uleb128 0x32
 6078 02b3 2E       		.uleb128 0x2e
 6079 02b4 01       		.byte	0x1
 6080 02b5 03       		.uleb128 0x3
 6081 02b6 0E       		.uleb128 0xe
 6082 02b7 3A       		.uleb128 0x3a
 6083 02b8 0B       		.uleb128 0xb
 6084 02b9 3B       		.uleb128 0x3b
 6085 02ba 0B       		.uleb128 0xb
 6086 02bb 27       		.uleb128 0x27
 6087 02bc 19       		.uleb128 0x19
 6088 02bd 49       		.uleb128 0x49
 6089 02be 13       		.uleb128 0x13
 6090 02bf 11       		.uleb128 0x11
 6091 02c0 01       		.uleb128 0x1
 6092 02c1 12       		.uleb128 0x12
 6093 02c2 06       		.uleb128 0x6
 6094 02c3 40       		.uleb128 0x40
 6095 02c4 18       		.uleb128 0x18
 6096 02c5 9642     		.uleb128 0x2116
 6097 02c7 19       		.uleb128 0x19
 6098 02c8 01       		.uleb128 0x1
 6099 02c9 13       		.uleb128 0x13
 6100 02ca 00       		.byte	0
 6101 02cb 00       		.byte	0
 6102 02cc 33       		.uleb128 0x33
 6103 02cd 34       		.uleb128 0x34
 6104 02ce 00       		.byte	0
 6105 02cf 03       		.uleb128 0x3
 6106 02d0 0E       		.uleb128 0xe
 6107 02d1 49       		.uleb128 0x49
 6108 02d2 13       		.uleb128 0x13
 6109 02d3 34       		.uleb128 0x34
 6110 02d4 19       		.uleb128 0x19
 6111 02d5 02       		.uleb128 0x2
 6112 02d6 18       		.uleb128 0x18
 6113 02d7 00       		.byte	0
 6114 02d8 00       		.byte	0
 6115 02d9 34       		.uleb128 0x34
 6116 02da 2E       		.uleb128 0x2e
 6117 02db 01       		.byte	0x1
 6118 02dc 03       		.uleb128 0x3
 6119 02dd 0E       		.uleb128 0xe
 6120 02de 3A       		.uleb128 0x3a
 6121 02df 0B       		.uleb128 0xb
 6122 02e0 3B       		.uleb128 0x3b
ARM GAS  C:\Users\PCHAUT~1\AppData\Local\Temp\cc4us1Pe.s 			page 109


 6123 02e1 05       		.uleb128 0x5
 6124 02e2 27       		.uleb128 0x27
 6125 02e3 19       		.uleb128 0x19
 6126 02e4 49       		.uleb128 0x49
 6127 02e5 13       		.uleb128 0x13
 6128 02e6 11       		.uleb128 0x11
 6129 02e7 01       		.uleb128 0x1
 6130 02e8 12       		.uleb128 0x12
 6131 02e9 06       		.uleb128 0x6
 6132 02ea 40       		.uleb128 0x40
 6133 02eb 18       		.uleb128 0x18
 6134 02ec 9642     		.uleb128 0x2116
 6135 02ee 19       		.uleb128 0x19
 6136 02ef 01       		.uleb128 0x1
 6137 02f0 13       		.uleb128 0x13
 6138 02f1 00       		.byte	0
 6139 02f2 00       		.byte	0
 6140 02f3 35       		.uleb128 0x35
 6141 02f4 1D       		.uleb128 0x1d
 6142 02f5 01       		.byte	0x1
 6143 02f6 31       		.uleb128 0x31
 6144 02f7 13       		.uleb128 0x13
 6145 02f8 11       		.uleb128 0x11
 6146 02f9 01       		.uleb128 0x1
 6147 02fa 12       		.uleb128 0x12
 6148 02fb 06       		.uleb128 0x6
 6149 02fc 58       		.uleb128 0x58
 6150 02fd 0B       		.uleb128 0xb
 6151 02fe 59       		.uleb128 0x59
 6152 02ff 05       		.uleb128 0x5
 6153 0300 00       		.byte	0
 6154 0301 00       		.byte	0
 6155 0302 36       		.uleb128 0x36
 6156 0303 05       		.uleb128 0x5
 6157 0304 00       		.byte	0
 6158 0305 31       		.uleb128 0x31
 6159 0306 13       		.uleb128 0x13
 6160 0307 02       		.uleb128 0x2
 6161 0308 18       		.uleb128 0x18
 6162 0309 00       		.byte	0
 6163 030a 00       		.byte	0
 6164 030b 37       		.uleb128 0x37
 6165 030c 2E       		.uleb128 0x2e
 6166 030d 01       		.byte	0x1
 6167 030e 03       		.uleb128 0x3
 6168 030f 0E       		.uleb128 0xe
 6169 0310 3A       		.uleb128 0x3a
 6170 0311 0B       		.uleb128 0xb
 6171 0312 3B       		.uleb128 0x3b
 6172 0313 05       		.uleb128 0x5
 6173 0314 27       		.uleb128 0x27
 6174 0315 19       		.uleb128 0x19
 6175 0316 20       		.uleb128 0x20
 6176 0317 0B       		.uleb128 0xb
 6177 0318 00       		.byte	0
 6178 0319 00       		.byte	0
 6179 031a 38       		.uleb128 0x38
ARM GAS  C:\Users\PCHAUT~1\AppData\Local\Temp\cc4us1Pe.s 			page 110


 6180 031b 05       		.uleb128 0x5
 6181 031c 00       		.byte	0
 6182 031d 03       		.uleb128 0x3
 6183 031e 0E       		.uleb128 0xe
 6184 031f 3A       		.uleb128 0x3a
 6185 0320 0B       		.uleb128 0xb
 6186 0321 3B       		.uleb128 0x3b
 6187 0322 05       		.uleb128 0x5
 6188 0323 49       		.uleb128 0x49
 6189 0324 13       		.uleb128 0x13
 6190 0325 00       		.byte	0
 6191 0326 00       		.byte	0
 6192 0327 00       		.byte	0
 6193              		.section	.debug_aranges,"",%progbits
 6194 0000 4C010000 		.4byte	0x14c
 6195 0004 0200     		.2byte	0x2
 6196 0006 00000000 		.4byte	.Ldebug_info0
 6197 000a 04       		.byte	0x4
 6198 000b 00       		.byte	0
 6199 000c 0000     		.2byte	0
 6200 000e 0000     		.2byte	0
 6201 0010 00000000 		.4byte	.LFB116
 6202 0014 30000000 		.4byte	.LFE116-.LFB116
 6203 0018 00000000 		.4byte	.LFB117
 6204 001c 30000000 		.4byte	.LFE117-.LFB117
 6205 0020 00000000 		.4byte	.LFB129
 6206 0024 38000000 		.4byte	.LFE129-.LFB129
 6207 0028 00000000 		.4byte	.LFB145
 6208 002c 30000000 		.4byte	.LFE145-.LFB145
 6209 0030 00000000 		.4byte	.LFB146
 6210 0034 58000000 		.4byte	.LFE146-.LFB146
 6211 0038 00000000 		.4byte	.LFB153
 6212 003c 2C000000 		.4byte	.LFE153-.LFB153
 6213 0040 00000000 		.4byte	.LFB154
 6214 0044 34000000 		.4byte	.LFE154-.LFB154
 6215 0048 00000000 		.4byte	.LFB166
 6216 004c 2C000000 		.4byte	.LFE166-.LFB166
 6217 0050 00000000 		.4byte	.LFB167
 6218 0054 2C000000 		.4byte	.LFE167-.LFB167
 6219 0058 00000000 		.4byte	.LFB219
 6220 005c 30000000 		.4byte	.LFE219-.LFB219
 6221 0060 00000000 		.4byte	.LFB220
 6222 0064 40000000 		.4byte	.LFE220-.LFB220
 6223 0068 00000000 		.4byte	.LFB221
 6224 006c 1C010000 		.4byte	.LFE221-.LFB221
 6225 0070 00000000 		.4byte	.LFB222
 6226 0074 30000000 		.4byte	.LFE222-.LFB222
 6227 0078 00000000 		.4byte	.LFB223
 6228 007c 48000000 		.4byte	.LFE223-.LFB223
 6229 0080 00000000 		.4byte	.LFB224
 6230 0084 38000000 		.4byte	.LFE224-.LFB224
 6231 0088 00000000 		.4byte	.LFB225
 6232 008c 48000000 		.4byte	.LFE225-.LFB225
 6233 0090 00000000 		.4byte	.LFB226
 6234 0094 D4000000 		.4byte	.LFE226-.LFB226
 6235 0098 00000000 		.4byte	.LFB227
 6236 009c 38000000 		.4byte	.LFE227-.LFB227
ARM GAS  C:\Users\PCHAUT~1\AppData\Local\Temp\cc4us1Pe.s 			page 111


 6237 00a0 00000000 		.4byte	.LFB228
 6238 00a4 44000000 		.4byte	.LFE228-.LFB228
 6239 00a8 00000000 		.4byte	.LFB229
 6240 00ac 64000000 		.4byte	.LFE229-.LFB229
 6241 00b0 00000000 		.4byte	.LFB230
 6242 00b4 48000000 		.4byte	.LFE230-.LFB230
 6243 00b8 00000000 		.4byte	.LFB231
 6244 00bc 38000000 		.4byte	.LFE231-.LFB231
 6245 00c0 00000000 		.4byte	.LFB232
 6246 00c4 48000000 		.4byte	.LFE232-.LFB232
 6247 00c8 00000000 		.4byte	.LFB233
 6248 00cc 20010000 		.4byte	.LFE233-.LFB233
 6249 00d0 00000000 		.4byte	.LFB234
 6250 00d4 38000000 		.4byte	.LFE234-.LFB234
 6251 00d8 00000000 		.4byte	.LFB235
 6252 00dc 3C000000 		.4byte	.LFE235-.LFB235
 6253 00e0 00000000 		.4byte	.LFB236
 6254 00e4 3C000000 		.4byte	.LFE236-.LFB236
 6255 00e8 00000000 		.4byte	.LFB237
 6256 00ec 38030000 		.4byte	.LFE237-.LFB237
 6257 00f0 00000000 		.4byte	.LFB238
 6258 00f4 30000000 		.4byte	.LFE238-.LFB238
 6259 00f8 00000000 		.4byte	.LFB239
 6260 00fc 64000000 		.4byte	.LFE239-.LFB239
 6261 0100 00000000 		.4byte	.LFB240
 6262 0104 38000000 		.4byte	.LFE240-.LFB240
 6263 0108 00000000 		.4byte	.LFB241
 6264 010c 4C000000 		.4byte	.LFE241-.LFB241
 6265 0110 00000000 		.4byte	.LFB242
 6266 0114 18010000 		.4byte	.LFE242-.LFB242
 6267 0118 00000000 		.4byte	.LFB243
 6268 011c 38000000 		.4byte	.LFE243-.LFB243
 6269 0120 00000000 		.4byte	.LFB244
 6270 0124 F4000000 		.4byte	.LFE244-.LFB244
 6271 0128 00000000 		.4byte	.LFB245
 6272 012c 44000000 		.4byte	.LFE245-.LFB245
 6273 0130 00000000 		.4byte	.LFB246
 6274 0134 60000000 		.4byte	.LFE246-.LFB246
 6275 0138 00000000 		.4byte	.LFB247
 6276 013c 40000000 		.4byte	.LFE247-.LFB247
 6277 0140 00000000 		.4byte	.LFB248
 6278 0144 C0000000 		.4byte	.LFE248-.LFB248
 6279 0148 00000000 		.4byte	0
 6280 014c 00000000 		.4byte	0
 6281              		.section	.debug_ranges,"",%progbits
 6282              	.Ldebug_ranges0:
 6283 0000 00000000 		.4byte	.LFB116
 6284 0004 30000000 		.4byte	.LFE116
 6285 0008 00000000 		.4byte	.LFB117
 6286 000c 30000000 		.4byte	.LFE117
 6287 0010 00000000 		.4byte	.LFB129
 6288 0014 38000000 		.4byte	.LFE129
 6289 0018 00000000 		.4byte	.LFB145
 6290 001c 30000000 		.4byte	.LFE145
 6291 0020 00000000 		.4byte	.LFB146
 6292 0024 58000000 		.4byte	.LFE146
 6293 0028 00000000 		.4byte	.LFB153
ARM GAS  C:\Users\PCHAUT~1\AppData\Local\Temp\cc4us1Pe.s 			page 112


 6294 002c 2C000000 		.4byte	.LFE153
 6295 0030 00000000 		.4byte	.LFB154
 6296 0034 34000000 		.4byte	.LFE154
 6297 0038 00000000 		.4byte	.LFB166
 6298 003c 2C000000 		.4byte	.LFE166
 6299 0040 00000000 		.4byte	.LFB167
 6300 0044 2C000000 		.4byte	.LFE167
 6301 0048 00000000 		.4byte	.LFB219
 6302 004c 30000000 		.4byte	.LFE219
 6303 0050 00000000 		.4byte	.LFB220
 6304 0054 40000000 		.4byte	.LFE220
 6305 0058 00000000 		.4byte	.LFB221
 6306 005c 1C010000 		.4byte	.LFE221
 6307 0060 00000000 		.4byte	.LFB222
 6308 0064 30000000 		.4byte	.LFE222
 6309 0068 00000000 		.4byte	.LFB223
 6310 006c 48000000 		.4byte	.LFE223
 6311 0070 00000000 		.4byte	.LFB224
 6312 0074 38000000 		.4byte	.LFE224
 6313 0078 00000000 		.4byte	.LFB225
 6314 007c 48000000 		.4byte	.LFE225
 6315 0080 00000000 		.4byte	.LFB226
 6316 0084 D4000000 		.4byte	.LFE226
 6317 0088 00000000 		.4byte	.LFB227
 6318 008c 38000000 		.4byte	.LFE227
 6319 0090 00000000 		.4byte	.LFB228
 6320 0094 44000000 		.4byte	.LFE228
 6321 0098 00000000 		.4byte	.LFB229
 6322 009c 64000000 		.4byte	.LFE229
 6323 00a0 00000000 		.4byte	.LFB230
 6324 00a4 48000000 		.4byte	.LFE230
 6325 00a8 00000000 		.4byte	.LFB231
 6326 00ac 38000000 		.4byte	.LFE231
 6327 00b0 00000000 		.4byte	.LFB232
 6328 00b4 48000000 		.4byte	.LFE232
 6329 00b8 00000000 		.4byte	.LFB233
 6330 00bc 20010000 		.4byte	.LFE233
 6331 00c0 00000000 		.4byte	.LFB234
 6332 00c4 38000000 		.4byte	.LFE234
 6333 00c8 00000000 		.4byte	.LFB235
 6334 00cc 3C000000 		.4byte	.LFE235
 6335 00d0 00000000 		.4byte	.LFB236
 6336 00d4 3C000000 		.4byte	.LFE236
 6337 00d8 00000000 		.4byte	.LFB237
 6338 00dc 38030000 		.4byte	.LFE237
 6339 00e0 00000000 		.4byte	.LFB238
 6340 00e4 30000000 		.4byte	.LFE238
 6341 00e8 00000000 		.4byte	.LFB239
 6342 00ec 64000000 		.4byte	.LFE239
 6343 00f0 00000000 		.4byte	.LFB240
 6344 00f4 38000000 		.4byte	.LFE240
 6345 00f8 00000000 		.4byte	.LFB241
 6346 00fc 4C000000 		.4byte	.LFE241
 6347 0100 00000000 		.4byte	.LFB242
 6348 0104 18010000 		.4byte	.LFE242
 6349 0108 00000000 		.4byte	.LFB243
 6350 010c 38000000 		.4byte	.LFE243
ARM GAS  C:\Users\PCHAUT~1\AppData\Local\Temp\cc4us1Pe.s 			page 113


 6351 0110 00000000 		.4byte	.LFB244
 6352 0114 F4000000 		.4byte	.LFE244
 6353 0118 00000000 		.4byte	.LFB245
 6354 011c 44000000 		.4byte	.LFE245
 6355 0120 00000000 		.4byte	.LFB246
 6356 0124 60000000 		.4byte	.LFE246
 6357 0128 00000000 		.4byte	.LFB247
 6358 012c 40000000 		.4byte	.LFE247
 6359 0130 00000000 		.4byte	.LFB248
 6360 0134 C0000000 		.4byte	.LFE248
 6361 0138 00000000 		.4byte	0
 6362 013c 00000000 		.4byte	0
 6363              		.section	.debug_line,"",%progbits
 6364              	.Ldebug_line0:
 6365 0000 4A080000 		.section	.debug_str,"MS",%progbits,1
 6365      02003504 
 6365      00000201 
 6365      FB0E0D00 
 6365      01010101 
 6366              	.LASF54:
 6367 0000 705F7374 		.ascii	"p_stats\000"
 6367      61747300 
 6368              	.LASF4:
 6369 0008 73697A65 		.ascii	"size_t\000"
 6369      5F7400
 6370              	.LASF124:
 6371 000f 77747365 		.ascii	"wtsemp\000"
 6371      6D7000
 6372              	.LASF147:
 6373 0016 63665F6F 		.ascii	"cf_off_name\000"
 6373      66665F6E 
 6373      616D6500 
 6374              	.LASF32:
 6375 0022 73797374 		.ascii	"systime_t\000"
 6375      696D655F 
 6375      7400
 6376              	.LASF136:
 6377 002c 63685F69 		.ascii	"ch_identifier\000"
 6377      64656E74 
 6377      69666965 
 6377      7200
 6378              	.LASF37:
 6379 003a 705F6374 		.ascii	"p_ctx\000"
 6379      7800
 6380              	.LASF27:
 6381 0040 74707269 		.ascii	"tprio_t\000"
 6381      6F5F7400 
 6382              	.LASF155:
 6383 0048 63685F64 		.ascii	"ch_debug\000"
 6383      65627567 
 6383      00
 6384              	.LASF198:
 6385 0051 74687265 		.ascii	"thread3HH\000"
 6385      61643348 
 6385      4800
 6386              	.LASF225:
 6387 005b 74657374 		.ascii	"test_buffers\000"
ARM GAS  C:\Users\PCHAUT~1\AppData\Local\Temp\cc4us1Pe.s 			page 114


 6387      5F627566 
 6387      66657273 
 6387      00
 6388              	.LASF48:
 6389 0068 705F6D73 		.ascii	"p_msgqueue\000"
 6389      67717565 
 6389      756500
 6390              	.LASF65:
 6391 0073 725F6374 		.ascii	"r_ctx\000"
 6391      7800
 6392              	.LASF18:
 6393 0079 696E7433 		.ascii	"int32_t\000"
 6393      325F7400 
 6394              	.LASF144:
 6395 0081 63665F6F 		.ascii	"cf_off_ctx\000"
 6395      66665F63 
 6395      747800
 6396              	.LASF69:
 6397 008c 76746675 		.ascii	"vtfunc_t\000"
 6397      6E635F74 
 6397      00
 6398              	.LASF78:
 6399 0095 63685F76 		.ascii	"ch_virtual_timers_list\000"
 6399      69727475 
 6399      616C5F74 
 6399      696D6572 
 6399      735F6C69 
 6400              	.LASF212:
 6401 00ac 63685468 		.ascii	"chThdGetPriorityX\000"
 6401      64476574 
 6401      5072696F 
 6401      72697479 
 6401      5800
 6402              	.LASF226:
 6403 00be 5F5F6675 		.ascii	"__func__\000"
 6403      6E635F5F 
 6403      00
 6404              	.LASF184:
 6405 00c7 6D747837 		.ascii	"mtx7_execute\000"
 6405      5F657865 
 6405      63757465 
 6405      00
 6406              	.LASF208:
 6407 00d4 6D747832 		.ascii	"mtx2_setup\000"
 6407      5F736574 
 6407      757000
 6408              	.LASF84:
 6409 00df 6C6F636B 		.ascii	"lock_cnt\000"
 6409      5F636E74 
 6409      00
 6410              	.LASF140:
 6411 00e8 63685F70 		.ascii	"ch_ptrsize\000"
 6411      74727369 
 6411      7A6500
 6412              	.LASF100:
 6413 00f3 73655F74 		.ascii	"se_tp\000"
 6413      7000
ARM GAS  C:\Users\PCHAUT~1\AppData\Local\Temp\cc4us1Pe.s 			page 115


 6414              	.LASF183:
 6415 00f9 74687265 		.ascii	"thread11\000"
 6415      61643131 
 6415      00
 6416              	.LASF182:
 6417 0102 74687265 		.ascii	"thread12\000"
 6417      61643132 
 6417      00
 6418              	.LASF114:
 6419 010b 74696D65 		.ascii	"time_measurement_t\000"
 6419      5F6D6561 
 6419      73757265 
 6419      6D656E74 
 6419      5F7400
 6420              	.LASF218:
 6421 011e 63685654 		.ascii	"chVTGetSystemTime\000"
 6421      47657453 
 6421      79737465 
 6421      6D54696D 
 6421      6500
 6422              	.LASF180:
 6423 0130 7072696F 		.ascii	"prio\000"
 6423      00
 6424              	.LASF203:
 6425 0135 6D747833 		.ascii	"mtx3_setup\000"
 6425      5F736574 
 6425      757000
 6426              	.LASF132:
 6427 0140 6D5F6F77 		.ascii	"m_owner\000"
 6427      6E657200 
 6428              	.LASF76:
 6429 0148 76745F70 		.ascii	"vt_par\000"
 6429      617200
 6430              	.LASF121:
 6431 014f 65786974 		.ascii	"exitcode\000"
 6431      636F6465 
 6431      00
 6432              	.LASF5:
 6433 0158 5F5F7569 		.ascii	"__uint8_t\000"
 6433      6E74385F 
 6433      7400
 6434              	.LASF126:
 6435 0162 65776D61 		.ascii	"ewmask\000"
 6435      736B00
 6436              	.LASF142:
 6437 0169 63685F74 		.ascii	"ch_threadsize\000"
 6437      68726561 
 6437      6473697A 
 6437      6500
 6438              	.LASF214:
 6439 0177 73797374 		.ascii	"systime\000"
 6439      696D6500 
 6440              	.LASF205:
 6441 017f 74687265 		.ascii	"thread2H\000"
 6441      61643248 
 6441      00
 6442              	.LASF38:
ARM GAS  C:\Users\PCHAUT~1\AppData\Local\Temp\cc4us1Pe.s 			page 116


 6443 0188 705F6E65 		.ascii	"p_newer\000"
 6443      77657200 
 6444              	.LASF206:
 6445 0190 74687265 		.ascii	"thread2M\000"
 6445      6164324D 
 6445      00
 6446              	.LASF11:
 6447 0199 6C6F6E67 		.ascii	"long int\000"
 6447      20696E74 
 6447      00
 6448              	.LASF34:
 6449 01a2 705F6E65 		.ascii	"p_next\000"
 6449      787400
 6450              	.LASF220:
 6451 01a9 706F7274 		.ascii	"port_unlock\000"
 6451      5F756E6C 
 6451      6F636B00 
 6452              	.LASF149:
 6453 01b5 63665F6F 		.ascii	"cf_off_state\000"
 6453      66665F73 
 6453      74617465 
 6453      00
 6454              	.LASF35:
 6455 01c2 705F7072 		.ascii	"p_prev\000"
 6455      657600
 6456              	.LASF202:
 6457 01c9 74687265 		.ascii	"thread3LL\000"
 6457      6164334C 
 6457      4C00
 6458              	.LASF169:
 6459 01d3 74657374 		.ascii	"test\000"
 6459      00
 6460              	.LASF195:
 6461 01d8 6D747834 		.ascii	"mtx4_setup\000"
 6461      5F736574 
 6461      757000
 6462              	.LASF24:
 6463 01e3 74737461 		.ascii	"tstate_t\000"
 6463      74655F74 
 6463      00
 6464              	.LASF22:
 6465 01ec 72747469 		.ascii	"rttime_t\000"
 6465      6D655F74 
 6465      00
 6466              	.LASF59:
 6467 01f5 74687265 		.ascii	"threads_queue_t\000"
 6467      6164735F 
 6467      71756575 
 6467      655F7400 
 6468              	.LASF51:
 6469 0205 705F6D74 		.ascii	"p_mtxlist\000"
 6469      786C6973 
 6469      7400
 6470              	.LASF95:
 6471 020f 72656761 		.ascii	"regarm_t\000"
 6471      726D5F74 
 6471      00
ARM GAS  C:\Users\PCHAUT~1\AppData\Local\Temp\cc4us1Pe.s 			page 117


 6472              	.LASF199:
 6473 0218 74687265 		.ascii	"thread3H\000"
 6473      61643348 
 6473      00
 6474              	.LASF200:
 6475 0221 74687265 		.ascii	"thread3M\000"
 6475      6164334D 
 6475      00
 6476              	.LASF196:
 6477 022a 6D747833 		.ascii	"mtx3_execute\000"
 6477      5F657865 
 6477      63757465 
 6477      00
 6478              	.LASF113:
 6479 0237 63756D75 		.ascii	"cumulative\000"
 6479      6C617469 
 6479      766500
 6480              	.LASF3:
 6481 0242 7369676E 		.ascii	"signed char\000"
 6481      65642063 
 6481      68617200 
 6482              	.LASF45:
 6483 024e 705F7072 		.ascii	"p_preempt\000"
 6483      65656D70 
 6483      7400
 6484              	.LASF16:
 6485 0258 75696E74 		.ascii	"uint8_t\000"
 6485      385F7400 
 6486              	.LASF29:
 6487 0260 6576656E 		.ascii	"eventmask_t\000"
 6487      746D6173 
 6487      6B5F7400 
 6488              	.LASF97:
 6489 026c 636F6E74 		.ascii	"context\000"
 6489      65787400 
 6490              	.LASF194:
 6491 0274 74687265 		.ascii	"thread4a\000"
 6491      61643461 
 6491      00
 6492              	.LASF193:
 6493 027d 74687265 		.ascii	"thread4b\000"
 6493      61643462 
 6493      00
 6494              	.LASF123:
 6495 0286 77747472 		.ascii	"wttrp\000"
 6495      7000
 6496              	.LASF6:
 6497 028c 756E7369 		.ascii	"unsigned char\000"
 6497      676E6564 
 6497      20636861 
 6497      7200
 6498              	.LASF82:
 6499 029a 70616E69 		.ascii	"panic_msg\000"
 6499      635F6D73 
 6499      6700
 6500              	.LASF223:
 6501 02a4 2E2E2F6C 		.ascii	"../lib/e-puck2_main-processor/ChibiOS//test/rt/test"
ARM GAS  C:\Users\PCHAUT~1\AppData\Local\Temp\cc4us1Pe.s 			page 118


 6501      69622F65 
 6501      2D707563 
 6501      6B325F6D 
 6501      61696E2D 
 6502 02d7 6D74782E 		.ascii	"mtx.c\000"
 6502      6300
 6503              	.LASF85:
 6504 02dd 74726163 		.ascii	"trace_buffer\000"
 6504      655F6275 
 6504      66666572 
 6504      00
 6505              	.LASF66:
 6506 02ea 725F6E65 		.ascii	"r_newer\000"
 6506      77657200 
 6507              	.LASF80:
 6508 02f2 73797374 		.ascii	"system_debug_t\000"
 6508      656D5F64 
 6508      65627567 
 6508      5F7400
 6509              	.LASF167:
 6510 0301 5F426F6F 		.ascii	"_Bool\000"
 6510      6C00
 6511              	.LASF228:
 6512 0307 76616C75 		.ascii	"value\000"
 6512      6500
 6513              	.LASF189:
 6514 030d 6D747836 		.ascii	"mtx6_setup\000"
 6514      5F736574 
 6514      757000
 6515              	.LASF135:
 6516 0318 63686172 		.ascii	"char\000"
 6516      00
 6517              	.LASF134:
 6518 031d 6D5F636E 		.ascii	"m_cnt\000"
 6518      7400
 6519              	.LASF36:
 6520 0323 705F7072 		.ascii	"p_prio\000"
 6520      696F00
 6521              	.LASF8:
 6522 032a 5F5F7569 		.ascii	"__uint16_t\000"
 6522      6E743136 
 6522      5F7400
 6523              	.LASF122:
 6524 0335 77746F62 		.ascii	"wtobjp\000"
 6524      6A7000
 6525              	.LASF116:
 6526 033c 6E5F6374 		.ascii	"n_ctxswc\000"
 6526      78737763 
 6526      00
 6527              	.LASF145:
 6528 0345 63665F6F 		.ascii	"cf_off_newer\000"
 6528      66665F6E 
 6528      65776572 
 6528      00
 6529              	.LASF96:
 6530 0352 73746B61 		.ascii	"stkalign_t\000"
 6530      6C69676E 
ARM GAS  C:\Users\PCHAUT~1\AppData\Local\Temp\cc4us1Pe.s 			page 119


 6530      5F7400
 6531              	.LASF186:
 6532 035d 6D747837 		.ascii	"mtx7_setup\000"
 6532      5F736574 
 6532      757000
 6533              	.LASF143:
 6534 0368 63665F6F 		.ascii	"cf_off_prio\000"
 6534      66665F70 
 6534      72696F00 
 6535              	.LASF111:
 6536 0374 776F7273 		.ascii	"worst\000"
 6536      7400
 6537              	.LASF30:
 6538 037a 636E745F 		.ascii	"cnt_t\000"
 6538      7400
 6539              	.LASF75:
 6540 0380 76745F66 		.ascii	"vt_func\000"
 6540      756E6300 
 6541              	.LASF165:
 6542 0388 62756666 		.ascii	"buffer\000"
 6542      657200
 6543              	.LASF162:
 6544 038f 73657475 		.ascii	"setup\000"
 6544      7000
 6545              	.LASF107:
 6546 0395 63685F74 		.ascii	"ch_trace_buffer_t\000"
 6546      72616365 
 6546      5F627566 
 6546      6665725F 
 6546      7400
 6547              	.LASF50:
 6548 03a7 705F6570 		.ascii	"p_epending\000"
 6548      656E6469 
 6548      6E6700
 6549              	.LASF125:
 6550 03b2 77746D74 		.ascii	"wtmtxp\000"
 6550      787000
 6551              	.LASF62:
 6552 03b9 63685F72 		.ascii	"ch_ready_list\000"
 6552      65616479 
 6552      5F6C6973 
 6552      7400
 6553              	.LASF170:
 6554 03c7 74657374 		.ascii	"test_timer_done\000"
 6554      5F74696D 
 6554      65725F64 
 6554      6F6E6500 
 6555              	.LASF83:
 6556 03d7 6973725F 		.ascii	"isr_cnt\000"
 6556      636E7400 
 6557              	.LASF118:
 6558 03df 6D5F6372 		.ascii	"m_crit_isr\000"
 6558      69745F69 
 6558      737200
 6559              	.LASF102:
 6560 03ea 73655F73 		.ascii	"se_state\000"
 6560      74617465 
ARM GAS  C:\Users\PCHAUT~1\AppData\Local\Temp\cc4us1Pe.s 			page 120


 6560      00
 6561              	.LASF192:
 6562 03f3 6D747834 		.ascii	"mtx4_execute\000"
 6562      5F657865 
 6562      63757465 
 6562      00
 6563              	.LASF117:
 6564 0400 6D5F6372 		.ascii	"m_crit_thd\000"
 6564      69745F74 
 6564      686400
 6565              	.LASF14:
 6566 040b 5F5F7569 		.ascii	"__uint64_t\000"
 6566      6E743634 
 6566      5F7400
 6567              	.LASF216:
 6568 0416 63685379 		.ascii	"chSysUnlock\000"
 6568      73556E6C 
 6568      6F636B00 
 6569              	.LASF13:
 6570 0422 6C6F6E67 		.ascii	"long unsigned int\000"
 6570      20756E73 
 6570      69676E65 
 6570      6420696E 
 6570      7400
 6571              	.LASF137:
 6572 0434 63685F7A 		.ascii	"ch_zero\000"
 6572      65726F00 
 6573              	.LASF217:
 6574 043c 63685379 		.ascii	"chSysLock\000"
 6574      734C6F63 
 6574      6B00
 6575              	.LASF159:
 6576 0446 636F6E64 		.ascii	"condition_variable_t\000"
 6576      6974696F 
 6576      6E5F7661 
 6576      72696162 
 6576      6C655F74 
 6577              	.LASF181:
 6578 045b 6D747838 		.ascii	"mtx8_execute\000"
 6578      5F657865 
 6578      63757465 
 6578      00
 6579              	.LASF94:
 6580 0468 53797374 		.ascii	"SystemCoreClock\000"
 6580      656D436F 
 6580      7265436C 
 6580      6F636B00 
 6581              	.LASF127:
 6582 0478 63685F73 		.ascii	"ch_semaphore\000"
 6582      656D6170 
 6582      686F7265 
 6582      00
 6583              	.LASF57:
 6584 0485 63685F74 		.ascii	"ch_thread\000"
 6584      68726561 
 6584      6400
 6585              	.LASF77:
ARM GAS  C:\Users\PCHAUT~1\AppData\Local\Temp\cc4us1Pe.s 			page 121


 6586 048f 76697274 		.ascii	"virtual_timers_list_t\000"
 6586      75616C5F 
 6586      74696D65 
 6586      72735F6C 
 6586      6973745F 
 6587              	.LASF70:
 6588 04a5 76697274 		.ascii	"virtual_timer_t\000"
 6588      75616C5F 
 6588      74696D65 
 6588      725F7400 
 6589              	.LASF61:
 6590 04b5 72656164 		.ascii	"ready_list_t\000"
 6590      795F6C69 
 6590      73745F74 
 6590      00
 6591              	.LASF219:
 6592 04c2 71756575 		.ascii	"queue_isempty\000"
 6592      655F6973 
 6592      656D7074 
 6592      7900
 6593              	.LASF31:
 6594 04d0 75636E74 		.ascii	"ucnt_t\000"
 6594      5F7400
 6595              	.LASF58:
 6596 04d7 63685F74 		.ascii	"ch_threads_list\000"
 6596      68726561 
 6596      64735F6C 
 6596      69737400 
 6597              	.LASF103:
 6598 04e7 63685F73 		.ascii	"ch_swc_event_t\000"
 6598      77635F65 
 6598      76656E74 
 6598      5F7400
 6599              	.LASF115:
 6600 04f6 6E5F6972 		.ascii	"n_irq\000"
 6600      7100
 6601              	.LASF152:
 6602 04fc 63665F6F 		.ascii	"cf_off_preempt\000"
 6602      66665F70 
 6602      7265656D 
 6602      707400
 6603              	.LASF12:
 6604 050b 5F5F7569 		.ascii	"__uint32_t\000"
 6604      6E743332 
 6604      5F7400
 6605              	.LASF1:
 6606 0516 6C6F6E67 		.ascii	"long long int\000"
 6606      206C6F6E 
 6606      6720696E 
 6606      7400
 6607              	.LASF139:
 6608 0524 63685F76 		.ascii	"ch_version\000"
 6608      65727369 
 6608      6F6E00
 6609              	.LASF131:
 6610 052f 6D5F7175 		.ascii	"m_queue\000"
 6610      65756500 
ARM GAS  C:\Users\PCHAUT~1\AppData\Local\Temp\cc4us1Pe.s 			page 122


 6611              	.LASF157:
 6612 0537 636F6E64 		.ascii	"condition_variable\000"
 6612      6974696F 
 6612      6E5F7661 
 6612      72696162 
 6612      6C6500
 6613              	.LASF72:
 6614 054a 76745F6E 		.ascii	"vt_next\000"
 6614      65787400 
 6615              	.LASF73:
 6616 0552 76745F70 		.ascii	"vt_prev\000"
 6616      72657600 
 6617              	.LASF104:
 6618 055a 74625F73 		.ascii	"tb_size\000"
 6618      697A6500 
 6619              	.LASF222:
 6620 0562 474E5520 		.ascii	"GNU C11 7.2.1 20170904 (release) [ARM/embedded-7-br"
 6620      43313120 
 6620      372E322E 
 6620      31203230 
 6620      31373039 
 6621 0595 616E6368 		.ascii	"anch revision 255204] -mcpu=cortex-m4 -mfloat-abi=h"
 6621      20726576 
 6621      6973696F 
 6621      6E203235 
 6621      35323034 
 6622 05c8 61726420 		.ascii	"ard -mfpu=fpv4-sp-d16 -mno-thumb-interwork -mthumb "
 6622      2D6D6670 
 6622      753D6670 
 6622      76342D73 
 6622      702D6431 
 6623 05fb 2D676764 		.ascii	"-ggdb -O0 -fomit-frame-pointer -falign-functions=16"
 6623      62202D4F 
 6623      30202D66 
 6623      6F6D6974 
 6623      2D667261 
 6624 062e 202D666E 		.ascii	" -fno-strict-aliasing -fstack-protector-all -ffunct"
 6624      6F2D7374 
 6624      72696374 
 6624      2D616C69 
 6624      6173696E 
 6625 0661 696F6E2D 		.ascii	"ion-sections -fdata-sections -fno-common -fsingle-p"
 6625      73656374 
 6625      696F6E73 
 6625      202D6664 
 6625      6174612D 
 6626 0694 72656369 		.ascii	"recision-constant\000"
 6626      73696F6E 
 6626      2D636F6E 
 6626      7374616E 
 6626      7400
 6627              	.LASF93:
 6628 06a6 49544D5F 		.ascii	"ITM_RxBuffer\000"
 6628      52784275 
 6628      66666572 
 6628      00
 6629              	.LASF47:
ARM GAS  C:\Users\PCHAUT~1\AppData\Local\Temp\cc4us1Pe.s 			page 123


 6630 06b3 705F7761 		.ascii	"p_waiting\000"
 6630      6974696E 
 6630      6700
 6631              	.LASF101:
 6632 06bd 73655F77 		.ascii	"se_wtobjp\000"
 6632      746F626A 
 6632      7000
 6633              	.LASF43:
 6634 06c7 705F666C 		.ascii	"p_flags\000"
 6634      61677300 
 6635              	.LASF92:
 6636 06cf 69646C65 		.ascii	"idle_thread_wa\000"
 6636      5F746872 
 6636      6561645F 
 6636      776100
 6637              	.LASF0:
 6638 06de 756E7369 		.ascii	"unsigned int\000"
 6638      676E6564 
 6638      20696E74 
 6638      00
 6639              	.LASF21:
 6640 06eb 7274636E 		.ascii	"rtcnt_t\000"
 6640      745F7400 
 6641              	.LASF53:
 6642 06f3 705F6D70 		.ascii	"p_mpool\000"
 6642      6F6F6C00 
 6643              	.LASF224:
 6644 06fb 433A5C55 		.ascii	"C:\\Users\\Pchautems\\Documents\\RobotiqueTP\\Proje"
 6644      73657273 
 6644      5C506368 
 6644      61757465 
 6644      6D735C44 
 6645 0729 745C6D69 		.ascii	"t\\miniprojet\000"
 6645      6E697072 
 6645      6F6A6574 
 6645      00
 6646              	.LASF44:
 6647 0736 705F7265 		.ascii	"p_refs\000"
 6647      667300
 6648              	.LASF141:
 6649 073d 63685F74 		.ascii	"ch_timesize\000"
 6649      696D6573 
 6649      697A6500 
 6650              	.LASF119:
 6651 0749 6B65726E 		.ascii	"kernel_stats_t\000"
 6651      656C5F73 
 6651      74617473 
 6651      5F7400
 6652              	.LASF163:
 6653 0758 74656172 		.ascii	"teardown\000"
 6653      646F776E 
 6653      00
 6654              	.LASF108:
 6655 0761 6F666673 		.ascii	"offset\000"
 6655      657400
 6656              	.LASF106:
 6657 0768 74625F62 		.ascii	"tb_buffer\000"
ARM GAS  C:\Users\PCHAUT~1\AppData\Local\Temp\cc4us1Pe.s 			page 124


 6657      75666665 
 6657      7200
 6658              	.LASF46:
 6659 0772 705F7469 		.ascii	"p_time\000"
 6659      6D6500
 6660              	.LASF151:
 6661 0779 63665F6F 		.ascii	"cf_off_refs\000"
 6661      66665F72 
 6661      65667300 
 6662              	.LASF190:
 6663 0785 6D747835 		.ascii	"mtx5_execute\000"
 6663      5F657865 
 6663      63757465 
 6663      00
 6664              	.LASF33:
 6665 0792 74687265 		.ascii	"thread_t\000"
 6665      61645F74 
 6665      00
 6666              	.LASF179:
 6667 079b 70617474 		.ascii	"patternmtx\000"
 6667      65726E6D 
 6667      747800
 6668              	.LASF2:
 6669 07a6 6C6F6E67 		.ascii	"long double\000"
 6669      20646F75 
 6669      626C6500 
 6670              	.LASF55:
 6671 07b2 74687265 		.ascii	"thread_reference_t\000"
 6671      61645F72 
 6671      65666572 
 6671      656E6365 
 6671      5F7400
 6672              	.LASF215:
 6673 07c5 63685654 		.ascii	"chVTGetSystemTimeX\000"
 6673      47657453 
 6673      79737465 
 6673      6D54696D 
 6673      655800
 6674              	.LASF52:
 6675 07d8 705F7265 		.ascii	"p_realprio\000"
 6675      616C7072 
 6675      696F00
 6676              	.LASF98:
 6677 07e3 706F7274 		.ascii	"port_intctx\000"
 6677      5F696E74 
 6677      63747800 
 6678              	.LASF153:
 6679 07ef 63665F6F 		.ascii	"cf_off_time\000"
 6679      66665F74 
 6679      696D6500 
 6680              	.LASF74:
 6681 07fb 76745F64 		.ascii	"vt_delta\000"
 6681      656C7461 
 6681      00
 6682              	.LASF209:
 6683 0804 6D747831 		.ascii	"mtx1_execute\000"
 6683      5F657865 
ARM GAS  C:\Users\PCHAUT~1\AppData\Local\Temp\cc4us1Pe.s 			page 125


 6683      63757465 
 6683      00
 6684              	.LASF71:
 6685 0811 63685F76 		.ascii	"ch_virtual_timer\000"
 6685      69727475 
 6685      616C5F74 
 6685      696D6572 
 6685      00
 6686              	.LASF129:
 6687 0822 735F636E 		.ascii	"s_cnt\000"
 6687      7400
 6688              	.LASF158:
 6689 0828 635F7175 		.ascii	"c_queue\000"
 6689      65756500 
 6690              	.LASF91:
 6691 0830 6B65726E 		.ascii	"kernel_stats\000"
 6691      656C5F73 
 6691      74617473 
 6691      00
 6692              	.LASF185:
 6693 083d 6D747838 		.ascii	"mtx8_setup\000"
 6693      5F736574 
 6693      757000
 6694              	.LASF15:
 6695 0848 6C6F6E67 		.ascii	"long long unsigned int\000"
 6695      206C6F6E 
 6695      6720756E 
 6695      7369676E 
 6695      65642069 
 6696              	.LASF39:
 6697 085f 705F6F6C 		.ascii	"p_older\000"
 6697      64657200 
 6698              	.LASF17:
 6699 0867 75696E74 		.ascii	"uint16_t\000"
 6699      31365F74 
 6699      00
 6700              	.LASF28:
 6701 0870 6D73675F 		.ascii	"msg_t\000"
 6701      7400
 6702              	.LASF60:
 6703 0876 63685F74 		.ascii	"ch_threads_queue\000"
 6703      68726561 
 6703      64735F71 
 6703      75657565 
 6703      00
 6704              	.LASF150:
 6705 0887 63665F6F 		.ascii	"cf_off_flags\000"
 6705      66665F66 
 6705      6C616773 
 6705      00
 6706              	.LASF207:
 6707 0894 74687265 		.ascii	"thread2L\000"
 6707      6164324C 
 6707      00
 6708              	.LASF26:
 6709 089d 74736C69 		.ascii	"tslices_t\000"
 6709      6365735F 
ARM GAS  C:\Users\PCHAUT~1\AppData\Local\Temp\cc4us1Pe.s 			page 126


 6709      7400
 6710              	.LASF68:
 6711 08a7 725F6375 		.ascii	"r_current\000"
 6711      7272656E 
 6711      7400
 6712              	.LASF164:
 6713 08b1 65786563 		.ascii	"execute\000"
 6713      75746500 
 6714              	.LASF166:
 6715 08b9 74657374 		.ascii	"test_global_fail\000"
 6715      5F676C6F 
 6715      62616C5F 
 6715      6661696C 
 6715      00
 6716              	.LASF210:
 6717 08ca 74687265 		.ascii	"thread1\000"
 6717      61643100 
 6718              	.LASF90:
 6719 08d2 6D61696E 		.ascii	"mainthread\000"
 6719      74687265 
 6719      616400
 6720              	.LASF227:
 6721 08dd 5F5F7365 		.ascii	"__set_BASEPRI\000"
 6721      745F4241 
 6721      53455052 
 6721      4900
 6722              	.LASF110:
 6723 08eb 62657374 		.ascii	"best\000"
 6723      00
 6724              	.LASF63:
 6725 08f0 725F7175 		.ascii	"r_queue\000"
 6725      65756500 
 6726              	.LASF211:
 6727 08f8 6D747831 		.ascii	"mtx1_setup\000"
 6727      5F736574 
 6727      757000
 6728              	.LASF197:
 6729 0903 74696D65 		.ascii	"time\000"
 6729      00
 6730              	.LASF168:
 6731 0908 74687265 		.ascii	"threads\000"
 6731      61647300 
 6732              	.LASF88:
 6733 0910 726C6973 		.ascii	"rlist\000"
 6733      7400
 6734              	.LASF23:
 6735 0916 746D6F64 		.ascii	"tmode_t\000"
 6735      655F7400 
 6736              	.LASF191:
 6737 091e 6D747835 		.ascii	"mtx5_setup\000"
 6737      5F736574 
 6737      757000
 6738              	.LASF79:
 6739 0929 76745F73 		.ascii	"vt_systime\000"
 6739      79737469 
 6739      6D6500
 6740              	.LASF67:
ARM GAS  C:\Users\PCHAUT~1\AppData\Local\Temp\cc4us1Pe.s 			page 127


 6741 0934 725F6F6C 		.ascii	"r_older\000"
 6741      64657200 
 6742              	.LASF109:
 6743 093c 746D5F63 		.ascii	"tm_calibration_t\000"
 6743      616C6962 
 6743      72617469 
 6743      6F6E5F74 
 6743      00
 6744              	.LASF161:
 6745 094d 6E616D65 		.ascii	"name\000"
 6745      00
 6746              	.LASF221:
 6747 0952 706F7274 		.ascii	"port_lock\000"
 6747      5F6C6F63 
 6747      6B00
 6748              	.LASF128:
 6749 095c 735F7175 		.ascii	"s_queue\000"
 6749      65756500 
 6750              	.LASF7:
 6751 0964 73686F72 		.ascii	"short int\000"
 6751      7420696E 
 6751      7400
 6752              	.LASF20:
 6753 096e 75696E74 		.ascii	"uint64_t\000"
 6753      36345F74 
 6753      00
 6754              	.LASF130:
 6755 0977 63685F6D 		.ascii	"ch_mutex\000"
 6755      75746578 
 6755      00
 6756              	.LASF213:
 6757 0980 63685468 		.ascii	"chThdGetSelfX\000"
 6757      64476574 
 6757      53656C66 
 6757      5800
 6758              	.LASF188:
 6759 098e 74687265 		.ascii	"thread10\000"
 6759      61643130 
 6759      00
 6760              	.LASF64:
 6761 0997 725F7072 		.ascii	"r_prio\000"
 6761      696F00
 6762              	.LASF160:
 6763 099e 74657374 		.ascii	"testcase\000"
 6763      63617365 
 6763      00
 6764              	.LASF81:
 6765 09a7 63685F73 		.ascii	"ch_system_debug\000"
 6765      79737465 
 6765      6D5F6465 
 6765      62756700 
 6766              	.LASF187:
 6767 09b7 6D747836 		.ascii	"mtx6_execute\000"
 6767      5F657865 
 6767      63757465 
 6767      00
 6768              	.LASF146:
ARM GAS  C:\Users\PCHAUT~1\AppData\Local\Temp\cc4us1Pe.s 			page 128


 6769 09c4 63665F6F 		.ascii	"cf_off_older\000"
 6769      66665F6F 
 6769      6C646572 
 6769      00
 6770              	.LASF171:
 6771 09d1 74657374 		.ascii	"testmtx1\000"
 6771      6D747831 
 6771      00
 6772              	.LASF172:
 6773 09da 74657374 		.ascii	"testmtx2\000"
 6773      6D747832 
 6773      00
 6774              	.LASF173:
 6775 09e3 74657374 		.ascii	"testmtx3\000"
 6775      6D747833 
 6775      00
 6776              	.LASF174:
 6777 09ec 74657374 		.ascii	"testmtx4\000"
 6777      6D747834 
 6777      00
 6778              	.LASF175:
 6779 09f5 74657374 		.ascii	"testmtx5\000"
 6779      6D747835 
 6779      00
 6780              	.LASF176:
 6781 09fe 74657374 		.ascii	"testmtx6\000"
 6781      6D747836 
 6781      00
 6782              	.LASF177:
 6783 0a07 74657374 		.ascii	"testmtx7\000"
 6783      6D747837 
 6783      00
 6784              	.LASF178:
 6785 0a10 74657374 		.ascii	"testmtx8\000"
 6785      6D747838 
 6785      00
 6786              	.LASF89:
 6787 0a19 76746C69 		.ascii	"vtlist\000"
 6787      737400
 6788              	.LASF156:
 6789 0a20 6D757465 		.ascii	"mutex_t\000"
 6789      785F7400 
 6790              	.LASF25:
 6791 0a28 74726566 		.ascii	"trefs_t\000"
 6791      735F7400 
 6792              	.LASF148:
 6793 0a30 63665F6F 		.ascii	"cf_off_stklimit\000"
 6793      66665F73 
 6793      746B6C69 
 6793      6D697400 
 6794              	.LASF56:
 6795 0a40 74687265 		.ascii	"threads_list_t\000"
 6795      6164735F 
 6795      6C697374 
 6795      5F7400
 6796              	.LASF87:
 6797 0a4f 63685F73 		.ascii	"ch_system\000"
ARM GAS  C:\Users\PCHAUT~1\AppData\Local\Temp\cc4us1Pe.s 			page 129


 6797      79737465 
 6797      6D00
 6798              	.LASF19:
 6799 0a59 75696E74 		.ascii	"uint32_t\000"
 6799      33325F74 
 6799      00
 6800              	.LASF120:
 6801 0a62 7264796D 		.ascii	"rdymsg\000"
 6801      736700
 6802              	.LASF9:
 6803 0a69 73686F72 		.ascii	"short unsigned int\000"
 6803      7420756E 
 6803      7369676E 
 6803      65642069 
 6803      6E7400
 6804              	.LASF86:
 6805 0a7c 63685F73 		.ascii	"ch_system_t\000"
 6805      79737465 
 6805      6D5F7400 
 6806              	.LASF154:
 6807 0a88 63686465 		.ascii	"chdebug_t\000"
 6807      6275675F 
 6807      7400
 6808              	.LASF138:
 6809 0a92 63685F73 		.ascii	"ch_size\000"
 6809      697A6500 
 6810              	.LASF41:
 6811 0a9a 705F7374 		.ascii	"p_stklimit\000"
 6811      6B6C696D 
 6811      697400
 6812              	.LASF10:
 6813 0aa5 5F5F696E 		.ascii	"__int32_t\000"
 6813      7433325F 
 6813      7400
 6814              	.LASF204:
 6815 0aaf 6D747832 		.ascii	"mtx2_execute\000"
 6815      5F657865 
 6815      63757465 
 6815      00
 6816              	.LASF99:
 6817 0abc 73655F74 		.ascii	"se_time\000"
 6817      696D6500 
 6818              	.LASF40:
 6819 0ac4 705F6E61 		.ascii	"p_name\000"
 6819      6D6500
 6820              	.LASF133:
 6821 0acb 6D5F6E65 		.ascii	"m_next\000"
 6821      787400
 6822              	.LASF105:
 6823 0ad2 74625F70 		.ascii	"tb_ptr\000"
 6823      747200
 6824              	.LASF201:
 6825 0ad9 74687265 		.ascii	"thread3L\000"
 6825      6164334C 
 6825      00
 6826              	.LASF112:
 6827 0ae2 6C617374 		.ascii	"last\000"
ARM GAS  C:\Users\PCHAUT~1\AppData\Local\Temp\cc4us1Pe.s 			page 130


 6827      00
 6828              	.LASF49:
 6829 0ae7 705F6D73 		.ascii	"p_msg\000"
 6829      6700
 6830              	.LASF42:
 6831 0aed 705F7374 		.ascii	"p_state\000"
 6831      61746500 
 6832              		.ident	"GCC: (GNU Tools for Arm Embedded Processors 7-2017-q4-major) 7.2.1 20170904 (release) [ARM
ARM GAS  C:\Users\PCHAUT~1\AppData\Local\Temp\cc4us1Pe.s 			page 131


DEFINED SYMBOLS
                            *ABS*:00000000 testmtx.c
C:\Users\PCHAUT~1\AppData\Local\Temp\cc4us1Pe.s:18     .text.port_lock:00000000 $t
C:\Users\PCHAUT~1\AppData\Local\Temp\cc4us1Pe.s:25     .text.port_lock:00000000 port_lock
C:\Users\PCHAUT~1\AppData\Local\Temp\cc4us1Pe.s:72     .text.port_lock:0000002c $d
C:\Users\PCHAUT~1\AppData\Local\Temp\cc4us1Pe.s:77     .text.port_unlock:00000000 $t
C:\Users\PCHAUT~1\AppData\Local\Temp\cc4us1Pe.s:84     .text.port_unlock:00000000 port_unlock
C:\Users\PCHAUT~1\AppData\Local\Temp\cc4us1Pe.s:129    .text.port_unlock:0000002c $d
C:\Users\PCHAUT~1\AppData\Local\Temp\cc4us1Pe.s:134    .text.queue_isempty:00000000 $t
C:\Users\PCHAUT~1\AppData\Local\Temp\cc4us1Pe.s:141    .text.queue_isempty:00000000 queue_isempty
C:\Users\PCHAUT~1\AppData\Local\Temp\cc4us1Pe.s:183    .text.queue_isempty:00000034 $d
C:\Users\PCHAUT~1\AppData\Local\Temp\cc4us1Pe.s:188    .text.chSysLock:00000000 $t
C:\Users\PCHAUT~1\AppData\Local\Temp\cc4us1Pe.s:195    .text.chSysLock:00000000 chSysLock
C:\Users\PCHAUT~1\AppData\Local\Temp\cc4us1Pe.s:233    .text.chSysLock:0000002c $d
C:\Users\PCHAUT~1\AppData\Local\Temp\cc4us1Pe.s:238    .text.chSysUnlock:00000000 $t
C:\Users\PCHAUT~1\AppData\Local\Temp\cc4us1Pe.s:245    .text.chSysUnlock:00000000 chSysUnlock
C:\Users\PCHAUT~1\AppData\Local\Temp\cc4us1Pe.s:301    .text.chSysUnlock:0000004c $d
C:\Users\PCHAUT~1\AppData\Local\Temp\cc4us1Pe.s:3236   .rodata.__func__.7153:00000000 __func__.7153
C:\Users\PCHAUT~1\AppData\Local\Temp\cc4us1Pe.s:308    .text.chVTGetSystemTimeX:00000000 $t
C:\Users\PCHAUT~1\AppData\Local\Temp\cc4us1Pe.s:315    .text.chVTGetSystemTimeX:00000000 chVTGetSystemTimeX
C:\Users\PCHAUT~1\AppData\Local\Temp\cc4us1Pe.s:350    .text.chVTGetSystemTimeX:00000024 $d
C:\Users\PCHAUT~1\AppData\Local\Temp\cc4us1Pe.s:356    .text.chVTGetSystemTime:00000000 $t
C:\Users\PCHAUT~1\AppData\Local\Temp\cc4us1Pe.s:363    .text.chVTGetSystemTime:00000000 chVTGetSystemTime
C:\Users\PCHAUT~1\AppData\Local\Temp\cc4us1Pe.s:403    .text.chVTGetSystemTime:00000030 $d
C:\Users\PCHAUT~1\AppData\Local\Temp\cc4us1Pe.s:408    .text.chThdGetSelfX:00000000 $t
C:\Users\PCHAUT~1\AppData\Local\Temp\cc4us1Pe.s:415    .text.chThdGetSelfX:00000000 chThdGetSelfX
C:\Users\PCHAUT~1\AppData\Local\Temp\cc4us1Pe.s:450    .text.chThdGetSelfX:00000024 $d
C:\Users\PCHAUT~1\AppData\Local\Temp\cc4us1Pe.s:456    .text.chThdGetPriorityX:00000000 $t
C:\Users\PCHAUT~1\AppData\Local\Temp\cc4us1Pe.s:463    .text.chThdGetPriorityX:00000000 chThdGetPriorityX
C:\Users\PCHAUT~1\AppData\Local\Temp\cc4us1Pe.s:498    .text.chThdGetPriorityX:00000028 $d
C:\Users\PCHAUT~1\AppData\Local\Temp\cc4us1Pe.s:503    .data.m1:00000000 $d
C:\Users\PCHAUT~1\AppData\Local\Temp\cc4us1Pe.s:506    .data.m1:00000000 m1
C:\Users\PCHAUT~1\AppData\Local\Temp\cc4us1Pe.s:513    .data.m2:00000000 $d
C:\Users\PCHAUT~1\AppData\Local\Temp\cc4us1Pe.s:516    .data.m2:00000000 m2
C:\Users\PCHAUT~1\AppData\Local\Temp\cc4us1Pe.s:523    .data.c1:00000000 $d
C:\Users\PCHAUT~1\AppData\Local\Temp\cc4us1Pe.s:526    .data.c1:00000000 c1
C:\Users\PCHAUT~1\AppData\Local\Temp\cc4us1Pe.s:530    .text.mtx1_setup:00000000 $t
C:\Users\PCHAUT~1\AppData\Local\Temp\cc4us1Pe.s:537    .text.mtx1_setup:00000000 mtx1_setup
C:\Users\PCHAUT~1\AppData\Local\Temp\cc4us1Pe.s:572    .text.mtx1_setup:00000028 $d
C:\Users\PCHAUT~1\AppData\Local\Temp\cc4us1Pe.s:578    .text.thread1:00000000 $t
C:\Users\PCHAUT~1\AppData\Local\Temp\cc4us1Pe.s:585    .text.thread1:00000000 thread1
C:\Users\PCHAUT~1\AppData\Local\Temp\cc4us1Pe.s:628    .text.thread1:00000038 $d
C:\Users\PCHAUT~1\AppData\Local\Temp\cc4us1Pe.s:634    .rodata:00000000 $d
C:\Users\PCHAUT~1\AppData\Local\Temp\cc4us1Pe.s:653    .text.mtx1_execute:00000000 $t
C:\Users\PCHAUT~1\AppData\Local\Temp\cc4us1Pe.s:660    .text.mtx1_execute:00000000 mtx1_execute
C:\Users\PCHAUT~1\AppData\Local\Temp\cc4us1Pe.s:792    .text.mtx1_execute:000000f0 $d
C:\Users\PCHAUT~1\AppData\Local\Temp\cc4us1Pe.s:815    .rodata.testmtx1:00000000 testmtx1
C:\Users\PCHAUT~1\AppData\Local\Temp\cc4us1Pe.s:812    .rodata.testmtx1:00000000 $d
C:\Users\PCHAUT~1\AppData\Local\Temp\cc4us1Pe.s:821    .text.mtx2_setup:00000000 $t
C:\Users\PCHAUT~1\AppData\Local\Temp\cc4us1Pe.s:828    .text.mtx2_setup:00000000 mtx2_setup
C:\Users\PCHAUT~1\AppData\Local\Temp\cc4us1Pe.s:862    .text.mtx2_setup:00000028 $d
C:\Users\PCHAUT~1\AppData\Local\Temp\cc4us1Pe.s:868    .text.thread2L:00000000 $t
C:\Users\PCHAUT~1\AppData\Local\Temp\cc4us1Pe.s:875    .text.thread2L:00000000 thread2L
C:\Users\PCHAUT~1\AppData\Local\Temp\cc4us1Pe.s:922    .text.thread2L:00000040 $d
C:\Users\PCHAUT~1\AppData\Local\Temp\cc4us1Pe.s:928    .text.thread2M:00000000 $t
C:\Users\PCHAUT~1\AppData\Local\Temp\cc4us1Pe.s:935    .text.thread2M:00000000 thread2M
C:\Users\PCHAUT~1\AppData\Local\Temp\cc4us1Pe.s:976    .text.thread2M:00000034 $d
ARM GAS  C:\Users\PCHAUT~1\AppData\Local\Temp\cc4us1Pe.s 			page 132


C:\Users\PCHAUT~1\AppData\Local\Temp\cc4us1Pe.s:981    .text.thread2H:00000000 $t
C:\Users\PCHAUT~1\AppData\Local\Temp\cc4us1Pe.s:988    .text.thread2H:00000000 thread2H
C:\Users\PCHAUT~1\AppData\Local\Temp\cc4us1Pe.s:1035   .text.thread2H:00000040 $d
C:\Users\PCHAUT~1\AppData\Local\Temp\cc4us1Pe.s:1045   .text.mtx2_execute:00000000 $t
C:\Users\PCHAUT~1\AppData\Local\Temp\cc4us1Pe.s:1052   .text.mtx2_execute:00000000 mtx2_execute
C:\Users\PCHAUT~1\AppData\Local\Temp\cc4us1Pe.s:1157   .text.mtx2_execute:000000b8 $d
C:\Users\PCHAUT~1\AppData\Local\Temp\cc4us1Pe.s:1176   .rodata.testmtx2:00000000 testmtx2
C:\Users\PCHAUT~1\AppData\Local\Temp\cc4us1Pe.s:1173   .rodata.testmtx2:00000000 $d
C:\Users\PCHAUT~1\AppData\Local\Temp\cc4us1Pe.s:1182   .text.mtx3_setup:00000000 $t
C:\Users\PCHAUT~1\AppData\Local\Temp\cc4us1Pe.s:1189   .text.mtx3_setup:00000000 mtx3_setup
C:\Users\PCHAUT~1\AppData\Local\Temp\cc4us1Pe.s:1226   .text.mtx3_setup:0000002c $d
C:\Users\PCHAUT~1\AppData\Local\Temp\cc4us1Pe.s:1233   .text.thread3LL:00000000 $t
C:\Users\PCHAUT~1\AppData\Local\Temp\cc4us1Pe.s:1240   .text.thread3LL:00000000 thread3LL
C:\Users\PCHAUT~1\AppData\Local\Temp\cc4us1Pe.s:1284   .text.thread3LL:0000003c $d
C:\Users\PCHAUT~1\AppData\Local\Temp\cc4us1Pe.s:1290   .text.thread3L:00000000 $t
C:\Users\PCHAUT~1\AppData\Local\Temp\cc4us1Pe.s:1297   .text.thread3L:00000000 thread3L
C:\Users\PCHAUT~1\AppData\Local\Temp\cc4us1Pe.s:1356   .text.thread3L:00000058 $d
C:\Users\PCHAUT~1\AppData\Local\Temp\cc4us1Pe.s:1363   .text.thread3M:00000000 $t
C:\Users\PCHAUT~1\AppData\Local\Temp\cc4us1Pe.s:1370   .text.thread3M:00000000 thread3M
C:\Users\PCHAUT~1\AppData\Local\Temp\cc4us1Pe.s:1417   .text.thread3M:00000040 $d
C:\Users\PCHAUT~1\AppData\Local\Temp\cc4us1Pe.s:1423   .text.thread3H:00000000 $t
C:\Users\PCHAUT~1\AppData\Local\Temp\cc4us1Pe.s:1430   .text.thread3H:00000000 thread3H
C:\Users\PCHAUT~1\AppData\Local\Temp\cc4us1Pe.s:1471   .text.thread3H:00000034 $d
C:\Users\PCHAUT~1\AppData\Local\Temp\cc4us1Pe.s:1476   .text.thread3HH:00000000 $t
C:\Users\PCHAUT~1\AppData\Local\Temp\cc4us1Pe.s:1483   .text.thread3HH:00000000 thread3HH
C:\Users\PCHAUT~1\AppData\Local\Temp\cc4us1Pe.s:1530   .text.thread3HH:00000040 $d
C:\Users\PCHAUT~1\AppData\Local\Temp\cc4us1Pe.s:1536   .text.mtx3_execute:00000000 $t
C:\Users\PCHAUT~1\AppData\Local\Temp\cc4us1Pe.s:1543   .text.mtx3_execute:00000000 mtx3_execute
C:\Users\PCHAUT~1\AppData\Local\Temp\cc4us1Pe.s:1678   .text.mtx3_execute:000000fc $d
C:\Users\PCHAUT~1\AppData\Local\Temp\cc4us1Pe.s:1699   .rodata.testmtx3:00000000 testmtx3
C:\Users\PCHAUT~1\AppData\Local\Temp\cc4us1Pe.s:1696   .rodata.testmtx3:00000000 $d
C:\Users\PCHAUT~1\AppData\Local\Temp\cc4us1Pe.s:1705   .text.mtx4_setup:00000000 $t
C:\Users\PCHAUT~1\AppData\Local\Temp\cc4us1Pe.s:1712   .text.mtx4_setup:00000000 mtx4_setup
C:\Users\PCHAUT~1\AppData\Local\Temp\cc4us1Pe.s:1749   .text.mtx4_setup:0000002c $d
C:\Users\PCHAUT~1\AppData\Local\Temp\cc4us1Pe.s:1756   .text.thread4a:00000000 $t
C:\Users\PCHAUT~1\AppData\Local\Temp\cc4us1Pe.s:1763   .text.thread4a:00000000 thread4a
C:\Users\PCHAUT~1\AppData\Local\Temp\cc4us1Pe.s:1804   .text.thread4a:00000034 $d
C:\Users\PCHAUT~1\AppData\Local\Temp\cc4us1Pe.s:1810   .text.thread4b:00000000 $t
C:\Users\PCHAUT~1\AppData\Local\Temp\cc4us1Pe.s:1817   .text.thread4b:00000000 thread4b
C:\Users\PCHAUT~1\AppData\Local\Temp\cc4us1Pe.s:1858   .text.thread4b:00000034 $d
C:\Users\PCHAUT~1\AppData\Local\Temp\cc4us1Pe.s:1864   .text.mtx4_execute:00000000 $t
C:\Users\PCHAUT~1\AppData\Local\Temp\cc4us1Pe.s:1871   .text.mtx4_execute:00000000 mtx4_execute
C:\Users\PCHAUT~1\AppData\Local\Temp\cc4us1Pe.s:2257   .text.mtx4_execute:000002ec $d
C:\Users\PCHAUT~1\AppData\Local\Temp\cc4us1Pe.s:2270   .text.mtx4_execute:00000318 $t
C:\Users\PCHAUT~1\AppData\Local\Temp\cc4us1Pe.s:2291   .text.mtx4_execute:00000334 $d
C:\Users\PCHAUT~1\AppData\Local\Temp\cc4us1Pe.s:2304   .rodata.testmtx4:00000000 testmtx4
C:\Users\PCHAUT~1\AppData\Local\Temp\cc4us1Pe.s:2301   .rodata.testmtx4:00000000 $d
C:\Users\PCHAUT~1\AppData\Local\Temp\cc4us1Pe.s:2310   .text.mtx5_setup:00000000 $t
C:\Users\PCHAUT~1\AppData\Local\Temp\cc4us1Pe.s:2317   .text.mtx5_setup:00000000 mtx5_setup
C:\Users\PCHAUT~1\AppData\Local\Temp\cc4us1Pe.s:2351   .text.mtx5_setup:00000028 $d
C:\Users\PCHAUT~1\AppData\Local\Temp\cc4us1Pe.s:2357   .text.mtx5_execute:00000000 $t
C:\Users\PCHAUT~1\AppData\Local\Temp\cc4us1Pe.s:2364   .text.mtx5_execute:00000000 mtx5_execute
C:\Users\PCHAUT~1\AppData\Local\Temp\cc4us1Pe.s:2427   .text.mtx5_execute:0000005c $d
C:\Users\PCHAUT~1\AppData\Local\Temp\cc4us1Pe.s:2441   .rodata.testmtx5:00000000 testmtx5
C:\Users\PCHAUT~1\AppData\Local\Temp\cc4us1Pe.s:2438   .rodata.testmtx5:00000000 $d
C:\Users\PCHAUT~1\AppData\Local\Temp\cc4us1Pe.s:2447   .text.mtx6_setup:00000000 $t
C:\Users\PCHAUT~1\AppData\Local\Temp\cc4us1Pe.s:2454   .text.mtx6_setup:00000000 mtx6_setup
ARM GAS  C:\Users\PCHAUT~1\AppData\Local\Temp\cc4us1Pe.s 			page 133


C:\Users\PCHAUT~1\AppData\Local\Temp\cc4us1Pe.s:2491   .text.mtx6_setup:0000002c $d
C:\Users\PCHAUT~1\AppData\Local\Temp\cc4us1Pe.s:2498   .text.thread10:00000000 $t
C:\Users\PCHAUT~1\AppData\Local\Temp\cc4us1Pe.s:2505   .text.thread10:00000000 thread10
C:\Users\PCHAUT~1\AppData\Local\Temp\cc4us1Pe.s:2551   .text.thread10:00000040 $d
C:\Users\PCHAUT~1\AppData\Local\Temp\cc4us1Pe.s:2558   .text.mtx6_execute:00000000 $t
C:\Users\PCHAUT~1\AppData\Local\Temp\cc4us1Pe.s:2565   .text.mtx6_execute:00000000 mtx6_execute
C:\Users\PCHAUT~1\AppData\Local\Temp\cc4us1Pe.s:2692   .text.mtx6_execute:000000ec $d
C:\Users\PCHAUT~1\AppData\Local\Temp\cc4us1Pe.s:2715   .rodata.testmtx6:00000000 testmtx6
C:\Users\PCHAUT~1\AppData\Local\Temp\cc4us1Pe.s:2712   .rodata.testmtx6:00000000 $d
C:\Users\PCHAUT~1\AppData\Local\Temp\cc4us1Pe.s:2721   .text.mtx7_setup:00000000 $t
C:\Users\PCHAUT~1\AppData\Local\Temp\cc4us1Pe.s:2728   .text.mtx7_setup:00000000 mtx7_setup
C:\Users\PCHAUT~1\AppData\Local\Temp\cc4us1Pe.s:2765   .text.mtx7_setup:0000002c $d
C:\Users\PCHAUT~1\AppData\Local\Temp\cc4us1Pe.s:2772   .text.mtx7_execute:00000000 $t
C:\Users\PCHAUT~1\AppData\Local\Temp\cc4us1Pe.s:2779   .text.mtx7_execute:00000000 mtx7_execute
C:\Users\PCHAUT~1\AppData\Local\Temp\cc4us1Pe.s:2888   .text.mtx7_execute:000000c8 $d
C:\Users\PCHAUT~1\AppData\Local\Temp\cc4us1Pe.s:2911   .rodata.testmtx7:00000000 testmtx7
C:\Users\PCHAUT~1\AppData\Local\Temp\cc4us1Pe.s:2908   .rodata.testmtx7:00000000 $d
C:\Users\PCHAUT~1\AppData\Local\Temp\cc4us1Pe.s:2917   .text.mtx8_setup:00000000 $t
C:\Users\PCHAUT~1\AppData\Local\Temp\cc4us1Pe.s:2924   .text.mtx8_setup:00000000 mtx8_setup
C:\Users\PCHAUT~1\AppData\Local\Temp\cc4us1Pe.s:2964   .text.mtx8_setup:00000034 $d
C:\Users\PCHAUT~1\AppData\Local\Temp\cc4us1Pe.s:2972   .text.thread11:00000000 $t
C:\Users\PCHAUT~1\AppData\Local\Temp\cc4us1Pe.s:2979   .text.thread11:00000000 thread11
C:\Users\PCHAUT~1\AppData\Local\Temp\cc4us1Pe.s:3032   .text.thread11:00000050 $d
C:\Users\PCHAUT~1\AppData\Local\Temp\cc4us1Pe.s:3040   .text.thread12:00000000 $t
C:\Users\PCHAUT~1\AppData\Local\Temp\cc4us1Pe.s:3047   .text.thread12:00000000 thread12
C:\Users\PCHAUT~1\AppData\Local\Temp\cc4us1Pe.s:3090   .text.thread12:00000038 $d
C:\Users\PCHAUT~1\AppData\Local\Temp\cc4us1Pe.s:3096   .text.mtx8_execute:00000000 $t
C:\Users\PCHAUT~1\AppData\Local\Temp\cc4us1Pe.s:3103   .text.mtx8_execute:00000000 mtx8_execute
C:\Users\PCHAUT~1\AppData\Local\Temp\cc4us1Pe.s:3189   .text.mtx8_execute:00000094 $d
C:\Users\PCHAUT~1\AppData\Local\Temp\cc4us1Pe.s:3212   .rodata.testmtx8:00000000 testmtx8
C:\Users\PCHAUT~1\AppData\Local\Temp\cc4us1Pe.s:3209   .rodata.testmtx8:00000000 $d
C:\Users\PCHAUT~1\AppData\Local\Temp\cc4us1Pe.s:3222   .rodata.patternmtx:00000000 patternmtx
C:\Users\PCHAUT~1\AppData\Local\Temp\cc4us1Pe.s:3219   .rodata.patternmtx:00000000 $d
C:\Users\PCHAUT~1\AppData\Local\Temp\cc4us1Pe.s:3233   .rodata.__func__.7153:00000000 $d

UNDEFINED SYMBOLS
__stack_chk_fail
__stack_chk_guard
_stats_start_measure_crit_thd
_dbg_check_lock
_dbg_check_unlock
_stats_stop_measure_crit_thd
chSysHalt
ch
chMtxObjectInit
chMtxLock
test_emit_token
chMtxUnlock
chThdCreateStatic
test_wait_threads
_test_assert
_test_assert_sequence
wa
threads
test_cpu_pulse
chThdSleep
test_wait_tick
ARM GAS  C:\Users\PCHAUT~1\AppData\Local\Temp\cc4us1Pe.s 			page 134


_test_assert_time_window
chMtxUnlockAll
chMtxUnlockS
chSchRescheduleS
chCondObjectInit
chCondWait
chCondSignalI
chCondBroadcast
chCondWaitTimeout
chCondSignal
