ARM GAS  C:\Users\PCHAUT~1\AppData\Local\Temp\cczqxKqU.s 			page 1


   1              		.cpu cortex-m4
   2              		.eabi_attribute 27, 1
   3              		.eabi_attribute 28, 1
   4              		.eabi_attribute 20, 1
   5              		.eabi_attribute 21, 1
   6              		.eabi_attribute 23, 3
   7              		.eabi_attribute 24, 1
   8              		.eabi_attribute 25, 1
   9              		.eabi_attribute 26, 1
  10              		.eabi_attribute 30, 6
  11              		.eabi_attribute 34, 1
  12              		.eabi_attribute 18, 4
  13              		.file	"testqueues.c"
  14              		.text
  15              	.Ltext0:
  16              		.cfi_sections	.debug_frame
  17              		.section	.text.port_lock,"ax",%progbits
  18              		.align	1
  19              		.p2align 4,,15
  20              		.syntax unified
  21              		.thumb
  22              		.thumb_func
  23              		.fpu fpv4-sp-d16
  24              		.type	port_lock, %function
  25              	port_lock:
  26              	.LFB116:
  27              		.file 1 "../lib/e-puck2_main-processor/ChibiOS//os/rt/ports/ARMCMx/chcore_v7m.h"
  28              		.loc 1 444 0
  29              		.cfi_startproc
  30              		@ args = 0, pretend = 0, frame = 8
  31              		@ frame_needed = 0, uses_anonymous_args = 0
  32 0000 00B5     		push	{lr}
  33              		.cfi_def_cfa_offset 4
  34              		.cfi_offset 14, -4
  35 0002 83B0     		sub	sp, sp, #12
  36              		.cfi_def_cfa_offset 16
  37              		.loc 1 444 0
  38 0004 094B     		ldr	r3, .L3
  39 0006 1B68     		ldr	r3, [r3]
  40 0008 0193     		str	r3, [sp, #4]
  41 000a 2023     		movs	r3, #32
  42 000c 0093     		str	r3, [sp]
  43              	.LBB6:
  44              	.LBB7:
  45              		.file 2 "../lib/e-puck2_main-processor/ChibiOS//os/ext/CMSIS/include/core_cmFunc.h"
  46              		.loc 2 546 0
  47 000e 009B     		ldr	r3, [sp]
  48              		.syntax unified
  49              	@ 546 "../lib/e-puck2_main-processor/ChibiOS//os/ext/CMSIS/include/core_cmFunc.h" 1
  50 0010 83F31188 		MSR basepri, r3
  51              	@ 0 "" 2
  52              		.thumb
  53              		.syntax unified
  54              	.LBE7:
  55              	.LBE6:
  56              		.loc 1 451 0
  57 0014 00BF     		nop
ARM GAS  C:\Users\PCHAUT~1\AppData\Local\Temp\cczqxKqU.s 			page 2


  58 0016 054B     		ldr	r3, .L3
  59 0018 019A     		ldr	r2, [sp, #4]
  60 001a 1B68     		ldr	r3, [r3]
  61 001c 9A42     		cmp	r2, r3
  62 001e 01D0     		beq	.L2
  63 0020 FFF7FEFF 		bl	__stack_chk_fail
  64              	.L2:
  65 0024 03B0     		add	sp, sp, #12
  66              		.cfi_def_cfa_offset 4
  67              		@ sp needed
  68 0026 5DF804FB 		ldr	pc, [sp], #4
  69              	.L4:
  70 002a 00BF     		.align	2
  71              	.L3:
  72 002c 00000000 		.word	__stack_chk_guard
  73              		.cfi_endproc
  74              	.LFE116:
  75              		.size	port_lock, .-port_lock
  76              		.section	.text.port_unlock,"ax",%progbits
  77              		.align	1
  78              		.p2align 4,,15
  79              		.syntax unified
  80              		.thumb
  81              		.thumb_func
  82              		.fpu fpv4-sp-d16
  83              		.type	port_unlock, %function
  84              	port_unlock:
  85              	.LFB117:
  86              		.loc 1 458 0
  87              		.cfi_startproc
  88              		@ args = 0, pretend = 0, frame = 8
  89              		@ frame_needed = 0, uses_anonymous_args = 0
  90 0000 00B5     		push	{lr}
  91              		.cfi_def_cfa_offset 4
  92              		.cfi_offset 14, -4
  93 0002 83B0     		sub	sp, sp, #12
  94              		.cfi_def_cfa_offset 16
  95              		.loc 1 458 0
  96 0004 094B     		ldr	r3, .L7
  97 0006 1B68     		ldr	r3, [r3]
  98 0008 0193     		str	r3, [sp, #4]
  99 000a 0023     		movs	r3, #0
 100 000c 0093     		str	r3, [sp]
 101              	.LBB8:
 102              	.LBB9:
 103              		.loc 2 546 0
 104 000e 009B     		ldr	r3, [sp]
 105              		.syntax unified
 106              	@ 546 "../lib/e-puck2_main-processor/ChibiOS//os/ext/CMSIS/include/core_cmFunc.h" 1
 107 0010 83F31188 		MSR basepri, r3
 108              	@ 0 "" 2
 109              		.thumb
 110              		.syntax unified
 111              	.LBE9:
 112              	.LBE8:
 113              		.loc 1 465 0
 114 0014 00BF     		nop
ARM GAS  C:\Users\PCHAUT~1\AppData\Local\Temp\cczqxKqU.s 			page 3


 115 0016 054B     		ldr	r3, .L7
 116 0018 019A     		ldr	r2, [sp, #4]
 117 001a 1B68     		ldr	r3, [r3]
 118 001c 9A42     		cmp	r2, r3
 119 001e 01D0     		beq	.L6
 120 0020 FFF7FEFF 		bl	__stack_chk_fail
 121              	.L6:
 122 0024 03B0     		add	sp, sp, #12
 123              		.cfi_def_cfa_offset 4
 124              		@ sp needed
 125 0026 5DF804FB 		ldr	pc, [sp], #4
 126              	.L8:
 127 002a 00BF     		.align	2
 128              	.L7:
 129 002c 00000000 		.word	__stack_chk_guard
 130              		.cfi_endproc
 131              	.LFE117:
 132              		.size	port_unlock, .-port_unlock
 133              		.section	.text.chSysLock,"ax",%progbits
 134              		.align	1
 135              		.p2align 4,,15
 136              		.syntax unified
 137              		.thumb
 138              		.thumb_func
 139              		.fpu fpv4-sp-d16
 140              		.type	chSysLock, %function
 141              	chSysLock:
 142              	.LFB145:
 143              		.file 3 "../lib/e-puck2_main-processor/ChibiOS//os/rt/include/chsys.h"
 144              		.loc 3 346 0
 145              		.cfi_startproc
 146              		@ args = 0, pretend = 0, frame = 8
 147              		@ frame_needed = 0, uses_anonymous_args = 0
 148 0000 00B5     		push	{lr}
 149              		.cfi_def_cfa_offset 4
 150              		.cfi_offset 14, -4
 151 0002 83B0     		sub	sp, sp, #12
 152              		.cfi_def_cfa_offset 16
 153              		.loc 3 346 0
 154 0004 094B     		ldr	r3, .L11
 155 0006 1B68     		ldr	r3, [r3]
 156 0008 0193     		str	r3, [sp, #4]
 157              		.loc 3 348 0
 158 000a FFF7FEFF 		bl	port_lock
 159              		.loc 3 349 0
 160 000e FFF7FEFF 		bl	_stats_start_measure_crit_thd
 161              		.loc 3 350 0
 162 0012 FFF7FEFF 		bl	_dbg_check_lock
 163              		.loc 3 351 0
 164 0016 00BF     		nop
 165 0018 044B     		ldr	r3, .L11
 166 001a 019A     		ldr	r2, [sp, #4]
 167 001c 1B68     		ldr	r3, [r3]
 168 001e 9A42     		cmp	r2, r3
 169 0020 01D0     		beq	.L10
 170 0022 FFF7FEFF 		bl	__stack_chk_fail
 171              	.L10:
ARM GAS  C:\Users\PCHAUT~1\AppData\Local\Temp\cczqxKqU.s 			page 4


 172 0026 03B0     		add	sp, sp, #12
 173              		.cfi_def_cfa_offset 4
 174              		@ sp needed
 175 0028 5DF804FB 		ldr	pc, [sp], #4
 176              	.L12:
 177              		.align	2
 178              	.L11:
 179 002c 00000000 		.word	__stack_chk_guard
 180              		.cfi_endproc
 181              	.LFE145:
 182              		.size	chSysLock, .-chSysLock
 183              		.section	.text.chSysUnlock,"ax",%progbits
 184              		.align	1
 185              		.p2align 4,,15
 186              		.syntax unified
 187              		.thumb
 188              		.thumb_func
 189              		.fpu fpv4-sp-d16
 190              		.type	chSysUnlock, %function
 191              	chSysUnlock:
 192              	.LFB146:
 193              		.loc 3 358 0
 194              		.cfi_startproc
 195              		@ args = 0, pretend = 0, frame = 8
 196              		@ frame_needed = 0, uses_anonymous_args = 0
 197 0000 00B5     		push	{lr}
 198              		.cfi_def_cfa_offset 4
 199              		.cfi_offset 14, -4
 200 0002 83B0     		sub	sp, sp, #12
 201              		.cfi_def_cfa_offset 16
 202              		.loc 3 358 0
 203 0004 114B     		ldr	r3, .L16
 204 0006 1B68     		ldr	r3, [r3]
 205 0008 0193     		str	r3, [sp, #4]
 206              		.loc 3 360 0
 207 000a FFF7FEFF 		bl	_dbg_check_unlock
 208              		.loc 3 361 0
 209 000e FFF7FEFF 		bl	_stats_stop_measure_crit_thd
 210              		.loc 3 367 0
 211 0012 0F4B     		ldr	r3, .L16+4
 212 0014 1B68     		ldr	r3, [r3]
 213 0016 0E4A     		ldr	r2, .L16+4
 214 0018 9342     		cmp	r3, r2
 215 001a 0AD0     		beq	.L14
 216              		.loc 3 367 0 is_stmt 0 discriminator 2
 217 001c 0C4B     		ldr	r3, .L16+4
 218 001e 9B69     		ldr	r3, [r3, #24]
 219 0020 9A68     		ldr	r2, [r3, #8]
 220 0022 0B4B     		ldr	r3, .L16+4
 221 0024 1B68     		ldr	r3, [r3]
 222 0026 9B68     		ldr	r3, [r3, #8]
 223 0028 9A42     		cmp	r2, r3
 224 002a 02D2     		bcs	.L14
 225              		.loc 3 367 0 discriminator 3
 226 002c 0948     		ldr	r0, .L16+8
 227 002e FFF7FEFF 		bl	chSysHalt
 228              	.L14:
ARM GAS  C:\Users\PCHAUT~1\AppData\Local\Temp\cczqxKqU.s 			page 5


 229              		.loc 3 371 0 is_stmt 1
 230 0032 FFF7FEFF 		bl	port_unlock
 231              		.loc 3 372 0
 232 0036 00BF     		nop
 233 0038 044B     		ldr	r3, .L16
 234 003a 019A     		ldr	r2, [sp, #4]
 235 003c 1B68     		ldr	r3, [r3]
 236 003e 9A42     		cmp	r2, r3
 237 0040 01D0     		beq	.L15
 238 0042 FFF7FEFF 		bl	__stack_chk_fail
 239              	.L15:
 240 0046 03B0     		add	sp, sp, #12
 241              		.cfi_def_cfa_offset 4
 242              		@ sp needed
 243 0048 5DF804FB 		ldr	pc, [sp], #4
 244              	.L17:
 245              		.align	2
 246              	.L16:
 247 004c 00000000 		.word	__stack_chk_guard
 248 0050 00000000 		.word	ch
 249 0054 00000000 		.word	__func__.7153
 250              		.cfi_endproc
 251              	.LFE146:
 252              		.size	chSysUnlock, .-chSysUnlock
 253              		.section	.text.chThdGetSelfX,"ax",%progbits
 254              		.align	1
 255              		.p2align 4,,15
 256              		.syntax unified
 257              		.thumb
 258              		.thumb_func
 259              		.fpu fpv4-sp-d16
 260              		.type	chThdGetSelfX, %function
 261              	chThdGetSelfX:
 262              	.LFB166:
 263              		.file 4 "../lib/e-puck2_main-processor/ChibiOS//os/rt/include/chthreads.h"
 264              		.loc 4 174 0
 265              		.cfi_startproc
 266              		@ args = 0, pretend = 0, frame = 8
 267              		@ frame_needed = 0, uses_anonymous_args = 0
 268 0000 00B5     		push	{lr}
 269              		.cfi_def_cfa_offset 4
 270              		.cfi_offset 14, -4
 271 0002 83B0     		sub	sp, sp, #12
 272              		.cfi_def_cfa_offset 16
 273              		.loc 4 174 0
 274 0004 074B     		ldr	r3, .L21
 275 0006 1B68     		ldr	r3, [r3]
 276 0008 0193     		str	r3, [sp, #4]
 277              		.loc 4 176 0
 278 000a 074B     		ldr	r3, .L21+4
 279 000c 9B69     		ldr	r3, [r3, #24]
 280              		.loc 4 177 0
 281 000e 1846     		mov	r0, r3
 282 0010 044B     		ldr	r3, .L21
 283 0012 019A     		ldr	r2, [sp, #4]
 284 0014 1B68     		ldr	r3, [r3]
 285 0016 9A42     		cmp	r2, r3
ARM GAS  C:\Users\PCHAUT~1\AppData\Local\Temp\cczqxKqU.s 			page 6


 286 0018 01D0     		beq	.L20
 287 001a FFF7FEFF 		bl	__stack_chk_fail
 288              	.L20:
 289 001e 03B0     		add	sp, sp, #12
 290              		.cfi_def_cfa_offset 4
 291              		@ sp needed
 292 0020 5DF804FB 		ldr	pc, [sp], #4
 293              	.L22:
 294              		.align	2
 295              	.L21:
 296 0024 00000000 		.word	__stack_chk_guard
 297 0028 00000000 		.word	ch
 298              		.cfi_endproc
 299              	.LFE166:
 300              		.size	chThdGetSelfX, .-chThdGetSelfX
 301              		.section	.text.chThdGetPriorityX,"ax",%progbits
 302              		.align	1
 303              		.p2align 4,,15
 304              		.syntax unified
 305              		.thumb
 306              		.thumb_func
 307              		.fpu fpv4-sp-d16
 308              		.type	chThdGetPriorityX, %function
 309              	chThdGetPriorityX:
 310              	.LFB167:
 311              		.loc 4 187 0
 312              		.cfi_startproc
 313              		@ args = 0, pretend = 0, frame = 8
 314              		@ frame_needed = 0, uses_anonymous_args = 0
 315 0000 00B5     		push	{lr}
 316              		.cfi_def_cfa_offset 4
 317              		.cfi_offset 14, -4
 318 0002 83B0     		sub	sp, sp, #12
 319              		.cfi_def_cfa_offset 16
 320              		.loc 4 187 0
 321 0004 084B     		ldr	r3, .L26
 322 0006 1B68     		ldr	r3, [r3]
 323 0008 0193     		str	r3, [sp, #4]
 324              		.loc 4 189 0
 325 000a FFF7FEFF 		bl	chThdGetSelfX
 326 000e 0346     		mov	r3, r0
 327 0010 9B68     		ldr	r3, [r3, #8]
 328              		.loc 4 190 0
 329 0012 1846     		mov	r0, r3
 330 0014 044B     		ldr	r3, .L26
 331 0016 019A     		ldr	r2, [sp, #4]
 332 0018 1B68     		ldr	r3, [r3]
 333 001a 9A42     		cmp	r2, r3
 334 001c 01D0     		beq	.L25
 335 001e FFF7FEFF 		bl	__stack_chk_fail
 336              	.L25:
 337 0022 03B0     		add	sp, sp, #12
 338              		.cfi_def_cfa_offset 4
 339              		@ sp needed
 340 0024 5DF804FB 		ldr	pc, [sp], #4
 341              	.L27:
 342              		.align	2
ARM GAS  C:\Users\PCHAUT~1\AppData\Local\Temp\cczqxKqU.s 			page 7


 343              	.L26:
 344 0028 00000000 		.word	__stack_chk_guard
 345              		.cfi_endproc
 346              	.LFE167:
 347              		.size	chThdGetPriorityX, .-chThdGetPriorityX
 348              		.section	.text.chIQGetFullI,"ax",%progbits
 349              		.align	1
 350              		.p2align 4,,15
 351              		.syntax unified
 352              		.thumb
 353              		.thumb_func
 354              		.fpu fpv4-sp-d16
 355              		.type	chIQGetFullI, %function
 356              	chIQGetFullI:
 357              	.LFB209:
 358              		.file 5 "../lib/e-puck2_main-processor/ChibiOS//os/rt/include/chqueues.h"
 359              		.loc 5 270 0
 360              		.cfi_startproc
 361              		@ args = 0, pretend = 0, frame = 16
 362              		@ frame_needed = 0, uses_anonymous_args = 0
 363 0000 00B5     		push	{lr}
 364              		.cfi_def_cfa_offset 4
 365              		.cfi_offset 14, -4
 366 0002 85B0     		sub	sp, sp, #20
 367              		.cfi_def_cfa_offset 24
 368 0004 0190     		str	r0, [sp, #4]
 369              		.loc 5 270 0
 370 0006 094B     		ldr	r3, .L31
 371 0008 1B68     		ldr	r3, [r3]
 372 000a 0393     		str	r3, [sp, #12]
 373              		.loc 5 272 0
 374 000c FFF7FEFF 		bl	chDbgCheckClassI
 375              		.loc 5 274 0
 376 0010 019B     		ldr	r3, [sp, #4]
 377 0012 9B68     		ldr	r3, [r3, #8]
 378              		.loc 5 275 0
 379 0014 1846     		mov	r0, r3
 380 0016 054B     		ldr	r3, .L31
 381 0018 039A     		ldr	r2, [sp, #12]
 382 001a 1B68     		ldr	r3, [r3]
 383 001c 9A42     		cmp	r2, r3
 384 001e 01D0     		beq	.L30
 385 0020 FFF7FEFF 		bl	__stack_chk_fail
 386              	.L30:
 387 0024 05B0     		add	sp, sp, #20
 388              		.cfi_def_cfa_offset 4
 389              		@ sp needed
 390 0026 5DF804FB 		ldr	pc, [sp], #4
 391              	.L32:
 392 002a 00BF     		.align	2
 393              	.L31:
 394 002c 00000000 		.word	__stack_chk_guard
 395              		.cfi_endproc
 396              	.LFE209:
 397              		.size	chIQGetFullI, .-chIQGetFullI
 398              		.section	.text.chIQIsEmptyI,"ax",%progbits
 399              		.align	1
ARM GAS  C:\Users\PCHAUT~1\AppData\Local\Temp\cczqxKqU.s 			page 8


 400              		.p2align 4,,15
 401              		.syntax unified
 402              		.thumb
 403              		.thumb_func
 404              		.fpu fpv4-sp-d16
 405              		.type	chIQIsEmptyI, %function
 406              	chIQIsEmptyI:
 407              	.LFB211:
 408              		.loc 5 303 0
 409              		.cfi_startproc
 410              		@ args = 0, pretend = 0, frame = 16
 411              		@ frame_needed = 0, uses_anonymous_args = 0
 412 0000 00B5     		push	{lr}
 413              		.cfi_def_cfa_offset 4
 414              		.cfi_offset 14, -4
 415 0002 85B0     		sub	sp, sp, #20
 416              		.cfi_def_cfa_offset 24
 417 0004 0190     		str	r0, [sp, #4]
 418              		.loc 5 303 0
 419 0006 0B4B     		ldr	r3, .L36
 420 0008 1B68     		ldr	r3, [r3]
 421 000a 0393     		str	r3, [sp, #12]
 422              		.loc 5 305 0
 423 000c FFF7FEFF 		bl	chDbgCheckClassI
 424              		.loc 5 307 0
 425 0010 019B     		ldr	r3, [sp, #4]
 426 0012 9B68     		ldr	r3, [r3, #8]
 427 0014 002B     		cmp	r3, #0
 428 0016 0CBF     		ite	eq
 429 0018 0123     		moveq	r3, #1
 430 001a 0023     		movne	r3, #0
 431 001c DBB2     		uxtb	r3, r3
 432              		.loc 5 308 0
 433 001e 1846     		mov	r0, r3
 434 0020 044B     		ldr	r3, .L36
 435 0022 039A     		ldr	r2, [sp, #12]
 436 0024 1B68     		ldr	r3, [r3]
 437 0026 9A42     		cmp	r2, r3
 438 0028 01D0     		beq	.L35
 439 002a FFF7FEFF 		bl	__stack_chk_fail
 440              	.L35:
 441 002e 05B0     		add	sp, sp, #20
 442              		.cfi_def_cfa_offset 4
 443              		@ sp needed
 444 0030 5DF804FB 		ldr	pc, [sp], #4
 445              	.L37:
 446              		.align	2
 447              	.L36:
 448 0034 00000000 		.word	__stack_chk_guard
 449              		.cfi_endproc
 450              	.LFE211:
 451              		.size	chIQIsEmptyI, .-chIQIsEmptyI
 452              		.section	.text.chIQIsFullI,"ax",%progbits
 453              		.align	1
 454              		.p2align 4,,15
 455              		.syntax unified
 456              		.thumb
ARM GAS  C:\Users\PCHAUT~1\AppData\Local\Temp\cczqxKqU.s 			page 9


 457              		.thumb_func
 458              		.fpu fpv4-sp-d16
 459              		.type	chIQIsFullI, %function
 460              	chIQIsFullI:
 461              	.LFB212:
 462              		.loc 5 320 0
 463              		.cfi_startproc
 464              		@ args = 0, pretend = 0, frame = 16
 465              		@ frame_needed = 0, uses_anonymous_args = 0
 466 0000 00B5     		push	{lr}
 467              		.cfi_def_cfa_offset 4
 468              		.cfi_offset 14, -4
 469 0002 85B0     		sub	sp, sp, #20
 470              		.cfi_def_cfa_offset 24
 471 0004 0190     		str	r0, [sp, #4]
 472              		.loc 5 320 0
 473 0006 104B     		ldr	r3, .L43
 474 0008 1B68     		ldr	r3, [r3]
 475 000a 0393     		str	r3, [sp, #12]
 476              		.loc 5 322 0
 477 000c FFF7FEFF 		bl	chDbgCheckClassI
 478              		.loc 5 324 0
 479 0010 019B     		ldr	r3, [sp, #4]
 480 0012 5A69     		ldr	r2, [r3, #20]
 481 0014 019B     		ldr	r3, [sp, #4]
 482 0016 9B69     		ldr	r3, [r3, #24]
 483 0018 9A42     		cmp	r2, r3
 484 001a 05D1     		bne	.L39
 485              		.loc 5 324 0 is_stmt 0 discriminator 1
 486 001c 019B     		ldr	r3, [sp, #4]
 487 001e 9B68     		ldr	r3, [r3, #8]
 488 0020 002B     		cmp	r3, #0
 489 0022 01D0     		beq	.L39
 490              		.loc 5 324 0 discriminator 3
 491 0024 0123     		movs	r3, #1
 492 0026 00E0     		b	.L40
 493              	.L39:
 494              		.loc 5 324 0 discriminator 4
 495 0028 0023     		movs	r3, #0
 496              	.L40:
 497              		.loc 5 324 0 discriminator 6
 498 002a 03F00103 		and	r3, r3, #1
 499 002e DBB2     		uxtb	r3, r3
 500              		.loc 5 325 0 is_stmt 1 discriminator 6
 501 0030 1846     		mov	r0, r3
 502 0032 054B     		ldr	r3, .L43
 503 0034 039A     		ldr	r2, [sp, #12]
 504 0036 1B68     		ldr	r3, [r3]
 505 0038 9A42     		cmp	r2, r3
 506 003a 01D0     		beq	.L42
 507              		.loc 5 325 0 is_stmt 0
 508 003c FFF7FEFF 		bl	__stack_chk_fail
 509              	.L42:
 510 0040 05B0     		add	sp, sp, #20
 511              		.cfi_def_cfa_offset 4
 512              		@ sp needed
 513 0042 5DF804FB 		ldr	pc, [sp], #4
ARM GAS  C:\Users\PCHAUT~1\AppData\Local\Temp\cczqxKqU.s 			page 10


 514              	.L44:
 515 0046 00BF     		.align	2
 516              	.L43:
 517 0048 00000000 		.word	__stack_chk_guard
 518              		.cfi_endproc
 519              	.LFE212:
 520              		.size	chIQIsFullI, .-chIQIsFullI
 521              		.section	.text.chIQGet,"ax",%progbits
 522              		.align	1
 523              		.p2align 4,,15
 524              		.syntax unified
 525              		.thumb
 526              		.thumb_func
 527              		.fpu fpv4-sp-d16
 528              		.type	chIQGet, %function
 529              	chIQGet:
 530              	.LFB213:
 531              		.loc 5 339 0 is_stmt 1
 532              		.cfi_startproc
 533              		@ args = 0, pretend = 0, frame = 16
 534              		@ frame_needed = 0, uses_anonymous_args = 0
 535 0000 00B5     		push	{lr}
 536              		.cfi_def_cfa_offset 4
 537              		.cfi_offset 14, -4
 538 0002 85B0     		sub	sp, sp, #20
 539              		.cfi_def_cfa_offset 24
 540 0004 0190     		str	r0, [sp, #4]
 541              		.loc 5 339 0
 542 0006 0A4B     		ldr	r3, .L48
 543 0008 1B68     		ldr	r3, [r3]
 544 000a 0393     		str	r3, [sp, #12]
 545              		.loc 5 341 0
 546 000c 4FF0FF31 		mov	r1, #-1
 547 0010 0198     		ldr	r0, [sp, #4]
 548 0012 FFF7FEFF 		bl	chIQGetTimeout
 549 0016 0346     		mov	r3, r0
 550              		.loc 5 342 0
 551 0018 1846     		mov	r0, r3
 552 001a 054B     		ldr	r3, .L48
 553 001c 039A     		ldr	r2, [sp, #12]
 554 001e 1B68     		ldr	r3, [r3]
 555 0020 9A42     		cmp	r2, r3
 556 0022 01D0     		beq	.L47
 557 0024 FFF7FEFF 		bl	__stack_chk_fail
 558              	.L47:
 559 0028 05B0     		add	sp, sp, #20
 560              		.cfi_def_cfa_offset 4
 561              		@ sp needed
 562 002a 5DF804FB 		ldr	pc, [sp], #4
 563              	.L49:
 564 002e 00BF     		.align	2
 565              	.L48:
 566 0030 00000000 		.word	__stack_chk_guard
 567              		.cfi_endproc
 568              	.LFE213:
 569              		.size	chIQGet, .-chIQGet
 570              		.section	.text.chOQGetFullI,"ax",%progbits
ARM GAS  C:\Users\PCHAUT~1\AppData\Local\Temp\cczqxKqU.s 			page 11


 571              		.align	1
 572              		.p2align 4,,15
 573              		.syntax unified
 574              		.thumb
 575              		.thumb_func
 576              		.fpu fpv4-sp-d16
 577              		.type	chOQGetFullI, %function
 578              	chOQGetFullI:
 579              	.LFB214:
 580              		.loc 5 353 0
 581              		.cfi_startproc
 582              		@ args = 0, pretend = 0, frame = 16
 583              		@ frame_needed = 0, uses_anonymous_args = 0
 584 0000 00B5     		push	{lr}
 585              		.cfi_def_cfa_offset 4
 586              		.cfi_offset 14, -4
 587 0002 85B0     		sub	sp, sp, #20
 588              		.cfi_def_cfa_offset 24
 589 0004 0190     		str	r0, [sp, #4]
 590              		.loc 5 353 0
 591 0006 0D4B     		ldr	r3, .L53
 592 0008 1B68     		ldr	r3, [r3]
 593 000a 0393     		str	r3, [sp, #12]
 594              		.loc 5 355 0
 595 000c FFF7FEFF 		bl	chDbgCheckClassI
 596              		.loc 5 357 0
 597 0010 019B     		ldr	r3, [sp, #4]
 598 0012 1B69     		ldr	r3, [r3, #16]
 599 0014 1A46     		mov	r2, r3
 600 0016 019B     		ldr	r3, [sp, #4]
 601 0018 DB68     		ldr	r3, [r3, #12]
 602 001a D31A     		subs	r3, r2, r3
 603 001c 1A46     		mov	r2, r3
 604 001e 019B     		ldr	r3, [sp, #4]
 605 0020 9B68     		ldr	r3, [r3, #8]
 606 0022 D31A     		subs	r3, r2, r3
 607              		.loc 5 358 0
 608 0024 1846     		mov	r0, r3
 609 0026 054B     		ldr	r3, .L53
 610 0028 039A     		ldr	r2, [sp, #12]
 611 002a 1B68     		ldr	r3, [r3]
 612 002c 9A42     		cmp	r2, r3
 613 002e 01D0     		beq	.L52
 614 0030 FFF7FEFF 		bl	__stack_chk_fail
 615              	.L52:
 616 0034 05B0     		add	sp, sp, #20
 617              		.cfi_def_cfa_offset 4
 618              		@ sp needed
 619 0036 5DF804FB 		ldr	pc, [sp], #4
 620              	.L54:
 621 003a 00BF     		.align	2
 622              	.L53:
 623 003c 00000000 		.word	__stack_chk_guard
 624              		.cfi_endproc
 625              	.LFE214:
 626              		.size	chOQGetFullI, .-chOQGetFullI
 627              		.section	.text.chOQIsEmptyI,"ax",%progbits
ARM GAS  C:\Users\PCHAUT~1\AppData\Local\Temp\cczqxKqU.s 			page 12


 628              		.align	1
 629              		.p2align 4,,15
 630              		.syntax unified
 631              		.thumb
 632              		.thumb_func
 633              		.fpu fpv4-sp-d16
 634              		.type	chOQIsEmptyI, %function
 635              	chOQIsEmptyI:
 636              	.LFB216:
 637              		.loc 5 386 0
 638              		.cfi_startproc
 639              		@ args = 0, pretend = 0, frame = 16
 640              		@ frame_needed = 0, uses_anonymous_args = 0
 641 0000 00B5     		push	{lr}
 642              		.cfi_def_cfa_offset 4
 643              		.cfi_offset 14, -4
 644 0002 85B0     		sub	sp, sp, #20
 645              		.cfi_def_cfa_offset 24
 646 0004 0190     		str	r0, [sp, #4]
 647              		.loc 5 386 0
 648 0006 104B     		ldr	r3, .L60
 649 0008 1B68     		ldr	r3, [r3]
 650 000a 0393     		str	r3, [sp, #12]
 651              		.loc 5 388 0
 652 000c FFF7FEFF 		bl	chDbgCheckClassI
 653              		.loc 5 390 0
 654 0010 019B     		ldr	r3, [sp, #4]
 655 0012 5A69     		ldr	r2, [r3, #20]
 656 0014 019B     		ldr	r3, [sp, #4]
 657 0016 9B69     		ldr	r3, [r3, #24]
 658 0018 9A42     		cmp	r2, r3
 659 001a 05D1     		bne	.L56
 660              		.loc 5 390 0 is_stmt 0 discriminator 1
 661 001c 019B     		ldr	r3, [sp, #4]
 662 001e 9B68     		ldr	r3, [r3, #8]
 663 0020 002B     		cmp	r3, #0
 664 0022 01D0     		beq	.L56
 665              		.loc 5 390 0 discriminator 3
 666 0024 0123     		movs	r3, #1
 667 0026 00E0     		b	.L57
 668              	.L56:
 669              		.loc 5 390 0 discriminator 4
 670 0028 0023     		movs	r3, #0
 671              	.L57:
 672              		.loc 5 390 0 discriminator 6
 673 002a 03F00103 		and	r3, r3, #1
 674 002e DBB2     		uxtb	r3, r3
 675              		.loc 5 391 0 is_stmt 1 discriminator 6
 676 0030 1846     		mov	r0, r3
 677 0032 054B     		ldr	r3, .L60
 678 0034 039A     		ldr	r2, [sp, #12]
 679 0036 1B68     		ldr	r3, [r3]
 680 0038 9A42     		cmp	r2, r3
 681 003a 01D0     		beq	.L59
 682              		.loc 5 391 0 is_stmt 0
 683 003c FFF7FEFF 		bl	__stack_chk_fail
 684              	.L59:
ARM GAS  C:\Users\PCHAUT~1\AppData\Local\Temp\cczqxKqU.s 			page 13


 685 0040 05B0     		add	sp, sp, #20
 686              		.cfi_def_cfa_offset 4
 687              		@ sp needed
 688 0042 5DF804FB 		ldr	pc, [sp], #4
 689              	.L61:
 690 0046 00BF     		.align	2
 691              	.L60:
 692 0048 00000000 		.word	__stack_chk_guard
 693              		.cfi_endproc
 694              	.LFE216:
 695              		.size	chOQIsEmptyI, .-chOQIsEmptyI
 696              		.section	.text.chOQIsFullI,"ax",%progbits
 697              		.align	1
 698              		.p2align 4,,15
 699              		.syntax unified
 700              		.thumb
 701              		.thumb_func
 702              		.fpu fpv4-sp-d16
 703              		.type	chOQIsFullI, %function
 704              	chOQIsFullI:
 705              	.LFB217:
 706              		.loc 5 403 0 is_stmt 1
 707              		.cfi_startproc
 708              		@ args = 0, pretend = 0, frame = 16
 709              		@ frame_needed = 0, uses_anonymous_args = 0
 710 0000 00B5     		push	{lr}
 711              		.cfi_def_cfa_offset 4
 712              		.cfi_offset 14, -4
 713 0002 85B0     		sub	sp, sp, #20
 714              		.cfi_def_cfa_offset 24
 715 0004 0190     		str	r0, [sp, #4]
 716              		.loc 5 403 0
 717 0006 0B4B     		ldr	r3, .L65
 718 0008 1B68     		ldr	r3, [r3]
 719 000a 0393     		str	r3, [sp, #12]
 720              		.loc 5 405 0
 721 000c FFF7FEFF 		bl	chDbgCheckClassI
 722              		.loc 5 407 0
 723 0010 019B     		ldr	r3, [sp, #4]
 724 0012 9B68     		ldr	r3, [r3, #8]
 725 0014 002B     		cmp	r3, #0
 726 0016 0CBF     		ite	eq
 727 0018 0123     		moveq	r3, #1
 728 001a 0023     		movne	r3, #0
 729 001c DBB2     		uxtb	r3, r3
 730              		.loc 5 408 0
 731 001e 1846     		mov	r0, r3
 732 0020 044B     		ldr	r3, .L65
 733 0022 039A     		ldr	r2, [sp, #12]
 734 0024 1B68     		ldr	r3, [r3]
 735 0026 9A42     		cmp	r2, r3
 736 0028 01D0     		beq	.L64
 737 002a FFF7FEFF 		bl	__stack_chk_fail
 738              	.L64:
 739 002e 05B0     		add	sp, sp, #20
 740              		.cfi_def_cfa_offset 4
 741              		@ sp needed
ARM GAS  C:\Users\PCHAUT~1\AppData\Local\Temp\cczqxKqU.s 			page 14


 742 0030 5DF804FB 		ldr	pc, [sp], #4
 743              	.L66:
 744              		.align	2
 745              	.L65:
 746 0034 00000000 		.word	__stack_chk_guard
 747              		.cfi_endproc
 748              	.LFE217:
 749              		.size	chOQIsFullI, .-chOQIsFullI
 750              		.section	.text.chOQPut,"ax",%progbits
 751              		.align	1
 752              		.p2align 4,,15
 753              		.syntax unified
 754              		.thumb
 755              		.thumb_func
 756              		.fpu fpv4-sp-d16
 757              		.type	chOQPut, %function
 758              	chOQPut:
 759              	.LFB218:
 760              		.loc 5 424 0
 761              		.cfi_startproc
 762              		@ args = 0, pretend = 0, frame = 16
 763              		@ frame_needed = 0, uses_anonymous_args = 0
 764 0000 00B5     		push	{lr}
 765              		.cfi_def_cfa_offset 4
 766              		.cfi_offset 14, -4
 767 0002 85B0     		sub	sp, sp, #20
 768              		.cfi_def_cfa_offset 24
 769 0004 0190     		str	r0, [sp, #4]
 770 0006 0B46     		mov	r3, r1
 771 0008 8DF80330 		strb	r3, [sp, #3]
 772              		.loc 5 424 0
 773 000c 0B4B     		ldr	r3, .L70
 774 000e 1B68     		ldr	r3, [r3]
 775 0010 0393     		str	r3, [sp, #12]
 776              		.loc 5 426 0
 777 0012 9DF80330 		ldrb	r3, [sp, #3]	@ zero_extendqisi2
 778 0016 4FF0FF32 		mov	r2, #-1
 779 001a 1946     		mov	r1, r3
 780 001c 0198     		ldr	r0, [sp, #4]
 781 001e FFF7FEFF 		bl	chOQPutTimeout
 782 0022 0346     		mov	r3, r0
 783              		.loc 5 427 0
 784 0024 1846     		mov	r0, r3
 785 0026 054B     		ldr	r3, .L70
 786 0028 039A     		ldr	r2, [sp, #12]
 787 002a 1B68     		ldr	r3, [r3]
 788 002c 9A42     		cmp	r2, r3
 789 002e 01D0     		beq	.L69
 790 0030 FFF7FEFF 		bl	__stack_chk_fail
 791              	.L69:
 792 0034 05B0     		add	sp, sp, #20
 793              		.cfi_def_cfa_offset 4
 794              		@ sp needed
 795 0036 5DF804FB 		ldr	pc, [sp], #4
 796              	.L71:
 797 003a 00BF     		.align	2
 798              	.L70:
ARM GAS  C:\Users\PCHAUT~1\AppData\Local\Temp\cczqxKqU.s 			page 15


 799 003c 00000000 		.word	__stack_chk_guard
 800              		.cfi_endproc
 801              	.LFE218:
 802              		.size	chOQPut, .-chOQPut
 803              		.section	.text.notify,"ax",%progbits
 804              		.align	1
 805              		.p2align 4,,15
 806              		.syntax unified
 807              		.thumb
 808              		.thumb_func
 809              		.fpu fpv4-sp-d16
 810              		.type	notify, %function
 811              	notify:
 812              	.LFB219:
 813              		.file 6 "../lib/e-puck2_main-processor/ChibiOS//test/rt/testqueues.c"
 814              		.loc 6 57 0
 815              		.cfi_startproc
 816              		@ args = 0, pretend = 0, frame = 16
 817              		@ frame_needed = 0, uses_anonymous_args = 0
 818 0000 00B5     		push	{lr}
 819              		.cfi_def_cfa_offset 4
 820              		.cfi_offset 14, -4
 821 0002 85B0     		sub	sp, sp, #20
 822              		.cfi_def_cfa_offset 24
 823 0004 0190     		str	r0, [sp, #4]
 824              		.loc 6 57 0
 825 0006 074B     		ldr	r3, .L74
 826 0008 1B68     		ldr	r3, [r3]
 827 000a 0393     		str	r3, [sp, #12]
 828              		.loc 6 59 0
 829 000c 00BF     		nop
 830 000e 054B     		ldr	r3, .L74
 831 0010 039A     		ldr	r2, [sp, #12]
 832 0012 1B68     		ldr	r3, [r3]
 833 0014 9A42     		cmp	r2, r3
 834 0016 01D0     		beq	.L73
 835 0018 FFF7FEFF 		bl	__stack_chk_fail
 836              	.L73:
 837 001c 05B0     		add	sp, sp, #20
 838              		.cfi_def_cfa_offset 4
 839              		@ sp needed
 840 001e 5DF804FB 		ldr	pc, [sp], #4
 841              	.L75:
 842 0022 00BF     		.align	2
 843              	.L74:
 844 0024 00000000 		.word	__stack_chk_guard
 845              		.cfi_endproc
 846              	.LFE219:
 847              		.size	notify, .-notify
 848              		.section	.data.iq,"aw",%progbits
 849              		.align	2
 850              		.type	iq, %object
 851              		.size	iq, 36
 852              	iq:
 853 0000 00000000 		.word	iq
 854 0004 00000000 		.word	iq
 855 0008 00000000 		.word	0
ARM GAS  C:\Users\PCHAUT~1\AppData\Local\Temp\cczqxKqU.s 			page 16


 856 000c 00000000 		.word	test
 857 0010 04000000 		.word	test+4
 858 0014 00000000 		.word	test
 859 0018 00000000 		.word	test
 860 001c 00000000 		.word	notify
 861 0020 00000000 		.word	0
 862              		.section	.data.oq,"aw",%progbits
 863              		.align	2
 864              		.type	oq, %object
 865              		.size	oq, 36
 866              	oq:
 867 0000 00000000 		.word	oq
 868 0004 00000000 		.word	oq
 869 0008 04000000 		.word	4
 870 000c F8010000 		.word	test+504
 871 0010 FC010000 		.word	test+508
 872 0014 F8010000 		.word	test+504
 873 0018 F8010000 		.word	test+504
 874 001c 00000000 		.word	notify
 875 0020 00000000 		.word	0
 876              		.section	.text.queues1_setup,"ax",%progbits
 877              		.align	1
 878              		.p2align 4,,15
 879              		.syntax unified
 880              		.thumb
 881              		.thumb_func
 882              		.fpu fpv4-sp-d16
 883              		.type	queues1_setup, %function
 884              	queues1_setup:
 885              	.LFB220:
 886              		.loc 6 78 0
 887              		.cfi_startproc
 888              		@ args = 0, pretend = 0, frame = 8
 889              		@ frame_needed = 0, uses_anonymous_args = 0
 890 0000 00B5     		push	{lr}
 891              		.cfi_def_cfa_offset 4
 892              		.cfi_offset 14, -4
 893 0002 85B0     		sub	sp, sp, #20
 894              		.cfi_def_cfa_offset 24
 895              		.loc 6 78 0
 896 0004 0B4B     		ldr	r3, .L78
 897 0006 1B68     		ldr	r3, [r3]
 898 0008 0393     		str	r3, [sp, #12]
 899              		.loc 6 80 0
 900 000a 0B4B     		ldr	r3, .L78+4
 901 000c 1968     		ldr	r1, [r3]
 902 000e 0023     		movs	r3, #0
 903 0010 0093     		str	r3, [sp]
 904 0012 0A4B     		ldr	r3, .L78+8
 905 0014 0422     		movs	r2, #4
 906 0016 0A48     		ldr	r0, .L78+12
 907 0018 FFF7FEFF 		bl	chIQObjectInit
 908              		.loc 6 81 0
 909 001c 00BF     		nop
 910 001e 054B     		ldr	r3, .L78
 911 0020 039A     		ldr	r2, [sp, #12]
 912 0022 1B68     		ldr	r3, [r3]
ARM GAS  C:\Users\PCHAUT~1\AppData\Local\Temp\cczqxKqU.s 			page 17


 913 0024 9A42     		cmp	r2, r3
 914 0026 01D0     		beq	.L77
 915 0028 FFF7FEFF 		bl	__stack_chk_fail
 916              	.L77:
 917 002c 05B0     		add	sp, sp, #20
 918              		.cfi_def_cfa_offset 4
 919              		@ sp needed
 920 002e 5DF804FB 		ldr	pc, [sp], #4
 921              	.L79:
 922 0032 00BF     		.align	2
 923              	.L78:
 924 0034 00000000 		.word	__stack_chk_guard
 925 0038 00000000 		.word	wa
 926 003c 00000000 		.word	notify
 927 0040 00000000 		.word	iq
 928              		.cfi_endproc
 929              	.LFE220:
 930              		.size	queues1_setup, .-queues1_setup
 931              		.section	.text.thread1,"ax",%progbits
 932              		.align	1
 933              		.p2align 4,,15
 934              		.syntax unified
 935              		.thumb
 936              		.thumb_func
 937              		.fpu fpv4-sp-d16
 938              		.type	thread1, %function
 939              	thread1:
 940              	.LFB221:
 941              		.loc 6 83 0
 942              		.cfi_startproc
 943              		@ args = 0, pretend = 0, frame = 16
 944              		@ frame_needed = 0, uses_anonymous_args = 0
 945 0000 00B5     		push	{lr}
 946              		.cfi_def_cfa_offset 4
 947              		.cfi_offset 14, -4
 948 0002 85B0     		sub	sp, sp, #20
 949              		.cfi_def_cfa_offset 24
 950 0004 0190     		str	r0, [sp, #4]
 951              		.loc 6 83 0
 952 0006 094B     		ldr	r3, .L82
 953 0008 1B68     		ldr	r3, [r3]
 954 000a 0393     		str	r3, [sp, #12]
 955              		.loc 6 86 0
 956 000c C821     		movs	r1, #200
 957 000e 0848     		ldr	r0, .L82+4
 958 0010 FFF7FEFF 		bl	chIQGetTimeout
 959              		.loc 6 87 0
 960 0014 00BF     		nop
 961 0016 054B     		ldr	r3, .L82
 962 0018 039A     		ldr	r2, [sp, #12]
 963 001a 1B68     		ldr	r3, [r3]
 964 001c 9A42     		cmp	r2, r3
 965 001e 01D0     		beq	.L81
 966 0020 FFF7FEFF 		bl	__stack_chk_fail
 967              	.L81:
 968 0024 05B0     		add	sp, sp, #20
 969              		.cfi_def_cfa_offset 4
ARM GAS  C:\Users\PCHAUT~1\AppData\Local\Temp\cczqxKqU.s 			page 18


 970              		@ sp needed
 971 0026 5DF804FB 		ldr	pc, [sp], #4
 972              	.L83:
 973 002a 00BF     		.align	2
 974              	.L82:
 975 002c 00000000 		.word	__stack_chk_guard
 976 0030 00000000 		.word	iq
 977              		.cfi_endproc
 978              	.LFE221:
 979              		.size	thread1, .-thread1
 980              		.section	.rodata
 981              		.align	2
 982              	.LC0:
 983 0000 41424344 		.ascii	"ABCD\000"
 983      00
 984              		.section	.text.queues1_execute,"ax",%progbits
 985              		.align	1
 986              		.p2align 4,,15
 987              		.syntax unified
 988              		.thumb
 989              		.thumb_func
 990              		.fpu fpv4-sp-d16
 991              		.type	queues1_execute, %function
 992              	queues1_execute:
 993              	.LFB222:
 994              		.loc 6 89 0
 995              		.cfi_startproc
 996              		@ args = 0, pretend = 0, frame = 16
 997              		@ frame_needed = 0, uses_anonymous_args = 0
 998 0000 10B5     		push	{r4, lr}
 999              		.cfi_def_cfa_offset 8
 1000              		.cfi_offset 4, -8
 1001              		.cfi_offset 14, -4
 1002 0002 86B0     		sub	sp, sp, #24
 1003              		.cfi_def_cfa_offset 32
 1004              		.loc 6 89 0
 1005 0004 BD4B     		ldr	r3, .L111
 1006 0006 1B68     		ldr	r3, [r3]
 1007 0008 0593     		str	r3, [sp, #20]
 1008              		.loc 6 94 0
 1009 000a FFF7FEFF 		bl	chSysLock
 1010 000e BC48     		ldr	r0, .L111+4
 1011 0010 FFF7FEFF 		bl	chIQIsEmptyI
 1012 0014 0346     		mov	r3, r0
 1013 0016 1946     		mov	r1, r3
 1014 0018 0120     		movs	r0, #1
 1015 001a FFF7FEFF 		bl	_test_assert
 1016 001e 0346     		mov	r3, r0
 1017 0020 002B     		cmp	r3, #0
 1018 0022 02D0     		beq	.L85
 1019              		.loc 6 94 0 is_stmt 0 discriminator 1
 1020 0024 FFF7FEFF 		bl	chSysUnlock
 1021 0028 60E1     		b	.L84
 1022              	.L85:
 1023              		.loc 6 94 0 discriminator 2
 1024 002a FFF7FEFF 		bl	chSysUnlock
 1025              		.loc 6 97 0 is_stmt 1 discriminator 2
ARM GAS  C:\Users\PCHAUT~1\AppData\Local\Temp\cczqxKqU.s 			page 19


 1026 002e FFF7FEFF 		bl	chSysLock
 1027              		.loc 6 98 0 discriminator 2
 1028 0032 0023     		movs	r3, #0
 1029 0034 0393     		str	r3, [sp, #12]
 1030 0036 0AE0     		b	.L87
 1031              	.L88:
 1032              		.loc 6 99 0 discriminator 3
 1033 0038 039B     		ldr	r3, [sp, #12]
 1034 003a DBB2     		uxtb	r3, r3
 1035 003c 4133     		adds	r3, r3, #65
 1036 003e DBB2     		uxtb	r3, r3
 1037 0040 1946     		mov	r1, r3
 1038 0042 AF48     		ldr	r0, .L111+4
 1039 0044 FFF7FEFF 		bl	chIQPutI
 1040              		.loc 6 98 0 discriminator 3
 1041 0048 039B     		ldr	r3, [sp, #12]
 1042 004a 0133     		adds	r3, r3, #1
 1043 004c 0393     		str	r3, [sp, #12]
 1044              	.L87:
 1045              		.loc 6 98 0 is_stmt 0 discriminator 1
 1046 004e 039B     		ldr	r3, [sp, #12]
 1047 0050 032B     		cmp	r3, #3
 1048 0052 F1D9     		bls	.L88
 1049              		.loc 6 100 0 is_stmt 1
 1050 0054 FFF7FEFF 		bl	chSysUnlock
 1051              		.loc 6 101 0
 1052 0058 FFF7FEFF 		bl	chSysLock
 1053 005c A848     		ldr	r0, .L111+4
 1054 005e FFF7FEFF 		bl	chIQIsFullI
 1055 0062 0346     		mov	r3, r0
 1056 0064 1946     		mov	r1, r3
 1057 0066 0220     		movs	r0, #2
 1058 0068 FFF7FEFF 		bl	_test_assert
 1059 006c 0346     		mov	r3, r0
 1060 006e 002B     		cmp	r3, #0
 1061 0070 02D0     		beq	.L89
 1062              		.loc 6 101 0 is_stmt 0 discriminator 1
 1063 0072 FFF7FEFF 		bl	chSysUnlock
 1064 0076 39E1     		b	.L84
 1065              	.L89:
 1066              		.loc 6 101 0 discriminator 2
 1067 0078 FFF7FEFF 		bl	chSysUnlock
 1068              		.loc 6 102 0 is_stmt 1 discriminator 2
 1069 007c FFF7FEFF 		bl	chSysLock
 1070 0080 0021     		movs	r1, #0
 1071 0082 9F48     		ldr	r0, .L111+4
 1072 0084 FFF7FEFF 		bl	chIQPutI
 1073 0088 0346     		mov	r3, r0
 1074 008a 13F1040F 		cmn	r3, #4
 1075 008e 0CBF     		ite	eq
 1076 0090 0123     		moveq	r3, #1
 1077 0092 0023     		movne	r3, #0
 1078 0094 DBB2     		uxtb	r3, r3
 1079 0096 1946     		mov	r1, r3
 1080 0098 0320     		movs	r0, #3
 1081 009a FFF7FEFF 		bl	_test_assert
 1082 009e 0346     		mov	r3, r0
ARM GAS  C:\Users\PCHAUT~1\AppData\Local\Temp\cczqxKqU.s 			page 20


 1083 00a0 002B     		cmp	r3, #0
 1084 00a2 02D0     		beq	.L90
 1085              		.loc 6 102 0 is_stmt 0 discriminator 1
 1086 00a4 FFF7FEFF 		bl	chSysUnlock
 1087 00a8 20E1     		b	.L84
 1088              	.L90:
 1089              		.loc 6 102 0 discriminator 2
 1090 00aa FFF7FEFF 		bl	chSysUnlock
 1091              		.loc 6 105 0 is_stmt 1 discriminator 2
 1092 00ae 0023     		movs	r3, #0
 1093 00b0 0393     		str	r3, [sp, #12]
 1094 00b2 0AE0     		b	.L91
 1095              	.L92:
 1096              		.loc 6 106 0 discriminator 3
 1097 00b4 9248     		ldr	r0, .L111+4
 1098 00b6 FFF7FEFF 		bl	chIQGet
 1099 00ba 0346     		mov	r3, r0
 1100 00bc DBB2     		uxtb	r3, r3
 1101 00be 1846     		mov	r0, r3
 1102 00c0 FFF7FEFF 		bl	test_emit_token
 1103              		.loc 6 105 0 discriminator 3
 1104 00c4 039B     		ldr	r3, [sp, #12]
 1105 00c6 0133     		adds	r3, r3, #1
 1106 00c8 0393     		str	r3, [sp, #12]
 1107              	.L91:
 1108              		.loc 6 105 0 is_stmt 0 discriminator 1
 1109 00ca 039B     		ldr	r3, [sp, #12]
 1110 00cc 032B     		cmp	r3, #3
 1111 00ce F1D9     		bls	.L92
 1112              		.loc 6 107 0 is_stmt 1
 1113 00d0 FFF7FEFF 		bl	chSysLock
 1114 00d4 8A48     		ldr	r0, .L111+4
 1115 00d6 FFF7FEFF 		bl	chIQIsEmptyI
 1116 00da 0346     		mov	r3, r0
 1117 00dc 1946     		mov	r1, r3
 1118 00de 0420     		movs	r0, #4
 1119 00e0 FFF7FEFF 		bl	_test_assert
 1120 00e4 0346     		mov	r3, r0
 1121 00e6 002B     		cmp	r3, #0
 1122 00e8 02D0     		beq	.L93
 1123              		.loc 6 107 0 is_stmt 0 discriminator 1
 1124 00ea FFF7FEFF 		bl	chSysUnlock
 1125 00ee FDE0     		b	.L84
 1126              	.L93:
 1127              		.loc 6 107 0 discriminator 2
 1128 00f0 FFF7FEFF 		bl	chSysUnlock
 1129              		.loc 6 108 0 is_stmt 1 discriminator 2
 1130 00f4 8349     		ldr	r1, .L111+8
 1131 00f6 0520     		movs	r0, #5
 1132 00f8 FFF7FEFF 		bl	_test_assert_sequence
 1133 00fc 0346     		mov	r3, r0
 1134 00fe 002B     		cmp	r3, #0
 1135 0100 40F0ED80 		bne	.L107
 1136              		.loc 6 111 0
 1137 0104 FFF7FEFF 		bl	chSysLock
 1138              		.loc 6 112 0
 1139 0108 0023     		movs	r3, #0
ARM GAS  C:\Users\PCHAUT~1\AppData\Local\Temp\cczqxKqU.s 			page 21


 1140 010a 0393     		str	r3, [sp, #12]
 1141 010c 0AE0     		b	.L95
 1142              	.L96:
 1143              		.loc 6 113 0 discriminator 3
 1144 010e 039B     		ldr	r3, [sp, #12]
 1145 0110 DBB2     		uxtb	r3, r3
 1146 0112 4133     		adds	r3, r3, #65
 1147 0114 DBB2     		uxtb	r3, r3
 1148 0116 1946     		mov	r1, r3
 1149 0118 7948     		ldr	r0, .L111+4
 1150 011a FFF7FEFF 		bl	chIQPutI
 1151              		.loc 6 112 0 discriminator 3
 1152 011e 039B     		ldr	r3, [sp, #12]
 1153 0120 0133     		adds	r3, r3, #1
 1154 0122 0393     		str	r3, [sp, #12]
 1155              	.L95:
 1156              		.loc 6 112 0 is_stmt 0 discriminator 1
 1157 0124 039B     		ldr	r3, [sp, #12]
 1158 0126 032B     		cmp	r3, #3
 1159 0128 F1D9     		bls	.L96
 1160              		.loc 6 114 0 is_stmt 1
 1161 012a FFF7FEFF 		bl	chSysUnlock
 1162              		.loc 6 117 0
 1163 012e 764B     		ldr	r3, .L111+12
 1164 0130 5968     		ldr	r1, [r3, #4]
 1165 0132 0023     		movs	r3, #0
 1166 0134 0822     		movs	r2, #8
 1167 0136 7248     		ldr	r0, .L111+4
 1168 0138 FFF7FEFF 		bl	chIQReadTimeout
 1169 013c 0490     		str	r0, [sp, #16]
 1170              		.loc 6 118 0
 1171 013e 049B     		ldr	r3, [sp, #16]
 1172 0140 042B     		cmp	r3, #4
 1173 0142 0CBF     		ite	eq
 1174 0144 0123     		moveq	r3, #1
 1175 0146 0023     		movne	r3, #0
 1176 0148 DBB2     		uxtb	r3, r3
 1177 014a 1946     		mov	r1, r3
 1178 014c 0620     		movs	r0, #6
 1179 014e FFF7FEFF 		bl	_test_assert
 1180 0152 0346     		mov	r3, r0
 1181 0154 002B     		cmp	r3, #0
 1182 0156 40F0C480 		bne	.L108
 1183              		.loc 6 119 0
 1184 015a FFF7FEFF 		bl	chSysLock
 1185 015e 6848     		ldr	r0, .L111+4
 1186 0160 FFF7FEFF 		bl	chIQIsEmptyI
 1187 0164 0346     		mov	r3, r0
 1188 0166 1946     		mov	r1, r3
 1189 0168 0720     		movs	r0, #7
 1190 016a FFF7FEFF 		bl	_test_assert
 1191 016e 0346     		mov	r3, r0
 1192 0170 002B     		cmp	r3, #0
 1193 0172 02D0     		beq	.L98
 1194              		.loc 6 119 0 is_stmt 0 discriminator 1
 1195 0174 FFF7FEFF 		bl	chSysUnlock
 1196 0178 B8E0     		b	.L84
ARM GAS  C:\Users\PCHAUT~1\AppData\Local\Temp\cczqxKqU.s 			page 22


 1197              	.L98:
 1198              		.loc 6 119 0 discriminator 2
 1199 017a FFF7FEFF 		bl	chSysUnlock
 1200              		.loc 6 122 0 is_stmt 1 discriminator 2
 1201 017e FFF7FEFF 		bl	chSysLock
 1202              		.loc 6 123 0 discriminator 2
 1203 0182 0023     		movs	r3, #0
 1204 0184 0393     		str	r3, [sp, #12]
 1205 0186 0AE0     		b	.L99
 1206              	.L100:
 1207              		.loc 6 124 0 discriminator 3
 1208 0188 039B     		ldr	r3, [sp, #12]
 1209 018a DBB2     		uxtb	r3, r3
 1210 018c 4133     		adds	r3, r3, #65
 1211 018e DBB2     		uxtb	r3, r3
 1212 0190 1946     		mov	r1, r3
 1213 0192 5B48     		ldr	r0, .L111+4
 1214 0194 FFF7FEFF 		bl	chIQPutI
 1215              		.loc 6 123 0 discriminator 3
 1216 0198 039B     		ldr	r3, [sp, #12]
 1217 019a 0133     		adds	r3, r3, #1
 1218 019c 0393     		str	r3, [sp, #12]
 1219              	.L99:
 1220              		.loc 6 123 0 is_stmt 0 discriminator 1
 1221 019e 039B     		ldr	r3, [sp, #12]
 1222 01a0 032B     		cmp	r3, #3
 1223 01a2 F1D9     		bls	.L100
 1224              		.loc 6 125 0 is_stmt 1
 1225 01a4 FFF7FEFF 		bl	chSysUnlock
 1226              		.loc 6 128 0
 1227 01a8 574B     		ldr	r3, .L111+12
 1228 01aa 5968     		ldr	r1, [r3, #4]
 1229 01ac 0023     		movs	r3, #0
 1230 01ae 0222     		movs	r2, #2
 1231 01b0 5348     		ldr	r0, .L111+4
 1232 01b2 FFF7FEFF 		bl	chIQReadTimeout
 1233 01b6 0490     		str	r0, [sp, #16]
 1234              		.loc 6 129 0
 1235 01b8 049B     		ldr	r3, [sp, #16]
 1236 01ba 022B     		cmp	r3, #2
 1237 01bc 0CBF     		ite	eq
 1238 01be 0123     		moveq	r3, #1
 1239 01c0 0023     		movne	r3, #0
 1240 01c2 DBB2     		uxtb	r3, r3
 1241 01c4 1946     		mov	r1, r3
 1242 01c6 0820     		movs	r0, #8
 1243 01c8 FFF7FEFF 		bl	_test_assert
 1244 01cc 0346     		mov	r3, r0
 1245 01ce 002B     		cmp	r3, #0
 1246 01d0 40F08980 		bne	.L109
 1247              		.loc 6 130 0
 1248 01d4 4C4B     		ldr	r3, .L111+12
 1249 01d6 5968     		ldr	r1, [r3, #4]
 1250 01d8 0023     		movs	r3, #0
 1251 01da 0222     		movs	r2, #2
 1252 01dc 4848     		ldr	r0, .L111+4
 1253 01de FFF7FEFF 		bl	chIQReadTimeout
ARM GAS  C:\Users\PCHAUT~1\AppData\Local\Temp\cczqxKqU.s 			page 23


 1254 01e2 0490     		str	r0, [sp, #16]
 1255              		.loc 6 131 0
 1256 01e4 049B     		ldr	r3, [sp, #16]
 1257 01e6 022B     		cmp	r3, #2
 1258 01e8 0CBF     		ite	eq
 1259 01ea 0123     		moveq	r3, #1
 1260 01ec 0023     		movne	r3, #0
 1261 01ee DBB2     		uxtb	r3, r3
 1262 01f0 1946     		mov	r1, r3
 1263 01f2 0920     		movs	r0, #9
 1264 01f4 FFF7FEFF 		bl	_test_assert
 1265 01f8 0346     		mov	r3, r0
 1266 01fa 002B     		cmp	r3, #0
 1267 01fc 75D1     		bne	.L110
 1268              		.loc 6 132 0
 1269 01fe FFF7FEFF 		bl	chSysLock
 1270 0202 3F48     		ldr	r0, .L111+4
 1271 0204 FFF7FEFF 		bl	chIQIsEmptyI
 1272 0208 0346     		mov	r3, r0
 1273 020a 1946     		mov	r1, r3
 1274 020c 0A20     		movs	r0, #10
 1275 020e FFF7FEFF 		bl	_test_assert
 1276 0212 0346     		mov	r3, r0
 1277 0214 002B     		cmp	r3, #0
 1278 0216 02D0     		beq	.L103
 1279              		.loc 6 132 0 is_stmt 0 discriminator 1
 1280 0218 FFF7FEFF 		bl	chSysUnlock
 1281 021c 66E0     		b	.L84
 1282              	.L103:
 1283              		.loc 6 132 0 discriminator 2
 1284 021e FFF7FEFF 		bl	chSysUnlock
 1285              		.loc 6 135 0 is_stmt 1 discriminator 2
 1286 0222 FFF7FEFF 		bl	chSysLock
 1287              		.loc 6 136 0 discriminator 2
 1288 0226 0021     		movs	r1, #0
 1289 0228 3548     		ldr	r0, .L111+4
 1290 022a FFF7FEFF 		bl	chIQPutI
 1291              		.loc 6 137 0 discriminator 2
 1292 022e 3448     		ldr	r0, .L111+4
 1293 0230 FFF7FEFF 		bl	chIQResetI
 1294              		.loc 6 138 0 discriminator 2
 1295 0234 FFF7FEFF 		bl	chSysUnlock
 1296              		.loc 6 139 0 discriminator 2
 1297 0238 FFF7FEFF 		bl	chSysLock
 1298 023c 3048     		ldr	r0, .L111+4
 1299 023e FFF7FEFF 		bl	chIQGetFullI
 1300 0242 0346     		mov	r3, r0
 1301 0244 002B     		cmp	r3, #0
 1302 0246 0CBF     		ite	eq
 1303 0248 0123     		moveq	r3, #1
 1304 024a 0023     		movne	r3, #0
 1305 024c DBB2     		uxtb	r3, r3
 1306 024e 1946     		mov	r1, r3
 1307 0250 0B20     		movs	r0, #11
 1308 0252 FFF7FEFF 		bl	_test_assert
 1309 0256 0346     		mov	r3, r0
 1310 0258 002B     		cmp	r3, #0
ARM GAS  C:\Users\PCHAUT~1\AppData\Local\Temp\cczqxKqU.s 			page 24


 1311 025a 02D0     		beq	.L104
 1312              		.loc 6 139 0 is_stmt 0 discriminator 1
 1313 025c FFF7FEFF 		bl	chSysUnlock
 1314 0260 44E0     		b	.L84
 1315              	.L104:
 1316              		.loc 6 139 0 discriminator 2
 1317 0262 FFF7FEFF 		bl	chSysUnlock
 1318              		.loc 6 140 0 is_stmt 1 discriminator 2
 1319 0266 284B     		ldr	r3, .L111+12
 1320 0268 1C68     		ldr	r4, [r3]
 1321 026a FFF7FEFF 		bl	chThdGetPriorityX
 1322 026e 0346     		mov	r3, r0
 1323 0270 5A1C     		adds	r2, r3, #1
 1324 0272 0023     		movs	r3, #0
 1325 0274 0093     		str	r3, [sp]
 1326 0276 254B     		ldr	r3, .L111+16
 1327 0278 4FF4FC71 		mov	r1, #504
 1328 027c 2046     		mov	r0, r4
 1329 027e FFF7FEFF 		bl	chThdCreateStatic
 1330 0282 0246     		mov	r2, r0
 1331 0284 224B     		ldr	r3, .L111+20
 1332 0286 1A60     		str	r2, [r3]
 1333              		.loc 6 141 0 discriminator 2
 1334 0288 FFF7FEFF 		bl	chSysLock
 1335 028c 1C48     		ldr	r0, .L111+4
 1336 028e FFF7FEFF 		bl	chIQGetFullI
 1337 0292 0346     		mov	r3, r0
 1338 0294 002B     		cmp	r3, #0
 1339 0296 0CBF     		ite	eq
 1340 0298 0123     		moveq	r3, #1
 1341 029a 0023     		movne	r3, #0
 1342 029c DBB2     		uxtb	r3, r3
 1343 029e 1946     		mov	r1, r3
 1344 02a0 0C20     		movs	r0, #12
 1345 02a2 FFF7FEFF 		bl	_test_assert
 1346 02a6 0346     		mov	r3, r0
 1347 02a8 002B     		cmp	r3, #0
 1348 02aa 02D0     		beq	.L105
 1349              		.loc 6 141 0 is_stmt 0 discriminator 1
 1350 02ac FFF7FEFF 		bl	chSysUnlock
 1351 02b0 1CE0     		b	.L84
 1352              	.L105:
 1353              		.loc 6 141 0 discriminator 2
 1354 02b2 FFF7FEFF 		bl	chSysUnlock
 1355              		.loc 6 142 0 is_stmt 1 discriminator 2
 1356 02b6 FFF7FEFF 		bl	test_wait_threads
 1357              		.loc 6 145 0 discriminator 2
 1358 02ba 0A21     		movs	r1, #10
 1359 02bc 1048     		ldr	r0, .L111+4
 1360 02be FFF7FEFF 		bl	chIQGetTimeout
 1361 02c2 0346     		mov	r3, r0
 1362 02c4 B3F1FF3F 		cmp	r3, #-1
 1363 02c8 0CBF     		ite	eq
 1364 02ca 0123     		moveq	r3, #1
 1365 02cc 0023     		movne	r3, #0
 1366 02ce DBB2     		uxtb	r3, r3
 1367 02d0 1946     		mov	r1, r3
ARM GAS  C:\Users\PCHAUT~1\AppData\Local\Temp\cczqxKqU.s 			page 25


 1368 02d2 0D20     		movs	r0, #13
 1369 02d4 FFF7FEFF 		bl	_test_assert
 1370 02d8 0346     		mov	r3, r0
 1371 02da 002B     		cmp	r3, #0
 1372 02dc 06E0     		b	.L84
 1373              	.L107:
 1374              		.loc 6 108 0
 1375 02de 00BF     		nop
 1376 02e0 04E0     		b	.L84
 1377              	.L108:
 1378              		.loc 6 118 0
 1379 02e2 00BF     		nop
 1380 02e4 02E0     		b	.L84
 1381              	.L109:
 1382              		.loc 6 129 0
 1383 02e6 00BF     		nop
 1384 02e8 00E0     		b	.L84
 1385              	.L110:
 1386              		.loc 6 131 0
 1387 02ea 00BF     		nop
 1388              	.L84:
 1389              		.loc 6 146 0
 1390 02ec 034B     		ldr	r3, .L111
 1391 02ee 059A     		ldr	r2, [sp, #20]
 1392 02f0 1B68     		ldr	r3, [r3]
 1393 02f2 9A42     		cmp	r2, r3
 1394 02f4 0ED0     		beq	.L106
 1395 02f6 FFF7FEFF 		bl	__stack_chk_fail
 1396              	.L112:
 1397 02fa 00BF     		.align	2
 1398              	.L111:
 1399 02fc 00000000 		.word	__stack_chk_guard
 1400 0300 00000000 		.word	iq
 1401 0304 00000000 		.word	.LC0
 1402 0308 00000000 		.word	wa
 1403 030c 00000000 		.word	thread1
 1404 0310 00000000 		.word	threads
 1405              	.L106:
 1406 0314 06B0     		add	sp, sp, #24
 1407              		.cfi_def_cfa_offset 8
 1408              		@ sp needed
 1409 0316 10BD     		pop	{r4, pc}
 1410              		.cfi_endproc
 1411              	.LFE222:
 1412              		.size	queues1_execute, .-queues1_execute
 1413              		.global	testqueues1
 1414              		.section	.rodata
 1415 0005 000000   		.align	2
 1416              	.LC1:
 1417 0008 51756575 		.ascii	"Queues, input queues\000"
 1417      65732C20 
 1417      696E7075 
 1417      74207175 
 1417      65756573 
 1418              		.section	.rodata.testqueues1,"a",%progbits
 1419              		.align	2
 1420              		.type	testqueues1, %object
ARM GAS  C:\Users\PCHAUT~1\AppData\Local\Temp\cczqxKqU.s 			page 26


 1421              		.size	testqueues1, 16
 1422              	testqueues1:
 1423 0000 08000000 		.word	.LC1
 1424 0004 00000000 		.word	queues1_setup
 1425 0008 00000000 		.word	0
 1426 000c 00000000 		.word	queues1_execute
 1427              		.section	.text.queues2_setup,"ax",%progbits
 1428              		.align	1
 1429              		.p2align 4,,15
 1430              		.syntax unified
 1431              		.thumb
 1432              		.thumb_func
 1433              		.fpu fpv4-sp-d16
 1434              		.type	queues2_setup, %function
 1435              	queues2_setup:
 1436              	.LFB223:
 1437              		.loc 6 164 0
 1438              		.cfi_startproc
 1439              		@ args = 0, pretend = 0, frame = 8
 1440              		@ frame_needed = 0, uses_anonymous_args = 0
 1441 0000 00B5     		push	{lr}
 1442              		.cfi_def_cfa_offset 4
 1443              		.cfi_offset 14, -4
 1444 0002 85B0     		sub	sp, sp, #20
 1445              		.cfi_def_cfa_offset 24
 1446              		.loc 6 164 0
 1447 0004 0B4B     		ldr	r3, .L115
 1448 0006 1B68     		ldr	r3, [r3]
 1449 0008 0393     		str	r3, [sp, #12]
 1450              		.loc 6 166 0
 1451 000a 0B4B     		ldr	r3, .L115+4
 1452 000c 1968     		ldr	r1, [r3]
 1453 000e 0023     		movs	r3, #0
 1454 0010 0093     		str	r3, [sp]
 1455 0012 0A4B     		ldr	r3, .L115+8
 1456 0014 0422     		movs	r2, #4
 1457 0016 0A48     		ldr	r0, .L115+12
 1458 0018 FFF7FEFF 		bl	chOQObjectInit
 1459              		.loc 6 167 0
 1460 001c 00BF     		nop
 1461 001e 054B     		ldr	r3, .L115
 1462 0020 039A     		ldr	r2, [sp, #12]
 1463 0022 1B68     		ldr	r3, [r3]
 1464 0024 9A42     		cmp	r2, r3
 1465 0026 01D0     		beq	.L114
 1466 0028 FFF7FEFF 		bl	__stack_chk_fail
 1467              	.L114:
 1468 002c 05B0     		add	sp, sp, #20
 1469              		.cfi_def_cfa_offset 4
 1470              		@ sp needed
 1471 002e 5DF804FB 		ldr	pc, [sp], #4
 1472              	.L116:
 1473 0032 00BF     		.align	2
 1474              	.L115:
 1475 0034 00000000 		.word	__stack_chk_guard
 1476 0038 00000000 		.word	wa
 1477 003c 00000000 		.word	notify
ARM GAS  C:\Users\PCHAUT~1\AppData\Local\Temp\cczqxKqU.s 			page 27


 1478 0040 00000000 		.word	oq
 1479              		.cfi_endproc
 1480              	.LFE223:
 1481              		.size	queues2_setup, .-queues2_setup
 1482              		.section	.text.thread2,"ax",%progbits
 1483              		.align	1
 1484              		.p2align 4,,15
 1485              		.syntax unified
 1486              		.thumb
 1487              		.thumb_func
 1488              		.fpu fpv4-sp-d16
 1489              		.type	thread2, %function
 1490              	thread2:
 1491              	.LFB224:
 1492              		.loc 6 169 0
 1493              		.cfi_startproc
 1494              		@ args = 0, pretend = 0, frame = 16
 1495              		@ frame_needed = 0, uses_anonymous_args = 0
 1496 0000 00B5     		push	{lr}
 1497              		.cfi_def_cfa_offset 4
 1498              		.cfi_offset 14, -4
 1499 0002 85B0     		sub	sp, sp, #20
 1500              		.cfi_def_cfa_offset 24
 1501 0004 0190     		str	r0, [sp, #4]
 1502              		.loc 6 169 0
 1503 0006 094B     		ldr	r3, .L119
 1504 0008 1B68     		ldr	r3, [r3]
 1505 000a 0393     		str	r3, [sp, #12]
 1506              		.loc 6 172 0
 1507 000c C822     		movs	r2, #200
 1508 000e 0021     		movs	r1, #0
 1509 0010 0748     		ldr	r0, .L119+4
 1510 0012 FFF7FEFF 		bl	chOQPutTimeout
 1511              		.loc 6 173 0
 1512 0016 00BF     		nop
 1513 0018 044B     		ldr	r3, .L119
 1514 001a 039A     		ldr	r2, [sp, #12]
 1515 001c 1B68     		ldr	r3, [r3]
 1516 001e 9A42     		cmp	r2, r3
 1517 0020 01D0     		beq	.L118
 1518 0022 FFF7FEFF 		bl	__stack_chk_fail
 1519              	.L118:
 1520 0026 05B0     		add	sp, sp, #20
 1521              		.cfi_def_cfa_offset 4
 1522              		@ sp needed
 1523 0028 5DF804FB 		ldr	pc, [sp], #4
 1524              	.L120:
 1525              		.align	2
 1526              	.L119:
 1527 002c 00000000 		.word	__stack_chk_guard
 1528 0030 00000000 		.word	oq
 1529              		.cfi_endproc
 1530              	.LFE224:
 1531              		.size	thread2, .-thread2
 1532              		.section	.text.queues2_execute,"ax",%progbits
 1533              		.align	1
 1534              		.p2align 4,,15
ARM GAS  C:\Users\PCHAUT~1\AppData\Local\Temp\cczqxKqU.s 			page 28


 1535              		.syntax unified
 1536              		.thumb
 1537              		.thumb_func
 1538              		.fpu fpv4-sp-d16
 1539              		.type	queues2_execute, %function
 1540              	queues2_execute:
 1541              	.LFB225:
 1542              		.loc 6 175 0
 1543              		.cfi_startproc
 1544              		@ args = 0, pretend = 0, frame = 16
 1545              		@ frame_needed = 0, uses_anonymous_args = 0
 1546 0000 10B5     		push	{r4, lr}
 1547              		.cfi_def_cfa_offset 8
 1548              		.cfi_offset 4, -8
 1549              		.cfi_offset 14, -4
 1550 0002 86B0     		sub	sp, sp, #24
 1551              		.cfi_def_cfa_offset 32
 1552              		.loc 6 175 0
 1553 0004 A84B     		ldr	r3, .L144
 1554 0006 1B68     		ldr	r3, [r3]
 1555 0008 0593     		str	r3, [sp, #20]
 1556              		.loc 6 180 0
 1557 000a FFF7FEFF 		bl	chSysLock
 1558 000e A748     		ldr	r0, .L144+4
 1559 0010 FFF7FEFF 		bl	chOQIsEmptyI
 1560 0014 0346     		mov	r3, r0
 1561 0016 1946     		mov	r1, r3
 1562 0018 0120     		movs	r0, #1
 1563 001a FFF7FEFF 		bl	_test_assert
 1564 001e 0346     		mov	r3, r0
 1565 0020 002B     		cmp	r3, #0
 1566 0022 02D0     		beq	.L122
 1567              		.loc 6 180 0 is_stmt 0 discriminator 1
 1568 0024 FFF7FEFF 		bl	chSysUnlock
 1569 0028 34E1     		b	.L121
 1570              	.L122:
 1571              		.loc 6 180 0 discriminator 2
 1572 002a FFF7FEFF 		bl	chSysUnlock
 1573              		.loc 6 183 0 is_stmt 1 discriminator 2
 1574 002e 0023     		movs	r3, #0
 1575 0030 0393     		str	r3, [sp, #12]
 1576 0032 0AE0     		b	.L124
 1577              	.L125:
 1578              		.loc 6 184 0 discriminator 3
 1579 0034 039B     		ldr	r3, [sp, #12]
 1580 0036 DBB2     		uxtb	r3, r3
 1581 0038 4133     		adds	r3, r3, #65
 1582 003a DBB2     		uxtb	r3, r3
 1583 003c 1946     		mov	r1, r3
 1584 003e 9B48     		ldr	r0, .L144+4
 1585 0040 FFF7FEFF 		bl	chOQPut
 1586              		.loc 6 183 0 discriminator 3
 1587 0044 039B     		ldr	r3, [sp, #12]
 1588 0046 0133     		adds	r3, r3, #1
 1589 0048 0393     		str	r3, [sp, #12]
 1590              	.L124:
 1591              		.loc 6 183 0 is_stmt 0 discriminator 1
ARM GAS  C:\Users\PCHAUT~1\AppData\Local\Temp\cczqxKqU.s 			page 29


 1592 004a 039B     		ldr	r3, [sp, #12]
 1593 004c 032B     		cmp	r3, #3
 1594 004e F1D9     		bls	.L125
 1595              		.loc 6 185 0 is_stmt 1
 1596 0050 FFF7FEFF 		bl	chSysLock
 1597 0054 9548     		ldr	r0, .L144+4
 1598 0056 FFF7FEFF 		bl	chOQIsFullI
 1599 005a 0346     		mov	r3, r0
 1600 005c 1946     		mov	r1, r3
 1601 005e 0220     		movs	r0, #2
 1602 0060 FFF7FEFF 		bl	_test_assert
 1603 0064 0346     		mov	r3, r0
 1604 0066 002B     		cmp	r3, #0
 1605 0068 02D0     		beq	.L126
 1606              		.loc 6 185 0 is_stmt 0 discriminator 1
 1607 006a FFF7FEFF 		bl	chSysUnlock
 1608 006e 11E1     		b	.L121
 1609              	.L126:
 1610              		.loc 6 185 0 discriminator 2
 1611 0070 FFF7FEFF 		bl	chSysUnlock
 1612              		.loc 6 188 0 is_stmt 1 discriminator 2
 1613 0074 0023     		movs	r3, #0
 1614 0076 0393     		str	r3, [sp, #12]
 1615 0078 11E0     		b	.L127
 1616              	.L128:
 1617              	.LBB10:
 1618              		.loc 6 191 0 discriminator 3
 1619 007a FFF7FEFF 		bl	chSysLock
 1620              		.loc 6 192 0 discriminator 3
 1621 007e 8B48     		ldr	r0, .L144+4
 1622 0080 FFF7FEFF 		bl	chOQGetI
 1623 0084 0346     		mov	r3, r0
 1624 0086 8DF80B30 		strb	r3, [sp, #11]
 1625              		.loc 6 193 0 discriminator 3
 1626 008a FFF7FEFF 		bl	chSysUnlock
 1627              		.loc 6 194 0 discriminator 3
 1628 008e 9DF80B30 		ldrb	r3, [sp, #11]	@ zero_extendqisi2
 1629 0092 1846     		mov	r0, r3
 1630 0094 FFF7FEFF 		bl	test_emit_token
 1631              	.LBE10:
 1632              		.loc 6 188 0 discriminator 3
 1633 0098 039B     		ldr	r3, [sp, #12]
 1634 009a 0133     		adds	r3, r3, #1
 1635 009c 0393     		str	r3, [sp, #12]
 1636              	.L127:
 1637              		.loc 6 188 0 is_stmt 0 discriminator 1
 1638 009e 039B     		ldr	r3, [sp, #12]
 1639 00a0 032B     		cmp	r3, #3
 1640 00a2 EAD9     		bls	.L128
 1641              		.loc 6 196 0 is_stmt 1
 1642 00a4 FFF7FEFF 		bl	chSysLock
 1643 00a8 8048     		ldr	r0, .L144+4
 1644 00aa FFF7FEFF 		bl	chOQIsEmptyI
 1645 00ae 0346     		mov	r3, r0
 1646 00b0 1946     		mov	r1, r3
 1647 00b2 0320     		movs	r0, #3
 1648 00b4 FFF7FEFF 		bl	_test_assert
ARM GAS  C:\Users\PCHAUT~1\AppData\Local\Temp\cczqxKqU.s 			page 30


 1649 00b8 0346     		mov	r3, r0
 1650 00ba 002B     		cmp	r3, #0
 1651 00bc 02D0     		beq	.L129
 1652              		.loc 6 196 0 is_stmt 0 discriminator 1
 1653 00be FFF7FEFF 		bl	chSysUnlock
 1654 00c2 E7E0     		b	.L121
 1655              	.L129:
 1656              		.loc 6 196 0 discriminator 2
 1657 00c4 FFF7FEFF 		bl	chSysUnlock
 1658              		.loc 6 197 0 is_stmt 1 discriminator 2
 1659 00c8 7949     		ldr	r1, .L144+8
 1660 00ca 0420     		movs	r0, #4
 1661 00cc FFF7FEFF 		bl	_test_assert_sequence
 1662 00d0 0346     		mov	r3, r0
 1663 00d2 002B     		cmp	r3, #0
 1664 00d4 40F0D780 		bne	.L140
 1665              		.loc 6 198 0
 1666 00d8 FFF7FEFF 		bl	chSysLock
 1667 00dc 7348     		ldr	r0, .L144+4
 1668 00de FFF7FEFF 		bl	chOQGetI
 1669 00e2 0346     		mov	r3, r0
 1670 00e4 13F1030F 		cmn	r3, #3
 1671 00e8 0CBF     		ite	eq
 1672 00ea 0123     		moveq	r3, #1
 1673 00ec 0023     		movne	r3, #0
 1674 00ee DBB2     		uxtb	r3, r3
 1675 00f0 1946     		mov	r1, r3
 1676 00f2 0520     		movs	r0, #5
 1677 00f4 FFF7FEFF 		bl	_test_assert
 1678 00f8 0346     		mov	r3, r0
 1679 00fa 002B     		cmp	r3, #0
 1680 00fc 02D0     		beq	.L131
 1681              		.loc 6 198 0 is_stmt 0 discriminator 1
 1682 00fe FFF7FEFF 		bl	chSysUnlock
 1683 0102 C7E0     		b	.L121
 1684              	.L131:
 1685              		.loc 6 198 0 discriminator 2
 1686 0104 FFF7FEFF 		bl	chSysUnlock
 1687              		.loc 6 201 0 is_stmt 1 discriminator 2
 1688 0108 6A4B     		ldr	r3, .L144+12
 1689 010a 5968     		ldr	r1, [r3, #4]
 1690 010c 0023     		movs	r3, #0
 1691 010e 0822     		movs	r2, #8
 1692 0110 6648     		ldr	r0, .L144+4
 1693 0112 FFF7FEFF 		bl	chOQWriteTimeout
 1694 0116 0490     		str	r0, [sp, #16]
 1695              		.loc 6 202 0 discriminator 2
 1696 0118 049B     		ldr	r3, [sp, #16]
 1697 011a 042B     		cmp	r3, #4
 1698 011c 0CBF     		ite	eq
 1699 011e 0123     		moveq	r3, #1
 1700 0120 0023     		movne	r3, #0
 1701 0122 DBB2     		uxtb	r3, r3
 1702 0124 1946     		mov	r1, r3
 1703 0126 0620     		movs	r0, #6
 1704 0128 FFF7FEFF 		bl	_test_assert
 1705 012c 0346     		mov	r3, r0
ARM GAS  C:\Users\PCHAUT~1\AppData\Local\Temp\cczqxKqU.s 			page 31


 1706 012e 002B     		cmp	r3, #0
 1707 0130 40F0AB80 		bne	.L141
 1708              		.loc 6 203 0
 1709 0134 FFF7FEFF 		bl	chSysLock
 1710 0138 5C48     		ldr	r0, .L144+4
 1711 013a FFF7FEFF 		bl	chOQIsFullI
 1712 013e 0346     		mov	r3, r0
 1713 0140 1946     		mov	r1, r3
 1714 0142 0720     		movs	r0, #7
 1715 0144 FFF7FEFF 		bl	_test_assert
 1716 0148 0346     		mov	r3, r0
 1717 014a 002B     		cmp	r3, #0
 1718 014c 02D0     		beq	.L133
 1719              		.loc 6 203 0 is_stmt 0 discriminator 1
 1720 014e FFF7FEFF 		bl	chSysUnlock
 1721 0152 9FE0     		b	.L121
 1722              	.L133:
 1723              		.loc 6 203 0 discriminator 2
 1724 0154 FFF7FEFF 		bl	chSysUnlock
 1725              		.loc 6 204 0 is_stmt 1 discriminator 2
 1726 0158 564B     		ldr	r3, .L144+12
 1727 015a 1C68     		ldr	r4, [r3]
 1728 015c FFF7FEFF 		bl	chThdGetPriorityX
 1729 0160 0346     		mov	r3, r0
 1730 0162 5A1C     		adds	r2, r3, #1
 1731 0164 0023     		movs	r3, #0
 1732 0166 0093     		str	r3, [sp]
 1733 0168 534B     		ldr	r3, .L144+16
 1734 016a 4FF4FC71 		mov	r1, #504
 1735 016e 2046     		mov	r0, r4
 1736 0170 FFF7FEFF 		bl	chThdCreateStatic
 1737 0174 0246     		mov	r2, r0
 1738 0176 514B     		ldr	r3, .L144+20
 1739 0178 1A60     		str	r2, [r3]
 1740              		.loc 6 205 0 discriminator 2
 1741 017a FFF7FEFF 		bl	chSysLock
 1742 017e 4B48     		ldr	r0, .L144+4
 1743 0180 FFF7FEFF 		bl	chOQGetFullI
 1744 0184 0346     		mov	r3, r0
 1745 0186 042B     		cmp	r3, #4
 1746 0188 0CBF     		ite	eq
 1747 018a 0123     		moveq	r3, #1
 1748 018c 0023     		movne	r3, #0
 1749 018e DBB2     		uxtb	r3, r3
 1750 0190 1946     		mov	r1, r3
 1751 0192 0820     		movs	r0, #8
 1752 0194 FFF7FEFF 		bl	_test_assert
 1753 0198 0346     		mov	r3, r0
 1754 019a 002B     		cmp	r3, #0
 1755 019c 02D0     		beq	.L134
 1756              		.loc 6 205 0 is_stmt 0 discriminator 1
 1757 019e FFF7FEFF 		bl	chSysUnlock
 1758 01a2 77E0     		b	.L121
 1759              	.L134:
 1760              		.loc 6 205 0 discriminator 2
 1761 01a4 FFF7FEFF 		bl	chSysUnlock
 1762              		.loc 6 206 0 is_stmt 1 discriminator 2
ARM GAS  C:\Users\PCHAUT~1\AppData\Local\Temp\cczqxKqU.s 			page 32


 1763 01a8 FFF7FEFF 		bl	test_wait_threads
 1764              		.loc 6 209 0 discriminator 2
 1765 01ac FFF7FEFF 		bl	chSysLock
 1766              		.loc 6 210 0 discriminator 2
 1767 01b0 3E48     		ldr	r0, .L144+4
 1768 01b2 FFF7FEFF 		bl	chOQResetI
 1769              		.loc 6 211 0 discriminator 2
 1770 01b6 FFF7FEFF 		bl	chSysUnlock
 1771              		.loc 6 212 0 discriminator 2
 1772 01ba FFF7FEFF 		bl	chSysLock
 1773 01be 3B48     		ldr	r0, .L144+4
 1774 01c0 FFF7FEFF 		bl	chOQGetFullI
 1775 01c4 0346     		mov	r3, r0
 1776 01c6 002B     		cmp	r3, #0
 1777 01c8 0CBF     		ite	eq
 1778 01ca 0123     		moveq	r3, #1
 1779 01cc 0023     		movne	r3, #0
 1780 01ce DBB2     		uxtb	r3, r3
 1781 01d0 1946     		mov	r1, r3
 1782 01d2 0920     		movs	r0, #9
 1783 01d4 FFF7FEFF 		bl	_test_assert
 1784 01d8 0346     		mov	r3, r0
 1785 01da 002B     		cmp	r3, #0
 1786 01dc 02D0     		beq	.L135
 1787              		.loc 6 212 0 is_stmt 0 discriminator 1
 1788 01de FFF7FEFF 		bl	chSysUnlock
 1789 01e2 57E0     		b	.L121
 1790              	.L135:
 1791              		.loc 6 212 0 discriminator 2
 1792 01e4 FFF7FEFF 		bl	chSysUnlock
 1793              		.loc 6 215 0 is_stmt 1 discriminator 2
 1794 01e8 324B     		ldr	r3, .L144+12
 1795 01ea 5968     		ldr	r1, [r3, #4]
 1796 01ec 0023     		movs	r3, #0
 1797 01ee 0222     		movs	r2, #2
 1798 01f0 2E48     		ldr	r0, .L144+4
 1799 01f2 FFF7FEFF 		bl	chOQWriteTimeout
 1800 01f6 0490     		str	r0, [sp, #16]
 1801              		.loc 6 216 0 discriminator 2
 1802 01f8 049B     		ldr	r3, [sp, #16]
 1803 01fa 022B     		cmp	r3, #2
 1804 01fc 0CBF     		ite	eq
 1805 01fe 0123     		moveq	r3, #1
 1806 0200 0023     		movne	r3, #0
 1807 0202 DBB2     		uxtb	r3, r3
 1808 0204 1946     		mov	r1, r3
 1809 0206 0A20     		movs	r0, #10
 1810 0208 FFF7FEFF 		bl	_test_assert
 1811 020c 0346     		mov	r3, r0
 1812 020e 002B     		cmp	r3, #0
 1813 0210 3DD1     		bne	.L142
 1814              		.loc 6 217 0
 1815 0212 284B     		ldr	r3, .L144+12
 1816 0214 5968     		ldr	r1, [r3, #4]
 1817 0216 0023     		movs	r3, #0
 1818 0218 0222     		movs	r2, #2
 1819 021a 2448     		ldr	r0, .L144+4
ARM GAS  C:\Users\PCHAUT~1\AppData\Local\Temp\cczqxKqU.s 			page 33


 1820 021c FFF7FEFF 		bl	chOQWriteTimeout
 1821 0220 0490     		str	r0, [sp, #16]
 1822              		.loc 6 218 0
 1823 0222 049B     		ldr	r3, [sp, #16]
 1824 0224 022B     		cmp	r3, #2
 1825 0226 0CBF     		ite	eq
 1826 0228 0123     		moveq	r3, #1
 1827 022a 0023     		movne	r3, #0
 1828 022c DBB2     		uxtb	r3, r3
 1829 022e 1946     		mov	r1, r3
 1830 0230 0B20     		movs	r0, #11
 1831 0232 FFF7FEFF 		bl	_test_assert
 1832 0236 0346     		mov	r3, r0
 1833 0238 002B     		cmp	r3, #0
 1834 023a 2AD1     		bne	.L143
 1835              		.loc 6 219 0
 1836 023c FFF7FEFF 		bl	chSysLock
 1837 0240 1A48     		ldr	r0, .L144+4
 1838 0242 FFF7FEFF 		bl	chOQIsFullI
 1839 0246 0346     		mov	r3, r0
 1840 0248 1946     		mov	r1, r3
 1841 024a 0C20     		movs	r0, #12
 1842 024c FFF7FEFF 		bl	_test_assert
 1843 0250 0346     		mov	r3, r0
 1844 0252 002B     		cmp	r3, #0
 1845 0254 02D0     		beq	.L138
 1846              		.loc 6 219 0 is_stmt 0 discriminator 1
 1847 0256 FFF7FEFF 		bl	chSysUnlock
 1848 025a 1BE0     		b	.L121
 1849              	.L138:
 1850              		.loc 6 219 0 discriminator 2
 1851 025c FFF7FEFF 		bl	chSysUnlock
 1852              		.loc 6 222 0 is_stmt 1 discriminator 2
 1853 0260 0A22     		movs	r2, #10
 1854 0262 0021     		movs	r1, #0
 1855 0264 1148     		ldr	r0, .L144+4
 1856 0266 FFF7FEFF 		bl	chOQPutTimeout
 1857 026a 0346     		mov	r3, r0
 1858 026c B3F1FF3F 		cmp	r3, #-1
 1859 0270 0CBF     		ite	eq
 1860 0272 0123     		moveq	r3, #1
 1861 0274 0023     		movne	r3, #0
 1862 0276 DBB2     		uxtb	r3, r3
 1863 0278 1946     		mov	r1, r3
 1864 027a 0D20     		movs	r0, #13
 1865 027c FFF7FEFF 		bl	_test_assert
 1866 0280 0346     		mov	r3, r0
 1867 0282 002B     		cmp	r3, #0
 1868 0284 06E0     		b	.L121
 1869              	.L140:
 1870              		.loc 6 197 0
 1871 0286 00BF     		nop
 1872 0288 04E0     		b	.L121
 1873              	.L141:
 1874              		.loc 6 202 0
 1875 028a 00BF     		nop
 1876 028c 02E0     		b	.L121
ARM GAS  C:\Users\PCHAUT~1\AppData\Local\Temp\cczqxKqU.s 			page 34


 1877              	.L142:
 1878              		.loc 6 216 0
 1879 028e 00BF     		nop
 1880 0290 00E0     		b	.L121
 1881              	.L143:
 1882              		.loc 6 218 0
 1883 0292 00BF     		nop
 1884              	.L121:
 1885              		.loc 6 223 0
 1886 0294 044B     		ldr	r3, .L144
 1887 0296 059A     		ldr	r2, [sp, #20]
 1888 0298 1B68     		ldr	r3, [r3]
 1889 029a 9A42     		cmp	r2, r3
 1890 029c 01D0     		beq	.L139
 1891 029e FFF7FEFF 		bl	__stack_chk_fail
 1892              	.L139:
 1893 02a2 06B0     		add	sp, sp, #24
 1894              		.cfi_def_cfa_offset 8
 1895              		@ sp needed
 1896 02a4 10BD     		pop	{r4, pc}
 1897              	.L145:
 1898 02a6 00BF     		.align	2
 1899              	.L144:
 1900 02a8 00000000 		.word	__stack_chk_guard
 1901 02ac 00000000 		.word	oq
 1902 02b0 00000000 		.word	.LC0
 1903 02b4 00000000 		.word	wa
 1904 02b8 00000000 		.word	thread2
 1905 02bc 00000000 		.word	threads
 1906              		.cfi_endproc
 1907              	.LFE225:
 1908              		.size	queues2_execute, .-queues2_execute
 1909              		.global	testqueues2
 1910              		.section	.rodata
 1911 001d 000000   		.align	2
 1912              	.LC2:
 1913 0020 51756575 		.ascii	"Queues, output queues\000"
 1913      65732C20 
 1913      6F757470 
 1913      75742071 
 1913      75657565 
 1914              		.section	.rodata.testqueues2,"a",%progbits
 1915              		.align	2
 1916              		.type	testqueues2, %object
 1917              		.size	testqueues2, 16
 1918              	testqueues2:
 1919 0000 20000000 		.word	.LC2
 1920 0004 00000000 		.word	queues2_setup
 1921 0008 00000000 		.word	0
 1922 000c 00000000 		.word	queues2_execute
 1923              		.global	patternqueues
 1924              		.section	.rodata.patternqueues,"a",%progbits
 1925              		.align	2
 1926              		.type	patternqueues, %object
 1927              		.size	patternqueues, 12
 1928              	patternqueues:
 1929 0000 00000000 		.word	testqueues1
ARM GAS  C:\Users\PCHAUT~1\AppData\Local\Temp\cczqxKqU.s 			page 35


 1930 0004 00000000 		.word	testqueues2
 1931 0008 00000000 		.word	0
 1932              		.section	.rodata.__func__.7153,"a",%progbits
 1933              		.align	2
 1934              		.type	__func__.7153, %object
 1935              		.size	__func__.7153, 12
 1936              	__func__.7153:
 1937 0000 63685379 		.ascii	"chSysUnlock\000"
 1937      73556E6C 
 1937      6F636B00 
 1938              		.text
 1939              	.Letext0:
 1940              		.file 7 "c:\\users\\pchautems\\documents\\robotiquetp\\eclipse_e-puck2\\tools\\gcc-arm-none-eabi-7
 1941              		.file 8 "c:\\users\\pchautems\\documents\\robotiquetp\\eclipse_e-puck2\\tools\\gcc-arm-none-eabi-7
 1942              		.file 9 "c:\\users\\pchautems\\documents\\robotiquetp\\eclipse_e-puck2\\tools\\gcc-arm-none-eabi-7
 1943              		.file 10 "../lib/e-puck2_main-processor/ChibiOS//os/rt/ports/ARMCMx/compilers/GCC/chtypes.h"
 1944              		.file 11 "../lib/e-puck2_main-processor/ChibiOS//os/rt/include/chsystypes.h"
 1945              		.file 12 "../lib/e-puck2_main-processor/ChibiOS//os/rt/include/chschd.h"
 1946              		.file 13 "../lib/e-puck2_main-processor/ChibiOS//os/ext/CMSIS/include/core_cm4.h"
 1947              		.file 14 "../lib/e-puck2_main-processor/ChibiOS//os/ext/CMSIS/ST/system_stm32f4xx.h"
 1948              		.file 15 "../lib/e-puck2_main-processor/ChibiOS//os/rt/ports/ARMCMx/chcore.h"
 1949              		.file 16 "../lib/e-puck2_main-processor/ChibiOS//os/rt/include/chdebug.h"
 1950              		.file 17 "../lib/e-puck2_main-processor/ChibiOS//os/rt/include/chtm.h"
 1951              		.file 18 "../lib/e-puck2_main-processor/ChibiOS//os/rt/include/chstats.h"
 1952              		.file 19 "../lib/e-puck2_main-processor/ChibiOS//os/rt/include/chsem.h"
 1953              		.file 20 "../lib/e-puck2_main-processor/ChibiOS//os/rt/include/chmtx.h"
 1954              		.file 21 "../lib/e-puck2_main-processor/ChibiOS//os/rt/include/chregistry.h"
 1955              		.file 22 "../lib/e-puck2_main-processor/ChibiOS//test/rt/test.h"