ARM GAS  C:\Users\PCHAUT~1\AppData\Local\Temp\ccAxDce6.s 			page 1


   1              		.cpu cortex-m4
   2              		.eabi_attribute 27, 1
   3              		.eabi_attribute 28, 1
   4              		.eabi_attribute 20, 1
   5              		.eabi_attribute 21, 1
   6              		.eabi_attribute 23, 3
   7              		.eabi_attribute 24, 1
   8              		.eabi_attribute 25, 1
   9              		.eabi_attribute 26, 1
  10              		.eabi_attribute 30, 6
  11              		.eabi_attribute 34, 1
  12              		.eabi_attribute 18, 4
  13              		.file	"testevt.c"
  14              		.text
  15              	.Ltext0:
  16              		.cfi_sections	.debug_frame
  17              		.section	.text.port_lock,"ax",%progbits
  18              		.align	1
  19              		.p2align 4,,15
  20              		.syntax unified
  21              		.thumb
  22              		.thumb_func
  23              		.fpu fpv4-sp-d16
  24              		.type	port_lock, %function
  25              	port_lock:
  26              	.LFB116:
  27              		.file 1 "../lib/e-puck2_main-processor/ChibiOS//os/rt/ports/ARMCMx/chcore_v7m.h"
  28              		.loc 1 444 0
  29              		.cfi_startproc
  30              		@ args = 0, pretend = 0, frame = 8
  31              		@ frame_needed = 0, uses_anonymous_args = 0
  32 0000 00B5     		push	{lr}
  33              		.cfi_def_cfa_offset 4
  34              		.cfi_offset 14, -4
  35 0002 83B0     		sub	sp, sp, #12
  36              		.cfi_def_cfa_offset 16
  37              		.loc 1 444 0
  38 0004 094B     		ldr	r3, .L3
  39 0006 1B68     		ldr	r3, [r3]
  40 0008 0193     		str	r3, [sp, #4]
  41 000a 2023     		movs	r3, #32
  42 000c 0093     		str	r3, [sp]
  43              	.LBB6:
  44              	.LBB7:
  45              		.file 2 "../lib/e-puck2_main-processor/ChibiOS//os/ext/CMSIS/include/core_cmFunc.h"
  46              		.loc 2 546 0
  47 000e 009B     		ldr	r3, [sp]
  48              		.syntax unified
  49              	@ 546 "../lib/e-puck2_main-processor/ChibiOS//os/ext/CMSIS/include/core_cmFunc.h" 1
  50 0010 83F31188 		MSR basepri, r3
  51              	@ 0 "" 2
  52              		.thumb
  53              		.syntax unified
  54              	.LBE7:
  55              	.LBE6:
  56              		.loc 1 451 0
  57 0014 00BF     		nop
ARM GAS  C:\Users\PCHAUT~1\AppData\Local\Temp\ccAxDce6.s 			page 2


  58 0016 054B     		ldr	r3, .L3
  59 0018 019A     		ldr	r2, [sp, #4]
  60 001a 1B68     		ldr	r3, [r3]
  61 001c 9A42     		cmp	r2, r3
  62 001e 01D0     		beq	.L2
  63 0020 FFF7FEFF 		bl	__stack_chk_fail
  64              	.L2:
  65 0024 03B0     		add	sp, sp, #12
  66              		.cfi_def_cfa_offset 4
  67              		@ sp needed
  68 0026 5DF804FB 		ldr	pc, [sp], #4
  69              	.L4:
  70 002a 00BF     		.align	2
  71              	.L3:
  72 002c 00000000 		.word	__stack_chk_guard
  73              		.cfi_endproc
  74              	.LFE116:
  75              		.size	port_lock, .-port_lock
  76              		.section	.text.port_unlock,"ax",%progbits
  77              		.align	1
  78              		.p2align 4,,15
  79              		.syntax unified
  80              		.thumb
  81              		.thumb_func
  82              		.fpu fpv4-sp-d16
  83              		.type	port_unlock, %function
  84              	port_unlock:
  85              	.LFB117:
  86              		.loc 1 458 0
  87              		.cfi_startproc
  88              		@ args = 0, pretend = 0, frame = 8
  89              		@ frame_needed = 0, uses_anonymous_args = 0
  90 0000 00B5     		push	{lr}
  91              		.cfi_def_cfa_offset 4
  92              		.cfi_offset 14, -4
  93 0002 83B0     		sub	sp, sp, #12
  94              		.cfi_def_cfa_offset 16
  95              		.loc 1 458 0
  96 0004 094B     		ldr	r3, .L7
  97 0006 1B68     		ldr	r3, [r3]
  98 0008 0193     		str	r3, [sp, #4]
  99 000a 0023     		movs	r3, #0
 100 000c 0093     		str	r3, [sp]
 101              	.LBB8:
 102              	.LBB9:
 103              		.loc 2 546 0
 104 000e 009B     		ldr	r3, [sp]
 105              		.syntax unified
 106              	@ 546 "../lib/e-puck2_main-processor/ChibiOS//os/ext/CMSIS/include/core_cmFunc.h" 1
 107 0010 83F31188 		MSR basepri, r3
 108              	@ 0 "" 2
 109              		.thumb
 110              		.syntax unified
 111              	.LBE9:
 112              	.LBE8:
 113              		.loc 1 465 0
 114 0014 00BF     		nop
ARM GAS  C:\Users\PCHAUT~1\AppData\Local\Temp\ccAxDce6.s 			page 3


 115 0016 054B     		ldr	r3, .L7
 116 0018 019A     		ldr	r2, [sp, #4]
 117 001a 1B68     		ldr	r3, [r3]
 118 001c 9A42     		cmp	r2, r3
 119 001e 01D0     		beq	.L6
 120 0020 FFF7FEFF 		bl	__stack_chk_fail
 121              	.L6:
 122 0024 03B0     		add	sp, sp, #12
 123              		.cfi_def_cfa_offset 4
 124              		@ sp needed
 125 0026 5DF804FB 		ldr	pc, [sp], #4
 126              	.L8:
 127 002a 00BF     		.align	2
 128              	.L7:
 129 002c 00000000 		.word	__stack_chk_guard
 130              		.cfi_endproc
 131              	.LFE117:
 132              		.size	port_unlock, .-port_unlock
 133              		.section	.text.chSysLock,"ax",%progbits
 134              		.align	1
 135              		.p2align 4,,15
 136              		.syntax unified
 137              		.thumb
 138              		.thumb_func
 139              		.fpu fpv4-sp-d16
 140              		.type	chSysLock, %function
 141              	chSysLock:
 142              	.LFB145:
 143              		.file 3 "../lib/e-puck2_main-processor/ChibiOS//os/rt/include/chsys.h"
 144              		.loc 3 346 0
 145              		.cfi_startproc
 146              		@ args = 0, pretend = 0, frame = 8
 147              		@ frame_needed = 0, uses_anonymous_args = 0
 148 0000 00B5     		push	{lr}
 149              		.cfi_def_cfa_offset 4
 150              		.cfi_offset 14, -4
 151 0002 83B0     		sub	sp, sp, #12
 152              		.cfi_def_cfa_offset 16
 153              		.loc 3 346 0
 154 0004 094B     		ldr	r3, .L11
 155 0006 1B68     		ldr	r3, [r3]
 156 0008 0193     		str	r3, [sp, #4]
 157              		.loc 3 348 0
 158 000a FFF7FEFF 		bl	port_lock
 159              		.loc 3 349 0
 160 000e FFF7FEFF 		bl	_stats_start_measure_crit_thd
 161              		.loc 3 350 0
 162 0012 FFF7FEFF 		bl	_dbg_check_lock
 163              		.loc 3 351 0
 164 0016 00BF     		nop
 165 0018 044B     		ldr	r3, .L11
 166 001a 019A     		ldr	r2, [sp, #4]
 167 001c 1B68     		ldr	r3, [r3]
 168 001e 9A42     		cmp	r2, r3
 169 0020 01D0     		beq	.L10
 170 0022 FFF7FEFF 		bl	__stack_chk_fail
 171              	.L10:
ARM GAS  C:\Users\PCHAUT~1\AppData\Local\Temp\ccAxDce6.s 			page 4


 172 0026 03B0     		add	sp, sp, #12
 173              		.cfi_def_cfa_offset 4
 174              		@ sp needed
 175 0028 5DF804FB 		ldr	pc, [sp], #4
 176              	.L12:
 177              		.align	2
 178              	.L11:
 179 002c 00000000 		.word	__stack_chk_guard
 180              		.cfi_endproc
 181              	.LFE145:
 182              		.size	chSysLock, .-chSysLock
 183              		.section	.text.chSysUnlock,"ax",%progbits
 184              		.align	1
 185              		.p2align 4,,15
 186              		.syntax unified
 187              		.thumb
 188              		.thumb_func
 189              		.fpu fpv4-sp-d16
 190              		.type	chSysUnlock, %function
 191              	chSysUnlock:
 192              	.LFB146:
 193              		.loc 3 358 0
 194              		.cfi_startproc
 195              		@ args = 0, pretend = 0, frame = 8
 196              		@ frame_needed = 0, uses_anonymous_args = 0
 197 0000 00B5     		push	{lr}
 198              		.cfi_def_cfa_offset 4
 199              		.cfi_offset 14, -4
 200 0002 83B0     		sub	sp, sp, #12
 201              		.cfi_def_cfa_offset 16
 202              		.loc 3 358 0
 203 0004 114B     		ldr	r3, .L16
 204 0006 1B68     		ldr	r3, [r3]
 205 0008 0193     		str	r3, [sp, #4]
 206              		.loc 3 360 0
 207 000a FFF7FEFF 		bl	_dbg_check_unlock
 208              		.loc 3 361 0
 209 000e FFF7FEFF 		bl	_stats_stop_measure_crit_thd
 210              		.loc 3 367 0
 211 0012 0F4B     		ldr	r3, .L16+4
 212 0014 1B68     		ldr	r3, [r3]
 213 0016 0E4A     		ldr	r2, .L16+4
 214 0018 9342     		cmp	r3, r2
 215 001a 0AD0     		beq	.L14
 216              		.loc 3 367 0 is_stmt 0 discriminator 2
 217 001c 0C4B     		ldr	r3, .L16+4
 218 001e 9B69     		ldr	r3, [r3, #24]
 219 0020 9A68     		ldr	r2, [r3, #8]
 220 0022 0B4B     		ldr	r3, .L16+4
 221 0024 1B68     		ldr	r3, [r3]
 222 0026 9B68     		ldr	r3, [r3, #8]
 223 0028 9A42     		cmp	r2, r3
 224 002a 02D2     		bcs	.L14
 225              		.loc 3 367 0 discriminator 3
 226 002c 0948     		ldr	r0, .L16+8
 227 002e FFF7FEFF 		bl	chSysHalt
 228              	.L14:
ARM GAS  C:\Users\PCHAUT~1\AppData\Local\Temp\ccAxDce6.s 			page 5


 229              		.loc 3 371 0 is_stmt 1
 230 0032 FFF7FEFF 		bl	port_unlock
 231              		.loc 3 372 0
 232 0036 00BF     		nop
 233 0038 044B     		ldr	r3, .L16
 234 003a 019A     		ldr	r2, [sp, #4]
 235 003c 1B68     		ldr	r3, [r3]
 236 003e 9A42     		cmp	r2, r3
 237 0040 01D0     		beq	.L15
 238 0042 FFF7FEFF 		bl	__stack_chk_fail
 239              	.L15:
 240 0046 03B0     		add	sp, sp, #12
 241              		.cfi_def_cfa_offset 4
 242              		@ sp needed
 243 0048 5DF804FB 		ldr	pc, [sp], #4
 244              	.L17:
 245              		.align	2
 246              	.L16:
 247 004c 00000000 		.word	__stack_chk_guard
 248 0050 00000000 		.word	ch
 249 0054 00000000 		.word	__func__.7153
 250              		.cfi_endproc
 251              	.LFE146:
 252              		.size	chSysUnlock, .-chSysUnlock
 253              		.section	.text.chVTGetSystemTimeX,"ax",%progbits
 254              		.align	1
 255              		.p2align 4,,15
 256              		.syntax unified
 257              		.thumb
 258              		.thumb_func
 259              		.fpu fpv4-sp-d16
 260              		.type	chVTGetSystemTimeX, %function
 261              	chVTGetSystemTimeX:
 262              	.LFB153:
 263              		.file 4 "../lib/e-puck2_main-processor/ChibiOS//os/rt/include/chvt.h"
 264              		.loc 4 228 0
 265              		.cfi_startproc
 266              		@ args = 0, pretend = 0, frame = 8
 267              		@ frame_needed = 0, uses_anonymous_args = 0
 268 0000 00B5     		push	{lr}
 269              		.cfi_def_cfa_offset 4
 270              		.cfi_offset 14, -4
 271 0002 83B0     		sub	sp, sp, #12
 272              		.cfi_def_cfa_offset 16
 273              		.loc 4 228 0
 274 0004 074B     		ldr	r3, .L21
 275 0006 1B68     		ldr	r3, [r3]
 276 0008 0193     		str	r3, [sp, #4]
 277              		.loc 4 231 0
 278 000a 074B     		ldr	r3, .L21+4
 279 000c 9B6A     		ldr	r3, [r3, #40]
 280              		.loc 4 235 0
 281 000e 1846     		mov	r0, r3
 282 0010 044B     		ldr	r3, .L21
 283 0012 019A     		ldr	r2, [sp, #4]
 284 0014 1B68     		ldr	r3, [r3]
 285 0016 9A42     		cmp	r2, r3
ARM GAS  C:\Users\PCHAUT~1\AppData\Local\Temp\ccAxDce6.s 			page 6


 286 0018 01D0     		beq	.L20
 287 001a FFF7FEFF 		bl	__stack_chk_fail
 288              	.L20:
 289 001e 03B0     		add	sp, sp, #12
 290              		.cfi_def_cfa_offset 4
 291              		@ sp needed
 292 0020 5DF804FB 		ldr	pc, [sp], #4
 293              	.L22:
 294              		.align	2
 295              	.L21:
 296 0024 00000000 		.word	__stack_chk_guard
 297 0028 00000000 		.word	ch
 298              		.cfi_endproc
 299              	.LFE153:
 300              		.size	chVTGetSystemTimeX, .-chVTGetSystemTimeX
 301              		.section	.text.chVTGetSystemTime,"ax",%progbits
 302              		.align	1
 303              		.p2align 4,,15
 304              		.syntax unified
 305              		.thumb
 306              		.thumb_func
 307              		.fpu fpv4-sp-d16
 308              		.type	chVTGetSystemTime, %function
 309              	chVTGetSystemTime:
 310              	.LFB154:
 311              		.loc 4 247 0
 312              		.cfi_startproc
 313              		@ args = 0, pretend = 0, frame = 8
 314              		@ frame_needed = 0, uses_anonymous_args = 0
 315 0000 00B5     		push	{lr}
 316              		.cfi_def_cfa_offset 4
 317              		.cfi_offset 14, -4
 318 0002 83B0     		sub	sp, sp, #12
 319              		.cfi_def_cfa_offset 16
 320              		.loc 4 247 0
 321 0004 0A4B     		ldr	r3, .L26
 322 0006 1B68     		ldr	r3, [r3]
 323 0008 0193     		str	r3, [sp, #4]
 324              		.loc 4 250 0
 325 000a FFF7FEFF 		bl	chSysLock
 326              		.loc 4 251 0
 327 000e FFF7FEFF 		bl	chVTGetSystemTimeX
 328 0012 0090     		str	r0, [sp]
 329              		.loc 4 252 0
 330 0014 FFF7FEFF 		bl	chSysUnlock
 331              		.loc 4 254 0
 332 0018 009B     		ldr	r3, [sp]
 333              		.loc 4 255 0
 334 001a 1846     		mov	r0, r3
 335 001c 044B     		ldr	r3, .L26
 336 001e 019A     		ldr	r2, [sp, #4]
 337 0020 1B68     		ldr	r3, [r3]
 338 0022 9A42     		cmp	r2, r3
 339 0024 01D0     		beq	.L25
 340 0026 FFF7FEFF 		bl	__stack_chk_fail
 341              	.L25:
 342 002a 03B0     		add	sp, sp, #12
ARM GAS  C:\Users\PCHAUT~1\AppData\Local\Temp\ccAxDce6.s 			page 7


 343              		.cfi_def_cfa_offset 4
 344              		@ sp needed
 345 002c 5DF804FB 		ldr	pc, [sp], #4
 346              	.L27:
 347              		.align	2
 348              	.L26:
 349 0030 00000000 		.word	__stack_chk_guard
 350              		.cfi_endproc
 351              	.LFE154:
 352              		.size	chVTGetSystemTime, .-chVTGetSystemTime
 353              		.section	.text.chThdGetSelfX,"ax",%progbits
 354              		.align	1
 355              		.p2align 4,,15
 356              		.syntax unified
 357              		.thumb
 358              		.thumb_func
 359              		.fpu fpv4-sp-d16
 360              		.type	chThdGetSelfX, %function
 361              	chThdGetSelfX:
 362              	.LFB166:
 363              		.file 5 "../lib/e-puck2_main-processor/ChibiOS//os/rt/include/chthreads.h"
 364              		.loc 5 174 0
 365              		.cfi_startproc
 366              		@ args = 0, pretend = 0, frame = 8
 367              		@ frame_needed = 0, uses_anonymous_args = 0
 368 0000 00B5     		push	{lr}
 369              		.cfi_def_cfa_offset 4
 370              		.cfi_offset 14, -4
 371 0002 83B0     		sub	sp, sp, #12
 372              		.cfi_def_cfa_offset 16
 373              		.loc 5 174 0
 374 0004 074B     		ldr	r3, .L31
 375 0006 1B68     		ldr	r3, [r3]
 376 0008 0193     		str	r3, [sp, #4]
 377              		.loc 5 176 0
 378 000a 074B     		ldr	r3, .L31+4
 379 000c 9B69     		ldr	r3, [r3, #24]
 380              		.loc 5 177 0
 381 000e 1846     		mov	r0, r3
 382 0010 044B     		ldr	r3, .L31
 383 0012 019A     		ldr	r2, [sp, #4]
 384 0014 1B68     		ldr	r3, [r3]
 385 0016 9A42     		cmp	r2, r3
 386 0018 01D0     		beq	.L30
 387 001a FFF7FEFF 		bl	__stack_chk_fail
 388              	.L30:
 389 001e 03B0     		add	sp, sp, #12
 390              		.cfi_def_cfa_offset 4
 391              		@ sp needed
 392 0020 5DF804FB 		ldr	pc, [sp], #4
 393              	.L32:
 394              		.align	2
 395              	.L31:
 396 0024 00000000 		.word	__stack_chk_guard
 397 0028 00000000 		.word	ch
 398              		.cfi_endproc
 399              	.LFE166:
ARM GAS  C:\Users\PCHAUT~1\AppData\Local\Temp\ccAxDce6.s 			page 8


 400              		.size	chThdGetSelfX, .-chThdGetSelfX
 401              		.section	.text.chThdGetPriorityX,"ax",%progbits
 402              		.align	1
 403              		.p2align 4,,15
 404              		.syntax unified
 405              		.thumb
 406              		.thumb_func
 407              		.fpu fpv4-sp-d16
 408              		.type	chThdGetPriorityX, %function
 409              	chThdGetPriorityX:
 410              	.LFB167:
 411              		.loc 5 187 0
 412              		.cfi_startproc
 413              		@ args = 0, pretend = 0, frame = 8
 414              		@ frame_needed = 0, uses_anonymous_args = 0
 415 0000 00B5     		push	{lr}
 416              		.cfi_def_cfa_offset 4
 417              		.cfi_offset 14, -4
 418 0002 83B0     		sub	sp, sp, #12
 419              		.cfi_def_cfa_offset 16
 420              		.loc 5 187 0
 421 0004 084B     		ldr	r3, .L36
 422 0006 1B68     		ldr	r3, [r3]
 423 0008 0193     		str	r3, [sp, #4]
 424              		.loc 5 189 0
 425 000a FFF7FEFF 		bl	chThdGetSelfX
 426 000e 0346     		mov	r3, r0
 427 0010 9B68     		ldr	r3, [r3, #8]
 428              		.loc 5 190 0
 429 0012 1846     		mov	r0, r3
 430 0014 044B     		ldr	r3, .L36
 431 0016 019A     		ldr	r2, [sp, #4]
 432 0018 1B68     		ldr	r3, [r3]
 433 001a 9A42     		cmp	r2, r3
 434 001c 01D0     		beq	.L35
 435 001e FFF7FEFF 		bl	__stack_chk_fail
 436              	.L35:
 437 0022 03B0     		add	sp, sp, #12
 438              		.cfi_def_cfa_offset 4
 439              		@ sp needed
 440 0024 5DF804FB 		ldr	pc, [sp], #4
 441              	.L37:
 442              		.align	2
 443              	.L36:
 444 0028 00000000 		.word	__stack_chk_guard
 445              		.cfi_endproc
 446              	.LFE167:
 447              		.size	chThdGetPriorityX, .-chThdGetPriorityX
 448              		.section	.text.chEvtObjectInit,"ax",%progbits
 449              		.align	1
 450              		.p2align 4,,15
 451              		.syntax unified
 452              		.thumb
 453              		.thumb_func
 454              		.fpu fpv4-sp-d16
 455              		.type	chEvtObjectInit, %function
 456              	chEvtObjectInit:
ARM GAS  C:\Users\PCHAUT~1\AppData\Local\Temp\ccAxDce6.s 			page 9


 457              	.LFB194:
 458              		.file 6 "../lib/e-puck2_main-processor/ChibiOS//os/rt/include/chevents.h"
 459              		.loc 6 170 0
 460              		.cfi_startproc
 461              		@ args = 0, pretend = 0, frame = 16
 462              		@ frame_needed = 0, uses_anonymous_args = 0
 463 0000 00B5     		push	{lr}
 464              		.cfi_def_cfa_offset 4
 465              		.cfi_offset 14, -4
 466 0002 85B0     		sub	sp, sp, #20
 467              		.cfi_def_cfa_offset 24
 468 0004 0190     		str	r0, [sp, #4]
 469              		.loc 6 170 0
 470 0006 084B     		ldr	r3, .L40
 471 0008 1B68     		ldr	r3, [r3]
 472 000a 0393     		str	r3, [sp, #12]
 473              		.loc 6 172 0
 474 000c 019B     		ldr	r3, [sp, #4]
 475 000e 019A     		ldr	r2, [sp, #4]
 476 0010 1A60     		str	r2, [r3]
 477              		.loc 6 173 0
 478 0012 00BF     		nop
 479 0014 044B     		ldr	r3, .L40
 480 0016 039A     		ldr	r2, [sp, #12]
 481 0018 1B68     		ldr	r3, [r3]
 482 001a 9A42     		cmp	r2, r3
 483 001c 01D0     		beq	.L39
 484 001e FFF7FEFF 		bl	__stack_chk_fail
 485              	.L39:
 486 0022 05B0     		add	sp, sp, #20
 487              		.cfi_def_cfa_offset 4
 488              		@ sp needed
 489 0024 5DF804FB 		ldr	pc, [sp], #4
 490              	.L41:
 491              		.align	2
 492              	.L40:
 493 0028 00000000 		.word	__stack_chk_guard
 494              		.cfi_endproc
 495              	.LFE194:
 496              		.size	chEvtObjectInit, .-chEvtObjectInit
 497              		.section	.text.chEvtRegisterMask,"ax",%progbits
 498              		.align	1
 499              		.p2align 4,,15
 500              		.syntax unified
 501              		.thumb
 502              		.thumb_func
 503              		.fpu fpv4-sp-d16
 504              		.type	chEvtRegisterMask, %function
 505              	chEvtRegisterMask:
 506              	.LFB195:
 507              		.loc 6 191 0
 508              		.cfi_startproc
 509              		@ args = 0, pretend = 0, frame = 24
 510              		@ frame_needed = 0, uses_anonymous_args = 0
 511 0000 00B5     		push	{lr}
 512              		.cfi_def_cfa_offset 4
 513              		.cfi_offset 14, -4
ARM GAS  C:\Users\PCHAUT~1\AppData\Local\Temp\ccAxDce6.s 			page 10


 514 0002 87B0     		sub	sp, sp, #28
 515              		.cfi_def_cfa_offset 32
 516 0004 0390     		str	r0, [sp, #12]
 517 0006 0291     		str	r1, [sp, #8]
 518 0008 0192     		str	r2, [sp, #4]
 519              		.loc 6 191 0
 520 000a 0A4B     		ldr	r3, .L44
 521 000c 1B68     		ldr	r3, [r3]
 522 000e 0593     		str	r3, [sp, #20]
 523              		.loc 6 193 0
 524 0010 4FF0FF33 		mov	r3, #-1
 525 0014 019A     		ldr	r2, [sp, #4]
 526 0016 0299     		ldr	r1, [sp, #8]
 527 0018 0398     		ldr	r0, [sp, #12]
 528 001a FFF7FEFF 		bl	chEvtRegisterMaskWithFlags
 529              		.loc 6 194 0
 530 001e 00BF     		nop
 531 0020 044B     		ldr	r3, .L44
 532 0022 059A     		ldr	r2, [sp, #20]
 533 0024 1B68     		ldr	r3, [r3]
 534 0026 9A42     		cmp	r2, r3
 535 0028 01D0     		beq	.L43
 536 002a FFF7FEFF 		bl	__stack_chk_fail
 537              	.L43:
 538 002e 07B0     		add	sp, sp, #28
 539              		.cfi_def_cfa_offset 4
 540              		@ sp needed
 541 0030 5DF804FB 		ldr	pc, [sp], #4
 542              	.L45:
 543              		.align	2
 544              	.L44:
 545 0034 00000000 		.word	__stack_chk_guard
 546              		.cfi_endproc
 547              	.LFE195:
 548              		.size	chEvtRegisterMask, .-chEvtRegisterMask
 549              		.section	.text.chEvtIsListeningI,"ax",%progbits
 550              		.align	1
 551              		.p2align 4,,15
 552              		.syntax unified
 553              		.thumb
 554              		.thumb_func
 555              		.fpu fpv4-sp-d16
 556              		.type	chEvtIsListeningI, %function
 557              	chEvtIsListeningI:
 558              	.LFB197:
 559              		.loc 6 224 0
 560              		.cfi_startproc
 561              		@ args = 0, pretend = 0, frame = 16
 562              		@ frame_needed = 0, uses_anonymous_args = 0
 563 0000 00B5     		push	{lr}
 564              		.cfi_def_cfa_offset 4
 565              		.cfi_offset 14, -4
 566 0002 85B0     		sub	sp, sp, #20
 567              		.cfi_def_cfa_offset 24
 568 0004 0190     		str	r0, [sp, #4]
 569              		.loc 6 224 0
 570 0006 0B4B     		ldr	r3, .L49
ARM GAS  C:\Users\PCHAUT~1\AppData\Local\Temp\ccAxDce6.s 			page 11


 571 0008 1B68     		ldr	r3, [r3]
 572 000a 0393     		str	r3, [sp, #12]
 573              		.loc 6 226 0
 574 000c 019B     		ldr	r3, [sp, #4]
 575 000e 1B68     		ldr	r3, [r3]
 576 0010 019A     		ldr	r2, [sp, #4]
 577 0012 9A42     		cmp	r2, r3
 578 0014 14BF     		ite	ne
 579 0016 0123     		movne	r3, #1
 580 0018 0023     		moveq	r3, #0
 581 001a DBB2     		uxtb	r3, r3
 582              		.loc 6 227 0
 583 001c 1846     		mov	r0, r3
 584 001e 054B     		ldr	r3, .L49
 585 0020 039A     		ldr	r2, [sp, #12]
 586 0022 1B68     		ldr	r3, [r3]
 587 0024 9A42     		cmp	r2, r3
 588 0026 01D0     		beq	.L48
 589 0028 FFF7FEFF 		bl	__stack_chk_fail
 590              	.L48:
 591 002c 05B0     		add	sp, sp, #20
 592              		.cfi_def_cfa_offset 4
 593              		@ sp needed
 594 002e 5DF804FB 		ldr	pc, [sp], #4
 595              	.L50:
 596 0032 00BF     		.align	2
 597              	.L49:
 598 0034 00000000 		.word	__stack_chk_guard
 599              		.cfi_endproc
 600              	.LFE197:
 601              		.size	chEvtIsListeningI, .-chEvtIsListeningI
 602              		.section	.text.chEvtBroadcast,"ax",%progbits
 603              		.align	1
 604              		.p2align 4,,15
 605              		.syntax unified
 606              		.thumb
 607              		.thumb_func
 608              		.fpu fpv4-sp-d16
 609              		.type	chEvtBroadcast, %function
 610              	chEvtBroadcast:
 611              	.LFB198:
 612              		.loc 6 237 0
 613              		.cfi_startproc
 614              		@ args = 0, pretend = 0, frame = 16
 615              		@ frame_needed = 0, uses_anonymous_args = 0
 616 0000 00B5     		push	{lr}
 617              		.cfi_def_cfa_offset 4
 618              		.cfi_offset 14, -4
 619 0002 85B0     		sub	sp, sp, #20
 620              		.cfi_def_cfa_offset 24
 621 0004 0190     		str	r0, [sp, #4]
 622              		.loc 6 237 0
 623 0006 094B     		ldr	r3, .L53
 624 0008 1B68     		ldr	r3, [r3]
 625 000a 0393     		str	r3, [sp, #12]
 626              		.loc 6 239 0
 627 000c 0021     		movs	r1, #0
ARM GAS  C:\Users\PCHAUT~1\AppData\Local\Temp\ccAxDce6.s 			page 12


 628 000e 0198     		ldr	r0, [sp, #4]
 629 0010 FFF7FEFF 		bl	chEvtBroadcastFlags
 630              		.loc 6 240 0
 631 0014 00BF     		nop
 632 0016 054B     		ldr	r3, .L53
 633 0018 039A     		ldr	r2, [sp, #12]
 634 001a 1B68     		ldr	r3, [r3]
 635 001c 9A42     		cmp	r2, r3
 636 001e 01D0     		beq	.L52
 637 0020 FFF7FEFF 		bl	__stack_chk_fail
 638              	.L52:
 639 0024 05B0     		add	sp, sp, #20
 640              		.cfi_def_cfa_offset 4
 641              		@ sp needed
 642 0026 5DF804FB 		ldr	pc, [sp], #4
 643              	.L54:
 644 002a 00BF     		.align	2
 645              	.L53:
 646 002c 00000000 		.word	__stack_chk_guard
 647              		.cfi_endproc
 648              	.LFE198:
 649              		.size	chEvtBroadcast, .-chEvtBroadcast
 650              		.section	.data.es1,"aw",%progbits
 651              		.align	2
 652              		.type	es1, %object
 653              		.size	es1, 4
 654              	es1:
 655 0000 00000000 		.word	es1
 656              		.section	.data.es2,"aw",%progbits
 657              		.align	2
 658              		.type	es2, %object
 659              		.size	es2, 4
 660              	es2:
 661 0000 00000000 		.word	es2
 662              		.section	.text.evt1_setup,"ax",%progbits
 663              		.align	1
 664              		.p2align 4,,15
 665              		.syntax unified
 666              		.thumb
 667              		.thumb_func
 668              		.fpu fpv4-sp-d16
 669              		.type	evt1_setup, %function
 670              	evt1_setup:
 671              	.LFB219:
 672              		.file 7 "../lib/e-puck2_main-processor/ChibiOS//test/rt/testevt.c"
 673              		.loc 7 75 0
 674              		.cfi_startproc
 675              		@ args = 0, pretend = 0, frame = 8
 676              		@ frame_needed = 0, uses_anonymous_args = 0
 677 0000 00B5     		push	{lr}
 678              		.cfi_def_cfa_offset 4
 679              		.cfi_offset 14, -4
 680 0002 83B0     		sub	sp, sp, #12
 681              		.cfi_def_cfa_offset 16
 682              		.loc 7 75 0
 683 0004 084B     		ldr	r3, .L57
 684 0006 1B68     		ldr	r3, [r3]
ARM GAS  C:\Users\PCHAUT~1\AppData\Local\Temp\ccAxDce6.s 			page 13


 685 0008 0193     		str	r3, [sp, #4]
 686              		.loc 7 77 0
 687 000a 4FF0FF30 		mov	r0, #-1
 688 000e FFF7FEFF 		bl	chEvtGetAndClearEvents
 689              		.loc 7 78 0
 690 0012 00BF     		nop
 691 0014 044B     		ldr	r3, .L57
 692 0016 019A     		ldr	r2, [sp, #4]
 693 0018 1B68     		ldr	r3, [r3]
 694 001a 9A42     		cmp	r2, r3
 695 001c 01D0     		beq	.L56
 696 001e FFF7FEFF 		bl	__stack_chk_fail
 697              	.L56:
 698 0022 03B0     		add	sp, sp, #12
 699              		.cfi_def_cfa_offset 4
 700              		@ sp needed
 701 0024 5DF804FB 		ldr	pc, [sp], #4
 702              	.L58:
 703              		.align	2
 704              	.L57:
 705 0028 00000000 		.word	__stack_chk_guard
 706              		.cfi_endproc
 707              	.LFE219:
 708              		.size	evt1_setup, .-evt1_setup
 709              		.section	.text.h1,"ax",%progbits
 710              		.align	1
 711              		.p2align 4,,15
 712              		.syntax unified
 713              		.thumb
 714              		.thumb_func
 715              		.fpu fpv4-sp-d16
 716              		.type	h1, %function
 717              	h1:
 718              	.LFB220:
 719              		.loc 7 80 0
 720              		.cfi_startproc
 721              		@ args = 0, pretend = 0, frame = 16
 722              		@ frame_needed = 0, uses_anonymous_args = 0
 723 0000 00B5     		push	{lr}
 724              		.cfi_def_cfa_offset 4
 725              		.cfi_offset 14, -4
 726 0002 85B0     		sub	sp, sp, #20
 727              		.cfi_def_cfa_offset 24
 728 0004 0190     		str	r0, [sp, #4]
 729              		.loc 7 80 0
 730 0006 084B     		ldr	r3, .L61
 731 0008 1B68     		ldr	r3, [r3]
 732 000a 0393     		str	r3, [sp, #12]
 733 000c 4120     		movs	r0, #65
 734 000e FFF7FEFF 		bl	test_emit_token
 735 0012 00BF     		nop
 736 0014 044B     		ldr	r3, .L61
 737 0016 039A     		ldr	r2, [sp, #12]
 738 0018 1B68     		ldr	r3, [r3]
 739 001a 9A42     		cmp	r2, r3
 740 001c 01D0     		beq	.L60
 741 001e FFF7FEFF 		bl	__stack_chk_fail
ARM GAS  C:\Users\PCHAUT~1\AppData\Local\Temp\ccAxDce6.s 			page 14


 742              	.L60:
 743 0022 05B0     		add	sp, sp, #20
 744              		.cfi_def_cfa_offset 4
 745              		@ sp needed
 746 0024 5DF804FB 		ldr	pc, [sp], #4
 747              	.L62:
 748              		.align	2
 749              	.L61:
 750 0028 00000000 		.word	__stack_chk_guard
 751              		.cfi_endproc
 752              	.LFE220:
 753              		.size	h1, .-h1
 754              		.section	.text.h2,"ax",%progbits
 755              		.align	1
 756              		.p2align 4,,15
 757              		.syntax unified
 758              		.thumb
 759              		.thumb_func
 760              		.fpu fpv4-sp-d16
 761              		.type	h2, %function
 762              	h2:
 763              	.LFB221:
 764              		.loc 7 81 0
 765              		.cfi_startproc
 766              		@ args = 0, pretend = 0, frame = 16
 767              		@ frame_needed = 0, uses_anonymous_args = 0
 768 0000 00B5     		push	{lr}
 769              		.cfi_def_cfa_offset 4
 770              		.cfi_offset 14, -4
 771 0002 85B0     		sub	sp, sp, #20
 772              		.cfi_def_cfa_offset 24
 773 0004 0190     		str	r0, [sp, #4]
 774              		.loc 7 81 0
 775 0006 084B     		ldr	r3, .L65
 776 0008 1B68     		ldr	r3, [r3]
 777 000a 0393     		str	r3, [sp, #12]
 778 000c 4220     		movs	r0, #66
 779 000e FFF7FEFF 		bl	test_emit_token
 780 0012 00BF     		nop
 781 0014 044B     		ldr	r3, .L65
 782 0016 039A     		ldr	r2, [sp, #12]
 783 0018 1B68     		ldr	r3, [r3]
 784 001a 9A42     		cmp	r2, r3
 785 001c 01D0     		beq	.L64
 786 001e FFF7FEFF 		bl	__stack_chk_fail
 787              	.L64:
 788 0022 05B0     		add	sp, sp, #20
 789              		.cfi_def_cfa_offset 4
 790              		@ sp needed
 791 0024 5DF804FB 		ldr	pc, [sp], #4
 792              	.L66:
 793              		.align	2
 794              	.L65:
 795 0028 00000000 		.word	__stack_chk_guard
 796              		.cfi_endproc
 797              	.LFE221:
 798              		.size	h2, .-h2
ARM GAS  C:\Users\PCHAUT~1\AppData\Local\Temp\ccAxDce6.s 			page 15


 799              		.section	.text.h3,"ax",%progbits
 800              		.align	1
 801              		.p2align 4,,15
 802              		.syntax unified
 803              		.thumb
 804              		.thumb_func
 805              		.fpu fpv4-sp-d16
 806              		.type	h3, %function
 807              	h3:
 808              	.LFB222:
 809              		.loc 7 82 0
 810              		.cfi_startproc
 811              		@ args = 0, pretend = 0, frame = 16
 812              		@ frame_needed = 0, uses_anonymous_args = 0
 813 0000 00B5     		push	{lr}
 814              		.cfi_def_cfa_offset 4
 815              		.cfi_offset 14, -4
 816 0002 85B0     		sub	sp, sp, #20
 817              		.cfi_def_cfa_offset 24
 818 0004 0190     		str	r0, [sp, #4]
 819              		.loc 7 82 0
 820 0006 084B     		ldr	r3, .L69
 821 0008 1B68     		ldr	r3, [r3]
 822 000a 0393     		str	r3, [sp, #12]
 823 000c 4320     		movs	r0, #67
 824 000e FFF7FEFF 		bl	test_emit_token
 825 0012 00BF     		nop
 826 0014 044B     		ldr	r3, .L69
 827 0016 039A     		ldr	r2, [sp, #12]
 828 0018 1B68     		ldr	r3, [r3]
 829 001a 9A42     		cmp	r2, r3
 830 001c 01D0     		beq	.L68
 831 001e FFF7FEFF 		bl	__stack_chk_fail
 832              	.L68:
 833 0022 05B0     		add	sp, sp, #20
 834              		.cfi_def_cfa_offset 4
 835              		@ sp needed
 836 0024 5DF804FB 		ldr	pc, [sp], #4
 837              	.L70:
 838              		.align	2
 839              	.L69:
 840 0028 00000000 		.word	__stack_chk_guard
 841              		.cfi_endproc
 842              	.LFE222:
 843              		.size	h3, .-h3
 844              		.section	.rodata.evhndl,"a",%progbits
 845              		.align	2
 846              		.type	evhndl, %object
 847              		.size	evhndl, 12
 848              	evhndl:
 849 0000 00000000 		.word	h1
 850 0004 00000000 		.word	h2
 851 0008 00000000 		.word	h3
 852              		.section	.rodata
 853              		.align	2
 854              	.LC0:
 855 0000 41424300 		.ascii	"ABC\000"
ARM GAS  C:\Users\PCHAUT~1\AppData\Local\Temp\ccAxDce6.s 			page 16


 856              		.section	.text.evt1_execute,"ax",%progbits
 857              		.align	1
 858              		.p2align 4,,15
 859              		.syntax unified
 860              		.thumb
 861              		.thumb_func
 862              		.fpu fpv4-sp-d16
 863              		.type	evt1_execute, %function
 864              	evt1_execute:
 865              	.LFB223:
 866              		.loc 7 85 0
 867              		.cfi_startproc
 868              		@ args = 0, pretend = 0, frame = 48
 869              		@ frame_needed = 0, uses_anonymous_args = 0
 870 0000 00B5     		push	{lr}
 871              		.cfi_def_cfa_offset 4
 872              		.cfi_offset 14, -4
 873 0002 8DB0     		sub	sp, sp, #52
 874              		.cfi_def_cfa_offset 56
 875              		.loc 7 85 0
 876 0004 304B     		ldr	r3, .L82
 877 0006 1B68     		ldr	r3, [r3]
 878 0008 0B93     		str	r3, [sp, #44]
 879              		.loc 7 91 0
 880 000a 3048     		ldr	r0, .L82+4
 881 000c FFF7FEFF 		bl	chEvtObjectInit
 882              		.loc 7 92 0
 883 0010 01AB     		add	r3, sp, #4
 884 0012 0122     		movs	r2, #1
 885 0014 1946     		mov	r1, r3
 886 0016 2D48     		ldr	r0, .L82+4
 887 0018 FFF7FEFF 		bl	chEvtRegisterMask
 888              		.loc 7 93 0
 889 001c 06AB     		add	r3, sp, #24
 890 001e 0222     		movs	r2, #2
 891 0020 1946     		mov	r1, r3
 892 0022 2A48     		ldr	r0, .L82+4
 893 0024 FFF7FEFF 		bl	chEvtRegisterMask
 894              		.loc 7 94 0
 895 0028 2848     		ldr	r0, .L82+4
 896 002a FFF7FEFF 		bl	chEvtIsListeningI
 897 002e 0346     		mov	r3, r0
 898 0030 1946     		mov	r1, r3
 899 0032 0120     		movs	r0, #1
 900 0034 FFF7FEFF 		bl	_test_assert
 901 0038 0346     		mov	r3, r0
 902 003a 002B     		cmp	r3, #0
 903 003c 35D1     		bne	.L79
 904              		.loc 7 95 0
 905 003e 01AB     		add	r3, sp, #4
 906 0040 1946     		mov	r1, r3
 907 0042 2248     		ldr	r0, .L82+4
 908 0044 FFF7FEFF 		bl	chEvtUnregister
 909              		.loc 7 96 0
 910 0048 2048     		ldr	r0, .L82+4
 911 004a FFF7FEFF 		bl	chEvtIsListeningI
 912 004e 0346     		mov	r3, r0
ARM GAS  C:\Users\PCHAUT~1\AppData\Local\Temp\ccAxDce6.s 			page 17


 913 0050 1946     		mov	r1, r3
 914 0052 0220     		movs	r0, #2
 915 0054 FFF7FEFF 		bl	_test_assert
 916 0058 0346     		mov	r3, r0
 917 005a 002B     		cmp	r3, #0
 918 005c 27D1     		bne	.L80
 919              		.loc 7 97 0
 920 005e 06AB     		add	r3, sp, #24
 921 0060 1946     		mov	r1, r3
 922 0062 1A48     		ldr	r0, .L82+4
 923 0064 FFF7FEFF 		bl	chEvtUnregister
 924              		.loc 7 98 0
 925 0068 1848     		ldr	r0, .L82+4
 926 006a FFF7FEFF 		bl	chEvtIsListeningI
 927 006e 0346     		mov	r3, r0
 928 0070 002B     		cmp	r3, #0
 929 0072 14BF     		ite	ne
 930 0074 0123     		movne	r3, #1
 931 0076 0023     		moveq	r3, #0
 932 0078 DBB2     		uxtb	r3, r3
 933 007a 83F00103 		eor	r3, r3, #1
 934 007e DBB2     		uxtb	r3, r3
 935 0080 03F00103 		and	r3, r3, #1
 936 0084 DBB2     		uxtb	r3, r3
 937 0086 1946     		mov	r1, r3
 938 0088 0320     		movs	r0, #3
 939 008a FFF7FEFF 		bl	_test_assert
 940 008e 0346     		mov	r3, r0
 941 0090 002B     		cmp	r3, #0
 942 0092 0ED1     		bne	.L81
 943              		.loc 7 103 0
 944 0094 0721     		movs	r1, #7
 945 0096 0E48     		ldr	r0, .L82+8
 946 0098 FFF7FEFF 		bl	chEvtDispatch
 947              		.loc 7 104 0
 948 009c 0D49     		ldr	r1, .L82+12
 949 009e 0420     		movs	r0, #4
 950 00a0 FFF7FEFF 		bl	_test_assert_sequence
 951 00a4 0346     		mov	r3, r0
 952 00a6 002B     		cmp	r3, #0
 953 00a8 04E0     		b	.L71
 954              	.L79:
 955              		.loc 7 94 0
 956 00aa 00BF     		nop
 957 00ac 02E0     		b	.L71
 958              	.L80:
 959              		.loc 7 96 0
 960 00ae 00BF     		nop
 961 00b0 00E0     		b	.L71
 962              	.L81:
 963              		.loc 7 98 0
 964 00b2 00BF     		nop
 965              	.L71:
 966              		.loc 7 105 0
 967 00b4 044B     		ldr	r3, .L82
 968 00b6 0B9A     		ldr	r2, [sp, #44]
 969 00b8 1B68     		ldr	r3, [r3]
ARM GAS  C:\Users\PCHAUT~1\AppData\Local\Temp\ccAxDce6.s 			page 18


 970 00ba 9A42     		cmp	r2, r3
 971 00bc 01D0     		beq	.L78
 972 00be FFF7FEFF 		bl	__stack_chk_fail
 973              	.L78:
 974 00c2 0DB0     		add	sp, sp, #52
 975              		.cfi_def_cfa_offset 4
 976              		@ sp needed
 977 00c4 5DF804FB 		ldr	pc, [sp], #4
 978              	.L83:
 979              		.align	2
 980              	.L82:
 981 00c8 00000000 		.word	__stack_chk_guard
 982 00cc 00000000 		.word	es1
 983 00d0 00000000 		.word	evhndl
 984 00d4 00000000 		.word	.LC0
 985              		.cfi_endproc
 986              	.LFE223:
 987              		.size	evt1_execute, .-evt1_execute
 988              		.global	testevt1
 989              		.section	.rodata
 990              		.align	2
 991              	.LC1:
 992 0004 4576656E 		.ascii	"Events, registration and dispatch\000"
 992      74732C20 
 992      72656769 
 992      73747261 
 992      74696F6E 
 993              		.section	.rodata.testevt1,"a",%progbits
 994              		.align	2
 995              		.type	testevt1, %object
 996              		.size	testevt1, 16
 997              	testevt1:
 998 0000 04000000 		.word	.LC1
 999 0004 00000000 		.word	evt1_setup
 1000 0008 00000000 		.word	0
 1001 000c 00000000 		.word	evt1_execute
 1002              		.section	.text.evt2_setup,"ax",%progbits
 1003              		.align	1
 1004              		.p2align 4,,15
 1005              		.syntax unified
 1006              		.thumb
 1007              		.thumb_func
 1008              		.fpu fpv4-sp-d16
 1009              		.type	evt2_setup, %function
 1010              	evt2_setup:
 1011              	.LFB224:
 1012              		.loc 7 128 0
 1013              		.cfi_startproc
 1014              		@ args = 0, pretend = 0, frame = 8
 1015              		@ frame_needed = 0, uses_anonymous_args = 0
 1016 0000 00B5     		push	{lr}
 1017              		.cfi_def_cfa_offset 4
 1018              		.cfi_offset 14, -4
 1019 0002 83B0     		sub	sp, sp, #12
 1020              		.cfi_def_cfa_offset 16
 1021              		.loc 7 128 0
 1022 0004 084B     		ldr	r3, .L86
ARM GAS  C:\Users\PCHAUT~1\AppData\Local\Temp\ccAxDce6.s 			page 19


 1023 0006 1B68     		ldr	r3, [r3]
 1024 0008 0193     		str	r3, [sp, #4]
 1025              		.loc 7 130 0
 1026 000a 4FF0FF30 		mov	r0, #-1
 1027 000e FFF7FEFF 		bl	chEvtGetAndClearEvents
 1028              		.loc 7 131 0
 1029 0012 00BF     		nop
 1030 0014 044B     		ldr	r3, .L86
 1031 0016 019A     		ldr	r2, [sp, #4]
 1032 0018 1B68     		ldr	r3, [r3]
 1033 001a 9A42     		cmp	r2, r3
 1034 001c 01D0     		beq	.L85
 1035 001e FFF7FEFF 		bl	__stack_chk_fail
 1036              	.L85:
 1037 0022 03B0     		add	sp, sp, #12
 1038              		.cfi_def_cfa_offset 4
 1039              		@ sp needed
 1040 0024 5DF804FB 		ldr	pc, [sp], #4
 1041              	.L87:
 1042              		.align	2
 1043              	.L86:
 1044 0028 00000000 		.word	__stack_chk_guard
 1045              		.cfi_endproc
 1046              	.LFE224:
 1047              		.size	evt2_setup, .-evt2_setup
 1048              		.section	.text.thread1,"ax",%progbits
 1049              		.align	1
 1050              		.p2align 4,,15
 1051              		.syntax unified
 1052              		.thumb
 1053              		.thumb_func
 1054              		.fpu fpv4-sp-d16
 1055              		.type	thread1, %function
 1056              	thread1:
 1057              	.LFB225:
 1058              		.loc 7 133 0
 1059              		.cfi_startproc
 1060              		@ args = 0, pretend = 0, frame = 16
 1061              		@ frame_needed = 0, uses_anonymous_args = 0
 1062 0000 00B5     		push	{lr}
 1063              		.cfi_def_cfa_offset 4
 1064              		.cfi_offset 14, -4
 1065 0002 85B0     		sub	sp, sp, #20
 1066              		.cfi_def_cfa_offset 24
 1067 0004 0190     		str	r0, [sp, #4]
 1068              		.loc 7 133 0
 1069 0006 0A4B     		ldr	r3, .L90
 1070 0008 1B68     		ldr	r3, [r3]
 1071 000a 0393     		str	r3, [sp, #12]
 1072              		.loc 7 135 0
 1073 000c 3220     		movs	r0, #50
 1074 000e FFF7FEFF 		bl	chThdSleep
 1075              		.loc 7 136 0
 1076 0012 0121     		movs	r1, #1
 1077 0014 0198     		ldr	r0, [sp, #4]
 1078 0016 FFF7FEFF 		bl	chEvtSignal
 1079              		.loc 7 137 0
ARM GAS  C:\Users\PCHAUT~1\AppData\Local\Temp\ccAxDce6.s 			page 20


 1080 001a 00BF     		nop
 1081 001c 044B     		ldr	r3, .L90
 1082 001e 039A     		ldr	r2, [sp, #12]
 1083 0020 1B68     		ldr	r3, [r3]
 1084 0022 9A42     		cmp	r2, r3
 1085 0024 01D0     		beq	.L89
 1086 0026 FFF7FEFF 		bl	__stack_chk_fail
 1087              	.L89:
 1088 002a 05B0     		add	sp, sp, #20
 1089              		.cfi_def_cfa_offset 4
 1090              		@ sp needed
 1091 002c 5DF804FB 		ldr	pc, [sp], #4
 1092              	.L91:
 1093              		.align	2
 1094              	.L90:
 1095 0030 00000000 		.word	__stack_chk_guard
 1096              		.cfi_endproc
 1097              	.LFE225:
 1098              		.size	thread1, .-thread1
 1099              		.section	.text.thread2,"ax",%progbits
 1100              		.align	1
 1101              		.p2align 4,,15
 1102              		.syntax unified
 1103              		.thumb
 1104              		.thumb_func
 1105              		.fpu fpv4-sp-d16
 1106              		.type	thread2, %function
 1107              	thread2:
 1108              	.LFB226:
 1109              		.loc 7 139 0
 1110              		.cfi_startproc
 1111              		@ args = 0, pretend = 0, frame = 16
 1112              		@ frame_needed = 0, uses_anonymous_args = 0
 1113 0000 00B5     		push	{lr}
 1114              		.cfi_def_cfa_offset 4
 1115              		.cfi_offset 14, -4
 1116 0002 85B0     		sub	sp, sp, #20
 1117              		.cfi_def_cfa_offset 24
 1118 0004 0190     		str	r0, [sp, #4]
 1119              		.loc 7 139 0
 1120 0006 0B4B     		ldr	r3, .L94
 1121 0008 1B68     		ldr	r3, [r3]
 1122 000a 0393     		str	r3, [sp, #12]
 1123              		.loc 7 142 0
 1124 000c 0A48     		ldr	r0, .L94+4
 1125 000e FFF7FEFF 		bl	chEvtBroadcast
 1126              		.loc 7 143 0
 1127 0012 3220     		movs	r0, #50
 1128 0014 FFF7FEFF 		bl	chThdSleep
 1129              		.loc 7 144 0
 1130 0018 0848     		ldr	r0, .L94+8
 1131 001a FFF7FEFF 		bl	chEvtBroadcast
 1132              		.loc 7 145 0
 1133 001e 00BF     		nop
 1134 0020 044B     		ldr	r3, .L94
 1135 0022 039A     		ldr	r2, [sp, #12]
 1136 0024 1B68     		ldr	r3, [r3]
ARM GAS  C:\Users\PCHAUT~1\AppData\Local\Temp\ccAxDce6.s 			page 21


 1137 0026 9A42     		cmp	r2, r3
 1138 0028 01D0     		beq	.L93
 1139 002a FFF7FEFF 		bl	__stack_chk_fail
 1140              	.L93:
 1141 002e 05B0     		add	sp, sp, #20
 1142              		.cfi_def_cfa_offset 4
 1143              		@ sp needed
 1144 0030 5DF804FB 		ldr	pc, [sp], #4
 1145              	.L95:
 1146              		.align	2
 1147              	.L94:
 1148 0034 00000000 		.word	__stack_chk_guard
 1149 0038 00000000 		.word	es1
 1150 003c 00000000 		.word	es2
 1151              		.cfi_endproc
 1152              	.LFE226:
 1153              		.size	thread2, .-thread2
 1154              		.section	.rodata
 1155 0026 0000     		.align	2
 1156              	.LC2:
 1157 0028 4100     		.ascii	"A\000"
 1158              		.section	.text.evt2_execute,"ax",%progbits
 1159              		.align	1
 1160              		.p2align 4,,15
 1161              		.syntax unified
 1162              		.thumb
 1163              		.thumb_func
 1164              		.fpu fpv4-sp-d16
 1165              		.type	evt2_execute, %function
 1166              	evt2_execute:
 1167              	.LFB227:
 1168              		.loc 7 147 0
 1169              		.cfi_startproc
 1170              		@ args = 0, pretend = 0, frame = 56
 1171              		@ frame_needed = 0, uses_anonymous_args = 0
 1172 0000 30B5     		push	{r4, r5, lr}
 1173              		.cfi_def_cfa_offset 12
 1174              		.cfi_offset 4, -12
 1175              		.cfi_offset 5, -8
 1176              		.cfi_offset 14, -4
 1177 0002 91B0     		sub	sp, sp, #68
 1178              		.cfi_def_cfa_offset 80
 1179              		.loc 7 147 0
 1180 0004 C14B     		ldr	r3, .L131
 1181 0006 1B68     		ldr	r3, [r3]
 1182 0008 0F93     		str	r3, [sp, #60]
 1183              		.loc 7 155 0
 1184 000a 0720     		movs	r0, #7
 1185 000c FFF7FEFF 		bl	chEvtAddEvents
 1186              		.loc 7 156 0
 1187 0010 4FF0FF30 		mov	r0, #-1
 1188 0014 FFF7FEFF 		bl	chEvtWaitOne
 1189 0018 0390     		str	r0, [sp, #12]
 1190              		.loc 7 157 0
 1191 001a 039B     		ldr	r3, [sp, #12]
 1192 001c 012B     		cmp	r3, #1
 1193 001e 0CBF     		ite	eq
ARM GAS  C:\Users\PCHAUT~1\AppData\Local\Temp\ccAxDce6.s 			page 22


 1194 0020 0123     		moveq	r3, #1
 1195 0022 0023     		movne	r3, #0
 1196 0024 DBB2     		uxtb	r3, r3
 1197 0026 1946     		mov	r1, r3
 1198 0028 0120     		movs	r0, #1
 1199 002a FFF7FEFF 		bl	_test_assert
 1200 002e 0346     		mov	r3, r0
 1201 0030 002B     		cmp	r3, #0
 1202 0032 40F09181 		bne	.L116
 1203              		.loc 7 158 0
 1204 0036 4FF0FF30 		mov	r0, #-1
 1205 003a FFF7FEFF 		bl	chEvtWaitOne
 1206 003e 0390     		str	r0, [sp, #12]
 1207              		.loc 7 159 0
 1208 0040 039B     		ldr	r3, [sp, #12]
 1209 0042 022B     		cmp	r3, #2
 1210 0044 0CBF     		ite	eq
 1211 0046 0123     		moveq	r3, #1
 1212 0048 0023     		movne	r3, #0
 1213 004a DBB2     		uxtb	r3, r3
 1214 004c 1946     		mov	r1, r3
 1215 004e 0220     		movs	r0, #2
 1216 0050 FFF7FEFF 		bl	_test_assert
 1217 0054 0346     		mov	r3, r0
 1218 0056 002B     		cmp	r3, #0
 1219 0058 40F08081 		bne	.L117
 1220              		.loc 7 160 0
 1221 005c 4FF0FF30 		mov	r0, #-1
 1222 0060 FFF7FEFF 		bl	chEvtWaitOne
 1223 0064 0390     		str	r0, [sp, #12]
 1224              		.loc 7 161 0
 1225 0066 039B     		ldr	r3, [sp, #12]
 1226 0068 042B     		cmp	r3, #4
 1227 006a 0CBF     		ite	eq
 1228 006c 0123     		moveq	r3, #1
 1229 006e 0023     		movne	r3, #0
 1230 0070 DBB2     		uxtb	r3, r3
 1231 0072 1946     		mov	r1, r3
 1232 0074 0320     		movs	r0, #3
 1233 0076 FFF7FEFF 		bl	_test_assert
 1234 007a 0346     		mov	r3, r0
 1235 007c 002B     		cmp	r3, #0
 1236 007e 40F06F81 		bne	.L118
 1237              		.loc 7 162 0
 1238 0082 4FF0FF30 		mov	r0, #-1
 1239 0086 FFF7FEFF 		bl	chEvtGetAndClearEvents
 1240 008a 0390     		str	r0, [sp, #12]
 1241              		.loc 7 163 0
 1242 008c 039B     		ldr	r3, [sp, #12]
 1243 008e 002B     		cmp	r3, #0
 1244 0090 0CBF     		ite	eq
 1245 0092 0123     		moveq	r3, #1
 1246 0094 0023     		movne	r3, #0
 1247 0096 DBB2     		uxtb	r3, r3
 1248 0098 1946     		mov	r1, r3
 1249 009a 0420     		movs	r0, #4
 1250 009c FFF7FEFF 		bl	_test_assert
ARM GAS  C:\Users\PCHAUT~1\AppData\Local\Temp\ccAxDce6.s 			page 23


 1251 00a0 0346     		mov	r3, r0
 1252 00a2 002B     		cmp	r3, #0
 1253 00a4 40F05E81 		bne	.L119
 1254              		.loc 7 168 0
 1255 00a8 FFF7FEFF 		bl	test_wait_tick
 1256              		.loc 7 169 0
 1257 00ac FFF7FEFF 		bl	chVTGetSystemTime
 1258 00b0 0346     		mov	r3, r0
 1259 00b2 3233     		adds	r3, r3, #50
 1260 00b4 0493     		str	r3, [sp, #16]
 1261              		.loc 7 170 0
 1262 00b6 964B     		ldr	r3, .L131+4
 1263 00b8 1C68     		ldr	r4, [r3]
 1264 00ba FFF7FEFF 		bl	chThdGetPriorityX
 1265 00be 0346     		mov	r3, r0
 1266 00c0 5D1E     		subs	r5, r3, #1
 1267              		.loc 7 171 0
 1268 00c2 FFF7FEFF 		bl	chThdGetSelfX
 1269 00c6 0346     		mov	r3, r0
 1270              		.loc 7 170 0
 1271 00c8 0093     		str	r3, [sp]
 1272 00ca 924B     		ldr	r3, .L131+8
 1273 00cc 2A46     		mov	r2, r5
 1274 00ce 4FF4FC71 		mov	r1, #504
 1275 00d2 2046     		mov	r0, r4
 1276 00d4 FFF7FEFF 		bl	chThdCreateStatic
 1277 00d8 0246     		mov	r2, r0
 1278 00da 8F4B     		ldr	r3, .L131+12
 1279 00dc 1A60     		str	r2, [r3]
 1280              		.loc 7 172 0
 1281 00de 4FF0FF30 		mov	r0, #-1
 1282 00e2 FFF7FEFF 		bl	chEvtWaitOne
 1283 00e6 0390     		str	r0, [sp, #12]
 1284              		.loc 7 173 0
 1285 00e8 049B     		ldr	r3, [sp, #16]
 1286 00ea 0533     		adds	r3, r3, #5
 1287 00ec 1A46     		mov	r2, r3
 1288 00ee 0499     		ldr	r1, [sp, #16]
 1289 00f0 0520     		movs	r0, #5
 1290 00f2 FFF7FEFF 		bl	_test_assert_time_window
 1291 00f6 0346     		mov	r3, r0
 1292 00f8 002B     		cmp	r3, #0
 1293 00fa 40F03581 		bne	.L120
 1294              		.loc 7 174 0
 1295 00fe 039B     		ldr	r3, [sp, #12]
 1296 0100 012B     		cmp	r3, #1
 1297 0102 0CBF     		ite	eq
 1298 0104 0123     		moveq	r3, #1
 1299 0106 0023     		movne	r3, #0
 1300 0108 DBB2     		uxtb	r3, r3
 1301 010a 1946     		mov	r1, r3
 1302 010c 0620     		movs	r0, #6
 1303 010e FFF7FEFF 		bl	_test_assert
 1304 0112 0346     		mov	r3, r0
 1305 0114 002B     		cmp	r3, #0
 1306 0116 40F02981 		bne	.L121
 1307              		.loc 7 175 0
ARM GAS  C:\Users\PCHAUT~1\AppData\Local\Temp\ccAxDce6.s 			page 24


 1308 011a 4FF0FF30 		mov	r0, #-1
 1309 011e FFF7FEFF 		bl	chEvtGetAndClearEvents
 1310 0122 0390     		str	r0, [sp, #12]
 1311              		.loc 7 176 0
 1312 0124 039B     		ldr	r3, [sp, #12]
 1313 0126 002B     		cmp	r3, #0
 1314 0128 0CBF     		ite	eq
 1315 012a 0123     		moveq	r3, #1
 1316 012c 0023     		movne	r3, #0
 1317 012e DBB2     		uxtb	r3, r3
 1318 0130 1946     		mov	r1, r3
 1319 0132 0720     		movs	r0, #7
 1320 0134 FFF7FEFF 		bl	_test_assert
 1321 0138 0346     		mov	r3, r0
 1322 013a 002B     		cmp	r3, #0
 1323 013c 40F01881 		bne	.L122
 1324              		.loc 7 177 0
 1325 0140 FFF7FEFF 		bl	test_wait_threads
 1326              		.loc 7 182 0
 1327 0144 0520     		movs	r0, #5
 1328 0146 FFF7FEFF 		bl	chEvtAddEvents
 1329              		.loc 7 183 0
 1330 014a 4FF0FF30 		mov	r0, #-1
 1331 014e FFF7FEFF 		bl	chEvtWaitAny
 1332 0152 0390     		str	r0, [sp, #12]
 1333              		.loc 7 184 0
 1334 0154 039B     		ldr	r3, [sp, #12]
 1335 0156 052B     		cmp	r3, #5
 1336 0158 0CBF     		ite	eq
 1337 015a 0123     		moveq	r3, #1
 1338 015c 0023     		movne	r3, #0
 1339 015e DBB2     		uxtb	r3, r3
 1340 0160 1946     		mov	r1, r3
 1341 0162 0820     		movs	r0, #8
 1342 0164 FFF7FEFF 		bl	_test_assert
 1343 0168 0346     		mov	r3, r0
 1344 016a 002B     		cmp	r3, #0
 1345 016c 40F00281 		bne	.L123
 1346              		.loc 7 185 0
 1347 0170 4FF0FF30 		mov	r0, #-1
 1348 0174 FFF7FEFF 		bl	chEvtGetAndClearEvents
 1349 0178 0390     		str	r0, [sp, #12]
 1350              		.loc 7 186 0
 1351 017a 039B     		ldr	r3, [sp, #12]
 1352 017c 002B     		cmp	r3, #0
 1353 017e 0CBF     		ite	eq
 1354 0180 0123     		moveq	r3, #1
 1355 0182 0023     		movne	r3, #0
 1356 0184 DBB2     		uxtb	r3, r3
 1357 0186 1946     		mov	r1, r3
 1358 0188 0920     		movs	r0, #9
 1359 018a FFF7FEFF 		bl	_test_assert
 1360 018e 0346     		mov	r3, r0
 1361 0190 002B     		cmp	r3, #0
 1362 0192 40F0F180 		bne	.L124
 1363              		.loc 7 191 0
 1364 0196 FFF7FEFF 		bl	test_wait_tick
ARM GAS  C:\Users\PCHAUT~1\AppData\Local\Temp\ccAxDce6.s 			page 25


 1365              		.loc 7 192 0
 1366 019a FFF7FEFF 		bl	chVTGetSystemTime
 1367 019e 0346     		mov	r3, r0
 1368 01a0 3233     		adds	r3, r3, #50
 1369 01a2 0493     		str	r3, [sp, #16]
 1370              		.loc 7 193 0
 1371 01a4 5A4B     		ldr	r3, .L131+4
 1372 01a6 1C68     		ldr	r4, [r3]
 1373 01a8 FFF7FEFF 		bl	chThdGetPriorityX
 1374 01ac 0346     		mov	r3, r0
 1375 01ae 5D1E     		subs	r5, r3, #1
 1376              		.loc 7 194 0
 1377 01b0 FFF7FEFF 		bl	chThdGetSelfX
 1378 01b4 0346     		mov	r3, r0
 1379              		.loc 7 193 0
 1380 01b6 0093     		str	r3, [sp]
 1381 01b8 564B     		ldr	r3, .L131+8
 1382 01ba 2A46     		mov	r2, r5
 1383 01bc 4FF4FC71 		mov	r1, #504
 1384 01c0 2046     		mov	r0, r4
 1385 01c2 FFF7FEFF 		bl	chThdCreateStatic
 1386 01c6 0246     		mov	r2, r0
 1387 01c8 534B     		ldr	r3, .L131+12
 1388 01ca 1A60     		str	r2, [r3]
 1389              		.loc 7 195 0
 1390 01cc 4FF0FF30 		mov	r0, #-1
 1391 01d0 FFF7FEFF 		bl	chEvtWaitAny
 1392 01d4 0390     		str	r0, [sp, #12]
 1393              		.loc 7 196 0
 1394 01d6 049B     		ldr	r3, [sp, #16]
 1395 01d8 0533     		adds	r3, r3, #5
 1396 01da 1A46     		mov	r2, r3
 1397 01dc 0499     		ldr	r1, [sp, #16]
 1398 01de 0A20     		movs	r0, #10
 1399 01e0 FFF7FEFF 		bl	_test_assert_time_window
 1400 01e4 0346     		mov	r3, r0
 1401 01e6 002B     		cmp	r3, #0
 1402 01e8 40F0C880 		bne	.L125
 1403              		.loc 7 197 0
 1404 01ec 039B     		ldr	r3, [sp, #12]
 1405 01ee 012B     		cmp	r3, #1
 1406 01f0 0CBF     		ite	eq
 1407 01f2 0123     		moveq	r3, #1
 1408 01f4 0023     		movne	r3, #0
 1409 01f6 DBB2     		uxtb	r3, r3
 1410 01f8 1946     		mov	r1, r3
 1411 01fa 0B20     		movs	r0, #11
 1412 01fc FFF7FEFF 		bl	_test_assert
 1413 0200 0346     		mov	r3, r0
 1414 0202 002B     		cmp	r3, #0
 1415 0204 40F0BC80 		bne	.L126
 1416              		.loc 7 198 0
 1417 0208 4FF0FF30 		mov	r0, #-1
 1418 020c FFF7FEFF 		bl	chEvtGetAndClearEvents
 1419 0210 0390     		str	r0, [sp, #12]
 1420              		.loc 7 199 0
 1421 0212 039B     		ldr	r3, [sp, #12]
ARM GAS  C:\Users\PCHAUT~1\AppData\Local\Temp\ccAxDce6.s 			page 26


 1422 0214 002B     		cmp	r3, #0
 1423 0216 0CBF     		ite	eq
 1424 0218 0123     		moveq	r3, #1
 1425 021a 0023     		movne	r3, #0
 1426 021c DBB2     		uxtb	r3, r3
 1427 021e 1946     		mov	r1, r3
 1428 0220 0C20     		movs	r0, #12
 1429 0222 FFF7FEFF 		bl	_test_assert
 1430 0226 0346     		mov	r3, r0
 1431 0228 002B     		cmp	r3, #0
 1432 022a 40F0AB80 		bne	.L127
 1433              		.loc 7 200 0
 1434 022e FFF7FEFF 		bl	test_wait_threads
 1435              		.loc 7 205 0
 1436 0232 3A48     		ldr	r0, .L131+16
 1437 0234 FFF7FEFF 		bl	chEvtObjectInit
 1438              		.loc 7 206 0
 1439 0238 3948     		ldr	r0, .L131+20
 1440 023a FFF7FEFF 		bl	chEvtObjectInit
 1441              		.loc 7 207 0
 1442 023e 05AB     		add	r3, sp, #20
 1443 0240 0122     		movs	r2, #1
 1444 0242 1946     		mov	r1, r3
 1445 0244 3548     		ldr	r0, .L131+16
 1446 0246 FFF7FEFF 		bl	chEvtRegisterMask
 1447              		.loc 7 208 0
 1448 024a 0AAB     		add	r3, sp, #40
 1449 024c 0422     		movs	r2, #4
 1450 024e 1946     		mov	r1, r3
 1451 0250 3348     		ldr	r0, .L131+20
 1452 0252 FFF7FEFF 		bl	chEvtRegisterMask
 1453              		.loc 7 209 0
 1454 0256 FFF7FEFF 		bl	test_wait_tick
 1455              		.loc 7 210 0
 1456 025a FFF7FEFF 		bl	chVTGetSystemTime
 1457 025e 0346     		mov	r3, r0
 1458 0260 3233     		adds	r3, r3, #50
 1459 0262 0493     		str	r3, [sp, #16]
 1460              		.loc 7 211 0
 1461 0264 2A4B     		ldr	r3, .L131+4
 1462 0266 1C68     		ldr	r4, [r3]
 1463 0268 FFF7FEFF 		bl	chThdGetPriorityX
 1464 026c 0346     		mov	r3, r0
 1465 026e 5A1E     		subs	r2, r3, #1
 1466 0270 2C4B     		ldr	r3, .L131+24
 1467 0272 0093     		str	r3, [sp]
 1468 0274 2C4B     		ldr	r3, .L131+28
 1469 0276 4FF4FC71 		mov	r1, #504
 1470 027a 2046     		mov	r0, r4
 1471 027c FFF7FEFF 		bl	chThdCreateStatic
 1472 0280 0246     		mov	r2, r0
 1473 0282 254B     		ldr	r3, .L131+12
 1474 0284 1A60     		str	r2, [r3]
 1475              		.loc 7 213 0
 1476 0286 0520     		movs	r0, #5
 1477 0288 FFF7FEFF 		bl	chEvtWaitAll
 1478 028c 0390     		str	r0, [sp, #12]
ARM GAS  C:\Users\PCHAUT~1\AppData\Local\Temp\ccAxDce6.s 			page 27


 1479              		.loc 7 214 0
 1480 028e 049B     		ldr	r3, [sp, #16]
 1481 0290 0533     		adds	r3, r3, #5
 1482 0292 1A46     		mov	r2, r3
 1483 0294 0499     		ldr	r1, [sp, #16]
 1484 0296 0D20     		movs	r0, #13
 1485 0298 FFF7FEFF 		bl	_test_assert_time_window
 1486 029c 0346     		mov	r3, r0
 1487 029e 002B     		cmp	r3, #0
 1488 02a0 72D1     		bne	.L128
 1489              		.loc 7 215 0
 1490 02a2 4FF0FF30 		mov	r0, #-1
 1491 02a6 FFF7FEFF 		bl	chEvtGetAndClearEvents
 1492 02aa 0390     		str	r0, [sp, #12]
 1493              		.loc 7 216 0
 1494 02ac 039B     		ldr	r3, [sp, #12]
 1495 02ae 002B     		cmp	r3, #0
 1496 02b0 0CBF     		ite	eq
 1497 02b2 0123     		moveq	r3, #1
 1498 02b4 0023     		movne	r3, #0
 1499 02b6 DBB2     		uxtb	r3, r3
 1500 02b8 1946     		mov	r1, r3
 1501 02ba 0E20     		movs	r0, #14
 1502 02bc FFF7FEFF 		bl	_test_assert
 1503 02c0 0346     		mov	r3, r0
 1504 02c2 002B     		cmp	r3, #0
 1505 02c4 62D1     		bne	.L129
 1506              		.loc 7 217 0
 1507 02c6 FFF7FEFF 		bl	test_wait_threads
 1508              		.loc 7 218 0
 1509 02ca 05AB     		add	r3, sp, #20
 1510 02cc 1946     		mov	r1, r3
 1511 02ce 1348     		ldr	r0, .L131+16
 1512 02d0 FFF7FEFF 		bl	chEvtUnregister
 1513              		.loc 7 219 0
 1514 02d4 0AAB     		add	r3, sp, #40
 1515 02d6 1946     		mov	r1, r3
 1516 02d8 1148     		ldr	r0, .L131+20
 1517 02da FFF7FEFF 		bl	chEvtUnregister
 1518              		.loc 7 220 0
 1519 02de 0F48     		ldr	r0, .L131+16
 1520 02e0 FFF7FEFF 		bl	chEvtIsListeningI
 1521 02e4 0346     		mov	r3, r0
 1522 02e6 002B     		cmp	r3, #0
 1523 02e8 14BF     		ite	ne
 1524 02ea 0123     		movne	r3, #1
 1525 02ec 0023     		moveq	r3, #0
 1526 02ee DBB2     		uxtb	r3, r3
 1527 02f0 83F00103 		eor	r3, r3, #1
 1528 02f4 DBB2     		uxtb	r3, r3
 1529 02f6 03F00103 		and	r3, r3, #1
 1530 02fa DBB2     		uxtb	r3, r3
 1531 02fc 1946     		mov	r1, r3
 1532 02fe 0F20     		movs	r0, #15
 1533 0300 FFF7FEFF 		bl	_test_assert
 1534 0304 0346     		mov	r3, r0
 1535 0306 002B     		cmp	r3, #0
ARM GAS  C:\Users\PCHAUT~1\AppData\Local\Temp\ccAxDce6.s 			page 28


 1536 0308 42D1     		bne	.L130
 1537 030a 0FE0     		b	.L132
 1538              	.L133:
 1539              		.align	2
 1540              	.L131:
 1541 030c 00000000 		.word	__stack_chk_guard
 1542 0310 00000000 		.word	wa
 1543 0314 00000000 		.word	thread1
 1544 0318 00000000 		.word	threads
 1545 031c 00000000 		.word	es1
 1546 0320 00000000 		.word	es2
 1547 0324 28000000 		.word	.LC2
 1548 0328 00000000 		.word	thread2
 1549              	.L132:
 1550              		.loc 7 221 0
 1551 032c 1D48     		ldr	r0, .L134
 1552 032e FFF7FEFF 		bl	chEvtIsListeningI
 1553 0332 0346     		mov	r3, r0
 1554 0334 002B     		cmp	r3, #0
 1555 0336 14BF     		ite	ne
 1556 0338 0123     		movne	r3, #1
 1557 033a 0023     		moveq	r3, #0
 1558 033c DBB2     		uxtb	r3, r3
 1559 033e 83F00103 		eor	r3, r3, #1
 1560 0342 DBB2     		uxtb	r3, r3
 1561 0344 03F00103 		and	r3, r3, #1
 1562 0348 DBB2     		uxtb	r3, r3
 1563 034a 1946     		mov	r1, r3
 1564 034c 1020     		movs	r0, #16
 1565 034e FFF7FEFF 		bl	_test_assert
 1566 0352 0346     		mov	r3, r0
 1567 0354 002B     		cmp	r3, #0
 1568 0356 1CE0     		b	.L96
 1569              	.L116:
 1570              		.loc 7 157 0
 1571 0358 00BF     		nop
 1572 035a 1AE0     		b	.L96
 1573              	.L117:
 1574              		.loc 7 159 0
 1575 035c 00BF     		nop
 1576 035e 18E0     		b	.L96
 1577              	.L118:
 1578              		.loc 7 161 0
 1579 0360 00BF     		nop
 1580 0362 16E0     		b	.L96
 1581              	.L119:
 1582              		.loc 7 163 0
 1583 0364 00BF     		nop
 1584 0366 14E0     		b	.L96
 1585              	.L120:
 1586              		.loc 7 173 0
 1587 0368 00BF     		nop
 1588 036a 12E0     		b	.L96
 1589              	.L121:
 1590              		.loc 7 174 0
 1591 036c 00BF     		nop
 1592 036e 10E0     		b	.L96
ARM GAS  C:\Users\PCHAUT~1\AppData\Local\Temp\ccAxDce6.s 			page 29


 1593              	.L122:
 1594              		.loc 7 176 0
 1595 0370 00BF     		nop
 1596 0372 0EE0     		b	.L96
 1597              	.L123:
 1598              		.loc 7 184 0
 1599 0374 00BF     		nop
 1600 0376 0CE0     		b	.L96
 1601              	.L124:
 1602              		.loc 7 186 0
 1603 0378 00BF     		nop
 1604 037a 0AE0     		b	.L96
 1605              	.L125:
 1606              		.loc 7 196 0
 1607 037c 00BF     		nop
 1608 037e 08E0     		b	.L96
 1609              	.L126:
 1610              		.loc 7 197 0
 1611 0380 00BF     		nop
 1612 0382 06E0     		b	.L96
 1613              	.L127:
 1614              		.loc 7 199 0
 1615 0384 00BF     		nop
 1616 0386 04E0     		b	.L96
 1617              	.L128:
 1618              		.loc 7 214 0
 1619 0388 00BF     		nop
 1620 038a 02E0     		b	.L96
 1621              	.L129:
 1622              		.loc 7 216 0
 1623 038c 00BF     		nop
 1624 038e 00E0     		b	.L96
 1625              	.L130:
 1626              		.loc 7 220 0
 1627 0390 00BF     		nop
 1628              	.L96:
 1629              		.loc 7 222 0
 1630 0392 054B     		ldr	r3, .L134+4
 1631 0394 0F9A     		ldr	r2, [sp, #60]
 1632 0396 1B68     		ldr	r3, [r3]
 1633 0398 9A42     		cmp	r2, r3
 1634 039a 01D0     		beq	.L115
 1635 039c FFF7FEFF 		bl	__stack_chk_fail
 1636              	.L115:
 1637 03a0 11B0     		add	sp, sp, #68
 1638              		.cfi_def_cfa_offset 12
 1639              		@ sp needed
 1640 03a2 30BD     		pop	{r4, r5, pc}
 1641              	.L135:
 1642              		.align	2
 1643              	.L134:
 1644 03a4 00000000 		.word	es2
 1645 03a8 00000000 		.word	__stack_chk_guard
 1646              		.cfi_endproc
 1647              	.LFE227:
 1648              		.size	evt2_execute, .-evt2_execute
 1649              		.global	testevt2
ARM GAS  C:\Users\PCHAUT~1\AppData\Local\Temp\ccAxDce6.s 			page 30


 1650              		.section	.rodata
 1651 002a 0000     		.align	2
 1652              	.LC3:
 1653 002c 4576656E 		.ascii	"Events, wait and broadcast\000"
 1653      74732C20 
 1653      77616974 
 1653      20616E64 
 1653      2062726F 
 1654              		.section	.rodata.testevt2,"a",%progbits
 1655              		.align	2
 1656              		.type	testevt2, %object
 1657              		.size	testevt2, 16
 1658              	testevt2:
 1659 0000 2C000000 		.word	.LC3
 1660 0004 00000000 		.word	evt2_setup
 1661 0008 00000000 		.word	0
 1662 000c 00000000 		.word	evt2_execute
 1663              		.section	.text.evt3_setup,"ax",%progbits
 1664              		.align	1
 1665              		.p2align 4,,15
 1666              		.syntax unified
 1667              		.thumb
 1668              		.thumb_func
 1669              		.fpu fpv4-sp-d16
 1670              		.type	evt3_setup, %function
 1671              	evt3_setup:
 1672              	.LFB228:
 1673              		.loc 7 247 0
 1674              		.cfi_startproc
 1675              		@ args = 0, pretend = 0, frame = 8
 1676              		@ frame_needed = 0, uses_anonymous_args = 0
 1677 0000 00B5     		push	{lr}
 1678              		.cfi_def_cfa_offset 4
 1679              		.cfi_offset 14, -4
 1680 0002 83B0     		sub	sp, sp, #12
 1681              		.cfi_def_cfa_offset 16
 1682              		.loc 7 247 0
 1683 0004 084B     		ldr	r3, .L138
 1684 0006 1B68     		ldr	r3, [r3]
 1685 0008 0193     		str	r3, [sp, #4]
 1686              		.loc 7 249 0
 1687 000a 4FF0FF30 		mov	r0, #-1
 1688 000e FFF7FEFF 		bl	chEvtGetAndClearEvents
 1689              		.loc 7 250 0
 1690 0012 00BF     		nop
 1691 0014 044B     		ldr	r3, .L138
 1692 0016 019A     		ldr	r2, [sp, #4]
 1693 0018 1B68     		ldr	r3, [r3]
 1694 001a 9A42     		cmp	r2, r3
 1695 001c 01D0     		beq	.L137
 1696 001e FFF7FEFF 		bl	__stack_chk_fail
 1697              	.L137:
 1698 0022 03B0     		add	sp, sp, #12
 1699              		.cfi_def_cfa_offset 4
 1700              		@ sp needed
 1701 0024 5DF804FB 		ldr	pc, [sp], #4
 1702              	.L139:
ARM GAS  C:\Users\PCHAUT~1\AppData\Local\Temp\ccAxDce6.s 			page 31


 1703              		.align	2
 1704              	.L138:
 1705 0028 00000000 		.word	__stack_chk_guard
 1706              		.cfi_endproc
 1707              	.LFE228:
 1708              		.size	evt3_setup, .-evt3_setup
 1709              		.section	.text.evt3_execute,"ax",%progbits
 1710              		.align	1
 1711              		.p2align 4,,15
 1712              		.syntax unified
 1713              		.thumb
 1714              		.thumb_func
 1715              		.fpu fpv4-sp-d16
 1716              		.type	evt3_execute, %function
 1717              	evt3_execute:
 1718              	.LFB229:
 1719              		.loc 7 252 0
 1720              		.cfi_startproc
 1721              		@ args = 0, pretend = 0, frame = 8
 1722              		@ frame_needed = 0, uses_anonymous_args = 0
 1723 0000 00B5     		push	{lr}
 1724              		.cfi_def_cfa_offset 4
 1725              		.cfi_offset 14, -4
 1726 0002 83B0     		sub	sp, sp, #12
 1727              		.cfi_def_cfa_offset 16
 1728              		.loc 7 252 0
 1729 0004 434B     		ldr	r3, .L153
 1730 0006 1B68     		ldr	r3, [r3]
 1731 0008 0193     		str	r3, [sp, #4]
 1732              		.loc 7 258 0
 1733 000a 0021     		movs	r1, #0
 1734 000c 4FF0FF30 		mov	r0, #-1
 1735 0010 FFF7FEFF 		bl	chEvtWaitOneTimeout
 1736 0014 0090     		str	r0, [sp]
 1737              		.loc 7 259 0
 1738 0016 009B     		ldr	r3, [sp]
 1739 0018 002B     		cmp	r3, #0
 1740 001a 0CBF     		ite	eq
 1741 001c 0123     		moveq	r3, #1
 1742 001e 0023     		movne	r3, #0
 1743 0020 DBB2     		uxtb	r3, r3
 1744 0022 1946     		mov	r1, r3
 1745 0024 0120     		movs	r0, #1
 1746 0026 FFF7FEFF 		bl	_test_assert
 1747 002a 0346     		mov	r3, r0
 1748 002c 002B     		cmp	r3, #0
 1749 002e 5ED1     		bne	.L148
 1750              		.loc 7 260 0
 1751 0030 0021     		movs	r1, #0
 1752 0032 4FF0FF30 		mov	r0, #-1
 1753 0036 FFF7FEFF 		bl	chEvtWaitAnyTimeout
 1754 003a 0090     		str	r0, [sp]
 1755              		.loc 7 261 0
 1756 003c 009B     		ldr	r3, [sp]
 1757 003e 002B     		cmp	r3, #0
 1758 0040 0CBF     		ite	eq
 1759 0042 0123     		moveq	r3, #1
ARM GAS  C:\Users\PCHAUT~1\AppData\Local\Temp\ccAxDce6.s 			page 32


 1760 0044 0023     		movne	r3, #0
 1761 0046 DBB2     		uxtb	r3, r3
 1762 0048 1946     		mov	r1, r3
 1763 004a 0220     		movs	r0, #2
 1764 004c FFF7FEFF 		bl	_test_assert
 1765 0050 0346     		mov	r3, r0
 1766 0052 002B     		cmp	r3, #0
 1767 0054 4DD1     		bne	.L149
 1768              		.loc 7 262 0
 1769 0056 0021     		movs	r1, #0
 1770 0058 4FF0FF30 		mov	r0, #-1
 1771 005c FFF7FEFF 		bl	chEvtWaitAllTimeout
 1772 0060 0090     		str	r0, [sp]
 1773              		.loc 7 263 0
 1774 0062 009B     		ldr	r3, [sp]
 1775 0064 002B     		cmp	r3, #0
 1776 0066 0CBF     		ite	eq
 1777 0068 0123     		moveq	r3, #1
 1778 006a 0023     		movne	r3, #0
 1779 006c DBB2     		uxtb	r3, r3
 1780 006e 1946     		mov	r1, r3
 1781 0070 0320     		movs	r0, #3
 1782 0072 FFF7FEFF 		bl	_test_assert
 1783 0076 0346     		mov	r3, r0
 1784 0078 002B     		cmp	r3, #0
 1785 007a 3CD1     		bne	.L150
 1786              		.loc 7 264 0
 1787 007c 0A21     		movs	r1, #10
 1788 007e 4FF0FF30 		mov	r0, #-1
 1789 0082 FFF7FEFF 		bl	chEvtWaitOneTimeout
 1790 0086 0090     		str	r0, [sp]
 1791              		.loc 7 265 0
 1792 0088 009B     		ldr	r3, [sp]
 1793 008a 002B     		cmp	r3, #0
 1794 008c 0CBF     		ite	eq
 1795 008e 0123     		moveq	r3, #1
 1796 0090 0023     		movne	r3, #0
 1797 0092 DBB2     		uxtb	r3, r3
 1798 0094 1946     		mov	r1, r3
 1799 0096 0420     		movs	r0, #4
 1800 0098 FFF7FEFF 		bl	_test_assert
 1801 009c 0346     		mov	r3, r0
 1802 009e 002B     		cmp	r3, #0
 1803 00a0 2BD1     		bne	.L151
 1804              		.loc 7 266 0
 1805 00a2 0A21     		movs	r1, #10
 1806 00a4 4FF0FF30 		mov	r0, #-1
 1807 00a8 FFF7FEFF 		bl	chEvtWaitAnyTimeout
 1808 00ac 0090     		str	r0, [sp]
 1809              		.loc 7 267 0
 1810 00ae 009B     		ldr	r3, [sp]
 1811 00b0 002B     		cmp	r3, #0
 1812 00b2 0CBF     		ite	eq
 1813 00b4 0123     		moveq	r3, #1
 1814 00b6 0023     		movne	r3, #0
 1815 00b8 DBB2     		uxtb	r3, r3
 1816 00ba 1946     		mov	r1, r3
ARM GAS  C:\Users\PCHAUT~1\AppData\Local\Temp\ccAxDce6.s 			page 33


 1817 00bc 0520     		movs	r0, #5
 1818 00be FFF7FEFF 		bl	_test_assert
 1819 00c2 0346     		mov	r3, r0
 1820 00c4 002B     		cmp	r3, #0
 1821 00c6 1AD1     		bne	.L152
 1822              		.loc 7 268 0
 1823 00c8 0A21     		movs	r1, #10
 1824 00ca 4FF0FF30 		mov	r0, #-1
 1825 00ce FFF7FEFF 		bl	chEvtWaitAllTimeout
 1826 00d2 0090     		str	r0, [sp]
 1827              		.loc 7 269 0
 1828 00d4 009B     		ldr	r3, [sp]
 1829 00d6 002B     		cmp	r3, #0
 1830 00d8 0CBF     		ite	eq
 1831 00da 0123     		moveq	r3, #1
 1832 00dc 0023     		movne	r3, #0
 1833 00de DBB2     		uxtb	r3, r3
 1834 00e0 1946     		mov	r1, r3
 1835 00e2 0620     		movs	r0, #6
 1836 00e4 FFF7FEFF 		bl	_test_assert
 1837 00e8 0346     		mov	r3, r0
 1838 00ea 002B     		cmp	r3, #0
 1839 00ec 08E0     		b	.L140
 1840              	.L148:
 1841              		.loc 7 259 0
 1842 00ee 00BF     		nop
 1843 00f0 06E0     		b	.L140
 1844              	.L149:
 1845              		.loc 7 261 0
 1846 00f2 00BF     		nop
 1847 00f4 04E0     		b	.L140
 1848              	.L150:
 1849              		.loc 7 263 0
 1850 00f6 00BF     		nop
 1851 00f8 02E0     		b	.L140
 1852              	.L151:
 1853              		.loc 7 265 0
 1854 00fa 00BF     		nop
 1855 00fc 00E0     		b	.L140
 1856              	.L152:
 1857              		.loc 7 267 0
 1858 00fe 00BF     		nop
 1859              	.L140:
 1860              		.loc 7 270 0
 1861 0100 044B     		ldr	r3, .L153
 1862 0102 019A     		ldr	r2, [sp, #4]
 1863 0104 1B68     		ldr	r3, [r3]
 1864 0106 9A42     		cmp	r2, r3
 1865 0108 01D0     		beq	.L147
 1866 010a FFF7FEFF 		bl	__stack_chk_fail
 1867              	.L147:
 1868 010e 03B0     		add	sp, sp, #12
 1869              		.cfi_def_cfa_offset 4
 1870              		@ sp needed
 1871 0110 5DF804FB 		ldr	pc, [sp], #4
 1872              	.L154:
 1873              		.align	2
ARM GAS  C:\Users\PCHAUT~1\AppData\Local\Temp\ccAxDce6.s 			page 34


 1874              	.L153:
 1875 0114 00000000 		.word	__stack_chk_guard
 1876              		.cfi_endproc
 1877              	.LFE229:
 1878              		.size	evt3_execute, .-evt3_execute
 1879              		.global	testevt3
 1880              		.section	.rodata
 1881 0047 00       		.align	2
 1882              	.LC4:
 1883 0048 4576656E 		.ascii	"Events, timeouts\000"
 1883      74732C20 
 1883      74696D65 
 1883      6F757473 
 1883      00
 1884              		.section	.rodata.testevt3,"a",%progbits
 1885              		.align	2
 1886              		.type	testevt3, %object
 1887              		.size	testevt3, 16
 1888              	testevt3:
 1889 0000 48000000 		.word	.LC4
 1890 0004 00000000 		.word	evt3_setup
 1891 0008 00000000 		.word	0
 1892 000c 00000000 		.word	evt3_execute
 1893              		.global	patternevt
 1894              		.section	.rodata.patternevt,"a",%progbits
 1895              		.align	2
 1896              		.type	patternevt, %object
 1897              		.size	patternevt, 16
 1898              	patternevt:
 1899 0000 00000000 		.word	testevt1
 1900 0004 00000000 		.word	testevt2
 1901 0008 00000000 		.word	testevt3
 1902 000c 00000000 		.word	0
 1903              		.section	.rodata.__func__.7153,"a",%progbits
 1904              		.align	2
 1905              		.type	__func__.7153, %object
 1906              		.size	__func__.7153, 12
 1907              	__func__.7153:
 1908 0000 63685379 		.ascii	"chSysUnlock\000"
 1908      73556E6C 
 1908      6F636B00 
 1909              		.text
 1910              	.Letext0:
 1911              		.file 8 "c:\\users\\pchautems\\documents\\robotiquetp\\eclipse_e-puck2\\tools\\gcc-arm-none-eabi-7
 1912              		.file 9 "c:\\users\\pchautems\\documents\\robotiquetp\\eclipse_e-puck2\\tools\\gcc-arm-none-eabi-7
 1913              		.file 10 "c:\\users\\pchautems\\documents\\robotiquetp\\eclipse_e-puck2\\tools\\gcc-arm-none-eabi-
 1914              		.file 11 "../lib/e-puck2_main-processor/ChibiOS//os/rt/ports/ARMCMx/compilers/GCC/chtypes.h"
 1915              		.file 12 "../lib/e-puck2_main-processor/ChibiOS//os/rt/include/chsystypes.h"
 1916              		.file 13 "../lib/e-puck2_main-processor/ChibiOS//os/rt/include/chschd.h"
 1917              		.file 14 "../lib/e-puck2_main-processor/ChibiOS//os/ext/CMSIS/include/core_cm4.h"
 1918              		.file 15 "../lib/e-puck2_main-processor/ChibiOS//os/ext/CMSIS/ST/system_stm32f4xx.h"
 1919              		.file 16 "../lib/e-puck2_main-processor/ChibiOS//os/rt/ports/ARMCMx/chcore.h"
 1920              		.file 17 "../lib/e-puck2_main-processor/ChibiOS//os/rt/include/chdebug.h"
 1921              		.file 18 "../lib/e-puck2_main-processor/ChibiOS//os/rt/include/chtm.h"
 1922              		.file 19 "../lib/e-puck2_main-processor/ChibiOS//os/rt/include/chstats.h"
 1923              		.file 20 "../lib/e-puck2_main-processor/ChibiOS//os/rt/include/chsem.h"
 1924              		.file 21 "../lib/e-puck2_main-processor/ChibiOS//os/rt/include/chmtx.h"
ARM GAS  C:\Users\PCHAUT~1\AppData\Local\Temp\ccAxDce6.s 			page 35


 1925              		.file 22 "../lib/e-puck2_main-processor/ChibiOS//os/rt/include/chregistry.h"
 1926              		.file 23 "../lib/e-puck2_main-processor/ChibiOS//test/rt/test.h"