ARM GAS  C:\Users\PCHAUT~1\AppData\Local\Temp\ccljsafa.s 			page 1


   1              		.cpu cortex-m4
   2              		.eabi_attribute 27, 1
   3              		.eabi_attribute 28, 1
   4              		.eabi_attribute 20, 1
   5              		.eabi_attribute 21, 1
   6              		.eabi_attribute 23, 3
   7              		.eabi_attribute 24, 1
   8              		.eabi_attribute 25, 1
   9              		.eabi_attribute 26, 1
  10              		.eabi_attribute 30, 6
  11              		.eabi_attribute 34, 1
  12              		.eabi_attribute 18, 4
  13              		.file	"testheap.c"
  14              		.text
  15              	.Ltext0:
  16              		.cfi_sections	.debug_frame
  17              		.section	.bss.test_heap,"aw",%nobits
  18              		.align	3
  19              		.type	test_heap, %object
  20              		.size	test_heap, 40
  21              	test_heap:
  22 0000 00000000 		.space	40
  22      00000000 
  22      00000000 
  22      00000000 
  22      00000000 
  23              		.section	.text.heap1_setup,"ax",%progbits
  24              		.align	1
  25              		.p2align 4,,15
  26              		.syntax unified
  27              		.thumb
  28              		.thumb_func
  29              		.fpu fpv4-sp-d16
  30              		.type	heap1_setup, %function
  31              	heap1_setup:
  32              	.LFB219:
  33              		.file 1 "../lib/e-puck2_main-processor/ChibiOS//test/rt/testheap.c"
  34              		.loc 1 64 0
  35              		.cfi_startproc
  36              		@ args = 0, pretend = 0, frame = 8
  37              		@ frame_needed = 0, uses_anonymous_args = 0
  38 0000 00B5     		push	{lr}
  39              		.cfi_def_cfa_offset 4
  40              		.cfi_offset 14, -4
  41 0002 83B0     		sub	sp, sp, #12
  42              		.cfi_def_cfa_offset 16
  43              		.loc 1 64 0
  44 0004 094B     		ldr	r3, .L3
  45 0006 1B68     		ldr	r3, [r3]
  46 0008 0193     		str	r3, [sp, #4]
  47              		.loc 1 66 0
  48 000a 40F6D812 		movw	r2, #2520
  49 000e 0849     		ldr	r1, .L3+4
  50 0010 0848     		ldr	r0, .L3+8
  51 0012 FFF7FEFF 		bl	chHeapObjectInit
  52              		.loc 1 67 0
  53 0016 00BF     		nop
ARM GAS  C:\Users\PCHAUT~1\AppData\Local\Temp\ccljsafa.s 			page 2


  54 0018 044B     		ldr	r3, .L3
  55 001a 019A     		ldr	r2, [sp, #4]
  56 001c 1B68     		ldr	r3, [r3]
  57 001e 9A42     		cmp	r2, r3
  58 0020 01D0     		beq	.L2
  59 0022 FFF7FEFF 		bl	__stack_chk_fail
  60              	.L2:
  61 0026 03B0     		add	sp, sp, #12
  62              		.cfi_def_cfa_offset 4
  63              		@ sp needed
  64 0028 5DF804FB 		ldr	pc, [sp], #4
  65              	.L4:
  66              		.align	2
  67              	.L3:
  68 002c 00000000 		.word	__stack_chk_guard
  69 0030 00000000 		.word	test
  70 0034 00000000 		.word	test_heap
  71              		.cfi_endproc
  72              	.LFE219:
  73              		.size	heap1_setup, .-heap1_setup
  74              		.section	.text.heap1_execute,"ax",%progbits
  75              		.align	1
  76              		.p2align 4,,15
  77              		.syntax unified
  78              		.thumb
  79              		.thumb_func
  80              		.fpu fpv4-sp-d16
  81              		.type	heap1_execute, %function
  82              	heap1_execute:
  83              	.LFB220:
  84              		.loc 1 69 0
  85              		.cfi_startproc
  86              		@ args = 0, pretend = 0, frame = 24
  87              		@ frame_needed = 0, uses_anonymous_args = 0
  88 0000 00B5     		push	{lr}
  89              		.cfi_def_cfa_offset 4
  90              		.cfi_offset 14, -4
  91 0002 87B0     		sub	sp, sp, #28
  92              		.cfi_def_cfa_offset 32
  93              		.loc 1 69 0
  94 0004 BD4B     		ldr	r3, .L35
  95 0006 1B68     		ldr	r3, [r3]
  96 0008 0593     		str	r3, [sp, #20]
  97              		.loc 1 74 0
  98 000a FFF7FEFF 		bl	chCoreGetStatusX
  99              		.loc 1 80 0
 100 000e 01AB     		add	r3, sp, #4
 101 0010 1946     		mov	r1, r3
 102 0012 0020     		movs	r0, #0
 103 0014 FFF7FEFF 		bl	chHeapStatus
 104              		.loc 1 81 0
 105 0018 1021     		movs	r1, #16
 106 001a 0020     		movs	r0, #0
 107 001c FFF7FEFF 		bl	chHeapAlloc
 108 0020 0290     		str	r0, [sp, #8]
 109              		.loc 1 82 0
 110 0022 029B     		ldr	r3, [sp, #8]
ARM GAS  C:\Users\PCHAUT~1\AppData\Local\Temp\ccljsafa.s 			page 3


 111 0024 002B     		cmp	r3, #0
 112 0026 14BF     		ite	ne
 113 0028 0123     		movne	r3, #1
 114 002a 0023     		moveq	r3, #0
 115 002c DBB2     		uxtb	r3, r3
 116 002e 1946     		mov	r1, r3
 117 0030 0120     		movs	r0, #1
 118 0032 FFF7FEFF 		bl	_test_assert
 119 0036 0346     		mov	r3, r0
 120 0038 002B     		cmp	r3, #0
 121 003a 40F04A81 		bne	.L24
 122              		.loc 1 83 0
 123 003e 0298     		ldr	r0, [sp, #8]
 124 0040 FFF7FEFF 		bl	chHeapFree
 125              		.loc 1 84 0
 126 0044 6FF0FF01 		mvn	r1, #255
 127 0048 0020     		movs	r0, #0
 128 004a FFF7FEFF 		bl	chHeapAlloc
 129 004e 0290     		str	r0, [sp, #8]
 130              		.loc 1 85 0
 131 0050 029B     		ldr	r3, [sp, #8]
 132 0052 002B     		cmp	r3, #0
 133 0054 0CBF     		ite	eq
 134 0056 0123     		moveq	r3, #1
 135 0058 0023     		movne	r3, #0
 136 005a DBB2     		uxtb	r3, r3
 137 005c 1946     		mov	r1, r3
 138 005e 0220     		movs	r0, #2
 139 0060 FFF7FEFF 		bl	_test_assert
 140 0064 0346     		mov	r3, r0
 141 0066 002B     		cmp	r3, #0
 142 0068 40F03581 		bne	.L25
 143              		.loc 1 88 0
 144 006c 01AB     		add	r3, sp, #4
 145 006e 1946     		mov	r1, r3
 146 0070 A348     		ldr	r0, .L35+4
 147 0072 FFF7FEFF 		bl	chHeapStatus
 148              		.loc 1 91 0
 149 0076 1021     		movs	r1, #16
 150 0078 A148     		ldr	r0, .L35+4
 151 007a FFF7FEFF 		bl	chHeapAlloc
 152 007e 0290     		str	r0, [sp, #8]
 153              		.loc 1 92 0
 154 0080 1021     		movs	r1, #16
 155 0082 9F48     		ldr	r0, .L35+4
 156 0084 FFF7FEFF 		bl	chHeapAlloc
 157 0088 0390     		str	r0, [sp, #12]
 158              		.loc 1 93 0
 159 008a 1021     		movs	r1, #16
 160 008c 9C48     		ldr	r0, .L35+4
 161 008e FFF7FEFF 		bl	chHeapAlloc
 162 0092 0490     		str	r0, [sp, #16]
 163              		.loc 1 94 0
 164 0094 0298     		ldr	r0, [sp, #8]
 165 0096 FFF7FEFF 		bl	chHeapFree
 166              		.loc 1 95 0
 167 009a 0398     		ldr	r0, [sp, #12]
ARM GAS  C:\Users\PCHAUT~1\AppData\Local\Temp\ccljsafa.s 			page 4


 168 009c FFF7FEFF 		bl	chHeapFree
 169              		.loc 1 96 0
 170 00a0 0498     		ldr	r0, [sp, #16]
 171 00a2 FFF7FEFF 		bl	chHeapFree
 172              		.loc 1 97 0
 173 00a6 6B46     		mov	r3, sp
 174 00a8 1946     		mov	r1, r3
 175 00aa 9548     		ldr	r0, .L35+4
 176 00ac FFF7FEFF 		bl	chHeapStatus
 177 00b0 0346     		mov	r3, r0
 178 00b2 012B     		cmp	r3, #1
 179 00b4 0CBF     		ite	eq
 180 00b6 0123     		moveq	r3, #1
 181 00b8 0023     		movne	r3, #0
 182 00ba DBB2     		uxtb	r3, r3
 183 00bc 1946     		mov	r1, r3
 184 00be 0320     		movs	r0, #3
 185 00c0 FFF7FEFF 		bl	_test_assert
 186 00c4 0346     		mov	r3, r0
 187 00c6 002B     		cmp	r3, #0
 188 00c8 40F00781 		bne	.L26
 189              		.loc 1 100 0
 190 00cc 1021     		movs	r1, #16
 191 00ce 8C48     		ldr	r0, .L35+4
 192 00d0 FFF7FEFF 		bl	chHeapAlloc
 193 00d4 0290     		str	r0, [sp, #8]
 194              		.loc 1 101 0
 195 00d6 1021     		movs	r1, #16
 196 00d8 8948     		ldr	r0, .L35+4
 197 00da FFF7FEFF 		bl	chHeapAlloc
 198 00de 0390     		str	r0, [sp, #12]
 199              		.loc 1 102 0
 200 00e0 1021     		movs	r1, #16
 201 00e2 8748     		ldr	r0, .L35+4
 202 00e4 FFF7FEFF 		bl	chHeapAlloc
 203 00e8 0490     		str	r0, [sp, #16]
 204              		.loc 1 103 0
 205 00ea 0498     		ldr	r0, [sp, #16]
 206 00ec FFF7FEFF 		bl	chHeapFree
 207              		.loc 1 104 0
 208 00f0 0398     		ldr	r0, [sp, #12]
 209 00f2 FFF7FEFF 		bl	chHeapFree
 210              		.loc 1 105 0
 211 00f6 0298     		ldr	r0, [sp, #8]
 212 00f8 FFF7FEFF 		bl	chHeapFree
 213              		.loc 1 106 0
 214 00fc 6B46     		mov	r3, sp
 215 00fe 1946     		mov	r1, r3
 216 0100 7F48     		ldr	r0, .L35+4
 217 0102 FFF7FEFF 		bl	chHeapStatus
 218 0106 0346     		mov	r3, r0
 219 0108 012B     		cmp	r3, #1
 220 010a 0CBF     		ite	eq
 221 010c 0123     		moveq	r3, #1
 222 010e 0023     		movne	r3, #0
 223 0110 DBB2     		uxtb	r3, r3
 224 0112 1946     		mov	r1, r3
ARM GAS  C:\Users\PCHAUT~1\AppData\Local\Temp\ccljsafa.s 			page 5


 225 0114 0420     		movs	r0, #4
 226 0116 FFF7FEFF 		bl	_test_assert
 227 011a 0346     		mov	r3, r0
 228 011c 002B     		cmp	r3, #0
 229 011e 40F0DE80 		bne	.L27
 230              		.loc 1 109 0
 231 0122 1121     		movs	r1, #17
 232 0124 7648     		ldr	r0, .L35+4
 233 0126 FFF7FEFF 		bl	chHeapAlloc
 234 012a 0290     		str	r0, [sp, #8]
 235              		.loc 1 110 0
 236 012c 1021     		movs	r1, #16
 237 012e 7448     		ldr	r0, .L35+4
 238 0130 FFF7FEFF 		bl	chHeapAlloc
 239 0134 0390     		str	r0, [sp, #12]
 240              		.loc 1 111 0
 241 0136 0298     		ldr	r0, [sp, #8]
 242 0138 FFF7FEFF 		bl	chHeapFree
 243              		.loc 1 112 0
 244 013c 6B46     		mov	r3, sp
 245 013e 1946     		mov	r1, r3
 246 0140 6F48     		ldr	r0, .L35+4
 247 0142 FFF7FEFF 		bl	chHeapStatus
 248 0146 0346     		mov	r3, r0
 249 0148 022B     		cmp	r3, #2
 250 014a 0CBF     		ite	eq
 251 014c 0123     		moveq	r3, #1
 252 014e 0023     		movne	r3, #0
 253 0150 DBB2     		uxtb	r3, r3
 254 0152 1946     		mov	r1, r3
 255 0154 0520     		movs	r0, #5
 256 0156 FFF7FEFF 		bl	_test_assert
 257 015a 0346     		mov	r3, r0
 258 015c 002B     		cmp	r3, #0
 259 015e 40F0C080 		bne	.L28
 260              		.loc 1 113 0
 261 0162 1021     		movs	r1, #16
 262 0164 6648     		ldr	r0, .L35+4
 263 0166 FFF7FEFF 		bl	chHeapAlloc
 264 016a 0290     		str	r0, [sp, #8]
 265              		.loc 1 116 0
 266 016c 6B46     		mov	r3, sp
 267 016e 1946     		mov	r1, r3
 268 0170 6348     		ldr	r0, .L35+4
 269 0172 FFF7FEFF 		bl	chHeapStatus
 270 0176 0346     		mov	r3, r0
 271 0178 012B     		cmp	r3, #1
 272 017a 07D0     		beq	.L12
 273              		.loc 1 116 0 is_stmt 0 discriminator 2
 274 017c 6B46     		mov	r3, sp
 275 017e 1946     		mov	r1, r3
 276 0180 5F48     		ldr	r0, .L35+4
 277 0182 FFF7FEFF 		bl	chHeapStatus
 278 0186 0346     		mov	r3, r0
 279 0188 022B     		cmp	r3, #2
 280 018a 01D1     		bne	.L13
 281              	.L12:
ARM GAS  C:\Users\PCHAUT~1\AppData\Local\Temp\ccljsafa.s 			page 6


 282              		.loc 1 116 0 discriminator 3
 283 018c 0123     		movs	r3, #1
 284 018e 00E0     		b	.L14
 285              	.L13:
 286              		.loc 1 116 0 discriminator 4
 287 0190 0023     		movs	r3, #0
 288              	.L14:
 289              		.loc 1 116 0 discriminator 6
 290 0192 03F00103 		and	r3, r3, #1
 291 0196 DBB2     		uxtb	r3, r3
 292 0198 1946     		mov	r1, r3
 293 019a 0620     		movs	r0, #6
 294 019c FFF7FEFF 		bl	_test_assert
 295 01a0 0346     		mov	r3, r0
 296 01a2 002B     		cmp	r3, #0
 297 01a4 40F09F80 		bne	.L29
 298              		.loc 1 118 0 is_stmt 1
 299 01a8 0398     		ldr	r0, [sp, #12]
 300 01aa FFF7FEFF 		bl	chHeapFree
 301              		.loc 1 119 0
 302 01ae 0298     		ldr	r0, [sp, #8]
 303 01b0 FFF7FEFF 		bl	chHeapFree
 304              		.loc 1 120 0
 305 01b4 6B46     		mov	r3, sp
 306 01b6 1946     		mov	r1, r3
 307 01b8 5148     		ldr	r0, .L35+4
 308 01ba FFF7FEFF 		bl	chHeapStatus
 309 01be 0346     		mov	r3, r0
 310 01c0 012B     		cmp	r3, #1
 311 01c2 0CBF     		ite	eq
 312 01c4 0123     		moveq	r3, #1
 313 01c6 0023     		movne	r3, #0
 314 01c8 DBB2     		uxtb	r3, r3
 315 01ca 1946     		mov	r1, r3
 316 01cc 0720     		movs	r0, #7
 317 01ce FFF7FEFF 		bl	_test_assert
 318 01d2 0346     		mov	r3, r0
 319 01d4 002B     		cmp	r3, #0
 320 01d6 40F08880 		bne	.L30
 321              		.loc 1 123 0
 322 01da 1021     		movs	r1, #16
 323 01dc 4848     		ldr	r0, .L35+4
 324 01de FFF7FEFF 		bl	chHeapAlloc
 325 01e2 0290     		str	r0, [sp, #8]
 326              		.loc 1 124 0
 327 01e4 1021     		movs	r1, #16
 328 01e6 4648     		ldr	r0, .L35+4
 329 01e8 FFF7FEFF 		bl	chHeapAlloc
 330 01ec 0390     		str	r0, [sp, #12]
 331              		.loc 1 125 0
 332 01ee 0298     		ldr	r0, [sp, #8]
 333 01f0 FFF7FEFF 		bl	chHeapFree
 334              		.loc 1 126 0
 335 01f4 6B46     		mov	r3, sp
 336 01f6 1946     		mov	r1, r3
 337 01f8 4148     		ldr	r0, .L35+4
 338 01fa FFF7FEFF 		bl	chHeapStatus
ARM GAS  C:\Users\PCHAUT~1\AppData\Local\Temp\ccljsafa.s 			page 7


 339 01fe 0346     		mov	r3, r0
 340 0200 022B     		cmp	r3, #2
 341 0202 0CBF     		ite	eq
 342 0204 0123     		moveq	r3, #1
 343 0206 0023     		movne	r3, #0
 344 0208 DBB2     		uxtb	r3, r3
 345 020a 1946     		mov	r1, r3
 346 020c 0820     		movs	r0, #8
 347 020e FFF7FEFF 		bl	_test_assert
 348 0212 0346     		mov	r3, r0
 349 0214 002B     		cmp	r3, #0
 350 0216 6AD1     		bne	.L31
 351              		.loc 1 127 0
 352 0218 2021     		movs	r1, #32
 353 021a 3948     		ldr	r0, .L35+4
 354 021c FFF7FEFF 		bl	chHeapAlloc
 355 0220 0290     		str	r0, [sp, #8]
 356              		.loc 1 128 0
 357 0222 0298     		ldr	r0, [sp, #8]
 358 0224 FFF7FEFF 		bl	chHeapFree
 359              		.loc 1 129 0
 360 0228 0398     		ldr	r0, [sp, #12]
 361 022a FFF7FEFF 		bl	chHeapFree
 362              		.loc 1 130 0
 363 022e 6B46     		mov	r3, sp
 364 0230 1946     		mov	r1, r3
 365 0232 3348     		ldr	r0, .L35+4
 366 0234 FFF7FEFF 		bl	chHeapStatus
 367 0238 0346     		mov	r3, r0
 368 023a 012B     		cmp	r3, #1
 369 023c 0CBF     		ite	eq
 370 023e 0123     		moveq	r3, #1
 371 0240 0023     		movne	r3, #0
 372 0242 DBB2     		uxtb	r3, r3
 373 0244 1946     		mov	r1, r3
 374 0246 0920     		movs	r0, #9
 375 0248 FFF7FEFF 		bl	_test_assert
 376 024c 0346     		mov	r3, r0
 377 024e 002B     		cmp	r3, #0
 378 0250 4FD1     		bne	.L32
 379              		.loc 1 133 0
 380 0252 6B46     		mov	r3, sp
 381 0254 1946     		mov	r1, r3
 382 0256 2A48     		ldr	r0, .L35+4
 383 0258 FFF7FEFF 		bl	chHeapStatus
 384              		.loc 1 134 0
 385 025c 009B     		ldr	r3, [sp]
 386 025e 1946     		mov	r1, r3
 387 0260 2748     		ldr	r0, .L35+4
 388 0262 FFF7FEFF 		bl	chHeapAlloc
 389 0266 0290     		str	r0, [sp, #8]
 390              		.loc 1 135 0
 391 0268 6B46     		mov	r3, sp
 392 026a 1946     		mov	r1, r3
 393 026c 2448     		ldr	r0, .L35+4
 394 026e FFF7FEFF 		bl	chHeapStatus
 395 0272 0346     		mov	r3, r0
ARM GAS  C:\Users\PCHAUT~1\AppData\Local\Temp\ccljsafa.s 			page 8


 396 0274 002B     		cmp	r3, #0
 397 0276 0CBF     		ite	eq
 398 0278 0123     		moveq	r3, #1
 399 027a 0023     		movne	r3, #0
 400 027c DBB2     		uxtb	r3, r3
 401 027e 1946     		mov	r1, r3
 402 0280 0A20     		movs	r0, #10
 403 0282 FFF7FEFF 		bl	_test_assert
 404 0286 0346     		mov	r3, r0
 405 0288 002B     		cmp	r3, #0
 406 028a 34D1     		bne	.L33
 407              		.loc 1 136 0
 408 028c 0298     		ldr	r0, [sp, #8]
 409 028e FFF7FEFF 		bl	chHeapFree
 410              		.loc 1 138 0
 411 0292 6B46     		mov	r3, sp
 412 0294 1946     		mov	r1, r3
 413 0296 1A48     		ldr	r0, .L35+4
 414 0298 FFF7FEFF 		bl	chHeapStatus
 415 029c 0346     		mov	r3, r0
 416 029e 012B     		cmp	r3, #1
 417 02a0 0CBF     		ite	eq
 418 02a2 0123     		moveq	r3, #1
 419 02a4 0023     		movne	r3, #0
 420 02a6 DBB2     		uxtb	r3, r3
 421 02a8 1946     		mov	r1, r3
 422 02aa 0B20     		movs	r0, #11
 423 02ac FFF7FEFF 		bl	_test_assert
 424 02b0 0346     		mov	r3, r0
 425 02b2 002B     		cmp	r3, #0
 426 02b4 26D1     		bne	.L34
 427              		.loc 1 139 0
 428 02b6 009A     		ldr	r2, [sp]
 429 02b8 019B     		ldr	r3, [sp, #4]
 430 02ba 9A42     		cmp	r2, r3
 431 02bc 0CBF     		ite	eq
 432 02be 0123     		moveq	r3, #1
 433 02c0 0023     		movne	r3, #0
 434 02c2 DBB2     		uxtb	r3, r3
 435 02c4 1946     		mov	r1, r3
 436 02c6 0C20     		movs	r0, #12
 437 02c8 FFF7FEFF 		bl	_test_assert
 438 02cc 0346     		mov	r3, r0
 439 02ce 002B     		cmp	r3, #0
 440 02d0 19E0     		b	.L5
 441              	.L24:
 442              		.loc 1 82 0
 443 02d2 00BF     		nop
 444 02d4 17E0     		b	.L5
 445              	.L25:
 446              		.loc 1 85 0
 447 02d6 00BF     		nop
 448 02d8 15E0     		b	.L5
 449              	.L26:
 450              		.loc 1 97 0
 451 02da 00BF     		nop
 452 02dc 13E0     		b	.L5
ARM GAS  C:\Users\PCHAUT~1\AppData\Local\Temp\ccljsafa.s 			page 9


 453              	.L27:
 454              		.loc 1 106 0
 455 02de 00BF     		nop
 456 02e0 11E0     		b	.L5
 457              	.L28:
 458              		.loc 1 112 0
 459 02e2 00BF     		nop
 460 02e4 0FE0     		b	.L5
 461              	.L29:
 462              		.loc 1 116 0
 463 02e6 00BF     		nop
 464 02e8 0DE0     		b	.L5
 465              	.L30:
 466              		.loc 1 120 0
 467 02ea 00BF     		nop
 468 02ec 0BE0     		b	.L5
 469              	.L31:
 470              		.loc 1 126 0
 471 02ee 00BF     		nop
 472 02f0 09E0     		b	.L5
 473              	.L32:
 474              		.loc 1 130 0
 475 02f2 00BF     		nop
 476 02f4 07E0     		b	.L5
 477              	.L33:
 478              		.loc 1 135 0
 479 02f6 00BF     		nop
 480 02f8 05E0     		b	.L5
 481              	.L36:
 482 02fa 00BF     		.align	2
 483              	.L35:
 484 02fc 00000000 		.word	__stack_chk_guard
 485 0300 00000000 		.word	test_heap
 486              	.L34:
 487              		.loc 1 138 0
 488 0304 00BF     		nop
 489              	.L5:
 490              		.loc 1 140 0
 491 0306 054B     		ldr	r3, .L37
 492 0308 059A     		ldr	r2, [sp, #20]
 493 030a 1B68     		ldr	r3, [r3]
 494 030c 9A42     		cmp	r2, r3
 495 030e 01D0     		beq	.L23
 496 0310 FFF7FEFF 		bl	__stack_chk_fail
 497              	.L23:
 498 0314 07B0     		add	sp, sp, #28
 499              		.cfi_def_cfa_offset 4
 500              		@ sp needed
 501 0316 5DF804FB 		ldr	pc, [sp], #4
 502              	.L38:
 503 031a 00BF     		.align	2
 504              	.L37:
 505 031c 00000000 		.word	__stack_chk_guard
 506              		.cfi_endproc
 507              	.LFE220:
 508              		.size	heap1_execute, .-heap1_execute
 509              		.global	testheap1
ARM GAS  C:\Users\PCHAUT~1\AppData\Local\Temp\ccljsafa.s 			page 10


 510              		.section	.rodata
 511              		.align	2
 512              	.LC0:
 513 0000 48656170 		.ascii	"Heap, allocation and fragmentation test\000"
 513      2C20616C 
 513      6C6F6361 
 513      74696F6E 
 513      20616E64 
 514              		.section	.rodata.testheap1,"a",%progbits
 515              		.align	2
 516              		.type	testheap1, %object
 517              		.size	testheap1, 16
 518              	testheap1:
 519 0000 00000000 		.word	.LC0
 520 0004 00000000 		.word	heap1_setup
 521 0008 00000000 		.word	0
 522 000c 00000000 		.word	heap1_execute
 523              		.global	patternheap
 524              		.section	.rodata.patternheap,"a",%progbits
 525              		.align	2
 526              		.type	patternheap, %object
 527              		.size	patternheap, 8
 528              	patternheap:
 529 0000 00000000 		.word	testheap1
 530 0004 00000000 		.word	0
 531              		.text
 532              	.Letext0:
 533              		.file 2 "c:\\users\\pchautems\\documents\\robotiquetp\\eclipse_e-puck2\\tools\\gcc-arm-none-eabi-7
 534              		.file 3 "c:\\users\\pchautems\\documents\\robotiquetp\\eclipse_e-puck2\\tools\\gcc-arm-none-eabi-7
 535              		.file 4 "c:\\users\\pchautems\\documents\\robotiquetp\\eclipse_e-puck2\\tools\\gcc-arm-none-eabi-7
 536              		.file 5 "../lib/e-puck2_main-processor/ChibiOS//os/rt/ports/ARMCMx/compilers/GCC/chtypes.h"
 537              		.file 6 "../lib/e-puck2_main-processor/ChibiOS//os/rt/include/chsystypes.h"
 538              		.file 7 "../lib/e-puck2_main-processor/ChibiOS//os/rt/include/chschd.h"
 539              		.file 8 "../lib/e-puck2_main-processor/ChibiOS//os/ext/CMSIS/include/core_cm4.h"
 540              		.file 9 "../lib/e-puck2_main-processor/ChibiOS//os/ext/CMSIS/ST/system_stm32f4xx.h"
 541              		.file 10 "../lib/e-puck2_main-processor/ChibiOS//os/rt/ports/ARMCMx/chcore.h"
 542              		.file 11 "../lib/e-puck2_main-processor/ChibiOS//os/rt/ports/ARMCMx/chcore_v7m.h"
 543              		.file 12 "../lib/e-puck2_main-processor/ChibiOS//os/rt/include/chdebug.h"
 544              		.file 13 "../lib/e-puck2_main-processor/ChibiOS//os/rt/include/chtm.h"
 545              		.file 14 "../lib/e-puck2_main-processor/ChibiOS//os/rt/include/chstats.h"
 546              		.file 15 "../lib/e-puck2_main-processor/ChibiOS//os/rt/include/chsem.h"
 547              		.file 16 "../lib/e-puck2_main-processor/ChibiOS//os/rt/include/chmtx.h"
 548              		.file 17 "../lib/e-puck2_main-processor/ChibiOS//os/rt/include/chregistry.h"
 549              		.file 18 "../lib/e-puck2_main-processor/ChibiOS//os/rt/include/chmemcore.h"
 550              		.file 19 "../lib/e-puck2_main-processor/ChibiOS//os/rt/include/chheap.h"
 551              		.file 20 "../lib/e-puck2_main-processor/ChibiOS//test/rt/test.h"