ARM GAS  C:\Users\PCHAUT~1\AppData\Local\Temp\ccqSs9HN.s 			page 1


   1              		.cpu cortex-m4
   2              		.eabi_attribute 27, 1
   3              		.eabi_attribute 28, 1
   4              		.eabi_attribute 20, 1
   5              		.eabi_attribute 21, 1
   6              		.eabi_attribute 23, 3
   7              		.eabi_attribute 24, 1
   8              		.eabi_attribute 25, 1
   9              		.eabi_attribute 26, 1
  10              		.eabi_attribute 30, 6
  11              		.eabi_attribute 34, 1
  12              		.eabi_attribute 18, 4
  13              		.file	"testmbox.c"
  14              		.text
  15              	.Ltext0:
  16              		.cfi_sections	.debug_frame
  17              		.section	.text.port_lock,"ax",%progbits
  18              		.align	1
  19              		.p2align 4,,15
  20              		.syntax unified
  21              		.thumb
  22              		.thumb_func
  23              		.fpu fpv4-sp-d16
  24              		.type	port_lock, %function
  25              	port_lock:
  26              	.LFB116:
  27              		.file 1 "../lib/e-puck2_main-processor/ChibiOS//os/rt/ports/ARMCMx/chcore_v7m.h"
  28              		.loc 1 444 0
  29              		.cfi_startproc
  30              		@ args = 0, pretend = 0, frame = 8
  31              		@ frame_needed = 0, uses_anonymous_args = 0
  32 0000 00B5     		push	{lr}
  33              		.cfi_def_cfa_offset 4
  34              		.cfi_offset 14, -4
  35 0002 83B0     		sub	sp, sp, #12
  36              		.cfi_def_cfa_offset 16
  37              		.loc 1 444 0
  38 0004 094B     		ldr	r3, .L3
  39 0006 1B68     		ldr	r3, [r3]
  40 0008 0193     		str	r3, [sp, #4]
  41 000a 2023     		movs	r3, #32
  42 000c 0093     		str	r3, [sp]
  43              	.LBB6:
  44              	.LBB7:
  45              		.file 2 "../lib/e-puck2_main-processor/ChibiOS//os/ext/CMSIS/include/core_cmFunc.h"
  46              		.loc 2 546 0
  47 000e 009B     		ldr	r3, [sp]
  48              		.syntax unified
  49              	@ 546 "../lib/e-puck2_main-processor/ChibiOS//os/ext/CMSIS/include/core_cmFunc.h" 1
  50 0010 83F31188 		MSR basepri, r3
  51              	@ 0 "" 2
  52              		.thumb
  53              		.syntax unified
  54              	.LBE7:
  55              	.LBE6:
  56              		.loc 1 451 0
  57 0014 00BF     		nop
ARM GAS  C:\Users\PCHAUT~1\AppData\Local\Temp\ccqSs9HN.s 			page 2


  58 0016 054B     		ldr	r3, .L3
  59 0018 019A     		ldr	r2, [sp, #4]
  60 001a 1B68     		ldr	r3, [r3]
  61 001c 9A42     		cmp	r2, r3
  62 001e 01D0     		beq	.L2
  63 0020 FFF7FEFF 		bl	__stack_chk_fail
  64              	.L2:
  65 0024 03B0     		add	sp, sp, #12
  66              		.cfi_def_cfa_offset 4
  67              		@ sp needed
  68 0026 5DF804FB 		ldr	pc, [sp], #4
  69              	.L4:
  70 002a 00BF     		.align	2
  71              	.L3:
  72 002c 00000000 		.word	__stack_chk_guard
  73              		.cfi_endproc
  74              	.LFE116:
  75              		.size	port_lock, .-port_lock
  76              		.section	.text.port_unlock,"ax",%progbits
  77              		.align	1
  78              		.p2align 4,,15
  79              		.syntax unified
  80              		.thumb
  81              		.thumb_func
  82              		.fpu fpv4-sp-d16
  83              		.type	port_unlock, %function
  84              	port_unlock:
  85              	.LFB117:
  86              		.loc 1 458 0
  87              		.cfi_startproc
  88              		@ args = 0, pretend = 0, frame = 8
  89              		@ frame_needed = 0, uses_anonymous_args = 0
  90 0000 00B5     		push	{lr}
  91              		.cfi_def_cfa_offset 4
  92              		.cfi_offset 14, -4
  93 0002 83B0     		sub	sp, sp, #12
  94              		.cfi_def_cfa_offset 16
  95              		.loc 1 458 0
  96 0004 094B     		ldr	r3, .L7
  97 0006 1B68     		ldr	r3, [r3]
  98 0008 0193     		str	r3, [sp, #4]
  99 000a 0023     		movs	r3, #0
 100 000c 0093     		str	r3, [sp]
 101              	.LBB8:
 102              	.LBB9:
 103              		.loc 2 546 0
 104 000e 009B     		ldr	r3, [sp]
 105              		.syntax unified
 106              	@ 546 "../lib/e-puck2_main-processor/ChibiOS//os/ext/CMSIS/include/core_cmFunc.h" 1
 107 0010 83F31188 		MSR basepri, r3
 108              	@ 0 "" 2
 109              		.thumb
 110              		.syntax unified
 111              	.LBE9:
 112              	.LBE8:
 113              		.loc 1 465 0
 114 0014 00BF     		nop
ARM GAS  C:\Users\PCHAUT~1\AppData\Local\Temp\ccqSs9HN.s 			page 3


 115 0016 054B     		ldr	r3, .L7
 116 0018 019A     		ldr	r2, [sp, #4]
 117 001a 1B68     		ldr	r3, [r3]
 118 001c 9A42     		cmp	r2, r3
 119 001e 01D0     		beq	.L6
 120 0020 FFF7FEFF 		bl	__stack_chk_fail
 121              	.L6:
 122 0024 03B0     		add	sp, sp, #12
 123              		.cfi_def_cfa_offset 4
 124              		@ sp needed
 125 0026 5DF804FB 		ldr	pc, [sp], #4
 126              	.L8:
 127 002a 00BF     		.align	2
 128              	.L7:
 129 002c 00000000 		.word	__stack_chk_guard
 130              		.cfi_endproc
 131              	.LFE117:
 132              		.size	port_unlock, .-port_unlock
 133              		.section	.text.chSysLock,"ax",%progbits
 134              		.align	1
 135              		.p2align 4,,15
 136              		.syntax unified
 137              		.thumb
 138              		.thumb_func
 139              		.fpu fpv4-sp-d16
 140              		.type	chSysLock, %function
 141              	chSysLock:
 142              	.LFB145:
 143              		.file 3 "../lib/e-puck2_main-processor/ChibiOS//os/rt/include/chsys.h"
 144              		.loc 3 346 0
 145              		.cfi_startproc
 146              		@ args = 0, pretend = 0, frame = 8
 147              		@ frame_needed = 0, uses_anonymous_args = 0
 148 0000 00B5     		push	{lr}
 149              		.cfi_def_cfa_offset 4
 150              		.cfi_offset 14, -4
 151 0002 83B0     		sub	sp, sp, #12
 152              		.cfi_def_cfa_offset 16
 153              		.loc 3 346 0
 154 0004 094B     		ldr	r3, .L11
 155 0006 1B68     		ldr	r3, [r3]
 156 0008 0193     		str	r3, [sp, #4]
 157              		.loc 3 348 0
 158 000a FFF7FEFF 		bl	port_lock
 159              		.loc 3 349 0
 160 000e FFF7FEFF 		bl	_stats_start_measure_crit_thd
 161              		.loc 3 350 0
 162 0012 FFF7FEFF 		bl	_dbg_check_lock
 163              		.loc 3 351 0
 164 0016 00BF     		nop
 165 0018 044B     		ldr	r3, .L11
 166 001a 019A     		ldr	r2, [sp, #4]
 167 001c 1B68     		ldr	r3, [r3]
 168 001e 9A42     		cmp	r2, r3
 169 0020 01D0     		beq	.L10
 170 0022 FFF7FEFF 		bl	__stack_chk_fail
 171              	.L10:
ARM GAS  C:\Users\PCHAUT~1\AppData\Local\Temp\ccqSs9HN.s 			page 4


 172 0026 03B0     		add	sp, sp, #12
 173              		.cfi_def_cfa_offset 4
 174              		@ sp needed
 175 0028 5DF804FB 		ldr	pc, [sp], #4
 176              	.L12:
 177              		.align	2
 178              	.L11:
 179 002c 00000000 		.word	__stack_chk_guard
 180              		.cfi_endproc
 181              	.LFE145:
 182              		.size	chSysLock, .-chSysLock
 183              		.section	.text.chSysUnlock,"ax",%progbits
 184              		.align	1
 185              		.p2align 4,,15
 186              		.syntax unified
 187              		.thumb
 188              		.thumb_func
 189              		.fpu fpv4-sp-d16
 190              		.type	chSysUnlock, %function
 191              	chSysUnlock:
 192              	.LFB146:
 193              		.loc 3 358 0
 194              		.cfi_startproc
 195              		@ args = 0, pretend = 0, frame = 8
 196              		@ frame_needed = 0, uses_anonymous_args = 0
 197 0000 00B5     		push	{lr}
 198              		.cfi_def_cfa_offset 4
 199              		.cfi_offset 14, -4
 200 0002 83B0     		sub	sp, sp, #12
 201              		.cfi_def_cfa_offset 16
 202              		.loc 3 358 0
 203 0004 114B     		ldr	r3, .L16
 204 0006 1B68     		ldr	r3, [r3]
 205 0008 0193     		str	r3, [sp, #4]
 206              		.loc 3 360 0
 207 000a FFF7FEFF 		bl	_dbg_check_unlock
 208              		.loc 3 361 0
 209 000e FFF7FEFF 		bl	_stats_stop_measure_crit_thd
 210              		.loc 3 367 0
 211 0012 0F4B     		ldr	r3, .L16+4
 212 0014 1B68     		ldr	r3, [r3]
 213 0016 0E4A     		ldr	r2, .L16+4
 214 0018 9342     		cmp	r3, r2
 215 001a 0AD0     		beq	.L14
 216              		.loc 3 367 0 is_stmt 0 discriminator 2
 217 001c 0C4B     		ldr	r3, .L16+4
 218 001e 9B69     		ldr	r3, [r3, #24]
 219 0020 9A68     		ldr	r2, [r3, #8]
 220 0022 0B4B     		ldr	r3, .L16+4
 221 0024 1B68     		ldr	r3, [r3]
 222 0026 9B68     		ldr	r3, [r3, #8]
 223 0028 9A42     		cmp	r2, r3
 224 002a 02D2     		bcs	.L14
 225              		.loc 3 367 0 discriminator 3
 226 002c 0948     		ldr	r0, .L16+8
 227 002e FFF7FEFF 		bl	chSysHalt
 228              	.L14:
ARM GAS  C:\Users\PCHAUT~1\AppData\Local\Temp\ccqSs9HN.s 			page 5


 229              		.loc 3 371 0 is_stmt 1
 230 0032 FFF7FEFF 		bl	port_unlock
 231              		.loc 3 372 0
 232 0036 00BF     		nop
 233 0038 044B     		ldr	r3, .L16
 234 003a 019A     		ldr	r2, [sp, #4]
 235 003c 1B68     		ldr	r3, [r3]
 236 003e 9A42     		cmp	r2, r3
 237 0040 01D0     		beq	.L15
 238 0042 FFF7FEFF 		bl	__stack_chk_fail
 239              	.L15:
 240 0046 03B0     		add	sp, sp, #12
 241              		.cfi_def_cfa_offset 4
 242              		@ sp needed
 243 0048 5DF804FB 		ldr	pc, [sp], #4
 244              	.L17:
 245              		.align	2
 246              	.L16:
 247 004c 00000000 		.word	__stack_chk_guard
 248 0050 00000000 		.word	ch
 249 0054 00000000 		.word	__func__.7153
 250              		.cfi_endproc
 251              	.LFE146:
 252              		.size	chSysUnlock, .-chSysUnlock
 253              		.section	.text.chSemGetCounterI,"ax",%progbits
 254              		.align	1
 255              		.p2align 4,,15
 256              		.syntax unified
 257              		.thumb
 258              		.thumb_func
 259              		.fpu fpv4-sp-d16
 260              		.type	chSemGetCounterI, %function
 261              	chSemGetCounterI:
 262              	.LFB181:
 263              		.file 4 "../lib/e-puck2_main-processor/ChibiOS//os/rt/include/chsem.h"
 264              		.loc 4 149 0
 265              		.cfi_startproc
 266              		@ args = 0, pretend = 0, frame = 16
 267              		@ frame_needed = 0, uses_anonymous_args = 0
 268 0000 00B5     		push	{lr}
 269              		.cfi_def_cfa_offset 4
 270              		.cfi_offset 14, -4
 271 0002 85B0     		sub	sp, sp, #20
 272              		.cfi_def_cfa_offset 24
 273 0004 0190     		str	r0, [sp, #4]
 274              		.loc 4 149 0
 275 0006 094B     		ldr	r3, .L21
 276 0008 1B68     		ldr	r3, [r3]
 277 000a 0393     		str	r3, [sp, #12]
 278              		.loc 4 151 0
 279 000c FFF7FEFF 		bl	chDbgCheckClassI
 280              		.loc 4 153 0
 281 0010 019B     		ldr	r3, [sp, #4]
 282 0012 9B68     		ldr	r3, [r3, #8]
 283              		.loc 4 154 0
 284 0014 1846     		mov	r0, r3
 285 0016 054B     		ldr	r3, .L21
ARM GAS  C:\Users\PCHAUT~1\AppData\Local\Temp\ccqSs9HN.s 			page 6


 286 0018 039A     		ldr	r2, [sp, #12]
 287 001a 1B68     		ldr	r3, [r3]
 288 001c 9A42     		cmp	r2, r3
 289 001e 01D0     		beq	.L20
 290 0020 FFF7FEFF 		bl	__stack_chk_fail
 291              	.L20:
 292 0024 05B0     		add	sp, sp, #20
 293              		.cfi_def_cfa_offset 4
 294              		@ sp needed
 295 0026 5DF804FB 		ldr	pc, [sp], #4
 296              	.L22:
 297 002a 00BF     		.align	2
 298              	.L21:
 299 002c 00000000 		.word	__stack_chk_guard
 300              		.cfi_endproc
 301              	.LFE181:
 302              		.size	chSemGetCounterI, .-chSemGetCounterI
 303              		.section	.text.chMBGetFreeCountI,"ax",%progbits
 304              		.align	1
 305              		.p2align 4,,15
 306              		.syntax unified
 307              		.thumb
 308              		.thumb_func
 309              		.fpu fpv4-sp-d16
 310              		.type	chMBGetFreeCountI, %function
 311              	chMBGetFreeCountI:
 312              	.LFB204:
 313              		.file 5 "../lib/e-puck2_main-processor/ChibiOS//os/rt/include/chmboxes.h"
 314              		.loc 5 158 0
 315              		.cfi_startproc
 316              		@ args = 0, pretend = 0, frame = 16
 317              		@ frame_needed = 0, uses_anonymous_args = 0
 318 0000 00B5     		push	{lr}
 319              		.cfi_def_cfa_offset 4
 320              		.cfi_offset 14, -4
 321 0002 85B0     		sub	sp, sp, #20
 322              		.cfi_def_cfa_offset 24
 323 0004 0190     		str	r0, [sp, #4]
 324              		.loc 5 158 0
 325 0006 0B4B     		ldr	r3, .L26
 326 0008 1B68     		ldr	r3, [r3]
 327 000a 0393     		str	r3, [sp, #12]
 328              		.loc 5 160 0
 329 000c FFF7FEFF 		bl	chDbgCheckClassI
 330              		.loc 5 162 0
 331 0010 019B     		ldr	r3, [sp, #4]
 332 0012 1C33     		adds	r3, r3, #28
 333 0014 1846     		mov	r0, r3
 334 0016 FFF7FEFF 		bl	chSemGetCounterI
 335 001a 0346     		mov	r3, r0
 336              		.loc 5 163 0
 337 001c 1846     		mov	r0, r3
 338 001e 054B     		ldr	r3, .L26
 339 0020 039A     		ldr	r2, [sp, #12]
 340 0022 1B68     		ldr	r3, [r3]
 341 0024 9A42     		cmp	r2, r3
 342 0026 01D0     		beq	.L25
ARM GAS  C:\Users\PCHAUT~1\AppData\Local\Temp\ccqSs9HN.s 			page 7


 343 0028 FFF7FEFF 		bl	__stack_chk_fail
 344              	.L25:
 345 002c 05B0     		add	sp, sp, #20
 346              		.cfi_def_cfa_offset 4
 347              		@ sp needed
 348 002e 5DF804FB 		ldr	pc, [sp], #4
 349              	.L27:
 350 0032 00BF     		.align	2
 351              	.L26:
 352 0034 00000000 		.word	__stack_chk_guard
 353              		.cfi_endproc
 354              	.LFE204:
 355              		.size	chMBGetFreeCountI, .-chMBGetFreeCountI
 356              		.section	.text.chMBGetUsedCountI,"ax",%progbits
 357              		.align	1
 358              		.p2align 4,,15
 359              		.syntax unified
 360              		.thumb
 361              		.thumb_func
 362              		.fpu fpv4-sp-d16
 363              		.type	chMBGetUsedCountI, %function
 364              	chMBGetUsedCountI:
 365              	.LFB205:
 366              		.loc 5 177 0
 367              		.cfi_startproc
 368              		@ args = 0, pretend = 0, frame = 16
 369              		@ frame_needed = 0, uses_anonymous_args = 0
 370 0000 00B5     		push	{lr}
 371              		.cfi_def_cfa_offset 4
 372              		.cfi_offset 14, -4
 373 0002 85B0     		sub	sp, sp, #20
 374              		.cfi_def_cfa_offset 24
 375 0004 0190     		str	r0, [sp, #4]
 376              		.loc 5 177 0
 377 0006 0B4B     		ldr	r3, .L31
 378 0008 1B68     		ldr	r3, [r3]
 379 000a 0393     		str	r3, [sp, #12]
 380              		.loc 5 179 0
 381 000c FFF7FEFF 		bl	chDbgCheckClassI
 382              		.loc 5 181 0
 383 0010 019B     		ldr	r3, [sp, #4]
 384 0012 1033     		adds	r3, r3, #16
 385 0014 1846     		mov	r0, r3
 386 0016 FFF7FEFF 		bl	chSemGetCounterI
 387 001a 0346     		mov	r3, r0
 388              		.loc 5 182 0
 389 001c 1846     		mov	r0, r3
 390 001e 054B     		ldr	r3, .L31
 391 0020 039A     		ldr	r2, [sp, #12]
 392 0022 1B68     		ldr	r3, [r3]
 393 0024 9A42     		cmp	r2, r3
 394 0026 01D0     		beq	.L30
 395 0028 FFF7FEFF 		bl	__stack_chk_fail
 396              	.L30:
 397 002c 05B0     		add	sp, sp, #20
 398              		.cfi_def_cfa_offset 4
 399              		@ sp needed
ARM GAS  C:\Users\PCHAUT~1\AppData\Local\Temp\ccqSs9HN.s 			page 8


 400 002e 5DF804FB 		ldr	pc, [sp], #4
 401              	.L32:
 402 0032 00BF     		.align	2
 403              	.L31:
 404 0034 00000000 		.word	__stack_chk_guard
 405              		.cfi_endproc
 406              	.LFE205:
 407              		.size	chMBGetUsedCountI, .-chMBGetUsedCountI
 408              		.section	.data.mb1,"aw",%progbits
 409              		.align	2
 410              		.type	mb1, %object
 411              		.size	mb1, 40
 412              	mb1:
 413 0000 00000000 		.word	test
 414 0004 14000000 		.word	test+20
 415 0008 00000000 		.word	test
 416 000c 00000000 		.word	test
 417 0010 10000000 		.word	mb1+16
 418 0014 10000000 		.word	mb1+16
 419 0018 00000000 		.word	0
 420 001c 1C000000 		.word	mb1+28
 421 0020 1C000000 		.word	mb1+28
 422 0024 05000000 		.word	5
 423              		.section	.text.mbox1_setup,"ax",%progbits
 424              		.align	1
 425              		.p2align 4,,15
 426              		.syntax unified
 427              		.thumb
 428              		.thumb_func
 429              		.fpu fpv4-sp-d16
 430              		.type	mbox1_setup, %function
 431              	mbox1_setup:
 432              	.LFB219:
 433              		.file 6 "../lib/e-puck2_main-processor/ChibiOS//test/rt/testmbox.c"
 434              		.loc 6 71 0
 435              		.cfi_startproc
 436              		@ args = 0, pretend = 0, frame = 8
 437              		@ frame_needed = 0, uses_anonymous_args = 0
 438 0000 00B5     		push	{lr}
 439              		.cfi_def_cfa_offset 4
 440              		.cfi_offset 14, -4
 441 0002 83B0     		sub	sp, sp, #12
 442              		.cfi_def_cfa_offset 16
 443              		.loc 6 71 0
 444 0004 094B     		ldr	r3, .L35
 445 0006 1B68     		ldr	r3, [r3]
 446 0008 0193     		str	r3, [sp, #4]
 447              		.loc 6 73 0
 448 000a 0522     		movs	r2, #5
 449 000c 0849     		ldr	r1, .L35+4
 450 000e 0948     		ldr	r0, .L35+8
 451 0010 FFF7FEFF 		bl	chMBObjectInit
 452              		.loc 6 74 0
 453 0014 00BF     		nop
 454 0016 054B     		ldr	r3, .L35
 455 0018 019A     		ldr	r2, [sp, #4]
 456 001a 1B68     		ldr	r3, [r3]
ARM GAS  C:\Users\PCHAUT~1\AppData\Local\Temp\ccqSs9HN.s 			page 9


 457 001c 9A42     		cmp	r2, r3
 458 001e 01D0     		beq	.L34
 459 0020 FFF7FEFF 		bl	__stack_chk_fail
 460              	.L34:
 461 0024 03B0     		add	sp, sp, #12
 462              		.cfi_def_cfa_offset 4
 463              		@ sp needed
 464 0026 5DF804FB 		ldr	pc, [sp], #4
 465              	.L36:
 466 002a 00BF     		.align	2
 467              	.L35:
 468 002c 00000000 		.word	__stack_chk_guard
 469 0030 00000000 		.word	test
 470 0034 00000000 		.word	mb1
 471              		.cfi_endproc
 472              	.LFE219:
 473              		.size	mbox1_setup, .-mbox1_setup
 474              		.section	.rodata
 475              		.align	2
 476              	.LC0:
 477 0000 41424344 		.ascii	"ABCDE\000"
 477      4500
 478              		.section	.text.mbox1_execute,"ax",%progbits
 479              		.align	1
 480              		.p2align 4,,15
 481              		.syntax unified
 482              		.thumb
 483              		.thumb_func
 484              		.fpu fpv4-sp-d16
 485              		.type	mbox1_execute, %function
 486              	mbox1_execute:
 487              	.LFB220:
 488              		.loc 6 76 0
 489              		.cfi_startproc
 490              		@ args = 0, pretend = 0, frame = 16
 491              		@ frame_needed = 0, uses_anonymous_args = 0
 492 0000 00B5     		push	{lr}
 493              		.cfi_def_cfa_offset 4
 494              		.cfi_offset 14, -4
 495 0002 85B0     		sub	sp, sp, #20
 496              		.cfi_def_cfa_offset 24
 497              		.loc 6 76 0
 498 0004 784B     		ldr	r3, .L128
 499 0006 1B68     		ldr	r3, [r3]
 500 0008 0393     		str	r3, [sp, #12]
 501              		.loc 6 83 0
 502 000a FFF7FEFF 		bl	chSysLock
 503 000e 7748     		ldr	r0, .L128+4
 504 0010 FFF7FEFF 		bl	chMBGetFreeCountI
 505 0014 0346     		mov	r3, r0
 506 0016 052B     		cmp	r3, #5
 507 0018 0CBF     		ite	eq
 508 001a 0123     		moveq	r3, #1
 509 001c 0023     		movne	r3, #0
 510 001e DBB2     		uxtb	r3, r3
 511 0020 1946     		mov	r1, r3
 512 0022 0120     		movs	r0, #1
ARM GAS  C:\Users\PCHAUT~1\AppData\Local\Temp\ccqSs9HN.s 			page 10


 513 0024 FFF7FEFF 		bl	_test_assert
 514 0028 0346     		mov	r3, r0
 515 002a 002B     		cmp	r3, #0
 516 002c 03D0     		beq	.L38
 517              		.loc 6 83 0 is_stmt 0 discriminator 1
 518 002e FFF7FEFF 		bl	chSysUnlock
 519 0032 00F033BC 		b	.L37
 520              	.L38:
 521              		.loc 6 83 0 discriminator 2
 522 0036 FFF7FEFF 		bl	chSysUnlock
 523              		.loc 6 88 0 is_stmt 1 discriminator 2
 524 003a 0023     		movs	r3, #0
 525 003c 0193     		str	r3, [sp, #4]
 526 003e 19E0     		b	.L40
 527              	.L42:
 528              		.loc 6 89 0
 529 0040 019B     		ldr	r3, [sp, #4]
 530 0042 4233     		adds	r3, r3, #66
 531 0044 4FF0FF32 		mov	r2, #-1
 532 0048 1946     		mov	r1, r3
 533 004a 6848     		ldr	r0, .L128+4
 534 004c FFF7FEFF 		bl	chMBPost
 535 0050 0290     		str	r0, [sp, #8]
 536              		.loc 6 90 0
 537 0052 029B     		ldr	r3, [sp, #8]
 538 0054 002B     		cmp	r3, #0
 539 0056 0CBF     		ite	eq
 540 0058 0123     		moveq	r3, #1
 541 005a 0023     		movne	r3, #0
 542 005c DBB2     		uxtb	r3, r3
 543 005e 1946     		mov	r1, r3
 544 0060 0220     		movs	r0, #2
 545 0062 FFF7FEFF 		bl	_test_assert
 546 0066 0346     		mov	r3, r0
 547 0068 002B     		cmp	r3, #0
 548 006a 40F0D883 		bne	.L96
 549              		.loc 6 88 0 discriminator 2
 550 006e 019B     		ldr	r3, [sp, #4]
 551 0070 0133     		adds	r3, r3, #1
 552 0072 0193     		str	r3, [sp, #4]
 553              	.L40:
 554              		.loc 6 88 0 is_stmt 0 discriminator 1
 555 0074 019B     		ldr	r3, [sp, #4]
 556 0076 032B     		cmp	r3, #3
 557 0078 E2D9     		bls	.L42
 558              		.loc 6 92 0 is_stmt 1
 559 007a 4FF0FF32 		mov	r2, #-1
 560 007e 4121     		movs	r1, #65
 561 0080 5A48     		ldr	r0, .L128+4
 562 0082 FFF7FEFF 		bl	chMBPostAhead
 563 0086 0290     		str	r0, [sp, #8]
 564              		.loc 6 93 0
 565 0088 029B     		ldr	r3, [sp, #8]
 566 008a 002B     		cmp	r3, #0
 567 008c 0CBF     		ite	eq
 568 008e 0123     		moveq	r3, #1
 569 0090 0023     		movne	r3, #0
ARM GAS  C:\Users\PCHAUT~1\AppData\Local\Temp\ccqSs9HN.s 			page 11


 570 0092 DBB2     		uxtb	r3, r3
 571 0094 1946     		mov	r1, r3
 572 0096 0320     		movs	r0, #3
 573 0098 FFF7FEFF 		bl	_test_assert
 574 009c 0346     		mov	r3, r0
 575 009e 002B     		cmp	r3, #0
 576 00a0 40F0BF83 		bne	.L97
 577              		.loc 6 98 0
 578 00a4 0122     		movs	r2, #1
 579 00a6 5821     		movs	r1, #88
 580 00a8 5048     		ldr	r0, .L128+4
 581 00aa FFF7FEFF 		bl	chMBPost
 582 00ae 0290     		str	r0, [sp, #8]
 583              		.loc 6 99 0
 584 00b0 029B     		ldr	r3, [sp, #8]
 585 00b2 B3F1FF3F 		cmp	r3, #-1
 586 00b6 0CBF     		ite	eq
 587 00b8 0123     		moveq	r3, #1
 588 00ba 0023     		movne	r3, #0
 589 00bc DBB2     		uxtb	r3, r3
 590 00be 1946     		mov	r1, r3
 591 00c0 0420     		movs	r0, #4
 592 00c2 FFF7FEFF 		bl	_test_assert
 593 00c6 0346     		mov	r3, r0
 594 00c8 002B     		cmp	r3, #0
 595 00ca 40F0AC83 		bne	.L98
 596              		.loc 6 100 0
 597 00ce FFF7FEFF 		bl	chSysLock
 598              		.loc 6 101 0
 599 00d2 5821     		movs	r1, #88
 600 00d4 4548     		ldr	r0, .L128+4
 601 00d6 FFF7FEFF 		bl	chMBPostI
 602 00da 0290     		str	r0, [sp, #8]
 603              		.loc 6 102 0
 604 00dc FFF7FEFF 		bl	chSysUnlock
 605              		.loc 6 103 0
 606 00e0 029B     		ldr	r3, [sp, #8]
 607 00e2 B3F1FF3F 		cmp	r3, #-1
 608 00e6 0CBF     		ite	eq
 609 00e8 0123     		moveq	r3, #1
 610 00ea 0023     		movne	r3, #0
 611 00ec DBB2     		uxtb	r3, r3
 612 00ee 1946     		mov	r1, r3
 613 00f0 0520     		movs	r0, #5
 614 00f2 FFF7FEFF 		bl	_test_assert
 615 00f6 0346     		mov	r3, r0
 616 00f8 002B     		cmp	r3, #0
 617 00fa 40F09683 		bne	.L99
 618              		.loc 6 104 0
 619 00fe 0122     		movs	r2, #1
 620 0100 5821     		movs	r1, #88
 621 0102 3A48     		ldr	r0, .L128+4
 622 0104 FFF7FEFF 		bl	chMBPostAhead
 623 0108 0290     		str	r0, [sp, #8]
 624              		.loc 6 105 0
 625 010a 029B     		ldr	r3, [sp, #8]
 626 010c B3F1FF3F 		cmp	r3, #-1
ARM GAS  C:\Users\PCHAUT~1\AppData\Local\Temp\ccqSs9HN.s 			page 12


 627 0110 0CBF     		ite	eq
 628 0112 0123     		moveq	r3, #1
 629 0114 0023     		movne	r3, #0
 630 0116 DBB2     		uxtb	r3, r3
 631 0118 1946     		mov	r1, r3
 632 011a 0620     		movs	r0, #6
 633 011c FFF7FEFF 		bl	_test_assert
 634 0120 0346     		mov	r3, r0
 635 0122 002B     		cmp	r3, #0
 636 0124 40F08383 		bne	.L100
 637              		.loc 6 106 0
 638 0128 FFF7FEFF 		bl	chSysLock
 639              		.loc 6 107 0
 640 012c 5821     		movs	r1, #88
 641 012e 2F48     		ldr	r0, .L128+4
 642 0130 FFF7FEFF 		bl	chMBPostAheadI
 643 0134 0290     		str	r0, [sp, #8]
 644              		.loc 6 108 0
 645 0136 FFF7FEFF 		bl	chSysUnlock
 646              		.loc 6 109 0
 647 013a 029B     		ldr	r3, [sp, #8]
 648 013c B3F1FF3F 		cmp	r3, #-1
 649 0140 0CBF     		ite	eq
 650 0142 0123     		moveq	r3, #1
 651 0144 0023     		movne	r3, #0
 652 0146 DBB2     		uxtb	r3, r3
 653 0148 1946     		mov	r1, r3
 654 014a 0720     		movs	r0, #7
 655 014c FFF7FEFF 		bl	_test_assert
 656 0150 0346     		mov	r3, r0
 657 0152 002B     		cmp	r3, #0
 658 0154 40F06D83 		bne	.L101
 659              		.loc 6 114 0
 660 0158 FFF7FEFF 		bl	chSysLock
 661 015c 2348     		ldr	r0, .L128+4
 662 015e FFF7FEFF 		bl	chMBGetFreeCountI
 663 0162 0346     		mov	r3, r0
 664 0164 002B     		cmp	r3, #0
 665 0166 0CBF     		ite	eq
 666 0168 0123     		moveq	r3, #1
 667 016a 0023     		movne	r3, #0
 668 016c DBB2     		uxtb	r3, r3
 669 016e 1946     		mov	r1, r3
 670 0170 0820     		movs	r0, #8
 671 0172 FFF7FEFF 		bl	_test_assert
 672 0176 0346     		mov	r3, r0
 673 0178 002B     		cmp	r3, #0
 674 017a 02D0     		beq	.L48
 675              		.loc 6 114 0 is_stmt 0 discriminator 1
 676 017c FFF7FEFF 		bl	chSysUnlock
 677 0180 8CE3     		b	.L37
 678              	.L48:
 679              		.loc 6 114 0 discriminator 2
 680 0182 FFF7FEFF 		bl	chSysUnlock
 681              		.loc 6 115 0 is_stmt 1 discriminator 2
 682 0186 FFF7FEFF 		bl	chSysLock
 683 018a 1848     		ldr	r0, .L128+4
ARM GAS  C:\Users\PCHAUT~1\AppData\Local\Temp\ccqSs9HN.s 			page 13


 684 018c FFF7FEFF 		bl	chMBGetUsedCountI
 685 0190 0346     		mov	r3, r0
 686 0192 052B     		cmp	r3, #5
 687 0194 0CBF     		ite	eq
 688 0196 0123     		moveq	r3, #1
 689 0198 0023     		movne	r3, #0
 690 019a DBB2     		uxtb	r3, r3
 691 019c 1946     		mov	r1, r3
 692 019e 0920     		movs	r0, #9
 693 01a0 FFF7FEFF 		bl	_test_assert
 694 01a4 0346     		mov	r3, r0
 695 01a6 002B     		cmp	r3, #0
 696 01a8 02D0     		beq	.L49
 697              		.loc 6 115 0 is_stmt 0 discriminator 1
 698 01aa FFF7FEFF 		bl	chSysUnlock
 699 01ae 75E3     		b	.L37
 700              	.L49:
 701              		.loc 6 115 0 discriminator 2
 702 01b0 FFF7FEFF 		bl	chSysUnlock
 703              		.loc 6 116 0 is_stmt 1 discriminator 2
 704 01b4 FFF7FEFF 		bl	chSysLock
 705 01b8 0C4B     		ldr	r3, .L128+4
 706 01ba DA68     		ldr	r2, [r3, #12]
 707 01bc 0B4B     		ldr	r3, .L128+4
 708 01be 9B68     		ldr	r3, [r3, #8]
 709 01c0 9A42     		cmp	r2, r3
 710 01c2 0CBF     		ite	eq
 711 01c4 0123     		moveq	r3, #1
 712 01c6 0023     		movne	r3, #0
 713 01c8 DBB2     		uxtb	r3, r3
 714 01ca 1946     		mov	r1, r3
 715 01cc 0A20     		movs	r0, #10
 716 01ce FFF7FEFF 		bl	_test_assert
 717 01d2 0346     		mov	r3, r0
 718 01d4 002B     		cmp	r3, #0
 719 01d6 02D0     		beq	.L50
 720              		.loc 6 116 0 is_stmt 0 discriminator 1
 721 01d8 FFF7FEFF 		bl	chSysUnlock
 722 01dc 5EE3     		b	.L37
 723              	.L50:
 724              		.loc 6 116 0 discriminator 2
 725 01de FFF7FEFF 		bl	chSysUnlock
 726              		.loc 6 121 0 is_stmt 1 discriminator 2
 727 01e2 0023     		movs	r3, #0
 728 01e4 0193     		str	r3, [sp, #4]
 729 01e6 21E0     		b	.L51
 730              	.L129:
 731              		.align	2
 732              	.L128:
 733 01e8 00000000 		.word	__stack_chk_guard
 734 01ec 00000000 		.word	mb1
 735              	.L53:
 736              		.loc 6 122 0
 737 01f0 6B46     		mov	r3, sp
 738 01f2 4FF0FF32 		mov	r2, #-1
 739 01f6 1946     		mov	r1, r3
 740 01f8 AF48     		ldr	r0, .L130
ARM GAS  C:\Users\PCHAUT~1\AppData\Local\Temp\ccqSs9HN.s 			page 14


 741 01fa FFF7FEFF 		bl	chMBFetch
 742 01fe 0290     		str	r0, [sp, #8]
 743              		.loc 6 123 0
 744 0200 029B     		ldr	r3, [sp, #8]
 745 0202 002B     		cmp	r3, #0
 746 0204 0CBF     		ite	eq
 747 0206 0123     		moveq	r3, #1
 748 0208 0023     		movne	r3, #0
 749 020a DBB2     		uxtb	r3, r3
 750 020c 1946     		mov	r1, r3
 751 020e 0B20     		movs	r0, #11
 752 0210 FFF7FEFF 		bl	_test_assert
 753 0214 0346     		mov	r3, r0
 754 0216 002B     		cmp	r3, #0
 755 0218 40F00D83 		bne	.L102
 756              		.loc 6 124 0 discriminator 2
 757 021c 009B     		ldr	r3, [sp]
 758 021e DBB2     		uxtb	r3, r3
 759 0220 1846     		mov	r0, r3
 760 0222 FFF7FEFF 		bl	test_emit_token
 761              		.loc 6 121 0 discriminator 2
 762 0226 019B     		ldr	r3, [sp, #4]
 763 0228 0133     		adds	r3, r3, #1
 764 022a 0193     		str	r3, [sp, #4]
 765              	.L51:
 766              		.loc 6 121 0 is_stmt 0 discriminator 1
 767 022c 019B     		ldr	r3, [sp, #4]
 768 022e 042B     		cmp	r3, #4
 769 0230 DED9     		bls	.L53
 770              		.loc 6 126 0 is_stmt 1
 771 0232 A249     		ldr	r1, .L130+4
 772 0234 0C20     		movs	r0, #12
 773 0236 FFF7FEFF 		bl	_test_assert_sequence
 774 023a 0346     		mov	r3, r0
 775 023c 002B     		cmp	r3, #0
 776 023e 40F0FC82 		bne	.L103
 777              		.loc 6 131 0
 778 0242 019B     		ldr	r3, [sp, #4]
 779 0244 4233     		adds	r3, r3, #66
 780 0246 4FF0FF32 		mov	r2, #-1
 781 024a 1946     		mov	r1, r3
 782 024c 9A48     		ldr	r0, .L130
 783 024e FFF7FEFF 		bl	chMBPost
 784 0252 0290     		str	r0, [sp, #8]
 785              		.loc 6 132 0
 786 0254 029B     		ldr	r3, [sp, #8]
 787 0256 002B     		cmp	r3, #0
 788 0258 0CBF     		ite	eq
 789 025a 0123     		moveq	r3, #1
 790 025c 0023     		movne	r3, #0
 791 025e DBB2     		uxtb	r3, r3
 792 0260 1946     		mov	r1, r3
 793 0262 0D20     		movs	r0, #13
 794 0264 FFF7FEFF 		bl	_test_assert
 795 0268 0346     		mov	r3, r0
 796 026a 002B     		cmp	r3, #0
 797 026c 40F0E782 		bne	.L104
ARM GAS  C:\Users\PCHAUT~1\AppData\Local\Temp\ccqSs9HN.s 			page 15


 798              		.loc 6 133 0
 799 0270 6B46     		mov	r3, sp
 800 0272 4FF0FF32 		mov	r2, #-1
 801 0276 1946     		mov	r1, r3
 802 0278 8F48     		ldr	r0, .L130
 803 027a FFF7FEFF 		bl	chMBFetch
 804 027e 0290     		str	r0, [sp, #8]
 805              		.loc 6 134 0
 806 0280 029B     		ldr	r3, [sp, #8]
 807 0282 002B     		cmp	r3, #0
 808 0284 0CBF     		ite	eq
 809 0286 0123     		moveq	r3, #1
 810 0288 0023     		movne	r3, #0
 811 028a DBB2     		uxtb	r3, r3
 812 028c 1946     		mov	r1, r3
 813 028e 0E20     		movs	r0, #14
 814 0290 FFF7FEFF 		bl	_test_assert
 815 0294 0346     		mov	r3, r0
 816 0296 002B     		cmp	r3, #0
 817 0298 40F0D382 		bne	.L105
 818              		.loc 6 135 0
 819 029c 864B     		ldr	r3, .L130
 820 029e 1A68     		ldr	r2, [r3]
 821 02a0 854B     		ldr	r3, .L130
 822 02a2 9B68     		ldr	r3, [r3, #8]
 823 02a4 9A42     		cmp	r2, r3
 824 02a6 0CBF     		ite	eq
 825 02a8 0123     		moveq	r3, #1
 826 02aa 0023     		movne	r3, #0
 827 02ac DBB2     		uxtb	r3, r3
 828 02ae 1946     		mov	r1, r3
 829 02b0 0F20     		movs	r0, #15
 830 02b2 FFF7FEFF 		bl	_test_assert
 831 02b6 0346     		mov	r3, r0
 832 02b8 002B     		cmp	r3, #0
 833 02ba 40F0C482 		bne	.L106
 834              		.loc 6 136 0
 835 02be 7E4B     		ldr	r3, .L130
 836 02c0 1A68     		ldr	r2, [r3]
 837 02c2 7D4B     		ldr	r3, .L130
 838 02c4 DB68     		ldr	r3, [r3, #12]
 839 02c6 9A42     		cmp	r2, r3
 840 02c8 0CBF     		ite	eq
 841 02ca 0123     		moveq	r3, #1
 842 02cc 0023     		movne	r3, #0
 843 02ce DBB2     		uxtb	r3, r3
 844 02d0 1946     		mov	r1, r3
 845 02d2 1020     		movs	r0, #16
 846 02d4 FFF7FEFF 		bl	_test_assert
 847 02d8 0346     		mov	r3, r0
 848 02da 002B     		cmp	r3, #0
 849 02dc 40F0B582 		bne	.L107
 850              		.loc 6 141 0
 851 02e0 6B46     		mov	r3, sp
 852 02e2 0122     		movs	r2, #1
 853 02e4 1946     		mov	r1, r3
 854 02e6 7448     		ldr	r0, .L130
ARM GAS  C:\Users\PCHAUT~1\AppData\Local\Temp\ccqSs9HN.s 			page 16


 855 02e8 FFF7FEFF 		bl	chMBFetch
 856 02ec 0290     		str	r0, [sp, #8]
 857              		.loc 6 142 0
 858 02ee 029B     		ldr	r3, [sp, #8]
 859 02f0 B3F1FF3F 		cmp	r3, #-1
 860 02f4 0CBF     		ite	eq
 861 02f6 0123     		moveq	r3, #1
 862 02f8 0023     		movne	r3, #0
 863 02fa DBB2     		uxtb	r3, r3
 864 02fc 1946     		mov	r1, r3
 865 02fe 1120     		movs	r0, #17
 866 0300 FFF7FEFF 		bl	_test_assert
 867 0304 0346     		mov	r3, r0
 868 0306 002B     		cmp	r3, #0
 869 0308 40F0A182 		bne	.L108
 870              		.loc 6 143 0
 871 030c FFF7FEFF 		bl	chSysLock
 872              		.loc 6 144 0
 873 0310 6B46     		mov	r3, sp
 874 0312 1946     		mov	r1, r3
 875 0314 6848     		ldr	r0, .L130
 876 0316 FFF7FEFF 		bl	chMBFetchI
 877 031a 0290     		str	r0, [sp, #8]
 878              		.loc 6 145 0
 879 031c FFF7FEFF 		bl	chSysUnlock
 880              		.loc 6 146 0
 881 0320 029B     		ldr	r3, [sp, #8]
 882 0322 B3F1FF3F 		cmp	r3, #-1
 883 0326 0CBF     		ite	eq
 884 0328 0123     		moveq	r3, #1
 885 032a 0023     		movne	r3, #0
 886 032c DBB2     		uxtb	r3, r3
 887 032e 1946     		mov	r1, r3
 888 0330 1220     		movs	r0, #18
 889 0332 FFF7FEFF 		bl	_test_assert
 890 0336 0346     		mov	r3, r0
 891 0338 002B     		cmp	r3, #0
 892 033a 40F08A82 		bne	.L109
 893              		.loc 6 151 0
 894 033e FFF7FEFF 		bl	chSysLock
 895 0342 5D48     		ldr	r0, .L130
 896 0344 FFF7FEFF 		bl	chMBGetFreeCountI
 897 0348 0346     		mov	r3, r0
 898 034a 052B     		cmp	r3, #5
 899 034c 0CBF     		ite	eq
 900 034e 0123     		moveq	r3, #1
 901 0350 0023     		movne	r3, #0
 902 0352 DBB2     		uxtb	r3, r3
 903 0354 1946     		mov	r1, r3
 904 0356 1320     		movs	r0, #19
 905 0358 FFF7FEFF 		bl	_test_assert
 906 035c 0346     		mov	r3, r0
 907 035e 002B     		cmp	r3, #0
 908 0360 02D0     		beq	.L61
 909              		.loc 6 151 0 is_stmt 0 discriminator 1
 910 0362 FFF7FEFF 		bl	chSysUnlock
 911 0366 99E2     		b	.L37
ARM GAS  C:\Users\PCHAUT~1\AppData\Local\Temp\ccqSs9HN.s 			page 17


 912              	.L61:
 913              		.loc 6 151 0 discriminator 2
 914 0368 FFF7FEFF 		bl	chSysUnlock
 915              		.loc 6 152 0 is_stmt 1 discriminator 2
 916 036c FFF7FEFF 		bl	chSysLock
 917 0370 5148     		ldr	r0, .L130
 918 0372 FFF7FEFF 		bl	chMBGetUsedCountI
 919 0376 0346     		mov	r3, r0
 920 0378 002B     		cmp	r3, #0
 921 037a 0CBF     		ite	eq
 922 037c 0123     		moveq	r3, #1
 923 037e 0023     		movne	r3, #0
 924 0380 DBB2     		uxtb	r3, r3
 925 0382 1946     		mov	r1, r3
 926 0384 1420     		movs	r0, #20
 927 0386 FFF7FEFF 		bl	_test_assert
 928 038a 0346     		mov	r3, r0
 929 038c 002B     		cmp	r3, #0
 930 038e 02D0     		beq	.L62
 931              		.loc 6 152 0 is_stmt 0 discriminator 1
 932 0390 FFF7FEFF 		bl	chSysUnlock
 933 0394 82E2     		b	.L37
 934              	.L62:
 935              		.loc 6 152 0 discriminator 2
 936 0396 FFF7FEFF 		bl	chSysUnlock
 937              		.loc 6 153 0 is_stmt 1 discriminator 2
 938 039a FFF7FEFF 		bl	chSysLock
 939 039e 464B     		ldr	r3, .L130
 940 03a0 DA68     		ldr	r2, [r3, #12]
 941 03a2 454B     		ldr	r3, .L130
 942 03a4 9B68     		ldr	r3, [r3, #8]
 943 03a6 9A42     		cmp	r2, r3
 944 03a8 0CBF     		ite	eq
 945 03aa 0123     		moveq	r3, #1
 946 03ac 0023     		movne	r3, #0
 947 03ae DBB2     		uxtb	r3, r3
 948 03b0 1946     		mov	r1, r3
 949 03b2 1520     		movs	r0, #21
 950 03b4 FFF7FEFF 		bl	_test_assert
 951 03b8 0346     		mov	r3, r0
 952 03ba 002B     		cmp	r3, #0
 953 03bc 02D0     		beq	.L63
 954              		.loc 6 153 0 is_stmt 0 discriminator 1
 955 03be FFF7FEFF 		bl	chSysUnlock
 956 03c2 6BE2     		b	.L37
 957              	.L63:
 958              		.loc 6 153 0 discriminator 2
 959 03c4 FFF7FEFF 		bl	chSysUnlock
 960              		.loc 6 158 0 is_stmt 1 discriminator 2
 961 03c8 FFF7FEFF 		bl	chSysLock
 962              		.loc 6 159 0 discriminator 2
 963 03cc 4121     		movs	r1, #65
 964 03ce 3A48     		ldr	r0, .L130
 965 03d0 FFF7FEFF 		bl	chMBPostI
 966 03d4 0290     		str	r0, [sp, #8]
 967              		.loc 6 160 0 discriminator 2
 968 03d6 029B     		ldr	r3, [sp, #8]
ARM GAS  C:\Users\PCHAUT~1\AppData\Local\Temp\ccqSs9HN.s 			page 18


 969 03d8 002B     		cmp	r3, #0
 970 03da 0CBF     		ite	eq
 971 03dc 0123     		moveq	r3, #1
 972 03de 0023     		movne	r3, #0
 973 03e0 DBB2     		uxtb	r3, r3
 974 03e2 1946     		mov	r1, r3
 975 03e4 1620     		movs	r0, #22
 976 03e6 FFF7FEFF 		bl	_test_assert
 977 03ea 0346     		mov	r3, r0
 978 03ec 002B     		cmp	r3, #0
 979 03ee 40F03282 		bne	.L110
 980              		.loc 6 161 0
 981 03f2 4221     		movs	r1, #66
 982 03f4 3048     		ldr	r0, .L130
 983 03f6 FFF7FEFF 		bl	chMBPostI
 984 03fa 0290     		str	r0, [sp, #8]
 985              		.loc 6 162 0
 986 03fc 029B     		ldr	r3, [sp, #8]
 987 03fe 002B     		cmp	r3, #0
 988 0400 0CBF     		ite	eq
 989 0402 0123     		moveq	r3, #1
 990 0404 0023     		movne	r3, #0
 991 0406 DBB2     		uxtb	r3, r3
 992 0408 1946     		mov	r1, r3
 993 040a 1720     		movs	r0, #23
 994 040c FFF7FEFF 		bl	_test_assert
 995 0410 0346     		mov	r3, r0
 996 0412 002B     		cmp	r3, #0
 997 0414 40F02182 		bne	.L111
 998              		.loc 6 163 0
 999 0418 4321     		movs	r1, #67
 1000 041a 2748     		ldr	r0, .L130
 1001 041c FFF7FEFF 		bl	chMBPostI
 1002 0420 0290     		str	r0, [sp, #8]
 1003              		.loc 6 164 0
 1004 0422 029B     		ldr	r3, [sp, #8]
 1005 0424 002B     		cmp	r3, #0
 1006 0426 0CBF     		ite	eq
 1007 0428 0123     		moveq	r3, #1
 1008 042a 0023     		movne	r3, #0
 1009 042c DBB2     		uxtb	r3, r3
 1010 042e 1946     		mov	r1, r3
 1011 0430 1820     		movs	r0, #24
 1012 0432 FFF7FEFF 		bl	_test_assert
 1013 0436 0346     		mov	r3, r0
 1014 0438 002B     		cmp	r3, #0
 1015 043a 40F01082 		bne	.L112
 1016              		.loc 6 165 0
 1017 043e 4421     		movs	r1, #68
 1018 0440 1D48     		ldr	r0, .L130
 1019 0442 FFF7FEFF 		bl	chMBPostI
 1020 0446 0290     		str	r0, [sp, #8]
 1021              		.loc 6 166 0
 1022 0448 029B     		ldr	r3, [sp, #8]
 1023 044a 002B     		cmp	r3, #0
 1024 044c 0CBF     		ite	eq
 1025 044e 0123     		moveq	r3, #1
ARM GAS  C:\Users\PCHAUT~1\AppData\Local\Temp\ccqSs9HN.s 			page 19


 1026 0450 0023     		movne	r3, #0
 1027 0452 DBB2     		uxtb	r3, r3
 1028 0454 1946     		mov	r1, r3
 1029 0456 1920     		movs	r0, #25
 1030 0458 FFF7FEFF 		bl	_test_assert
 1031 045c 0346     		mov	r3, r0
 1032 045e 002B     		cmp	r3, #0
 1033 0460 40F0FF81 		bne	.L113
 1034              		.loc 6 167 0
 1035 0464 4521     		movs	r1, #69
 1036 0466 1448     		ldr	r0, .L130
 1037 0468 FFF7FEFF 		bl	chMBPostI
 1038 046c 0290     		str	r0, [sp, #8]
 1039              		.loc 6 168 0
 1040 046e FFF7FEFF 		bl	chSysUnlock
 1041              		.loc 6 169 0
 1042 0472 029B     		ldr	r3, [sp, #8]
 1043 0474 002B     		cmp	r3, #0
 1044 0476 0CBF     		ite	eq
 1045 0478 0123     		moveq	r3, #1
 1046 047a 0023     		movne	r3, #0
 1047 047c DBB2     		uxtb	r3, r3
 1048 047e 1946     		mov	r1, r3
 1049 0480 1A20     		movs	r0, #26
 1050 0482 FFF7FEFF 		bl	_test_assert
 1051 0486 0346     		mov	r3, r0
 1052 0488 002B     		cmp	r3, #0
 1053 048a 40F0EC81 		bne	.L114
 1054              		.loc 6 170 0
 1055 048e 0A4B     		ldr	r3, .L130
 1056 0490 DA68     		ldr	r2, [r3, #12]
 1057 0492 094B     		ldr	r3, .L130
 1058 0494 9B68     		ldr	r3, [r3, #8]
 1059 0496 9A42     		cmp	r2, r3
 1060 0498 0CBF     		ite	eq
 1061 049a 0123     		moveq	r3, #1
 1062 049c 0023     		movne	r3, #0
 1063 049e DBB2     		uxtb	r3, r3
 1064 04a0 1946     		mov	r1, r3
 1065 04a2 1B20     		movs	r0, #27
 1066 04a4 FFF7FEFF 		bl	_test_assert
 1067 04a8 0346     		mov	r3, r0
 1068 04aa 002B     		cmp	r3, #0
 1069 04ac 40F0DD81 		bne	.L115
 1070              		.loc 6 171 0
 1071 04b0 0023     		movs	r3, #0
 1072 04b2 0193     		str	r3, [sp, #4]
 1073 04b4 24E0     		b	.L70
 1074              	.L131:
 1075 04b6 00BF     		.align	2
 1076              	.L130:
 1077 04b8 00000000 		.word	mb1
 1078 04bc 00000000 		.word	.LC0
 1079              	.L72:
 1080              		.loc 6 172 0
 1081 04c0 FFF7FEFF 		bl	chSysLock
 1082              		.loc 6 173 0
ARM GAS  C:\Users\PCHAUT~1\AppData\Local\Temp\ccqSs9HN.s 			page 20


 1083 04c4 6B46     		mov	r3, sp
 1084 04c6 1946     		mov	r1, r3
 1085 04c8 BA48     		ldr	r0, .L132
 1086 04ca FFF7FEFF 		bl	chMBFetchI
 1087 04ce 0290     		str	r0, [sp, #8]
 1088              		.loc 6 174 0
 1089 04d0 FFF7FEFF 		bl	chSysUnlock
 1090              		.loc 6 175 0
 1091 04d4 029B     		ldr	r3, [sp, #8]
 1092 04d6 002B     		cmp	r3, #0
 1093 04d8 0CBF     		ite	eq
 1094 04da 0123     		moveq	r3, #1
 1095 04dc 0023     		movne	r3, #0
 1096 04de DBB2     		uxtb	r3, r3
 1097 04e0 1946     		mov	r1, r3
 1098 04e2 1C20     		movs	r0, #28
 1099 04e4 FFF7FEFF 		bl	_test_assert
 1100 04e8 0346     		mov	r3, r0
 1101 04ea 002B     		cmp	r3, #0
 1102 04ec 40F0BF81 		bne	.L116
 1103              		.loc 6 176 0 discriminator 2
 1104 04f0 009B     		ldr	r3, [sp]
 1105 04f2 DBB2     		uxtb	r3, r3
 1106 04f4 1846     		mov	r0, r3
 1107 04f6 FFF7FEFF 		bl	test_emit_token
 1108              		.loc 6 171 0 discriminator 2
 1109 04fa 019B     		ldr	r3, [sp, #4]
 1110 04fc 0133     		adds	r3, r3, #1
 1111 04fe 0193     		str	r3, [sp, #4]
 1112              	.L70:
 1113              		.loc 6 171 0 is_stmt 0 discriminator 1
 1114 0500 019B     		ldr	r3, [sp, #4]
 1115 0502 042B     		cmp	r3, #4
 1116 0504 DCD9     		bls	.L72
 1117              		.loc 6 178 0 is_stmt 1
 1118 0506 AC49     		ldr	r1, .L132+4
 1119 0508 1D20     		movs	r0, #29
 1120 050a FFF7FEFF 		bl	_test_assert_sequence
 1121 050e 0346     		mov	r3, r0
 1122 0510 002B     		cmp	r3, #0
 1123 0512 40F0AE81 		bne	.L117
 1124              		.loc 6 179 0
 1125 0516 FFF7FEFF 		bl	chSysLock
 1126 051a A648     		ldr	r0, .L132
 1127 051c FFF7FEFF 		bl	chMBGetFreeCountI
 1128 0520 0346     		mov	r3, r0
 1129 0522 052B     		cmp	r3, #5
 1130 0524 0CBF     		ite	eq
 1131 0526 0123     		moveq	r3, #1
 1132 0528 0023     		movne	r3, #0
 1133 052a DBB2     		uxtb	r3, r3
 1134 052c 1946     		mov	r1, r3
 1135 052e 1E20     		movs	r0, #30
 1136 0530 FFF7FEFF 		bl	_test_assert
 1137 0534 0346     		mov	r3, r0
 1138 0536 002B     		cmp	r3, #0
 1139 0538 02D0     		beq	.L74
ARM GAS  C:\Users\PCHAUT~1\AppData\Local\Temp\ccqSs9HN.s 			page 21


 1140              		.loc 6 179 0 is_stmt 0 discriminator 1
 1141 053a FFF7FEFF 		bl	chSysUnlock
 1142 053e ADE1     		b	.L37
 1143              	.L74:
 1144              		.loc 6 179 0 discriminator 2
 1145 0540 FFF7FEFF 		bl	chSysUnlock
 1146              		.loc 6 180 0 is_stmt 1 discriminator 2
 1147 0544 FFF7FEFF 		bl	chSysLock
 1148 0548 9A48     		ldr	r0, .L132
 1149 054a FFF7FEFF 		bl	chMBGetUsedCountI
 1150 054e 0346     		mov	r3, r0
 1151 0550 002B     		cmp	r3, #0
 1152 0552 0CBF     		ite	eq
 1153 0554 0123     		moveq	r3, #1
 1154 0556 0023     		movne	r3, #0
 1155 0558 DBB2     		uxtb	r3, r3
 1156 055a 1946     		mov	r1, r3
 1157 055c 1F20     		movs	r0, #31
 1158 055e FFF7FEFF 		bl	_test_assert
 1159 0562 0346     		mov	r3, r0
 1160 0564 002B     		cmp	r3, #0
 1161 0566 02D0     		beq	.L75
 1162              		.loc 6 180 0 is_stmt 0 discriminator 1
 1163 0568 FFF7FEFF 		bl	chSysUnlock
 1164 056c 96E1     		b	.L37
 1165              	.L75:
 1166              		.loc 6 180 0 discriminator 2
 1167 056e FFF7FEFF 		bl	chSysUnlock
 1168              		.loc 6 181 0 is_stmt 1 discriminator 2
 1169 0572 904B     		ldr	r3, .L132
 1170 0574 DA68     		ldr	r2, [r3, #12]
 1171 0576 8F4B     		ldr	r3, .L132
 1172 0578 9B68     		ldr	r3, [r3, #8]
 1173 057a 9A42     		cmp	r2, r3
 1174 057c 0CBF     		ite	eq
 1175 057e 0123     		moveq	r3, #1
 1176 0580 0023     		movne	r3, #0
 1177 0582 DBB2     		uxtb	r3, r3
 1178 0584 1946     		mov	r1, r3
 1179 0586 2020     		movs	r0, #32
 1180 0588 FFF7FEFF 		bl	_test_assert
 1181 058c 0346     		mov	r3, r0
 1182 058e 002B     		cmp	r3, #0
 1183 0590 40F07181 		bne	.L118
 1184              		.loc 6 183 0
 1185 0594 FFF7FEFF 		bl	chSysLock
 1186              		.loc 6 184 0
 1187 0598 4521     		movs	r1, #69
 1188 059a 8648     		ldr	r0, .L132
 1189 059c FFF7FEFF 		bl	chMBPostAheadI
 1190 05a0 0290     		str	r0, [sp, #8]
 1191              		.loc 6 185 0
 1192 05a2 029B     		ldr	r3, [sp, #8]
 1193 05a4 002B     		cmp	r3, #0
 1194 05a6 0CBF     		ite	eq
 1195 05a8 0123     		moveq	r3, #1
 1196 05aa 0023     		movne	r3, #0
ARM GAS  C:\Users\PCHAUT~1\AppData\Local\Temp\ccqSs9HN.s 			page 22


 1197 05ac DBB2     		uxtb	r3, r3
 1198 05ae 1946     		mov	r1, r3
 1199 05b0 2120     		movs	r0, #33
 1200 05b2 FFF7FEFF 		bl	_test_assert
 1201 05b6 0346     		mov	r3, r0
 1202 05b8 002B     		cmp	r3, #0
 1203 05ba 40F05E81 		bne	.L119
 1204              		.loc 6 186 0
 1205 05be 4421     		movs	r1, #68
 1206 05c0 7C48     		ldr	r0, .L132
 1207 05c2 FFF7FEFF 		bl	chMBPostAheadI
 1208 05c6 0290     		str	r0, [sp, #8]
 1209              		.loc 6 187 0
 1210 05c8 029B     		ldr	r3, [sp, #8]
 1211 05ca 002B     		cmp	r3, #0
 1212 05cc 0CBF     		ite	eq
 1213 05ce 0123     		moveq	r3, #1
 1214 05d0 0023     		movne	r3, #0
 1215 05d2 DBB2     		uxtb	r3, r3
 1216 05d4 1946     		mov	r1, r3
 1217 05d6 2220     		movs	r0, #34
 1218 05d8 FFF7FEFF 		bl	_test_assert
 1219 05dc 0346     		mov	r3, r0
 1220 05de 002B     		cmp	r3, #0
 1221 05e0 40F04D81 		bne	.L120
 1222              		.loc 6 188 0
 1223 05e4 4321     		movs	r1, #67
 1224 05e6 7348     		ldr	r0, .L132
 1225 05e8 FFF7FEFF 		bl	chMBPostAheadI
 1226 05ec 0290     		str	r0, [sp, #8]
 1227              		.loc 6 189 0
 1228 05ee 029B     		ldr	r3, [sp, #8]
 1229 05f0 002B     		cmp	r3, #0
 1230 05f2 0CBF     		ite	eq
 1231 05f4 0123     		moveq	r3, #1
 1232 05f6 0023     		movne	r3, #0
 1233 05f8 DBB2     		uxtb	r3, r3
 1234 05fa 1946     		mov	r1, r3
 1235 05fc 2320     		movs	r0, #35
 1236 05fe FFF7FEFF 		bl	_test_assert
 1237 0602 0346     		mov	r3, r0
 1238 0604 002B     		cmp	r3, #0
 1239 0606 40F03C81 		bne	.L121
 1240              		.loc 6 190 0
 1241 060a 4221     		movs	r1, #66
 1242 060c 6948     		ldr	r0, .L132
 1243 060e FFF7FEFF 		bl	chMBPostAheadI
 1244 0612 0290     		str	r0, [sp, #8]
 1245              		.loc 6 191 0
 1246 0614 029B     		ldr	r3, [sp, #8]
 1247 0616 002B     		cmp	r3, #0
 1248 0618 0CBF     		ite	eq
 1249 061a 0123     		moveq	r3, #1
 1250 061c 0023     		movne	r3, #0
 1251 061e DBB2     		uxtb	r3, r3
 1252 0620 1946     		mov	r1, r3
 1253 0622 2420     		movs	r0, #36
ARM GAS  C:\Users\PCHAUT~1\AppData\Local\Temp\ccqSs9HN.s 			page 23


 1254 0624 FFF7FEFF 		bl	_test_assert
 1255 0628 0346     		mov	r3, r0
 1256 062a 002B     		cmp	r3, #0
 1257 062c 40F02B81 		bne	.L122
 1258              		.loc 6 192 0
 1259 0630 4121     		movs	r1, #65
 1260 0632 6048     		ldr	r0, .L132
 1261 0634 FFF7FEFF 		bl	chMBPostAheadI
 1262 0638 0290     		str	r0, [sp, #8]
 1263              		.loc 6 193 0
 1264 063a FFF7FEFF 		bl	chSysUnlock
 1265              		.loc 6 194 0
 1266 063e 029B     		ldr	r3, [sp, #8]
 1267 0640 002B     		cmp	r3, #0
 1268 0642 0CBF     		ite	eq
 1269 0644 0123     		moveq	r3, #1
 1270 0646 0023     		movne	r3, #0
 1271 0648 DBB2     		uxtb	r3, r3
 1272 064a 1946     		mov	r1, r3
 1273 064c 2520     		movs	r0, #37
 1274 064e FFF7FEFF 		bl	_test_assert
 1275 0652 0346     		mov	r3, r0
 1276 0654 002B     		cmp	r3, #0
 1277 0656 40F01881 		bne	.L123
 1278              		.loc 6 195 0
 1279 065a 564B     		ldr	r3, .L132
 1280 065c DA68     		ldr	r2, [r3, #12]
 1281 065e 554B     		ldr	r3, .L132
 1282 0660 9B68     		ldr	r3, [r3, #8]
 1283 0662 9A42     		cmp	r2, r3
 1284 0664 0CBF     		ite	eq
 1285 0666 0123     		moveq	r3, #1
 1286 0668 0023     		movne	r3, #0
 1287 066a DBB2     		uxtb	r3, r3
 1288 066c 1946     		mov	r1, r3
 1289 066e 2620     		movs	r0, #38
 1290 0670 FFF7FEFF 		bl	_test_assert
 1291 0674 0346     		mov	r3, r0
 1292 0676 002B     		cmp	r3, #0
 1293 0678 40F00981 		bne	.L124
 1294              		.loc 6 196 0
 1295 067c 0023     		movs	r3, #0
 1296 067e 0193     		str	r3, [sp, #4]
 1297 0680 1FE0     		b	.L83
 1298              	.L85:
 1299              		.loc 6 197 0
 1300 0682 FFF7FEFF 		bl	chSysLock
 1301              		.loc 6 198 0
 1302 0686 6B46     		mov	r3, sp
 1303 0688 1946     		mov	r1, r3
 1304 068a 4A48     		ldr	r0, .L132
 1305 068c FFF7FEFF 		bl	chMBFetchI
 1306 0690 0290     		str	r0, [sp, #8]
 1307              		.loc 6 199 0
 1308 0692 FFF7FEFF 		bl	chSysUnlock
 1309              		.loc 6 200 0
 1310 0696 029B     		ldr	r3, [sp, #8]
ARM GAS  C:\Users\PCHAUT~1\AppData\Local\Temp\ccqSs9HN.s 			page 24


 1311 0698 002B     		cmp	r3, #0
 1312 069a 0CBF     		ite	eq
 1313 069c 0123     		moveq	r3, #1
 1314 069e 0023     		movne	r3, #0
 1315 06a0 DBB2     		uxtb	r3, r3
 1316 06a2 1946     		mov	r1, r3
 1317 06a4 2720     		movs	r0, #39
 1318 06a6 FFF7FEFF 		bl	_test_assert
 1319 06aa 0346     		mov	r3, r0
 1320 06ac 002B     		cmp	r3, #0
 1321 06ae 40F0F080 		bne	.L125
 1322              		.loc 6 201 0 discriminator 2
 1323 06b2 009B     		ldr	r3, [sp]
 1324 06b4 DBB2     		uxtb	r3, r3
 1325 06b6 1846     		mov	r0, r3
 1326 06b8 FFF7FEFF 		bl	test_emit_token
 1327              		.loc 6 196 0 discriminator 2
 1328 06bc 019B     		ldr	r3, [sp, #4]
 1329 06be 0133     		adds	r3, r3, #1
 1330 06c0 0193     		str	r3, [sp, #4]
 1331              	.L83:
 1332              		.loc 6 196 0 is_stmt 0 discriminator 1
 1333 06c2 019B     		ldr	r3, [sp, #4]
 1334 06c4 042B     		cmp	r3, #4
 1335 06c6 DCD9     		bls	.L85
 1336              		.loc 6 203 0 is_stmt 1
 1337 06c8 3B49     		ldr	r1, .L132+4
 1338 06ca 2820     		movs	r0, #40
 1339 06cc FFF7FEFF 		bl	_test_assert_sequence
 1340 06d0 0346     		mov	r3, r0
 1341 06d2 002B     		cmp	r3, #0
 1342 06d4 40F0DF80 		bne	.L126
 1343              		.loc 6 204 0
 1344 06d8 FFF7FEFF 		bl	chSysLock
 1345 06dc 3548     		ldr	r0, .L132
 1346 06de FFF7FEFF 		bl	chMBGetFreeCountI
 1347 06e2 0346     		mov	r3, r0
 1348 06e4 052B     		cmp	r3, #5
 1349 06e6 0CBF     		ite	eq
 1350 06e8 0123     		moveq	r3, #1
 1351 06ea 0023     		movne	r3, #0
 1352 06ec DBB2     		uxtb	r3, r3
 1353 06ee 1946     		mov	r1, r3
 1354 06f0 2920     		movs	r0, #41
 1355 06f2 FFF7FEFF 		bl	_test_assert
 1356 06f6 0346     		mov	r3, r0
 1357 06f8 002B     		cmp	r3, #0
 1358 06fa 02D0     		beq	.L87
 1359              		.loc 6 204 0 is_stmt 0 discriminator 1
 1360 06fc FFF7FEFF 		bl	chSysUnlock
 1361 0700 CCE0     		b	.L37
 1362              	.L87:
 1363              		.loc 6 204 0 discriminator 2
 1364 0702 FFF7FEFF 		bl	chSysUnlock
 1365              		.loc 6 205 0 is_stmt 1 discriminator 2
 1366 0706 FFF7FEFF 		bl	chSysLock
 1367 070a 2A48     		ldr	r0, .L132
ARM GAS  C:\Users\PCHAUT~1\AppData\Local\Temp\ccqSs9HN.s 			page 25


 1368 070c FFF7FEFF 		bl	chMBGetUsedCountI
 1369 0710 0346     		mov	r3, r0
 1370 0712 002B     		cmp	r3, #0
 1371 0714 0CBF     		ite	eq
 1372 0716 0123     		moveq	r3, #1
 1373 0718 0023     		movne	r3, #0
 1374 071a DBB2     		uxtb	r3, r3
 1375 071c 1946     		mov	r1, r3
 1376 071e 2A20     		movs	r0, #42
 1377 0720 FFF7FEFF 		bl	_test_assert
 1378 0724 0346     		mov	r3, r0
 1379 0726 002B     		cmp	r3, #0
 1380 0728 02D0     		beq	.L88
 1381              		.loc 6 205 0 is_stmt 0 discriminator 1
 1382 072a FFF7FEFF 		bl	chSysUnlock
 1383 072e B5E0     		b	.L37
 1384              	.L88:
 1385              		.loc 6 205 0 discriminator 2
 1386 0730 FFF7FEFF 		bl	chSysUnlock
 1387              		.loc 6 206 0 is_stmt 1 discriminator 2
 1388 0734 1F4B     		ldr	r3, .L132
 1389 0736 DA68     		ldr	r2, [r3, #12]
 1390 0738 1E4B     		ldr	r3, .L132
 1391 073a 9B68     		ldr	r3, [r3, #8]
 1392 073c 9A42     		cmp	r2, r3
 1393 073e 0CBF     		ite	eq
 1394 0740 0123     		moveq	r3, #1
 1395 0742 0023     		movne	r3, #0
 1396 0744 DBB2     		uxtb	r3, r3
 1397 0746 1946     		mov	r1, r3
 1398 0748 2B20     		movs	r0, #43
 1399 074a FFF7FEFF 		bl	_test_assert
 1400 074e 0346     		mov	r3, r0
 1401 0750 002B     		cmp	r3, #0
 1402 0752 40F0A280 		bne	.L127
 1403              		.loc 6 211 0
 1404 0756 1748     		ldr	r0, .L132
 1405 0758 FFF7FEFF 		bl	chMBReset
 1406              		.loc 6 216 0
 1407 075c FFF7FEFF 		bl	chSysLock
 1408 0760 1448     		ldr	r0, .L132
 1409 0762 FFF7FEFF 		bl	chMBGetFreeCountI
 1410 0766 0346     		mov	r3, r0
 1411 0768 052B     		cmp	r3, #5
 1412 076a 0CBF     		ite	eq
 1413 076c 0123     		moveq	r3, #1
 1414 076e 0023     		movne	r3, #0
 1415 0770 DBB2     		uxtb	r3, r3
 1416 0772 1946     		mov	r1, r3
 1417 0774 2C20     		movs	r0, #44
 1418 0776 FFF7FEFF 		bl	_test_assert
 1419 077a 0346     		mov	r3, r0
 1420 077c 002B     		cmp	r3, #0
 1421 077e 02D0     		beq	.L90
 1422              		.loc 6 216 0 is_stmt 0 discriminator 1
 1423 0780 FFF7FEFF 		bl	chSysUnlock
 1424 0784 8AE0     		b	.L37
ARM GAS  C:\Users\PCHAUT~1\AppData\Local\Temp\ccqSs9HN.s 			page 26


 1425              	.L90:
 1426              		.loc 6 216 0 discriminator 2
 1427 0786 FFF7FEFF 		bl	chSysUnlock
 1428              		.loc 6 217 0 is_stmt 1 discriminator 2
 1429 078a FFF7FEFF 		bl	chSysLock
 1430 078e 0948     		ldr	r0, .L132
 1431 0790 FFF7FEFF 		bl	chMBGetUsedCountI
 1432 0794 0346     		mov	r3, r0
 1433 0796 002B     		cmp	r3, #0
 1434 0798 0CBF     		ite	eq
 1435 079a 0123     		moveq	r3, #1
 1436 079c 0023     		movne	r3, #0
 1437 079e DBB2     		uxtb	r3, r3
 1438 07a0 1946     		mov	r1, r3
 1439 07a2 2D20     		movs	r0, #45
 1440 07a4 FFF7FEFF 		bl	_test_assert
 1441 07a8 0346     		mov	r3, r0
 1442 07aa 002B     		cmp	r3, #0
 1443 07ac 06D0     		beq	.L91
 1444              		.loc 6 217 0 is_stmt 0 discriminator 1
 1445 07ae FFF7FEFF 		bl	chSysUnlock
 1446 07b2 73E0     		b	.L37
 1447              	.L133:
 1448              		.align	2
 1449              	.L132:
 1450 07b4 00000000 		.word	mb1
 1451 07b8 00000000 		.word	.LC0
 1452              	.L91:
 1453              		.loc 6 217 0 discriminator 2
 1454 07bc FFF7FEFF 		bl	chSysUnlock
 1455              		.loc 6 218 0 is_stmt 1 discriminator 2
 1456 07c0 FFF7FEFF 		bl	chSysLock
 1457 07c4 3A4B     		ldr	r3, .L134
 1458 07c6 1A68     		ldr	r2, [r3]
 1459 07c8 394B     		ldr	r3, .L134
 1460 07ca 9B68     		ldr	r3, [r3, #8]
 1461 07cc 9A42     		cmp	r2, r3
 1462 07ce 0CBF     		ite	eq
 1463 07d0 0123     		moveq	r3, #1
 1464 07d2 0023     		movne	r3, #0
 1465 07d4 DBB2     		uxtb	r3, r3
 1466 07d6 1946     		mov	r1, r3
 1467 07d8 2E20     		movs	r0, #46
 1468 07da FFF7FEFF 		bl	_test_assert
 1469 07de 0346     		mov	r3, r0
 1470 07e0 002B     		cmp	r3, #0
 1471 07e2 02D0     		beq	.L92
 1472              		.loc 6 218 0 is_stmt 0 discriminator 1
 1473 07e4 FFF7FEFF 		bl	chSysUnlock
 1474 07e8 58E0     		b	.L37
 1475              	.L92:
 1476              		.loc 6 218 0 discriminator 2
 1477 07ea FFF7FEFF 		bl	chSysUnlock
 1478              		.loc 6 219 0 is_stmt 1 discriminator 2
 1479 07ee FFF7FEFF 		bl	chSysLock
 1480 07f2 2F4B     		ldr	r3, .L134
 1481 07f4 1A68     		ldr	r2, [r3]
ARM GAS  C:\Users\PCHAUT~1\AppData\Local\Temp\ccqSs9HN.s 			page 27


 1482 07f6 2E4B     		ldr	r3, .L134
 1483 07f8 DB68     		ldr	r3, [r3, #12]
 1484 07fa 9A42     		cmp	r2, r3
 1485 07fc 0CBF     		ite	eq
 1486 07fe 0123     		moveq	r3, #1
 1487 0800 0023     		movne	r3, #0
 1488 0802 DBB2     		uxtb	r3, r3
 1489 0804 1946     		mov	r1, r3
 1490 0806 2F20     		movs	r0, #47
 1491 0808 FFF7FEFF 		bl	_test_assert
 1492 080c 0346     		mov	r3, r0
 1493 080e 002B     		cmp	r3, #0
 1494 0810 02D0     		beq	.L93
 1495              		.loc 6 219 0 is_stmt 0 discriminator 1
 1496 0812 FFF7FEFF 		bl	chSysUnlock
 1497 0816 41E0     		b	.L37
 1498              	.L93:
 1499              		.loc 6 219 0 discriminator 2
 1500 0818 FFF7FEFF 		bl	chSysUnlock
 1501 081c 3EE0     		b	.L37
 1502              	.L96:
 1503              		.loc 6 90 0 is_stmt 1
 1504 081e 00BF     		nop
 1505 0820 3CE0     		b	.L37
 1506              	.L97:
 1507              		.loc 6 93 0
 1508 0822 00BF     		nop
 1509 0824 3AE0     		b	.L37
 1510              	.L98:
 1511              		.loc 6 99 0
 1512 0826 00BF     		nop
 1513 0828 38E0     		b	.L37
 1514              	.L99:
 1515              		.loc 6 103 0
 1516 082a 00BF     		nop
 1517 082c 36E0     		b	.L37
 1518              	.L100:
 1519              		.loc 6 105 0
 1520 082e 00BF     		nop
 1521 0830 34E0     		b	.L37
 1522              	.L101:
 1523              		.loc 6 109 0
 1524 0832 00BF     		nop
 1525 0834 32E0     		b	.L37
 1526              	.L102:
 1527              		.loc 6 123 0
 1528 0836 00BF     		nop
 1529 0838 30E0     		b	.L37
 1530              	.L103:
 1531              		.loc 6 126 0
 1532 083a 00BF     		nop
 1533 083c 2EE0     		b	.L37
 1534              	.L104:
 1535              		.loc 6 132 0
 1536 083e 00BF     		nop
 1537 0840 2CE0     		b	.L37
 1538              	.L105:
ARM GAS  C:\Users\PCHAUT~1\AppData\Local\Temp\ccqSs9HN.s 			page 28


 1539              		.loc 6 134 0
 1540 0842 00BF     		nop
 1541 0844 2AE0     		b	.L37
 1542              	.L106:
 1543              		.loc 6 135 0
 1544 0846 00BF     		nop
 1545 0848 28E0     		b	.L37
 1546              	.L107:
 1547              		.loc 6 136 0
 1548 084a 00BF     		nop
 1549 084c 26E0     		b	.L37
 1550              	.L108:
 1551              		.loc 6 142 0
 1552 084e 00BF     		nop
 1553 0850 24E0     		b	.L37
 1554              	.L109:
 1555              		.loc 6 146 0
 1556 0852 00BF     		nop
 1557 0854 22E0     		b	.L37
 1558              	.L110:
 1559              		.loc 6 160 0
 1560 0856 00BF     		nop
 1561 0858 20E0     		b	.L37
 1562              	.L111:
 1563              		.loc 6 162 0
 1564 085a 00BF     		nop
 1565 085c 1EE0     		b	.L37
 1566              	.L112:
 1567              		.loc 6 164 0
 1568 085e 00BF     		nop
 1569 0860 1CE0     		b	.L37
 1570              	.L113:
 1571              		.loc 6 166 0
 1572 0862 00BF     		nop
 1573 0864 1AE0     		b	.L37
 1574              	.L114:
 1575              		.loc 6 169 0
 1576 0866 00BF     		nop
 1577 0868 18E0     		b	.L37
 1578              	.L115:
 1579              		.loc 6 170 0
 1580 086a 00BF     		nop
 1581 086c 16E0     		b	.L37
 1582              	.L116:
 1583              		.loc 6 175 0
 1584 086e 00BF     		nop
 1585 0870 14E0     		b	.L37
 1586              	.L117:
 1587              		.loc 6 178 0
 1588 0872 00BF     		nop
 1589 0874 12E0     		b	.L37
 1590              	.L118:
 1591              		.loc 6 181 0
 1592 0876 00BF     		nop
 1593 0878 10E0     		b	.L37
 1594              	.L119:
 1595              		.loc 6 185 0
ARM GAS  C:\Users\PCHAUT~1\AppData\Local\Temp\ccqSs9HN.s 			page 29


 1596 087a 00BF     		nop
 1597 087c 0EE0     		b	.L37
 1598              	.L120:
 1599              		.loc 6 187 0
 1600 087e 00BF     		nop
 1601 0880 0CE0     		b	.L37
 1602              	.L121:
 1603              		.loc 6 189 0
 1604 0882 00BF     		nop
 1605 0884 0AE0     		b	.L37
 1606              	.L122:
 1607              		.loc 6 191 0
 1608 0886 00BF     		nop
 1609 0888 08E0     		b	.L37
 1610              	.L123:
 1611              		.loc 6 194 0
 1612 088a 00BF     		nop
 1613 088c 06E0     		b	.L37
 1614              	.L124:
 1615              		.loc 6 195 0
 1616 088e 00BF     		nop
 1617 0890 04E0     		b	.L37
 1618              	.L125:
 1619              		.loc 6 200 0
 1620 0892 00BF     		nop
 1621 0894 02E0     		b	.L37
 1622              	.L126:
 1623              		.loc 6 203 0
 1624 0896 00BF     		nop
 1625 0898 00E0     		b	.L37
 1626              	.L127:
 1627              		.loc 6 206 0
 1628 089a 00BF     		nop
 1629              	.L37:
 1630              		.loc 6 220 0
 1631 089c 054B     		ldr	r3, .L134+4
 1632 089e 039A     		ldr	r2, [sp, #12]
 1633 08a0 1B68     		ldr	r3, [r3]
 1634 08a2 9A42     		cmp	r2, r3
 1635 08a4 01D0     		beq	.L95
 1636 08a6 FFF7FEFF 		bl	__stack_chk_fail
 1637              	.L95:
 1638 08aa 05B0     		add	sp, sp, #20
 1639              		.cfi_def_cfa_offset 4
 1640              		@ sp needed
 1641 08ac 5DF804FB 		ldr	pc, [sp], #4
 1642              	.L135:
 1643              		.align	2
 1644              	.L134:
 1645 08b0 00000000 		.word	mb1
 1646 08b4 00000000 		.word	__stack_chk_guard
 1647              		.cfi_endproc
 1648              	.LFE220:
 1649              		.size	mbox1_execute, .-mbox1_execute
 1650              		.global	testmbox1
 1651              		.section	.rodata
 1652 0006 0000     		.align	2
ARM GAS  C:\Users\PCHAUT~1\AppData\Local\Temp\ccqSs9HN.s 			page 30


 1653              	.LC1:
 1654 0008 4D61696C 		.ascii	"Mailboxes, queuing and timeouts\000"
 1654      626F7865 
 1654      732C2071 
 1654      75657569 
 1654      6E672061 
 1655              		.section	.rodata.testmbox1,"a",%progbits
 1656              		.align	2
 1657              		.type	testmbox1, %object
 1658              		.size	testmbox1, 16
 1659              	testmbox1:
 1660 0000 08000000 		.word	.LC1
 1661 0004 00000000 		.word	mbox1_setup
 1662 0008 00000000 		.word	0
 1663 000c 00000000 		.word	mbox1_execute
 1664              		.global	patternmbox
 1665              		.section	.rodata.patternmbox,"a",%progbits
 1666              		.align	2
 1667              		.type	patternmbox, %object
 1668              		.size	patternmbox, 8
 1669              	patternmbox:
 1670 0000 00000000 		.word	testmbox1
 1671 0004 00000000 		.word	0
 1672              		.section	.rodata.__func__.7153,"a",%progbits
 1673              		.align	2
 1674              		.type	__func__.7153, %object
 1675              		.size	__func__.7153, 12
 1676              	__func__.7153:
 1677 0000 63685379 		.ascii	"chSysUnlock\000"
 1677      73556E6C 
 1677      6F636B00 
 1678              		.text
 1679              	.Letext0:
 1680              		.file 7 "c:\\users\\pchautems\\documents\\robotiquetp\\eclipse_e-puck2\\tools\\gcc-arm-none-eabi-7
 1681              		.file 8 "c:\\users\\pchautems\\documents\\robotiquetp\\eclipse_e-puck2\\tools\\gcc-arm-none-eabi-7
 1682              		.file 9 "c:\\users\\pchautems\\documents\\robotiquetp\\eclipse_e-puck2\\tools\\gcc-arm-none-eabi-7
 1683              		.file 10 "../lib/e-puck2_main-processor/ChibiOS//os/rt/ports/ARMCMx/compilers/GCC/chtypes.h"
 1684              		.file 11 "../lib/e-puck2_main-processor/ChibiOS//os/rt/include/chsystypes.h"
 1685              		.file 12 "../lib/e-puck2_main-processor/ChibiOS//os/rt/include/chschd.h"
 1686              		.file 13 "../lib/e-puck2_main-processor/ChibiOS//os/ext/CMSIS/include/core_cm4.h"
 1687              		.file 14 "../lib/e-puck2_main-processor/ChibiOS//os/ext/CMSIS/ST/system_stm32f4xx.h"
 1688              		.file 15 "../lib/e-puck2_main-processor/ChibiOS//os/rt/ports/ARMCMx/chcore.h"
 1689              		.file 16 "../lib/e-puck2_main-processor/ChibiOS//os/rt/include/chdebug.h"
 1690              		.file 17 "../lib/e-puck2_main-processor/ChibiOS//os/rt/include/chtm.h"
 1691              		.file 18 "../lib/e-puck2_main-processor/ChibiOS//os/rt/include/chstats.h"
 1692              		.file 19 "../lib/e-puck2_main-processor/ChibiOS//os/rt/include/chmtx.h"
 1693              		.file 20 "../lib/e-puck2_main-processor/ChibiOS//os/rt/include/chregistry.h"
 1694              		.file 21 "../lib/e-puck2_main-processor/ChibiOS//test/rt/test.h"