ARM GAS  C:\Users\PCHAUT~1\AppData\Local\Temp\ccJXEW1D.s 			page 1


   1              		.cpu cortex-m4
   2              		.eabi_attribute 27, 1
   3              		.eabi_attribute 28, 1
   4              		.eabi_attribute 20, 1
   5              		.eabi_attribute 21, 1
   6              		.eabi_attribute 23, 3
   7              		.eabi_attribute 24, 1
   8              		.eabi_attribute 25, 1
   9              		.eabi_attribute 26, 1
  10              		.eabi_attribute 30, 6
  11              		.eabi_attribute 34, 1
  12              		.eabi_attribute 18, 4
  13              		.file	"testdyn.c"
  14              		.text
  15              	.Ltext0:
  16              		.cfi_sections	.debug_frame
  17              		.section	.text.chThdGetSelfX,"ax",%progbits
  18              		.align	1
  19              		.p2align 4,,15
  20              		.syntax unified
  21              		.thumb
  22              		.thumb_func
  23              		.fpu fpv4-sp-d16
  24              		.type	chThdGetSelfX, %function
  25              	chThdGetSelfX:
  26              	.LFB166:
  27              		.file 1 "../lib/e-puck2_main-processor/ChibiOS//os/rt/include/chthreads.h"
  28              		.loc 1 174 0
  29              		.cfi_startproc
  30              		@ args = 0, pretend = 0, frame = 8
  31              		@ frame_needed = 0, uses_anonymous_args = 0
  32 0000 00B5     		push	{lr}
  33              		.cfi_def_cfa_offset 4
  34              		.cfi_offset 14, -4
  35 0002 83B0     		sub	sp, sp, #12
  36              		.cfi_def_cfa_offset 16
  37              		.loc 1 174 0
  38 0004 074B     		ldr	r3, .L4
  39 0006 1B68     		ldr	r3, [r3]
  40 0008 0193     		str	r3, [sp, #4]
  41              		.loc 1 176 0
  42 000a 074B     		ldr	r3, .L4+4
  43 000c 9B69     		ldr	r3, [r3, #24]
  44              		.loc 1 177 0
  45 000e 1846     		mov	r0, r3
  46 0010 044B     		ldr	r3, .L4
  47 0012 019A     		ldr	r2, [sp, #4]
  48 0014 1B68     		ldr	r3, [r3]
  49 0016 9A42     		cmp	r2, r3
  50 0018 01D0     		beq	.L3
  51 001a FFF7FEFF 		bl	__stack_chk_fail
  52              	.L3:
  53 001e 03B0     		add	sp, sp, #12
  54              		.cfi_def_cfa_offset 4
  55              		@ sp needed
  56 0020 5DF804FB 		ldr	pc, [sp], #4
  57              	.L5:
ARM GAS  C:\Users\PCHAUT~1\AppData\Local\Temp\ccJXEW1D.s 			page 2


  58              		.align	2
  59              	.L4:
  60 0024 00000000 		.word	__stack_chk_guard
  61 0028 00000000 		.word	ch
  62              		.cfi_endproc
  63              	.LFE166:
  64              		.size	chThdGetSelfX, .-chThdGetSelfX
  65              		.section	.text.chThdGetPriorityX,"ax",%progbits
  66              		.align	1
  67              		.p2align 4,,15
  68              		.syntax unified
  69              		.thumb
  70              		.thumb_func
  71              		.fpu fpv4-sp-d16
  72              		.type	chThdGetPriorityX, %function
  73              	chThdGetPriorityX:
  74              	.LFB167:
  75              		.loc 1 187 0
  76              		.cfi_startproc
  77              		@ args = 0, pretend = 0, frame = 8
  78              		@ frame_needed = 0, uses_anonymous_args = 0
  79 0000 00B5     		push	{lr}
  80              		.cfi_def_cfa_offset 4
  81              		.cfi_offset 14, -4
  82 0002 83B0     		sub	sp, sp, #12
  83              		.cfi_def_cfa_offset 16
  84              		.loc 1 187 0
  85 0004 084B     		ldr	r3, .L9
  86 0006 1B68     		ldr	r3, [r3]
  87 0008 0193     		str	r3, [sp, #4]
  88              		.loc 1 189 0
  89 000a FFF7FEFF 		bl	chThdGetSelfX
  90 000e 0346     		mov	r3, r0
  91 0010 9B68     		ldr	r3, [r3, #8]
  92              		.loc 1 190 0
  93 0012 1846     		mov	r0, r3
  94 0014 044B     		ldr	r3, .L9
  95 0016 019A     		ldr	r2, [sp, #4]
  96 0018 1B68     		ldr	r3, [r3]
  97 001a 9A42     		cmp	r2, r3
  98 001c 01D0     		beq	.L8
  99 001e FFF7FEFF 		bl	__stack_chk_fail
 100              	.L8:
 101 0022 03B0     		add	sp, sp, #12
 102              		.cfi_def_cfa_offset 4
 103              		@ sp needed
 104 0024 5DF804FB 		ldr	pc, [sp], #4
 105              	.L10:
 106              		.align	2
 107              	.L9:
 108 0028 00000000 		.word	__stack_chk_guard
 109              		.cfi_endproc
 110              	.LFE167:
 111              		.size	chThdGetPriorityX, .-chThdGetPriorityX
 112              		.section	.bss.heap1,"aw",%nobits
 113              		.align	3
 114              		.type	heap1, %object
ARM GAS  C:\Users\PCHAUT~1\AppData\Local\Temp\ccJXEW1D.s 			page 3


 115              		.size	heap1, 40
 116              	heap1:
 117 0000 00000000 		.space	40
 117      00000000 
 117      00000000 
 117      00000000 
 117      00000000 
 118              		.section	.bss.mp1,"aw",%nobits
 119              		.align	2
 120              		.type	mp1, %object
 121              		.size	mp1, 12
 122              	mp1:
 123 0000 00000000 		.space	12
 123      00000000 
 123      00000000 
 124              		.section	.text.thread,"ax",%progbits
 125              		.align	1
 126              		.p2align 4,,15
 127              		.syntax unified
 128              		.thumb
 129              		.thumb_func
 130              		.fpu fpv4-sp-d16
 131              		.type	thread, %function
 132              	thread:
 133              	.LFB219:
 134              		.file 2 "../lib/e-puck2_main-processor/ChibiOS//test/rt/testdyn.c"
 135              		.loc 2 71 0
 136              		.cfi_startproc
 137              		@ args = 0, pretend = 0, frame = 16
 138              		@ frame_needed = 0, uses_anonymous_args = 0
 139 0000 00B5     		push	{lr}
 140              		.cfi_def_cfa_offset 4
 141              		.cfi_offset 14, -4
 142 0002 85B0     		sub	sp, sp, #20
 143              		.cfi_def_cfa_offset 24
 144 0004 0190     		str	r0, [sp, #4]
 145              		.loc 2 71 0
 146 0006 094B     		ldr	r3, .L13
 147 0008 1B68     		ldr	r3, [r3]
 148 000a 0393     		str	r3, [sp, #12]
 149              		.loc 2 73 0
 150 000c 019B     		ldr	r3, [sp, #4]
 151 000e 1B78     		ldrb	r3, [r3]	@ zero_extendqisi2
 152 0010 1846     		mov	r0, r3
 153 0012 FFF7FEFF 		bl	test_emit_token
 154              		.loc 2 74 0
 155 0016 00BF     		nop
 156 0018 044B     		ldr	r3, .L13
 157 001a 039A     		ldr	r2, [sp, #12]
 158 001c 1B68     		ldr	r3, [r3]
 159 001e 9A42     		cmp	r2, r3
 160 0020 01D0     		beq	.L12
 161 0022 FFF7FEFF 		bl	__stack_chk_fail
 162              	.L12:
 163 0026 05B0     		add	sp, sp, #20
 164              		.cfi_def_cfa_offset 4
 165              		@ sp needed
ARM GAS  C:\Users\PCHAUT~1\AppData\Local\Temp\ccJXEW1D.s 			page 4


 166 0028 5DF804FB 		ldr	pc, [sp], #4
 167              	.L14:
 168              		.align	2
 169              	.L13:
 170 002c 00000000 		.word	__stack_chk_guard
 171              		.cfi_endproc
 172              	.LFE219:
 173              		.size	thread, .-thread
 174              		.section	.text.dyn1_setup,"ax",%progbits
 175              		.align	1
 176              		.p2align 4,,15
 177              		.syntax unified
 178              		.thumb
 179              		.thumb_func
 180              		.fpu fpv4-sp-d16
 181              		.type	dyn1_setup, %function
 182              	dyn1_setup:
 183              	.LFB220:
 184              		.loc 2 77 0
 185              		.cfi_startproc
 186              		@ args = 0, pretend = 0, frame = 8
 187              		@ frame_needed = 0, uses_anonymous_args = 0
 188 0000 00B5     		push	{lr}
 189              		.cfi_def_cfa_offset 4
 190              		.cfi_offset 14, -4
 191 0002 83B0     		sub	sp, sp, #12
 192              		.cfi_def_cfa_offset 16
 193              		.loc 2 77 0
 194 0004 094B     		ldr	r3, .L17
 195 0006 1B68     		ldr	r3, [r3]
 196 0008 0193     		str	r3, [sp, #4]
 197              		.loc 2 79 0
 198 000a 40F6D812 		movw	r2, #2520
 199 000e 0849     		ldr	r1, .L17+4
 200 0010 0848     		ldr	r0, .L17+8
 201 0012 FFF7FEFF 		bl	chHeapObjectInit
 202              		.loc 2 80 0
 203 0016 00BF     		nop
 204 0018 044B     		ldr	r3, .L17
 205 001a 019A     		ldr	r2, [sp, #4]
 206 001c 1B68     		ldr	r3, [r3]
 207 001e 9A42     		cmp	r2, r3
 208 0020 01D0     		beq	.L16
 209 0022 FFF7FEFF 		bl	__stack_chk_fail
 210              	.L16:
 211 0026 03B0     		add	sp, sp, #12
 212              		.cfi_def_cfa_offset 4
 213              		@ sp needed
 214 0028 5DF804FB 		ldr	pc, [sp], #4
 215              	.L18:
 216              		.align	2
 217              	.L17:
 218 002c 00000000 		.word	__stack_chk_guard
 219 0030 00000000 		.word	test
 220 0034 00000000 		.word	heap1
 221              		.cfi_endproc
 222              	.LFE220:
ARM GAS  C:\Users\PCHAUT~1\AppData\Local\Temp\ccJXEW1D.s 			page 5


 223              		.size	dyn1_setup, .-dyn1_setup
 224              		.section	.rodata
 225              		.align	2
 226              	.LC0:
 227 0000 4100     		.ascii	"A\000"
 228 0002 0000     		.align	2
 229              	.LC1:
 230 0004 4200     		.ascii	"B\000"
 231 0006 0000     		.align	2
 232              	.LC2:
 233 0008 4300     		.ascii	"C\000"
 234 000a 0000     		.align	2
 235              	.LC3:
 236 000c 414200   		.ascii	"AB\000"
 237              		.section	.text.dyn1_execute,"ax",%progbits
 238              		.align	1
 239              		.p2align 4,,15
 240              		.syntax unified
 241              		.thumb
 242              		.thumb_func
 243              		.fpu fpv4-sp-d16
 244              		.type	dyn1_execute, %function
 245              	dyn1_execute:
 246              	.LFB221:
 247              		.loc 2 82 0
 248              		.cfi_startproc
 249              		@ args = 0, pretend = 0, frame = 24
 250              		@ frame_needed = 0, uses_anonymous_args = 0
 251 0000 00B5     		push	{lr}
 252              		.cfi_def_cfa_offset 4
 253              		.cfi_offset 14, -4
 254 0002 89B0     		sub	sp, sp, #36
 255              		.cfi_def_cfa_offset 40
 256              		.loc 2 82 0
 257 0004 4C4B     		ldr	r3, .L32
 258 0006 1B68     		ldr	r3, [r3]
 259 0008 0793     		str	r3, [sp, #28]
 260              		.loc 2 85 0
 261 000a FFF7FEFF 		bl	chThdGetPriorityX
 262 000e 0590     		str	r0, [sp, #20]
 263              		.loc 2 87 0
 264 0010 04AB     		add	r3, sp, #16
 265 0012 1946     		mov	r1, r3
 266 0014 4948     		ldr	r0, .L32+4
 267 0016 FFF7FEFF 		bl	chHeapStatus
 268              		.loc 2 89 0
 269 001a 059B     		ldr	r3, [sp, #20]
 270 001c 5A1E     		subs	r2, r3, #1
 271 001e 484B     		ldr	r3, .L32+8
 272 0020 0093     		str	r3, [sp]
 273 0022 484B     		ldr	r3, .L32+12
 274 0024 4FF4FC71 		mov	r1, #504
 275 0028 4448     		ldr	r0, .L32+4
 276 002a FFF7FEFF 		bl	chThdCreateFromHeap
 277 002e 0246     		mov	r2, r0
 278 0030 454B     		ldr	r3, .L32+16
 279 0032 1A60     		str	r2, [r3]
ARM GAS  C:\Users\PCHAUT~1\AppData\Local\Temp\ccJXEW1D.s 			page 6


 280              		.loc 2 92 0
 281 0034 059B     		ldr	r3, [sp, #20]
 282 0036 9A1E     		subs	r2, r3, #2
 283 0038 444B     		ldr	r3, .L32+20
 284 003a 0093     		str	r3, [sp]
 285 003c 414B     		ldr	r3, .L32+12
 286 003e 4FF4FC71 		mov	r1, #504
 287 0042 3E48     		ldr	r0, .L32+4
 288 0044 FFF7FEFF 		bl	chThdCreateFromHeap
 289 0048 0246     		mov	r2, r0
 290 004a 3F4B     		ldr	r3, .L32+16
 291 004c 5A60     		str	r2, [r3, #4]
 292              		.loc 2 96 0
 293 004e 03AB     		add	r3, sp, #12
 294 0050 1946     		mov	r1, r3
 295 0052 3A48     		ldr	r0, .L32+4
 296 0054 FFF7FEFF 		bl	chHeapStatus
 297              		.loc 2 97 0
 298 0058 039B     		ldr	r3, [sp, #12]
 299 005a 1946     		mov	r1, r3
 300 005c 3748     		ldr	r0, .L32+4
 301 005e FFF7FEFF 		bl	chHeapAlloc
 302 0062 0690     		str	r0, [sp, #24]
 303              		.loc 2 98 0
 304 0064 059B     		ldr	r3, [sp, #20]
 305 0066 DA1E     		subs	r2, r3, #3
 306 0068 394B     		ldr	r3, .L32+24
 307 006a 0093     		str	r3, [sp]
 308 006c 354B     		ldr	r3, .L32+12
 309 006e 4FF4FC71 		mov	r1, #504
 310 0072 3248     		ldr	r0, .L32+4
 311 0074 FFF7FEFF 		bl	chThdCreateFromHeap
 312 0078 0246     		mov	r2, r0
 313 007a 334B     		ldr	r3, .L32+16
 314 007c 9A60     		str	r2, [r3, #8]
 315              		.loc 2 101 0
 316 007e 0698     		ldr	r0, [sp, #24]
 317 0080 FFF7FEFF 		bl	chHeapFree
 318              		.loc 2 103 0
 319 0084 304B     		ldr	r3, .L32+16
 320 0086 1B68     		ldr	r3, [r3]
 321 0088 002B     		cmp	r3, #0
 322 008a 11D0     		beq	.L20
 323              		.loc 2 103 0 is_stmt 0 discriminator 1
 324 008c 2E4B     		ldr	r3, .L32+16
 325 008e 5B68     		ldr	r3, [r3, #4]
 326 0090 002B     		cmp	r3, #0
 327 0092 0DD0     		beq	.L20
 328              		.loc 2 103 0 discriminator 3
 329 0094 2C4B     		ldr	r3, .L32+16
 330 0096 9B68     		ldr	r3, [r3, #8]
 331 0098 002B     		cmp	r3, #0
 332 009a 09D1     		bne	.L20
 333              		.loc 2 103 0 discriminator 5
 334 009c 2A4B     		ldr	r3, .L32+16
 335 009e DB68     		ldr	r3, [r3, #12]
 336 00a0 002B     		cmp	r3, #0
ARM GAS  C:\Users\PCHAUT~1\AppData\Local\Temp\ccJXEW1D.s 			page 7


 337 00a2 05D1     		bne	.L20
 338              		.loc 2 103 0 discriminator 7
 339 00a4 284B     		ldr	r3, .L32+16
 340 00a6 1B69     		ldr	r3, [r3, #16]
 341 00a8 002B     		cmp	r3, #0
 342 00aa 01D1     		bne	.L20
 343              		.loc 2 103 0 discriminator 9
 344 00ac 0123     		movs	r3, #1
 345 00ae 00E0     		b	.L21
 346              	.L20:
 347              		.loc 2 103 0 discriminator 10
 348 00b0 0023     		movs	r3, #0
 349              	.L21:
 350              		.loc 2 103 0 discriminator 12
 351 00b2 03F00103 		and	r3, r3, #1
 352 00b6 DBB2     		uxtb	r3, r3
 353 00b8 1946     		mov	r1, r3
 354 00ba 0120     		movs	r0, #1
 355 00bc FFF7FEFF 		bl	_test_assert
 356 00c0 0346     		mov	r3, r0
 357 00c2 002B     		cmp	r3, #0
 358 00c4 28D1     		bne	.L29
 359              		.loc 2 111 0 is_stmt 1
 360 00c6 FFF7FEFF 		bl	test_wait_threads
 361              		.loc 2 112 0
 362 00ca 2249     		ldr	r1, .L32+28
 363 00cc 0220     		movs	r0, #2
 364 00ce FFF7FEFF 		bl	_test_assert_sequence
 365 00d2 0346     		mov	r3, r0
 366 00d4 002B     		cmp	r3, #0
 367 00d6 21D1     		bne	.L30
 368              		.loc 2 115 0
 369 00d8 03AB     		add	r3, sp, #12
 370 00da 1946     		mov	r1, r3
 371 00dc 1748     		ldr	r0, .L32+4
 372 00de FFF7FEFF 		bl	chHeapStatus
 373 00e2 0346     		mov	r3, r0
 374 00e4 012B     		cmp	r3, #1
 375 00e6 0CBF     		ite	eq
 376 00e8 0123     		moveq	r3, #1
 377 00ea 0023     		movne	r3, #0
 378 00ec DBB2     		uxtb	r3, r3
 379 00ee 1946     		mov	r1, r3
 380 00f0 0320     		movs	r0, #3
 381 00f2 FFF7FEFF 		bl	_test_assert
 382 00f6 0346     		mov	r3, r0
 383 00f8 002B     		cmp	r3, #0
 384 00fa 11D1     		bne	.L31
 385              		.loc 2 116 0
 386 00fc 039A     		ldr	r2, [sp, #12]
 387 00fe 049B     		ldr	r3, [sp, #16]
 388 0100 9A42     		cmp	r2, r3
 389 0102 0CBF     		ite	eq
 390 0104 0123     		moveq	r3, #1
 391 0106 0023     		movne	r3, #0
 392 0108 DBB2     		uxtb	r3, r3
 393 010a 1946     		mov	r1, r3
ARM GAS  C:\Users\PCHAUT~1\AppData\Local\Temp\ccJXEW1D.s 			page 8


 394 010c 0420     		movs	r0, #4
 395 010e FFF7FEFF 		bl	_test_assert
 396 0112 0346     		mov	r3, r0
 397 0114 002B     		cmp	r3, #0
 398 0116 04E0     		b	.L19
 399              	.L29:
 400              		.loc 2 103 0
 401 0118 00BF     		nop
 402 011a 02E0     		b	.L19
 403              	.L30:
 404              		.loc 2 112 0
 405 011c 00BF     		nop
 406 011e 00E0     		b	.L19
 407              	.L31:
 408              		.loc 2 115 0
 409 0120 00BF     		nop
 410              	.L19:
 411              		.loc 2 117 0
 412 0122 054B     		ldr	r3, .L32
 413 0124 079A     		ldr	r2, [sp, #28]
 414 0126 1B68     		ldr	r3, [r3]
 415 0128 9A42     		cmp	r2, r3
 416 012a 01D0     		beq	.L28
 417 012c FFF7FEFF 		bl	__stack_chk_fail
 418              	.L28:
 419 0130 09B0     		add	sp, sp, #36
 420              		.cfi_def_cfa_offset 4
 421              		@ sp needed
 422 0132 5DF804FB 		ldr	pc, [sp], #4
 423              	.L33:
 424 0136 00BF     		.align	2
 425              	.L32:
 426 0138 00000000 		.word	__stack_chk_guard
 427 013c 00000000 		.word	heap1
 428 0140 00000000 		.word	.LC0
 429 0144 00000000 		.word	thread
 430 0148 00000000 		.word	threads
 431 014c 04000000 		.word	.LC1
 432 0150 08000000 		.word	.LC2
 433 0154 0C000000 		.word	.LC3
 434              		.cfi_endproc
 435              	.LFE221:
 436              		.size	dyn1_execute, .-dyn1_execute
 437              		.global	testdyn1
 438              		.section	.rodata
 439 000f 00       		.align	2
 440              	.LC4:
 441 0010 44796E61 		.ascii	"Dynamic APIs, threads creation from heap\000"
 441      6D696320 
 441      41504973 
 441      2C207468 
 441      72656164 
 442              		.section	.rodata.testdyn1,"a",%progbits
 443              		.align	2
 444              		.type	testdyn1, %object
 445              		.size	testdyn1, 16
 446              	testdyn1:
ARM GAS  C:\Users\PCHAUT~1\AppData\Local\Temp\ccJXEW1D.s 			page 9


 447 0000 10000000 		.word	.LC4
 448 0004 00000000 		.word	dyn1_setup
 449 0008 00000000 		.word	0
 450 000c 00000000 		.word	dyn1_execute
 451              		.section	.text.dyn2_setup,"ax",%progbits
 452              		.align	1
 453              		.p2align 4,,15
 454              		.syntax unified
 455              		.thumb
 456              		.thumb_func
 457              		.fpu fpv4-sp-d16
 458              		.type	dyn2_setup, %function
 459              	dyn2_setup:
 460              	.LFB222:
 461              		.loc 2 138 0
 462              		.cfi_startproc
 463              		@ args = 0, pretend = 0, frame = 8
 464              		@ frame_needed = 0, uses_anonymous_args = 0
 465 0000 00B5     		push	{lr}
 466              		.cfi_def_cfa_offset 4
 467              		.cfi_offset 14, -4
 468 0002 83B0     		sub	sp, sp, #12
 469              		.cfi_def_cfa_offset 16
 470              		.loc 2 138 0
 471 0004 094B     		ldr	r3, .L36
 472 0006 1B68     		ldr	r3, [r3]
 473 0008 0193     		str	r3, [sp, #4]
 474              		.loc 2 140 0
 475 000a 0022     		movs	r2, #0
 476 000c 4FF4FC71 		mov	r1, #504
 477 0010 0748     		ldr	r0, .L36+4
 478 0012 FFF7FEFF 		bl	chPoolObjectInit
 479              		.loc 2 141 0
 480 0016 00BF     		nop
 481 0018 044B     		ldr	r3, .L36
 482 001a 019A     		ldr	r2, [sp, #4]
 483 001c 1B68     		ldr	r3, [r3]
 484 001e 9A42     		cmp	r2, r3
 485 0020 01D0     		beq	.L35
 486 0022 FFF7FEFF 		bl	__stack_chk_fail
 487              	.L35:
 488 0026 03B0     		add	sp, sp, #12
 489              		.cfi_def_cfa_offset 4
 490              		@ sp needed
 491 0028 5DF804FB 		ldr	pc, [sp], #4
 492              	.L37:
 493              		.align	2
 494              	.L36:
 495 002c 00000000 		.word	__stack_chk_guard
 496 0030 00000000 		.word	mp1
 497              		.cfi_endproc
 498              	.LFE222:
 499              		.size	dyn2_setup, .-dyn2_setup
 500              		.section	.rodata
 501 0039 000000   		.align	2
 502              	.LC5:
 503 003c 4400     		.ascii	"D\000"
ARM GAS  C:\Users\PCHAUT~1\AppData\Local\Temp\ccJXEW1D.s 			page 10


 504 003e 0000     		.align	2
 505              	.LC6:
 506 0040 4500     		.ascii	"E\000"
 507 0042 0000     		.align	2
 508              	.LC7:
 509 0044 41424344 		.ascii	"ABCD\000"
 509      00
 510              		.section	.text.dyn2_execute,"ax",%progbits
 511              		.align	1
 512              		.p2align 4,,15
 513              		.syntax unified
 514              		.thumb
 515              		.thumb_func
 516              		.fpu fpv4-sp-d16
 517              		.type	dyn2_execute, %function
 518              	dyn2_execute:
 519              	.LFB223:
 520              		.loc 2 143 0
 521              		.cfi_startproc
 522              		@ args = 0, pretend = 0, frame = 16
 523              		@ frame_needed = 0, uses_anonymous_args = 0
 524 0000 00B5     		push	{lr}
 525              		.cfi_def_cfa_offset 4
 526              		.cfi_offset 14, -4
 527 0002 85B0     		sub	sp, sp, #20
 528              		.cfi_def_cfa_offset 24
 529              		.loc 2 143 0
 530 0004 554B     		ldr	r3, .L53
 531 0006 1B68     		ldr	r3, [r3]
 532 0008 0393     		str	r3, [sp, #12]
 533              		.loc 2 145 0
 534 000a FFF7FEFF 		bl	chThdGetPriorityX
 535 000e 0290     		str	r0, [sp, #8]
 536              		.loc 2 148 0
 537 0010 0023     		movs	r3, #0
 538 0012 0193     		str	r3, [sp, #4]
 539 0014 0AE0     		b	.L39
 540              	.L40:
 541              		.loc 2 149 0 discriminator 3
 542 0016 524A     		ldr	r2, .L53+4
 543 0018 019B     		ldr	r3, [sp, #4]
 544 001a 52F82330 		ldr	r3, [r2, r3, lsl #2]
 545 001e 1946     		mov	r1, r3
 546 0020 5048     		ldr	r0, .L53+8
 547 0022 FFF7FEFF 		bl	chPoolFree
 548              		.loc 2 148 0 discriminator 3
 549 0026 019B     		ldr	r3, [sp, #4]
 550 0028 0133     		adds	r3, r3, #1
 551 002a 0193     		str	r3, [sp, #4]
 552              	.L39:
 553              		.loc 2 148 0 is_stmt 0 discriminator 1
 554 002c 019B     		ldr	r3, [sp, #4]
 555 002e 032B     		cmp	r3, #3
 556 0030 F1DD     		ble	.L40
 557              		.loc 2 152 0 is_stmt 1
 558 0032 029B     		ldr	r3, [sp, #8]
 559 0034 591E     		subs	r1, r3, #1
ARM GAS  C:\Users\PCHAUT~1\AppData\Local\Temp\ccJXEW1D.s 			page 11


 560 0036 4C4B     		ldr	r3, .L53+12
 561 0038 4C4A     		ldr	r2, .L53+16
 562 003a 4A48     		ldr	r0, .L53+8
 563 003c FFF7FEFF 		bl	chThdCreateFromMemoryPool
 564 0040 0246     		mov	r2, r0
 565 0042 4B4B     		ldr	r3, .L53+20
 566 0044 1A60     		str	r2, [r3]
 567              		.loc 2 153 0
 568 0046 029B     		ldr	r3, [sp, #8]
 569 0048 991E     		subs	r1, r3, #2
 570 004a 4A4B     		ldr	r3, .L53+24
 571 004c 474A     		ldr	r2, .L53+16
 572 004e 4548     		ldr	r0, .L53+8
 573 0050 FFF7FEFF 		bl	chThdCreateFromMemoryPool
 574 0054 0246     		mov	r2, r0
 575 0056 464B     		ldr	r3, .L53+20
 576 0058 5A60     		str	r2, [r3, #4]
 577              		.loc 2 154 0
 578 005a 029B     		ldr	r3, [sp, #8]
 579 005c D91E     		subs	r1, r3, #3
 580 005e 464B     		ldr	r3, .L53+28
 581 0060 424A     		ldr	r2, .L53+16
 582 0062 4048     		ldr	r0, .L53+8
 583 0064 FFF7FEFF 		bl	chThdCreateFromMemoryPool
 584 0068 0246     		mov	r2, r0
 585 006a 414B     		ldr	r3, .L53+20
 586 006c 9A60     		str	r2, [r3, #8]
 587              		.loc 2 155 0
 588 006e 029B     		ldr	r3, [sp, #8]
 589 0070 191F     		subs	r1, r3, #4
 590 0072 424B     		ldr	r3, .L53+32
 591 0074 3D4A     		ldr	r2, .L53+16
 592 0076 3B48     		ldr	r0, .L53+8
 593 0078 FFF7FEFF 		bl	chThdCreateFromMemoryPool
 594 007c 0246     		mov	r2, r0
 595 007e 3C4B     		ldr	r3, .L53+20
 596 0080 DA60     		str	r2, [r3, #12]
 597              		.loc 2 156 0
 598 0082 029B     		ldr	r3, [sp, #8]
 599 0084 591F     		subs	r1, r3, #5
 600 0086 3E4B     		ldr	r3, .L53+36
 601 0088 384A     		ldr	r2, .L53+16
 602 008a 3648     		ldr	r0, .L53+8
 603 008c FFF7FEFF 		bl	chThdCreateFromMemoryPool
 604 0090 0246     		mov	r2, r0
 605 0092 374B     		ldr	r3, .L53+20
 606 0094 1A61     		str	r2, [r3, #16]
 607              		.loc 2 158 0
 608 0096 364B     		ldr	r3, .L53+20
 609 0098 1B68     		ldr	r3, [r3]
 610 009a 002B     		cmp	r3, #0
 611 009c 11D0     		beq	.L41
 612              		.loc 2 158 0 is_stmt 0 discriminator 1
 613 009e 344B     		ldr	r3, .L53+20
 614 00a0 5B68     		ldr	r3, [r3, #4]
 615 00a2 002B     		cmp	r3, #0
 616 00a4 0DD0     		beq	.L41
ARM GAS  C:\Users\PCHAUT~1\AppData\Local\Temp\ccJXEW1D.s 			page 12


 617              		.loc 2 158 0 discriminator 3
 618 00a6 324B     		ldr	r3, .L53+20
 619 00a8 9B68     		ldr	r3, [r3, #8]
 620 00aa 002B     		cmp	r3, #0
 621 00ac 09D0     		beq	.L41
 622              		.loc 2 158 0 discriminator 5
 623 00ae 304B     		ldr	r3, .L53+20
 624 00b0 DB68     		ldr	r3, [r3, #12]
 625 00b2 002B     		cmp	r3, #0
 626 00b4 05D0     		beq	.L41
 627              		.loc 2 158 0 discriminator 7
 628 00b6 2E4B     		ldr	r3, .L53+20
 629 00b8 1B69     		ldr	r3, [r3, #16]
 630 00ba 002B     		cmp	r3, #0
 631 00bc 01D1     		bne	.L41
 632              		.loc 2 158 0 discriminator 9
 633 00be 0123     		movs	r3, #1
 634 00c0 00E0     		b	.L42
 635              	.L41:
 636              		.loc 2 158 0 discriminator 10
 637 00c2 0023     		movs	r3, #0
 638              	.L42:
 639              		.loc 2 158 0 discriminator 12
 640 00c4 03F00103 		and	r3, r3, #1
 641 00c8 DBB2     		uxtb	r3, r3
 642 00ca 1946     		mov	r1, r3
 643 00cc 0120     		movs	r0, #1
 644 00ce FFF7FEFF 		bl	_test_assert
 645 00d2 0346     		mov	r3, r0
 646 00d4 002B     		cmp	r3, #0
 647 00d6 31D1     		bne	.L50
 648              		.loc 2 166 0 is_stmt 1
 649 00d8 FFF7FEFF 		bl	test_wait_threads
 650              		.loc 2 167 0
 651 00dc 2949     		ldr	r1, .L53+40
 652 00de 0220     		movs	r0, #2
 653 00e0 FFF7FEFF 		bl	_test_assert_sequence
 654 00e4 0346     		mov	r3, r0
 655 00e6 002B     		cmp	r3, #0
 656 00e8 2AD1     		bne	.L51
 657              		.loc 2 170 0
 658 00ea 0023     		movs	r3, #0
 659 00ec 0193     		str	r3, [sp, #4]
 660 00ee 12E0     		b	.L46
 661              	.L48:
 662              		.loc 2 171 0
 663 00f0 1C48     		ldr	r0, .L53+8
 664 00f2 FFF7FEFF 		bl	chPoolAlloc
 665 00f6 0346     		mov	r3, r0
 666 00f8 002B     		cmp	r3, #0
 667 00fa 14BF     		ite	ne
 668 00fc 0123     		movne	r3, #1
 669 00fe 0023     		moveq	r3, #0
 670 0100 DBB2     		uxtb	r3, r3
 671 0102 1946     		mov	r1, r3
 672 0104 0320     		movs	r0, #3
 673 0106 FFF7FEFF 		bl	_test_assert
ARM GAS  C:\Users\PCHAUT~1\AppData\Local\Temp\ccJXEW1D.s 			page 13


 674 010a 0346     		mov	r3, r0
 675 010c 002B     		cmp	r3, #0
 676 010e 19D1     		bne	.L52
 677              		.loc 2 170 0 discriminator 2
 678 0110 019B     		ldr	r3, [sp, #4]
 679 0112 0133     		adds	r3, r3, #1
 680 0114 0193     		str	r3, [sp, #4]
 681              	.L46:
 682              		.loc 2 170 0 is_stmt 0 discriminator 1
 683 0116 019B     		ldr	r3, [sp, #4]
 684 0118 032B     		cmp	r3, #3
 685 011a E9DD     		ble	.L48
 686              		.loc 2 172 0 is_stmt 1
 687 011c 1148     		ldr	r0, .L53+8
 688 011e FFF7FEFF 		bl	chPoolAlloc
 689 0122 0346     		mov	r3, r0
 690 0124 002B     		cmp	r3, #0
 691 0126 0CBF     		ite	eq
 692 0128 0123     		moveq	r3, #1
 693 012a 0023     		movne	r3, #0
 694 012c DBB2     		uxtb	r3, r3
 695 012e 1946     		mov	r1, r3
 696 0130 0420     		movs	r0, #4
 697 0132 FFF7FEFF 		bl	_test_assert
 698 0136 0346     		mov	r3, r0
 699 0138 002B     		cmp	r3, #0
 700 013a 04E0     		b	.L38
 701              	.L50:
 702              		.loc 2 158 0
 703 013c 00BF     		nop
 704 013e 02E0     		b	.L38
 705              	.L51:
 706              		.loc 2 167 0
 707 0140 00BF     		nop
 708 0142 00E0     		b	.L38
 709              	.L52:
 710              		.loc 2 171 0
 711 0144 00BF     		nop
 712              	.L38:
 713              		.loc 2 173 0
 714 0146 054B     		ldr	r3, .L53
 715 0148 039A     		ldr	r2, [sp, #12]
 716 014a 1B68     		ldr	r3, [r3]
 717 014c 9A42     		cmp	r2, r3
 718 014e 01D0     		beq	.L49
 719 0150 FFF7FEFF 		bl	__stack_chk_fail
 720              	.L49:
 721 0154 05B0     		add	sp, sp, #20
 722              		.cfi_def_cfa_offset 4
 723              		@ sp needed
 724 0156 5DF804FB 		ldr	pc, [sp], #4
 725              	.L54:
 726 015a 00BF     		.align	2
 727              	.L53:
 728 015c 00000000 		.word	__stack_chk_guard
 729 0160 00000000 		.word	wa
 730 0164 00000000 		.word	mp1
ARM GAS  C:\Users\PCHAUT~1\AppData\Local\Temp\ccJXEW1D.s 			page 14


 731 0168 00000000 		.word	.LC0
 732 016c 00000000 		.word	thread
 733 0170 00000000 		.word	threads
 734 0174 04000000 		.word	.LC1
 735 0178 08000000 		.word	.LC2
 736 017c 3C000000 		.word	.LC5
 737 0180 40000000 		.word	.LC6
 738 0184 44000000 		.word	.LC7
 739              		.cfi_endproc
 740              	.LFE223:
 741              		.size	dyn2_execute, .-dyn2_execute
 742              		.global	testdyn2
 743              		.section	.rodata
 744 0049 000000   		.align	2
 745              	.LC8:
 746 004c 44796E61 		.ascii	"Dynamic APIs, threads creation from memory pool\000"
 746      6D696320 
 746      41504973 
 746      2C207468 
 746      72656164 
 747              		.section	.rodata.testdyn2,"a",%progbits
 748              		.align	2
 749              		.type	testdyn2, %object
 750              		.size	testdyn2, 16
 751              	testdyn2:
 752 0000 4C000000 		.word	.LC8
 753 0004 00000000 		.word	dyn2_setup
 754 0008 00000000 		.word	0
 755 000c 00000000 		.word	dyn2_execute
 756              		.section	.text.regfind,"ax",%progbits
 757              		.align	1
 758              		.p2align 4,,15
 759              		.syntax unified
 760              		.thumb
 761              		.thumb_func
 762              		.fpu fpv4-sp-d16
 763              		.type	regfind, %function
 764              	regfind:
 765              	.LFB224:
 766              		.loc 2 192 0
 767              		.cfi_startproc
 768              		@ args = 0, pretend = 0, frame = 24
 769              		@ frame_needed = 0, uses_anonymous_args = 0
 770 0000 00B5     		push	{lr}
 771              		.cfi_def_cfa_offset 4
 772              		.cfi_offset 14, -4
 773 0002 87B0     		sub	sp, sp, #28
 774              		.cfi_def_cfa_offset 32
 775 0004 0190     		str	r0, [sp, #4]
 776              		.loc 2 192 0
 777 0006 164B     		ldr	r3, .L59
 778 0008 1B68     		ldr	r3, [r3]
 779 000a 0593     		str	r3, [sp, #20]
 780              		.loc 2 194 0
 781 000c 0023     		movs	r3, #0
 782 000e 8DF80F30 		strb	r3, [sp, #15]
 783              		.loc 2 196 0
ARM GAS  C:\Users\PCHAUT~1\AppData\Local\Temp\ccJXEW1D.s 			page 15


 784 0012 FFF7FEFF 		bl	chRegFirstThread
 785 0016 0490     		str	r0, [sp, #16]
 786              	.L56:
 787              		.loc 2 198 0 discriminator 1
 788 0018 9DF80F30 		ldrb	r3, [sp, #15]	@ zero_extendqisi2
 789 001c 0499     		ldr	r1, [sp, #16]
 790 001e 019A     		ldr	r2, [sp, #4]
 791 0020 9142     		cmp	r1, r2
 792 0022 0CBF     		ite	eq
 793 0024 0122     		moveq	r2, #1
 794 0026 0022     		movne	r2, #0
 795 0028 D2B2     		uxtb	r2, r2
 796 002a 1343     		orrs	r3, r3, r2
 797 002c 002B     		cmp	r3, #0
 798 002e 14BF     		ite	ne
 799 0030 0123     		movne	r3, #1
 800 0032 0023     		moveq	r3, #0
 801 0034 8DF80F30 		strb	r3, [sp, #15]
 802              		.loc 2 199 0 discriminator 1
 803 0038 0498     		ldr	r0, [sp, #16]
 804 003a FFF7FEFF 		bl	chRegNextThread
 805 003e 0490     		str	r0, [sp, #16]
 806              		.loc 2 200 0 discriminator 1
 807 0040 049B     		ldr	r3, [sp, #16]
 808 0042 002B     		cmp	r3, #0
 809 0044 E8D1     		bne	.L56
 810              		.loc 2 201 0
 811 0046 9DF80F30 		ldrb	r3, [sp, #15]	@ zero_extendqisi2
 812              		.loc 2 202 0
 813 004a 1846     		mov	r0, r3
 814 004c 044B     		ldr	r3, .L59
 815 004e 059A     		ldr	r2, [sp, #20]
 816 0050 1B68     		ldr	r3, [r3]
 817 0052 9A42     		cmp	r2, r3
 818 0054 01D0     		beq	.L58
 819 0056 FFF7FEFF 		bl	__stack_chk_fail
 820              	.L58:
 821 005a 07B0     		add	sp, sp, #28
 822              		.cfi_def_cfa_offset 4
 823              		@ sp needed
 824 005c 5DF804FB 		ldr	pc, [sp], #4
 825              	.L60:
 826              		.align	2
 827              	.L59:
 828 0060 00000000 		.word	__stack_chk_guard
 829              		.cfi_endproc
 830              	.LFE224:
 831              		.size	regfind, .-regfind
 832              		.section	.text.dyn3_setup,"ax",%progbits
 833              		.align	1
 834              		.p2align 4,,15
 835              		.syntax unified
 836              		.thumb
 837              		.thumb_func
 838              		.fpu fpv4-sp-d16
 839              		.type	dyn3_setup, %function
 840              	dyn3_setup:
ARM GAS  C:\Users\PCHAUT~1\AppData\Local\Temp\ccJXEW1D.s 			page 16


 841              	.LFB225:
 842              		.loc 2 204 0
 843              		.cfi_startproc
 844              		@ args = 0, pretend = 0, frame = 8
 845              		@ frame_needed = 0, uses_anonymous_args = 0
 846 0000 00B5     		push	{lr}
 847              		.cfi_def_cfa_offset 4
 848              		.cfi_offset 14, -4
 849 0002 83B0     		sub	sp, sp, #12
 850              		.cfi_def_cfa_offset 16
 851              		.loc 2 204 0
 852 0004 094B     		ldr	r3, .L63
 853 0006 1B68     		ldr	r3, [r3]
 854 0008 0193     		str	r3, [sp, #4]
 855              		.loc 2 206 0
 856 000a 40F6D812 		movw	r2, #2520
 857 000e 0849     		ldr	r1, .L63+4
 858 0010 0848     		ldr	r0, .L63+8
 859 0012 FFF7FEFF 		bl	chHeapObjectInit
 860              		.loc 2 207 0
 861 0016 00BF     		nop
 862 0018 044B     		ldr	r3, .L63
 863 001a 019A     		ldr	r2, [sp, #4]
 864 001c 1B68     		ldr	r3, [r3]
 865 001e 9A42     		cmp	r2, r3
 866 0020 01D0     		beq	.L62
 867 0022 FFF7FEFF 		bl	__stack_chk_fail
 868              	.L62:
 869 0026 03B0     		add	sp, sp, #12
 870              		.cfi_def_cfa_offset 4
 871              		@ sp needed
 872 0028 5DF804FB 		ldr	pc, [sp], #4
 873              	.L64:
 874              		.align	2
 875              	.L63:
 876 002c 00000000 		.word	__stack_chk_guard
 877 0030 00000000 		.word	test
 878 0034 00000000 		.word	heap1
 879              		.cfi_endproc
 880              	.LFE225:
 881              		.size	dyn3_setup, .-dyn3_setup
 882              		.section	.text.dyn3_execute,"ax",%progbits
 883              		.align	1
 884              		.p2align 4,,15
 885              		.syntax unified
 886              		.thumb
 887              		.thumb_func
 888              		.fpu fpv4-sp-d16
 889              		.type	dyn3_execute, %function
 890              	dyn3_execute:
 891              	.LFB226:
 892              		.loc 2 209 0
 893              		.cfi_startproc
 894              		@ args = 0, pretend = 0, frame = 16
 895              		@ frame_needed = 0, uses_anonymous_args = 0
 896 0000 00B5     		push	{lr}
 897              		.cfi_def_cfa_offset 4
ARM GAS  C:\Users\PCHAUT~1\AppData\Local\Temp\ccJXEW1D.s 			page 17


 898              		.cfi_offset 14, -4
 899 0002 87B0     		sub	sp, sp, #28
 900              		.cfi_def_cfa_offset 32
 901              		.loc 2 209 0
 902 0004 724B     		ldr	r3, .L90
 903 0006 1B68     		ldr	r3, [r3]
 904 0008 0593     		str	r3, [sp, #20]
 905              		.loc 2 211 0
 906 000a FFF7FEFF 		bl	chThdGetPriorityX
 907 000e 0390     		str	r0, [sp, #12]
 908              		.loc 2 214 0
 909 0010 039B     		ldr	r3, [sp, #12]
 910 0012 5A1E     		subs	r2, r3, #1
 911 0014 6F4B     		ldr	r3, .L90+4
 912 0016 0093     		str	r3, [sp]
 913 0018 6F4B     		ldr	r3, .L90+8
 914 001a 4FF4FC71 		mov	r1, #504
 915 001e 6F48     		ldr	r0, .L90+12
 916 0020 FFF7FEFF 		bl	chThdCreateFromHeap
 917 0024 0490     		str	r0, [sp, #16]
 918              		.loc 2 215 0
 919 0026 049B     		ldr	r3, [sp, #16]
 920 0028 93F82230 		ldrb	r3, [r3, #34]	@ zero_extendqisi2
 921 002c 012B     		cmp	r3, #1
 922 002e 0CBF     		ite	eq
 923 0030 0123     		moveq	r3, #1
 924 0032 0023     		movne	r3, #0
 925 0034 DBB2     		uxtb	r3, r3
 926 0036 1946     		mov	r1, r3
 927 0038 0120     		movs	r0, #1
 928 003a FFF7FEFF 		bl	_test_assert
 929 003e 0346     		mov	r3, r0
 930 0040 002B     		cmp	r3, #0
 931 0042 40F0A680 		bne	.L79
 932              		.loc 2 216 0
 933 0046 0498     		ldr	r0, [sp, #16]
 934 0048 FFF7FEFF 		bl	chThdAddRef
 935              		.loc 2 217 0
 936 004c 049B     		ldr	r3, [sp, #16]
 937 004e 93F82230 		ldrb	r3, [r3, #34]	@ zero_extendqisi2
 938 0052 022B     		cmp	r3, #2
 939 0054 0CBF     		ite	eq
 940 0056 0123     		moveq	r3, #1
 941 0058 0023     		movne	r3, #0
 942 005a DBB2     		uxtb	r3, r3
 943 005c 1946     		mov	r1, r3
 944 005e 0220     		movs	r0, #2
 945 0060 FFF7FEFF 		bl	_test_assert
 946 0064 0346     		mov	r3, r0
 947 0066 002B     		cmp	r3, #0
 948 0068 40F09580 		bne	.L80
 949              		.loc 2 218 0
 950 006c 0498     		ldr	r0, [sp, #16]
 951 006e FFF7FEFF 		bl	chThdRelease
 952              		.loc 2 219 0
 953 0072 049B     		ldr	r3, [sp, #16]
 954 0074 93F82230 		ldrb	r3, [r3, #34]	@ zero_extendqisi2
ARM GAS  C:\Users\PCHAUT~1\AppData\Local\Temp\ccJXEW1D.s 			page 18


 955 0078 012B     		cmp	r3, #1
 956 007a 0CBF     		ite	eq
 957 007c 0123     		moveq	r3, #1
 958 007e 0023     		movne	r3, #0
 959 0080 DBB2     		uxtb	r3, r3
 960 0082 1946     		mov	r1, r3
 961 0084 0320     		movs	r0, #3
 962 0086 FFF7FEFF 		bl	_test_assert
 963 008a 0346     		mov	r3, r0
 964 008c 002B     		cmp	r3, #0
 965 008e 40F08480 		bne	.L81
 966              		.loc 2 222 0
 967 0092 0498     		ldr	r0, [sp, #16]
 968 0094 FFF7FEFF 		bl	regfind
 969 0098 0346     		mov	r3, r0
 970 009a 1946     		mov	r1, r3
 971 009c 0420     		movs	r0, #4
 972 009e FFF7FEFF 		bl	_test_assert
 973 00a2 0346     		mov	r3, r0
 974 00a4 002B     		cmp	r3, #0
 975 00a6 7AD1     		bne	.L82
 976              		.loc 2 223 0
 977 00a8 0498     		ldr	r0, [sp, #16]
 978 00aa FFF7FEFF 		bl	regfind
 979 00ae 0346     		mov	r3, r0
 980 00b0 1946     		mov	r1, r3
 981 00b2 0520     		movs	r0, #5
 982 00b4 FFF7FEFF 		bl	_test_assert
 983 00b8 0346     		mov	r3, r0
 984 00ba 002B     		cmp	r3, #0
 985 00bc 71D1     		bne	.L83
 986              		.loc 2 226 0
 987 00be 0498     		ldr	r0, [sp, #16]
 988 00c0 FFF7FEFF 		bl	chThdRelease
 989              		.loc 2 227 0
 990 00c4 049B     		ldr	r3, [sp, #16]
 991 00c6 93F82230 		ldrb	r3, [r3, #34]	@ zero_extendqisi2
 992 00ca 002B     		cmp	r3, #0
 993 00cc 0CBF     		ite	eq
 994 00ce 0123     		moveq	r3, #1
 995 00d0 0023     		movne	r3, #0
 996 00d2 DBB2     		uxtb	r3, r3
 997 00d4 1946     		mov	r1, r3
 998 00d6 0620     		movs	r0, #6
 999 00d8 FFF7FEFF 		bl	_test_assert
 1000 00dc 0346     		mov	r3, r0
 1001 00de 002B     		cmp	r3, #0
 1002 00e0 61D1     		bne	.L84
 1003              		.loc 2 228 0
 1004 00e2 049B     		ldr	r3, [sp, #16]
 1005 00e4 93F82030 		ldrb	r3, [r3, #32]	@ zero_extendqisi2
 1006 00e8 002B     		cmp	r3, #0
 1007 00ea 0CBF     		ite	eq
 1008 00ec 0123     		moveq	r3, #1
 1009 00ee 0023     		movne	r3, #0
 1010 00f0 DBB2     		uxtb	r3, r3
 1011 00f2 1946     		mov	r1, r3
ARM GAS  C:\Users\PCHAUT~1\AppData\Local\Temp\ccJXEW1D.s 			page 19


 1012 00f4 0720     		movs	r0, #7
 1013 00f6 FFF7FEFF 		bl	_test_assert
 1014 00fa 0346     		mov	r3, r0
 1015 00fc 002B     		cmp	r3, #0
 1016 00fe 54D1     		bne	.L85
 1017              		.loc 2 229 0
 1018 0100 0498     		ldr	r0, [sp, #16]
 1019 0102 FFF7FEFF 		bl	regfind
 1020 0106 0346     		mov	r3, r0
 1021 0108 1946     		mov	r1, r3
 1022 010a 0820     		movs	r0, #8
 1023 010c FFF7FEFF 		bl	_test_assert
 1024 0110 0346     		mov	r3, r0
 1025 0112 002B     		cmp	r3, #0
 1026 0114 4BD1     		bne	.L86
 1027              		.loc 2 230 0
 1028 0116 0498     		ldr	r0, [sp, #16]
 1029 0118 FFF7FEFF 		bl	regfind
 1030 011c 0346     		mov	r3, r0
 1031 011e 1946     		mov	r1, r3
 1032 0120 0920     		movs	r0, #9
 1033 0122 FFF7FEFF 		bl	_test_assert
 1034 0126 0346     		mov	r3, r0
 1035 0128 002B     		cmp	r3, #0
 1036 012a 42D1     		bne	.L87
 1037              		.loc 2 231 0
 1038 012c 3220     		movs	r0, #50
 1039 012e FFF7FEFF 		bl	chThdSleep
 1040              		.loc 2 232 0
 1041 0132 049B     		ldr	r3, [sp, #16]
 1042 0134 93F82030 		ldrb	r3, [r3, #32]	@ zero_extendqisi2
 1043 0138 0F2B     		cmp	r3, #15
 1044 013a 0CBF     		ite	eq
 1045 013c 0123     		moveq	r3, #1
 1046 013e 0023     		movne	r3, #0
 1047 0140 DBB2     		uxtb	r3, r3
 1048 0142 1946     		mov	r1, r3
 1049 0144 0A20     		movs	r0, #10
 1050 0146 FFF7FEFF 		bl	_test_assert
 1051 014a 0346     		mov	r3, r0
 1052 014c 002B     		cmp	r3, #0
 1053 014e 32D1     		bne	.L88
 1054              		.loc 2 235 0
 1055 0150 0498     		ldr	r0, [sp, #16]
 1056 0152 FFF7FEFF 		bl	regfind
 1057 0156 0346     		mov	r3, r0
 1058 0158 1946     		mov	r1, r3
 1059 015a 0B20     		movs	r0, #11
 1060 015c FFF7FEFF 		bl	_test_assert
 1061 0160 0346     		mov	r3, r0
 1062 0162 002B     		cmp	r3, #0
 1063 0164 29D1     		bne	.L89
 1064              		.loc 2 236 0
 1065 0166 0498     		ldr	r0, [sp, #16]
 1066 0168 FFF7FEFF 		bl	regfind
 1067 016c 0346     		mov	r3, r0
 1068 016e 002B     		cmp	r3, #0
ARM GAS  C:\Users\PCHAUT~1\AppData\Local\Temp\ccJXEW1D.s 			page 20


 1069 0170 14BF     		ite	ne
 1070 0172 0123     		movne	r3, #1
 1071 0174 0023     		moveq	r3, #0
 1072 0176 DBB2     		uxtb	r3, r3
 1073 0178 83F00103 		eor	r3, r3, #1
 1074 017c DBB2     		uxtb	r3, r3
 1075 017e 03F00103 		and	r3, r3, #1
 1076 0182 DBB2     		uxtb	r3, r3
 1077 0184 1946     		mov	r1, r3
 1078 0186 0C20     		movs	r0, #12
 1079 0188 FFF7FEFF 		bl	_test_assert
 1080 018c 0346     		mov	r3, r0
 1081 018e 002B     		cmp	r3, #0
 1082 0190 14E0     		b	.L65
 1083              	.L79:
 1084              		.loc 2 215 0
 1085 0192 00BF     		nop
 1086 0194 12E0     		b	.L65
 1087              	.L80:
 1088              		.loc 2 217 0
 1089 0196 00BF     		nop
 1090 0198 10E0     		b	.L65
 1091              	.L81:
 1092              		.loc 2 219 0
 1093 019a 00BF     		nop
 1094 019c 0EE0     		b	.L65
 1095              	.L82:
 1096              		.loc 2 222 0
 1097 019e 00BF     		nop
 1098 01a0 0CE0     		b	.L65
 1099              	.L83:
 1100              		.loc 2 223 0
 1101 01a2 00BF     		nop
 1102 01a4 0AE0     		b	.L65
 1103              	.L84:
 1104              		.loc 2 227 0
 1105 01a6 00BF     		nop
 1106 01a8 08E0     		b	.L65
 1107              	.L85:
 1108              		.loc 2 228 0
 1109 01aa 00BF     		nop
 1110 01ac 06E0     		b	.L65
 1111              	.L86:
 1112              		.loc 2 229 0
 1113 01ae 00BF     		nop
 1114 01b0 04E0     		b	.L65
 1115              	.L87:
 1116              		.loc 2 230 0
 1117 01b2 00BF     		nop
 1118 01b4 02E0     		b	.L65
 1119              	.L88:
 1120              		.loc 2 232 0
 1121 01b6 00BF     		nop
 1122 01b8 00E0     		b	.L65
 1123              	.L89:
 1124              		.loc 2 235 0
 1125 01ba 00BF     		nop
ARM GAS  C:\Users\PCHAUT~1\AppData\Local\Temp\ccJXEW1D.s 			page 21


 1126              	.L65:
 1127              		.loc 2 237 0
 1128 01bc 044B     		ldr	r3, .L90
 1129 01be 059A     		ldr	r2, [sp, #20]
 1130 01c0 1B68     		ldr	r3, [r3]
 1131 01c2 9A42     		cmp	r2, r3
 1132 01c4 01D0     		beq	.L78
 1133 01c6 FFF7FEFF 		bl	__stack_chk_fail
 1134              	.L78:
 1135 01ca 07B0     		add	sp, sp, #28
 1136              		.cfi_def_cfa_offset 4
 1137              		@ sp needed
 1138 01cc 5DF804FB 		ldr	pc, [sp], #4
 1139              	.L91:
 1140              		.align	2
 1141              	.L90:
 1142 01d0 00000000 		.word	__stack_chk_guard
 1143 01d4 00000000 		.word	.LC0
 1144 01d8 00000000 		.word	thread
 1145 01dc 00000000 		.word	heap1
 1146              		.cfi_endproc
 1147              	.LFE226:
 1148              		.size	dyn3_execute, .-dyn3_execute
 1149              		.global	testdyn3
 1150              		.section	.rodata
 1151              		.align	2
 1152              	.LC9:
 1153 007c 44796E61 		.ascii	"Dynamic APIs, registry and references\000"
 1153      6D696320 
 1153      41504973 
 1153      2C207265 
 1153      67697374 
 1154              		.section	.rodata.testdyn3,"a",%progbits
 1155              		.align	2
 1156              		.type	testdyn3, %object
 1157              		.size	testdyn3, 16
 1158              	testdyn3:
 1159 0000 7C000000 		.word	.LC9
 1160 0004 00000000 		.word	dyn3_setup
 1161 0008 00000000 		.word	0
 1162 000c 00000000 		.word	dyn3_execute
 1163              		.global	patterndyn
 1164              		.section	.rodata.patterndyn,"a",%progbits
 1165              		.align	2
 1166              		.type	patterndyn, %object
 1167              		.size	patterndyn, 16
 1168              	patterndyn:
 1169 0000 00000000 		.word	testdyn1
 1170 0004 00000000 		.word	testdyn2
 1171 0008 00000000 		.word	testdyn3
 1172 000c 00000000 		.word	0
 1173              		.text
 1174              	.Letext0:
 1175              		.file 3 "c:\\users\\pchautems\\documents\\robotiquetp\\eclipse_e-puck2\\tools\\gcc-arm-none-eabi-7
 1176              		.file 4 "c:\\users\\pchautems\\documents\\robotiquetp\\eclipse_e-puck2\\tools\\gcc-arm-none-eabi-7
 1177              		.file 5 "c:\\users\\pchautems\\documents\\robotiquetp\\eclipse_e-puck2\\tools\\gcc-arm-none-eabi-7
 1178              		.file 6 "../lib/e-puck2_main-processor/ChibiOS//os/rt/ports/ARMCMx/compilers/GCC/chtypes.h"
ARM GAS  C:\Users\PCHAUT~1\AppData\Local\Temp\ccJXEW1D.s 			page 22


 1179              		.file 7 "../lib/e-puck2_main-processor/ChibiOS//os/rt/include/chsystypes.h"
 1180              		.file 8 "../lib/e-puck2_main-processor/ChibiOS//os/rt/include/chschd.h"
 1181              		.file 9 "../lib/e-puck2_main-processor/ChibiOS//os/ext/CMSIS/include/core_cm4.h"
 1182              		.file 10 "../lib/e-puck2_main-processor/ChibiOS//os/ext/CMSIS/ST/system_stm32f4xx.h"
 1183              		.file 11 "../lib/e-puck2_main-processor/ChibiOS//os/rt/ports/ARMCMx/chcore.h"
 1184              		.file 12 "../lib/e-puck2_main-processor/ChibiOS//os/rt/ports/ARMCMx/chcore_v7m.h"
 1185              		.file 13 "../lib/e-puck2_main-processor/ChibiOS//os/rt/include/chdebug.h"
 1186              		.file 14 "../lib/e-puck2_main-processor/ChibiOS//os/rt/include/chtm.h"
 1187              		.file 15 "../lib/e-puck2_main-processor/ChibiOS//os/rt/include/chstats.h"
 1188              		.file 16 "../lib/e-puck2_main-processor/ChibiOS//os/rt/include/chsem.h"
 1189              		.file 17 "../lib/e-puck2_main-processor/ChibiOS//os/rt/include/chmtx.h"
 1190              		.file 18 "../lib/e-puck2_main-processor/ChibiOS//os/rt/include/chregistry.h"
 1191              		.file 19 "../lib/e-puck2_main-processor/ChibiOS//os/rt/include/chmemcore.h"
 1192              		.file 20 "../lib/e-puck2_main-processor/ChibiOS//os/rt/include/chheap.h"
 1193              		.file 21 "../lib/e-puck2_main-processor/ChibiOS//os/rt/include/chmempools.h"
 1194              		.file 22 "../lib/e-puck2_main-processor/ChibiOS//test/rt/test.h"