ARM GAS  C:\Users\PCHAUT~1\AppData\Local\Temp\cctRuZQc.s 			page 1


   1              		.cpu cortex-m4
   2              		.eabi_attribute 27, 1
   3              		.eabi_attribute 28, 1
   4              		.eabi_attribute 20, 1
   5              		.eabi_attribute 21, 1
   6              		.eabi_attribute 23, 3
   7              		.eabi_attribute 24, 1
   8              		.eabi_attribute 25, 1
   9              		.eabi_attribute 26, 1
  10              		.eabi_attribute 30, 6
  11              		.eabi_attribute 34, 1
  12              		.eabi_attribute 18, 4
  13              		.file	"testsys.c"
  14              		.text
  15              	.Ltext0:
  16              		.cfi_sections	.debug_frame
  17              		.section	.text.port_get_irq_status,"ax",%progbits
  18              		.align	1
  19              		.p2align 4,,15
  20              		.syntax unified
  21              		.thumb
  22              		.thumb_func
  23              		.fpu fpv4-sp-d16
  24              		.type	port_get_irq_status, %function
  25              	port_get_irq_status:
  26              	.LFB113:
  27              		.file 1 "../lib/e-puck2_main-processor/ChibiOS//os/rt/ports/ARMCMx/chcore_v7m.h"
  28              		.loc 1 398 0
  29              		.cfi_startproc
  30              		@ args = 0, pretend = 0, frame = 16
  31              		@ frame_needed = 0, uses_anonymous_args = 0
  32 0000 00B5     		push	{lr}
  33              		.cfi_def_cfa_offset 4
  34              		.cfi_offset 14, -4
  35 0002 85B0     		sub	sp, sp, #20
  36              		.cfi_def_cfa_offset 24
  37              		.loc 1 398 0
  38 0004 094B     		ldr	r3, .L5
  39 0006 1B68     		ldr	r3, [r3]
  40 0008 0393     		str	r3, [sp, #12]
  41              	.LBB18:
  42              	.LBB19:
  43              		.file 2 "../lib/e-puck2_main-processor/ChibiOS//os/ext/CMSIS/include/core_cmFunc.h"
  44              		.loc 2 533 0
  45              		.syntax unified
  46              	@ 533 "../lib/e-puck2_main-processor/ChibiOS//os/ext/CMSIS/include/core_cmFunc.h" 1
  47 000a EFF31283 		MRS r3, basepri_max
  48              	@ 0 "" 2
  49              		.thumb
  50              		.syntax unified
  51 000e 0293     		str	r3, [sp, #8]
  52              		.loc 2 534 0
  53 0010 029B     		ldr	r3, [sp, #8]
  54              	.LBE19:
  55              	.LBE18:
  56              		.loc 1 402 0
  57 0012 0193     		str	r3, [sp, #4]
ARM GAS  C:\Users\PCHAUT~1\AppData\Local\Temp\cctRuZQc.s 			page 2


  58              		.loc 1 406 0
  59 0014 019B     		ldr	r3, [sp, #4]
  60              		.loc 1 407 0
  61 0016 1846     		mov	r0, r3
  62 0018 044B     		ldr	r3, .L5
  63 001a 039A     		ldr	r2, [sp, #12]
  64 001c 1B68     		ldr	r3, [r3]
  65 001e 9A42     		cmp	r2, r3
  66 0020 01D0     		beq	.L4
  67 0022 FFF7FEFF 		bl	__stack_chk_fail
  68              	.L4:
  69 0026 05B0     		add	sp, sp, #20
  70              		.cfi_def_cfa_offset 4
  71              		@ sp needed
  72 0028 5DF804FB 		ldr	pc, [sp], #4
  73              	.L6:
  74              		.align	2
  75              	.L5:
  76 002c 00000000 		.word	__stack_chk_guard
  77              		.cfi_endproc
  78              	.LFE113:
  79              		.size	port_get_irq_status, .-port_get_irq_status
  80              		.section	.text.port_irq_enabled,"ax",%progbits
  81              		.align	1
  82              		.p2align 4,,15
  83              		.syntax unified
  84              		.thumb
  85              		.thumb_func
  86              		.fpu fpv4-sp-d16
  87              		.type	port_irq_enabled, %function
  88              	port_irq_enabled:
  89              	.LFB114:
  90              		.loc 1 418 0
  91              		.cfi_startproc
  92              		@ args = 0, pretend = 0, frame = 16
  93              		@ frame_needed = 0, uses_anonymous_args = 0
  94 0000 00B5     		push	{lr}
  95              		.cfi_def_cfa_offset 4
  96              		.cfi_offset 14, -4
  97 0002 85B0     		sub	sp, sp, #20
  98              		.cfi_def_cfa_offset 24
  99 0004 0190     		str	r0, [sp, #4]
 100              		.loc 1 418 0
 101 0006 0A4B     		ldr	r3, .L10
 102 0008 1B68     		ldr	r3, [r3]
 103 000a 0393     		str	r3, [sp, #12]
 104              		.loc 1 421 0
 105 000c 019B     		ldr	r3, [sp, #4]
 106 000e 002B     		cmp	r3, #0
 107 0010 0CBF     		ite	eq
 108 0012 0123     		moveq	r3, #1
 109 0014 0023     		movne	r3, #0
 110 0016 DBB2     		uxtb	r3, r3
 111              		.loc 1 425 0
 112 0018 1846     		mov	r0, r3
 113 001a 054B     		ldr	r3, .L10
 114 001c 039A     		ldr	r2, [sp, #12]
ARM GAS  C:\Users\PCHAUT~1\AppData\Local\Temp\cctRuZQc.s 			page 3


 115 001e 1B68     		ldr	r3, [r3]
 116 0020 9A42     		cmp	r2, r3
 117 0022 01D0     		beq	.L9
 118 0024 FFF7FEFF 		bl	__stack_chk_fail
 119              	.L9:
 120 0028 05B0     		add	sp, sp, #20
 121              		.cfi_def_cfa_offset 4
 122              		@ sp needed
 123 002a 5DF804FB 		ldr	pc, [sp], #4
 124              	.L11:
 125 002e 00BF     		.align	2
 126              	.L10:
 127 0030 00000000 		.word	__stack_chk_guard
 128              		.cfi_endproc
 129              	.LFE114:
 130              		.size	port_irq_enabled, .-port_irq_enabled
 131              		.section	.text.port_lock,"ax",%progbits
 132              		.align	1
 133              		.p2align 4,,15
 134              		.syntax unified
 135              		.thumb
 136              		.thumb_func
 137              		.fpu fpv4-sp-d16
 138              		.type	port_lock, %function
 139              	port_lock:
 140              	.LFB116:
 141              		.loc 1 444 0
 142              		.cfi_startproc
 143              		@ args = 0, pretend = 0, frame = 8
 144              		@ frame_needed = 0, uses_anonymous_args = 0
 145 0000 00B5     		push	{lr}
 146              		.cfi_def_cfa_offset 4
 147              		.cfi_offset 14, -4
 148 0002 83B0     		sub	sp, sp, #12
 149              		.cfi_def_cfa_offset 16
 150              		.loc 1 444 0
 151 0004 094B     		ldr	r3, .L14
 152 0006 1B68     		ldr	r3, [r3]
 153 0008 0193     		str	r3, [sp, #4]
 154 000a 2023     		movs	r3, #32
 155 000c 0093     		str	r3, [sp]
 156              	.LBB20:
 157              	.LBB21:
 158              		.loc 2 546 0
 159 000e 009B     		ldr	r3, [sp]
 160              		.syntax unified
 161              	@ 546 "../lib/e-puck2_main-processor/ChibiOS//os/ext/CMSIS/include/core_cmFunc.h" 1
 162 0010 83F31188 		MSR basepri, r3
 163              	@ 0 "" 2
 164              		.thumb
 165              		.syntax unified
 166              	.LBE21:
 167              	.LBE20:
 168              		.loc 1 451 0
 169 0014 00BF     		nop
 170 0016 054B     		ldr	r3, .L14
 171 0018 019A     		ldr	r2, [sp, #4]
ARM GAS  C:\Users\PCHAUT~1\AppData\Local\Temp\cctRuZQc.s 			page 4


 172 001a 1B68     		ldr	r3, [r3]
 173 001c 9A42     		cmp	r2, r3
 174 001e 01D0     		beq	.L13
 175 0020 FFF7FEFF 		bl	__stack_chk_fail
 176              	.L13:
 177 0024 03B0     		add	sp, sp, #12
 178              		.cfi_def_cfa_offset 4
 179              		@ sp needed
 180 0026 5DF804FB 		ldr	pc, [sp], #4
 181              	.L15:
 182 002a 00BF     		.align	2
 183              	.L14:
 184 002c 00000000 		.word	__stack_chk_guard
 185              		.cfi_endproc
 186              	.LFE116:
 187              		.size	port_lock, .-port_lock
 188              		.section	.text.port_unlock,"ax",%progbits
 189              		.align	1
 190              		.p2align 4,,15
 191              		.syntax unified
 192              		.thumb
 193              		.thumb_func
 194              		.fpu fpv4-sp-d16
 195              		.type	port_unlock, %function
 196              	port_unlock:
 197              	.LFB117:
 198              		.loc 1 458 0
 199              		.cfi_startproc
 200              		@ args = 0, pretend = 0, frame = 8
 201              		@ frame_needed = 0, uses_anonymous_args = 0
 202 0000 00B5     		push	{lr}
 203              		.cfi_def_cfa_offset 4
 204              		.cfi_offset 14, -4
 205 0002 83B0     		sub	sp, sp, #12
 206              		.cfi_def_cfa_offset 16
 207              		.loc 1 458 0
 208 0004 094B     		ldr	r3, .L18
 209 0006 1B68     		ldr	r3, [r3]
 210 0008 0193     		str	r3, [sp, #4]
 211 000a 0023     		movs	r3, #0
 212 000c 0093     		str	r3, [sp]
 213              	.LBB22:
 214              	.LBB23:
 215              		.loc 2 546 0
 216 000e 009B     		ldr	r3, [sp]
 217              		.syntax unified
 218              	@ 546 "../lib/e-puck2_main-processor/ChibiOS//os/ext/CMSIS/include/core_cmFunc.h" 1
 219 0010 83F31188 		MSR basepri, r3
 220              	@ 0 "" 2
 221              		.thumb
 222              		.syntax unified
 223              	.LBE23:
 224              	.LBE22:
 225              		.loc 1 465 0
 226 0014 00BF     		nop
 227 0016 054B     		ldr	r3, .L18
 228 0018 019A     		ldr	r2, [sp, #4]
ARM GAS  C:\Users\PCHAUT~1\AppData\Local\Temp\cctRuZQc.s 			page 5


 229 001a 1B68     		ldr	r3, [r3]
 230 001c 9A42     		cmp	r2, r3
 231 001e 01D0     		beq	.L17
 232 0020 FFF7FEFF 		bl	__stack_chk_fail
 233              	.L17:
 234 0024 03B0     		add	sp, sp, #12
 235              		.cfi_def_cfa_offset 4
 236              		@ sp needed
 237 0026 5DF804FB 		ldr	pc, [sp], #4
 238              	.L19:
 239 002a 00BF     		.align	2
 240              	.L18:
 241 002c 00000000 		.word	__stack_chk_guard
 242              		.cfi_endproc
 243              	.LFE117:
 244              		.size	port_unlock, .-port_unlock
 245              		.section	.text.port_lock_from_isr,"ax",%progbits
 246              		.align	1
 247              		.p2align 4,,15
 248              		.syntax unified
 249              		.thumb
 250              		.thumb_func
 251              		.fpu fpv4-sp-d16
 252              		.type	port_lock_from_isr, %function
 253              	port_lock_from_isr:
 254              	.LFB118:
 255              		.loc 1 473 0
 256              		.cfi_startproc
 257              		@ args = 0, pretend = 0, frame = 8
 258              		@ frame_needed = 0, uses_anonymous_args = 0
 259 0000 00B5     		push	{lr}
 260              		.cfi_def_cfa_offset 4
 261              		.cfi_offset 14, -4
 262 0002 83B0     		sub	sp, sp, #12
 263              		.cfi_def_cfa_offset 16
 264              		.loc 1 473 0
 265 0004 074B     		ldr	r3, .L22
 266 0006 1B68     		ldr	r3, [r3]
 267 0008 0193     		str	r3, [sp, #4]
 268              		.loc 1 475 0
 269 000a FFF7FEFF 		bl	port_lock
 270              		.loc 1 476 0
 271 000e 00BF     		nop
 272 0010 044B     		ldr	r3, .L22
 273 0012 019A     		ldr	r2, [sp, #4]
 274 0014 1B68     		ldr	r3, [r3]
 275 0016 9A42     		cmp	r2, r3
 276 0018 01D0     		beq	.L21
 277 001a FFF7FEFF 		bl	__stack_chk_fail
 278              	.L21:
 279 001e 03B0     		add	sp, sp, #12
 280              		.cfi_def_cfa_offset 4
 281              		@ sp needed
 282 0020 5DF804FB 		ldr	pc, [sp], #4
 283              	.L23:
 284              		.align	2
 285              	.L22:
ARM GAS  C:\Users\PCHAUT~1\AppData\Local\Temp\cctRuZQc.s 			page 6


 286 0024 00000000 		.word	__stack_chk_guard
 287              		.cfi_endproc
 288              	.LFE118:
 289              		.size	port_lock_from_isr, .-port_lock_from_isr
 290              		.section	.text.port_unlock_from_isr,"ax",%progbits
 291              		.align	1
 292              		.p2align 4,,15
 293              		.syntax unified
 294              		.thumb
 295              		.thumb_func
 296              		.fpu fpv4-sp-d16
 297              		.type	port_unlock_from_isr, %function
 298              	port_unlock_from_isr:
 299              	.LFB119:
 300              		.loc 1 484 0
 301              		.cfi_startproc
 302              		@ args = 0, pretend = 0, frame = 8
 303              		@ frame_needed = 0, uses_anonymous_args = 0
 304 0000 00B5     		push	{lr}
 305              		.cfi_def_cfa_offset 4
 306              		.cfi_offset 14, -4
 307 0002 83B0     		sub	sp, sp, #12
 308              		.cfi_def_cfa_offset 16
 309              		.loc 1 484 0
 310 0004 074B     		ldr	r3, .L26
 311 0006 1B68     		ldr	r3, [r3]
 312 0008 0193     		str	r3, [sp, #4]
 313              		.loc 1 486 0
 314 000a FFF7FEFF 		bl	port_unlock
 315              		.loc 1 487 0
 316 000e 00BF     		nop
 317 0010 044B     		ldr	r3, .L26
 318 0012 019A     		ldr	r2, [sp, #4]
 319 0014 1B68     		ldr	r3, [r3]
 320 0016 9A42     		cmp	r2, r3
 321 0018 01D0     		beq	.L25
 322 001a FFF7FEFF 		bl	__stack_chk_fail
 323              	.L25:
 324 001e 03B0     		add	sp, sp, #12
 325              		.cfi_def_cfa_offset 4
 326              		@ sp needed
 327 0020 5DF804FB 		ldr	pc, [sp], #4
 328              	.L27:
 329              		.align	2
 330              	.L26:
 331 0024 00000000 		.word	__stack_chk_guard
 332              		.cfi_endproc
 333              	.LFE119:
 334              		.size	port_unlock_from_isr, .-port_unlock_from_isr
 335              		.section	.text.port_disable,"ax",%progbits
 336              		.align	1
 337              		.p2align 4,,15
 338              		.syntax unified
 339              		.thumb
 340              		.thumb_func
 341              		.fpu fpv4-sp-d16
 342              		.type	port_disable, %function
ARM GAS  C:\Users\PCHAUT~1\AppData\Local\Temp\cctRuZQc.s 			page 7


 343              	port_disable:
 344              	.LFB120:
 345              		.loc 1 494 0
 346              		.cfi_startproc
 347              		@ args = 0, pretend = 0, frame = 8
 348              		@ frame_needed = 0, uses_anonymous_args = 0
 349 0000 00B5     		push	{lr}
 350              		.cfi_def_cfa_offset 4
 351              		.cfi_offset 14, -4
 352 0002 83B0     		sub	sp, sp, #12
 353              		.cfi_def_cfa_offset 16
 354              		.loc 1 494 0
 355 0004 074B     		ldr	r3, .L30
 356 0006 1B68     		ldr	r3, [r3]
 357 0008 0193     		str	r3, [sp, #4]
 358              	.LBB24:
 359              	.LBB25:
 360              		.loc 2 342 0
 361              		.syntax unified
 362              	@ 342 "../lib/e-puck2_main-processor/ChibiOS//os/ext/CMSIS/include/core_cmFunc.h" 1
 363 000a 72B6     		cpsid i
 364              	@ 0 "" 2
 365              		.thumb
 366              		.syntax unified
 367              	.LBE25:
 368              	.LBE24:
 369              		.loc 1 497 0
 370 000c 00BF     		nop
 371 000e 054B     		ldr	r3, .L30
 372 0010 019A     		ldr	r2, [sp, #4]
 373 0012 1B68     		ldr	r3, [r3]
 374 0014 9A42     		cmp	r2, r3
 375 0016 01D0     		beq	.L29
 376 0018 FFF7FEFF 		bl	__stack_chk_fail
 377              	.L29:
 378 001c 03B0     		add	sp, sp, #12
 379              		.cfi_def_cfa_offset 4
 380              		@ sp needed
 381 001e 5DF804FB 		ldr	pc, [sp], #4
 382              	.L31:
 383 0022 00BF     		.align	2
 384              	.L30:
 385 0024 00000000 		.word	__stack_chk_guard
 386              		.cfi_endproc
 387              	.LFE120:
 388              		.size	port_disable, .-port_disable
 389              		.section	.text.port_suspend,"ax",%progbits
 390              		.align	1
 391              		.p2align 4,,15
 392              		.syntax unified
 393              		.thumb
 394              		.thumb_func
 395              		.fpu fpv4-sp-d16
 396              		.type	port_suspend, %function
 397              	port_suspend:
 398              	.LFB121:
 399              		.loc 1 504 0
ARM GAS  C:\Users\PCHAUT~1\AppData\Local\Temp\cctRuZQc.s 			page 8


 400              		.cfi_startproc
 401              		@ args = 0, pretend = 0, frame = 8
 402              		@ frame_needed = 0, uses_anonymous_args = 0
 403 0000 00B5     		push	{lr}
 404              		.cfi_def_cfa_offset 4
 405              		.cfi_offset 14, -4
 406 0002 83B0     		sub	sp, sp, #12
 407              		.cfi_def_cfa_offset 16
 408              		.loc 1 504 0
 409 0004 094B     		ldr	r3, .L34
 410 0006 1B68     		ldr	r3, [r3]
 411 0008 0193     		str	r3, [sp, #4]
 412 000a 2023     		movs	r3, #32
 413 000c 0093     		str	r3, [sp]
 414              	.LBB26:
 415              	.LBB27:
 416              		.loc 2 546 0
 417 000e 009B     		ldr	r3, [sp]
 418              		.syntax unified
 419              	@ 546 "../lib/e-puck2_main-processor/ChibiOS//os/ext/CMSIS/include/core_cmFunc.h" 1
 420 0010 83F31188 		MSR basepri, r3
 421              	@ 0 "" 2
 422              		.thumb
 423              		.syntax unified
 424              	.LBE27:
 425              	.LBE26:
 426              	.LBB28:
 427              	.LBB29:
 428              		.loc 2 331 0
 429              		.syntax unified
 430              	@ 331 "../lib/e-puck2_main-processor/ChibiOS//os/ext/CMSIS/include/core_cmFunc.h" 1
 431 0014 62B6     		cpsie i
 432              	@ 0 "" 2
 433              		.thumb
 434              		.syntax unified
 435              	.LBE29:
 436              	.LBE28:
 437              		.loc 1 512 0
 438 0016 00BF     		nop
 439 0018 044B     		ldr	r3, .L34
 440 001a 019A     		ldr	r2, [sp, #4]
 441 001c 1B68     		ldr	r3, [r3]
 442 001e 9A42     		cmp	r2, r3
 443 0020 01D0     		beq	.L33
 444 0022 FFF7FEFF 		bl	__stack_chk_fail
 445              	.L33:
 446 0026 03B0     		add	sp, sp, #12
 447              		.cfi_def_cfa_offset 4
 448              		@ sp needed
 449 0028 5DF804FB 		ldr	pc, [sp], #4
 450              	.L35:
 451              		.align	2
 452              	.L34:
 453 002c 00000000 		.word	__stack_chk_guard
 454              		.cfi_endproc
 455              	.LFE121:
 456              		.size	port_suspend, .-port_suspend
ARM GAS  C:\Users\PCHAUT~1\AppData\Local\Temp\cctRuZQc.s 			page 9


 457              		.section	.text.port_enable,"ax",%progbits
 458              		.align	1
 459              		.p2align 4,,15
 460              		.syntax unified
 461              		.thumb
 462              		.thumb_func
 463              		.fpu fpv4-sp-d16
 464              		.type	port_enable, %function
 465              	port_enable:
 466              	.LFB122:
 467              		.loc 1 518 0
 468              		.cfi_startproc
 469              		@ args = 0, pretend = 0, frame = 8
 470              		@ frame_needed = 0, uses_anonymous_args = 0
 471 0000 00B5     		push	{lr}
 472              		.cfi_def_cfa_offset 4
 473              		.cfi_offset 14, -4
 474 0002 83B0     		sub	sp, sp, #12
 475              		.cfi_def_cfa_offset 16
 476              		.loc 1 518 0
 477 0004 094B     		ldr	r3, .L38
 478 0006 1B68     		ldr	r3, [r3]
 479 0008 0193     		str	r3, [sp, #4]
 480 000a 0023     		movs	r3, #0
 481 000c 0093     		str	r3, [sp]
 482              	.LBB30:
 483              	.LBB31:
 484              		.loc 2 546 0
 485 000e 009B     		ldr	r3, [sp]
 486              		.syntax unified
 487              	@ 546 "../lib/e-puck2_main-processor/ChibiOS//os/ext/CMSIS/include/core_cmFunc.h" 1
 488 0010 83F31188 		MSR basepri, r3
 489              	@ 0 "" 2
 490              		.thumb
 491              		.syntax unified
 492              	.LBE31:
 493              	.LBE30:
 494              	.LBB32:
 495              	.LBB33:
 496              		.loc 2 331 0
 497              		.syntax unified
 498              	@ 331 "../lib/e-puck2_main-processor/ChibiOS//os/ext/CMSIS/include/core_cmFunc.h" 1
 499 0014 62B6     		cpsie i
 500              	@ 0 "" 2
 501              		.thumb
 502              		.syntax unified
 503              	.LBE33:
 504              	.LBE32:
 505              		.loc 1 524 0
 506 0016 00BF     		nop
 507 0018 044B     		ldr	r3, .L38
 508 001a 019A     		ldr	r2, [sp, #4]
 509 001c 1B68     		ldr	r3, [r3]
 510 001e 9A42     		cmp	r2, r3
 511 0020 01D0     		beq	.L37
 512 0022 FFF7FEFF 		bl	__stack_chk_fail
 513              	.L37:
ARM GAS  C:\Users\PCHAUT~1\AppData\Local\Temp\cctRuZQc.s 			page 10


 514 0026 03B0     		add	sp, sp, #12
 515              		.cfi_def_cfa_offset 4
 516              		@ sp needed
 517 0028 5DF804FB 		ldr	pc, [sp], #4
 518              	.L39:
 519              		.align	2
 520              	.L38:
 521 002c 00000000 		.word	__stack_chk_guard
 522              		.cfi_endproc
 523              	.LFE122:
 524              		.size	port_enable, .-port_enable
 525              		.section	.text.chSysDisable,"ax",%progbits
 526              		.align	1
 527              		.p2align 4,,15
 528              		.syntax unified
 529              		.thumb
 530              		.thumb_func
 531              		.fpu fpv4-sp-d16
 532              		.type	chSysDisable, %function
 533              	chSysDisable:
 534              	.LFB142:
 535              		.file 3 "../lib/e-puck2_main-processor/ChibiOS//os/rt/include/chsys.h"
 536              		.loc 3 303 0
 537              		.cfi_startproc
 538              		@ args = 0, pretend = 0, frame = 8
 539              		@ frame_needed = 0, uses_anonymous_args = 0
 540 0000 00B5     		push	{lr}
 541              		.cfi_def_cfa_offset 4
 542              		.cfi_offset 14, -4
 543 0002 83B0     		sub	sp, sp, #12
 544              		.cfi_def_cfa_offset 16
 545              		.loc 3 303 0
 546 0004 084B     		ldr	r3, .L42
 547 0006 1B68     		ldr	r3, [r3]
 548 0008 0193     		str	r3, [sp, #4]
 549              		.loc 3 305 0
 550 000a FFF7FEFF 		bl	port_disable
 551              		.loc 3 306 0
 552 000e FFF7FEFF 		bl	_dbg_check_disable
 553              		.loc 3 307 0
 554 0012 00BF     		nop
 555 0014 044B     		ldr	r3, .L42
 556 0016 019A     		ldr	r2, [sp, #4]
 557 0018 1B68     		ldr	r3, [r3]
 558 001a 9A42     		cmp	r2, r3
 559 001c 01D0     		beq	.L41
 560 001e FFF7FEFF 		bl	__stack_chk_fail
 561              	.L41:
 562 0022 03B0     		add	sp, sp, #12
 563              		.cfi_def_cfa_offset 4
 564              		@ sp needed
 565 0024 5DF804FB 		ldr	pc, [sp], #4
 566              	.L43:
 567              		.align	2
 568              	.L42:
 569 0028 00000000 		.word	__stack_chk_guard
 570              		.cfi_endproc
ARM GAS  C:\Users\PCHAUT~1\AppData\Local\Temp\cctRuZQc.s 			page 11


 571              	.LFE142:
 572              		.size	chSysDisable, .-chSysDisable
 573              		.section	.text.chSysSuspend,"ax",%progbits
 574              		.align	1
 575              		.p2align 4,,15
 576              		.syntax unified
 577              		.thumb
 578              		.thumb_func
 579              		.fpu fpv4-sp-d16
 580              		.type	chSysSuspend, %function
 581              	chSysSuspend:
 582              	.LFB143:
 583              		.loc 3 320 0
 584              		.cfi_startproc
 585              		@ args = 0, pretend = 0, frame = 8
 586              		@ frame_needed = 0, uses_anonymous_args = 0
 587 0000 00B5     		push	{lr}
 588              		.cfi_def_cfa_offset 4
 589              		.cfi_offset 14, -4
 590 0002 83B0     		sub	sp, sp, #12
 591              		.cfi_def_cfa_offset 16
 592              		.loc 3 320 0
 593 0004 084B     		ldr	r3, .L46
 594 0006 1B68     		ldr	r3, [r3]
 595 0008 0193     		str	r3, [sp, #4]
 596              		.loc 3 322 0
 597 000a FFF7FEFF 		bl	port_suspend
 598              		.loc 3 323 0
 599 000e FFF7FEFF 		bl	_dbg_check_suspend
 600              		.loc 3 324 0
 601 0012 00BF     		nop
 602 0014 044B     		ldr	r3, .L46
 603 0016 019A     		ldr	r2, [sp, #4]
 604 0018 1B68     		ldr	r3, [r3]
 605 001a 9A42     		cmp	r2, r3
 606 001c 01D0     		beq	.L45
 607 001e FFF7FEFF 		bl	__stack_chk_fail
 608              	.L45:
 609 0022 03B0     		add	sp, sp, #12
 610              		.cfi_def_cfa_offset 4
 611              		@ sp needed
 612 0024 5DF804FB 		ldr	pc, [sp], #4
 613              	.L47:
 614              		.align	2
 615              	.L46:
 616 0028 00000000 		.word	__stack_chk_guard
 617              		.cfi_endproc
 618              	.LFE143:
 619              		.size	chSysSuspend, .-chSysSuspend
 620              		.section	.text.chSysEnable,"ax",%progbits
 621              		.align	1
 622              		.p2align 4,,15
 623              		.syntax unified
 624              		.thumb
 625              		.thumb_func
 626              		.fpu fpv4-sp-d16
 627              		.type	chSysEnable, %function
ARM GAS  C:\Users\PCHAUT~1\AppData\Local\Temp\cctRuZQc.s 			page 12


 628              	chSysEnable:
 629              	.LFB144:
 630              		.loc 3 335 0
 631              		.cfi_startproc
 632              		@ args = 0, pretend = 0, frame = 8
 633              		@ frame_needed = 0, uses_anonymous_args = 0
 634 0000 00B5     		push	{lr}
 635              		.cfi_def_cfa_offset 4
 636              		.cfi_offset 14, -4
 637 0002 83B0     		sub	sp, sp, #12
 638              		.cfi_def_cfa_offset 16
 639              		.loc 3 335 0
 640 0004 084B     		ldr	r3, .L50
 641 0006 1B68     		ldr	r3, [r3]
 642 0008 0193     		str	r3, [sp, #4]
 643              		.loc 3 337 0
 644 000a FFF7FEFF 		bl	_dbg_check_enable
 645              		.loc 3 338 0
 646 000e FFF7FEFF 		bl	port_enable
 647              		.loc 3 339 0
 648 0012 00BF     		nop
 649 0014 044B     		ldr	r3, .L50
 650 0016 019A     		ldr	r2, [sp, #4]
 651 0018 1B68     		ldr	r3, [r3]
 652 001a 9A42     		cmp	r2, r3
 653 001c 01D0     		beq	.L49
 654 001e FFF7FEFF 		bl	__stack_chk_fail
 655              	.L49:
 656 0022 03B0     		add	sp, sp, #12
 657              		.cfi_def_cfa_offset 4
 658              		@ sp needed
 659 0024 5DF804FB 		ldr	pc, [sp], #4
 660              	.L51:
 661              		.align	2
 662              	.L50:
 663 0028 00000000 		.word	__stack_chk_guard
 664              		.cfi_endproc
 665              	.LFE144:
 666              		.size	chSysEnable, .-chSysEnable
 667              		.section	.text.chSysLock,"ax",%progbits
 668              		.align	1
 669              		.p2align 4,,15
 670              		.syntax unified
 671              		.thumb
 672              		.thumb_func
 673              		.fpu fpv4-sp-d16
 674              		.type	chSysLock, %function
 675              	chSysLock:
 676              	.LFB145:
 677              		.loc 3 346 0
 678              		.cfi_startproc
 679              		@ args = 0, pretend = 0, frame = 8
 680              		@ frame_needed = 0, uses_anonymous_args = 0
 681 0000 00B5     		push	{lr}
 682              		.cfi_def_cfa_offset 4
 683              		.cfi_offset 14, -4
 684 0002 83B0     		sub	sp, sp, #12
ARM GAS  C:\Users\PCHAUT~1\AppData\Local\Temp\cctRuZQc.s 			page 13


 685              		.cfi_def_cfa_offset 16
 686              		.loc 3 346 0
 687 0004 094B     		ldr	r3, .L54
 688 0006 1B68     		ldr	r3, [r3]
 689 0008 0193     		str	r3, [sp, #4]
 690              		.loc 3 348 0
 691 000a FFF7FEFF 		bl	port_lock
 692              		.loc 3 349 0
 693 000e FFF7FEFF 		bl	_stats_start_measure_crit_thd
 694              		.loc 3 350 0
 695 0012 FFF7FEFF 		bl	_dbg_check_lock
 696              		.loc 3 351 0
 697 0016 00BF     		nop
 698 0018 044B     		ldr	r3, .L54
 699 001a 019A     		ldr	r2, [sp, #4]
 700 001c 1B68     		ldr	r3, [r3]
 701 001e 9A42     		cmp	r2, r3
 702 0020 01D0     		beq	.L53
 703 0022 FFF7FEFF 		bl	__stack_chk_fail
 704              	.L53:
 705 0026 03B0     		add	sp, sp, #12
 706              		.cfi_def_cfa_offset 4
 707              		@ sp needed
 708 0028 5DF804FB 		ldr	pc, [sp], #4
 709              	.L55:
 710              		.align	2
 711              	.L54:
 712 002c 00000000 		.word	__stack_chk_guard
 713              		.cfi_endproc
 714              	.LFE145:
 715              		.size	chSysLock, .-chSysLock
 716              		.section	.text.chSysUnlock,"ax",%progbits
 717              		.align	1
 718              		.p2align 4,,15
 719              		.syntax unified
 720              		.thumb
 721              		.thumb_func
 722              		.fpu fpv4-sp-d16
 723              		.type	chSysUnlock, %function
 724              	chSysUnlock:
 725              	.LFB146:
 726              		.loc 3 358 0
 727              		.cfi_startproc
 728              		@ args = 0, pretend = 0, frame = 8
 729              		@ frame_needed = 0, uses_anonymous_args = 0
 730 0000 00B5     		push	{lr}
 731              		.cfi_def_cfa_offset 4
 732              		.cfi_offset 14, -4
 733 0002 83B0     		sub	sp, sp, #12
 734              		.cfi_def_cfa_offset 16
 735              		.loc 3 358 0
 736 0004 114B     		ldr	r3, .L59
 737 0006 1B68     		ldr	r3, [r3]
 738 0008 0193     		str	r3, [sp, #4]
 739              		.loc 3 360 0
 740 000a FFF7FEFF 		bl	_dbg_check_unlock
 741              		.loc 3 361 0
ARM GAS  C:\Users\PCHAUT~1\AppData\Local\Temp\cctRuZQc.s 			page 14


 742 000e FFF7FEFF 		bl	_stats_stop_measure_crit_thd
 743              		.loc 3 367 0
 744 0012 0F4B     		ldr	r3, .L59+4
 745 0014 1B68     		ldr	r3, [r3]
 746 0016 0E4A     		ldr	r2, .L59+4
 747 0018 9342     		cmp	r3, r2
 748 001a 0AD0     		beq	.L57
 749              		.loc 3 367 0 is_stmt 0 discriminator 2
 750 001c 0C4B     		ldr	r3, .L59+4
 751 001e 9B69     		ldr	r3, [r3, #24]
 752 0020 9A68     		ldr	r2, [r3, #8]
 753 0022 0B4B     		ldr	r3, .L59+4
 754 0024 1B68     		ldr	r3, [r3]
 755 0026 9B68     		ldr	r3, [r3, #8]
 756 0028 9A42     		cmp	r2, r3
 757 002a 02D2     		bcs	.L57
 758              		.loc 3 367 0 discriminator 3
 759 002c 0948     		ldr	r0, .L59+8
 760 002e FFF7FEFF 		bl	chSysHalt
 761              	.L57:
 762              		.loc 3 371 0 is_stmt 1
 763 0032 FFF7FEFF 		bl	port_unlock
 764              		.loc 3 372 0
 765 0036 00BF     		nop
 766 0038 044B     		ldr	r3, .L59
 767 003a 019A     		ldr	r2, [sp, #4]
 768 003c 1B68     		ldr	r3, [r3]
 769 003e 9A42     		cmp	r2, r3
 770 0040 01D0     		beq	.L58
 771 0042 FFF7FEFF 		bl	__stack_chk_fail
 772              	.L58:
 773 0046 03B0     		add	sp, sp, #12
 774              		.cfi_def_cfa_offset 4
 775              		@ sp needed
 776 0048 5DF804FB 		ldr	pc, [sp], #4
 777              	.L60:
 778              		.align	2
 779              	.L59:
 780 004c 00000000 		.word	__stack_chk_guard
 781 0050 00000000 		.word	ch
 782 0054 00000000 		.word	__func__.7153
 783              		.cfi_endproc
 784              	.LFE146:
 785              		.size	chSysUnlock, .-chSysUnlock
 786              		.section	.text.chSysLockFromISR,"ax",%progbits
 787              		.align	1
 788              		.p2align 4,,15
 789              		.syntax unified
 790              		.thumb
 791              		.thumb_func
 792              		.fpu fpv4-sp-d16
 793              		.type	chSysLockFromISR, %function
 794              	chSysLockFromISR:
 795              	.LFB147:
 796              		.loc 3 386 0
 797              		.cfi_startproc
 798              		@ args = 0, pretend = 0, frame = 8
ARM GAS  C:\Users\PCHAUT~1\AppData\Local\Temp\cctRuZQc.s 			page 15


 799              		@ frame_needed = 0, uses_anonymous_args = 0
 800 0000 00B5     		push	{lr}
 801              		.cfi_def_cfa_offset 4
 802              		.cfi_offset 14, -4
 803 0002 83B0     		sub	sp, sp, #12
 804              		.cfi_def_cfa_offset 16
 805              		.loc 3 386 0
 806 0004 094B     		ldr	r3, .L63
 807 0006 1B68     		ldr	r3, [r3]
 808 0008 0193     		str	r3, [sp, #4]
 809              		.loc 3 388 0
 810 000a FFF7FEFF 		bl	port_lock_from_isr
 811              		.loc 3 389 0
 812 000e FFF7FEFF 		bl	_stats_start_measure_crit_isr
 813              		.loc 3 390 0
 814 0012 FFF7FEFF 		bl	_dbg_check_lock_from_isr
 815              		.loc 3 391 0
 816 0016 00BF     		nop
 817 0018 044B     		ldr	r3, .L63
 818 001a 019A     		ldr	r2, [sp, #4]
 819 001c 1B68     		ldr	r3, [r3]
 820 001e 9A42     		cmp	r2, r3
 821 0020 01D0     		beq	.L62
 822 0022 FFF7FEFF 		bl	__stack_chk_fail
 823              	.L62:
 824 0026 03B0     		add	sp, sp, #12
 825              		.cfi_def_cfa_offset 4
 826              		@ sp needed
 827 0028 5DF804FB 		ldr	pc, [sp], #4
 828              	.L64:
 829              		.align	2
 830              	.L63:
 831 002c 00000000 		.word	__stack_chk_guard
 832              		.cfi_endproc
 833              	.LFE147:
 834              		.size	chSysLockFromISR, .-chSysLockFromISR
 835              		.section	.text.chSysUnlockFromISR,"ax",%progbits
 836              		.align	1
 837              		.p2align 4,,15
 838              		.syntax unified
 839              		.thumb
 840              		.thumb_func
 841              		.fpu fpv4-sp-d16
 842              		.type	chSysUnlockFromISR, %function
 843              	chSysUnlockFromISR:
 844              	.LFB148:
 845              		.loc 3 406 0
 846              		.cfi_startproc
 847              		@ args = 0, pretend = 0, frame = 8
 848              		@ frame_needed = 0, uses_anonymous_args = 0
 849 0000 00B5     		push	{lr}
 850              		.cfi_def_cfa_offset 4
 851              		.cfi_offset 14, -4
 852 0002 83B0     		sub	sp, sp, #12
 853              		.cfi_def_cfa_offset 16
 854              		.loc 3 406 0
 855 0004 094B     		ldr	r3, .L67
ARM GAS  C:\Users\PCHAUT~1\AppData\Local\Temp\cctRuZQc.s 			page 16


 856 0006 1B68     		ldr	r3, [r3]
 857 0008 0193     		str	r3, [sp, #4]
 858              		.loc 3 408 0
 859 000a FFF7FEFF 		bl	_dbg_check_unlock_from_isr
 860              		.loc 3 409 0
 861 000e FFF7FEFF 		bl	_stats_stop_measure_crit_isr
 862              		.loc 3 410 0
 863 0012 FFF7FEFF 		bl	port_unlock_from_isr
 864              		.loc 3 411 0
 865 0016 00BF     		nop
 866 0018 044B     		ldr	r3, .L67
 867 001a 019A     		ldr	r2, [sp, #4]
 868 001c 1B68     		ldr	r3, [r3]
 869 001e 9A42     		cmp	r2, r3
 870 0020 01D0     		beq	.L66
 871 0022 FFF7FEFF 		bl	__stack_chk_fail
 872              	.L66:
 873 0026 03B0     		add	sp, sp, #12
 874              		.cfi_def_cfa_offset 4
 875              		@ sp needed
 876 0028 5DF804FB 		ldr	pc, [sp], #4
 877              	.L68:
 878              		.align	2
 879              	.L67:
 880 002c 00000000 		.word	__stack_chk_guard
 881              		.cfi_endproc
 882              	.LFE148:
 883              		.size	chSysUnlockFromISR, .-chSysUnlockFromISR
 884              		.section	.text.chSysUnconditionalLock,"ax",%progbits
 885              		.align	1
 886              		.p2align 4,,15
 887              		.syntax unified
 888              		.thumb
 889              		.thumb_func
 890              		.fpu fpv4-sp-d16
 891              		.type	chSysUnconditionalLock, %function
 892              	chSysUnconditionalLock:
 893              	.LFB149:
 894              		.loc 3 420 0
 895              		.cfi_startproc
 896              		@ args = 0, pretend = 0, frame = 8
 897              		@ frame_needed = 0, uses_anonymous_args = 0
 898 0000 00B5     		push	{lr}
 899              		.cfi_def_cfa_offset 4
 900              		.cfi_offset 14, -4
 901 0002 83B0     		sub	sp, sp, #12
 902              		.cfi_def_cfa_offset 16
 903              		.loc 3 420 0
 904 0004 0C4B     		ldr	r3, .L73
 905 0006 1B68     		ldr	r3, [r3]
 906 0008 0193     		str	r3, [sp, #4]
 907              		.loc 3 422 0
 908 000a FFF7FEFF 		bl	port_get_irq_status
 909 000e 0346     		mov	r3, r0
 910 0010 1846     		mov	r0, r3
 911 0012 FFF7FEFF 		bl	port_irq_enabled
 912 0016 0346     		mov	r3, r0
ARM GAS  C:\Users\PCHAUT~1\AppData\Local\Temp\cctRuZQc.s 			page 17


 913 0018 002B     		cmp	r3, #0
 914 001a 01D0     		beq	.L72
 915              		.loc 3 423 0
 916 001c FFF7FEFF 		bl	chSysLock
 917              	.L72:
 918              		.loc 3 425 0
 919 0020 00BF     		nop
 920 0022 054B     		ldr	r3, .L73
 921 0024 019A     		ldr	r2, [sp, #4]
 922 0026 1B68     		ldr	r3, [r3]
 923 0028 9A42     		cmp	r2, r3
 924 002a 01D0     		beq	.L71
 925 002c FFF7FEFF 		bl	__stack_chk_fail
 926              	.L71:
 927 0030 03B0     		add	sp, sp, #12
 928              		.cfi_def_cfa_offset 4
 929              		@ sp needed
 930 0032 5DF804FB 		ldr	pc, [sp], #4
 931              	.L74:
 932 0036 00BF     		.align	2
 933              	.L73:
 934 0038 00000000 		.word	__stack_chk_guard
 935              		.cfi_endproc
 936              	.LFE149:
 937              		.size	chSysUnconditionalLock, .-chSysUnconditionalLock
 938              		.section	.text.chSysUnconditionalUnlock,"ax",%progbits
 939              		.align	1
 940              		.p2align 4,,15
 941              		.syntax unified
 942              		.thumb
 943              		.thumb_func
 944              		.fpu fpv4-sp-d16
 945              		.type	chSysUnconditionalUnlock, %function
 946              	chSysUnconditionalUnlock:
 947              	.LFB150:
 948              		.loc 3 434 0
 949              		.cfi_startproc
 950              		@ args = 0, pretend = 0, frame = 8
 951              		@ frame_needed = 0, uses_anonymous_args = 0
 952 0000 00B5     		push	{lr}
 953              		.cfi_def_cfa_offset 4
 954              		.cfi_offset 14, -4
 955 0002 83B0     		sub	sp, sp, #12
 956              		.cfi_def_cfa_offset 16
 957              		.loc 3 434 0
 958 0004 0D4B     		ldr	r3, .L79
 959 0006 1B68     		ldr	r3, [r3]
 960 0008 0193     		str	r3, [sp, #4]
 961              		.loc 3 436 0
 962 000a FFF7FEFF 		bl	port_get_irq_status
 963 000e 0346     		mov	r3, r0
 964 0010 1846     		mov	r0, r3
 965 0012 FFF7FEFF 		bl	port_irq_enabled
 966 0016 0346     		mov	r3, r0
 967 0018 83F00103 		eor	r3, r3, #1
 968 001c DBB2     		uxtb	r3, r3
 969 001e 002B     		cmp	r3, #0
ARM GAS  C:\Users\PCHAUT~1\AppData\Local\Temp\cctRuZQc.s 			page 18


 970 0020 01D0     		beq	.L78
 971              		.loc 3 437 0
 972 0022 FFF7FEFF 		bl	chSysUnlock
 973              	.L78:
 974              		.loc 3 439 0
 975 0026 00BF     		nop
 976 0028 044B     		ldr	r3, .L79
 977 002a 019A     		ldr	r2, [sp, #4]
 978 002c 1B68     		ldr	r3, [r3]
 979 002e 9A42     		cmp	r2, r3
 980 0030 01D0     		beq	.L77
 981 0032 FFF7FEFF 		bl	__stack_chk_fail
 982              	.L77:
 983 0036 03B0     		add	sp, sp, #12
 984              		.cfi_def_cfa_offset 4
 985              		@ sp needed
 986 0038 5DF804FB 		ldr	pc, [sp], #4
 987              	.L80:
 988              		.align	2
 989              	.L79:
 990 003c 00000000 		.word	__stack_chk_guard
 991              		.cfi_endproc
 992              	.LFE150:
 993              		.size	chSysUnconditionalUnlock, .-chSysUnconditionalUnlock
 994              		.section	.text.chVTObjectInit,"ax",%progbits
 995              		.align	1
 996              		.p2align 4,,15
 997              		.syntax unified
 998              		.thumb
 999              		.thumb_func
 1000              		.fpu fpv4-sp-d16
 1001              		.type	chVTObjectInit, %function
 1002              	chVTObjectInit:
 1003              	.LFB152:
 1004              		.file 4 "../lib/e-puck2_main-processor/ChibiOS//os/rt/include/chvt.h"
 1005              		.loc 4 210 0
 1006              		.cfi_startproc
 1007              		@ args = 0, pretend = 0, frame = 16
 1008              		@ frame_needed = 0, uses_anonymous_args = 0
 1009 0000 00B5     		push	{lr}
 1010              		.cfi_def_cfa_offset 4
 1011              		.cfi_offset 14, -4
 1012 0002 85B0     		sub	sp, sp, #20
 1013              		.cfi_def_cfa_offset 24
 1014 0004 0190     		str	r0, [sp, #4]
 1015              		.loc 4 210 0
 1016 0006 084B     		ldr	r3, .L83
 1017 0008 1B68     		ldr	r3, [r3]
 1018 000a 0393     		str	r3, [sp, #12]
 1019              		.loc 4 212 0
 1020 000c 019B     		ldr	r3, [sp, #4]
 1021 000e 0022     		movs	r2, #0
 1022 0010 DA60     		str	r2, [r3, #12]
 1023              		.loc 4 213 0
 1024 0012 00BF     		nop
 1025 0014 044B     		ldr	r3, .L83
 1026 0016 039A     		ldr	r2, [sp, #12]
ARM GAS  C:\Users\PCHAUT~1\AppData\Local\Temp\cctRuZQc.s 			page 19


 1027 0018 1B68     		ldr	r3, [r3]
 1028 001a 9A42     		cmp	r2, r3
 1029 001c 01D0     		beq	.L82
 1030 001e FFF7FEFF 		bl	__stack_chk_fail
 1031              	.L82:
 1032 0022 05B0     		add	sp, sp, #20
 1033              		.cfi_def_cfa_offset 4
 1034              		@ sp needed
 1035 0024 5DF804FB 		ldr	pc, [sp], #4
 1036              	.L84:
 1037              		.align	2
 1038              	.L83:
 1039 0028 00000000 		.word	__stack_chk_guard
 1040              		.cfi_endproc
 1041              	.LFE152:
 1042              		.size	chVTObjectInit, .-chVTObjectInit
 1043              		.section	.text.chVTIsArmedI,"ax",%progbits
 1044              		.align	1
 1045              		.p2align 4,,15
 1046              		.syntax unified
 1047              		.thumb
 1048              		.thumb_func
 1049              		.fpu fpv4-sp-d16
 1050              		.type	chVTIsArmedI, %function
 1051              	chVTIsArmedI:
 1052              	.LFB159:
 1053              		.loc 4 337 0
 1054              		.cfi_startproc
 1055              		@ args = 0, pretend = 0, frame = 16
 1056              		@ frame_needed = 0, uses_anonymous_args = 0
 1057 0000 00B5     		push	{lr}
 1058              		.cfi_def_cfa_offset 4
 1059              		.cfi_offset 14, -4
 1060 0002 85B0     		sub	sp, sp, #20
 1061              		.cfi_def_cfa_offset 24
 1062 0004 0190     		str	r0, [sp, #4]
 1063              		.loc 4 337 0
 1064 0006 0B4B     		ldr	r3, .L88
 1065 0008 1B68     		ldr	r3, [r3]
 1066 000a 0393     		str	r3, [sp, #12]
 1067              		.loc 4 339 0
 1068 000c FFF7FEFF 		bl	chDbgCheckClassI
 1069              		.loc 4 341 0
 1070 0010 019B     		ldr	r3, [sp, #4]
 1071 0012 DB68     		ldr	r3, [r3, #12]
 1072 0014 002B     		cmp	r3, #0
 1073 0016 14BF     		ite	ne
 1074 0018 0123     		movne	r3, #1
 1075 001a 0023     		moveq	r3, #0
 1076 001c DBB2     		uxtb	r3, r3
 1077              		.loc 4 342 0
 1078 001e 1846     		mov	r0, r3
 1079 0020 044B     		ldr	r3, .L88
 1080 0022 039A     		ldr	r2, [sp, #12]
 1081 0024 1B68     		ldr	r3, [r3]
 1082 0026 9A42     		cmp	r2, r3
 1083 0028 01D0     		beq	.L87
ARM GAS  C:\Users\PCHAUT~1\AppData\Local\Temp\cctRuZQc.s 			page 20


 1084 002a FFF7FEFF 		bl	__stack_chk_fail
 1085              	.L87:
 1086 002e 05B0     		add	sp, sp, #20
 1087              		.cfi_def_cfa_offset 4
 1088              		@ sp needed
 1089 0030 5DF804FB 		ldr	pc, [sp], #4
 1090              	.L89:
 1091              		.align	2
 1092              	.L88:
 1093 0034 00000000 		.word	__stack_chk_guard
 1094              		.cfi_endproc
 1095              	.LFE159:
 1096              		.size	chVTIsArmedI, .-chVTIsArmedI
 1097              		.section	.text.chVTIsArmed,"ax",%progbits
 1098              		.align	1
 1099              		.p2align 4,,15
 1100              		.syntax unified
 1101              		.thumb
 1102              		.thumb_func
 1103              		.fpu fpv4-sp-d16
 1104              		.type	chVTIsArmed, %function
 1105              	chVTIsArmed:
 1106              	.LFB160:
 1107              		.loc 4 354 0
 1108              		.cfi_startproc
 1109              		@ args = 0, pretend = 0, frame = 16
 1110              		@ frame_needed = 0, uses_anonymous_args = 0
 1111 0000 00B5     		push	{lr}
 1112              		.cfi_def_cfa_offset 4
 1113              		.cfi_offset 14, -4
 1114 0002 85B0     		sub	sp, sp, #20
 1115              		.cfi_def_cfa_offset 24
 1116 0004 0190     		str	r0, [sp, #4]
 1117              		.loc 4 354 0
 1118 0006 0D4B     		ldr	r3, .L93
 1119 0008 1B68     		ldr	r3, [r3]
 1120 000a 0393     		str	r3, [sp, #12]
 1121              		.loc 4 357 0
 1122 000c FFF7FEFF 		bl	chSysLock
 1123              		.loc 4 358 0
 1124 0010 0198     		ldr	r0, [sp, #4]
 1125 0012 FFF7FEFF 		bl	chVTIsArmedI
 1126 0016 0346     		mov	r3, r0
 1127 0018 8DF80B30 		strb	r3, [sp, #11]
 1128              		.loc 4 359 0
 1129 001c FFF7FEFF 		bl	chSysUnlock
 1130              		.loc 4 361 0
 1131 0020 9DF80B30 		ldrb	r3, [sp, #11]	@ zero_extendqisi2
 1132              		.loc 4 362 0
 1133 0024 1846     		mov	r0, r3
 1134 0026 054B     		ldr	r3, .L93
 1135 0028 039A     		ldr	r2, [sp, #12]
 1136 002a 1B68     		ldr	r3, [r3]
 1137 002c 9A42     		cmp	r2, r3
 1138 002e 01D0     		beq	.L92
 1139 0030 FFF7FEFF 		bl	__stack_chk_fail
 1140              	.L92:
ARM GAS  C:\Users\PCHAUT~1\AppData\Local\Temp\cctRuZQc.s 			page 21


 1141 0034 05B0     		add	sp, sp, #20
 1142              		.cfi_def_cfa_offset 4
 1143              		@ sp needed
 1144 0036 5DF804FB 		ldr	pc, [sp], #4
 1145              	.L94:
 1146 003a 00BF     		.align	2
 1147              	.L93:
 1148 003c 00000000 		.word	__stack_chk_guard
 1149              		.cfi_endproc
 1150              	.LFE160:
 1151              		.size	chVTIsArmed, .-chVTIsArmed
 1152              		.section	.text.chVTResetI,"ax",%progbits
 1153              		.align	1
 1154              		.p2align 4,,15
 1155              		.syntax unified
 1156              		.thumb
 1157              		.thumb_func
 1158              		.fpu fpv4-sp-d16
 1159              		.type	chVTResetI, %function
 1160              	chVTResetI:
 1161              	.LFB161:
 1162              		.loc 4 374 0
 1163              		.cfi_startproc
 1164              		@ args = 0, pretend = 0, frame = 16
 1165              		@ frame_needed = 0, uses_anonymous_args = 0
 1166 0000 00B5     		push	{lr}
 1167              		.cfi_def_cfa_offset 4
 1168              		.cfi_offset 14, -4
 1169 0002 85B0     		sub	sp, sp, #20
 1170              		.cfi_def_cfa_offset 24
 1171 0004 0190     		str	r0, [sp, #4]
 1172              		.loc 4 374 0
 1173 0006 0B4B     		ldr	r3, .L99
 1174 0008 1B68     		ldr	r3, [r3]
 1175 000a 0393     		str	r3, [sp, #12]
 1176              		.loc 4 376 0
 1177 000c 0198     		ldr	r0, [sp, #4]
 1178 000e FFF7FEFF 		bl	chVTIsArmedI
 1179 0012 0346     		mov	r3, r0
 1180 0014 002B     		cmp	r3, #0
 1181 0016 02D0     		beq	.L98
 1182              		.loc 4 377 0
 1183 0018 0198     		ldr	r0, [sp, #4]
 1184 001a FFF7FEFF 		bl	chVTDoResetI
 1185              	.L98:
 1186              		.loc 4 379 0
 1187 001e 00BF     		nop
 1188 0020 044B     		ldr	r3, .L99
 1189 0022 039A     		ldr	r2, [sp, #12]
 1190 0024 1B68     		ldr	r3, [r3]
 1191 0026 9A42     		cmp	r2, r3
 1192 0028 01D0     		beq	.L97
 1193 002a FFF7FEFF 		bl	__stack_chk_fail
 1194              	.L97:
 1195 002e 05B0     		add	sp, sp, #20
 1196              		.cfi_def_cfa_offset 4
 1197              		@ sp needed
ARM GAS  C:\Users\PCHAUT~1\AppData\Local\Temp\cctRuZQc.s 			page 22


 1198 0030 5DF804FB 		ldr	pc, [sp], #4
 1199              	.L100:
 1200              		.align	2
 1201              	.L99:
 1202 0034 00000000 		.word	__stack_chk_guard
 1203              		.cfi_endproc
 1204              	.LFE161:
 1205              		.size	chVTResetI, .-chVTResetI
 1206              		.section	.text.chVTSetI,"ax",%progbits
 1207              		.align	1
 1208              		.p2align 4,,15
 1209              		.syntax unified
 1210              		.thumb
 1211              		.thumb_func
 1212              		.fpu fpv4-sp-d16
 1213              		.type	chVTSetI, %function
 1214              	chVTSetI:
 1215              	.LFB163:
 1216              		.loc 4 421 0
 1217              		.cfi_startproc
 1218              		@ args = 0, pretend = 0, frame = 24
 1219              		@ frame_needed = 0, uses_anonymous_args = 0
 1220 0000 00B5     		push	{lr}
 1221              		.cfi_def_cfa_offset 4
 1222              		.cfi_offset 14, -4
 1223 0002 87B0     		sub	sp, sp, #28
 1224              		.cfi_def_cfa_offset 32
 1225 0004 0390     		str	r0, [sp, #12]
 1226 0006 0291     		str	r1, [sp, #8]
 1227 0008 0192     		str	r2, [sp, #4]
 1228 000a 0093     		str	r3, [sp]
 1229              		.loc 4 421 0
 1230 000c 0B4B     		ldr	r3, .L103
 1231 000e 1B68     		ldr	r3, [r3]
 1232 0010 0593     		str	r3, [sp, #20]
 1233              		.loc 4 423 0
 1234 0012 0398     		ldr	r0, [sp, #12]
 1235 0014 FFF7FEFF 		bl	chVTResetI
 1236              		.loc 4 424 0
 1237 0018 009B     		ldr	r3, [sp]
 1238 001a 019A     		ldr	r2, [sp, #4]
 1239 001c 0299     		ldr	r1, [sp, #8]
 1240 001e 0398     		ldr	r0, [sp, #12]
 1241 0020 FFF7FEFF 		bl	chVTDoSetI
 1242              		.loc 4 425 0
 1243 0024 00BF     		nop
 1244 0026 054B     		ldr	r3, .L103
 1245 0028 059A     		ldr	r2, [sp, #20]
 1246 002a 1B68     		ldr	r3, [r3]
 1247 002c 9A42     		cmp	r2, r3
 1248 002e 01D0     		beq	.L102
 1249 0030 FFF7FEFF 		bl	__stack_chk_fail
 1250              	.L102:
 1251 0034 07B0     		add	sp, sp, #28
 1252              		.cfi_def_cfa_offset 4
 1253              		@ sp needed
 1254 0036 5DF804FB 		ldr	pc, [sp], #4
ARM GAS  C:\Users\PCHAUT~1\AppData\Local\Temp\cctRuZQc.s 			page 23


 1255              	.L104:
 1256 003a 00BF     		.align	2
 1257              	.L103:
 1258 003c 00000000 		.word	__stack_chk_guard
 1259              		.cfi_endproc
 1260              	.LFE163:
 1261              		.size	chVTSetI, .-chVTSetI
 1262              		.section	.text.chVTSet,"ax",%progbits
 1263              		.align	1
 1264              		.p2align 4,,15
 1265              		.syntax unified
 1266              		.thumb
 1267              		.thumb_func
 1268              		.fpu fpv4-sp-d16
 1269              		.type	chVTSet, %function
 1270              	chVTSet:
 1271              	.LFB164:
 1272              		.loc 4 450 0
 1273              		.cfi_startproc
 1274              		@ args = 0, pretend = 0, frame = 24
 1275              		@ frame_needed = 0, uses_anonymous_args = 0
 1276 0000 00B5     		push	{lr}
 1277              		.cfi_def_cfa_offset 4
 1278              		.cfi_offset 14, -4
 1279 0002 87B0     		sub	sp, sp, #28
 1280              		.cfi_def_cfa_offset 32
 1281 0004 0390     		str	r0, [sp, #12]
 1282 0006 0291     		str	r1, [sp, #8]
 1283 0008 0192     		str	r2, [sp, #4]
 1284 000a 0093     		str	r3, [sp]
 1285              		.loc 4 450 0
 1286 000c 0B4B     		ldr	r3, .L107
 1287 000e 1B68     		ldr	r3, [r3]
 1288 0010 0593     		str	r3, [sp, #20]
 1289              		.loc 4 452 0
 1290 0012 FFF7FEFF 		bl	chSysLock
 1291              		.loc 4 453 0
 1292 0016 009B     		ldr	r3, [sp]
 1293 0018 019A     		ldr	r2, [sp, #4]
 1294 001a 0299     		ldr	r1, [sp, #8]
 1295 001c 0398     		ldr	r0, [sp, #12]
 1296 001e FFF7FEFF 		bl	chVTSetI
 1297              		.loc 4 454 0
 1298 0022 FFF7FEFF 		bl	chSysUnlock
 1299              		.loc 4 455 0
 1300 0026 00BF     		nop
 1301 0028 044B     		ldr	r3, .L107
 1302 002a 059A     		ldr	r2, [sp, #20]
 1303 002c 1B68     		ldr	r3, [r3]
 1304 002e 9A42     		cmp	r2, r3
 1305 0030 01D0     		beq	.L106
 1306 0032 FFF7FEFF 		bl	__stack_chk_fail
 1307              	.L106:
 1308 0036 07B0     		add	sp, sp, #28
 1309              		.cfi_def_cfa_offset 4
 1310              		@ sp needed
 1311 0038 5DF804FB 		ldr	pc, [sp], #4
ARM GAS  C:\Users\PCHAUT~1\AppData\Local\Temp\cctRuZQc.s 			page 24


 1312              	.L108:
 1313              		.align	2
 1314              	.L107:
 1315 003c 00000000 		.word	__stack_chk_guard
 1316              		.cfi_endproc
 1317              	.LFE164:
 1318              		.size	chVTSet, .-chVTSet
 1319              		.section	.text.vtcb,"ax",%progbits
 1320              		.align	1
 1321              		.p2align 4,,15
 1322              		.syntax unified
 1323              		.thumb
 1324              		.thumb_func
 1325              		.fpu fpv4-sp-d16
 1326              		.type	vtcb, %function
 1327              	vtcb:
 1328              	.LFB219:
 1329              		.file 5 "../lib/e-puck2_main-processor/ChibiOS//test/rt/testsys.c"
 1330              		.loc 5 52 0
 1331              		.cfi_startproc
 1332              		@ args = 0, pretend = 0, frame = 16
 1333              		@ frame_needed = 0, uses_anonymous_args = 0
 1334 0000 00B5     		push	{lr}
 1335              		.cfi_def_cfa_offset 4
 1336              		.cfi_offset 14, -4
 1337 0002 85B0     		sub	sp, sp, #20
 1338              		.cfi_def_cfa_offset 24
 1339 0004 0190     		str	r0, [sp, #4]
 1340              		.loc 5 52 0
 1341 0006 0E4B     		ldr	r3, .L111
 1342 0008 1B68     		ldr	r3, [r3]
 1343 000a 0393     		str	r3, [sp, #12]
 1344              		.loc 5 58 0
 1345 000c FFF7FEFF 		bl	chSysLockFromISR
 1346              		.loc 5 59 0
 1347 0010 FFF7FEFF 		bl	chSysUnlockFromISR
 1348              		.loc 5 62 0
 1349 0014 FFF7FEFF 		bl	chSysLockFromISR
 1350              		.loc 5 63 0
 1351 0018 FFF7FEFF 		bl	chSysGetStatusAndLockX
 1352 001c 0290     		str	r0, [sp, #8]
 1353              		.loc 5 64 0
 1354 001e 0298     		ldr	r0, [sp, #8]
 1355 0020 FFF7FEFF 		bl	chSysRestoreStatusX
 1356              		.loc 5 65 0
 1357 0024 FFF7FEFF 		bl	chSysUnlockFromISR
 1358              		.loc 5 66 0
 1359 0028 00BF     		nop
 1360 002a 054B     		ldr	r3, .L111
 1361 002c 039A     		ldr	r2, [sp, #12]
 1362 002e 1B68     		ldr	r3, [r3]
 1363 0030 9A42     		cmp	r2, r3
 1364 0032 01D0     		beq	.L110
 1365 0034 FFF7FEFF 		bl	__stack_chk_fail
 1366              	.L110:
 1367 0038 05B0     		add	sp, sp, #20
 1368              		.cfi_def_cfa_offset 4
ARM GAS  C:\Users\PCHAUT~1\AppData\Local\Temp\cctRuZQc.s 			page 25


 1369              		@ sp needed
 1370 003a 5DF804FB 		ldr	pc, [sp], #4
 1371              	.L112:
 1372 003e 00BF     		.align	2
 1373              	.L111:
 1374 0040 00000000 		.word	__stack_chk_guard
 1375              		.cfi_endproc
 1376              	.LFE219:
 1377              		.size	vtcb, .-vtcb
 1378              		.section	.text.sys1_execute,"ax",%progbits
 1379              		.align	1
 1380              		.p2align 4,,15
 1381              		.syntax unified
 1382              		.thumb
 1383              		.thumb_func
 1384              		.fpu fpv4-sp-d16
 1385              		.type	sys1_execute, %function
 1386              	sys1_execute:
 1387              	.LFB220:
 1388              		.loc 5 68 0
 1389              		.cfi_startproc
 1390              		@ args = 0, pretend = 0, frame = 32
 1391              		@ frame_needed = 0, uses_anonymous_args = 0
 1392 0000 00B5     		push	{lr}
 1393              		.cfi_def_cfa_offset 4
 1394              		.cfi_offset 14, -4
 1395 0002 89B0     		sub	sp, sp, #36
 1396              		.cfi_def_cfa_offset 40
 1397              		.loc 5 68 0
 1398 0004 254B     		ldr	r3, .L117
 1399 0006 1B68     		ldr	r3, [r3]
 1400 0008 0793     		str	r3, [sp, #28]
 1401              		.loc 5 73 0
 1402 000a FFF7FEFF 		bl	chSysGetStatusAndLockX
 1403 000e 0190     		str	r0, [sp, #4]
 1404              		.loc 5 74 0
 1405 0010 0198     		ldr	r0, [sp, #4]
 1406 0012 FFF7FEFF 		bl	chSysRestoreStatusX
 1407              		.loc 5 77 0
 1408 0016 FFF7FEFF 		bl	chSysLock
 1409              		.loc 5 78 0
 1410 001a FFF7FEFF 		bl	chSysGetStatusAndLockX
 1411 001e 0190     		str	r0, [sp, #4]
 1412              		.loc 5 79 0
 1413 0020 0198     		ldr	r0, [sp, #4]
 1414 0022 FFF7FEFF 		bl	chSysRestoreStatusX
 1415              		.loc 5 80 0
 1416 0026 FFF7FEFF 		bl	chSysUnlock
 1417              		.loc 5 83 0
 1418 002a FFF7FEFF 		bl	chSysUnconditionalLock
 1419              		.loc 5 84 0
 1420 002e FFF7FEFF 		bl	chSysUnconditionalLock
 1421              		.loc 5 85 0
 1422 0032 FFF7FEFF 		bl	chSysUnlock
 1423              		.loc 5 88 0
 1424 0036 FFF7FEFF 		bl	chSysLock
 1425              		.loc 5 89 0
ARM GAS  C:\Users\PCHAUT~1\AppData\Local\Temp\cctRuZQc.s 			page 26


 1426 003a FFF7FEFF 		bl	chSysUnconditionalUnlock
 1427              		.loc 5 90 0
 1428 003e FFF7FEFF 		bl	chSysUnconditionalUnlock
 1429              		.loc 5 93 0
 1430 0042 02AB     		add	r3, sp, #8
 1431 0044 1846     		mov	r0, r3
 1432 0046 FFF7FEFF 		bl	chVTObjectInit
 1433              		.loc 5 94 0
 1434 004a 02A8     		add	r0, sp, #8
 1435 004c 0023     		movs	r3, #0
 1436 004e 144A     		ldr	r2, .L117+4
 1437 0050 0121     		movs	r1, #1
 1438 0052 FFF7FEFF 		bl	chVTSet
 1439              		.loc 5 95 0
 1440 0056 0A20     		movs	r0, #10
 1441 0058 FFF7FEFF 		bl	chThdSleep
 1442              		.loc 5 97 0
 1443 005c 02AB     		add	r3, sp, #8
 1444 005e 1846     		mov	r0, r3
 1445 0060 FFF7FEFF 		bl	chVTIsArmed
 1446 0064 0346     		mov	r3, r0
 1447 0066 002B     		cmp	r3, #0
 1448 0068 14BF     		ite	ne
 1449 006a 0123     		movne	r3, #1
 1450 006c 0023     		moveq	r3, #0
 1451 006e DBB2     		uxtb	r3, r3
 1452 0070 83F00103 		eor	r3, r3, #1
 1453 0074 DBB2     		uxtb	r3, r3
 1454 0076 03F00103 		and	r3, r3, #1
 1455 007a DBB2     		uxtb	r3, r3
 1456 007c 1946     		mov	r1, r3
 1457 007e 0120     		movs	r0, #1
 1458 0080 FFF7FEFF 		bl	_test_assert
 1459 0084 0346     		mov	r3, r0
 1460 0086 002B     		cmp	r3, #0
 1461              		.loc 5 98 0
 1462 0088 044B     		ldr	r3, .L117
 1463 008a 079A     		ldr	r2, [sp, #28]
 1464 008c 1B68     		ldr	r3, [r3]
 1465 008e 9A42     		cmp	r2, r3
 1466 0090 01D0     		beq	.L116
 1467 0092 FFF7FEFF 		bl	__stack_chk_fail
 1468              	.L116:
 1469 0096 09B0     		add	sp, sp, #36
 1470              		.cfi_def_cfa_offset 4
 1471              		@ sp needed
 1472 0098 5DF804FB 		ldr	pc, [sp], #4
 1473              	.L118:
 1474              		.align	2
 1475              	.L117:
 1476 009c 00000000 		.word	__stack_chk_guard
 1477 00a0 00000000 		.word	vtcb
 1478              		.cfi_endproc
 1479              	.LFE220:
 1480              		.size	sys1_execute, .-sys1_execute
 1481              		.global	testsys1
 1482              		.section	.rodata
ARM GAS  C:\Users\PCHAUT~1\AppData\Local\Temp\cctRuZQc.s 			page 27


 1483              		.align	2
 1484              	.LC0:
 1485 0000 53797374 		.ascii	"System, critical zones\000"
 1485      656D2C20 
 1485      63726974 
 1485      6963616C 
 1485      207A6F6E 
 1486              		.section	.rodata.testsys1,"a",%progbits
 1487              		.align	2
 1488              		.type	testsys1, %object
 1489              		.size	testsys1, 16
 1490              	testsys1:
 1491 0000 00000000 		.word	.LC0
 1492 0004 00000000 		.word	0
 1493 0008 00000000 		.word	0
 1494 000c 00000000 		.word	sys1_execute
 1495              		.section	.text.sys2_execute,"ax",%progbits
 1496              		.align	1
 1497              		.p2align 4,,15
 1498              		.syntax unified
 1499              		.thumb
 1500              		.thumb_func
 1501              		.fpu fpv4-sp-d16
 1502              		.type	sys2_execute, %function
 1503              	sys2_execute:
 1504              	.LFB221:
 1505              		.loc 5 114 0
 1506              		.cfi_startproc
 1507              		@ args = 0, pretend = 0, frame = 8
 1508              		@ frame_needed = 0, uses_anonymous_args = 0
 1509 0000 00B5     		push	{lr}
 1510              		.cfi_def_cfa_offset 4
 1511              		.cfi_offset 14, -4
 1512 0002 83B0     		sub	sp, sp, #12
 1513              		.cfi_def_cfa_offset 16
 1514              		.loc 5 114 0
 1515 0004 0A4B     		ldr	r3, .L121
 1516 0006 1B68     		ldr	r3, [r3]
 1517 0008 0193     		str	r3, [sp, #4]
 1518              		.loc 5 116 0
 1519 000a FFF7FEFF 		bl	chSysSuspend
 1520              		.loc 5 117 0
 1521 000e FFF7FEFF 		bl	chSysDisable
 1522              		.loc 5 118 0
 1523 0012 FFF7FEFF 		bl	chSysSuspend
 1524              		.loc 5 119 0
 1525 0016 FFF7FEFF 		bl	chSysEnable
 1526              		.loc 5 120 0
 1527 001a 00BF     		nop
 1528 001c 044B     		ldr	r3, .L121
 1529 001e 019A     		ldr	r2, [sp, #4]
 1530 0020 1B68     		ldr	r3, [r3]
 1531 0022 9A42     		cmp	r2, r3
 1532 0024 01D0     		beq	.L120
 1533 0026 FFF7FEFF 		bl	__stack_chk_fail
 1534              	.L120:
 1535 002a 03B0     		add	sp, sp, #12
ARM GAS  C:\Users\PCHAUT~1\AppData\Local\Temp\cctRuZQc.s 			page 28


 1536              		.cfi_def_cfa_offset 4
 1537              		@ sp needed
 1538 002c 5DF804FB 		ldr	pc, [sp], #4
 1539              	.L122:
 1540              		.align	2
 1541              	.L121:
 1542 0030 00000000 		.word	__stack_chk_guard
 1543              		.cfi_endproc
 1544              	.LFE221:
 1545              		.size	sys2_execute, .-sys2_execute
 1546              		.global	testsys2
 1547              		.section	.rodata
 1548 0017 00       		.align	2
 1549              	.LC1:
 1550 0018 53797374 		.ascii	"System, interrupts handling\000"
 1550      656D2C20 
 1550      696E7465 
 1550      72727570 
 1550      74732068 
 1551              		.section	.rodata.testsys2,"a",%progbits
 1552              		.align	2
 1553              		.type	testsys2, %object
 1554              		.size	testsys2, 16
 1555              	testsys2:
 1556 0000 18000000 		.word	.LC1
 1557 0004 00000000 		.word	0
 1558 0008 00000000 		.word	0
 1559 000c 00000000 		.word	sys2_execute
 1560              		.section	.text.sys3_execute,"ax",%progbits
 1561              		.align	1
 1562              		.p2align 4,,15
 1563              		.syntax unified
 1564              		.thumb
 1565              		.thumb_func
 1566              		.fpu fpv4-sp-d16
 1567              		.type	sys3_execute, %function
 1568              	sys3_execute:
 1569              	.LFB222:
 1570              		.loc 5 137 0
 1571              		.cfi_startproc
 1572              		@ args = 0, pretend = 0, frame = 8
 1573              		@ frame_needed = 0, uses_anonymous_args = 0
 1574 0000 00B5     		push	{lr}
 1575              		.cfi_def_cfa_offset 4
 1576              		.cfi_offset 14, -4
 1577 0002 83B0     		sub	sp, sp, #12
 1578              		.cfi_def_cfa_offset 16
 1579              		.loc 5 137 0
 1580 0004 444B     		ldr	r3, .L132
 1581 0006 1B68     		ldr	r3, [r3]
 1582 0008 0193     		str	r3, [sp, #4]
 1583              		.loc 5 140 0
 1584 000a FFF7FEFF 		bl	chSysLock
 1585              		.loc 5 141 0
 1586 000e 0120     		movs	r0, #1
 1587 0010 FFF7FEFF 		bl	chSysIntegrityCheckI
 1588 0014 0346     		mov	r3, r0
ARM GAS  C:\Users\PCHAUT~1\AppData\Local\Temp\cctRuZQc.s 			page 29


 1589 0016 8DF80330 		strb	r3, [sp, #3]
 1590              		.loc 5 142 0
 1591 001a FFF7FEFF 		bl	chSysUnlock
 1592              		.loc 5 143 0
 1593 001e 9DF80330 		ldrb	r3, [sp, #3]	@ zero_extendqisi2
 1594 0022 002B     		cmp	r3, #0
 1595 0024 14BF     		ite	ne
 1596 0026 0123     		movne	r3, #1
 1597 0028 0023     		moveq	r3, #0
 1598 002a DBB2     		uxtb	r3, r3
 1599 002c 83F00103 		eor	r3, r3, #1
 1600 0030 DBB2     		uxtb	r3, r3
 1601 0032 03F00103 		and	r3, r3, #1
 1602 0036 DBB2     		uxtb	r3, r3
 1603 0038 1946     		mov	r1, r3
 1604 003a 0120     		movs	r0, #1
 1605 003c FFF7FEFF 		bl	_test_assert
 1606 0040 0346     		mov	r3, r0
 1607 0042 002B     		cmp	r3, #0
 1608 0044 59D1     		bne	.L129
 1609              		.loc 5 145 0
 1610 0046 FFF7FEFF 		bl	chSysLock
 1611              		.loc 5 146 0
 1612 004a 0220     		movs	r0, #2
 1613 004c FFF7FEFF 		bl	chSysIntegrityCheckI
 1614 0050 0346     		mov	r3, r0
 1615 0052 8DF80330 		strb	r3, [sp, #3]
 1616              		.loc 5 147 0
 1617 0056 FFF7FEFF 		bl	chSysUnlock
 1618              		.loc 5 148 0
 1619 005a 9DF80330 		ldrb	r3, [sp, #3]	@ zero_extendqisi2
 1620 005e 002B     		cmp	r3, #0
 1621 0060 14BF     		ite	ne
 1622 0062 0123     		movne	r3, #1
 1623 0064 0023     		moveq	r3, #0
 1624 0066 DBB2     		uxtb	r3, r3
 1625 0068 83F00103 		eor	r3, r3, #1
 1626 006c DBB2     		uxtb	r3, r3
 1627 006e 03F00103 		and	r3, r3, #1
 1628 0072 DBB2     		uxtb	r3, r3
 1629 0074 1946     		mov	r1, r3
 1630 0076 0220     		movs	r0, #2
 1631 0078 FFF7FEFF 		bl	_test_assert
 1632 007c 0346     		mov	r3, r0
 1633 007e 002B     		cmp	r3, #0
 1634 0080 3DD1     		bne	.L130
 1635              		.loc 5 150 0
 1636 0082 FFF7FEFF 		bl	chSysLock
 1637              		.loc 5 151 0
 1638 0086 0420     		movs	r0, #4
 1639 0088 FFF7FEFF 		bl	chSysIntegrityCheckI
 1640 008c 0346     		mov	r3, r0
 1641 008e 8DF80330 		strb	r3, [sp, #3]
 1642              		.loc 5 152 0
 1643 0092 FFF7FEFF 		bl	chSysUnlock
 1644              		.loc 5 153 0
 1645 0096 9DF80330 		ldrb	r3, [sp, #3]	@ zero_extendqisi2
ARM GAS  C:\Users\PCHAUT~1\AppData\Local\Temp\cctRuZQc.s 			page 30


 1646 009a 002B     		cmp	r3, #0
 1647 009c 14BF     		ite	ne
 1648 009e 0123     		movne	r3, #1
 1649 00a0 0023     		moveq	r3, #0
 1650 00a2 DBB2     		uxtb	r3, r3
 1651 00a4 83F00103 		eor	r3, r3, #1
 1652 00a8 DBB2     		uxtb	r3, r3
 1653 00aa 03F00103 		and	r3, r3, #1
 1654 00ae DBB2     		uxtb	r3, r3
 1655 00b0 1946     		mov	r1, r3
 1656 00b2 0320     		movs	r0, #3
 1657 00b4 FFF7FEFF 		bl	_test_assert
 1658 00b8 0346     		mov	r3, r0
 1659 00ba 002B     		cmp	r3, #0
 1660 00bc 21D1     		bne	.L131
 1661              		.loc 5 155 0
 1662 00be FFF7FEFF 		bl	chSysLock
 1663              		.loc 5 156 0
 1664 00c2 0820     		movs	r0, #8
 1665 00c4 FFF7FEFF 		bl	chSysIntegrityCheckI
 1666 00c8 0346     		mov	r3, r0
 1667 00ca 8DF80330 		strb	r3, [sp, #3]
 1668              		.loc 5 157 0
 1669 00ce FFF7FEFF 		bl	chSysUnlock
 1670              		.loc 5 158 0
 1671 00d2 9DF80330 		ldrb	r3, [sp, #3]	@ zero_extendqisi2
 1672 00d6 002B     		cmp	r3, #0
 1673 00d8 14BF     		ite	ne
 1674 00da 0123     		movne	r3, #1
 1675 00dc 0023     		moveq	r3, #0
 1676 00de DBB2     		uxtb	r3, r3
 1677 00e0 83F00103 		eor	r3, r3, #1
 1678 00e4 DBB2     		uxtb	r3, r3
 1679 00e6 03F00103 		and	r3, r3, #1
 1680 00ea DBB2     		uxtb	r3, r3
 1681 00ec 1946     		mov	r1, r3
 1682 00ee 0420     		movs	r0, #4
 1683 00f0 FFF7FEFF 		bl	_test_assert
 1684 00f4 0346     		mov	r3, r0
 1685 00f6 002B     		cmp	r3, #0
 1686 00f8 04E0     		b	.L123
 1687              	.L129:
 1688              		.loc 5 143 0
 1689 00fa 00BF     		nop
 1690 00fc 02E0     		b	.L123
 1691              	.L130:
 1692              		.loc 5 148 0
 1693 00fe 00BF     		nop
 1694 0100 00E0     		b	.L123
 1695              	.L131:
 1696              		.loc 5 153 0
 1697 0102 00BF     		nop
 1698              	.L123:
 1699              		.loc 5 159 0
 1700 0104 044B     		ldr	r3, .L132
 1701 0106 019A     		ldr	r2, [sp, #4]
 1702 0108 1B68     		ldr	r3, [r3]
ARM GAS  C:\Users\PCHAUT~1\AppData\Local\Temp\cctRuZQc.s 			page 31


 1703 010a 9A42     		cmp	r2, r3
 1704 010c 01D0     		beq	.L128
 1705 010e FFF7FEFF 		bl	__stack_chk_fail
 1706              	.L128:
 1707 0112 03B0     		add	sp, sp, #12
 1708              		.cfi_def_cfa_offset 4
 1709              		@ sp needed
 1710 0114 5DF804FB 		ldr	pc, [sp], #4
 1711              	.L133:
 1712              		.align	2
 1713              	.L132:
 1714 0118 00000000 		.word	__stack_chk_guard
 1715              		.cfi_endproc
 1716              	.LFE222:
 1717              		.size	sys3_execute, .-sys3_execute
 1718              		.global	testsys3
 1719              		.section	.rodata
 1720              		.align	2
 1721              	.LC2:
 1722 0034 53797374 		.ascii	"System, integrity\000"
 1722      656D2C20 
 1722      696E7465 
 1722      67726974 
 1722      7900
 1723              		.section	.rodata.testsys3,"a",%progbits
 1724              		.align	2
 1725              		.type	testsys3, %object
 1726              		.size	testsys3, 16
 1727              	testsys3:
 1728 0000 34000000 		.word	.LC2
 1729 0004 00000000 		.word	0
 1730 0008 00000000 		.word	0
 1731 000c 00000000 		.word	sys3_execute
 1732              		.global	patternsys
 1733              		.section	.rodata.patternsys,"a",%progbits
 1734              		.align	2
 1735              		.type	patternsys, %object
 1736              		.size	patternsys, 16
 1737              	patternsys:
 1738 0000 00000000 		.word	testsys1
 1739 0004 00000000 		.word	testsys2
 1740 0008 00000000 		.word	testsys3
 1741 000c 00000000 		.word	0
 1742              		.section	.rodata.__func__.7153,"a",%progbits
 1743              		.align	2
 1744              		.type	__func__.7153, %object
 1745              		.size	__func__.7153, 12
 1746              	__func__.7153:
 1747 0000 63685379 		.ascii	"chSysUnlock\000"
 1747      73556E6C 
 1747      6F636B00 
 1748              		.text
 1749              	.Letext0:
 1750              		.file 6 "c:\\users\\pchautems\\documents\\robotiquetp\\eclipse_e-puck2\\tools\\gcc-arm-none-eabi-7
 1751              		.file 7 "c:\\users\\pchautems\\documents\\robotiquetp\\eclipse_e-puck2\\tools\\gcc-arm-none-eabi-7
 1752              		.file 8 "c:\\users\\pchautems\\documents\\robotiquetp\\eclipse_e-puck2\\tools\\gcc-arm-none-eabi-7
 1753              		.file 9 "../lib/e-puck2_main-processor/ChibiOS//os/rt/ports/ARMCMx/compilers/GCC/chtypes.h"
ARM GAS  C:\Users\PCHAUT~1\AppData\Local\Temp\cctRuZQc.s 			page 32


 1754              		.file 10 "../lib/e-puck2_main-processor/ChibiOS//os/rt/include/chsystypes.h"
 1755              		.file 11 "../lib/e-puck2_main-processor/ChibiOS//os/rt/include/chschd.h"
 1756              		.file 12 "../lib/e-puck2_main-processor/ChibiOS//os/ext/CMSIS/include/core_cm4.h"
 1757              		.file 13 "../lib/e-puck2_main-processor/ChibiOS//os/ext/CMSIS/ST/system_stm32f4xx.h"
 1758              		.file 14 "../lib/e-puck2_main-processor/ChibiOS//os/rt/ports/ARMCMx/chcore.h"
 1759              		.file 15 "../lib/e-puck2_main-processor/ChibiOS//os/rt/include/chdebug.h"
 1760              		.file 16 "../lib/e-puck2_main-processor/ChibiOS//os/rt/include/chtm.h"
 1761              		.file 17 "../lib/e-puck2_main-processor/ChibiOS//os/rt/include/chstats.h"
 1762              		.file 18 "../lib/e-puck2_main-processor/ChibiOS//os/rt/include/chsem.h"
 1763              		.file 19 "../lib/e-puck2_main-processor/ChibiOS//os/rt/include/chmtx.h"
 1764              		.file 20 "../lib/e-puck2_main-processor/ChibiOS//os/rt/include/chregistry.h"
 1765              		.file 21 "../lib/e-puck2_main-processor/ChibiOS//test/rt/test.h"