ARM GAS  C:\Users\PCHAUT~1\AppData\Local\Temp\ccry1Rip.s 			page 1


   1              		.cpu cortex-m4
   2              		.eabi_attribute 27, 1
   3              		.eabi_attribute 28, 1
   4              		.eabi_attribute 20, 1
   5              		.eabi_attribute 21, 1
   6              		.eabi_attribute 23, 3
   7              		.eabi_attribute 24, 1
   8              		.eabi_attribute 25, 1
   9              		.eabi_attribute 26, 1
  10              		.eabi_attribute 30, 6
  11              		.eabi_attribute 34, 1
  12              		.eabi_attribute 18, 4
  13              		.file	"testpools.c"
  14              		.text
  15              	.Ltext0:
  16              		.cfi_sections	.debug_frame
  17              		.section	.data.mp1,"aw",%progbits
  18              		.align	2
  19              		.type	mp1, %object
  20              		.size	mp1, 12
  21              	mp1:
  22 0000 00000000 		.word	0
  23 0004 F8010000 		.word	504
  24 0008 00000000 		.word	0
  25              		.section	.text.null_provider,"ax",%progbits
  26              		.align	1
  27              		.p2align 4,,15
  28              		.syntax unified
  29              		.thumb
  30              		.thumb_func
  31              		.fpu fpv4-sp-d16
  32              		.type	null_provider, %function
  33              	null_provider:
  34              	.LFB219:
  35              		.file 1 "../lib/e-puck2_main-processor/ChibiOS//test/rt/testpools.c"
  36              		.loc 1 60 0
  37              		.cfi_startproc
  38              		@ args = 0, pretend = 0, frame = 16
  39              		@ frame_needed = 0, uses_anonymous_args = 0
  40 0000 00B5     		push	{lr}
  41              		.cfi_def_cfa_offset 4
  42              		.cfi_offset 14, -4
  43 0002 85B0     		sub	sp, sp, #20
  44              		.cfi_def_cfa_offset 24
  45 0004 0190     		str	r0, [sp, #4]
  46              		.loc 1 60 0
  47 0006 074B     		ldr	r3, .L4
  48 0008 1B68     		ldr	r3, [r3]
  49 000a 0393     		str	r3, [sp, #12]
  50              		.loc 1 63 0
  51 000c 0023     		movs	r3, #0
  52              		.loc 1 64 0
  53 000e 1846     		mov	r0, r3
  54 0010 044B     		ldr	r3, .L4
  55 0012 039A     		ldr	r2, [sp, #12]
  56 0014 1B68     		ldr	r3, [r3]
  57 0016 9A42     		cmp	r2, r3
ARM GAS  C:\Users\PCHAUT~1\AppData\Local\Temp\ccry1Rip.s 			page 2


  58 0018 01D0     		beq	.L3
  59 001a FFF7FEFF 		bl	__stack_chk_fail
  60              	.L3:
  61 001e 05B0     		add	sp, sp, #20
  62              		.cfi_def_cfa_offset 4
  63              		@ sp needed
  64 0020 5DF804FB 		ldr	pc, [sp], #4
  65              	.L5:
  66              		.align	2
  67              	.L4:
  68 0024 00000000 		.word	__stack_chk_guard
  69              		.cfi_endproc
  70              	.LFE219:
  71              		.size	null_provider, .-null_provider
  72              		.section	.text.pools1_setup,"ax",%progbits
  73              		.align	1
  74              		.p2align 4,,15
  75              		.syntax unified
  76              		.thumb
  77              		.thumb_func
  78              		.fpu fpv4-sp-d16
  79              		.type	pools1_setup, %function
  80              	pools1_setup:
  81              	.LFB220:
  82              		.loc 1 66 0
  83              		.cfi_startproc
  84              		@ args = 0, pretend = 0, frame = 8
  85              		@ frame_needed = 0, uses_anonymous_args = 0
  86 0000 00B5     		push	{lr}
  87              		.cfi_def_cfa_offset 4
  88              		.cfi_offset 14, -4
  89 0002 83B0     		sub	sp, sp, #12
  90              		.cfi_def_cfa_offset 16
  91              		.loc 1 66 0
  92 0004 094B     		ldr	r3, .L8
  93 0006 1B68     		ldr	r3, [r3]
  94 0008 0193     		str	r3, [sp, #4]
  95              		.loc 1 68 0
  96 000a 0022     		movs	r2, #0
  97 000c 4FF4FC71 		mov	r1, #504
  98 0010 0748     		ldr	r0, .L8+4
  99 0012 FFF7FEFF 		bl	chPoolObjectInit
 100              		.loc 1 69 0
 101 0016 00BF     		nop
 102 0018 044B     		ldr	r3, .L8
 103 001a 019A     		ldr	r2, [sp, #4]
 104 001c 1B68     		ldr	r3, [r3]
 105 001e 9A42     		cmp	r2, r3
 106 0020 01D0     		beq	.L7
 107 0022 FFF7FEFF 		bl	__stack_chk_fail
 108              	.L7:
 109 0026 03B0     		add	sp, sp, #12
 110              		.cfi_def_cfa_offset 4
 111              		@ sp needed
 112 0028 5DF804FB 		ldr	pc, [sp], #4
 113              	.L9:
 114              		.align	2
ARM GAS  C:\Users\PCHAUT~1\AppData\Local\Temp\ccry1Rip.s 			page 3


 115              	.L8:
 116 002c 00000000 		.word	__stack_chk_guard
 117 0030 00000000 		.word	mp1
 118              		.cfi_endproc
 119              	.LFE220:
 120              		.size	pools1_setup, .-pools1_setup
 121              		.section	.text.pools1_execute,"ax",%progbits
 122              		.align	1
 123              		.p2align 4,,15
 124              		.syntax unified
 125              		.thumb
 126              		.thumb_func
 127              		.fpu fpv4-sp-d16
 128              		.type	pools1_execute, %function
 129              	pools1_execute:
 130              	.LFB221:
 131              		.loc 1 71 0
 132              		.cfi_startproc
 133              		@ args = 0, pretend = 0, frame = 8
 134              		@ frame_needed = 0, uses_anonymous_args = 0
 135 0000 00B5     		push	{lr}
 136              		.cfi_def_cfa_offset 4
 137              		.cfi_offset 14, -4
 138 0002 83B0     		sub	sp, sp, #12
 139              		.cfi_def_cfa_offset 16
 140              		.loc 1 71 0
 141 0004 494B     		ldr	r3, .L27
 142 0006 1B68     		ldr	r3, [r3]
 143 0008 0193     		str	r3, [sp, #4]
 144              		.loc 1 75 0
 145 000a 494B     		ldr	r3, .L27+4
 146 000c 1B68     		ldr	r3, [r3]
 147 000e 0522     		movs	r2, #5
 148 0010 1946     		mov	r1, r3
 149 0012 4848     		ldr	r0, .L27+8
 150 0014 FFF7FEFF 		bl	chPoolLoadArray
 151              		.loc 1 78 0
 152 0018 0023     		movs	r3, #0
 153 001a 0093     		str	r3, [sp]
 154 001c 12E0     		b	.L11
 155              	.L14:
 156              		.loc 1 79 0
 157 001e 4548     		ldr	r0, .L27+8
 158 0020 FFF7FEFF 		bl	chPoolAlloc
 159 0024 0346     		mov	r3, r0
 160 0026 002B     		cmp	r3, #0
 161 0028 14BF     		ite	ne
 162 002a 0123     		movne	r3, #1
 163 002c 0023     		moveq	r3, #0
 164 002e DBB2     		uxtb	r3, r3
 165 0030 1946     		mov	r1, r3
 166 0032 0120     		movs	r0, #1
 167 0034 FFF7FEFF 		bl	_test_assert
 168 0038 0346     		mov	r3, r0
 169 003a 002B     		cmp	r3, #0
 170 003c 64D1     		bne	.L23
 171              		.loc 1 78 0 discriminator 2
ARM GAS  C:\Users\PCHAUT~1\AppData\Local\Temp\ccry1Rip.s 			page 4


 172 003e 009B     		ldr	r3, [sp]
 173 0040 0133     		adds	r3, r3, #1
 174 0042 0093     		str	r3, [sp]
 175              	.L11:
 176              		.loc 1 78 0 is_stmt 0 discriminator 1
 177 0044 009B     		ldr	r3, [sp]
 178 0046 042B     		cmp	r3, #4
 179 0048 E9DD     		ble	.L14
 180              		.loc 1 82 0 is_stmt 1
 181 004a 3A48     		ldr	r0, .L27+8
 182 004c FFF7FEFF 		bl	chPoolAlloc
 183 0050 0346     		mov	r3, r0
 184 0052 002B     		cmp	r3, #0
 185 0054 0CBF     		ite	eq
 186 0056 0123     		moveq	r3, #1
 187 0058 0023     		movne	r3, #0
 188 005a DBB2     		uxtb	r3, r3
 189 005c 1946     		mov	r1, r3
 190 005e 0220     		movs	r0, #2
 191 0060 FFF7FEFF 		bl	_test_assert
 192 0064 0346     		mov	r3, r0
 193 0066 002B     		cmp	r3, #0
 194 0068 50D1     		bne	.L24
 195              		.loc 1 85 0
 196 006a 0023     		movs	r3, #0
 197 006c 0093     		str	r3, [sp]
 198 006e 0AE0     		b	.L16
 199              	.L17:
 200              		.loc 1 86 0 discriminator 3
 201 0070 2F4A     		ldr	r2, .L27+4
 202 0072 009B     		ldr	r3, [sp]
 203 0074 52F82330 		ldr	r3, [r2, r3, lsl #2]
 204 0078 1946     		mov	r1, r3
 205 007a 2E48     		ldr	r0, .L27+8
 206 007c FFF7FEFF 		bl	chPoolFree
 207              		.loc 1 85 0 discriminator 3
 208 0080 009B     		ldr	r3, [sp]
 209 0082 0133     		adds	r3, r3, #1
 210 0084 0093     		str	r3, [sp]
 211              	.L16:
 212              		.loc 1 85 0 is_stmt 0 discriminator 1
 213 0086 009B     		ldr	r3, [sp]
 214 0088 042B     		cmp	r3, #4
 215 008a F1DD     		ble	.L17
 216              		.loc 1 89 0 is_stmt 1
 217 008c 0023     		movs	r3, #0
 218 008e 0093     		str	r3, [sp]
 219 0090 12E0     		b	.L18
 220              	.L20:
 221              		.loc 1 90 0
 222 0092 2848     		ldr	r0, .L27+8
 223 0094 FFF7FEFF 		bl	chPoolAlloc
 224 0098 0346     		mov	r3, r0
 225 009a 002B     		cmp	r3, #0
 226 009c 14BF     		ite	ne
 227 009e 0123     		movne	r3, #1
 228 00a0 0023     		moveq	r3, #0
ARM GAS  C:\Users\PCHAUT~1\AppData\Local\Temp\ccry1Rip.s 			page 5


 229 00a2 DBB2     		uxtb	r3, r3
 230 00a4 1946     		mov	r1, r3
 231 00a6 0320     		movs	r0, #3
 232 00a8 FFF7FEFF 		bl	_test_assert
 233 00ac 0346     		mov	r3, r0
 234 00ae 002B     		cmp	r3, #0
 235 00b0 2ED1     		bne	.L25
 236              		.loc 1 89 0 discriminator 2
 237 00b2 009B     		ldr	r3, [sp]
 238 00b4 0133     		adds	r3, r3, #1
 239 00b6 0093     		str	r3, [sp]
 240              	.L18:
 241              		.loc 1 89 0 is_stmt 0 discriminator 1
 242 00b8 009B     		ldr	r3, [sp]
 243 00ba 042B     		cmp	r3, #4
 244 00bc E9DD     		ble	.L20
 245              		.loc 1 93 0 is_stmt 1
 246 00be 1D48     		ldr	r0, .L27+8
 247 00c0 FFF7FEFF 		bl	chPoolAlloc
 248 00c4 0346     		mov	r3, r0
 249 00c6 002B     		cmp	r3, #0
 250 00c8 0CBF     		ite	eq
 251 00ca 0123     		moveq	r3, #1
 252 00cc 0023     		movne	r3, #0
 253 00ce DBB2     		uxtb	r3, r3
 254 00d0 1946     		mov	r1, r3
 255 00d2 0420     		movs	r0, #4
 256 00d4 FFF7FEFF 		bl	_test_assert
 257 00d8 0346     		mov	r3, r0
 258 00da 002B     		cmp	r3, #0
 259 00dc 1AD1     		bne	.L26
 260              		.loc 1 96 0
 261 00de 164A     		ldr	r2, .L27+12
 262 00e0 1021     		movs	r1, #16
 263 00e2 1448     		ldr	r0, .L27+8
 264 00e4 FFF7FEFF 		bl	chPoolObjectInit
 265              		.loc 1 97 0
 266 00e8 1248     		ldr	r0, .L27+8
 267 00ea FFF7FEFF 		bl	chPoolAlloc
 268 00ee 0346     		mov	r3, r0
 269 00f0 002B     		cmp	r3, #0
 270 00f2 0CBF     		ite	eq
 271 00f4 0123     		moveq	r3, #1
 272 00f6 0023     		movne	r3, #0
 273 00f8 DBB2     		uxtb	r3, r3
 274 00fa 1946     		mov	r1, r3
 275 00fc 0520     		movs	r0, #5
 276 00fe FFF7FEFF 		bl	_test_assert
 277 0102 0346     		mov	r3, r0
 278 0104 002B     		cmp	r3, #0
 279 0106 06E0     		b	.L10
 280              	.L23:
 281              		.loc 1 79 0
 282 0108 00BF     		nop
 283 010a 04E0     		b	.L10
 284              	.L24:
 285              		.loc 1 82 0
ARM GAS  C:\Users\PCHAUT~1\AppData\Local\Temp\ccry1Rip.s 			page 6


 286 010c 00BF     		nop
 287 010e 02E0     		b	.L10
 288              	.L25:
 289              		.loc 1 90 0
 290 0110 00BF     		nop
 291 0112 00E0     		b	.L10
 292              	.L26:
 293              		.loc 1 93 0
 294 0114 00BF     		nop
 295              	.L10:
 296              		.loc 1 98 0
 297 0116 054B     		ldr	r3, .L27
 298 0118 019A     		ldr	r2, [sp, #4]
 299 011a 1B68     		ldr	r3, [r3]
 300 011c 9A42     		cmp	r2, r3
 301 011e 01D0     		beq	.L22
 302 0120 FFF7FEFF 		bl	__stack_chk_fail
 303              	.L22:
 304 0124 03B0     		add	sp, sp, #12
 305              		.cfi_def_cfa_offset 4
 306              		@ sp needed
 307 0126 5DF804FB 		ldr	pc, [sp], #4
 308              	.L28:
 309 012a 00BF     		.align	2
 310              	.L27:
 311 012c 00000000 		.word	__stack_chk_guard
 312 0130 00000000 		.word	wa
 313 0134 00000000 		.word	mp1
 314 0138 00000000 		.word	null_provider
 315              		.cfi_endproc
 316              	.LFE221:
 317              		.size	pools1_execute, .-pools1_execute
 318              		.global	testpools1
 319              		.section	.rodata
 320              		.align	2
 321              	.LC0:
 322 0000 4D656D6F 		.ascii	"Memory Pools, queue/dequeue\000"
 322      72792050 
 322      6F6F6C73 
 322      2C207175 
 322      6575652F 
 323              		.section	.rodata.testpools1,"a",%progbits
 324              		.align	2
 325              		.type	testpools1, %object
 326              		.size	testpools1, 16
 327              	testpools1:
 328 0000 00000000 		.word	.LC0
 329 0004 00000000 		.word	pools1_setup
 330 0008 00000000 		.word	0
 331 000c 00000000 		.word	pools1_execute
 332              		.global	patternpools
 333              		.section	.rodata.patternpools,"a",%progbits
 334              		.align	2
 335              		.type	patternpools, %object
 336              		.size	patternpools, 8
 337              	patternpools:
 338 0000 00000000 		.word	testpools1
ARM GAS  C:\Users\PCHAUT~1\AppData\Local\Temp\ccry1Rip.s 			page 7


 339 0004 00000000 		.word	0
 340              		.text
 341              	.Letext0:
 342              		.file 2 "c:\\users\\pchautems\\documents\\robotiquetp\\eclipse_e-puck2\\tools\\gcc-arm-none-eabi-7
 343              		.file 3 "c:\\users\\pchautems\\documents\\robotiquetp\\eclipse_e-puck2\\tools\\gcc-arm-none-eabi-7
 344              		.file 4 "c:\\users\\pchautems\\documents\\robotiquetp\\eclipse_e-puck2\\tools\\gcc-arm-none-eabi-7
 345              		.file 5 "../lib/e-puck2_main-processor/ChibiOS//os/rt/ports/ARMCMx/compilers/GCC/chtypes.h"
 346              		.file 6 "../lib/e-puck2_main-processor/ChibiOS//os/rt/include/chsystypes.h"
 347              		.file 7 "../lib/e-puck2_main-processor/ChibiOS//os/rt/include/chschd.h"
 348              		.file 8 "../lib/e-puck2_main-processor/ChibiOS//os/ext/CMSIS/include/core_cm4.h"
 349              		.file 9 "../lib/e-puck2_main-processor/ChibiOS//os/ext/CMSIS/ST/system_stm32f4xx.h"
 350              		.file 10 "../lib/e-puck2_main-processor/ChibiOS//os/rt/ports/ARMCMx/chcore.h"
 351              		.file 11 "../lib/e-puck2_main-processor/ChibiOS//os/rt/ports/ARMCMx/chcore_v7m.h"
 352              		.file 12 "../lib/e-puck2_main-processor/ChibiOS//os/rt/include/chdebug.h"
 353              		.file 13 "../lib/e-puck2_main-processor/ChibiOS//os/rt/include/chtm.h"
 354              		.file 14 "../lib/e-puck2_main-processor/ChibiOS//os/rt/include/chstats.h"
 355              		.file 15 "../lib/e-puck2_main-processor/ChibiOS//os/rt/include/chsem.h"
 356              		.file 16 "../lib/e-puck2_main-processor/ChibiOS//os/rt/include/chmtx.h"
 357              		.file 17 "../lib/e-puck2_main-processor/ChibiOS//os/rt/include/chregistry.h"
 358              		.file 18 "../lib/e-puck2_main-processor/ChibiOS//os/rt/include/chmemcore.h"
 359              		.file 19 "../lib/e-puck2_main-processor/ChibiOS//os/rt/include/chmempools.h"
 360              		.file 20 "../lib/e-puck2_main-processor/ChibiOS//test/rt/test.h"
 361              		.section	.debug_info,"",%progbits
 362              	.Ldebug_info0:
 363 0000 490C0000 		.4byte	0xc49
 364 0004 0400     		.2byte	0x4
 365 0006 00000000 		.4byte	.Ldebug_abbrev0
 366 000a 04       		.byte	0x4
 367 000b 01       		.uleb128 0x1
 368 000c 9F010000 		.4byte	.LASF179
 369 0010 0C       		.byte	0xc
 370 0011 4B080000 		.4byte	.LASF180
 371 0015 81060000 		.4byte	.LASF181
 372 0019 00000000 		.4byte	.Ldebug_ranges0+0
 373 001d 00000000 		.4byte	0
 374 0021 00000000 		.4byte	.Ldebug_line0
 375 0025 02       		.uleb128 0x2
 376 0026 04       		.byte	0x4
 377 0027 05       		.byte	0x5
 378 0028 696E7400 		.ascii	"int\000"
 379 002c 03       		.uleb128 0x3
 380 002d 22000000 		.4byte	.LASF4
 381 0031 02       		.byte	0x2
 382 0032 D8       		.byte	0xd8
 383 0033 37000000 		.4byte	0x37
 384 0037 04       		.uleb128 0x4
 385 0038 04       		.byte	0x4
 386 0039 07       		.byte	0x7
 387 003a 87030000 		.4byte	.LASF0
 388 003e 04       		.uleb128 0x4
 389 003f 08       		.byte	0x8
 390 0040 05       		.byte	0x5
 391 0041 2E010000 		.4byte	.LASF1
 392 0045 04       		.uleb128 0x4
 393 0046 08       		.byte	0x8
 394 0047 04       		.byte	0x4
 395 0048 ED040000 		.4byte	.LASF2
ARM GAS  C:\Users\PCHAUT~1\AppData\Local\Temp\ccry1Rip.s 			page 8


 396 004c 04       		.uleb128 0x4
 397 004d 01       		.byte	0x1
 398 004e 06       		.byte	0x6
 399 004f 3C010000 		.4byte	.LASF3
 400 0053 03       		.uleb128 0x3
 401 0054 46000000 		.4byte	.LASF5
 402 0058 03       		.byte	0x3
 403 0059 2B       		.byte	0x2b
 404 005a 5E000000 		.4byte	0x5e
 405 005e 04       		.uleb128 0x4
 406 005f 01       		.byte	0x1
 407 0060 08       		.byte	0x8
 408 0061 00060000 		.4byte	.LASF6
 409 0065 04       		.uleb128 0x4
 410 0066 02       		.byte	0x2
 411 0067 05       		.byte	0x5
 412 0068 18060000 		.4byte	.LASF7
 413 006c 03       		.uleb128 0x3
 414 006d 61070000 		.4byte	.LASF8
 415 0071 03       		.byte	0x3
 416 0072 39       		.byte	0x39
 417 0073 77000000 		.4byte	0x77
 418 0077 04       		.uleb128 0x4
 419 0078 02       		.byte	0x2
 420 0079 07       		.byte	0x7
 421 007a FF030000 		.4byte	.LASF9
 422 007e 03       		.uleb128 0x3
 423 007f 85040000 		.4byte	.LASF10
 424 0083 03       		.byte	0x3
 425 0084 4D       		.byte	0x4d
 426 0085 89000000 		.4byte	0x89
 427 0089 04       		.uleb128 0x4
 428 008a 04       		.byte	0x4
 429 008b 05       		.byte	0x5
 430 008c 96010000 		.4byte	.LASF11
 431 0090 03       		.uleb128 0x3
 432 0091 AC070000 		.4byte	.LASF12
 433 0095 03       		.byte	0x3
 434 0096 4F       		.byte	0x4f
 435 0097 9B000000 		.4byte	0x9b
 436 009b 04       		.uleb128 0x4
 437 009c 04       		.byte	0x4
 438 009d 07       		.byte	0x7
 439 009e 43070000 		.4byte	.LASF13
 440 00a2 03       		.uleb128 0x3
 441 00a3 88050000 		.4byte	.LASF14
 442 00a7 03       		.byte	0x3
 443 00a8 69       		.byte	0x69
 444 00a9 AD000000 		.4byte	0xad
 445 00ad 04       		.uleb128 0x4
 446 00ae 08       		.byte	0x8
 447 00af 07       		.byte	0x7
 448 00b0 95000000 		.4byte	.LASF15
 449 00b4 03       		.uleb128 0x3
 450 00b5 43080000 		.4byte	.LASF16
 451 00b9 04       		.byte	0x4
 452 00ba 18       		.byte	0x18
ARM GAS  C:\Users\PCHAUT~1\AppData\Local\Temp\ccry1Rip.s 			page 9


 453 00bb 53000000 		.4byte	0x53
 454 00bf 03       		.uleb128 0x3
 455 00c0 9C030000 		.4byte	.LASF17
 456 00c4 04       		.byte	0x4
 457 00c5 24       		.byte	0x24
 458 00c6 6C000000 		.4byte	0x6c
 459 00ca 03       		.uleb128 0x3
 460 00cb F8050000 		.4byte	.LASF18
 461 00cf 04       		.byte	0x4
 462 00d0 2C       		.byte	0x2c
 463 00d1 7E000000 		.4byte	0x7e
 464 00d5 05       		.uleb128 0x5
 465 00d6 CA000000 		.4byte	0xca
 466 00da 03       		.uleb128 0x3
 467 00db 0B070000 		.4byte	.LASF19
 468 00df 04       		.byte	0x4
 469 00e0 30       		.byte	0x30
 470 00e1 90000000 		.4byte	0x90
 471 00e5 03       		.uleb128 0x3
 472 00e6 30000000 		.4byte	.LASF20
 473 00ea 04       		.byte	0x4
 474 00eb 3C       		.byte	0x3c
 475 00ec A2000000 		.4byte	0xa2
 476 00f0 03       		.uleb128 0x3
 477 00f1 CE040000 		.4byte	.LASF21
 478 00f5 05       		.byte	0x5
 479 00f6 45       		.byte	0x45
 480 00f7 DA000000 		.4byte	0xda
 481 00fb 03       		.uleb128 0x3
 482 00fc 08010000 		.4byte	.LASF22
 483 0100 05       		.byte	0x5
 484 0101 46       		.byte	0x46
 485 0102 E5000000 		.4byte	0xe5
 486 0106 03       		.uleb128 0x3
 487 0107 5A060000 		.4byte	.LASF23
 488 010b 05       		.byte	0x5
 489 010c 48       		.byte	0x48
 490 010d B4000000 		.4byte	0xb4
 491 0111 03       		.uleb128 0x3
 492 0112 E3020000 		.4byte	.LASF24
 493 0116 05       		.byte	0x5
 494 0117 49       		.byte	0x49
 495 0118 B4000000 		.4byte	0xb4
 496 011c 03       		.uleb128 0x3
 497 011d 9E050000 		.4byte	.LASF25
 498 0121 05       		.byte	0x5
 499 0122 4A       		.byte	0x4a
 500 0123 B4000000 		.4byte	0xb4
 501 0127 03       		.uleb128 0x3
 502 0128 7C010000 		.4byte	.LASF26
 503 012c 05       		.byte	0x5
 504 012d 4B       		.byte	0x4b
 505 012e B4000000 		.4byte	0xb4
 506 0132 03       		.uleb128 0x3
 507 0133 DA050000 		.4byte	.LASF27
 508 0137 05       		.byte	0x5
 509 0138 4C       		.byte	0x4c
ARM GAS  C:\Users\PCHAUT~1\AppData\Local\Temp\ccry1Rip.s 			page 10


 510 0139 DA000000 		.4byte	0xda
 511 013d 03       		.uleb128 0x3
 512 013e 2B040000 		.4byte	.LASF28
 513 0142 05       		.byte	0x5
 514 0143 4D       		.byte	0x4d
 515 0144 CA000000 		.4byte	0xca
 516 0148 03       		.uleb128 0x3
 517 0149 79040000 		.4byte	.LASF29
 518 014d 05       		.byte	0x5
 519 014e 4F       		.byte	0x4f
 520 014f DA000000 		.4byte	0xda
 521 0153 03       		.uleb128 0x3
 522 0154 76030000 		.4byte	.LASF30
 523 0158 05       		.byte	0x5
 524 0159 51       		.byte	0x51
 525 015a CA000000 		.4byte	0xca
 526 015e 03       		.uleb128 0x3
 527 015f 36040000 		.4byte	.LASF31
 528 0163 05       		.byte	0x5
 529 0164 52       		.byte	0x52
 530 0165 DA000000 		.4byte	0xda
 531 0169 03       		.uleb128 0x3
 532 016a 8E070000 		.4byte	.LASF32
 533 016e 06       		.byte	0x6
 534 016f 33       		.byte	0x33
 535 0170 DA000000 		.4byte	0xda
 536 0174 05       		.uleb128 0x5
 537 0175 69010000 		.4byte	0x169
 538 0179 03       		.uleb128 0x3
 539 017a 79070000 		.4byte	.LASF33
 540 017e 06       		.byte	0x6
 541 017f 3F       		.byte	0x3f
 542 0180 84010000 		.4byte	0x184
 543 0184 06       		.uleb128 0x6
 544 0185 21040000 		.4byte	.LASF57
 545 0189 68       		.byte	0x68
 546 018a 07       		.byte	0x7
 547 018b C2       		.byte	0xc2
 548 018c A2020000 		.4byte	0x2a2
 549 0190 07       		.uleb128 0x7
 550 0191 53060000 		.4byte	.LASF34
 551 0195 07       		.byte	0x7
 552 0196 C3       		.byte	0xc3
 553 0197 AD020000 		.4byte	0x2ad
 554 019b 00       		.byte	0
 555 019c 07       		.uleb128 0x7
 556 019d CB050000 		.4byte	.LASF35
 557 01a1 07       		.byte	0x7
 558 01a2 C5       		.byte	0xc5
 559 01a3 AD020000 		.4byte	0x2ad
 560 01a7 04       		.byte	0x4
 561 01a8 07       		.uleb128 0x7
 562 01a9 11010000 		.4byte	.LASF36
 563 01ad 07       		.byte	0x7
 564 01ae C7       		.byte	0xc7
 565 01af 32010000 		.4byte	0x132
 566 01b3 08       		.byte	0x8
ARM GAS  C:\Users\PCHAUT~1\AppData\Local\Temp\ccry1Rip.s 			page 11


 567 01b4 07       		.uleb128 0x7
 568 01b5 3D050000 		.4byte	.LASF37
 569 01b9 07       		.byte	0x7
 570 01ba C8       		.byte	0xc8
 571 01bb 2B050000 		.4byte	0x52b
 572 01bf 0C       		.byte	0xc
 573 01c0 07       		.uleb128 0x7
 574 01c1 03030000 		.4byte	.LASF38
 575 01c5 07       		.byte	0x7
 576 01c6 CA       		.byte	0xca
 577 01c7 AD020000 		.4byte	0x2ad
 578 01cb 10       		.byte	0x10
 579 01cc 07       		.uleb128 0x7
 580 01cd 2F050000 		.4byte	.LASF39
 581 01d1 07       		.byte	0x7
 582 01d2 CB       		.byte	0xcb
 583 01d3 AD020000 		.4byte	0x2ad
 584 01d7 14       		.byte	0x14
 585 01d8 07       		.uleb128 0x7
 586 01d9 E2050000 		.4byte	.LASF40
 587 01dd 07       		.byte	0x7
 588 01de D2       		.byte	0xd2
 589 01df A1080000 		.4byte	0x8a1
 590 01e3 18       		.byte	0x18
 591 01e4 07       		.uleb128 0x7
 592 01e5 7C030000 		.4byte	.LASF41
 593 01e9 07       		.byte	0x7
 594 01ea D8       		.byte	0xd8
 595 01eb B8080000 		.4byte	0x8b8
 596 01ef 1C       		.byte	0x1c
 597 01f0 07       		.uleb128 0x7
 598 01f1 22060000 		.4byte	.LASF42
 599 01f5 07       		.byte	0x7
 600 01f6 DD       		.byte	0xdd
 601 01f7 11010000 		.4byte	0x111
 602 01fb 20       		.byte	0x20
 603 01fc 07       		.uleb128 0x7
 604 01fd 71060000 		.4byte	.LASF43
 605 0201 07       		.byte	0x7
 606 0202 E1       		.byte	0xe1
 607 0203 06010000 		.4byte	0x106
 608 0207 21       		.byte	0x21
 609 0208 07       		.uleb128 0x7
 610 0209 25080000 		.4byte	.LASF44
 611 020d 07       		.byte	0x7
 612 020e E6       		.byte	0xe6
 613 020f 1C010000 		.4byte	0x11c
 614 0213 22       		.byte	0x22
 615 0214 07       		.uleb128 0x7
 616 0215 2A060000 		.4byte	.LASF45
 617 0219 07       		.byte	0x7
 618 021a EC       		.byte	0xec
 619 021b 27010000 		.4byte	0x127
 620 021f 23       		.byte	0x23
 621 0220 07       		.uleb128 0x7
 622 0221 B5030000 		.4byte	.LASF46
 623 0225 07       		.byte	0x7
ARM GAS  C:\Users\PCHAUT~1\AppData\Local\Temp\ccry1Rip.s 			page 12


 624 0226 F3       		.byte	0xf3
 625 0227 74010000 		.4byte	0x174
 626 022b 24       		.byte	0x24
 627 022c 08       		.uleb128 0x8
 628 022d 705F7500 		.ascii	"p_u\000"
 629 0231 07       		.byte	0x7
 630 0232 3101     		.2byte	0x131
 631 0234 D0070000 		.4byte	0x7d0
 632 0238 28       		.byte	0x28
 633 0239 09       		.uleb128 0x9
 634 023a C4040000 		.4byte	.LASF47
 635 023e 07       		.byte	0x7
 636 023f 3601     		.2byte	0x136
 637 0241 B3020000 		.4byte	0x2b3
 638 0245 2C       		.byte	0x2c
 639 0246 09       		.uleb128 0x9
 640 0247 CC030000 		.4byte	.LASF48
 641 024b 07       		.byte	0x7
 642 024c 3C01     		.2byte	0x13c
 643 024e D7020000 		.4byte	0x2d7
 644 0252 30       		.byte	0x30
 645 0253 09       		.uleb128 0x9
 646 0254 F2070000 		.4byte	.LASF49
 647 0258 07       		.byte	0x7
 648 0259 4001     		.2byte	0x140
 649 025b 3D010000 		.4byte	0x13d
 650 025f 38       		.byte	0x38
 651 0260 09       		.uleb128 0x9
 652 0261 00070000 		.4byte	.LASF50
 653 0265 07       		.byte	0x7
 654 0266 4601     		.2byte	0x146
 655 0268 48010000 		.4byte	0x148
 656 026c 3C       		.byte	0x3c
 657 026d 09       		.uleb128 0x9
 658 026e 0E060000 		.4byte	.LASF51
 659 0272 07       		.byte	0x7
 660 0273 4D01     		.2byte	0x14d
 661 0275 9B080000 		.4byte	0x89b
 662 0279 40       		.byte	0x40
 663 027a 09       		.uleb128 0x9
 664 027b 98070000 		.4byte	.LASF52
 665 027f 07       		.byte	0x7
 666 0280 5101     		.2byte	0x151
 667 0282 32010000 		.4byte	0x132
 668 0286 44       		.byte	0x44
 669 0287 09       		.uleb128 0x9
 670 0288 65010000 		.4byte	.LASF53
 671 028c 07       		.byte	0x7
 672 028d 5801     		.2byte	0x158
 673 028f 8A030000 		.4byte	0x38a
 674 0293 48       		.byte	0x48
 675 0294 09       		.uleb128 0x9
 676 0295 79060000 		.4byte	.LASF54
 677 0299 07       		.byte	0x7
 678 029a 5E01     		.2byte	0x15e
 679 029c 81070000 		.4byte	0x781
 680 02a0 50       		.byte	0x50
ARM GAS  C:\Users\PCHAUT~1\AppData\Local\Temp\ccry1Rip.s 			page 13


 681 02a1 00       		.byte	0
 682 02a2 03       		.uleb128 0x3
 683 02a3 86080000 		.4byte	.LASF55
 684 02a7 06       		.byte	0x6
 685 02a8 44       		.byte	0x44
 686 02a9 AD020000 		.4byte	0x2ad
 687 02ad 0A       		.uleb128 0xa
 688 02ae 04       		.byte	0x4
 689 02af 79010000 		.4byte	0x179
 690 02b3 03       		.uleb128 0x3
 691 02b4 9A040000 		.4byte	.LASF56
 692 02b8 06       		.byte	0x6
 693 02b9 49       		.byte	0x49
 694 02ba BE020000 		.4byte	0x2be
 695 02be 06       		.uleb128 0x6
 696 02bf 2B070000 		.4byte	.LASF58
 697 02c3 04       		.byte	0x4
 698 02c4 07       		.byte	0x7
 699 02c5 B0       		.byte	0xb0
 700 02c6 D7020000 		.4byte	0x2d7
 701 02ca 07       		.uleb128 0x7
 702 02cb 53060000 		.4byte	.LASF34
 703 02cf 07       		.byte	0x7
 704 02d0 B1       		.byte	0xb1
 705 02d1 AD020000 		.4byte	0x2ad
 706 02d5 00       		.byte	0
 707 02d6 00       		.byte	0
 708 02d7 03       		.uleb128 0x3
 709 02d8 BC060000 		.4byte	.LASF59
 710 02dc 06       		.byte	0x6
 711 02dd 50       		.byte	0x50
 712 02de E2020000 		.4byte	0x2e2
 713 02e2 06       		.uleb128 0x6
 714 02e3 5C000000 		.4byte	.LASF60
 715 02e7 08       		.byte	0x8
 716 02e8 07       		.byte	0x7
 717 02e9 B7       		.byte	0xb7
 718 02ea 07030000 		.4byte	0x307
 719 02ee 07       		.uleb128 0x7
 720 02ef 53060000 		.4byte	.LASF34
 721 02f3 07       		.byte	0x7
 722 02f4 B8       		.byte	0xb8
 723 02f5 AD020000 		.4byte	0x2ad
 724 02f9 00       		.byte	0
 725 02fa 07       		.uleb128 0x7
 726 02fb CB050000 		.4byte	.LASF35
 727 02ff 07       		.byte	0x7
 728 0300 B9       		.byte	0xb9
 729 0301 AD020000 		.4byte	0x2ad
 730 0305 04       		.byte	0x4
 731 0306 00       		.byte	0
 732 0307 03       		.uleb128 0x3
 733 0308 0D000000 		.4byte	.LASF61
 734 030c 06       		.byte	0x6
 735 030d 57       		.byte	0x57
 736 030e 12030000 		.4byte	0x312
 737 0312 0B       		.uleb128 0xb
ARM GAS  C:\Users\PCHAUT~1\AppData\Local\Temp\ccry1Rip.s 			page 14


 738 0313 6B040000 		.4byte	.LASF62
 739 0317 1C       		.byte	0x1c
 740 0318 07       		.byte	0x7
 741 0319 9001     		.2byte	0x190
 742 031b 6E030000 		.4byte	0x36e
 743 031f 09       		.uleb128 0x9
 744 0320 0C050000 		.4byte	.LASF63
 745 0324 07       		.byte	0x7
 746 0325 9101     		.2byte	0x191
 747 0327 D7020000 		.4byte	0x2d7
 748 032b 00       		.byte	0
 749 032c 09       		.uleb128 0x9
 750 032d BD040000 		.4byte	.LASF64
 751 0331 07       		.byte	0x7
 752 0332 9201     		.2byte	0x192
 753 0334 32010000 		.4byte	0x132
 754 0338 08       		.byte	0x8
 755 0339 09       		.uleb128 0x9
 756 033a 37050000 		.4byte	.LASF65
 757 033e 07       		.byte	0x7
 758 033f 9401     		.2byte	0x194
 759 0341 2B050000 		.4byte	0x52b
 760 0345 0C       		.byte	0xc
 761 0346 09       		.uleb128 0x9
 762 0347 1B030000 		.4byte	.LASF66
 763 034b 07       		.byte	0x7
 764 034c 9701     		.2byte	0x197
 765 034e AD020000 		.4byte	0x2ad
 766 0352 10       		.byte	0x10
 767 0353 09       		.uleb128 0x9
 768 0354 73050000 		.4byte	.LASF67
 769 0358 07       		.byte	0x7
 770 0359 9801     		.2byte	0x198
 771 035b AD020000 		.4byte	0x2ad
 772 035f 14       		.byte	0x14
 773 0360 09       		.uleb128 0x9
 774 0361 69050000 		.4byte	.LASF68
 775 0365 07       		.byte	0x7
 776 0366 9B01     		.2byte	0x19b
 777 0368 AD020000 		.4byte	0x2ad
 778 036c 18       		.byte	0x18
 779 036d 00       		.byte	0
 780 036e 03       		.uleb128 0x3
 781 036f A3070000 		.4byte	.LASF69
 782 0373 06       		.byte	0x6
 783 0374 5C       		.byte	0x5c
 784 0375 79030000 		.4byte	0x379
 785 0379 0A       		.uleb128 0xa
 786 037a 04       		.byte	0x4
 787 037b 7F030000 		.4byte	0x37f
 788 037f 0C       		.uleb128 0xc
 789 0380 8A030000 		.4byte	0x38a
 790 0384 0D       		.uleb128 0xd
 791 0385 8A030000 		.4byte	0x38a
 792 0389 00       		.byte	0
 793 038a 0E       		.uleb128 0xe
 794 038b 04       		.byte	0x4
ARM GAS  C:\Users\PCHAUT~1\AppData\Local\Temp\ccry1Rip.s 			page 15


 795 038c 0F       		.uleb128 0xf
 796 038d 8A030000 		.4byte	0x38a
 797 0391 03       		.uleb128 0x3
 798 0392 BB050000 		.4byte	.LASF70
 799 0396 06       		.byte	0x6
 800 0397 61       		.byte	0x61
 801 0398 9C030000 		.4byte	0x39c
 802 039c 0B       		.uleb128 0xb
 803 039d CC060000 		.4byte	.LASF71
 804 03a1 14       		.byte	0x14
 805 03a2 07       		.byte	0x7
 806 03a3 6B01     		.2byte	0x16b
 807 03a5 EB030000 		.4byte	0x3eb
 808 03a9 09       		.uleb128 0x9
 809 03aa 94030000 		.4byte	.LASF72
 810 03ae 07       		.byte	0x7
 811 03af 6C01     		.2byte	0x16c
 812 03b1 BE080000 		.4byte	0x8be
 813 03b5 00       		.byte	0
 814 03b6 09       		.uleb128 0x9
 815 03b7 38030000 		.4byte	.LASF73
 816 03bb 07       		.byte	0x7
 817 03bc 6D01     		.2byte	0x16d
 818 03be BE080000 		.4byte	0x8be
 819 03c2 04       		.byte	0x4
 820 03c3 09       		.uleb128 0x9
 821 03c4 C3030000 		.4byte	.LASF74
 822 03c8 07       		.byte	0x7
 823 03c9 6E01     		.2byte	0x16e
 824 03cb 69010000 		.4byte	0x169
 825 03cf 08       		.byte	0x8
 826 03d0 09       		.uleb128 0x9
 827 03d1 09090000 		.4byte	.LASF75
 828 03d5 07       		.byte	0x7
 829 03d6 6F01     		.2byte	0x16f
 830 03d8 6E030000 		.4byte	0x36e
 831 03dc 0C       		.byte	0xc
 832 03dd 09       		.uleb128 0x9
 833 03de 05080000 		.4byte	.LASF76
 834 03e2 07       		.byte	0x7
 835 03e3 7101     		.2byte	0x171
 836 03e5 8A030000 		.4byte	0x38a
 837 03e9 10       		.byte	0x10
 838 03ea 00       		.byte	0
 839 03eb 03       		.uleb128 0x3
 840 03ec E5000000 		.4byte	.LASF77
 841 03f0 06       		.byte	0x6
 842 03f1 66       		.byte	0x66
 843 03f2 F6030000 		.4byte	0x3f6
 844 03f6 0B       		.uleb128 0xb
 845 03f7 D6040000 		.4byte	.LASF78
 846 03fb 10       		.byte	0x10
 847 03fc 07       		.byte	0x7
 848 03fd 7B01     		.2byte	0x17b
 849 03ff 38040000 		.4byte	0x438
 850 0403 09       		.uleb128 0x9
 851 0404 94030000 		.4byte	.LASF72
ARM GAS  C:\Users\PCHAUT~1\AppData\Local\Temp\ccry1Rip.s 			page 16


 852 0408 07       		.byte	0x7
 853 0409 7C01     		.2byte	0x17c
 854 040b BE080000 		.4byte	0x8be
 855 040f 00       		.byte	0
 856 0410 09       		.uleb128 0x9
 857 0411 38030000 		.4byte	.LASF73
 858 0415 07       		.byte	0x7
 859 0416 7E01     		.2byte	0x17e
 860 0418 BE080000 		.4byte	0x8be
 861 041c 04       		.byte	0x4
 862 041d 09       		.uleb128 0x9
 863 041e C3030000 		.4byte	.LASF74
 864 0422 07       		.byte	0x7
 865 0423 8001     		.2byte	0x180
 866 0425 69010000 		.4byte	0x169
 867 0429 08       		.byte	0x8
 868 042a 09       		.uleb128 0x9
 869 042b BB080000 		.4byte	.LASF79
 870 042f 07       		.byte	0x7
 871 0430 8201     		.2byte	0x182
 872 0432 74010000 		.4byte	0x174
 873 0436 0C       		.byte	0xc
 874 0437 00       		.byte	0
 875 0438 03       		.uleb128 0x3
 876 0439 6D000000 		.4byte	.LASF80
 877 043d 06       		.byte	0x6
 878 043e 6B       		.byte	0x6b
 879 043f 43040000 		.4byte	0x443
 880 0443 10       		.uleb128 0x10
 881 0444 40030000 		.4byte	.LASF81
 882 0448 1404     		.2byte	0x414
 883 044a 07       		.byte	0x7
 884 044b A201     		.2byte	0x1a2
 885 044d 86040000 		.4byte	0x486
 886 0451 09       		.uleb128 0x9
 887 0452 B7070000 		.4byte	.LASF82
 888 0456 07       		.byte	0x7
 889 0457 AA01     		.2byte	0x1aa
 890 0459 A7080000 		.4byte	0x8a7
 891 045d 00       		.byte	0
 892 045e 09       		.uleb128 0x9
 893 045f 2C080000 		.4byte	.LASF83
 894 0463 07       		.byte	0x7
 895 0464 AF01     		.2byte	0x1af
 896 0466 53010000 		.4byte	0x153
 897 046a 04       		.byte	0x4
 898 046b 09       		.uleb128 0x9
 899 046c 5E030000 		.4byte	.LASF84
 900 0470 07       		.byte	0x7
 901 0471 B301     		.2byte	0x1b3
 902 0473 53010000 		.4byte	0x153
 903 0477 08       		.byte	0x8
 904 0478 09       		.uleb128 0x9
 905 0479 C6080000 		.4byte	.LASF85
 906 047d 07       		.byte	0x7
 907 047e B901     		.2byte	0x1b9
 908 0480 13070000 		.4byte	0x713
ARM GAS  C:\Users\PCHAUT~1\AppData\Local\Temp\ccry1Rip.s 			page 17


 909 0484 0C       		.byte	0xc
 910 0485 00       		.byte	0
 911 0486 03       		.uleb128 0x3
 912 0487 3D040000 		.4byte	.LASF86
 913 048b 06       		.byte	0x6
 914 048c 70       		.byte	0x70
 915 048d 91040000 		.4byte	0x491
 916 0491 10       		.uleb128 0x10
 917 0492 8C010000 		.4byte	.LASF87
 918 0496 7006     		.2byte	0x670
 919 0498 07       		.byte	0x7
 920 0499 C201     		.2byte	0x1c2
 921 049b FE040000 		.4byte	0x4fe
 922 049f 09       		.uleb128 0x9
 923 04a0 3D080000 		.4byte	.LASF88
 924 04a4 07       		.byte	0x7
 925 04a5 C601     		.2byte	0x1c6
 926 04a7 07030000 		.4byte	0x307
 927 04ab 00       		.byte	0
 928 04ac 09       		.uleb128 0x9
 929 04ad 75010000 		.4byte	.LASF89
 930 04b1 07       		.byte	0x7
 931 04b2 CA01     		.2byte	0x1ca
 932 04b4 EB030000 		.4byte	0x3eb
 933 04b8 1C       		.byte	0x1c
 934 04b9 08       		.uleb128 0x8
 935 04ba 64626700 		.ascii	"dbg\000"
 936 04be 07       		.byte	0x7
 937 04bf CE01     		.2byte	0x1ce
 938 04c1 38040000 		.4byte	0x438
 939 04c5 2C       		.byte	0x2c
 940 04c6 11       		.uleb128 0x11
 941 04c7 D5000000 		.4byte	.LASF90
 942 04cb 07       		.byte	0x7
 943 04cc D201     		.2byte	0x1d2
 944 04ce 79010000 		.4byte	0x179
 945 04d2 4004     		.2byte	0x440
 946 04d4 12       		.uleb128 0x12
 947 04d5 746D00   		.ascii	"tm\000"
 948 04d8 07       		.byte	0x7
 949 04d9 D701     		.2byte	0x1d7
 950 04db 33070000 		.4byte	0x733
 951 04df A804     		.2byte	0x4a8
 952 04e1 11       		.uleb128 0x11
 953 04e2 39000000 		.4byte	.LASF91
 954 04e6 07       		.byte	0x7
 955 04e7 DD01     		.2byte	0x1dd
 956 04e9 C5070000 		.4byte	0x7c5
 957 04ed B004     		.2byte	0x4b0
 958 04ef 11       		.uleb128 0x11
 959 04f0 67030000 		.4byte	.LASF92
 960 04f4 07       		.byte	0x7
 961 04f5 E301     		.2byte	0x1e3
 962 04f7 C4080000 		.4byte	0x8c4
 963 04fb E804     		.2byte	0x4e8
 964 04fd 00       		.byte	0
 965 04fe 13       		.uleb128 0x13
ARM GAS  C:\Users\PCHAUT~1\AppData\Local\Temp\ccry1Rip.s 			page 18


 966 04ff FB000000 		.4byte	.LASF93
 967 0503 08       		.byte	0x8
 968 0504 A706     		.2byte	0x6a7
 969 0506 D5000000 		.4byte	0xd5
 970 050a 14       		.uleb128 0x14
 971 050b A5030000 		.4byte	.LASF94
 972 050f 09       		.byte	0x9
 973 0510 4C       		.byte	0x4c
 974 0511 DA000000 		.4byte	0xda
 975 0515 03       		.uleb128 0x3
 976 0516 2F030000 		.4byte	.LASF95
 977 051a 0A       		.byte	0xa
 978 051b 65       		.byte	0x65
 979 051c 8A030000 		.4byte	0x38a
 980 0520 03       		.uleb128 0x3
 981 0521 8F040000 		.4byte	.LASF96
 982 0525 0A       		.byte	0xa
 983 0526 6D       		.byte	0x6d
 984 0527 E5000000 		.4byte	0xe5
 985 052b 06       		.uleb128 0x6
 986 052c EA070000 		.4byte	.LASF97
 987 0530 04       		.byte	0x4
 988 0531 0A       		.byte	0xa
 989 0532 89       		.byte	0x89
 990 0533 44050000 		.4byte	0x544
 991 0537 15       		.uleb128 0x15
 992 0538 72313300 		.ascii	"r13\000"
 993 053c 0A       		.byte	0xa
 994 053d 8A       		.byte	0x8a
 995 053e 85060000 		.4byte	0x685
 996 0542 00       		.byte	0
 997 0543 00       		.byte	0
 998 0544 06       		.uleb128 0x6
 999 0545 50000000 		.4byte	.LASF98
 1000 0549 64       		.byte	0x64
 1001 054a 0B       		.byte	0xb
 1002 054b F4       		.byte	0xf4
 1003 054c 85060000 		.4byte	0x685
 1004 0550 15       		.uleb128 0x15
 1005 0551 73313600 		.ascii	"s16\000"
 1006 0555 0B       		.byte	0xb
 1007 0556 F6       		.byte	0xf6
 1008 0557 15050000 		.4byte	0x515
 1009 055b 00       		.byte	0
 1010 055c 15       		.uleb128 0x15
 1011 055d 73313700 		.ascii	"s17\000"
 1012 0561 0B       		.byte	0xb
 1013 0562 F7       		.byte	0xf7
 1014 0563 15050000 		.4byte	0x515
 1015 0567 04       		.byte	0x4
 1016 0568 15       		.uleb128 0x15
 1017 0569 73313800 		.ascii	"s18\000"
 1018 056d 0B       		.byte	0xb
 1019 056e F8       		.byte	0xf8
 1020 056f 15050000 		.4byte	0x515
 1021 0573 08       		.byte	0x8
 1022 0574 15       		.uleb128 0x15
ARM GAS  C:\Users\PCHAUT~1\AppData\Local\Temp\ccry1Rip.s 			page 19


 1023 0575 73313900 		.ascii	"s19\000"
 1024 0579 0B       		.byte	0xb
 1025 057a F9       		.byte	0xf9
 1026 057b 15050000 		.4byte	0x515
 1027 057f 0C       		.byte	0xc
 1028 0580 15       		.uleb128 0x15
 1029 0581 73323000 		.ascii	"s20\000"
 1030 0585 0B       		.byte	0xb
 1031 0586 FA       		.byte	0xfa
 1032 0587 15050000 		.4byte	0x515
 1033 058b 10       		.byte	0x10
 1034 058c 15       		.uleb128 0x15
 1035 058d 73323100 		.ascii	"s21\000"
 1036 0591 0B       		.byte	0xb
 1037 0592 FB       		.byte	0xfb
 1038 0593 15050000 		.4byte	0x515
 1039 0597 14       		.byte	0x14
 1040 0598 15       		.uleb128 0x15
 1041 0599 73323200 		.ascii	"s22\000"
 1042 059d 0B       		.byte	0xb
 1043 059e FC       		.byte	0xfc
 1044 059f 15050000 		.4byte	0x515
 1045 05a3 18       		.byte	0x18
 1046 05a4 15       		.uleb128 0x15
 1047 05a5 73323300 		.ascii	"s23\000"
 1048 05a9 0B       		.byte	0xb
 1049 05aa FD       		.byte	0xfd
 1050 05ab 15050000 		.4byte	0x515
 1051 05af 1C       		.byte	0x1c
 1052 05b0 15       		.uleb128 0x15
 1053 05b1 73323400 		.ascii	"s24\000"
 1054 05b5 0B       		.byte	0xb
 1055 05b6 FE       		.byte	0xfe
 1056 05b7 15050000 		.4byte	0x515
 1057 05bb 20       		.byte	0x20
 1058 05bc 15       		.uleb128 0x15
 1059 05bd 73323500 		.ascii	"s25\000"
 1060 05c1 0B       		.byte	0xb
 1061 05c2 FF       		.byte	0xff
 1062 05c3 15050000 		.4byte	0x515
 1063 05c7 24       		.byte	0x24
 1064 05c8 08       		.uleb128 0x8
 1065 05c9 73323600 		.ascii	"s26\000"
 1066 05cd 0B       		.byte	0xb
 1067 05ce 0001     		.2byte	0x100
 1068 05d0 15050000 		.4byte	0x515
 1069 05d4 28       		.byte	0x28
 1070 05d5 08       		.uleb128 0x8
 1071 05d6 73323700 		.ascii	"s27\000"
 1072 05da 0B       		.byte	0xb
 1073 05db 0101     		.2byte	0x101
 1074 05dd 15050000 		.4byte	0x515
 1075 05e1 2C       		.byte	0x2c
 1076 05e2 08       		.uleb128 0x8
 1077 05e3 73323800 		.ascii	"s28\000"
 1078 05e7 0B       		.byte	0xb
 1079 05e8 0201     		.2byte	0x102
ARM GAS  C:\Users\PCHAUT~1\AppData\Local\Temp\ccry1Rip.s 			page 20


 1080 05ea 15050000 		.4byte	0x515
 1081 05ee 30       		.byte	0x30
 1082 05ef 08       		.uleb128 0x8
 1083 05f0 73323900 		.ascii	"s29\000"
 1084 05f4 0B       		.byte	0xb
 1085 05f5 0301     		.2byte	0x103
 1086 05f7 15050000 		.4byte	0x515
 1087 05fb 34       		.byte	0x34
 1088 05fc 08       		.uleb128 0x8
 1089 05fd 73333000 		.ascii	"s30\000"
 1090 0601 0B       		.byte	0xb
 1091 0602 0401     		.2byte	0x104
 1092 0604 15050000 		.4byte	0x515
 1093 0608 38       		.byte	0x38
 1094 0609 08       		.uleb128 0x8
 1095 060a 73333100 		.ascii	"s31\000"
 1096 060e 0B       		.byte	0xb
 1097 060f 0501     		.2byte	0x105
 1098 0611 15050000 		.4byte	0x515
 1099 0615 3C       		.byte	0x3c
 1100 0616 08       		.uleb128 0x8
 1101 0617 723400   		.ascii	"r4\000"
 1102 061a 0B       		.byte	0xb
 1103 061b 0701     		.2byte	0x107
 1104 061d 15050000 		.4byte	0x515
 1105 0621 40       		.byte	0x40
 1106 0622 08       		.uleb128 0x8
 1107 0623 723500   		.ascii	"r5\000"
 1108 0626 0B       		.byte	0xb
 1109 0627 0801     		.2byte	0x108
 1110 0629 15050000 		.4byte	0x515
 1111 062d 44       		.byte	0x44
 1112 062e 08       		.uleb128 0x8
 1113 062f 723600   		.ascii	"r6\000"
 1114 0632 0B       		.byte	0xb
 1115 0633 0901     		.2byte	0x109
 1116 0635 15050000 		.4byte	0x515
 1117 0639 48       		.byte	0x48
 1118 063a 08       		.uleb128 0x8
 1119 063b 723700   		.ascii	"r7\000"
 1120 063e 0B       		.byte	0xb
 1121 063f 0A01     		.2byte	0x10a
 1122 0641 15050000 		.4byte	0x515
 1123 0645 4C       		.byte	0x4c
 1124 0646 08       		.uleb128 0x8
 1125 0647 723800   		.ascii	"r8\000"
 1126 064a 0B       		.byte	0xb
 1127 064b 0B01     		.2byte	0x10b
 1128 064d 15050000 		.4byte	0x515
 1129 0651 50       		.byte	0x50
 1130 0652 08       		.uleb128 0x8
 1131 0653 723900   		.ascii	"r9\000"
 1132 0656 0B       		.byte	0xb
 1133 0657 0C01     		.2byte	0x10c
 1134 0659 15050000 		.4byte	0x515
 1135 065d 54       		.byte	0x54
 1136 065e 08       		.uleb128 0x8
ARM GAS  C:\Users\PCHAUT~1\AppData\Local\Temp\ccry1Rip.s 			page 21


 1137 065f 72313000 		.ascii	"r10\000"
 1138 0663 0B       		.byte	0xb
 1139 0664 0D01     		.2byte	0x10d
 1140 0666 15050000 		.4byte	0x515
 1141 066a 58       		.byte	0x58
 1142 066b 08       		.uleb128 0x8
 1143 066c 72313100 		.ascii	"r11\000"
 1144 0670 0B       		.byte	0xb
 1145 0671 0E01     		.2byte	0x10e
 1146 0673 15050000 		.4byte	0x515
 1147 0677 5C       		.byte	0x5c
 1148 0678 08       		.uleb128 0x8
 1149 0679 6C7200   		.ascii	"lr\000"
 1150 067c 0B       		.byte	0xb
 1151 067d 0F01     		.2byte	0x10f
 1152 067f 15050000 		.4byte	0x515
 1153 0683 60       		.byte	0x60
 1154 0684 00       		.byte	0
 1155 0685 0A       		.uleb128 0xa
 1156 0686 04       		.byte	0x4
 1157 0687 44050000 		.4byte	0x544
 1158 068b 16       		.uleb128 0x16
 1159 068c 10       		.byte	0x10
 1160 068d 0C       		.byte	0xc
 1161 068e 51       		.byte	0x51
 1162 068f C4060000 		.4byte	0x6c4
 1163 0693 07       		.uleb128 0x7
 1164 0694 1A000000 		.4byte	.LASF99
 1165 0698 0C       		.byte	0xc
 1166 0699 55       		.byte	0x55
 1167 069a 69010000 		.4byte	0x169
 1168 069e 00       		.byte	0
 1169 069f 07       		.uleb128 0x7
 1170 06a0 EC020000 		.4byte	.LASF100
 1171 06a4 0C       		.byte	0xc
 1172 06a5 59       		.byte	0x59
 1173 06a6 AD020000 		.4byte	0x2ad
 1174 06aa 04       		.byte	0x4
 1175 06ab 07       		.uleb128 0x7
 1176 06ac F1080000 		.4byte	.LASF101
 1177 06b0 0C       		.byte	0xc
 1178 06b1 5D       		.byte	0x5d
 1179 06b2 8A030000 		.4byte	0x38a
 1180 06b6 08       		.byte	0x8
 1181 06b7 07       		.uleb128 0x7
 1182 06b8 34080000 		.4byte	.LASF102
 1183 06bc 0C       		.byte	0xc
 1184 06bd 61       		.byte	0x61
 1185 06be B4000000 		.4byte	0xb4
 1186 06c2 0C       		.byte	0xc
 1187 06c3 00       		.byte	0
 1188 06c4 03       		.uleb128 0x3
 1189 06c5 14050000 		.4byte	.LASF103
 1190 06c9 0C       		.byte	0xc
 1191 06ca 62       		.byte	0x62
 1192 06cb 8B060000 		.4byte	0x68b
 1193 06cf 17       		.uleb128 0x17
ARM GAS  C:\Users\PCHAUT~1\AppData\Local\Temp\ccry1Rip.s 			page 22


 1194 06d0 0804     		.2byte	0x408
 1195 06d2 0C       		.byte	0xc
 1196 06d3 67       		.byte	0x67
 1197 06d4 FD060000 		.4byte	0x6fd
 1198 06d8 07       		.uleb128 0x7
 1199 06d9 13030000 		.4byte	.LASF104
 1200 06dd 0C       		.byte	0xc
 1201 06de 6B       		.byte	0x6b
 1202 06df 37000000 		.4byte	0x37
 1203 06e3 00       		.byte	0
 1204 06e4 07       		.uleb128 0x7
 1205 06e5 05050000 		.4byte	.LASF105
 1206 06e9 0C       		.byte	0xc
 1207 06ea 6F       		.byte	0x6f
 1208 06eb FD060000 		.4byte	0x6fd
 1209 06ef 04       		.byte	0x4
 1210 06f0 07       		.uleb128 0x7
 1211 06f1 A6050000 		.4byte	.LASF106
 1212 06f5 0C       		.byte	0xc
 1213 06f6 73       		.byte	0x73
 1214 06f7 03070000 		.4byte	0x703
 1215 06fb 08       		.byte	0x8
 1216 06fc 00       		.byte	0
 1217 06fd 0A       		.uleb128 0xa
 1218 06fe 04       		.byte	0x4
 1219 06ff C4060000 		.4byte	0x6c4
 1220 0703 18       		.uleb128 0x18
 1221 0704 C4060000 		.4byte	0x6c4
 1222 0708 13070000 		.4byte	0x713
 1223 070c 19       		.uleb128 0x19
 1224 070d 37000000 		.4byte	0x37
 1225 0711 3F       		.byte	0x3f
 1226 0712 00       		.byte	0
 1227 0713 03       		.uleb128 0x3
 1228 0714 AC000000 		.4byte	.LASF107
 1229 0718 0C       		.byte	0xc
 1230 0719 74       		.byte	0x74
 1231 071a CF060000 		.4byte	0x6cf
 1232 071e 16       		.uleb128 0x16
 1233 071f 04       		.byte	0x4
 1234 0720 0D       		.byte	0xd
 1235 0721 38       		.byte	0x38
 1236 0722 33070000 		.4byte	0x733
 1237 0726 07       		.uleb128 0x7
 1238 0727 D2070000 		.4byte	.LASF108
 1239 072b 0D       		.byte	0xd
 1240 072c 3C       		.byte	0x3c
 1241 072d F0000000 		.4byte	0xf0
 1242 0731 00       		.byte	0
 1243 0732 00       		.byte	0
 1244 0733 03       		.uleb128 0x3
 1245 0734 52050000 		.4byte	.LASF109
 1246 0738 0D       		.byte	0xd
 1247 0739 3D       		.byte	0x3d
 1248 073a 1E070000 		.4byte	0x71e
 1249 073e 16       		.uleb128 0x16
 1250 073f 18       		.byte	0x18
ARM GAS  C:\Users\PCHAUT~1\AppData\Local\Temp\ccry1Rip.s 			page 23


 1251 0740 0D       		.byte	0xd
 1252 0741 48       		.byte	0x48
 1253 0742 81070000 		.4byte	0x781
 1254 0746 07       		.uleb128 0x7
 1255 0747 82070000 		.4byte	.LASF110
 1256 074b 0D       		.byte	0xd
 1257 074c 49       		.byte	0x49
 1258 074d F0000000 		.4byte	0xf0
 1259 0751 00       		.byte	0
 1260 0752 07       		.uleb128 0x7
 1261 0753 7C000000 		.4byte	.LASF111
 1262 0757 0D       		.byte	0xd
 1263 0758 4A       		.byte	0x4a
 1264 0759 F0000000 		.4byte	0xf0
 1265 075d 04       		.byte	0x4
 1266 075e 07       		.uleb128 0x7
 1267 075f 31040000 		.4byte	.LASF112
 1268 0763 0D       		.byte	0xd
 1269 0764 4B       		.byte	0x4b
 1270 0765 F0000000 		.4byte	0xf0
 1271 0769 08       		.byte	0x8
 1272 076a 15       		.uleb128 0x15
 1273 076b 6E00     		.ascii	"n\000"
 1274 076d 0D       		.byte	0xd
 1275 076e 4C       		.byte	0x4c
 1276 076f 5E010000 		.4byte	0x15e
 1277 0773 0C       		.byte	0xc
 1278 0774 07       		.uleb128 0x7
 1279 0775 93050000 		.4byte	.LASF113
 1280 0779 0D       		.byte	0xd
 1281 077a 4D       		.byte	0x4d
 1282 077b FB000000 		.4byte	0xfb
 1283 077f 10       		.byte	0x10
 1284 0780 00       		.byte	0
 1285 0781 03       		.uleb128 0x3
 1286 0782 82000000 		.4byte	.LASF114
 1287 0786 0D       		.byte	0xd
 1288 0787 4E       		.byte	0x4e
 1289 0788 3E070000 		.4byte	0x73e
 1290 078c 16       		.uleb128 0x16
 1291 078d 38       		.byte	0x38
 1292 078e 0E       		.byte	0xe
 1293 078f 38       		.byte	0x38
 1294 0790 C5070000 		.4byte	0x7c5
 1295 0794 07       		.uleb128 0x7
 1296 0795 EE030000 		.4byte	.LASF115
 1297 0799 0E       		.byte	0xe
 1298 079a 39       		.byte	0x39
 1299 079b 5E010000 		.4byte	0x15e
 1300 079f 00       		.byte	0
 1301 07a0 07       		.uleb128 0x7
 1302 07a1 E9050000 		.4byte	.LASF116
 1303 07a5 0E       		.byte	0xe
 1304 07a6 3A       		.byte	0x3a
 1305 07a7 5E010000 		.4byte	0x15e
 1306 07ab 04       		.byte	0x4
 1307 07ac 07       		.uleb128 0x7
ARM GAS  C:\Users\PCHAUT~1\AppData\Local\Temp\ccry1Rip.s 			page 24


 1308 07ad DE080000 		.4byte	.LASF117
 1309 07b1 0E       		.byte	0xe
 1310 07b2 3B       		.byte	0x3b
 1311 07b3 81070000 		.4byte	0x781
 1312 07b7 08       		.byte	0x8
 1313 07b8 07       		.uleb128 0x7
 1314 07b9 60040000 		.4byte	.LASF118
 1315 07bd 0E       		.byte	0xe
 1316 07be 3D       		.byte	0x3d
 1317 07bf 81070000 		.4byte	0x781
 1318 07c3 20       		.byte	0x20
 1319 07c4 00       		.byte	0
 1320 07c5 03       		.uleb128 0x3
 1321 07c6 12040000 		.4byte	.LASF119
 1322 07ca 0E       		.byte	0xe
 1323 07cb 3F       		.byte	0x3f
 1324 07cc 8C070000 		.4byte	0x78c
 1325 07d0 1A       		.uleb128 0x1a
 1326 07d1 04       		.byte	0x4
 1327 07d2 07       		.byte	0x7
 1328 07d3 FA       		.byte	0xfa
 1329 07d4 2D080000 		.4byte	0x82d
 1330 07d8 1B       		.uleb128 0x1b
 1331 07d9 29000000 		.4byte	.LASF120
 1332 07dd 07       		.byte	0x7
 1333 07de 0101     		.2byte	0x101
 1334 07e0 3D010000 		.4byte	0x13d
 1335 07e4 1B       		.uleb128 0x1b
 1336 07e5 CC000000 		.4byte	.LASF121
 1337 07e9 07       		.byte	0x7
 1338 07ea 0801     		.2byte	0x108
 1339 07ec 3D010000 		.4byte	0x13d
 1340 07f0 1B       		.uleb128 0x1b
 1341 07f1 99080000 		.4byte	.LASF122
 1342 07f5 07       		.byte	0x7
 1343 07f6 0F01     		.2byte	0x10f
 1344 07f8 8A030000 		.4byte	0x38a
 1345 07fc 1B       		.uleb128 0x1b
 1346 07fd 86010000 		.4byte	.LASF123
 1347 0801 07       		.byte	0x7
 1348 0802 1601     		.2byte	0x116
 1349 0804 2D080000 		.4byte	0x82d
 1350 0808 1B       		.uleb128 0x1b
 1351 0809 BC030000 		.4byte	.LASF124
 1352 080d 07       		.byte	0x7
 1353 080e 1E01     		.2byte	0x11e
 1354 0810 58080000 		.4byte	0x858
 1355 0814 1B       		.uleb128 0x1b
 1356 0815 5A070000 		.4byte	.LASF125
 1357 0819 07       		.byte	0x7
 1358 081a 2701     		.2byte	0x127
 1359 081c 9B080000 		.4byte	0x89b
 1360 0820 1B       		.uleb128 0x1b
 1361 0821 4C060000 		.4byte	.LASF126
 1362 0825 07       		.byte	0x7
 1363 0826 2F01     		.2byte	0x12f
 1364 0828 48010000 		.4byte	0x148
ARM GAS  C:\Users\PCHAUT~1\AppData\Local\Temp\ccry1Rip.s 			page 25


 1365 082c 00       		.byte	0
 1366 082d 0A       		.uleb128 0xa
 1367 082e 04       		.byte	0x4
 1368 082f A2020000 		.4byte	0x2a2
 1369 0833 06       		.uleb128 0x6
 1370 0834 F3060000 		.4byte	.LASF127
 1371 0838 0C       		.byte	0xc
 1372 0839 0F       		.byte	0xf
 1373 083a 34       		.byte	0x34
 1374 083b 58080000 		.4byte	0x858
 1375 083f 07       		.uleb128 0x7
 1376 0840 0B030000 		.4byte	.LASF128
 1377 0844 0F       		.byte	0xf
 1378 0845 35       		.byte	0x35
 1379 0846 D7020000 		.4byte	0x2d7
 1380 084a 00       		.byte	0
 1381 084b 07       		.uleb128 0x7
 1382 084c F4030000 		.4byte	.LASF129
 1383 0850 0F       		.byte	0xf
 1384 0851 37       		.byte	0x37
 1385 0852 53010000 		.4byte	0x153
 1386 0856 08       		.byte	0x8
 1387 0857 00       		.byte	0
 1388 0858 0A       		.uleb128 0xa
 1389 0859 04       		.byte	0x4
 1390 085a 33080000 		.4byte	0x833
 1391 085e 06       		.uleb128 0x6
 1392 085f D9070000 		.4byte	.LASF130
 1393 0863 14       		.byte	0x14
 1394 0864 10       		.byte	0x10
 1395 0865 39       		.byte	0x39
 1396 0866 9B080000 		.4byte	0x89b
 1397 086a 07       		.uleb128 0x7
 1398 086b 6D010000 		.4byte	.LASF131
 1399 086f 10       		.byte	0x10
 1400 0870 3A       		.byte	0x3a
 1401 0871 D7020000 		.4byte	0x2d7
 1402 0875 00       		.byte	0
 1403 0876 07       		.uleb128 0x7
 1404 0877 E9080000 		.4byte	.LASF132
 1405 087b 10       		.byte	0x10
 1406 087c 3C       		.byte	0x3c
 1407 087d AD020000 		.4byte	0x2ad
 1408 0881 08       		.byte	0x8
 1409 0882 07       		.uleb128 0x7
 1410 0883 87070000 		.4byte	.LASF133
 1411 0887 10       		.byte	0x10
 1412 0888 3E       		.byte	0x3e
 1413 0889 F6090000 		.4byte	0x9f6
 1414 088d 0C       		.byte	0xc
 1415 088e 07       		.uleb128 0x7
 1416 088f 50030000 		.4byte	.LASF134
 1417 0893 10       		.byte	0x10
 1418 0894 41       		.byte	0x41
 1419 0895 53010000 		.4byte	0x153
 1420 0899 10       		.byte	0x10
 1421 089a 00       		.byte	0
ARM GAS  C:\Users\PCHAUT~1\AppData\Local\Temp\ccry1Rip.s 			page 26


 1422 089b 0A       		.uleb128 0xa
 1423 089c 04       		.byte	0x4
 1424 089d 5E080000 		.4byte	0x85e
 1425 08a1 0A       		.uleb128 0xa
 1426 08a2 04       		.byte	0x4
 1427 08a3 B3080000 		.4byte	0x8b3
 1428 08a7 05       		.uleb128 0x5
 1429 08a8 A1080000 		.4byte	0x8a1
 1430 08ac 04       		.uleb128 0x4
 1431 08ad 01       		.byte	0x1
 1432 08ae 08       		.byte	0x8
 1433 08af 55070000 		.4byte	.LASF135
 1434 08b3 0F       		.uleb128 0xf
 1435 08b4 AC080000 		.4byte	0x8ac
 1436 08b8 0A       		.uleb128 0xa
 1437 08b9 04       		.byte	0x4
 1438 08ba 20050000 		.4byte	0x520
 1439 08be 0A       		.uleb128 0xa
 1440 08bf 04       		.byte	0x4
 1441 08c0 91030000 		.4byte	0x391
 1442 08c4 18       		.uleb128 0x18
 1443 08c5 20050000 		.4byte	0x520
 1444 08c9 D4080000 		.4byte	0x8d4
 1445 08cd 19       		.uleb128 0x19
 1446 08ce 37000000 		.4byte	0x37
 1447 08d2 30       		.byte	0x30
 1448 08d3 00       		.byte	0
 1449 08d4 1C       		.uleb128 0x1c
 1450 08d5 636800   		.ascii	"ch\000"
 1451 08d8 07       		.byte	0x7
 1452 08d9 0902     		.2byte	0x209
 1453 08db 86040000 		.4byte	0x486
 1454 08df 16       		.uleb128 0x16
 1455 08e0 16       		.byte	0x16
 1456 08e1 11       		.byte	0x11
 1457 08e2 34       		.byte	0x34
 1458 08e3 C0090000 		.4byte	0x9c0
 1459 08e7 07       		.uleb128 0x7
 1460 08e8 FB080000 		.4byte	.LASF136
 1461 08ec 11       		.byte	0x11
 1462 08ed 35       		.byte	0x35
 1463 08ee C0090000 		.4byte	0x9c0
 1464 08f2 00       		.byte	0
 1465 08f3 07       		.uleb128 0x7
 1466 08f4 A9040000 		.4byte	.LASF137
 1467 08f8 11       		.byte	0x11
 1468 08f9 36       		.byte	0x36
 1469 08fa B4000000 		.4byte	0xb4
 1470 08fe 04       		.byte	0x4
 1471 08ff 07       		.uleb128 0x7
 1472 0900 3B070000 		.4byte	.LASF138
 1473 0904 11       		.byte	0x11
 1474 0905 37       		.byte	0x37
 1475 0906 B4000000 		.4byte	0xb4
 1476 090a 05       		.byte	0x5
 1477 090b 07       		.uleb128 0x7
 1478 090c D3080000 		.4byte	.LASF139
ARM GAS  C:\Users\PCHAUT~1\AppData\Local\Temp\ccry1Rip.s 			page 27


 1479 0910 11       		.byte	0x11
 1480 0911 38       		.byte	0x38
 1481 0912 BF000000 		.4byte	0xbf
 1482 0916 06       		.byte	0x6
 1483 0917 07       		.uleb128 0x7
 1484 0918 B0050000 		.4byte	.LASF140
 1485 091c 11       		.byte	0x11
 1486 091d 39       		.byte	0x39
 1487 091e B4000000 		.4byte	0xb4
 1488 0922 08       		.byte	0x8
 1489 0923 07       		.uleb128 0x7
 1490 0924 F9040000 		.4byte	.LASF141
 1491 0928 11       		.byte	0x11
 1492 0929 3A       		.byte	0x3a
 1493 092a B4000000 		.4byte	0xb4
 1494 092e 09       		.byte	0x9
 1495 092f 07       		.uleb128 0x7
 1496 0930 BE000000 		.4byte	.LASF142
 1497 0934 11       		.byte	0x11
 1498 0935 3B       		.byte	0x3b
 1499 0936 B4000000 		.4byte	0xb4
 1500 093a 0A       		.byte	0xa
 1501 093b 07       		.uleb128 0x7
 1502 093c 14070000 		.4byte	.LASF143
 1503 0940 11       		.byte	0x11
 1504 0941 3C       		.byte	0x3c
 1505 0942 B4000000 		.4byte	0xb4
 1506 0946 0B       		.byte	0xb
 1507 0947 07       		.uleb128 0x7
 1508 0948 49040000 		.4byte	.LASF144
 1509 094c 11       		.byte	0x11
 1510 094d 3D       		.byte	0x3d
 1511 094e B4000000 		.4byte	0xb4
 1512 0952 0C       		.byte	0xc
 1513 0953 07       		.uleb128 0x7
 1514 0954 DD060000 		.4byte	.LASF145
 1515 0958 11       		.byte	0x11
 1516 0959 3E       		.byte	0x3e
 1517 095a B4000000 		.4byte	0xb4
 1518 095e 0D       		.byte	0xd
 1519 095f 07       		.uleb128 0x7
 1520 0960 00000000 		.4byte	.LASF146
 1521 0964 11       		.byte	0x11
 1522 0965 3F       		.byte	0x3f
 1523 0966 B4000000 		.4byte	0xb4
 1524 096a 0E       		.byte	0xe
 1525 096b 07       		.uleb128 0x7
 1526 096c 23050000 		.4byte	.LASF147
 1527 0970 11       		.byte	0x11
 1528 0971 40       		.byte	0x40
 1529 0972 B4000000 		.4byte	0xb4
 1530 0976 0F       		.byte	0xf
 1531 0977 07       		.uleb128 0x7
 1532 0978 48010000 		.4byte	.LASF148
 1533 097c 11       		.byte	0x11
 1534 097d 41       		.byte	0x41
 1535 097e B4000000 		.4byte	0xb4
ARM GAS  C:\Users\PCHAUT~1\AppData\Local\Temp\ccry1Rip.s 			page 28


 1536 0982 10       		.byte	0x10
 1537 0983 07       		.uleb128 0x7
 1538 0984 18010000 		.4byte	.LASF149
 1539 0988 11       		.byte	0x11
 1540 0989 43       		.byte	0x43
 1541 098a B4000000 		.4byte	0xb4
 1542 098e 11       		.byte	0x11
 1543 098f 07       		.uleb128 0x7
 1544 0990 58010000 		.4byte	.LASF150
 1545 0994 11       		.byte	0x11
 1546 0995 44       		.byte	0x44
 1547 0996 B4000000 		.4byte	0xb4
 1548 099a 12       		.byte	0x12
 1549 099b 07       		.uleb128 0x7
 1550 099c B1040000 		.4byte	.LASF151
 1551 09a0 11       		.byte	0x11
 1552 09a1 45       		.byte	0x45
 1553 09a2 B4000000 		.4byte	0xb4
 1554 09a6 13       		.byte	0x13
 1555 09a7 07       		.uleb128 0x7
 1556 09a8 62060000 		.4byte	.LASF152
 1557 09ac 11       		.byte	0x11
 1558 09ad 46       		.byte	0x46
 1559 09ae B4000000 		.4byte	0xb4
 1560 09b2 14       		.byte	0x14
 1561 09b3 07       		.uleb128 0x7
 1562 09b4 54040000 		.4byte	.LASF153
 1563 09b8 11       		.byte	0x11
 1564 09b9 48       		.byte	0x48
 1565 09ba B4000000 		.4byte	0xb4
 1566 09be 15       		.byte	0x15
 1567 09bf 00       		.byte	0
 1568 09c0 18       		.uleb128 0x18
 1569 09c1 AC080000 		.4byte	0x8ac
 1570 09c5 D0090000 		.4byte	0x9d0
 1571 09c9 19       		.uleb128 0x19
 1572 09ca 37000000 		.4byte	0x37
 1573 09ce 03       		.byte	0x3
 1574 09cf 00       		.byte	0
 1575 09d0 03       		.uleb128 0x3
 1576 09d1 F2020000 		.4byte	.LASF154
 1577 09d5 11       		.byte	0x11
 1578 09d6 49       		.byte	0x49
 1579 09d7 DF080000 		.4byte	0x8df
 1580 09db 0F       		.uleb128 0xf
 1581 09dc D0090000 		.4byte	0x9d0
 1582 09e0 14       		.uleb128 0x14
 1583 09e1 D7030000 		.4byte	.LASF155
 1584 09e5 11       		.byte	0x11
 1585 09e6 6E       		.byte	0x6e
 1586 09e7 DB090000 		.4byte	0x9db
 1587 09eb 03       		.uleb128 0x3
 1588 09ec 56030000 		.4byte	.LASF156
 1589 09f0 10       		.byte	0x10
 1590 09f1 34       		.byte	0x34
 1591 09f2 5E080000 		.4byte	0x85e
 1592 09f6 0A       		.uleb128 0xa
ARM GAS  C:\Users\PCHAUT~1\AppData\Local\Temp\ccry1Rip.s 			page 29


 1593 09f7 04       		.byte	0x4
 1594 09f8 EB090000 		.4byte	0x9eb
 1595 09fc 03       		.uleb128 0x3
 1596 09fd F8070000 		.4byte	.LASF157
 1597 0a01 12       		.byte	0x12
 1598 0a02 36       		.byte	0x36
 1599 0a03 070A0000 		.4byte	0xa07
 1600 0a07 0A       		.uleb128 0xa
 1601 0a08 04       		.byte	0x4
 1602 0a09 0D0A0000 		.4byte	0xa0d
 1603 0a0d 1D       		.uleb128 0x1d
 1604 0a0e 8A030000 		.4byte	0x38a
 1605 0a12 1C0A0000 		.4byte	0xa1c
 1606 0a16 0D       		.uleb128 0xd
 1607 0a17 2C000000 		.4byte	0x2c
 1608 0a1b 00       		.byte	0
 1609 0a1c 06       		.uleb128 0x6
 1610 0a1d 19080000 		.4byte	.LASF158
 1611 0a21 04       		.byte	0x4
 1612 0a22 13       		.byte	0x13
 1613 0a23 38       		.byte	0x38
 1614 0a24 350A0000 		.4byte	0xa35
 1615 0a28 07       		.uleb128 0x7
 1616 0a29 A0080000 		.4byte	.LASF159
 1617 0a2d 13       		.byte	0x13
 1618 0a2e 39       		.byte	0x39
 1619 0a2f 350A0000 		.4byte	0xa35
 1620 0a33 00       		.byte	0
 1621 0a34 00       		.byte	0
 1622 0a35 0A       		.uleb128 0xa
 1623 0a36 04       		.byte	0x4
 1624 0a37 1C0A0000 		.4byte	0xa1c
 1625 0a3b 16       		.uleb128 0x16
 1626 0a3c 0C       		.byte	0xc
 1627 0a3d 13       		.byte	0x13
 1628 0a3e 40       		.byte	0x40
 1629 0a3f 680A0000 		.4byte	0xa68
 1630 0a43 07       		.uleb128 0x7
 1631 0a44 E2070000 		.4byte	.LASF160
 1632 0a48 13       		.byte	0x13
 1633 0a49 41       		.byte	0x41
 1634 0a4a 350A0000 		.4byte	0xa35
 1635 0a4e 00       		.byte	0
 1636 0a4f 07       		.uleb128 0x7
 1637 0a50 43050000 		.4byte	.LASF161
 1638 0a54 13       		.byte	0x13
 1639 0a55 42       		.byte	0x42
 1640 0a56 2C000000 		.4byte	0x2c
 1641 0a5a 04       		.byte	0x4
 1642 0a5b 07       		.uleb128 0x7
 1643 0a5c 23030000 		.4byte	.LASF162
 1644 0a60 13       		.byte	0x13
 1645 0a61 44       		.byte	0x44
 1646 0a62 FC090000 		.4byte	0x9fc
 1647 0a66 08       		.byte	0x8
 1648 0a67 00       		.byte	0
 1649 0a68 03       		.uleb128 0x3
ARM GAS  C:\Users\PCHAUT~1\AppData\Local\Temp\ccry1Rip.s 			page 30


 1650 0a69 E0030000 		.4byte	.LASF163
 1651 0a6d 13       		.byte	0x13
 1652 0a6e 46       		.byte	0x46
 1653 0a6f 3B0A0000 		.4byte	0xa3b
 1654 0a73 06       		.uleb128 0x6
 1655 0a74 EA060000 		.4byte	.LASF164
 1656 0a78 10       		.byte	0x10
 1657 0a79 14       		.byte	0x14
 1658 0a7a 3B       		.byte	0x3b
 1659 0a7b B00A0000 		.4byte	0xab0
 1660 0a7f 07       		.uleb128 0x7
 1661 0a80 FA030000 		.4byte	.LASF165
 1662 0a84 14       		.byte	0x14
 1663 0a85 3C       		.byte	0x3c
 1664 0a86 A1080000 		.4byte	0x8a1
 1665 0a8a 00       		.byte	0
 1666 0a8b 07       		.uleb128 0x7
 1667 0a8c 63050000 		.4byte	.LASF166
 1668 0a90 14       		.byte	0x14
 1669 0a91 3D       		.byte	0x3d
 1670 0a92 B60A0000 		.4byte	0xab6
 1671 0a96 04       		.byte	0x4
 1672 0a97 07       		.uleb128 0x7
 1673 0a98 25010000 		.4byte	.LASF167
 1674 0a9c 14       		.byte	0x14
 1675 0a9d 3E       		.byte	0x3e
 1676 0a9e B60A0000 		.4byte	0xab6
 1677 0aa2 08       		.byte	0x8
 1678 0aa3 07       		.uleb128 0x7
 1679 0aa4 D2050000 		.4byte	.LASF168
 1680 0aa8 14       		.byte	0x14
 1681 0aa9 3F       		.byte	0x3f
 1682 0aaa B60A0000 		.4byte	0xab6
 1683 0aae 0C       		.byte	0xc
 1684 0aaf 00       		.byte	0
 1685 0ab0 0F       		.uleb128 0xf
 1686 0ab1 730A0000 		.4byte	0xa73
 1687 0ab5 1E       		.uleb128 0x1e
 1688 0ab6 0A       		.uleb128 0xa
 1689 0ab7 04       		.byte	0x4
 1690 0ab8 B50A0000 		.4byte	0xab5
 1691 0abc 17       		.uleb128 0x17
 1692 0abd D809     		.2byte	0x9d8
 1693 0abf 14       		.byte	0x14
 1694 0ac0 44       		.byte	0x44
 1695 0ac1 010B0000 		.4byte	0xb01
 1696 0ac5 15       		.uleb128 0x15
 1697 0ac6 543000   		.ascii	"T0\000"
 1698 0ac9 14       		.byte	0x14
 1699 0aca 45       		.byte	0x45
 1700 0acb 010B0000 		.4byte	0xb01
 1701 0acf 00       		.byte	0
 1702 0ad0 1F       		.uleb128 0x1f
 1703 0ad1 543100   		.ascii	"T1\000"
 1704 0ad4 14       		.byte	0x14
 1705 0ad5 46       		.byte	0x46
 1706 0ad6 010B0000 		.4byte	0xb01
ARM GAS  C:\Users\PCHAUT~1\AppData\Local\Temp\ccry1Rip.s 			page 31


 1707 0ada F801     		.2byte	0x1f8
 1708 0adc 1F       		.uleb128 0x1f
 1709 0add 543200   		.ascii	"T2\000"
 1710 0ae0 14       		.byte	0x14
 1711 0ae1 47       		.byte	0x47
 1712 0ae2 010B0000 		.4byte	0xb01
 1713 0ae6 F003     		.2byte	0x3f0
 1714 0ae8 1F       		.uleb128 0x1f
 1715 0ae9 543300   		.ascii	"T3\000"
 1716 0aec 14       		.byte	0x14
 1717 0aed 48       		.byte	0x48
 1718 0aee 010B0000 		.4byte	0xb01
 1719 0af2 E805     		.2byte	0x5e8
 1720 0af4 1F       		.uleb128 0x1f
 1721 0af5 543400   		.ascii	"T4\000"
 1722 0af8 14       		.byte	0x14
 1723 0af9 49       		.byte	0x49
 1724 0afa 010B0000 		.4byte	0xb01
 1725 0afe E007     		.2byte	0x7e0
 1726 0b00 00       		.byte	0
 1727 0b01 18       		.uleb128 0x18
 1728 0b02 20050000 		.4byte	0x520
 1729 0b06 110B0000 		.4byte	0xb11
 1730 0b0a 19       		.uleb128 0x19
 1731 0b0b 37000000 		.4byte	0x37
 1732 0b0f 3E       		.byte	0x3e
 1733 0b10 00       		.byte	0
 1734 0b11 20       		.uleb128 0x20
 1735 0b12 0C080000 		.4byte	.LASF182
 1736 0b16 D809     		.2byte	0x9d8
 1737 0b18 14       		.byte	0x14
 1738 0b19 43       		.byte	0x43
 1739 0b1a 340B0000 		.4byte	0xb34
 1740 0b1e 21       		.uleb128 0x21
 1741 0b1f 776100   		.ascii	"wa\000"
 1742 0b22 14       		.byte	0x14
 1743 0b23 4A       		.byte	0x4a
 1744 0b24 BC0A0000 		.4byte	0xabc
 1745 0b28 22       		.uleb128 0x22
 1746 0b29 FC020000 		.4byte	.LASF169
 1747 0b2d 14       		.byte	0x14
 1748 0b2e 4B       		.byte	0x4b
 1749 0b2f 340B0000 		.4byte	0xb34
 1750 0b33 00       		.byte	0
 1751 0b34 18       		.uleb128 0x18
 1752 0b35 B4000000 		.4byte	0xb4
 1753 0b39 450B0000 		.4byte	0xb45
 1754 0b3d 23       		.uleb128 0x23
 1755 0b3e 37000000 		.4byte	0x37
 1756 0b42 D709     		.2byte	0x9d7
 1757 0b44 00       		.byte	0
 1758 0b45 14       		.uleb128 0x14
 1759 0b46 C1070000 		.4byte	.LASF170
 1760 0b4a 14       		.byte	0x14
 1761 0b4b 4F       		.byte	0x4f
 1762 0b4c 500B0000 		.4byte	0xb50
 1763 0b50 04       		.uleb128 0x4
ARM GAS  C:\Users\PCHAUT~1\AppData\Local\Temp\ccry1Rip.s 			page 32


 1764 0b51 01       		.byte	0x1
 1765 0b52 02       		.byte	0x2
 1766 0b53 F2050000 		.4byte	.LASF171
 1767 0b57 18       		.uleb128 0x18
 1768 0b58 AD020000 		.4byte	0x2ad
 1769 0b5c 670B0000 		.4byte	0xb67
 1770 0b60 19       		.uleb128 0x19
 1771 0b61 37000000 		.4byte	0x37
 1772 0b65 04       		.byte	0x4
 1773 0b66 00       		.byte	0
 1774 0b67 14       		.uleb128 0x14
 1775 0b68 34060000 		.4byte	.LASF172
 1776 0b6c 14       		.byte	0x14
 1777 0b6d A7       		.byte	0xa7
 1778 0b6e 570B0000 		.4byte	0xb57
 1779 0b72 14       		.uleb128 0x14
 1780 0b73 E0000000 		.4byte	.LASF173
 1781 0b77 14       		.byte	0x14
 1782 0b78 A8       		.byte	0xa8
 1783 0b79 110B0000 		.4byte	0xb11
 1784 0b7d 18       		.uleb128 0x18
 1785 0b7e 8C030000 		.4byte	0x38c
 1786 0b82 880B0000 		.4byte	0xb88
 1787 0b86 24       		.uleb128 0x24
 1788 0b87 00       		.byte	0
 1789 0b88 0F       		.uleb128 0xf
 1790 0b89 7D0B0000 		.4byte	0xb7d
 1791 0b8d 25       		.uleb128 0x25
 1792 0b8e 776100   		.ascii	"wa\000"
 1793 0b91 14       		.byte	0x14
 1794 0b92 A9       		.byte	0xa9
 1795 0b93 880B0000 		.4byte	0xb88
 1796 0b97 14       		.uleb128 0x14
 1797 0b98 3C060000 		.4byte	.LASF174
 1798 0b9c 14       		.byte	0x14
 1799 0b9d AA       		.byte	0xaa
 1800 0b9e 500B0000 		.4byte	0xb50
 1801 0ba2 26       		.uleb128 0x26
 1802 0ba3 6D703100 		.ascii	"mp1\000"
 1803 0ba7 01       		.byte	0x1
 1804 0ba8 31       		.byte	0x31
 1805 0ba9 680A0000 		.4byte	0xa68
 1806 0bad 05       		.uleb128 0x5
 1807 0bae 03       		.byte	0x3
 1808 0baf 00000000 		.4byte	mp1
 1809 0bb3 27       		.uleb128 0x27
 1810 0bb4 20070000 		.4byte	.LASF175
 1811 0bb8 01       		.byte	0x1
 1812 0bb9 64       		.byte	0x64
 1813 0bba B00A0000 		.4byte	0xab0
 1814 0bbe 05       		.uleb128 0x5
 1815 0bbf 03       		.byte	0x3
 1816 0bc0 00000000 		.4byte	testpools1
 1817 0bc4 18       		.uleb128 0x18
 1818 0bc5 DF0B0000 		.4byte	0xbdf
 1819 0bc9 D40B0000 		.4byte	0xbd4
 1820 0bcd 19       		.uleb128 0x19
ARM GAS  C:\Users\PCHAUT~1\AppData\Local\Temp\ccry1Rip.s 			page 33


 1821 0bce 37000000 		.4byte	0x37
 1822 0bd2 01       		.byte	0x1
 1823 0bd3 00       		.byte	0
 1824 0bd4 0F       		.uleb128 0xf
 1825 0bd5 C40B0000 		.4byte	0xbc4
 1826 0bd9 0A       		.uleb128 0xa
 1827 0bda 04       		.byte	0x4
 1828 0bdb B00A0000 		.4byte	0xab0
 1829 0bdf 0F       		.uleb128 0xf
 1830 0be0 D90B0000 		.4byte	0xbd9
 1831 0be4 27       		.uleb128 0x27
 1832 0be5 7B050000 		.4byte	.LASF176
 1833 0be9 01       		.byte	0x1
 1834 0bea 70       		.byte	0x70
 1835 0beb D40B0000 		.4byte	0xbd4
 1836 0bef 05       		.uleb128 0x5
 1837 0bf0 03       		.byte	0x3
 1838 0bf1 00000000 		.4byte	patternpools
 1839 0bf5 28       		.uleb128 0x28
 1840 0bf6 11090000 		.4byte	.LASF177
 1841 0bfa 01       		.byte	0x1
 1842 0bfb 47       		.byte	0x47
 1843 0bfc 00000000 		.4byte	.LFB221
 1844 0c00 3C010000 		.4byte	.LFE221-.LFB221
 1845 0c04 01       		.uleb128 0x1
 1846 0c05 9C       		.byte	0x9c
 1847 0c06 170C0000 		.4byte	0xc17
 1848 0c0a 26       		.uleb128 0x26
 1849 0c0b 6900     		.ascii	"i\000"
 1850 0c0d 01       		.byte	0x1
 1851 0c0e 48       		.byte	0x48
 1852 0c0f 25000000 		.4byte	0x25
 1853 0c13 02       		.uleb128 0x2
 1854 0c14 91       		.byte	0x91
 1855 0c15 70       		.sleb128 -16
 1856 0c16 00       		.byte	0
 1857 0c17 29       		.uleb128 0x29
 1858 0c18 6C070000 		.4byte	.LASF183
 1859 0c1c 01       		.byte	0x1
 1860 0c1d 42       		.byte	0x42
 1861 0c1e 00000000 		.4byte	.LFB220
 1862 0c22 34000000 		.4byte	.LFE220-.LFB220
 1863 0c26 01       		.uleb128 0x1
 1864 0c27 9C       		.byte	0x9c
 1865 0c28 2A       		.uleb128 0x2a
 1866 0c29 A8080000 		.4byte	.LASF178
 1867 0c2d 01       		.byte	0x1
 1868 0c2e 3C       		.byte	0x3c
 1869 0c2f 8A030000 		.4byte	0x38a
 1870 0c33 00000000 		.4byte	.LFB219
 1871 0c37 28000000 		.4byte	.LFE219-.LFB219
 1872 0c3b 01       		.uleb128 0x1
 1873 0c3c 9C       		.byte	0x9c
 1874 0c3d 2B       		.uleb128 0x2b
 1875 0c3e B6080000 		.4byte	.LASF184
 1876 0c42 01       		.byte	0x1
 1877 0c43 3C       		.byte	0x3c
ARM GAS  C:\Users\PCHAUT~1\AppData\Local\Temp\ccry1Rip.s 			page 34


 1878 0c44 2C000000 		.4byte	0x2c
 1879 0c48 02       		.uleb128 0x2
 1880 0c49 91       		.byte	0x91
 1881 0c4a 6C       		.sleb128 -20
 1882 0c4b 00       		.byte	0
 1883 0c4c 00       		.byte	0
 1884              		.section	.debug_abbrev,"",%progbits
 1885              	.Ldebug_abbrev0:
 1886 0000 01       		.uleb128 0x1
 1887 0001 11       		.uleb128 0x11
 1888 0002 01       		.byte	0x1
 1889 0003 25       		.uleb128 0x25
 1890 0004 0E       		.uleb128 0xe
 1891 0005 13       		.uleb128 0x13
 1892 0006 0B       		.uleb128 0xb
 1893 0007 03       		.uleb128 0x3
 1894 0008 0E       		.uleb128 0xe
 1895 0009 1B       		.uleb128 0x1b
 1896 000a 0E       		.uleb128 0xe
 1897 000b 55       		.uleb128 0x55
 1898 000c 17       		.uleb128 0x17
 1899 000d 11       		.uleb128 0x11
 1900 000e 01       		.uleb128 0x1
 1901 000f 10       		.uleb128 0x10
 1902 0010 17       		.uleb128 0x17
 1903 0011 00       		.byte	0
 1904 0012 00       		.byte	0
 1905 0013 02       		.uleb128 0x2
 1906 0014 24       		.uleb128 0x24
 1907 0015 00       		.byte	0
 1908 0016 0B       		.uleb128 0xb
 1909 0017 0B       		.uleb128 0xb
 1910 0018 3E       		.uleb128 0x3e
 1911 0019 0B       		.uleb128 0xb
 1912 001a 03       		.uleb128 0x3
 1913 001b 08       		.uleb128 0x8
 1914 001c 00       		.byte	0
 1915 001d 00       		.byte	0
 1916 001e 03       		.uleb128 0x3
 1917 001f 16       		.uleb128 0x16
 1918 0020 00       		.byte	0
 1919 0021 03       		.uleb128 0x3
 1920 0022 0E       		.uleb128 0xe
 1921 0023 3A       		.uleb128 0x3a
 1922 0024 0B       		.uleb128 0xb
 1923 0025 3B       		.uleb128 0x3b
 1924 0026 0B       		.uleb128 0xb
 1925 0027 49       		.uleb128 0x49
 1926 0028 13       		.uleb128 0x13
 1927 0029 00       		.byte	0
 1928 002a 00       		.byte	0
 1929 002b 04       		.uleb128 0x4
 1930 002c 24       		.uleb128 0x24
 1931 002d 00       		.byte	0
 1932 002e 0B       		.uleb128 0xb
 1933 002f 0B       		.uleb128 0xb
 1934 0030 3E       		.uleb128 0x3e
ARM GAS  C:\Users\PCHAUT~1\AppData\Local\Temp\ccry1Rip.s 			page 35


 1935 0031 0B       		.uleb128 0xb
 1936 0032 03       		.uleb128 0x3
 1937 0033 0E       		.uleb128 0xe
 1938 0034 00       		.byte	0
 1939 0035 00       		.byte	0
 1940 0036 05       		.uleb128 0x5
 1941 0037 35       		.uleb128 0x35
 1942 0038 00       		.byte	0
 1943 0039 49       		.uleb128 0x49
 1944 003a 13       		.uleb128 0x13
 1945 003b 00       		.byte	0
 1946 003c 00       		.byte	0
 1947 003d 06       		.uleb128 0x6
 1948 003e 13       		.uleb128 0x13
 1949 003f 01       		.byte	0x1
 1950 0040 03       		.uleb128 0x3
 1951 0041 0E       		.uleb128 0xe
 1952 0042 0B       		.uleb128 0xb
 1953 0043 0B       		.uleb128 0xb
 1954 0044 3A       		.uleb128 0x3a
 1955 0045 0B       		.uleb128 0xb
 1956 0046 3B       		.uleb128 0x3b
 1957 0047 0B       		.uleb128 0xb
 1958 0048 01       		.uleb128 0x1
 1959 0049 13       		.uleb128 0x13
 1960 004a 00       		.byte	0
 1961 004b 00       		.byte	0
 1962 004c 07       		.uleb128 0x7
 1963 004d 0D       		.uleb128 0xd
 1964 004e 00       		.byte	0
 1965 004f 03       		.uleb128 0x3
 1966 0050 0E       		.uleb128 0xe
 1967 0051 3A       		.uleb128 0x3a
 1968 0052 0B       		.uleb128 0xb
 1969 0053 3B       		.uleb128 0x3b
 1970 0054 0B       		.uleb128 0xb
 1971 0055 49       		.uleb128 0x49
 1972 0056 13       		.uleb128 0x13
 1973 0057 38       		.uleb128 0x38
 1974 0058 0B       		.uleb128 0xb
 1975 0059 00       		.byte	0
 1976 005a 00       		.byte	0
 1977 005b 08       		.uleb128 0x8
 1978 005c 0D       		.uleb128 0xd
 1979 005d 00       		.byte	0
 1980 005e 03       		.uleb128 0x3
 1981 005f 08       		.uleb128 0x8
 1982 0060 3A       		.uleb128 0x3a
 1983 0061 0B       		.uleb128 0xb
 1984 0062 3B       		.uleb128 0x3b
 1985 0063 05       		.uleb128 0x5
 1986 0064 49       		.uleb128 0x49
 1987 0065 13       		.uleb128 0x13
 1988 0066 38       		.uleb128 0x38
 1989 0067 0B       		.uleb128 0xb
 1990 0068 00       		.byte	0
 1991 0069 00       		.byte	0
ARM GAS  C:\Users\PCHAUT~1\AppData\Local\Temp\ccry1Rip.s 			page 36


 1992 006a 09       		.uleb128 0x9
 1993 006b 0D       		.uleb128 0xd
 1994 006c 00       		.byte	0
 1995 006d 03       		.uleb128 0x3
 1996 006e 0E       		.uleb128 0xe
 1997 006f 3A       		.uleb128 0x3a
 1998 0070 0B       		.uleb128 0xb
 1999 0071 3B       		.uleb128 0x3b
 2000 0072 05       		.uleb128 0x5
 2001 0073 49       		.uleb128 0x49
 2002 0074 13       		.uleb128 0x13
 2003 0075 38       		.uleb128 0x38
 2004 0076 0B       		.uleb128 0xb
 2005 0077 00       		.byte	0
 2006 0078 00       		.byte	0
 2007 0079 0A       		.uleb128 0xa
 2008 007a 0F       		.uleb128 0xf
 2009 007b 00       		.byte	0
 2010 007c 0B       		.uleb128 0xb
 2011 007d 0B       		.uleb128 0xb
 2012 007e 49       		.uleb128 0x49
 2013 007f 13       		.uleb128 0x13
 2014 0080 00       		.byte	0
 2015 0081 00       		.byte	0
 2016 0082 0B       		.uleb128 0xb
 2017 0083 13       		.uleb128 0x13
 2018 0084 01       		.byte	0x1
 2019 0085 03       		.uleb128 0x3
 2020 0086 0E       		.uleb128 0xe
 2021 0087 0B       		.uleb128 0xb
 2022 0088 0B       		.uleb128 0xb
 2023 0089 3A       		.uleb128 0x3a
 2024 008a 0B       		.uleb128 0xb
 2025 008b 3B       		.uleb128 0x3b
 2026 008c 05       		.uleb128 0x5
 2027 008d 01       		.uleb128 0x1
 2028 008e 13       		.uleb128 0x13
 2029 008f 00       		.byte	0
 2030 0090 00       		.byte	0
 2031 0091 0C       		.uleb128 0xc
 2032 0092 15       		.uleb128 0x15
 2033 0093 01       		.byte	0x1
 2034 0094 27       		.uleb128 0x27
 2035 0095 19       		.uleb128 0x19
 2036 0096 01       		.uleb128 0x1
 2037 0097 13       		.uleb128 0x13
 2038 0098 00       		.byte	0
 2039 0099 00       		.byte	0
 2040 009a 0D       		.uleb128 0xd
 2041 009b 05       		.uleb128 0x5
 2042 009c 00       		.byte	0
 2043 009d 49       		.uleb128 0x49
 2044 009e 13       		.uleb128 0x13
 2045 009f 00       		.byte	0
 2046 00a0 00       		.byte	0
 2047 00a1 0E       		.uleb128 0xe
 2048 00a2 0F       		.uleb128 0xf
ARM GAS  C:\Users\PCHAUT~1\AppData\Local\Temp\ccry1Rip.s 			page 37


 2049 00a3 00       		.byte	0
 2050 00a4 0B       		.uleb128 0xb
 2051 00a5 0B       		.uleb128 0xb
 2052 00a6 00       		.byte	0
 2053 00a7 00       		.byte	0
 2054 00a8 0F       		.uleb128 0xf
 2055 00a9 26       		.uleb128 0x26
 2056 00aa 00       		.byte	0
 2057 00ab 49       		.uleb128 0x49
 2058 00ac 13       		.uleb128 0x13
 2059 00ad 00       		.byte	0
 2060 00ae 00       		.byte	0
 2061 00af 10       		.uleb128 0x10
 2062 00b0 13       		.uleb128 0x13
 2063 00b1 01       		.byte	0x1
 2064 00b2 03       		.uleb128 0x3
 2065 00b3 0E       		.uleb128 0xe
 2066 00b4 0B       		.uleb128 0xb
 2067 00b5 05       		.uleb128 0x5
 2068 00b6 3A       		.uleb128 0x3a
 2069 00b7 0B       		.uleb128 0xb
 2070 00b8 3B       		.uleb128 0x3b
 2071 00b9 05       		.uleb128 0x5
 2072 00ba 01       		.uleb128 0x1
 2073 00bb 13       		.uleb128 0x13
 2074 00bc 00       		.byte	0
 2075 00bd 00       		.byte	0
 2076 00be 11       		.uleb128 0x11
 2077 00bf 0D       		.uleb128 0xd
 2078 00c0 00       		.byte	0
 2079 00c1 03       		.uleb128 0x3
 2080 00c2 0E       		.uleb128 0xe
 2081 00c3 3A       		.uleb128 0x3a
 2082 00c4 0B       		.uleb128 0xb
 2083 00c5 3B       		.uleb128 0x3b
 2084 00c6 05       		.uleb128 0x5
 2085 00c7 49       		.uleb128 0x49
 2086 00c8 13       		.uleb128 0x13
 2087 00c9 38       		.uleb128 0x38
 2088 00ca 05       		.uleb128 0x5
 2089 00cb 00       		.byte	0
 2090 00cc 00       		.byte	0
 2091 00cd 12       		.uleb128 0x12
 2092 00ce 0D       		.uleb128 0xd
 2093 00cf 00       		.byte	0
 2094 00d0 03       		.uleb128 0x3
 2095 00d1 08       		.uleb128 0x8
 2096 00d2 3A       		.uleb128 0x3a
 2097 00d3 0B       		.uleb128 0xb
 2098 00d4 3B       		.uleb128 0x3b
 2099 00d5 05       		.uleb128 0x5
 2100 00d6 49       		.uleb128 0x49
 2101 00d7 13       		.uleb128 0x13
 2102 00d8 38       		.uleb128 0x38
 2103 00d9 05       		.uleb128 0x5
 2104 00da 00       		.byte	0
 2105 00db 00       		.byte	0
ARM GAS  C:\Users\PCHAUT~1\AppData\Local\Temp\ccry1Rip.s 			page 38


 2106 00dc 13       		.uleb128 0x13
 2107 00dd 34       		.uleb128 0x34
 2108 00de 00       		.byte	0
 2109 00df 03       		.uleb128 0x3
 2110 00e0 0E       		.uleb128 0xe
 2111 00e1 3A       		.uleb128 0x3a
 2112 00e2 0B       		.uleb128 0xb
 2113 00e3 3B       		.uleb128 0x3b
 2114 00e4 05       		.uleb128 0x5
 2115 00e5 49       		.uleb128 0x49
 2116 00e6 13       		.uleb128 0x13
 2117 00e7 3F       		.uleb128 0x3f
 2118 00e8 19       		.uleb128 0x19
 2119 00e9 3C       		.uleb128 0x3c
 2120 00ea 19       		.uleb128 0x19
 2121 00eb 00       		.byte	0
 2122 00ec 00       		.byte	0
 2123 00ed 14       		.uleb128 0x14
 2124 00ee 34       		.uleb128 0x34
 2125 00ef 00       		.byte	0
 2126 00f0 03       		.uleb128 0x3
 2127 00f1 0E       		.uleb128 0xe
 2128 00f2 3A       		.uleb128 0x3a
 2129 00f3 0B       		.uleb128 0xb
 2130 00f4 3B       		.uleb128 0x3b
 2131 00f5 0B       		.uleb128 0xb
 2132 00f6 49       		.uleb128 0x49
 2133 00f7 13       		.uleb128 0x13
 2134 00f8 3F       		.uleb128 0x3f
 2135 00f9 19       		.uleb128 0x19
 2136 00fa 3C       		.uleb128 0x3c
 2137 00fb 19       		.uleb128 0x19
 2138 00fc 00       		.byte	0
 2139 00fd 00       		.byte	0
 2140 00fe 15       		.uleb128 0x15
 2141 00ff 0D       		.uleb128 0xd
 2142 0100 00       		.byte	0
 2143 0101 03       		.uleb128 0x3
 2144 0102 08       		.uleb128 0x8
 2145 0103 3A       		.uleb128 0x3a
 2146 0104 0B       		.uleb128 0xb
 2147 0105 3B       		.uleb128 0x3b
 2148 0106 0B       		.uleb128 0xb
 2149 0107 49       		.uleb128 0x49
 2150 0108 13       		.uleb128 0x13
 2151 0109 38       		.uleb128 0x38
 2152 010a 0B       		.uleb128 0xb
 2153 010b 00       		.byte	0
 2154 010c 00       		.byte	0
 2155 010d 16       		.uleb128 0x16
 2156 010e 13       		.uleb128 0x13
 2157 010f 01       		.byte	0x1
 2158 0110 0B       		.uleb128 0xb
 2159 0111 0B       		.uleb128 0xb
 2160 0112 3A       		.uleb128 0x3a
 2161 0113 0B       		.uleb128 0xb
 2162 0114 3B       		.uleb128 0x3b
ARM GAS  C:\Users\PCHAUT~1\AppData\Local\Temp\ccry1Rip.s 			page 39


 2163 0115 0B       		.uleb128 0xb
 2164 0116 01       		.uleb128 0x1
 2165 0117 13       		.uleb128 0x13
 2166 0118 00       		.byte	0
 2167 0119 00       		.byte	0
 2168 011a 17       		.uleb128 0x17
 2169 011b 13       		.uleb128 0x13
 2170 011c 01       		.byte	0x1
 2171 011d 0B       		.uleb128 0xb
 2172 011e 05       		.uleb128 0x5
 2173 011f 3A       		.uleb128 0x3a
 2174 0120 0B       		.uleb128 0xb
 2175 0121 3B       		.uleb128 0x3b
 2176 0122 0B       		.uleb128 0xb
 2177 0123 01       		.uleb128 0x1
 2178 0124 13       		.uleb128 0x13
 2179 0125 00       		.byte	0
 2180 0126 00       		.byte	0
 2181 0127 18       		.uleb128 0x18
 2182 0128 01       		.uleb128 0x1
 2183 0129 01       		.byte	0x1
 2184 012a 49       		.uleb128 0x49
 2185 012b 13       		.uleb128 0x13
 2186 012c 01       		.uleb128 0x1
 2187 012d 13       		.uleb128 0x13
 2188 012e 00       		.byte	0
 2189 012f 00       		.byte	0
 2190 0130 19       		.uleb128 0x19
 2191 0131 21       		.uleb128 0x21
 2192 0132 00       		.byte	0
 2193 0133 49       		.uleb128 0x49
 2194 0134 13       		.uleb128 0x13
 2195 0135 2F       		.uleb128 0x2f
 2196 0136 0B       		.uleb128 0xb
 2197 0137 00       		.byte	0
 2198 0138 00       		.byte	0
 2199 0139 1A       		.uleb128 0x1a
 2200 013a 17       		.uleb128 0x17
 2201 013b 01       		.byte	0x1
 2202 013c 0B       		.uleb128 0xb
 2203 013d 0B       		.uleb128 0xb
 2204 013e 3A       		.uleb128 0x3a
 2205 013f 0B       		.uleb128 0xb
 2206 0140 3B       		.uleb128 0x3b
 2207 0141 0B       		.uleb128 0xb
 2208 0142 01       		.uleb128 0x1
 2209 0143 13       		.uleb128 0x13
 2210 0144 00       		.byte	0
 2211 0145 00       		.byte	0
 2212 0146 1B       		.uleb128 0x1b
 2213 0147 0D       		.uleb128 0xd
 2214 0148 00       		.byte	0
 2215 0149 03       		.uleb128 0x3
 2216 014a 0E       		.uleb128 0xe
 2217 014b 3A       		.uleb128 0x3a
 2218 014c 0B       		.uleb128 0xb
 2219 014d 3B       		.uleb128 0x3b
ARM GAS  C:\Users\PCHAUT~1\AppData\Local\Temp\ccry1Rip.s 			page 40


 2220 014e 05       		.uleb128 0x5
 2221 014f 49       		.uleb128 0x49
 2222 0150 13       		.uleb128 0x13
 2223 0151 00       		.byte	0
 2224 0152 00       		.byte	0
 2225 0153 1C       		.uleb128 0x1c
 2226 0154 34       		.uleb128 0x34
 2227 0155 00       		.byte	0
 2228 0156 03       		.uleb128 0x3
 2229 0157 08       		.uleb128 0x8
 2230 0158 3A       		.uleb128 0x3a
 2231 0159 0B       		.uleb128 0xb
 2232 015a 3B       		.uleb128 0x3b
 2233 015b 05       		.uleb128 0x5
 2234 015c 49       		.uleb128 0x49
 2235 015d 13       		.uleb128 0x13
 2236 015e 3F       		.uleb128 0x3f
 2237 015f 19       		.uleb128 0x19
 2238 0160 3C       		.uleb128 0x3c
 2239 0161 19       		.uleb128 0x19
 2240 0162 00       		.byte	0
 2241 0163 00       		.byte	0
 2242 0164 1D       		.uleb128 0x1d
 2243 0165 15       		.uleb128 0x15
 2244 0166 01       		.byte	0x1
 2245 0167 27       		.uleb128 0x27
 2246 0168 19       		.uleb128 0x19
 2247 0169 49       		.uleb128 0x49
 2248 016a 13       		.uleb128 0x13
 2249 016b 01       		.uleb128 0x1
 2250 016c 13       		.uleb128 0x13
 2251 016d 00       		.byte	0
 2252 016e 00       		.byte	0
 2253 016f 1E       		.uleb128 0x1e
 2254 0170 15       		.uleb128 0x15
 2255 0171 00       		.byte	0
 2256 0172 27       		.uleb128 0x27
 2257 0173 19       		.uleb128 0x19
 2258 0174 00       		.byte	0
 2259 0175 00       		.byte	0
 2260 0176 1F       		.uleb128 0x1f
 2261 0177 0D       		.uleb128 0xd
 2262 0178 00       		.byte	0
 2263 0179 03       		.uleb128 0x3
 2264 017a 08       		.uleb128 0x8
 2265 017b 3A       		.uleb128 0x3a
 2266 017c 0B       		.uleb128 0xb
 2267 017d 3B       		.uleb128 0x3b
 2268 017e 0B       		.uleb128 0xb
 2269 017f 49       		.uleb128 0x49
 2270 0180 13       		.uleb128 0x13
 2271 0181 38       		.uleb128 0x38
 2272 0182 05       		.uleb128 0x5
 2273 0183 00       		.byte	0
 2274 0184 00       		.byte	0
 2275 0185 20       		.uleb128 0x20
 2276 0186 17       		.uleb128 0x17
ARM GAS  C:\Users\PCHAUT~1\AppData\Local\Temp\ccry1Rip.s 			page 41


 2277 0187 01       		.byte	0x1
 2278 0188 03       		.uleb128 0x3
 2279 0189 0E       		.uleb128 0xe
 2280 018a 0B       		.uleb128 0xb
 2281 018b 05       		.uleb128 0x5
 2282 018c 3A       		.uleb128 0x3a
 2283 018d 0B       		.uleb128 0xb
 2284 018e 3B       		.uleb128 0x3b
 2285 018f 0B       		.uleb128 0xb
 2286 0190 01       		.uleb128 0x1
 2287 0191 13       		.uleb128 0x13
 2288 0192 00       		.byte	0
 2289 0193 00       		.byte	0
 2290 0194 21       		.uleb128 0x21
 2291 0195 0D       		.uleb128 0xd
 2292 0196 00       		.byte	0
 2293 0197 03       		.uleb128 0x3
 2294 0198 08       		.uleb128 0x8
 2295 0199 3A       		.uleb128 0x3a
 2296 019a 0B       		.uleb128 0xb
 2297 019b 3B       		.uleb128 0x3b
 2298 019c 0B       		.uleb128 0xb
 2299 019d 49       		.uleb128 0x49
 2300 019e 13       		.uleb128 0x13
 2301 019f 00       		.byte	0
 2302 01a0 00       		.byte	0
 2303 01a1 22       		.uleb128 0x22
 2304 01a2 0D       		.uleb128 0xd
 2305 01a3 00       		.byte	0
 2306 01a4 03       		.uleb128 0x3
 2307 01a5 0E       		.uleb128 0xe
 2308 01a6 3A       		.uleb128 0x3a
 2309 01a7 0B       		.uleb128 0xb
 2310 01a8 3B       		.uleb128 0x3b
 2311 01a9 0B       		.uleb128 0xb
 2312 01aa 49       		.uleb128 0x49
 2313 01ab 13       		.uleb128 0x13
 2314 01ac 00       		.byte	0
 2315 01ad 00       		.byte	0
 2316 01ae 23       		.uleb128 0x23
 2317 01af 21       		.uleb128 0x21
 2318 01b0 00       		.byte	0
 2319 01b1 49       		.uleb128 0x49
 2320 01b2 13       		.uleb128 0x13
 2321 01b3 2F       		.uleb128 0x2f
 2322 01b4 05       		.uleb128 0x5
 2323 01b5 00       		.byte	0
 2324 01b6 00       		.byte	0
 2325 01b7 24       		.uleb128 0x24
 2326 01b8 21       		.uleb128 0x21
 2327 01b9 00       		.byte	0
 2328 01ba 00       		.byte	0
 2329 01bb 00       		.byte	0
 2330 01bc 25       		.uleb128 0x25
 2331 01bd 34       		.uleb128 0x34
 2332 01be 00       		.byte	0
 2333 01bf 03       		.uleb128 0x3
ARM GAS  C:\Users\PCHAUT~1\AppData\Local\Temp\ccry1Rip.s 			page 42


 2334 01c0 08       		.uleb128 0x8
 2335 01c1 3A       		.uleb128 0x3a
 2336 01c2 0B       		.uleb128 0xb
 2337 01c3 3B       		.uleb128 0x3b
 2338 01c4 0B       		.uleb128 0xb
 2339 01c5 49       		.uleb128 0x49
 2340 01c6 13       		.uleb128 0x13
 2341 01c7 3F       		.uleb128 0x3f
 2342 01c8 19       		.uleb128 0x19
 2343 01c9 3C       		.uleb128 0x3c
 2344 01ca 19       		.uleb128 0x19
 2345 01cb 00       		.byte	0
 2346 01cc 00       		.byte	0
 2347 01cd 26       		.uleb128 0x26
 2348 01ce 34       		.uleb128 0x34
 2349 01cf 00       		.byte	0
 2350 01d0 03       		.uleb128 0x3
 2351 01d1 08       		.uleb128 0x8
 2352 01d2 3A       		.uleb128 0x3a
 2353 01d3 0B       		.uleb128 0xb
 2354 01d4 3B       		.uleb128 0x3b
 2355 01d5 0B       		.uleb128 0xb
 2356 01d6 49       		.uleb128 0x49
 2357 01d7 13       		.uleb128 0x13
 2358 01d8 02       		.uleb128 0x2
 2359 01d9 18       		.uleb128 0x18
 2360 01da 00       		.byte	0
 2361 01db 00       		.byte	0
 2362 01dc 27       		.uleb128 0x27
 2363 01dd 34       		.uleb128 0x34
 2364 01de 00       		.byte	0
 2365 01df 03       		.uleb128 0x3
 2366 01e0 0E       		.uleb128 0xe
 2367 01e1 3A       		.uleb128 0x3a
 2368 01e2 0B       		.uleb128 0xb
 2369 01e3 3B       		.uleb128 0x3b
 2370 01e4 0B       		.uleb128 0xb
 2371 01e5 49       		.uleb128 0x49
 2372 01e6 13       		.uleb128 0x13
 2373 01e7 3F       		.uleb128 0x3f
 2374 01e8 19       		.uleb128 0x19
 2375 01e9 02       		.uleb128 0x2
 2376 01ea 18       		.uleb128 0x18
 2377 01eb 00       		.byte	0
 2378 01ec 00       		.byte	0
 2379 01ed 28       		.uleb128 0x28
 2380 01ee 2E       		.uleb128 0x2e
 2381 01ef 01       		.byte	0x1
 2382 01f0 03       		.uleb128 0x3
 2383 01f1 0E       		.uleb128 0xe
 2384 01f2 3A       		.uleb128 0x3a
 2385 01f3 0B       		.uleb128 0xb
 2386 01f4 3B       		.uleb128 0x3b
 2387 01f5 0B       		.uleb128 0xb
 2388 01f6 27       		.uleb128 0x27
 2389 01f7 19       		.uleb128 0x19
 2390 01f8 11       		.uleb128 0x11
ARM GAS  C:\Users\PCHAUT~1\AppData\Local\Temp\ccry1Rip.s 			page 43


 2391 01f9 01       		.uleb128 0x1
 2392 01fa 12       		.uleb128 0x12
 2393 01fb 06       		.uleb128 0x6
 2394 01fc 40       		.uleb128 0x40
 2395 01fd 18       		.uleb128 0x18
 2396 01fe 9642     		.uleb128 0x2116
 2397 0200 19       		.uleb128 0x19
 2398 0201 01       		.uleb128 0x1
 2399 0202 13       		.uleb128 0x13
 2400 0203 00       		.byte	0
 2401 0204 00       		.byte	0
 2402 0205 29       		.uleb128 0x29
 2403 0206 2E       		.uleb128 0x2e
 2404 0207 00       		.byte	0
 2405 0208 03       		.uleb128 0x3
 2406 0209 0E       		.uleb128 0xe
 2407 020a 3A       		.uleb128 0x3a
 2408 020b 0B       		.uleb128 0xb
 2409 020c 3B       		.uleb128 0x3b
 2410 020d 0B       		.uleb128 0xb
 2411 020e 27       		.uleb128 0x27
 2412 020f 19       		.uleb128 0x19
 2413 0210 11       		.uleb128 0x11
 2414 0211 01       		.uleb128 0x1
 2415 0212 12       		.uleb128 0x12
 2416 0213 06       		.uleb128 0x6
 2417 0214 40       		.uleb128 0x40
 2418 0215 18       		.uleb128 0x18
 2419 0216 9642     		.uleb128 0x2116
 2420 0218 19       		.uleb128 0x19
 2421 0219 00       		.byte	0
 2422 021a 00       		.byte	0
 2423 021b 2A       		.uleb128 0x2a
 2424 021c 2E       		.uleb128 0x2e
 2425 021d 01       		.byte	0x1
 2426 021e 03       		.uleb128 0x3
 2427 021f 0E       		.uleb128 0xe
 2428 0220 3A       		.uleb128 0x3a
 2429 0221 0B       		.uleb128 0xb
 2430 0222 3B       		.uleb128 0x3b
 2431 0223 0B       		.uleb128 0xb
 2432 0224 27       		.uleb128 0x27
 2433 0225 19       		.uleb128 0x19
 2434 0226 49       		.uleb128 0x49
 2435 0227 13       		.uleb128 0x13
 2436 0228 11       		.uleb128 0x11
 2437 0229 01       		.uleb128 0x1
 2438 022a 12       		.uleb128 0x12
 2439 022b 06       		.uleb128 0x6
 2440 022c 40       		.uleb128 0x40
 2441 022d 18       		.uleb128 0x18
 2442 022e 9642     		.uleb128 0x2116
 2443 0230 19       		.uleb128 0x19
 2444 0231 00       		.byte	0
 2445 0232 00       		.byte	0
 2446 0233 2B       		.uleb128 0x2b
 2447 0234 05       		.uleb128 0x5
ARM GAS  C:\Users\PCHAUT~1\AppData\Local\Temp\ccry1Rip.s 			page 44


 2448 0235 00       		.byte	0
 2449 0236 03       		.uleb128 0x3
 2450 0237 0E       		.uleb128 0xe
 2451 0238 3A       		.uleb128 0x3a
 2452 0239 0B       		.uleb128 0xb
 2453 023a 3B       		.uleb128 0x3b
 2454 023b 0B       		.uleb128 0xb
 2455 023c 49       		.uleb128 0x49
 2456 023d 13       		.uleb128 0x13
 2457 023e 02       		.uleb128 0x2
 2458 023f 18       		.uleb128 0x18
 2459 0240 00       		.byte	0
 2460 0241 00       		.byte	0
 2461 0242 00       		.byte	0
 2462              		.section	.debug_aranges,"",%progbits
 2463 0000 2C000000 		.4byte	0x2c
 2464 0004 0200     		.2byte	0x2
 2465 0006 00000000 		.4byte	.Ldebug_info0
 2466 000a 04       		.byte	0x4
 2467 000b 00       		.byte	0
 2468 000c 0000     		.2byte	0
 2469 000e 0000     		.2byte	0
 2470 0010 00000000 		.4byte	.LFB219
 2471 0014 28000000 		.4byte	.LFE219-.LFB219
 2472 0018 00000000 		.4byte	.LFB220
 2473 001c 34000000 		.4byte	.LFE220-.LFB220
 2474 0020 00000000 		.4byte	.LFB221
 2475 0024 3C010000 		.4byte	.LFE221-.LFB221
 2476 0028 00000000 		.4byte	0
 2477 002c 00000000 		.4byte	0
 2478              		.section	.debug_ranges,"",%progbits
 2479              	.Ldebug_ranges0:
 2480 0000 00000000 		.4byte	.LFB219
 2481 0004 28000000 		.4byte	.LFE219
 2482 0008 00000000 		.4byte	.LFB220
 2483 000c 34000000 		.4byte	.LFE220
 2484 0010 00000000 		.4byte	.LFB221
 2485 0014 3C010000 		.4byte	.LFE221
 2486 0018 00000000 		.4byte	0
 2487 001c 00000000 		.4byte	0
 2488              		.section	.debug_line,"",%progbits
 2489              	.Ldebug_line0:
 2490 0000 8B040000 		.section	.debug_str,"MS",%progbits,1
 2490      02001504 
 2490      00000201 
 2490      FB0E0D00 
 2490      01010101 
 2491              	.LASF146:
 2492 0000 63665F6F 		.ascii	"cf_off_older\000"
 2492      66665F6F 
 2492      6C646572 
 2492      00
 2493              	.LASF61:
 2494 000d 72656164 		.ascii	"ready_list_t\000"
 2494      795F6C69 
 2494      73745F74 
 2494      00
ARM GAS  C:\Users\PCHAUT~1\AppData\Local\Temp\ccry1Rip.s 			page 45


 2495              	.LASF99:
 2496 001a 73655F74 		.ascii	"se_time\000"
 2496      696D6500 
 2497              	.LASF4:
 2498 0022 73697A65 		.ascii	"size_t\000"
 2498      5F7400
 2499              	.LASF120:
 2500 0029 7264796D 		.ascii	"rdymsg\000"
 2500      736700
 2501              	.LASF20:
 2502 0030 75696E74 		.ascii	"uint64_t\000"
 2502      36345F74 
 2502      00
 2503              	.LASF91:
 2504 0039 6B65726E 		.ascii	"kernel_stats\000"
 2504      656C5F73 
 2504      74617473 
 2504      00
 2505              	.LASF5:
 2506 0046 5F5F7569 		.ascii	"__uint8_t\000"
 2506      6E74385F 
 2506      7400
 2507              	.LASF98:
 2508 0050 706F7274 		.ascii	"port_intctx\000"
 2508      5F696E74 
 2508      63747800 
 2509              	.LASF60:
 2510 005c 63685F74 		.ascii	"ch_threads_queue\000"
 2510      68726561 
 2510      64735F71 
 2510      75657565 
 2510      00
 2511              	.LASF80:
 2512 006d 73797374 		.ascii	"system_debug_t\000"
 2512      656D5F64 
 2512      65627567 
 2512      5F7400
 2513              	.LASF111:
 2514 007c 776F7273 		.ascii	"worst\000"
 2514      7400
 2515              	.LASF114:
 2516 0082 74696D65 		.ascii	"time_measurement_t\000"
 2516      5F6D6561 
 2516      73757265 
 2516      6D656E74 
 2516      5F7400
 2517              	.LASF15:
 2518 0095 6C6F6E67 		.ascii	"long long unsigned int\000"
 2518      206C6F6E 
 2518      6720756E 
 2518      7369676E 
 2518      65642069 
 2519              	.LASF107:
 2520 00ac 63685F74 		.ascii	"ch_trace_buffer_t\000"
 2520      72616365 
 2520      5F627566 
 2520      6665725F 
ARM GAS  C:\Users\PCHAUT~1\AppData\Local\Temp\ccry1Rip.s 			page 46


 2520      7400
 2521              	.LASF142:
 2522 00be 63685F74 		.ascii	"ch_threadsize\000"
 2522      68726561 
 2522      6473697A 
 2522      6500
 2523              	.LASF121:
 2524 00cc 65786974 		.ascii	"exitcode\000"
 2524      636F6465 
 2524      00
 2525              	.LASF90:
 2526 00d5 6D61696E 		.ascii	"mainthread\000"
 2526      74687265 
 2526      616400
 2527              	.LASF173:
 2528 00e0 74657374 		.ascii	"test\000"
 2528      00
 2529              	.LASF77:
 2530 00e5 76697274 		.ascii	"virtual_timers_list_t\000"
 2530      75616C5F 
 2530      74696D65 
 2530      72735F6C 
 2530      6973745F 
 2531              	.LASF93:
 2532 00fb 49544D5F 		.ascii	"ITM_RxBuffer\000"
 2532      52784275 
 2532      66666572 
 2532      00
 2533              	.LASF22:
 2534 0108 72747469 		.ascii	"rttime_t\000"
 2534      6D655F74 
 2534      00
 2535              	.LASF36:
 2536 0111 705F7072 		.ascii	"p_prio\000"
 2536      696F00
 2537              	.LASF149:
 2538 0118 63665F6F 		.ascii	"cf_off_state\000"
 2538      66665F73 
 2538      74617465 
 2538      00
 2539              	.LASF167:
 2540 0125 74656172 		.ascii	"teardown\000"
 2540      646F776E 
 2540      00
 2541              	.LASF1:
 2542 012e 6C6F6E67 		.ascii	"long long int\000"
 2542      206C6F6E 
 2542      6720696E 
 2542      7400
 2543              	.LASF3:
 2544 013c 7369676E 		.ascii	"signed char\000"
 2544      65642063 
 2544      68617200 
 2545              	.LASF148:
 2546 0148 63665F6F 		.ascii	"cf_off_stklimit\000"
 2546      66665F73 
 2546      746B6C69 
ARM GAS  C:\Users\PCHAUT~1\AppData\Local\Temp\ccry1Rip.s 			page 47


 2546      6D697400 
 2547              	.LASF150:
 2548 0158 63665F6F 		.ascii	"cf_off_flags\000"
 2548      66665F66 
 2548      6C616773 
 2548      00
 2549              	.LASF53:
 2550 0165 705F6D70 		.ascii	"p_mpool\000"
 2550      6F6F6C00 
 2551              	.LASF131:
 2552 016d 6D5F7175 		.ascii	"m_queue\000"
 2552      65756500 
 2553              	.LASF89:
 2554 0175 76746C69 		.ascii	"vtlist\000"
 2554      737400
 2555              	.LASF26:
 2556 017c 74736C69 		.ascii	"tslices_t\000"
 2556      6365735F 
 2556      7400
 2557              	.LASF123:
 2558 0186 77747472 		.ascii	"wttrp\000"
 2558      7000
 2559              	.LASF87:
 2560 018c 63685F73 		.ascii	"ch_system\000"
 2560      79737465 
 2560      6D00
 2561              	.LASF11:
 2562 0196 6C6F6E67 		.ascii	"long int\000"
 2562      20696E74 
 2562      00
 2563              	.LASF179:
 2564 019f 474E5520 		.ascii	"GNU C11 7.2.1 20170904 (release) [ARM/embedded-7-br"
 2564      43313120 
 2564      372E322E 
 2564      31203230 
 2564      31373039 
 2565 01d2 616E6368 		.ascii	"anch revision 255204] -mcpu=cortex-m4 -mfloat-abi=h"
 2565      20726576 
 2565      6973696F 
 2565      6E203235 
 2565      35323034 
 2566 0205 61726420 		.ascii	"ard -mfpu=fpv4-sp-d16 -mno-thumb-interwork -mthumb "
 2566      2D6D6670 
 2566      753D6670 
 2566      76342D73 
 2566      702D6431 
 2567 0238 2D676764 		.ascii	"-ggdb -O0 -fomit-frame-pointer -falign-functions=16"
 2567      62202D4F 
 2567      30202D66 
 2567      6F6D6974 
 2567      2D667261 
 2568 026b 202D666E 		.ascii	" -fno-strict-aliasing -fstack-protector-all -ffunct"
 2568      6F2D7374 
 2568      72696374 
 2568      2D616C69 
 2568      6173696E 
 2569 029e 696F6E2D 		.ascii	"ion-sections -fdata-sections -fno-common -fsingle-p"
ARM GAS  C:\Users\PCHAUT~1\AppData\Local\Temp\ccry1Rip.s 			page 48


 2569      73656374 
 2569      696F6E73 
 2569      202D6664 
 2569      6174612D 
 2570 02d1 72656369 		.ascii	"recision-constant\000"
 2570      73696F6E 
 2570      2D636F6E 
 2570      7374616E 
 2570      7400
 2571              	.LASF24:
 2572 02e3 74737461 		.ascii	"tstate_t\000"
 2572      74655F74 
 2572      00
 2573              	.LASF100:
 2574 02ec 73655F74 		.ascii	"se_tp\000"
 2574      7000
 2575              	.LASF154:
 2576 02f2 63686465 		.ascii	"chdebug_t\000"
 2576      6275675F 
 2576      7400
 2577              	.LASF169:
 2578 02fc 62756666 		.ascii	"buffer\000"
 2578      657200
 2579              	.LASF38:
 2580 0303 705F6E65 		.ascii	"p_newer\000"
 2580      77657200 
 2581              	.LASF128:
 2582 030b 735F7175 		.ascii	"s_queue\000"
 2582      65756500 
 2583              	.LASF104:
 2584 0313 74625F73 		.ascii	"tb_size\000"
 2584      697A6500 
 2585              	.LASF66:
 2586 031b 725F6E65 		.ascii	"r_newer\000"
 2586      77657200 
 2587              	.LASF162:
 2588 0323 6D705F70 		.ascii	"mp_provider\000"
 2588      726F7669 
 2588      64657200 
 2589              	.LASF95:
 2590 032f 72656761 		.ascii	"regarm_t\000"
 2590      726D5F74 
 2590      00
 2591              	.LASF73:
 2592 0338 76745F70 		.ascii	"vt_prev\000"
 2592      72657600 
 2593              	.LASF81:
 2594 0340 63685F73 		.ascii	"ch_system_debug\000"
 2594      79737465 
 2594      6D5F6465 
 2594      62756700 
 2595              	.LASF134:
 2596 0350 6D5F636E 		.ascii	"m_cnt\000"
 2596      7400
 2597              	.LASF156:
 2598 0356 6D757465 		.ascii	"mutex_t\000"
 2598      785F7400 
ARM GAS  C:\Users\PCHAUT~1\AppData\Local\Temp\ccry1Rip.s 			page 49


 2599              	.LASF84:
 2600 035e 6C6F636B 		.ascii	"lock_cnt\000"
 2600      5F636E74 
 2600      00
 2601              	.LASF92:
 2602 0367 69646C65 		.ascii	"idle_thread_wa\000"
 2602      5F746872 
 2602      6561645F 
 2602      776100
 2603              	.LASF30:
 2604 0376 636E745F 		.ascii	"cnt_t\000"
 2604      7400
 2605              	.LASF41:
 2606 037c 705F7374 		.ascii	"p_stklimit\000"
 2606      6B6C696D 
 2606      697400
 2607              	.LASF0:
 2608 0387 756E7369 		.ascii	"unsigned int\000"
 2608      676E6564 
 2608      20696E74 
 2608      00
 2609              	.LASF72:
 2610 0394 76745F6E 		.ascii	"vt_next\000"
 2610      65787400 
 2611              	.LASF17:
 2612 039c 75696E74 		.ascii	"uint16_t\000"
 2612      31365F74 
 2612      00
 2613              	.LASF94:
 2614 03a5 53797374 		.ascii	"SystemCoreClock\000"
 2614      656D436F 
 2614      7265436C 
 2614      6F636B00 
 2615              	.LASF46:
 2616 03b5 705F7469 		.ascii	"p_time\000"
 2616      6D6500
 2617              	.LASF124:
 2618 03bc 77747365 		.ascii	"wtsemp\000"
 2618      6D7000
 2619              	.LASF74:
 2620 03c3 76745F64 		.ascii	"vt_delta\000"
 2620      656C7461 
 2620      00
 2621              	.LASF48:
 2622 03cc 705F6D73 		.ascii	"p_msgqueue\000"
 2622      67717565 
 2622      756500
 2623              	.LASF155:
 2624 03d7 63685F64 		.ascii	"ch_debug\000"
 2624      65627567 
 2624      00
 2625              	.LASF163:
 2626 03e0 6D656D6F 		.ascii	"memory_pool_t\000"
 2626      72795F70 
 2626      6F6F6C5F 
 2626      7400
 2627              	.LASF115:
ARM GAS  C:\Users\PCHAUT~1\AppData\Local\Temp\ccry1Rip.s 			page 50


 2628 03ee 6E5F6972 		.ascii	"n_irq\000"
 2628      7100
 2629              	.LASF129:
 2630 03f4 735F636E 		.ascii	"s_cnt\000"
 2630      7400
 2631              	.LASF165:
 2632 03fa 6E616D65 		.ascii	"name\000"
 2632      00
 2633              	.LASF9:
 2634 03ff 73686F72 		.ascii	"short unsigned int\000"
 2634      7420756E 
 2634      7369676E 
 2634      65642069 
 2634      6E7400
 2635              	.LASF119:
 2636 0412 6B65726E 		.ascii	"kernel_stats_t\000"
 2636      656C5F73 
 2636      74617473 
 2636      5F7400
 2637              	.LASF57:
 2638 0421 63685F74 		.ascii	"ch_thread\000"
 2638      68726561 
 2638      6400
 2639              	.LASF28:
 2640 042b 6D73675F 		.ascii	"msg_t\000"
 2640      7400
 2641              	.LASF112:
 2642 0431 6C617374 		.ascii	"last\000"
 2642      00
 2643              	.LASF31:
 2644 0436 75636E74 		.ascii	"ucnt_t\000"
 2644      5F7400
 2645              	.LASF86:
 2646 043d 63685F73 		.ascii	"ch_system_t\000"
 2646      79737465 
 2646      6D5F7400 
 2647              	.LASF144:
 2648 0449 63665F6F 		.ascii	"cf_off_ctx\000"
 2648      66665F63 
 2648      747800
 2649              	.LASF153:
 2650 0454 63665F6F 		.ascii	"cf_off_time\000"
 2650      66665F74 
 2650      696D6500 
 2651              	.LASF118:
 2652 0460 6D5F6372 		.ascii	"m_crit_isr\000"
 2652      69745F69 
 2652      737200
 2653              	.LASF62:
 2654 046b 63685F72 		.ascii	"ch_ready_list\000"
 2654      65616479 
 2654      5F6C6973 
 2654      7400
 2655              	.LASF29:
 2656 0479 6576656E 		.ascii	"eventmask_t\000"
 2656      746D6173 
 2656      6B5F7400 
ARM GAS  C:\Users\PCHAUT~1\AppData\Local\Temp\ccry1Rip.s 			page 51


 2657              	.LASF10:
 2658 0485 5F5F696E 		.ascii	"__int32_t\000"
 2658      7433325F 
 2658      7400
 2659              	.LASF96:
 2660 048f 73746B61 		.ascii	"stkalign_t\000"
 2660      6C69676E 
 2660      5F7400
 2661              	.LASF56:
 2662 049a 74687265 		.ascii	"threads_list_t\000"
 2662      6164735F 
 2662      6C697374 
 2662      5F7400
 2663              	.LASF137:
 2664 04a9 63685F7A 		.ascii	"ch_zero\000"
 2664      65726F00 
 2665              	.LASF151:
 2666 04b1 63665F6F 		.ascii	"cf_off_refs\000"
 2666      66665F72 
 2666      65667300 
 2667              	.LASF64:
 2668 04bd 725F7072 		.ascii	"r_prio\000"
 2668      696F00
 2669              	.LASF47:
 2670 04c4 705F7761 		.ascii	"p_waiting\000"
 2670      6974696E 
 2670      6700
 2671              	.LASF21:
 2672 04ce 7274636E 		.ascii	"rtcnt_t\000"
 2672      745F7400 
 2673              	.LASF78:
 2674 04d6 63685F76 		.ascii	"ch_virtual_timers_list\000"
 2674      69727475 
 2674      616C5F74 
 2674      696D6572 
 2674      735F6C69 
 2675              	.LASF2:
 2676 04ed 6C6F6E67 		.ascii	"long double\000"
 2676      20646F75 
 2676      626C6500 
 2677              	.LASF141:
 2678 04f9 63685F74 		.ascii	"ch_timesize\000"
 2678      696D6573 
 2678      697A6500 
 2679              	.LASF105:
 2680 0505 74625F70 		.ascii	"tb_ptr\000"
 2680      747200
 2681              	.LASF63:
 2682 050c 725F7175 		.ascii	"r_queue\000"
 2682      65756500 
 2683              	.LASF103:
 2684 0514 63685F73 		.ascii	"ch_swc_event_t\000"
 2684      77635F65 
 2684      76656E74 
 2684      5F7400
 2685              	.LASF147:
 2686 0523 63665F6F 		.ascii	"cf_off_name\000"
ARM GAS  C:\Users\PCHAUT~1\AppData\Local\Temp\ccry1Rip.s 			page 52


 2686      66665F6E 
 2686      616D6500 
 2687              	.LASF39:
 2688 052f 705F6F6C 		.ascii	"p_older\000"
 2688      64657200 
 2689              	.LASF65:
 2690 0537 725F6374 		.ascii	"r_ctx\000"
 2690      7800
 2691              	.LASF37:
 2692 053d 705F6374 		.ascii	"p_ctx\000"
 2692      7800
 2693              	.LASF161:
 2694 0543 6D705F6F 		.ascii	"mp_object_size\000"
 2694      626A6563 
 2694      745F7369 
 2694      7A6500
 2695              	.LASF109:
 2696 0552 746D5F63 		.ascii	"tm_calibration_t\000"
 2696      616C6962 
 2696      72617469 
 2696      6F6E5F74 
 2696      00
 2697              	.LASF166:
 2698 0563 73657475 		.ascii	"setup\000"
 2698      7000
 2699              	.LASF68:
 2700 0569 725F6375 		.ascii	"r_current\000"
 2700      7272656E 
 2700      7400
 2701              	.LASF67:
 2702 0573 725F6F6C 		.ascii	"r_older\000"
 2702      64657200 
 2703              	.LASF176:
 2704 057b 70617474 		.ascii	"patternpools\000"
 2704      65726E70 
 2704      6F6F6C73 
 2704      00
 2705              	.LASF14:
 2706 0588 5F5F7569 		.ascii	"__uint64_t\000"
 2706      6E743634 
 2706      5F7400
 2707              	.LASF113:
 2708 0593 63756D75 		.ascii	"cumulative\000"
 2708      6C617469 
 2708      766500
 2709              	.LASF25:
 2710 059e 74726566 		.ascii	"trefs_t\000"
 2710      735F7400 
 2711              	.LASF106:
 2712 05a6 74625F62 		.ascii	"tb_buffer\000"
 2712      75666665 
 2712      7200
 2713              	.LASF140:
 2714 05b0 63685F70 		.ascii	"ch_ptrsize\000"
 2714      74727369 
 2714      7A6500
 2715              	.LASF70:
ARM GAS  C:\Users\PCHAUT~1\AppData\Local\Temp\ccry1Rip.s 			page 53


 2716 05bb 76697274 		.ascii	"virtual_timer_t\000"
 2716      75616C5F 
 2716      74696D65 
 2716      725F7400 
 2717              	.LASF35:
 2718 05cb 705F7072 		.ascii	"p_prev\000"
 2718      657600
 2719              	.LASF168:
 2720 05d2 65786563 		.ascii	"execute\000"
 2720      75746500 
 2721              	.LASF27:
 2722 05da 74707269 		.ascii	"tprio_t\000"
 2722      6F5F7400 
 2723              	.LASF40:
 2724 05e2 705F6E61 		.ascii	"p_name\000"
 2724      6D6500
 2725              	.LASF116:
 2726 05e9 6E5F6374 		.ascii	"n_ctxswc\000"
 2726      78737763 
 2726      00
 2727              	.LASF171:
 2728 05f2 5F426F6F 		.ascii	"_Bool\000"
 2728      6C00
 2729              	.LASF18:
 2730 05f8 696E7433 		.ascii	"int32_t\000"
 2730      325F7400 
 2731              	.LASF6:
 2732 0600 756E7369 		.ascii	"unsigned char\000"
 2732      676E6564 
 2732      20636861 
 2732      7200
 2733              	.LASF51:
 2734 060e 705F6D74 		.ascii	"p_mtxlist\000"
 2734      786C6973 
 2734      7400
 2735              	.LASF7:
 2736 0618 73686F72 		.ascii	"short int\000"
 2736      7420696E 
 2736      7400
 2737              	.LASF42:
 2738 0622 705F7374 		.ascii	"p_state\000"
 2738      61746500 
 2739              	.LASF45:
 2740 062a 705F7072 		.ascii	"p_preempt\000"
 2740      65656D70 
 2740      7400
 2741              	.LASF172:
 2742 0634 74687265 		.ascii	"threads\000"
 2742      61647300 
 2743              	.LASF174:
 2744 063c 74657374 		.ascii	"test_timer_done\000"
 2744      5F74696D 
 2744      65725F64 
 2744      6F6E6500 
 2745              	.LASF126:
 2746 064c 65776D61 		.ascii	"ewmask\000"
 2746      736B00
ARM GAS  C:\Users\PCHAUT~1\AppData\Local\Temp\ccry1Rip.s 			page 54


 2747              	.LASF34:
 2748 0653 705F6E65 		.ascii	"p_next\000"
 2748      787400
 2749              	.LASF23:
 2750 065a 746D6F64 		.ascii	"tmode_t\000"
 2750      655F7400 
 2751              	.LASF152:
 2752 0662 63665F6F 		.ascii	"cf_off_preempt\000"
 2752      66665F70 
 2752      7265656D 
 2752      707400
 2753              	.LASF43:
 2754 0671 705F666C 		.ascii	"p_flags\000"
 2754      61677300 
 2755              	.LASF54:
 2756 0679 705F7374 		.ascii	"p_stats\000"
 2756      61747300 
 2757              	.LASF181:
 2758 0681 433A5C55 		.ascii	"C:\\Users\\Pchautems\\Documents\\RobotiqueTP\\Proje"
 2758      73657273 
 2758      5C506368 
 2758      61757465 
 2758      6D735C44 
 2759 06af 745C6D69 		.ascii	"t\\miniprojet\000"
 2759      6E697072 
 2759      6F6A6574 
 2759      00
 2760              	.LASF59:
 2761 06bc 74687265 		.ascii	"threads_queue_t\000"
 2761      6164735F 
 2761      71756575 
 2761      655F7400 
 2762              	.LASF71:
 2763 06cc 63685F76 		.ascii	"ch_virtual_timer\000"
 2763      69727475 
 2763      616C5F74 
 2763      696D6572 
 2763      00
 2764              	.LASF145:
 2765 06dd 63665F6F 		.ascii	"cf_off_newer\000"
 2765      66665F6E 
 2765      65776572 
 2765      00
 2766              	.LASF164:
 2767 06ea 74657374 		.ascii	"testcase\000"
 2767      63617365 
 2767      00
 2768              	.LASF127:
 2769 06f3 63685F73 		.ascii	"ch_semaphore\000"
 2769      656D6170 
 2769      686F7265 
 2769      00
 2770              	.LASF50:
 2771 0700 705F6570 		.ascii	"p_epending\000"
 2771      656E6469 
 2771      6E6700
 2772              	.LASF19:
ARM GAS  C:\Users\PCHAUT~1\AppData\Local\Temp\ccry1Rip.s 			page 55


 2773 070b 75696E74 		.ascii	"uint32_t\000"
 2773      33325F74 
 2773      00
 2774              	.LASF143:
 2775 0714 63665F6F 		.ascii	"cf_off_prio\000"
 2775      66665F70 
 2775      72696F00 
 2776              	.LASF175:
 2777 0720 74657374 		.ascii	"testpools1\000"
 2777      706F6F6C 
 2777      733100
 2778              	.LASF58:
 2779 072b 63685F74 		.ascii	"ch_threads_list\000"
 2779      68726561 
 2779      64735F6C 
 2779      69737400 
 2780              	.LASF138:
 2781 073b 63685F73 		.ascii	"ch_size\000"
 2781      697A6500 
 2782              	.LASF13:
 2783 0743 6C6F6E67 		.ascii	"long unsigned int\000"
 2783      20756E73 
 2783      69676E65 
 2783      6420696E 
 2783      7400
 2784              	.LASF135:
 2785 0755 63686172 		.ascii	"char\000"
 2785      00
 2786              	.LASF125:
 2787 075a 77746D74 		.ascii	"wtmtxp\000"
 2787      787000
 2788              	.LASF8:
 2789 0761 5F5F7569 		.ascii	"__uint16_t\000"
 2789      6E743136 
 2789      5F7400
 2790              	.LASF183:
 2791 076c 706F6F6C 		.ascii	"pools1_setup\000"
 2791      73315F73 
 2791      65747570 
 2791      00
 2792              	.LASF33:
 2793 0779 74687265 		.ascii	"thread_t\000"
 2793      61645F74 
 2793      00
 2794              	.LASF110:
 2795 0782 62657374 		.ascii	"best\000"
 2795      00
 2796              	.LASF133:
 2797 0787 6D5F6E65 		.ascii	"m_next\000"
 2797      787400
 2798              	.LASF32:
 2799 078e 73797374 		.ascii	"systime_t\000"
 2799      696D655F 
 2799      7400
 2800              	.LASF52:
 2801 0798 705F7265 		.ascii	"p_realprio\000"
 2801      616C7072 
ARM GAS  C:\Users\PCHAUT~1\AppData\Local\Temp\ccry1Rip.s 			page 56


 2801      696F00
 2802              	.LASF69:
 2803 07a3 76746675 		.ascii	"vtfunc_t\000"
 2803      6E635F74 
 2803      00
 2804              	.LASF12:
 2805 07ac 5F5F7569 		.ascii	"__uint32_t\000"
 2805      6E743332 
 2805      5F7400
 2806              	.LASF82:
 2807 07b7 70616E69 		.ascii	"panic_msg\000"
 2807      635F6D73 
 2807      6700
 2808              	.LASF170:
 2809 07c1 74657374 		.ascii	"test_global_fail\000"
 2809      5F676C6F 
 2809      62616C5F 
 2809      6661696C 
 2809      00
 2810              	.LASF108:
 2811 07d2 6F666673 		.ascii	"offset\000"
 2811      657400
 2812              	.LASF130:
 2813 07d9 63685F6D 		.ascii	"ch_mutex\000"
 2813      75746578 
 2813      00
 2814              	.LASF160:
 2815 07e2 6D705F6E 		.ascii	"mp_next\000"
 2815      65787400 
 2816              	.LASF97:
 2817 07ea 636F6E74 		.ascii	"context\000"
 2817      65787400 
 2818              	.LASF49:
 2819 07f2 705F6D73 		.ascii	"p_msg\000"
 2819      6700
 2820              	.LASF157:
 2821 07f8 6D656D67 		.ascii	"memgetfunc_t\000"
 2821      65746675 
 2821      6E635F74 
 2821      00
 2822              	.LASF76:
 2823 0805 76745F70 		.ascii	"vt_par\000"
 2823      617200
 2824              	.LASF182:
 2825 080c 74657374 		.ascii	"test_buffers\000"
 2825      5F627566 
 2825      66657273 
 2825      00
 2826              	.LASF158:
 2827 0819 706F6F6C 		.ascii	"pool_header\000"
 2827      5F686561 
 2827      64657200 
 2828              	.LASF44:
 2829 0825 705F7265 		.ascii	"p_refs\000"
 2829      667300
 2830              	.LASF83:
 2831 082c 6973725F 		.ascii	"isr_cnt\000"
ARM GAS  C:\Users\PCHAUT~1\AppData\Local\Temp\ccry1Rip.s 			page 57


 2831      636E7400 
 2832              	.LASF102:
 2833 0834 73655F73 		.ascii	"se_state\000"
 2833      74617465 
 2833      00
 2834              	.LASF88:
 2835 083d 726C6973 		.ascii	"rlist\000"
 2835      7400
 2836              	.LASF16:
 2837 0843 75696E74 		.ascii	"uint8_t\000"
 2837      385F7400 
 2838              	.LASF180:
 2839 084b 2E2E2F6C 		.ascii	"../lib/e-puck2_main-processor/ChibiOS//test/rt/test"
 2839      69622F65 
 2839      2D707563 
 2839      6B325F6D 
 2839      61696E2D 
 2840 087e 706F6F6C 		.ascii	"pools.c\000"
 2840      732E6300 
 2841              	.LASF55:
 2842 0886 74687265 		.ascii	"thread_reference_t\000"
 2842      61645F72 
 2842      65666572 
 2842      656E6365 
 2842      5F7400
 2843              	.LASF122:
 2844 0899 77746F62 		.ascii	"wtobjp\000"
 2844      6A7000
 2845              	.LASF159:
 2846 08a0 70685F6E 		.ascii	"ph_next\000"
 2846      65787400 
 2847              	.LASF178:
 2848 08a8 6E756C6C 		.ascii	"null_provider\000"
 2848      5F70726F 
 2848      76696465 
 2848      7200
 2849              	.LASF184:
 2850 08b6 73697A65 		.ascii	"size\000"
 2850      00
 2851              	.LASF79:
 2852 08bb 76745F73 		.ascii	"vt_systime\000"
 2852      79737469 
 2852      6D6500
 2853              	.LASF85:
 2854 08c6 74726163 		.ascii	"trace_buffer\000"
 2854      655F6275 
 2854      66666572 
 2854      00
 2855              	.LASF139:
 2856 08d3 63685F76 		.ascii	"ch_version\000"
 2856      65727369 
 2856      6F6E00
 2857              	.LASF117:
 2858 08de 6D5F6372 		.ascii	"m_crit_thd\000"
 2858      69745F74 
 2858      686400
 2859              	.LASF132:
ARM GAS  C:\Users\PCHAUT~1\AppData\Local\Temp\ccry1Rip.s 			page 58


 2860 08e9 6D5F6F77 		.ascii	"m_owner\000"
 2860      6E657200 
 2861              	.LASF101:
 2862 08f1 73655F77 		.ascii	"se_wtobjp\000"
 2862      746F626A 
 2862      7000
 2863              	.LASF136:
 2864 08fb 63685F69 		.ascii	"ch_identifier\000"
 2864      64656E74 
 2864      69666965 
 2864      7200
 2865              	.LASF75:
 2866 0909 76745F66 		.ascii	"vt_func\000"
 2866      756E6300 
 2867              	.LASF177:
 2868 0911 706F6F6C 		.ascii	"pools1_execute\000"
 2868      73315F65 
 2868      78656375 
 2868      746500
 2869              		.ident	"GCC: (GNU Tools for Arm Embedded Processors 7-2017-q4-major) 7.2.1 20170904 (release) [ARM
ARM GAS  C:\Users\PCHAUT~1\AppData\Local\Temp\ccry1Rip.s 			page 59


DEFINED SYMBOLS
                            *ABS*:00000000 testpools.c
C:\Users\PCHAUT~1\AppData\Local\Temp\ccry1Rip.s:18     .data.mp1:00000000 $d
C:\Users\PCHAUT~1\AppData\Local\Temp\ccry1Rip.s:21     .data.mp1:00000000 mp1
C:\Users\PCHAUT~1\AppData\Local\Temp\ccry1Rip.s:26     .text.null_provider:00000000 $t
C:\Users\PCHAUT~1\AppData\Local\Temp\ccry1Rip.s:33     .text.null_provider:00000000 null_provider
C:\Users\PCHAUT~1\AppData\Local\Temp\ccry1Rip.s:68     .text.null_provider:00000024 $d
C:\Users\PCHAUT~1\AppData\Local\Temp\ccry1Rip.s:73     .text.pools1_setup:00000000 $t
C:\Users\PCHAUT~1\AppData\Local\Temp\ccry1Rip.s:80     .text.pools1_setup:00000000 pools1_setup
C:\Users\PCHAUT~1\AppData\Local\Temp\ccry1Rip.s:116    .text.pools1_setup:0000002c $d
C:\Users\PCHAUT~1\AppData\Local\Temp\ccry1Rip.s:122    .text.pools1_execute:00000000 $t
C:\Users\PCHAUT~1\AppData\Local\Temp\ccry1Rip.s:129    .text.pools1_execute:00000000 pools1_execute
C:\Users\PCHAUT~1\AppData\Local\Temp\ccry1Rip.s:311    .text.pools1_execute:0000012c $d
C:\Users\PCHAUT~1\AppData\Local\Temp\ccry1Rip.s:327    .rodata.testpools1:00000000 testpools1
C:\Users\PCHAUT~1\AppData\Local\Temp\ccry1Rip.s:320    .rodata:00000000 $d
C:\Users\PCHAUT~1\AppData\Local\Temp\ccry1Rip.s:324    .rodata.testpools1:00000000 $d
C:\Users\PCHAUT~1\AppData\Local\Temp\ccry1Rip.s:337    .rodata.patternpools:00000000 patternpools
C:\Users\PCHAUT~1\AppData\Local\Temp\ccry1Rip.s:334    .rodata.patternpools:00000000 $d

UNDEFINED SYMBOLS
__stack_chk_fail
__stack_chk_guard
chPoolObjectInit
chPoolLoadArray
chPoolAlloc
_test_assert
chPoolFree
wa
