ARM GAS  C:\Users\PCHAUT~1\AppData\Local\Temp\cc3k9865.s 			page 1


   1              		.cpu cortex-m4
   2              		.eabi_attribute 27, 1
   3              		.eabi_attribute 28, 1
   4              		.eabi_attribute 20, 1
   5              		.eabi_attribute 21, 1
   6              		.eabi_attribute 23, 3
   7              		.eabi_attribute 24, 1
   8              		.eabi_attribute 25, 1
   9              		.eabi_attribute 26, 1
  10              		.eabi_attribute 30, 6
  11              		.eabi_attribute 34, 1
  12              		.eabi_attribute 18, 4
  13              		.file	"testsem.c"
  14              		.text
  15              	.Ltext0:
  16              		.cfi_sections	.debug_frame
  17              		.section	.text.port_lock,"ax",%progbits
  18              		.align	1
  19              		.p2align 4,,15
  20              		.syntax unified
  21              		.thumb
  22              		.thumb_func
  23              		.fpu fpv4-sp-d16
  24              		.type	port_lock, %function
  25              	port_lock:
  26              	.LFB116:
  27              		.file 1 "../lib/e-puck2_main-processor/ChibiOS//os/rt/ports/ARMCMx/chcore_v7m.h"
  28              		.loc 1 444 0
  29              		.cfi_startproc
  30              		@ args = 0, pretend = 0, frame = 8
  31              		@ frame_needed = 0, uses_anonymous_args = 0
  32 0000 00B5     		push	{lr}
  33              		.cfi_def_cfa_offset 4
  34              		.cfi_offset 14, -4
  35 0002 83B0     		sub	sp, sp, #12
  36              		.cfi_def_cfa_offset 16
  37              		.loc 1 444 0
  38 0004 094B     		ldr	r3, .L3
  39 0006 1B68     		ldr	r3, [r3]
  40 0008 0193     		str	r3, [sp, #4]
  41 000a 2023     		movs	r3, #32
  42 000c 0093     		str	r3, [sp]
  43              	.LBB6:
  44              	.LBB7:
  45              		.file 2 "../lib/e-puck2_main-processor/ChibiOS//os/ext/CMSIS/include/core_cmFunc.h"
  46              		.loc 2 546 0
  47 000e 009B     		ldr	r3, [sp]
  48              		.syntax unified
  49              	@ 546 "../lib/e-puck2_main-processor/ChibiOS//os/ext/CMSIS/include/core_cmFunc.h" 1
  50 0010 83F31188 		MSR basepri, r3
  51              	@ 0 "" 2
  52              		.thumb
  53              		.syntax unified
  54              	.LBE7:
  55              	.LBE6:
  56              		.loc 1 451 0
  57 0014 00BF     		nop
ARM GAS  C:\Users\PCHAUT~1\AppData\Local\Temp\cc3k9865.s 			page 2


  58 0016 054B     		ldr	r3, .L3
  59 0018 019A     		ldr	r2, [sp, #4]
  60 001a 1B68     		ldr	r3, [r3]
  61 001c 9A42     		cmp	r2, r3
  62 001e 01D0     		beq	.L2
  63 0020 FFF7FEFF 		bl	__stack_chk_fail
  64              	.L2:
  65 0024 03B0     		add	sp, sp, #12
  66              		.cfi_def_cfa_offset 4
  67              		@ sp needed
  68 0026 5DF804FB 		ldr	pc, [sp], #4
  69              	.L4:
  70 002a 00BF     		.align	2
  71              	.L3:
  72 002c 00000000 		.word	__stack_chk_guard
  73              		.cfi_endproc
  74              	.LFE116:
  75              		.size	port_lock, .-port_lock
  76              		.section	.text.port_unlock,"ax",%progbits
  77              		.align	1
  78              		.p2align 4,,15
  79              		.syntax unified
  80              		.thumb
  81              		.thumb_func
  82              		.fpu fpv4-sp-d16
  83              		.type	port_unlock, %function
  84              	port_unlock:
  85              	.LFB117:
  86              		.loc 1 458 0
  87              		.cfi_startproc
  88              		@ args = 0, pretend = 0, frame = 8
  89              		@ frame_needed = 0, uses_anonymous_args = 0
  90 0000 00B5     		push	{lr}
  91              		.cfi_def_cfa_offset 4
  92              		.cfi_offset 14, -4
  93 0002 83B0     		sub	sp, sp, #12
  94              		.cfi_def_cfa_offset 16
  95              		.loc 1 458 0
  96 0004 094B     		ldr	r3, .L7
  97 0006 1B68     		ldr	r3, [r3]
  98 0008 0193     		str	r3, [sp, #4]
  99 000a 0023     		movs	r3, #0
 100 000c 0093     		str	r3, [sp]
 101              	.LBB8:
 102              	.LBB9:
 103              		.loc 2 546 0
 104 000e 009B     		ldr	r3, [sp]
 105              		.syntax unified
 106              	@ 546 "../lib/e-puck2_main-processor/ChibiOS//os/ext/CMSIS/include/core_cmFunc.h" 1
 107 0010 83F31188 		MSR basepri, r3
 108              	@ 0 "" 2
 109              		.thumb
 110              		.syntax unified
 111              	.LBE9:
 112              	.LBE8:
 113              		.loc 1 465 0
 114 0014 00BF     		nop
ARM GAS  C:\Users\PCHAUT~1\AppData\Local\Temp\cc3k9865.s 			page 3


 115 0016 054B     		ldr	r3, .L7
 116 0018 019A     		ldr	r2, [sp, #4]
 117 001a 1B68     		ldr	r3, [r3]
 118 001c 9A42     		cmp	r2, r3
 119 001e 01D0     		beq	.L6
 120 0020 FFF7FEFF 		bl	__stack_chk_fail
 121              	.L6:
 122 0024 03B0     		add	sp, sp, #12
 123              		.cfi_def_cfa_offset 4
 124              		@ sp needed
 125 0026 5DF804FB 		ldr	pc, [sp], #4
 126              	.L8:
 127 002a 00BF     		.align	2
 128              	.L7:
 129 002c 00000000 		.word	__stack_chk_guard
 130              		.cfi_endproc
 131              	.LFE117:
 132              		.size	port_unlock, .-port_unlock
 133              		.section	.text.queue_isempty,"ax",%progbits
 134              		.align	1
 135              		.p2align 4,,15
 136              		.syntax unified
 137              		.thumb
 138              		.thumb_func
 139              		.fpu fpv4-sp-d16
 140              		.type	queue_isempty, %function
 141              	queue_isempty:
 142              	.LFB129:
 143              		.file 3 "../lib/e-puck2_main-processor/ChibiOS//os/rt/include/chschd.h"
 144              		.loc 3 616 0
 145              		.cfi_startproc
 146              		@ args = 0, pretend = 0, frame = 16
 147              		@ frame_needed = 0, uses_anonymous_args = 0
 148 0000 00B5     		push	{lr}
 149              		.cfi_def_cfa_offset 4
 150              		.cfi_offset 14, -4
 151 0002 85B0     		sub	sp, sp, #20
 152              		.cfi_def_cfa_offset 24
 153 0004 0190     		str	r0, [sp, #4]
 154              		.loc 3 616 0
 155 0006 0B4B     		ldr	r3, .L12
 156 0008 1B68     		ldr	r3, [r3]
 157 000a 0393     		str	r3, [sp, #12]
 158              		.loc 3 618 0
 159 000c 019B     		ldr	r3, [sp, #4]
 160 000e 1B68     		ldr	r3, [r3]
 161 0010 019A     		ldr	r2, [sp, #4]
 162 0012 9A42     		cmp	r2, r3
 163 0014 0CBF     		ite	eq
 164 0016 0123     		moveq	r3, #1
 165 0018 0023     		movne	r3, #0
 166 001a DBB2     		uxtb	r3, r3
 167              		.loc 3 619 0
 168 001c 1846     		mov	r0, r3
 169 001e 054B     		ldr	r3, .L12
 170 0020 039A     		ldr	r2, [sp, #12]
 171 0022 1B68     		ldr	r3, [r3]
ARM GAS  C:\Users\PCHAUT~1\AppData\Local\Temp\cc3k9865.s 			page 4


 172 0024 9A42     		cmp	r2, r3
 173 0026 01D0     		beq	.L11
 174 0028 FFF7FEFF 		bl	__stack_chk_fail
 175              	.L11:
 176 002c 05B0     		add	sp, sp, #20
 177              		.cfi_def_cfa_offset 4
 178              		@ sp needed
 179 002e 5DF804FB 		ldr	pc, [sp], #4
 180              	.L13:
 181 0032 00BF     		.align	2
 182              	.L12:
 183 0034 00000000 		.word	__stack_chk_guard
 184              		.cfi_endproc
 185              	.LFE129:
 186              		.size	queue_isempty, .-queue_isempty
 187              		.section	.text.chSysLock,"ax",%progbits
 188              		.align	1
 189              		.p2align 4,,15
 190              		.syntax unified
 191              		.thumb
 192              		.thumb_func
 193              		.fpu fpv4-sp-d16
 194              		.type	chSysLock, %function
 195              	chSysLock:
 196              	.LFB145:
 197              		.file 4 "../lib/e-puck2_main-processor/ChibiOS//os/rt/include/chsys.h"
 198              		.loc 4 346 0
 199              		.cfi_startproc
 200              		@ args = 0, pretend = 0, frame = 8
 201              		@ frame_needed = 0, uses_anonymous_args = 0
 202 0000 00B5     		push	{lr}
 203              		.cfi_def_cfa_offset 4
 204              		.cfi_offset 14, -4
 205 0002 83B0     		sub	sp, sp, #12
 206              		.cfi_def_cfa_offset 16
 207              		.loc 4 346 0
 208 0004 094B     		ldr	r3, .L16
 209 0006 1B68     		ldr	r3, [r3]
 210 0008 0193     		str	r3, [sp, #4]
 211              		.loc 4 348 0
 212 000a FFF7FEFF 		bl	port_lock
 213              		.loc 4 349 0
 214 000e FFF7FEFF 		bl	_stats_start_measure_crit_thd
 215              		.loc 4 350 0
 216 0012 FFF7FEFF 		bl	_dbg_check_lock
 217              		.loc 4 351 0
 218 0016 00BF     		nop
 219 0018 044B     		ldr	r3, .L16
 220 001a 019A     		ldr	r2, [sp, #4]
 221 001c 1B68     		ldr	r3, [r3]
 222 001e 9A42     		cmp	r2, r3
 223 0020 01D0     		beq	.L15
 224 0022 FFF7FEFF 		bl	__stack_chk_fail
 225              	.L15:
 226 0026 03B0     		add	sp, sp, #12
 227              		.cfi_def_cfa_offset 4
 228              		@ sp needed
ARM GAS  C:\Users\PCHAUT~1\AppData\Local\Temp\cc3k9865.s 			page 5


 229 0028 5DF804FB 		ldr	pc, [sp], #4
 230              	.L17:
 231              		.align	2
 232              	.L16:
 233 002c 00000000 		.word	__stack_chk_guard
 234              		.cfi_endproc
 235              	.LFE145:
 236              		.size	chSysLock, .-chSysLock
 237              		.section	.text.chSysUnlock,"ax",%progbits
 238              		.align	1
 239              		.p2align 4,,15
 240              		.syntax unified
 241              		.thumb
 242              		.thumb_func
 243              		.fpu fpv4-sp-d16
 244              		.type	chSysUnlock, %function
 245              	chSysUnlock:
 246              	.LFB146:
 247              		.loc 4 358 0
 248              		.cfi_startproc
 249              		@ args = 0, pretend = 0, frame = 8
 250              		@ frame_needed = 0, uses_anonymous_args = 0
 251 0000 00B5     		push	{lr}
 252              		.cfi_def_cfa_offset 4
 253              		.cfi_offset 14, -4
 254 0002 83B0     		sub	sp, sp, #12
 255              		.cfi_def_cfa_offset 16
 256              		.loc 4 358 0
 257 0004 114B     		ldr	r3, .L21
 258 0006 1B68     		ldr	r3, [r3]
 259 0008 0193     		str	r3, [sp, #4]
 260              		.loc 4 360 0
 261 000a FFF7FEFF 		bl	_dbg_check_unlock
 262              		.loc 4 361 0
 263 000e FFF7FEFF 		bl	_stats_stop_measure_crit_thd
 264              		.loc 4 367 0
 265 0012 0F4B     		ldr	r3, .L21+4
 266 0014 1B68     		ldr	r3, [r3]
 267 0016 0E4A     		ldr	r2, .L21+4
 268 0018 9342     		cmp	r3, r2
 269 001a 0AD0     		beq	.L19
 270              		.loc 4 367 0 is_stmt 0 discriminator 2
 271 001c 0C4B     		ldr	r3, .L21+4
 272 001e 9B69     		ldr	r3, [r3, #24]
 273 0020 9A68     		ldr	r2, [r3, #8]
 274 0022 0B4B     		ldr	r3, .L21+4
 275 0024 1B68     		ldr	r3, [r3]
 276 0026 9B68     		ldr	r3, [r3, #8]
 277 0028 9A42     		cmp	r2, r3
 278 002a 02D2     		bcs	.L19
 279              		.loc 4 367 0 discriminator 3
 280 002c 0948     		ldr	r0, .L21+8
 281 002e FFF7FEFF 		bl	chSysHalt
 282              	.L19:
 283              		.loc 4 371 0 is_stmt 1
 284 0032 FFF7FEFF 		bl	port_unlock
 285              		.loc 4 372 0
ARM GAS  C:\Users\PCHAUT~1\AppData\Local\Temp\cc3k9865.s 			page 6


 286 0036 00BF     		nop
 287 0038 044B     		ldr	r3, .L21
 288 003a 019A     		ldr	r2, [sp, #4]
 289 003c 1B68     		ldr	r3, [r3]
 290 003e 9A42     		cmp	r2, r3
 291 0040 01D0     		beq	.L20
 292 0042 FFF7FEFF 		bl	__stack_chk_fail
 293              	.L20:
 294 0046 03B0     		add	sp, sp, #12
 295              		.cfi_def_cfa_offset 4
 296              		@ sp needed
 297 0048 5DF804FB 		ldr	pc, [sp], #4
 298              	.L22:
 299              		.align	2
 300              	.L21:
 301 004c 00000000 		.word	__stack_chk_guard
 302 0050 00000000 		.word	ch
 303 0054 00000000 		.word	__func__.7153
 304              		.cfi_endproc
 305              	.LFE146:
 306              		.size	chSysUnlock, .-chSysUnlock
 307              		.section	.text.chVTGetSystemTimeX,"ax",%progbits
 308              		.align	1
 309              		.p2align 4,,15
 310              		.syntax unified
 311              		.thumb
 312              		.thumb_func
 313              		.fpu fpv4-sp-d16
 314              		.type	chVTGetSystemTimeX, %function
 315              	chVTGetSystemTimeX:
 316              	.LFB153:
 317              		.file 5 "../lib/e-puck2_main-processor/ChibiOS//os/rt/include/chvt.h"
 318              		.loc 5 228 0
 319              		.cfi_startproc
 320              		@ args = 0, pretend = 0, frame = 8
 321              		@ frame_needed = 0, uses_anonymous_args = 0
 322 0000 00B5     		push	{lr}
 323              		.cfi_def_cfa_offset 4
 324              		.cfi_offset 14, -4
 325 0002 83B0     		sub	sp, sp, #12
 326              		.cfi_def_cfa_offset 16
 327              		.loc 5 228 0
 328 0004 074B     		ldr	r3, .L26
 329 0006 1B68     		ldr	r3, [r3]
 330 0008 0193     		str	r3, [sp, #4]
 331              		.loc 5 231 0
 332 000a 074B     		ldr	r3, .L26+4
 333 000c 9B6A     		ldr	r3, [r3, #40]
 334              		.loc 5 235 0
 335 000e 1846     		mov	r0, r3
 336 0010 044B     		ldr	r3, .L26
 337 0012 019A     		ldr	r2, [sp, #4]
 338 0014 1B68     		ldr	r3, [r3]
 339 0016 9A42     		cmp	r2, r3
 340 0018 01D0     		beq	.L25
 341 001a FFF7FEFF 		bl	__stack_chk_fail
 342              	.L25:
ARM GAS  C:\Users\PCHAUT~1\AppData\Local\Temp\cc3k9865.s 			page 7


 343 001e 03B0     		add	sp, sp, #12
 344              		.cfi_def_cfa_offset 4
 345              		@ sp needed
 346 0020 5DF804FB 		ldr	pc, [sp], #4
 347              	.L27:
 348              		.align	2
 349              	.L26:
 350 0024 00000000 		.word	__stack_chk_guard
 351 0028 00000000 		.word	ch
 352              		.cfi_endproc
 353              	.LFE153:
 354              		.size	chVTGetSystemTimeX, .-chVTGetSystemTimeX
 355              		.section	.text.chVTGetSystemTime,"ax",%progbits
 356              		.align	1
 357              		.p2align 4,,15
 358              		.syntax unified
 359              		.thumb
 360              		.thumb_func
 361              		.fpu fpv4-sp-d16
 362              		.type	chVTGetSystemTime, %function
 363              	chVTGetSystemTime:
 364              	.LFB154:
 365              		.loc 5 247 0
 366              		.cfi_startproc
 367              		@ args = 0, pretend = 0, frame = 8
 368              		@ frame_needed = 0, uses_anonymous_args = 0
 369 0000 00B5     		push	{lr}
 370              		.cfi_def_cfa_offset 4
 371              		.cfi_offset 14, -4
 372 0002 83B0     		sub	sp, sp, #12
 373              		.cfi_def_cfa_offset 16
 374              		.loc 5 247 0
 375 0004 0A4B     		ldr	r3, .L31
 376 0006 1B68     		ldr	r3, [r3]
 377 0008 0193     		str	r3, [sp, #4]
 378              		.loc 5 250 0
 379 000a FFF7FEFF 		bl	chSysLock
 380              		.loc 5 251 0
 381 000e FFF7FEFF 		bl	chVTGetSystemTimeX
 382 0012 0090     		str	r0, [sp]
 383              		.loc 5 252 0
 384 0014 FFF7FEFF 		bl	chSysUnlock
 385              		.loc 5 254 0
 386 0018 009B     		ldr	r3, [sp]
 387              		.loc 5 255 0
 388 001a 1846     		mov	r0, r3
 389 001c 044B     		ldr	r3, .L31
 390 001e 019A     		ldr	r2, [sp, #4]
 391 0020 1B68     		ldr	r3, [r3]
 392 0022 9A42     		cmp	r2, r3
 393 0024 01D0     		beq	.L30
 394 0026 FFF7FEFF 		bl	__stack_chk_fail
 395              	.L30:
 396 002a 03B0     		add	sp, sp, #12
 397              		.cfi_def_cfa_offset 4
 398              		@ sp needed
 399 002c 5DF804FB 		ldr	pc, [sp], #4
ARM GAS  C:\Users\PCHAUT~1\AppData\Local\Temp\cc3k9865.s 			page 8


 400              	.L32:
 401              		.align	2
 402              	.L31:
 403 0030 00000000 		.word	__stack_chk_guard
 404              		.cfi_endproc
 405              	.LFE154:
 406              		.size	chVTGetSystemTime, .-chVTGetSystemTime
 407              		.section	.text.chThdGetSelfX,"ax",%progbits
 408              		.align	1
 409              		.p2align 4,,15
 410              		.syntax unified
 411              		.thumb
 412              		.thumb_func
 413              		.fpu fpv4-sp-d16
 414              		.type	chThdGetSelfX, %function
 415              	chThdGetSelfX:
 416              	.LFB166:
 417              		.file 6 "../lib/e-puck2_main-processor/ChibiOS//os/rt/include/chthreads.h"
 418              		.loc 6 174 0
 419              		.cfi_startproc
 420              		@ args = 0, pretend = 0, frame = 8
 421              		@ frame_needed = 0, uses_anonymous_args = 0
 422 0000 00B5     		push	{lr}
 423              		.cfi_def_cfa_offset 4
 424              		.cfi_offset 14, -4
 425 0002 83B0     		sub	sp, sp, #12
 426              		.cfi_def_cfa_offset 16
 427              		.loc 6 174 0
 428 0004 074B     		ldr	r3, .L36
 429 0006 1B68     		ldr	r3, [r3]
 430 0008 0193     		str	r3, [sp, #4]
 431              		.loc 6 176 0
 432 000a 074B     		ldr	r3, .L36+4
 433 000c 9B69     		ldr	r3, [r3, #24]
 434              		.loc 6 177 0
 435 000e 1846     		mov	r0, r3
 436 0010 044B     		ldr	r3, .L36
 437 0012 019A     		ldr	r2, [sp, #4]
 438 0014 1B68     		ldr	r3, [r3]
 439 0016 9A42     		cmp	r2, r3
 440 0018 01D0     		beq	.L35
 441 001a FFF7FEFF 		bl	__stack_chk_fail
 442              	.L35:
 443 001e 03B0     		add	sp, sp, #12
 444              		.cfi_def_cfa_offset 4
 445              		@ sp needed
 446 0020 5DF804FB 		ldr	pc, [sp], #4
 447              	.L37:
 448              		.align	2
 449              	.L36:
 450 0024 00000000 		.word	__stack_chk_guard
 451 0028 00000000 		.word	ch
 452              		.cfi_endproc
 453              	.LFE166:
 454              		.size	chThdGetSelfX, .-chThdGetSelfX
 455              		.section	.text.chThdGetPriorityX,"ax",%progbits
 456              		.align	1
ARM GAS  C:\Users\PCHAUT~1\AppData\Local\Temp\cc3k9865.s 			page 9


 457              		.p2align 4,,15
 458              		.syntax unified
 459              		.thumb
 460              		.thumb_func
 461              		.fpu fpv4-sp-d16
 462              		.type	chThdGetPriorityX, %function
 463              	chThdGetPriorityX:
 464              	.LFB167:
 465              		.loc 6 187 0
 466              		.cfi_startproc
 467              		@ args = 0, pretend = 0, frame = 8
 468              		@ frame_needed = 0, uses_anonymous_args = 0
 469 0000 00B5     		push	{lr}
 470              		.cfi_def_cfa_offset 4
 471              		.cfi_offset 14, -4
 472 0002 83B0     		sub	sp, sp, #12
 473              		.cfi_def_cfa_offset 16
 474              		.loc 6 187 0
 475 0004 084B     		ldr	r3, .L41
 476 0006 1B68     		ldr	r3, [r3]
 477 0008 0193     		str	r3, [sp, #4]
 478              		.loc 6 189 0
 479 000a FFF7FEFF 		bl	chThdGetSelfX
 480 000e 0346     		mov	r3, r0
 481 0010 9B68     		ldr	r3, [r3, #8]
 482              		.loc 6 190 0
 483 0012 1846     		mov	r0, r3
 484 0014 044B     		ldr	r3, .L41
 485 0016 019A     		ldr	r2, [sp, #4]
 486 0018 1B68     		ldr	r3, [r3]
 487 001a 9A42     		cmp	r2, r3
 488 001c 01D0     		beq	.L40
 489 001e FFF7FEFF 		bl	__stack_chk_fail
 490              	.L40:
 491 0022 03B0     		add	sp, sp, #12
 492              		.cfi_def_cfa_offset 4
 493              		@ sp needed
 494 0024 5DF804FB 		ldr	pc, [sp], #4
 495              	.L42:
 496              		.align	2
 497              	.L41:
 498 0028 00000000 		.word	__stack_chk_guard
 499              		.cfi_endproc
 500              	.LFE167:
 501              		.size	chThdGetPriorityX, .-chThdGetPriorityX
 502              		.section	.text.chSemGetCounterI,"ax",%progbits
 503              		.align	1
 504              		.p2align 4,,15
 505              		.syntax unified
 506              		.thumb
 507              		.thumb_func
 508              		.fpu fpv4-sp-d16
 509              		.type	chSemGetCounterI, %function
 510              	chSemGetCounterI:
 511              	.LFB181:
 512              		.file 7 "../lib/e-puck2_main-processor/ChibiOS//os/rt/include/chsem.h"
 513              		.loc 7 149 0
ARM GAS  C:\Users\PCHAUT~1\AppData\Local\Temp\cc3k9865.s 			page 10


 514              		.cfi_startproc
 515              		@ args = 0, pretend = 0, frame = 16
 516              		@ frame_needed = 0, uses_anonymous_args = 0
 517 0000 00B5     		push	{lr}
 518              		.cfi_def_cfa_offset 4
 519              		.cfi_offset 14, -4
 520 0002 85B0     		sub	sp, sp, #20
 521              		.cfi_def_cfa_offset 24
 522 0004 0190     		str	r0, [sp, #4]
 523              		.loc 7 149 0
 524 0006 094B     		ldr	r3, .L46
 525 0008 1B68     		ldr	r3, [r3]
 526 000a 0393     		str	r3, [sp, #12]
 527              		.loc 7 151 0
 528 000c FFF7FEFF 		bl	chDbgCheckClassI
 529              		.loc 7 153 0
 530 0010 019B     		ldr	r3, [sp, #4]
 531 0012 9B68     		ldr	r3, [r3, #8]
 532              		.loc 7 154 0
 533 0014 1846     		mov	r0, r3
 534 0016 054B     		ldr	r3, .L46
 535 0018 039A     		ldr	r2, [sp, #12]
 536 001a 1B68     		ldr	r3, [r3]
 537 001c 9A42     		cmp	r2, r3
 538 001e 01D0     		beq	.L45
 539 0020 FFF7FEFF 		bl	__stack_chk_fail
 540              	.L45:
 541 0024 05B0     		add	sp, sp, #20
 542              		.cfi_def_cfa_offset 4
 543              		@ sp needed
 544 0026 5DF804FB 		ldr	pc, [sp], #4
 545              	.L47:
 546 002a 00BF     		.align	2
 547              	.L46:
 548 002c 00000000 		.word	__stack_chk_guard
 549              		.cfi_endproc
 550              	.LFE181:
 551              		.size	chSemGetCounterI, .-chSemGetCounterI
 552              		.section	.text.chBSemObjectInit,"ax",%progbits
 553              		.align	1
 554              		.p2align 4,,15
 555              		.syntax unified
 556              		.thumb
 557              		.thumb_func
 558              		.fpu fpv4-sp-d16
 559              		.type	chBSemObjectInit, %function
 560              	chBSemObjectInit:
 561              	.LFB182:
 562              		.file 8 "../lib/e-puck2_main-processor/ChibiOS//os/rt/include/chbsem.h"
 563              		.loc 8 124 0
 564              		.cfi_startproc
 565              		@ args = 0, pretend = 0, frame = 16
 566              		@ frame_needed = 0, uses_anonymous_args = 0
 567 0000 00B5     		push	{lr}
 568              		.cfi_def_cfa_offset 4
 569              		.cfi_offset 14, -4
 570 0002 85B0     		sub	sp, sp, #20
ARM GAS  C:\Users\PCHAUT~1\AppData\Local\Temp\cc3k9865.s 			page 11


 571              		.cfi_def_cfa_offset 24
 572 0004 0190     		str	r0, [sp, #4]
 573 0006 0B46     		mov	r3, r1
 574 0008 8DF80330 		strb	r3, [sp, #3]
 575              		.loc 8 124 0
 576 000c 0B4B     		ldr	r3, .L50
 577 000e 1B68     		ldr	r3, [r3]
 578 0010 0393     		str	r3, [sp, #12]
 579              		.loc 8 126 0
 580 0012 019A     		ldr	r2, [sp, #4]
 581 0014 9DF80330 		ldrb	r3, [sp, #3]
 582 0018 83F00103 		eor	r3, r3, #1
 583 001c DBB2     		uxtb	r3, r3
 584 001e 1946     		mov	r1, r3
 585 0020 1046     		mov	r0, r2
 586 0022 FFF7FEFF 		bl	chSemObjectInit
 587              		.loc 8 127 0
 588 0026 00BF     		nop
 589 0028 044B     		ldr	r3, .L50
 590 002a 039A     		ldr	r2, [sp, #12]
 591 002c 1B68     		ldr	r3, [r3]
 592 002e 9A42     		cmp	r2, r3
 593 0030 01D0     		beq	.L49
 594 0032 FFF7FEFF 		bl	__stack_chk_fail
 595              	.L49:
 596 0036 05B0     		add	sp, sp, #20
 597              		.cfi_def_cfa_offset 4
 598              		@ sp needed
 599 0038 5DF804FB 		ldr	pc, [sp], #4
 600              	.L51:
 601              		.align	2
 602              	.L50:
 603 003c 00000000 		.word	__stack_chk_guard
 604              		.cfi_endproc
 605              	.LFE182:
 606              		.size	chBSemObjectInit, .-chBSemObjectInit
 607              		.section	.text.chBSemWait,"ax",%progbits
 608              		.align	1
 609              		.p2align 4,,15
 610              		.syntax unified
 611              		.thumb
 612              		.thumb_func
 613              		.fpu fpv4-sp-d16
 614              		.type	chBSemWait, %function
 615              	chBSemWait:
 616              	.LFB183:
 617              		.loc 8 141 0
 618              		.cfi_startproc
 619              		@ args = 0, pretend = 0, frame = 16
 620              		@ frame_needed = 0, uses_anonymous_args = 0
 621 0000 00B5     		push	{lr}
 622              		.cfi_def_cfa_offset 4
 623              		.cfi_offset 14, -4
 624 0002 85B0     		sub	sp, sp, #20
 625              		.cfi_def_cfa_offset 24
 626 0004 0190     		str	r0, [sp, #4]
 627              		.loc 8 141 0
ARM GAS  C:\Users\PCHAUT~1\AppData\Local\Temp\cc3k9865.s 			page 12


 628 0006 094B     		ldr	r3, .L55
 629 0008 1B68     		ldr	r3, [r3]
 630 000a 0393     		str	r3, [sp, #12]
 631              		.loc 8 143 0
 632 000c 019B     		ldr	r3, [sp, #4]
 633 000e 1846     		mov	r0, r3
 634 0010 FFF7FEFF 		bl	chSemWait
 635 0014 0346     		mov	r3, r0
 636              		.loc 8 144 0
 637 0016 1846     		mov	r0, r3
 638 0018 044B     		ldr	r3, .L55
 639 001a 039A     		ldr	r2, [sp, #12]
 640 001c 1B68     		ldr	r3, [r3]
 641 001e 9A42     		cmp	r2, r3
 642 0020 01D0     		beq	.L54
 643 0022 FFF7FEFF 		bl	__stack_chk_fail
 644              	.L54:
 645 0026 05B0     		add	sp, sp, #20
 646              		.cfi_def_cfa_offset 4
 647              		@ sp needed
 648 0028 5DF804FB 		ldr	pc, [sp], #4
 649              	.L56:
 650              		.align	2
 651              	.L55:
 652 002c 00000000 		.word	__stack_chk_guard
 653              		.cfi_endproc
 654              	.LFE183:
 655              		.size	chBSemWait, .-chBSemWait
 656              		.section	.text.chBSemReset,"ax",%progbits
 657              		.align	1
 658              		.p2align 4,,15
 659              		.syntax unified
 660              		.thumb
 661              		.thumb_func
 662              		.fpu fpv4-sp-d16
 663              		.type	chBSemReset, %function
 664              	chBSemReset:
 665              	.LFB188:
 666              		.loc 8 253 0
 667              		.cfi_startproc
 668              		@ args = 0, pretend = 0, frame = 16
 669              		@ frame_needed = 0, uses_anonymous_args = 0
 670 0000 00B5     		push	{lr}
 671              		.cfi_def_cfa_offset 4
 672              		.cfi_offset 14, -4
 673 0002 85B0     		sub	sp, sp, #20
 674              		.cfi_def_cfa_offset 24
 675 0004 0190     		str	r0, [sp, #4]
 676 0006 0B46     		mov	r3, r1
 677 0008 8DF80330 		strb	r3, [sp, #3]
 678              		.loc 8 253 0
 679 000c 0B4B     		ldr	r3, .L59
 680 000e 1B68     		ldr	r3, [r3]
 681 0010 0393     		str	r3, [sp, #12]
 682              		.loc 8 255 0
 683 0012 019A     		ldr	r2, [sp, #4]
 684 0014 9DF80330 		ldrb	r3, [sp, #3]
ARM GAS  C:\Users\PCHAUT~1\AppData\Local\Temp\cc3k9865.s 			page 13


 685 0018 83F00103 		eor	r3, r3, #1
 686 001c DBB2     		uxtb	r3, r3
 687 001e 1946     		mov	r1, r3
 688 0020 1046     		mov	r0, r2
 689 0022 FFF7FEFF 		bl	chSemReset
 690              		.loc 8 256 0
 691 0026 00BF     		nop
 692 0028 044B     		ldr	r3, .L59
 693 002a 039A     		ldr	r2, [sp, #12]
 694 002c 1B68     		ldr	r3, [r3]
 695 002e 9A42     		cmp	r2, r3
 696 0030 01D0     		beq	.L58
 697 0032 FFF7FEFF 		bl	__stack_chk_fail
 698              	.L58:
 699 0036 05B0     		add	sp, sp, #20
 700              		.cfi_def_cfa_offset 4
 701              		@ sp needed
 702 0038 5DF804FB 		ldr	pc, [sp], #4
 703              	.L60:
 704              		.align	2
 705              	.L59:
 706 003c 00000000 		.word	__stack_chk_guard
 707              		.cfi_endproc
 708              	.LFE188:
 709              		.size	chBSemReset, .-chBSemReset
 710              		.section	.text.chBSemSignalI,"ax",%progbits
 711              		.align	1
 712              		.p2align 4,,15
 713              		.syntax unified
 714              		.thumb
 715              		.thumb_func
 716              		.fpu fpv4-sp-d16
 717              		.type	chBSemSignalI, %function
 718              	chBSemSignalI:
 719              	.LFB189:
 720              		.loc 8 266 0
 721              		.cfi_startproc
 722              		@ args = 0, pretend = 0, frame = 16
 723              		@ frame_needed = 0, uses_anonymous_args = 0
 724 0000 00B5     		push	{lr}
 725              		.cfi_def_cfa_offset 4
 726              		.cfi_offset 14, -4
 727 0002 85B0     		sub	sp, sp, #20
 728              		.cfi_def_cfa_offset 24
 729 0004 0190     		str	r0, [sp, #4]
 730              		.loc 8 266 0
 731 0006 0C4B     		ldr	r3, .L65
 732 0008 1B68     		ldr	r3, [r3]
 733 000a 0393     		str	r3, [sp, #12]
 734              		.loc 8 268 0
 735 000c FFF7FEFF 		bl	chDbgCheckClassI
 736              		.loc 8 270 0
 737 0010 019B     		ldr	r3, [sp, #4]
 738 0012 9B68     		ldr	r3, [r3, #8]
 739 0014 002B     		cmp	r3, #0
 740 0016 03DC     		bgt	.L64
 741              		.loc 8 271 0
ARM GAS  C:\Users\PCHAUT~1\AppData\Local\Temp\cc3k9865.s 			page 14


 742 0018 019B     		ldr	r3, [sp, #4]
 743 001a 1846     		mov	r0, r3
 744 001c FFF7FEFF 		bl	chSemSignalI
 745              	.L64:
 746              		.loc 8 273 0
 747 0020 00BF     		nop
 748 0022 054B     		ldr	r3, .L65
 749 0024 039A     		ldr	r2, [sp, #12]
 750 0026 1B68     		ldr	r3, [r3]
 751 0028 9A42     		cmp	r2, r3
 752 002a 01D0     		beq	.L63
 753 002c FFF7FEFF 		bl	__stack_chk_fail
 754              	.L63:
 755 0030 05B0     		add	sp, sp, #20
 756              		.cfi_def_cfa_offset 4
 757              		@ sp needed
 758 0032 5DF804FB 		ldr	pc, [sp], #4
 759              	.L66:
 760 0036 00BF     		.align	2
 761              	.L65:
 762 0038 00000000 		.word	__stack_chk_guard
 763              		.cfi_endproc
 764              	.LFE189:
 765              		.size	chBSemSignalI, .-chBSemSignalI
 766              		.section	.text.chBSemSignal,"ax",%progbits
 767              		.align	1
 768              		.p2align 4,,15
 769              		.syntax unified
 770              		.thumb
 771              		.thumb_func
 772              		.fpu fpv4-sp-d16
 773              		.type	chBSemSignal, %function
 774              	chBSemSignal:
 775              	.LFB190:
 776              		.loc 8 282 0
 777              		.cfi_startproc
 778              		@ args = 0, pretend = 0, frame = 16
 779              		@ frame_needed = 0, uses_anonymous_args = 0
 780 0000 00B5     		push	{lr}
 781              		.cfi_def_cfa_offset 4
 782              		.cfi_offset 14, -4
 783 0002 85B0     		sub	sp, sp, #20
 784              		.cfi_def_cfa_offset 24
 785 0004 0190     		str	r0, [sp, #4]
 786              		.loc 8 282 0
 787 0006 0B4B     		ldr	r3, .L69
 788 0008 1B68     		ldr	r3, [r3]
 789 000a 0393     		str	r3, [sp, #12]
 790              		.loc 8 284 0
 791 000c FFF7FEFF 		bl	chSysLock
 792              		.loc 8 285 0
 793 0010 0198     		ldr	r0, [sp, #4]
 794 0012 FFF7FEFF 		bl	chBSemSignalI
 795              		.loc 8 286 0
 796 0016 FFF7FEFF 		bl	chSchRescheduleS
 797              		.loc 8 287 0
 798 001a FFF7FEFF 		bl	chSysUnlock
ARM GAS  C:\Users\PCHAUT~1\AppData\Local\Temp\cc3k9865.s 			page 15


 799              		.loc 8 288 0
 800 001e 00BF     		nop
 801 0020 044B     		ldr	r3, .L69
 802 0022 039A     		ldr	r2, [sp, #12]
 803 0024 1B68     		ldr	r3, [r3]
 804 0026 9A42     		cmp	r2, r3
 805 0028 01D0     		beq	.L68
 806 002a FFF7FEFF 		bl	__stack_chk_fail
 807              	.L68:
 808 002e 05B0     		add	sp, sp, #20
 809              		.cfi_def_cfa_offset 4
 810              		@ sp needed
 811 0030 5DF804FB 		ldr	pc, [sp], #4
 812              	.L70:
 813              		.align	2
 814              	.L69:
 815 0034 00000000 		.word	__stack_chk_guard
 816              		.cfi_endproc
 817              	.LFE190:
 818              		.size	chBSemSignal, .-chBSemSignal
 819              		.section	.text.chBSemGetStateI,"ax",%progbits
 820              		.align	1
 821              		.p2align 4,,15
 822              		.syntax unified
 823              		.thumb
 824              		.thumb_func
 825              		.fpu fpv4-sp-d16
 826              		.type	chBSemGetStateI, %function
 827              	chBSemGetStateI:
 828              	.LFB191:
 829              		.loc 8 300 0
 830              		.cfi_startproc
 831              		@ args = 0, pretend = 0, frame = 16
 832              		@ frame_needed = 0, uses_anonymous_args = 0
 833 0000 00B5     		push	{lr}
 834              		.cfi_def_cfa_offset 4
 835              		.cfi_offset 14, -4
 836 0002 85B0     		sub	sp, sp, #20
 837              		.cfi_def_cfa_offset 24
 838 0004 0190     		str	r0, [sp, #4]
 839              		.loc 8 300 0
 840 0006 0B4B     		ldr	r3, .L74
 841 0008 1B68     		ldr	r3, [r3]
 842 000a 0393     		str	r3, [sp, #12]
 843              		.loc 8 302 0
 844 000c FFF7FEFF 		bl	chDbgCheckClassI
 845              		.loc 8 304 0
 846 0010 019B     		ldr	r3, [sp, #4]
 847 0012 9B68     		ldr	r3, [r3, #8]
 848 0014 002B     		cmp	r3, #0
 849 0016 D4BF     		ite	le
 850 0018 0123     		movle	r3, #1
 851 001a 0023     		movgt	r3, #0
 852 001c DBB2     		uxtb	r3, r3
 853              		.loc 8 305 0
 854 001e 1846     		mov	r0, r3
 855 0020 044B     		ldr	r3, .L74
ARM GAS  C:\Users\PCHAUT~1\AppData\Local\Temp\cc3k9865.s 			page 16


 856 0022 039A     		ldr	r2, [sp, #12]
 857 0024 1B68     		ldr	r3, [r3]
 858 0026 9A42     		cmp	r2, r3
 859 0028 01D0     		beq	.L73
 860 002a FFF7FEFF 		bl	__stack_chk_fail
 861              	.L73:
 862 002e 05B0     		add	sp, sp, #20
 863              		.cfi_def_cfa_offset 4
 864              		@ sp needed
 865 0030 5DF804FB 		ldr	pc, [sp], #4
 866              	.L75:
 867              		.align	2
 868              	.L74:
 869 0034 00000000 		.word	__stack_chk_guard
 870              		.cfi_endproc
 871              	.LFE191:
 872              		.size	chBSemGetStateI, .-chBSemGetStateI
 873              		.section	.data.sem1,"aw",%progbits
 874              		.align	2
 875              		.type	sem1, %object
 876              		.size	sem1, 12
 877              	sem1:
 878 0000 00000000 		.word	sem1
 879 0004 00000000 		.word	sem1
 880 0008 00000000 		.word	0
 881              		.section	.text.sem1_setup,"ax",%progbits
 882              		.align	1
 883              		.p2align 4,,15
 884              		.syntax unified
 885              		.thumb
 886              		.thumb_func
 887              		.fpu fpv4-sp-d16
 888              		.type	sem1_setup, %function
 889              	sem1_setup:
 890              	.LFB219:
 891              		.file 9 "../lib/e-puck2_main-processor/ChibiOS//test/rt/testsem.c"
 892              		.loc 9 72 0
 893              		.cfi_startproc
 894              		@ args = 0, pretend = 0, frame = 8
 895              		@ frame_needed = 0, uses_anonymous_args = 0
 896 0000 00B5     		push	{lr}
 897              		.cfi_def_cfa_offset 4
 898              		.cfi_offset 14, -4
 899 0002 83B0     		sub	sp, sp, #12
 900              		.cfi_def_cfa_offset 16
 901              		.loc 9 72 0
 902 0004 084B     		ldr	r3, .L78
 903 0006 1B68     		ldr	r3, [r3]
 904 0008 0193     		str	r3, [sp, #4]
 905              		.loc 9 74 0
 906 000a 0021     		movs	r1, #0
 907 000c 0748     		ldr	r0, .L78+4
 908 000e FFF7FEFF 		bl	chSemObjectInit
 909              		.loc 9 75 0
 910 0012 00BF     		nop
 911 0014 044B     		ldr	r3, .L78
 912 0016 019A     		ldr	r2, [sp, #4]
ARM GAS  C:\Users\PCHAUT~1\AppData\Local\Temp\cc3k9865.s 			page 17


 913 0018 1B68     		ldr	r3, [r3]
 914 001a 9A42     		cmp	r2, r3
 915 001c 01D0     		beq	.L77
 916 001e FFF7FEFF 		bl	__stack_chk_fail
 917              	.L77:
 918 0022 03B0     		add	sp, sp, #12
 919              		.cfi_def_cfa_offset 4
 920              		@ sp needed
 921 0024 5DF804FB 		ldr	pc, [sp], #4
 922              	.L79:
 923              		.align	2
 924              	.L78:
 925 0028 00000000 		.word	__stack_chk_guard
 926 002c 00000000 		.word	sem1
 927              		.cfi_endproc
 928              	.LFE219:
 929              		.size	sem1_setup, .-sem1_setup
 930              		.section	.text.thread1,"ax",%progbits
 931              		.align	1
 932              		.p2align 4,,15
 933              		.syntax unified
 934              		.thumb
 935              		.thumb_func
 936              		.fpu fpv4-sp-d16
 937              		.type	thread1, %function
 938              	thread1:
 939              	.LFB220:
 940              		.loc 9 77 0
 941              		.cfi_startproc
 942              		@ args = 0, pretend = 0, frame = 16
 943              		@ frame_needed = 0, uses_anonymous_args = 0
 944 0000 00B5     		push	{lr}
 945              		.cfi_def_cfa_offset 4
 946              		.cfi_offset 14, -4
 947 0002 85B0     		sub	sp, sp, #20
 948              		.cfi_def_cfa_offset 24
 949 0004 0190     		str	r0, [sp, #4]
 950              		.loc 9 77 0
 951 0006 0B4B     		ldr	r3, .L82
 952 0008 1B68     		ldr	r3, [r3]
 953 000a 0393     		str	r3, [sp, #12]
 954              		.loc 9 79 0
 955 000c 0A48     		ldr	r0, .L82+4
 956 000e FFF7FEFF 		bl	chSemWait
 957              		.loc 9 80 0
 958 0012 019B     		ldr	r3, [sp, #4]
 959 0014 1B78     		ldrb	r3, [r3]	@ zero_extendqisi2
 960 0016 1846     		mov	r0, r3
 961 0018 FFF7FEFF 		bl	test_emit_token
 962              		.loc 9 81 0
 963 001c 00BF     		nop
 964 001e 054B     		ldr	r3, .L82
 965 0020 039A     		ldr	r2, [sp, #12]
 966 0022 1B68     		ldr	r3, [r3]
 967 0024 9A42     		cmp	r2, r3
 968 0026 01D0     		beq	.L81
 969 0028 FFF7FEFF 		bl	__stack_chk_fail
ARM GAS  C:\Users\PCHAUT~1\AppData\Local\Temp\cc3k9865.s 			page 18


 970              	.L81:
 971 002c 05B0     		add	sp, sp, #20
 972              		.cfi_def_cfa_offset 4
 973              		@ sp needed
 974 002e 5DF804FB 		ldr	pc, [sp], #4
 975              	.L83:
 976 0032 00BF     		.align	2
 977              	.L82:
 978 0034 00000000 		.word	__stack_chk_guard
 979 0038 00000000 		.word	sem1
 980              		.cfi_endproc
 981              	.LFE220:
 982              		.size	thread1, .-thread1
 983              		.section	.rodata
 984              		.align	2
 985              	.LC0:
 986 0000 4100     		.ascii	"A\000"
 987 0002 0000     		.align	2
 988              	.LC1:
 989 0004 4200     		.ascii	"B\000"
 990 0006 0000     		.align	2
 991              	.LC2:
 992 0008 4300     		.ascii	"C\000"
 993 000a 0000     		.align	2
 994              	.LC3:
 995 000c 4400     		.ascii	"D\000"
 996 000e 0000     		.align	2
 997              	.LC4:
 998 0010 4500     		.ascii	"E\000"
 999 0012 0000     		.align	2
 1000              	.LC5:
 1001 0014 41424344 		.ascii	"ABCDE\000"
 1001      4500
 1002              		.section	.text.sem1_execute,"ax",%progbits
 1003              		.align	1
 1004              		.p2align 4,,15
 1005              		.syntax unified
 1006              		.thumb
 1007              		.thumb_func
 1008              		.fpu fpv4-sp-d16
 1009              		.type	sem1_execute, %function
 1010              	sem1_execute:
 1011              	.LFB221:
 1012              		.loc 9 83 0
 1013              		.cfi_startproc
 1014              		@ args = 0, pretend = 0, frame = 8
 1015              		@ frame_needed = 0, uses_anonymous_args = 0
 1016 0000 10B5     		push	{r4, lr}
 1017              		.cfi_def_cfa_offset 8
 1018              		.cfi_offset 4, -8
 1019              		.cfi_offset 14, -4
 1020 0002 84B0     		sub	sp, sp, #16
 1021              		.cfi_def_cfa_offset 24
 1022              		.loc 9 83 0
 1023 0004 574B     		ldr	r3, .L90
 1024 0006 1B68     		ldr	r3, [r3]
 1025 0008 0393     		str	r3, [sp, #12]
ARM GAS  C:\Users\PCHAUT~1\AppData\Local\Temp\cc3k9865.s 			page 19


 1026              		.loc 9 85 0
 1027 000a 574B     		ldr	r3, .L90+4
 1028 000c 1C68     		ldr	r4, [r3]
 1029 000e FFF7FEFF 		bl	chThdGetPriorityX
 1030 0012 0346     		mov	r3, r0
 1031 0014 5A1D     		adds	r2, r3, #5
 1032 0016 554B     		ldr	r3, .L90+8
 1033 0018 0093     		str	r3, [sp]
 1034 001a 554B     		ldr	r3, .L90+12
 1035 001c 4FF4FC71 		mov	r1, #504
 1036 0020 2046     		mov	r0, r4
 1037 0022 FFF7FEFF 		bl	chThdCreateStatic
 1038 0026 0246     		mov	r2, r0
 1039 0028 524B     		ldr	r3, .L90+16
 1040 002a 1A60     		str	r2, [r3]
 1041              		.loc 9 86 0
 1042 002c 4E4B     		ldr	r3, .L90+4
 1043 002e 5C68     		ldr	r4, [r3, #4]
 1044 0030 FFF7FEFF 		bl	chThdGetPriorityX
 1045 0034 0346     		mov	r3, r0
 1046 0036 5A1C     		adds	r2, r3, #1
 1047 0038 4F4B     		ldr	r3, .L90+20
 1048 003a 0093     		str	r3, [sp]
 1049 003c 4C4B     		ldr	r3, .L90+12
 1050 003e 4FF4FC71 		mov	r1, #504
 1051 0042 2046     		mov	r0, r4
 1052 0044 FFF7FEFF 		bl	chThdCreateStatic
 1053 0048 0246     		mov	r2, r0
 1054 004a 4A4B     		ldr	r3, .L90+16
 1055 004c 5A60     		str	r2, [r3, #4]
 1056              		.loc 9 87 0
 1057 004e 464B     		ldr	r3, .L90+4
 1058 0050 9C68     		ldr	r4, [r3, #8]
 1059 0052 FFF7FEFF 		bl	chThdGetPriorityX
 1060 0056 0346     		mov	r3, r0
 1061 0058 DA1C     		adds	r2, r3, #3
 1062 005a 484B     		ldr	r3, .L90+24
 1063 005c 0093     		str	r3, [sp]
 1064 005e 444B     		ldr	r3, .L90+12
 1065 0060 4FF4FC71 		mov	r1, #504
 1066 0064 2046     		mov	r0, r4
 1067 0066 FFF7FEFF 		bl	chThdCreateStatic
 1068 006a 0246     		mov	r2, r0
 1069 006c 414B     		ldr	r3, .L90+16
 1070 006e 9A60     		str	r2, [r3, #8]
 1071              		.loc 9 88 0
 1072 0070 3D4B     		ldr	r3, .L90+4
 1073 0072 DC68     		ldr	r4, [r3, #12]
 1074 0074 FFF7FEFF 		bl	chThdGetPriorityX
 1075 0078 0346     		mov	r3, r0
 1076 007a 1A1D     		adds	r2, r3, #4
 1077 007c 404B     		ldr	r3, .L90+28
 1078 007e 0093     		str	r3, [sp]
 1079 0080 3B4B     		ldr	r3, .L90+12
 1080 0082 4FF4FC71 		mov	r1, #504
 1081 0086 2046     		mov	r0, r4
 1082 0088 FFF7FEFF 		bl	chThdCreateStatic
ARM GAS  C:\Users\PCHAUT~1\AppData\Local\Temp\cc3k9865.s 			page 20


 1083 008c 0246     		mov	r2, r0
 1084 008e 394B     		ldr	r3, .L90+16
 1085 0090 DA60     		str	r2, [r3, #12]
 1086              		.loc 9 89 0
 1087 0092 354B     		ldr	r3, .L90+4
 1088 0094 1C69     		ldr	r4, [r3, #16]
 1089 0096 FFF7FEFF 		bl	chThdGetPriorityX
 1090 009a 0346     		mov	r3, r0
 1091 009c 9A1C     		adds	r2, r3, #2
 1092 009e 394B     		ldr	r3, .L90+32
 1093 00a0 0093     		str	r3, [sp]
 1094 00a2 334B     		ldr	r3, .L90+12
 1095 00a4 4FF4FC71 		mov	r1, #504
 1096 00a8 2046     		mov	r0, r4
 1097 00aa FFF7FEFF 		bl	chThdCreateStatic
 1098 00ae 0246     		mov	r2, r0
 1099 00b0 304B     		ldr	r3, .L90+16
 1100 00b2 1A61     		str	r2, [r3, #16]
 1101              		.loc 9 90 0
 1102 00b4 3448     		ldr	r0, .L90+36
 1103 00b6 FFF7FEFF 		bl	chSemSignal
 1104              		.loc 9 91 0
 1105 00ba 3348     		ldr	r0, .L90+36
 1106 00bc FFF7FEFF 		bl	chSemSignal
 1107              		.loc 9 92 0
 1108 00c0 3148     		ldr	r0, .L90+36
 1109 00c2 FFF7FEFF 		bl	chSemSignal
 1110              		.loc 9 93 0
 1111 00c6 3048     		ldr	r0, .L90+36
 1112 00c8 FFF7FEFF 		bl	chSemSignal
 1113              		.loc 9 94 0
 1114 00cc 2E48     		ldr	r0, .L90+36
 1115 00ce FFF7FEFF 		bl	chSemSignal
 1116              		.loc 9 95 0
 1117 00d2 FFF7FEFF 		bl	test_wait_threads
 1118              		.loc 9 99 0
 1119 00d6 2D49     		ldr	r1, .L90+40
 1120 00d8 0120     		movs	r0, #1
 1121 00da FFF7FEFF 		bl	_test_assert_sequence
 1122 00de 0346     		mov	r3, r0
 1123 00e0 002B     		cmp	r3, #0
 1124 00e2 34D1     		bne	.L89
 1125              		.loc 9 101 0
 1126 00e4 204B     		ldr	r3, .L90+4
 1127 00e6 1C68     		ldr	r4, [r3]
 1128 00e8 FFF7FEFF 		bl	chThdGetPriorityX
 1129 00ec 0346     		mov	r3, r0
 1130 00ee 5A1D     		adds	r2, r3, #5
 1131 00f0 1E4B     		ldr	r3, .L90+8
 1132 00f2 0093     		str	r3, [sp]
 1133 00f4 1E4B     		ldr	r3, .L90+12
 1134 00f6 4FF4FC71 		mov	r1, #504
 1135 00fa 2046     		mov	r0, r4
 1136 00fc FFF7FEFF 		bl	chThdCreateStatic
 1137 0100 0246     		mov	r2, r0
 1138 0102 1C4B     		ldr	r3, .L90+16
 1139 0104 1A60     		str	r2, [r3]
ARM GAS  C:\Users\PCHAUT~1\AppData\Local\Temp\cc3k9865.s 			page 21


 1140              		.loc 9 102 0
 1141 0106 FFF7FEFF 		bl	chSysLock
 1142              		.loc 9 103 0
 1143 010a 0221     		movs	r1, #2
 1144 010c 1E48     		ldr	r0, .L90+36
 1145 010e FFF7FEFF 		bl	chSemAddCounterI
 1146              		.loc 9 104 0
 1147 0112 FFF7FEFF 		bl	chSchRescheduleS
 1148              		.loc 9 105 0
 1149 0116 FFF7FEFF 		bl	chSysUnlock
 1150              		.loc 9 106 0
 1151 011a FFF7FEFF 		bl	test_wait_threads
 1152              		.loc 9 107 0
 1153 011e FFF7FEFF 		bl	chSysLock
 1154 0122 1948     		ldr	r0, .L90+36
 1155 0124 FFF7FEFF 		bl	chSemGetCounterI
 1156 0128 0346     		mov	r3, r0
 1157 012a 012B     		cmp	r3, #1
 1158 012c 0CBF     		ite	eq
 1159 012e 0123     		moveq	r3, #1
 1160 0130 0023     		movne	r3, #0
 1161 0132 DBB2     		uxtb	r3, r3
 1162 0134 1946     		mov	r1, r3
 1163 0136 0220     		movs	r0, #2
 1164 0138 FFF7FEFF 		bl	_test_assert
 1165 013c 0346     		mov	r3, r0
 1166 013e 002B     		cmp	r3, #0
 1167 0140 02D0     		beq	.L87
 1168              		.loc 9 107 0 is_stmt 0 discriminator 1
 1169 0142 FFF7FEFF 		bl	chSysUnlock
 1170 0146 03E0     		b	.L84
 1171              	.L87:
 1172              		.loc 9 107 0 discriminator 2
 1173 0148 FFF7FEFF 		bl	chSysUnlock
 1174 014c 00E0     		b	.L84
 1175              	.L89:
 1176              		.loc 9 99 0 is_stmt 1
 1177 014e 00BF     		nop
 1178              	.L84:
 1179              		.loc 9 108 0
 1180 0150 044B     		ldr	r3, .L90
 1181 0152 039A     		ldr	r2, [sp, #12]
 1182 0154 1B68     		ldr	r3, [r3]
 1183 0156 9A42     		cmp	r2, r3
 1184 0158 01D0     		beq	.L88
 1185 015a FFF7FEFF 		bl	__stack_chk_fail
 1186              	.L88:
 1187 015e 04B0     		add	sp, sp, #16
 1188              		.cfi_def_cfa_offset 8
 1189              		@ sp needed
 1190 0160 10BD     		pop	{r4, pc}
 1191              	.L91:
 1192 0162 00BF     		.align	2
 1193              	.L90:
 1194 0164 00000000 		.word	__stack_chk_guard
 1195 0168 00000000 		.word	wa
 1196 016c 00000000 		.word	.LC0
ARM GAS  C:\Users\PCHAUT~1\AppData\Local\Temp\cc3k9865.s 			page 22


 1197 0170 00000000 		.word	thread1
 1198 0174 00000000 		.word	threads
 1199 0178 04000000 		.word	.LC1
 1200 017c 08000000 		.word	.LC2
 1201 0180 0C000000 		.word	.LC3
 1202 0184 10000000 		.word	.LC4
 1203 0188 00000000 		.word	sem1
 1204 018c 14000000 		.word	.LC5
 1205              		.cfi_endproc
 1206              	.LFE221:
 1207              		.size	sem1_execute, .-sem1_execute
 1208              		.global	testsem1
 1209              		.section	.rodata
 1210 001a 0000     		.align	2
 1211              	.LC6:
 1212 001c 53656D61 		.ascii	"Semaphores, enqueuing\000"
 1212      70686F72 
 1212      65732C20 
 1212      656E7175 
 1212      6575696E 
 1213              		.section	.rodata.testsem1,"a",%progbits
 1214              		.align	2
 1215              		.type	testsem1, %object
 1216              		.size	testsem1, 16
 1217              	testsem1:
 1218 0000 1C000000 		.word	.LC6
 1219 0004 00000000 		.word	sem1_setup
 1220 0008 00000000 		.word	0
 1221 000c 00000000 		.word	sem1_execute
 1222              		.section	.text.sem2_setup,"ax",%progbits
 1223              		.align	1
 1224              		.p2align 4,,15
 1225              		.syntax unified
 1226              		.thumb
 1227              		.thumb_func
 1228              		.fpu fpv4-sp-d16
 1229              		.type	sem2_setup, %function
 1230              	sem2_setup:
 1231              	.LFB222:
 1232              		.loc 9 128 0
 1233              		.cfi_startproc
 1234              		@ args = 0, pretend = 0, frame = 8
 1235              		@ frame_needed = 0, uses_anonymous_args = 0
 1236 0000 00B5     		push	{lr}
 1237              		.cfi_def_cfa_offset 4
 1238              		.cfi_offset 14, -4
 1239 0002 83B0     		sub	sp, sp, #12
 1240              		.cfi_def_cfa_offset 16
 1241              		.loc 9 128 0
 1242 0004 084B     		ldr	r3, .L94
 1243 0006 1B68     		ldr	r3, [r3]
 1244 0008 0193     		str	r3, [sp, #4]
 1245              		.loc 9 130 0
 1246 000a 0021     		movs	r1, #0
 1247 000c 0748     		ldr	r0, .L94+4
 1248 000e FFF7FEFF 		bl	chSemObjectInit
 1249              		.loc 9 131 0
ARM GAS  C:\Users\PCHAUT~1\AppData\Local\Temp\cc3k9865.s 			page 23


 1250 0012 00BF     		nop
 1251 0014 044B     		ldr	r3, .L94
 1252 0016 019A     		ldr	r2, [sp, #4]
 1253 0018 1B68     		ldr	r3, [r3]
 1254 001a 9A42     		cmp	r2, r3
 1255 001c 01D0     		beq	.L93
 1256 001e FFF7FEFF 		bl	__stack_chk_fail
 1257              	.L93:
 1258 0022 03B0     		add	sp, sp, #12
 1259              		.cfi_def_cfa_offset 4
 1260              		@ sp needed
 1261 0024 5DF804FB 		ldr	pc, [sp], #4
 1262              	.L95:
 1263              		.align	2
 1264              	.L94:
 1265 0028 00000000 		.word	__stack_chk_guard
 1266 002c 00000000 		.word	sem1
 1267              		.cfi_endproc
 1268              	.LFE222:
 1269              		.size	sem2_setup, .-sem2_setup
 1270              		.section	.text.thread2,"ax",%progbits
 1271              		.align	1
 1272              		.p2align 4,,15
 1273              		.syntax unified
 1274              		.thumb
 1275              		.thumb_func
 1276              		.fpu fpv4-sp-d16
 1277              		.type	thread2, %function
 1278              	thread2:
 1279              	.LFB223:
 1280              		.loc 9 133 0
 1281              		.cfi_startproc
 1282              		@ args = 0, pretend = 0, frame = 16
 1283              		@ frame_needed = 0, uses_anonymous_args = 0
 1284 0000 00B5     		push	{lr}
 1285              		.cfi_def_cfa_offset 4
 1286              		.cfi_offset 14, -4
 1287 0002 85B0     		sub	sp, sp, #20
 1288              		.cfi_def_cfa_offset 24
 1289 0004 0190     		str	r0, [sp, #4]
 1290              		.loc 9 133 0
 1291 0006 0D4B     		ldr	r3, .L98
 1292 0008 1B68     		ldr	r3, [r3]
 1293 000a 0393     		str	r3, [sp, #12]
 1294              		.loc 9 136 0
 1295 000c 3220     		movs	r0, #50
 1296 000e FFF7FEFF 		bl	chThdSleep
 1297              		.loc 9 137 0
 1298 0012 FFF7FEFF 		bl	chSysLock
 1299              		.loc 9 138 0
 1300 0016 0A48     		ldr	r0, .L98+4
 1301 0018 FFF7FEFF 		bl	chSemSignalI
 1302              		.loc 9 139 0
 1303 001c FFF7FEFF 		bl	chSchRescheduleS
 1304              		.loc 9 140 0
 1305 0020 FFF7FEFF 		bl	chSysUnlock
 1306              		.loc 9 141 0
ARM GAS  C:\Users\PCHAUT~1\AppData\Local\Temp\cc3k9865.s 			page 24


 1307 0024 00BF     		nop
 1308 0026 054B     		ldr	r3, .L98
 1309 0028 039A     		ldr	r2, [sp, #12]
 1310 002a 1B68     		ldr	r3, [r3]
 1311 002c 9A42     		cmp	r2, r3
 1312 002e 01D0     		beq	.L97
 1313 0030 FFF7FEFF 		bl	__stack_chk_fail
 1314              	.L97:
 1315 0034 05B0     		add	sp, sp, #20
 1316              		.cfi_def_cfa_offset 4
 1317              		@ sp needed
 1318 0036 5DF804FB 		ldr	pc, [sp], #4
 1319              	.L99:
 1320 003a 00BF     		.align	2
 1321              	.L98:
 1322 003c 00000000 		.word	__stack_chk_guard
 1323 0040 00000000 		.word	sem1
 1324              		.cfi_endproc
 1325              	.LFE223:
 1326              		.size	thread2, .-thread2
 1327              		.section	.text.sem2_execute,"ax",%progbits
 1328              		.align	1
 1329              		.p2align 4,,15
 1330              		.syntax unified
 1331              		.thumb
 1332              		.thumb_func
 1333              		.fpu fpv4-sp-d16
 1334              		.type	sem2_execute, %function
 1335              	sem2_execute:
 1336              	.LFB224:
 1337              		.loc 9 143 0
 1338              		.cfi_startproc
 1339              		@ args = 0, pretend = 0, frame = 16
 1340              		@ frame_needed = 0, uses_anonymous_args = 0
 1341 0000 10B5     		push	{r4, lr}
 1342              		.cfi_def_cfa_offset 8
 1343              		.cfi_offset 4, -8
 1344              		.cfi_offset 14, -4
 1345 0002 86B0     		sub	sp, sp, #24
 1346              		.cfi_def_cfa_offset 32
 1347              		.loc 9 143 0
 1348 0004 704B     		ldr	r3, .L125
 1349 0006 1B68     		ldr	r3, [r3]
 1350 0008 0593     		str	r3, [sp, #20]
 1351              		.loc 9 151 0
 1352 000a 0021     		movs	r1, #0
 1353 000c 6F48     		ldr	r0, .L125+4
 1354 000e FFF7FEFF 		bl	chSemWaitTimeout
 1355 0012 0390     		str	r0, [sp, #12]
 1356              		.loc 9 152 0
 1357 0014 039B     		ldr	r3, [sp, #12]
 1358 0016 B3F1FF3F 		cmp	r3, #-1
 1359 001a 0CBF     		ite	eq
 1360 001c 0123     		moveq	r3, #1
 1361 001e 0023     		movne	r3, #0
 1362 0020 DBB2     		uxtb	r3, r3
 1363 0022 1946     		mov	r1, r3
ARM GAS  C:\Users\PCHAUT~1\AppData\Local\Temp\cc3k9865.s 			page 25


 1364 0024 0120     		movs	r0, #1
 1365 0026 FFF7FEFF 		bl	_test_assert
 1366 002a 0346     		mov	r3, r0
 1367 002c 002B     		cmp	r3, #0
 1368 002e 40F0AE80 		bne	.L115
 1369              		.loc 9 153 0
 1370 0032 6648     		ldr	r0, .L125+4
 1371 0034 FFF7FEFF 		bl	queue_isempty
 1372 0038 0346     		mov	r3, r0
 1373 003a 1946     		mov	r1, r3
 1374 003c 0220     		movs	r0, #2
 1375 003e FFF7FEFF 		bl	_test_assert
 1376 0042 0346     		mov	r3, r0
 1377 0044 002B     		cmp	r3, #0
 1378 0046 40F0A480 		bne	.L116
 1379              		.loc 9 154 0
 1380 004a 604B     		ldr	r3, .L125+4
 1381 004c 9B68     		ldr	r3, [r3, #8]
 1382 004e 002B     		cmp	r3, #0
 1383 0050 0CBF     		ite	eq
 1384 0052 0123     		moveq	r3, #1
 1385 0054 0023     		movne	r3, #0
 1386 0056 DBB2     		uxtb	r3, r3
 1387 0058 1946     		mov	r1, r3
 1388 005a 0320     		movs	r0, #3
 1389 005c FFF7FEFF 		bl	_test_assert
 1390 0060 0346     		mov	r3, r0
 1391 0062 002B     		cmp	r3, #0
 1392 0064 40F09780 		bne	.L117
 1393              		.loc 9 159 0
 1394 0068 594B     		ldr	r3, .L125+8
 1395 006a 1C68     		ldr	r4, [r3]
 1396 006c FFF7FEFF 		bl	chThdGetPriorityX
 1397 0070 0346     		mov	r3, r0
 1398 0072 5A1E     		subs	r2, r3, #1
 1399 0074 0023     		movs	r3, #0
 1400 0076 0093     		str	r3, [sp]
 1401 0078 564B     		ldr	r3, .L125+12
 1402 007a 4FF4FC71 		mov	r1, #504
 1403 007e 2046     		mov	r0, r4
 1404 0080 FFF7FEFF 		bl	chThdCreateStatic
 1405 0084 0246     		mov	r2, r0
 1406 0086 544B     		ldr	r3, .L125+16
 1407 0088 1A60     		str	r2, [r3]
 1408              		.loc 9 161 0
 1409 008a 4FF4FA71 		mov	r1, #500
 1410 008e 4F48     		ldr	r0, .L125+4
 1411 0090 FFF7FEFF 		bl	chSemWaitTimeout
 1412 0094 0390     		str	r0, [sp, #12]
 1413              		.loc 9 162 0
 1414 0096 FFF7FEFF 		bl	test_wait_threads
 1415              		.loc 9 163 0
 1416 009a 039B     		ldr	r3, [sp, #12]
 1417 009c 002B     		cmp	r3, #0
 1418 009e 0CBF     		ite	eq
 1419 00a0 0123     		moveq	r3, #1
 1420 00a2 0023     		movne	r3, #0
ARM GAS  C:\Users\PCHAUT~1\AppData\Local\Temp\cc3k9865.s 			page 26


 1421 00a4 DBB2     		uxtb	r3, r3
 1422 00a6 1946     		mov	r1, r3
 1423 00a8 0420     		movs	r0, #4
 1424 00aa FFF7FEFF 		bl	_test_assert
 1425 00ae 0346     		mov	r3, r0
 1426 00b0 002B     		cmp	r3, #0
 1427 00b2 72D1     		bne	.L118
 1428              		.loc 9 164 0
 1429 00b4 4548     		ldr	r0, .L125+4
 1430 00b6 FFF7FEFF 		bl	queue_isempty
 1431 00ba 0346     		mov	r3, r0
 1432 00bc 1946     		mov	r1, r3
 1433 00be 0520     		movs	r0, #5
 1434 00c0 FFF7FEFF 		bl	_test_assert
 1435 00c4 0346     		mov	r3, r0
 1436 00c6 002B     		cmp	r3, #0
 1437 00c8 69D1     		bne	.L119
 1438              		.loc 9 165 0
 1439 00ca 404B     		ldr	r3, .L125+4
 1440 00cc 9B68     		ldr	r3, [r3, #8]
 1441 00ce 002B     		cmp	r3, #0
 1442 00d0 0CBF     		ite	eq
 1443 00d2 0123     		moveq	r3, #1
 1444 00d4 0023     		movne	r3, #0
 1445 00d6 DBB2     		uxtb	r3, r3
 1446 00d8 1946     		mov	r1, r3
 1447 00da 0620     		movs	r0, #6
 1448 00dc FFF7FEFF 		bl	_test_assert
 1449 00e0 0346     		mov	r3, r0
 1450 00e2 002B     		cmp	r3, #0
 1451 00e4 5DD1     		bne	.L120
 1452              		.loc 9 170 0
 1453 00e6 FFF7FEFF 		bl	test_wait_tick
 1454              		.loc 9 171 0
 1455 00ea FFF7FEFF 		bl	chVTGetSystemTime
 1456 00ee 0346     		mov	r3, r0
 1457 00f0 FA33     		adds	r3, r3, #250
 1458 00f2 0493     		str	r3, [sp, #16]
 1459              		.loc 9 172 0
 1460 00f4 0023     		movs	r3, #0
 1461 00f6 0293     		str	r3, [sp, #8]
 1462 00f8 35E0     		b	.L108
 1463              	.L112:
 1464              		.loc 9 173 0
 1465 00fa 029B     		ldr	r3, [sp, #8]
 1466 00fc DBB2     		uxtb	r3, r3
 1467 00fe 4133     		adds	r3, r3, #65
 1468 0100 DBB2     		uxtb	r3, r3
 1469 0102 1846     		mov	r0, r3
 1470 0104 FFF7FEFF 		bl	test_emit_token
 1471              		.loc 9 174 0
 1472 0108 3221     		movs	r1, #50
 1473 010a 3048     		ldr	r0, .L125+4
 1474 010c FFF7FEFF 		bl	chSemWaitTimeout
 1475 0110 0390     		str	r0, [sp, #12]
 1476              		.loc 9 175 0
 1477 0112 039B     		ldr	r3, [sp, #12]
ARM GAS  C:\Users\PCHAUT~1\AppData\Local\Temp\cc3k9865.s 			page 27


 1478 0114 B3F1FF3F 		cmp	r3, #-1
 1479 0118 0CBF     		ite	eq
 1480 011a 0123     		moveq	r3, #1
 1481 011c 0023     		movne	r3, #0
 1482 011e DBB2     		uxtb	r3, r3
 1483 0120 1946     		mov	r1, r3
 1484 0122 0720     		movs	r0, #7
 1485 0124 FFF7FEFF 		bl	_test_assert
 1486 0128 0346     		mov	r3, r0
 1487 012a 002B     		cmp	r3, #0
 1488 012c 3BD1     		bne	.L121
 1489              		.loc 9 176 0
 1490 012e 2748     		ldr	r0, .L125+4
 1491 0130 FFF7FEFF 		bl	queue_isempty
 1492 0134 0346     		mov	r3, r0
 1493 0136 1946     		mov	r1, r3
 1494 0138 0820     		movs	r0, #8
 1495 013a FFF7FEFF 		bl	_test_assert
 1496 013e 0346     		mov	r3, r0
 1497 0140 002B     		cmp	r3, #0
 1498 0142 32D1     		bne	.L122
 1499              		.loc 9 177 0
 1500 0144 214B     		ldr	r3, .L125+4
 1501 0146 9B68     		ldr	r3, [r3, #8]
 1502 0148 002B     		cmp	r3, #0
 1503 014a 0CBF     		ite	eq
 1504 014c 0123     		moveq	r3, #1
 1505 014e 0023     		movne	r3, #0
 1506 0150 DBB2     		uxtb	r3, r3
 1507 0152 1946     		mov	r1, r3
 1508 0154 0920     		movs	r0, #9
 1509 0156 FFF7FEFF 		bl	_test_assert
 1510 015a 0346     		mov	r3, r0
 1511 015c 002B     		cmp	r3, #0
 1512 015e 26D1     		bne	.L123
 1513              		.loc 9 172 0 discriminator 2
 1514 0160 029B     		ldr	r3, [sp, #8]
 1515 0162 0133     		adds	r3, r3, #1
 1516 0164 0293     		str	r3, [sp, #8]
 1517              	.L108:
 1518              		.loc 9 172 0 is_stmt 0 discriminator 1
 1519 0166 029B     		ldr	r3, [sp, #8]
 1520 0168 042B     		cmp	r3, #4
 1521 016a C6DD     		ble	.L112
 1522              		.loc 9 179 0 is_stmt 1
 1523 016c 1B49     		ldr	r1, .L125+20
 1524 016e 0A20     		movs	r0, #10
 1525 0170 FFF7FEFF 		bl	_test_assert_sequence
 1526 0174 0346     		mov	r3, r0
 1527 0176 002B     		cmp	r3, #0
 1528 0178 1BD1     		bne	.L124
 1529              		.loc 9 180 0
 1530 017a 049B     		ldr	r3, [sp, #16]
 1531 017c 0233     		adds	r3, r3, #2
 1532 017e 1A46     		mov	r2, r3
 1533 0180 0499     		ldr	r1, [sp, #16]
 1534 0182 0B20     		movs	r0, #11
ARM GAS  C:\Users\PCHAUT~1\AppData\Local\Temp\cc3k9865.s 			page 28


 1535 0184 FFF7FEFF 		bl	_test_assert_time_window
 1536 0188 0346     		mov	r3, r0
 1537 018a 002B     		cmp	r3, #0
 1538 018c 12E0     		b	.L100
 1539              	.L115:
 1540              		.loc 9 152 0
 1541 018e 00BF     		nop
 1542 0190 10E0     		b	.L100
 1543              	.L116:
 1544              		.loc 9 153 0
 1545 0192 00BF     		nop
 1546 0194 0EE0     		b	.L100
 1547              	.L117:
 1548              		.loc 9 154 0
 1549 0196 00BF     		nop
 1550 0198 0CE0     		b	.L100
 1551              	.L118:
 1552              		.loc 9 163 0
 1553 019a 00BF     		nop
 1554 019c 0AE0     		b	.L100
 1555              	.L119:
 1556              		.loc 9 164 0
 1557 019e 00BF     		nop
 1558 01a0 08E0     		b	.L100
 1559              	.L120:
 1560              		.loc 9 165 0
 1561 01a2 00BF     		nop
 1562 01a4 06E0     		b	.L100
 1563              	.L121:
 1564              		.loc 9 175 0
 1565 01a6 00BF     		nop
 1566 01a8 04E0     		b	.L100
 1567              	.L122:
 1568              		.loc 9 176 0
 1569 01aa 00BF     		nop
 1570 01ac 02E0     		b	.L100
 1571              	.L123:
 1572              		.loc 9 177 0
 1573 01ae 00BF     		nop
 1574 01b0 00E0     		b	.L100
 1575              	.L124:
 1576              		.loc 9 179 0
 1577 01b2 00BF     		nop
 1578              	.L100:
 1579              		.loc 9 181 0
 1580 01b4 044B     		ldr	r3, .L125
 1581 01b6 059A     		ldr	r2, [sp, #20]
 1582 01b8 1B68     		ldr	r3, [r3]
 1583 01ba 9A42     		cmp	r2, r3
 1584 01bc 01D0     		beq	.L114
 1585 01be FFF7FEFF 		bl	__stack_chk_fail
 1586              	.L114:
 1587 01c2 06B0     		add	sp, sp, #24
 1588              		.cfi_def_cfa_offset 8
 1589              		@ sp needed
 1590 01c4 10BD     		pop	{r4, pc}
 1591              	.L126:
ARM GAS  C:\Users\PCHAUT~1\AppData\Local\Temp\cc3k9865.s 			page 29


 1592 01c6 00BF     		.align	2
 1593              	.L125:
 1594 01c8 00000000 		.word	__stack_chk_guard
 1595 01cc 00000000 		.word	sem1
 1596 01d0 00000000 		.word	wa
 1597 01d4 00000000 		.word	thread2
 1598 01d8 00000000 		.word	threads
 1599 01dc 14000000 		.word	.LC5
 1600              		.cfi_endproc
 1601              	.LFE224:
 1602              		.size	sem2_execute, .-sem2_execute
 1603              		.global	testsem2
 1604              		.section	.rodata
 1605 0032 0000     		.align	2
 1606              	.LC7:
 1607 0034 53656D61 		.ascii	"Semaphores, timeout\000"
 1607      70686F72 
 1607      65732C20 
 1607      74696D65 
 1607      6F757400 
 1608              		.section	.rodata.testsem2,"a",%progbits
 1609              		.align	2
 1610              		.type	testsem2, %object
 1611              		.size	testsem2, 16
 1612              	testsem2:
 1613 0000 34000000 		.word	.LC7
 1614 0004 00000000 		.word	sem2_setup
 1615 0008 00000000 		.word	0
 1616 000c 00000000 		.word	sem2_execute
 1617              		.section	.text.sem3_setup,"ax",%progbits
 1618              		.align	1
 1619              		.p2align 4,,15
 1620              		.syntax unified
 1621              		.thumb
 1622              		.thumb_func
 1623              		.fpu fpv4-sp-d16
 1624              		.type	sem3_setup, %function
 1625              	sem3_setup:
 1626              	.LFB225:
 1627              		.loc 9 202 0
 1628              		.cfi_startproc
 1629              		@ args = 0, pretend = 0, frame = 8
 1630              		@ frame_needed = 0, uses_anonymous_args = 0
 1631 0000 00B5     		push	{lr}
 1632              		.cfi_def_cfa_offset 4
 1633              		.cfi_offset 14, -4
 1634 0002 83B0     		sub	sp, sp, #12
 1635              		.cfi_def_cfa_offset 16
 1636              		.loc 9 202 0
 1637 0004 084B     		ldr	r3, .L129
 1638 0006 1B68     		ldr	r3, [r3]
 1639 0008 0193     		str	r3, [sp, #4]
 1640              		.loc 9 204 0
 1641 000a 0021     		movs	r1, #0
 1642 000c 0748     		ldr	r0, .L129+4
 1643 000e FFF7FEFF 		bl	chSemObjectInit
 1644              		.loc 9 205 0
ARM GAS  C:\Users\PCHAUT~1\AppData\Local\Temp\cc3k9865.s 			page 30


 1645 0012 00BF     		nop
 1646 0014 044B     		ldr	r3, .L129
 1647 0016 019A     		ldr	r2, [sp, #4]
 1648 0018 1B68     		ldr	r3, [r3]
 1649 001a 9A42     		cmp	r2, r3
 1650 001c 01D0     		beq	.L128
 1651 001e FFF7FEFF 		bl	__stack_chk_fail
 1652              	.L128:
 1653 0022 03B0     		add	sp, sp, #12
 1654              		.cfi_def_cfa_offset 4
 1655              		@ sp needed
 1656 0024 5DF804FB 		ldr	pc, [sp], #4
 1657              	.L130:
 1658              		.align	2
 1659              	.L129:
 1660 0028 00000000 		.word	__stack_chk_guard
 1661 002c 00000000 		.word	sem1
 1662              		.cfi_endproc
 1663              	.LFE225:
 1664              		.size	sem3_setup, .-sem3_setup
 1665              		.section	.text.thread3,"ax",%progbits
 1666              		.align	1
 1667              		.p2align 4,,15
 1668              		.syntax unified
 1669              		.thumb
 1670              		.thumb_func
 1671              		.fpu fpv4-sp-d16
 1672              		.type	thread3, %function
 1673              	thread3:
 1674              	.LFB226:
 1675              		.loc 9 207 0
 1676              		.cfi_startproc
 1677              		@ args = 0, pretend = 0, frame = 16
 1678              		@ frame_needed = 0, uses_anonymous_args = 0
 1679 0000 00B5     		push	{lr}
 1680              		.cfi_def_cfa_offset 4
 1681              		.cfi_offset 14, -4
 1682 0002 85B0     		sub	sp, sp, #20
 1683              		.cfi_def_cfa_offset 24
 1684 0004 0190     		str	r0, [sp, #4]
 1685              		.loc 9 207 0
 1686 0006 0A4B     		ldr	r3, .L133
 1687 0008 1B68     		ldr	r3, [r3]
 1688 000a 0393     		str	r3, [sp, #12]
 1689              		.loc 9 210 0
 1690 000c 0948     		ldr	r0, .L133+4
 1691 000e FFF7FEFF 		bl	chSemWait
 1692              		.loc 9 211 0
 1693 0012 0848     		ldr	r0, .L133+4
 1694 0014 FFF7FEFF 		bl	chSemSignal
 1695              		.loc 9 212 0
 1696 0018 00BF     		nop
 1697 001a 054B     		ldr	r3, .L133
 1698 001c 039A     		ldr	r2, [sp, #12]
 1699 001e 1B68     		ldr	r3, [r3]
 1700 0020 9A42     		cmp	r2, r3
 1701 0022 01D0     		beq	.L132
ARM GAS  C:\Users\PCHAUT~1\AppData\Local\Temp\cc3k9865.s 			page 31


 1702 0024 FFF7FEFF 		bl	__stack_chk_fail
 1703              	.L132:
 1704 0028 05B0     		add	sp, sp, #20
 1705              		.cfi_def_cfa_offset 4
 1706              		@ sp needed
 1707 002a 5DF804FB 		ldr	pc, [sp], #4
 1708              	.L134:
 1709 002e 00BF     		.align	2
 1710              	.L133:
 1711 0030 00000000 		.word	__stack_chk_guard
 1712 0034 00000000 		.word	sem1
 1713              		.cfi_endproc
 1714              	.LFE226:
 1715              		.size	thread3, .-thread3
 1716              		.section	.text.sem3_execute,"ax",%progbits
 1717              		.align	1
 1718              		.p2align 4,,15
 1719              		.syntax unified
 1720              		.thumb
 1721              		.thumb_func
 1722              		.fpu fpv4-sp-d16
 1723              		.type	sem3_execute, %function
 1724              	sem3_execute:
 1725              	.LFB227:
 1726              		.loc 9 214 0
 1727              		.cfi_startproc
 1728              		@ args = 0, pretend = 0, frame = 8
 1729              		@ frame_needed = 0, uses_anonymous_args = 0
 1730 0000 10B5     		push	{r4, lr}
 1731              		.cfi_def_cfa_offset 8
 1732              		.cfi_offset 4, -8
 1733              		.cfi_offset 14, -4
 1734 0002 84B0     		sub	sp, sp, #16
 1735              		.cfi_def_cfa_offset 24
 1736              		.loc 9 214 0
 1737 0004 2D4B     		ldr	r3, .L144
 1738 0006 1B68     		ldr	r3, [r3]
 1739 0008 0393     		str	r3, [sp, #12]
 1740              		.loc 9 216 0
 1741 000a 2D4B     		ldr	r3, .L144+4
 1742 000c 1C68     		ldr	r4, [r3]
 1743 000e FFF7FEFF 		bl	chThdGetPriorityX
 1744 0012 0346     		mov	r3, r0
 1745 0014 5A1C     		adds	r2, r3, #1
 1746 0016 0023     		movs	r3, #0
 1747 0018 0093     		str	r3, [sp]
 1748 001a 2A4B     		ldr	r3, .L144+8
 1749 001c 4FF4FC71 		mov	r1, #504
 1750 0020 2046     		mov	r0, r4
 1751 0022 FFF7FEFF 		bl	chThdCreateStatic
 1752 0026 0246     		mov	r2, r0
 1753 0028 274B     		ldr	r3, .L144+12
 1754 002a 1A60     		str	r2, [r3]
 1755              		.loc 9 217 0
 1756 002c 2749     		ldr	r1, .L144+16
 1757 002e 2748     		ldr	r0, .L144+16
 1758 0030 FFF7FEFF 		bl	chSemSignalWait
ARM GAS  C:\Users\PCHAUT~1\AppData\Local\Temp\cc3k9865.s 			page 32


 1759              		.loc 9 218 0
 1760 0034 2548     		ldr	r0, .L144+16
 1761 0036 FFF7FEFF 		bl	queue_isempty
 1762 003a 0346     		mov	r3, r0
 1763 003c 1946     		mov	r1, r3
 1764 003e 0120     		movs	r0, #1
 1765 0040 FFF7FEFF 		bl	_test_assert
 1766 0044 0346     		mov	r3, r0
 1767 0046 002B     		cmp	r3, #0
 1768 0048 2AD1     		bne	.L141
 1769              		.loc 9 219 0
 1770 004a 204B     		ldr	r3, .L144+16
 1771 004c 9B68     		ldr	r3, [r3, #8]
 1772 004e 002B     		cmp	r3, #0
 1773 0050 0CBF     		ite	eq
 1774 0052 0123     		moveq	r3, #1
 1775 0054 0023     		movne	r3, #0
 1776 0056 DBB2     		uxtb	r3, r3
 1777 0058 1946     		mov	r1, r3
 1778 005a 0220     		movs	r0, #2
 1779 005c FFF7FEFF 		bl	_test_assert
 1780 0060 0346     		mov	r3, r0
 1781 0062 002B     		cmp	r3, #0
 1782 0064 1ED1     		bne	.L142
 1783              		.loc 9 221 0
 1784 0066 1949     		ldr	r1, .L144+16
 1785 0068 1848     		ldr	r0, .L144+16
 1786 006a FFF7FEFF 		bl	chSemSignalWait
 1787              		.loc 9 222 0
 1788 006e 1748     		ldr	r0, .L144+16
 1789 0070 FFF7FEFF 		bl	queue_isempty
 1790 0074 0346     		mov	r3, r0
 1791 0076 1946     		mov	r1, r3
 1792 0078 0320     		movs	r0, #3
 1793 007a FFF7FEFF 		bl	_test_assert
 1794 007e 0346     		mov	r3, r0
 1795 0080 002B     		cmp	r3, #0
 1796 0082 11D1     		bne	.L143
 1797              		.loc 9 223 0
 1798 0084 114B     		ldr	r3, .L144+16
 1799 0086 9B68     		ldr	r3, [r3, #8]
 1800 0088 002B     		cmp	r3, #0
 1801 008a 0CBF     		ite	eq
 1802 008c 0123     		moveq	r3, #1
 1803 008e 0023     		movne	r3, #0
 1804 0090 DBB2     		uxtb	r3, r3
 1805 0092 1946     		mov	r1, r3
 1806 0094 0420     		movs	r0, #4
 1807 0096 FFF7FEFF 		bl	_test_assert
 1808 009a 0346     		mov	r3, r0
 1809 009c 002B     		cmp	r3, #0
 1810 009e 04E0     		b	.L135
 1811              	.L141:
 1812              		.loc 9 218 0
 1813 00a0 00BF     		nop
 1814 00a2 02E0     		b	.L135
 1815              	.L142:
ARM GAS  C:\Users\PCHAUT~1\AppData\Local\Temp\cc3k9865.s 			page 33


 1816              		.loc 9 219 0
 1817 00a4 00BF     		nop
 1818 00a6 00E0     		b	.L135
 1819              	.L143:
 1820              		.loc 9 222 0
 1821 00a8 00BF     		nop
 1822              	.L135:
 1823              		.loc 9 224 0
 1824 00aa 044B     		ldr	r3, .L144
 1825 00ac 039A     		ldr	r2, [sp, #12]
 1826 00ae 1B68     		ldr	r3, [r3]
 1827 00b0 9A42     		cmp	r2, r3
 1828 00b2 01D0     		beq	.L140
 1829 00b4 FFF7FEFF 		bl	__stack_chk_fail
 1830              	.L140:
 1831 00b8 04B0     		add	sp, sp, #16
 1832              		.cfi_def_cfa_offset 8
 1833              		@ sp needed
 1834 00ba 10BD     		pop	{r4, pc}
 1835              	.L145:
 1836              		.align	2
 1837              	.L144:
 1838 00bc 00000000 		.word	__stack_chk_guard
 1839 00c0 00000000 		.word	wa
 1840 00c4 00000000 		.word	thread3
 1841 00c8 00000000 		.word	threads
 1842 00cc 00000000 		.word	sem1
 1843              		.cfi_endproc
 1844              	.LFE227:
 1845              		.size	sem3_execute, .-sem3_execute
 1846              		.global	testsem3
 1847              		.section	.rodata
 1848              		.align	2
 1849              	.LC8:
 1850 0048 53656D61 		.ascii	"Semaphores, atomic signal-wait\000"
 1850      70686F72 
 1850      65732C20 
 1850      61746F6D 
 1850      69632073 
 1851              		.section	.rodata.testsem3,"a",%progbits
 1852              		.align	2
 1853              		.type	testsem3, %object
 1854              		.size	testsem3, 16
 1855              	testsem3:
 1856 0000 48000000 		.word	.LC8
 1857 0004 00000000 		.word	sem3_setup
 1858 0008 00000000 		.word	0
 1859 000c 00000000 		.word	sem3_execute
 1860              		.section	.text.thread4,"ax",%progbits
 1861              		.align	1
 1862              		.p2align 4,,15
 1863              		.syntax unified
 1864              		.thumb
 1865              		.thumb_func
 1866              		.fpu fpv4-sp-d16
 1867              		.type	thread4, %function
 1868              	thread4:
ARM GAS  C:\Users\PCHAUT~1\AppData\Local\Temp\cc3k9865.s 			page 34


 1869              	.LFB228:
 1870              		.loc 9 241 0
 1871              		.cfi_startproc
 1872              		@ args = 0, pretend = 0, frame = 16
 1873              		@ frame_needed = 0, uses_anonymous_args = 0
 1874 0000 00B5     		push	{lr}
 1875              		.cfi_def_cfa_offset 4
 1876              		.cfi_offset 14, -4
 1877 0002 85B0     		sub	sp, sp, #20
 1878              		.cfi_def_cfa_offset 24
 1879 0004 0190     		str	r0, [sp, #4]
 1880              		.loc 9 241 0
 1881 0006 084B     		ldr	r3, .L148
 1882 0008 1B68     		ldr	r3, [r3]
 1883 000a 0393     		str	r3, [sp, #12]
 1884              		.loc 9 243 0
 1885 000c 0198     		ldr	r0, [sp, #4]
 1886 000e FFF7FEFF 		bl	chBSemSignal
 1887              		.loc 9 244 0
 1888 0012 00BF     		nop
 1889 0014 044B     		ldr	r3, .L148
 1890 0016 039A     		ldr	r2, [sp, #12]
 1891 0018 1B68     		ldr	r3, [r3]
 1892 001a 9A42     		cmp	r2, r3
 1893 001c 01D0     		beq	.L147
 1894 001e FFF7FEFF 		bl	__stack_chk_fail
 1895              	.L147:
 1896 0022 05B0     		add	sp, sp, #20
 1897              		.cfi_def_cfa_offset 4
 1898              		@ sp needed
 1899 0024 5DF804FB 		ldr	pc, [sp], #4
 1900              	.L149:
 1901              		.align	2
 1902              	.L148:
 1903 0028 00000000 		.word	__stack_chk_guard
 1904              		.cfi_endproc
 1905              	.LFE228:
 1906              		.size	thread4, .-thread4
 1907              		.section	.text.sem4_execute,"ax",%progbits
 1908              		.align	1
 1909              		.p2align 4,,15
 1910              		.syntax unified
 1911              		.thumb
 1912              		.thumb_func
 1913              		.fpu fpv4-sp-d16
 1914              		.type	sem4_execute, %function
 1915              	sem4_execute:
 1916              	.LFB229:
 1917              		.loc 9 246 0
 1918              		.cfi_startproc
 1919              		@ args = 0, pretend = 0, frame = 16
 1920              		@ frame_needed = 0, uses_anonymous_args = 0
 1921 0000 10B5     		push	{r4, lr}
 1922              		.cfi_def_cfa_offset 8
 1923              		.cfi_offset 4, -8
 1924              		.cfi_offset 14, -4
 1925 0002 86B0     		sub	sp, sp, #24
ARM GAS  C:\Users\PCHAUT~1\AppData\Local\Temp\cc3k9865.s 			page 35


 1926              		.cfi_def_cfa_offset 32
 1927              		.loc 9 246 0
 1928 0004 624B     		ldr	r3, .L160
 1929 0006 1B68     		ldr	r3, [r3]
 1930 0008 0593     		str	r3, [sp, #20]
 1931              		.loc 9 250 0
 1932 000a 02AB     		add	r3, sp, #8
 1933 000c 0121     		movs	r1, #1
 1934 000e 1846     		mov	r0, r3
 1935 0010 FFF7FEFF 		bl	chBSemObjectInit
 1936              		.loc 9 251 0
 1937 0014 02AB     		add	r3, sp, #8
 1938 0016 0121     		movs	r1, #1
 1939 0018 1846     		mov	r0, r3
 1940 001a FFF7FEFF 		bl	chBSemReset
 1941              		.loc 9 252 0
 1942 001e FFF7FEFF 		bl	chSysLock
 1943 0022 02AB     		add	r3, sp, #8
 1944 0024 1846     		mov	r0, r3
 1945 0026 FFF7FEFF 		bl	chBSemGetStateI
 1946 002a 0346     		mov	r3, r0
 1947 002c 1946     		mov	r1, r3
 1948 002e 0120     		movs	r0, #1
 1949 0030 FFF7FEFF 		bl	_test_assert
 1950 0034 0346     		mov	r3, r0
 1951 0036 002B     		cmp	r3, #0
 1952 0038 02D0     		beq	.L151
 1953              		.loc 9 252 0 is_stmt 0 discriminator 1
 1954 003a FFF7FEFF 		bl	chSysUnlock
 1955 003e 9DE0     		b	.L150
 1956              	.L151:
 1957              		.loc 9 252 0 discriminator 2
 1958 0040 FFF7FEFF 		bl	chSysUnlock
 1959              		.loc 9 255 0 is_stmt 1 discriminator 2
 1960 0044 534B     		ldr	r3, .L160+4
 1961 0046 1C68     		ldr	r4, [r3]
 1962              		.loc 9 256 0 discriminator 2
 1963 0048 FFF7FEFF 		bl	chThdGetPriorityX
 1964 004c 0346     		mov	r3, r0
 1965              		.loc 9 255 0 discriminator 2
 1966 004e 5A1E     		subs	r2, r3, #1
 1967 0050 02AB     		add	r3, sp, #8
 1968 0052 0093     		str	r3, [sp]
 1969 0054 504B     		ldr	r3, .L160+8
 1970 0056 4FF4FC71 		mov	r1, #504
 1971 005a 2046     		mov	r0, r4
 1972 005c FFF7FEFF 		bl	chThdCreateStatic
 1973 0060 0246     		mov	r2, r0
 1974 0062 4E4B     		ldr	r3, .L160+12
 1975 0064 1A60     		str	r2, [r3]
 1976              		.loc 9 259 0 discriminator 2
 1977 0066 02AB     		add	r3, sp, #8
 1978 0068 1846     		mov	r0, r3
 1979 006a FFF7FEFF 		bl	chBSemWait
 1980              		.loc 9 262 0 discriminator 2
 1981 006e FFF7FEFF 		bl	chSysLock
 1982 0072 02AB     		add	r3, sp, #8
ARM GAS  C:\Users\PCHAUT~1\AppData\Local\Temp\cc3k9865.s 			page 36


 1983 0074 1846     		mov	r0, r3
 1984 0076 FFF7FEFF 		bl	chBSemGetStateI
 1985 007a 0346     		mov	r3, r0
 1986 007c 1946     		mov	r1, r3
 1987 007e 0220     		movs	r0, #2
 1988 0080 FFF7FEFF 		bl	_test_assert
 1989 0084 0346     		mov	r3, r0
 1990 0086 002B     		cmp	r3, #0
 1991 0088 02D0     		beq	.L153
 1992              		.loc 9 262 0 is_stmt 0 discriminator 1
 1993 008a FFF7FEFF 		bl	chSysUnlock
 1994 008e 75E0     		b	.L150
 1995              	.L153:
 1996              		.loc 9 262 0 discriminator 2
 1997 0090 FFF7FEFF 		bl	chSysUnlock
 1998              		.loc 9 266 0 is_stmt 1 discriminator 2
 1999 0094 02AB     		add	r3, sp, #8
 2000 0096 1846     		mov	r0, r3
 2001 0098 FFF7FEFF 		bl	chBSemSignal
 2002              		.loc 9 267 0 discriminator 2
 2003 009c FFF7FEFF 		bl	chSysLock
 2004 00a0 02AB     		add	r3, sp, #8
 2005 00a2 1846     		mov	r0, r3
 2006 00a4 FFF7FEFF 		bl	chBSemGetStateI
 2007 00a8 0346     		mov	r3, r0
 2008 00aa 002B     		cmp	r3, #0
 2009 00ac 14BF     		ite	ne
 2010 00ae 0123     		movne	r3, #1
 2011 00b0 0023     		moveq	r3, #0
 2012 00b2 DBB2     		uxtb	r3, r3
 2013 00b4 83F00103 		eor	r3, r3, #1
 2014 00b8 DBB2     		uxtb	r3, r3
 2015 00ba 03F00103 		and	r3, r3, #1
 2016 00be DBB2     		uxtb	r3, r3
 2017 00c0 1946     		mov	r1, r3
 2018 00c2 0320     		movs	r0, #3
 2019 00c4 FFF7FEFF 		bl	_test_assert
 2020 00c8 0346     		mov	r3, r0
 2021 00ca 002B     		cmp	r3, #0
 2022 00cc 02D0     		beq	.L154
 2023              		.loc 9 267 0 is_stmt 0 discriminator 1
 2024 00ce FFF7FEFF 		bl	chSysUnlock
 2025 00d2 53E0     		b	.L150
 2026              	.L154:
 2027              		.loc 9 267 0 discriminator 2
 2028 00d4 FFF7FEFF 		bl	chSysUnlock
 2029              		.loc 9 268 0 is_stmt 1 discriminator 2
 2030 00d8 FFF7FEFF 		bl	chSysLock
 2031 00dc 02AB     		add	r3, sp, #8
 2032 00de 1846     		mov	r0, r3
 2033 00e0 FFF7FEFF 		bl	chSemGetCounterI
 2034 00e4 0346     		mov	r3, r0
 2035 00e6 012B     		cmp	r3, #1
 2036 00e8 0CBF     		ite	eq
 2037 00ea 0123     		moveq	r3, #1
 2038 00ec 0023     		movne	r3, #0
 2039 00ee DBB2     		uxtb	r3, r3
ARM GAS  C:\Users\PCHAUT~1\AppData\Local\Temp\cc3k9865.s 			page 37


 2040 00f0 1946     		mov	r1, r3
 2041 00f2 0420     		movs	r0, #4
 2042 00f4 FFF7FEFF 		bl	_test_assert
 2043 00f8 0346     		mov	r3, r0
 2044 00fa 002B     		cmp	r3, #0
 2045 00fc 02D0     		beq	.L155
 2046              		.loc 9 268 0 is_stmt 0 discriminator 1
 2047 00fe FFF7FEFF 		bl	chSysUnlock
 2048 0102 3BE0     		b	.L150
 2049              	.L155:
 2050              		.loc 9 268 0 discriminator 2
 2051 0104 FFF7FEFF 		bl	chSysUnlock
 2052              		.loc 9 271 0 is_stmt 1 discriminator 2
 2053 0108 02AB     		add	r3, sp, #8
 2054 010a 1846     		mov	r0, r3
 2055 010c FFF7FEFF 		bl	chBSemSignal
 2056              		.loc 9 272 0 discriminator 2
 2057 0110 FFF7FEFF 		bl	chSysLock
 2058 0114 02AB     		add	r3, sp, #8
 2059 0116 1846     		mov	r0, r3
 2060 0118 FFF7FEFF 		bl	chBSemGetStateI
 2061 011c 0346     		mov	r3, r0
 2062 011e 002B     		cmp	r3, #0
 2063 0120 14BF     		ite	ne
 2064 0122 0123     		movne	r3, #1
 2065 0124 0023     		moveq	r3, #0
 2066 0126 DBB2     		uxtb	r3, r3
 2067 0128 83F00103 		eor	r3, r3, #1
 2068 012c DBB2     		uxtb	r3, r3
 2069 012e 03F00103 		and	r3, r3, #1
 2070 0132 DBB2     		uxtb	r3, r3
 2071 0134 1946     		mov	r1, r3
 2072 0136 0320     		movs	r0, #3
 2073 0138 FFF7FEFF 		bl	_test_assert
 2074 013c 0346     		mov	r3, r0
 2075 013e 002B     		cmp	r3, #0
 2076 0140 02D0     		beq	.L156
 2077              		.loc 9 272 0 is_stmt 0 discriminator 1
 2078 0142 FFF7FEFF 		bl	chSysUnlock
 2079 0146 19E0     		b	.L150
 2080              	.L156:
 2081              		.loc 9 272 0 discriminator 2
 2082 0148 FFF7FEFF 		bl	chSysUnlock
 2083              		.loc 9 273 0 is_stmt 1 discriminator 2
 2084 014c FFF7FEFF 		bl	chSysLock
 2085 0150 02AB     		add	r3, sp, #8
 2086 0152 1846     		mov	r0, r3
 2087 0154 FFF7FEFF 		bl	chSemGetCounterI
 2088 0158 0346     		mov	r3, r0
 2089 015a 012B     		cmp	r3, #1
 2090 015c 0CBF     		ite	eq
 2091 015e 0123     		moveq	r3, #1
 2092 0160 0023     		movne	r3, #0
 2093 0162 DBB2     		uxtb	r3, r3
 2094 0164 1946     		mov	r1, r3
 2095 0166 0520     		movs	r0, #5
 2096 0168 FFF7FEFF 		bl	_test_assert
ARM GAS  C:\Users\PCHAUT~1\AppData\Local\Temp\cc3k9865.s 			page 38


 2097 016c 0346     		mov	r3, r0
 2098 016e 002B     		cmp	r3, #0
 2099 0170 02D0     		beq	.L157
 2100              		.loc 9 273 0 is_stmt 0 discriminator 1
 2101 0172 FFF7FEFF 		bl	chSysUnlock
 2102 0176 01E0     		b	.L150
 2103              	.L157:
 2104              		.loc 9 273 0 discriminator 2
 2105 0178 FFF7FEFF 		bl	chSysUnlock
 2106              	.L150:
 2107              		.loc 9 274 0 is_stmt 1
 2108 017c 044B     		ldr	r3, .L160
 2109 017e 059A     		ldr	r2, [sp, #20]
 2110 0180 1B68     		ldr	r3, [r3]
 2111 0182 9A42     		cmp	r2, r3
 2112 0184 01D0     		beq	.L159
 2113 0186 FFF7FEFF 		bl	__stack_chk_fail
 2114              	.L159:
 2115 018a 06B0     		add	sp, sp, #24
 2116              		.cfi_def_cfa_offset 8
 2117              		@ sp needed
 2118 018c 10BD     		pop	{r4, pc}
 2119              	.L161:
 2120 018e 00BF     		.align	2
 2121              	.L160:
 2122 0190 00000000 		.word	__stack_chk_guard
 2123 0194 00000000 		.word	wa
 2124 0198 00000000 		.word	thread4
 2125 019c 00000000 		.word	threads
 2126              		.cfi_endproc
 2127              	.LFE229:
 2128              		.size	sem4_execute, .-sem4_execute
 2129              		.global	testsem4
 2130              		.section	.rodata
 2131 0067 00       		.align	2
 2132              	.LC9:
 2133 0068 42696E61 		.ascii	"Binary Semaphores, functionality\000"
 2133      72792053 
 2133      656D6170 
 2133      686F7265 
 2133      732C2066 
 2134              		.section	.rodata.testsem4,"a",%progbits
 2135              		.align	2
 2136              		.type	testsem4, %object
 2137              		.size	testsem4, 16
 2138              	testsem4:
 2139 0000 68000000 		.word	.LC9
 2140 0004 00000000 		.word	0
 2141 0008 00000000 		.word	0
 2142 000c 00000000 		.word	sem4_execute
 2143              		.global	patternsem
 2144              		.section	.rodata.patternsem,"a",%progbits
 2145              		.align	2
 2146              		.type	patternsem, %object
 2147              		.size	patternsem, 20
 2148              	patternsem:
 2149 0000 00000000 		.word	testsem1
ARM GAS  C:\Users\PCHAUT~1\AppData\Local\Temp\cc3k9865.s 			page 39


 2150 0004 00000000 		.word	testsem2
 2151 0008 00000000 		.word	testsem3
 2152 000c 00000000 		.word	testsem4
 2153 0010 00000000 		.word	0
 2154              		.section	.rodata.__func__.7153,"a",%progbits
 2155              		.align	2
 2156              		.type	__func__.7153, %object
 2157              		.size	__func__.7153, 12
 2158              	__func__.7153:
 2159 0000 63685379 		.ascii	"chSysUnlock\000"
 2159      73556E6C 
 2159      6F636B00 
 2160              		.text
 2161              	.Letext0:
 2162              		.file 10 "c:\\users\\pchautems\\documents\\robotiquetp\\eclipse_e-puck2\\tools\\gcc-arm-none-eabi-
 2163              		.file 11 "c:\\users\\pchautems\\documents\\robotiquetp\\eclipse_e-puck2\\tools\\gcc-arm-none-eabi-
 2164              		.file 12 "c:\\users\\pchautems\\documents\\robotiquetp\\eclipse_e-puck2\\tools\\gcc-arm-none-eabi-
 2165              		.file 13 "../lib/e-puck2_main-processor/ChibiOS//os/rt/ports/ARMCMx/compilers/GCC/chtypes.h"
 2166              		.file 14 "../lib/e-puck2_main-processor/ChibiOS//os/rt/include/chsystypes.h"
 2167              		.file 15 "../lib/e-puck2_main-processor/ChibiOS//os/ext/CMSIS/include/core_cm4.h"
 2168              		.file 16 "../lib/e-puck2_main-processor/ChibiOS//os/ext/CMSIS/ST/system_stm32f4xx.h"
 2169              		.file 17 "../lib/e-puck2_main-processor/ChibiOS//os/rt/ports/ARMCMx/chcore.h"
 2170              		.file 18 "../lib/e-puck2_main-processor/ChibiOS//os/rt/include/chdebug.h"
 2171              		.file 19 "../lib/e-puck2_main-processor/ChibiOS//os/rt/include/chtm.h"
 2172              		.file 20 "../lib/e-puck2_main-processor/ChibiOS//os/rt/include/chstats.h"
 2173              		.file 21 "../lib/e-puck2_main-processor/ChibiOS//os/rt/include/chmtx.h"
 2174              		.file 22 "../lib/e-puck2_main-processor/ChibiOS//os/rt/include/chregistry.h"
 2175              		.file 23 "../lib/e-puck2_main-processor/ChibiOS//test/rt/test.h"