ARM GAS  C:\Users\PCHAUT~1\AppData\Local\Temp\cc3i1EGf.s 			page 1


   1              		.cpu cortex-m4
   2              		.eabi_attribute 27, 1
   3              		.eabi_attribute 28, 1
   4              		.eabi_attribute 20, 1
   5              		.eabi_attribute 21, 1
   6              		.eabi_attribute 23, 3
   7              		.eabi_attribute 24, 1
   8              		.eabi_attribute 25, 1
   9              		.eabi_attribute 26, 1
  10              		.eabi_attribute 30, 6
  11              		.eabi_attribute 34, 1
  12              		.eabi_attribute 18, 4
  13              		.file	"uc_usage.c"
  14              		.text
  15              	.Ltext0:
  16              		.cfi_sections	.debug_frame
  17              		.section	.text.chprintf,"ax",%progbits
  18              		.align	1
  19              		.p2align 4,,15
  20              		.syntax unified
  21              		.thumb
  22              		.thumb_func
  23              		.fpu fpv4-sp-d16
  24              		.type	chprintf, %function
  25              	chprintf:
  26              	.LFB219:
  27              		.file 1 "../lib/e-puck2_main-processor/ChibiOS//os/hal/lib/streams/chprintf.h"
  28              		.loc 1 69 0
  29              		.cfi_startproc
  30              		@ args = 4, pretend = 12, frame = 24
  31              		@ frame_needed = 0, uses_anonymous_args = 1
  32 0000 0EB4     		push	{r1, r2, r3}
  33              		.cfi_def_cfa_offset 12
  34              		.cfi_offset 1, -12
  35              		.cfi_offset 2, -8
  36              		.cfi_offset 3, -4
  37 0002 00B5     		push	{lr}
  38              		.cfi_def_cfa_offset 16
  39              		.cfi_offset 14, -16
  40 0004 86B0     		sub	sp, sp, #24
  41              		.cfi_def_cfa_offset 40
  42 0006 0190     		str	r0, [sp, #4]
  43 0008 079B     		ldr	r3, [sp, #28]
  44 000a 0093     		str	r3, [sp]
  45              		.loc 1 69 0
  46 000c 0C4B     		ldr	r3, .L4
  47 000e 1B68     		ldr	r3, [r3]
  48 0010 0593     		str	r3, [sp, #20]
  49              		.loc 1 73 0
  50 0012 08AB     		add	r3, sp, #32
  51 0014 0393     		str	r3, [sp, #12]
  52              		.loc 1 74 0
  53 0016 039A     		ldr	r2, [sp, #12]
  54 0018 0099     		ldr	r1, [sp]
  55 001a 0198     		ldr	r0, [sp, #4]
  56 001c FFF7FEFF 		bl	chvprintf
  57 0020 0490     		str	r0, [sp, #16]
ARM GAS  C:\Users\PCHAUT~1\AppData\Local\Temp\cc3i1EGf.s 			page 2


  58              		.loc 1 77 0
  59 0022 049B     		ldr	r3, [sp, #16]
  60              		.loc 1 78 0
  61 0024 1846     		mov	r0, r3
  62 0026 064B     		ldr	r3, .L4
  63 0028 059A     		ldr	r2, [sp, #20]
  64 002a 1B68     		ldr	r3, [r3]
  65 002c 9A42     		cmp	r2, r3
  66 002e 01D0     		beq	.L3
  67 0030 FFF7FEFF 		bl	__stack_chk_fail
  68              	.L3:
  69 0034 06B0     		add	sp, sp, #24
  70              		.cfi_def_cfa_offset 16
  71              		@ sp needed
  72 0036 5DF804EB 		ldr	lr, [sp], #4
  73              		.cfi_restore 14
  74              		.cfi_def_cfa_offset 12
  75 003a 03B0     		add	sp, sp, #12
  76              		.cfi_restore 3
  77              		.cfi_restore 2
  78              		.cfi_restore 1
  79              		.cfi_def_cfa_offset 0
  80 003c 7047     		bx	lr
  81              	.L5:
  82 003e 00BF     		.align	2
  83              	.L4:
  84 0040 00000000 		.word	__stack_chk_guard
  85              		.cfi_endproc
  86              	.LFE219:
  87              		.size	chprintf, .-chprintf
  88              		.global	__aeabi_uldivmod
  89              		.section	.rodata
  90              		.align	2
  91              	.LC0:
  92 0000 25313273 		.ascii	"%12s %u.%u%%\015\012\000"
  92      2025752E 
  92      25752525 
  92      0D0A00
  93 000f 00       		.align	2
  94              	.LC1:
  95 0010 63726974 		.ascii	"critical thd:%u.%u%%   critical isr:%u.%u%%\015\012"
  95      6963616C 
  95      20746864 
  95      3A25752E 
  95      25752525 
  96 003d 00       		.ascii	"\000"
  97 003e 0000     		.align	2
  98              	.LC2:
  99 0040 0D0A00   		.ascii	"\015\012\000"
 100              		.section	.text.printUcUsage,"ax",%progbits
 101              		.align	1
 102              		.p2align 4,,15
 103              		.global	printUcUsage
 104              		.syntax unified
 105              		.thumb
 106              		.thumb_func
 107              		.fpu fpv4-sp-d16
ARM GAS  C:\Users\PCHAUT~1\AppData\Local\Temp\cc3i1EGf.s 			page 3


 108              		.type	printUcUsage, %function
 109              	printUcUsage:
 110              	.LFB220:
 111              		.file 2 "../lib/e-puck2_main-processor/src/uc_usage.c"
 112              		.loc 2 13 0
 113              		.cfi_startproc
 114              		@ args = 0, pretend = 0, frame = 16
 115              		@ frame_needed = 0, uses_anonymous_args = 0
 116 0000 70B5     		push	{r4, r5, r6, lr}
 117              		.cfi_def_cfa_offset 16
 118              		.cfi_offset 4, -16
 119              		.cfi_offset 5, -12
 120              		.cfi_offset 6, -8
 121              		.cfi_offset 14, -4
 122 0002 86B0     		sub	sp, sp, #24
 123              		.cfi_def_cfa_offset 40
 124 0004 0390     		str	r0, [sp, #12]
 125              		.loc 2 13 0
 126 0006 B74B     		ldr	r3, .L10
 127 0008 1B68     		ldr	r3, [r3]
 128 000a 0593     		str	r3, [sp, #20]
 129              		.loc 2 19 0
 130 000c B64A     		ldr	r2, .L10+4
 131 000e 4FF00003 		mov	r3, #0
 132 0012 4FF00004 		mov	r4, #0
 133 0016 C2E90034 		strd	r3, [r2]
 134              		.loc 2 21 0
 135 001a FFF7FEFF 		bl	chRegFirstThread
 136 001e 0490     		str	r0, [sp, #16]
 137              	.L7:
 138              		.loc 2 24 0 discriminator 1
 139 0020 049B     		ldr	r3, [sp, #16]
 140 0022 D3E91812 		ldrd	r1, [r3, #96]
 141 0026 B04B     		ldr	r3, .L10+4
 142 0028 D3E90056 		ldrd	r5, [r3]
 143 002c 6B18     		adds	r3, r5, r1
 144 002e 46EB0204 		adc	r4, r6, r2
 145 0032 AD4A     		ldr	r2, .L10+4
 146 0034 C2E90034 		strd	r3, [r2]
 147              		.loc 2 25 0 discriminator 1
 148 0038 0498     		ldr	r0, [sp, #16]
 149 003a FFF7FEFF 		bl	chRegNextThread
 150 003e 0490     		str	r0, [sp, #16]
 151              		.loc 2 26 0 discriminator 1
 152 0040 049B     		ldr	r3, [sp, #16]
 153 0042 002B     		cmp	r3, #0
 154 0044 ECD1     		bne	.L7
 155              		.loc 2 27 0
 156 0046 A94B     		ldr	r3, .L10+8
 157 0048 03F59963 		add	r3, r3, #1224
 158 004c D3E90012 		ldrd	r1, [r3]
 159 0050 A54B     		ldr	r3, .L10+4
 160 0052 D3E90056 		ldrd	r5, [r3]
 161 0056 6B18     		adds	r3, r5, r1
 162 0058 46EB0204 		adc	r4, r6, r2
 163 005c A24A     		ldr	r2, .L10+4
 164 005e C2E90034 		strd	r3, [r2]
ARM GAS  C:\Users\PCHAUT~1\AppData\Local\Temp\cc3i1EGf.s 			page 4


 165              		.loc 2 28 0
 166 0062 A24B     		ldr	r3, .L10+8
 167 0064 03F59C63 		add	r3, r3, #1248
 168 0068 D3E90012 		ldrd	r1, [r3]
 169 006c 9E4B     		ldr	r3, .L10+4
 170 006e D3E90056 		ldrd	r5, [r3]
 171 0072 6B18     		adds	r3, r5, r1
 172 0074 46EB0204 		adc	r4, r6, r2
 173 0078 9B4A     		ldr	r2, .L10+4
 174 007a C2E90034 		strd	r3, [r2]
 175              		.loc 2 31 0
 176 007e FFF7FEFF 		bl	chRegFirstThread
 177 0082 0490     		str	r0, [sp, #16]
 178              	.L8:
 179              		.loc 2 34 0 discriminator 1
 180 0084 049B     		ldr	r3, [sp, #16]
 181 0086 D3E91856 		ldrd	r5, [r3, #96]
 182 008a 2B46     		mov	r3, r5
 183 008c 3446     		mov	r4, r6
 184 008e 4FF00001 		mov	r1, #0
 185 0092 4FF00002 		mov	r2, #0
 186 0096 A200     		lsls	r2, r4, #2
 187 0098 42EA9372 		orr	r2, r2, r3, lsr #30
 188 009c 9900     		lsls	r1, r3, #2
 189 009e 0B46     		mov	r3, r1
 190 00a0 1446     		mov	r4, r2
 191 00a2 5B19     		adds	r3, r3, r5
 192 00a4 44EB0604 		adc	r4, r4, r6
 193 00a8 4FF00001 		mov	r1, #0
 194 00ac 4FF00002 		mov	r2, #0
 195 00b0 E200     		lsls	r2, r4, #3
 196 00b2 42EA5372 		orr	r2, r2, r3, lsr #29
 197 00b6 D900     		lsls	r1, r3, #3
 198 00b8 0B46     		mov	r3, r1
 199 00ba 1446     		mov	r4, r2
 200 00bc 5B1B     		subs	r3, r3, r5
 201 00be 64EB0604 		sbc	r4, r4, r6
 202 00c2 4FF00001 		mov	r1, #0
 203 00c6 4FF00002 		mov	r2, #0
 204 00ca 2201     		lsls	r2, r4, #4
 205 00cc 42EA1372 		orr	r2, r2, r3, lsr #28
 206 00d0 1901     		lsls	r1, r3, #4
 207 00d2 0B46     		mov	r3, r1
 208 00d4 1446     		mov	r4, r2
 209 00d6 5B19     		adds	r3, r3, r5
 210 00d8 44EB0604 		adc	r4, r4, r6
 211 00dc 4FF00001 		mov	r1, #0
 212 00e0 4FF00002 		mov	r2, #0
 213 00e4 2201     		lsls	r2, r4, #4
 214 00e6 42EA1372 		orr	r2, r2, r3, lsr #28
 215 00ea 1901     		lsls	r1, r3, #4
 216 00ec 0B46     		mov	r3, r1
 217 00ee 1446     		mov	r4, r2
 218 00f0 1846     		mov	r0, r3
 219 00f2 2146     		mov	r1, r4
 220 00f4 7C4B     		ldr	r3, .L10+4
 221 00f6 D3E90034 		ldrd	r3, [r3]
ARM GAS  C:\Users\PCHAUT~1\AppData\Local\Temp\cc3i1EGf.s 			page 5


 222 00fa 1A46     		mov	r2, r3
 223 00fc 2346     		mov	r3, r4
 224 00fe FFF7FEFF 		bl	__aeabi_uldivmod
 225              	.LVL0:
 226 0102 0346     		mov	r3, r0
 227 0104 0C46     		mov	r4, r1
 228 0106 9AB2     		uxth	r2, r3
 229 0108 794B     		ldr	r3, .L10+12
 230 010a 1A80     		strh	r2, [r3]	@ movhi
 231              		.loc 2 35 0 discriminator 1
 232 010c 049B     		ldr	r3, [sp, #16]
 233 010e 9869     		ldr	r0, [r3, #24]
 234 0110 774B     		ldr	r3, .L10+12
 235 0112 1B88     		ldrh	r3, [r3]
 236 0114 774A     		ldr	r2, .L10+16
 237 0116 A2FB0323 		umull	r2, r3, r2, r3
 238 011a 5B09     		lsrs	r3, r3, #5
 239 011c 9BB2     		uxth	r3, r3
 240 011e 1C46     		mov	r4, r3
 241 0120 734B     		ldr	r3, .L10+12
 242 0122 1B88     		ldrh	r3, [r3]
 243 0124 734A     		ldr	r2, .L10+16
 244 0126 A2FB0312 		umull	r1, r2, r2, r3
 245 012a 5209     		lsrs	r2, r2, #5
 246 012c 6421     		movs	r1, #100
 247 012e 01FB02F2 		mul	r2, r1, r2
 248 0132 9B1A     		subs	r3, r3, r2
 249 0134 9BB2     		uxth	r3, r3
 250 0136 0093     		str	r3, [sp]
 251 0138 2346     		mov	r3, r4
 252 013a 0246     		mov	r2, r0
 253 013c 6E49     		ldr	r1, .L10+20
 254 013e 0398     		ldr	r0, [sp, #12]
 255 0140 FFF7FEFF 		bl	chprintf
 256              		.loc 2 36 0 discriminator 1
 257 0144 0498     		ldr	r0, [sp, #16]
 258 0146 FFF7FEFF 		bl	chRegNextThread
 259 014a 0490     		str	r0, [sp, #16]
 260              		.loc 2 37 0 discriminator 1
 261 014c 049B     		ldr	r3, [sp, #16]
 262 014e 002B     		cmp	r3, #0
 263 0150 98D1     		bne	.L8
 264              		.loc 2 39 0
 265 0152 664B     		ldr	r3, .L10+8
 266 0154 03F59963 		add	r3, r3, #1224
 267 0158 D3E90056 		ldrd	r5, [r3]
 268 015c 2B46     		mov	r3, r5
 269 015e 3446     		mov	r4, r6
 270 0160 4FF00001 		mov	r1, #0
 271 0164 4FF00002 		mov	r2, #0
 272 0168 A200     		lsls	r2, r4, #2
 273 016a 42EA9372 		orr	r2, r2, r3, lsr #30
 274 016e 9900     		lsls	r1, r3, #2
 275 0170 0B46     		mov	r3, r1
 276 0172 1446     		mov	r4, r2
 277 0174 5B19     		adds	r3, r3, r5
 278 0176 44EB0604 		adc	r4, r4, r6
ARM GAS  C:\Users\PCHAUT~1\AppData\Local\Temp\cc3i1EGf.s 			page 6


 279 017a 4FF00001 		mov	r1, #0
 280 017e 4FF00002 		mov	r2, #0
 281 0182 E200     		lsls	r2, r4, #3
 282 0184 42EA5372 		orr	r2, r2, r3, lsr #29
 283 0188 D900     		lsls	r1, r3, #3
 284 018a 0B46     		mov	r3, r1
 285 018c 1446     		mov	r4, r2
 286 018e 5B1B     		subs	r3, r3, r5
 287 0190 64EB0604 		sbc	r4, r4, r6
 288 0194 4FF00001 		mov	r1, #0
 289 0198 4FF00002 		mov	r2, #0
 290 019c 2201     		lsls	r2, r4, #4
 291 019e 42EA1372 		orr	r2, r2, r3, lsr #28
 292 01a2 1901     		lsls	r1, r3, #4
 293 01a4 0B46     		mov	r3, r1
 294 01a6 1446     		mov	r4, r2
 295 01a8 5B19     		adds	r3, r3, r5
 296 01aa 44EB0604 		adc	r4, r4, r6
 297 01ae 4FF00001 		mov	r1, #0
 298 01b2 4FF00002 		mov	r2, #0
 299 01b6 2201     		lsls	r2, r4, #4
 300 01b8 42EA1372 		orr	r2, r2, r3, lsr #28
 301 01bc 1901     		lsls	r1, r3, #4
 302 01be 0B46     		mov	r3, r1
 303 01c0 1446     		mov	r4, r2
 304 01c2 1846     		mov	r0, r3
 305 01c4 2146     		mov	r1, r4
 306 01c6 484B     		ldr	r3, .L10+4
 307 01c8 D3E90034 		ldrd	r3, [r3]
 308 01cc 1A46     		mov	r2, r3
 309 01ce 2346     		mov	r3, r4
 310 01d0 FFF7FEFF 		bl	__aeabi_uldivmod
 311              	.LVL1:
 312 01d4 0346     		mov	r3, r0
 313 01d6 0C46     		mov	r4, r1
 314 01d8 9AB2     		uxth	r2, r3
 315 01da 454B     		ldr	r3, .L10+12
 316 01dc 1A80     		strh	r2, [r3]	@ movhi
 317              		.loc 2 40 0
 318 01de 434B     		ldr	r3, .L10+8
 319 01e0 03F59C63 		add	r3, r3, #1248
 320 01e4 D3E90056 		ldrd	r5, [r3]
 321 01e8 2B46     		mov	r3, r5
 322 01ea 3446     		mov	r4, r6
 323 01ec 4FF00001 		mov	r1, #0
 324 01f0 4FF00002 		mov	r2, #0
 325 01f4 A200     		lsls	r2, r4, #2
 326 01f6 42EA9372 		orr	r2, r2, r3, lsr #30
 327 01fa 9900     		lsls	r1, r3, #2
 328 01fc 0B46     		mov	r3, r1
 329 01fe 1446     		mov	r4, r2
 330 0200 5B19     		adds	r3, r3, r5
 331 0202 44EB0604 		adc	r4, r4, r6
 332 0206 4FF00001 		mov	r1, #0
 333 020a 4FF00002 		mov	r2, #0
 334 020e E200     		lsls	r2, r4, #3
 335 0210 42EA5372 		orr	r2, r2, r3, lsr #29
ARM GAS  C:\Users\PCHAUT~1\AppData\Local\Temp\cc3i1EGf.s 			page 7


 336 0214 D900     		lsls	r1, r3, #3
 337 0216 0B46     		mov	r3, r1
 338 0218 1446     		mov	r4, r2
 339 021a 5B1B     		subs	r3, r3, r5
 340 021c 64EB0604 		sbc	r4, r4, r6
 341 0220 4FF00001 		mov	r1, #0
 342 0224 4FF00002 		mov	r2, #0
 343 0228 2201     		lsls	r2, r4, #4
 344 022a 42EA1372 		orr	r2, r2, r3, lsr #28
 345 022e 1901     		lsls	r1, r3, #4
 346 0230 0B46     		mov	r3, r1
 347 0232 1446     		mov	r4, r2
 348 0234 5B19     		adds	r3, r3, r5
 349 0236 44EB0604 		adc	r4, r4, r6
 350 023a 4FF00001 		mov	r1, #0
 351 023e 4FF00002 		mov	r2, #0
 352 0242 2201     		lsls	r2, r4, #4
 353 0244 42EA1372 		orr	r2, r2, r3, lsr #28
 354 0248 1901     		lsls	r1, r3, #4
 355 024a 0B46     		mov	r3, r1
 356 024c 1446     		mov	r4, r2
 357 024e 1846     		mov	r0, r3
 358 0250 2146     		mov	r1, r4
 359 0252 254B     		ldr	r3, .L10+4
 360 0254 D3E90034 		ldrd	r3, [r3]
 361 0258 1A46     		mov	r2, r3
 362 025a 2346     		mov	r3, r4
 363 025c FFF7FEFF 		bl	__aeabi_uldivmod
 364              	.LVL2:
 365 0260 0346     		mov	r3, r0
 366 0262 0C46     		mov	r4, r1
 367 0264 9AB2     		uxth	r2, r3
 368 0266 254B     		ldr	r3, .L10+24
 369 0268 1A80     		strh	r2, [r3]	@ movhi
 370              		.loc 2 42 0
 371 026a 214B     		ldr	r3, .L10+12
 372 026c 1B88     		ldrh	r3, [r3]
 373 026e 214A     		ldr	r2, .L10+16
 374 0270 A2FB0323 		umull	r2, r3, r2, r3
 375 0274 5B09     		lsrs	r3, r3, #5
 376 0276 9BB2     		uxth	r3, r3
 377 0278 1C46     		mov	r4, r3
 378 027a 1D4B     		ldr	r3, .L10+12
 379 027c 1B88     		ldrh	r3, [r3]
 380 027e 1D4A     		ldr	r2, .L10+16
 381 0280 A2FB0312 		umull	r1, r2, r2, r3
 382 0284 5209     		lsrs	r2, r2, #5
 383 0286 6421     		movs	r1, #100
 384 0288 01FB02F2 		mul	r2, r1, r2
 385 028c 9B1A     		subs	r3, r3, r2
 386 028e 9BB2     		uxth	r3, r3
 387 0290 1D46     		mov	r5, r3
 388 0292 1A4B     		ldr	r3, .L10+24
 389 0294 1B88     		ldrh	r3, [r3]
 390 0296 174A     		ldr	r2, .L10+16
 391 0298 A2FB0323 		umull	r2, r3, r2, r3
 392 029c 5B09     		lsrs	r3, r3, #5
ARM GAS  C:\Users\PCHAUT~1\AppData\Local\Temp\cc3i1EGf.s 			page 8


 393 029e 9BB2     		uxth	r3, r3
 394 02a0 1846     		mov	r0, r3
 395 02a2 164B     		ldr	r3, .L10+24
 396 02a4 1B88     		ldrh	r3, [r3]
 397 02a6 134A     		ldr	r2, .L10+16
 398 02a8 A2FB0312 		umull	r1, r2, r2, r3
 399 02ac 5209     		lsrs	r2, r2, #5
 400 02ae 6421     		movs	r1, #100
 401 02b0 01FB02F2 		mul	r2, r1, r2
 402 02b4 9B1A     		subs	r3, r3, r2
 403 02b6 9BB2     		uxth	r3, r3
 404 02b8 0193     		str	r3, [sp, #4]
 405 02ba 0090     		str	r0, [sp]
 406 02bc 2B46     		mov	r3, r5
 407 02be 2246     		mov	r2, r4
 408 02c0 0F49     		ldr	r1, .L10+28
 409 02c2 0398     		ldr	r0, [sp, #12]
 410 02c4 FFF7FEFF 		bl	chprintf
 411              		.loc 2 44 0
 412 02c8 0E49     		ldr	r1, .L10+32
 413 02ca 0398     		ldr	r0, [sp, #12]
 414 02cc FFF7FEFF 		bl	chprintf
 415              		.loc 2 45 0
 416 02d0 00BF     		nop
 417 02d2 044B     		ldr	r3, .L10
 418 02d4 059A     		ldr	r2, [sp, #20]
 419 02d6 1B68     		ldr	r3, [r3]
 420 02d8 9A42     		cmp	r2, r3
 421 02da 01D0     		beq	.L9
 422 02dc FFF7FEFF 		bl	__stack_chk_fail
 423              	.L9:
 424 02e0 06B0     		add	sp, sp, #24
 425              		.cfi_def_cfa_offset 16
 426              		@ sp needed
 427 02e2 70BD     		pop	{r4, r5, r6, pc}
 428              	.L11:
 429              		.align	2
 430              	.L10:
 431 02e4 00000000 		.word	__stack_chk_guard
 432 02e8 00000000 		.word	sum.7868
 433 02ec 00000000 		.word	ch
 434 02f0 00000000 		.word	tmp1.7869
 435 02f4 1F85EB51 		.word	1374389535
 436 02f8 00000000 		.word	.LC0
 437 02fc 00000000 		.word	tmp2.7870
 438 0300 10000000 		.word	.LC1
 439 0304 40000000 		.word	.LC2
 440              		.cfi_endproc
 441              	.LFE220:
 442              		.size	printUcUsage, .-printUcUsage
 443              		.section	.bss.sum.7868,"aw",%nobits
 444              		.align	3
 445              		.type	sum.7868, %object
 446              		.size	sum.7868, 8
 447              	sum.7868:
 448 0000 00000000 		.space	8
 448      00000000 
ARM GAS  C:\Users\PCHAUT~1\AppData\Local\Temp\cc3i1EGf.s 			page 9


 449              		.section	.bss.tmp1.7869,"aw",%nobits
 450              		.align	1
 451              		.type	tmp1.7869, %object
 452              		.size	tmp1.7869, 2
 453              	tmp1.7869:
 454 0000 0000     		.space	2
 455              		.section	.bss.tmp2.7870,"aw",%nobits
 456              		.align	1
 457              		.type	tmp2.7870, %object
 458              		.size	tmp2.7870, 2
 459              	tmp2.7870:
 460 0000 0000     		.space	2
 461              		.text
 462              	.Letext0:
 463              		.file 3 "c:\\users\\pchautems\\documents\\robotiquetp\\eclipse_e-puck2\\tools\\gcc-arm-none-eabi-7
 464              		.file 4 "c:\\users\\pchautems\\documents\\robotiquetp\\eclipse_e-puck2\\tools\\gcc-arm-none-eabi-7
 465              		.file 5 "c:\\users\\pchautems\\documents\\robotiquetp\\eclipse_e-puck2\\tools\\gcc-arm-none-eabi-7
 466              		.file 6 "../lib/e-puck2_main-processor/ChibiOS//os/rt/ports/ARMCMx/compilers/GCC/chtypes.h"
 467              		.file 7 "../lib/e-puck2_main-processor/ChibiOS//os/rt/include/chsystypes.h"
 468              		.file 8 "../lib/e-puck2_main-processor/ChibiOS//os/rt/include/chschd.h"
 469              		.file 9 "../lib/e-puck2_main-processor/ChibiOS//os/ext/CMSIS/include/core_cm4.h"
 470              		.file 10 "../lib/e-puck2_main-processor/ChibiOS//os/ext/CMSIS/ST/system_stm32f4xx.h"
 471              		.file 11 "../lib/e-puck2_main-processor/ChibiOS//os/rt/ports/ARMCMx/chcore.h"
 472              		.file 12 "../lib/e-puck2_main-processor/ChibiOS//os/rt/ports/ARMCMx/chcore_v7m.h"
 473              		.file 13 "../lib/e-puck2_main-processor/ChibiOS//os/rt/include/chdebug.h"
 474              		.file 14 "../lib/e-puck2_main-processor/ChibiOS//os/rt/include/chtm.h"
 475              		.file 15 "../lib/e-puck2_main-processor/ChibiOS//os/rt/include/chstats.h"
 476              		.file 16 "../lib/e-puck2_main-processor/ChibiOS//os/rt/include/chsem.h"
 477              		.file 17 "../lib/e-puck2_main-processor/ChibiOS//os/rt/include/chmtx.h"
 478              		.file 18 "../lib/e-puck2_main-processor/ChibiOS//os/rt/include/chregistry.h"
 479              		.file 19 "../lib/e-puck2_main-processor/ChibiOS//os/rt/include/chstreams.h"
 480              		.file 20 "c:\\users\\pchautems\\documents\\robotiquetp\\eclipse_e-puck2\\tools\\gcc-arm-none-eabi-
 481              		.file 21 "<built-in>"