ARM GAS  C:\Users\PCHAUT~1\AppData\Local\Temp\cc7u0cQS.s 			page 1


   1              		.cpu cortex-m4
   2              		.eabi_attribute 27, 1
   3              		.eabi_attribute 28, 1
   4              		.eabi_attribute 20, 1
   5              		.eabi_attribute 21, 1
   6              		.eabi_attribute 23, 3
   7              		.eabi_attribute 24, 1
   8              		.eabi_attribute 25, 1
   9              		.eabi_attribute 26, 1
  10              		.eabi_attribute 30, 6
  11              		.eabi_attribute 34, 1
  12              		.eabi_attribute 18, 4
  13              		.file	"usb.c"
  14              		.text
  15              	.Ltext0:
  16              		.cfi_sections	.debug_frame
  17              		.section	.text.port_lock,"ax",%progbits
  18              		.align	1
  19              		.p2align 4,,15
  20              		.syntax unified
  21              		.thumb
  22              		.thumb_func
  23              		.fpu fpv4-sp-d16
  24              		.type	port_lock, %function
  25              	port_lock:
  26              	.LFB116:
  27              		.file 1 "../lib/e-puck2_main-processor/ChibiOS//os/rt/ports/ARMCMx/chcore_v7m.h"
  28              		.loc 1 444 0
  29              		.cfi_startproc
  30              		@ args = 0, pretend = 0, frame = 8
  31              		@ frame_needed = 0, uses_anonymous_args = 0
  32 0000 00B5     		push	{lr}
  33              		.cfi_def_cfa_offset 4
  34              		.cfi_offset 14, -4
  35 0002 83B0     		sub	sp, sp, #12
  36              		.cfi_def_cfa_offset 16
  37              		.loc 1 444 0
  38 0004 094B     		ldr	r3, .L3
  39 0006 1B68     		ldr	r3, [r3]
  40 0008 0193     		str	r3, [sp, #4]
  41 000a 2023     		movs	r3, #32
  42 000c 0093     		str	r3, [sp]
  43              	.LBB6:
  44              	.LBB7:
  45              		.file 2 "../lib/e-puck2_main-processor/ChibiOS//os/ext/CMSIS/include/core_cmFunc.h"
  46              		.loc 2 546 0
  47 000e 009B     		ldr	r3, [sp]
  48              		.syntax unified
  49              	@ 546 "../lib/e-puck2_main-processor/ChibiOS//os/ext/CMSIS/include/core_cmFunc.h" 1
  50 0010 83F31188 		MSR basepri, r3
  51              	@ 0 "" 2
  52              		.thumb
  53              		.syntax unified
  54              	.LBE7:
  55              	.LBE6:
  56              		.loc 1 451 0
  57 0014 00BF     		nop
ARM GAS  C:\Users\PCHAUT~1\AppData\Local\Temp\cc7u0cQS.s 			page 2


  58 0016 054B     		ldr	r3, .L3
  59 0018 019A     		ldr	r2, [sp, #4]
  60 001a 1B68     		ldr	r3, [r3]
  61 001c 9A42     		cmp	r2, r3
  62 001e 01D0     		beq	.L2
  63 0020 FFF7FEFF 		bl	__stack_chk_fail
  64              	.L2:
  65 0024 03B0     		add	sp, sp, #12
  66              		.cfi_def_cfa_offset 4
  67              		@ sp needed
  68 0026 5DF804FB 		ldr	pc, [sp], #4
  69              	.L4:
  70 002a 00BF     		.align	2
  71              	.L3:
  72 002c 00000000 		.word	__stack_chk_guard
  73              		.cfi_endproc
  74              	.LFE116:
  75              		.size	port_lock, .-port_lock
  76              		.section	.text.port_unlock,"ax",%progbits
  77              		.align	1
  78              		.p2align 4,,15
  79              		.syntax unified
  80              		.thumb
  81              		.thumb_func
  82              		.fpu fpv4-sp-d16
  83              		.type	port_unlock, %function
  84              	port_unlock:
  85              	.LFB117:
  86              		.loc 1 458 0
  87              		.cfi_startproc
  88              		@ args = 0, pretend = 0, frame = 8
  89              		@ frame_needed = 0, uses_anonymous_args = 0
  90 0000 00B5     		push	{lr}
  91              		.cfi_def_cfa_offset 4
  92              		.cfi_offset 14, -4
  93 0002 83B0     		sub	sp, sp, #12
  94              		.cfi_def_cfa_offset 16
  95              		.loc 1 458 0
  96 0004 094B     		ldr	r3, .L7
  97 0006 1B68     		ldr	r3, [r3]
  98 0008 0193     		str	r3, [sp, #4]
  99 000a 0023     		movs	r3, #0
 100 000c 0093     		str	r3, [sp]
 101              	.LBB8:
 102              	.LBB9:
 103              		.loc 2 546 0
 104 000e 009B     		ldr	r3, [sp]
 105              		.syntax unified
 106              	@ 546 "../lib/e-puck2_main-processor/ChibiOS//os/ext/CMSIS/include/core_cmFunc.h" 1
 107 0010 83F31188 		MSR basepri, r3
 108              	@ 0 "" 2
 109              		.thumb
 110              		.syntax unified
 111              	.LBE9:
 112              	.LBE8:
 113              		.loc 1 465 0
 114 0014 00BF     		nop
ARM GAS  C:\Users\PCHAUT~1\AppData\Local\Temp\cc7u0cQS.s 			page 3


 115 0016 054B     		ldr	r3, .L7
 116 0018 019A     		ldr	r2, [sp, #4]
 117 001a 1B68     		ldr	r3, [r3]
 118 001c 9A42     		cmp	r2, r3
 119 001e 01D0     		beq	.L6
 120 0020 FFF7FEFF 		bl	__stack_chk_fail
 121              	.L6:
 122 0024 03B0     		add	sp, sp, #12
 123              		.cfi_def_cfa_offset 4
 124              		@ sp needed
 125 0026 5DF804FB 		ldr	pc, [sp], #4
 126              	.L8:
 127 002a 00BF     		.align	2
 128              	.L7:
 129 002c 00000000 		.word	__stack_chk_guard
 130              		.cfi_endproc
 131              	.LFE117:
 132              		.size	port_unlock, .-port_unlock
 133              		.section	.text.port_lock_from_isr,"ax",%progbits
 134              		.align	1
 135              		.p2align 4,,15
 136              		.syntax unified
 137              		.thumb
 138              		.thumb_func
 139              		.fpu fpv4-sp-d16
 140              		.type	port_lock_from_isr, %function
 141              	port_lock_from_isr:
 142              	.LFB118:
 143              		.loc 1 473 0
 144              		.cfi_startproc
 145              		@ args = 0, pretend = 0, frame = 8
 146              		@ frame_needed = 0, uses_anonymous_args = 0
 147 0000 00B5     		push	{lr}
 148              		.cfi_def_cfa_offset 4
 149              		.cfi_offset 14, -4
 150 0002 83B0     		sub	sp, sp, #12
 151              		.cfi_def_cfa_offset 16
 152              		.loc 1 473 0
 153 0004 074B     		ldr	r3, .L11
 154 0006 1B68     		ldr	r3, [r3]
 155 0008 0193     		str	r3, [sp, #4]
 156              		.loc 1 475 0
 157 000a FFF7FEFF 		bl	port_lock
 158              		.loc 1 476 0
 159 000e 00BF     		nop
 160 0010 044B     		ldr	r3, .L11
 161 0012 019A     		ldr	r2, [sp, #4]
 162 0014 1B68     		ldr	r3, [r3]
 163 0016 9A42     		cmp	r2, r3
 164 0018 01D0     		beq	.L10
 165 001a FFF7FEFF 		bl	__stack_chk_fail
 166              	.L10:
 167 001e 03B0     		add	sp, sp, #12
 168              		.cfi_def_cfa_offset 4
 169              		@ sp needed
 170 0020 5DF804FB 		ldr	pc, [sp], #4
 171              	.L12:
ARM GAS  C:\Users\PCHAUT~1\AppData\Local\Temp\cc7u0cQS.s 			page 4


 172              		.align	2
 173              	.L11:
 174 0024 00000000 		.word	__stack_chk_guard
 175              		.cfi_endproc
 176              	.LFE118:
 177              		.size	port_lock_from_isr, .-port_lock_from_isr
 178              		.section	.text.port_unlock_from_isr,"ax",%progbits
 179              		.align	1
 180              		.p2align 4,,15
 181              		.syntax unified
 182              		.thumb
 183              		.thumb_func
 184              		.fpu fpv4-sp-d16
 185              		.type	port_unlock_from_isr, %function
 186              	port_unlock_from_isr:
 187              	.LFB119:
 188              		.loc 1 484 0
 189              		.cfi_startproc
 190              		@ args = 0, pretend = 0, frame = 8
 191              		@ frame_needed = 0, uses_anonymous_args = 0
 192 0000 00B5     		push	{lr}
 193              		.cfi_def_cfa_offset 4
 194              		.cfi_offset 14, -4
 195 0002 83B0     		sub	sp, sp, #12
 196              		.cfi_def_cfa_offset 16
 197              		.loc 1 484 0
 198 0004 074B     		ldr	r3, .L15
 199 0006 1B68     		ldr	r3, [r3]
 200 0008 0193     		str	r3, [sp, #4]
 201              		.loc 1 486 0
 202 000a FFF7FEFF 		bl	port_unlock
 203              		.loc 1 487 0
 204 000e 00BF     		nop
 205 0010 044B     		ldr	r3, .L15
 206 0012 019A     		ldr	r2, [sp, #4]
 207 0014 1B68     		ldr	r3, [r3]
 208 0016 9A42     		cmp	r2, r3
 209 0018 01D0     		beq	.L14
 210 001a FFF7FEFF 		bl	__stack_chk_fail
 211              	.L14:
 212 001e 03B0     		add	sp, sp, #12
 213              		.cfi_def_cfa_offset 4
 214              		@ sp needed
 215 0020 5DF804FB 		ldr	pc, [sp], #4
 216              	.L16:
 217              		.align	2
 218              	.L15:
 219 0024 00000000 		.word	__stack_chk_guard
 220              		.cfi_endproc
 221              	.LFE119:
 222              		.size	port_unlock_from_isr, .-port_unlock_from_isr
 223              		.section	.text.chSysLock,"ax",%progbits
 224              		.align	1
 225              		.p2align 4,,15
 226              		.syntax unified
 227              		.thumb
 228              		.thumb_func
ARM GAS  C:\Users\PCHAUT~1\AppData\Local\Temp\cc7u0cQS.s 			page 5


 229              		.fpu fpv4-sp-d16
 230              		.type	chSysLock, %function
 231              	chSysLock:
 232              	.LFB145:
 233              		.file 3 "../lib/e-puck2_main-processor/ChibiOS//os/rt/include/chsys.h"
 234              		.loc 3 346 0
 235              		.cfi_startproc
 236              		@ args = 0, pretend = 0, frame = 8
 237              		@ frame_needed = 0, uses_anonymous_args = 0
 238 0000 00B5     		push	{lr}
 239              		.cfi_def_cfa_offset 4
 240              		.cfi_offset 14, -4
 241 0002 83B0     		sub	sp, sp, #12
 242              		.cfi_def_cfa_offset 16
 243              		.loc 3 346 0
 244 0004 094B     		ldr	r3, .L19
 245 0006 1B68     		ldr	r3, [r3]
 246 0008 0193     		str	r3, [sp, #4]
 247              		.loc 3 348 0
 248 000a FFF7FEFF 		bl	port_lock
 249              		.loc 3 349 0
 250 000e FFF7FEFF 		bl	_stats_start_measure_crit_thd
 251              		.loc 3 350 0
 252 0012 FFF7FEFF 		bl	_dbg_check_lock
 253              		.loc 3 351 0
 254 0016 00BF     		nop
 255 0018 044B     		ldr	r3, .L19
 256 001a 019A     		ldr	r2, [sp, #4]
 257 001c 1B68     		ldr	r3, [r3]
 258 001e 9A42     		cmp	r2, r3
 259 0020 01D0     		beq	.L18
 260 0022 FFF7FEFF 		bl	__stack_chk_fail
 261              	.L18:
 262 0026 03B0     		add	sp, sp, #12
 263              		.cfi_def_cfa_offset 4
 264              		@ sp needed
 265 0028 5DF804FB 		ldr	pc, [sp], #4
 266              	.L20:
 267              		.align	2
 268              	.L19:
 269 002c 00000000 		.word	__stack_chk_guard
 270              		.cfi_endproc
 271              	.LFE145:
 272              		.size	chSysLock, .-chSysLock
 273              		.section	.text.chSysUnlock,"ax",%progbits
 274              		.align	1
 275              		.p2align 4,,15
 276              		.syntax unified
 277              		.thumb
 278              		.thumb_func
 279              		.fpu fpv4-sp-d16
 280              		.type	chSysUnlock, %function
 281              	chSysUnlock:
 282              	.LFB146:
 283              		.loc 3 358 0
 284              		.cfi_startproc
 285              		@ args = 0, pretend = 0, frame = 8
ARM GAS  C:\Users\PCHAUT~1\AppData\Local\Temp\cc7u0cQS.s 			page 6


 286              		@ frame_needed = 0, uses_anonymous_args = 0
 287 0000 00B5     		push	{lr}
 288              		.cfi_def_cfa_offset 4
 289              		.cfi_offset 14, -4
 290 0002 83B0     		sub	sp, sp, #12
 291              		.cfi_def_cfa_offset 16
 292              		.loc 3 358 0
 293 0004 114B     		ldr	r3, .L24
 294 0006 1B68     		ldr	r3, [r3]
 295 0008 0193     		str	r3, [sp, #4]
 296              		.loc 3 360 0
 297 000a FFF7FEFF 		bl	_dbg_check_unlock
 298              		.loc 3 361 0
 299 000e FFF7FEFF 		bl	_stats_stop_measure_crit_thd
 300              		.loc 3 367 0
 301 0012 0F4B     		ldr	r3, .L24+4
 302 0014 1B68     		ldr	r3, [r3]
 303 0016 0E4A     		ldr	r2, .L24+4
 304 0018 9342     		cmp	r3, r2
 305 001a 0AD0     		beq	.L22
 306              		.loc 3 367 0 is_stmt 0 discriminator 2
 307 001c 0C4B     		ldr	r3, .L24+4
 308 001e 9B69     		ldr	r3, [r3, #24]
 309 0020 9A68     		ldr	r2, [r3, #8]
 310 0022 0B4B     		ldr	r3, .L24+4
 311 0024 1B68     		ldr	r3, [r3]
 312 0026 9B68     		ldr	r3, [r3, #8]
 313 0028 9A42     		cmp	r2, r3
 314 002a 02D2     		bcs	.L22
 315              		.loc 3 367 0 discriminator 3
 316 002c 0948     		ldr	r0, .L24+8
 317 002e FFF7FEFF 		bl	chSysHalt
 318              	.L22:
 319              		.loc 3 371 0 is_stmt 1
 320 0032 FFF7FEFF 		bl	port_unlock
 321              		.loc 3 372 0
 322 0036 00BF     		nop
 323 0038 044B     		ldr	r3, .L24
 324 003a 019A     		ldr	r2, [sp, #4]
 325 003c 1B68     		ldr	r3, [r3]
 326 003e 9A42     		cmp	r2, r3
 327 0040 01D0     		beq	.L23
 328 0042 FFF7FEFF 		bl	__stack_chk_fail
 329              	.L23:
 330 0046 03B0     		add	sp, sp, #12
 331              		.cfi_def_cfa_offset 4
 332              		@ sp needed
 333 0048 5DF804FB 		ldr	pc, [sp], #4
 334              	.L25:
 335              		.align	2
 336              	.L24:
 337 004c 00000000 		.word	__stack_chk_guard
 338 0050 00000000 		.word	ch
 339 0054 00000000 		.word	__func__.7554
 340              		.cfi_endproc
 341              	.LFE146:
 342              		.size	chSysUnlock, .-chSysUnlock
ARM GAS  C:\Users\PCHAUT~1\AppData\Local\Temp\cc7u0cQS.s 			page 7


 343              		.section	.text.chSysLockFromISR,"ax",%progbits
 344              		.align	1
 345              		.p2align 4,,15
 346              		.syntax unified
 347              		.thumb
 348              		.thumb_func
 349              		.fpu fpv4-sp-d16
 350              		.type	chSysLockFromISR, %function
 351              	chSysLockFromISR:
 352              	.LFB147:
 353              		.loc 3 386 0
 354              		.cfi_startproc
 355              		@ args = 0, pretend = 0, frame = 8
 356              		@ frame_needed = 0, uses_anonymous_args = 0
 357 0000 00B5     		push	{lr}
 358              		.cfi_def_cfa_offset 4
 359              		.cfi_offset 14, -4
 360 0002 83B0     		sub	sp, sp, #12
 361              		.cfi_def_cfa_offset 16
 362              		.loc 3 386 0
 363 0004 094B     		ldr	r3, .L28
 364 0006 1B68     		ldr	r3, [r3]
 365 0008 0193     		str	r3, [sp, #4]
 366              		.loc 3 388 0
 367 000a FFF7FEFF 		bl	port_lock_from_isr
 368              		.loc 3 389 0
 369 000e FFF7FEFF 		bl	_stats_start_measure_crit_isr
 370              		.loc 3 390 0
 371 0012 FFF7FEFF 		bl	_dbg_check_lock_from_isr
 372              		.loc 3 391 0
 373 0016 00BF     		nop
 374 0018 044B     		ldr	r3, .L28
 375 001a 019A     		ldr	r2, [sp, #4]
 376 001c 1B68     		ldr	r3, [r3]
 377 001e 9A42     		cmp	r2, r3
 378 0020 01D0     		beq	.L27
 379 0022 FFF7FEFF 		bl	__stack_chk_fail
 380              	.L27:
 381 0026 03B0     		add	sp, sp, #12
 382              		.cfi_def_cfa_offset 4
 383              		@ sp needed
 384 0028 5DF804FB 		ldr	pc, [sp], #4
 385              	.L29:
 386              		.align	2
 387              	.L28:
 388 002c 00000000 		.word	__stack_chk_guard
 389              		.cfi_endproc
 390              	.LFE147:
 391              		.size	chSysLockFromISR, .-chSysLockFromISR
 392              		.section	.text.chSysUnlockFromISR,"ax",%progbits
 393              		.align	1
 394              		.p2align 4,,15
 395              		.syntax unified
 396              		.thumb
 397              		.thumb_func
 398              		.fpu fpv4-sp-d16
 399              		.type	chSysUnlockFromISR, %function
ARM GAS  C:\Users\PCHAUT~1\AppData\Local\Temp\cc7u0cQS.s 			page 8


 400              	chSysUnlockFromISR:
 401              	.LFB148:
 402              		.loc 3 406 0
 403              		.cfi_startproc
 404              		@ args = 0, pretend = 0, frame = 8
 405              		@ frame_needed = 0, uses_anonymous_args = 0
 406 0000 00B5     		push	{lr}
 407              		.cfi_def_cfa_offset 4
 408              		.cfi_offset 14, -4
 409 0002 83B0     		sub	sp, sp, #12
 410              		.cfi_def_cfa_offset 16
 411              		.loc 3 406 0
 412 0004 094B     		ldr	r3, .L32
 413 0006 1B68     		ldr	r3, [r3]
 414 0008 0193     		str	r3, [sp, #4]
 415              		.loc 3 408 0
 416 000a FFF7FEFF 		bl	_dbg_check_unlock_from_isr
 417              		.loc 3 409 0
 418 000e FFF7FEFF 		bl	_stats_stop_measure_crit_isr
 419              		.loc 3 410 0
 420 0012 FFF7FEFF 		bl	port_unlock_from_isr
 421              		.loc 3 411 0
 422 0016 00BF     		nop
 423 0018 044B     		ldr	r3, .L32
 424 001a 019A     		ldr	r2, [sp, #4]
 425 001c 1B68     		ldr	r3, [r3]
 426 001e 9A42     		cmp	r2, r3
 427 0020 01D0     		beq	.L31
 428 0022 FFF7FEFF 		bl	__stack_chk_fail
 429              	.L31:
 430 0026 03B0     		add	sp, sp, #12
 431              		.cfi_def_cfa_offset 4
 432              		@ sp needed
 433 0028 5DF804FB 		ldr	pc, [sp], #4
 434              	.L33:
 435              		.align	2
 436              	.L32:
 437 002c 00000000 		.word	__stack_chk_guard
 438              		.cfi_endproc
 439              	.LFE148:
 440              		.size	chSysUnlockFromISR, .-chSysUnlockFromISR
 441              		.section	.text.osalSysLock,"ax",%progbits
 442              		.align	1
 443              		.p2align 4,,15
 444              		.syntax unified
 445              		.thumb
 446              		.thumb_func
 447              		.fpu fpv4-sp-d16
 448              		.type	osalSysLock, %function
 449              	osalSysLock:
 450              	.LFB223:
 451              		.file 4 "../lib/e-puck2_main-processor/ChibiOS//os/hal/osal/rt/osal.h"
 452              		.loc 4 445 0
 453              		.cfi_startproc
 454              		@ args = 0, pretend = 0, frame = 8
 455              		@ frame_needed = 0, uses_anonymous_args = 0
 456 0000 00B5     		push	{lr}
ARM GAS  C:\Users\PCHAUT~1\AppData\Local\Temp\cc7u0cQS.s 			page 9


 457              		.cfi_def_cfa_offset 4
 458              		.cfi_offset 14, -4
 459 0002 83B0     		sub	sp, sp, #12
 460              		.cfi_def_cfa_offset 16
 461              		.loc 4 445 0
 462 0004 074B     		ldr	r3, .L36
 463 0006 1B68     		ldr	r3, [r3]
 464 0008 0193     		str	r3, [sp, #4]
 465              		.loc 4 447 0
 466 000a FFF7FEFF 		bl	chSysLock
 467              		.loc 4 448 0
 468 000e 00BF     		nop
 469 0010 044B     		ldr	r3, .L36
 470 0012 019A     		ldr	r2, [sp, #4]
 471 0014 1B68     		ldr	r3, [r3]
 472 0016 9A42     		cmp	r2, r3
 473 0018 01D0     		beq	.L35
 474 001a FFF7FEFF 		bl	__stack_chk_fail
 475              	.L35:
 476 001e 03B0     		add	sp, sp, #12
 477              		.cfi_def_cfa_offset 4
 478              		@ sp needed
 479 0020 5DF804FB 		ldr	pc, [sp], #4
 480              	.L37:
 481              		.align	2
 482              	.L36:
 483 0024 00000000 		.word	__stack_chk_guard
 484              		.cfi_endproc
 485              	.LFE223:
 486              		.size	osalSysLock, .-osalSysLock
 487              		.section	.text.osalSysUnlock,"ax",%progbits
 488              		.align	1
 489              		.p2align 4,,15
 490              		.syntax unified
 491              		.thumb
 492              		.thumb_func
 493              		.fpu fpv4-sp-d16
 494              		.type	osalSysUnlock, %function
 495              	osalSysUnlock:
 496              	.LFB224:
 497              		.loc 4 456 0
 498              		.cfi_startproc
 499              		@ args = 0, pretend = 0, frame = 8
 500              		@ frame_needed = 0, uses_anonymous_args = 0
 501 0000 00B5     		push	{lr}
 502              		.cfi_def_cfa_offset 4
 503              		.cfi_offset 14, -4
 504 0002 83B0     		sub	sp, sp, #12
 505              		.cfi_def_cfa_offset 16
 506              		.loc 4 456 0
 507 0004 074B     		ldr	r3, .L40
 508 0006 1B68     		ldr	r3, [r3]
 509 0008 0193     		str	r3, [sp, #4]
 510              		.loc 4 458 0
 511 000a FFF7FEFF 		bl	chSysUnlock
 512              		.loc 4 459 0
 513 000e 00BF     		nop
ARM GAS  C:\Users\PCHAUT~1\AppData\Local\Temp\cc7u0cQS.s 			page 10


 514 0010 044B     		ldr	r3, .L40
 515 0012 019A     		ldr	r2, [sp, #4]
 516 0014 1B68     		ldr	r3, [r3]
 517 0016 9A42     		cmp	r2, r3
 518 0018 01D0     		beq	.L39
 519 001a FFF7FEFF 		bl	__stack_chk_fail
 520              	.L39:
 521 001e 03B0     		add	sp, sp, #12
 522              		.cfi_def_cfa_offset 4
 523              		@ sp needed
 524 0020 5DF804FB 		ldr	pc, [sp], #4
 525              	.L41:
 526              		.align	2
 527              	.L40:
 528 0024 00000000 		.word	__stack_chk_guard
 529              		.cfi_endproc
 530              	.LFE224:
 531              		.size	osalSysUnlock, .-osalSysUnlock
 532              		.section	.text.osalSysLockFromISR,"ax",%progbits
 533              		.align	1
 534              		.p2align 4,,15
 535              		.syntax unified
 536              		.thumb
 537              		.thumb_func
 538              		.fpu fpv4-sp-d16
 539              		.type	osalSysLockFromISR, %function
 540              	osalSysLockFromISR:
 541              	.LFB225:
 542              		.loc 4 467 0
 543              		.cfi_startproc
 544              		@ args = 0, pretend = 0, frame = 8
 545              		@ frame_needed = 0, uses_anonymous_args = 0
 546 0000 00B5     		push	{lr}
 547              		.cfi_def_cfa_offset 4
 548              		.cfi_offset 14, -4
 549 0002 83B0     		sub	sp, sp, #12
 550              		.cfi_def_cfa_offset 16
 551              		.loc 4 467 0
 552 0004 074B     		ldr	r3, .L44
 553 0006 1B68     		ldr	r3, [r3]
 554 0008 0193     		str	r3, [sp, #4]
 555              		.loc 4 469 0
 556 000a FFF7FEFF 		bl	chSysLockFromISR
 557              		.loc 4 470 0
 558 000e 00BF     		nop
 559 0010 044B     		ldr	r3, .L44
 560 0012 019A     		ldr	r2, [sp, #4]
 561 0014 1B68     		ldr	r3, [r3]
 562 0016 9A42     		cmp	r2, r3
 563 0018 01D0     		beq	.L43
 564 001a FFF7FEFF 		bl	__stack_chk_fail
 565              	.L43:
 566 001e 03B0     		add	sp, sp, #12
 567              		.cfi_def_cfa_offset 4
 568              		@ sp needed
 569 0020 5DF804FB 		ldr	pc, [sp], #4
 570              	.L45:
ARM GAS  C:\Users\PCHAUT~1\AppData\Local\Temp\cc7u0cQS.s 			page 11


 571              		.align	2
 572              	.L44:
 573 0024 00000000 		.word	__stack_chk_guard
 574              		.cfi_endproc
 575              	.LFE225:
 576              		.size	osalSysLockFromISR, .-osalSysLockFromISR
 577              		.section	.text.osalSysUnlockFromISR,"ax",%progbits
 578              		.align	1
 579              		.p2align 4,,15
 580              		.syntax unified
 581              		.thumb
 582              		.thumb_func
 583              		.fpu fpv4-sp-d16
 584              		.type	osalSysUnlockFromISR, %function
 585              	osalSysUnlockFromISR:
 586              	.LFB226:
 587              		.loc 4 478 0
 588              		.cfi_startproc
 589              		@ args = 0, pretend = 0, frame = 8
 590              		@ frame_needed = 0, uses_anonymous_args = 0
 591 0000 00B5     		push	{lr}
 592              		.cfi_def_cfa_offset 4
 593              		.cfi_offset 14, -4
 594 0002 83B0     		sub	sp, sp, #12
 595              		.cfi_def_cfa_offset 16
 596              		.loc 4 478 0
 597 0004 074B     		ldr	r3, .L48
 598 0006 1B68     		ldr	r3, [r3]
 599 0008 0193     		str	r3, [sp, #4]
 600              		.loc 4 480 0
 601 000a FFF7FEFF 		bl	chSysUnlockFromISR
 602              		.loc 4 481 0
 603 000e 00BF     		nop
 604 0010 044B     		ldr	r3, .L48
 605 0012 019A     		ldr	r2, [sp, #4]
 606 0014 1B68     		ldr	r3, [r3]
 607 0016 9A42     		cmp	r2, r3
 608 0018 01D0     		beq	.L47
 609 001a FFF7FEFF 		bl	__stack_chk_fail
 610              	.L47:
 611 001e 03B0     		add	sp, sp, #12
 612              		.cfi_def_cfa_offset 4
 613              		@ sp needed
 614 0020 5DF804FB 		ldr	pc, [sp], #4
 615              	.L49:
 616              		.align	2
 617              	.L48:
 618 0024 00000000 		.word	__stack_chk_guard
 619              		.cfi_endproc
 620              	.LFE226:
 621              		.size	osalSysUnlockFromISR, .-osalSysUnlockFromISR
 622              		.section	.rodata.zero_status,"a",%progbits
 623              		.align	2
 624              		.type	zero_status, %object
 625              		.size	zero_status, 2
 626              	zero_status:
 627 0000 0000     		.space	2
ARM GAS  C:\Users\PCHAUT~1\AppData\Local\Temp\cc7u0cQS.s 			page 12


 628              		.section	.rodata.active_status,"a",%progbits
 629              		.align	2
 630              		.type	active_status, %object
 631              		.size	active_status, 2
 632              	active_status:
 633 0000 0000     		.space	2
 634              		.section	.rodata.halted_status,"a",%progbits
 635              		.align	2
 636              		.type	halted_status, %object
 637              		.size	halted_status, 2
 638              	halted_status:
 639 0000 01       		.byte	1
 640 0001 00       		.byte	0
 641              		.section	.text.get_hword,"ax",%progbits
 642              		.align	1
 643              		.p2align 4,,15
 644              		.syntax unified
 645              		.thumb
 646              		.thumb_func
 647              		.fpu fpv4-sp-d16
 648              		.type	get_hword, %function
 649              	get_hword:
 650              	.LFB256:
 651              		.file 5 "../lib/e-puck2_main-processor/ChibiOS//os/hal/src/usb.c"
 652              		.loc 5 51 0
 653              		.cfi_startproc
 654              		@ args = 0, pretend = 0, frame = 16
 655              		@ frame_needed = 0, uses_anonymous_args = 0
 656 0000 00B5     		push	{lr}
 657              		.cfi_def_cfa_offset 4
 658              		.cfi_offset 14, -4
 659 0002 85B0     		sub	sp, sp, #20
 660              		.cfi_def_cfa_offset 24
 661 0004 0190     		str	r0, [sp, #4]
 662              		.loc 5 51 0
 663 0006 104B     		ldr	r3, .L53
 664 0008 1B68     		ldr	r3, [r3]
 665 000a 0393     		str	r3, [sp, #12]
 666              		.loc 5 54 0
 667 000c 019B     		ldr	r3, [sp, #4]
 668 000e 5A1C     		adds	r2, r3, #1
 669 0010 0192     		str	r2, [sp, #4]
 670 0012 1B78     		ldrb	r3, [r3]	@ zero_extendqisi2
 671 0014 ADF80A30 		strh	r3, [sp, #10]	@ movhi
 672              		.loc 5 55 0
 673 0018 019B     		ldr	r3, [sp, #4]
 674 001a 1B78     		ldrb	r3, [r3]	@ zero_extendqisi2
 675 001c 1B02     		lsls	r3, r3, #8
 676 001e 1AB2     		sxth	r2, r3
 677 0020 BDF90A30 		ldrsh	r3, [sp, #10]
 678 0024 1343     		orrs	r3, r3, r2
 679 0026 1BB2     		sxth	r3, r3
 680 0028 ADF80A30 		strh	r3, [sp, #10]	@ movhi
 681              		.loc 5 56 0
 682 002c BDF80A30 		ldrh	r3, [sp, #10]
 683              		.loc 5 57 0
 684 0030 1846     		mov	r0, r3
ARM GAS  C:\Users\PCHAUT~1\AppData\Local\Temp\cc7u0cQS.s 			page 13


 685 0032 054B     		ldr	r3, .L53
 686 0034 039A     		ldr	r2, [sp, #12]
 687 0036 1B68     		ldr	r3, [r3]
 688 0038 9A42     		cmp	r2, r3
 689 003a 01D0     		beq	.L52
 690 003c FFF7FEFF 		bl	__stack_chk_fail
 691              	.L52:
 692 0040 05B0     		add	sp, sp, #20
 693              		.cfi_def_cfa_offset 4
 694              		@ sp needed
 695 0042 5DF804FB 		ldr	pc, [sp], #4
 696              	.L54:
 697 0046 00BF     		.align	2
 698              	.L53:
 699 0048 00000000 		.word	__stack_chk_guard
 700              		.cfi_endproc
 701              	.LFE256:
 702              		.size	get_hword, .-get_hword
 703              		.section	.text.set_address,"ax",%progbits
 704              		.align	1
 705              		.p2align 4,,15
 706              		.syntax unified
 707              		.thumb
 708              		.thumb_func
 709              		.fpu fpv4-sp-d16
 710              		.type	set_address, %function
 711              	set_address:
 712              	.LFB257:
 713              		.loc 5 64 0
 714              		.cfi_startproc
 715              		@ args = 0, pretend = 0, frame = 16
 716              		@ frame_needed = 0, uses_anonymous_args = 0
 717 0000 00B5     		push	{lr}
 718              		.cfi_def_cfa_offset 4
 719              		.cfi_offset 14, -4
 720 0002 85B0     		sub	sp, sp, #20
 721              		.cfi_def_cfa_offset 24
 722 0004 0190     		str	r0, [sp, #4]
 723              		.loc 5 64 0
 724 0006 124B     		ldr	r3, .L58
 725 0008 1B68     		ldr	r3, [r3]
 726 000a 0393     		str	r3, [sp, #12]
 727              		.loc 5 66 0
 728 000c 019B     		ldr	r3, [sp, #4]
 729 000e 93F84620 		ldrb	r2, [r3, #70]	@ zero_extendqisi2
 730 0012 019B     		ldr	r3, [sp, #4]
 731 0014 83F84E20 		strb	r2, [r3, #78]
 732              		.loc 5 67 0
 733 0018 0198     		ldr	r0, [sp, #4]
 734 001a FFF7FEFF 		bl	usb_lld_set_address
 735              		.loc 5 68 0
 736 001e 019B     		ldr	r3, [sp, #4]
 737 0020 5B68     		ldr	r3, [r3, #4]
 738 0022 1B68     		ldr	r3, [r3]
 739 0024 002B     		cmp	r3, #0
 740 0026 05D0     		beq	.L56
 741              		.loc 5 68 0 is_stmt 0 discriminator 1
ARM GAS  C:\Users\PCHAUT~1\AppData\Local\Temp\cc7u0cQS.s 			page 14


 742 0028 019B     		ldr	r3, [sp, #4]
 743 002a 5B68     		ldr	r3, [r3, #4]
 744 002c 1B68     		ldr	r3, [r3]
 745 002e 0121     		movs	r1, #1
 746 0030 0198     		ldr	r0, [sp, #4]
 747 0032 9847     		blx	r3
 748              	.LVL0:
 749              	.L56:
 750              		.loc 5 69 0 is_stmt 1
 751 0034 019B     		ldr	r3, [sp, #4]
 752 0036 0322     		movs	r2, #3
 753 0038 1A70     		strb	r2, [r3]
 754              		.loc 5 70 0
 755 003a 00BF     		nop
 756 003c 044B     		ldr	r3, .L58
 757 003e 039A     		ldr	r2, [sp, #12]
 758 0040 1B68     		ldr	r3, [r3]
 759 0042 9A42     		cmp	r2, r3
 760 0044 01D0     		beq	.L57
 761 0046 FFF7FEFF 		bl	__stack_chk_fail
 762              	.L57:
 763 004a 05B0     		add	sp, sp, #20
 764              		.cfi_def_cfa_offset 4
 765              		@ sp needed
 766 004c 5DF804FB 		ldr	pc, [sp], #4
 767              	.L59:
 768              		.align	2
 769              	.L58:
 770 0050 00000000 		.word	__stack_chk_guard
 771              		.cfi_endproc
 772              	.LFE257:
 773              		.size	set_address, .-set_address
 774              		.section	.text.default_handler,"ax",%progbits
 775              		.align	1
 776              		.p2align 4,,15
 777              		.syntax unified
 778              		.thumb
 779              		.thumb_func
 780              		.fpu fpv4-sp-d16
 781              		.type	default_handler, %function
 782              	default_handler:
 783              	.LFB258:
 784              		.loc 5 84 0
 785              		.cfi_startproc
 786              		@ args = 0, pretend = 0, frame = 16
 787              		@ frame_needed = 0, uses_anonymous_args = 0
 788 0000 70B5     		push	{r4, r5, r6, lr}
 789              		.cfi_def_cfa_offset 16
 790              		.cfi_offset 4, -16
 791              		.cfi_offset 5, -12
 792              		.cfi_offset 6, -8
 793              		.cfi_offset 14, -4
 794 0002 84B0     		sub	sp, sp, #16
 795              		.cfi_def_cfa_offset 32
 796 0004 0190     		str	r0, [sp, #4]
 797              		.loc 5 84 0
 798 0006 A64B     		ldr	r3, .L100
ARM GAS  C:\Users\PCHAUT~1\AppData\Local\Temp\cc7u0cQS.s 			page 15


 799 0008 1B68     		ldr	r3, [r3]
 800 000a 0393     		str	r3, [sp, #12]
 801              		.loc 5 88 0
 802 000c 019B     		ldr	r3, [sp, #4]
 803 000e 93F84430 		ldrb	r3, [r3, #68]	@ zero_extendqisi2
 804 0012 03F07F02 		and	r2, r3, #127
 805              		.loc 5 90 0
 806 0016 019B     		ldr	r3, [sp, #4]
 807 0018 93F84530 		ldrb	r3, [r3, #69]	@ zero_extendqisi2
 808 001c 1B02     		lsls	r3, r3, #8
 809              		.loc 5 89 0
 810 001e 1343     		orrs	r3, r3, r2
 811              		.loc 5 88 0
 812 0020 B3F5407F 		cmp	r3, #768
 813 0024 5AD0     		beq	.L62
 814 0026 B3F5407F 		cmp	r3, #768
 815 002a 12D8     		bhi	.L63
 816 002c 022B     		cmp	r3, #2
 817 002e 00F0EE80 		beq	.L64
 818 0032 022B     		cmp	r3, #2
 819 0034 05D8     		bhi	.L65
 820 0036 002B     		cmp	r3, #0
 821 0038 28D0     		beq	.L66
 822 003a 012B     		cmp	r3, #1
 823 003c 00F0DC80 		beq	.L67
 824 0040 ABE1     		b	.L61
 825              	.L65:
 826 0042 B3F5807F 		cmp	r3, #256
 827 0046 2ED0     		beq	.L68
 828 0048 B3F5817F 		cmp	r3, #258
 829 004c 00F03D81 		beq	.L69
 830 0050 A3E1     		b	.L61
 831              	.L63:
 832 0052 B3F5C06F 		cmp	r3, #1536
 833 0056 74D0     		beq	.L70
 834 0058 B3F5C06F 		cmp	r3, #1536
 835 005c 08D8     		bhi	.L71
 836 005e 40F20232 		movw	r2, #770
 837 0062 9342     		cmp	r3, r2
 838 0064 00F06581 		beq	.L72
 839 0068 B3F5A06F 		cmp	r3, #1280
 840 006c 51D0     		beq	.L73
 841 006e 94E1     		b	.L61
 842              	.L71:
 843 0070 B3F5106F 		cmp	r3, #2304
 844 0074 00F09880 		beq	.L74
 845 0078 40F60242 		movw	r2, #3074
 846 007c 9342     		cmp	r3, r2
 847 007e 00F0BB80 		beq	.L67
 848 0082 B3F5006F 		cmp	r3, #2048
 849 0086 00F08280 		beq	.L75
 850 008a 86E1     		b	.L61
 851              	.L66:
 852              		.loc 5 93 0
 853 008c 019B     		ldr	r3, [sp, #4]
 854 008e 03F14C02 		add	r2, r3, #76
 855 0092 019B     		ldr	r3, [sp, #4]
ARM GAS  C:\Users\PCHAUT~1\AppData\Local\Temp\cc7u0cQS.s 			page 16


 856 0094 9A63     		str	r2, [r3, #56]
 857 0096 019B     		ldr	r3, [sp, #4]
 858 0098 0222     		movs	r2, #2
 859 009a DA63     		str	r2, [r3, #60]
 860 009c 019B     		ldr	r3, [sp, #4]
 861 009e 0022     		movs	r2, #0
 862 00a0 1A64     		str	r2, [r3, #64]
 863              		.loc 5 94 0
 864 00a2 0123     		movs	r3, #1
 865 00a4 7AE1     		b	.L76
 866              	.L68:
 867              		.loc 5 98 0
 868 00a6 019B     		ldr	r3, [sp, #4]
 869 00a8 93F84630 		ldrb	r3, [r3, #70]	@ zero_extendqisi2
 870 00ac 012B     		cmp	r3, #1
 871 00ae 13D1     		bne	.L77
 872              		.loc 5 99 0
 873 00b0 019B     		ldr	r3, [sp, #4]
 874 00b2 B3F84C30 		ldrh	r3, [r3, #76]
 875 00b6 23F00203 		bic	r3, r3, #2
 876 00ba 9AB2     		uxth	r2, r3
 877 00bc 019B     		ldr	r3, [sp, #4]
 878 00be A3F84C20 		strh	r2, [r3, #76]	@ movhi
 879              		.loc 5 100 0
 880 00c2 019B     		ldr	r3, [sp, #4]
 881 00c4 0022     		movs	r2, #0
 882 00c6 9A63     		str	r2, [r3, #56]
 883 00c8 019B     		ldr	r3, [sp, #4]
 884 00ca 0022     		movs	r2, #0
 885 00cc DA63     		str	r2, [r3, #60]
 886 00ce 019B     		ldr	r3, [sp, #4]
 887 00d0 0022     		movs	r2, #0
 888 00d2 1A64     		str	r2, [r3, #64]
 889              		.loc 5 101 0
 890 00d4 0123     		movs	r3, #1
 891 00d6 61E1     		b	.L76
 892              	.L77:
 893              		.loc 5 103 0
 894 00d8 0023     		movs	r3, #0
 895 00da 5FE1     		b	.L76
 896              	.L62:
 897              		.loc 5 107 0
 898 00dc 019B     		ldr	r3, [sp, #4]
 899 00de 93F84630 		ldrb	r3, [r3, #70]	@ zero_extendqisi2
 900 00e2 012B     		cmp	r3, #1
 901 00e4 13D1     		bne	.L78
 902              		.loc 5 108 0
 903 00e6 019B     		ldr	r3, [sp, #4]
 904 00e8 B3F84C30 		ldrh	r3, [r3, #76]
 905 00ec 43F00203 		orr	r3, r3, #2
 906 00f0 9AB2     		uxth	r2, r3
 907 00f2 019B     		ldr	r3, [sp, #4]
 908 00f4 A3F84C20 		strh	r2, [r3, #76]	@ movhi
 909              		.loc 5 109 0
 910 00f8 019B     		ldr	r3, [sp, #4]
 911 00fa 0022     		movs	r2, #0
 912 00fc 9A63     		str	r2, [r3, #56]
ARM GAS  C:\Users\PCHAUT~1\AppData\Local\Temp\cc7u0cQS.s 			page 17


 913 00fe 019B     		ldr	r3, [sp, #4]
 914 0100 0022     		movs	r2, #0
 915 0102 DA63     		str	r2, [r3, #60]
 916 0104 019B     		ldr	r3, [sp, #4]
 917 0106 0022     		movs	r2, #0
 918 0108 1A64     		str	r2, [r3, #64]
 919              		.loc 5 110 0
 920 010a 0123     		movs	r3, #1
 921 010c 46E1     		b	.L76
 922              	.L78:
 923              		.loc 5 112 0
 924 010e 0023     		movs	r3, #0
 925 0110 44E1     		b	.L76
 926              	.L73:
 927              		.loc 5 118 0
 928 0112 019B     		ldr	r3, [sp, #4]
 929 0114 93F84430 		ldrb	r3, [r3, #68]	@ zero_extendqisi2
 930 0118 002B     		cmp	r3, #0
 931 011a 07D1     		bne	.L79
 932              		.loc 5 119 0 discriminator 1
 933 011c 019B     		ldr	r3, [sp, #4]
 934 011e 93F84530 		ldrb	r3, [r3, #69]	@ zero_extendqisi2
 935              		.loc 5 118 0 discriminator 1
 936 0122 052B     		cmp	r3, #5
 937 0124 02D1     		bne	.L79
 938              		.loc 5 120 0
 939 0126 0198     		ldr	r0, [sp, #4]
 940 0128 FFF7FEFF 		bl	set_address
 941              	.L79:
 942              		.loc 5 122 0
 943 012c 019B     		ldr	r3, [sp, #4]
 944 012e 0022     		movs	r2, #0
 945 0130 9A63     		str	r2, [r3, #56]
 946 0132 019B     		ldr	r3, [sp, #4]
 947 0134 0022     		movs	r2, #0
 948 0136 DA63     		str	r2, [r3, #60]
 949 0138 019B     		ldr	r3, [sp, #4]
 950 013a 0022     		movs	r2, #0
 951 013c 1A64     		str	r2, [r3, #64]
 952              		.loc 5 126 0
 953 013e 0123     		movs	r3, #1
 954 0140 2CE1     		b	.L76
 955              	.L70:
 956              		.loc 5 129 0
 957 0142 019B     		ldr	r3, [sp, #4]
 958 0144 5B68     		ldr	r3, [r3, #4]
 959 0146 5C68     		ldr	r4, [r3, #4]
 960 0148 019B     		ldr	r3, [sp, #4]
 961 014a 93F84750 		ldrb	r5, [r3, #71]	@ zero_extendqisi2
 962 014e 019B     		ldr	r3, [sp, #4]
 963 0150 93F84660 		ldrb	r6, [r3, #70]	@ zero_extendqisi2
 964 0154 019B     		ldr	r3, [sp, #4]
 965 0156 4833     		adds	r3, r3, #72
 966 0158 1846     		mov	r0, r3
 967 015a FFF7FEFF 		bl	get_hword
 968 015e 0346     		mov	r3, r0
 969 0160 3246     		mov	r2, r6
ARM GAS  C:\Users\PCHAUT~1\AppData\Local\Temp\cc7u0cQS.s 			page 18


 970 0162 2946     		mov	r1, r5
 971 0164 0198     		ldr	r0, [sp, #4]
 972 0166 A047     		blx	r4
 973              	.LVL1:
 974 0168 0290     		str	r0, [sp, #8]
 975              		.loc 5 132 0
 976 016a 029B     		ldr	r3, [sp, #8]
 977 016c 002B     		cmp	r3, #0
 978 016e 01D1     		bne	.L80
 979              		.loc 5 133 0
 980 0170 0023     		movs	r3, #0
 981 0172 13E1     		b	.L76
 982              	.L80:
 983              		.loc 5 136 0
 984 0174 029B     		ldr	r3, [sp, #8]
 985 0176 5A68     		ldr	r2, [r3, #4]
 986 0178 019B     		ldr	r3, [sp, #4]
 987 017a 9A63     		str	r2, [r3, #56]
 988 017c 029B     		ldr	r3, [sp, #8]
 989 017e 1A68     		ldr	r2, [r3]
 990 0180 019B     		ldr	r3, [sp, #4]
 991 0182 DA63     		str	r2, [r3, #60]
 992 0184 019B     		ldr	r3, [sp, #4]
 993 0186 0022     		movs	r2, #0
 994 0188 1A64     		str	r2, [r3, #64]
 995              		.loc 5 138 0
 996 018a 0123     		movs	r3, #1
 997 018c 06E1     		b	.L76
 998              	.L75:
 999              		.loc 5 141 0
 1000 018e 019B     		ldr	r3, [sp, #4]
 1001 0190 03F14F02 		add	r2, r3, #79
 1002 0194 019B     		ldr	r3, [sp, #4]
 1003 0196 9A63     		str	r2, [r3, #56]
 1004 0198 019B     		ldr	r3, [sp, #4]
 1005 019a 0122     		movs	r2, #1
 1006 019c DA63     		str	r2, [r3, #60]
 1007 019e 019B     		ldr	r3, [sp, #4]
 1008 01a0 0022     		movs	r2, #0
 1009 01a2 1A64     		str	r2, [r3, #64]
 1010              		.loc 5 142 0
 1011 01a4 0123     		movs	r3, #1
 1012 01a6 F9E0     		b	.L76
 1013              	.L74:
 1014              		.loc 5 145 0
 1015 01a8 019B     		ldr	r3, [sp, #4]
 1016 01aa 93F84620 		ldrb	r2, [r3, #70]	@ zero_extendqisi2
 1017 01ae 019B     		ldr	r3, [sp, #4]
 1018 01b0 83F84F20 		strb	r2, [r3, #79]
 1019              		.loc 5 146 0
 1020 01b4 019B     		ldr	r3, [sp, #4]
 1021 01b6 93F84F30 		ldrb	r3, [r3, #79]	@ zero_extendqisi2
 1022 01ba 002B     		cmp	r3, #0
 1023 01bc 03D1     		bne	.L81
 1024              		.loc 5 147 0
 1025 01be 019B     		ldr	r3, [sp, #4]
 1026 01c0 0322     		movs	r2, #3
ARM GAS  C:\Users\PCHAUT~1\AppData\Local\Temp\cc7u0cQS.s 			page 19


 1027 01c2 1A70     		strb	r2, [r3]
 1028 01c4 02E0     		b	.L82
 1029              	.L81:
 1030              		.loc 5 150 0
 1031 01c6 019B     		ldr	r3, [sp, #4]
 1032 01c8 0422     		movs	r2, #4
 1033 01ca 1A70     		strb	r2, [r3]
 1034              	.L82:
 1035              		.loc 5 152 0
 1036 01cc 019B     		ldr	r3, [sp, #4]
 1037 01ce 5B68     		ldr	r3, [r3, #4]
 1038 01d0 1B68     		ldr	r3, [r3]
 1039 01d2 002B     		cmp	r3, #0
 1040 01d4 05D0     		beq	.L83
 1041              		.loc 5 152 0 is_stmt 0 discriminator 1
 1042 01d6 019B     		ldr	r3, [sp, #4]
 1043 01d8 5B68     		ldr	r3, [r3, #4]
 1044 01da 1B68     		ldr	r3, [r3]
 1045 01dc 0221     		movs	r1, #2
 1046 01de 0198     		ldr	r0, [sp, #4]
 1047 01e0 9847     		blx	r3
 1048              	.LVL2:
 1049              	.L83:
 1050              		.loc 5 153 0 is_stmt 1
 1051 01e2 019B     		ldr	r3, [sp, #4]
 1052 01e4 0022     		movs	r2, #0
 1053 01e6 9A63     		str	r2, [r3, #56]
 1054 01e8 019B     		ldr	r3, [sp, #4]
 1055 01ea 0022     		movs	r2, #0
 1056 01ec DA63     		str	r2, [r3, #60]
 1057 01ee 019B     		ldr	r3, [sp, #4]
 1058 01f0 0022     		movs	r2, #0
 1059 01f2 1A64     		str	r2, [r3, #64]
 1060              		.loc 5 154 0
 1061 01f4 0123     		movs	r3, #1
 1062 01f6 D1E0     		b	.L76
 1063              	.L67:
 1064              		.loc 5 160 0
 1065 01f8 019B     		ldr	r3, [sp, #4]
 1066 01fa 2A4A     		ldr	r2, .L100+4
 1067 01fc 9A63     		str	r2, [r3, #56]
 1068 01fe 019B     		ldr	r3, [sp, #4]
 1069 0200 0222     		movs	r2, #2
 1070 0202 DA63     		str	r2, [r3, #60]
 1071 0204 019B     		ldr	r3, [sp, #4]
 1072 0206 0022     		movs	r2, #0
 1073 0208 1A64     		str	r2, [r3, #64]
 1074              		.loc 5 162 0
 1075 020a 0123     		movs	r3, #1
 1076 020c C6E0     		b	.L76
 1077              	.L64:
 1078              		.loc 5 165 0
 1079 020e 019B     		ldr	r3, [sp, #4]
 1080 0210 93F84830 		ldrb	r3, [r3, #72]	@ zero_extendqisi2
 1081 0214 5BB2     		sxtb	r3, r3
 1082 0216 002B     		cmp	r3, #0
 1083 0218 27DA     		bge	.L84
ARM GAS  C:\Users\PCHAUT~1\AppData\Local\Temp\cc7u0cQS.s 			page 20


 1084              		.loc 5 166 0
 1085 021a 019B     		ldr	r3, [sp, #4]
 1086 021c 93F84830 		ldrb	r3, [r3, #72]	@ zero_extendqisi2
 1087 0220 03F00F03 		and	r3, r3, #15
 1088 0224 DBB2     		uxtb	r3, r3
 1089 0226 1946     		mov	r1, r3
 1090 0228 0198     		ldr	r0, [sp, #4]
 1091 022a FFF7FEFF 		bl	usb_lld_get_status_in
 1092 022e 0346     		mov	r3, r0
 1093 0230 012B     		cmp	r3, #1
 1094 0232 02D0     		beq	.L86
 1095 0234 022B     		cmp	r3, #2
 1096 0236 0BD0     		beq	.L87
 1097 0238 15E0     		b	.L98
 1098              	.L86:
 1099              		.loc 5 169 0
 1100 023a 019B     		ldr	r3, [sp, #4]
 1101 023c 1A4A     		ldr	r2, .L100+8
 1102 023e 9A63     		str	r2, [r3, #56]
 1103 0240 019B     		ldr	r3, [sp, #4]
 1104 0242 0222     		movs	r2, #2
 1105 0244 DA63     		str	r2, [r3, #60]
 1106 0246 019B     		ldr	r3, [sp, #4]
 1107 0248 0022     		movs	r2, #0
 1108 024a 1A64     		str	r2, [r3, #64]
 1109              		.loc 5 171 0
 1110 024c 0123     		movs	r3, #1
 1111 024e A5E0     		b	.L76
 1112              	.L87:
 1113              		.loc 5 174 0
 1114 0250 019B     		ldr	r3, [sp, #4]
 1115 0252 164A     		ldr	r2, .L100+12
 1116 0254 9A63     		str	r2, [r3, #56]
 1117 0256 019B     		ldr	r3, [sp, #4]
 1118 0258 0222     		movs	r2, #2
 1119 025a DA63     		str	r2, [r3, #60]
 1120 025c 019B     		ldr	r3, [sp, #4]
 1121 025e 0022     		movs	r2, #0
 1122 0260 1A64     		str	r2, [r3, #64]
 1123              		.loc 5 176 0
 1124 0262 0123     		movs	r3, #1
 1125 0264 9AE0     		b	.L76
 1126              	.L98:
 1127              		.loc 5 179 0
 1128 0266 0023     		movs	r3, #0
 1129 0268 98E0     		b	.L76
 1130              	.L84:
 1131              		.loc 5 183 0
 1132 026a 019B     		ldr	r3, [sp, #4]
 1133 026c 93F84830 		ldrb	r3, [r3, #72]	@ zero_extendqisi2
 1134 0270 03F00F03 		and	r3, r3, #15
 1135 0274 DBB2     		uxtb	r3, r3
 1136 0276 1946     		mov	r1, r3
 1137 0278 0198     		ldr	r0, [sp, #4]
 1138 027a FFF7FEFF 		bl	usb_lld_get_status_out
 1139 027e 0346     		mov	r3, r0
 1140 0280 012B     		cmp	r3, #1
ARM GAS  C:\Users\PCHAUT~1\AppData\Local\Temp\cc7u0cQS.s 			page 21


 1141 0282 02D0     		beq	.L89
 1142 0284 022B     		cmp	r3, #2
 1143 0286 13D0     		beq	.L90
 1144 0288 1DE0     		b	.L99
 1145              	.L89:
 1146              		.loc 5 186 0
 1147 028a 019B     		ldr	r3, [sp, #4]
 1148 028c 064A     		ldr	r2, .L100+8
 1149 028e 9A63     		str	r2, [r3, #56]
 1150 0290 019B     		ldr	r3, [sp, #4]
 1151 0292 0222     		movs	r2, #2
 1152 0294 DA63     		str	r2, [r3, #60]
 1153 0296 019B     		ldr	r3, [sp, #4]
 1154 0298 0022     		movs	r2, #0
 1155 029a 1A64     		str	r2, [r3, #64]
 1156              		.loc 5 188 0
 1157 029c 0123     		movs	r3, #1
 1158 029e 7DE0     		b	.L76
 1159              	.L101:
 1160              		.align	2
 1161              	.L100:
 1162 02a0 00000000 		.word	__stack_chk_guard
 1163 02a4 00000000 		.word	zero_status
 1164 02a8 00000000 		.word	halted_status
 1165 02ac 00000000 		.word	active_status
 1166              	.L90:
 1167              		.loc 5 191 0
 1168 02b0 019B     		ldr	r3, [sp, #4]
 1169 02b2 3F4A     		ldr	r2, .L102
 1170 02b4 9A63     		str	r2, [r3, #56]
 1171 02b6 019B     		ldr	r3, [sp, #4]
 1172 02b8 0222     		movs	r2, #2
 1173 02ba DA63     		str	r2, [r3, #60]
 1174 02bc 019B     		ldr	r3, [sp, #4]
 1175 02be 0022     		movs	r2, #0
 1176 02c0 1A64     		str	r2, [r3, #64]
 1177              		.loc 5 193 0
 1178 02c2 0123     		movs	r3, #1
 1179 02c4 6AE0     		b	.L76
 1180              	.L99:
 1181              		.loc 5 196 0
 1182 02c6 0023     		movs	r3, #0
 1183 02c8 68E0     		b	.L76
 1184              	.L69:
 1185              		.loc 5 201 0
 1186 02ca 019B     		ldr	r3, [sp, #4]
 1187 02cc 93F84630 		ldrb	r3, [r3, #70]	@ zero_extendqisi2
 1188 02d0 002B     		cmp	r3, #0
 1189 02d2 01D0     		beq	.L91
 1190              		.loc 5 202 0
 1191 02d4 0023     		movs	r3, #0
 1192 02d6 61E0     		b	.L76
 1193              	.L91:
 1194              		.loc 5 205 0
 1195 02d8 019B     		ldr	r3, [sp, #4]
 1196 02da 93F84830 		ldrb	r3, [r3, #72]	@ zero_extendqisi2
 1197 02de 03F00F03 		and	r3, r3, #15
ARM GAS  C:\Users\PCHAUT~1\AppData\Local\Temp\cc7u0cQS.s 			page 22


 1198 02e2 002B     		cmp	r3, #0
 1199 02e4 1AD0     		beq	.L92
 1200              		.loc 5 206 0
 1201 02e6 019B     		ldr	r3, [sp, #4]
 1202 02e8 93F84830 		ldrb	r3, [r3, #72]	@ zero_extendqisi2
 1203 02ec 5BB2     		sxtb	r3, r3
 1204 02ee 002B     		cmp	r3, #0
 1205 02f0 0ADA     		bge	.L93
 1206              		.loc 5 207 0
 1207 02f2 019B     		ldr	r3, [sp, #4]
 1208 02f4 93F84830 		ldrb	r3, [r3, #72]	@ zero_extendqisi2
 1209 02f8 03F00F03 		and	r3, r3, #15
 1210 02fc DBB2     		uxtb	r3, r3
 1211 02fe 1946     		mov	r1, r3
 1212 0300 0198     		ldr	r0, [sp, #4]
 1213 0302 FFF7FEFF 		bl	usb_lld_clear_in
 1214 0306 09E0     		b	.L92
 1215              	.L93:
 1216              		.loc 5 210 0
 1217 0308 019B     		ldr	r3, [sp, #4]
 1218 030a 93F84830 		ldrb	r3, [r3, #72]	@ zero_extendqisi2
 1219 030e 03F00F03 		and	r3, r3, #15
 1220 0312 DBB2     		uxtb	r3, r3
 1221 0314 1946     		mov	r1, r3
 1222 0316 0198     		ldr	r0, [sp, #4]
 1223 0318 FFF7FEFF 		bl	usb_lld_clear_out
 1224              	.L92:
 1225              		.loc 5 213 0
 1226 031c 019B     		ldr	r3, [sp, #4]
 1227 031e 0022     		movs	r2, #0
 1228 0320 9A63     		str	r2, [r3, #56]
 1229 0322 019B     		ldr	r3, [sp, #4]
 1230 0324 0022     		movs	r2, #0
 1231 0326 DA63     		str	r2, [r3, #60]
 1232 0328 019B     		ldr	r3, [sp, #4]
 1233 032a 0022     		movs	r2, #0
 1234 032c 1A64     		str	r2, [r3, #64]
 1235              		.loc 5 214 0
 1236 032e 0123     		movs	r3, #1
 1237 0330 34E0     		b	.L76
 1238              	.L72:
 1239              		.loc 5 217 0
 1240 0332 019B     		ldr	r3, [sp, #4]
 1241 0334 93F84630 		ldrb	r3, [r3, #70]	@ zero_extendqisi2
 1242 0338 002B     		cmp	r3, #0
 1243 033a 01D0     		beq	.L94
 1244              		.loc 5 218 0
 1245 033c 0023     		movs	r3, #0
 1246 033e 2DE0     		b	.L76
 1247              	.L94:
 1248              		.loc 5 221 0
 1249 0340 019B     		ldr	r3, [sp, #4]
 1250 0342 93F84830 		ldrb	r3, [r3, #72]	@ zero_extendqisi2
 1251 0346 03F00F03 		and	r3, r3, #15
 1252 034a 002B     		cmp	r3, #0
 1253 034c 1AD0     		beq	.L95
 1254              		.loc 5 222 0
ARM GAS  C:\Users\PCHAUT~1\AppData\Local\Temp\cc7u0cQS.s 			page 23


 1255 034e 019B     		ldr	r3, [sp, #4]
 1256 0350 93F84830 		ldrb	r3, [r3, #72]	@ zero_extendqisi2
 1257 0354 5BB2     		sxtb	r3, r3
 1258 0356 002B     		cmp	r3, #0
 1259 0358 0ADA     		bge	.L96
 1260              		.loc 5 223 0
 1261 035a 019B     		ldr	r3, [sp, #4]
 1262 035c 93F84830 		ldrb	r3, [r3, #72]	@ zero_extendqisi2
 1263 0360 03F00F03 		and	r3, r3, #15
 1264 0364 DBB2     		uxtb	r3, r3
 1265 0366 1946     		mov	r1, r3
 1266 0368 0198     		ldr	r0, [sp, #4]
 1267 036a FFF7FEFF 		bl	usb_lld_stall_in
 1268 036e 09E0     		b	.L95
 1269              	.L96:
 1270              		.loc 5 226 0
 1271 0370 019B     		ldr	r3, [sp, #4]
 1272 0372 93F84830 		ldrb	r3, [r3, #72]	@ zero_extendqisi2
 1273 0376 03F00F03 		and	r3, r3, #15
 1274 037a DBB2     		uxtb	r3, r3
 1275 037c 1946     		mov	r1, r3
 1276 037e 0198     		ldr	r0, [sp, #4]
 1277 0380 FFF7FEFF 		bl	usb_lld_stall_out
 1278              	.L95:
 1279              		.loc 5 229 0
 1280 0384 019B     		ldr	r3, [sp, #4]
 1281 0386 0022     		movs	r2, #0
 1282 0388 9A63     		str	r2, [r3, #56]
 1283 038a 019B     		ldr	r3, [sp, #4]
 1284 038c 0022     		movs	r2, #0
 1285 038e DA63     		str	r2, [r3, #60]
 1286 0390 019B     		ldr	r3, [sp, #4]
 1287 0392 0022     		movs	r2, #0
 1288 0394 1A64     		str	r2, [r3, #64]
 1289              		.loc 5 230 0
 1290 0396 0123     		movs	r3, #1
 1291 0398 00E0     		b	.L76
 1292              	.L61:
 1293              		.loc 5 239 0
 1294 039a 0023     		movs	r3, #0
 1295              	.L76:
 1296              		.loc 5 241 0
 1297 039c 1846     		mov	r0, r3
 1298 039e 054B     		ldr	r3, .L102+4
 1299 03a0 039A     		ldr	r2, [sp, #12]
 1300 03a2 1B68     		ldr	r3, [r3]
 1301 03a4 9A42     		cmp	r2, r3
 1302 03a6 01D0     		beq	.L97
 1303 03a8 FFF7FEFF 		bl	__stack_chk_fail
 1304              	.L97:
 1305 03ac 04B0     		add	sp, sp, #16
 1306              		.cfi_def_cfa_offset 16
 1307              		@ sp needed
 1308 03ae 70BD     		pop	{r4, r5, r6, pc}
 1309              	.L103:
 1310              		.align	2
 1311              	.L102:
ARM GAS  C:\Users\PCHAUT~1\AppData\Local\Temp\cc7u0cQS.s 			page 24


 1312 03b0 00000000 		.word	active_status
 1313 03b4 00000000 		.word	__stack_chk_guard
 1314              		.cfi_endproc
 1315              	.LFE258:
 1316              		.size	default_handler, .-default_handler
 1317              		.section	.text.usbInit,"ax",%progbits
 1318              		.align	1
 1319              		.p2align 4,,15
 1320              		.global	usbInit
 1321              		.syntax unified
 1322              		.thumb
 1323              		.thumb_func
 1324              		.fpu fpv4-sp-d16
 1325              		.type	usbInit, %function
 1326              	usbInit:
 1327              	.LFB259:
 1328              		.loc 5 254 0
 1329              		.cfi_startproc
 1330              		@ args = 0, pretend = 0, frame = 8
 1331              		@ frame_needed = 0, uses_anonymous_args = 0
 1332 0000 00B5     		push	{lr}
 1333              		.cfi_def_cfa_offset 4
 1334              		.cfi_offset 14, -4
 1335 0002 83B0     		sub	sp, sp, #12
 1336              		.cfi_def_cfa_offset 16
 1337              		.loc 5 254 0
 1338 0004 074B     		ldr	r3, .L106
 1339 0006 1B68     		ldr	r3, [r3]
 1340 0008 0193     		str	r3, [sp, #4]
 1341              		.loc 5 256 0
 1342 000a FFF7FEFF 		bl	usb_lld_init
 1343              		.loc 5 257 0
 1344 000e 00BF     		nop
 1345 0010 044B     		ldr	r3, .L106
 1346 0012 019A     		ldr	r2, [sp, #4]
 1347 0014 1B68     		ldr	r3, [r3]
 1348 0016 9A42     		cmp	r2, r3
 1349 0018 01D0     		beq	.L105
 1350 001a FFF7FEFF 		bl	__stack_chk_fail
 1351              	.L105:
 1352 001e 03B0     		add	sp, sp, #12
 1353              		.cfi_def_cfa_offset 4
 1354              		@ sp needed
 1355 0020 5DF804FB 		ldr	pc, [sp], #4
 1356              	.L107:
 1357              		.align	2
 1358              	.L106:
 1359 0024 00000000 		.word	__stack_chk_guard
 1360              		.cfi_endproc
 1361              	.LFE259:
 1362              		.size	usbInit, .-usbInit
 1363              		.section	.text.usbObjectInit,"ax",%progbits
 1364              		.align	1
 1365              		.p2align 4,,15
 1366              		.global	usbObjectInit
 1367              		.syntax unified
 1368              		.thumb
ARM GAS  C:\Users\PCHAUT~1\AppData\Local\Temp\cc7u0cQS.s 			page 25


 1369              		.thumb_func
 1370              		.fpu fpv4-sp-d16
 1371              		.type	usbObjectInit, %function
 1372              	usbObjectInit:
 1373              	.LFB260:
 1374              		.loc 5 266 0
 1375              		.cfi_startproc
 1376              		@ args = 0, pretend = 0, frame = 16
 1377              		@ frame_needed = 0, uses_anonymous_args = 0
 1378 0000 00B5     		push	{lr}
 1379              		.cfi_def_cfa_offset 4
 1380              		.cfi_offset 14, -4
 1381 0002 85B0     		sub	sp, sp, #20
 1382              		.cfi_def_cfa_offset 24
 1383 0004 0190     		str	r0, [sp, #4]
 1384              		.loc 5 266 0
 1385 0006 184B     		ldr	r3, .L112
 1386 0008 1B68     		ldr	r3, [r3]
 1387 000a 0393     		str	r3, [sp, #12]
 1388              		.loc 5 269 0
 1389 000c 019B     		ldr	r3, [sp, #4]
 1390 000e 0122     		movs	r2, #1
 1391 0010 1A70     		strb	r2, [r3]
 1392              		.loc 5 270 0
 1393 0012 019B     		ldr	r3, [sp, #4]
 1394 0014 0022     		movs	r2, #0
 1395 0016 5A60     		str	r2, [r3, #4]
 1396              		.loc 5 271 0
 1397 0018 0023     		movs	r3, #0
 1398 001a 0293     		str	r3, [sp, #8]
 1399 001c 0FE0     		b	.L109
 1400              	.L110:
 1401              		.loc 5 272 0 discriminator 3
 1402 001e 019A     		ldr	r2, [sp, #4]
 1403 0020 029B     		ldr	r3, [sp, #8]
 1404 0022 0633     		adds	r3, r3, #6
 1405 0024 9B00     		lsls	r3, r3, #2
 1406 0026 1344     		add	r3, r3, r2
 1407 0028 0022     		movs	r2, #0
 1408 002a 5A60     		str	r2, [r3, #4]
 1409              		.loc 5 273 0 discriminator 3
 1410 002c 019B     		ldr	r3, [sp, #4]
 1411 002e 029A     		ldr	r2, [sp, #8]
 1412 0030 0A32     		adds	r2, r2, #10
 1413 0032 0021     		movs	r1, #0
 1414 0034 43F82210 		str	r1, [r3, r2, lsl #2]
 1415              		.loc 5 271 0 discriminator 3
 1416 0038 029B     		ldr	r3, [sp, #8]
 1417 003a 0133     		adds	r3, r3, #1
 1418 003c 0293     		str	r3, [sp, #8]
 1419              	.L109:
 1420              		.loc 5 271 0 is_stmt 0 discriminator 1
 1421 003e 029B     		ldr	r3, [sp, #8]
 1422 0040 022B     		cmp	r3, #2
 1423 0042 ECD9     		bls	.L110
 1424              		.loc 5 275 0 is_stmt 1
 1425 0044 019B     		ldr	r3, [sp, #4]
ARM GAS  C:\Users\PCHAUT~1\AppData\Local\Temp\cc7u0cQS.s 			page 26


 1426 0046 0022     		movs	r2, #0
 1427 0048 1A81     		strh	r2, [r3, #8]	@ movhi
 1428              		.loc 5 276 0
 1429 004a 019B     		ldr	r3, [sp, #4]
 1430 004c 0022     		movs	r2, #0
 1431 004e 5A81     		strh	r2, [r3, #10]	@ movhi
 1432              		.loc 5 277 0
 1433 0050 00BF     		nop
 1434 0052 054B     		ldr	r3, .L112
 1435 0054 039A     		ldr	r2, [sp, #12]
 1436 0056 1B68     		ldr	r3, [r3]
 1437 0058 9A42     		cmp	r2, r3
 1438 005a 01D0     		beq	.L111
 1439 005c FFF7FEFF 		bl	__stack_chk_fail
 1440              	.L111:
 1441 0060 05B0     		add	sp, sp, #20
 1442              		.cfi_def_cfa_offset 4
 1443              		@ sp needed
 1444 0062 5DF804FB 		ldr	pc, [sp], #4
 1445              	.L113:
 1446 0066 00BF     		.align	2
 1447              	.L112:
 1448 0068 00000000 		.word	__stack_chk_guard
 1449              		.cfi_endproc
 1450              	.LFE260:
 1451              		.size	usbObjectInit, .-usbObjectInit
 1452              		.section	.text.usbStart,"ax",%progbits
 1453              		.align	1
 1454              		.p2align 4,,15
 1455              		.global	usbStart
 1456              		.syntax unified
 1457              		.thumb
 1458              		.thumb_func
 1459              		.fpu fpv4-sp-d16
 1460              		.type	usbStart, %function
 1461              	usbStart:
 1462              	.LFB261:
 1463              		.loc 5 287 0
 1464              		.cfi_startproc
 1465              		@ args = 0, pretend = 0, frame = 16
 1466              		@ frame_needed = 0, uses_anonymous_args = 0
 1467 0000 00B5     		push	{lr}
 1468              		.cfi_def_cfa_offset 4
 1469              		.cfi_offset 14, -4
 1470 0002 85B0     		sub	sp, sp, #20
 1471              		.cfi_def_cfa_offset 24
 1472 0004 0190     		str	r0, [sp, #4]
 1473 0006 0091     		str	r1, [sp]
 1474              		.loc 5 287 0
 1475 0008 1F4B     		ldr	r3, .L121
 1476 000a 1B68     		ldr	r3, [r3]
 1477 000c 0393     		str	r3, [sp, #12]
 1478              		.loc 5 290 0
 1479 000e 019B     		ldr	r3, [sp, #4]
 1480 0010 002B     		cmp	r3, #0
 1481 0012 02D0     		beq	.L115
 1482              		.loc 5 290 0 is_stmt 0 discriminator 3
ARM GAS  C:\Users\PCHAUT~1\AppData\Local\Temp\cc7u0cQS.s 			page 27


 1483 0014 009B     		ldr	r3, [sp]
 1484 0016 002B     		cmp	r3, #0
 1485 0018 02D1     		bne	.L116
 1486              	.L115:
 1487              		.loc 5 290 0 discriminator 4
 1488 001a 1C48     		ldr	r0, .L121+4
 1489 001c FFF7FEFF 		bl	chSysHalt
 1490              	.L116:
 1491              		.loc 5 292 0 is_stmt 1
 1492 0020 FFF7FEFF 		bl	osalSysLock
 1493              		.loc 5 293 0
 1494 0024 019B     		ldr	r3, [sp, #4]
 1495 0026 1B78     		ldrb	r3, [r3]	@ zero_extendqisi2
 1496 0028 012B     		cmp	r3, #1
 1497 002a 06D0     		beq	.L117
 1498              		.loc 5 293 0 is_stmt 0 discriminator 2
 1499 002c 019B     		ldr	r3, [sp, #4]
 1500 002e 1B78     		ldrb	r3, [r3]	@ zero_extendqisi2
 1501 0030 022B     		cmp	r3, #2
 1502 0032 02D0     		beq	.L117
 1503              		.loc 5 293 0 discriminator 3
 1504 0034 1548     		ldr	r0, .L121+4
 1505 0036 FFF7FEFF 		bl	chSysHalt
 1506              	.L117:
 1507              		.loc 5 295 0 is_stmt 1
 1508 003a 019B     		ldr	r3, [sp, #4]
 1509 003c 009A     		ldr	r2, [sp]
 1510 003e 5A60     		str	r2, [r3, #4]
 1511              		.loc 5 296 0
 1512 0040 0023     		movs	r3, #0
 1513 0042 0293     		str	r3, [sp, #8]
 1514 0044 09E0     		b	.L118
 1515              	.L119:
 1516              		.loc 5 297 0 discriminator 3
 1517 0046 019A     		ldr	r2, [sp, #4]
 1518 0048 029B     		ldr	r3, [sp, #8]
 1519 004a 0233     		adds	r3, r3, #2
 1520 004c 9B00     		lsls	r3, r3, #2
 1521 004e 1344     		add	r3, r3, r2
 1522 0050 0022     		movs	r2, #0
 1523 0052 5A60     		str	r2, [r3, #4]
 1524              		.loc 5 296 0 discriminator 3
 1525 0054 029B     		ldr	r3, [sp, #8]
 1526 0056 0133     		adds	r3, r3, #1
 1527 0058 0293     		str	r3, [sp, #8]
 1528              	.L118:
 1529              		.loc 5 296 0 is_stmt 0 discriminator 1
 1530 005a 029B     		ldr	r3, [sp, #8]
 1531 005c 032B     		cmp	r3, #3
 1532 005e F2D9     		bls	.L119
 1533              		.loc 5 299 0 is_stmt 1
 1534 0060 0198     		ldr	r0, [sp, #4]
 1535 0062 FFF7FEFF 		bl	usb_lld_start
 1536              		.loc 5 300 0
 1537 0066 019B     		ldr	r3, [sp, #4]
 1538 0068 0222     		movs	r2, #2
 1539 006a 1A70     		strb	r2, [r3]
ARM GAS  C:\Users\PCHAUT~1\AppData\Local\Temp\cc7u0cQS.s 			page 28


 1540              		.loc 5 301 0
 1541 006c FFF7FEFF 		bl	osalSysUnlock
 1542              		.loc 5 302 0
 1543 0070 00BF     		nop
 1544 0072 054B     		ldr	r3, .L121
 1545 0074 039A     		ldr	r2, [sp, #12]
 1546 0076 1B68     		ldr	r3, [r3]
 1547 0078 9A42     		cmp	r2, r3
 1548 007a 01D0     		beq	.L120
 1549 007c FFF7FEFF 		bl	__stack_chk_fail
 1550              	.L120:
 1551 0080 05B0     		add	sp, sp, #20
 1552              		.cfi_def_cfa_offset 4
 1553              		@ sp needed
 1554 0082 5DF804FB 		ldr	pc, [sp], #4
 1555              	.L122:
 1556 0086 00BF     		.align	2
 1557              	.L121:
 1558 0088 00000000 		.word	__stack_chk_guard
 1559 008c 00000000 		.word	__func__.10294
 1560              		.cfi_endproc
 1561              	.LFE261:
 1562              		.size	usbStart, .-usbStart
 1563              		.section	.text.usbStop,"ax",%progbits
 1564              		.align	1
 1565              		.p2align 4,,15
 1566              		.global	usbStop
 1567              		.syntax unified
 1568              		.thumb
 1569              		.thumb_func
 1570              		.fpu fpv4-sp-d16
 1571              		.type	usbStop, %function
 1572              	usbStop:
 1573              	.LFB262:
 1574              		.loc 5 311 0
 1575              		.cfi_startproc
 1576              		@ args = 0, pretend = 0, frame = 16
 1577              		@ frame_needed = 0, uses_anonymous_args = 0
 1578 0000 00B5     		push	{lr}
 1579              		.cfi_def_cfa_offset 4
 1580              		.cfi_offset 14, -4
 1581 0002 85B0     		sub	sp, sp, #20
 1582              		.cfi_def_cfa_offset 24
 1583 0004 0190     		str	r0, [sp, #4]
 1584              		.loc 5 311 0
 1585 0006 184B     		ldr	r3, .L127
 1586 0008 1B68     		ldr	r3, [r3]
 1587 000a 0393     		str	r3, [sp, #12]
 1588              		.loc 5 313 0
 1589 000c 019B     		ldr	r3, [sp, #4]
 1590 000e 002B     		cmp	r3, #0
 1591 0010 02D1     		bne	.L124
 1592              		.loc 5 313 0 is_stmt 0 discriminator 2
 1593 0012 1648     		ldr	r0, .L127+4
 1594 0014 FFF7FEFF 		bl	chSysHalt
 1595              	.L124:
 1596              		.loc 5 315 0 is_stmt 1
ARM GAS  C:\Users\PCHAUT~1\AppData\Local\Temp\cc7u0cQS.s 			page 29


 1597 0018 FFF7FEFF 		bl	osalSysLock
 1598              		.loc 5 316 0
 1599 001c 019B     		ldr	r3, [sp, #4]
 1600 001e 1B78     		ldrb	r3, [r3]	@ zero_extendqisi2
 1601 0020 012B     		cmp	r3, #1
 1602 0022 0ED0     		beq	.L125
 1603              		.loc 5 316 0 is_stmt 0 discriminator 2
 1604 0024 019B     		ldr	r3, [sp, #4]
 1605 0026 1B78     		ldrb	r3, [r3]	@ zero_extendqisi2
 1606 0028 022B     		cmp	r3, #2
 1607 002a 0AD0     		beq	.L125
 1608              		.loc 5 316 0 discriminator 3
 1609 002c 019B     		ldr	r3, [sp, #4]
 1610 002e 1B78     		ldrb	r3, [r3]	@ zero_extendqisi2
 1611 0030 032B     		cmp	r3, #3
 1612 0032 06D0     		beq	.L125
 1613              		.loc 5 316 0 discriminator 4
 1614 0034 019B     		ldr	r3, [sp, #4]
 1615 0036 1B78     		ldrb	r3, [r3]	@ zero_extendqisi2
 1616 0038 042B     		cmp	r3, #4
 1617 003a 02D0     		beq	.L125
 1618              		.loc 5 316 0 discriminator 5
 1619 003c 0B48     		ldr	r0, .L127+4
 1620 003e FFF7FEFF 		bl	chSysHalt
 1621              	.L125:
 1622              		.loc 5 319 0 is_stmt 1
 1623 0042 0198     		ldr	r0, [sp, #4]
 1624 0044 FFF7FEFF 		bl	usb_lld_stop
 1625              		.loc 5 320 0
 1626 0048 019B     		ldr	r3, [sp, #4]
 1627 004a 0122     		movs	r2, #1
 1628 004c 1A70     		strb	r2, [r3]
 1629              		.loc 5 321 0
 1630 004e FFF7FEFF 		bl	osalSysUnlock
 1631              		.loc 5 322 0
 1632 0052 00BF     		nop
 1633 0054 044B     		ldr	r3, .L127
 1634 0056 039A     		ldr	r2, [sp, #12]
 1635 0058 1B68     		ldr	r3, [r3]
 1636 005a 9A42     		cmp	r2, r3
 1637 005c 01D0     		beq	.L126
 1638 005e FFF7FEFF 		bl	__stack_chk_fail
 1639              	.L126:
 1640 0062 05B0     		add	sp, sp, #20
 1641              		.cfi_def_cfa_offset 4
 1642              		@ sp needed
 1643 0064 5DF804FB 		ldr	pc, [sp], #4
 1644              	.L128:
 1645              		.align	2
 1646              	.L127:
 1647 0068 00000000 		.word	__stack_chk_guard
 1648 006c 00000000 		.word	__func__.10301
 1649              		.cfi_endproc
 1650              	.LFE262:
 1651              		.size	usbStop, .-usbStop
 1652              		.section	.text.usbInitEndpointI,"ax",%progbits
 1653              		.align	1
ARM GAS  C:\Users\PCHAUT~1\AppData\Local\Temp\cc7u0cQS.s 			page 30


 1654              		.p2align 4,,15
 1655              		.global	usbInitEndpointI
 1656              		.syntax unified
 1657              		.thumb
 1658              		.thumb_func
 1659              		.fpu fpv4-sp-d16
 1660              		.type	usbInitEndpointI, %function
 1661              	usbInitEndpointI:
 1662              	.LFB263:
 1663              		.loc 5 338 0
 1664              		.cfi_startproc
 1665              		@ args = 0, pretend = 0, frame = 24
 1666              		@ frame_needed = 0, uses_anonymous_args = 0
 1667 0000 00B5     		push	{lr}
 1668              		.cfi_def_cfa_offset 4
 1669              		.cfi_offset 14, -4
 1670 0002 87B0     		sub	sp, sp, #28
 1671              		.cfi_def_cfa_offset 32
 1672 0004 0390     		str	r0, [sp, #12]
 1673 0006 0B46     		mov	r3, r1
 1674 0008 0192     		str	r2, [sp, #4]
 1675 000a 8DF80B30 		strb	r3, [sp, #11]
 1676              		.loc 5 338 0
 1677 000e 284B     		ldr	r3, .L139
 1678 0010 1B68     		ldr	r3, [r3]
 1679 0012 0593     		str	r3, [sp, #20]
 1680              		.loc 5 340 0
 1681 0014 FFF7FEFF 		bl	chDbgCheckClassI
 1682              		.loc 5 341 0
 1683 0018 039B     		ldr	r3, [sp, #12]
 1684 001a 002B     		cmp	r3, #0
 1685 001c 02D0     		beq	.L130
 1686              		.loc 5 341 0 is_stmt 0 discriminator 3
 1687 001e 019B     		ldr	r3, [sp, #4]
 1688 0020 002B     		cmp	r3, #0
 1689 0022 02D1     		bne	.L137
 1690              	.L130:
 1691              		.loc 5 341 0 discriminator 4
 1692 0024 2348     		ldr	r0, .L139+4
 1693 0026 FFF7FEFF 		bl	chSysHalt
 1694              	.L137:
 1695              		.loc 5 342 0 is_stmt 1 discriminator 1
 1696 002a 039B     		ldr	r3, [sp, #12]
 1697 002c 1B78     		ldrb	r3, [r3]	@ zero_extendqisi2
 1698 002e 042B     		cmp	r3, #4
 1699 0030 02D0     		beq	.L138
 1700              		.loc 5 342 0 is_stmt 0 discriminator 2
 1701 0032 2048     		ldr	r0, .L139+4
 1702 0034 FFF7FEFF 		bl	chSysHalt
 1703              	.L138:
 1704              		.loc 5 344 0 is_stmt 1 discriminator 1
 1705 0038 9DF80B30 		ldrb	r3, [sp, #11]	@ zero_extendqisi2
 1706 003c 039A     		ldr	r2, [sp, #12]
 1707 003e 0233     		adds	r3, r3, #2
 1708 0040 9B00     		lsls	r3, r3, #2
 1709 0042 1344     		add	r3, r3, r2
 1710 0044 5B68     		ldr	r3, [r3, #4]
ARM GAS  C:\Users\PCHAUT~1\AppData\Local\Temp\cc7u0cQS.s 			page 31


 1711 0046 002B     		cmp	r3, #0
 1712 0048 02D0     		beq	.L133
 1713              		.loc 5 344 0 is_stmt 0 discriminator 2
 1714 004a 1A48     		ldr	r0, .L139+4
 1715 004c FFF7FEFF 		bl	chSysHalt
 1716              	.L133:
 1717              		.loc 5 347 0 is_stmt 1
 1718 0050 019B     		ldr	r3, [sp, #4]
 1719 0052 5B69     		ldr	r3, [r3, #20]
 1720 0054 002B     		cmp	r3, #0
 1721 0056 06D0     		beq	.L134
 1722              		.loc 5 348 0
 1723 0058 019B     		ldr	r3, [sp, #4]
 1724 005a 5B69     		ldr	r3, [r3, #20]
 1725 005c 1422     		movs	r2, #20
 1726 005e 0021     		movs	r1, #0
 1727 0060 1846     		mov	r0, r3
 1728 0062 FFF7FEFF 		bl	memset
 1729              	.L134:
 1730              		.loc 5 350 0
 1731 0066 019B     		ldr	r3, [sp, #4]
 1732 0068 9B69     		ldr	r3, [r3, #24]
 1733 006a 002B     		cmp	r3, #0
 1734 006c 06D0     		beq	.L135
 1735              		.loc 5 351 0
 1736 006e 019B     		ldr	r3, [sp, #4]
 1737 0070 9B69     		ldr	r3, [r3, #24]
 1738 0072 1422     		movs	r2, #20
 1739 0074 0021     		movs	r1, #0
 1740 0076 1846     		mov	r0, r3
 1741 0078 FFF7FEFF 		bl	memset
 1742              	.L135:
 1743              		.loc 5 354 0
 1744 007c 9DF80B30 		ldrb	r3, [sp, #11]	@ zero_extendqisi2
 1745 0080 039A     		ldr	r2, [sp, #12]
 1746 0082 0233     		adds	r3, r3, #2
 1747 0084 9B00     		lsls	r3, r3, #2
 1748 0086 1344     		add	r3, r3, r2
 1749 0088 019A     		ldr	r2, [sp, #4]
 1750 008a 5A60     		str	r2, [r3, #4]
 1751              		.loc 5 357 0
 1752 008c 9DF80B30 		ldrb	r3, [sp, #11]	@ zero_extendqisi2
 1753 0090 1946     		mov	r1, r3
 1754 0092 0398     		ldr	r0, [sp, #12]
 1755 0094 FFF7FEFF 		bl	usb_lld_init_endpoint
 1756              		.loc 5 358 0
 1757 0098 00BF     		nop
 1758 009a 054B     		ldr	r3, .L139
 1759 009c 059A     		ldr	r2, [sp, #20]
 1760 009e 1B68     		ldr	r3, [r3]
 1761 00a0 9A42     		cmp	r2, r3
 1762 00a2 01D0     		beq	.L136
 1763 00a4 FFF7FEFF 		bl	__stack_chk_fail
 1764              	.L136:
 1765 00a8 07B0     		add	sp, sp, #28
 1766              		.cfi_def_cfa_offset 4
 1767              		@ sp needed
ARM GAS  C:\Users\PCHAUT~1\AppData\Local\Temp\cc7u0cQS.s 			page 32


 1768 00aa 5DF804FB 		ldr	pc, [sp], #4
 1769              	.L140:
 1770 00ae 00BF     		.align	2
 1771              	.L139:
 1772 00b0 00000000 		.word	__stack_chk_guard
 1773 00b4 00000000 		.word	__func__.10307
 1774              		.cfi_endproc
 1775              	.LFE263:
 1776              		.size	usbInitEndpointI, .-usbInitEndpointI
 1777              		.section	.text.usbDisableEndpointsI,"ax",%progbits
 1778              		.align	1
 1779              		.p2align 4,,15
 1780              		.global	usbDisableEndpointsI
 1781              		.syntax unified
 1782              		.thumb
 1783              		.thumb_func
 1784              		.fpu fpv4-sp-d16
 1785              		.type	usbDisableEndpointsI, %function
 1786              	usbDisableEndpointsI:
 1787              	.LFB264:
 1788              		.loc 5 371 0
 1789              		.cfi_startproc
 1790              		@ args = 0, pretend = 0, frame = 16
 1791              		@ frame_needed = 0, uses_anonymous_args = 0
 1792 0000 00B5     		push	{lr}
 1793              		.cfi_def_cfa_offset 4
 1794              		.cfi_offset 14, -4
 1795 0002 85B0     		sub	sp, sp, #20
 1796              		.cfi_def_cfa_offset 24
 1797 0004 0190     		str	r0, [sp, #4]
 1798              		.loc 5 371 0
 1799 0006 1F4B     		ldr	r3, .L148
 1800 0008 1B68     		ldr	r3, [r3]
 1801 000a 0393     		str	r3, [sp, #12]
 1802              		.loc 5 374 0
 1803 000c FFF7FEFF 		bl	chDbgCheckClassI
 1804              		.loc 5 375 0
 1805 0010 019B     		ldr	r3, [sp, #4]
 1806 0012 002B     		cmp	r3, #0
 1807 0014 02D1     		bne	.L147
 1808              		.loc 5 375 0 is_stmt 0 discriminator 2
 1809 0016 1C48     		ldr	r0, .L148+4
 1810 0018 FFF7FEFF 		bl	chSysHalt
 1811              	.L147:
 1812              		.loc 5 376 0 is_stmt 1 discriminator 1
 1813 001c 019B     		ldr	r3, [sp, #4]
 1814 001e 1B78     		ldrb	r3, [r3]	@ zero_extendqisi2
 1815 0020 032B     		cmp	r3, #3
 1816 0022 02D0     		beq	.L143
 1817              		.loc 5 376 0 is_stmt 0 discriminator 2
 1818 0024 1848     		ldr	r0, .L148+4
 1819 0026 FFF7FEFF 		bl	chSysHalt
 1820              	.L143:
 1821              		.loc 5 378 0 is_stmt 1
 1822 002a 019B     		ldr	r3, [sp, #4]
 1823 002c 1B89     		ldrh	r3, [r3, #8]
 1824 002e 23F00103 		bic	r3, r3, #1
ARM GAS  C:\Users\PCHAUT~1\AppData\Local\Temp\cc7u0cQS.s 			page 33


 1825 0032 9AB2     		uxth	r2, r3
 1826 0034 019B     		ldr	r3, [sp, #4]
 1827 0036 1A81     		strh	r2, [r3, #8]	@ movhi
 1828              		.loc 5 379 0
 1829 0038 019B     		ldr	r3, [sp, #4]
 1830 003a 5B89     		ldrh	r3, [r3, #10]
 1831 003c 23F00103 		bic	r3, r3, #1
 1832 0040 9AB2     		uxth	r2, r3
 1833 0042 019B     		ldr	r3, [sp, #4]
 1834 0044 5A81     		strh	r2, [r3, #10]	@ movhi
 1835              		.loc 5 380 0
 1836 0046 0123     		movs	r3, #1
 1837 0048 0293     		str	r3, [sp, #8]
 1838 004a 09E0     		b	.L144
 1839              	.L145:
 1840              		.loc 5 381 0 discriminator 3
 1841 004c 019A     		ldr	r2, [sp, #4]
 1842 004e 029B     		ldr	r3, [sp, #8]
 1843 0050 0233     		adds	r3, r3, #2
 1844 0052 9B00     		lsls	r3, r3, #2
 1845 0054 1344     		add	r3, r3, r2
 1846 0056 0022     		movs	r2, #0
 1847 0058 5A60     		str	r2, [r3, #4]
 1848              		.loc 5 380 0 discriminator 3
 1849 005a 029B     		ldr	r3, [sp, #8]
 1850 005c 0133     		adds	r3, r3, #1
 1851 005e 0293     		str	r3, [sp, #8]
 1852              	.L144:
 1853              		.loc 5 380 0 is_stmt 0 discriminator 1
 1854 0060 029B     		ldr	r3, [sp, #8]
 1855 0062 032B     		cmp	r3, #3
 1856 0064 F2D9     		bls	.L145
 1857              		.loc 5 385 0 is_stmt 1
 1858 0066 0198     		ldr	r0, [sp, #4]
 1859 0068 FFF7FEFF 		bl	usb_lld_disable_endpoints
 1860              		.loc 5 386 0
 1861 006c 00BF     		nop
 1862 006e 054B     		ldr	r3, .L148
 1863 0070 039A     		ldr	r2, [sp, #12]
 1864 0072 1B68     		ldr	r3, [r3]
 1865 0074 9A42     		cmp	r2, r3
 1866 0076 01D0     		beq	.L146
 1867 0078 FFF7FEFF 		bl	__stack_chk_fail
 1868              	.L146:
 1869 007c 05B0     		add	sp, sp, #20
 1870              		.cfi_def_cfa_offset 4
 1871              		@ sp needed
 1872 007e 5DF804FB 		ldr	pc, [sp], #4
 1873              	.L149:
 1874 0082 00BF     		.align	2
 1875              	.L148:
 1876 0084 00000000 		.word	__stack_chk_guard
 1877 0088 00000000 		.word	__func__.10312
 1878              		.cfi_endproc
 1879              	.LFE264:
 1880              		.size	usbDisableEndpointsI, .-usbDisableEndpointsI
 1881              		.section	.text.usbPrepareReceive,"ax",%progbits
ARM GAS  C:\Users\PCHAUT~1\AppData\Local\Temp\cc7u0cQS.s 			page 34


 1882              		.align	1
 1883              		.p2align 4,,15
 1884              		.global	usbPrepareReceive
 1885              		.syntax unified
 1886              		.thumb
 1887              		.thumb_func
 1888              		.fpu fpv4-sp-d16
 1889              		.type	usbPrepareReceive, %function
 1890              	usbPrepareReceive:
 1891              	.LFB265:
 1892              		.loc 5 400 0
 1893              		.cfi_startproc
 1894              		@ args = 0, pretend = 0, frame = 24
 1895              		@ frame_needed = 0, uses_anonymous_args = 0
 1896 0000 00B5     		push	{lr}
 1897              		.cfi_def_cfa_offset 4
 1898              		.cfi_offset 14, -4
 1899 0002 87B0     		sub	sp, sp, #28
 1900              		.cfi_def_cfa_offset 32
 1901 0004 0390     		str	r0, [sp, #12]
 1902 0006 0192     		str	r2, [sp, #4]
 1903 0008 0093     		str	r3, [sp]
 1904 000a 0B46     		mov	r3, r1
 1905 000c 8DF80B30 		strb	r3, [sp, #11]
 1906              		.loc 5 400 0
 1907 0010 144B     		ldr	r3, .L152
 1908 0012 1B68     		ldr	r3, [r3]
 1909 0014 0593     		str	r3, [sp, #20]
 1910              		.loc 5 401 0
 1911 0016 9DF80B30 		ldrb	r3, [sp, #11]	@ zero_extendqisi2
 1912 001a 039A     		ldr	r2, [sp, #12]
 1913 001c 0233     		adds	r3, r3, #2
 1914 001e 9B00     		lsls	r3, r3, #2
 1915 0020 1344     		add	r3, r3, r2
 1916 0022 5B68     		ldr	r3, [r3, #4]
 1917 0024 9B69     		ldr	r3, [r3, #24]
 1918 0026 0493     		str	r3, [sp, #16]
 1919              		.loc 5 403 0
 1920 0028 049B     		ldr	r3, [sp, #16]
 1921 002a 0022     		movs	r2, #0
 1922 002c 1A70     		strb	r2, [r3]
 1923              		.loc 5 404 0
 1924 002e 049B     		ldr	r3, [sp, #16]
 1925 0030 019A     		ldr	r2, [sp, #4]
 1926 0032 DA60     		str	r2, [r3, #12]
 1927              		.loc 5 405 0
 1928 0034 049B     		ldr	r3, [sp, #16]
 1929 0036 009A     		ldr	r2, [sp]
 1930 0038 5A60     		str	r2, [r3, #4]
 1931              		.loc 5 406 0
 1932 003a 049B     		ldr	r3, [sp, #16]
 1933 003c 0022     		movs	r2, #0
 1934 003e 9A60     		str	r2, [r3, #8]
 1935              		.loc 5 408 0
 1936 0040 9DF80B30 		ldrb	r3, [sp, #11]	@ zero_extendqisi2
 1937 0044 1946     		mov	r1, r3
 1938 0046 0398     		ldr	r0, [sp, #12]
ARM GAS  C:\Users\PCHAUT~1\AppData\Local\Temp\cc7u0cQS.s 			page 35


 1939 0048 FFF7FEFF 		bl	usb_lld_prepare_receive
 1940              		.loc 5 409 0
 1941 004c 00BF     		nop
 1942 004e 054B     		ldr	r3, .L152
 1943 0050 059A     		ldr	r2, [sp, #20]
 1944 0052 1B68     		ldr	r3, [r3]
 1945 0054 9A42     		cmp	r2, r3
 1946 0056 01D0     		beq	.L151
 1947 0058 FFF7FEFF 		bl	__stack_chk_fail
 1948              	.L151:
 1949 005c 07B0     		add	sp, sp, #28
 1950              		.cfi_def_cfa_offset 4
 1951              		@ sp needed
 1952 005e 5DF804FB 		ldr	pc, [sp], #4
 1953              	.L153:
 1954 0062 00BF     		.align	2
 1955              	.L152:
 1956 0064 00000000 		.word	__stack_chk_guard
 1957              		.cfi_endproc
 1958              	.LFE265:
 1959              		.size	usbPrepareReceive, .-usbPrepareReceive
 1960              		.section	.text.usbPrepareTransmit,"ax",%progbits
 1961              		.align	1
 1962              		.p2align 4,,15
 1963              		.global	usbPrepareTransmit
 1964              		.syntax unified
 1965              		.thumb
 1966              		.thumb_func
 1967              		.fpu fpv4-sp-d16
 1968              		.type	usbPrepareTransmit, %function
 1969              	usbPrepareTransmit:
 1970              	.LFB266:
 1971              		.loc 5 426 0
 1972              		.cfi_startproc
 1973              		@ args = 0, pretend = 0, frame = 24
 1974              		@ frame_needed = 0, uses_anonymous_args = 0
 1975 0000 00B5     		push	{lr}
 1976              		.cfi_def_cfa_offset 4
 1977              		.cfi_offset 14, -4
 1978 0002 87B0     		sub	sp, sp, #28
 1979              		.cfi_def_cfa_offset 32
 1980 0004 0390     		str	r0, [sp, #12]
 1981 0006 0192     		str	r2, [sp, #4]
 1982 0008 0093     		str	r3, [sp]
 1983 000a 0B46     		mov	r3, r1
 1984 000c 8DF80B30 		strb	r3, [sp, #11]
 1985              		.loc 5 426 0
 1986 0010 144B     		ldr	r3, .L156
 1987 0012 1B68     		ldr	r3, [r3]
 1988 0014 0593     		str	r3, [sp, #20]
 1989              		.loc 5 427 0
 1990 0016 9DF80B30 		ldrb	r3, [sp, #11]	@ zero_extendqisi2
 1991 001a 039A     		ldr	r2, [sp, #12]
 1992 001c 0233     		adds	r3, r3, #2
 1993 001e 9B00     		lsls	r3, r3, #2
 1994 0020 1344     		add	r3, r3, r2
 1995 0022 5B68     		ldr	r3, [r3, #4]
ARM GAS  C:\Users\PCHAUT~1\AppData\Local\Temp\cc7u0cQS.s 			page 36


 1996 0024 5B69     		ldr	r3, [r3, #20]
 1997 0026 0493     		str	r3, [sp, #16]
 1998              		.loc 5 429 0
 1999 0028 049B     		ldr	r3, [sp, #16]
 2000 002a 0022     		movs	r2, #0
 2001 002c 1A70     		strb	r2, [r3]
 2002              		.loc 5 430 0
 2003 002e 049B     		ldr	r3, [sp, #16]
 2004 0030 019A     		ldr	r2, [sp, #4]
 2005 0032 DA60     		str	r2, [r3, #12]
 2006              		.loc 5 431 0
 2007 0034 049B     		ldr	r3, [sp, #16]
 2008 0036 009A     		ldr	r2, [sp]
 2009 0038 5A60     		str	r2, [r3, #4]
 2010              		.loc 5 432 0
 2011 003a 049B     		ldr	r3, [sp, #16]
 2012 003c 0022     		movs	r2, #0
 2013 003e 9A60     		str	r2, [r3, #8]
 2014              		.loc 5 434 0
 2015 0040 9DF80B30 		ldrb	r3, [sp, #11]	@ zero_extendqisi2
 2016 0044 1946     		mov	r1, r3
 2017 0046 0398     		ldr	r0, [sp, #12]
 2018 0048 FFF7FEFF 		bl	usb_lld_prepare_transmit
 2019              		.loc 5 435 0
 2020 004c 00BF     		nop
 2021 004e 054B     		ldr	r3, .L156
 2022 0050 059A     		ldr	r2, [sp, #20]
 2023 0052 1B68     		ldr	r3, [r3]
 2024 0054 9A42     		cmp	r2, r3
 2025 0056 01D0     		beq	.L155
 2026 0058 FFF7FEFF 		bl	__stack_chk_fail
 2027              	.L155:
 2028 005c 07B0     		add	sp, sp, #28
 2029              		.cfi_def_cfa_offset 4
 2030              		@ sp needed
 2031 005e 5DF804FB 		ldr	pc, [sp], #4
 2032              	.L157:
 2033 0062 00BF     		.align	2
 2034              	.L156:
 2035 0064 00000000 		.word	__stack_chk_guard
 2036              		.cfi_endproc
 2037              	.LFE266:
 2038              		.size	usbPrepareTransmit, .-usbPrepareTransmit
 2039              		.section	.text.usbPrepareQueuedReceive,"ax",%progbits
 2040              		.align	1
 2041              		.p2align 4,,15
 2042              		.global	usbPrepareQueuedReceive
 2043              		.syntax unified
 2044              		.thumb
 2045              		.thumb_func
 2046              		.fpu fpv4-sp-d16
 2047              		.type	usbPrepareQueuedReceive, %function
 2048              	usbPrepareQueuedReceive:
 2049              	.LFB267:
 2050              		.loc 5 455 0
 2051              		.cfi_startproc
 2052              		@ args = 0, pretend = 0, frame = 24
ARM GAS  C:\Users\PCHAUT~1\AppData\Local\Temp\cc7u0cQS.s 			page 37


 2053              		@ frame_needed = 0, uses_anonymous_args = 0
 2054 0000 00B5     		push	{lr}
 2055              		.cfi_def_cfa_offset 4
 2056              		.cfi_offset 14, -4
 2057 0002 87B0     		sub	sp, sp, #28
 2058              		.cfi_def_cfa_offset 32
 2059 0004 0390     		str	r0, [sp, #12]
 2060 0006 0192     		str	r2, [sp, #4]
 2061 0008 0093     		str	r3, [sp]
 2062 000a 0B46     		mov	r3, r1
 2063 000c 8DF80B30 		strb	r3, [sp, #11]
 2064              		.loc 5 455 0
 2065 0010 144B     		ldr	r3, .L160
 2066 0012 1B68     		ldr	r3, [r3]
 2067 0014 0593     		str	r3, [sp, #20]
 2068              		.loc 5 456 0
 2069 0016 9DF80B30 		ldrb	r3, [sp, #11]	@ zero_extendqisi2
 2070 001a 039A     		ldr	r2, [sp, #12]
 2071 001c 0233     		adds	r3, r3, #2
 2072 001e 9B00     		lsls	r3, r3, #2
 2073 0020 1344     		add	r3, r3, r2
 2074 0022 5B68     		ldr	r3, [r3, #4]
 2075 0024 9B69     		ldr	r3, [r3, #24]
 2076 0026 0493     		str	r3, [sp, #16]
 2077              		.loc 5 458 0
 2078 0028 049B     		ldr	r3, [sp, #16]
 2079 002a 0122     		movs	r2, #1
 2080 002c 1A70     		strb	r2, [r3]
 2081              		.loc 5 459 0
 2082 002e 049B     		ldr	r3, [sp, #16]
 2083 0030 019A     		ldr	r2, [sp, #4]
 2084 0032 DA60     		str	r2, [r3, #12]
 2085              		.loc 5 460 0
 2086 0034 049B     		ldr	r3, [sp, #16]
 2087 0036 009A     		ldr	r2, [sp]
 2088 0038 5A60     		str	r2, [r3, #4]
 2089              		.loc 5 461 0
 2090 003a 049B     		ldr	r3, [sp, #16]
 2091 003c 0022     		movs	r2, #0
 2092 003e 9A60     		str	r2, [r3, #8]
 2093              		.loc 5 463 0
 2094 0040 9DF80B30 		ldrb	r3, [sp, #11]	@ zero_extendqisi2
 2095 0044 1946     		mov	r1, r3
 2096 0046 0398     		ldr	r0, [sp, #12]
 2097 0048 FFF7FEFF 		bl	usb_lld_prepare_receive
 2098              		.loc 5 464 0
 2099 004c 00BF     		nop
 2100 004e 054B     		ldr	r3, .L160
 2101 0050 059A     		ldr	r2, [sp, #20]
 2102 0052 1B68     		ldr	r3, [r3]
 2103 0054 9A42     		cmp	r2, r3
 2104 0056 01D0     		beq	.L159
 2105 0058 FFF7FEFF 		bl	__stack_chk_fail
 2106              	.L159:
 2107 005c 07B0     		add	sp, sp, #28
 2108              		.cfi_def_cfa_offset 4
 2109              		@ sp needed
ARM GAS  C:\Users\PCHAUT~1\AppData\Local\Temp\cc7u0cQS.s 			page 38


 2110 005e 5DF804FB 		ldr	pc, [sp], #4
 2111              	.L161:
 2112 0062 00BF     		.align	2
 2113              	.L160:
 2114 0064 00000000 		.word	__stack_chk_guard
 2115              		.cfi_endproc
 2116              	.LFE267:
 2117              		.size	usbPrepareQueuedReceive, .-usbPrepareQueuedReceive
 2118              		.section	.text.usbPrepareQueuedTransmit,"ax",%progbits
 2119              		.align	1
 2120              		.p2align 4,,15
 2121              		.global	usbPrepareQueuedTransmit
 2122              		.syntax unified
 2123              		.thumb
 2124              		.thumb_func
 2125              		.fpu fpv4-sp-d16
 2126              		.type	usbPrepareQueuedTransmit, %function
 2127              	usbPrepareQueuedTransmit:
 2128              	.LFB268:
 2129              		.loc 5 481 0
 2130              		.cfi_startproc
 2131              		@ args = 0, pretend = 0, frame = 24
 2132              		@ frame_needed = 0, uses_anonymous_args = 0
 2133 0000 00B5     		push	{lr}
 2134              		.cfi_def_cfa_offset 4
 2135              		.cfi_offset 14, -4
 2136 0002 87B0     		sub	sp, sp, #28
 2137              		.cfi_def_cfa_offset 32
 2138 0004 0390     		str	r0, [sp, #12]
 2139 0006 0192     		str	r2, [sp, #4]
 2140 0008 0093     		str	r3, [sp]
 2141 000a 0B46     		mov	r3, r1
 2142 000c 8DF80B30 		strb	r3, [sp, #11]
 2143              		.loc 5 481 0
 2144 0010 144B     		ldr	r3, .L164
 2145 0012 1B68     		ldr	r3, [r3]
 2146 0014 0593     		str	r3, [sp, #20]
 2147              		.loc 5 482 0
 2148 0016 9DF80B30 		ldrb	r3, [sp, #11]	@ zero_extendqisi2
 2149 001a 039A     		ldr	r2, [sp, #12]
 2150 001c 0233     		adds	r3, r3, #2
 2151 001e 9B00     		lsls	r3, r3, #2
 2152 0020 1344     		add	r3, r3, r2
 2153 0022 5B68     		ldr	r3, [r3, #4]
 2154 0024 5B69     		ldr	r3, [r3, #20]
 2155 0026 0493     		str	r3, [sp, #16]
 2156              		.loc 5 484 0
 2157 0028 049B     		ldr	r3, [sp, #16]
 2158 002a 0122     		movs	r2, #1
 2159 002c 1A70     		strb	r2, [r3]
 2160              		.loc 5 485 0
 2161 002e 049B     		ldr	r3, [sp, #16]
 2162 0030 019A     		ldr	r2, [sp, #4]
 2163 0032 DA60     		str	r2, [r3, #12]
 2164              		.loc 5 486 0
 2165 0034 049B     		ldr	r3, [sp, #16]
 2166 0036 009A     		ldr	r2, [sp]
ARM GAS  C:\Users\PCHAUT~1\AppData\Local\Temp\cc7u0cQS.s 			page 39


 2167 0038 5A60     		str	r2, [r3, #4]
 2168              		.loc 5 487 0
 2169 003a 049B     		ldr	r3, [sp, #16]
 2170 003c 0022     		movs	r2, #0
 2171 003e 9A60     		str	r2, [r3, #8]
 2172              		.loc 5 489 0
 2173 0040 9DF80B30 		ldrb	r3, [sp, #11]	@ zero_extendqisi2
 2174 0044 1946     		mov	r1, r3
 2175 0046 0398     		ldr	r0, [sp, #12]
 2176 0048 FFF7FEFF 		bl	usb_lld_prepare_transmit
 2177              		.loc 5 490 0
 2178 004c 00BF     		nop
 2179 004e 054B     		ldr	r3, .L164
 2180 0050 059A     		ldr	r2, [sp, #20]
 2181 0052 1B68     		ldr	r3, [r3]
 2182 0054 9A42     		cmp	r2, r3
 2183 0056 01D0     		beq	.L163
 2184 0058 FFF7FEFF 		bl	__stack_chk_fail
 2185              	.L163:
 2186 005c 07B0     		add	sp, sp, #28
 2187              		.cfi_def_cfa_offset 4
 2188              		@ sp needed
 2189 005e 5DF804FB 		ldr	pc, [sp], #4
 2190              	.L165:
 2191 0062 00BF     		.align	2
 2192              	.L164:
 2193 0064 00000000 		.word	__stack_chk_guard
 2194              		.cfi_endproc
 2195              	.LFE268:
 2196              		.size	usbPrepareQueuedTransmit, .-usbPrepareQueuedTransmit
 2197              		.section	.text.usbStartReceiveI,"ax",%progbits
 2198              		.align	1
 2199              		.p2align 4,,15
 2200              		.global	usbStartReceiveI
 2201              		.syntax unified
 2202              		.thumb
 2203              		.thumb_func
 2204              		.fpu fpv4-sp-d16
 2205              		.type	usbStartReceiveI, %function
 2206              	usbStartReceiveI:
 2207              	.LFB269:
 2208              		.loc 5 506 0
 2209              		.cfi_startproc
 2210              		@ args = 0, pretend = 0, frame = 16
 2211              		@ frame_needed = 0, uses_anonymous_args = 0
 2212 0000 00B5     		push	{lr}
 2213              		.cfi_def_cfa_offset 4
 2214              		.cfi_offset 14, -4
 2215 0002 85B0     		sub	sp, sp, #20
 2216              		.cfi_def_cfa_offset 24
 2217 0004 0190     		str	r0, [sp, #4]
 2218 0006 0B46     		mov	r3, r1
 2219 0008 8DF80330 		strb	r3, [sp, #3]
 2220              		.loc 5 506 0
 2221 000c 1B4B     		ldr	r3, .L171
 2222 000e 1B68     		ldr	r3, [r3]
 2223 0010 0393     		str	r3, [sp, #12]
ARM GAS  C:\Users\PCHAUT~1\AppData\Local\Temp\cc7u0cQS.s 			page 40


 2224              		.loc 5 508 0
 2225 0012 FFF7FEFF 		bl	chDbgCheckClassI
 2226              		.loc 5 509 0
 2227 0016 019B     		ldr	r3, [sp, #4]
 2228 0018 002B     		cmp	r3, #0
 2229 001a 02D1     		bne	.L167
 2230              		.loc 5 509 0 is_stmt 0 discriminator 2
 2231 001c 1848     		ldr	r0, .L171+4
 2232 001e FFF7FEFF 		bl	chSysHalt
 2233              	.L167:
 2234              		.loc 5 511 0 is_stmt 1
 2235 0022 019B     		ldr	r3, [sp, #4]
 2236 0024 5A89     		ldrh	r2, [r3, #10]
 2237 0026 9DF80330 		ldrb	r3, [sp, #3]	@ zero_extendqisi2
 2238 002a 0121     		movs	r1, #1
 2239 002c 01FA03F3 		lsl	r3, r1, r3
 2240 0030 9BB2     		uxth	r3, r3
 2241 0032 1340     		ands	r3, r3, r2
 2242 0034 9BB2     		uxth	r3, r3
 2243 0036 002B     		cmp	r3, #0
 2244 0038 01D0     		beq	.L168
 2245              		.loc 5 512 0
 2246 003a 0123     		movs	r3, #1
 2247 003c 12E0     		b	.L169
 2248              	.L168:
 2249              		.loc 5 515 0
 2250 003e 019B     		ldr	r3, [sp, #4]
 2251 0040 5A89     		ldrh	r2, [r3, #10]
 2252 0042 9DF80330 		ldrb	r3, [sp, #3]	@ zero_extendqisi2
 2253 0046 0121     		movs	r1, #1
 2254 0048 01FA03F3 		lsl	r3, r1, r3
 2255 004c 9BB2     		uxth	r3, r3
 2256 004e 1343     		orrs	r3, r3, r2
 2257 0050 9AB2     		uxth	r2, r3
 2258 0052 019B     		ldr	r3, [sp, #4]
 2259 0054 5A81     		strh	r2, [r3, #10]	@ movhi
 2260              		.loc 5 516 0
 2261 0056 9DF80330 		ldrb	r3, [sp, #3]	@ zero_extendqisi2
 2262 005a 1946     		mov	r1, r3
 2263 005c 0198     		ldr	r0, [sp, #4]
 2264 005e FFF7FEFF 		bl	usb_lld_start_out
 2265              		.loc 5 517 0
 2266 0062 0023     		movs	r3, #0
 2267              	.L169:
 2268              		.loc 5 518 0
 2269 0064 1846     		mov	r0, r3
 2270 0066 054B     		ldr	r3, .L171
 2271 0068 039A     		ldr	r2, [sp, #12]
 2272 006a 1B68     		ldr	r3, [r3]
 2273 006c 9A42     		cmp	r2, r3
 2274 006e 01D0     		beq	.L170
 2275 0070 FFF7FEFF 		bl	__stack_chk_fail
 2276              	.L170:
 2277 0074 05B0     		add	sp, sp, #20
 2278              		.cfi_def_cfa_offset 4
 2279              		@ sp needed
 2280 0076 5DF804FB 		ldr	pc, [sp], #4
ARM GAS  C:\Users\PCHAUT~1\AppData\Local\Temp\cc7u0cQS.s 			page 41


 2281              	.L172:
 2282 007a 00BF     		.align	2
 2283              	.L171:
 2284 007c 00000000 		.word	__stack_chk_guard
 2285 0080 00000000 		.word	__func__.10348
 2286              		.cfi_endproc
 2287              	.LFE269:
 2288              		.size	usbStartReceiveI, .-usbStartReceiveI
 2289              		.section	.text.usbStartTransmitI,"ax",%progbits
 2290              		.align	1
 2291              		.p2align 4,,15
 2292              		.global	usbStartTransmitI
 2293              		.syntax unified
 2294              		.thumb
 2295              		.thumb_func
 2296              		.fpu fpv4-sp-d16
 2297              		.type	usbStartTransmitI, %function
 2298              	usbStartTransmitI:
 2299              	.LFB270:
 2300              		.loc 5 534 0
 2301              		.cfi_startproc
 2302              		@ args = 0, pretend = 0, frame = 16
 2303              		@ frame_needed = 0, uses_anonymous_args = 0
 2304 0000 00B5     		push	{lr}
 2305              		.cfi_def_cfa_offset 4
 2306              		.cfi_offset 14, -4
 2307 0002 85B0     		sub	sp, sp, #20
 2308              		.cfi_def_cfa_offset 24
 2309 0004 0190     		str	r0, [sp, #4]
 2310 0006 0B46     		mov	r3, r1
 2311 0008 8DF80330 		strb	r3, [sp, #3]
 2312              		.loc 5 534 0
 2313 000c 1B4B     		ldr	r3, .L178
 2314 000e 1B68     		ldr	r3, [r3]
 2315 0010 0393     		str	r3, [sp, #12]
 2316              		.loc 5 536 0
 2317 0012 FFF7FEFF 		bl	chDbgCheckClassI
 2318              		.loc 5 537 0
 2319 0016 019B     		ldr	r3, [sp, #4]
 2320 0018 002B     		cmp	r3, #0
 2321 001a 02D1     		bne	.L174
 2322              		.loc 5 537 0 is_stmt 0 discriminator 2
 2323 001c 1848     		ldr	r0, .L178+4
 2324 001e FFF7FEFF 		bl	chSysHalt
 2325              	.L174:
 2326              		.loc 5 539 0 is_stmt 1
 2327 0022 019B     		ldr	r3, [sp, #4]
 2328 0024 1A89     		ldrh	r2, [r3, #8]
 2329 0026 9DF80330 		ldrb	r3, [sp, #3]	@ zero_extendqisi2
 2330 002a 0121     		movs	r1, #1
 2331 002c 01FA03F3 		lsl	r3, r1, r3
 2332 0030 9BB2     		uxth	r3, r3
 2333 0032 1340     		ands	r3, r3, r2
 2334 0034 9BB2     		uxth	r3, r3
 2335 0036 002B     		cmp	r3, #0
 2336 0038 01D0     		beq	.L175
 2337              		.loc 5 540 0
ARM GAS  C:\Users\PCHAUT~1\AppData\Local\Temp\cc7u0cQS.s 			page 42


 2338 003a 0123     		movs	r3, #1
 2339 003c 12E0     		b	.L176
 2340              	.L175:
 2341              		.loc 5 543 0
 2342 003e 019B     		ldr	r3, [sp, #4]
 2343 0040 1A89     		ldrh	r2, [r3, #8]
 2344 0042 9DF80330 		ldrb	r3, [sp, #3]	@ zero_extendqisi2
 2345 0046 0121     		movs	r1, #1
 2346 0048 01FA03F3 		lsl	r3, r1, r3
 2347 004c 9BB2     		uxth	r3, r3
 2348 004e 1343     		orrs	r3, r3, r2
 2349 0050 9AB2     		uxth	r2, r3
 2350 0052 019B     		ldr	r3, [sp, #4]
 2351 0054 1A81     		strh	r2, [r3, #8]	@ movhi
 2352              		.loc 5 544 0
 2353 0056 9DF80330 		ldrb	r3, [sp, #3]	@ zero_extendqisi2
 2354 005a 1946     		mov	r1, r3
 2355 005c 0198     		ldr	r0, [sp, #4]
 2356 005e FFF7FEFF 		bl	usb_lld_start_in
 2357              		.loc 5 545 0
 2358 0062 0023     		movs	r3, #0
 2359              	.L176:
 2360              		.loc 5 546 0
 2361 0064 1846     		mov	r0, r3
 2362 0066 054B     		ldr	r3, .L178
 2363 0068 039A     		ldr	r2, [sp, #12]
 2364 006a 1B68     		ldr	r3, [r3]
 2365 006c 9A42     		cmp	r2, r3
 2366 006e 01D0     		beq	.L177
 2367 0070 FFF7FEFF 		bl	__stack_chk_fail
 2368              	.L177:
 2369 0074 05B0     		add	sp, sp, #20
 2370              		.cfi_def_cfa_offset 4
 2371              		@ sp needed
 2372 0076 5DF804FB 		ldr	pc, [sp], #4
 2373              	.L179:
 2374 007a 00BF     		.align	2
 2375              	.L178:
 2376 007c 00000000 		.word	__stack_chk_guard
 2377 0080 00000000 		.word	__func__.10353
 2378              		.cfi_endproc
 2379              	.LFE270:
 2380              		.size	usbStartTransmitI, .-usbStartTransmitI
 2381              		.section	.text.usbStallReceiveI,"ax",%progbits
 2382              		.align	1
 2383              		.p2align 4,,15
 2384              		.global	usbStallReceiveI
 2385              		.syntax unified
 2386              		.thumb
 2387              		.thumb_func
 2388              		.fpu fpv4-sp-d16
 2389              		.type	usbStallReceiveI, %function
 2390              	usbStallReceiveI:
 2391              	.LFB271:
 2392              		.loc 5 560 0
 2393              		.cfi_startproc
 2394              		@ args = 0, pretend = 0, frame = 16
ARM GAS  C:\Users\PCHAUT~1\AppData\Local\Temp\cc7u0cQS.s 			page 43


 2395              		@ frame_needed = 0, uses_anonymous_args = 0
 2396 0000 00B5     		push	{lr}
 2397              		.cfi_def_cfa_offset 4
 2398              		.cfi_offset 14, -4
 2399 0002 85B0     		sub	sp, sp, #20
 2400              		.cfi_def_cfa_offset 24
 2401 0004 0190     		str	r0, [sp, #4]
 2402 0006 0B46     		mov	r3, r1
 2403 0008 8DF80330 		strb	r3, [sp, #3]
 2404              		.loc 5 560 0
 2405 000c 154B     		ldr	r3, .L185
 2406 000e 1B68     		ldr	r3, [r3]
 2407 0010 0393     		str	r3, [sp, #12]
 2408              		.loc 5 562 0
 2409 0012 FFF7FEFF 		bl	chDbgCheckClassI
 2410              		.loc 5 563 0
 2411 0016 019B     		ldr	r3, [sp, #4]
 2412 0018 002B     		cmp	r3, #0
 2413 001a 02D1     		bne	.L181
 2414              		.loc 5 563 0 is_stmt 0 discriminator 2
 2415 001c 1248     		ldr	r0, .L185+4
 2416 001e FFF7FEFF 		bl	chSysHalt
 2417              	.L181:
 2418              		.loc 5 565 0 is_stmt 1
 2419 0022 019B     		ldr	r3, [sp, #4]
 2420 0024 5A89     		ldrh	r2, [r3, #10]
 2421 0026 9DF80330 		ldrb	r3, [sp, #3]	@ zero_extendqisi2
 2422 002a 0121     		movs	r1, #1
 2423 002c 01FA03F3 		lsl	r3, r1, r3
 2424 0030 9BB2     		uxth	r3, r3
 2425 0032 1340     		ands	r3, r3, r2
 2426 0034 9BB2     		uxth	r3, r3
 2427 0036 002B     		cmp	r3, #0
 2428 0038 01D0     		beq	.L182
 2429              		.loc 5 566 0
 2430 003a 0123     		movs	r3, #1
 2431 003c 06E0     		b	.L183
 2432              	.L182:
 2433              		.loc 5 569 0
 2434 003e 9DF80330 		ldrb	r3, [sp, #3]	@ zero_extendqisi2
 2435 0042 1946     		mov	r1, r3
 2436 0044 0198     		ldr	r0, [sp, #4]
 2437 0046 FFF7FEFF 		bl	usb_lld_stall_out
 2438              		.loc 5 570 0
 2439 004a 0023     		movs	r3, #0
 2440              	.L183:
 2441              		.loc 5 571 0
 2442 004c 1846     		mov	r0, r3
 2443 004e 054B     		ldr	r3, .L185
 2444 0050 039A     		ldr	r2, [sp, #12]
 2445 0052 1B68     		ldr	r3, [r3]
 2446 0054 9A42     		cmp	r2, r3
 2447 0056 01D0     		beq	.L184
 2448 0058 FFF7FEFF 		bl	__stack_chk_fail
 2449              	.L184:
 2450 005c 05B0     		add	sp, sp, #20
 2451              		.cfi_def_cfa_offset 4
ARM GAS  C:\Users\PCHAUT~1\AppData\Local\Temp\cc7u0cQS.s 			page 44


 2452              		@ sp needed
 2453 005e 5DF804FB 		ldr	pc, [sp], #4
 2454              	.L186:
 2455 0062 00BF     		.align	2
 2456              	.L185:
 2457 0064 00000000 		.word	__stack_chk_guard
 2458 0068 00000000 		.word	__func__.10358
 2459              		.cfi_endproc
 2460              	.LFE271:
 2461              		.size	usbStallReceiveI, .-usbStallReceiveI
 2462              		.section	.text.usbStallTransmitI,"ax",%progbits
 2463              		.align	1
 2464              		.p2align 4,,15
 2465              		.global	usbStallTransmitI
 2466              		.syntax unified
 2467              		.thumb
 2468              		.thumb_func
 2469              		.fpu fpv4-sp-d16
 2470              		.type	usbStallTransmitI, %function
 2471              	usbStallTransmitI:
 2472              	.LFB272:
 2473              		.loc 5 585 0
 2474              		.cfi_startproc
 2475              		@ args = 0, pretend = 0, frame = 16
 2476              		@ frame_needed = 0, uses_anonymous_args = 0
 2477 0000 00B5     		push	{lr}
 2478              		.cfi_def_cfa_offset 4
 2479              		.cfi_offset 14, -4
 2480 0002 85B0     		sub	sp, sp, #20
 2481              		.cfi_def_cfa_offset 24
 2482 0004 0190     		str	r0, [sp, #4]
 2483 0006 0B46     		mov	r3, r1
 2484 0008 8DF80330 		strb	r3, [sp, #3]
 2485              		.loc 5 585 0
 2486 000c 154B     		ldr	r3, .L192
 2487 000e 1B68     		ldr	r3, [r3]
 2488 0010 0393     		str	r3, [sp, #12]
 2489              		.loc 5 587 0
 2490 0012 FFF7FEFF 		bl	chDbgCheckClassI
 2491              		.loc 5 588 0
 2492 0016 019B     		ldr	r3, [sp, #4]
 2493 0018 002B     		cmp	r3, #0
 2494 001a 02D1     		bne	.L188
 2495              		.loc 5 588 0 is_stmt 0 discriminator 2
 2496 001c 1248     		ldr	r0, .L192+4
 2497 001e FFF7FEFF 		bl	chSysHalt
 2498              	.L188:
 2499              		.loc 5 590 0 is_stmt 1
 2500 0022 019B     		ldr	r3, [sp, #4]
 2501 0024 1A89     		ldrh	r2, [r3, #8]
 2502 0026 9DF80330 		ldrb	r3, [sp, #3]	@ zero_extendqisi2
 2503 002a 0121     		movs	r1, #1
 2504 002c 01FA03F3 		lsl	r3, r1, r3
 2505 0030 9BB2     		uxth	r3, r3
 2506 0032 1340     		ands	r3, r3, r2
 2507 0034 9BB2     		uxth	r3, r3
 2508 0036 002B     		cmp	r3, #0
ARM GAS  C:\Users\PCHAUT~1\AppData\Local\Temp\cc7u0cQS.s 			page 45


 2509 0038 01D0     		beq	.L189
 2510              		.loc 5 591 0
 2511 003a 0123     		movs	r3, #1
 2512 003c 06E0     		b	.L190
 2513              	.L189:
 2514              		.loc 5 594 0
 2515 003e 9DF80330 		ldrb	r3, [sp, #3]	@ zero_extendqisi2
 2516 0042 1946     		mov	r1, r3
 2517 0044 0198     		ldr	r0, [sp, #4]
 2518 0046 FFF7FEFF 		bl	usb_lld_stall_in
 2519              		.loc 5 595 0
 2520 004a 0023     		movs	r3, #0
 2521              	.L190:
 2522              		.loc 5 596 0
 2523 004c 1846     		mov	r0, r3
 2524 004e 054B     		ldr	r3, .L192
 2525 0050 039A     		ldr	r2, [sp, #12]
 2526 0052 1B68     		ldr	r3, [r3]
 2527 0054 9A42     		cmp	r2, r3
 2528 0056 01D0     		beq	.L191
 2529 0058 FFF7FEFF 		bl	__stack_chk_fail
 2530              	.L191:
 2531 005c 05B0     		add	sp, sp, #20
 2532              		.cfi_def_cfa_offset 4
 2533              		@ sp needed
 2534 005e 5DF804FB 		ldr	pc, [sp], #4
 2535              	.L193:
 2536 0062 00BF     		.align	2
 2537              	.L192:
 2538 0064 00000000 		.word	__stack_chk_guard
 2539 0068 00000000 		.word	__func__.10363
 2540              		.cfi_endproc
 2541              	.LFE272:
 2542              		.size	usbStallTransmitI, .-usbStallTransmitI
 2543              		.section	.text._usb_reset,"ax",%progbits
 2544              		.align	1
 2545              		.p2align 4,,15
 2546              		.global	_usb_reset
 2547              		.syntax unified
 2548              		.thumb
 2549              		.thumb_func
 2550              		.fpu fpv4-sp-d16
 2551              		.type	_usb_reset, %function
 2552              	_usb_reset:
 2553              	.LFB273:
 2554              		.loc 5 607 0
 2555              		.cfi_startproc
 2556              		@ args = 0, pretend = 0, frame = 16
 2557              		@ frame_needed = 0, uses_anonymous_args = 0
 2558 0000 00B5     		push	{lr}
 2559              		.cfi_def_cfa_offset 4
 2560              		.cfi_offset 14, -4
 2561 0002 85B0     		sub	sp, sp, #20
 2562              		.cfi_def_cfa_offset 24
 2563 0004 0190     		str	r0, [sp, #4]
 2564              		.loc 5 607 0
 2565 0006 1D4B     		ldr	r3, .L198
ARM GAS  C:\Users\PCHAUT~1\AppData\Local\Temp\cc7u0cQS.s 			page 46


 2566 0008 1B68     		ldr	r3, [r3]
 2567 000a 0393     		str	r3, [sp, #12]
 2568              		.loc 5 610 0
 2569 000c 019B     		ldr	r3, [sp, #4]
 2570 000e 0222     		movs	r2, #2
 2571 0010 1A70     		strb	r2, [r3]
 2572              		.loc 5 611 0
 2573 0012 019B     		ldr	r3, [sp, #4]
 2574 0014 0022     		movs	r2, #0
 2575 0016 A3F84C20 		strh	r2, [r3, #76]	@ movhi
 2576              		.loc 5 612 0
 2577 001a 019B     		ldr	r3, [sp, #4]
 2578 001c 0022     		movs	r2, #0
 2579 001e 83F84E20 		strb	r2, [r3, #78]
 2580              		.loc 5 613 0
 2581 0022 019B     		ldr	r3, [sp, #4]
 2582 0024 0022     		movs	r2, #0
 2583 0026 83F84F20 		strb	r2, [r3, #79]
 2584              		.loc 5 614 0
 2585 002a 019B     		ldr	r3, [sp, #4]
 2586 002c 0022     		movs	r2, #0
 2587 002e 1A81     		strh	r2, [r3, #8]	@ movhi
 2588              		.loc 5 615 0
 2589 0030 019B     		ldr	r3, [sp, #4]
 2590 0032 0022     		movs	r2, #0
 2591 0034 5A81     		strh	r2, [r3, #10]	@ movhi
 2592              		.loc 5 618 0
 2593 0036 0023     		movs	r3, #0
 2594 0038 0293     		str	r3, [sp, #8]
 2595 003a 09E0     		b	.L195
 2596              	.L196:
 2597              		.loc 5 619 0 discriminator 3
 2598 003c 019A     		ldr	r2, [sp, #4]
 2599 003e 029B     		ldr	r3, [sp, #8]
 2600 0040 0233     		adds	r3, r3, #2
 2601 0042 9B00     		lsls	r3, r3, #2
 2602 0044 1344     		add	r3, r3, r2
 2603 0046 0022     		movs	r2, #0
 2604 0048 5A60     		str	r2, [r3, #4]
 2605              		.loc 5 618 0 discriminator 3
 2606 004a 029B     		ldr	r3, [sp, #8]
 2607 004c 0133     		adds	r3, r3, #1
 2608 004e 0293     		str	r3, [sp, #8]
 2609              	.L195:
 2610              		.loc 5 618 0 is_stmt 0 discriminator 1
 2611 0050 029B     		ldr	r3, [sp, #8]
 2612 0052 032B     		cmp	r3, #3
 2613 0054 F2D9     		bls	.L196
 2614              		.loc 5 623 0 is_stmt 1
 2615 0056 019B     		ldr	r3, [sp, #4]
 2616 0058 0022     		movs	r2, #0
 2617 005a 83F83420 		strb	r2, [r3, #52]
 2618              		.loc 5 626 0
 2619 005e 0198     		ldr	r0, [sp, #4]
 2620 0060 FFF7FEFF 		bl	usb_lld_reset
 2621              		.loc 5 627 0
 2622 0064 00BF     		nop
ARM GAS  C:\Users\PCHAUT~1\AppData\Local\Temp\cc7u0cQS.s 			page 47


 2623 0066 054B     		ldr	r3, .L198
 2624 0068 039A     		ldr	r2, [sp, #12]
 2625 006a 1B68     		ldr	r3, [r3]
 2626 006c 9A42     		cmp	r2, r3
 2627 006e 01D0     		beq	.L197
 2628 0070 FFF7FEFF 		bl	__stack_chk_fail
 2629              	.L197:
 2630 0074 05B0     		add	sp, sp, #20
 2631              		.cfi_def_cfa_offset 4
 2632              		@ sp needed
 2633 0076 5DF804FB 		ldr	pc, [sp], #4
 2634              	.L199:
 2635 007a 00BF     		.align	2
 2636              	.L198:
 2637 007c 00000000 		.word	__stack_chk_guard
 2638              		.cfi_endproc
 2639              	.LFE273:
 2640              		.size	_usb_reset, .-_usb_reset
 2641              		.section	.text._usb_ep0setup,"ax",%progbits
 2642              		.align	1
 2643              		.p2align 4,,15
 2644              		.global	_usb_ep0setup
 2645              		.syntax unified
 2646              		.thumb
 2647              		.thumb_func
 2648              		.fpu fpv4-sp-d16
 2649              		.type	_usb_ep0setup, %function
 2650              	_usb_ep0setup:
 2651              	.LFB274:
 2652              		.loc 5 639 0
 2653              		.cfi_startproc
 2654              		@ args = 0, pretend = 0, frame = 16
 2655              		@ frame_needed = 0, uses_anonymous_args = 0
 2656 0000 00B5     		push	{lr}
 2657              		.cfi_def_cfa_offset 4
 2658              		.cfi_offset 14, -4
 2659 0002 85B0     		sub	sp, sp, #20
 2660              		.cfi_def_cfa_offset 24
 2661 0004 0190     		str	r0, [sp, #4]
 2662 0006 0B46     		mov	r3, r1
 2663 0008 8DF80330 		strb	r3, [sp, #3]
 2664              		.loc 5 639 0
 2665 000c 5E4B     		ldr	r3, .L212
 2666 000e 1B68     		ldr	r3, [r3]
 2667 0010 0393     		str	r3, [sp, #12]
 2668              		.loc 5 642 0
 2669 0012 019B     		ldr	r3, [sp, #4]
 2670 0014 0022     		movs	r2, #0
 2671 0016 83F83420 		strb	r2, [r3, #52]
 2672              		.loc 5 643 0
 2673 001a 019B     		ldr	r3, [sp, #4]
 2674 001c 03F14402 		add	r2, r3, #68
 2675 0020 9DF80330 		ldrb	r3, [sp, #3]	@ zero_extendqisi2
 2676 0024 1946     		mov	r1, r3
 2677 0026 0198     		ldr	r0, [sp, #4]
 2678 0028 FFF7FEFF 		bl	usb_lld_read_setup
 2679              		.loc 5 648 0
ARM GAS  C:\Users\PCHAUT~1\AppData\Local\Temp\cc7u0cQS.s 			page 48


 2680 002c 019B     		ldr	r3, [sp, #4]
 2681 002e 5B68     		ldr	r3, [r3, #4]
 2682 0030 9B68     		ldr	r3, [r3, #8]
 2683 0032 002B     		cmp	r3, #0
 2684 0034 0AD0     		beq	.L201
 2685              		.loc 5 649 0 discriminator 1
 2686 0036 019B     		ldr	r3, [sp, #4]
 2687 0038 5B68     		ldr	r3, [r3, #4]
 2688 003a 9B68     		ldr	r3, [r3, #8]
 2689 003c 0198     		ldr	r0, [sp, #4]
 2690 003e 9847     		blx	r3
 2691              	.LVL3:
 2692 0040 0346     		mov	r3, r0
 2693 0042 83F00103 		eor	r3, r3, #1
 2694 0046 DBB2     		uxtb	r3, r3
 2695              		.loc 5 648 0 discriminator 1
 2696 0048 002B     		cmp	r3, #0
 2697 004a 27D0     		beq	.L202
 2698              	.L201:
 2699              		.loc 5 654 0
 2700 004c 019B     		ldr	r3, [sp, #4]
 2701 004e 93F84430 		ldrb	r3, [r3, #68]	@ zero_extendqisi2
 2702 0052 03F06003 		and	r3, r3, #96
 2703 0056 002B     		cmp	r3, #0
 2704 0058 08D1     		bne	.L203
 2705              		.loc 5 655 0 discriminator 1
 2706 005a 0198     		ldr	r0, [sp, #4]
 2707 005c FFF7FEFF 		bl	default_handler
 2708 0060 0346     		mov	r3, r0
 2709 0062 83F00103 		eor	r3, r3, #1
 2710 0066 DBB2     		uxtb	r3, r3
 2711              		.loc 5 654 0 discriminator 1
 2712 0068 002B     		cmp	r3, #0
 2713 006a 17D0     		beq	.L202
 2714              	.L203:
 2715              		.loc 5 660 0
 2716 006c 0021     		movs	r1, #0
 2717 006e 0198     		ldr	r0, [sp, #4]
 2718 0070 FFF7FEFF 		bl	usb_lld_stall_in
 2719              		.loc 5 661 0
 2720 0074 0021     		movs	r1, #0
 2721 0076 0198     		ldr	r0, [sp, #4]
 2722 0078 FFF7FEFF 		bl	usb_lld_stall_out
 2723              		.loc 5 662 0
 2724 007c 019B     		ldr	r3, [sp, #4]
 2725 007e 5B68     		ldr	r3, [r3, #4]
 2726 0080 1B68     		ldr	r3, [r3]
 2727 0082 002B     		cmp	r3, #0
 2728 0084 05D0     		beq	.L204
 2729              		.loc 5 662 0 is_stmt 0 discriminator 1
 2730 0086 019B     		ldr	r3, [sp, #4]
 2731 0088 5B68     		ldr	r3, [r3, #4]
 2732 008a 1B68     		ldr	r3, [r3]
 2733 008c 0521     		movs	r1, #5
 2734 008e 0198     		ldr	r0, [sp, #4]
 2735 0090 9847     		blx	r3
 2736              	.LVL4:
ARM GAS  C:\Users\PCHAUT~1\AppData\Local\Temp\cc7u0cQS.s 			page 49


 2737              	.L204:
 2738              		.loc 5 663 0 is_stmt 1
 2739 0092 019B     		ldr	r3, [sp, #4]
 2740 0094 0622     		movs	r2, #6
 2741 0096 83F83420 		strb	r2, [r3, #52]
 2742              		.loc 5 664 0
 2743 009a 6BE0     		b	.L200
 2744              	.L202:
 2745              		.loc 5 676 0
 2746 009c 019B     		ldr	r3, [sp, #4]
 2747 009e 4A33     		adds	r3, r3, #74
 2748 00a0 1846     		mov	r0, r3
 2749 00a2 FFF7FEFF 		bl	get_hword
 2750 00a6 0346     		mov	r3, r0
 2751 00a8 0293     		str	r3, [sp, #8]
 2752              		.loc 5 678 0
 2753 00aa 019B     		ldr	r3, [sp, #4]
 2754 00ac DB6B     		ldr	r3, [r3, #60]
 2755 00ae 029A     		ldr	r2, [sp, #8]
 2756 00b0 9A42     		cmp	r2, r3
 2757 00b2 02D2     		bcs	.L206
 2758              		.loc 5 679 0
 2759 00b4 019B     		ldr	r3, [sp, #4]
 2760 00b6 029A     		ldr	r2, [sp, #8]
 2761 00b8 DA63     		str	r2, [r3, #60]
 2762              	.L206:
 2763              		.loc 5 681 0
 2764 00ba 019B     		ldr	r3, [sp, #4]
 2765 00bc 93F84430 		ldrb	r3, [r3, #68]	@ zero_extendqisi2
 2766 00c0 5BB2     		sxtb	r3, r3
 2767 00c2 002B     		cmp	r3, #0
 2768 00c4 2BDA     		bge	.L207
 2769              		.loc 5 683 0
 2770 00c6 019B     		ldr	r3, [sp, #4]
 2771 00c8 DB6B     		ldr	r3, [r3, #60]
 2772 00ca 002B     		cmp	r3, #0
 2773 00cc 14D0     		beq	.L208
 2774              		.loc 5 685 0
 2775 00ce 019B     		ldr	r3, [sp, #4]
 2776 00d0 0122     		movs	r2, #1
 2777 00d2 83F83420 		strb	r2, [r3, #52]
 2778              		.loc 5 686 0
 2779 00d6 019B     		ldr	r3, [sp, #4]
 2780 00d8 9A6B     		ldr	r2, [r3, #56]
 2781 00da 019B     		ldr	r3, [sp, #4]
 2782 00dc DB6B     		ldr	r3, [r3, #60]
 2783 00de 0021     		movs	r1, #0
 2784 00e0 0198     		ldr	r0, [sp, #4]
 2785 00e2 FFF7FEFF 		bl	usbPrepareTransmit
 2786              		.loc 5 687 0
 2787 00e6 FFF7FEFF 		bl	osalSysLockFromISR
 2788              		.loc 5 688 0
 2789 00ea 0021     		movs	r1, #0
 2790 00ec 0198     		ldr	r0, [sp, #4]
 2791 00ee FFF7FEFF 		bl	usbStartTransmitI
 2792              		.loc 5 689 0
 2793 00f2 FFF7FEFF 		bl	osalSysUnlockFromISR
ARM GAS  C:\Users\PCHAUT~1\AppData\Local\Temp\cc7u0cQS.s 			page 50


 2794 00f6 3DE0     		b	.L200
 2795              	.L208:
 2796              		.loc 5 694 0
 2797 00f8 019B     		ldr	r3, [sp, #4]
 2798 00fa 0322     		movs	r2, #3
 2799 00fc 83F83420 		strb	r2, [r3, #52]
 2800              		.loc 5 696 0
 2801 0100 0023     		movs	r3, #0
 2802 0102 0022     		movs	r2, #0
 2803 0104 0021     		movs	r1, #0
 2804 0106 0198     		ldr	r0, [sp, #4]
 2805 0108 FFF7FEFF 		bl	usbPrepareReceive
 2806              		.loc 5 697 0
 2807 010c FFF7FEFF 		bl	osalSysLockFromISR
 2808              		.loc 5 698 0
 2809 0110 0021     		movs	r1, #0
 2810 0112 0198     		ldr	r0, [sp, #4]
 2811 0114 FFF7FEFF 		bl	usbStartReceiveI
 2812              		.loc 5 699 0
 2813 0118 FFF7FEFF 		bl	osalSysUnlockFromISR
 2814 011c 2AE0     		b	.L200
 2815              	.L207:
 2816              		.loc 5 707 0
 2817 011e 019B     		ldr	r3, [sp, #4]
 2818 0120 DB6B     		ldr	r3, [r3, #60]
 2819 0122 002B     		cmp	r3, #0
 2820 0124 14D0     		beq	.L210
 2821              		.loc 5 709 0
 2822 0126 019B     		ldr	r3, [sp, #4]
 2823 0128 0422     		movs	r2, #4
 2824 012a 83F83420 		strb	r2, [r3, #52]
 2825              		.loc 5 710 0
 2826 012e 019B     		ldr	r3, [sp, #4]
 2827 0130 9A6B     		ldr	r2, [r3, #56]
 2828 0132 019B     		ldr	r3, [sp, #4]
 2829 0134 DB6B     		ldr	r3, [r3, #60]
 2830 0136 0021     		movs	r1, #0
 2831 0138 0198     		ldr	r0, [sp, #4]
 2832 013a FFF7FEFF 		bl	usbPrepareReceive
 2833              		.loc 5 711 0
 2834 013e FFF7FEFF 		bl	osalSysLockFromISR
 2835              		.loc 5 712 0
 2836 0142 0021     		movs	r1, #0
 2837 0144 0198     		ldr	r0, [sp, #4]
 2838 0146 FFF7FEFF 		bl	usbStartReceiveI
 2839              		.loc 5 713 0
 2840 014a FFF7FEFF 		bl	osalSysUnlockFromISR
 2841 014e 11E0     		b	.L200
 2842              	.L210:
 2843              		.loc 5 718 0
 2844 0150 019B     		ldr	r3, [sp, #4]
 2845 0152 0522     		movs	r2, #5
 2846 0154 83F83420 		strb	r2, [r3, #52]
 2847              		.loc 5 720 0
 2848 0158 0023     		movs	r3, #0
 2849 015a 0022     		movs	r2, #0
 2850 015c 0021     		movs	r1, #0
ARM GAS  C:\Users\PCHAUT~1\AppData\Local\Temp\cc7u0cQS.s 			page 51


 2851 015e 0198     		ldr	r0, [sp, #4]
 2852 0160 FFF7FEFF 		bl	usbPrepareTransmit
 2853              		.loc 5 721 0
 2854 0164 FFF7FEFF 		bl	osalSysLockFromISR
 2855              		.loc 5 722 0
 2856 0168 0021     		movs	r1, #0
 2857 016a 0198     		ldr	r0, [sp, #4]
 2858 016c FFF7FEFF 		bl	usbStartTransmitI
 2859              		.loc 5 723 0
 2860 0170 FFF7FEFF 		bl	osalSysUnlockFromISR
 2861              	.L200:
 2862              		.loc 5 729 0
 2863 0174 044B     		ldr	r3, .L212
 2864 0176 039A     		ldr	r2, [sp, #12]
 2865 0178 1B68     		ldr	r3, [r3]
 2866 017a 9A42     		cmp	r2, r3
 2867 017c 01D0     		beq	.L211
 2868 017e FFF7FEFF 		bl	__stack_chk_fail
 2869              	.L211:
 2870 0182 05B0     		add	sp, sp, #20
 2871              		.cfi_def_cfa_offset 4
 2872              		@ sp needed
 2873 0184 5DF804FB 		ldr	pc, [sp], #4
 2874              	.L213:
 2875              		.align	2
 2876              	.L212:
 2877 0188 00000000 		.word	__stack_chk_guard
 2878              		.cfi_endproc
 2879              	.LFE274:
 2880              		.size	_usb_ep0setup, .-_usb_ep0setup
 2881              		.section	.text._usb_ep0in,"ax",%progbits
 2882              		.align	1
 2883              		.p2align 4,,15
 2884              		.global	_usb_ep0in
 2885              		.syntax unified
 2886              		.thumb
 2887              		.thumb_func
 2888              		.fpu fpv4-sp-d16
 2889              		.type	_usb_ep0in, %function
 2890              	_usb_ep0in:
 2891              	.LFB275:
 2892              		.loc 5 741 0
 2893              		.cfi_startproc
 2894              		@ args = 0, pretend = 0, frame = 16
 2895              		@ frame_needed = 0, uses_anonymous_args = 0
 2896 0000 00B5     		push	{lr}
 2897              		.cfi_def_cfa_offset 4
 2898              		.cfi_offset 14, -4
 2899 0002 85B0     		sub	sp, sp, #20
 2900              		.cfi_def_cfa_offset 24
 2901 0004 0190     		str	r0, [sp, #4]
 2902 0006 0B46     		mov	r3, r1
 2903 0008 8DF80330 		strb	r3, [sp, #3]
 2904              		.loc 5 741 0
 2905 000c 464B     		ldr	r3, .L228
 2906 000e 1B68     		ldr	r3, [r3]
 2907 0010 0393     		str	r3, [sp, #12]
ARM GAS  C:\Users\PCHAUT~1\AppData\Local\Temp\cc7u0cQS.s 			page 52


 2908              		.loc 5 745 0
 2909 0012 019B     		ldr	r3, [sp, #4]
 2910 0014 93F83430 		ldrb	r3, [r3, #52]	@ zero_extendqisi2
 2911 0018 062B     		cmp	r3, #6
 2912 001a 77D8     		bhi	.L226
 2913 001c 01A2     		adr	r2, .L217
 2914 001e 52F823F0 		ldr	pc, [r2, r3, lsl #2]
 2915 0022 00BF     		.p2align 2
 2916              	.L217:
 2917 0024 D7000000 		.word	.L227+1
 2918 0028 41000000 		.word	.L218+1
 2919 002c 97000000 		.word	.L219+1
 2920 0030 D7000000 		.word	.L227+1
 2921 0034 D7000000 		.word	.L227+1
 2922 0038 BD000000 		.word	.L220+1
 2923 003c DD000000 		.word	.L221+1
 2924              		.p2align 1
 2925              	.L218:
 2926              		.loc 5 747 0
 2927 0040 019B     		ldr	r3, [sp, #4]
 2928 0042 4A33     		adds	r3, r3, #74
 2929 0044 1846     		mov	r0, r3
 2930 0046 FFF7FEFF 		bl	get_hword
 2931 004a 0346     		mov	r3, r0
 2932 004c 0293     		str	r3, [sp, #8]
 2933              		.loc 5 751 0
 2934 004e 019B     		ldr	r3, [sp, #4]
 2935 0050 DB6B     		ldr	r3, [r3, #60]
 2936 0052 029A     		ldr	r2, [sp, #8]
 2937 0054 9A42     		cmp	r2, r3
 2938 0056 1ED9     		bls	.L219
 2939              		.loc 5 752 0 discriminator 1
 2940 0058 019B     		ldr	r3, [sp, #4]
 2941 005a DB6B     		ldr	r3, [r3, #60]
 2942 005c 019A     		ldr	r2, [sp, #4]
 2943 005e D268     		ldr	r2, [r2, #12]
 2944 0060 128A     		ldrh	r2, [r2, #16]
 2945 0062 B3FBF2F1 		udiv	r1, r3, r2
 2946 0066 02FB01F2 		mul	r2, r2, r1
 2947 006a 9B1A     		subs	r3, r3, r2
 2948              		.loc 5 751 0 discriminator 1
 2949 006c 002B     		cmp	r3, #0
 2950 006e 12D1     		bne	.L219
 2951              		.loc 5 753 0
 2952 0070 0023     		movs	r3, #0
 2953 0072 0022     		movs	r2, #0
 2954 0074 0021     		movs	r1, #0
 2955 0076 0198     		ldr	r0, [sp, #4]
 2956 0078 FFF7FEFF 		bl	usbPrepareTransmit
 2957              		.loc 5 754 0
 2958 007c FFF7FEFF 		bl	osalSysLockFromISR
 2959              		.loc 5 755 0
 2960 0080 0021     		movs	r1, #0
 2961 0082 0198     		ldr	r0, [sp, #4]
 2962 0084 FFF7FEFF 		bl	usbStartTransmitI
 2963              		.loc 5 756 0
 2964 0088 FFF7FEFF 		bl	osalSysUnlockFromISR
ARM GAS  C:\Users\PCHAUT~1\AppData\Local\Temp\cc7u0cQS.s 			page 53


 2965              		.loc 5 757 0
 2966 008c 019B     		ldr	r3, [sp, #4]
 2967 008e 0222     		movs	r2, #2
 2968 0090 83F83420 		strb	r2, [r3, #52]
 2969              		.loc 5 758 0
 2970 0094 3DE0     		b	.L214
 2971              	.L219:
 2972              		.loc 5 763 0
 2973 0096 019B     		ldr	r3, [sp, #4]
 2974 0098 0322     		movs	r2, #3
 2975 009a 83F83420 		strb	r2, [r3, #52]
 2976              		.loc 5 765 0
 2977 009e 0023     		movs	r3, #0
 2978 00a0 0022     		movs	r2, #0
 2979 00a2 0021     		movs	r1, #0
 2980 00a4 0198     		ldr	r0, [sp, #4]
 2981 00a6 FFF7FEFF 		bl	usbPrepareReceive
 2982              		.loc 5 766 0
 2983 00aa FFF7FEFF 		bl	osalSysLockFromISR
 2984              		.loc 5 767 0
 2985 00ae 0021     		movs	r1, #0
 2986 00b0 0198     		ldr	r0, [sp, #4]
 2987 00b2 FFF7FEFF 		bl	usbStartReceiveI
 2988              		.loc 5 768 0
 2989 00b6 FFF7FEFF 		bl	osalSysUnlockFromISR
 2990              		.loc 5 772 0
 2991 00ba 2AE0     		b	.L214
 2992              	.L220:
 2993              		.loc 5 775 0
 2994 00bc 019B     		ldr	r3, [sp, #4]
 2995 00be 1B6C     		ldr	r3, [r3, #64]
 2996 00c0 002B     		cmp	r3, #0
 2997 00c2 03D0     		beq	.L223
 2998              		.loc 5 776 0
 2999 00c4 019B     		ldr	r3, [sp, #4]
 3000 00c6 1B6C     		ldr	r3, [r3, #64]
 3001 00c8 0198     		ldr	r0, [sp, #4]
 3002 00ca 9847     		blx	r3
 3003              	.LVL5:
 3004              	.L223:
 3005              		.loc 5 778 0
 3006 00cc 019B     		ldr	r3, [sp, #4]
 3007 00ce 0022     		movs	r2, #0
 3008 00d0 83F83420 		strb	r2, [r3, #52]
 3009              		.loc 5 779 0
 3010 00d4 1DE0     		b	.L214
 3011              	.L227:
 3012              		.loc 5 784 0 discriminator 2
 3013 00d6 1548     		ldr	r0, .L228+4
 3014 00d8 FFF7FEFF 		bl	chSysHalt
 3015              	.L221:
 3016              		.loc 5 790 0
 3017 00dc 0021     		movs	r1, #0
 3018 00de 0198     		ldr	r0, [sp, #4]
 3019 00e0 FFF7FEFF 		bl	usb_lld_stall_in
 3020              		.loc 5 791 0
 3021 00e4 0021     		movs	r1, #0
ARM GAS  C:\Users\PCHAUT~1\AppData\Local\Temp\cc7u0cQS.s 			page 54


 3022 00e6 0198     		ldr	r0, [sp, #4]
 3023 00e8 FFF7FEFF 		bl	usb_lld_stall_out
 3024              		.loc 5 792 0
 3025 00ec 019B     		ldr	r3, [sp, #4]
 3026 00ee 5B68     		ldr	r3, [r3, #4]
 3027 00f0 1B68     		ldr	r3, [r3]
 3028 00f2 002B     		cmp	r3, #0
 3029 00f4 05D0     		beq	.L224
 3030              		.loc 5 792 0 is_stmt 0 discriminator 1
 3031 00f6 019B     		ldr	r3, [sp, #4]
 3032 00f8 5B68     		ldr	r3, [r3, #4]
 3033 00fa 1B68     		ldr	r3, [r3]
 3034 00fc 0521     		movs	r1, #5
 3035 00fe 0198     		ldr	r0, [sp, #4]
 3036 0100 9847     		blx	r3
 3037              	.LVL6:
 3038              	.L224:
 3039              		.loc 5 793 0 is_stmt 1
 3040 0102 019B     		ldr	r3, [sp, #4]
 3041 0104 0622     		movs	r2, #6
 3042 0106 83F83420 		strb	r2, [r3, #52]
 3043              		.loc 5 794 0
 3044 010a 02E0     		b	.L214
 3045              	.L226:
 3046              		.loc 5 796 0 discriminator 2
 3047 010c 0748     		ldr	r0, .L228+4
 3048 010e FFF7FEFF 		bl	chSysHalt
 3049              	.L214:
 3050              		.loc 5 798 0
 3051 0112 054B     		ldr	r3, .L228
 3052 0114 039A     		ldr	r2, [sp, #12]
 3053 0116 1B68     		ldr	r3, [r3]
 3054 0118 9A42     		cmp	r2, r3
 3055 011a 01D0     		beq	.L225
 3056 011c FFF7FEFF 		bl	__stack_chk_fail
 3057              	.L225:
 3058 0120 05B0     		add	sp, sp, #20
 3059              		.cfi_def_cfa_offset 4
 3060              		@ sp needed
 3061 0122 5DF804FB 		ldr	pc, [sp], #4
 3062              	.L229:
 3063 0126 00BF     		.align	2
 3064              	.L228:
 3065 0128 00000000 		.word	__stack_chk_guard
 3066 012c 00000000 		.word	__func__.10387
 3067              		.cfi_endproc
 3068              	.LFE275:
 3069              		.size	_usb_ep0in, .-_usb_ep0in
 3070              		.section	.text._usb_ep0out,"ax",%progbits
 3071              		.align	1
 3072              		.p2align 4,,15
 3073              		.global	_usb_ep0out
 3074              		.syntax unified
 3075              		.thumb
 3076              		.thumb_func
 3077              		.fpu fpv4-sp-d16
 3078              		.type	_usb_ep0out, %function
ARM GAS  C:\Users\PCHAUT~1\AppData\Local\Temp\cc7u0cQS.s 			page 55


 3079              	_usb_ep0out:
 3080              	.LFB276:
 3081              		.loc 5 810 0
 3082              		.cfi_startproc
 3083              		@ args = 0, pretend = 0, frame = 16
 3084              		@ frame_needed = 0, uses_anonymous_args = 0
 3085 0000 00B5     		push	{lr}
 3086              		.cfi_def_cfa_offset 4
 3087              		.cfi_offset 14, -4
 3088 0002 85B0     		sub	sp, sp, #20
 3089              		.cfi_def_cfa_offset 24
 3090 0004 0190     		str	r0, [sp, #4]
 3091 0006 0B46     		mov	r3, r1
 3092 0008 8DF80330 		strb	r3, [sp, #3]
 3093              		.loc 5 810 0
 3094 000c 344B     		ldr	r3, .L245
 3095 000e 1B68     		ldr	r3, [r3]
 3096 0010 0393     		str	r3, [sp, #12]
 3097              		.loc 5 813 0
 3098 0012 019B     		ldr	r3, [sp, #4]
 3099 0014 93F83430 		ldrb	r3, [r3, #52]	@ zero_extendqisi2
 3100 0018 062B     		cmp	r3, #6
 3101 001a 52D8     		bhi	.L242
 3102 001c 01A2     		adr	r2, .L233
 3103 001e 52F823F0 		ldr	pc, [r2, r3, lsl #2]
 3104 0022 00BF     		.p2align 2
 3105              	.L233:
 3106 0024 8D000000 		.word	.L243+1
 3107 0028 8D000000 		.word	.L243+1
 3108 002c 8D000000 		.word	.L243+1
 3109 0030 67000000 		.word	.L234+1
 3110 0034 41000000 		.word	.L235+1
 3111 0038 8D000000 		.word	.L243+1
 3112 003c 93000000 		.word	.L236+1
 3113              		.p2align 1
 3114              	.L235:
 3115              		.loc 5 816 0
 3116 0040 019B     		ldr	r3, [sp, #4]
 3117 0042 0522     		movs	r2, #5
 3118 0044 83F83420 		strb	r2, [r3, #52]
 3119              		.loc 5 818 0
 3120 0048 0023     		movs	r3, #0
 3121 004a 0022     		movs	r2, #0
 3122 004c 0021     		movs	r1, #0
 3123 004e 0198     		ldr	r0, [sp, #4]
 3124 0050 FFF7FEFF 		bl	usbPrepareTransmit
 3125              		.loc 5 819 0
 3126 0054 FFF7FEFF 		bl	osalSysLockFromISR
 3127              		.loc 5 820 0
 3128 0058 0021     		movs	r1, #0
 3129 005a 0198     		ldr	r0, [sp, #4]
 3130 005c FFF7FEFF 		bl	usbStartTransmitI
 3131              		.loc 5 821 0
 3132 0060 FFF7FEFF 		bl	osalSysUnlockFromISR
 3133              		.loc 5 825 0
 3134 0064 32E0     		b	.L230
 3135              	.L234:
ARM GAS  C:\Users\PCHAUT~1\AppData\Local\Temp\cc7u0cQS.s 			page 56


 3136              		.loc 5 830 0
 3137 0066 019B     		ldr	r3, [sp, #4]
 3138 0068 DB68     		ldr	r3, [r3, #12]
 3139 006a 9B69     		ldr	r3, [r3, #24]
 3140 006c 9B68     		ldr	r3, [r3, #8]
 3141 006e 002B     		cmp	r3, #0
 3142 0070 2BD1     		bne	.L244
 3143              		.loc 5 834 0
 3144 0072 019B     		ldr	r3, [sp, #4]
 3145 0074 1B6C     		ldr	r3, [r3, #64]
 3146 0076 002B     		cmp	r3, #0
 3147 0078 03D0     		beq	.L239
 3148              		.loc 5 835 0
 3149 007a 019B     		ldr	r3, [sp, #4]
 3150 007c 1B6C     		ldr	r3, [r3, #64]
 3151 007e 0198     		ldr	r0, [sp, #4]
 3152 0080 9847     		blx	r3
 3153              	.LVL7:
 3154              	.L239:
 3155              		.loc 5 837 0
 3156 0082 019B     		ldr	r3, [sp, #4]
 3157 0084 0022     		movs	r2, #0
 3158 0086 83F83420 		strb	r2, [r3, #52]
 3159              		.loc 5 838 0
 3160 008a 1FE0     		b	.L230
 3161              	.L243:
 3162              		.loc 5 844 0 discriminator 2
 3163 008c 1548     		ldr	r0, .L245+4
 3164 008e FFF7FEFF 		bl	chSysHalt
 3165              	.L236:
 3166              		.loc 5 850 0
 3167 0092 0021     		movs	r1, #0
 3168 0094 0198     		ldr	r0, [sp, #4]
 3169 0096 FFF7FEFF 		bl	usb_lld_stall_in
 3170              		.loc 5 851 0
 3171 009a 0021     		movs	r1, #0
 3172 009c 0198     		ldr	r0, [sp, #4]
 3173 009e FFF7FEFF 		bl	usb_lld_stall_out
 3174              		.loc 5 852 0
 3175 00a2 019B     		ldr	r3, [sp, #4]
 3176 00a4 5B68     		ldr	r3, [r3, #4]
 3177 00a6 1B68     		ldr	r3, [r3]
 3178 00a8 002B     		cmp	r3, #0
 3179 00aa 05D0     		beq	.L240
 3180              		.loc 5 852 0 is_stmt 0 discriminator 1
 3181 00ac 019B     		ldr	r3, [sp, #4]
 3182 00ae 5B68     		ldr	r3, [r3, #4]
 3183 00b0 1B68     		ldr	r3, [r3]
 3184 00b2 0521     		movs	r1, #5
 3185 00b4 0198     		ldr	r0, [sp, #4]
 3186 00b6 9847     		blx	r3
 3187              	.LVL8:
 3188              	.L240:
 3189              		.loc 5 853 0 is_stmt 1
 3190 00b8 019B     		ldr	r3, [sp, #4]
 3191 00ba 0622     		movs	r2, #6
 3192 00bc 83F83420 		strb	r2, [r3, #52]
ARM GAS  C:\Users\PCHAUT~1\AppData\Local\Temp\cc7u0cQS.s 			page 57


 3193              		.loc 5 854 0
 3194 00c0 04E0     		b	.L230
 3195              	.L242:
 3196              		.loc 5 856 0 discriminator 2
 3197 00c2 0848     		ldr	r0, .L245+4
 3198 00c4 FFF7FEFF 		bl	chSysHalt
 3199 00c8 00E0     		b	.L230
 3200              	.L244:
 3201              		.loc 5 831 0
 3202 00ca 00BF     		nop
 3203              	.L230:
 3204              		.loc 5 858 0
 3205 00cc 044B     		ldr	r3, .L245
 3206 00ce 039A     		ldr	r2, [sp, #12]
 3207 00d0 1B68     		ldr	r3, [r3]
 3208 00d2 9A42     		cmp	r2, r3
 3209 00d4 01D0     		beq	.L241
 3210 00d6 FFF7FEFF 		bl	__stack_chk_fail
 3211              	.L241:
 3212 00da 05B0     		add	sp, sp, #20
 3213              		.cfi_def_cfa_offset 4
 3214              		@ sp needed
 3215 00dc 5DF804FB 		ldr	pc, [sp], #4
 3216              	.L246:
 3217              		.align	2
 3218              	.L245:
 3219 00e0 00000000 		.word	__stack_chk_guard
 3220 00e4 00000000 		.word	__func__.10401
 3221              		.cfi_endproc
 3222              	.LFE276:
 3223              		.size	_usb_ep0out, .-_usb_ep0out
 3224              		.section	.rodata.__func__.10294,"a",%progbits
 3225              		.align	2
 3226              		.type	__func__.10294, %object
 3227              		.size	__func__.10294, 9
 3228              	__func__.10294:
 3229 0000 75736253 		.ascii	"usbStart\000"
 3229      74617274 
 3229      00
 3230              		.section	.rodata.__func__.7554,"a",%progbits
 3231              		.align	2
 3232              		.type	__func__.7554, %object
 3233              		.size	__func__.7554, 12
 3234              	__func__.7554:
 3235 0000 63685379 		.ascii	"chSysUnlock\000"
 3235      73556E6C 
 3235      6F636B00 
 3236              		.section	.rodata.__func__.10301,"a",%progbits
 3237              		.align	2
 3238              		.type	__func__.10301, %object
 3239              		.size	__func__.10301, 8
 3240              	__func__.10301:
 3241 0000 75736253 		.ascii	"usbStop\000"
 3241      746F7000 
 3242              		.section	.rodata.__func__.10307,"a",%progbits
 3243              		.align	2
 3244              		.type	__func__.10307, %object
ARM GAS  C:\Users\PCHAUT~1\AppData\Local\Temp\cc7u0cQS.s 			page 58


 3245              		.size	__func__.10307, 17
 3246              	__func__.10307:
 3247 0000 75736249 		.ascii	"usbInitEndpointI\000"
 3247      6E697445 
 3247      6E64706F 
 3247      696E7449 
 3247      00
 3248              		.section	.rodata.__func__.10312,"a",%progbits
 3249              		.align	2
 3250              		.type	__func__.10312, %object
 3251              		.size	__func__.10312, 21
 3252              	__func__.10312:
 3253 0000 75736244 		.ascii	"usbDisableEndpointsI\000"
 3253      69736162 
 3253      6C65456E 
 3253      64706F69 
 3253      6E747349 
 3254              		.section	.rodata.__func__.10348,"a",%progbits
 3255              		.align	2
 3256              		.type	__func__.10348, %object
 3257              		.size	__func__.10348, 17
 3258              	__func__.10348:
 3259 0000 75736253 		.ascii	"usbStartReceiveI\000"
 3259      74617274 
 3259      52656365 
 3259      69766549 
 3259      00
 3260              		.section	.rodata.__func__.10353,"a",%progbits
 3261              		.align	2
 3262              		.type	__func__.10353, %object
 3263              		.size	__func__.10353, 18
 3264              	__func__.10353:
 3265 0000 75736253 		.ascii	"usbStartTransmitI\000"
 3265      74617274 
 3265      5472616E 
 3265      736D6974 
 3265      4900
 3266              		.section	.rodata.__func__.10358,"a",%progbits
 3267              		.align	2
 3268              		.type	__func__.10358, %object
 3269              		.size	__func__.10358, 17
 3270              	__func__.10358:
 3271 0000 75736253 		.ascii	"usbStallReceiveI\000"
 3271      74616C6C 
 3271      52656365 
 3271      69766549 
 3271      00
 3272              		.section	.rodata.__func__.10363,"a",%progbits
 3273              		.align	2
 3274              		.type	__func__.10363, %object
 3275              		.size	__func__.10363, 18
 3276              	__func__.10363:
 3277 0000 75736253 		.ascii	"usbStallTransmitI\000"
 3277      74616C6C 
 3277      5472616E 
 3277      736D6974 
 3277      4900
ARM GAS  C:\Users\PCHAUT~1\AppData\Local\Temp\cc7u0cQS.s 			page 59


 3278              		.section	.rodata.__func__.10387,"a",%progbits
 3279              		.align	2
 3280              		.type	__func__.10387, %object
 3281              		.size	__func__.10387, 11
 3282              	__func__.10387:
 3283 0000 5F757362 		.ascii	"_usb_ep0in\000"
 3283      5F657030 
 3283      696E00
 3284              		.section	.rodata.__func__.10401,"a",%progbits
 3285              		.align	2
 3286              		.type	__func__.10401, %object
 3287              		.size	__func__.10401, 12
 3288              	__func__.10401:
 3289 0000 5F757362 		.ascii	"_usb_ep0out\000"
 3289      5F657030 
 3289      6F757400 
 3290              		.text
 3291              	.Letext0:
 3292              		.file 6 "c:\\users\\pchautems\\documents\\robotiquetp\\eclipse_e-puck2\\tools\\gcc-arm-none-eabi-7
 3293              		.file 7 "c:\\users\\pchautems\\documents\\robotiquetp\\eclipse_e-puck2\\tools\\gcc-arm-none-eabi-7
 3294              		.file 8 "c:\\users\\pchautems\\documents\\robotiquetp\\eclipse_e-puck2\\tools\\gcc-arm-none-eabi-7
 3295              		.file 9 "c:\\users\\pchautems\\documents\\robotiquetp\\eclipse_e-puck2\\tools\\gcc-arm-none-eabi-7
 3296              		.file 10 "c:\\users\\pchautems\\documents\\robotiquetp\\eclipse_e-puck2\\tools\\gcc-arm-none-eabi-
 3297              		.file 11 "c:\\users\\pchautems\\documents\\robotiquetp\\eclipse_e-puck2\\tools\\gcc-arm-none-eabi-
 3298              		.file 12 "../lib/e-puck2_main-processor/ChibiOS//os/rt/ports/ARMCMx/compilers/GCC/chtypes.h"
 3299              		.file 13 "../lib/e-puck2_main-processor/ChibiOS//os/rt/include/chsystypes.h"
 3300              		.file 14 "../lib/e-puck2_main-processor/ChibiOS//os/rt/include/chschd.h"
 3301              		.file 15 "../lib/e-puck2_main-processor/ChibiOS//os/ext/CMSIS/include/core_cm4.h"
 3302              		.file 16 "../lib/e-puck2_main-processor/ChibiOS//os/ext/CMSIS/ST/system_stm32f4xx.h"
 3303              		.file 17 "../lib/e-puck2_main-processor/ChibiOS//os/ext/CMSIS/ST/stm32f407xx.h"
 3304              		.file 18 "../lib/e-puck2_main-processor/ChibiOS//os/rt/ports/ARMCMx/chcore.h"
 3305              		.file 19 "../lib/e-puck2_main-processor/ChibiOS//os/rt/include/chdebug.h"
 3306              		.file 20 "../lib/e-puck2_main-processor/ChibiOS//os/rt/include/chtm.h"
 3307              		.file 21 "../lib/e-puck2_main-processor/ChibiOS//os/rt/include/chstats.h"
 3308              		.file 22 "../lib/e-puck2_main-processor/ChibiOS//os/rt/include/chsem.h"
 3309              		.file 23 "../lib/e-puck2_main-processor/ChibiOS//os/rt/include/chmtx.h"
 3310              		.file 24 "../lib/e-puck2_main-processor/ChibiOS//os/rt/include/chregistry.h"
 3311              		.file 25 "../lib/e-puck2_main-processor/ChibiOS//os/rt/include/chevents.h"
 3312              		.file 26 "../lib/e-puck2_main-processor/ChibiOS//os/rt/include/chqueues.h"
 3313              		.file 27 "../lib/e-puck2_main-processor/ChibiOS//os/hal/ports/STM32/STM32F4xx/stm32_dma.h"
 3314              		.file 28 "../lib/e-puck2_main-processor/ChibiOS//os/hal/include/hal_ioblock.h"
 3315              		.file 29 "../lib/e-puck2_main-processor/ChibiOS//os/hal/ports/STM32/LLD/GPIOv2/pal_lld.h"
 3316              		.file 30 "../lib/e-puck2_main-processor/ChibiOS//os/hal/include/adc.h"
 3317              		.file 31 "../lib/e-puck2_main-processor/ChibiOS//os/hal/ports/STM32/STM32F4xx/adc_lld.h"
 3318              		.file 32 "../lib/e-puck2_main-processor/ChibiOS//os/hal/include/can.h"
 3319              		.file 33 "../lib/e-puck2_main-processor/ChibiOS//os/hal/ports/STM32/LLD/can_lld.h"
 3320              		.file 34 "../lib/e-puck2_main-processor/ChibiOS//os/hal/include/dac.h"
 3321              		.file 35 "../lib/e-puck2_main-processor/ChibiOS//os/hal/ports/STM32/LLD/DACv1/dac_lld.h"
 3322              		.file 36 "../lib/e-puck2_main-processor/ChibiOS//os/hal/include/ext.h"
 3323              		.file 37 "../lib/e-puck2_main-processor/ChibiOS//os/hal/ports/STM32/LLD/ext_lld.h"
 3324              		.file 38 "../lib/e-puck2_main-processor/ChibiOS//os/hal/include/gpt.h"
 3325              		.file 39 "../lib/e-puck2_main-processor/ChibiOS//os/hal/ports/STM32/LLD/TIMv1/gpt_lld.h"
 3326              		.file 40 "../lib/e-puck2_main-processor/ChibiOS//os/hal/ports/STM32/LLD/TIMv1/stm32_tim.h"
 3327              		.file 41 "../lib/e-puck2_main-processor/ChibiOS//os/hal/include/i2c.h"
 3328              		.file 42 "../lib/e-puck2_main-processor/ChibiOS//os/hal/ports/STM32/LLD/I2Cv1/i2c_lld.h"
 3329              		.file 43 "../lib/e-puck2_main-processor/ChibiOS//os/hal/include/i2s.h"
 3330              		.file 44 "../lib/e-puck2_main-processor/ChibiOS//os/hal/ports/STM32/LLD/SPIv1/i2s_lld.h"
ARM GAS  C:\Users\PCHAUT~1\AppData\Local\Temp\cc7u0cQS.s 			page 60


 3331              		.file 45 "../lib/e-puck2_main-processor/ChibiOS//os/hal/include/pwm.h"
 3332              		.file 46 "../lib/e-puck2_main-processor/ChibiOS//os/hal/ports/STM32/LLD/TIMv1/pwm_lld.h"
 3333              		.file 47 "../lib/e-puck2_main-processor/ChibiOS//os/hal/include/serial.h"
 3334              		.file 48 "../lib/e-puck2_main-processor/ChibiOS//os/hal/ports/STM32/LLD/USARTv1/serial_lld.h"
 3335              		.file 49 "../lib/e-puck2_main-processor/ChibiOS//os/hal/include/sdc.h"
 3336              		.file 50 "../lib/e-puck2_main-processor/ChibiOS//os/hal/ports/STM32/LLD/sdc_lld.h"
 3337              		.file 51 "../lib/e-puck2_main-processor/ChibiOS//os/hal/include/spi.h"
 3338              		.file 52 "../lib/e-puck2_main-processor/ChibiOS//os/hal/ports/STM32/LLD/SPIv1/spi_lld.h"
 3339              		.file 53 "../lib/e-puck2_main-processor/ChibiOS//os/hal/include/usb.h"
 3340              		.file 54 "../lib/e-puck2_main-processor/ChibiOS//os/hal/ports/STM32/LLD/OTGv1/usb_lld.h"
 3341              		.file 55 "../lib/e-puck2_main-processor/ChibiOS//os/hal/ports/STM32/LLD/OTGv1/stm32_otg.h"
 3342              		.section	.debug_info,"",%progbits
 3343              	.Ldebug_info0:
 3344 0000 AD440000 		.4byte	0x44ad
 3345 0004 0400     		.2byte	0x4
 3346 0006 00000000 		.4byte	.Ldebug_abbrev0
 3347 000a 04       		.byte	0x4
 3348 000b 01       		.uleb128 0x1
 3349 000c 5D080000 		.4byte	.LASF859
 3350 0010 0C       		.byte	0xc
 3351 0011 8A180000 		.4byte	.LASF860
 3352 0015 9E000000 		.4byte	.LASF861
 3353 0019 00000000 		.4byte	.Ldebug_ranges0+0
 3354 001d 00000000 		.4byte	0
 3355 0021 00000000 		.4byte	.Ldebug_line0
 3356 0025 02       		.uleb128 0x2
 3357 0026 04       		.byte	0x4
 3358 0027 05       		.byte	0x5
 3359 0028 696E7400 		.ascii	"int\000"
 3360 002c 03       		.uleb128 0x3
 3361 002d 720D0000 		.4byte	.LASF4
 3362 0031 06       		.byte	0x6
 3363 0032 D8       		.byte	0xd8
 3364 0033 37000000 		.4byte	0x37
 3365 0037 04       		.uleb128 0x4
 3366 0038 04       		.byte	0x4
 3367 0039 07       		.byte	0x7
 3368 003a 12220000 		.4byte	.LASF0
 3369 003e 04       		.uleb128 0x4
 3370 003f 08       		.byte	0x8
 3371 0040 05       		.byte	0x5
 3372 0041 2C200000 		.4byte	.LASF1
 3373 0045 04       		.uleb128 0x4
 3374 0046 08       		.byte	0x8
 3375 0047 04       		.byte	0x4
 3376 0048 B4170000 		.4byte	.LASF2
 3377 004c 04       		.uleb128 0x4
 3378 004d 01       		.byte	0x1
 3379 004e 06       		.byte	0x6
 3380 004f 2C140000 		.4byte	.LASF3
 3381 0053 03       		.uleb128 0x3
 3382 0054 14010000 		.4byte	.LASF5
 3383 0058 07       		.byte	0x7
 3384 0059 2B       		.byte	0x2b
 3385 005a 5E000000 		.4byte	0x5e
 3386 005e 04       		.uleb128 0x4
 3387 005f 01       		.byte	0x1
ARM GAS  C:\Users\PCHAUT~1\AppData\Local\Temp\cc7u0cQS.s 			page 61


 3388 0060 08       		.byte	0x8
 3389 0061 050A0000 		.4byte	.LASF6
 3390 0065 03       		.uleb128 0x3
 3391 0066 19070000 		.4byte	.LASF7
 3392 006a 07       		.byte	0x7
 3393 006b 37       		.byte	0x37
 3394 006c 70000000 		.4byte	0x70
 3395 0070 04       		.uleb128 0x4
 3396 0071 02       		.byte	0x2
 3397 0072 05       		.byte	0x5
 3398 0073 66220000 		.4byte	.LASF8
 3399 0077 03       		.uleb128 0x3
 3400 0078 23070000 		.4byte	.LASF9
 3401 007c 07       		.byte	0x7
 3402 007d 39       		.byte	0x39
 3403 007e 82000000 		.4byte	0x82
 3404 0082 04       		.uleb128 0x4
 3405 0083 02       		.byte	0x2
 3406 0084 07       		.byte	0x7
 3407 0085 11140000 		.4byte	.LASF10
 3408 0089 03       		.uleb128 0x3
 3409 008a 1F1C0000 		.4byte	.LASF11
 3410 008e 07       		.byte	0x7
 3411 008f 4D       		.byte	0x4d
 3412 0090 94000000 		.4byte	0x94
 3413 0094 04       		.uleb128 0x4
 3414 0095 04       		.byte	0x4
 3415 0096 05       		.byte	0x5
 3416 0097 83160000 		.4byte	.LASF12
 3417 009b 03       		.uleb128 0x3
 3418 009c 291C0000 		.4byte	.LASF13
 3419 00a0 07       		.byte	0x7
 3420 00a1 4F       		.byte	0x4f
 3421 00a2 A6000000 		.4byte	0xa6
 3422 00a6 04       		.uleb128 0x4
 3423 00a7 04       		.byte	0x4
 3424 00a8 07       		.byte	0x7
 3425 00a9 FD170000 		.4byte	.LASF14
 3426 00ad 03       		.uleb128 0x3
 3427 00ae 8B100000 		.4byte	.LASF15
 3428 00b2 07       		.byte	0x7
 3429 00b3 69       		.byte	0x69
 3430 00b4 B8000000 		.4byte	0xb8
 3431 00b8 04       		.uleb128 0x4
 3432 00b9 08       		.byte	0x8
 3433 00ba 07       		.byte	0x7
 3434 00bb E01D0000 		.4byte	.LASF16
 3435 00bf 03       		.uleb128 0x3
 3436 00c0 F8060000 		.4byte	.LASF17
 3437 00c4 08       		.byte	0x8
 3438 00c5 22       		.byte	0x22
 3439 00c6 CA000000 		.4byte	0xca
 3440 00ca 05       		.uleb128 0x5
 3441 00cb 04       		.byte	0x4
 3442 00cc D0000000 		.4byte	0xd0
 3443 00d0 06       		.uleb128 0x6
 3444 00d1 3A050000 		.4byte	.LASF124
ARM GAS  C:\Users\PCHAUT~1\AppData\Local\Temp\cc7u0cQS.s 			page 62


 3445 00d5 03       		.uleb128 0x3
 3446 00d6 340D0000 		.4byte	.LASF18
 3447 00da 09       		.byte	0x9
 3448 00db 2C       		.byte	0x2c
 3449 00dc 94000000 		.4byte	0x94
 3450 00e0 03       		.uleb128 0x3
 3451 00e1 4C1B0000 		.4byte	.LASF19
 3452 00e5 09       		.byte	0x9
 3453 00e6 72       		.byte	0x72
 3454 00e7 94000000 		.4byte	0x94
 3455 00eb 07       		.uleb128 0x7
 3456 00ec 320F0000 		.4byte	.LASF20
 3457 00f0 06       		.byte	0x6
 3458 00f1 6501     		.2byte	0x165
 3459 00f3 37000000 		.4byte	0x37
 3460 00f7 08       		.uleb128 0x8
 3461 00f8 04       		.byte	0x4
 3462 00f9 09       		.byte	0x9
 3463 00fa A6       		.byte	0xa6
 3464 00fb 16010000 		.4byte	0x116
 3465 00ff 09       		.uleb128 0x9
 3466 0100 EC150000 		.4byte	.LASF21
 3467 0104 09       		.byte	0x9
 3468 0105 A8       		.byte	0xa8
 3469 0106 EB000000 		.4byte	0xeb
 3470 010a 09       		.uleb128 0x9
 3471 010b E00E0000 		.4byte	.LASF22
 3472 010f 09       		.byte	0x9
 3473 0110 A9       		.byte	0xa9
 3474 0111 16010000 		.4byte	0x116
 3475 0115 00       		.byte	0
 3476 0116 0A       		.uleb128 0xa
 3477 0117 5E000000 		.4byte	0x5e
 3478 011b 26010000 		.4byte	0x126
 3479 011f 0B       		.uleb128 0xb
 3480 0120 37000000 		.4byte	0x37
 3481 0124 03       		.byte	0x3
 3482 0125 00       		.byte	0
 3483 0126 0C       		.uleb128 0xc
 3484 0127 08       		.byte	0x8
 3485 0128 09       		.byte	0x9
 3486 0129 A3       		.byte	0xa3
 3487 012a 47010000 		.4byte	0x147
 3488 012e 0D       		.uleb128 0xd
 3489 012f 910D0000 		.4byte	.LASF23
 3490 0133 09       		.byte	0x9
 3491 0134 A5       		.byte	0xa5
 3492 0135 25000000 		.4byte	0x25
 3493 0139 00       		.byte	0
 3494 013a 0D       		.uleb128 0xd
 3495 013b 571C0000 		.4byte	.LASF24
 3496 013f 09       		.byte	0x9
 3497 0140 AA       		.byte	0xaa
 3498 0141 F7000000 		.4byte	0xf7
 3499 0145 04       		.byte	0x4
 3500 0146 00       		.byte	0
 3501 0147 03       		.uleb128 0x3
ARM GAS  C:\Users\PCHAUT~1\AppData\Local\Temp\cc7u0cQS.s 			page 63


 3502 0148 C91B0000 		.4byte	.LASF25
 3503 014c 09       		.byte	0x9
 3504 014d AB       		.byte	0xab
 3505 014e 26010000 		.4byte	0x126
 3506 0152 03       		.uleb128 0x3
 3507 0153 991F0000 		.4byte	.LASF26
 3508 0157 09       		.byte	0x9
 3509 0158 AF       		.byte	0xaf
 3510 0159 BF000000 		.4byte	0xbf
 3511 015d 0E       		.uleb128 0xe
 3512 015e 04       		.byte	0x4
 3513 015f 05       		.uleb128 0x5
 3514 0160 04       		.byte	0x4
 3515 0161 65010000 		.4byte	0x165
 3516 0165 04       		.uleb128 0x4
 3517 0166 01       		.byte	0x1
 3518 0167 08       		.byte	0x8
 3519 0168 6C1E0000 		.4byte	.LASF27
 3520 016c 0F       		.uleb128 0xf
 3521 016d 65010000 		.4byte	0x165
 3522 0171 03       		.uleb128 0x3
 3523 0172 DB120000 		.4byte	.LASF28
 3524 0176 0A       		.byte	0xa
 3525 0177 16       		.byte	0x16
 3526 0178 A6000000 		.4byte	0xa6
 3527 017c 10       		.uleb128 0x10
 3528 017d 52190000 		.4byte	.LASF33
 3529 0181 18       		.byte	0x18
 3530 0182 0A       		.byte	0xa
 3531 0183 2F       		.byte	0x2f
 3532 0184 CF010000 		.4byte	0x1cf
 3533 0188 0D       		.uleb128 0xd
 3534 0189 96100000 		.4byte	.LASF29
 3535 018d 0A       		.byte	0xa
 3536 018e 31       		.byte	0x31
 3537 018f CF010000 		.4byte	0x1cf
 3538 0193 00       		.byte	0
 3539 0194 11       		.uleb128 0x11
 3540 0195 5F6B00   		.ascii	"_k\000"
 3541 0198 0A       		.byte	0xa
 3542 0199 32       		.byte	0x32
 3543 019a 25000000 		.4byte	0x25
 3544 019e 04       		.byte	0x4
 3545 019f 0D       		.uleb128 0xd
 3546 01a0 91170000 		.4byte	.LASF30
 3547 01a4 0A       		.byte	0xa
 3548 01a5 32       		.byte	0x32
 3549 01a6 25000000 		.4byte	0x25
 3550 01aa 08       		.byte	0x8
 3551 01ab 0D       		.uleb128 0xd
 3552 01ac B5210000 		.4byte	.LASF31
 3553 01b0 0A       		.byte	0xa
 3554 01b1 32       		.byte	0x32
 3555 01b2 25000000 		.4byte	0x25
 3556 01b6 0C       		.byte	0xc
 3557 01b7 0D       		.uleb128 0xd
 3558 01b8 7A0A0000 		.4byte	.LASF32
ARM GAS  C:\Users\PCHAUT~1\AppData\Local\Temp\cc7u0cQS.s 			page 64


 3559 01bc 0A       		.byte	0xa
 3560 01bd 32       		.byte	0x32
 3561 01be 25000000 		.4byte	0x25
 3562 01c2 10       		.byte	0x10
 3563 01c3 11       		.uleb128 0x11
 3564 01c4 5F7800   		.ascii	"_x\000"
 3565 01c7 0A       		.byte	0xa
 3566 01c8 33       		.byte	0x33
 3567 01c9 D5010000 		.4byte	0x1d5
 3568 01cd 14       		.byte	0x14
 3569 01ce 00       		.byte	0
 3570 01cf 05       		.uleb128 0x5
 3571 01d0 04       		.byte	0x4
 3572 01d1 7C010000 		.4byte	0x17c
 3573 01d5 0A       		.uleb128 0xa
 3574 01d6 71010000 		.4byte	0x171
 3575 01da E5010000 		.4byte	0x1e5
 3576 01de 0B       		.uleb128 0xb
 3577 01df 37000000 		.4byte	0x37
 3578 01e3 00       		.byte	0
 3579 01e4 00       		.byte	0
 3580 01e5 10       		.uleb128 0x10
 3581 01e6 51060000 		.4byte	.LASF34
 3582 01ea 24       		.byte	0x24
 3583 01eb 0A       		.byte	0xa
 3584 01ec 37       		.byte	0x37
 3585 01ed 5E020000 		.4byte	0x25e
 3586 01f1 0D       		.uleb128 0xd
 3587 01f2 CE110000 		.4byte	.LASF35
 3588 01f6 0A       		.byte	0xa
 3589 01f7 39       		.byte	0x39
 3590 01f8 25000000 		.4byte	0x25
 3591 01fc 00       		.byte	0
 3592 01fd 0D       		.uleb128 0xd
 3593 01fe C4210000 		.4byte	.LASF36
 3594 0202 0A       		.byte	0xa
 3595 0203 3A       		.byte	0x3a
 3596 0204 25000000 		.4byte	0x25
 3597 0208 04       		.byte	0x4
 3598 0209 0D       		.uleb128 0xd
 3599 020a 010F0000 		.4byte	.LASF37
 3600 020e 0A       		.byte	0xa
 3601 020f 3B       		.byte	0x3b
 3602 0210 25000000 		.4byte	0x25
 3603 0214 08       		.byte	0x8
 3604 0215 0D       		.uleb128 0xd
 3605 0216 D20F0000 		.4byte	.LASF38
 3606 021a 0A       		.byte	0xa
 3607 021b 3C       		.byte	0x3c
 3608 021c 25000000 		.4byte	0x25
 3609 0220 0C       		.byte	0xc
 3610 0221 0D       		.uleb128 0xd
 3611 0222 AA010000 		.4byte	.LASF39
 3612 0226 0A       		.byte	0xa
 3613 0227 3D       		.byte	0x3d
 3614 0228 25000000 		.4byte	0x25
 3615 022c 10       		.byte	0x10
ARM GAS  C:\Users\PCHAUT~1\AppData\Local\Temp\cc7u0cQS.s 			page 65


 3616 022d 0D       		.uleb128 0xd
 3617 022e 6E0B0000 		.4byte	.LASF40
 3618 0232 0A       		.byte	0xa
 3619 0233 3E       		.byte	0x3e
 3620 0234 25000000 		.4byte	0x25
 3621 0238 14       		.byte	0x14
 3622 0239 0D       		.uleb128 0xd
 3623 023a D6090000 		.4byte	.LASF41
 3624 023e 0A       		.byte	0xa
 3625 023f 3F       		.byte	0x3f
 3626 0240 25000000 		.4byte	0x25
 3627 0244 18       		.byte	0x18
 3628 0245 0D       		.uleb128 0xd
 3629 0246 B3060000 		.4byte	.LASF42
 3630 024a 0A       		.byte	0xa
 3631 024b 40       		.byte	0x40
 3632 024c 25000000 		.4byte	0x25
 3633 0250 1C       		.byte	0x1c
 3634 0251 0D       		.uleb128 0xd
 3635 0252 A1090000 		.4byte	.LASF43
 3636 0256 0A       		.byte	0xa
 3637 0257 41       		.byte	0x41
 3638 0258 25000000 		.4byte	0x25
 3639 025c 20       		.byte	0x20
 3640 025d 00       		.byte	0
 3641 025e 12       		.uleb128 0x12
 3642 025f EF110000 		.4byte	.LASF44
 3643 0263 0801     		.2byte	0x108
 3644 0265 0A       		.byte	0xa
 3645 0266 4A       		.byte	0x4a
 3646 0267 9E020000 		.4byte	0x29e
 3647 026b 0D       		.uleb128 0xd
 3648 026c 08100000 		.4byte	.LASF45
 3649 0270 0A       		.byte	0xa
 3650 0271 4B       		.byte	0x4b
 3651 0272 9E020000 		.4byte	0x29e
 3652 0276 00       		.byte	0
 3653 0277 0D       		.uleb128 0xd
 3654 0278 29080000 		.4byte	.LASF46
 3655 027c 0A       		.byte	0xa
 3656 027d 4C       		.byte	0x4c
 3657 027e 9E020000 		.4byte	0x29e
 3658 0282 80       		.byte	0x80
 3659 0283 13       		.uleb128 0x13
 3660 0284 B3010000 		.4byte	.LASF47
 3661 0288 0A       		.byte	0xa
 3662 0289 4E       		.byte	0x4e
 3663 028a 71010000 		.4byte	0x171
 3664 028e 0001     		.2byte	0x100
 3665 0290 13       		.uleb128 0x13
 3666 0291 751C0000 		.4byte	.LASF48
 3667 0295 0A       		.byte	0xa
 3668 0296 51       		.byte	0x51
 3669 0297 71010000 		.4byte	0x171
 3670 029b 0401     		.2byte	0x104
 3671 029d 00       		.byte	0
 3672 029e 0A       		.uleb128 0xa
ARM GAS  C:\Users\PCHAUT~1\AppData\Local\Temp\cc7u0cQS.s 			page 66


 3673 029f 5D010000 		.4byte	0x15d
 3674 02a3 AE020000 		.4byte	0x2ae
 3675 02a7 0B       		.uleb128 0xb
 3676 02a8 37000000 		.4byte	0x37
 3677 02ac 1F       		.byte	0x1f
 3678 02ad 00       		.byte	0
 3679 02ae 12       		.uleb128 0x12
 3680 02af 4E010000 		.4byte	.LASF49
 3681 02b3 9001     		.2byte	0x190
 3682 02b5 0A       		.byte	0xa
 3683 02b6 5D       		.byte	0x5d
 3684 02b7 EC020000 		.4byte	0x2ec
 3685 02bb 0D       		.uleb128 0xd
 3686 02bc 96100000 		.4byte	.LASF29
 3687 02c0 0A       		.byte	0xa
 3688 02c1 5E       		.byte	0x5e
 3689 02c2 EC020000 		.4byte	0x2ec
 3690 02c6 00       		.byte	0
 3691 02c7 0D       		.uleb128 0xd
 3692 02c8 CF010000 		.4byte	.LASF50
 3693 02cc 0A       		.byte	0xa
 3694 02cd 5F       		.byte	0x5f
 3695 02ce 25000000 		.4byte	0x25
 3696 02d2 04       		.byte	0x4
 3697 02d3 0D       		.uleb128 0xd
 3698 02d4 A71B0000 		.4byte	.LASF51
 3699 02d8 0A       		.byte	0xa
 3700 02d9 61       		.byte	0x61
 3701 02da F2020000 		.4byte	0x2f2
 3702 02de 08       		.byte	0x8
 3703 02df 0D       		.uleb128 0xd
 3704 02e0 EF110000 		.4byte	.LASF44
 3705 02e4 0A       		.byte	0xa
 3706 02e5 62       		.byte	0x62
 3707 02e6 5E020000 		.4byte	0x25e
 3708 02ea 88       		.byte	0x88
 3709 02eb 00       		.byte	0
 3710 02ec 05       		.uleb128 0x5
 3711 02ed 04       		.byte	0x4
 3712 02ee AE020000 		.4byte	0x2ae
 3713 02f2 0A       		.uleb128 0xa
 3714 02f3 02030000 		.4byte	0x302
 3715 02f7 02030000 		.4byte	0x302
 3716 02fb 0B       		.uleb128 0xb
 3717 02fc 37000000 		.4byte	0x37
 3718 0300 1F       		.byte	0x1f
 3719 0301 00       		.byte	0
 3720 0302 05       		.uleb128 0x5
 3721 0303 04       		.byte	0x4
 3722 0304 08030000 		.4byte	0x308
 3723 0308 14       		.uleb128 0x14
 3724 0309 10       		.uleb128 0x10
 3725 030a 5E150000 		.4byte	.LASF52
 3726 030e 08       		.byte	0x8
 3727 030f 0A       		.byte	0xa
 3728 0310 75       		.byte	0x75
 3729 0311 2E030000 		.4byte	0x32e
ARM GAS  C:\Users\PCHAUT~1\AppData\Local\Temp\cc7u0cQS.s 			page 67


 3730 0315 0D       		.uleb128 0xd
 3731 0316 A5050000 		.4byte	.LASF53
 3732 031a 0A       		.byte	0xa
 3733 031b 76       		.byte	0x76
 3734 031c 2E030000 		.4byte	0x32e
 3735 0320 00       		.byte	0
 3736 0321 0D       		.uleb128 0xd
 3737 0322 9D0A0000 		.4byte	.LASF54
 3738 0326 0A       		.byte	0xa
 3739 0327 77       		.byte	0x77
 3740 0328 25000000 		.4byte	0x25
 3741 032c 04       		.byte	0x4
 3742 032d 00       		.byte	0
 3743 032e 05       		.uleb128 0x5
 3744 032f 04       		.byte	0x4
 3745 0330 5E000000 		.4byte	0x5e
 3746 0334 10       		.uleb128 0x10
 3747 0335 9F1B0000 		.4byte	.LASF55
 3748 0339 68       		.byte	0x68
 3749 033a 0A       		.byte	0xa
 3750 033b B5       		.byte	0xb5
 3751 033c 5E040000 		.4byte	0x45e
 3752 0340 11       		.uleb128 0x11
 3753 0341 5F7000   		.ascii	"_p\000"
 3754 0344 0A       		.byte	0xa
 3755 0345 B6       		.byte	0xb6
 3756 0346 2E030000 		.4byte	0x32e
 3757 034a 00       		.byte	0
 3758 034b 11       		.uleb128 0x11
 3759 034c 5F7200   		.ascii	"_r\000"
 3760 034f 0A       		.byte	0xa
 3761 0350 B7       		.byte	0xb7
 3762 0351 25000000 		.4byte	0x25
 3763 0355 04       		.byte	0x4
 3764 0356 11       		.uleb128 0x11
 3765 0357 5F7700   		.ascii	"_w\000"
 3766 035a 0A       		.byte	0xa
 3767 035b B8       		.byte	0xb8
 3768 035c 25000000 		.4byte	0x25
 3769 0360 08       		.byte	0x8
 3770 0361 0D       		.uleb128 0xd
 3771 0362 28020000 		.4byte	.LASF56
 3772 0366 0A       		.byte	0xa
 3773 0367 B9       		.byte	0xb9
 3774 0368 70000000 		.4byte	0x70
 3775 036c 0C       		.byte	0xc
 3776 036d 0D       		.uleb128 0xd
 3777 036e 691B0000 		.4byte	.LASF57
 3778 0372 0A       		.byte	0xa
 3779 0373 BA       		.byte	0xba
 3780 0374 70000000 		.4byte	0x70
 3781 0378 0E       		.byte	0xe
 3782 0379 11       		.uleb128 0x11
 3783 037a 5F626600 		.ascii	"_bf\000"
 3784 037e 0A       		.byte	0xa
 3785 037f BB       		.byte	0xbb
 3786 0380 09030000 		.4byte	0x309
ARM GAS  C:\Users\PCHAUT~1\AppData\Local\Temp\cc7u0cQS.s 			page 68


 3787 0384 10       		.byte	0x10
 3788 0385 0D       		.uleb128 0xd
 3789 0386 34040000 		.4byte	.LASF58
 3790 038a 0A       		.byte	0xa
 3791 038b BC       		.byte	0xbc
 3792 038c 25000000 		.4byte	0x25
 3793 0390 18       		.byte	0x18
 3794 0391 0D       		.uleb128 0xd
 3795 0392 E6100000 		.4byte	.LASF59
 3796 0396 0A       		.byte	0xa
 3797 0397 C3       		.byte	0xc3
 3798 0398 5D010000 		.4byte	0x15d
 3799 039c 1C       		.byte	0x1c
 3800 039d 0D       		.uleb128 0xd
 3801 039e 7E220000 		.4byte	.LASF60
 3802 03a2 0A       		.byte	0xa
 3803 03a3 C5       		.byte	0xc5
 3804 03a4 B9050000 		.4byte	0x5b9
 3805 03a8 20       		.byte	0x20
 3806 03a9 0D       		.uleb128 0xd
 3807 03aa EA0A0000 		.4byte	.LASF61
 3808 03ae 0A       		.byte	0xa
 3809 03af C7       		.byte	0xc7
 3810 03b0 E8050000 		.4byte	0x5e8
 3811 03b4 24       		.byte	0x24
 3812 03b5 0D       		.uleb128 0xd
 3813 03b6 D4130000 		.4byte	.LASF62
 3814 03ba 0A       		.byte	0xa
 3815 03bb CA       		.byte	0xca
 3816 03bc 0C060000 		.4byte	0x60c
 3817 03c0 28       		.byte	0x28
 3818 03c1 0D       		.uleb128 0xd
 3819 03c2 83180000 		.4byte	.LASF63
 3820 03c6 0A       		.byte	0xa
 3821 03c7 CB       		.byte	0xcb
 3822 03c8 26060000 		.4byte	0x626
 3823 03cc 2C       		.byte	0x2c
 3824 03cd 11       		.uleb128 0x11
 3825 03ce 5F756200 		.ascii	"_ub\000"
 3826 03d2 0A       		.byte	0xa
 3827 03d3 CE       		.byte	0xce
 3828 03d4 09030000 		.4byte	0x309
 3829 03d8 30       		.byte	0x30
 3830 03d9 11       		.uleb128 0x11
 3831 03da 5F757000 		.ascii	"_up\000"
 3832 03de 0A       		.byte	0xa
 3833 03df CF       		.byte	0xcf
 3834 03e0 2E030000 		.4byte	0x32e
 3835 03e4 38       		.byte	0x38
 3836 03e5 11       		.uleb128 0x11
 3837 03e6 5F757200 		.ascii	"_ur\000"
 3838 03ea 0A       		.byte	0xa
 3839 03eb D0       		.byte	0xd0
 3840 03ec 25000000 		.4byte	0x25
 3841 03f0 3C       		.byte	0x3c
 3842 03f1 0D       		.uleb128 0xd
 3843 03f2 AD1A0000 		.4byte	.LASF64
ARM GAS  C:\Users\PCHAUT~1\AppData\Local\Temp\cc7u0cQS.s 			page 69


 3844 03f6 0A       		.byte	0xa
 3845 03f7 D3       		.byte	0xd3
 3846 03f8 2C060000 		.4byte	0x62c
 3847 03fc 40       		.byte	0x40
 3848 03fd 0D       		.uleb128 0xd
 3849 03fe C7020000 		.4byte	.LASF65
 3850 0402 0A       		.byte	0xa
 3851 0403 D4       		.byte	0xd4
 3852 0404 3C060000 		.4byte	0x63c
 3853 0408 43       		.byte	0x43
 3854 0409 11       		.uleb128 0x11
 3855 040a 5F6C6200 		.ascii	"_lb\000"
 3856 040e 0A       		.byte	0xa
 3857 040f D7       		.byte	0xd7
 3858 0410 09030000 		.4byte	0x309
 3859 0414 44       		.byte	0x44
 3860 0415 0D       		.uleb128 0xd
 3861 0416 891A0000 		.4byte	.LASF66
 3862 041a 0A       		.byte	0xa
 3863 041b DA       		.byte	0xda
 3864 041c 25000000 		.4byte	0x25
 3865 0420 4C       		.byte	0x4c
 3866 0421 0D       		.uleb128 0xd
 3867 0422 F6140000 		.4byte	.LASF67
 3868 0426 0A       		.byte	0xa
 3869 0427 DB       		.byte	0xdb
 3870 0428 D5000000 		.4byte	0xd5
 3871 042c 50       		.byte	0x50
 3872 042d 0D       		.uleb128 0xd
 3873 042e 99040000 		.4byte	.LASF68
 3874 0432 0A       		.byte	0xa
 3875 0433 DE       		.byte	0xde
 3876 0434 7C040000 		.4byte	0x47c
 3877 0438 54       		.byte	0x54
 3878 0439 0D       		.uleb128 0xd
 3879 043a C1020000 		.4byte	.LASF69
 3880 043e 0A       		.byte	0xa
 3881 043f E2       		.byte	0xe2
 3882 0440 52010000 		.4byte	0x152
 3883 0444 58       		.byte	0x58
 3884 0445 0D       		.uleb128 0xd
 3885 0446 45010000 		.4byte	.LASF70
 3886 044a 0A       		.byte	0xa
 3887 044b E4       		.byte	0xe4
 3888 044c 47010000 		.4byte	0x147
 3889 0450 5C       		.byte	0x5c
 3890 0451 0D       		.uleb128 0xd
 3891 0452 4F200000 		.4byte	.LASF71
 3892 0456 0A       		.byte	0xa
 3893 0457 E5       		.byte	0xe5
 3894 0458 25000000 		.4byte	0x25
 3895 045c 64       		.byte	0x64
 3896 045d 00       		.byte	0
 3897 045e 15       		.uleb128 0x15
 3898 045f 25000000 		.4byte	0x25
 3899 0463 7C040000 		.4byte	0x47c
 3900 0467 16       		.uleb128 0x16
ARM GAS  C:\Users\PCHAUT~1\AppData\Local\Temp\cc7u0cQS.s 			page 70


 3901 0468 7C040000 		.4byte	0x47c
 3902 046c 16       		.uleb128 0x16
 3903 046d 5D010000 		.4byte	0x15d
 3904 0471 16       		.uleb128 0x16
 3905 0472 5F010000 		.4byte	0x15f
 3906 0476 16       		.uleb128 0x16
 3907 0477 25000000 		.4byte	0x25
 3908 047b 00       		.byte	0
 3909 047c 05       		.uleb128 0x5
 3910 047d 04       		.byte	0x4
 3911 047e 87040000 		.4byte	0x487
 3912 0482 0F       		.uleb128 0xf
 3913 0483 7C040000 		.4byte	0x47c
 3914 0487 17       		.uleb128 0x17
 3915 0488 50050000 		.4byte	.LASF72
 3916 048c 2804     		.2byte	0x428
 3917 048e 0A       		.byte	0xa
 3918 048f 3902     		.2byte	0x239
 3919 0491 B9050000 		.4byte	0x5b9
 3920 0495 18       		.uleb128 0x18
 3921 0496 B70F0000 		.4byte	.LASF73
 3922 049a 0A       		.byte	0xa
 3923 049b 3B02     		.2byte	0x23b
 3924 049d 25000000 		.4byte	0x25
 3925 04a1 00       		.byte	0
 3926 04a2 18       		.uleb128 0x18
 3927 04a3 880C0000 		.4byte	.LASF74
 3928 04a7 0A       		.byte	0xa
 3929 04a8 4002     		.2byte	0x240
 3930 04aa 93060000 		.4byte	0x693
 3931 04ae 04       		.byte	0x4
 3932 04af 18       		.uleb128 0x18
 3933 04b0 130A0000 		.4byte	.LASF75
 3934 04b4 0A       		.byte	0xa
 3935 04b5 4002     		.2byte	0x240
 3936 04b7 93060000 		.4byte	0x693
 3937 04bb 08       		.byte	0x8
 3938 04bc 18       		.uleb128 0x18
 3939 04bd 09080000 		.4byte	.LASF76
 3940 04c1 0A       		.byte	0xa
 3941 04c2 4002     		.2byte	0x240
 3942 04c4 93060000 		.4byte	0x693
 3943 04c8 0C       		.byte	0xc
 3944 04c9 18       		.uleb128 0x18
 3945 04ca CA010000 		.4byte	.LASF77
 3946 04ce 0A       		.byte	0xa
 3947 04cf 4202     		.2byte	0x242
 3948 04d1 25000000 		.4byte	0x25
 3949 04d5 10       		.byte	0x10
 3950 04d6 18       		.uleb128 0x18
 3951 04d7 1E170000 		.4byte	.LASF78
 3952 04db 0A       		.byte	0xa
 3953 04dc 4302     		.2byte	0x243
 3954 04de 75080000 		.4byte	0x875
 3955 04e2 14       		.byte	0x14
 3956 04e3 18       		.uleb128 0x18
 3957 04e4 F01E0000 		.4byte	.LASF79
ARM GAS  C:\Users\PCHAUT~1\AppData\Local\Temp\cc7u0cQS.s 			page 71


 3958 04e8 0A       		.byte	0xa
 3959 04e9 4602     		.2byte	0x246
 3960 04eb 25000000 		.4byte	0x25
 3961 04ef 30       		.byte	0x30
 3962 04f0 18       		.uleb128 0x18
 3963 04f1 A9200000 		.4byte	.LASF80
 3964 04f5 0A       		.byte	0xa
 3965 04f6 4702     		.2byte	0x247
 3966 04f8 8A080000 		.4byte	0x88a
 3967 04fc 34       		.byte	0x34
 3968 04fd 18       		.uleb128 0x18
 3969 04fe 4F1F0000 		.4byte	.LASF81
 3970 0502 0A       		.byte	0xa
 3971 0503 4902     		.2byte	0x249
 3972 0505 25000000 		.4byte	0x25
 3973 0509 38       		.byte	0x38
 3974 050a 18       		.uleb128 0x18
 3975 050b F01A0000 		.4byte	.LASF82
 3976 050f 0A       		.byte	0xa
 3977 0510 4B02     		.2byte	0x24b
 3978 0512 9B080000 		.4byte	0x89b
 3979 0516 3C       		.byte	0x3c
 3980 0517 18       		.uleb128 0x18
 3981 0518 11080000 		.4byte	.LASF83
 3982 051c 0A       		.byte	0xa
 3983 051d 4E02     		.2byte	0x24e
 3984 051f CF010000 		.4byte	0x1cf
 3985 0523 40       		.byte	0x40
 3986 0524 18       		.uleb128 0x18
 3987 0525 FA070000 		.4byte	.LASF84
 3988 0529 0A       		.byte	0xa
 3989 052a 4F02     		.2byte	0x24f
 3990 052c 25000000 		.4byte	0x25
 3991 0530 44       		.byte	0x44
 3992 0531 18       		.uleb128 0x18
 3993 0532 BB1C0000 		.4byte	.LASF85
 3994 0536 0A       		.byte	0xa
 3995 0537 5002     		.2byte	0x250
 3996 0539 CF010000 		.4byte	0x1cf
 3997 053d 48       		.byte	0x48
 3998 053e 18       		.uleb128 0x18
 3999 053f B8140000 		.4byte	.LASF86
 4000 0543 0A       		.byte	0xa
 4001 0544 5102     		.2byte	0x251
 4002 0546 A1080000 		.4byte	0x8a1
 4003 054a 4C       		.byte	0x4c
 4004 054b 18       		.uleb128 0x18
 4005 054c 69020000 		.4byte	.LASF87
 4006 0550 0A       		.byte	0xa
 4007 0551 5402     		.2byte	0x254
 4008 0553 25000000 		.4byte	0x25
 4009 0557 50       		.byte	0x50
 4010 0558 18       		.uleb128 0x18
 4011 0559 570E0000 		.4byte	.LASF88
 4012 055d 0A       		.byte	0xa
 4013 055e 5502     		.2byte	0x255
 4014 0560 5F010000 		.4byte	0x15f
ARM GAS  C:\Users\PCHAUT~1\AppData\Local\Temp\cc7u0cQS.s 			page 72


 4015 0564 54       		.byte	0x54
 4016 0565 18       		.uleb128 0x18
 4017 0566 410F0000 		.4byte	.LASF89
 4018 056a 0A       		.byte	0xa
 4019 056b 7802     		.2byte	0x278
 4020 056d 53080000 		.4byte	0x853
 4021 0571 58       		.byte	0x58
 4022 0572 19       		.uleb128 0x19
 4023 0573 4E010000 		.4byte	.LASF49
 4024 0577 0A       		.byte	0xa
 4025 0578 7C02     		.2byte	0x27c
 4026 057a EC020000 		.4byte	0x2ec
 4027 057e 4801     		.2byte	0x148
 4028 0580 19       		.uleb128 0x19
 4029 0581 82190000 		.4byte	.LASF90
 4030 0585 0A       		.byte	0xa
 4031 0586 7D02     		.2byte	0x27d
 4032 0588 AE020000 		.4byte	0x2ae
 4033 058c 4C01     		.2byte	0x14c
 4034 058e 19       		.uleb128 0x19
 4035 058f 8B020000 		.4byte	.LASF91
 4036 0593 0A       		.byte	0xa
 4037 0594 8102     		.2byte	0x281
 4038 0596 B2080000 		.4byte	0x8b2
 4039 059a DC02     		.2byte	0x2dc
 4040 059c 19       		.uleb128 0x19
 4041 059d CE1A0000 		.4byte	.LASF92
 4042 05a1 0A       		.byte	0xa
 4043 05a2 8602     		.2byte	0x286
 4044 05a4 58060000 		.4byte	0x658
 4045 05a8 E002     		.2byte	0x2e0
 4046 05aa 19       		.uleb128 0x19
 4047 05ab 97050000 		.4byte	.LASF93
 4048 05af 0A       		.byte	0xa
 4049 05b0 8802     		.2byte	0x288
 4050 05b2 BE080000 		.4byte	0x8be
 4051 05b6 EC02     		.2byte	0x2ec
 4052 05b8 00       		.byte	0
 4053 05b9 05       		.uleb128 0x5
 4054 05ba 04       		.byte	0x4
 4055 05bb 5E040000 		.4byte	0x45e
 4056 05bf 15       		.uleb128 0x15
 4057 05c0 25000000 		.4byte	0x25
 4058 05c4 DD050000 		.4byte	0x5dd
 4059 05c8 16       		.uleb128 0x16
 4060 05c9 7C040000 		.4byte	0x47c
 4061 05cd 16       		.uleb128 0x16
 4062 05ce 5D010000 		.4byte	0x15d
 4063 05d2 16       		.uleb128 0x16
 4064 05d3 DD050000 		.4byte	0x5dd
 4065 05d7 16       		.uleb128 0x16
 4066 05d8 25000000 		.4byte	0x25
 4067 05dc 00       		.byte	0
 4068 05dd 05       		.uleb128 0x5
 4069 05de 04       		.byte	0x4
 4070 05df 6C010000 		.4byte	0x16c
 4071 05e3 1A       		.uleb128 0x1a
ARM GAS  C:\Users\PCHAUT~1\AppData\Local\Temp\cc7u0cQS.s 			page 73


 4072 05e4 DD050000 		.4byte	0x5dd
 4073 05e8 05       		.uleb128 0x5
 4074 05e9 04       		.byte	0x4
 4075 05ea BF050000 		.4byte	0x5bf
 4076 05ee 15       		.uleb128 0x15
 4077 05ef E0000000 		.4byte	0xe0
 4078 05f3 0C060000 		.4byte	0x60c
 4079 05f7 16       		.uleb128 0x16
 4080 05f8 7C040000 		.4byte	0x47c
 4081 05fc 16       		.uleb128 0x16
 4082 05fd 5D010000 		.4byte	0x15d
 4083 0601 16       		.uleb128 0x16
 4084 0602 E0000000 		.4byte	0xe0
 4085 0606 16       		.uleb128 0x16
 4086 0607 25000000 		.4byte	0x25
 4087 060b 00       		.byte	0
 4088 060c 05       		.uleb128 0x5
 4089 060d 04       		.byte	0x4
 4090 060e EE050000 		.4byte	0x5ee
 4091 0612 15       		.uleb128 0x15
 4092 0613 25000000 		.4byte	0x25
 4093 0617 26060000 		.4byte	0x626
 4094 061b 16       		.uleb128 0x16
 4095 061c 7C040000 		.4byte	0x47c
 4096 0620 16       		.uleb128 0x16
 4097 0621 5D010000 		.4byte	0x15d
 4098 0625 00       		.byte	0
 4099 0626 05       		.uleb128 0x5
 4100 0627 04       		.byte	0x4
 4101 0628 12060000 		.4byte	0x612
 4102 062c 0A       		.uleb128 0xa
 4103 062d 5E000000 		.4byte	0x5e
 4104 0631 3C060000 		.4byte	0x63c
 4105 0635 0B       		.uleb128 0xb
 4106 0636 37000000 		.4byte	0x37
 4107 063a 02       		.byte	0x2
 4108 063b 00       		.byte	0
 4109 063c 0A       		.uleb128 0xa
 4110 063d 5E000000 		.4byte	0x5e
 4111 0641 4C060000 		.4byte	0x64c
 4112 0645 0B       		.uleb128 0xb
 4113 0646 37000000 		.4byte	0x37
 4114 064a 00       		.byte	0
 4115 064b 00       		.byte	0
 4116 064c 07       		.uleb128 0x7
 4117 064d A4210000 		.4byte	.LASF94
 4118 0651 0A       		.byte	0xa
 4119 0652 1F01     		.2byte	0x11f
 4120 0654 34030000 		.4byte	0x334
 4121 0658 1B       		.uleb128 0x1b
 4122 0659 DB180000 		.4byte	.LASF95
 4123 065d 0C       		.byte	0xc
 4124 065e 0A       		.byte	0xa
 4125 065f 2301     		.2byte	0x123
 4126 0661 8D060000 		.4byte	0x68d
 4127 0665 18       		.uleb128 0x18
 4128 0666 96100000 		.4byte	.LASF29
ARM GAS  C:\Users\PCHAUT~1\AppData\Local\Temp\cc7u0cQS.s 			page 74


 4129 066a 0A       		.byte	0xa
 4130 066b 2501     		.2byte	0x125
 4131 066d 8D060000 		.4byte	0x68d
 4132 0671 00       		.byte	0
 4133 0672 18       		.uleb128 0x18
 4134 0673 700F0000 		.4byte	.LASF96
 4135 0677 0A       		.byte	0xa
 4136 0678 2601     		.2byte	0x126
 4137 067a 25000000 		.4byte	0x25
 4138 067e 04       		.byte	0x4
 4139 067f 18       		.uleb128 0x18
 4140 0680 18170000 		.4byte	.LASF97
 4141 0684 0A       		.byte	0xa
 4142 0685 2701     		.2byte	0x127
 4143 0687 93060000 		.4byte	0x693
 4144 068b 08       		.byte	0x8
 4145 068c 00       		.byte	0
 4146 068d 05       		.uleb128 0x5
 4147 068e 04       		.byte	0x4
 4148 068f 58060000 		.4byte	0x658
 4149 0693 05       		.uleb128 0x5
 4150 0694 04       		.byte	0x4
 4151 0695 4C060000 		.4byte	0x64c
 4152 0699 1B       		.uleb128 0x1b
 4153 069a A9220000 		.4byte	.LASF98
 4154 069e 0E       		.byte	0xe
 4155 069f 0A       		.byte	0xa
 4156 06a0 3F01     		.2byte	0x13f
 4157 06a2 CE060000 		.4byte	0x6ce
 4158 06a6 18       		.uleb128 0x18
 4159 06a7 BF130000 		.4byte	.LASF99
 4160 06ab 0A       		.byte	0xa
 4161 06ac 4001     		.2byte	0x140
 4162 06ae CE060000 		.4byte	0x6ce
 4163 06b2 00       		.byte	0
 4164 06b3 18       		.uleb128 0x18
 4165 06b4 D10B0000 		.4byte	.LASF100
 4166 06b8 0A       		.byte	0xa
 4167 06b9 4101     		.2byte	0x141
 4168 06bb CE060000 		.4byte	0x6ce
 4169 06bf 06       		.byte	0x6
 4170 06c0 18       		.uleb128 0x18
 4171 06c1 B0030000 		.4byte	.LASF101
 4172 06c5 0A       		.byte	0xa
 4173 06c6 4201     		.2byte	0x142
 4174 06c8 82000000 		.4byte	0x82
 4175 06cc 0C       		.byte	0xc
 4176 06cd 00       		.byte	0
 4177 06ce 0A       		.uleb128 0xa
 4178 06cf 82000000 		.4byte	0x82
 4179 06d3 DE060000 		.4byte	0x6de
 4180 06d7 0B       		.uleb128 0xb
 4181 06d8 37000000 		.4byte	0x37
 4182 06dc 02       		.byte	0x2
 4183 06dd 00       		.byte	0
 4184 06de 1C       		.uleb128 0x1c
 4185 06df D0       		.byte	0xd0
ARM GAS  C:\Users\PCHAUT~1\AppData\Local\Temp\cc7u0cQS.s 			page 75


 4186 06e0 0A       		.byte	0xa
 4187 06e1 5902     		.2byte	0x259
 4188 06e3 DF070000 		.4byte	0x7df
 4189 06e7 18       		.uleb128 0x18
 4190 06e8 4C070000 		.4byte	.LASF102
 4191 06ec 0A       		.byte	0xa
 4192 06ed 5B02     		.2byte	0x25b
 4193 06ef 37000000 		.4byte	0x37
 4194 06f3 00       		.byte	0
 4195 06f4 18       		.uleb128 0x18
 4196 06f5 75130000 		.4byte	.LASF103
 4197 06f9 0A       		.byte	0xa
 4198 06fa 5C02     		.2byte	0x25c
 4199 06fc 5F010000 		.4byte	0x15f
 4200 0700 04       		.byte	0x4
 4201 0701 18       		.uleb128 0x18
 4202 0702 C0150000 		.4byte	.LASF104
 4203 0706 0A       		.byte	0xa
 4204 0707 5D02     		.2byte	0x25d
 4205 0709 DF070000 		.4byte	0x7df
 4206 070d 08       		.byte	0x8
 4207 070e 18       		.uleb128 0x18
 4208 070f 790D0000 		.4byte	.LASF105
 4209 0713 0A       		.byte	0xa
 4210 0714 5E02     		.2byte	0x25e
 4211 0716 E5010000 		.4byte	0x1e5
 4212 071a 24       		.byte	0x24
 4213 071b 18       		.uleb128 0x18
 4214 071c 2A1E0000 		.4byte	.LASF106
 4215 0720 0A       		.byte	0xa
 4216 0721 5F02     		.2byte	0x25f
 4217 0723 25000000 		.4byte	0x25
 4218 0727 48       		.byte	0x48
 4219 0728 18       		.uleb128 0x18
 4220 0729 49170000 		.4byte	.LASF107
 4221 072d 0A       		.byte	0xa
 4222 072e 6002     		.2byte	0x260
 4223 0730 B8000000 		.4byte	0xb8
 4224 0734 50       		.byte	0x50
 4225 0735 18       		.uleb128 0x18
 4226 0736 29220000 		.4byte	.LASF108
 4227 073a 0A       		.byte	0xa
 4228 073b 6102     		.2byte	0x261
 4229 073d 99060000 		.4byte	0x699
 4230 0741 58       		.byte	0x58
 4231 0742 18       		.uleb128 0x18
 4232 0743 C11A0000 		.4byte	.LASF109
 4233 0747 0A       		.byte	0xa
 4234 0748 6202     		.2byte	0x262
 4235 074a 47010000 		.4byte	0x147
 4236 074e 68       		.byte	0x68
 4237 074f 18       		.uleb128 0x18
 4238 0750 C3050000 		.4byte	.LASF110
 4239 0754 0A       		.byte	0xa
 4240 0755 6302     		.2byte	0x263
 4241 0757 47010000 		.4byte	0x147
 4242 075b 70       		.byte	0x70
ARM GAS  C:\Users\PCHAUT~1\AppData\Local\Temp\cc7u0cQS.s 			page 76


 4243 075c 18       		.uleb128 0x18
 4244 075d AF160000 		.4byte	.LASF111
 4245 0761 0A       		.byte	0xa
 4246 0762 6402     		.2byte	0x264
 4247 0764 47010000 		.4byte	0x147
 4248 0768 78       		.byte	0x78
 4249 0769 18       		.uleb128 0x18
 4250 076a 86150000 		.4byte	.LASF112
 4251 076e 0A       		.byte	0xa
 4252 076f 6502     		.2byte	0x265
 4253 0771 EF070000 		.4byte	0x7ef
 4254 0775 80       		.byte	0x80
 4255 0776 18       		.uleb128 0x18
 4256 0777 C5100000 		.4byte	.LASF113
 4257 077b 0A       		.byte	0xa
 4258 077c 6602     		.2byte	0x266
 4259 077e FF070000 		.4byte	0x7ff
 4260 0782 88       		.byte	0x88
 4261 0783 18       		.uleb128 0x18
 4262 0784 C1190000 		.4byte	.LASF114
 4263 0788 0A       		.byte	0xa
 4264 0789 6702     		.2byte	0x267
 4265 078b 25000000 		.4byte	0x25
 4266 078f A0       		.byte	0xa0
 4267 0790 18       		.uleb128 0x18
 4268 0791 150C0000 		.4byte	.LASF115
 4269 0795 0A       		.byte	0xa
 4270 0796 6802     		.2byte	0x268
 4271 0798 47010000 		.4byte	0x147
 4272 079c A4       		.byte	0xa4
 4273 079d 18       		.uleb128 0x18
 4274 079e E70E0000 		.4byte	.LASF116
 4275 07a2 0A       		.byte	0xa
 4276 07a3 6902     		.2byte	0x269
 4277 07a5 47010000 		.4byte	0x147
 4278 07a9 AC       		.byte	0xac
 4279 07aa 18       		.uleb128 0x18
 4280 07ab 610A0000 		.4byte	.LASF117
 4281 07af 0A       		.byte	0xa
 4282 07b0 6A02     		.2byte	0x26a
 4283 07b2 47010000 		.4byte	0x147
 4284 07b6 B4       		.byte	0xb4
 4285 07b7 18       		.uleb128 0x18
 4286 07b8 50120000 		.4byte	.LASF118
 4287 07bc 0A       		.byte	0xa
 4288 07bd 6B02     		.2byte	0x26b
 4289 07bf 47010000 		.4byte	0x147
 4290 07c3 BC       		.byte	0xbc
 4291 07c4 18       		.uleb128 0x18
 4292 07c5 FF150000 		.4byte	.LASF119
 4293 07c9 0A       		.byte	0xa
 4294 07ca 6C02     		.2byte	0x26c
 4295 07cc 47010000 		.4byte	0x147
 4296 07d0 C4       		.byte	0xc4
 4297 07d1 18       		.uleb128 0x18
 4298 07d2 D41B0000 		.4byte	.LASF120
 4299 07d6 0A       		.byte	0xa
ARM GAS  C:\Users\PCHAUT~1\AppData\Local\Temp\cc7u0cQS.s 			page 77


 4300 07d7 6D02     		.2byte	0x26d
 4301 07d9 25000000 		.4byte	0x25
 4302 07dd CC       		.byte	0xcc
 4303 07de 00       		.byte	0
 4304 07df 0A       		.uleb128 0xa
 4305 07e0 65010000 		.4byte	0x165
 4306 07e4 EF070000 		.4byte	0x7ef
 4307 07e8 0B       		.uleb128 0xb
 4308 07e9 37000000 		.4byte	0x37
 4309 07ed 19       		.byte	0x19
 4310 07ee 00       		.byte	0
 4311 07ef 0A       		.uleb128 0xa
 4312 07f0 65010000 		.4byte	0x165
 4313 07f4 FF070000 		.4byte	0x7ff
 4314 07f8 0B       		.uleb128 0xb
 4315 07f9 37000000 		.4byte	0x37
 4316 07fd 07       		.byte	0x7
 4317 07fe 00       		.byte	0
 4318 07ff 0A       		.uleb128 0xa
 4319 0800 65010000 		.4byte	0x165
 4320 0804 0F080000 		.4byte	0x80f
 4321 0808 0B       		.uleb128 0xb
 4322 0809 37000000 		.4byte	0x37
 4323 080d 17       		.byte	0x17
 4324 080e 00       		.byte	0
 4325 080f 1C       		.uleb128 0x1c
 4326 0810 F0       		.byte	0xf0
 4327 0811 0A       		.byte	0xa
 4328 0812 7202     		.2byte	0x272
 4329 0814 33080000 		.4byte	0x833
 4330 0818 18       		.uleb128 0x18
 4331 0819 3C170000 		.4byte	.LASF121
 4332 081d 0A       		.byte	0xa
 4333 081e 7502     		.2byte	0x275
 4334 0820 33080000 		.4byte	0x833
 4335 0824 00       		.byte	0
 4336 0825 18       		.uleb128 0x18
 4337 0826 8F0C0000 		.4byte	.LASF122
 4338 082a 0A       		.byte	0xa
 4339 082b 7602     		.2byte	0x276
 4340 082d 43080000 		.4byte	0x843
 4341 0831 78       		.byte	0x78
 4342 0832 00       		.byte	0
 4343 0833 0A       		.uleb128 0xa
 4344 0834 2E030000 		.4byte	0x32e
 4345 0838 43080000 		.4byte	0x843
 4346 083c 0B       		.uleb128 0xb
 4347 083d 37000000 		.4byte	0x37
 4348 0841 1D       		.byte	0x1d
 4349 0842 00       		.byte	0
 4350 0843 0A       		.uleb128 0xa
 4351 0844 37000000 		.4byte	0x37
 4352 0848 53080000 		.4byte	0x853
 4353 084c 0B       		.uleb128 0xb
 4354 084d 37000000 		.4byte	0x37
 4355 0851 1D       		.byte	0x1d
 4356 0852 00       		.byte	0
ARM GAS  C:\Users\PCHAUT~1\AppData\Local\Temp\cc7u0cQS.s 			page 78


 4357 0853 1D       		.uleb128 0x1d
 4358 0854 F0       		.byte	0xf0
 4359 0855 0A       		.byte	0xa
 4360 0856 5702     		.2byte	0x257
 4361 0858 75080000 		.4byte	0x875
 4362 085c 1E       		.uleb128 0x1e
 4363 085d 50050000 		.4byte	.LASF72
 4364 0861 0A       		.byte	0xa
 4365 0862 6E02     		.2byte	0x26e
 4366 0864 DE060000 		.4byte	0x6de
 4367 0868 1E       		.uleb128 0x1e
 4368 0869 D6020000 		.4byte	.LASF123
 4369 086d 0A       		.byte	0xa
 4370 086e 7702     		.2byte	0x277
 4371 0870 0F080000 		.4byte	0x80f
 4372 0874 00       		.byte	0
 4373 0875 0A       		.uleb128 0xa
 4374 0876 65010000 		.4byte	0x165
 4375 087a 85080000 		.4byte	0x885
 4376 087e 0B       		.uleb128 0xb
 4377 087f 37000000 		.4byte	0x37
 4378 0883 18       		.byte	0x18
 4379 0884 00       		.byte	0
 4380 0885 06       		.uleb128 0x6
 4381 0886 D61A0000 		.4byte	.LASF125
 4382 088a 05       		.uleb128 0x5
 4383 088b 04       		.byte	0x4
 4384 088c 85080000 		.4byte	0x885
 4385 0890 1F       		.uleb128 0x1f
 4386 0891 9B080000 		.4byte	0x89b
 4387 0895 16       		.uleb128 0x16
 4388 0896 7C040000 		.4byte	0x47c
 4389 089a 00       		.byte	0
 4390 089b 05       		.uleb128 0x5
 4391 089c 04       		.byte	0x4
 4392 089d 90080000 		.4byte	0x890
 4393 08a1 05       		.uleb128 0x5
 4394 08a2 04       		.byte	0x4
 4395 08a3 CF010000 		.4byte	0x1cf
 4396 08a7 1F       		.uleb128 0x1f
 4397 08a8 B2080000 		.4byte	0x8b2
 4398 08ac 16       		.uleb128 0x16
 4399 08ad 25000000 		.4byte	0x25
 4400 08b1 00       		.byte	0
 4401 08b2 05       		.uleb128 0x5
 4402 08b3 04       		.byte	0x4
 4403 08b4 B8080000 		.4byte	0x8b8
 4404 08b8 05       		.uleb128 0x5
 4405 08b9 04       		.byte	0x4
 4406 08ba A7080000 		.4byte	0x8a7
 4407 08be 0A       		.uleb128 0xa
 4408 08bf 4C060000 		.4byte	0x64c
 4409 08c3 CE080000 		.4byte	0x8ce
 4410 08c7 0B       		.uleb128 0xb
 4411 08c8 37000000 		.4byte	0x37
 4412 08cc 02       		.byte	0x2
 4413 08cd 00       		.byte	0
ARM GAS  C:\Users\PCHAUT~1\AppData\Local\Temp\cc7u0cQS.s 			page 79


 4414 08ce 20       		.uleb128 0x20
 4415 08cf 611A0000 		.4byte	.LASF126
 4416 08d3 0A       		.byte	0xa
 4417 08d4 0703     		.2byte	0x307
 4418 08d6 7C040000 		.4byte	0x47c
 4419 08da 20       		.uleb128 0x20
 4420 08db CD1E0000 		.4byte	.LASF127
 4421 08df 0A       		.byte	0xa
 4422 08e0 0803     		.2byte	0x308
 4423 08e2 82040000 		.4byte	0x482
 4424 08e6 03       		.uleb128 0x3
 4425 08e7 990D0000 		.4byte	.LASF128
 4426 08eb 0B       		.byte	0xb
 4427 08ec 18       		.byte	0x18
 4428 08ed 53000000 		.4byte	0x53
 4429 08f1 0F       		.uleb128 0xf
 4430 08f2 E6080000 		.4byte	0x8e6
 4431 08f6 03       		.uleb128 0x3
 4432 08f7 EC130000 		.4byte	.LASF129
 4433 08fb 0B       		.byte	0xb
 4434 08fc 20       		.byte	0x20
 4435 08fd 65000000 		.4byte	0x65
 4436 0901 03       		.uleb128 0x3
 4437 0902 FE010000 		.4byte	.LASF130
 4438 0906 0B       		.byte	0xb
 4439 0907 24       		.byte	0x24
 4440 0908 77000000 		.4byte	0x77
 4441 090c 03       		.uleb128 0x3
 4442 090d 82030000 		.4byte	.LASF131
 4443 0911 0B       		.byte	0xb
 4444 0912 2C       		.byte	0x2c
 4445 0913 89000000 		.4byte	0x89
 4446 0917 1A       		.uleb128 0x1a
 4447 0918 0C090000 		.4byte	0x90c
 4448 091c 03       		.uleb128 0x3
 4449 091d 7D170000 		.4byte	.LASF132
 4450 0921 0B       		.byte	0xb
 4451 0922 30       		.byte	0x30
 4452 0923 9B000000 		.4byte	0x9b
 4453 0927 1A       		.uleb128 0x1a
 4454 0928 1C090000 		.4byte	0x91c
 4455 092c 0F       		.uleb128 0xf
 4456 092d 27090000 		.4byte	0x927
 4457 0931 03       		.uleb128 0x3
 4458 0932 210B0000 		.4byte	.LASF133
 4459 0936 0B       		.byte	0xb
 4460 0937 3C       		.byte	0x3c
 4461 0938 AD000000 		.4byte	0xad
 4462 093c 03       		.uleb128 0x3
 4463 093d E60C0000 		.4byte	.LASF134
 4464 0941 0C       		.byte	0xc
 4465 0942 45       		.byte	0x45
 4466 0943 1C090000 		.4byte	0x91c
 4467 0947 03       		.uleb128 0x3
 4468 0948 64050000 		.4byte	.LASF135
 4469 094c 0C       		.byte	0xc
 4470 094d 46       		.byte	0x46
ARM GAS  C:\Users\PCHAUT~1\AppData\Local\Temp\cc7u0cQS.s 			page 80


 4471 094e 31090000 		.4byte	0x931
 4472 0952 03       		.uleb128 0x3
 4473 0953 05120000 		.4byte	.LASF136
 4474 0957 0C       		.byte	0xc
 4475 0958 48       		.byte	0x48
 4476 0959 E6080000 		.4byte	0x8e6
 4477 095d 03       		.uleb128 0x3
 4478 095e C41E0000 		.4byte	.LASF137
 4479 0962 0C       		.byte	0xc
 4480 0963 49       		.byte	0x49
 4481 0964 E6080000 		.4byte	0x8e6
 4482 0968 03       		.uleb128 0x3
 4483 0969 9F110000 		.4byte	.LASF138
 4484 096d 0C       		.byte	0xc
 4485 096e 4A       		.byte	0x4a
 4486 096f E6080000 		.4byte	0x8e6
 4487 0973 03       		.uleb128 0x3
 4488 0974 6B130000 		.4byte	.LASF139
 4489 0978 0C       		.byte	0xc
 4490 0979 4B       		.byte	0x4b
 4491 097a E6080000 		.4byte	0x8e6
 4492 097e 03       		.uleb128 0x3
 4493 097f 34060000 		.4byte	.LASF140
 4494 0983 0C       		.byte	0xc
 4495 0984 4C       		.byte	0x4c
 4496 0985 1C090000 		.4byte	0x91c
 4497 0989 03       		.uleb128 0x3
 4498 098a 5F000000 		.4byte	.LASF141
 4499 098e 0C       		.byte	0xc
 4500 098f 4D       		.byte	0x4d
 4501 0990 0C090000 		.4byte	0x90c
 4502 0994 03       		.uleb128 0x3
 4503 0995 C9170000 		.4byte	.LASF142
 4504 0999 0C       		.byte	0xc
 4505 099a 4F       		.byte	0x4f
 4506 099b 1C090000 		.4byte	0x91c
 4507 099f 03       		.uleb128 0x3
 4508 09a0 B1200000 		.4byte	.LASF143
 4509 09a4 0C       		.byte	0xc
 4510 09a5 50       		.byte	0x50
 4511 09a6 1C090000 		.4byte	0x91c
 4512 09aa 03       		.uleb128 0x3
 4513 09ab 091A0000 		.4byte	.LASF144
 4514 09af 0C       		.byte	0xc
 4515 09b0 51       		.byte	0x51
 4516 09b1 0C090000 		.4byte	0x90c
 4517 09b5 03       		.uleb128 0x3
 4518 09b6 58140000 		.4byte	.LASF145
 4519 09ba 0C       		.byte	0xc
 4520 09bb 52       		.byte	0x52
 4521 09bc 1C090000 		.4byte	0x91c
 4522 09c0 03       		.uleb128 0x3
 4523 09c1 96030000 		.4byte	.LASF146
 4524 09c5 0D       		.byte	0xd
 4525 09c6 33       		.byte	0x33
 4526 09c7 1C090000 		.4byte	0x91c
 4527 09cb 1A       		.uleb128 0x1a
ARM GAS  C:\Users\PCHAUT~1\AppData\Local\Temp\cc7u0cQS.s 			page 81


 4528 09cc C0090000 		.4byte	0x9c0
 4529 09d0 03       		.uleb128 0x3
 4530 09d1 32030000 		.4byte	.LASF147
 4531 09d5 0D       		.byte	0xd
 4532 09d6 3F       		.byte	0x3f
 4533 09d7 DB090000 		.4byte	0x9db
 4534 09db 10       		.uleb128 0x10
 4535 09dc 450A0000 		.4byte	.LASF148
 4536 09e0 68       		.byte	0x68
 4537 09e1 0E       		.byte	0xe
 4538 09e2 C2       		.byte	0xc2
 4539 09e3 F90A0000 		.4byte	0xaf9
 4540 09e7 0D       		.uleb128 0xd
 4541 09e8 35110000 		.4byte	.LASF149
 4542 09ec 0E       		.byte	0xe
 4543 09ed C3       		.byte	0xc3
 4544 09ee 040B0000 		.4byte	0xb04
 4545 09f2 00       		.byte	0
 4546 09f3 0D       		.uleb128 0xd
 4547 09f4 C40D0000 		.4byte	.LASF150
 4548 09f8 0E       		.byte	0xe
 4549 09f9 C5       		.byte	0xc5
 4550 09fa 040B0000 		.4byte	0xb04
 4551 09fe 04       		.byte	0x4
 4552 09ff 0D       		.uleb128 0xd
 4553 0a00 74100000 		.4byte	.LASF151
 4554 0a04 0E       		.byte	0xe
 4555 0a05 C7       		.byte	0xc7
 4556 0a06 7E090000 		.4byte	0x97e
 4557 0a0a 08       		.byte	0x8
 4558 0a0b 0D       		.uleb128 0xd
 4559 0a0c CB0A0000 		.4byte	.LASF152
 4560 0a10 0E       		.byte	0xe
 4561 0a11 C8       		.byte	0xc8
 4562 0a12 0C150000 		.4byte	0x150c
 4563 0a16 0C       		.byte	0xc
 4564 0a17 0D       		.uleb128 0xd
 4565 0a18 95020000 		.4byte	.LASF153
 4566 0a1c 0E       		.byte	0xe
 4567 0a1d CA       		.byte	0xca
 4568 0a1e 040B0000 		.4byte	0xb04
 4569 0a22 10       		.byte	0x10
 4570 0a23 0D       		.uleb128 0xd
 4571 0a24 25210000 		.4byte	.LASF154
 4572 0a28 0E       		.byte	0xe
 4573 0a29 CB       		.byte	0xcb
 4574 0a2a 040B0000 		.4byte	0xb04
 4575 0a2e 14       		.byte	0x14
 4576 0a2f 0D       		.uleb128 0xd
 4577 0a30 481F0000 		.4byte	.LASF155
 4578 0a34 0E       		.byte	0xe
 4579 0a35 D2       		.byte	0xd2
 4580 0a36 DD050000 		.4byte	0x5dd
 4581 0a3a 18       		.byte	0x18
 4582 0a3b 0D       		.uleb128 0xd
 4583 0a3c FE190000 		.4byte	.LASF156
 4584 0a40 0E       		.byte	0xe
ARM GAS  C:\Users\PCHAUT~1\AppData\Local\Temp\cc7u0cQS.s 			page 82


 4585 0a41 D8       		.byte	0xd8
 4586 0a42 82180000 		.4byte	0x1882
 4587 0a46 1C       		.byte	0x1c
 4588 0a47 0D       		.uleb128 0xd
 4589 0a48 FF220000 		.4byte	.LASF157
 4590 0a4c 0E       		.byte	0xe
 4591 0a4d DD       		.byte	0xdd
 4592 0a4e 5D090000 		.4byte	0x95d
 4593 0a52 20       		.byte	0x20
 4594 0a53 0D       		.uleb128 0xd
 4595 0a54 8A1E0000 		.4byte	.LASF158
 4596 0a58 0E       		.byte	0xe
 4597 0a59 E1       		.byte	0xe1
 4598 0a5a 52090000 		.4byte	0x952
 4599 0a5e 21       		.byte	0x21
 4600 0a5f 0D       		.uleb128 0xd
 4601 0a60 62160000 		.4byte	.LASF159
 4602 0a64 0E       		.byte	0xe
 4603 0a65 E6       		.byte	0xe6
 4604 0a66 68090000 		.4byte	0x968
 4605 0a6a 22       		.byte	0x22
 4606 0a6b 0D       		.uleb128 0xd
 4607 0a6c 44140000 		.4byte	.LASF160
 4608 0a70 0E       		.byte	0xe
 4609 0a71 EC       		.byte	0xec
 4610 0a72 73090000 		.4byte	0x973
 4611 0a76 23       		.byte	0x23
 4612 0a77 0D       		.uleb128 0xd
 4613 0a78 5B160000 		.4byte	.LASF161
 4614 0a7c 0E       		.byte	0xe
 4615 0a7d F3       		.byte	0xf3
 4616 0a7e CB090000 		.4byte	0x9cb
 4617 0a82 24       		.byte	0x24
 4618 0a83 21       		.uleb128 0x21
 4619 0a84 705F7500 		.ascii	"p_u\000"
 4620 0a88 0E       		.byte	0xe
 4621 0a89 3101     		.2byte	0x131
 4622 0a8b B1170000 		.4byte	0x17b1
 4623 0a8f 28       		.byte	0x28
 4624 0a90 18       		.uleb128 0x18
 4625 0a91 B5040000 		.4byte	.LASF162
 4626 0a95 0E       		.byte	0xe
 4627 0a96 3601     		.2byte	0x136
 4628 0a98 0A0B0000 		.4byte	0xb0a
 4629 0a9c 2C       		.byte	0x2c
 4630 0a9d 18       		.uleb128 0x18
 4631 0a9e CA140000 		.4byte	.LASF163
 4632 0aa2 0E       		.byte	0xe
 4633 0aa3 3C01     		.2byte	0x13c
 4634 0aa5 2E0B0000 		.4byte	0xb2e
 4635 0aa9 30       		.byte	0x30
 4636 0aaa 18       		.uleb128 0x18
 4637 0aab 46070000 		.4byte	.LASF164
 4638 0aaf 0E       		.byte	0xe
 4639 0ab0 4001     		.2byte	0x140
 4640 0ab2 89090000 		.4byte	0x989
 4641 0ab6 38       		.byte	0x38
ARM GAS  C:\Users\PCHAUT~1\AppData\Local\Temp\cc7u0cQS.s 			page 83


 4642 0ab7 18       		.uleb128 0x18
 4643 0ab8 C01C0000 		.4byte	.LASF165
 4644 0abc 0E       		.byte	0xe
 4645 0abd 4601     		.2byte	0x146
 4646 0abf 94090000 		.4byte	0x994
 4647 0ac3 3C       		.byte	0x3c
 4648 0ac4 18       		.uleb128 0x18
 4649 0ac5 AF1E0000 		.4byte	.LASF166
 4650 0ac9 0E       		.byte	0xe
 4651 0aca 4D01     		.2byte	0x14d
 4652 0acc 7C180000 		.4byte	0x187c
 4653 0ad0 40       		.byte	0x40
 4654 0ad1 18       		.uleb128 0x18
 4655 0ad2 6F1B0000 		.4byte	.LASF167
 4656 0ad6 0E       		.byte	0xe
 4657 0ad7 5101     		.2byte	0x151
 4658 0ad9 7E090000 		.4byte	0x97e
 4659 0add 44       		.byte	0x44
 4660 0ade 18       		.uleb128 0x18
 4661 0adf A7110000 		.4byte	.LASF168
 4662 0ae3 0E       		.byte	0xe
 4663 0ae4 5801     		.2byte	0x158
 4664 0ae6 5D010000 		.4byte	0x15d
 4665 0aea 48       		.byte	0x48
 4666 0aeb 18       		.uleb128 0x18
 4667 0aec 3A230000 		.4byte	.LASF169
 4668 0af0 0E       		.byte	0xe
 4669 0af1 5E01     		.2byte	0x15e
 4670 0af3 62170000 		.4byte	0x1762
 4671 0af7 50       		.byte	0x50
 4672 0af8 00       		.byte	0
 4673 0af9 03       		.uleb128 0x3
 4674 0afa 7A210000 		.4byte	.LASF170
 4675 0afe 0D       		.byte	0xd
 4676 0aff 44       		.byte	0x44
 4677 0b00 040B0000 		.4byte	0xb04
 4678 0b04 05       		.uleb128 0x5
 4679 0b05 04       		.byte	0x4
 4680 0b06 D0090000 		.4byte	0x9d0
 4681 0b0a 03       		.uleb128 0x3
 4682 0b0b F4040000 		.4byte	.LASF171
 4683 0b0f 0D       		.byte	0xd
 4684 0b10 49       		.byte	0x49
 4685 0b11 150B0000 		.4byte	0xb15
 4686 0b15 10       		.uleb128 0x10
 4687 0b16 19230000 		.4byte	.LASF172
 4688 0b1a 04       		.byte	0x4
 4689 0b1b 0E       		.byte	0xe
 4690 0b1c B0       		.byte	0xb0
 4691 0b1d 2E0B0000 		.4byte	0xb2e
 4692 0b21 0D       		.uleb128 0xd
 4693 0b22 35110000 		.4byte	.LASF149
 4694 0b26 0E       		.byte	0xe
 4695 0b27 B1       		.byte	0xb1
 4696 0b28 040B0000 		.4byte	0xb04
 4697 0b2c 00       		.byte	0
 4698 0b2d 00       		.byte	0
ARM GAS  C:\Users\PCHAUT~1\AppData\Local\Temp\cc7u0cQS.s 			page 84


 4699 0b2e 03       		.uleb128 0x3
 4700 0b2f 31160000 		.4byte	.LASF173
 4701 0b33 0D       		.byte	0xd
 4702 0b34 50       		.byte	0x50
 4703 0b35 390B0000 		.4byte	0xb39
 4704 0b39 10       		.uleb128 0x10
 4705 0b3a 7A020000 		.4byte	.LASF174
 4706 0b3e 08       		.byte	0x8
 4707 0b3f 0E       		.byte	0xe
 4708 0b40 B7       		.byte	0xb7
 4709 0b41 5E0B0000 		.4byte	0xb5e
 4710 0b45 0D       		.uleb128 0xd
 4711 0b46 35110000 		.4byte	.LASF149
 4712 0b4a 0E       		.byte	0xe
 4713 0b4b B8       		.byte	0xb8
 4714 0b4c 040B0000 		.4byte	0xb04
 4715 0b50 00       		.byte	0
 4716 0b51 0D       		.uleb128 0xd
 4717 0b52 C40D0000 		.4byte	.LASF150
 4718 0b56 0E       		.byte	0xe
 4719 0b57 B9       		.byte	0xb9
 4720 0b58 040B0000 		.4byte	0xb04
 4721 0b5c 04       		.byte	0x4
 4722 0b5d 00       		.byte	0
 4723 0b5e 03       		.uleb128 0x3
 4724 0b5f 380A0000 		.4byte	.LASF175
 4725 0b63 0D       		.byte	0xd
 4726 0b64 57       		.byte	0x57
 4727 0b65 690B0000 		.4byte	0xb69
 4728 0b69 1B       		.uleb128 0x1b
 4729 0b6a 0B1C0000 		.4byte	.LASF176
 4730 0b6e 1C       		.byte	0x1c
 4731 0b6f 0E       		.byte	0xe
 4732 0b70 9001     		.2byte	0x190
 4733 0b72 C50B0000 		.4byte	0xbc5
 4734 0b76 18       		.uleb128 0x18
 4735 0b77 D3180000 		.4byte	.LASF177
 4736 0b7b 0E       		.byte	0xe
 4737 0b7c 9101     		.2byte	0x191
 4738 0b7e 2E0B0000 		.4byte	0xb2e
 4739 0b82 00       		.byte	0
 4740 0b83 18       		.uleb128 0x18
 4741 0b84 B51D0000 		.4byte	.LASF178
 4742 0b88 0E       		.byte	0xe
 4743 0b89 9201     		.2byte	0x192
 4744 0b8b 7E090000 		.4byte	0x97e
 4745 0b8f 08       		.byte	0x8
 4746 0b90 18       		.uleb128 0x18
 4747 0b91 C60C0000 		.4byte	.LASF179
 4748 0b95 0E       		.byte	0xe
 4749 0b96 9401     		.2byte	0x194
 4750 0b98 0C150000 		.4byte	0x150c
 4751 0b9c 0C       		.byte	0xc
 4752 0b9d 18       		.uleb128 0x18
 4753 0b9e 01130000 		.4byte	.LASF180
 4754 0ba2 0E       		.byte	0xe
 4755 0ba3 9701     		.2byte	0x197
ARM GAS  C:\Users\PCHAUT~1\AppData\Local\Temp\cc7u0cQS.s 			page 85


 4756 0ba5 040B0000 		.4byte	0xb04
 4757 0ba9 10       		.byte	0x10
 4758 0baa 18       		.uleb128 0x18
 4759 0bab BC0D0000 		.4byte	.LASF181
 4760 0baf 0E       		.byte	0xe
 4761 0bb0 9801     		.2byte	0x198
 4762 0bb2 040B0000 		.4byte	0xb04
 4763 0bb6 14       		.byte	0x14
 4764 0bb7 18       		.uleb128 0x18
 4765 0bb8 AD0F0000 		.4byte	.LASF182
 4766 0bbc 0E       		.byte	0xe
 4767 0bbd 9B01     		.2byte	0x19b
 4768 0bbf 040B0000 		.4byte	0xb04
 4769 0bc3 18       		.byte	0x18
 4770 0bc4 00       		.byte	0
 4771 0bc5 03       		.uleb128 0x3
 4772 0bc6 181B0000 		.4byte	.LASF183
 4773 0bca 0D       		.byte	0xd
 4774 0bcb 5C       		.byte	0x5c
 4775 0bcc D00B0000 		.4byte	0xbd0
 4776 0bd0 05       		.uleb128 0x5
 4777 0bd1 04       		.byte	0x4
 4778 0bd2 D60B0000 		.4byte	0xbd6
 4779 0bd6 1F       		.uleb128 0x1f
 4780 0bd7 E10B0000 		.4byte	0xbe1
 4781 0bdb 16       		.uleb128 0x16
 4782 0bdc 5D010000 		.4byte	0x15d
 4783 0be0 00       		.byte	0
 4784 0be1 03       		.uleb128 0x3
 4785 0be2 AA0C0000 		.4byte	.LASF184
 4786 0be6 0D       		.byte	0xd
 4787 0be7 61       		.byte	0x61
 4788 0be8 EC0B0000 		.4byte	0xbec
 4789 0bec 1B       		.uleb128 0x1b
 4790 0bed 791E0000 		.4byte	.LASF185
 4791 0bf1 14       		.byte	0x14
 4792 0bf2 0E       		.byte	0xe
 4793 0bf3 6B01     		.2byte	0x16b
 4794 0bf5 3B0C0000 		.4byte	0xc3b
 4795 0bf9 18       		.uleb128 0x18
 4796 0bfa CC0C0000 		.4byte	.LASF186
 4797 0bfe 0E       		.byte	0xe
 4798 0bff 6C01     		.2byte	0x16c
 4799 0c01 88180000 		.4byte	0x1888
 4800 0c05 00       		.byte	0
 4801 0c06 18       		.uleb128 0x18
 4802 0c07 ED090000 		.4byte	.LASF187
 4803 0c0b 0E       		.byte	0xe
 4804 0c0c 6D01     		.2byte	0x16d
 4805 0c0e 88180000 		.4byte	0x1888
 4806 0c12 04       		.byte	0x4
 4807 0c13 18       		.uleb128 0x18
 4808 0c14 B6130000 		.4byte	.LASF188
 4809 0c18 0E       		.byte	0xe
 4810 0c19 6E01     		.2byte	0x16e
 4811 0c1b C0090000 		.4byte	0x9c0
 4812 0c1f 08       		.byte	0x8
ARM GAS  C:\Users\PCHAUT~1\AppData\Local\Temp\cc7u0cQS.s 			page 86


 4813 0c20 18       		.uleb128 0x18
 4814 0c21 641E0000 		.4byte	.LASF189
 4815 0c25 0E       		.byte	0xe
 4816 0c26 6F01     		.2byte	0x16f
 4817 0c28 C50B0000 		.4byte	0xbc5
 4818 0c2c 0C       		.byte	0xc
 4819 0c2d 18       		.uleb128 0x18
 4820 0c2e D10A0000 		.4byte	.LASF190
 4821 0c32 0E       		.byte	0xe
 4822 0c33 7101     		.2byte	0x171
 4823 0c35 5D010000 		.4byte	0x15d
 4824 0c39 10       		.byte	0x10
 4825 0c3a 00       		.byte	0
 4826 0c3b 03       		.uleb128 0x3
 4827 0c3c A21F0000 		.4byte	.LASF191
 4828 0c40 0D       		.byte	0xd
 4829 0c41 66       		.byte	0x66
 4830 0c42 460C0000 		.4byte	0xc46
 4831 0c46 1B       		.uleb128 0x1b
 4832 0c47 5C030000 		.4byte	.LASF192
 4833 0c4b 10       		.byte	0x10
 4834 0c4c 0E       		.byte	0xe
 4835 0c4d 7B01     		.2byte	0x17b
 4836 0c4f 880C0000 		.4byte	0xc88
 4837 0c53 18       		.uleb128 0x18
 4838 0c54 CC0C0000 		.4byte	.LASF186
 4839 0c58 0E       		.byte	0xe
 4840 0c59 7C01     		.2byte	0x17c
 4841 0c5b 88180000 		.4byte	0x1888
 4842 0c5f 00       		.byte	0
 4843 0c60 18       		.uleb128 0x18
 4844 0c61 ED090000 		.4byte	.LASF187
 4845 0c65 0E       		.byte	0xe
 4846 0c66 7E01     		.2byte	0x17e
 4847 0c68 88180000 		.4byte	0x1888
 4848 0c6c 04       		.byte	0x4
 4849 0c6d 18       		.uleb128 0x18
 4850 0c6e B6130000 		.4byte	.LASF188
 4851 0c72 0E       		.byte	0xe
 4852 0c73 8001     		.2byte	0x180
 4853 0c75 C0090000 		.4byte	0x9c0
 4854 0c79 08       		.byte	0x8
 4855 0c7a 18       		.uleb128 0x18
 4856 0c7b 8B010000 		.4byte	.LASF193
 4857 0c7f 0E       		.byte	0xe
 4858 0c80 8201     		.2byte	0x182
 4859 0c82 CB090000 		.4byte	0x9cb
 4860 0c86 0C       		.byte	0xc
 4861 0c87 00       		.byte	0
 4862 0c88 03       		.uleb128 0x3
 4863 0c89 A90A0000 		.4byte	.LASF194
 4864 0c8d 0D       		.byte	0xd
 4865 0c8e 6B       		.byte	0x6b
 4866 0c8f 930C0000 		.4byte	0xc93
 4867 0c93 17       		.uleb128 0x17
 4868 0c94 341C0000 		.4byte	.LASF195
 4869 0c98 1404     		.2byte	0x414
ARM GAS  C:\Users\PCHAUT~1\AppData\Local\Temp\cc7u0cQS.s 			page 87


 4870 0c9a 0E       		.byte	0xe
 4871 0c9b A201     		.2byte	0x1a2
 4872 0c9d D60C0000 		.4byte	0xcd6
 4873 0ca1 18       		.uleb128 0x18
 4874 0ca2 E3120000 		.4byte	.LASF196
 4875 0ca6 0E       		.byte	0xe
 4876 0ca7 AA01     		.2byte	0x1aa
 4877 0ca9 E3050000 		.4byte	0x5e3
 4878 0cad 00       		.byte	0
 4879 0cae 18       		.uleb128 0x18
 4880 0caf B0120000 		.4byte	.LASF197
 4881 0cb3 0E       		.byte	0xe
 4882 0cb4 AF01     		.2byte	0x1af
 4883 0cb6 AA090000 		.4byte	0x9aa
 4884 0cba 04       		.byte	0x4
 4885 0cbb 18       		.uleb128 0x18
 4886 0cbc 71020000 		.4byte	.LASF198
 4887 0cc0 0E       		.byte	0xe
 4888 0cc1 B301     		.2byte	0x1b3
 4889 0cc3 AA090000 		.4byte	0x9aa
 4890 0cc7 08       		.byte	0x8
 4891 0cc8 18       		.uleb128 0x18
 4892 0cc9 B3150000 		.4byte	.LASF199
 4893 0ccd 0E       		.byte	0xe
 4894 0cce B901     		.2byte	0x1b9
 4895 0cd0 F4160000 		.4byte	0x16f4
 4896 0cd4 0C       		.byte	0xc
 4897 0cd5 00       		.byte	0
 4898 0cd6 03       		.uleb128 0x3
 4899 0cd7 08010000 		.4byte	.LASF200
 4900 0cdb 0D       		.byte	0xd
 4901 0cdc 70       		.byte	0x70
 4902 0cdd E10C0000 		.4byte	0xce1
 4903 0ce1 17       		.uleb128 0x17
 4904 0ce2 A3150000 		.4byte	.LASF201
 4905 0ce6 7006     		.2byte	0x670
 4906 0ce8 0E       		.byte	0xe
 4907 0ce9 C201     		.2byte	0x1c2
 4908 0ceb 4E0D0000 		.4byte	0xd4e
 4909 0cef 18       		.uleb128 0x18
 4910 0cf0 EE040000 		.4byte	.LASF202
 4911 0cf4 0E       		.byte	0xe
 4912 0cf5 C601     		.2byte	0x1c6
 4913 0cf7 5E0B0000 		.4byte	0xb5e
 4914 0cfb 00       		.byte	0
 4915 0cfc 18       		.uleb128 0x18
 4916 0cfd 9F040000 		.4byte	.LASF203
 4917 0d01 0E       		.byte	0xe
 4918 0d02 CA01     		.2byte	0x1ca
 4919 0d04 3B0C0000 		.4byte	0xc3b
 4920 0d08 1C       		.byte	0x1c
 4921 0d09 21       		.uleb128 0x21
 4922 0d0a 64626700 		.ascii	"dbg\000"
 4923 0d0e 0E       		.byte	0xe
 4924 0d0f CE01     		.2byte	0x1ce
 4925 0d11 880C0000 		.4byte	0xc88
 4926 0d15 2C       		.byte	0x2c
ARM GAS  C:\Users\PCHAUT~1\AppData\Local\Temp\cc7u0cQS.s 			page 88


 4927 0d16 19       		.uleb128 0x19
 4928 0d17 8C160000 		.4byte	.LASF204
 4929 0d1b 0E       		.byte	0xe
 4930 0d1c D201     		.2byte	0x1d2
 4931 0d1e D0090000 		.4byte	0x9d0
 4932 0d22 4004     		.2byte	0x440
 4933 0d24 22       		.uleb128 0x22
 4934 0d25 746D00   		.ascii	"tm\000"
 4935 0d28 0E       		.byte	0xe
 4936 0d29 D701     		.2byte	0x1d7
 4937 0d2b 14170000 		.4byte	0x1714
 4938 0d2f A804     		.2byte	0x4a8
 4939 0d31 19       		.uleb128 0x19
 4940 0d32 E3190000 		.4byte	.LASF205
 4941 0d36 0E       		.byte	0xe
 4942 0d37 DD01     		.2byte	0x1dd
 4943 0d39 A6170000 		.4byte	0x17a6
 4944 0d3d B004     		.2byte	0x4b0
 4945 0d3f 19       		.uleb128 0x19
 4946 0d40 411E0000 		.4byte	.LASF206
 4947 0d44 0E       		.byte	0xe
 4948 0d45 E301     		.2byte	0x1e3
 4949 0d47 8E180000 		.4byte	0x188e
 4950 0d4b E804     		.2byte	0x4e8
 4951 0d4d 00       		.byte	0
 4952 0d4e 0A       		.uleb128 0xa
 4953 0d4f 1C090000 		.4byte	0x91c
 4954 0d53 5E0D0000 		.4byte	0xd5e
 4955 0d57 0B       		.uleb128 0xb
 4956 0d58 37000000 		.4byte	0x37
 4957 0d5c 01       		.byte	0x1
 4958 0d5d 00       		.byte	0
 4959 0d5e 0A       		.uleb128 0xa
 4960 0d5f 1C090000 		.4byte	0x91c
 4961 0d63 6E0D0000 		.4byte	0xd6e
 4962 0d67 0B       		.uleb128 0xb
 4963 0d68 37000000 		.4byte	0x37
 4964 0d6c 07       		.byte	0x7
 4965 0d6d 00       		.byte	0
 4966 0d6e 20       		.uleb128 0x20
 4967 0d6f C31D0000 		.4byte	.LASF207
 4968 0d73 0F       		.byte	0xf
 4969 0d74 A706     		.2byte	0x6a7
 4970 0d76 17090000 		.4byte	0x917
 4971 0d7a 23       		.uleb128 0x23
 4972 0d7b FE140000 		.4byte	.LASF208
 4973 0d7f 10       		.byte	0x10
 4974 0d80 4C       		.byte	0x4c
 4975 0d81 1C090000 		.4byte	0x91c
 4976 0d85 0C       		.uleb128 0xc
 4977 0d86 50       		.byte	0x50
 4978 0d87 11       		.byte	0x11
 4979 0d88 C4       		.byte	0xc4
 4980 0d89 7C0E0000 		.4byte	0xe7c
 4981 0d8d 11       		.uleb128 0x11
 4982 0d8e 535200   		.ascii	"SR\000"
 4983 0d91 11       		.byte	0x11
ARM GAS  C:\Users\PCHAUT~1\AppData\Local\Temp\cc7u0cQS.s 			page 89


 4984 0d92 C6       		.byte	0xc6
 4985 0d93 27090000 		.4byte	0x927
 4986 0d97 00       		.byte	0
 4987 0d98 11       		.uleb128 0x11
 4988 0d99 43523100 		.ascii	"CR1\000"
 4989 0d9d 11       		.byte	0x11
 4990 0d9e C7       		.byte	0xc7
 4991 0d9f 27090000 		.4byte	0x927
 4992 0da3 04       		.byte	0x4
 4993 0da4 11       		.uleb128 0x11
 4994 0da5 43523200 		.ascii	"CR2\000"
 4995 0da9 11       		.byte	0x11
 4996 0daa C8       		.byte	0xc8
 4997 0dab 27090000 		.4byte	0x927
 4998 0daf 08       		.byte	0x8
 4999 0db0 0D       		.uleb128 0xd
 5000 0db1 A8020000 		.4byte	.LASF209
 5001 0db5 11       		.byte	0x11
 5002 0db6 C9       		.byte	0xc9
 5003 0db7 27090000 		.4byte	0x927
 5004 0dbb 0C       		.byte	0xc
 5005 0dbc 0D       		.uleb128 0xd
 5006 0dbd AE020000 		.4byte	.LASF210
 5007 0dc1 11       		.byte	0x11
 5008 0dc2 CA       		.byte	0xca
 5009 0dc3 27090000 		.4byte	0x927
 5010 0dc7 10       		.byte	0x10
 5011 0dc8 0D       		.uleb128 0xd
 5012 0dc9 D80A0000 		.4byte	.LASF211
 5013 0dcd 11       		.byte	0x11
 5014 0dce CB       		.byte	0xcb
 5015 0dcf 27090000 		.4byte	0x927
 5016 0dd3 14       		.byte	0x14
 5017 0dd4 0D       		.uleb128 0xd
 5018 0dd5 DE0A0000 		.4byte	.LASF212
 5019 0dd9 11       		.byte	0x11
 5020 0dda CC       		.byte	0xcc
 5021 0ddb 27090000 		.4byte	0x927
 5022 0ddf 18       		.byte	0x18
 5023 0de0 0D       		.uleb128 0xd
 5024 0de1 53100000 		.4byte	.LASF213
 5025 0de5 11       		.byte	0x11
 5026 0de6 CD       		.byte	0xcd
 5027 0de7 27090000 		.4byte	0x927
 5028 0deb 1C       		.byte	0x1c
 5029 0dec 0D       		.uleb128 0xd
 5030 0ded E40A0000 		.4byte	.LASF214
 5031 0df1 11       		.byte	0x11
 5032 0df2 CE       		.byte	0xce
 5033 0df3 27090000 		.4byte	0x927
 5034 0df7 20       		.byte	0x20
 5035 0df8 11       		.uleb128 0x11
 5036 0df9 48545200 		.ascii	"HTR\000"
 5037 0dfd 11       		.byte	0x11
 5038 0dfe CF       		.byte	0xcf
 5039 0dff 27090000 		.4byte	0x927
 5040 0e03 24       		.byte	0x24
ARM GAS  C:\Users\PCHAUT~1\AppData\Local\Temp\cc7u0cQS.s 			page 90


 5041 0e04 11       		.uleb128 0x11
 5042 0e05 4C545200 		.ascii	"LTR\000"
 5043 0e09 11       		.byte	0x11
 5044 0e0a D0       		.byte	0xd0
 5045 0e0b 27090000 		.4byte	0x927
 5046 0e0f 28       		.byte	0x28
 5047 0e10 0D       		.uleb128 0xd
 5048 0e11 18120000 		.4byte	.LASF215
 5049 0e15 11       		.byte	0x11
 5050 0e16 D1       		.byte	0xd1
 5051 0e17 27090000 		.4byte	0x927
 5052 0e1b 2C       		.byte	0x2c
 5053 0e1c 0D       		.uleb128 0xd
 5054 0e1d 1D120000 		.4byte	.LASF216
 5055 0e21 11       		.byte	0x11
 5056 0e22 D2       		.byte	0xd2
 5057 0e23 27090000 		.4byte	0x927
 5058 0e27 30       		.byte	0x30
 5059 0e28 0D       		.uleb128 0xd
 5060 0e29 22120000 		.4byte	.LASF217
 5061 0e2d 11       		.byte	0x11
 5062 0e2e D3       		.byte	0xd3
 5063 0e2f 27090000 		.4byte	0x927
 5064 0e33 34       		.byte	0x34
 5065 0e34 0D       		.uleb128 0xd
 5066 0e35 830C0000 		.4byte	.LASF218
 5067 0e39 11       		.byte	0x11
 5068 0e3a D4       		.byte	0xd4
 5069 0e3b 27090000 		.4byte	0x927
 5070 0e3f 38       		.byte	0x38
 5071 0e40 0D       		.uleb128 0xd
 5072 0e41 671F0000 		.4byte	.LASF219
 5073 0e45 11       		.byte	0x11
 5074 0e46 D5       		.byte	0xd5
 5075 0e47 27090000 		.4byte	0x927
 5076 0e4b 3C       		.byte	0x3c
 5077 0e4c 0D       		.uleb128 0xd
 5078 0e4d 6C1F0000 		.4byte	.LASF220
 5079 0e51 11       		.byte	0x11
 5080 0e52 D6       		.byte	0xd6
 5081 0e53 27090000 		.4byte	0x927
 5082 0e57 40       		.byte	0x40
 5083 0e58 0D       		.uleb128 0xd
 5084 0e59 711F0000 		.4byte	.LASF221
 5085 0e5d 11       		.byte	0x11
 5086 0e5e D7       		.byte	0xd7
 5087 0e5f 27090000 		.4byte	0x927
 5088 0e63 44       		.byte	0x44
 5089 0e64 0D       		.uleb128 0xd
 5090 0e65 761F0000 		.4byte	.LASF222
 5091 0e69 11       		.byte	0x11
 5092 0e6a D8       		.byte	0xd8
 5093 0e6b 27090000 		.4byte	0x927
 5094 0e6f 48       		.byte	0x48
 5095 0e70 11       		.uleb128 0x11
 5096 0e71 445200   		.ascii	"DR\000"
 5097 0e74 11       		.byte	0x11
ARM GAS  C:\Users\PCHAUT~1\AppData\Local\Temp\cc7u0cQS.s 			page 91


 5098 0e75 D9       		.byte	0xd9
 5099 0e76 27090000 		.4byte	0x927
 5100 0e7a 4C       		.byte	0x4c
 5101 0e7b 00       		.byte	0
 5102 0e7c 03       		.uleb128 0x3
 5103 0e7d FD130000 		.4byte	.LASF223
 5104 0e81 11       		.byte	0x11
 5105 0e82 DA       		.byte	0xda
 5106 0e83 850D0000 		.4byte	0xd85
 5107 0e87 0C       		.uleb128 0xc
 5108 0e88 10       		.byte	0x10
 5109 0e89 11       		.byte	0x11
 5110 0e8a E9       		.byte	0xe9
 5111 0e8b C00E0000 		.4byte	0xec0
 5112 0e8f 11       		.uleb128 0x11
 5113 0e90 54495200 		.ascii	"TIR\000"
 5114 0e94 11       		.byte	0x11
 5115 0e95 EB       		.byte	0xeb
 5116 0e96 27090000 		.4byte	0x927
 5117 0e9a 00       		.byte	0
 5118 0e9b 0D       		.uleb128 0xd
 5119 0e9c 1A100000 		.4byte	.LASF224
 5120 0ea0 11       		.byte	0x11
 5121 0ea1 EC       		.byte	0xec
 5122 0ea2 27090000 		.4byte	0x927
 5123 0ea6 04       		.byte	0x4
 5124 0ea7 0D       		.uleb128 0xd
 5125 0ea8 7E160000 		.4byte	.LASF225
 5126 0eac 11       		.byte	0x11
 5127 0ead ED       		.byte	0xed
 5128 0eae 27090000 		.4byte	0x927
 5129 0eb2 08       		.byte	0x8
 5130 0eb3 0D       		.uleb128 0xd
 5131 0eb4 5F140000 		.4byte	.LASF226
 5132 0eb8 11       		.byte	0x11
 5133 0eb9 EE       		.byte	0xee
 5134 0eba 27090000 		.4byte	0x927
 5135 0ebe 0C       		.byte	0xc
 5136 0ebf 00       		.byte	0
 5137 0ec0 03       		.uleb128 0x3
 5138 0ec1 D8040000 		.4byte	.LASF227
 5139 0ec5 11       		.byte	0x11
 5140 0ec6 EF       		.byte	0xef
 5141 0ec7 870E0000 		.4byte	0xe87
 5142 0ecb 0C       		.uleb128 0xc
 5143 0ecc 10       		.byte	0x10
 5144 0ecd 11       		.byte	0x11
 5145 0ece F5       		.byte	0xf5
 5146 0ecf 040F0000 		.4byte	0xf04
 5147 0ed3 11       		.uleb128 0x11
 5148 0ed4 52495200 		.ascii	"RIR\000"
 5149 0ed8 11       		.byte	0x11
 5150 0ed9 F7       		.byte	0xf7
 5151 0eda 27090000 		.4byte	0x927
 5152 0ede 00       		.byte	0
 5153 0edf 0D       		.uleb128 0xd
 5154 0ee0 EE1B0000 		.4byte	.LASF228
ARM GAS  C:\Users\PCHAUT~1\AppData\Local\Temp\cc7u0cQS.s 			page 92


 5155 0ee4 11       		.byte	0x11
 5156 0ee5 F8       		.byte	0xf8
 5157 0ee6 27090000 		.4byte	0x927
 5158 0eea 04       		.byte	0x4
 5159 0eeb 0D       		.uleb128 0xd
 5160 0eec A5170000 		.4byte	.LASF229
 5161 0ef0 11       		.byte	0x11
 5162 0ef1 F9       		.byte	0xf9
 5163 0ef2 27090000 		.4byte	0x927
 5164 0ef6 08       		.byte	0x8
 5165 0ef7 0D       		.uleb128 0xd
 5166 0ef8 90150000 		.4byte	.LASF230
 5167 0efc 11       		.byte	0x11
 5168 0efd FA       		.byte	0xfa
 5169 0efe 27090000 		.4byte	0x927
 5170 0f02 0C       		.byte	0xc
 5171 0f03 00       		.byte	0
 5172 0f04 03       		.uleb128 0x3
 5173 0f05 211B0000 		.4byte	.LASF231
 5174 0f09 11       		.byte	0x11
 5175 0f0a FB       		.byte	0xfb
 5176 0f0b CB0E0000 		.4byte	0xecb
 5177 0f0f 1C       		.uleb128 0x1c
 5178 0f10 08       		.byte	0x8
 5179 0f11 11       		.byte	0x11
 5180 0f12 0101     		.2byte	0x101
 5181 0f14 330F0000 		.4byte	0xf33
 5182 0f18 21       		.uleb128 0x21
 5183 0f19 46523100 		.ascii	"FR1\000"
 5184 0f1d 11       		.byte	0x11
 5185 0f1e 0301     		.2byte	0x103
 5186 0f20 27090000 		.4byte	0x927
 5187 0f24 00       		.byte	0
 5188 0f25 21       		.uleb128 0x21
 5189 0f26 46523200 		.ascii	"FR2\000"
 5190 0f2a 11       		.byte	0x11
 5191 0f2b 0401     		.2byte	0x104
 5192 0f2d 27090000 		.4byte	0x927
 5193 0f31 04       		.byte	0x4
 5194 0f32 00       		.byte	0
 5195 0f33 07       		.uleb128 0x7
 5196 0f34 1F100000 		.4byte	.LASF232
 5197 0f38 11       		.byte	0x11
 5198 0f39 0501     		.2byte	0x105
 5199 0f3b 0F0F0000 		.4byte	0xf0f
 5200 0f3f 24       		.uleb128 0x24
 5201 0f40 2003     		.2byte	0x320
 5202 0f42 11       		.byte	0x11
 5203 0f43 0B01     		.2byte	0x10b
 5204 0f45 75100000 		.4byte	0x1075
 5205 0f49 21       		.uleb128 0x21
 5206 0f4a 4D435200 		.ascii	"MCR\000"
 5207 0f4e 11       		.byte	0x11
 5208 0f4f 0D01     		.2byte	0x10d
 5209 0f51 27090000 		.4byte	0x927
 5210 0f55 00       		.byte	0
 5211 0f56 21       		.uleb128 0x21
ARM GAS  C:\Users\PCHAUT~1\AppData\Local\Temp\cc7u0cQS.s 			page 93


 5212 0f57 4D535200 		.ascii	"MSR\000"
 5213 0f5b 11       		.byte	0x11
 5214 0f5c 0E01     		.2byte	0x10e
 5215 0f5e 27090000 		.4byte	0x927
 5216 0f62 04       		.byte	0x4
 5217 0f63 21       		.uleb128 0x21
 5218 0f64 54535200 		.ascii	"TSR\000"
 5219 0f68 11       		.byte	0x11
 5220 0f69 0F01     		.2byte	0x10f
 5221 0f6b 27090000 		.4byte	0x927
 5222 0f6f 08       		.byte	0x8
 5223 0f70 18       		.uleb128 0x18
 5224 0f71 8D0E0000 		.4byte	.LASF233
 5225 0f75 11       		.byte	0x11
 5226 0f76 1001     		.2byte	0x110
 5227 0f78 27090000 		.4byte	0x927
 5228 0f7c 0C       		.byte	0xc
 5229 0f7d 18       		.uleb128 0x18
 5230 0f7e E1170000 		.4byte	.LASF234
 5231 0f82 11       		.byte	0x11
 5232 0f83 1101     		.2byte	0x111
 5233 0f85 27090000 		.4byte	0x927
 5234 0f89 10       		.byte	0x10
 5235 0f8a 21       		.uleb128 0x21
 5236 0f8b 49455200 		.ascii	"IER\000"
 5237 0f8f 11       		.byte	0x11
 5238 0f90 1201     		.2byte	0x112
 5239 0f92 27090000 		.4byte	0x927
 5240 0f96 14       		.byte	0x14
 5241 0f97 21       		.uleb128 0x21
 5242 0f98 45535200 		.ascii	"ESR\000"
 5243 0f9c 11       		.byte	0x11
 5244 0f9d 1301     		.2byte	0x113
 5245 0f9f 27090000 		.4byte	0x927
 5246 0fa3 18       		.byte	0x18
 5247 0fa4 21       		.uleb128 0x21
 5248 0fa5 42545200 		.ascii	"BTR\000"
 5249 0fa9 11       		.byte	0x11
 5250 0faa 1401     		.2byte	0x114
 5251 0fac 27090000 		.4byte	0x927
 5252 0fb0 1C       		.byte	0x1c
 5253 0fb1 18       		.uleb128 0x18
 5254 0fb2 F11C0000 		.4byte	.LASF235
 5255 0fb6 11       		.byte	0x11
 5256 0fb7 1501     		.2byte	0x115
 5257 0fb9 75100000 		.4byte	0x1075
 5258 0fbd 20       		.byte	0x20
 5259 0fbe 19       		.uleb128 0x19
 5260 0fbf 07110000 		.4byte	.LASF236
 5261 0fc3 11       		.byte	0x11
 5262 0fc4 1601     		.2byte	0x116
 5263 0fc6 85100000 		.4byte	0x1085
 5264 0fca 8001     		.2byte	0x180
 5265 0fcc 19       		.uleb128 0x19
 5266 0fcd C8200000 		.4byte	.LASF237
 5267 0fd1 11       		.byte	0x11
 5268 0fd2 1701     		.2byte	0x117
ARM GAS  C:\Users\PCHAUT~1\AppData\Local\Temp\cc7u0cQS.s 			page 94


 5269 0fd4 95100000 		.4byte	0x1095
 5270 0fd8 B001     		.2byte	0x1b0
 5271 0fda 19       		.uleb128 0x19
 5272 0fdb FB1C0000 		.4byte	.LASF238
 5273 0fdf 11       		.byte	0x11
 5274 0fe0 1801     		.2byte	0x118
 5275 0fe2 A5100000 		.4byte	0x10a5
 5276 0fe6 D001     		.2byte	0x1d0
 5277 0fe8 22       		.uleb128 0x22
 5278 0fe9 464D5200 		.ascii	"FMR\000"
 5279 0fed 11       		.byte	0x11
 5280 0fee 1901     		.2byte	0x119
 5281 0ff0 27090000 		.4byte	0x927
 5282 0ff4 0002     		.2byte	0x200
 5283 0ff6 19       		.uleb128 0x19
 5284 0ff7 410B0000 		.4byte	.LASF239
 5285 0ffb 11       		.byte	0x11
 5286 0ffc 1A01     		.2byte	0x11a
 5287 0ffe 27090000 		.4byte	0x927
 5288 1002 0402     		.2byte	0x204
 5289 1004 19       		.uleb128 0x19
 5290 1005 051D0000 		.4byte	.LASF240
 5291 1009 11       		.byte	0x11
 5292 100a 1B01     		.2byte	0x11b
 5293 100c 1C090000 		.4byte	0x91c
 5294 1010 0802     		.2byte	0x208
 5295 1012 19       		.uleb128 0x19
 5296 1013 BF1E0000 		.4byte	.LASF241
 5297 1017 11       		.byte	0x11
 5298 1018 1C01     		.2byte	0x11c
 5299 101a 27090000 		.4byte	0x927
 5300 101e 0C02     		.2byte	0x20c
 5301 1020 19       		.uleb128 0x19
 5302 1021 0F1D0000 		.4byte	.LASF242
 5303 1025 11       		.byte	0x11
 5304 1026 1D01     		.2byte	0x11d
 5305 1028 1C090000 		.4byte	0x91c
 5306 102c 1002     		.2byte	0x210
 5307 102e 19       		.uleb128 0x19
 5308 102f DB170000 		.4byte	.LASF243
 5309 1033 11       		.byte	0x11
 5310 1034 1E01     		.2byte	0x11e
 5311 1036 27090000 		.4byte	0x927
 5312 103a 1402     		.2byte	0x214
 5313 103c 19       		.uleb128 0x19
 5314 103d 191D0000 		.4byte	.LASF244
 5315 1041 11       		.byte	0x11
 5316 1042 1F01     		.2byte	0x11f
 5317 1044 1C090000 		.4byte	0x91c
 5318 1048 1802     		.2byte	0x218
 5319 104a 19       		.uleb128 0x19
 5320 104b E4030000 		.4byte	.LASF245
 5321 104f 11       		.byte	0x11
 5322 1050 2001     		.2byte	0x120
 5323 1052 27090000 		.4byte	0x927
 5324 1056 1C02     		.2byte	0x21c
 5325 1058 19       		.uleb128 0x19
ARM GAS  C:\Users\PCHAUT~1\AppData\Local\Temp\cc7u0cQS.s 			page 95


 5326 1059 231D0000 		.4byte	.LASF246
 5327 105d 11       		.byte	0x11
 5328 105e 2101     		.2byte	0x121
 5329 1060 5E0D0000 		.4byte	0xd5e
 5330 1064 2002     		.2byte	0x220
 5331 1066 19       		.uleb128 0x19
 5332 1067 87050000 		.4byte	.LASF247
 5333 106b 11       		.byte	0x11
 5334 106c 2201     		.2byte	0x122
 5335 106e B5100000 		.4byte	0x10b5
 5336 1072 4002     		.2byte	0x240
 5337 1074 00       		.byte	0
 5338 1075 0A       		.uleb128 0xa
 5339 1076 1C090000 		.4byte	0x91c
 5340 107a 85100000 		.4byte	0x1085
 5341 107e 0B       		.uleb128 0xb
 5342 107f 37000000 		.4byte	0x37
 5343 1083 57       		.byte	0x57
 5344 1084 00       		.byte	0
 5345 1085 0A       		.uleb128 0xa
 5346 1086 C00E0000 		.4byte	0xec0
 5347 108a 95100000 		.4byte	0x1095
 5348 108e 0B       		.uleb128 0xb
 5349 108f 37000000 		.4byte	0x37
 5350 1093 02       		.byte	0x2
 5351 1094 00       		.byte	0
 5352 1095 0A       		.uleb128 0xa
 5353 1096 040F0000 		.4byte	0xf04
 5354 109a A5100000 		.4byte	0x10a5
 5355 109e 0B       		.uleb128 0xb
 5356 109f 37000000 		.4byte	0x37
 5357 10a3 01       		.byte	0x1
 5358 10a4 00       		.byte	0
 5359 10a5 0A       		.uleb128 0xa
 5360 10a6 1C090000 		.4byte	0x91c
 5361 10aa B5100000 		.4byte	0x10b5
 5362 10ae 0B       		.uleb128 0xb
 5363 10af 37000000 		.4byte	0x37
 5364 10b3 0B       		.byte	0xb
 5365 10b4 00       		.byte	0
 5366 10b5 0A       		.uleb128 0xa
 5367 10b6 330F0000 		.4byte	0xf33
 5368 10ba C5100000 		.4byte	0x10c5
 5369 10be 0B       		.uleb128 0xb
 5370 10bf 37000000 		.4byte	0x37
 5371 10c3 1B       		.byte	0x1b
 5372 10c4 00       		.byte	0
 5373 10c5 07       		.uleb128 0x7
 5374 10c6 280D0000 		.4byte	.LASF248
 5375 10ca 11       		.byte	0x11
 5376 10cb 2301     		.2byte	0x123
 5377 10cd 3F0F0000 		.4byte	0xf3f
 5378 10d1 1C       		.uleb128 0x1c
 5379 10d2 38       		.byte	0x38
 5380 10d3 11       		.byte	0x11
 5381 10d4 3601     		.2byte	0x136
 5382 10d6 8F110000 		.4byte	0x118f
ARM GAS  C:\Users\PCHAUT~1\AppData\Local\Temp\cc7u0cQS.s 			page 96


 5383 10da 21       		.uleb128 0x21
 5384 10db 435200   		.ascii	"CR\000"
 5385 10de 11       		.byte	0x11
 5386 10df 3801     		.2byte	0x138
 5387 10e1 27090000 		.4byte	0x927
 5388 10e5 00       		.byte	0
 5389 10e6 18       		.uleb128 0x18
 5390 10e7 6A150000 		.4byte	.LASF249
 5391 10eb 11       		.byte	0x11
 5392 10ec 3901     		.2byte	0x139
 5393 10ee 27090000 		.4byte	0x927
 5394 10f2 04       		.byte	0x4
 5395 10f3 18       		.uleb128 0x18
 5396 10f4 3F1D0000 		.4byte	.LASF250
 5397 10f8 11       		.byte	0x11
 5398 10f9 3A01     		.2byte	0x13a
 5399 10fb 27090000 		.4byte	0x927
 5400 10ff 08       		.byte	0x8
 5401 1100 18       		.uleb128 0x18
 5402 1101 B1190000 		.4byte	.LASF251
 5403 1105 11       		.byte	0x11
 5404 1106 3B01     		.2byte	0x13b
 5405 1108 27090000 		.4byte	0x927
 5406 110c 0C       		.byte	0xc
 5407 110d 18       		.uleb128 0x18
 5408 110e B80A0000 		.4byte	.LASF252
 5409 1112 11       		.byte	0x11
 5410 1113 3C01     		.2byte	0x13c
 5411 1115 27090000 		.4byte	0x927
 5412 1119 10       		.byte	0x10
 5413 111a 18       		.uleb128 0x18
 5414 111b 471D0000 		.4byte	.LASF253
 5415 111f 11       		.byte	0x11
 5416 1120 3D01     		.2byte	0x13d
 5417 1122 27090000 		.4byte	0x927
 5418 1126 14       		.byte	0x14
 5419 1127 18       		.uleb128 0x18
 5420 1128 B9190000 		.4byte	.LASF254
 5421 112c 11       		.byte	0x11
 5422 112d 3E01     		.2byte	0x13e
 5423 112f 27090000 		.4byte	0x927
 5424 1133 18       		.byte	0x18
 5425 1134 18       		.uleb128 0x18
 5426 1135 BF0A0000 		.4byte	.LASF255
 5427 1139 11       		.byte	0x11
 5428 113a 3F01     		.2byte	0x13f
 5429 113c 27090000 		.4byte	0x927
 5430 1140 1C       		.byte	0x1c
 5431 1141 18       		.uleb128 0x18
 5432 1142 8E1D0000 		.4byte	.LASF256
 5433 1146 11       		.byte	0x11
 5434 1147 4001     		.2byte	0x140
 5435 1149 27090000 		.4byte	0x927
 5436 114d 20       		.byte	0x20
 5437 114e 18       		.uleb128 0x18
 5438 114f DB190000 		.4byte	.LASF257
 5439 1153 11       		.byte	0x11
ARM GAS  C:\Users\PCHAUT~1\AppData\Local\Temp\cc7u0cQS.s 			page 97


 5440 1154 4101     		.2byte	0x141
 5441 1156 27090000 		.4byte	0x927
 5442 115a 24       		.byte	0x24
 5443 115b 18       		.uleb128 0x18
 5444 115c DF200000 		.4byte	.LASF258
 5445 1160 11       		.byte	0x11
 5446 1161 4201     		.2byte	0x142
 5447 1163 27090000 		.4byte	0x927
 5448 1167 28       		.byte	0x28
 5449 1168 18       		.uleb128 0x18
 5450 1169 96010000 		.4byte	.LASF259
 5451 116d 11       		.byte	0x11
 5452 116e 4301     		.2byte	0x143
 5453 1170 27090000 		.4byte	0x927
 5454 1174 2C       		.byte	0x2c
 5455 1175 18       		.uleb128 0x18
 5456 1176 9B010000 		.4byte	.LASF260
 5457 117a 11       		.byte	0x11
 5458 117b 4401     		.2byte	0x144
 5459 117d 27090000 		.4byte	0x927
 5460 1181 30       		.byte	0x30
 5461 1182 21       		.uleb128 0x21
 5462 1183 535200   		.ascii	"SR\000"
 5463 1186 11       		.byte	0x11
 5464 1187 4501     		.2byte	0x145
 5465 1189 27090000 		.4byte	0x927
 5466 118d 34       		.byte	0x34
 5467 118e 00       		.byte	0
 5468 118f 07       		.uleb128 0x7
 5469 1190 391B0000 		.4byte	.LASF261
 5470 1194 11       		.byte	0x11
 5471 1195 4601     		.2byte	0x146
 5472 1197 D1100000 		.4byte	0x10d1
 5473 119b 1C       		.uleb128 0x1c
 5474 119c 18       		.byte	0x18
 5475 119d 11       		.byte	0x11
 5476 119e 6B01     		.2byte	0x16b
 5477 11a0 F2110000 		.4byte	0x11f2
 5478 11a4 21       		.uleb128 0x21
 5479 11a5 435200   		.ascii	"CR\000"
 5480 11a8 11       		.byte	0x11
 5481 11a9 6D01     		.2byte	0x16d
 5482 11ab 27090000 		.4byte	0x927
 5483 11af 00       		.byte	0
 5484 11b0 18       		.uleb128 0x18
 5485 11b1 1D1E0000 		.4byte	.LASF262
 5486 11b5 11       		.byte	0x11
 5487 11b6 6E01     		.2byte	0x16e
 5488 11b8 27090000 		.4byte	0x927
 5489 11bc 04       		.byte	0x4
 5490 11bd 21       		.uleb128 0x21
 5491 11be 50415200 		.ascii	"PAR\000"
 5492 11c2 11       		.byte	0x11
 5493 11c3 6F01     		.2byte	0x16f
 5494 11c5 27090000 		.4byte	0x927
 5495 11c9 08       		.byte	0x8
 5496 11ca 18       		.uleb128 0x18
ARM GAS  C:\Users\PCHAUT~1\AppData\Local\Temp\cc7u0cQS.s 			page 98


 5497 11cb B5030000 		.4byte	.LASF263
 5498 11cf 11       		.byte	0x11
 5499 11d0 7001     		.2byte	0x170
 5500 11d2 27090000 		.4byte	0x927
 5501 11d6 0C       		.byte	0xc
 5502 11d7 18       		.uleb128 0x18
 5503 11d8 9A070000 		.4byte	.LASF264
 5504 11dc 11       		.byte	0x11
 5505 11dd 7101     		.2byte	0x171
 5506 11df 27090000 		.4byte	0x927
 5507 11e3 10       		.byte	0x10
 5508 11e4 21       		.uleb128 0x21
 5509 11e5 46435200 		.ascii	"FCR\000"
 5510 11e9 11       		.byte	0x11
 5511 11ea 7201     		.2byte	0x172
 5512 11ec 27090000 		.4byte	0x927
 5513 11f0 14       		.byte	0x14
 5514 11f1 00       		.byte	0
 5515 11f2 07       		.uleb128 0x7
 5516 11f3 A4070000 		.4byte	.LASF265
 5517 11f7 11       		.byte	0x11
 5518 11f8 7301     		.2byte	0x173
 5519 11fa 9B110000 		.4byte	0x119b
 5520 11fe 0A       		.uleb128 0xa
 5521 11ff 27090000 		.4byte	0x927
 5522 1203 0E120000 		.4byte	0x120e
 5523 1207 0B       		.uleb128 0xb
 5524 1208 37000000 		.4byte	0x37
 5525 120c 01       		.byte	0x1
 5526 120d 00       		.byte	0
 5527 120e 1A       		.uleb128 0x1a
 5528 120f FE110000 		.4byte	0x11fe
 5529 1213 0A       		.uleb128 0xa
 5530 1214 27090000 		.4byte	0x927
 5531 1218 23120000 		.4byte	0x1223
 5532 121c 0B       		.uleb128 0xb
 5533 121d 37000000 		.4byte	0x37
 5534 1221 03       		.byte	0x3
 5535 1222 00       		.byte	0
 5536 1223 1A       		.uleb128 0x1a
 5537 1224 13120000 		.4byte	0x1213
 5538 1228 1C       		.uleb128 0x1c
 5539 1229 28       		.byte	0x28
 5540 122a 11       		.byte	0x11
 5541 122b 3F02     		.2byte	0x23f
 5542 122d B3120000 		.4byte	0x12b3
 5543 1231 21       		.uleb128 0x21
 5544 1232 43523100 		.ascii	"CR1\000"
 5545 1236 11       		.byte	0x11
 5546 1237 4102     		.2byte	0x241
 5547 1239 27090000 		.4byte	0x927
 5548 123d 00       		.byte	0
 5549 123e 21       		.uleb128 0x21
 5550 123f 43523200 		.ascii	"CR2\000"
 5551 1243 11       		.byte	0x11
 5552 1244 4202     		.2byte	0x242
 5553 1246 27090000 		.4byte	0x927
ARM GAS  C:\Users\PCHAUT~1\AppData\Local\Temp\cc7u0cQS.s 			page 99


 5554 124a 04       		.byte	0x4
 5555 124b 18       		.uleb128 0x18
 5556 124c 30230000 		.4byte	.LASF266
 5557 1250 11       		.byte	0x11
 5558 1251 4302     		.2byte	0x243
 5559 1253 27090000 		.4byte	0x927
 5560 1257 08       		.byte	0x8
 5561 1258 18       		.uleb128 0x18
 5562 1259 35230000 		.4byte	.LASF267
 5563 125d 11       		.byte	0x11
 5564 125e 4402     		.2byte	0x244
 5565 1260 27090000 		.4byte	0x927
 5566 1264 0C       		.byte	0xc
 5567 1265 21       		.uleb128 0x21
 5568 1266 445200   		.ascii	"DR\000"
 5569 1269 11       		.byte	0x11
 5570 126a 4502     		.2byte	0x245
 5571 126c 27090000 		.4byte	0x927
 5572 1270 10       		.byte	0x10
 5573 1271 21       		.uleb128 0x21
 5574 1272 53523100 		.ascii	"SR1\000"
 5575 1276 11       		.byte	0x11
 5576 1277 4602     		.2byte	0x246
 5577 1279 27090000 		.4byte	0x927
 5578 127d 14       		.byte	0x14
 5579 127e 21       		.uleb128 0x21
 5580 127f 53523200 		.ascii	"SR2\000"
 5581 1283 11       		.byte	0x11
 5582 1284 4702     		.2byte	0x247
 5583 1286 27090000 		.4byte	0x927
 5584 128a 18       		.byte	0x18
 5585 128b 21       		.uleb128 0x21
 5586 128c 43435200 		.ascii	"CCR\000"
 5587 1290 11       		.byte	0x11
 5588 1291 4802     		.2byte	0x248
 5589 1293 27090000 		.4byte	0x927
 5590 1297 1C       		.byte	0x1c
 5591 1298 18       		.uleb128 0x18
 5592 1299 A6040000 		.4byte	.LASF268
 5593 129d 11       		.byte	0x11
 5594 129e 4902     		.2byte	0x249
 5595 12a0 27090000 		.4byte	0x927
 5596 12a4 20       		.byte	0x20
 5597 12a5 18       		.uleb128 0x18
 5598 12a6 FB210000 		.4byte	.LASF269
 5599 12aa 11       		.byte	0x11
 5600 12ab 4A02     		.2byte	0x24a
 5601 12ad 27090000 		.4byte	0x927
 5602 12b1 24       		.byte	0x24
 5603 12b2 00       		.byte	0
 5604 12b3 07       		.uleb128 0x7
 5605 12b4 AF110000 		.4byte	.LASF270
 5606 12b8 11       		.byte	0x11
 5607 12b9 4B02     		.2byte	0x24b
 5608 12bb 28120000 		.4byte	0x1228
 5609 12bf 1C       		.uleb128 0x1c
 5610 12c0 84       		.byte	0x84
ARM GAS  C:\Users\PCHAUT~1\AppData\Local\Temp\cc7u0cQS.s 			page 100


 5611 12c1 11       		.byte	0x11
 5612 12c2 BF02     		.2byte	0x2bf
 5613 12c4 CD130000 		.4byte	0x13cd
 5614 12c8 18       		.uleb128 0x18
 5615 12c9 AD150000 		.4byte	.LASF271
 5616 12cd 11       		.byte	0x11
 5617 12ce C102     		.2byte	0x2c1
 5618 12d0 27090000 		.4byte	0x927
 5619 12d4 00       		.byte	0
 5620 12d5 18       		.uleb128 0x18
 5621 12d6 381F0000 		.4byte	.LASF272
 5622 12da 11       		.byte	0x11
 5623 12db C202     		.2byte	0x2c2
 5624 12dd 27090000 		.4byte	0x927
 5625 12e1 04       		.byte	0x4
 5626 12e2 21       		.uleb128 0x21
 5627 12e3 41524700 		.ascii	"ARG\000"
 5628 12e7 11       		.byte	0x11
 5629 12e8 C302     		.2byte	0x2c3
 5630 12ea 27090000 		.4byte	0x927
 5631 12ee 08       		.byte	0x8
 5632 12ef 21       		.uleb128 0x21
 5633 12f0 434D4400 		.ascii	"CMD\000"
 5634 12f4 11       		.byte	0x11
 5635 12f5 C402     		.2byte	0x2c4
 5636 12f7 27090000 		.4byte	0x927
 5637 12fb 0C       		.byte	0xc
 5638 12fc 18       		.uleb128 0x18
 5639 12fd 63180000 		.4byte	.LASF273
 5640 1301 11       		.byte	0x11
 5641 1302 C502     		.2byte	0x2c5
 5642 1304 2C090000 		.4byte	0x92c
 5643 1308 10       		.byte	0x10
 5644 1309 18       		.uleb128 0x18
 5645 130a AB050000 		.4byte	.LASF274
 5646 130e 11       		.byte	0x11
 5647 130f C602     		.2byte	0x2c6
 5648 1311 2C090000 		.4byte	0x92c
 5649 1315 14       		.byte	0x14
 5650 1316 18       		.uleb128 0x18
 5651 1317 B1050000 		.4byte	.LASF275
 5652 131b 11       		.byte	0x11
 5653 131c C702     		.2byte	0x2c7
 5654 131e 2C090000 		.4byte	0x92c
 5655 1322 18       		.byte	0x18
 5656 1323 18       		.uleb128 0x18
 5657 1324 B7050000 		.4byte	.LASF276
 5658 1328 11       		.byte	0x11
 5659 1329 C802     		.2byte	0x2c8
 5660 132b 2C090000 		.4byte	0x92c
 5661 132f 1C       		.byte	0x1c
 5662 1330 18       		.uleb128 0x18
 5663 1331 BD050000 		.4byte	.LASF277
 5664 1335 11       		.byte	0x11
 5665 1336 C902     		.2byte	0x2c9
 5666 1338 2C090000 		.4byte	0x92c
 5667 133c 20       		.byte	0x20
ARM GAS  C:\Users\PCHAUT~1\AppData\Local\Temp\cc7u0cQS.s 			page 101


 5668 133d 18       		.uleb128 0x18
 5669 133e FA120000 		.4byte	.LASF278
 5670 1342 11       		.byte	0x11
 5671 1343 CA02     		.2byte	0x2ca
 5672 1345 27090000 		.4byte	0x927
 5673 1349 24       		.byte	0x24
 5674 134a 18       		.uleb128 0x18
 5675 134b 89140000 		.4byte	.LASF279
 5676 134f 11       		.byte	0x11
 5677 1350 CB02     		.2byte	0x2cb
 5678 1352 27090000 		.4byte	0x927
 5679 1356 28       		.byte	0x28
 5680 1357 18       		.uleb128 0x18
 5681 1358 E7210000 		.4byte	.LASF280
 5682 135c 11       		.byte	0x11
 5683 135d CC02     		.2byte	0x2cc
 5684 135f 27090000 		.4byte	0x927
 5685 1363 2C       		.byte	0x2c
 5686 1364 18       		.uleb128 0x18
 5687 1365 29230000 		.4byte	.LASF281
 5688 1369 11       		.byte	0x11
 5689 136a CD02     		.2byte	0x2cd
 5690 136c 2C090000 		.4byte	0x92c
 5691 1370 30       		.byte	0x30
 5692 1371 21       		.uleb128 0x21
 5693 1372 53544100 		.ascii	"STA\000"
 5694 1376 11       		.byte	0x11
 5695 1377 CE02     		.2byte	0x2ce
 5696 1379 2C090000 		.4byte	0x92c
 5697 137d 34       		.byte	0x34
 5698 137e 21       		.uleb128 0x21
 5699 137f 49435200 		.ascii	"ICR\000"
 5700 1383 11       		.byte	0x11
 5701 1384 CF02     		.2byte	0x2cf
 5702 1386 27090000 		.4byte	0x927
 5703 138a 38       		.byte	0x38
 5704 138b 18       		.uleb128 0x18
 5705 138c D4010000 		.4byte	.LASF282
 5706 1390 11       		.byte	0x11
 5707 1391 D002     		.2byte	0x2d0
 5708 1393 27090000 		.4byte	0x927
 5709 1397 3C       		.byte	0x3c
 5710 1398 18       		.uleb128 0x18
 5711 1399 F11C0000 		.4byte	.LASF235
 5712 139d 11       		.byte	0x11
 5713 139e D102     		.2byte	0x2d1
 5714 13a0 4E0D0000 		.4byte	0xd4e
 5715 13a4 40       		.byte	0x40
 5716 13a5 18       		.uleb128 0x18
 5717 13a6 96130000 		.4byte	.LASF283
 5718 13aa 11       		.byte	0x11
 5719 13ab D202     		.2byte	0x2d2
 5720 13ad 2C090000 		.4byte	0x92c
 5721 13b1 48       		.byte	0x48
 5722 13b2 18       		.uleb128 0x18
 5723 13b3 FB1C0000 		.4byte	.LASF238
 5724 13b7 11       		.byte	0x11
ARM GAS  C:\Users\PCHAUT~1\AppData\Local\Temp\cc7u0cQS.s 			page 102


 5725 13b8 D302     		.2byte	0x2d3
 5726 13ba CD130000 		.4byte	0x13cd
 5727 13be 4C       		.byte	0x4c
 5728 13bf 18       		.uleb128 0x18
 5729 13c0 1B0A0000 		.4byte	.LASF284
 5730 13c4 11       		.byte	0x11
 5731 13c5 D402     		.2byte	0x2d4
 5732 13c7 27090000 		.4byte	0x927
 5733 13cb 80       		.byte	0x80
 5734 13cc 00       		.byte	0
 5735 13cd 0A       		.uleb128 0xa
 5736 13ce 1C090000 		.4byte	0x91c
 5737 13d2 DD130000 		.4byte	0x13dd
 5738 13d6 0B       		.uleb128 0xb
 5739 13d7 37000000 		.4byte	0x37
 5740 13db 0C       		.byte	0xc
 5741 13dc 00       		.byte	0
 5742 13dd 07       		.uleb128 0x7
 5743 13de F71D0000 		.4byte	.LASF285
 5744 13e2 11       		.byte	0x11
 5745 13e3 D502     		.2byte	0x2d5
 5746 13e5 BF120000 		.4byte	0x12bf
 5747 13e9 1C       		.uleb128 0x1c
 5748 13ea 24       		.byte	0x24
 5749 13eb 11       		.byte	0x11
 5750 13ec DB02     		.2byte	0x2db
 5751 13ee 66140000 		.4byte	0x1466
 5752 13f2 21       		.uleb128 0x21
 5753 13f3 43523100 		.ascii	"CR1\000"
 5754 13f7 11       		.byte	0x11
 5755 13f8 DD02     		.2byte	0x2dd
 5756 13fa 27090000 		.4byte	0x927
 5757 13fe 00       		.byte	0
 5758 13ff 21       		.uleb128 0x21
 5759 1400 43523200 		.ascii	"CR2\000"
 5760 1404 11       		.byte	0x11
 5761 1405 DE02     		.2byte	0x2de
 5762 1407 27090000 		.4byte	0x927
 5763 140b 04       		.byte	0x4
 5764 140c 21       		.uleb128 0x21
 5765 140d 535200   		.ascii	"SR\000"
 5766 1410 11       		.byte	0x11
 5767 1411 DF02     		.2byte	0x2df
 5768 1413 27090000 		.4byte	0x927
 5769 1417 08       		.byte	0x8
 5770 1418 21       		.uleb128 0x21
 5771 1419 445200   		.ascii	"DR\000"
 5772 141c 11       		.byte	0x11
 5773 141d E002     		.2byte	0x2e0
 5774 141f 27090000 		.4byte	0x927
 5775 1423 0C       		.byte	0xc
 5776 1424 18       		.uleb128 0x18
 5777 1425 09070000 		.4byte	.LASF286
 5778 1429 11       		.byte	0x11
 5779 142a E102     		.2byte	0x2e1
 5780 142c 27090000 		.4byte	0x927
 5781 1430 10       		.byte	0x10
ARM GAS  C:\Users\PCHAUT~1\AppData\Local\Temp\cc7u0cQS.s 			page 103


 5782 1431 18       		.uleb128 0x18
 5783 1432 C40B0000 		.4byte	.LASF287
 5784 1436 11       		.byte	0x11
 5785 1437 E202     		.2byte	0x2e2
 5786 1439 27090000 		.4byte	0x927
 5787 143d 14       		.byte	0x14
 5788 143e 18       		.uleb128 0x18
 5789 143f F10A0000 		.4byte	.LASF288
 5790 1443 11       		.byte	0x11
 5791 1444 E302     		.2byte	0x2e3
 5792 1446 27090000 		.4byte	0x927
 5793 144a 18       		.byte	0x18
 5794 144b 18       		.uleb128 0x18
 5795 144c 0A200000 		.4byte	.LASF289
 5796 1450 11       		.byte	0x11
 5797 1451 E402     		.2byte	0x2e4
 5798 1453 27090000 		.4byte	0x927
 5799 1457 1C       		.byte	0x1c
 5800 1458 18       		.uleb128 0x18
 5801 1459 CC060000 		.4byte	.LASF290
 5802 145d 11       		.byte	0x11
 5803 145e E502     		.2byte	0x2e5
 5804 1460 27090000 		.4byte	0x927
 5805 1464 20       		.byte	0x20
 5806 1465 00       		.byte	0
 5807 1466 07       		.uleb128 0x7
 5808 1467 581E0000 		.4byte	.LASF291
 5809 146b 11       		.byte	0x11
 5810 146c E602     		.2byte	0x2e6
 5811 146e E9130000 		.4byte	0x13e9
 5812 1472 1C       		.uleb128 0x1c
 5813 1473 1C       		.byte	0x1c
 5814 1474 11       		.byte	0x11
 5815 1475 0903     		.2byte	0x309
 5816 1477 D5140000 		.4byte	0x14d5
 5817 147b 21       		.uleb128 0x21
 5818 147c 535200   		.ascii	"SR\000"
 5819 147f 11       		.byte	0x11
 5820 1480 0B03     		.2byte	0x30b
 5821 1482 27090000 		.4byte	0x927
 5822 1486 00       		.byte	0
 5823 1487 21       		.uleb128 0x21
 5824 1488 445200   		.ascii	"DR\000"
 5825 148b 11       		.byte	0x11
 5826 148c 0C03     		.2byte	0x30c
 5827 148e 27090000 		.4byte	0x927
 5828 1492 04       		.byte	0x4
 5829 1493 21       		.uleb128 0x21
 5830 1494 42525200 		.ascii	"BRR\000"
 5831 1498 11       		.byte	0x11
 5832 1499 0D03     		.2byte	0x30d
 5833 149b 27090000 		.4byte	0x927
 5834 149f 08       		.byte	0x8
 5835 14a0 21       		.uleb128 0x21
 5836 14a1 43523100 		.ascii	"CR1\000"
 5837 14a5 11       		.byte	0x11
 5838 14a6 0E03     		.2byte	0x30e
ARM GAS  C:\Users\PCHAUT~1\AppData\Local\Temp\cc7u0cQS.s 			page 104


 5839 14a8 27090000 		.4byte	0x927
 5840 14ac 0C       		.byte	0xc
 5841 14ad 21       		.uleb128 0x21
 5842 14ae 43523200 		.ascii	"CR2\000"
 5843 14b2 11       		.byte	0x11
 5844 14b3 0F03     		.2byte	0x30f
 5845 14b5 27090000 		.4byte	0x927
 5846 14b9 10       		.byte	0x10
 5847 14ba 21       		.uleb128 0x21
 5848 14bb 43523300 		.ascii	"CR3\000"
 5849 14bf 11       		.byte	0x11
 5850 14c0 1003     		.2byte	0x310
 5851 14c2 27090000 		.4byte	0x927
 5852 14c6 14       		.byte	0x14
 5853 14c7 18       		.uleb128 0x18
 5854 14c8 B00E0000 		.4byte	.LASF292
 5855 14cc 11       		.byte	0x11
 5856 14cd 1103     		.2byte	0x311
 5857 14cf 27090000 		.4byte	0x927
 5858 14d3 18       		.byte	0x18
 5859 14d4 00       		.byte	0
 5860 14d5 07       		.uleb128 0x7
 5861 14d6 8C220000 		.4byte	.LASF293
 5862 14da 11       		.byte	0x11
 5863 14db 1203     		.2byte	0x312
 5864 14dd 72140000 		.4byte	0x1472
 5865 14e1 0A       		.uleb128 0xa
 5866 14e2 27090000 		.4byte	0x927
 5867 14e6 F1140000 		.4byte	0x14f1
 5868 14ea 0B       		.uleb128 0xb
 5869 14eb 37000000 		.4byte	0x37
 5870 14ef 0E       		.byte	0xe
 5871 14f0 00       		.byte	0
 5872 14f1 1A       		.uleb128 0x1a
 5873 14f2 E1140000 		.4byte	0x14e1
 5874 14f6 03       		.uleb128 0x3
 5875 14f7 C0170000 		.4byte	.LASF294
 5876 14fb 12       		.byte	0x12
 5877 14fc 65       		.byte	0x65
 5878 14fd 5D010000 		.4byte	0x15d
 5879 1501 03       		.uleb128 0x3
 5880 1502 B9090000 		.4byte	.LASF295
 5881 1506 12       		.byte	0x12
 5882 1507 6D       		.byte	0x6d
 5883 1508 31090000 		.4byte	0x931
 5884 150c 10       		.uleb128 0x10
 5885 150d FD110000 		.4byte	.LASF296
 5886 1511 04       		.byte	0x4
 5887 1512 12       		.byte	0x12
 5888 1513 89       		.byte	0x89
 5889 1514 25150000 		.4byte	0x1525
 5890 1518 11       		.uleb128 0x11
 5891 1519 72313300 		.ascii	"r13\000"
 5892 151d 12       		.byte	0x12
 5893 151e 8A       		.byte	0x8a
 5894 151f 66160000 		.4byte	0x1666
 5895 1523 00       		.byte	0
ARM GAS  C:\Users\PCHAUT~1\AppData\Local\Temp\cc7u0cQS.s 			page 105


 5896 1524 00       		.byte	0
 5897 1525 10       		.uleb128 0x10
 5898 1526 09000000 		.4byte	.LASF297
 5899 152a 64       		.byte	0x64
 5900 152b 01       		.byte	0x1
 5901 152c F4       		.byte	0xf4
 5902 152d 66160000 		.4byte	0x1666
 5903 1531 11       		.uleb128 0x11
 5904 1532 73313600 		.ascii	"s16\000"
 5905 1536 01       		.byte	0x1
 5906 1537 F6       		.byte	0xf6
 5907 1538 F6140000 		.4byte	0x14f6
 5908 153c 00       		.byte	0
 5909 153d 11       		.uleb128 0x11
 5910 153e 73313700 		.ascii	"s17\000"
 5911 1542 01       		.byte	0x1
 5912 1543 F7       		.byte	0xf7
 5913 1544 F6140000 		.4byte	0x14f6
 5914 1548 04       		.byte	0x4
 5915 1549 11       		.uleb128 0x11
 5916 154a 73313800 		.ascii	"s18\000"
 5917 154e 01       		.byte	0x1
 5918 154f F8       		.byte	0xf8
 5919 1550 F6140000 		.4byte	0x14f6
 5920 1554 08       		.byte	0x8
 5921 1555 11       		.uleb128 0x11
 5922 1556 73313900 		.ascii	"s19\000"
 5923 155a 01       		.byte	0x1
 5924 155b F9       		.byte	0xf9
 5925 155c F6140000 		.4byte	0x14f6
 5926 1560 0C       		.byte	0xc
 5927 1561 11       		.uleb128 0x11
 5928 1562 73323000 		.ascii	"s20\000"
 5929 1566 01       		.byte	0x1
 5930 1567 FA       		.byte	0xfa
 5931 1568 F6140000 		.4byte	0x14f6
 5932 156c 10       		.byte	0x10
 5933 156d 11       		.uleb128 0x11
 5934 156e 73323100 		.ascii	"s21\000"
 5935 1572 01       		.byte	0x1
 5936 1573 FB       		.byte	0xfb
 5937 1574 F6140000 		.4byte	0x14f6
 5938 1578 14       		.byte	0x14
 5939 1579 11       		.uleb128 0x11
 5940 157a 73323200 		.ascii	"s22\000"
 5941 157e 01       		.byte	0x1
 5942 157f FC       		.byte	0xfc
 5943 1580 F6140000 		.4byte	0x14f6
 5944 1584 18       		.byte	0x18
 5945 1585 11       		.uleb128 0x11
 5946 1586 73323300 		.ascii	"s23\000"
 5947 158a 01       		.byte	0x1
 5948 158b FD       		.byte	0xfd
 5949 158c F6140000 		.4byte	0x14f6
 5950 1590 1C       		.byte	0x1c
 5951 1591 11       		.uleb128 0x11
 5952 1592 73323400 		.ascii	"s24\000"
ARM GAS  C:\Users\PCHAUT~1\AppData\Local\Temp\cc7u0cQS.s 			page 106


 5953 1596 01       		.byte	0x1
 5954 1597 FE       		.byte	0xfe
 5955 1598 F6140000 		.4byte	0x14f6
 5956 159c 20       		.byte	0x20
 5957 159d 11       		.uleb128 0x11
 5958 159e 73323500 		.ascii	"s25\000"
 5959 15a2 01       		.byte	0x1
 5960 15a3 FF       		.byte	0xff
 5961 15a4 F6140000 		.4byte	0x14f6
 5962 15a8 24       		.byte	0x24
 5963 15a9 21       		.uleb128 0x21
 5964 15aa 73323600 		.ascii	"s26\000"
 5965 15ae 01       		.byte	0x1
 5966 15af 0001     		.2byte	0x100
 5967 15b1 F6140000 		.4byte	0x14f6
 5968 15b5 28       		.byte	0x28
 5969 15b6 21       		.uleb128 0x21
 5970 15b7 73323700 		.ascii	"s27\000"
 5971 15bb 01       		.byte	0x1
 5972 15bc 0101     		.2byte	0x101
 5973 15be F6140000 		.4byte	0x14f6
 5974 15c2 2C       		.byte	0x2c
 5975 15c3 21       		.uleb128 0x21
 5976 15c4 73323800 		.ascii	"s28\000"
 5977 15c8 01       		.byte	0x1
 5978 15c9 0201     		.2byte	0x102
 5979 15cb F6140000 		.4byte	0x14f6
 5980 15cf 30       		.byte	0x30
 5981 15d0 21       		.uleb128 0x21
 5982 15d1 73323900 		.ascii	"s29\000"
 5983 15d5 01       		.byte	0x1
 5984 15d6 0301     		.2byte	0x103
 5985 15d8 F6140000 		.4byte	0x14f6
 5986 15dc 34       		.byte	0x34
 5987 15dd 21       		.uleb128 0x21
 5988 15de 73333000 		.ascii	"s30\000"
 5989 15e2 01       		.byte	0x1
 5990 15e3 0401     		.2byte	0x104
 5991 15e5 F6140000 		.4byte	0x14f6
 5992 15e9 38       		.byte	0x38
 5993 15ea 21       		.uleb128 0x21
 5994 15eb 73333100 		.ascii	"s31\000"
 5995 15ef 01       		.byte	0x1
 5996 15f0 0501     		.2byte	0x105
 5997 15f2 F6140000 		.4byte	0x14f6
 5998 15f6 3C       		.byte	0x3c
 5999 15f7 21       		.uleb128 0x21
 6000 15f8 723400   		.ascii	"r4\000"
 6001 15fb 01       		.byte	0x1
 6002 15fc 0701     		.2byte	0x107
 6003 15fe F6140000 		.4byte	0x14f6
 6004 1602 40       		.byte	0x40
 6005 1603 21       		.uleb128 0x21
 6006 1604 723500   		.ascii	"r5\000"
 6007 1607 01       		.byte	0x1
 6008 1608 0801     		.2byte	0x108
 6009 160a F6140000 		.4byte	0x14f6
ARM GAS  C:\Users\PCHAUT~1\AppData\Local\Temp\cc7u0cQS.s 			page 107


 6010 160e 44       		.byte	0x44
 6011 160f 21       		.uleb128 0x21
 6012 1610 723600   		.ascii	"r6\000"
 6013 1613 01       		.byte	0x1
 6014 1614 0901     		.2byte	0x109
 6015 1616 F6140000 		.4byte	0x14f6
 6016 161a 48       		.byte	0x48
 6017 161b 21       		.uleb128 0x21
 6018 161c 723700   		.ascii	"r7\000"
 6019 161f 01       		.byte	0x1
 6020 1620 0A01     		.2byte	0x10a
 6021 1622 F6140000 		.4byte	0x14f6
 6022 1626 4C       		.byte	0x4c
 6023 1627 21       		.uleb128 0x21
 6024 1628 723800   		.ascii	"r8\000"
 6025 162b 01       		.byte	0x1
 6026 162c 0B01     		.2byte	0x10b
 6027 162e F6140000 		.4byte	0x14f6
 6028 1632 50       		.byte	0x50
 6029 1633 21       		.uleb128 0x21
 6030 1634 723900   		.ascii	"r9\000"
 6031 1637 01       		.byte	0x1
 6032 1638 0C01     		.2byte	0x10c
 6033 163a F6140000 		.4byte	0x14f6
 6034 163e 54       		.byte	0x54
 6035 163f 21       		.uleb128 0x21
 6036 1640 72313000 		.ascii	"r10\000"
 6037 1644 01       		.byte	0x1
 6038 1645 0D01     		.2byte	0x10d
 6039 1647 F6140000 		.4byte	0x14f6
 6040 164b 58       		.byte	0x58
 6041 164c 21       		.uleb128 0x21
 6042 164d 72313100 		.ascii	"r11\000"
 6043 1651 01       		.byte	0x1
 6044 1652 0E01     		.2byte	0x10e
 6045 1654 F6140000 		.4byte	0x14f6
 6046 1658 5C       		.byte	0x5c
 6047 1659 21       		.uleb128 0x21
 6048 165a 6C7200   		.ascii	"lr\000"
 6049 165d 01       		.byte	0x1
 6050 165e 0F01     		.2byte	0x10f
 6051 1660 F6140000 		.4byte	0x14f6
 6052 1664 60       		.byte	0x60
 6053 1665 00       		.byte	0
 6054 1666 05       		.uleb128 0x5
 6055 1667 04       		.byte	0x4
 6056 1668 25150000 		.4byte	0x1525
 6057 166c 0C       		.uleb128 0xc
 6058 166d 10       		.byte	0x10
 6059 166e 13       		.byte	0x13
 6060 166f 51       		.byte	0x51
 6061 1670 A5160000 		.4byte	0x16a5
 6062 1674 0D       		.uleb128 0xd
 6063 1675 651D0000 		.4byte	.LASF298
 6064 1679 13       		.byte	0x13
 6065 167a 55       		.byte	0x55
 6066 167b C0090000 		.4byte	0x9c0
ARM GAS  C:\Users\PCHAUT~1\AppData\Local\Temp\cc7u0cQS.s 			page 108


 6067 167f 00       		.byte	0
 6068 1680 0D       		.uleb128 0xd
 6069 1681 2F180000 		.4byte	.LASF299
 6070 1685 13       		.byte	0x13
 6071 1686 59       		.byte	0x59
 6072 1687 040B0000 		.4byte	0xb04
 6073 168b 04       		.byte	0x4
 6074 168c 0D       		.uleb128 0xd
 6075 168d 610C0000 		.4byte	.LASF300
 6076 1691 13       		.byte	0x13
 6077 1692 5D       		.byte	0x5d
 6078 1693 5D010000 		.4byte	0x15d
 6079 1697 08       		.byte	0x8
 6080 1698 0D       		.uleb128 0xd
 6081 1699 940A0000 		.4byte	.LASF301
 6082 169d 13       		.byte	0x13
 6083 169e 61       		.byte	0x61
 6084 169f E6080000 		.4byte	0x8e6
 6085 16a3 0C       		.byte	0xc
 6086 16a4 00       		.byte	0
 6087 16a5 03       		.uleb128 0x3
 6088 16a6 540D0000 		.4byte	.LASF302
 6089 16aa 13       		.byte	0x13
 6090 16ab 62       		.byte	0x62
 6091 16ac 6C160000 		.4byte	0x166c
 6092 16b0 25       		.uleb128 0x25
 6093 16b1 0804     		.2byte	0x408
 6094 16b3 13       		.byte	0x13
 6095 16b4 67       		.byte	0x67
 6096 16b5 DE160000 		.4byte	0x16de
 6097 16b9 0D       		.uleb128 0xd
 6098 16ba 3D0E0000 		.4byte	.LASF303
 6099 16be 13       		.byte	0x13
 6100 16bf 6B       		.byte	0x6b
 6101 16c0 37000000 		.4byte	0x37
 6102 16c4 00       		.byte	0
 6103 16c5 0D       		.uleb128 0xd
 6104 16c6 C5130000 		.4byte	.LASF304
 6105 16ca 13       		.byte	0x13
 6106 16cb 6F       		.byte	0x6f
 6107 16cc DE160000 		.4byte	0x16de
 6108 16d0 04       		.byte	0x4
 6109 16d1 0D       		.uleb128 0xd
 6110 16d2 200A0000 		.4byte	.LASF305
 6111 16d6 13       		.byte	0x13
 6112 16d7 73       		.byte	0x73
 6113 16d8 E4160000 		.4byte	0x16e4
 6114 16dc 08       		.byte	0x8
 6115 16dd 00       		.byte	0
 6116 16de 05       		.uleb128 0x5
 6117 16df 04       		.byte	0x4
 6118 16e0 A5160000 		.4byte	0x16a5
 6119 16e4 0A       		.uleb128 0xa
 6120 16e5 A5160000 		.4byte	0x16a5
 6121 16e9 F4160000 		.4byte	0x16f4
 6122 16ed 0B       		.uleb128 0xb
 6123 16ee 37000000 		.4byte	0x37
ARM GAS  C:\Users\PCHAUT~1\AppData\Local\Temp\cc7u0cQS.s 			page 109


 6124 16f2 3F       		.byte	0x3f
 6125 16f3 00       		.byte	0
 6126 16f4 03       		.uleb128 0x3
 6127 16f5 15000000 		.4byte	.LASF306
 6128 16f9 13       		.byte	0x13
 6129 16fa 74       		.byte	0x74
 6130 16fb B0160000 		.4byte	0x16b0
 6131 16ff 0C       		.uleb128 0xc
 6132 1700 04       		.byte	0x4
 6133 1701 14       		.byte	0x14
 6134 1702 38       		.byte	0x38
 6135 1703 14170000 		.4byte	0x1714
 6136 1707 0D       		.uleb128 0xd
 6137 1708 041E0000 		.4byte	.LASF307
 6138 170c 14       		.byte	0x14
 6139 170d 3C       		.byte	0x3c
 6140 170e 3C090000 		.4byte	0x93c
 6141 1712 00       		.byte	0
 6142 1713 00       		.byte	0
 6143 1714 03       		.uleb128 0x3
 6144 1715 03050000 		.4byte	.LASF308
 6145 1719 14       		.byte	0x14
 6146 171a 3D       		.byte	0x3d
 6147 171b FF160000 		.4byte	0x16ff
 6148 171f 0C       		.uleb128 0xc
 6149 1720 18       		.byte	0x18
 6150 1721 14       		.byte	0x14
 6151 1722 48       		.byte	0x48
 6152 1723 62170000 		.4byte	0x1762
 6153 1727 0D       		.uleb128 0xd
 6154 1728 DD060000 		.4byte	.LASF309
 6155 172c 14       		.byte	0x14
 6156 172d 49       		.byte	0x49
 6157 172e 3C090000 		.4byte	0x93c
 6158 1732 00       		.byte	0
 6159 1733 0D       		.uleb128 0xd
 6160 1734 85010000 		.4byte	.LASF310
 6161 1738 14       		.byte	0x14
 6162 1739 4A       		.byte	0x4a
 6163 173a 3C090000 		.4byte	0x93c
 6164 173e 04       		.byte	0x4
 6165 173f 0D       		.uleb128 0xd
 6166 1740 69170000 		.4byte	.LASF311
 6167 1744 14       		.byte	0x14
 6168 1745 4B       		.byte	0x4b
 6169 1746 3C090000 		.4byte	0x93c
 6170 174a 08       		.byte	0x8
 6171 174b 11       		.uleb128 0x11
 6172 174c 6E00     		.ascii	"n\000"
 6173 174e 14       		.byte	0x14
 6174 174f 4C       		.byte	0x4c
 6175 1750 B5090000 		.4byte	0x9b5
 6176 1754 0C       		.byte	0xc
 6177 1755 0D       		.uleb128 0xd
 6178 1756 0D170000 		.4byte	.LASF312
 6179 175a 14       		.byte	0x14
 6180 175b 4D       		.byte	0x4d
ARM GAS  C:\Users\PCHAUT~1\AppData\Local\Temp\cc7u0cQS.s 			page 110


 6181 175c 47090000 		.4byte	0x947
 6182 1760 10       		.byte	0x10
 6183 1761 00       		.byte	0
 6184 1762 03       		.uleb128 0x3
 6185 1763 68200000 		.4byte	.LASF313
 6186 1767 14       		.byte	0x14
 6187 1768 4E       		.byte	0x4e
 6188 1769 1F170000 		.4byte	0x171f
 6189 176d 0C       		.uleb128 0xc
 6190 176e 38       		.byte	0x38
 6191 176f 15       		.byte	0x15
 6192 1770 38       		.byte	0x38
 6193 1771 A6170000 		.4byte	0x17a6
 6194 1775 0D       		.uleb128 0xd
 6195 1776 3C060000 		.4byte	.LASF314
 6196 177a 15       		.byte	0x15
 6197 177b 39       		.byte	0x39
 6198 177c B5090000 		.4byte	0x9b5
 6199 1780 00       		.byte	0
 6200 1781 0D       		.uleb128 0xd
 6201 1782 2A0B0000 		.4byte	.LASF315
 6202 1786 15       		.byte	0x15
 6203 1787 3A       		.byte	0x3a
 6204 1788 B5090000 		.4byte	0x9b5
 6205 178c 04       		.byte	0x4
 6206 178d 0D       		.uleb128 0xd
 6207 178e ED1F0000 		.4byte	.LASF316
 6208 1792 15       		.byte	0x15
 6209 1793 3B       		.byte	0x3b
 6210 1794 62170000 		.4byte	0x1762
 6211 1798 08       		.byte	0x8
 6212 1799 0D       		.uleb128 0xd
 6213 179a 7E000000 		.4byte	.LASF317
 6214 179e 15       		.byte	0x15
 6215 179f 3D       		.byte	0x3d
 6216 17a0 62170000 		.4byte	0x1762
 6217 17a4 20       		.byte	0x20
 6218 17a5 00       		.byte	0
 6219 17a6 03       		.uleb128 0x3
 6220 17a7 BF040000 		.4byte	.LASF318
 6221 17ab 15       		.byte	0x15
 6222 17ac 3F       		.byte	0x3f
 6223 17ad 6D170000 		.4byte	0x176d
 6224 17b1 08       		.uleb128 0x8
 6225 17b2 04       		.byte	0x4
 6226 17b3 0E       		.byte	0xe
 6227 17b4 FA       		.byte	0xfa
 6228 17b5 0E180000 		.4byte	0x180e
 6229 17b9 1E       		.uleb128 0x1e
 6230 17ba 01100000 		.4byte	.LASF319
 6231 17be 0E       		.byte	0xe
 6232 17bf 0101     		.2byte	0x101
 6233 17c1 89090000 		.4byte	0x989
 6234 17c5 1E       		.uleb128 0x1e
 6235 17c6 91070000 		.4byte	.LASF320
 6236 17ca 0E       		.byte	0xe
 6237 17cb 0801     		.2byte	0x108
ARM GAS  C:\Users\PCHAUT~1\AppData\Local\Temp\cc7u0cQS.s 			page 111


 6238 17cd 89090000 		.4byte	0x989
 6239 17d1 1E       		.uleb128 0x1e
 6240 17d2 451B0000 		.4byte	.LASF321
 6241 17d6 0E       		.byte	0xe
 6242 17d7 0F01     		.2byte	0x10f
 6243 17d9 5D010000 		.4byte	0x15d
 6244 17dd 1E       		.uleb128 0x1e
 6245 17de 2E170000 		.4byte	.LASF322
 6246 17e2 0E       		.byte	0xe
 6247 17e3 1601     		.2byte	0x116
 6248 17e5 0E180000 		.4byte	0x180e
 6249 17e9 1E       		.uleb128 0x1e
 6250 17ea 1E010000 		.4byte	.LASF323
 6251 17ee 0E       		.byte	0xe
 6252 17ef 1E01     		.2byte	0x11e
 6253 17f1 39180000 		.4byte	0x1839
 6254 17f5 1E       		.uleb128 0x1e
 6255 17f6 981B0000 		.4byte	.LASF324
 6256 17fa 0E       		.byte	0xe
 6257 17fb 2701     		.2byte	0x127
 6258 17fd 7C180000 		.4byte	0x187c
 6259 1801 1E       		.uleb128 0x1e
 6260 1802 921E0000 		.4byte	.LASF325
 6261 1806 0E       		.byte	0xe
 6262 1807 2F01     		.2byte	0x12f
 6263 1809 94090000 		.4byte	0x994
 6264 180d 00       		.byte	0
 6265 180e 05       		.uleb128 0x5
 6266 180f 04       		.byte	0x4
 6267 1810 F90A0000 		.4byte	0xaf9
 6268 1814 10       		.uleb128 0x10
 6269 1815 F2150000 		.4byte	.LASF326
 6270 1819 0C       		.byte	0xc
 6271 181a 16       		.byte	0x16
 6272 181b 34       		.byte	0x34
 6273 181c 39180000 		.4byte	0x1839
 6274 1820 0D       		.uleb128 0xd
 6275 1821 E51F0000 		.4byte	.LASF327
 6276 1825 16       		.byte	0x16
 6277 1826 35       		.byte	0x35
 6278 1827 2E0B0000 		.4byte	0xb2e
 6279 182b 00       		.byte	0
 6280 182c 0D       		.uleb128 0xd
 6281 182d 320A0000 		.4byte	.LASF328
 6282 1831 16       		.byte	0x16
 6283 1832 37       		.byte	0x37
 6284 1833 AA090000 		.4byte	0x9aa
 6285 1837 08       		.byte	0x8
 6286 1838 00       		.byte	0
 6287 1839 05       		.uleb128 0x5
 6288 183a 04       		.byte	0x4
 6289 183b 14180000 		.4byte	0x1814
 6290 183f 10       		.uleb128 0x10
 6291 1840 D70B0000 		.4byte	.LASF329
 6292 1844 14       		.byte	0x14
 6293 1845 17       		.byte	0x17
 6294 1846 39       		.byte	0x39
ARM GAS  C:\Users\PCHAUT~1\AppData\Local\Temp\cc7u0cQS.s 			page 112


 6295 1847 7C180000 		.4byte	0x187c
 6296 184b 0D       		.uleb128 0xd
 6297 184c 9D120000 		.4byte	.LASF330
 6298 1850 17       		.byte	0x17
 6299 1851 3A       		.byte	0x3a
 6300 1852 2E0B0000 		.4byte	0xb2e
 6301 1856 00       		.byte	0
 6302 1857 0D       		.uleb128 0xd
 6303 1858 EE140000 		.4byte	.LASF331
 6304 185c 17       		.byte	0x17
 6305 185d 3C       		.byte	0x3c
 6306 185e 040B0000 		.4byte	0xb04
 6307 1862 08       		.byte	0x8
 6308 1863 0D       		.uleb128 0xd
 6309 1864 BC010000 		.4byte	.LASF332
 6310 1868 17       		.byte	0x17
 6311 1869 3E       		.byte	0x3e
 6312 186a C0190000 		.4byte	0x19c0
 6313 186e 0C       		.byte	0xc
 6314 186f 0D       		.uleb128 0xd
 6315 1870 19080000 		.4byte	.LASF333
 6316 1874 17       		.byte	0x17
 6317 1875 41       		.byte	0x41
 6318 1876 AA090000 		.4byte	0x9aa
 6319 187a 10       		.byte	0x10
 6320 187b 00       		.byte	0
 6321 187c 05       		.uleb128 0x5
 6322 187d 04       		.byte	0x4
 6323 187e 3F180000 		.4byte	0x183f
 6324 1882 05       		.uleb128 0x5
 6325 1883 04       		.byte	0x4
 6326 1884 01150000 		.4byte	0x1501
 6327 1888 05       		.uleb128 0x5
 6328 1889 04       		.byte	0x4
 6329 188a E10B0000 		.4byte	0xbe1
 6330 188e 0A       		.uleb128 0xa
 6331 188f 01150000 		.4byte	0x1501
 6332 1893 9E180000 		.4byte	0x189e
 6333 1897 0B       		.uleb128 0xb
 6334 1898 37000000 		.4byte	0x37
 6335 189c 30       		.byte	0x30
 6336 189d 00       		.byte	0
 6337 189e 26       		.uleb128 0x26
 6338 189f 636800   		.ascii	"ch\000"
 6339 18a2 0E       		.byte	0xe
 6340 18a3 0902     		.2byte	0x209
 6341 18a5 D60C0000 		.4byte	0xcd6
 6342 18a9 0C       		.uleb128 0xc
 6343 18aa 16       		.byte	0x16
 6344 18ab 18       		.byte	0x18
 6345 18ac 34       		.byte	0x34
 6346 18ad 8A190000 		.4byte	0x198a
 6347 18b1 0D       		.uleb128 0xd
 6348 18b2 17200000 		.4byte	.LASF334
 6349 18b6 18       		.byte	0x18
 6350 18b7 35       		.byte	0x35
 6351 18b8 8A190000 		.4byte	0x198a
ARM GAS  C:\Users\PCHAUT~1\AppData\Local\Temp\cc7u0cQS.s 			page 113


 6352 18bc 00       		.byte	0
 6353 18bd 0D       		.uleb128 0xd
 6354 18be CD210000 		.4byte	.LASF335
 6355 18c2 18       		.byte	0x18
 6356 18c3 36       		.byte	0x36
 6357 18c4 E6080000 		.4byte	0x8e6
 6358 18c8 04       		.byte	0x4
 6359 18c9 0D       		.uleb128 0xd
 6360 18ca E5020000 		.4byte	.LASF336
 6361 18ce 18       		.byte	0x18
 6362 18cf 37       		.byte	0x37
 6363 18d0 E6080000 		.4byte	0x8e6
 6364 18d4 05       		.byte	0x5
 6365 18d5 0D       		.uleb128 0xd
 6366 18d6 53150000 		.4byte	.LASF337
 6367 18da 18       		.byte	0x18
 6368 18db 38       		.byte	0x38
 6369 18dc 01090000 		.4byte	0x901
 6370 18e0 06       		.byte	0x6
 6371 18e1 0D       		.uleb128 0xd
 6372 18e2 27000000 		.4byte	.LASF338
 6373 18e6 18       		.byte	0x18
 6374 18e7 39       		.byte	0x39
 6375 18e8 E6080000 		.4byte	0x8e6
 6376 18ec 08       		.byte	0x8
 6377 18ed 0D       		.uleb128 0xd
 6378 18ee 82130000 		.4byte	.LASF339
 6379 18f2 18       		.byte	0x18
 6380 18f3 3A       		.byte	0x3a
 6381 18f4 E6080000 		.4byte	0x8e6
 6382 18f8 09       		.byte	0x9
 6383 18f9 0D       		.uleb128 0xd
 6384 18fa ED210000 		.4byte	.LASF340
 6385 18fe 18       		.byte	0x18
 6386 18ff 3B       		.byte	0x3b
 6387 1900 E6080000 		.4byte	0x8e6
 6388 1904 0A       		.byte	0xa
 6389 1905 0D       		.uleb128 0xd
 6390 1906 43200000 		.4byte	.LASF341
 6391 190a 18       		.byte	0x18
 6392 190b 3C       		.byte	0x3c
 6393 190c E6080000 		.4byte	0x8e6
 6394 1910 0B       		.byte	0xb
 6395 1911 0D       		.uleb128 0xd
 6396 1912 8E1F0000 		.4byte	.LASF342
 6397 1916 18       		.byte	0x18
 6398 1917 3D       		.byte	0x3d
 6399 1918 E6080000 		.4byte	0x8e6
 6400 191c 0C       		.byte	0xc
 6401 191d 0D       		.uleb128 0xd
 6402 191e 290C0000 		.4byte	.LASF343
 6403 1922 18       		.byte	0x18
 6404 1923 3E       		.byte	0x3e
 6405 1924 E6080000 		.4byte	0x8e6
 6406 1928 0D       		.byte	0xd
 6407 1929 0D       		.uleb128 0xd
 6408 192a 57050000 		.4byte	.LASF344
ARM GAS  C:\Users\PCHAUT~1\AppData\Local\Temp\cc7u0cQS.s 			page 114


 6409 192e 18       		.byte	0x18
 6410 192f 3F       		.byte	0x3f
 6411 1930 E6080000 		.4byte	0x8e6
 6412 1934 0E       		.byte	0xe
 6413 1935 0D       		.uleb128 0xd
 6414 1936 CB0D0000 		.4byte	.LASF345
 6415 193a 18       		.byte	0x18
 6416 193b 40       		.byte	0x40
 6417 193c E6080000 		.4byte	0x8e6
 6418 1940 0F       		.byte	0xf
 6419 1941 0D       		.uleb128 0xd
 6420 1942 770F0000 		.4byte	.LASF346
 6421 1946 18       		.byte	0x18
 6422 1947 41       		.byte	0x41
 6423 1948 E6080000 		.4byte	0x8e6
 6424 194c 10       		.byte	0x10
 6425 194d 0D       		.uleb128 0xd
 6426 194e E1140000 		.4byte	.LASF347
 6427 1952 18       		.byte	0x18
 6428 1953 43       		.byte	0x43
 6429 1954 E6080000 		.4byte	0x8e6
 6430 1958 11       		.byte	0x11
 6431 1959 0D       		.uleb128 0xd
 6432 195a B4020000 		.4byte	.LASF348
 6433 195e 18       		.byte	0x18
 6434 195f 44       		.byte	0x44
 6435 1960 E6080000 		.4byte	0x8e6
 6436 1964 12       		.byte	0x12
 6437 1965 0D       		.uleb128 0xd
 6438 1966 D5140000 		.4byte	.LASF349
 6439 196a 18       		.byte	0x18
 6440 196b 45       		.byte	0x45
 6441 196c E6080000 		.4byte	0x8e6
 6442 1970 13       		.byte	0x13
 6443 1971 0D       		.uleb128 0xd
 6444 1972 6D1A0000 		.4byte	.LASF350
 6445 1976 18       		.byte	0x18
 6446 1977 46       		.byte	0x46
 6447 1978 E6080000 		.4byte	0x8e6
 6448 197c 14       		.byte	0x14
 6449 197d 0D       		.uleb128 0xd
 6450 197e FC000000 		.4byte	.LASF351
 6451 1982 18       		.byte	0x18
 6452 1983 48       		.byte	0x48
 6453 1984 E6080000 		.4byte	0x8e6
 6454 1988 15       		.byte	0x15
 6455 1989 00       		.byte	0
 6456 198a 0A       		.uleb128 0xa
 6457 198b 65010000 		.4byte	0x165
 6458 198f 9A190000 		.4byte	0x199a
 6459 1993 0B       		.uleb128 0xb
 6460 1994 37000000 		.4byte	0x37
 6461 1998 03       		.byte	0x3
 6462 1999 00       		.byte	0
 6463 199a 03       		.uleb128 0x3
 6464 199b 1B130000 		.4byte	.LASF352
 6465 199f 18       		.byte	0x18
ARM GAS  C:\Users\PCHAUT~1\AppData\Local\Temp\cc7u0cQS.s 			page 115


 6466 19a0 49       		.byte	0x49
 6467 19a1 A9180000 		.4byte	0x18a9
 6468 19a5 0F       		.uleb128 0xf
 6469 19a6 9A190000 		.4byte	0x199a
 6470 19aa 23       		.uleb128 0x23
 6471 19ab 330B0000 		.4byte	.LASF353
 6472 19af 18       		.byte	0x18
 6473 19b0 6E       		.byte	0x6e
 6474 19b1 A5190000 		.4byte	0x19a5
 6475 19b5 03       		.uleb128 0x3
 6476 19b6 B31C0000 		.4byte	.LASF354
 6477 19ba 17       		.byte	0x17
 6478 19bb 34       		.byte	0x34
 6479 19bc 3F180000 		.4byte	0x183f
 6480 19c0 05       		.uleb128 0x5
 6481 19c1 04       		.byte	0x4
 6482 19c2 B5190000 		.4byte	0x19b5
 6483 19c6 03       		.uleb128 0x3
 6484 19c7 780B0000 		.4byte	.LASF355
 6485 19cb 19       		.byte	0x19
 6486 19cc 34       		.byte	0x34
 6487 19cd D1190000 		.4byte	0x19d1
 6488 19d1 10       		.uleb128 0x10
 6489 19d2 57220000 		.4byte	.LASF356
 6490 19d6 14       		.byte	0x14
 6491 19d7 19       		.byte	0x19
 6492 19d8 39       		.byte	0x39
 6493 19d9 1A1A0000 		.4byte	0x1a1a
 6494 19dd 0D       		.uleb128 0xd
 6495 19de 50020000 		.4byte	.LASF357
 6496 19e2 19       		.byte	0x19
 6497 19e3 3A       		.byte	0x3a
 6498 19e4 1A1A0000 		.4byte	0x1a1a
 6499 19e8 00       		.byte	0
 6500 19e9 0D       		.uleb128 0xd
 6501 19ea 961D0000 		.4byte	.LASF358
 6502 19ee 19       		.byte	0x19
 6503 19ef 3D       		.byte	0x3d
 6504 19f0 040B0000 		.4byte	0xb04
 6505 19f4 04       		.byte	0x4
 6506 19f5 0D       		.uleb128 0xd
 6507 19f6 3B030000 		.4byte	.LASF359
 6508 19fa 19       		.byte	0x19
 6509 19fb 3F       		.byte	0x3f
 6510 19fc 94090000 		.4byte	0x994
 6511 1a00 08       		.byte	0x8
 6512 1a01 0D       		.uleb128 0xd
 6513 1a02 991E0000 		.4byte	.LASF360
 6514 1a06 19       		.byte	0x19
 6515 1a07 41       		.byte	0x41
 6516 1a08 9F090000 		.4byte	0x99f
 6517 1a0c 0C       		.byte	0xc
 6518 1a0d 0D       		.uleb128 0xd
 6519 1a0e 290E0000 		.4byte	.LASF361
 6520 1a12 19       		.byte	0x19
 6521 1a13 43       		.byte	0x43
 6522 1a14 9F090000 		.4byte	0x99f
ARM GAS  C:\Users\PCHAUT~1\AppData\Local\Temp\cc7u0cQS.s 			page 116


 6523 1a18 10       		.byte	0x10
 6524 1a19 00       		.byte	0
 6525 1a1a 05       		.uleb128 0x5
 6526 1a1b 04       		.byte	0x4
 6527 1a1c C6190000 		.4byte	0x19c6
 6528 1a20 10       		.uleb128 0x10
 6529 1a21 A21E0000 		.4byte	.LASF362
 6530 1a25 04       		.byte	0x4
 6531 1a26 19       		.byte	0x19
 6532 1a27 4A       		.byte	0x4a
 6533 1a28 391A0000 		.4byte	0x1a39
 6534 1a2c 0D       		.uleb128 0xd
 6535 1a2d 221E0000 		.4byte	.LASF363
 6536 1a31 19       		.byte	0x19
 6537 1a32 4B       		.byte	0x4b
 6538 1a33 1A1A0000 		.4byte	0x1a1a
 6539 1a37 00       		.byte	0
 6540 1a38 00       		.byte	0
 6541 1a39 03       		.uleb128 0x3
 6542 1a3a 9E130000 		.4byte	.LASF364
 6543 1a3e 19       		.byte	0x19
 6544 1a3f 4E       		.byte	0x4e
 6545 1a40 201A0000 		.4byte	0x1a20
 6546 1a44 03       		.uleb128 0x3
 6547 1a45 690E0000 		.4byte	.LASF365
 6548 1a49 1A       		.byte	0x1a
 6549 1a4a 3F       		.byte	0x3f
 6550 1a4b 4F1A0000 		.4byte	0x1a4f
 6551 1a4f 10       		.uleb128 0x10
 6552 1a50 7B100000 		.4byte	.LASF366
 6553 1a54 24       		.byte	0x24
 6554 1a55 1A       		.byte	0x1a
 6555 1a56 4D       		.byte	0x4d
 6556 1a57 BC1A0000 		.4byte	0x1abc
 6557 1a5b 0D       		.uleb128 0xd
 6558 1a5c CE040000 		.4byte	.LASF367
 6559 1a60 1A       		.byte	0x1a
 6560 1a61 4E       		.byte	0x4e
 6561 1a62 2E0B0000 		.4byte	0xb2e
 6562 1a66 00       		.byte	0
 6563 1a67 0D       		.uleb128 0xd
 6564 1a68 D2160000 		.4byte	.LASF368
 6565 1a6c 1A       		.byte	0x1a
 6566 1a6d 4F       		.byte	0x4f
 6567 1a6e 2C000000 		.4byte	0x2c
 6568 1a72 08       		.byte	0x8
 6569 1a73 0D       		.uleb128 0xd
 6570 1a74 2C110000 		.4byte	.LASF369
 6571 1a78 1A       		.byte	0x1a
 6572 1a79 50       		.byte	0x50
 6573 1a7a DE1A0000 		.4byte	0x1ade
 6574 1a7e 0C       		.byte	0xc
 6575 1a7f 0D       		.uleb128 0xd
 6576 1a80 2E040000 		.4byte	.LASF370
 6577 1a84 1A       		.byte	0x1a
 6578 1a85 51       		.byte	0x51
 6579 1a86 DE1A0000 		.4byte	0x1ade
ARM GAS  C:\Users\PCHAUT~1\AppData\Local\Temp\cc7u0cQS.s 			page 117


 6580 1a8a 10       		.byte	0x10
 6581 1a8b 0D       		.uleb128 0xd
 6582 1a8c 35180000 		.4byte	.LASF371
 6583 1a90 1A       		.byte	0x1a
 6584 1a91 53       		.byte	0x53
 6585 1a92 DE1A0000 		.4byte	0x1ade
 6586 1a96 14       		.byte	0x14
 6587 1a97 0D       		.uleb128 0xd
 6588 1a98 34170000 		.4byte	.LASF372
 6589 1a9c 1A       		.byte	0x1a
 6590 1a9d 54       		.byte	0x54
 6591 1a9e DE1A0000 		.4byte	0x1ade
 6592 1aa2 18       		.byte	0x18
 6593 1aa3 0D       		.uleb128 0xd
 6594 1aa4 8F1B0000 		.4byte	.LASF373
 6595 1aa8 1A       		.byte	0x1a
 6596 1aa9 55       		.byte	0x55
 6597 1aaa BC1A0000 		.4byte	0x1abc
 6598 1aae 1C       		.byte	0x1c
 6599 1aaf 0D       		.uleb128 0xd
 6600 1ab0 36190000 		.4byte	.LASF374
 6601 1ab4 1A       		.byte	0x1a
 6602 1ab5 56       		.byte	0x56
 6603 1ab6 5D010000 		.4byte	0x15d
 6604 1aba 20       		.byte	0x20
 6605 1abb 00       		.byte	0
 6606 1abc 03       		.uleb128 0x3
 6607 1abd EF030000 		.4byte	.LASF375
 6608 1ac1 1A       		.byte	0x1a
 6609 1ac2 42       		.byte	0x42
 6610 1ac3 C71A0000 		.4byte	0x1ac7
 6611 1ac7 05       		.uleb128 0x5
 6612 1ac8 04       		.byte	0x4
 6613 1ac9 CD1A0000 		.4byte	0x1acd
 6614 1acd 1F       		.uleb128 0x1f
 6615 1ace D81A0000 		.4byte	0x1ad8
 6616 1ad2 16       		.uleb128 0x16
 6617 1ad3 D81A0000 		.4byte	0x1ad8
 6618 1ad7 00       		.byte	0
 6619 1ad8 05       		.uleb128 0x5
 6620 1ad9 04       		.byte	0x4
 6621 1ada 441A0000 		.4byte	0x1a44
 6622 1ade 05       		.uleb128 0x5
 6623 1adf 04       		.byte	0x4
 6624 1ae0 E6080000 		.4byte	0x8e6
 6625 1ae4 03       		.uleb128 0x3
 6626 1ae5 14050000 		.4byte	.LASF376
 6627 1ae9 1A       		.byte	0x1a
 6628 1aea 64       		.byte	0x64
 6629 1aeb 441A0000 		.4byte	0x1a44
 6630 1aef 03       		.uleb128 0x3
 6631 1af0 9A220000 		.4byte	.LASF377
 6632 1af4 1A       		.byte	0x1a
 6633 1af5 71       		.byte	0x71
 6634 1af6 441A0000 		.4byte	0x1a44
 6635 1afa 15       		.uleb128 0x15
 6636 1afb 2C000000 		.4byte	0x2c
ARM GAS  C:\Users\PCHAUT~1\AppData\Local\Temp\cc7u0cQS.s 			page 118


 6637 1aff 131B0000 		.4byte	0x1b13
 6638 1b03 16       		.uleb128 0x16
 6639 1b04 5D010000 		.4byte	0x15d
 6640 1b08 16       		.uleb128 0x16
 6641 1b09 131B0000 		.4byte	0x1b13
 6642 1b0d 16       		.uleb128 0x16
 6643 1b0e 2C000000 		.4byte	0x2c
 6644 1b12 00       		.byte	0
 6645 1b13 05       		.uleb128 0x5
 6646 1b14 04       		.byte	0x4
 6647 1b15 F1080000 		.4byte	0x8f1
 6648 1b19 05       		.uleb128 0x5
 6649 1b1a 04       		.byte	0x4
 6650 1b1b FA1A0000 		.4byte	0x1afa
 6651 1b1f 15       		.uleb128 0x15
 6652 1b20 2C000000 		.4byte	0x2c
 6653 1b24 381B0000 		.4byte	0x1b38
 6654 1b28 16       		.uleb128 0x16
 6655 1b29 5D010000 		.4byte	0x15d
 6656 1b2d 16       		.uleb128 0x16
 6657 1b2e DE1A0000 		.4byte	0x1ade
 6658 1b32 16       		.uleb128 0x16
 6659 1b33 2C000000 		.4byte	0x2c
 6660 1b37 00       		.byte	0
 6661 1b38 05       		.uleb128 0x5
 6662 1b39 04       		.byte	0x4
 6663 1b3a 1F1B0000 		.4byte	0x1b1f
 6664 1b3e 15       		.uleb128 0x15
 6665 1b3f 89090000 		.4byte	0x989
 6666 1b43 521B0000 		.4byte	0x1b52
 6667 1b47 16       		.uleb128 0x16
 6668 1b48 5D010000 		.4byte	0x15d
 6669 1b4c 16       		.uleb128 0x16
 6670 1b4d E6080000 		.4byte	0x8e6
 6671 1b51 00       		.byte	0
 6672 1b52 05       		.uleb128 0x5
 6673 1b53 04       		.byte	0x4
 6674 1b54 3E1B0000 		.4byte	0x1b3e
 6675 1b58 15       		.uleb128 0x15
 6676 1b59 89090000 		.4byte	0x989
 6677 1b5d 671B0000 		.4byte	0x1b67
 6678 1b61 16       		.uleb128 0x16
 6679 1b62 5D010000 		.4byte	0x15d
 6680 1b66 00       		.byte	0
 6681 1b67 05       		.uleb128 0x5
 6682 1b68 04       		.byte	0x4
 6683 1b69 581B0000 		.4byte	0x1b58
 6684 1b6d 0C       		.uleb128 0xc
 6685 1b6e 0C       		.byte	0xc
 6686 1b6f 1B       		.byte	0x1b
 6687 1b70 DA       		.byte	0xda
 6688 1b71 B21B0000 		.4byte	0x1bb2
 6689 1b75 0D       		.uleb128 0xd
 6690 1b76 3E220000 		.4byte	.LASF378
 6691 1b7a 1B       		.byte	0x1b
 6692 1b7b DB       		.byte	0xdb
 6693 1b7c B21B0000 		.4byte	0x1bb2
ARM GAS  C:\Users\PCHAUT~1\AppData\Local\Temp\cc7u0cQS.s 			page 119


 6694 1b80 00       		.byte	0
 6695 1b81 0D       		.uleb128 0xd
 6696 1b82 DC0F0000 		.4byte	.LASF379
 6697 1b86 1B       		.byte	0x1b
 6698 1b87 DC       		.byte	0xdc
 6699 1b88 B81B0000 		.4byte	0x1bb8
 6700 1b8c 04       		.byte	0x4
 6701 1b8d 0D       		.uleb128 0xd
 6702 1b8e 0D040000 		.4byte	.LASF380
 6703 1b92 1B       		.byte	0x1b
 6704 1b93 DD       		.byte	0xdd
 6705 1b94 E6080000 		.4byte	0x8e6
 6706 1b98 08       		.byte	0x8
 6707 1b99 0D       		.uleb128 0xd
 6708 1b9a A91C0000 		.4byte	.LASF381
 6709 1b9e 1B       		.byte	0x1b
 6710 1b9f DF       		.byte	0xdf
 6711 1ba0 E6080000 		.4byte	0x8e6
 6712 1ba4 09       		.byte	0x9
 6713 1ba5 0D       		.uleb128 0xd
 6714 1ba6 73030000 		.4byte	.LASF382
 6715 1baa 1B       		.byte	0x1b
 6716 1bab E0       		.byte	0xe0
 6717 1bac E6080000 		.4byte	0x8e6
 6718 1bb0 0A       		.byte	0xa
 6719 1bb1 00       		.byte	0
 6720 1bb2 05       		.uleb128 0x5
 6721 1bb3 04       		.byte	0x4
 6722 1bb4 F2110000 		.4byte	0x11f2
 6723 1bb8 05       		.uleb128 0x5
 6724 1bb9 04       		.byte	0x4
 6725 1bba 27090000 		.4byte	0x927
 6726 1bbe 03       		.uleb128 0x3
 6727 1bbf 2C120000 		.4byte	.LASF383
 6728 1bc3 1B       		.byte	0x1b
 6729 1bc4 E1       		.byte	0xe1
 6730 1bc5 6D1B0000 		.4byte	0x1b6d
 6731 1bc9 0F       		.uleb128 0xf
 6732 1bca BE1B0000 		.4byte	0x1bbe
 6733 1bce 0A       		.uleb128 0xa
 6734 1bcf C91B0000 		.4byte	0x1bc9
 6735 1bd3 DE1B0000 		.4byte	0x1bde
 6736 1bd7 0B       		.uleb128 0xb
 6737 1bd8 37000000 		.4byte	0x37
 6738 1bdc 0F       		.byte	0xf
 6739 1bdd 00       		.byte	0
 6740 1bde 0F       		.uleb128 0xf
 6741 1bdf CE1B0000 		.4byte	0x1bce
 6742 1be3 20       		.uleb128 0x20
 6743 1be4 9E190000 		.4byte	.LASF384
 6744 1be8 1B       		.byte	0x1b
 6745 1be9 BB01     		.2byte	0x1bb
 6746 1beb DE1B0000 		.4byte	0x1bde
 6747 1bef 15       		.uleb128 0x15
 6748 1bf0 89090000 		.4byte	0x989
 6749 1bf4 081C0000 		.4byte	0x1c08
 6750 1bf8 16       		.uleb128 0x16
ARM GAS  C:\Users\PCHAUT~1\AppData\Local\Temp\cc7u0cQS.s 			page 120


 6751 1bf9 5D010000 		.4byte	0x15d
 6752 1bfd 16       		.uleb128 0x16
 6753 1bfe E6080000 		.4byte	0x8e6
 6754 1c02 16       		.uleb128 0x16
 6755 1c03 C0090000 		.4byte	0x9c0
 6756 1c07 00       		.byte	0
 6757 1c08 05       		.uleb128 0x5
 6758 1c09 04       		.byte	0x4
 6759 1c0a EF1B0000 		.4byte	0x1bef
 6760 1c0e 15       		.uleb128 0x15
 6761 1c0f 89090000 		.4byte	0x989
 6762 1c13 221C0000 		.4byte	0x1c22
 6763 1c17 16       		.uleb128 0x16
 6764 1c18 5D010000 		.4byte	0x15d
 6765 1c1c 16       		.uleb128 0x16
 6766 1c1d C0090000 		.4byte	0x9c0
 6767 1c21 00       		.byte	0
 6768 1c22 05       		.uleb128 0x5
 6769 1c23 04       		.byte	0x4
 6770 1c24 0E1C0000 		.4byte	0x1c0e
 6771 1c28 15       		.uleb128 0x15
 6772 1c29 2C000000 		.4byte	0x2c
 6773 1c2d 461C0000 		.4byte	0x1c46
 6774 1c31 16       		.uleb128 0x16
 6775 1c32 5D010000 		.4byte	0x15d
 6776 1c36 16       		.uleb128 0x16
 6777 1c37 131B0000 		.4byte	0x1b13
 6778 1c3b 16       		.uleb128 0x16
 6779 1c3c 2C000000 		.4byte	0x2c
 6780 1c40 16       		.uleb128 0x16
 6781 1c41 C0090000 		.4byte	0x9c0
 6782 1c45 00       		.byte	0
 6783 1c46 05       		.uleb128 0x5
 6784 1c47 04       		.byte	0x4
 6785 1c48 281C0000 		.4byte	0x1c28
 6786 1c4c 15       		.uleb128 0x15
 6787 1c4d 2C000000 		.4byte	0x2c
 6788 1c51 6A1C0000 		.4byte	0x1c6a
 6789 1c55 16       		.uleb128 0x16
 6790 1c56 5D010000 		.4byte	0x15d
 6791 1c5a 16       		.uleb128 0x16
 6792 1c5b DE1A0000 		.4byte	0x1ade
 6793 1c5f 16       		.uleb128 0x16
 6794 1c60 2C000000 		.4byte	0x2c
 6795 1c64 16       		.uleb128 0x16
 6796 1c65 C0090000 		.4byte	0x9c0
 6797 1c69 00       		.byte	0
 6798 1c6a 05       		.uleb128 0x5
 6799 1c6b 04       		.byte	0x4
 6800 1c6c 4C1C0000 		.4byte	0x1c4c
 6801 1c70 27       		.uleb128 0x27
 6802 1c71 07       		.byte	0x7
 6803 1c72 01       		.byte	0x1
 6804 1c73 5E000000 		.4byte	0x5e
 6805 1c77 1C       		.byte	0x1c
 6806 1c78 28       		.byte	0x28
 6807 1c79 B41C0000 		.4byte	0x1cb4
ARM GAS  C:\Users\PCHAUT~1\AppData\Local\Temp\cc7u0cQS.s 			page 121


 6808 1c7d 28       		.uleb128 0x28
 6809 1c7e 69010000 		.4byte	.LASF385
 6810 1c82 00       		.byte	0
 6811 1c83 28       		.uleb128 0x28
 6812 1c84 0B0F0000 		.4byte	.LASF386
 6813 1c88 01       		.byte	0x1
 6814 1c89 28       		.uleb128 0x28
 6815 1c8a 630B0000 		.4byte	.LASF387
 6816 1c8e 02       		.byte	0x2
 6817 1c8f 28       		.uleb128 0x28
 6818 1c90 E11A0000 		.4byte	.LASF388
 6819 1c94 03       		.byte	0x3
 6820 1c95 28       		.uleb128 0x28
 6821 1c96 61210000 		.4byte	.LASF389
 6822 1c9a 04       		.byte	0x4
 6823 1c9b 28       		.uleb128 0x28
 6824 1c9c 0F070000 		.4byte	.LASF390
 6825 1ca0 05       		.byte	0x5
 6826 1ca1 28       		.uleb128 0x28
 6827 1ca2 7D1C0000 		.4byte	.LASF391
 6828 1ca6 06       		.byte	0x6
 6829 1ca7 28       		.uleb128 0x28
 6830 1ca8 99170000 		.4byte	.LASF392
 6831 1cac 07       		.byte	0x7
 6832 1cad 28       		.uleb128 0x28
 6833 1cae 2D210000 		.4byte	.LASF393
 6834 1cb2 08       		.byte	0x8
 6835 1cb3 00       		.byte	0
 6836 1cb4 03       		.uleb128 0x3
 6837 1cb5 41160000 		.4byte	.LASF394
 6838 1cb9 1C       		.byte	0x1c
 6839 1cba 32       		.byte	0x32
 6840 1cbb 701C0000 		.4byte	0x1c70
 6841 1cbf 0C       		.uleb128 0xc
 6842 1cc0 08       		.byte	0x8
 6843 1cc1 1C       		.byte	0x1c
 6844 1cc2 37       		.byte	0x37
 6845 1cc3 E01C0000 		.4byte	0x1ce0
 6846 1cc7 0D       		.uleb128 0xd
 6847 1cc8 A0060000 		.4byte	.LASF395
 6848 1ccc 1C       		.byte	0x1c
 6849 1ccd 38       		.byte	0x38
 6850 1cce 1C090000 		.4byte	0x91c
 6851 1cd2 00       		.byte	0
 6852 1cd3 0D       		.uleb128 0xd
 6853 1cd4 F31B0000 		.4byte	.LASF396
 6854 1cd8 1C       		.byte	0x1c
 6855 1cd9 39       		.byte	0x39
 6856 1cda 1C090000 		.4byte	0x91c
 6857 1cde 04       		.byte	0x4
 6858 1cdf 00       		.byte	0
 6859 1ce0 03       		.uleb128 0x3
 6860 1ce1 D01D0000 		.4byte	.LASF397
 6861 1ce5 1C       		.byte	0x1c
 6862 1ce6 3A       		.byte	0x3a
 6863 1ce7 BF1C0000 		.4byte	0x1cbf
 6864 1ceb 15       		.uleb128 0x15
ARM GAS  C:\Users\PCHAUT~1\AppData\Local\Temp\cc7u0cQS.s 			page 122


 6865 1cec FA1C0000 		.4byte	0x1cfa
 6866 1cf0 FA1C0000 		.4byte	0x1cfa
 6867 1cf4 16       		.uleb128 0x16
 6868 1cf5 5D010000 		.4byte	0x15d
 6869 1cf9 00       		.byte	0
 6870 1cfa 04       		.uleb128 0x4
 6871 1cfb 01       		.byte	0x1
 6872 1cfc 02       		.byte	0x2
 6873 1cfd 25010000 		.4byte	.LASF398
 6874 1d01 05       		.uleb128 0x5
 6875 1d02 04       		.byte	0x4
 6876 1d03 EB1C0000 		.4byte	0x1ceb
 6877 1d07 15       		.uleb128 0x15
 6878 1d08 FA1C0000 		.4byte	0x1cfa
 6879 1d0c 251D0000 		.4byte	0x1d25
 6880 1d10 16       		.uleb128 0x16
 6881 1d11 5D010000 		.4byte	0x15d
 6882 1d15 16       		.uleb128 0x16
 6883 1d16 1C090000 		.4byte	0x91c
 6884 1d1a 16       		.uleb128 0x16
 6885 1d1b DE1A0000 		.4byte	0x1ade
 6886 1d1f 16       		.uleb128 0x16
 6887 1d20 1C090000 		.4byte	0x91c
 6888 1d24 00       		.byte	0
 6889 1d25 05       		.uleb128 0x5
 6890 1d26 04       		.byte	0x4
 6891 1d27 071D0000 		.4byte	0x1d07
 6892 1d2b 15       		.uleb128 0x15
 6893 1d2c FA1C0000 		.4byte	0x1cfa
 6894 1d30 491D0000 		.4byte	0x1d49
 6895 1d34 16       		.uleb128 0x16
 6896 1d35 5D010000 		.4byte	0x15d
 6897 1d39 16       		.uleb128 0x16
 6898 1d3a 1C090000 		.4byte	0x91c
 6899 1d3e 16       		.uleb128 0x16
 6900 1d3f 131B0000 		.4byte	0x1b13
 6901 1d43 16       		.uleb128 0x16
 6902 1d44 1C090000 		.4byte	0x91c
 6903 1d48 00       		.byte	0
 6904 1d49 05       		.uleb128 0x5
 6905 1d4a 04       		.byte	0x4
 6906 1d4b 2B1D0000 		.4byte	0x1d2b
 6907 1d4f 15       		.uleb128 0x15
 6908 1d50 FA1C0000 		.4byte	0x1cfa
 6909 1d54 631D0000 		.4byte	0x1d63
 6910 1d58 16       		.uleb128 0x16
 6911 1d59 5D010000 		.4byte	0x15d
 6912 1d5d 16       		.uleb128 0x16
 6913 1d5e 631D0000 		.4byte	0x1d63
 6914 1d62 00       		.byte	0
 6915 1d63 05       		.uleb128 0x5
 6916 1d64 04       		.byte	0x4
 6917 1d65 E01C0000 		.4byte	0x1ce0
 6918 1d69 05       		.uleb128 0x5
 6919 1d6a 04       		.byte	0x4
 6920 1d6b 4F1D0000 		.4byte	0x1d4f
 6921 1d6f 0A       		.uleb128 0xa
ARM GAS  C:\Users\PCHAUT~1\AppData\Local\Temp\cc7u0cQS.s 			page 123


 6922 1d70 1C090000 		.4byte	0x91c
 6923 1d74 7F1D0000 		.4byte	0x1d7f
 6924 1d78 0B       		.uleb128 0xb
 6925 1d79 37000000 		.4byte	0x37
 6926 1d7d 03       		.byte	0x3
 6927 1d7e 00       		.byte	0
 6928 1d7f 0C       		.uleb128 0xc
 6929 1d80 04       		.byte	0x4
 6930 1d81 1D       		.byte	0x1d
 6931 1d82 B3       		.byte	0xb3
 6932 1d83 A01D0000 		.4byte	0x1da0
 6933 1d87 11       		.uleb128 0x11
 6934 1d88 73657400 		.ascii	"set\000"
 6935 1d8c 1D       		.byte	0x1d
 6936 1d8d B4       		.byte	0xb4
 6937 1d8e 01090000 		.4byte	0x901
 6938 1d92 00       		.byte	0
 6939 1d93 0D       		.uleb128 0xd
 6940 1d94 1D0D0000 		.4byte	.LASF399
 6941 1d98 1D       		.byte	0x1d
 6942 1d99 B5       		.byte	0xb5
 6943 1d9a 01090000 		.4byte	0x901
 6944 1d9e 02       		.byte	0x2
 6945 1d9f 00       		.byte	0
 6946 1da0 08       		.uleb128 0x8
 6947 1da1 04       		.byte	0x4
 6948 1da2 1D       		.byte	0x1d
 6949 1da3 B1       		.byte	0xb1
 6950 1da4 BB1D0000 		.4byte	0x1dbb
 6951 1da8 29       		.uleb128 0x29
 6952 1da9 5700     		.ascii	"W\000"
 6953 1dab 1D       		.byte	0x1d
 6954 1dac B2       		.byte	0xb2
 6955 1dad 1C090000 		.4byte	0x91c
 6956 1db1 29       		.uleb128 0x29
 6957 1db2 4800     		.ascii	"H\000"
 6958 1db4 1D       		.byte	0x1d
 6959 1db5 B6       		.byte	0xb6
 6960 1db6 7F1D0000 		.4byte	0x1d7f
 6961 1dba 00       		.byte	0
 6962 1dbb 1A       		.uleb128 0x1a
 6963 1dbc A01D0000 		.4byte	0x1da0
 6964 1dc0 0C       		.uleb128 0xc
 6965 1dc1 2C       		.byte	0x2c
 6966 1dc2 1D       		.byte	0x1d
 6967 1dc3 A9       		.byte	0xa9
 6968 1dc4 4D1E0000 		.4byte	0x1e4d
 6969 1dc8 0D       		.uleb128 0xd
 6970 1dc9 DE1C0000 		.4byte	.LASF400
 6971 1dcd 1D       		.byte	0x1d
 6972 1dce AB       		.byte	0xab
 6973 1dcf 27090000 		.4byte	0x927
 6974 1dd3 00       		.byte	0
 6975 1dd4 0D       		.uleb128 0xd
 6976 1dd5 FC020000 		.4byte	.LASF401
 6977 1dd9 1D       		.byte	0x1d
 6978 1dda AC       		.byte	0xac
ARM GAS  C:\Users\PCHAUT~1\AppData\Local\Temp\cc7u0cQS.s 			page 124


 6979 1ddb 27090000 		.4byte	0x927
 6980 1ddf 04       		.byte	0x4
 6981 1de0 0D       		.uleb128 0xd
 6982 1de1 C60E0000 		.4byte	.LASF402
 6983 1de5 1D       		.byte	0x1d
 6984 1de6 AD       		.byte	0xad
 6985 1de7 27090000 		.4byte	0x927
 6986 1deb 08       		.byte	0x8
 6987 1dec 0D       		.uleb128 0xd
 6988 1ded 191C0000 		.4byte	.LASF403
 6989 1df1 1D       		.byte	0x1d
 6990 1df2 AE       		.byte	0xae
 6991 1df3 27090000 		.4byte	0x927
 6992 1df7 0C       		.byte	0xc
 6993 1df8 11       		.uleb128 0x11
 6994 1df9 49445200 		.ascii	"IDR\000"
 6995 1dfd 1D       		.byte	0x1d
 6996 1dfe AF       		.byte	0xaf
 6997 1dff 27090000 		.4byte	0x927
 6998 1e03 10       		.byte	0x10
 6999 1e04 11       		.uleb128 0x11
 7000 1e05 4F445200 		.ascii	"ODR\000"
 7001 1e09 1D       		.byte	0x1d
 7002 1e0a B0       		.byte	0xb0
 7003 1e0b 27090000 		.4byte	0x927
 7004 1e0f 14       		.byte	0x14
 7005 1e10 0D       		.uleb128 0xd
 7006 1e11 27120000 		.4byte	.LASF404
 7007 1e15 1D       		.byte	0x1d
 7008 1e16 B7       		.byte	0xb7
 7009 1e17 BB1D0000 		.4byte	0x1dbb
 7010 1e1b 18       		.byte	0x18
 7011 1e1c 0D       		.uleb128 0xd
 7012 1e1d 6E170000 		.4byte	.LASF405
 7013 1e21 1D       		.byte	0x1d
 7014 1e22 B8       		.byte	0xb8
 7015 1e23 27090000 		.4byte	0x927
 7016 1e27 1C       		.byte	0x1c
 7017 1e28 0D       		.uleb128 0xd
 7018 1e29 5C1A0000 		.4byte	.LASF406
 7019 1e2d 1D       		.byte	0x1d
 7020 1e2e B9       		.byte	0xb9
 7021 1e2f 27090000 		.4byte	0x927
 7022 1e33 20       		.byte	0x20
 7023 1e34 0D       		.uleb128 0xd
 7024 1e35 571A0000 		.4byte	.LASF407
 7025 1e39 1D       		.byte	0x1d
 7026 1e3a BA       		.byte	0xba
 7027 1e3b 27090000 		.4byte	0x927
 7028 1e3f 24       		.byte	0x24
 7029 1e40 11       		.uleb128 0x11
 7030 1e41 42525200 		.ascii	"BRR\000"
 7031 1e45 1D       		.byte	0x1d
 7032 1e46 BB       		.byte	0xbb
 7033 1e47 27090000 		.4byte	0x927
 7034 1e4b 28       		.byte	0x28
 7035 1e4c 00       		.byte	0
ARM GAS  C:\Users\PCHAUT~1\AppData\Local\Temp\cc7u0cQS.s 			page 125


 7036 1e4d 03       		.uleb128 0x3
 7037 1e4e F40F0000 		.4byte	.LASF408
 7038 1e52 1D       		.byte	0x1d
 7039 1e53 BC       		.byte	0xbc
 7040 1e54 C01D0000 		.4byte	0x1dc0
 7041 1e58 0C       		.uleb128 0xc
 7042 1e59 1C       		.byte	0x1c
 7043 1e5a 1D       		.byte	0x1d
 7044 1e5b C1       		.byte	0xc1
 7045 1e5c B51E0000 		.4byte	0x1eb5
 7046 1e60 0D       		.uleb128 0xd
 7047 1e61 D51F0000 		.4byte	.LASF409
 7048 1e65 1D       		.byte	0x1d
 7049 1e66 C3       		.byte	0xc3
 7050 1e67 1C090000 		.4byte	0x91c
 7051 1e6b 00       		.byte	0
 7052 1e6c 0D       		.uleb128 0xd
 7053 1e6d F5020000 		.4byte	.LASF410
 7054 1e71 1D       		.byte	0x1d
 7055 1e72 C5       		.byte	0xc5
 7056 1e73 1C090000 		.4byte	0x91c
 7057 1e77 04       		.byte	0x4
 7058 1e78 0D       		.uleb128 0xd
 7059 1e79 40020000 		.4byte	.LASF411
 7060 1e7d 1D       		.byte	0x1d
 7061 1e7e C7       		.byte	0xc7
 7062 1e7f 1C090000 		.4byte	0x91c
 7063 1e83 08       		.byte	0x8
 7064 1e84 0D       		.uleb128 0xd
 7065 1e85 091F0000 		.4byte	.LASF412
 7066 1e89 1D       		.byte	0x1d
 7067 1e8a C9       		.byte	0xc9
 7068 1e8b 1C090000 		.4byte	0x91c
 7069 1e8f 0C       		.byte	0xc
 7070 1e90 11       		.uleb128 0x11
 7071 1e91 6F647200 		.ascii	"odr\000"
 7072 1e95 1D       		.byte	0x1d
 7073 1e96 CB       		.byte	0xcb
 7074 1e97 1C090000 		.4byte	0x91c
 7075 1e9b 10       		.byte	0x10
 7076 1e9c 0D       		.uleb128 0xd
 7077 1e9d 891C0000 		.4byte	.LASF413
 7078 1ea1 1D       		.byte	0x1d
 7079 1ea2 CD       		.byte	0xcd
 7080 1ea3 1C090000 		.4byte	0x91c
 7081 1ea7 14       		.byte	0x14
 7082 1ea8 0D       		.uleb128 0xd
 7083 1ea9 65000000 		.4byte	.LASF414
 7084 1ead 1D       		.byte	0x1d
 7085 1eae CF       		.byte	0xcf
 7086 1eaf 1C090000 		.4byte	0x91c
 7087 1eb3 18       		.byte	0x18
 7088 1eb4 00       		.byte	0
 7089 1eb5 03       		.uleb128 0x3
 7090 1eb6 8B190000 		.4byte	.LASF415
 7091 1eba 1D       		.byte	0x1d
 7092 1ebb D0       		.byte	0xd0
ARM GAS  C:\Users\PCHAUT~1\AppData\Local\Temp\cc7u0cQS.s 			page 126


 7093 1ebc 581E0000 		.4byte	0x1e58
 7094 1ec0 0C       		.uleb128 0xc
 7095 1ec1 FC       		.byte	0xfc
 7096 1ec2 1D       		.byte	0x1d
 7097 1ec3 D9       		.byte	0xd9
 7098 1ec4 351F0000 		.4byte	0x1f35
 7099 1ec8 0D       		.uleb128 0xd
 7100 1ec9 84100000 		.4byte	.LASF416
 7101 1ecd 1D       		.byte	0x1d
 7102 1ece DC       		.byte	0xdc
 7103 1ecf B51E0000 		.4byte	0x1eb5
 7104 1ed3 00       		.byte	0
 7105 1ed4 0D       		.uleb128 0xd
 7106 1ed5 DE020000 		.4byte	.LASF417
 7107 1ed9 1D       		.byte	0x1d
 7108 1eda E0       		.byte	0xe0
 7109 1edb B51E0000 		.4byte	0x1eb5
 7110 1edf 1C       		.byte	0x1c
 7111 1ee0 0D       		.uleb128 0xd
 7112 1ee1 C3010000 		.4byte	.LASF418
 7113 1ee5 1D       		.byte	0x1d
 7114 1ee6 E4       		.byte	0xe4
 7115 1ee7 B51E0000 		.4byte	0x1eb5
 7116 1eeb 38       		.byte	0x38
 7117 1eec 0D       		.uleb128 0xd
 7118 1eed 450E0000 		.4byte	.LASF419
 7119 1ef1 1D       		.byte	0x1d
 7120 1ef2 E8       		.byte	0xe8
 7121 1ef3 B51E0000 		.4byte	0x1eb5
 7122 1ef7 54       		.byte	0x54
 7123 1ef8 0D       		.uleb128 0xd
 7124 1ef9 CC180000 		.4byte	.LASF420
 7125 1efd 1D       		.byte	0x1d
 7126 1efe EC       		.byte	0xec
 7127 1eff B51E0000 		.4byte	0x1eb5
 7128 1f03 70       		.byte	0x70
 7129 1f04 0D       		.uleb128 0xd
 7130 1f05 EF220000 		.4byte	.LASF421
 7131 1f09 1D       		.byte	0x1d
 7132 1f0a F0       		.byte	0xf0
 7133 1f0b B51E0000 		.4byte	0x1eb5
 7134 1f0f 8C       		.byte	0x8c
 7135 1f10 0D       		.uleb128 0xd
 7136 1f11 040C0000 		.4byte	.LASF422
 7137 1f15 1D       		.byte	0x1d
 7138 1f16 F4       		.byte	0xf4
 7139 1f17 B51E0000 		.4byte	0x1eb5
 7140 1f1b A8       		.byte	0xa8
 7141 1f1c 0D       		.uleb128 0xd
 7142 1f1d DC160000 		.4byte	.LASF423
 7143 1f21 1D       		.byte	0x1d
 7144 1f22 F8       		.byte	0xf8
 7145 1f23 B51E0000 		.4byte	0x1eb5
 7146 1f27 C4       		.byte	0xc4
 7147 1f28 0D       		.uleb128 0xd
 7148 1f29 39210000 		.4byte	.LASF424
 7149 1f2d 1D       		.byte	0x1d
ARM GAS  C:\Users\PCHAUT~1\AppData\Local\Temp\cc7u0cQS.s 			page 127


 7150 1f2e FC       		.byte	0xfc
 7151 1f2f B51E0000 		.4byte	0x1eb5
 7152 1f33 E0       		.byte	0xe0
 7153 1f34 00       		.byte	0
 7154 1f35 03       		.uleb128 0x3
 7155 1f36 460B0000 		.4byte	.LASF425
 7156 1f3a 1D       		.byte	0x1d
 7157 1f3b FE       		.byte	0xfe
 7158 1f3c C01E0000 		.4byte	0x1ec0
 7159 1f40 0F       		.uleb128 0xf
 7160 1f41 351F0000 		.4byte	0x1f35
 7161 1f45 07       		.uleb128 0x7
 7162 1f46 E3160000 		.4byte	.LASF426
 7163 1f4a 1D       		.byte	0x1d
 7164 1f4b 1B01     		.2byte	0x11b
 7165 1f4d 511F0000 		.4byte	0x1f51
 7166 1f51 05       		.uleb128 0x5
 7167 1f52 04       		.byte	0x4
 7168 1f53 4D1E0000 		.4byte	0x1e4d
 7169 1f57 20       		.uleb128 0x20
 7170 1f58 761D0000 		.4byte	.LASF427
 7171 1f5c 1D       		.byte	0x1d
 7172 1f5d DA01     		.2byte	0x1da
 7173 1f5f 401F0000 		.4byte	0x1f40
 7174 1f63 27       		.uleb128 0x27
 7175 1f64 07       		.byte	0x7
 7176 1f65 01       		.byte	0x1
 7177 1f66 5E000000 		.4byte	0x5e
 7178 1f6a 1E       		.byte	0x1e
 7179 1f6b 46       		.byte	0x46
 7180 1f6c 951F0000 		.4byte	0x1f95
 7181 1f70 28       		.uleb128 0x28
 7182 1f71 E5070000 		.4byte	.LASF428
 7183 1f75 00       		.byte	0
 7184 1f76 28       		.uleb128 0x28
 7185 1f77 64140000 		.4byte	.LASF429
 7186 1f7b 01       		.byte	0x1
 7187 1f7c 28       		.uleb128 0x28
 7188 1f7d 841F0000 		.4byte	.LASF430
 7189 1f81 02       		.byte	0x2
 7190 1f82 28       		.uleb128 0x28
 7191 1f83 0D120000 		.4byte	.LASF431
 7192 1f87 03       		.byte	0x3
 7193 1f88 28       		.uleb128 0x28
 7194 1f89 01060000 		.4byte	.LASF432
 7195 1f8d 04       		.byte	0x4
 7196 1f8e 28       		.uleb128 0x28
 7197 1f8f E5110000 		.4byte	.LASF433
 7198 1f93 05       		.byte	0x5
 7199 1f94 00       		.byte	0
 7200 1f95 03       		.uleb128 0x3
 7201 1f96 F9030000 		.4byte	.LASF434
 7202 1f9a 1E       		.byte	0x1e
 7203 1f9b 4D       		.byte	0x4d
 7204 1f9c 631F0000 		.4byte	0x1f63
 7205 1fa0 07       		.uleb128 0x7
 7206 1fa1 12110000 		.4byte	.LASF435
ARM GAS  C:\Users\PCHAUT~1\AppData\Local\Temp\cc7u0cQS.s 			page 128


 7207 1fa5 1F       		.byte	0x1f
 7208 1fa6 2701     		.2byte	0x127
 7209 1fa8 01090000 		.4byte	0x901
 7210 1fac 07       		.uleb128 0x7
 7211 1fad 051B0000 		.4byte	.LASF436
 7212 1fb1 1F       		.byte	0x1f
 7213 1fb2 2C01     		.2byte	0x12c
 7214 1fb4 01090000 		.4byte	0x901
 7215 1fb8 2A       		.uleb128 0x2a
 7216 1fb9 07       		.byte	0x7
 7217 1fba 01       		.byte	0x1
 7218 1fbb 5E000000 		.4byte	0x5e
 7219 1fbf 1F       		.byte	0x1f
 7220 1fc0 3301     		.2byte	0x133
 7221 1fc2 D31F0000 		.4byte	0x1fd3
 7222 1fc6 28       		.uleb128 0x28
 7223 1fc7 920E0000 		.4byte	.LASF437
 7224 1fcb 00       		.byte	0
 7225 1fcc 28       		.uleb128 0x28
 7226 1fcd 58020000 		.4byte	.LASF438
 7227 1fd1 01       		.byte	0x1
 7228 1fd2 00       		.byte	0
 7229 1fd3 07       		.uleb128 0x7
 7230 1fd4 84200000 		.4byte	.LASF439
 7231 1fd8 1F       		.byte	0x1f
 7232 1fd9 3601     		.2byte	0x136
 7233 1fdb B81F0000 		.4byte	0x1fb8
 7234 1fdf 07       		.uleb128 0x7
 7235 1fe0 460F0000 		.4byte	.LASF440
 7236 1fe4 1F       		.byte	0x1f
 7237 1fe5 3B01     		.2byte	0x13b
 7238 1fe7 EB1F0000 		.4byte	0x1feb
 7239 1feb 1B       		.uleb128 0x1b
 7240 1fec 460F0000 		.4byte	.LASF440
 7241 1ff0 38       		.byte	0x38
 7242 1ff1 1F       		.byte	0x1f
 7243 1ff2 9F01     		.2byte	0x19f
 7244 1ff4 7B200000 		.4byte	0x207b
 7245 1ff8 18       		.uleb128 0x18
 7246 1ff9 4D150000 		.4byte	.LASF441
 7247 1ffd 1F       		.byte	0x1f
 7248 1ffe A301     		.2byte	0x1a3
 7249 2000 951F0000 		.4byte	0x1f95
 7250 2004 00       		.byte	0
 7251 2005 18       		.uleb128 0x18
 7252 2006 B31A0000 		.4byte	.LASF442
 7253 200a 1F       		.byte	0x1f
 7254 200b A701     		.2byte	0x1a7
 7255 200d A2210000 		.4byte	0x21a2
 7256 2011 04       		.byte	0x4
 7257 2012 18       		.uleb128 0x18
 7258 2013 D9010000 		.4byte	.LASF443
 7259 2017 1F       		.byte	0x1f
 7260 2018 AB01     		.2byte	0x1ab
 7261 201a A8200000 		.4byte	0x20a8
 7262 201e 08       		.byte	0x8
 7263 201f 18       		.uleb128 0x18
ARM GAS  C:\Users\PCHAUT~1\AppData\Local\Temp\cc7u0cQS.s 			page 129


 7264 2020 D5170000 		.4byte	.LASF444
 7265 2024 1F       		.byte	0x1f
 7266 2025 AF01     		.2byte	0x1af
 7267 2027 2C000000 		.4byte	0x2c
 7268 202b 0C       		.byte	0xc
 7269 202c 18       		.uleb128 0x18
 7270 202d 891D0000 		.4byte	.LASF445
 7271 2031 1F       		.byte	0x1f
 7272 2032 B301     		.2byte	0x1b3
 7273 2034 A8210000 		.4byte	0x21a8
 7274 2038 10       		.byte	0x10
 7275 2039 18       		.uleb128 0x18
 7276 203a 77060000 		.4byte	.LASF446
 7277 203e 1F       		.byte	0x1f
 7278 203f B801     		.2byte	0x1b8
 7279 2041 F90A0000 		.4byte	0xaf9
 7280 2045 14       		.byte	0x14
 7281 2046 18       		.uleb128 0x18
 7282 2047 EE0C0000 		.4byte	.LASF447
 7283 204b 1F       		.byte	0x1f
 7284 204c BE01     		.2byte	0x1be
 7285 204e B5190000 		.4byte	0x19b5
 7286 2052 18       		.byte	0x18
 7287 2053 21       		.uleb128 0x21
 7288 2054 61646300 		.ascii	"adc\000"
 7289 2058 1F       		.byte	0x1f
 7290 2059 C701     		.2byte	0x1c7
 7291 205b AE210000 		.4byte	0x21ae
 7292 205f 2C       		.byte	0x2c
 7293 2060 18       		.uleb128 0x18
 7294 2061 050B0000 		.4byte	.LASF448
 7295 2065 1F       		.byte	0x1f
 7296 2066 CB01     		.2byte	0x1cb
 7297 2068 B4210000 		.4byte	0x21b4
 7298 206c 30       		.byte	0x30
 7299 206d 18       		.uleb128 0x18
 7300 206e 05170000 		.4byte	.LASF449
 7301 2072 1F       		.byte	0x1f
 7302 2073 CF01     		.2byte	0x1cf
 7303 2075 1C090000 		.4byte	0x91c
 7304 2079 34       		.byte	0x34
 7305 207a 00       		.byte	0
 7306 207b 07       		.uleb128 0x7
 7307 207c F0190000 		.4byte	.LASF450
 7308 2080 1F       		.byte	0x1f
 7309 2081 4501     		.2byte	0x145
 7310 2083 87200000 		.4byte	0x2087
 7311 2087 05       		.uleb128 0x5
 7312 2088 04       		.byte	0x4
 7313 2089 8D200000 		.4byte	0x208d
 7314 208d 1F       		.uleb128 0x1f
 7315 208e A2200000 		.4byte	0x20a2
 7316 2092 16       		.uleb128 0x16
 7317 2093 A2200000 		.4byte	0x20a2
 7318 2097 16       		.uleb128 0x16
 7319 2098 A8200000 		.4byte	0x20a8
 7320 209c 16       		.uleb128 0x16
ARM GAS  C:\Users\PCHAUT~1\AppData\Local\Temp\cc7u0cQS.s 			page 130


 7321 209d 2C000000 		.4byte	0x2c
 7322 20a1 00       		.byte	0
 7323 20a2 05       		.uleb128 0x5
 7324 20a3 04       		.byte	0x4
 7325 20a4 DF1F0000 		.4byte	0x1fdf
 7326 20a8 05       		.uleb128 0x5
 7327 20a9 04       		.byte	0x4
 7328 20aa A01F0000 		.4byte	0x1fa0
 7329 20ae 07       		.uleb128 0x7
 7330 20af 0E150000 		.4byte	.LASF451
 7331 20b3 1F       		.byte	0x1f
 7332 20b4 4E01     		.2byte	0x14e
 7333 20b6 BA200000 		.4byte	0x20ba
 7334 20ba 05       		.uleb128 0x5
 7335 20bb 04       		.byte	0x4
 7336 20bc C0200000 		.4byte	0x20c0
 7337 20c0 1F       		.uleb128 0x1f
 7338 20c1 D0200000 		.4byte	0x20d0
 7339 20c5 16       		.uleb128 0x16
 7340 20c6 A2200000 		.4byte	0x20a2
 7341 20ca 16       		.uleb128 0x16
 7342 20cb D31F0000 		.4byte	0x1fd3
 7343 20cf 00       		.byte	0
 7344 20d0 1C       		.uleb128 0x1c
 7345 20d1 28       		.byte	0x28
 7346 20d2 1F       		.byte	0x1f
 7347 20d3 5801     		.2byte	0x158
 7348 20d5 69210000 		.4byte	0x2169
 7349 20d9 18       		.uleb128 0x18
 7350 20da C11F0000 		.4byte	.LASF452
 7351 20de 1F       		.byte	0x1f
 7352 20df 5C01     		.2byte	0x15c
 7353 20e1 FA1C0000 		.4byte	0x1cfa
 7354 20e5 00       		.byte	0
 7355 20e6 18       		.uleb128 0x18
 7356 20e7 46100000 		.4byte	.LASF453
 7357 20eb 1F       		.byte	0x1f
 7358 20ec 6001     		.2byte	0x160
 7359 20ee AC1F0000 		.4byte	0x1fac
 7360 20f2 02       		.byte	0x2
 7361 20f3 18       		.uleb128 0x18
 7362 20f4 F5090000 		.4byte	.LASF454
 7363 20f8 1F       		.byte	0x1f
 7364 20f9 6401     		.2byte	0x164
 7365 20fb 7B200000 		.4byte	0x207b
 7366 20ff 04       		.byte	0x4
 7367 2100 18       		.uleb128 0x18
 7368 2101 58210000 		.4byte	.LASF455
 7369 2105 1F       		.byte	0x1f
 7370 2106 6801     		.2byte	0x168
 7371 2108 AE200000 		.4byte	0x20ae
 7372 210c 08       		.byte	0x8
 7373 210d 21       		.uleb128 0x21
 7374 210e 63723100 		.ascii	"cr1\000"
 7375 2112 1F       		.byte	0x1f
 7376 2113 6F01     		.2byte	0x16f
 7377 2115 1C090000 		.4byte	0x91c
ARM GAS  C:\Users\PCHAUT~1\AppData\Local\Temp\cc7u0cQS.s 			page 131


 7378 2119 0C       		.byte	0xc
 7379 211a 21       		.uleb128 0x21
 7380 211b 63723200 		.ascii	"cr2\000"
 7381 211f 1F       		.byte	0x1f
 7382 2120 7601     		.2byte	0x176
 7383 2122 1C090000 		.4byte	0x91c
 7384 2126 10       		.byte	0x10
 7385 2127 18       		.uleb128 0x18
 7386 2128 25160000 		.4byte	.LASF456
 7387 212c 1F       		.byte	0x1f
 7388 212d 7C01     		.2byte	0x17c
 7389 212f 1C090000 		.4byte	0x91c
 7390 2133 14       		.byte	0x14
 7391 2134 18       		.uleb128 0x18
 7392 2135 2B160000 		.4byte	.LASF457
 7393 2139 1F       		.byte	0x1f
 7394 213a 8201     		.2byte	0x182
 7395 213c 1C090000 		.4byte	0x91c
 7396 2140 18       		.byte	0x18
 7397 2141 18       		.uleb128 0x18
 7398 2142 64010000 		.4byte	.LASF458
 7399 2146 1F       		.byte	0x1f
 7400 2147 8701     		.2byte	0x187
 7401 2149 1C090000 		.4byte	0x91c
 7402 214d 1C       		.byte	0x1c
 7403 214e 18       		.uleb128 0x18
 7404 214f 1F220000 		.4byte	.LASF459
 7405 2153 1F       		.byte	0x1f
 7406 2154 8C01     		.2byte	0x18c
 7407 2156 1C090000 		.4byte	0x91c
 7408 215a 20       		.byte	0x20
 7409 215b 18       		.uleb128 0x18
 7410 215c 24220000 		.4byte	.LASF460
 7411 2160 1F       		.byte	0x1f
 7412 2161 9101     		.2byte	0x191
 7413 2163 1C090000 		.4byte	0x91c
 7414 2167 24       		.byte	0x24
 7415 2168 00       		.byte	0
 7416 2169 07       		.uleb128 0x7
 7417 216a 22050000 		.4byte	.LASF461
 7418 216e 1F       		.byte	0x1f
 7419 216f 9201     		.2byte	0x192
 7420 2171 D0200000 		.4byte	0x20d0
 7421 2175 0F       		.uleb128 0xf
 7422 2176 69210000 		.4byte	0x2169
 7423 217a 1C       		.uleb128 0x1c
 7424 217b 04       		.byte	0x4
 7425 217c 1F       		.byte	0x1f
 7426 217d 9801     		.2byte	0x198
 7427 217f 91210000 		.4byte	0x2191
 7428 2183 18       		.uleb128 0x18
 7429 2184 45220000 		.4byte	.LASF462
 7430 2188 1F       		.byte	0x1f
 7431 2189 9901     		.2byte	0x199
 7432 218b 1C090000 		.4byte	0x91c
 7433 218f 00       		.byte	0
 7434 2190 00       		.byte	0
ARM GAS  C:\Users\PCHAUT~1\AppData\Local\Temp\cc7u0cQS.s 			page 132


 7435 2191 07       		.uleb128 0x7
 7436 2192 5E0F0000 		.4byte	.LASF463
 7437 2196 1F       		.byte	0x1f
 7438 2197 9A01     		.2byte	0x19a
 7439 2199 7A210000 		.4byte	0x217a
 7440 219d 0F       		.uleb128 0xf
 7441 219e 91210000 		.4byte	0x2191
 7442 21a2 05       		.uleb128 0x5
 7443 21a3 04       		.byte	0x4
 7444 21a4 9D210000 		.4byte	0x219d
 7445 21a8 05       		.uleb128 0x5
 7446 21a9 04       		.byte	0x4
 7447 21aa 75210000 		.4byte	0x2175
 7448 21ae 05       		.uleb128 0x5
 7449 21af 04       		.byte	0x4
 7450 21b0 7C0E0000 		.4byte	0xe7c
 7451 21b4 05       		.uleb128 0x5
 7452 21b5 04       		.byte	0x4
 7453 21b6 C91B0000 		.4byte	0x1bc9
 7454 21ba 20       		.uleb128 0x20
 7455 21bb EE160000 		.4byte	.LASF464
 7456 21bf 1F       		.byte	0x1f
 7457 21c0 1402     		.2byte	0x214
 7458 21c2 DF1F0000 		.4byte	0x1fdf
 7459 21c6 20       		.uleb128 0x20
 7460 21c7 F4160000 		.4byte	.LASF465
 7461 21cb 1F       		.byte	0x1f
 7462 21cc 1802     		.2byte	0x218
 7463 21ce DF1F0000 		.4byte	0x1fdf
 7464 21d2 20       		.uleb128 0x20
 7465 21d3 FA160000 		.4byte	.LASF466
 7466 21d7 1F       		.byte	0x1f
 7467 21d8 1C02     		.2byte	0x21c
 7468 21da DF1F0000 		.4byte	0x1fdf
 7469 21de 27       		.uleb128 0x27
 7470 21df 07       		.byte	0x7
 7471 21e0 01       		.byte	0x1
 7472 21e1 5E000000 		.4byte	0x5e
 7473 21e5 20       		.byte	0x20
 7474 21e6 5F       		.byte	0x5f
 7475 21e7 0A220000 		.4byte	0x220a
 7476 21eb 28       		.uleb128 0x28
 7477 21ec A90D0000 		.4byte	.LASF467
 7478 21f0 00       		.byte	0
 7479 21f1 28       		.uleb128 0x28
 7480 21f2 F3000000 		.4byte	.LASF468
 7481 21f6 01       		.byte	0x1
 7482 21f7 28       		.uleb128 0x28
 7483 21f8 49000000 		.4byte	.LASF469
 7484 21fc 02       		.byte	0x2
 7485 21fd 28       		.uleb128 0x28
 7486 21fe F3170000 		.4byte	.LASF470
 7487 2202 03       		.byte	0x3
 7488 2203 28       		.uleb128 0x28
 7489 2204 8A0A0000 		.4byte	.LASF471
 7490 2208 04       		.byte	0x4
 7491 2209 00       		.byte	0
ARM GAS  C:\Users\PCHAUT~1\AppData\Local\Temp\cc7u0cQS.s 			page 133


 7492 220a 03       		.uleb128 0x3
 7493 220b 7C050000 		.4byte	.LASF472
 7494 220f 20       		.byte	0x20
 7495 2210 65       		.byte	0x65
 7496 2211 DE210000 		.4byte	0x21de
 7497 2215 0A       		.uleb128 0xa
 7498 2216 E6080000 		.4byte	0x8e6
 7499 221a 25220000 		.4byte	0x2225
 7500 221e 0B       		.uleb128 0xb
 7501 221f 37000000 		.4byte	0x37
 7502 2223 07       		.byte	0x7
 7503 2224 00       		.byte	0
 7504 2225 0C       		.uleb128 0xc
 7505 2226 08       		.byte	0x8
 7506 2227 21       		.byte	0x21
 7507 2228 F4       		.byte	0xf4
 7508 2229 47220000 		.4byte	0x2247
 7509 222d 11       		.uleb128 0x11
 7510 222e 6D637200 		.ascii	"mcr\000"
 7511 2232 21       		.byte	0x21
 7512 2233 FA       		.byte	0xfa
 7513 2234 1C090000 		.4byte	0x91c
 7514 2238 00       		.byte	0
 7515 2239 21       		.uleb128 0x21
 7516 223a 62747200 		.ascii	"btr\000"
 7517 223e 21       		.byte	0x21
 7518 223f 0001     		.2byte	0x100
 7519 2241 1C090000 		.4byte	0x91c
 7520 2245 04       		.byte	0x4
 7521 2246 00       		.byte	0
 7522 2247 07       		.uleb128 0x7
 7523 2248 C2180000 		.4byte	.LASF473
 7524 224c 21       		.byte	0x21
 7525 224d 0101     		.2byte	0x101
 7526 224f 25220000 		.4byte	0x2225
 7527 2253 0F       		.uleb128 0xf
 7528 2254 47220000 		.4byte	0x2247
 7529 2258 1C       		.uleb128 0x1c
 7530 2259 30       		.byte	0x30
 7531 225a 21       		.byte	0x21
 7532 225b 0601     		.2byte	0x106
 7533 225d E4220000 		.4byte	0x22e4
 7534 2261 18       		.uleb128 0x18
 7535 2262 4D150000 		.4byte	.LASF441
 7536 2266 21       		.byte	0x21
 7537 2267 0A01     		.2byte	0x10a
 7538 2269 0A220000 		.4byte	0x220a
 7539 226d 00       		.byte	0
 7540 226e 18       		.uleb128 0x18
 7541 226f B31A0000 		.4byte	.LASF442
 7542 2273 21       		.byte	0x21
 7543 2274 0E01     		.2byte	0x10e
 7544 2276 E4220000 		.4byte	0x22e4
 7545 227a 04       		.byte	0x4
 7546 227b 18       		.uleb128 0x18
 7547 227c 2A0A0000 		.4byte	.LASF474
 7548 2280 21       		.byte	0x21
ARM GAS  C:\Users\PCHAUT~1\AppData\Local\Temp\cc7u0cQS.s 			page 134


 7549 2281 1201     		.2byte	0x112
 7550 2283 2E0B0000 		.4byte	0xb2e
 7551 2287 08       		.byte	0x8
 7552 2288 18       		.uleb128 0x18
 7553 2289 5D1D0000 		.4byte	.LASF475
 7554 228d 21       		.byte	0x21
 7555 228e 1601     		.2byte	0x116
 7556 2290 2E0B0000 		.4byte	0xb2e
 7557 2294 10       		.byte	0x10
 7558 2295 18       		.uleb128 0x18
 7559 2296 6B180000 		.4byte	.LASF476
 7560 229a 21       		.byte	0x21
 7561 229b 2301     		.2byte	0x123
 7562 229d 391A0000 		.4byte	0x1a39
 7563 22a1 18       		.byte	0x18
 7564 22a2 18       		.uleb128 0x18
 7565 22a3 EC0B0000 		.4byte	.LASF477
 7566 22a7 21       		.byte	0x21
 7567 22a8 2A01     		.2byte	0x12a
 7568 22aa 391A0000 		.4byte	0x1a39
 7569 22ae 1C       		.byte	0x1c
 7570 22af 18       		.uleb128 0x18
 7571 22b0 3A100000 		.4byte	.LASF478
 7572 22b4 21       		.byte	0x21
 7573 22b5 3001     		.2byte	0x130
 7574 22b7 391A0000 		.4byte	0x1a39
 7575 22bb 20       		.byte	0x20
 7576 22bc 18       		.uleb128 0x18
 7577 22bd 50030000 		.4byte	.LASF479
 7578 22c1 21       		.byte	0x21
 7579 22c2 3501     		.2byte	0x135
 7580 22c4 391A0000 		.4byte	0x1a39
 7581 22c8 24       		.byte	0x24
 7582 22c9 18       		.uleb128 0x18
 7583 22ca E0090000 		.4byte	.LASF480
 7584 22ce 21       		.byte	0x21
 7585 22cf 3901     		.2byte	0x139
 7586 22d1 391A0000 		.4byte	0x1a39
 7587 22d5 28       		.byte	0x28
 7588 22d6 21       		.uleb128 0x21
 7589 22d7 63616E00 		.ascii	"can\000"
 7590 22db 21       		.byte	0x21
 7591 22dc 3F01     		.2byte	0x13f
 7592 22de EA220000 		.4byte	0x22ea
 7593 22e2 2C       		.byte	0x2c
 7594 22e3 00       		.byte	0
 7595 22e4 05       		.uleb128 0x5
 7596 22e5 04       		.byte	0x4
 7597 22e6 53220000 		.4byte	0x2253
 7598 22ea 05       		.uleb128 0x5
 7599 22eb 04       		.byte	0x4
 7600 22ec C5100000 		.4byte	0x10c5
 7601 22f0 07       		.uleb128 0x7
 7602 22f1 A6030000 		.4byte	.LASF481
 7603 22f5 21       		.byte	0x21
 7604 22f6 4001     		.2byte	0x140
 7605 22f8 58220000 		.4byte	0x2258
ARM GAS  C:\Users\PCHAUT~1\AppData\Local\Temp\cc7u0cQS.s 			page 135


 7606 22fc 20       		.uleb128 0x20
 7607 22fd B91E0000 		.4byte	.LASF482
 7608 2301 21       		.byte	0x21
 7609 2302 4B01     		.2byte	0x14b
 7610 2304 F0220000 		.4byte	0x22f0
 7611 2308 27       		.uleb128 0x27
 7612 2309 07       		.byte	0x7
 7613 230a 01       		.byte	0x1
 7614 230b 5E000000 		.4byte	0x5e
 7615 230f 22       		.byte	0x22
 7616 2310 46       		.byte	0x46
 7617 2311 3A230000 		.4byte	0x233a
 7618 2315 28       		.uleb128 0x28
 7619 2316 FA1A0000 		.4byte	.LASF483
 7620 231a 00       		.byte	0
 7621 231b 28       		.uleb128 0x28
 7622 231c F81F0000 		.4byte	.LASF484
 7623 2320 01       		.byte	0x1
 7624 2321 28       		.uleb128 0x28
 7625 2322 CE0E0000 		.4byte	.LASF485
 7626 2326 02       		.byte	0x2
 7627 2327 28       		.uleb128 0x28
 7628 2328 34150000 		.4byte	.LASF486
 7629 232c 03       		.byte	0x3
 7630 232d 28       		.uleb128 0x28
 7631 232e 7C1A0000 		.4byte	.LASF487
 7632 2332 04       		.byte	0x4
 7633 2333 28       		.uleb128 0x28
 7634 2334 A30F0000 		.4byte	.LASF488
 7635 2338 05       		.byte	0x5
 7636 2339 00       		.byte	0
 7637 233a 03       		.uleb128 0x3
 7638 233b 24180000 		.4byte	.LASF489
 7639 233f 22       		.byte	0x22
 7640 2340 4D       		.byte	0x4d
 7641 2341 08230000 		.4byte	0x2308
 7642 2345 0C       		.uleb128 0xc
 7643 2346 1C       		.byte	0x1c
 7644 2347 23       		.byte	0x23
 7645 2348 F9       		.byte	0xf9
 7646 2349 A8230000 		.4byte	0x23a8
 7647 234d 11       		.uleb128 0x11
 7648 234e 64616300 		.ascii	"dac\000"
 7649 2352 23       		.byte	0x23
 7650 2353 FD       		.byte	0xfd
 7651 2354 A8230000 		.4byte	0x23a8
 7652 2358 00       		.byte	0
 7653 2359 18       		.uleb128 0x18
 7654 235a 86170000 		.4byte	.LASF490
 7655 235e 23       		.byte	0x23
 7656 235f 0101     		.2byte	0x101
 7657 2361 1C090000 		.4byte	0x91c
 7658 2365 04       		.byte	0x4
 7659 2366 18       		.uleb128 0x18
 7660 2367 7E060000 		.4byte	.LASF491
 7661 236b 23       		.byte	0x23
 7662 236c 0501     		.2byte	0x105
ARM GAS  C:\Users\PCHAUT~1\AppData\Local\Temp\cc7u0cQS.s 			page 136


 7663 236e 1C090000 		.4byte	0x91c
 7664 2372 08       		.byte	0x8
 7665 2373 18       		.uleb128 0x18
 7666 2374 EC010000 		.4byte	.LASF492
 7667 2378 23       		.byte	0x23
 7668 2379 0901     		.2byte	0x109
 7669 237b 1C090000 		.4byte	0x91c
 7670 237f 0C       		.byte	0xc
 7671 2380 21       		.uleb128 0x21
 7672 2381 646D6100 		.ascii	"dma\000"
 7673 2385 23       		.byte	0x23
 7674 2386 0D01     		.2byte	0x10d
 7675 2388 B4210000 		.4byte	0x21b4
 7676 238c 10       		.byte	0x10
 7677 238d 18       		.uleb128 0x18
 7678 238e 05170000 		.4byte	.LASF449
 7679 2392 23       		.byte	0x23
 7680 2393 1101     		.2byte	0x111
 7681 2395 1C090000 		.4byte	0x91c
 7682 2399 14       		.byte	0x14
 7683 239a 18       		.uleb128 0x18
 7684 239b BD160000 		.4byte	.LASF493
 7685 239f 23       		.byte	0x23
 7686 23a0 1501     		.2byte	0x115
 7687 23a2 1C090000 		.4byte	0x91c
 7688 23a6 18       		.byte	0x18
 7689 23a7 00       		.byte	0
 7690 23a8 05       		.uleb128 0x5
 7691 23a9 04       		.byte	0x4
 7692 23aa 8F110000 		.4byte	0x118f
 7693 23ae 07       		.uleb128 0x7
 7694 23af 03030000 		.4byte	.LASF494
 7695 23b3 23       		.byte	0x23
 7696 23b4 1601     		.2byte	0x116
 7697 23b6 45230000 		.4byte	0x2345
 7698 23ba 0F       		.uleb128 0xf
 7699 23bb AE230000 		.4byte	0x23ae
 7700 23bf 07       		.uleb128 0x7
 7701 23c0 F90C0000 		.4byte	.LASF495
 7702 23c4 23       		.byte	0x23
 7703 23c5 1B01     		.2byte	0x11b
 7704 23c7 CB230000 		.4byte	0x23cb
 7705 23cb 1B       		.uleb128 0x1b
 7706 23cc F90C0000 		.4byte	.LASF495
 7707 23d0 30       		.byte	0x30
 7708 23d1 23       		.byte	0x23
 7709 23d2 7B01     		.2byte	0x17b
 7710 23d4 41240000 		.4byte	0x2441
 7711 23d8 18       		.uleb128 0x18
 7712 23d9 4D150000 		.4byte	.LASF441
 7713 23dd 23       		.byte	0x23
 7714 23de 7F01     		.2byte	0x17f
 7715 23e0 3A230000 		.4byte	0x233a
 7716 23e4 00       		.byte	0
 7717 23e5 18       		.uleb128 0x18
 7718 23e6 891D0000 		.4byte	.LASF445
 7719 23ea 23       		.byte	0x23
ARM GAS  C:\Users\PCHAUT~1\AppData\Local\Temp\cc7u0cQS.s 			page 137


 7720 23eb 8301     		.2byte	0x183
 7721 23ed 7F250000 		.4byte	0x257f
 7722 23f1 04       		.byte	0x4
 7723 23f2 18       		.uleb128 0x18
 7724 23f3 D9010000 		.4byte	.LASF443
 7725 23f7 23       		.byte	0x23
 7726 23f8 8701     		.2byte	0x187
 7727 23fa A6240000 		.4byte	0x24a6
 7728 23fe 08       		.byte	0x8
 7729 23ff 18       		.uleb128 0x18
 7730 2400 D5170000 		.4byte	.LASF444
 7731 2404 23       		.byte	0x23
 7732 2405 8B01     		.2byte	0x18b
 7733 2407 01090000 		.4byte	0x901
 7734 240b 0C       		.byte	0xc
 7735 240c 18       		.uleb128 0x18
 7736 240d B31A0000 		.4byte	.LASF442
 7737 2411 23       		.byte	0x23
 7738 2412 8F01     		.2byte	0x18f
 7739 2414 85250000 		.4byte	0x2585
 7740 2418 10       		.byte	0x10
 7741 2419 18       		.uleb128 0x18
 7742 241a 77060000 		.4byte	.LASF446
 7743 241e 23       		.byte	0x23
 7744 241f 9401     		.2byte	0x194
 7745 2421 F90A0000 		.4byte	0xaf9
 7746 2425 14       		.byte	0x14
 7747 2426 18       		.uleb128 0x18
 7748 2427 EE0C0000 		.4byte	.LASF447
 7749 242b 23       		.byte	0x23
 7750 242c 9A01     		.2byte	0x19a
 7751 242e B5190000 		.4byte	0x19b5
 7752 2432 18       		.byte	0x18
 7753 2433 18       		.uleb128 0x18
 7754 2434 AA100000 		.4byte	.LASF496
 7755 2438 23       		.byte	0x23
 7756 2439 A301     		.2byte	0x1a3
 7757 243b 8B250000 		.4byte	0x258b
 7758 243f 2C       		.byte	0x2c
 7759 2440 00       		.byte	0
 7760 2441 07       		.uleb128 0x7
 7761 2442 3D180000 		.4byte	.LASF497
 7762 2446 23       		.byte	0x23
 7763 2447 2001     		.2byte	0x120
 7764 2449 01090000 		.4byte	0x901
 7765 244d 0F       		.uleb128 0xf
 7766 244e 41240000 		.4byte	0x2441
 7767 2452 2A       		.uleb128 0x2a
 7768 2453 07       		.byte	0x7
 7769 2454 01       		.byte	0x1
 7770 2455 5E000000 		.4byte	0x5e
 7771 2459 23       		.byte	0x23
 7772 245a 2701     		.2byte	0x127
 7773 245c 6D240000 		.4byte	0x246d
 7774 2460 28       		.uleb128 0x28
 7775 2461 06190000 		.4byte	.LASF498
 7776 2465 00       		.byte	0
ARM GAS  C:\Users\PCHAUT~1\AppData\Local\Temp\cc7u0cQS.s 			page 138


 7777 2466 28       		.uleb128 0x28
 7778 2467 C4090000 		.4byte	.LASF499
 7779 246b 01       		.byte	0x1
 7780 246c 00       		.byte	0
 7781 246d 07       		.uleb128 0x7
 7782 246e FC100000 		.4byte	.LASF500
 7783 2472 23       		.byte	0x23
 7784 2473 2A01     		.2byte	0x12a
 7785 2475 52240000 		.4byte	0x2452
 7786 2479 07       		.uleb128 0x7
 7787 247a EA060000 		.4byte	.LASF501
 7788 247e 23       		.byte	0x23
 7789 247f 3401     		.2byte	0x134
 7790 2481 85240000 		.4byte	0x2485
 7791 2485 05       		.uleb128 0x5
 7792 2486 04       		.byte	0x4
 7793 2487 8B240000 		.4byte	0x248b
 7794 248b 1F       		.uleb128 0x1f
 7795 248c A0240000 		.4byte	0x24a0
 7796 2490 16       		.uleb128 0x16
 7797 2491 A0240000 		.4byte	0x24a0
 7798 2495 16       		.uleb128 0x16
 7799 2496 A6240000 		.4byte	0x24a6
 7800 249a 16       		.uleb128 0x16
 7801 249b 2C000000 		.4byte	0x2c
 7802 249f 00       		.byte	0
 7803 24a0 05       		.uleb128 0x5
 7804 24a1 04       		.byte	0x4
 7805 24a2 BF230000 		.4byte	0x23bf
 7806 24a6 05       		.uleb128 0x5
 7807 24a7 04       		.byte	0x4
 7808 24a8 4D240000 		.4byte	0x244d
 7809 24ac 07       		.uleb128 0x7
 7810 24ad 0F1F0000 		.4byte	.LASF502
 7811 24b1 23       		.byte	0x23
 7812 24b2 3F01     		.2byte	0x13f
 7813 24b4 B8240000 		.4byte	0x24b8
 7814 24b8 05       		.uleb128 0x5
 7815 24b9 04       		.byte	0x4
 7816 24ba BE240000 		.4byte	0x24be
 7817 24be 1F       		.uleb128 0x1f
 7818 24bf CE240000 		.4byte	0x24ce
 7819 24c3 16       		.uleb128 0x16
 7820 24c4 A0240000 		.4byte	0x24a0
 7821 24c8 16       		.uleb128 0x16
 7822 24c9 6D240000 		.4byte	0x246d
 7823 24cd 00       		.byte	0
 7824 24ce 2A       		.uleb128 0x2a
 7825 24cf 07       		.byte	0x7
 7826 24d0 01       		.byte	0x1
 7827 24d1 5E000000 		.4byte	0x5e
 7828 24d5 23       		.byte	0x23
 7829 24d6 4401     		.2byte	0x144
 7830 24d8 EF240000 		.4byte	0x24ef
 7831 24dc 28       		.uleb128 0x28
 7832 24dd 541B0000 		.4byte	.LASF503
 7833 24e1 00       		.byte	0
ARM GAS  C:\Users\PCHAUT~1\AppData\Local\Temp\cc7u0cQS.s 			page 139


 7834 24e2 28       		.uleb128 0x28
 7835 24e3 82120000 		.4byte	.LASF504
 7836 24e7 01       		.byte	0x1
 7837 24e8 28       		.uleb128 0x28
 7838 24e9 CD150000 		.4byte	.LASF505
 7839 24ed 02       		.byte	0x2
 7840 24ee 00       		.byte	0
 7841 24ef 07       		.uleb128 0x7
 7842 24f0 F80A0000 		.4byte	.LASF506
 7843 24f4 23       		.byte	0x23
 7844 24f5 4D01     		.2byte	0x14d
 7845 24f7 CE240000 		.4byte	0x24ce
 7846 24fb 1C       		.uleb128 0x1c
 7847 24fc 10       		.byte	0x10
 7848 24fd 23       		.byte	0x23
 7849 24fe 5201     		.2byte	0x152
 7850 2500 39250000 		.4byte	0x2539
 7851 2504 18       		.uleb128 0x18
 7852 2505 46100000 		.4byte	.LASF453
 7853 2509 23       		.byte	0x23
 7854 250a 5601     		.2byte	0x156
 7855 250c 1C090000 		.4byte	0x91c
 7856 2510 00       		.byte	0
 7857 2511 18       		.uleb128 0x18
 7858 2512 F5090000 		.4byte	.LASF454
 7859 2516 23       		.byte	0x23
 7860 2517 5A01     		.2byte	0x15a
 7861 2519 79240000 		.4byte	0x2479
 7862 251d 04       		.byte	0x4
 7863 251e 18       		.uleb128 0x18
 7864 251f 58210000 		.4byte	.LASF455
 7865 2523 23       		.byte	0x23
 7866 2524 5E01     		.2byte	0x15e
 7867 2526 AC240000 		.4byte	0x24ac
 7868 252a 08       		.byte	0x8
 7869 252b 18       		.uleb128 0x18
 7870 252c CC130000 		.4byte	.LASF507
 7871 2530 23       		.byte	0x23
 7872 2531 6601     		.2byte	0x166
 7873 2533 1C090000 		.4byte	0x91c
 7874 2537 0C       		.byte	0xc
 7875 2538 00       		.byte	0
 7876 2539 07       		.uleb128 0x7
 7877 253a BB110000 		.4byte	.LASF508
 7878 253e 23       		.byte	0x23
 7879 253f 6701     		.2byte	0x167
 7880 2541 FB240000 		.4byte	0x24fb
 7881 2545 0F       		.uleb128 0xf
 7882 2546 39250000 		.4byte	0x2539
 7883 254a 1C       		.uleb128 0x1c
 7884 254b 04       		.byte	0x4
 7885 254c 23       		.byte	0x23
 7886 254d 6C01     		.2byte	0x16c
 7887 254f 6E250000 		.4byte	0x256e
 7888 2553 18       		.uleb128 0x18
 7889 2554 3C0B0000 		.4byte	.LASF509
 7890 2558 23       		.byte	0x23
ARM GAS  C:\Users\PCHAUT~1\AppData\Local\Temp\cc7u0cQS.s 			page 140


 7891 2559 7101     		.2byte	0x171
 7892 255b 41240000 		.4byte	0x2441
 7893 255f 00       		.byte	0
 7894 2560 18       		.uleb128 0x18
 7895 2561 36010000 		.4byte	.LASF510
 7896 2565 23       		.byte	0x23
 7897 2566 7501     		.2byte	0x175
 7898 2568 EF240000 		.4byte	0x24ef
 7899 256c 02       		.byte	0x2
 7900 256d 00       		.byte	0
 7901 256e 07       		.uleb128 0x7
 7902 256f 030D0000 		.4byte	.LASF511
 7903 2573 23       		.byte	0x23
 7904 2574 7601     		.2byte	0x176
 7905 2576 4A250000 		.4byte	0x254a
 7906 257a 0F       		.uleb128 0xf
 7907 257b 6E250000 		.4byte	0x256e
 7908 257f 05       		.uleb128 0x5
 7909 2580 04       		.byte	0x4
 7910 2581 45250000 		.4byte	0x2545
 7911 2585 05       		.uleb128 0x5
 7912 2586 04       		.byte	0x4
 7913 2587 7A250000 		.4byte	0x257a
 7914 258b 05       		.uleb128 0x5
 7915 258c 04       		.byte	0x4
 7916 258d BA230000 		.4byte	0x23ba
 7917 2591 20       		.uleb128 0x20
 7918 2592 A0030000 		.4byte	.LASF512
 7919 2596 23       		.byte	0x23
 7920 2597 B301     		.2byte	0x1b3
 7921 2599 BF230000 		.4byte	0x23bf
 7922 259d 27       		.uleb128 0x27
 7923 259e 07       		.byte	0x7
 7924 259f 01       		.byte	0x1
 7925 25a0 5E000000 		.4byte	0x5e
 7926 25a4 24       		.byte	0x24
 7927 25a5 3F       		.byte	0x3f
 7928 25a6 BD250000 		.4byte	0x25bd
 7929 25aa 28       		.uleb128 0x28
 7930 25ab 7F0A0000 		.4byte	.LASF513
 7931 25af 00       		.byte	0
 7932 25b0 28       		.uleb128 0x28
 7933 25b1 F6220000 		.4byte	.LASF514
 7934 25b5 01       		.byte	0x1
 7935 25b6 28       		.uleb128 0x28
 7936 25b7 1D020000 		.4byte	.LASF515
 7937 25bb 02       		.byte	0x2
 7938 25bc 00       		.byte	0
 7939 25bd 03       		.uleb128 0x3
 7940 25be 0F1A0000 		.4byte	.LASF516
 7941 25c2 24       		.byte	0x24
 7942 25c3 43       		.byte	0x43
 7943 25c4 9D250000 		.4byte	0x259d
 7944 25c8 03       		.uleb128 0x3
 7945 25c9 1F080000 		.4byte	.LASF517
 7946 25cd 24       		.byte	0x24
 7947 25ce 48       		.byte	0x48
ARM GAS  C:\Users\PCHAUT~1\AppData\Local\Temp\cc7u0cQS.s 			page 141


 7948 25cf D3250000 		.4byte	0x25d3
 7949 25d3 10       		.uleb128 0x10
 7950 25d4 1F080000 		.4byte	.LASF517
 7951 25d8 08       		.byte	0x8
 7952 25d9 25       		.byte	0x25
 7953 25da 71       		.byte	0x71
 7954 25db F8250000 		.4byte	0x25f8
 7955 25df 0D       		.uleb128 0xd
 7956 25e0 4D150000 		.4byte	.LASF441
 7957 25e4 25       		.byte	0x25
 7958 25e5 75       		.byte	0x75
 7959 25e6 BD250000 		.4byte	0x25bd
 7960 25ea 00       		.byte	0
 7961 25eb 0D       		.uleb128 0xd
 7962 25ec B31A0000 		.4byte	.LASF442
 7963 25f0 25       		.byte	0x25
 7964 25f1 79       		.byte	0x79
 7965 25f2 8A260000 		.4byte	0x268a
 7966 25f6 04       		.byte	0x4
 7967 25f7 00       		.byte	0
 7968 25f8 03       		.uleb128 0x3
 7969 25f9 8D210000 		.4byte	.LASF518
 7970 25fd 25       		.byte	0x25
 7971 25fe 47       		.byte	0x47
 7972 25ff 1C090000 		.4byte	0x91c
 7973 2603 03       		.uleb128 0x3
 7974 2604 4F1D0000 		.4byte	.LASF519
 7975 2608 25       		.byte	0x25
 7976 2609 4F       		.byte	0x4f
 7977 260a 0E260000 		.4byte	0x260e
 7978 260e 05       		.uleb128 0x5
 7979 260f 04       		.byte	0x4
 7980 2610 14260000 		.4byte	0x2614
 7981 2614 1F       		.uleb128 0x1f
 7982 2615 24260000 		.4byte	0x2624
 7983 2619 16       		.uleb128 0x16
 7984 261a 24260000 		.4byte	0x2624
 7985 261e 16       		.uleb128 0x16
 7986 261f F8250000 		.4byte	0x25f8
 7987 2623 00       		.byte	0
 7988 2624 05       		.uleb128 0x5
 7989 2625 04       		.byte	0x4
 7990 2626 C8250000 		.4byte	0x25c8
 7991 262a 0C       		.uleb128 0xc
 7992 262b 08       		.byte	0x8
 7993 262c 25       		.byte	0x25
 7994 262d 54       		.byte	0x54
 7995 262e 4A260000 		.4byte	0x264a
 7996 2632 0D       		.uleb128 0xd
 7997 2633 04080000 		.4byte	.LASF520
 7998 2637 25       		.byte	0x25
 7999 2638 58       		.byte	0x58
 8000 2639 1C090000 		.4byte	0x91c
 8001 263d 00       		.byte	0
 8002 263e 11       		.uleb128 0x11
 8003 263f 636200   		.ascii	"cb\000"
 8004 2642 25       		.byte	0x25
ARM GAS  C:\Users\PCHAUT~1\AppData\Local\Temp\cc7u0cQS.s 			page 142


 8005 2643 5F       		.byte	0x5f
 8006 2644 03260000 		.4byte	0x2603
 8007 2648 04       		.byte	0x4
 8008 2649 00       		.byte	0
 8009 264a 03       		.uleb128 0x3
 8010 264b B50E0000 		.4byte	.LASF521
 8011 264f 25       		.byte	0x25
 8012 2650 60       		.byte	0x60
 8013 2651 2A260000 		.4byte	0x262a
 8014 2655 0C       		.uleb128 0xc
 8015 2656 B8       		.byte	0xb8
 8016 2657 25       		.byte	0x25
 8017 2658 66       		.byte	0x66
 8018 2659 6A260000 		.4byte	0x266a
 8019 265d 0D       		.uleb128 0xd
 8020 265e 2F1F0000 		.4byte	.LASF522
 8021 2662 25       		.byte	0x25
 8022 2663 6A       		.byte	0x6a
 8023 2664 6A260000 		.4byte	0x266a
 8024 2668 00       		.byte	0
 8025 2669 00       		.byte	0
 8026 266a 0A       		.uleb128 0xa
 8027 266b 4A260000 		.4byte	0x264a
 8028 266f 7A260000 		.4byte	0x267a
 8029 2673 0B       		.uleb128 0xb
 8030 2674 37000000 		.4byte	0x37
 8031 2678 16       		.byte	0x16
 8032 2679 00       		.byte	0
 8033 267a 03       		.uleb128 0x3
 8034 267b 4D1C0000 		.4byte	.LASF523
 8035 267f 25       		.byte	0x25
 8036 2680 6C       		.byte	0x6c
 8037 2681 55260000 		.4byte	0x2655
 8038 2685 0F       		.uleb128 0xf
 8039 2686 7A260000 		.4byte	0x267a
 8040 268a 05       		.uleb128 0x5
 8041 268b 04       		.byte	0x4
 8042 268c 85260000 		.4byte	0x2685
 8043 2690 23       		.uleb128 0x23
 8044 2691 6D050000 		.4byte	.LASF524
 8045 2695 25       		.byte	0x25
 8046 2696 86       		.byte	0x86
 8047 2697 C8250000 		.4byte	0x25c8
 8048 269b 27       		.uleb128 0x27
 8049 269c 07       		.byte	0x7
 8050 269d 01       		.byte	0x1
 8051 269e 5E000000 		.4byte	0x5e
 8052 26a2 26       		.byte	0x26
 8053 26a3 31       		.byte	0x31
 8054 26a4 C7260000 		.4byte	0x26c7
 8055 26a8 28       		.uleb128 0x28
 8056 26a9 E1150000 		.4byte	.LASF525
 8057 26ad 00       		.byte	0
 8058 26ae 28       		.uleb128 0x28
 8059 26af F4130000 		.4byte	.LASF526
 8060 26b3 01       		.byte	0x1
 8061 26b4 28       		.uleb128 0x28
ARM GAS  C:\Users\PCHAUT~1\AppData\Local\Temp\cc7u0cQS.s 			page 143


 8062 26b5 1A180000 		.4byte	.LASF527
 8063 26b9 02       		.byte	0x2
 8064 26ba 28       		.uleb128 0x28
 8065 26bb 2E070000 		.4byte	.LASF528
 8066 26bf 03       		.byte	0x3
 8067 26c0 28       		.uleb128 0x28
 8068 26c1 22040000 		.4byte	.LASF529
 8069 26c5 04       		.byte	0x4
 8070 26c6 00       		.byte	0
 8071 26c7 03       		.uleb128 0x3
 8072 26c8 D0120000 		.4byte	.LASF530
 8073 26cc 26       		.byte	0x26
 8074 26cd 37       		.byte	0x37
 8075 26ce 9B260000 		.4byte	0x269b
 8076 26d2 03       		.uleb128 0x3
 8077 26d3 C8160000 		.4byte	.LASF531
 8078 26d7 26       		.byte	0x26
 8079 26d8 3C       		.byte	0x3c
 8080 26d9 DD260000 		.4byte	0x26dd
 8081 26dd 1B       		.uleb128 0x1b
 8082 26de C8160000 		.4byte	.LASF531
 8083 26e2 10       		.byte	0x10
 8084 26e3 27       		.byte	0x27
 8085 26e4 9701     		.2byte	0x197
 8086 26e6 1F270000 		.4byte	0x271f
 8087 26ea 18       		.uleb128 0x18
 8088 26eb 4D150000 		.4byte	.LASF441
 8089 26ef 27       		.byte	0x27
 8090 26f0 9B01     		.2byte	0x19b
 8091 26f2 C7260000 		.4byte	0x26c7
 8092 26f6 00       		.byte	0
 8093 26f7 18       		.uleb128 0x18
 8094 26f8 B31A0000 		.4byte	.LASF442
 8095 26fc 27       		.byte	0x27
 8096 26fd 9F01     		.2byte	0x19f
 8097 26ff B4280000 		.4byte	0x28b4
 8098 2703 04       		.byte	0x4
 8099 2704 18       		.uleb128 0x18
 8100 2705 170D0000 		.4byte	.LASF532
 8101 2709 27       		.byte	0x27
 8102 270a A701     		.2byte	0x1a7
 8103 270c 1C090000 		.4byte	0x91c
 8104 2710 08       		.byte	0x8
 8105 2711 21       		.uleb128 0x21
 8106 2712 74696D00 		.ascii	"tim\000"
 8107 2716 27       		.byte	0x27
 8108 2717 AB01     		.2byte	0x1ab
 8109 2719 BA280000 		.4byte	0x28ba
 8110 271d 0C       		.byte	0xc
 8111 271e 00       		.byte	0
 8112 271f 03       		.uleb128 0x3
 8113 2720 1E110000 		.4byte	.LASF533
 8114 2724 26       		.byte	0x26
 8115 2725 43       		.byte	0x43
 8116 2726 2A270000 		.4byte	0x272a
 8117 272a 05       		.uleb128 0x5
 8118 272b 04       		.byte	0x4
ARM GAS  C:\Users\PCHAUT~1\AppData\Local\Temp\cc7u0cQS.s 			page 144


 8119 272c 30270000 		.4byte	0x2730
 8120 2730 1F       		.uleb128 0x1f
 8121 2731 3B270000 		.4byte	0x273b
 8122 2735 16       		.uleb128 0x16
 8123 2736 3B270000 		.4byte	0x273b
 8124 273a 00       		.byte	0
 8125 273b 05       		.uleb128 0x5
 8126 273c 04       		.byte	0x4
 8127 273d D2260000 		.4byte	0x26d2
 8128 2741 1C       		.uleb128 0x1c
 8129 2742 60       		.byte	0x60
 8130 2743 28       		.byte	0x28
 8131 2744 9E01     		.2byte	0x19e
 8132 2746 4D280000 		.4byte	0x284d
 8133 274a 21       		.uleb128 0x21
 8134 274b 43523100 		.ascii	"CR1\000"
 8135 274f 28       		.byte	0x28
 8136 2750 9F01     		.2byte	0x19f
 8137 2752 27090000 		.4byte	0x927
 8138 2756 00       		.byte	0
 8139 2757 21       		.uleb128 0x21
 8140 2758 43523200 		.ascii	"CR2\000"
 8141 275c 28       		.byte	0x28
 8142 275d A001     		.2byte	0x1a0
 8143 275f 27090000 		.4byte	0x927
 8144 2763 04       		.byte	0x4
 8145 2764 18       		.uleb128 0x18
 8146 2765 56160000 		.4byte	.LASF534
 8147 2769 28       		.byte	0x28
 8148 276a A101     		.2byte	0x1a1
 8149 276c 27090000 		.4byte	0x927
 8150 2770 08       		.byte	0x8
 8151 2771 18       		.uleb128 0x18
 8152 2772 C60A0000 		.4byte	.LASF535
 8153 2776 28       		.byte	0x28
 8154 2777 A201     		.2byte	0x1a2
 8155 2779 27090000 		.4byte	0x927
 8156 277d 0C       		.byte	0xc
 8157 277e 21       		.uleb128 0x21
 8158 277f 535200   		.ascii	"SR\000"
 8159 2782 28       		.byte	0x28
 8160 2783 A301     		.2byte	0x1a3
 8161 2785 27090000 		.4byte	0x927
 8162 2789 10       		.byte	0x10
 8163 278a 21       		.uleb128 0x21
 8164 278b 45475200 		.ascii	"EGR\000"
 8165 278f 28       		.byte	0x28
 8166 2790 A401     		.2byte	0x1a4
 8167 2792 27090000 		.4byte	0x927
 8168 2796 14       		.byte	0x14
 8169 2797 18       		.uleb128 0x18
 8170 2798 00220000 		.4byte	.LASF536
 8171 279c 28       		.byte	0x28
 8172 279d A501     		.2byte	0x1a5
 8173 279f 27090000 		.4byte	0x927
 8174 27a3 18       		.byte	0x18
 8175 27a4 18       		.uleb128 0x18
ARM GAS  C:\Users\PCHAUT~1\AppData\Local\Temp\cc7u0cQS.s 			page 145


 8176 27a5 06220000 		.4byte	.LASF537
 8177 27a9 28       		.byte	0x28
 8178 27aa A601     		.2byte	0x1a6
 8179 27ac 27090000 		.4byte	0x927
 8180 27b0 1C       		.byte	0x1c
 8181 27b1 18       		.uleb128 0x18
 8182 27b2 C7060000 		.4byte	.LASF538
 8183 27b6 28       		.byte	0x28
 8184 27b7 A701     		.2byte	0x1a7
 8185 27b9 27090000 		.4byte	0x927
 8186 27bd 20       		.byte	0x20
 8187 27be 21       		.uleb128 0x21
 8188 27bf 434E5400 		.ascii	"CNT\000"
 8189 27c3 28       		.byte	0x28
 8190 27c4 A801     		.2byte	0x1a8
 8191 27c6 27090000 		.4byte	0x927
 8192 27ca 24       		.byte	0x24
 8193 27cb 21       		.uleb128 0x21
 8194 27cc 50534300 		.ascii	"PSC\000"
 8195 27d0 28       		.byte	0x28
 8196 27d1 A901     		.2byte	0x1a9
 8197 27d3 27090000 		.4byte	0x927
 8198 27d7 28       		.byte	0x28
 8199 27d8 21       		.uleb128 0x21
 8200 27d9 41525200 		.ascii	"ARR\000"
 8201 27dd 28       		.byte	0x28
 8202 27de AA01     		.2byte	0x1aa
 8203 27e0 27090000 		.4byte	0x927
 8204 27e4 2C       		.byte	0x2c
 8205 27e5 21       		.uleb128 0x21
 8206 27e6 52435200 		.ascii	"RCR\000"
 8207 27ea 28       		.byte	0x28
 8208 27eb AB01     		.2byte	0x1ab
 8209 27ed 27090000 		.4byte	0x927
 8210 27f1 30       		.byte	0x30
 8211 27f2 21       		.uleb128 0x21
 8212 27f3 43435200 		.ascii	"CCR\000"
 8213 27f7 28       		.byte	0x28
 8214 27f8 AC01     		.2byte	0x1ac
 8215 27fa 23120000 		.4byte	0x1223
 8216 27fe 34       		.byte	0x34
 8217 27ff 18       		.uleb128 0x18
 8218 2800 E7010000 		.4byte	.LASF539
 8219 2804 28       		.byte	0x28
 8220 2805 AD01     		.2byte	0x1ad
 8221 2807 27090000 		.4byte	0x927
 8222 280b 44       		.byte	0x44
 8223 280c 21       		.uleb128 0x21
 8224 280d 44435200 		.ascii	"DCR\000"
 8225 2811 28       		.byte	0x28
 8226 2812 AE01     		.2byte	0x1ae
 8227 2814 27090000 		.4byte	0x927
 8228 2818 48       		.byte	0x48
 8229 2819 18       		.uleb128 0x18
 8230 281a 95150000 		.4byte	.LASF540
 8231 281e 28       		.byte	0x28
 8232 281f AF01     		.2byte	0x1af
ARM GAS  C:\Users\PCHAUT~1\AppData\Local\Temp\cc7u0cQS.s 			page 146


 8233 2821 27090000 		.4byte	0x927
 8234 2825 4C       		.byte	0x4c
 8235 2826 21       		.uleb128 0x21
 8236 2827 4F5200   		.ascii	"OR\000"
 8237 282a 28       		.byte	0x28
 8238 282b B001     		.2byte	0x1b0
 8239 282d 27090000 		.4byte	0x927
 8240 2831 50       		.byte	0x50
 8241 2832 18       		.uleb128 0x18
 8242 2833 0C220000 		.4byte	.LASF541
 8243 2837 28       		.byte	0x28
 8244 2838 B101     		.2byte	0x1b1
 8245 283a 27090000 		.4byte	0x927
 8246 283e 54       		.byte	0x54
 8247 283f 18       		.uleb128 0x18
 8248 2840 230D0000 		.4byte	.LASF542
 8249 2844 28       		.byte	0x28
 8250 2845 B201     		.2byte	0x1b2
 8251 2847 0E120000 		.4byte	0x120e
 8252 284b 58       		.byte	0x58
 8253 284c 00       		.byte	0
 8254 284d 07       		.uleb128 0x7
 8255 284e A91D0000 		.4byte	.LASF543
 8256 2852 28       		.byte	0x28
 8257 2853 B301     		.2byte	0x1b3
 8258 2855 41270000 		.4byte	0x2741
 8259 2859 07       		.uleb128 0x7
 8260 285a 53080000 		.4byte	.LASF544
 8261 285e 27       		.byte	0x27
 8262 285f 6D01     		.2byte	0x16d
 8263 2861 1C090000 		.4byte	0x91c
 8264 2865 1C       		.uleb128 0x1c
 8265 2866 10       		.byte	0x10
 8266 2867 27       		.byte	0x27
 8267 2868 7801     		.2byte	0x178
 8268 286a A3280000 		.4byte	0x28a3
 8269 286e 18       		.uleb128 0x18
 8270 286f AB210000 		.4byte	.LASF545
 8271 2873 27       		.byte	0x27
 8272 2874 7E01     		.2byte	0x17e
 8273 2876 59280000 		.4byte	0x2859
 8274 287a 00       		.byte	0
 8275 287b 18       		.uleb128 0x18
 8276 287c 9A150000 		.4byte	.LASF546
 8277 2880 27       		.byte	0x27
 8278 2881 8501     		.2byte	0x185
 8279 2883 1F270000 		.4byte	0x271f
 8280 2887 04       		.byte	0x4
 8281 2888 21       		.uleb128 0x21
 8282 2889 63723200 		.ascii	"cr2\000"
 8283 288d 27       		.byte	0x27
 8284 288e 8B01     		.2byte	0x18b
 8285 2890 1C090000 		.4byte	0x91c
 8286 2894 08       		.byte	0x8
 8287 2895 18       		.uleb128 0x18
 8288 2896 980C0000 		.4byte	.LASF547
 8289 289a 27       		.byte	0x27
ARM GAS  C:\Users\PCHAUT~1\AppData\Local\Temp\cc7u0cQS.s 			page 147


 8290 289b 9101     		.2byte	0x191
 8291 289d 1C090000 		.4byte	0x91c
 8292 28a1 0C       		.byte	0xc
 8293 28a2 00       		.byte	0
 8294 28a3 07       		.uleb128 0x7
 8295 28a4 0E060000 		.4byte	.LASF548
 8296 28a8 27       		.byte	0x27
 8297 28a9 9201     		.2byte	0x192
 8298 28ab 65280000 		.4byte	0x2865
 8299 28af 0F       		.uleb128 0xf
 8300 28b0 A3280000 		.4byte	0x28a3
 8301 28b4 05       		.uleb128 0x5
 8302 28b5 04       		.byte	0x4
 8303 28b6 AF280000 		.4byte	0x28af
 8304 28ba 05       		.uleb128 0x5
 8305 28bb 04       		.byte	0x4
 8306 28bc 4D280000 		.4byte	0x284d
 8307 28c0 20       		.uleb128 0x20
 8308 28c1 52210000 		.4byte	.LASF549
 8309 28c5 27       		.byte	0x27
 8310 28c6 F201     		.2byte	0x1f2
 8311 28c8 D2260000 		.4byte	0x26d2
 8312 28cc 20       		.uleb128 0x20
 8313 28cd BA1A0000 		.4byte	.LASF550
 8314 28d1 27       		.byte	0x27
 8315 28d2 0202     		.2byte	0x202
 8316 28d4 D2260000 		.4byte	0x26d2
 8317 28d8 27       		.uleb128 0x27
 8318 28d9 07       		.byte	0x7
 8319 28da 01       		.byte	0x1
 8320 28db 5E000000 		.4byte	0x5e
 8321 28df 29       		.byte	0x29
 8322 28e0 4C       		.byte	0x4c
 8323 28e1 0A290000 		.4byte	0x290a
 8324 28e5 28       		.uleb128 0x28
 8325 28e6 E6050000 		.4byte	.LASF551
 8326 28ea 00       		.byte	0
 8327 28eb 28       		.uleb128 0x28
 8328 28ec 7F0E0000 		.4byte	.LASF552
 8329 28f0 01       		.byte	0x1
 8330 28f1 28       		.uleb128 0x28
 8331 28f2 A9060000 		.4byte	.LASF553
 8332 28f6 02       		.byte	0x2
 8333 28f7 28       		.uleb128 0x28
 8334 28f8 51040000 		.4byte	.LASF554
 8335 28fc 03       		.byte	0x3
 8336 28fd 28       		.uleb128 0x28
 8337 28fe 24030000 		.4byte	.LASF555
 8338 2902 04       		.byte	0x4
 8339 2903 28       		.uleb128 0x28
 8340 2904 A5120000 		.4byte	.LASF556
 8341 2908 05       		.byte	0x5
 8342 2909 00       		.byte	0
 8343 290a 03       		.uleb128 0x3
 8344 290b DB100000 		.4byte	.LASF557
 8345 290f 29       		.byte	0x29
 8346 2910 53       		.byte	0x53
ARM GAS  C:\Users\PCHAUT~1\AppData\Local\Temp\cc7u0cQS.s 			page 148


 8347 2911 D8280000 		.4byte	0x28d8
 8348 2915 07       		.uleb128 0x7
 8349 2916 A5160000 		.4byte	.LASF558
 8350 291a 2A       		.byte	0x2a
 8351 291b 6A01     		.2byte	0x16a
 8352 291d 01090000 		.4byte	0x901
 8353 2921 07       		.uleb128 0x7
 8354 2922 C2030000 		.4byte	.LASF559
 8355 2926 2A       		.byte	0x2a
 8356 2927 6F01     		.2byte	0x16f
 8357 2929 1C090000 		.4byte	0x91c
 8358 292d 2A       		.uleb128 0x2a
 8359 292e 07       		.byte	0x7
 8360 292f 01       		.byte	0x1
 8361 2930 5E000000 		.4byte	0x5e
 8362 2934 2A       		.byte	0x2a
 8363 2935 7401     		.2byte	0x174
 8364 2937 4E290000 		.4byte	0x294e
 8365 293b 28       		.uleb128 0x28
 8366 293c 64040000 		.4byte	.LASF560
 8367 2940 01       		.byte	0x1
 8368 2941 28       		.uleb128 0x28
 8369 2942 6A000000 		.4byte	.LASF561
 8370 2946 02       		.byte	0x2
 8371 2947 28       		.uleb128 0x28
 8372 2948 4F0A0000 		.4byte	.LASF562
 8373 294c 03       		.byte	0x3
 8374 294d 00       		.byte	0
 8375 294e 07       		.uleb128 0x7
 8376 294f 4B220000 		.4byte	.LASF563
 8377 2953 2A       		.byte	0x2a
 8378 2954 7801     		.2byte	0x178
 8379 2956 2D290000 		.4byte	0x292d
 8380 295a 2A       		.uleb128 0x2a
 8381 295b 07       		.byte	0x7
 8382 295c 01       		.byte	0x1
 8383 295d 5E000000 		.4byte	0x5e
 8384 2961 2A       		.byte	0x2a
 8385 2962 7D01     		.2byte	0x17d
 8386 2964 7B290000 		.4byte	0x297b
 8387 2968 28       		.uleb128 0x28
 8388 2969 41050000 		.4byte	.LASF564
 8389 296d 01       		.byte	0x1
 8390 296e 28       		.uleb128 0x28
 8391 296f D5210000 		.4byte	.LASF565
 8392 2973 02       		.byte	0x2
 8393 2974 28       		.uleb128 0x28
 8394 2975 0C0B0000 		.4byte	.LASF566
 8395 2979 03       		.byte	0x3
 8396 297a 00       		.byte	0
 8397 297b 07       		.uleb128 0x7
 8398 297c 5F060000 		.4byte	.LASF567
 8399 2980 2A       		.byte	0x2a
 8400 2981 8101     		.2byte	0x181
 8401 2983 5A290000 		.4byte	0x295a
 8402 2987 1C       		.uleb128 0x1c
 8403 2988 0C       		.byte	0xc
ARM GAS  C:\Users\PCHAUT~1\AppData\Local\Temp\cc7u0cQS.s 			page 149


 8404 2989 2A       		.byte	0x2a
 8405 298a 8601     		.2byte	0x186
 8406 298c B8290000 		.4byte	0x29b8
 8407 2990 18       		.uleb128 0x18
 8408 2991 24140000 		.4byte	.LASF568
 8409 2995 2A       		.byte	0x2a
 8410 2996 8801     		.2byte	0x188
 8411 2998 4E290000 		.4byte	0x294e
 8412 299c 00       		.byte	0
 8413 299d 18       		.uleb128 0x18
 8414 299e 8A030000 		.4byte	.LASF569
 8415 29a2 2A       		.byte	0x2a
 8416 29a3 8901     		.2byte	0x189
 8417 29a5 1C090000 		.4byte	0x91c
 8418 29a9 04       		.byte	0x4
 8419 29aa 18       		.uleb128 0x18
 8420 29ab C7220000 		.4byte	.LASF570
 8421 29af 2A       		.byte	0x2a
 8422 29b0 8C01     		.2byte	0x18c
 8423 29b2 7B290000 		.4byte	0x297b
 8424 29b6 08       		.byte	0x8
 8425 29b7 00       		.byte	0
 8426 29b8 07       		.uleb128 0x7
 8427 29b9 F4010000 		.4byte	.LASF571
 8428 29bd 2A       		.byte	0x2a
 8429 29be 8E01     		.2byte	0x18e
 8430 29c0 87290000 		.4byte	0x2987
 8431 29c4 0F       		.uleb128 0xf
 8432 29c5 B8290000 		.4byte	0x29b8
 8433 29c9 07       		.uleb128 0x7
 8434 29ca 47040000 		.4byte	.LASF572
 8435 29ce 2A       		.byte	0x2a
 8436 29cf 9301     		.2byte	0x193
 8437 29d1 D5290000 		.4byte	0x29d5
 8438 29d5 1B       		.uleb128 0x1b
 8439 29d6 47040000 		.4byte	.LASF572
 8440 29da 3C       		.byte	0x3c
 8441 29db 2A       		.byte	0x2a
 8442 29dc 9801     		.2byte	0x198
 8443 29de 722A0000 		.4byte	0x2a72
 8444 29e2 18       		.uleb128 0x18
 8445 29e3 4D150000 		.4byte	.LASF441
 8446 29e7 2A       		.byte	0x2a
 8447 29e8 9C01     		.2byte	0x19c
 8448 29ea 0A290000 		.4byte	0x290a
 8449 29ee 00       		.byte	0
 8450 29ef 18       		.uleb128 0x18
 8451 29f0 B31A0000 		.4byte	.LASF442
 8452 29f4 2A       		.byte	0x2a
 8453 29f5 A001     		.2byte	0x1a0
 8454 29f7 722A0000 		.4byte	0x2a72
 8455 29fb 04       		.byte	0x4
 8456 29fc 18       		.uleb128 0x18
 8457 29fd 7E010000 		.4byte	.LASF573
 8458 2a01 2A       		.byte	0x2a
 8459 2a02 A401     		.2byte	0x1a4
 8460 2a04 21290000 		.4byte	0x2921
ARM GAS  C:\Users\PCHAUT~1\AppData\Local\Temp\cc7u0cQS.s 			page 150


 8461 2a08 08       		.byte	0x8
 8462 2a09 18       		.uleb128 0x18
 8463 2a0a EE0C0000 		.4byte	.LASF447
 8464 2a0e 2A       		.byte	0x2a
 8465 2a0f A901     		.2byte	0x1a9
 8466 2a11 B5190000 		.4byte	0x19b5
 8467 2a15 0C       		.byte	0xc
 8468 2a16 18       		.uleb128 0x18
 8469 2a17 77060000 		.4byte	.LASF446
 8470 2a1b 2A       		.byte	0x2a
 8471 2a1c B201     		.2byte	0x1b2
 8472 2a1e F90A0000 		.4byte	0xaf9
 8473 2a22 20       		.byte	0x20
 8474 2a23 18       		.uleb128 0x18
 8475 2a24 880E0000 		.4byte	.LASF574
 8476 2a28 2A       		.byte	0x2a
 8477 2a29 B601     		.2byte	0x1b6
 8478 2a2b 15290000 		.4byte	0x2915
 8479 2a2f 24       		.byte	0x24
 8480 2a30 18       		.uleb128 0x18
 8481 2a31 F0070000 		.4byte	.LASF575
 8482 2a35 2A       		.byte	0x2a
 8483 2a36 BA01     		.2byte	0x1ba
 8484 2a38 1C090000 		.4byte	0x91c
 8485 2a3c 28       		.byte	0x28
 8486 2a3d 18       		.uleb128 0x18
 8487 2a3e 49080000 		.4byte	.LASF576
 8488 2a42 2A       		.byte	0x2a
 8489 2a43 BE01     		.2byte	0x1be
 8490 2a45 1C090000 		.4byte	0x91c
 8491 2a49 2C       		.byte	0x2c
 8492 2a4a 18       		.uleb128 0x18
 8493 2a4b 3F010000 		.4byte	.LASF577
 8494 2a4f 2A       		.byte	0x2a
 8495 2a50 C201     		.2byte	0x1c2
 8496 2a52 B4210000 		.4byte	0x21b4
 8497 2a56 30       		.byte	0x30
 8498 2a57 18       		.uleb128 0x18
 8499 2a58 07020000 		.4byte	.LASF578
 8500 2a5c 2A       		.byte	0x2a
 8501 2a5d C601     		.2byte	0x1c6
 8502 2a5f B4210000 		.4byte	0x21b4
 8503 2a63 34       		.byte	0x34
 8504 2a64 21       		.uleb128 0x21
 8505 2a65 69326300 		.ascii	"i2c\000"
 8506 2a69 2A       		.byte	0x2a
 8507 2a6a CA01     		.2byte	0x1ca
 8508 2a6c 782A0000 		.4byte	0x2a78
 8509 2a70 38       		.byte	0x38
 8510 2a71 00       		.byte	0
 8511 2a72 05       		.uleb128 0x5
 8512 2a73 04       		.byte	0x4
 8513 2a74 C4290000 		.4byte	0x29c4
 8514 2a78 05       		.uleb128 0x5
 8515 2a79 04       		.byte	0x4
 8516 2a7a B3120000 		.4byte	0x12b3
 8517 2a7e 20       		.uleb128 0x20
ARM GAS  C:\Users\PCHAUT~1\AppData\Local\Temp\cc7u0cQS.s 			page 151


 8518 2a7f 3C110000 		.4byte	.LASF579
 8519 2a83 2A       		.byte	0x2a
 8520 2a84 E001     		.2byte	0x1e0
 8521 2a86 C9290000 		.4byte	0x29c9
 8522 2a8a 27       		.uleb128 0x27
 8523 2a8b 07       		.byte	0x7
 8524 2a8c 01       		.byte	0x1
 8525 2a8d 5E000000 		.4byte	0x5e
 8526 2a91 2B       		.byte	0x2b
 8527 2a92 39       		.byte	0x39
 8528 2a93 B62A0000 		.4byte	0x2ab6
 8529 2a97 28       		.uleb128 0x28
 8530 2a98 E10F0000 		.4byte	.LASF580
 8531 2a9c 00       		.byte	0
 8532 2a9d 28       		.uleb128 0x28
 8533 2a9e D40C0000 		.4byte	.LASF581
 8534 2aa2 01       		.byte	0x1
 8535 2aa3 28       		.uleb128 0x28
 8536 2aa4 4E140000 		.4byte	.LASF582
 8537 2aa8 02       		.byte	0x2
 8538 2aa9 28       		.uleb128 0x28
 8539 2aaa 0F180000 		.4byte	.LASF583
 8540 2aae 03       		.byte	0x3
 8541 2aaf 28       		.uleb128 0x28
 8542 2ab0 E41C0000 		.4byte	.LASF584
 8543 2ab4 04       		.byte	0x4
 8544 2ab5 00       		.byte	0
 8545 2ab6 03       		.uleb128 0x3
 8546 2ab7 CA1F0000 		.4byte	.LASF585
 8547 2abb 2B       		.byte	0x2b
 8548 2abc 3F       		.byte	0x3f
 8549 2abd 8A2A0000 		.4byte	0x2a8a
 8550 2ac1 03       		.uleb128 0x3
 8551 2ac2 BD220000 		.4byte	.LASF586
 8552 2ac6 2C       		.byte	0x2c
 8553 2ac7 E2       		.byte	0xe2
 8554 2ac8 CC2A0000 		.4byte	0x2acc
 8555 2acc 1B       		.uleb128 0x1b
 8556 2acd BD220000 		.4byte	.LASF586
 8557 2ad1 20       		.byte	0x20
 8558 2ad2 2C       		.byte	0x2c
 8559 2ad3 1B01     		.2byte	0x11b
 8560 2ad5 422B0000 		.4byte	0x2b42
 8561 2ad9 18       		.uleb128 0x18
 8562 2ada 4D150000 		.4byte	.LASF441
 8563 2ade 2C       		.byte	0x2c
 8564 2adf 1F01     		.2byte	0x11f
 8565 2ae1 B62A0000 		.4byte	0x2ab6
 8566 2ae5 00       		.byte	0
 8567 2ae6 18       		.uleb128 0x18
 8568 2ae7 B31A0000 		.4byte	.LASF442
 8569 2aeb 2C       		.byte	0x2c
 8570 2aec 2301     		.2byte	0x123
 8571 2aee DA2B0000 		.4byte	0x2bda
 8572 2af2 04       		.byte	0x4
 8573 2af3 21       		.uleb128 0x21
 8574 2af4 73706900 		.ascii	"spi\000"
ARM GAS  C:\Users\PCHAUT~1\AppData\Local\Temp\cc7u0cQS.s 			page 152


 8575 2af8 2C       		.byte	0x2c
 8576 2af9 2801     		.2byte	0x128
 8577 2afb E02B0000 		.4byte	0x2be0
 8578 2aff 08       		.byte	0x8
 8579 2b00 21       		.uleb128 0x21
 8580 2b01 63666700 		.ascii	"cfg\000"
 8581 2b05 2C       		.byte	0x2c
 8582 2b06 2C01     		.2byte	0x12c
 8583 2b08 01090000 		.4byte	0x901
 8584 2b0c 0C       		.byte	0xc
 8585 2b0d 18       		.uleb128 0x18
 8586 2b0e 3F010000 		.4byte	.LASF577
 8587 2b12 2C       		.byte	0x2c
 8588 2b13 3001     		.2byte	0x130
 8589 2b15 B4210000 		.4byte	0x21b4
 8590 2b19 10       		.byte	0x10
 8591 2b1a 18       		.uleb128 0x18
 8592 2b1b 07020000 		.4byte	.LASF578
 8593 2b1f 2C       		.byte	0x2c
 8594 2b20 3401     		.2byte	0x134
 8595 2b22 B4210000 		.4byte	0x21b4
 8596 2b26 14       		.byte	0x14
 8597 2b27 18       		.uleb128 0x18
 8598 2b28 F0070000 		.4byte	.LASF575
 8599 2b2c 2C       		.byte	0x2c
 8600 2b2d 3801     		.2byte	0x138
 8601 2b2f 1C090000 		.4byte	0x91c
 8602 2b33 18       		.byte	0x18
 8603 2b34 18       		.uleb128 0x18
 8604 2b35 49080000 		.4byte	.LASF576
 8605 2b39 2C       		.byte	0x2c
 8606 2b3a 3C01     		.2byte	0x13c
 8607 2b3c 1C090000 		.4byte	0x91c
 8608 2b40 1C       		.byte	0x1c
 8609 2b41 00       		.byte	0
 8610 2b42 03       		.uleb128 0x3
 8611 2b43 35080000 		.4byte	.LASF587
 8612 2b47 2C       		.byte	0x2c
 8613 2b48 EB       		.byte	0xeb
 8614 2b49 4D2B0000 		.4byte	0x2b4d
 8615 2b4d 05       		.uleb128 0x5
 8616 2b4e 04       		.byte	0x4
 8617 2b4f 532B0000 		.4byte	0x2b53
 8618 2b53 1F       		.uleb128 0x1f
 8619 2b54 682B0000 		.4byte	0x2b68
 8620 2b58 16       		.uleb128 0x16
 8621 2b59 682B0000 		.4byte	0x2b68
 8622 2b5d 16       		.uleb128 0x16
 8623 2b5e 2C000000 		.4byte	0x2c
 8624 2b62 16       		.uleb128 0x16
 8625 2b63 2C000000 		.4byte	0x2c
 8626 2b67 00       		.byte	0
 8627 2b68 05       		.uleb128 0x5
 8628 2b69 04       		.byte	0x4
 8629 2b6a C12A0000 		.4byte	0x2ac1
 8630 2b6e 0C       		.uleb128 0xc
 8631 2b6f 14       		.byte	0x14
ARM GAS  C:\Users\PCHAUT~1\AppData\Local\Temp\cc7u0cQS.s 			page 153


 8632 2b70 2C       		.byte	0x2c
 8633 2b71 F1       		.byte	0xf1
 8634 2b72 C22B0000 		.4byte	0x2bc2
 8635 2b76 0D       		.uleb128 0xd
 8636 2b77 A0010000 		.4byte	.LASF588
 8637 2b7b 2C       		.byte	0x2c
 8638 2b7c F6       		.byte	0xf6
 8639 2b7d C22B0000 		.4byte	0x2bc2
 8640 2b81 00       		.byte	0
 8641 2b82 0D       		.uleb128 0xd
 8642 2b83 74010000 		.4byte	.LASF589
 8643 2b87 2C       		.byte	0x2c
 8644 2b88 FB       		.byte	0xfb
 8645 2b89 5D010000 		.4byte	0x15d
 8646 2b8d 04       		.byte	0x4
 8647 2b8e 0D       		.uleb128 0xd
 8648 2b8f F40C0000 		.4byte	.LASF590
 8649 2b93 2C       		.byte	0x2c
 8650 2b94 FF       		.byte	0xff
 8651 2b95 2C000000 		.4byte	0x2c
 8652 2b99 08       		.byte	0x8
 8653 2b9a 18       		.uleb128 0x18
 8654 2b9b F5090000 		.4byte	.LASF454
 8655 2b9f 2C       		.byte	0x2c
 8656 2ba0 0301     		.2byte	0x103
 8657 2ba2 422B0000 		.4byte	0x2b42
 8658 2ba6 0C       		.byte	0xc
 8659 2ba7 18       		.uleb128 0x18
 8660 2ba8 5B180000 		.4byte	.LASF591
 8661 2bac 2C       		.byte	0x2c
 8662 2bad 0F01     		.2byte	0x10f
 8663 2baf F6080000 		.4byte	0x8f6
 8664 2bb3 10       		.byte	0x10
 8665 2bb4 18       		.uleb128 0x18
 8666 2bb5 42060000 		.4byte	.LASF592
 8667 2bb9 2C       		.byte	0x2c
 8668 2bba 1501     		.2byte	0x115
 8669 2bbc F6080000 		.4byte	0x8f6
 8670 2bc0 12       		.byte	0x12
 8671 2bc1 00       		.byte	0
 8672 2bc2 05       		.uleb128 0x5
 8673 2bc3 04       		.byte	0x4
 8674 2bc4 C82B0000 		.4byte	0x2bc8
 8675 2bc8 2B       		.uleb128 0x2b
 8676 2bc9 07       		.uleb128 0x7
 8677 2bca D2220000 		.4byte	.LASF593
 8678 2bce 2C       		.byte	0x2c
 8679 2bcf 1601     		.2byte	0x116
 8680 2bd1 6E2B0000 		.4byte	0x2b6e
 8681 2bd5 0F       		.uleb128 0xf
 8682 2bd6 C92B0000 		.4byte	0x2bc9
 8683 2bda 05       		.uleb128 0x5
 8684 2bdb 04       		.byte	0x4
 8685 2bdc D52B0000 		.4byte	0x2bd5
 8686 2be0 05       		.uleb128 0x5
 8687 2be1 04       		.byte	0x4
 8688 2be2 66140000 		.4byte	0x1466
ARM GAS  C:\Users\PCHAUT~1\AppData\Local\Temp\cc7u0cQS.s 			page 154


 8689 2be6 20       		.uleb128 0x20
 8690 2be7 07230000 		.4byte	.LASF594
 8691 2beb 2C       		.byte	0x2c
 8692 2bec 4801     		.2byte	0x148
 8693 2bee C12A0000 		.4byte	0x2ac1
 8694 2bf2 27       		.uleb128 0x27
 8695 2bf3 07       		.byte	0x7
 8696 2bf4 01       		.byte	0x1
 8697 2bf5 5E000000 		.4byte	0x5e
 8698 2bf9 2D       		.byte	0x2d
 8699 2bfa 4A       		.byte	0x4a
 8700 2bfb 122C0000 		.4byte	0x2c12
 8701 2bff 28       		.uleb128 0x28
 8702 2c00 D2060000 		.4byte	.LASF595
 8703 2c04 00       		.byte	0
 8704 2c05 28       		.uleb128 0x28
 8705 2c06 DD0C0000 		.4byte	.LASF596
 8706 2c0a 01       		.byte	0x1
 8707 2c0b 28       		.uleb128 0x28
 8708 2c0c 10100000 		.4byte	.LASF597
 8709 2c10 02       		.byte	0x2
 8710 2c11 00       		.byte	0
 8711 2c12 03       		.uleb128 0x3
 8712 2c13 45030000 		.4byte	.LASF598
 8713 2c17 2D       		.byte	0x2d
 8714 2c18 4E       		.byte	0x4e
 8715 2c19 F22B0000 		.4byte	0x2bf2
 8716 2c1d 03       		.uleb128 0x3
 8717 2c1e FA0B0000 		.4byte	.LASF599
 8718 2c22 2D       		.byte	0x2d
 8719 2c23 53       		.byte	0x53
 8720 2c24 282C0000 		.4byte	0x2c28
 8721 2c28 1B       		.uleb128 0x1b
 8722 2c29 FA0B0000 		.4byte	.LASF599
 8723 2c2d 1C       		.byte	0x1c
 8724 2c2e 2E       		.byte	0x2e
 8725 2c2f 7901     		.2byte	0x179
 8726 2c31 912C0000 		.4byte	0x2c91
 8727 2c35 18       		.uleb128 0x18
 8728 2c36 4D150000 		.4byte	.LASF441
 8729 2c3a 2E       		.byte	0x2e
 8730 2c3b 7D01     		.2byte	0x17d
 8731 2c3d 122C0000 		.4byte	0x2c12
 8732 2c41 00       		.byte	0
 8733 2c42 18       		.uleb128 0x18
 8734 2c43 B31A0000 		.4byte	.LASF442
 8735 2c47 2E       		.byte	0x2e
 8736 2c48 8101     		.2byte	0x181
 8737 2c4a 8C2D0000 		.4byte	0x2d8c
 8738 2c4e 04       		.byte	0x4
 8739 2c4f 18       		.uleb128 0x18
 8740 2c50 96120000 		.4byte	.LASF600
 8741 2c54 2E       		.byte	0x2e
 8742 2c55 8501     		.2byte	0x185
 8743 2c57 D72C0000 		.4byte	0x2cd7
 8744 2c5b 08       		.byte	0x8
 8745 2c5c 18       		.uleb128 0x18
ARM GAS  C:\Users\PCHAUT~1\AppData\Local\Temp\cc7u0cQS.s 			page 155


 8746 2c5d FE180000 		.4byte	.LASF601
 8747 2c61 2E       		.byte	0x2e
 8748 2c62 8901     		.2byte	0x189
 8749 2c64 CB2C0000 		.4byte	0x2ccb
 8750 2c68 0C       		.byte	0xc
 8751 2c69 18       		.uleb128 0x18
 8752 2c6a 2F1F0000 		.4byte	.LASF522
 8753 2c6e 2E       		.byte	0x2e
 8754 2c6f 8D01     		.2byte	0x18d
 8755 2c71 BF2C0000 		.4byte	0x2cbf
 8756 2c75 10       		.byte	0x10
 8757 2c76 18       		.uleb128 0x18
 8758 2c77 170D0000 		.4byte	.LASF532
 8759 2c7b 2E       		.byte	0x2e
 8760 2c7c 9501     		.2byte	0x195
 8761 2c7e 1C090000 		.4byte	0x91c
 8762 2c82 14       		.byte	0x14
 8763 2c83 21       		.uleb128 0x21
 8764 2c84 74696D00 		.ascii	"tim\000"
 8765 2c88 2E       		.byte	0x2e
 8766 2c89 9901     		.2byte	0x199
 8767 2c8b BA280000 		.4byte	0x28ba
 8768 2c8f 18       		.byte	0x18
 8769 2c90 00       		.byte	0
 8770 2c91 03       		.uleb128 0x3
 8771 2c92 9C100000 		.4byte	.LASF602
 8772 2c96 2D       		.byte	0x2d
 8773 2c97 5A       		.byte	0x5a
 8774 2c98 9C2C0000 		.4byte	0x2c9c
 8775 2c9c 05       		.uleb128 0x5
 8776 2c9d 04       		.byte	0x4
 8777 2c9e A22C0000 		.4byte	0x2ca2
 8778 2ca2 1F       		.uleb128 0x1f
 8779 2ca3 AD2C0000 		.4byte	0x2cad
 8780 2ca7 16       		.uleb128 0x16
 8781 2ca8 AD2C0000 		.4byte	0x2cad
 8782 2cac 00       		.byte	0
 8783 2cad 05       		.uleb128 0x5
 8784 2cae 04       		.byte	0x4
 8785 2caf 1D2C0000 		.4byte	0x2c1d
 8786 2cb3 07       		.uleb128 0x7
 8787 2cb4 78140000 		.4byte	.LASF603
 8788 2cb8 2E       		.byte	0x2e
 8789 2cb9 2501     		.2byte	0x125
 8790 2cbb 1C090000 		.4byte	0x91c
 8791 2cbf 07       		.uleb128 0x7
 8792 2cc0 71160000 		.4byte	.LASF604
 8793 2cc4 2E       		.byte	0x2e
 8794 2cc5 2A01     		.2byte	0x12a
 8795 2cc7 E6080000 		.4byte	0x8e6
 8796 2ccb 07       		.uleb128 0x7
 8797 2ccc 38140000 		.4byte	.LASF605
 8798 2cd0 2E       		.byte	0x2e
 8799 2cd1 2F01     		.2byte	0x12f
 8800 2cd3 1C090000 		.4byte	0x91c
 8801 2cd7 07       		.uleb128 0x7
 8802 2cd8 E80D0000 		.4byte	.LASF606
ARM GAS  C:\Users\PCHAUT~1\AppData\Local\Temp\cc7u0cQS.s 			page 156


 8803 2cdc 2E       		.byte	0x2e
 8804 2cdd 3401     		.2byte	0x134
 8805 2cdf 1C090000 		.4byte	0x91c
 8806 2ce3 1C       		.uleb128 0x1c
 8807 2ce4 08       		.byte	0x8
 8808 2ce5 2E       		.byte	0x2e
 8809 2ce6 3901     		.2byte	0x139
 8810 2ce8 072D0000 		.4byte	0x2d07
 8811 2cec 18       		.uleb128 0x18
 8812 2ced 04080000 		.4byte	.LASF520
 8813 2cf1 2E       		.byte	0x2e
 8814 2cf2 3D01     		.2byte	0x13d
 8815 2cf4 B32C0000 		.4byte	0x2cb3
 8816 2cf8 00       		.byte	0
 8817 2cf9 18       		.uleb128 0x18
 8818 2cfa 9A150000 		.4byte	.LASF546
 8819 2cfe 2E       		.byte	0x2e
 8820 2cff 4301     		.2byte	0x143
 8821 2d01 912C0000 		.4byte	0x2c91
 8822 2d05 04       		.byte	0x4
 8823 2d06 00       		.byte	0
 8824 2d07 07       		.uleb128 0x7
 8825 2d08 D70D0000 		.4byte	.LASF607
 8826 2d0c 2E       		.byte	0x2e
 8827 2d0d 4501     		.2byte	0x145
 8828 2d0f E32C0000 		.4byte	0x2ce3
 8829 2d13 1C       		.uleb128 0x1c
 8830 2d14 34       		.byte	0x34
 8831 2d15 2E       		.byte	0x2e
 8832 2d16 4A01     		.2byte	0x14a
 8833 2d18 6B2D0000 		.4byte	0x2d6b
 8834 2d1c 18       		.uleb128 0x18
 8835 2d1d AB210000 		.4byte	.LASF545
 8836 2d21 2E       		.byte	0x2e
 8837 2d22 5001     		.2byte	0x150
 8838 2d24 1C090000 		.4byte	0x91c
 8839 2d28 00       		.byte	0
 8840 2d29 18       		.uleb128 0x18
 8841 2d2a 96120000 		.4byte	.LASF600
 8842 2d2e 2E       		.byte	0x2e
 8843 2d2f 5601     		.2byte	0x156
 8844 2d31 D72C0000 		.4byte	0x2cd7
 8845 2d35 04       		.byte	0x4
 8846 2d36 18       		.uleb128 0x18
 8847 2d37 9A150000 		.4byte	.LASF546
 8848 2d3b 2E       		.byte	0x2e
 8849 2d3c 5C01     		.2byte	0x15c
 8850 2d3e 912C0000 		.4byte	0x2c91
 8851 2d42 08       		.byte	0x8
 8852 2d43 18       		.uleb128 0x18
 8853 2d44 2F1F0000 		.4byte	.LASF522
 8854 2d48 2E       		.byte	0x2e
 8855 2d49 6001     		.2byte	0x160
 8856 2d4b 6B2D0000 		.4byte	0x2d6b
 8857 2d4f 0C       		.byte	0xc
 8858 2d50 21       		.uleb128 0x21
 8859 2d51 63723200 		.ascii	"cr2\000"
ARM GAS  C:\Users\PCHAUT~1\AppData\Local\Temp\cc7u0cQS.s 			page 157


 8860 2d55 2E       		.byte	0x2e
 8861 2d56 6601     		.2byte	0x166
 8862 2d58 1C090000 		.4byte	0x91c
 8863 2d5c 2C       		.byte	0x2c
 8864 2d5d 18       		.uleb128 0x18
 8865 2d5e 980C0000 		.4byte	.LASF547
 8866 2d62 2E       		.byte	0x2e
 8867 2d63 7301     		.2byte	0x173
 8868 2d65 1C090000 		.4byte	0x91c
 8869 2d69 30       		.byte	0x30
 8870 2d6a 00       		.byte	0
 8871 2d6b 0A       		.uleb128 0xa
 8872 2d6c 072D0000 		.4byte	0x2d07
 8873 2d70 7B2D0000 		.4byte	0x2d7b
 8874 2d74 0B       		.uleb128 0xb
 8875 2d75 37000000 		.4byte	0x37
 8876 2d79 03       		.byte	0x3
 8877 2d7a 00       		.byte	0
 8878 2d7b 07       		.uleb128 0x7
 8879 2d7c 0B0C0000 		.4byte	.LASF608
 8880 2d80 2E       		.byte	0x2e
 8881 2d81 7401     		.2byte	0x174
 8882 2d83 132D0000 		.4byte	0x2d13
 8883 2d87 0F       		.uleb128 0xf
 8884 2d88 7B2D0000 		.4byte	0x2d7b
 8885 2d8c 05       		.uleb128 0x5
 8886 2d8d 04       		.byte	0x4
 8887 2d8e 872D0000 		.4byte	0x2d87
 8888 2d92 20       		.uleb128 0x20
 8889 2d93 72110000 		.4byte	.LASF609
 8890 2d97 2E       		.byte	0x2e
 8891 2d98 BC01     		.2byte	0x1bc
 8892 2d9a 1D2C0000 		.4byte	0x2c1d
 8893 2d9e 20       		.uleb128 0x20
 8894 2d9f 78110000 		.4byte	.LASF610
 8895 2da3 2E       		.byte	0x2e
 8896 2da4 C001     		.2byte	0x1c0
 8897 2da6 1D2C0000 		.4byte	0x2c1d
 8898 2daa 20       		.uleb128 0x20
 8899 2dab 7E110000 		.4byte	.LASF611
 8900 2daf 2E       		.byte	0x2e
 8901 2db0 C401     		.2byte	0x1c4
 8902 2db2 1D2C0000 		.4byte	0x2c1d
 8903 2db6 20       		.uleb128 0x20
 8904 2db7 84110000 		.4byte	.LASF612
 8905 2dbb 2E       		.byte	0x2e
 8906 2dbc C801     		.2byte	0x1c8
 8907 2dbe 1D2C0000 		.4byte	0x2c1d
 8908 2dc2 27       		.uleb128 0x27
 8909 2dc3 07       		.byte	0x7
 8910 2dc4 01       		.byte	0x1
 8911 2dc5 5E000000 		.4byte	0x5e
 8912 2dc9 2F       		.byte	0x2f
 8913 2dca 55       		.byte	0x55
 8914 2dcb E22D0000 		.4byte	0x2de2
 8915 2dcf 28       		.uleb128 0x28
 8916 2dd0 18060000 		.4byte	.LASF613
ARM GAS  C:\Users\PCHAUT~1\AppData\Local\Temp\cc7u0cQS.s 			page 158


 8917 2dd4 00       		.byte	0
 8918 2dd5 28       		.uleb128 0x28
 8919 2dd6 630D0000 		.4byte	.LASF614
 8920 2dda 01       		.byte	0x1
 8921 2ddb 28       		.uleb128 0x28
 8922 2ddc 870F0000 		.4byte	.LASF615
 8923 2de0 02       		.byte	0x2
 8924 2de1 00       		.byte	0
 8925 2de2 03       		.uleb128 0x3
 8926 2de3 73170000 		.4byte	.LASF616
 8927 2de7 2F       		.byte	0x2f
 8928 2de8 59       		.byte	0x59
 8929 2de9 C22D0000 		.4byte	0x2dc2
 8930 2ded 03       		.uleb128 0x3
 8931 2dee 5A1F0000 		.4byte	.LASF617
 8932 2df2 2F       		.byte	0x2f
 8933 2df3 5E       		.byte	0x5e
 8934 2df4 F82D0000 		.4byte	0x2df8
 8935 2df8 10       		.uleb128 0x10
 8936 2df9 5A1F0000 		.4byte	.LASF617
 8937 2dfd 78       		.byte	0x78
 8938 2dfe 2F       		.byte	0x2f
 8939 2dff 78       		.byte	0x78
 8940 2e00 632E0000 		.4byte	0x2e63
 8941 2e04 11       		.uleb128 0x11
 8942 2e05 766D7400 		.ascii	"vmt\000"
 8943 2e09 2F       		.byte	0x2f
 8944 2e0a 7A       		.byte	0x7a
 8945 2e0b E12E0000 		.4byte	0x2ee1
 8946 2e0f 00       		.byte	0
 8947 2e10 0D       		.uleb128 0xd
 8948 2e11 32000000 		.4byte	.LASF618
 8949 2e15 2F       		.byte	0x2f
 8950 2e16 7B       		.byte	0x7b
 8951 2e17 391A0000 		.4byte	0x1a39
 8952 2e1b 04       		.byte	0x4
 8953 2e1c 0D       		.uleb128 0xd
 8954 2e1d 4D150000 		.4byte	.LASF441
 8955 2e21 2F       		.byte	0x2f
 8956 2e22 7B       		.byte	0x7b
 8957 2e23 E22D0000 		.4byte	0x2de2
 8958 2e27 08       		.byte	0x8
 8959 2e28 0D       		.uleb128 0xd
 8960 2e29 54170000 		.4byte	.LASF619
 8961 2e2d 2F       		.byte	0x2f
 8962 2e2e 7B       		.byte	0x7b
 8963 2e2f E41A0000 		.4byte	0x1ae4
 8964 2e33 0C       		.byte	0xc
 8965 2e34 0D       		.uleb128 0xd
 8966 2e35 98110000 		.4byte	.LASF620
 8967 2e39 2F       		.byte	0x2f
 8968 2e3a 7B       		.byte	0x7b
 8969 2e3b EF1A0000 		.4byte	0x1aef
 8970 2e3f 30       		.byte	0x30
 8971 2e40 11       		.uleb128 0x11
 8972 2e41 696200   		.ascii	"ib\000"
 8973 2e44 2F       		.byte	0x2f
ARM GAS  C:\Users\PCHAUT~1\AppData\Local\Temp\cc7u0cQS.s 			page 159


 8974 2e45 7B       		.byte	0x7b
 8975 2e46 E72E0000 		.4byte	0x2ee7
 8976 2e4a 54       		.byte	0x54
 8977 2e4b 11       		.uleb128 0x11
 8978 2e4c 6F6200   		.ascii	"ob\000"
 8979 2e4f 2F       		.byte	0x2f
 8980 2e50 7B       		.byte	0x7b
 8981 2e51 E72E0000 		.4byte	0x2ee7
 8982 2e55 64       		.byte	0x64
 8983 2e56 0D       		.uleb128 0xd
 8984 2e57 26190000 		.4byte	.LASF621
 8985 2e5b 2F       		.byte	0x2f
 8986 2e5c 7B       		.byte	0x7b
 8987 2e5d F72E0000 		.4byte	0x2ef7
 8988 2e61 74       		.byte	0x74
 8989 2e62 00       		.byte	0
 8990 2e63 26       		.uleb128 0x26
 8991 2e64 53443300 		.ascii	"SD3\000"
 8992 2e68 30       		.byte	0x30
 8993 2e69 1501     		.2byte	0x115
 8994 2e6b ED2D0000 		.4byte	0x2ded
 8995 2e6f 10       		.uleb128 0x10
 8996 2e70 140F0000 		.4byte	.LASF622
 8997 2e74 20       		.byte	0x20
 8998 2e75 2F       		.byte	0x2f
 8999 2e76 6D       		.byte	0x6d
 9000 2e77 DC2E0000 		.4byte	0x2edc
 9001 2e7b 0D       		.uleb128 0xd
 9002 2e7c 43170000 		.4byte	.LASF623
 9003 2e80 2F       		.byte	0x2f
 9004 2e81 6E       		.byte	0x6e
 9005 2e82 191B0000 		.4byte	0x1b19
 9006 2e86 00       		.byte	0
 9007 2e87 0D       		.uleb128 0xd
 9008 2e88 5F040000 		.4byte	.LASF624
 9009 2e8c 2F       		.byte	0x2f
 9010 2e8d 6E       		.byte	0x6e
 9011 2e8e 381B0000 		.4byte	0x1b38
 9012 2e92 04       		.byte	0x4
 9013 2e93 11       		.uleb128 0x11
 9014 2e94 70757400 		.ascii	"put\000"
 9015 2e98 2F       		.byte	0x2f
 9016 2e99 6E       		.byte	0x6e
 9017 2e9a 521B0000 		.4byte	0x1b52
 9018 2e9e 08       		.byte	0x8
 9019 2e9f 11       		.uleb128 0x11
 9020 2ea0 67657400 		.ascii	"get\000"
 9021 2ea4 2F       		.byte	0x2f
 9022 2ea5 6E       		.byte	0x6e
 9023 2ea6 671B0000 		.4byte	0x1b67
 9024 2eaa 0C       		.byte	0xc
 9025 2eab 0D       		.uleb128 0xd
 9026 2eac 66130000 		.4byte	.LASF625
 9027 2eb0 2F       		.byte	0x2f
 9028 2eb1 6E       		.byte	0x6e
 9029 2eb2 081C0000 		.4byte	0x1c08
 9030 2eb6 10       		.byte	0x10
ARM GAS  C:\Users\PCHAUT~1\AppData\Local\Temp\cc7u0cQS.s 			page 160


 9031 2eb7 0D       		.uleb128 0xd
 9032 2eb8 29170000 		.4byte	.LASF626
 9033 2ebc 2F       		.byte	0x2f
 9034 2ebd 6E       		.byte	0x6e
 9035 2ebe 221C0000 		.4byte	0x1c22
 9036 2ec2 14       		.byte	0x14
 9037 2ec3 0D       		.uleb128 0xd
 9038 2ec4 25200000 		.4byte	.LASF627
 9039 2ec8 2F       		.byte	0x2f
 9040 2ec9 6E       		.byte	0x6e
 9041 2eca 461C0000 		.4byte	0x1c46
 9042 2ece 18       		.byte	0x18
 9043 2ecf 0D       		.uleb128 0xd
 9044 2ed0 C2120000 		.4byte	.LASF628
 9045 2ed4 2F       		.byte	0x2f
 9046 2ed5 6E       		.byte	0x6e
 9047 2ed6 6A1C0000 		.4byte	0x1c6a
 9048 2eda 1C       		.byte	0x1c
 9049 2edb 00       		.byte	0
 9050 2edc 0F       		.uleb128 0xf
 9051 2edd 6F2E0000 		.4byte	0x2e6f
 9052 2ee1 05       		.uleb128 0x5
 9053 2ee2 04       		.byte	0x4
 9054 2ee3 DC2E0000 		.4byte	0x2edc
 9055 2ee7 0A       		.uleb128 0xa
 9056 2ee8 E6080000 		.4byte	0x8e6
 9057 2eec F72E0000 		.4byte	0x2ef7
 9058 2ef0 0B       		.uleb128 0xb
 9059 2ef1 37000000 		.4byte	0x37
 9060 2ef5 0F       		.byte	0xf
 9061 2ef6 00       		.byte	0
 9062 2ef7 05       		.uleb128 0x5
 9063 2ef8 04       		.byte	0x4
 9064 2ef9 D5140000 		.4byte	0x14d5
 9065 2efd 27       		.uleb128 0x27
 9066 2efe 07       		.byte	0x7
 9067 2eff 01       		.byte	0x1
 9068 2f00 5E000000 		.4byte	0x5e
 9069 2f04 31       		.byte	0x31
 9070 2f05 6C       		.byte	0x6c
 9071 2f06 1D2F0000 		.4byte	0x2f1d
 9072 2f0a 28       		.uleb128 0x28
 9073 2f0b 0F030000 		.4byte	.LASF629
 9074 2f0f 00       		.byte	0
 9075 2f10 28       		.uleb128 0x28
 9076 2f11 8E140000 		.4byte	.LASF630
 9077 2f15 01       		.byte	0x1
 9078 2f16 28       		.uleb128 0x28
 9079 2f17 5F120000 		.4byte	.LASF631
 9080 2f1b 02       		.byte	0x2
 9081 2f1c 00       		.byte	0
 9082 2f1d 03       		.uleb128 0x3
 9083 2f1e CE190000 		.4byte	.LASF632
 9084 2f22 31       		.byte	0x31
 9085 2f23 70       		.byte	0x70
 9086 2f24 FD2E0000 		.4byte	0x2efd
 9087 2f28 03       		.uleb128 0x3
ARM GAS  C:\Users\PCHAUT~1\AppData\Local\Temp\cc7u0cQS.s 			page 161


 9088 2f29 2C190000 		.4byte	.LASF633
 9089 2f2d 32       		.byte	0x32
 9090 2f2e BF       		.byte	0xbf
 9091 2f2f 1C090000 		.4byte	0x91c
 9092 2f33 03       		.uleb128 0x3
 9093 2f34 D9000000 		.4byte	.LASF634
 9094 2f38 32       		.byte	0x32
 9095 2f39 C4       		.byte	0xc4
 9096 2f3a 1C090000 		.4byte	0x91c
 9097 2f3e 03       		.uleb128 0x3
 9098 2f3f 3E1F0000 		.4byte	.LASF635
 9099 2f43 32       		.byte	0x32
 9100 2f44 C9       		.byte	0xc9
 9101 2f45 492F0000 		.4byte	0x2f49
 9102 2f49 10       		.uleb128 0x10
 9103 2f4a 3E1F0000 		.4byte	.LASF635
 9104 2f4e 4C       		.byte	0x4c
 9105 2f4f 32       		.byte	0x32
 9106 2f50 F2       		.byte	0xf2
 9107 2f51 F82F0000 		.4byte	0x2ff8
 9108 2f55 11       		.uleb128 0x11
 9109 2f56 766D7400 		.ascii	"vmt\000"
 9110 2f5a 32       		.byte	0x32
 9111 2f5b F6       		.byte	0xf6
 9112 2f5c 9B300000 		.4byte	0x309b
 9113 2f60 00       		.byte	0
 9114 2f61 0D       		.uleb128 0xd
 9115 2f62 4D150000 		.4byte	.LASF441
 9116 2f66 32       		.byte	0x32
 9117 2f67 F7       		.byte	0xf7
 9118 2f68 B41C0000 		.4byte	0x1cb4
 9119 2f6c 04       		.byte	0x4
 9120 2f6d 11       		.uleb128 0x11
 9121 2f6e 63696400 		.ascii	"cid\000"
 9122 2f72 32       		.byte	0x32
 9123 2f73 F7       		.byte	0xf7
 9124 2f74 6F1D0000 		.4byte	0x1d6f
 9125 2f78 08       		.byte	0x8
 9126 2f79 11       		.uleb128 0x11
 9127 2f7a 63736400 		.ascii	"csd\000"
 9128 2f7e 32       		.byte	0x32
 9129 2f7f F7       		.byte	0xf7
 9130 2f80 6F1D0000 		.4byte	0x1d6f
 9131 2f84 18       		.byte	0x18
 9132 2f85 0D       		.uleb128 0xd
 9133 2f86 7A1B0000 		.4byte	.LASF636
 9134 2f8a 32       		.byte	0x32
 9135 2f8b F7       		.byte	0xf7
 9136 2f8c 1C090000 		.4byte	0x91c
 9137 2f90 28       		.byte	0x28
 9138 2f91 0D       		.uleb128 0xd
 9139 2f92 B31A0000 		.4byte	.LASF442
 9140 2f96 32       		.byte	0x32
 9141 2f97 FB       		.byte	0xfb
 9142 2f98 A1300000 		.4byte	0x30a1
 9143 2f9c 2C       		.byte	0x2c
 9144 2f9d 0D       		.uleb128 0xd
ARM GAS  C:\Users\PCHAUT~1\AppData\Local\Temp\cc7u0cQS.s 			page 162


 9145 2f9e 04040000 		.4byte	.LASF637
 9146 2fa2 32       		.byte	0x32
 9147 2fa3 FF       		.byte	0xff
 9148 2fa4 282F0000 		.4byte	0x2f28
 9149 2fa8 30       		.byte	0x30
 9150 2fa9 18       		.uleb128 0x18
 9151 2faa 7E010000 		.4byte	.LASF573
 9152 2fae 32       		.byte	0x32
 9153 2faf 0301     		.2byte	0x103
 9154 2fb1 332F0000 		.4byte	0x2f33
 9155 2fb5 34       		.byte	0x34
 9156 2fb6 21       		.uleb128 0x21
 9157 2fb7 72636100 		.ascii	"rca\000"
 9158 2fbb 32       		.byte	0x32
 9159 2fbc 0701     		.2byte	0x107
 9160 2fbe 1C090000 		.4byte	0x91c
 9161 2fc2 38       		.byte	0x38
 9162 2fc3 18       		.uleb128 0x18
 9163 2fc4 77060000 		.4byte	.LASF446
 9164 2fc8 32       		.byte	0x32
 9165 2fc9 0C01     		.2byte	0x10c
 9166 2fcb F90A0000 		.4byte	0xaf9
 9167 2fcf 3C       		.byte	0x3c
 9168 2fd0 18       		.uleb128 0x18
 9169 2fd1 05170000 		.4byte	.LASF449
 9170 2fd5 32       		.byte	0x32
 9171 2fd6 1001     		.2byte	0x110
 9172 2fd8 1C090000 		.4byte	0x91c
 9173 2fdc 40       		.byte	0x40
 9174 2fdd 21       		.uleb128 0x21
 9175 2fde 646D6100 		.ascii	"dma\000"
 9176 2fe2 32       		.byte	0x32
 9177 2fe3 1401     		.2byte	0x114
 9178 2fe5 B4210000 		.4byte	0x21b4
 9179 2fe9 44       		.byte	0x44
 9180 2fea 18       		.uleb128 0x18
 9181 2feb 65150000 		.4byte	.LASF638
 9182 2fef 32       		.byte	0x32
 9183 2ff0 1901     		.2byte	0x119
 9184 2ff2 A7300000 		.4byte	0x30a7
 9185 2ff6 48       		.byte	0x48
 9186 2ff7 00       		.byte	0
 9187 2ff8 0C       		.uleb128 0xc
 9188 2ff9 08       		.byte	0x8
 9189 2ffa 32       		.byte	0x32
 9190 2ffb CF       		.byte	0xcf
 9191 2ffc 19300000 		.4byte	0x3019
 9192 3000 0D       		.uleb128 0xd
 9193 3001 4C0E0000 		.4byte	.LASF639
 9194 3005 32       		.byte	0x32
 9195 3006 D8       		.byte	0xd8
 9196 3007 DE1A0000 		.4byte	0x1ade
 9197 300b 00       		.byte	0
 9198 300c 0D       		.uleb128 0xd
 9199 300d D5200000 		.4byte	.LASF640
 9200 3011 32       		.byte	0x32
 9201 3012 DC       		.byte	0xdc
ARM GAS  C:\Users\PCHAUT~1\AppData\Local\Temp\cc7u0cQS.s 			page 163


 9202 3013 1D2F0000 		.4byte	0x2f1d
 9203 3017 04       		.byte	0x4
 9204 3018 00       		.byte	0
 9205 3019 03       		.uleb128 0x3
 9206 301a F4180000 		.4byte	.LASF641
 9207 301e 32       		.byte	0x32
 9208 301f DE       		.byte	0xde
 9209 3020 F82F0000 		.4byte	0x2ff8
 9210 3024 0F       		.uleb128 0xf
 9211 3025 19300000 		.4byte	0x3019
 9212 3029 10       		.uleb128 0x10
 9213 302a EB200000 		.4byte	.LASF642
 9214 302e 20       		.byte	0x20
 9215 302f 32       		.byte	0x32
 9216 3030 EB       		.byte	0xeb
 9217 3031 96300000 		.4byte	0x3096
 9218 3035 0D       		.uleb128 0xd
 9219 3036 0D230000 		.4byte	.LASF643
 9220 303a 32       		.byte	0x32
 9221 303b EC       		.byte	0xec
 9222 303c 011D0000 		.4byte	0x1d01
 9223 3040 00       		.byte	0
 9224 3041 0D       		.uleb128 0xd
 9225 3042 9D0C0000 		.4byte	.LASF644
 9226 3046 32       		.byte	0x32
 9227 3047 EC       		.byte	0xec
 9228 3048 011D0000 		.4byte	0x1d01
 9229 304c 04       		.byte	0x4
 9230 304d 0D       		.uleb128 0xd
 9231 304e 390F0000 		.4byte	.LASF645
 9232 3052 32       		.byte	0x32
 9233 3053 EC       		.byte	0xec
 9234 3054 011D0000 		.4byte	0x1d01
 9235 3058 08       		.byte	0x8
 9236 3059 0D       		.uleb128 0xd
 9237 305a 5B130000 		.4byte	.LASF646
 9238 305e 32       		.byte	0x32
 9239 305f EC       		.byte	0xec
 9240 3060 011D0000 		.4byte	0x1d01
 9241 3064 0C       		.byte	0xc
 9242 3065 0D       		.uleb128 0xd
 9243 3066 5F040000 		.4byte	.LASF624
 9244 306a 32       		.byte	0x32
 9245 306b EC       		.byte	0xec
 9246 306c 251D0000 		.4byte	0x1d25
 9247 3070 10       		.byte	0x10
 9248 3071 0D       		.uleb128 0xd
 9249 3072 43170000 		.4byte	.LASF623
 9250 3076 32       		.byte	0x32
 9251 3077 EC       		.byte	0xec
 9252 3078 491D0000 		.4byte	0x1d49
 9253 307c 14       		.byte	0x14
 9254 307d 0D       		.uleb128 0xd
 9255 307e 21190000 		.4byte	.LASF647
 9256 3082 32       		.byte	0x32
 9257 3083 EC       		.byte	0xec
 9258 3084 011D0000 		.4byte	0x1d01
ARM GAS  C:\Users\PCHAUT~1\AppData\Local\Temp\cc7u0cQS.s 			page 164


 9259 3088 18       		.byte	0x18
 9260 3089 0D       		.uleb128 0xd
 9261 308a 7B200000 		.4byte	.LASF648
 9262 308e 32       		.byte	0x32
 9263 308f EC       		.byte	0xec
 9264 3090 691D0000 		.4byte	0x1d69
 9265 3094 1C       		.byte	0x1c
 9266 3095 00       		.byte	0
 9267 3096 0F       		.uleb128 0xf
 9268 3097 29300000 		.4byte	0x3029
 9269 309b 05       		.uleb128 0x5
 9270 309c 04       		.byte	0x4
 9271 309d 96300000 		.4byte	0x3096
 9272 30a1 05       		.uleb128 0x5
 9273 30a2 04       		.byte	0x4
 9274 30a3 24300000 		.4byte	0x3024
 9275 30a7 05       		.uleb128 0x5
 9276 30a8 04       		.byte	0x4
 9277 30a9 DD130000 		.4byte	0x13dd
 9278 30ad 20       		.uleb128 0x20
 9279 30ae A30A0000 		.4byte	.LASF649
 9280 30b2 32       		.byte	0x32
 9281 30b3 2501     		.2byte	0x125
 9282 30b5 3E2F0000 		.4byte	0x2f3e
 9283 30b9 27       		.uleb128 0x27
 9284 30ba 07       		.byte	0x7
 9285 30bb 01       		.byte	0x1
 9286 30bc 5E000000 		.4byte	0x5e
 9287 30c0 33       		.byte	0x33
 9288 30c1 46       		.byte	0x46
 9289 30c2 E5300000 		.4byte	0x30e5
 9290 30c6 28       		.uleb128 0x28
 9291 30c7 8D060000 		.4byte	.LASF650
 9292 30cb 00       		.byte	0
 9293 30cc 28       		.uleb128 0x28
 9294 30cd CD020000 		.4byte	.LASF651
 9295 30d1 01       		.byte	0x1
 9296 30d2 28       		.uleb128 0x28
 9297 30d3 BE200000 		.4byte	.LASF652
 9298 30d7 02       		.byte	0x2
 9299 30d8 28       		.uleb128 0x28
 9300 30d9 A50E0000 		.4byte	.LASF653
 9301 30dd 03       		.byte	0x3
 9302 30de 28       		.uleb128 0x28
 9303 30df ED120000 		.4byte	.LASF654
 9304 30e3 04       		.byte	0x4
 9305 30e4 00       		.byte	0
 9306 30e5 03       		.uleb128 0x3
 9307 30e6 740E0000 		.4byte	.LASF655
 9308 30ea 33       		.byte	0x33
 9309 30eb 4C       		.byte	0x4c
 9310 30ec B9300000 		.4byte	0x30b9
 9311 30f0 07       		.uleb128 0x7
 9312 30f1 DB1F0000 		.4byte	.LASF656
 9313 30f5 34       		.byte	0x34
 9314 30f6 9601     		.2byte	0x196
 9315 30f8 FC300000 		.4byte	0x30fc
ARM GAS  C:\Users\PCHAUT~1\AppData\Local\Temp\cc7u0cQS.s 			page 165


 9316 30fc 1B       		.uleb128 0x1b
 9317 30fd DB1F0000 		.4byte	.LASF656
 9318 3101 34       		.byte	0x34
 9319 3102 34       		.byte	0x34
 9320 3103 BA01     		.2byte	0x1ba
 9321 3105 7F310000 		.4byte	0x317f
 9322 3109 18       		.uleb128 0x18
 9323 310a 4D150000 		.4byte	.LASF441
 9324 310e 34       		.byte	0x34
 9325 310f BE01     		.2byte	0x1be
 9326 3111 E5300000 		.4byte	0x30e5
 9327 3115 00       		.byte	0
 9328 3116 18       		.uleb128 0x18
 9329 3117 B31A0000 		.4byte	.LASF442
 9330 311b 34       		.byte	0x34
 9331 311c C201     		.2byte	0x1c2
 9332 311e F1310000 		.4byte	0x31f1
 9333 3122 04       		.byte	0x4
 9334 3123 18       		.uleb128 0x18
 9335 3124 77060000 		.4byte	.LASF446
 9336 3128 34       		.byte	0x34
 9337 3129 C701     		.2byte	0x1c7
 9338 312b F90A0000 		.4byte	0xaf9
 9339 312f 08       		.byte	0x8
 9340 3130 18       		.uleb128 0x18
 9341 3131 EE0C0000 		.4byte	.LASF447
 9342 3135 34       		.byte	0x34
 9343 3136 CD01     		.2byte	0x1cd
 9344 3138 B5190000 		.4byte	0x19b5
 9345 313c 0C       		.byte	0xc
 9346 313d 21       		.uleb128 0x21
 9347 313e 73706900 		.ascii	"spi\000"
 9348 3142 34       		.byte	0x34
 9349 3143 D601     		.2byte	0x1d6
 9350 3145 E02B0000 		.4byte	0x2be0
 9351 3149 20       		.byte	0x20
 9352 314a 18       		.uleb128 0x18
 9353 314b 3F010000 		.4byte	.LASF577
 9354 314f 34       		.byte	0x34
 9355 3150 DA01     		.2byte	0x1da
 9356 3152 B4210000 		.4byte	0x21b4
 9357 3156 24       		.byte	0x24
 9358 3157 18       		.uleb128 0x18
 9359 3158 07020000 		.4byte	.LASF578
 9360 315c 34       		.byte	0x34
 9361 315d DE01     		.2byte	0x1de
 9362 315f B4210000 		.4byte	0x21b4
 9363 3163 28       		.byte	0x28
 9364 3164 18       		.uleb128 0x18
 9365 3165 F0070000 		.4byte	.LASF575
 9366 3169 34       		.byte	0x34
 9367 316a E201     		.2byte	0x1e2
 9368 316c 1C090000 		.4byte	0x91c
 9369 3170 2C       		.byte	0x2c
 9370 3171 18       		.uleb128 0x18
 9371 3172 49080000 		.4byte	.LASF576
 9372 3176 34       		.byte	0x34
ARM GAS  C:\Users\PCHAUT~1\AppData\Local\Temp\cc7u0cQS.s 			page 166


 9373 3177 E601     		.2byte	0x1e6
 9374 3179 1C090000 		.4byte	0x91c
 9375 317d 30       		.byte	0x30
 9376 317e 00       		.byte	0
 9377 317f 07       		.uleb128 0x7
 9378 3180 AA140000 		.4byte	.LASF657
 9379 3184 34       		.byte	0x34
 9380 3185 9E01     		.2byte	0x19e
 9381 3187 8B310000 		.4byte	0x318b
 9382 318b 05       		.uleb128 0x5
 9383 318c 04       		.byte	0x4
 9384 318d 91310000 		.4byte	0x3191
 9385 3191 1F       		.uleb128 0x1f
 9386 3192 9C310000 		.4byte	0x319c
 9387 3196 16       		.uleb128 0x16
 9388 3197 9C310000 		.4byte	0x319c
 9389 319b 00       		.byte	0
 9390 319c 05       		.uleb128 0x5
 9391 319d 04       		.byte	0x4
 9392 319e F0300000 		.4byte	0x30f0
 9393 31a2 1C       		.uleb128 0x1c
 9394 31a3 0C       		.byte	0xc
 9395 31a4 34       		.byte	0x34
 9396 31a5 A301     		.2byte	0x1a3
 9397 31a7 E0310000 		.4byte	0x31e0
 9398 31ab 18       		.uleb128 0x18
 9399 31ac F5090000 		.4byte	.LASF454
 9400 31b0 34       		.byte	0x34
 9401 31b1 A701     		.2byte	0x1a7
 9402 31b3 7F310000 		.4byte	0x317f
 9403 31b7 00       		.byte	0
 9404 31b8 18       		.uleb128 0x18
 9405 31b9 73210000 		.4byte	.LASF658
 9406 31bd 34       		.byte	0x34
 9407 31be AC01     		.2byte	0x1ac
 9408 31c0 451F0000 		.4byte	0x1f45
 9409 31c4 04       		.byte	0x4
 9410 31c5 18       		.uleb128 0x18
 9411 31c6 43080000 		.4byte	.LASF659
 9412 31ca 34       		.byte	0x34
 9413 31cb B001     		.2byte	0x1b0
 9414 31cd 01090000 		.4byte	0x901
 9415 31d1 08       		.byte	0x8
 9416 31d2 21       		.uleb128 0x21
 9417 31d3 63723100 		.ascii	"cr1\000"
 9418 31d7 34       		.byte	0x34
 9419 31d8 B401     		.2byte	0x1b4
 9420 31da 01090000 		.4byte	0x901
 9421 31de 0A       		.byte	0xa
 9422 31df 00       		.byte	0
 9423 31e0 07       		.uleb128 0x7
 9424 31e1 E61E0000 		.4byte	.LASF660
 9425 31e5 34       		.byte	0x34
 9426 31e6 B501     		.2byte	0x1b5
 9427 31e8 A2310000 		.4byte	0x31a2
 9428 31ec 0F       		.uleb128 0xf
 9429 31ed E0310000 		.4byte	0x31e0
ARM GAS  C:\Users\PCHAUT~1\AppData\Local\Temp\cc7u0cQS.s 			page 167


 9430 31f1 05       		.uleb128 0x5
 9431 31f2 04       		.byte	0x4
 9432 31f3 EC310000 		.4byte	0x31ec
 9433 31f7 20       		.uleb128 0x20
 9434 31f8 0B1E0000 		.4byte	.LASF661
 9435 31fc 34       		.byte	0x34
 9436 31fd F201     		.2byte	0x1f2
 9437 31ff F0300000 		.4byte	0x30f0
 9438 3203 03       		.uleb128 0x3
 9439 3204 4E110000 		.4byte	.LASF662
 9440 3208 35       		.byte	0x35
 9441 3209 FA       		.byte	0xfa
 9442 320a 0E320000 		.4byte	0x320e
 9443 320e 17       		.uleb128 0x17
 9444 320f 4E110000 		.4byte	.LASF662
 9445 3213 6002     		.2byte	0x260
 9446 3215 36       		.byte	0x36
 9447 3216 7701     		.2byte	0x177
 9448 3218 3A330000 		.4byte	0x333a
 9449 321c 18       		.uleb128 0x18
 9450 321d 4D150000 		.4byte	.LASF441
 9451 3221 36       		.byte	0x36
 9452 3222 7B01     		.2byte	0x17b
 9453 3224 72330000 		.4byte	0x3372
 9454 3228 00       		.byte	0
 9455 3229 18       		.uleb128 0x18
 9456 322a B31A0000 		.4byte	.LASF442
 9457 322e 36       		.byte	0x36
 9458 322f 7F01     		.2byte	0x17f
 9459 3231 B63C0000 		.4byte	0x3cb6
 9460 3235 04       		.byte	0x4
 9461 3236 18       		.uleb128 0x18
 9462 3237 221F0000 		.4byte	.LASF663
 9463 323b 36       		.byte	0x36
 9464 323c 8301     		.2byte	0x183
 9465 323e 01090000 		.4byte	0x901
 9466 3242 08       		.byte	0x8
 9467 3243 18       		.uleb128 0x18
 9468 3244 9A210000 		.4byte	.LASF664
 9469 3248 36       		.byte	0x36
 9470 3249 8701     		.2byte	0x187
 9471 324b 01090000 		.4byte	0x901
 9472 324f 0A       		.byte	0xa
 9473 3250 21       		.uleb128 0x21
 9474 3251 65706300 		.ascii	"epc\000"
 9475 3255 36       		.byte	0x36
 9476 3256 8B01     		.2byte	0x18b
 9477 3258 BC3C0000 		.4byte	0x3cbc
 9478 325c 0C       		.byte	0xc
 9479 325d 18       		.uleb128 0x18
 9480 325e BD060000 		.4byte	.LASF665
 9481 3262 36       		.byte	0x36
 9482 3263 9201     		.2byte	0x192
 9483 3265 D23C0000 		.4byte	0x3cd2
 9484 3269 1C       		.byte	0x1c
 9485 326a 18       		.uleb128 0x18
 9486 326b 560C0000 		.4byte	.LASF666
ARM GAS  C:\Users\PCHAUT~1\AppData\Local\Temp\cc7u0cQS.s 			page 168


 9487 326f 36       		.byte	0x36
 9488 3270 9901     		.2byte	0x199
 9489 3272 D23C0000 		.4byte	0x3cd2
 9490 3276 28       		.byte	0x28
 9491 3277 18       		.uleb128 0x18
 9492 3278 C90F0000 		.4byte	.LASF667
 9493 327c 36       		.byte	0x36
 9494 327d 9D01     		.2byte	0x19d
 9495 327f D8330000 		.4byte	0x33d8
 9496 3283 34       		.byte	0x34
 9497 3284 18       		.uleb128 0x18
 9498 3285 2E1A0000 		.4byte	.LASF668
 9499 3289 36       		.byte	0x36
 9500 328a A101     		.2byte	0x1a1
 9501 328c DE1A0000 		.4byte	0x1ade
 9502 3290 38       		.byte	0x38
 9503 3291 18       		.uleb128 0x18
 9504 3292 97160000 		.4byte	.LASF669
 9505 3296 36       		.byte	0x36
 9506 3297 A501     		.2byte	0x1a5
 9507 3299 2C000000 		.4byte	0x2c
 9508 329d 3C       		.byte	0x3c
 9509 329e 18       		.uleb128 0x18
 9510 329f A01C0000 		.4byte	.LASF670
 9511 32a3 36       		.byte	0x36
 9512 32a4 A901     		.2byte	0x1a9
 9513 32a6 58340000 		.4byte	0x3458
 9514 32aa 40       		.byte	0x40
 9515 32ab 18       		.uleb128 0x18
 9516 32ac 87060000 		.4byte	.LASF671
 9517 32b0 36       		.byte	0x36
 9518 32b1 AD01     		.2byte	0x1ad
 9519 32b3 15220000 		.4byte	0x2215
 9520 32b7 44       		.byte	0x44
 9521 32b8 18       		.uleb128 0x18
 9522 32b9 82140000 		.4byte	.LASF672
 9523 32bd 36       		.byte	0x36
 9524 32be B101     		.2byte	0x1b1
 9525 32c0 01090000 		.4byte	0x901
 9526 32c4 4C       		.byte	0x4c
 9527 32c5 18       		.uleb128 0x18
 9528 32c6 C2140000 		.4byte	.LASF673
 9529 32ca 36       		.byte	0x36
 9530 32cb B501     		.2byte	0x1b5
 9531 32cd E6080000 		.4byte	0x8e6
 9532 32d1 4E       		.byte	0x4e
 9533 32d2 18       		.uleb128 0x18
 9534 32d3 74190000 		.4byte	.LASF674
 9535 32d7 36       		.byte	0x36
 9536 32d8 B901     		.2byte	0x1b9
 9537 32da E6080000 		.4byte	0x8e6
 9538 32de 4F       		.byte	0x4f
 9539 32df 21       		.uleb128 0x21
 9540 32e0 6F746700 		.ascii	"otg\000"
 9541 32e4 36       		.byte	0x36
 9542 32e5 C101     		.2byte	0x1c1
 9543 32e7 E23C0000 		.4byte	0x3ce2
ARM GAS  C:\Users\PCHAUT~1\AppData\Local\Temp\cc7u0cQS.s 			page 169


 9544 32eb 50       		.byte	0x50
 9545 32ec 18       		.uleb128 0x18
 9546 32ed 330E0000 		.4byte	.LASF675
 9547 32f1 36       		.byte	0x36
 9548 32f2 C501     		.2byte	0x1c5
 9549 32f4 E83C0000 		.4byte	0x3ce8
 9550 32f8 54       		.byte	0x54
 9551 32f9 18       		.uleb128 0x18
 9552 32fa BC1D0000 		.4byte	.LASF676
 9553 32fe 36       		.byte	0x36
 9554 32ff C901     		.2byte	0x1c9
 9555 3301 1C090000 		.4byte	0x91c
 9556 3305 58       		.byte	0x58
 9557 3306 18       		.uleb128 0x18
 9558 3307 0D0D0000 		.4byte	.LASF677
 9559 330b 36       		.byte	0x36
 9560 330c CD01     		.2byte	0x1cd
 9561 330e 1C090000 		.4byte	0x91c
 9562 3312 5C       		.byte	0x5c
 9563 3313 18       		.uleb128 0x18
 9564 3314 9F070000 		.4byte	.LASF678
 9565 3318 36       		.byte	0x36
 9566 3319 D101     		.2byte	0x1d1
 9567 331b F90A0000 		.4byte	0xaf9
 9568 331f 60       		.byte	0x60
 9569 3320 21       		.uleb128 0x21
 9570 3321 747200   		.ascii	"tr\000"
 9571 3324 36       		.byte	0x36
 9572 3325 D601     		.2byte	0x1d6
 9573 3327 F90A0000 		.4byte	0xaf9
 9574 332b 64       		.byte	0x64
 9575 332c 18       		.uleb128 0x18
 9576 332d 8E130000 		.4byte	.LASF679
 9577 3331 36       		.byte	0x36
 9578 3332 DA01     		.2byte	0x1da
 9579 3334 EE3C0000 		.4byte	0x3cee
 9580 3338 68       		.byte	0x68
 9581 3339 00       		.byte	0
 9582 333a 03       		.uleb128 0x3
 9583 333b 720A0000 		.4byte	.LASF680
 9584 333f 35       		.byte	0x35
 9585 3340 FF       		.byte	0xff
 9586 3341 E6080000 		.4byte	0x8e6
 9587 3345 2A       		.uleb128 0x2a
 9588 3346 07       		.byte	0x7
 9589 3347 01       		.byte	0x1
 9590 3348 5E000000 		.4byte	0x5e
 9591 334c 35       		.byte	0x35
 9592 334d 0401     		.2byte	0x104
 9593 334f 72330000 		.4byte	0x3372
 9594 3353 28       		.uleb128 0x28
 9595 3354 33220000 		.4byte	.LASF681
 9596 3358 00       		.byte	0
 9597 3359 28       		.uleb128 0x28
 9598 335a 00000000 		.4byte	.LASF682
 9599 335e 01       		.byte	0x1
 9600 335f 28       		.uleb128 0x28
ARM GAS  C:\Users\PCHAUT~1\AppData\Local\Temp\cc7u0cQS.s 			page 170


 9601 3360 B8120000 		.4byte	.LASF683
 9602 3364 02       		.byte	0x2
 9603 3365 28       		.uleb128 0x28
 9604 3366 E6170000 		.4byte	.LASF684
 9605 336a 03       		.byte	0x3
 9606 336b 28       		.uleb128 0x28
 9607 336c C2070000 		.4byte	.LASF685
 9608 3370 04       		.byte	0x4
 9609 3371 00       		.byte	0
 9610 3372 07       		.uleb128 0x7
 9611 3373 42230000 		.4byte	.LASF686
 9612 3377 35       		.byte	0x35
 9613 3378 0A01     		.2byte	0x10a
 9614 337a 45330000 		.4byte	0x3345
 9615 337e 2A       		.uleb128 0x2a
 9616 337f 07       		.byte	0x7
 9617 3380 01       		.byte	0x1
 9618 3381 5E000000 		.4byte	0x5e
 9619 3385 35       		.byte	0x35
 9620 3386 0F01     		.2byte	0x10f
 9621 3388 9F330000 		.4byte	0x339f
 9622 338c 28       		.uleb128 0x28
 9623 338d CB1C0000 		.4byte	.LASF687
 9624 3391 00       		.byte	0
 9625 3392 28       		.uleb128 0x28
 9626 3393 FC0D0000 		.4byte	.LASF688
 9627 3397 01       		.byte	0x1
 9628 3398 28       		.uleb128 0x28
 9629 3399 D3030000 		.4byte	.LASF689
 9630 339d 02       		.byte	0x2
 9631 339e 00       		.byte	0
 9632 339f 2A       		.uleb128 0x2a
 9633 33a0 07       		.byte	0x7
 9634 33a1 01       		.byte	0x1
 9635 33a2 5E000000 		.4byte	0x5e
 9636 33a6 35       		.byte	0x35
 9637 33a7 1801     		.2byte	0x118
 9638 33a9 D8330000 		.4byte	0x33d8
 9639 33ad 28       		.uleb128 0x28
 9640 33ae 5F1C0000 		.4byte	.LASF690
 9641 33b2 00       		.byte	0
 9642 33b3 28       		.uleb128 0x28
 9643 33b4 BE0F0000 		.4byte	.LASF691
 9644 33b8 01       		.byte	0x1
 9645 33b9 28       		.uleb128 0x28
 9646 33ba 1A1A0000 		.4byte	.LASF692
 9647 33be 02       		.byte	0x2
 9648 33bf 28       		.uleb128 0x28
 9649 33c0 72150000 		.4byte	.LASF693
 9650 33c4 03       		.byte	0x3
 9651 33c5 28       		.uleb128 0x28
 9652 33c6 6D140000 		.4byte	.LASF694
 9653 33ca 04       		.byte	0x4
 9654 33cb 28       		.uleb128 0x28
 9655 33cc B1100000 		.4byte	.LASF695
 9656 33d0 05       		.byte	0x5
 9657 33d1 28       		.uleb128 0x28
ARM GAS  C:\Users\PCHAUT~1\AppData\Local\Temp\cc7u0cQS.s 			page 171


 9658 33d2 240F0000 		.4byte	.LASF696
 9659 33d6 06       		.byte	0x6
 9660 33d7 00       		.byte	0
 9661 33d8 07       		.uleb128 0x7
 9662 33d9 EE100000 		.4byte	.LASF697
 9663 33dd 35       		.byte	0x35
 9664 33de 2001     		.2byte	0x120
 9665 33e0 9F330000 		.4byte	0x339f
 9666 33e4 2A       		.uleb128 0x2a
 9667 33e5 07       		.byte	0x7
 9668 33e6 01       		.byte	0x1
 9669 33e7 5E000000 		.4byte	0x5e
 9670 33eb 35       		.byte	0x35
 9671 33ec 2501     		.2byte	0x125
 9672 33ee 17340000 		.4byte	0x3417
 9673 33f2 28       		.uleb128 0x28
 9674 33f3 FB1B0000 		.4byte	.LASF698
 9675 33f7 00       		.byte	0
 9676 33f8 28       		.uleb128 0x28
 9677 33f9 49180000 		.4byte	.LASF699
 9678 33fd 01       		.byte	0x1
 9679 33fe 28       		.uleb128 0x28
 9680 33ff 46130000 		.4byte	.LASF700
 9681 3403 02       		.byte	0x2
 9682 3404 28       		.uleb128 0x28
 9683 3405 DA130000 		.4byte	.LASF701
 9684 3409 03       		.byte	0x3
 9685 340a 28       		.uleb128 0x28
 9686 340b 06210000 		.4byte	.LASF702
 9687 340f 04       		.byte	0x4
 9688 3410 28       		.uleb128 0x28
 9689 3411 09130000 		.4byte	.LASF703
 9690 3415 05       		.byte	0x5
 9691 3416 00       		.byte	0
 9692 3417 07       		.uleb128 0x7
 9693 3418 78180000 		.4byte	.LASF704
 9694 341c 35       		.byte	0x35
 9695 341d 2C01     		.2byte	0x12c
 9696 341f E4330000 		.4byte	0x33e4
 9697 3423 1C       		.uleb128 0x1c
 9698 3424 08       		.byte	0x8
 9699 3425 35       		.byte	0x35
 9700 3426 3101     		.2byte	0x131
 9701 3428 47340000 		.4byte	0x3447
 9702 342c 18       		.uleb128 0x18
 9703 342d DC220000 		.4byte	.LASF705
 9704 3431 35       		.byte	0x35
 9705 3432 3501     		.2byte	0x135
 9706 3434 2C000000 		.4byte	0x2c
 9707 3438 00       		.byte	0
 9708 3439 18       		.uleb128 0x18
 9709 343a 3D040000 		.4byte	.LASF706
 9710 343e 35       		.byte	0x35
 9711 343f 3901     		.2byte	0x139
 9712 3441 131B0000 		.4byte	0x1b13
 9713 3445 04       		.byte	0x4
 9714 3446 00       		.byte	0
ARM GAS  C:\Users\PCHAUT~1\AppData\Local\Temp\cc7u0cQS.s 			page 172


 9715 3447 07       		.uleb128 0x7
 9716 3448 9C140000 		.4byte	.LASF707
 9717 344c 35       		.byte	0x35
 9718 344d 3A01     		.2byte	0x13a
 9719 344f 23340000 		.4byte	0x3423
 9720 3453 0F       		.uleb128 0xf
 9721 3454 47340000 		.4byte	0x3447
 9722 3458 07       		.uleb128 0x7
 9723 3459 70220000 		.4byte	.LASF708
 9724 345d 35       		.byte	0x35
 9725 345e 4201     		.2byte	0x142
 9726 3460 64340000 		.4byte	0x3464
 9727 3464 05       		.uleb128 0x5
 9728 3465 04       		.byte	0x4
 9729 3466 6A340000 		.4byte	0x346a
 9730 346a 1F       		.uleb128 0x1f
 9731 346b 75340000 		.4byte	0x3475
 9732 346f 16       		.uleb128 0x16
 9733 3470 75340000 		.4byte	0x3475
 9734 3474 00       		.byte	0
 9735 3475 05       		.uleb128 0x5
 9736 3476 04       		.byte	0x4
 9737 3477 03320000 		.4byte	0x3203
 9738 347b 07       		.uleb128 0x7
 9739 347c 89040000 		.4byte	.LASF709
 9740 3480 35       		.byte	0x35
 9741 3481 4B01     		.2byte	0x14b
 9742 3483 87340000 		.4byte	0x3487
 9743 3487 05       		.uleb128 0x5
 9744 3488 04       		.byte	0x4
 9745 3489 8D340000 		.4byte	0x348d
 9746 348d 1F       		.uleb128 0x1f
 9747 348e 9D340000 		.4byte	0x349d
 9748 3492 16       		.uleb128 0x16
 9749 3493 75340000 		.4byte	0x3475
 9750 3497 16       		.uleb128 0x16
 9751 3498 3A330000 		.4byte	0x333a
 9752 349c 00       		.byte	0
 9753 349d 07       		.uleb128 0x7
 9754 349e 560B0000 		.4byte	.LASF710
 9755 34a2 35       		.byte	0x35
 9756 34a3 5401     		.2byte	0x154
 9757 34a5 A9340000 		.4byte	0x34a9
 9758 34a9 05       		.uleb128 0x5
 9759 34aa 04       		.byte	0x4
 9760 34ab AF340000 		.4byte	0x34af
 9761 34af 1F       		.uleb128 0x1f
 9762 34b0 BF340000 		.4byte	0x34bf
 9763 34b4 16       		.uleb128 0x16
 9764 34b5 75340000 		.4byte	0x3475
 9765 34b9 16       		.uleb128 0x16
 9766 34ba 17340000 		.4byte	0x3417
 9767 34be 00       		.byte	0
 9768 34bf 07       		.uleb128 0x7
 9769 34c0 F1050000 		.4byte	.LASF711
 9770 34c4 35       		.byte	0x35
 9771 34c5 6001     		.2byte	0x160
ARM GAS  C:\Users\PCHAUT~1\AppData\Local\Temp\cc7u0cQS.s 			page 173


 9772 34c7 CB340000 		.4byte	0x34cb
 9773 34cb 05       		.uleb128 0x5
 9774 34cc 04       		.byte	0x4
 9775 34cd D1340000 		.4byte	0x34d1
 9776 34d1 15       		.uleb128 0x15
 9777 34d2 FA1C0000 		.4byte	0x1cfa
 9778 34d6 E0340000 		.4byte	0x34e0
 9779 34da 16       		.uleb128 0x16
 9780 34db 75340000 		.4byte	0x3475
 9781 34df 00       		.byte	0
 9782 34e0 07       		.uleb128 0x7
 9783 34e1 900F0000 		.4byte	.LASF712
 9784 34e5 35       		.byte	0x35
 9785 34e6 6501     		.2byte	0x165
 9786 34e8 EC340000 		.4byte	0x34ec
 9787 34ec 05       		.uleb128 0x5
 9788 34ed 04       		.byte	0x4
 9789 34ee F2340000 		.4byte	0x34f2
 9790 34f2 15       		.uleb128 0x15
 9791 34f3 10350000 		.4byte	0x3510
 9792 34f7 10350000 		.4byte	0x3510
 9793 34fb 16       		.uleb128 0x16
 9794 34fc 75340000 		.4byte	0x3475
 9795 3500 16       		.uleb128 0x16
 9796 3501 E6080000 		.4byte	0x8e6
 9797 3505 16       		.uleb128 0x16
 9798 3506 E6080000 		.4byte	0x8e6
 9799 350a 16       		.uleb128 0x16
 9800 350b 01090000 		.4byte	0x901
 9801 350f 00       		.byte	0
 9802 3510 05       		.uleb128 0x5
 9803 3511 04       		.byte	0x4
 9804 3512 53340000 		.4byte	0x3453
 9805 3516 0C       		.uleb128 0xc
 9806 3517 20       		.byte	0x20
 9807 3518 37       		.byte	0x37
 9808 3519 35       		.byte	0x35
 9809 351a 7F350000 		.4byte	0x357f
 9810 351e 0D       		.uleb128 0xd
 9811 351f 1D030000 		.4byte	.LASF713
 9812 3523 37       		.byte	0x37
 9813 3524 36       		.byte	0x36
 9814 3525 27090000 		.4byte	0x927
 9815 3529 00       		.byte	0
 9816 352a 0D       		.uleb128 0xd
 9817 352b 6B0D0000 		.4byte	.LASF714
 9818 352f 37       		.byte	0x37
 9819 3530 38       		.byte	0x38
 9820 3531 27090000 		.4byte	0x927
 9821 3535 04       		.byte	0x4
 9822 3536 0D       		.uleb128 0xd
 9823 3537 A2020000 		.4byte	.LASF715
 9824 353b 37       		.byte	0x37
 9825 353c 39       		.byte	0x39
 9826 353d 27090000 		.4byte	0x927
 9827 3541 08       		.byte	0x8
 9828 3542 0D       		.uleb128 0xd
ARM GAS  C:\Users\PCHAUT~1\AppData\Local\Temp\cc7u0cQS.s 			page 174


 9829 3543 A41A0000 		.4byte	.LASF716
 9830 3547 37       		.byte	0x37
 9831 3548 3A       		.byte	0x3a
 9832 3549 27090000 		.4byte	0x927
 9833 354d 0C       		.byte	0xc
 9834 354e 0D       		.uleb128 0xd
 9835 354f 3F130000 		.4byte	.LASF717
 9836 3553 37       		.byte	0x37
 9837 3554 3C       		.byte	0x3c
 9838 3555 27090000 		.4byte	0x927
 9839 3559 10       		.byte	0x10
 9840 355a 0D       		.uleb128 0xd
 9841 355b A10D0000 		.4byte	.LASF718
 9842 355f 37       		.byte	0x37
 9843 3560 3E       		.byte	0x3e
 9844 3561 27090000 		.4byte	0x927
 9845 3565 14       		.byte	0x14
 9846 3566 0D       		.uleb128 0xd
 9847 3567 B40D0000 		.4byte	.LASF719
 9848 356b 37       		.byte	0x37
 9849 356c 3F       		.byte	0x3f
 9850 356d 27090000 		.4byte	0x927
 9851 3571 18       		.byte	0x18
 9852 3572 0D       		.uleb128 0xd
 9853 3573 BA030000 		.4byte	.LASF720
 9854 3577 37       		.byte	0x37
 9855 3578 40       		.byte	0x40
 9856 3579 27090000 		.4byte	0x927
 9857 357d 1C       		.byte	0x1c
 9858 357e 00       		.byte	0
 9859 357f 03       		.uleb128 0x3
 9860 3580 361A0000 		.4byte	.LASF721
 9861 3584 37       		.byte	0x37
 9862 3585 41       		.byte	0x41
 9863 3586 16350000 		.4byte	0x3516
 9864 358a 0C       		.uleb128 0xc
 9865 358b 20       		.byte	0x20
 9866 358c 37       		.byte	0x37
 9867 358d 46       		.byte	0x46
 9868 358e F3350000 		.4byte	0x35f3
 9869 3592 0D       		.uleb128 0xd
 9870 3593 210E0000 		.4byte	.LASF722
 9871 3597 37       		.byte	0x37
 9872 3598 47       		.byte	0x47
 9873 3599 27090000 		.4byte	0x927
 9874 359d 00       		.byte	0
 9875 359e 0D       		.uleb128 0xd
 9876 359f 42110000 		.4byte	.LASF723
 9877 35a3 37       		.byte	0x37
 9878 35a4 49       		.byte	0x49
 9879 35a5 27090000 		.4byte	0x927
 9880 35a9 04       		.byte	0x4
 9881 35aa 0D       		.uleb128 0xd
 9882 35ab 501E0000 		.4byte	.LASF724
 9883 35af 37       		.byte	0x37
 9884 35b0 4A       		.byte	0x4a
 9885 35b1 27090000 		.4byte	0x927
ARM GAS  C:\Users\PCHAUT~1\AppData\Local\Temp\cc7u0cQS.s 			page 175


 9886 35b5 08       		.byte	0x8
 9887 35b6 0D       		.uleb128 0xd
 9888 35b7 6B110000 		.4byte	.LASF725
 9889 35bb 37       		.byte	0x37
 9890 35bc 4C       		.byte	0x4c
 9891 35bd 27090000 		.4byte	0x927
 9892 35c1 0C       		.byte	0xc
 9893 35c2 0D       		.uleb128 0xd
 9894 35c3 10160000 		.4byte	.LASF726
 9895 35c7 37       		.byte	0x37
 9896 35c8 4D       		.byte	0x4d
 9897 35c9 27090000 		.4byte	0x927
 9898 35cd 10       		.byte	0x10
 9899 35ce 0D       		.uleb128 0xd
 9900 35cf A10D0000 		.4byte	.LASF718
 9901 35d3 37       		.byte	0x37
 9902 35d4 4F       		.byte	0x4f
 9903 35d5 27090000 		.4byte	0x927
 9904 35d9 14       		.byte	0x14
 9905 35da 0D       		.uleb128 0xd
 9906 35db 98060000 		.4byte	.LASF727
 9907 35df 37       		.byte	0x37
 9908 35e0 50       		.byte	0x50
 9909 35e1 27090000 		.4byte	0x927
 9910 35e5 18       		.byte	0x18
 9911 35e6 0D       		.uleb128 0xd
 9912 35e7 391E0000 		.4byte	.LASF728
 9913 35eb 37       		.byte	0x37
 9914 35ec 52       		.byte	0x52
 9915 35ed 27090000 		.4byte	0x927
 9916 35f1 1C       		.byte	0x1c
 9917 35f2 00       		.byte	0
 9918 35f3 03       		.uleb128 0x3
 9919 35f4 CD070000 		.4byte	.LASF729
 9920 35f8 37       		.byte	0x37
 9921 35f9 53       		.byte	0x53
 9922 35fa 8A350000 		.4byte	0x358a
 9923 35fe 0C       		.uleb128 0xc
 9924 35ff 20       		.byte	0x20
 9925 3600 37       		.byte	0x37
 9926 3601 58       		.byte	0x58
 9927 3602 67360000 		.4byte	0x3667
 9928 3606 0D       		.uleb128 0xd
 9929 3607 09140000 		.4byte	.LASF730
 9930 360b 37       		.byte	0x37
 9931 360c 59       		.byte	0x59
 9932 360d 27090000 		.4byte	0x927
 9933 3611 00       		.byte	0
 9934 3612 0D       		.uleb128 0xd
 9935 3613 42110000 		.4byte	.LASF723
 9936 3617 37       		.byte	0x37
 9937 3618 5B       		.byte	0x5b
 9938 3619 27090000 		.4byte	0x927
 9939 361d 04       		.byte	0x4
 9940 361e 0D       		.uleb128 0xd
 9941 361f 61170000 		.4byte	.LASF731
 9942 3623 37       		.byte	0x37
ARM GAS  C:\Users\PCHAUT~1\AppData\Local\Temp\cc7u0cQS.s 			page 176


 9943 3624 5C       		.byte	0x5c
 9944 3625 27090000 		.4byte	0x927
 9945 3629 08       		.byte	0x8
 9946 362a 0D       		.uleb128 0xd
 9947 362b 6B110000 		.4byte	.LASF725
 9948 362f 37       		.byte	0x37
 9949 3630 5E       		.byte	0x5e
 9950 3631 27090000 		.4byte	0x927
 9951 3635 0C       		.byte	0xc
 9952 3636 0D       		.uleb128 0xd
 9953 3637 7B1F0000 		.4byte	.LASF732
 9954 363b 37       		.byte	0x37
 9955 363c 5F       		.byte	0x5f
 9956 363d 27090000 		.4byte	0x927
 9957 3641 10       		.byte	0x10
 9958 3642 0D       		.uleb128 0xd
 9959 3643 A10D0000 		.4byte	.LASF718
 9960 3647 37       		.byte	0x37
 9961 3648 61       		.byte	0x61
 9962 3649 27090000 		.4byte	0x927
 9963 364d 14       		.byte	0x14
 9964 364e 0D       		.uleb128 0xd
 9965 364f B40D0000 		.4byte	.LASF719
 9966 3653 37       		.byte	0x37
 9967 3654 62       		.byte	0x62
 9968 3655 27090000 		.4byte	0x927
 9969 3659 18       		.byte	0x18
 9970 365a 0D       		.uleb128 0xd
 9971 365b 391E0000 		.4byte	.LASF728
 9972 365f 37       		.byte	0x37
 9973 3660 63       		.byte	0x63
 9974 3661 27090000 		.4byte	0x927
 9975 3665 1C       		.byte	0x1c
 9976 3666 00       		.byte	0
 9977 3667 03       		.uleb128 0x3
 9978 3668 59070000 		.4byte	.LASF733
 9979 366c 37       		.byte	0x37
 9980 366d 64       		.byte	0x64
 9981 366e FE350000 		.4byte	0x35fe
 9982 3672 2C       		.uleb128 0x2c
 9983 3673 00100100 		.4byte	0x11000
 9984 3677 37       		.byte	0x37
 9985 3678 69       		.byte	0x69
 9986 3679 4F390000 		.4byte	0x394f
 9987 367d 0D       		.uleb128 0xd
 9988 367e 81040000 		.4byte	.LASF734
 9989 3682 37       		.byte	0x37
 9990 3683 6A       		.byte	0x6a
 9991 3684 27090000 		.4byte	0x927
 9992 3688 00       		.byte	0
 9993 3689 0D       		.uleb128 0xd
 9994 368a 3E0C0000 		.4byte	.LASF735
 9995 368e 37       		.byte	0x37
 9996 368f 6B       		.byte	0x6b
 9997 3690 27090000 		.4byte	0x927
 9998 3694 04       		.byte	0x4
 9999 3695 0D       		.uleb128 0xd
ARM GAS  C:\Users\PCHAUT~1\AppData\Local\Temp\cc7u0cQS.s 			page 177


 10000 3696 E2060000 		.4byte	.LASF736
 10001 369a 37       		.byte	0x37
 10002 369b 6C       		.byte	0x6c
 10003 369c 27090000 		.4byte	0x927
 10004 36a0 08       		.byte	0x8
 10005 36a1 0D       		.uleb128 0xd
 10006 36a2 84220000 		.4byte	.LASF737
 10007 36a6 37       		.byte	0x37
 10008 36a7 6D       		.byte	0x6d
 10009 36a8 27090000 		.4byte	0x927
 10010 36ac 0C       		.byte	0xc
 10011 36ad 0D       		.uleb128 0xd
 10012 36ae C8120000 		.4byte	.LASF738
 10013 36b2 37       		.byte	0x37
 10014 36b3 6E       		.byte	0x6e
 10015 36b4 27090000 		.4byte	0x927
 10016 36b8 10       		.byte	0x10
 10017 36b9 0D       		.uleb128 0xd
 10018 36ba 7A030000 		.4byte	.LASF739
 10019 36be 37       		.byte	0x37
 10020 36bf 6F       		.byte	0x6f
 10021 36c0 27090000 		.4byte	0x927
 10022 36c4 14       		.byte	0x14
 10023 36c5 0D       		.uleb128 0xd
 10024 36c6 63190000 		.4byte	.LASF740
 10025 36ca 37       		.byte	0x37
 10026 36cb 70       		.byte	0x70
 10027 36cc 27090000 		.4byte	0x927
 10028 36d0 18       		.byte	0x18
 10029 36d1 0D       		.uleb128 0xd
 10030 36d2 74070000 		.4byte	.LASF741
 10031 36d6 37       		.byte	0x37
 10032 36d7 71       		.byte	0x71
 10033 36d8 27090000 		.4byte	0x927
 10034 36dc 1C       		.byte	0x1c
 10035 36dd 0D       		.uleb128 0xd
 10036 36de 6C070000 		.4byte	.LASF742
 10037 36e2 37       		.byte	0x37
 10038 36e3 73       		.byte	0x73
 10039 36e4 27090000 		.4byte	0x927
 10040 36e8 20       		.byte	0x20
 10041 36e9 0D       		.uleb128 0xd
 10042 36ea 19190000 		.4byte	.LASF743
 10043 36ee 37       		.byte	0x37
 10044 36ef 75       		.byte	0x75
 10045 36f0 27090000 		.4byte	0x927
 10046 36f4 24       		.byte	0x24
 10047 36f5 0D       		.uleb128 0xd
 10048 36f6 E4000000 		.4byte	.LASF744
 10049 36fa 37       		.byte	0x37
 10050 36fb 76       		.byte	0x76
 10051 36fc 27090000 		.4byte	0x927
 10052 3700 28       		.byte	0x28
 10053 3701 0D       		.uleb128 0xd
 10054 3702 6B190000 		.4byte	.LASF745
 10055 3706 37       		.byte	0x37
 10056 3707 78       		.byte	0x78
ARM GAS  C:\Users\PCHAUT~1\AppData\Local\Temp\cc7u0cQS.s 			page 178


 10057 3708 27090000 		.4byte	0x927
 10058 370c 2C       		.byte	0x2c
 10059 370d 0D       		.uleb128 0xd
 10060 370e D80E0000 		.4byte	.LASF746
 10061 3712 37       		.byte	0x37
 10062 3713 7A       		.byte	0x7a
 10063 3714 27090000 		.4byte	0x927
 10064 3718 30       		.byte	0x30
 10065 3719 0D       		.uleb128 0xd
 10066 371a 4A210000 		.4byte	.LASF747
 10067 371e 37       		.byte	0x37
 10068 371f 7B       		.byte	0x7b
 10069 3720 27090000 		.4byte	0x927
 10070 3724 34       		.byte	0x34
 10071 3725 0D       		.uleb128 0xd
 10072 3726 E1010000 		.4byte	.LASF748
 10073 372a 37       		.byte	0x37
 10074 372b 7C       		.byte	0x7c
 10075 372c 27090000 		.4byte	0x927
 10076 3730 38       		.byte	0x38
 10077 3731 11       		.uleb128 0x11
 10078 3732 43494400 		.ascii	"CID\000"
 10079 3736 37       		.byte	0x37
 10080 3737 7D       		.byte	0x7d
 10081 3738 27090000 		.4byte	0x927
 10082 373c 3C       		.byte	0x3c
 10083 373d 0D       		.uleb128 0xd
 10084 373e 59100000 		.4byte	.LASF749
 10085 3742 37       		.byte	0x37
 10086 3743 7E       		.byte	0x7e
 10087 3744 5F390000 		.4byte	0x395f
 10088 3748 40       		.byte	0x40
 10089 3749 13       		.uleb128 0x13
 10090 374a 3A200000 		.4byte	.LASF750
 10091 374e 37       		.byte	0x37
 10092 374f 7F       		.byte	0x7f
 10093 3750 27090000 		.4byte	0x927
 10094 3754 0001     		.2byte	0x100
 10095 3756 13       		.uleb128 0x13
 10096 3757 48020000 		.4byte	.LASF751
 10097 375b 37       		.byte	0x37
 10098 375c 81       		.byte	0x81
 10099 375d F1140000 		.4byte	0x14f1
 10100 3761 0401     		.2byte	0x104
 10101 3763 13       		.uleb128 0x13
 10102 3764 AD130000 		.4byte	.LASF752
 10103 3768 37       		.byte	0x37
 10104 3769 83       		.byte	0x83
 10105 376a 74390000 		.4byte	0x3974
 10106 376e 4001     		.2byte	0x140
 10107 3770 13       		.uleb128 0x13
 10108 3771 00170000 		.4byte	.LASF753
 10109 3775 37       		.byte	0x37
 10110 3776 84       		.byte	0x84
 10111 3777 27090000 		.4byte	0x927
 10112 377b 0004     		.2byte	0x400
 10113 377d 13       		.uleb128 0x13
ARM GAS  C:\Users\PCHAUT~1\AppData\Local\Temp\cc7u0cQS.s 			page 179


 10114 377e 2E220000 		.4byte	.LASF754
 10115 3782 37       		.byte	0x37
 10116 3783 85       		.byte	0x85
 10117 3784 27090000 		.4byte	0x927
 10118 3788 0404     		.2byte	0x404
 10119 378a 13       		.uleb128 0x13
 10120 378b E9030000 		.4byte	.LASF755
 10121 378f 37       		.byte	0x37
 10122 3790 86       		.byte	0x86
 10123 3791 27090000 		.4byte	0x927
 10124 3795 0804     		.2byte	0x408
 10125 3797 13       		.uleb128 0x13
 10126 3798 B81F0000 		.4byte	.LASF756
 10127 379c 37       		.byte	0x37
 10128 379d 88       		.byte	0x88
 10129 379e 27090000 		.4byte	0x927
 10130 37a2 0C04     		.2byte	0x40c
 10131 37a4 13       		.uleb128 0x13
 10132 37a5 ED020000 		.4byte	.LASF757
 10133 37a9 37       		.byte	0x37
 10134 37aa 89       		.byte	0x89
 10135 37ab 27090000 		.4byte	0x927
 10136 37af 1004     		.2byte	0x410
 10137 37b1 13       		.uleb128 0x13
 10138 37b2 CD030000 		.4byte	.LASF758
 10139 37b6 37       		.byte	0x37
 10140 37b7 8B       		.byte	0x8b
 10141 37b8 27090000 		.4byte	0x927
 10142 37bc 1404     		.2byte	0x414
 10143 37be 13       		.uleb128 0x13
 10144 37bf 4D0C0000 		.4byte	.LASF759
 10145 37c3 37       		.byte	0x37
 10146 37c4 8D       		.byte	0x8d
 10147 37c5 27090000 		.4byte	0x927
 10148 37c9 1804     		.2byte	0x418
 10149 37cb 13       		.uleb128 0x13
 10150 37cc C01B0000 		.4byte	.LASF760
 10151 37d0 37       		.byte	0x37
 10152 37d1 8F       		.byte	0x8f
 10153 37d2 89390000 		.4byte	0x3989
 10154 37d6 1C04     		.2byte	0x41c
 10155 37d8 13       		.uleb128 0x13
 10156 37d9 9D020000 		.4byte	.LASF761
 10157 37dd 37       		.byte	0x37
 10158 37de 90       		.byte	0x90
 10159 37df 27090000 		.4byte	0x927
 10160 37e3 4004     		.2byte	0x440
 10161 37e5 13       		.uleb128 0x13
 10162 37e6 6D1D0000 		.4byte	.LASF762
 10163 37ea 37       		.byte	0x37
 10164 37eb 92       		.byte	0x92
 10165 37ec 9E390000 		.4byte	0x399e
 10166 37f0 4404     		.2byte	0x444
 10167 37f2 2D       		.uleb128 0x2d
 10168 37f3 686300   		.ascii	"hc\000"
 10169 37f6 37       		.byte	0x37
 10170 37f7 93       		.byte	0x93
ARM GAS  C:\Users\PCHAUT~1\AppData\Local\Temp\cc7u0cQS.s 			page 180


 10171 37f8 A3390000 		.4byte	0x39a3
 10172 37fc 0005     		.2byte	0x500
 10173 37fe 13       		.uleb128 0x13
 10174 37ff 01200000 		.4byte	.LASF763
 10175 3803 37       		.byte	0x37
 10176 3804 94       		.byte	0x94
 10177 3805 C3390000 		.4byte	0x39c3
 10178 3809 0007     		.2byte	0x700
 10179 380b 13       		.uleb128 0x13
 10180 380c 4D190000 		.4byte	.LASF764
 10181 3810 37       		.byte	0x37
 10182 3811 95       		.byte	0x95
 10183 3812 27090000 		.4byte	0x927
 10184 3816 0008     		.2byte	0x800
 10185 3818 13       		.uleb128 0x13
 10186 3819 E6200000 		.4byte	.LASF765
 10187 381d 37       		.byte	0x37
 10188 381e 96       		.byte	0x96
 10189 381f 27090000 		.4byte	0x927
 10190 3823 0408     		.2byte	0x804
 10191 3825 13       		.uleb128 0x13
 10192 3826 35050000 		.4byte	.LASF766
 10193 382a 37       		.byte	0x37
 10194 382b 97       		.byte	0x97
 10195 382c 27090000 		.4byte	0x927
 10196 3830 0808     		.2byte	0x808
 10197 3832 13       		.uleb128 0x13
 10198 3833 6F040000 		.4byte	.LASF767
 10199 3837 37       		.byte	0x37
 10200 3838 98       		.byte	0x98
 10201 3839 27090000 		.4byte	0x927
 10202 383d 0C08     		.2byte	0x80c
 10203 383f 13       		.uleb128 0x13
 10204 3840 360C0000 		.4byte	.LASF768
 10205 3844 37       		.byte	0x37
 10206 3845 99       		.byte	0x99
 10207 3846 27090000 		.4byte	0x927
 10208 384a 1008     		.2byte	0x810
 10209 384c 13       		.uleb128 0x13
 10210 384d 711E0000 		.4byte	.LASF769
 10211 3851 37       		.byte	0x37
 10212 3852 9B       		.byte	0x9b
 10213 3853 27090000 		.4byte	0x927
 10214 3857 1408     		.2byte	0x814
 10215 3859 13       		.uleb128 0x13
 10216 385a E01E0000 		.4byte	.LASF770
 10217 385e 37       		.byte	0x37
 10218 385f 9D       		.byte	0x9d
 10219 3860 27090000 		.4byte	0x927
 10220 3864 1808     		.2byte	0x818
 10221 3866 13       		.uleb128 0x13
 10222 3867 441C0000 		.4byte	.LASF771
 10223 386b 37       		.byte	0x37
 10224 386c 9F       		.byte	0x9f
 10225 386d 27090000 		.4byte	0x927
 10226 3871 1C08     		.2byte	0x81c
 10227 3873 13       		.uleb128 0x13
ARM GAS  C:\Users\PCHAUT~1\AppData\Local\Temp\cc7u0cQS.s 			page 181


 10228 3874 9C050000 		.4byte	.LASF772
 10229 3878 37       		.byte	0x37
 10230 3879 A1       		.byte	0xa1
 10231 387a 27090000 		.4byte	0x927
 10232 387e 2008     		.2byte	0x820
 10233 3880 13       		.uleb128 0x13
 10234 3881 AC040000 		.4byte	.LASF773
 10235 3885 37       		.byte	0x37
 10236 3886 A2       		.byte	0xa2
 10237 3887 27090000 		.4byte	0x927
 10238 388b 2408     		.2byte	0x824
 10239 388d 13       		.uleb128 0x13
 10240 388e 5A190000 		.4byte	.LASF774
 10241 3892 37       		.byte	0x37
 10242 3893 A3       		.byte	0xa3
 10243 3894 27090000 		.4byte	0x927
 10244 3898 2808     		.2byte	0x828
 10245 389a 13       		.uleb128 0x13
 10246 389b F60E0000 		.4byte	.LASF775
 10247 389f 37       		.byte	0x37
 10248 38a0 A5       		.byte	0xa5
 10249 38a1 27090000 		.4byte	0x927
 10250 38a5 2C08     		.2byte	0x82c
 10251 38a7 13       		.uleb128 0x13
 10252 38a8 48060000 		.4byte	.LASF776
 10253 38ac 37       		.byte	0x37
 10254 38ad A7       		.byte	0xa7
 10255 38ae 27090000 		.4byte	0x927
 10256 38b2 3008     		.2byte	0x830
 10257 38b4 13       		.uleb128 0x13
 10258 38b5 F10D0000 		.4byte	.LASF777
 10259 38b9 37       		.byte	0x37
 10260 38ba A8       		.byte	0xa8
 10261 38bb 27090000 		.4byte	0x927
 10262 38bf 3408     		.2byte	0x834
 10263 38c1 13       		.uleb128 0x13
 10264 38c2 56060000 		.4byte	.LASF778
 10265 38c6 37       		.byte	0x37
 10266 38c7 AA       		.byte	0xaa
 10267 38c8 27090000 		.4byte	0x927
 10268 38cc 3808     		.2byte	0x838
 10269 38ce 13       		.uleb128 0x13
 10270 38cf 6E060000 		.4byte	.LASF779
 10271 38d3 37       		.byte	0x37
 10272 38d4 AB       		.byte	0xab
 10273 38d5 27090000 		.4byte	0x927
 10274 38d9 3C08     		.2byte	0x83c
 10275 38db 13       		.uleb128 0x13
 10276 38dc 00070000 		.4byte	.LASF780
 10277 38e0 37       		.byte	0x37
 10278 38e1 AC       		.byte	0xac
 10279 38e2 D8390000 		.4byte	0x39d8
 10280 38e6 4008     		.2byte	0x840
 10281 38e8 13       		.uleb128 0x13
 10282 38e9 880D0000 		.4byte	.LASF781
 10283 38ed 37       		.byte	0x37
 10284 38ee AD       		.byte	0xad
ARM GAS  C:\Users\PCHAUT~1\AppData\Local\Temp\cc7u0cQS.s 			page 182


 10285 38ef D8390000 		.4byte	0x39d8
 10286 38f3 8008     		.2byte	0x880
 10287 38f5 13       		.uleb128 0x13
 10288 38f6 58110000 		.4byte	.LASF782
 10289 38fa 37       		.byte	0x37
 10290 38fb AE       		.byte	0xae
 10291 38fc D8390000 		.4byte	0x39d8
 10292 3900 C008     		.2byte	0x8c0
 10293 3902 2D       		.uleb128 0x2d
 10294 3903 696500   		.ascii	"ie\000"
 10295 3906 37       		.byte	0x37
 10296 3907 AF       		.byte	0xaf
 10297 3908 DD390000 		.4byte	0x39dd
 10298 390c 0009     		.2byte	0x900
 10299 390e 2D       		.uleb128 0x2d
 10300 390f 6F6500   		.ascii	"oe\000"
 10301 3912 37       		.byte	0x37
 10302 3913 B0       		.byte	0xb0
 10303 3914 ED390000 		.4byte	0x39ed
 10304 3918 000B     		.2byte	0xb00
 10305 391a 13       		.uleb128 0x13
 10306 391b BB0B0000 		.4byte	.LASF783
 10307 391f 37       		.byte	0x37
 10308 3920 B1       		.byte	0xb1
 10309 3921 C3390000 		.4byte	0x39c3
 10310 3925 000D     		.2byte	0xd00
 10311 3927 13       		.uleb128 0x13
 10312 3928 FE200000 		.4byte	.LASF784
 10313 392c 37       		.byte	0x37
 10314 392d B2       		.byte	0xb2
 10315 392e 27090000 		.4byte	0x927
 10316 3932 000E     		.2byte	0xe00
 10317 3934 13       		.uleb128 0x13
 10318 3935 9C160000 		.4byte	.LASF785
 10319 3939 37       		.byte	0x37
 10320 393a B4       		.byte	0xb4
 10321 393b 0D3A0000 		.4byte	0x3a0d
 10322 393f 040E     		.2byte	0xe04
 10323 3941 13       		.uleb128 0x13
 10324 3942 1B0A0000 		.4byte	.LASF284
 10325 3946 37       		.byte	0x37
 10326 3947 B5       		.byte	0xb5
 10327 3948 293A0000 		.4byte	0x3a29
 10328 394c 0010     		.2byte	0x1000
 10329 394e 00       		.byte	0
 10330 394f 0A       		.uleb128 0xa
 10331 3950 27090000 		.4byte	0x927
 10332 3954 5F390000 		.4byte	0x395f
 10333 3958 0B       		.uleb128 0xb
 10334 3959 37000000 		.4byte	0x37
 10335 395d 2F       		.byte	0x2f
 10336 395e 00       		.byte	0
 10337 395f 1A       		.uleb128 0x1a
 10338 3960 4F390000 		.4byte	0x394f
 10339 3964 0A       		.uleb128 0xa
 10340 3965 27090000 		.4byte	0x927
 10341 3969 74390000 		.4byte	0x3974
ARM GAS  C:\Users\PCHAUT~1\AppData\Local\Temp\cc7u0cQS.s 			page 183


 10342 396d 0B       		.uleb128 0xb
 10343 396e 37000000 		.4byte	0x37
 10344 3972 AF       		.byte	0xaf
 10345 3973 00       		.byte	0
 10346 3974 1A       		.uleb128 0x1a
 10347 3975 64390000 		.4byte	0x3964
 10348 3979 0A       		.uleb128 0xa
 10349 397a 27090000 		.4byte	0x927
 10350 397e 89390000 		.4byte	0x3989
 10351 3982 0B       		.uleb128 0xb
 10352 3983 37000000 		.4byte	0x37
 10353 3987 08       		.byte	0x8
 10354 3988 00       		.byte	0
 10355 3989 1A       		.uleb128 0x1a
 10356 398a 79390000 		.4byte	0x3979
 10357 398e 0A       		.uleb128 0xa
 10358 398f 27090000 		.4byte	0x927
 10359 3993 9E390000 		.4byte	0x399e
 10360 3997 0B       		.uleb128 0xb
 10361 3998 37000000 		.4byte	0x37
 10362 399c 2E       		.byte	0x2e
 10363 399d 00       		.byte	0
 10364 399e 1A       		.uleb128 0x1a
 10365 399f 8E390000 		.4byte	0x398e
 10366 39a3 0A       		.uleb128 0xa
 10367 39a4 7F350000 		.4byte	0x357f
 10368 39a8 B3390000 		.4byte	0x39b3
 10369 39ac 0B       		.uleb128 0xb
 10370 39ad 37000000 		.4byte	0x37
 10371 39b1 0F       		.byte	0xf
 10372 39b2 00       		.byte	0
 10373 39b3 0A       		.uleb128 0xa
 10374 39b4 27090000 		.4byte	0x927
 10375 39b8 C3390000 		.4byte	0x39c3
 10376 39bc 0B       		.uleb128 0xb
 10377 39bd 37000000 		.4byte	0x37
 10378 39c1 3F       		.byte	0x3f
 10379 39c2 00       		.byte	0
 10380 39c3 1A       		.uleb128 0x1a
 10381 39c4 B3390000 		.4byte	0x39b3
 10382 39c8 0A       		.uleb128 0xa
 10383 39c9 27090000 		.4byte	0x927
 10384 39cd D8390000 		.4byte	0x39d8
 10385 39d1 0B       		.uleb128 0xb
 10386 39d2 37000000 		.4byte	0x37
 10387 39d6 0F       		.byte	0xf
 10388 39d7 00       		.byte	0
 10389 39d8 1A       		.uleb128 0x1a
 10390 39d9 C8390000 		.4byte	0x39c8
 10391 39dd 0A       		.uleb128 0xa
 10392 39de F3350000 		.4byte	0x35f3
 10393 39e2 ED390000 		.4byte	0x39ed
 10394 39e6 0B       		.uleb128 0xb
 10395 39e7 37000000 		.4byte	0x37
 10396 39eb 0F       		.byte	0xf
 10397 39ec 00       		.byte	0
 10398 39ed 0A       		.uleb128 0xa
ARM GAS  C:\Users\PCHAUT~1\AppData\Local\Temp\cc7u0cQS.s 			page 184


 10399 39ee 67360000 		.4byte	0x3667
 10400 39f2 FD390000 		.4byte	0x39fd
 10401 39f6 0B       		.uleb128 0xb
 10402 39f7 37000000 		.4byte	0x37
 10403 39fb 0F       		.byte	0xf
 10404 39fc 00       		.byte	0
 10405 39fd 0A       		.uleb128 0xa
 10406 39fe 27090000 		.4byte	0x927
 10407 3a02 0D3A0000 		.4byte	0x3a0d
 10408 3a06 0B       		.uleb128 0xb
 10409 3a07 37000000 		.4byte	0x37
 10410 3a0b 7E       		.byte	0x7e
 10411 3a0c 00       		.byte	0
 10412 3a0d 1A       		.uleb128 0x1a
 10413 3a0e FD390000 		.4byte	0x39fd
 10414 3a12 0A       		.uleb128 0xa
 10415 3a13 27090000 		.4byte	0x927
 10416 3a17 293A0000 		.4byte	0x3a29
 10417 3a1b 0B       		.uleb128 0xb
 10418 3a1c 37000000 		.4byte	0x37
 10419 3a20 0F       		.byte	0xf
 10420 3a21 2E       		.uleb128 0x2e
 10421 3a22 37000000 		.4byte	0x37
 10422 3a26 FF03     		.2byte	0x3ff
 10423 3a28 00       		.byte	0
 10424 3a29 1A       		.uleb128 0x1a
 10425 3a2a 123A0000 		.4byte	0x3a12
 10426 3a2e 03       		.uleb128 0x3
 10427 3a2f B1220000 		.4byte	.LASF786
 10428 3a33 37       		.byte	0x37
 10429 3a34 B6       		.byte	0xb6
 10430 3a35 72360000 		.4byte	0x3672
 10431 3a39 0C       		.uleb128 0xc
 10432 3a3a 0C       		.byte	0xc
 10433 3a3b 36       		.byte	0x36
 10434 3a3c C6       		.byte	0xc6
 10435 3a3d 663A0000 		.4byte	0x3a66
 10436 3a41 0D       		.uleb128 0xd
 10437 3a42 AC090000 		.4byte	.LASF787
 10438 3a46 36       		.byte	0x36
 10439 3a47 C7       		.byte	0xc7
 10440 3a48 1C090000 		.4byte	0x91c
 10441 3a4c 00       		.byte	0
 10442 3a4d 0D       		.uleb128 0xd
 10443 3a4e 890B0000 		.4byte	.LASF788
 10444 3a52 36       		.byte	0x36
 10445 3a53 C8       		.byte	0xc8
 10446 3a54 1C090000 		.4byte	0x91c
 10447 3a58 04       		.byte	0x4
 10448 3a59 0D       		.uleb128 0xd
 10449 3a5a 500F0000 		.4byte	.LASF789
 10450 3a5e 36       		.byte	0x36
 10451 3a5f C9       		.byte	0xc9
 10452 3a60 1C090000 		.4byte	0x91c
 10453 3a64 08       		.byte	0x8
 10454 3a65 00       		.byte	0
 10455 3a66 03       		.uleb128 0x3
ARM GAS  C:\Users\PCHAUT~1\AppData\Local\Temp\cc7u0cQS.s 			page 185


 10456 3a67 A80B0000 		.4byte	.LASF790
 10457 3a6b 36       		.byte	0x36
 10458 3a6c CA       		.byte	0xca
 10459 3a6d 393A0000 		.4byte	0x3a39
 10460 3a71 0F       		.uleb128 0xf
 10461 3a72 663A0000 		.4byte	0x3a66
 10462 3a76 0C       		.uleb128 0xc
 10463 3a77 04       		.byte	0x4
 10464 3a78 36       		.byte	0x36
 10465 3a79 DD       		.byte	0xdd
 10466 3a7a 8B3A0000 		.4byte	0x3a8b
 10467 3a7e 0D       		.uleb128 0xd
 10468 3a7f F8200000 		.4byte	.LASF791
 10469 3a83 36       		.byte	0x36
 10470 3a84 E1       		.byte	0xe1
 10471 3a85 131B0000 		.4byte	0x1b13
 10472 3a89 00       		.byte	0
 10473 3a8a 00       		.byte	0
 10474 3a8b 0C       		.uleb128 0xc
 10475 3a8c 04       		.byte	0x4
 10476 3a8d 36       		.byte	0x36
 10477 3a8e E3       		.byte	0xe3
 10478 3a8f A03A0000 		.4byte	0x3aa0
 10479 3a93 0D       		.uleb128 0xd
 10480 3a94 2A0A0000 		.4byte	.LASF474
 10481 3a98 36       		.byte	0x36
 10482 3a99 E7       		.byte	0xe7
 10483 3a9a A03A0000 		.4byte	0x3aa0
 10484 3a9e 00       		.byte	0
 10485 3a9f 00       		.byte	0
 10486 3aa0 05       		.uleb128 0x5
 10487 3aa1 04       		.byte	0x4
 10488 3aa2 EF1A0000 		.4byte	0x1aef
 10489 3aa6 08       		.uleb128 0x8
 10490 3aa7 04       		.byte	0x4
 10491 3aa8 36       		.byte	0x36
 10492 3aa9 DC       		.byte	0xdc
 10493 3aaa C53A0000 		.4byte	0x3ac5
 10494 3aae 09       		.uleb128 0x9
 10495 3aaf A21D0000 		.4byte	.LASF792
 10496 3ab3 36       		.byte	0x36
 10497 3ab4 E2       		.byte	0xe2
 10498 3ab5 763A0000 		.4byte	0x3a76
 10499 3ab9 09       		.uleb128 0x9
 10500 3aba 8E1C0000 		.4byte	.LASF793
 10501 3abe 36       		.byte	0x36
 10502 3abf E8       		.byte	0xe8
 10503 3ac0 8B3A0000 		.4byte	0x3a8b
 10504 3ac4 00       		.byte	0
 10505 3ac5 0C       		.uleb128 0xc
 10506 3ac6 14       		.byte	0x14
 10507 3ac7 36       		.byte	0x36
 10508 3ac8 CF       		.byte	0xcf
 10509 3ac9 0A3B0000 		.4byte	0x3b0a
 10510 3acd 0D       		.uleb128 0xd
 10511 3ace 3D070000 		.4byte	.LASF794
 10512 3ad2 36       		.byte	0x36
ARM GAS  C:\Users\PCHAUT~1\AppData\Local\Temp\cc7u0cQS.s 			page 186


 10513 3ad3 D3       		.byte	0xd3
 10514 3ad4 FA1C0000 		.4byte	0x1cfa
 10515 3ad8 00       		.byte	0
 10516 3ad9 0D       		.uleb128 0xd
 10517 3ada 6D120000 		.4byte	.LASF795
 10518 3ade 36       		.byte	0x36
 10519 3adf D7       		.byte	0xd7
 10520 3ae0 2C000000 		.4byte	0x2c
 10521 3ae4 04       		.byte	0x4
 10522 3ae5 0D       		.uleb128 0xd
 10523 3ae6 500B0000 		.4byte	.LASF796
 10524 3aea 36       		.byte	0x36
 10525 3aeb DB       		.byte	0xdb
 10526 3aec 2C000000 		.4byte	0x2c
 10527 3af0 08       		.byte	0x8
 10528 3af1 0D       		.uleb128 0xd
 10529 3af2 04080000 		.4byte	.LASF520
 10530 3af6 36       		.byte	0x36
 10531 3af7 E9       		.byte	0xe9
 10532 3af8 A63A0000 		.4byte	0x3aa6
 10533 3afc 0C       		.byte	0xc
 10534 3afd 0D       		.uleb128 0xd
 10535 3afe 680F0000 		.4byte	.LASF797
 10536 3b02 36       		.byte	0x36
 10537 3b03 ED       		.byte	0xed
 10538 3b04 2C000000 		.4byte	0x2c
 10539 3b08 10       		.byte	0x10
 10540 3b09 00       		.byte	0
 10541 3b0a 03       		.uleb128 0x3
 10542 3b0b 61100000 		.4byte	.LASF798
 10543 3b0f 36       		.byte	0x36
 10544 3b10 EE       		.byte	0xee
 10545 3b11 C53A0000 		.4byte	0x3ac5
 10546 3b15 1C       		.uleb128 0x1c
 10547 3b16 04       		.byte	0x4
 10548 3b17 36       		.byte	0x36
 10549 3b18 0101     		.2byte	0x101
 10550 3b1a 2C3B0000 		.4byte	0x3b2c
 10551 3b1e 18       		.uleb128 0x18
 10552 3b1f CB0B0000 		.4byte	.LASF799
 10553 3b23 36       		.byte	0x36
 10554 3b24 0501     		.2byte	0x105
 10555 3b26 DE1A0000 		.4byte	0x1ade
 10556 3b2a 00       		.byte	0
 10557 3b2b 00       		.byte	0
 10558 3b2c 1C       		.uleb128 0x1c
 10559 3b2d 04       		.byte	0x4
 10560 3b2e 36       		.byte	0x36
 10561 3b2f 0701     		.2byte	0x107
 10562 3b31 433B0000 		.4byte	0x3b43
 10563 3b35 18       		.uleb128 0x18
 10564 3b36 5D1D0000 		.4byte	.LASF475
 10565 3b3a 36       		.byte	0x36
 10566 3b3b 0B01     		.2byte	0x10b
 10567 3b3d 433B0000 		.4byte	0x3b43
 10568 3b41 00       		.byte	0
 10569 3b42 00       		.byte	0
ARM GAS  C:\Users\PCHAUT~1\AppData\Local\Temp\cc7u0cQS.s 			page 187


 10570 3b43 05       		.uleb128 0x5
 10571 3b44 04       		.byte	0x4
 10572 3b45 E41A0000 		.4byte	0x1ae4
 10573 3b49 1D       		.uleb128 0x1d
 10574 3b4a 04       		.byte	0x4
 10575 3b4b 36       		.byte	0x36
 10576 3b4c 0001     		.2byte	0x100
 10577 3b4e 6B3B0000 		.4byte	0x3b6b
 10578 3b52 1E       		.uleb128 0x1e
 10579 3b53 A21D0000 		.4byte	.LASF792
 10580 3b57 36       		.byte	0x36
 10581 3b58 0601     		.2byte	0x106
 10582 3b5a 153B0000 		.4byte	0x3b15
 10583 3b5e 1E       		.uleb128 0x1e
 10584 3b5f 8E1C0000 		.4byte	.LASF793
 10585 3b63 36       		.byte	0x36
 10586 3b64 0C01     		.2byte	0x10c
 10587 3b66 2C3B0000 		.4byte	0x3b2c
 10588 3b6a 00       		.byte	0
 10589 3b6b 0C       		.uleb128 0xc
 10590 3b6c 14       		.byte	0x14
 10591 3b6d 36       		.byte	0x36
 10592 3b6e F3       		.byte	0xf3
 10593 3b6f B23B0000 		.4byte	0x3bb2
 10594 3b73 0D       		.uleb128 0xd
 10595 3b74 73050000 		.4byte	.LASF800
 10596 3b78 36       		.byte	0x36
 10597 3b79 F7       		.byte	0xf7
 10598 3b7a FA1C0000 		.4byte	0x1cfa
 10599 3b7e 00       		.byte	0
 10600 3b7f 0D       		.uleb128 0xd
 10601 3b80 38130000 		.4byte	.LASF801
 10602 3b84 36       		.byte	0x36
 10603 3b85 FB       		.byte	0xfb
 10604 3b86 2C000000 		.4byte	0x2c
 10605 3b8a 04       		.byte	0x4
 10606 3b8b 0D       		.uleb128 0xd
 10607 3b8c DF070000 		.4byte	.LASF802
 10608 3b90 36       		.byte	0x36
 10609 3b91 FF       		.byte	0xff
 10610 3b92 2C000000 		.4byte	0x2c
 10611 3b96 08       		.byte	0x8
 10612 3b97 18       		.uleb128 0x18
 10613 3b98 04080000 		.4byte	.LASF520
 10614 3b9c 36       		.byte	0x36
 10615 3b9d 0D01     		.2byte	0x10d
 10616 3b9f 493B0000 		.4byte	0x3b49
 10617 3ba3 0C       		.byte	0xc
 10618 3ba4 18       		.uleb128 0x18
 10619 3ba5 680F0000 		.4byte	.LASF797
 10620 3ba9 36       		.byte	0x36
 10621 3baa 1101     		.2byte	0x111
 10622 3bac 2C000000 		.4byte	0x2c
 10623 3bb0 10       		.byte	0x10
 10624 3bb1 00       		.byte	0
 10625 3bb2 07       		.uleb128 0x7
 10626 3bb3 AC1B0000 		.4byte	.LASF803
ARM GAS  C:\Users\PCHAUT~1\AppData\Local\Temp\cc7u0cQS.s 			page 188


 10627 3bb7 36       		.byte	0x36
 10628 3bb8 1201     		.2byte	0x112
 10629 3bba 6B3B0000 		.4byte	0x3b6b
 10630 3bbe 1C       		.uleb128 0x1c
 10631 3bbf 24       		.byte	0x24
 10632 3bc0 36       		.byte	0x36
 10633 3bc1 1801     		.2byte	0x118
 10634 3bc3 4A3C0000 		.4byte	0x3c4a
 10635 3bc7 18       		.uleb128 0x18
 10636 3bc8 69160000 		.4byte	.LASF804
 10637 3bcc 36       		.byte	0x36
 10638 3bcd 1C01     		.2byte	0x11c
 10639 3bcf 1C090000 		.4byte	0x91c
 10640 3bd3 00       		.byte	0
 10641 3bd4 18       		.uleb128 0x18
 10642 3bd5 FC090000 		.4byte	.LASF805
 10643 3bd9 36       		.byte	0x36
 10644 3bda 2701     		.2byte	0x127
 10645 3bdc 7B340000 		.4byte	0x347b
 10646 3be0 04       		.byte	0x4
 10647 3be1 18       		.uleb128 0x18
 10648 3be2 5B170000 		.4byte	.LASF806
 10649 3be6 36       		.byte	0x36
 10650 3be7 2D01     		.2byte	0x12d
 10651 3be9 7B340000 		.4byte	0x347b
 10652 3bed 08       		.byte	0x8
 10653 3bee 18       		.uleb128 0x18
 10654 3bef 460C0000 		.4byte	.LASF807
 10655 3bf3 36       		.byte	0x36
 10656 3bf4 3301     		.2byte	0x133
 10657 3bf6 7B340000 		.4byte	0x347b
 10658 3bfa 0C       		.byte	0xc
 10659 3bfb 18       		.uleb128 0x18
 10660 3bfc E4220000 		.4byte	.LASF808
 10661 3c00 36       		.byte	0x36
 10662 3c01 3901     		.2byte	0x139
 10663 3c03 01090000 		.4byte	0x901
 10664 3c07 10       		.byte	0x10
 10665 3c08 18       		.uleb128 0x18
 10666 3c09 BA0C0000 		.4byte	.LASF809
 10667 3c0d 36       		.byte	0x36
 10668 3c0e 3F01     		.2byte	0x13f
 10669 3c10 01090000 		.4byte	0x901
 10670 3c14 12       		.byte	0x12
 10671 3c15 18       		.uleb128 0x18
 10672 3c16 BB210000 		.4byte	.LASF810
 10673 3c1a 36       		.byte	0x36
 10674 3c1b 4401     		.2byte	0x144
 10675 3c1d 4A3C0000 		.4byte	0x3c4a
 10676 3c21 14       		.byte	0x14
 10677 3c22 18       		.uleb128 0x18
 10678 3c23 5F0E0000 		.4byte	.LASF811
 10679 3c27 36       		.byte	0x36
 10680 3c28 4901     		.2byte	0x149
 10681 3c2a 503C0000 		.4byte	0x3c50
 10682 3c2e 18       		.byte	0x18
 10683 3c2f 18       		.uleb128 0x18
ARM GAS  C:\Users\PCHAUT~1\AppData\Local\Temp\cc7u0cQS.s 			page 189


 10684 3c30 D7110000 		.4byte	.LASF812
 10685 3c34 36       		.byte	0x36
 10686 3c35 5001     		.2byte	0x150
 10687 3c37 01090000 		.4byte	0x901
 10688 3c3b 1C       		.byte	0x1c
 10689 3c3c 18       		.uleb128 0x18
 10690 3c3d 40210000 		.4byte	.LASF813
 10691 3c41 36       		.byte	0x36
 10692 3c42 5601     		.2byte	0x156
 10693 3c44 DE1A0000 		.4byte	0x1ade
 10694 3c48 20       		.byte	0x20
 10695 3c49 00       		.byte	0
 10696 3c4a 05       		.uleb128 0x5
 10697 3c4b 04       		.byte	0x4
 10698 3c4c 0A3B0000 		.4byte	0x3b0a
 10699 3c50 05       		.uleb128 0x5
 10700 3c51 04       		.byte	0x4
 10701 3c52 B23B0000 		.4byte	0x3bb2
 10702 3c56 07       		.uleb128 0x7
 10703 3c57 2D1D0000 		.4byte	.LASF814
 10704 3c5b 36       		.byte	0x36
 10705 3c5c 5701     		.2byte	0x157
 10706 3c5e BE3B0000 		.4byte	0x3bbe
 10707 3c62 0F       		.uleb128 0xf
 10708 3c63 563C0000 		.4byte	0x3c56
 10709 3c67 1C       		.uleb128 0x1c
 10710 3c68 10       		.byte	0x10
 10711 3c69 36       		.byte	0x36
 10712 3c6a 5C01     		.2byte	0x15c
 10713 3c6c A53C0000 		.4byte	0x3ca5
 10714 3c70 18       		.uleb128 0x18
 10715 3c71 78040000 		.4byte	.LASF815
 10716 3c75 36       		.byte	0x36
 10717 3c76 6101     		.2byte	0x161
 10718 3c78 9D340000 		.4byte	0x349d
 10719 3c7c 00       		.byte	0
 10720 3c7d 18       		.uleb128 0x18
 10721 3c7e 97200000 		.4byte	.LASF816
 10722 3c82 36       		.byte	0x36
 10723 3c83 6601     		.2byte	0x166
 10724 3c85 E0340000 		.4byte	0x34e0
 10725 3c89 04       		.byte	0x4
 10726 3c8a 18       		.uleb128 0x18
 10727 3c8b 3F120000 		.4byte	.LASF817
 10728 3c8f 36       		.byte	0x36
 10729 3c90 6C01     		.2byte	0x16c
 10730 3c92 BF340000 		.4byte	0x34bf
 10731 3c96 08       		.byte	0x8
 10732 3c97 18       		.uleb128 0x18
 10733 3c98 0D020000 		.4byte	.LASF818
 10734 3c9c 36       		.byte	0x36
 10735 3c9d 7001     		.2byte	0x170
 10736 3c9f 58340000 		.4byte	0x3458
 10737 3ca3 0C       		.byte	0xc
 10738 3ca4 00       		.byte	0
 10739 3ca5 07       		.uleb128 0x7
 10740 3ca6 61110000 		.4byte	.LASF819
ARM GAS  C:\Users\PCHAUT~1\AppData\Local\Temp\cc7u0cQS.s 			page 190


 10741 3caa 36       		.byte	0x36
 10742 3cab 7201     		.2byte	0x172
 10743 3cad 673C0000 		.4byte	0x3c67
 10744 3cb1 0F       		.uleb128 0xf
 10745 3cb2 A53C0000 		.4byte	0x3ca5
 10746 3cb6 05       		.uleb128 0x5
 10747 3cb7 04       		.byte	0x4
 10748 3cb8 B13C0000 		.4byte	0x3cb1
 10749 3cbc 0A       		.uleb128 0xa
 10750 3cbd CC3C0000 		.4byte	0x3ccc
 10751 3cc1 CC3C0000 		.4byte	0x3ccc
 10752 3cc5 0B       		.uleb128 0xb
 10753 3cc6 37000000 		.4byte	0x37
 10754 3cca 03       		.byte	0x3
 10755 3ccb 00       		.byte	0
 10756 3ccc 05       		.uleb128 0x5
 10757 3ccd 04       		.byte	0x4
 10758 3cce 623C0000 		.4byte	0x3c62
 10759 3cd2 0A       		.uleb128 0xa
 10760 3cd3 5D010000 		.4byte	0x15d
 10761 3cd7 E23C0000 		.4byte	0x3ce2
 10762 3cdb 0B       		.uleb128 0xb
 10763 3cdc 37000000 		.4byte	0x37
 10764 3ce0 02       		.byte	0x2
 10765 3ce1 00       		.byte	0
 10766 3ce2 05       		.uleb128 0x5
 10767 3ce3 04       		.byte	0x4
 10768 3ce4 2E3A0000 		.4byte	0x3a2e
 10769 3ce8 05       		.uleb128 0x5
 10770 3ce9 04       		.byte	0x4
 10771 3cea 713A0000 		.4byte	0x3a71
 10772 3cee 0A       		.uleb128 0xa
 10773 3cef 01150000 		.4byte	0x1501
 10774 3cf3 FE3C0000 		.4byte	0x3cfe
 10775 3cf7 0B       		.uleb128 0xb
 10776 3cf8 37000000 		.4byte	0x37
 10777 3cfc 3E       		.byte	0x3e
 10778 3cfd 00       		.byte	0
 10779 3cfe 20       		.uleb128 0x20
 10780 3cff ED000000 		.4byte	.LASF820
 10781 3d03 36       		.byte	0x36
 10782 3d04 0602     		.2byte	0x206
 10783 3d06 03320000 		.4byte	0x3203
 10784 3d0a 0A       		.uleb128 0xa
 10785 3d0b F1080000 		.4byte	0x8f1
 10786 3d0f 1A3D0000 		.4byte	0x3d1a
 10787 3d13 0B       		.uleb128 0xb
 10788 3d14 37000000 		.4byte	0x37
 10789 3d18 01       		.byte	0x1
 10790 3d19 00       		.byte	0
 10791 3d1a 0F       		.uleb128 0xf
 10792 3d1b 0A3D0000 		.4byte	0x3d0a
 10793 3d1f 2F       		.uleb128 0x2f
 10794 3d20 941C0000 		.4byte	.LASF821
 10795 3d24 05       		.byte	0x5
 10796 3d25 2B       		.byte	0x2b
 10797 3d26 1A3D0000 		.4byte	0x3d1a
ARM GAS  C:\Users\PCHAUT~1\AppData\Local\Temp\cc7u0cQS.s 			page 191


 10798 3d2a 05       		.uleb128 0x5
 10799 3d2b 03       		.byte	0x3
 10800 3d2c 00000000 		.4byte	zero_status
 10801 3d30 2F       		.uleb128 0x2f
 10802 3d31 14040000 		.4byte	.LASF822
 10803 3d35 05       		.byte	0x5
 10804 3d36 2C       		.byte	0x2c
 10805 3d37 1A3D0000 		.4byte	0x3d1a
 10806 3d3b 05       		.uleb128 0x5
 10807 3d3c 03       		.byte	0x3
 10808 3d3d 00000000 		.4byte	active_status
 10809 3d41 2F       		.uleb128 0x2f
 10810 3d42 74120000 		.4byte	.LASF823
 10811 3d46 05       		.byte	0x5
 10812 3d47 2D       		.byte	0x2d
 10813 3d48 1A3D0000 		.4byte	0x3d1a
 10814 3d4c 05       		.uleb128 0x5
 10815 3d4d 03       		.byte	0x3
 10816 3d4e 00000000 		.4byte	halted_status
 10817 3d52 30       		.uleb128 0x30
 10818 3d53 E00B0000 		.4byte	.LASF825
 10819 3d57 05       		.byte	0x5
 10820 3d58 2A03     		.2byte	0x32a
 10821 3d5a 00000000 		.4byte	.LFB276
 10822 3d5e E8000000 		.4byte	.LFE276-.LFB276
 10823 3d62 01       		.uleb128 0x1
 10824 3d63 9C       		.byte	0x9c
 10825 3d64 953D0000 		.4byte	0x3d95
 10826 3d68 31       		.uleb128 0x31
 10827 3d69 12200000 		.4byte	.LASF824
 10828 3d6d 05       		.byte	0x5
 10829 3d6e 2A03     		.2byte	0x32a
 10830 3d70 75340000 		.4byte	0x3475
 10831 3d74 02       		.uleb128 0x2
 10832 3d75 91       		.byte	0x91
 10833 3d76 6C       		.sleb128 -20
 10834 3d77 32       		.uleb128 0x32
 10835 3d78 657000   		.ascii	"ep\000"
 10836 3d7b 05       		.byte	0x5
 10837 3d7c 2A03     		.2byte	0x32a
 10838 3d7e 3A330000 		.4byte	0x333a
 10839 3d82 02       		.uleb128 0x2
 10840 3d83 91       		.byte	0x91
 10841 3d84 6B       		.sleb128 -21
 10842 3d85 33       		.uleb128 0x33
 10843 3d86 56000000 		.4byte	.LASF827
 10844 3d8a A53D0000 		.4byte	0x3da5
 10845 3d8e 05       		.uleb128 0x5
 10846 3d8f 03       		.byte	0x3
 10847 3d90 00000000 		.4byte	__func__.10401
 10848 3d94 00       		.byte	0
 10849 3d95 0A       		.uleb128 0xa
 10850 3d96 6C010000 		.4byte	0x16c
 10851 3d9a A53D0000 		.4byte	0x3da5
 10852 3d9e 0B       		.uleb128 0xb
 10853 3d9f 37000000 		.4byte	0x37
 10854 3da3 0B       		.byte	0xb
ARM GAS  C:\Users\PCHAUT~1\AppData\Local\Temp\cc7u0cQS.s 			page 192


 10855 3da4 00       		.byte	0
 10856 3da5 0F       		.uleb128 0xf
 10857 3da6 953D0000 		.4byte	0x3d95
 10858 3daa 30       		.uleb128 0x30
 10859 3dab 2B010000 		.4byte	.LASF826
 10860 3daf 05       		.byte	0x5
 10861 3db0 E502     		.2byte	0x2e5
 10862 3db2 00000000 		.4byte	.LFB275
 10863 3db6 30010000 		.4byte	.LFE275-.LFB275
 10864 3dba 01       		.uleb128 0x1
 10865 3dbb 9C       		.byte	0x9c
 10866 3dbc FC3D0000 		.4byte	0x3dfc
 10867 3dc0 31       		.uleb128 0x31
 10868 3dc1 12200000 		.4byte	.LASF824
 10869 3dc5 05       		.byte	0x5
 10870 3dc6 E502     		.2byte	0x2e5
 10871 3dc8 75340000 		.4byte	0x3475
 10872 3dcc 02       		.uleb128 0x2
 10873 3dcd 91       		.byte	0x91
 10874 3dce 6C       		.sleb128 -20
 10875 3dcf 32       		.uleb128 0x32
 10876 3dd0 657000   		.ascii	"ep\000"
 10877 3dd3 05       		.byte	0x5
 10878 3dd4 E502     		.2byte	0x2e5
 10879 3dd6 3A330000 		.4byte	0x333a
 10880 3dda 02       		.uleb128 0x2
 10881 3ddb 91       		.byte	0x91
 10882 3ddc 6B       		.sleb128 -21
 10883 3ddd 34       		.uleb128 0x34
 10884 3dde 6D617800 		.ascii	"max\000"
 10885 3de2 05       		.byte	0x5
 10886 3de3 E602     		.2byte	0x2e6
 10887 3de5 2C000000 		.4byte	0x2c
 10888 3de9 02       		.uleb128 0x2
 10889 3dea 91       		.byte	0x91
 10890 3deb 70       		.sleb128 -16
 10891 3dec 33       		.uleb128 0x33
 10892 3ded 56000000 		.4byte	.LASF827
 10893 3df1 0C3E0000 		.4byte	0x3e0c
 10894 3df5 05       		.uleb128 0x5
 10895 3df6 03       		.byte	0x3
 10896 3df7 00000000 		.4byte	__func__.10387
 10897 3dfb 00       		.byte	0
 10898 3dfc 0A       		.uleb128 0xa
 10899 3dfd 6C010000 		.4byte	0x16c
 10900 3e01 0C3E0000 		.4byte	0x3e0c
 10901 3e05 0B       		.uleb128 0xb
 10902 3e06 37000000 		.4byte	0x37
 10903 3e0a 0A       		.byte	0xa
 10904 3e0b 00       		.byte	0
 10905 3e0c 0F       		.uleb128 0xf
 10906 3e0d FC3D0000 		.4byte	0x3dfc
 10907 3e11 30       		.uleb128 0x30
 10908 3e12 8A110000 		.4byte	.LASF828
 10909 3e16 05       		.byte	0x5
 10910 3e17 7F02     		.2byte	0x27f
 10911 3e19 00000000 		.4byte	.LFB274
ARM GAS  C:\Users\PCHAUT~1\AppData\Local\Temp\cc7u0cQS.s 			page 193


 10912 3e1d 8C010000 		.4byte	.LFE274-.LFB274
 10913 3e21 01       		.uleb128 0x1
 10914 3e22 9C       		.byte	0x9c
 10915 3e23 543E0000 		.4byte	0x3e54
 10916 3e27 31       		.uleb128 0x31
 10917 3e28 12200000 		.4byte	.LASF824
 10918 3e2c 05       		.byte	0x5
 10919 3e2d 7F02     		.2byte	0x27f
 10920 3e2f 75340000 		.4byte	0x3475
 10921 3e33 02       		.uleb128 0x2
 10922 3e34 91       		.byte	0x91
 10923 3e35 6C       		.sleb128 -20
 10924 3e36 32       		.uleb128 0x32
 10925 3e37 657000   		.ascii	"ep\000"
 10926 3e3a 05       		.byte	0x5
 10927 3e3b 7F02     		.2byte	0x27f
 10928 3e3d 3A330000 		.4byte	0x333a
 10929 3e41 02       		.uleb128 0x2
 10930 3e42 91       		.byte	0x91
 10931 3e43 6B       		.sleb128 -21
 10932 3e44 34       		.uleb128 0x34
 10933 3e45 6D617800 		.ascii	"max\000"
 10934 3e49 05       		.byte	0x5
 10935 3e4a 8002     		.2byte	0x280
 10936 3e4c 2C000000 		.4byte	0x2c
 10937 3e50 02       		.uleb128 0x2
 10938 3e51 91       		.byte	0x91
 10939 3e52 70       		.sleb128 -16
 10940 3e53 00       		.byte	0
 10941 3e54 30       		.uleb128 0x30
 10942 3e55 B7070000 		.4byte	.LASF829
 10943 3e59 05       		.byte	0x5
 10944 3e5a 5F02     		.2byte	0x25f
 10945 3e5c 00000000 		.4byte	.LFB273
 10946 3e60 80000000 		.4byte	.LFE273-.LFB273
 10947 3e64 01       		.uleb128 0x1
 10948 3e65 9C       		.byte	0x9c
 10949 3e66 873E0000 		.4byte	0x3e87
 10950 3e6a 31       		.uleb128 0x31
 10951 3e6b 12200000 		.4byte	.LASF824
 10952 3e6f 05       		.byte	0x5
 10953 3e70 5F02     		.2byte	0x25f
 10954 3e72 75340000 		.4byte	0x3475
 10955 3e76 02       		.uleb128 0x2
 10956 3e77 91       		.byte	0x91
 10957 3e78 6C       		.sleb128 -20
 10958 3e79 34       		.uleb128 0x34
 10959 3e7a 6900     		.ascii	"i\000"
 10960 3e7c 05       		.byte	0x5
 10961 3e7d 6002     		.2byte	0x260
 10962 3e7f 37000000 		.4byte	0x37
 10963 3e83 02       		.uleb128 0x2
 10964 3e84 91       		.byte	0x91
 10965 3e85 70       		.sleb128 -16
 10966 3e86 00       		.byte	0
 10967 3e87 35       		.uleb128 0x35
 10968 3e88 22060000 		.4byte	.LASF830
ARM GAS  C:\Users\PCHAUT~1\AppData\Local\Temp\cc7u0cQS.s 			page 194


 10969 3e8c 05       		.byte	0x5
 10970 3e8d 4902     		.2byte	0x249
 10971 3e8f FA1C0000 		.4byte	0x1cfa
 10972 3e93 00000000 		.4byte	.LFB272
 10973 3e97 6C000000 		.4byte	.LFE272-.LFB272
 10974 3e9b 01       		.uleb128 0x1
 10975 3e9c 9C       		.byte	0x9c
 10976 3e9d CE3E0000 		.4byte	0x3ece
 10977 3ea1 31       		.uleb128 0x31
 10978 3ea2 12200000 		.4byte	.LASF824
 10979 3ea6 05       		.byte	0x5
 10980 3ea7 4902     		.2byte	0x249
 10981 3ea9 75340000 		.4byte	0x3475
 10982 3ead 02       		.uleb128 0x2
 10983 3eae 91       		.byte	0x91
 10984 3eaf 6C       		.sleb128 -20
 10985 3eb0 32       		.uleb128 0x32
 10986 3eb1 657000   		.ascii	"ep\000"
 10987 3eb4 05       		.byte	0x5
 10988 3eb5 4902     		.2byte	0x249
 10989 3eb7 3A330000 		.4byte	0x333a
 10990 3ebb 02       		.uleb128 0x2
 10991 3ebc 91       		.byte	0x91
 10992 3ebd 6B       		.sleb128 -21
 10993 3ebe 33       		.uleb128 0x33
 10994 3ebf 56000000 		.4byte	.LASF827
 10995 3ec3 DE3E0000 		.4byte	0x3ede
 10996 3ec7 05       		.uleb128 0x5
 10997 3ec8 03       		.byte	0x3
 10998 3ec9 00000000 		.4byte	__func__.10363
 10999 3ecd 00       		.byte	0
 11000 3ece 0A       		.uleb128 0xa
 11001 3ecf 6C010000 		.4byte	0x16c
 11002 3ed3 DE3E0000 		.4byte	0x3ede
 11003 3ed7 0B       		.uleb128 0xb
 11004 3ed8 37000000 		.4byte	0x37
 11005 3edc 11       		.byte	0x11
 11006 3edd 00       		.byte	0
 11007 3ede 0F       		.uleb128 0xf
 11008 3edf CE3E0000 		.4byte	0x3ece
 11009 3ee3 35       		.uleb128 0x35
 11010 3ee4 DD1B0000 		.4byte	.LASF831
 11011 3ee8 05       		.byte	0x5
 11012 3ee9 3002     		.2byte	0x230
 11013 3eeb FA1C0000 		.4byte	0x1cfa
 11014 3eef 00000000 		.4byte	.LFB271
 11015 3ef3 6C000000 		.4byte	.LFE271-.LFB271
 11016 3ef7 01       		.uleb128 0x1
 11017 3ef8 9C       		.byte	0x9c
 11018 3ef9 2A3F0000 		.4byte	0x3f2a
 11019 3efd 31       		.uleb128 0x31
 11020 3efe 12200000 		.4byte	.LASF824
 11021 3f02 05       		.byte	0x5
 11022 3f03 3002     		.2byte	0x230
 11023 3f05 75340000 		.4byte	0x3475
 11024 3f09 02       		.uleb128 0x2
 11025 3f0a 91       		.byte	0x91
ARM GAS  C:\Users\PCHAUT~1\AppData\Local\Temp\cc7u0cQS.s 			page 195


 11026 3f0b 6C       		.sleb128 -20
 11027 3f0c 32       		.uleb128 0x32
 11028 3f0d 657000   		.ascii	"ep\000"
 11029 3f10 05       		.byte	0x5
 11030 3f11 3002     		.2byte	0x230
 11031 3f13 3A330000 		.4byte	0x333a
 11032 3f17 02       		.uleb128 0x2
 11033 3f18 91       		.byte	0x91
 11034 3f19 6B       		.sleb128 -21
 11035 3f1a 33       		.uleb128 0x33
 11036 3f1b 56000000 		.4byte	.LASF827
 11037 3f1f 3A3F0000 		.4byte	0x3f3a
 11038 3f23 05       		.uleb128 0x5
 11039 3f24 03       		.byte	0x3
 11040 3f25 00000000 		.4byte	__func__.10358
 11041 3f29 00       		.byte	0
 11042 3f2a 0A       		.uleb128 0xa
 11043 3f2b 6C010000 		.4byte	0x16c
 11044 3f2f 3A3F0000 		.4byte	0x3f3a
 11045 3f33 0B       		.uleb128 0xb
 11046 3f34 37000000 		.4byte	0x37
 11047 3f38 10       		.byte	0x10
 11048 3f39 00       		.byte	0
 11049 3f3a 0F       		.uleb128 0xf
 11050 3f3b 2A3F0000 		.4byte	0x3f2a
 11051 3f3f 35       		.uleb128 0x35
 11052 3f40 960B0000 		.4byte	.LASF832
 11053 3f44 05       		.byte	0x5
 11054 3f45 1602     		.2byte	0x216
 11055 3f47 FA1C0000 		.4byte	0x1cfa
 11056 3f4b 00000000 		.4byte	.LFB270
 11057 3f4f 84000000 		.4byte	.LFE270-.LFB270
 11058 3f53 01       		.uleb128 0x1
 11059 3f54 9C       		.byte	0x9c
 11060 3f55 863F0000 		.4byte	0x3f86
 11061 3f59 31       		.uleb128 0x31
 11062 3f5a 12200000 		.4byte	.LASF824
 11063 3f5e 05       		.byte	0x5
 11064 3f5f 1602     		.2byte	0x216
 11065 3f61 75340000 		.4byte	0x3475
 11066 3f65 02       		.uleb128 0x2
 11067 3f66 91       		.byte	0x91
 11068 3f67 6C       		.sleb128 -20
 11069 3f68 32       		.uleb128 0x32
 11070 3f69 657000   		.ascii	"ep\000"
 11071 3f6c 05       		.byte	0x5
 11072 3f6d 1602     		.2byte	0x216
 11073 3f6f 3A330000 		.4byte	0x333a
 11074 3f73 02       		.uleb128 0x2
 11075 3f74 91       		.byte	0x91
 11076 3f75 6B       		.sleb128 -21
 11077 3f76 33       		.uleb128 0x33
 11078 3f77 56000000 		.4byte	.LASF827
 11079 3f7b DE3E0000 		.4byte	0x3ede
 11080 3f7f 05       		.uleb128 0x5
 11081 3f80 03       		.byte	0x3
 11082 3f81 00000000 		.4byte	__func__.10353
ARM GAS  C:\Users\PCHAUT~1\AppData\Local\Temp\cc7u0cQS.s 			page 196


 11083 3f85 00       		.byte	0
 11084 3f86 35       		.uleb128 0x35
 11085 3f87 2F020000 		.4byte	.LASF833
 11086 3f8b 05       		.byte	0x5
 11087 3f8c FA01     		.2byte	0x1fa
 11088 3f8e FA1C0000 		.4byte	0x1cfa
 11089 3f92 00000000 		.4byte	.LFB269
 11090 3f96 84000000 		.4byte	.LFE269-.LFB269
 11091 3f9a 01       		.uleb128 0x1
 11092 3f9b 9C       		.byte	0x9c
 11093 3f9c CD3F0000 		.4byte	0x3fcd
 11094 3fa0 31       		.uleb128 0x31
 11095 3fa1 12200000 		.4byte	.LASF824
 11096 3fa5 05       		.byte	0x5
 11097 3fa6 FA01     		.2byte	0x1fa
 11098 3fa8 75340000 		.4byte	0x3475
 11099 3fac 02       		.uleb128 0x2
 11100 3fad 91       		.byte	0x91
 11101 3fae 6C       		.sleb128 -20
 11102 3faf 32       		.uleb128 0x32
 11103 3fb0 657000   		.ascii	"ep\000"
 11104 3fb3 05       		.byte	0x5
 11105 3fb4 FA01     		.2byte	0x1fa
 11106 3fb6 3A330000 		.4byte	0x333a
 11107 3fba 02       		.uleb128 0x2
 11108 3fbb 91       		.byte	0x91
 11109 3fbc 6B       		.sleb128 -21
 11110 3fbd 33       		.uleb128 0x33
 11111 3fbe 56000000 		.4byte	.LASF827
 11112 3fc2 3A3F0000 		.4byte	0x3f3a
 11113 3fc6 05       		.uleb128 0x5
 11114 3fc7 03       		.byte	0x3
 11115 3fc8 00000000 		.4byte	__func__.10348
 11116 3fcc 00       		.byte	0
 11117 3fcd 30       		.uleb128 0x30
 11118 3fce 3B0D0000 		.4byte	.LASF834
 11119 3fd2 05       		.byte	0x5
 11120 3fd3 E001     		.2byte	0x1e0
 11121 3fd5 00000000 		.4byte	.LFB268
 11122 3fd9 68000000 		.4byte	.LFE268-.LFB268
 11123 3fdd 01       		.uleb128 0x1
 11124 3fde 9C       		.byte	0x9c
 11125 3fdf 2C400000 		.4byte	0x402c
 11126 3fe3 31       		.uleb128 0x31
 11127 3fe4 12200000 		.4byte	.LASF824
 11128 3fe8 05       		.byte	0x5
 11129 3fe9 E001     		.2byte	0x1e0
 11130 3feb 75340000 		.4byte	0x3475
 11131 3fef 02       		.uleb128 0x2
 11132 3ff0 91       		.byte	0x91
 11133 3ff1 6C       		.sleb128 -20
 11134 3ff2 32       		.uleb128 0x32
 11135 3ff3 657000   		.ascii	"ep\000"
 11136 3ff6 05       		.byte	0x5
 11137 3ff7 E001     		.2byte	0x1e0
 11138 3ff9 3A330000 		.4byte	0x333a
 11139 3ffd 02       		.uleb128 0x2
ARM GAS  C:\Users\PCHAUT~1\AppData\Local\Temp\cc7u0cQS.s 			page 197


 11140 3ffe 91       		.byte	0x91
 11141 3fff 6B       		.sleb128 -21
 11142 4000 32       		.uleb128 0x32
 11143 4001 6F717000 		.ascii	"oqp\000"
 11144 4005 05       		.byte	0x5
 11145 4006 E101     		.2byte	0x1e1
 11146 4008 A03A0000 		.4byte	0x3aa0
 11147 400c 02       		.uleb128 0x2
 11148 400d 91       		.byte	0x91
 11149 400e 64       		.sleb128 -28
 11150 400f 32       		.uleb128 0x32
 11151 4010 6E00     		.ascii	"n\000"
 11152 4012 05       		.byte	0x5
 11153 4013 E101     		.2byte	0x1e1
 11154 4015 2C000000 		.4byte	0x2c
 11155 4019 02       		.uleb128 0x2
 11156 401a 91       		.byte	0x91
 11157 401b 60       		.sleb128 -32
 11158 401c 34       		.uleb128 0x34
 11159 401d 69737000 		.ascii	"isp\000"
 11160 4021 05       		.byte	0x5
 11161 4022 E201     		.2byte	0x1e2
 11162 4024 4A3C0000 		.4byte	0x3c4a
 11163 4028 02       		.uleb128 0x2
 11164 4029 91       		.byte	0x91
 11165 402a 70       		.sleb128 -16
 11166 402b 00       		.byte	0
 11167 402c 30       		.uleb128 0x30
 11168 402d 6B0C0000 		.4byte	.LASF835
 11169 4031 05       		.byte	0x5
 11170 4032 C601     		.2byte	0x1c6
 11171 4034 00000000 		.4byte	.LFB267
 11172 4038 68000000 		.4byte	.LFE267-.LFB267
 11173 403c 01       		.uleb128 0x1
 11174 403d 9C       		.byte	0x9c
 11175 403e 8B400000 		.4byte	0x408b
 11176 4042 31       		.uleb128 0x31
 11177 4043 12200000 		.4byte	.LASF824
 11178 4047 05       		.byte	0x5
 11179 4048 C601     		.2byte	0x1c6
 11180 404a 75340000 		.4byte	0x3475
 11181 404e 02       		.uleb128 0x2
 11182 404f 91       		.byte	0x91
 11183 4050 6C       		.sleb128 -20
 11184 4051 32       		.uleb128 0x32
 11185 4052 657000   		.ascii	"ep\000"
 11186 4055 05       		.byte	0x5
 11187 4056 C601     		.2byte	0x1c6
 11188 4058 3A330000 		.4byte	0x333a
 11189 405c 02       		.uleb128 0x2
 11190 405d 91       		.byte	0x91
 11191 405e 6B       		.sleb128 -21
 11192 405f 32       		.uleb128 0x32
 11193 4060 69717000 		.ascii	"iqp\000"
 11194 4064 05       		.byte	0x5
 11195 4065 C701     		.2byte	0x1c7
 11196 4067 433B0000 		.4byte	0x3b43
ARM GAS  C:\Users\PCHAUT~1\AppData\Local\Temp\cc7u0cQS.s 			page 198


 11197 406b 02       		.uleb128 0x2
 11198 406c 91       		.byte	0x91
 11199 406d 64       		.sleb128 -28
 11200 406e 32       		.uleb128 0x32
 11201 406f 6E00     		.ascii	"n\000"
 11202 4071 05       		.byte	0x5
 11203 4072 C701     		.2byte	0x1c7
 11204 4074 2C000000 		.4byte	0x2c
 11205 4078 02       		.uleb128 0x2
 11206 4079 91       		.byte	0x91
 11207 407a 60       		.sleb128 -32
 11208 407b 34       		.uleb128 0x34
 11209 407c 6F737000 		.ascii	"osp\000"
 11210 4080 05       		.byte	0x5
 11211 4081 C801     		.2byte	0x1c8
 11212 4083 503C0000 		.4byte	0x3c50
 11213 4087 02       		.uleb128 0x2
 11214 4088 91       		.byte	0x91
 11215 4089 70       		.sleb128 -16
 11216 408a 00       		.byte	0
 11217 408b 30       		.uleb128 0x30
 11218 408c 0E0E0000 		.4byte	.LASF836
 11219 4090 05       		.byte	0x5
 11220 4091 A901     		.2byte	0x1a9
 11221 4093 00000000 		.4byte	.LFB266
 11222 4097 68000000 		.4byte	.LFE266-.LFB266
 11223 409b 01       		.uleb128 0x1
 11224 409c 9C       		.byte	0x9c
 11225 409d EA400000 		.4byte	0x40ea
 11226 40a1 31       		.uleb128 0x31
 11227 40a2 12200000 		.4byte	.LASF824
 11228 40a6 05       		.byte	0x5
 11229 40a7 A901     		.2byte	0x1a9
 11230 40a9 75340000 		.4byte	0x3475
 11231 40ad 02       		.uleb128 0x2
 11232 40ae 91       		.byte	0x91
 11233 40af 6C       		.sleb128 -20
 11234 40b0 32       		.uleb128 0x32
 11235 40b1 657000   		.ascii	"ep\000"
 11236 40b4 05       		.byte	0x5
 11237 40b5 A901     		.2byte	0x1a9
 11238 40b7 3A330000 		.4byte	0x333a
 11239 40bb 02       		.uleb128 0x2
 11240 40bc 91       		.byte	0x91
 11241 40bd 6B       		.sleb128 -21
 11242 40be 32       		.uleb128 0x32
 11243 40bf 62756600 		.ascii	"buf\000"
 11244 40c3 05       		.byte	0x5
 11245 40c4 AA01     		.2byte	0x1aa
 11246 40c6 131B0000 		.4byte	0x1b13
 11247 40ca 02       		.uleb128 0x2
 11248 40cb 91       		.byte	0x91
 11249 40cc 64       		.sleb128 -28
 11250 40cd 32       		.uleb128 0x32
 11251 40ce 6E00     		.ascii	"n\000"
 11252 40d0 05       		.byte	0x5
 11253 40d1 AA01     		.2byte	0x1aa
ARM GAS  C:\Users\PCHAUT~1\AppData\Local\Temp\cc7u0cQS.s 			page 199


 11254 40d3 2C000000 		.4byte	0x2c
 11255 40d7 02       		.uleb128 0x2
 11256 40d8 91       		.byte	0x91
 11257 40d9 60       		.sleb128 -32
 11258 40da 34       		.uleb128 0x34
 11259 40db 69737000 		.ascii	"isp\000"
 11260 40df 05       		.byte	0x5
 11261 40e0 AB01     		.2byte	0x1ab
 11262 40e2 4A3C0000 		.4byte	0x3c4a
 11263 40e6 02       		.uleb128 0x2
 11264 40e7 91       		.byte	0x91
 11265 40e8 70       		.sleb128 -16
 11266 40e9 00       		.byte	0
 11267 40ea 30       		.uleb128 0x30
 11268 40eb 921A0000 		.4byte	.LASF837
 11269 40ef 05       		.byte	0x5
 11270 40f0 9001     		.2byte	0x190
 11271 40f2 00000000 		.4byte	.LFB265
 11272 40f6 68000000 		.4byte	.LFE265-.LFB265
 11273 40fa 01       		.uleb128 0x1
 11274 40fb 9C       		.byte	0x9c
 11275 40fc 49410000 		.4byte	0x4149
 11276 4100 31       		.uleb128 0x31
 11277 4101 12200000 		.4byte	.LASF824
 11278 4105 05       		.byte	0x5
 11279 4106 9001     		.2byte	0x190
 11280 4108 75340000 		.4byte	0x3475
 11281 410c 02       		.uleb128 0x2
 11282 410d 91       		.byte	0x91
 11283 410e 6C       		.sleb128 -20
 11284 410f 32       		.uleb128 0x32
 11285 4110 657000   		.ascii	"ep\000"
 11286 4113 05       		.byte	0x5
 11287 4114 9001     		.2byte	0x190
 11288 4116 3A330000 		.4byte	0x333a
 11289 411a 02       		.uleb128 0x2
 11290 411b 91       		.byte	0x91
 11291 411c 6B       		.sleb128 -21
 11292 411d 32       		.uleb128 0x32
 11293 411e 62756600 		.ascii	"buf\000"
 11294 4122 05       		.byte	0x5
 11295 4123 9001     		.2byte	0x190
 11296 4125 DE1A0000 		.4byte	0x1ade
 11297 4129 02       		.uleb128 0x2
 11298 412a 91       		.byte	0x91
 11299 412b 64       		.sleb128 -28
 11300 412c 32       		.uleb128 0x32
 11301 412d 6E00     		.ascii	"n\000"
 11302 412f 05       		.byte	0x5
 11303 4130 9001     		.2byte	0x190
 11304 4132 2C000000 		.4byte	0x2c
 11305 4136 02       		.uleb128 0x2
 11306 4137 91       		.byte	0x91
 11307 4138 60       		.sleb128 -32
 11308 4139 34       		.uleb128 0x34
 11309 413a 6F737000 		.ascii	"osp\000"
 11310 413e 05       		.byte	0x5
ARM GAS  C:\Users\PCHAUT~1\AppData\Local\Temp\cc7u0cQS.s 			page 200


 11311 413f 9101     		.2byte	0x191
 11312 4141 503C0000 		.4byte	0x3c50
 11313 4145 02       		.uleb128 0x2
 11314 4146 91       		.byte	0x91
 11315 4147 70       		.sleb128 -16
 11316 4148 00       		.byte	0
 11317 4149 30       		.uleb128 0x30
 11318 414a 7C070000 		.4byte	.LASF838
 11319 414e 05       		.byte	0x5
 11320 414f 7301     		.2byte	0x173
 11321 4151 00000000 		.4byte	.LFB264
 11322 4155 8C000000 		.4byte	.LFE264-.LFB264
 11323 4159 01       		.uleb128 0x1
 11324 415a 9C       		.byte	0x9c
 11325 415b 8B410000 		.4byte	0x418b
 11326 415f 31       		.uleb128 0x31
 11327 4160 12200000 		.4byte	.LASF824
 11328 4164 05       		.byte	0x5
 11329 4165 7301     		.2byte	0x173
 11330 4167 75340000 		.4byte	0x3475
 11331 416b 02       		.uleb128 0x2
 11332 416c 91       		.byte	0x91
 11333 416d 6C       		.sleb128 -20
 11334 416e 34       		.uleb128 0x34
 11335 416f 6900     		.ascii	"i\000"
 11336 4171 05       		.byte	0x5
 11337 4172 7401     		.2byte	0x174
 11338 4174 37000000 		.4byte	0x37
 11339 4178 02       		.uleb128 0x2
 11340 4179 91       		.byte	0x91
 11341 417a 70       		.sleb128 -16
 11342 417b 33       		.uleb128 0x33
 11343 417c 56000000 		.4byte	.LASF827
 11344 4180 9B410000 		.4byte	0x419b
 11345 4184 05       		.uleb128 0x5
 11346 4185 03       		.byte	0x3
 11347 4186 00000000 		.4byte	__func__.10312
 11348 418a 00       		.byte	0
 11349 418b 0A       		.uleb128 0xa
 11350 418c 6C010000 		.4byte	0x16c
 11351 4190 9B410000 		.4byte	0x419b
 11352 4194 0B       		.uleb128 0xb
 11353 4195 37000000 		.4byte	0x37
 11354 4199 14       		.byte	0x14
 11355 419a 00       		.byte	0
 11356 419b 0F       		.uleb128 0xf
 11357 419c 8B410000 		.4byte	0x418b
 11358 41a0 30       		.uleb128 0x30
 11359 41a1 38000000 		.4byte	.LASF839
 11360 41a5 05       		.byte	0x5
 11361 41a6 5101     		.2byte	0x151
 11362 41a8 00000000 		.4byte	.LFB263
 11363 41ac B8000000 		.4byte	.LFE263-.LFB263
 11364 41b0 01       		.uleb128 0x1
 11365 41b1 9C       		.byte	0x9c
 11366 41b2 F2410000 		.4byte	0x41f2
 11367 41b6 31       		.uleb128 0x31
ARM GAS  C:\Users\PCHAUT~1\AppData\Local\Temp\cc7u0cQS.s 			page 201


 11368 41b7 12200000 		.4byte	.LASF824
 11369 41bb 05       		.byte	0x5
 11370 41bc 5101     		.2byte	0x151
 11371 41be 75340000 		.4byte	0x3475
 11372 41c2 02       		.uleb128 0x2
 11373 41c3 91       		.byte	0x91
 11374 41c4 6C       		.sleb128 -20
 11375 41c5 32       		.uleb128 0x32
 11376 41c6 657000   		.ascii	"ep\000"
 11377 41c9 05       		.byte	0x5
 11378 41ca 5101     		.2byte	0x151
 11379 41cc 3A330000 		.4byte	0x333a
 11380 41d0 02       		.uleb128 0x2
 11381 41d1 91       		.byte	0x91
 11382 41d2 6B       		.sleb128 -21
 11383 41d3 31       		.uleb128 0x31
 11384 41d4 49110000 		.4byte	.LASF840
 11385 41d8 05       		.byte	0x5
 11386 41d9 5201     		.2byte	0x152
 11387 41db CC3C0000 		.4byte	0x3ccc
 11388 41df 02       		.uleb128 0x2
 11389 41e0 91       		.byte	0x91
 11390 41e1 64       		.sleb128 -28
 11391 41e2 33       		.uleb128 0x33
 11392 41e3 56000000 		.4byte	.LASF827
 11393 41e7 3A3F0000 		.4byte	0x3f3a
 11394 41eb 05       		.uleb128 0x5
 11395 41ec 03       		.byte	0x3
 11396 41ed 00000000 		.4byte	__func__.10307
 11397 41f1 00       		.byte	0
 11398 41f2 30       		.uleb128 0x30
 11399 41f3 8F200000 		.4byte	.LASF841
 11400 41f7 05       		.byte	0x5
 11401 41f8 3701     		.2byte	0x137
 11402 41fa 00000000 		.4byte	.LFB262
 11403 41fe 70000000 		.4byte	.LFE262-.LFB262
 11404 4202 01       		.uleb128 0x1
 11405 4203 9C       		.byte	0x9c
 11406 4204 27420000 		.4byte	0x4227
 11407 4208 31       		.uleb128 0x31
 11408 4209 12200000 		.4byte	.LASF824
 11409 420d 05       		.byte	0x5
 11410 420e 3701     		.2byte	0x137
 11411 4210 75340000 		.4byte	0x3475
 11412 4214 02       		.uleb128 0x2
 11413 4215 91       		.byte	0x91
 11414 4216 6C       		.sleb128 -20
 11415 4217 33       		.uleb128 0x33
 11416 4218 56000000 		.4byte	.LASF827
 11417 421c 37420000 		.4byte	0x4237
 11418 4220 05       		.uleb128 0x5
 11419 4221 03       		.byte	0x3
 11420 4222 00000000 		.4byte	__func__.10301
 11421 4226 00       		.byte	0
 11422 4227 0A       		.uleb128 0xa
 11423 4228 6C010000 		.4byte	0x16c
 11424 422c 37420000 		.4byte	0x4237
ARM GAS  C:\Users\PCHAUT~1\AppData\Local\Temp\cc7u0cQS.s 			page 202


 11425 4230 0B       		.uleb128 0xb
 11426 4231 37000000 		.4byte	0x37
 11427 4235 07       		.byte	0x7
 11428 4236 00       		.byte	0
 11429 4237 0F       		.uleb128 0xf
 11430 4238 27420000 		.4byte	0x4227
 11431 423c 30       		.uleb128 0x30
 11432 423d 14020000 		.4byte	.LASF842
 11433 4241 05       		.byte	0x5
 11434 4242 1F01     		.2byte	0x11f
 11435 4244 00000000 		.4byte	.LFB261
 11436 4248 90000000 		.4byte	.LFE261-.LFB261
 11437 424c 01       		.uleb128 0x1
 11438 424d 9C       		.byte	0x9c
 11439 424e 8D420000 		.4byte	0x428d
 11440 4252 31       		.uleb128 0x31
 11441 4253 12200000 		.4byte	.LASF824
 11442 4257 05       		.byte	0x5
 11443 4258 1F01     		.2byte	0x11f
 11444 425a 75340000 		.4byte	0x3475
 11445 425e 02       		.uleb128 0x2
 11446 425f 91       		.byte	0x91
 11447 4260 6C       		.sleb128 -20
 11448 4261 31       		.uleb128 0x31
 11449 4262 B31A0000 		.4byte	.LASF442
 11450 4266 05       		.byte	0x5
 11451 4267 1F01     		.2byte	0x11f
 11452 4269 B63C0000 		.4byte	0x3cb6
 11453 426d 02       		.uleb128 0x2
 11454 426e 91       		.byte	0x91
 11455 426f 68       		.sleb128 -24
 11456 4270 34       		.uleb128 0x34
 11457 4271 6900     		.ascii	"i\000"
 11458 4273 05       		.byte	0x5
 11459 4274 2001     		.2byte	0x120
 11460 4276 37000000 		.4byte	0x37
 11461 427a 02       		.uleb128 0x2
 11462 427b 91       		.byte	0x91
 11463 427c 70       		.sleb128 -16
 11464 427d 33       		.uleb128 0x33
 11465 427e 56000000 		.4byte	.LASF827
 11466 4282 9D420000 		.4byte	0x429d
 11467 4286 05       		.uleb128 0x5
 11468 4287 03       		.byte	0x3
 11469 4288 00000000 		.4byte	__func__.10294
 11470 428c 00       		.byte	0
 11471 428d 0A       		.uleb128 0xa
 11472 428e 6C010000 		.4byte	0x16c
 11473 4292 9D420000 		.4byte	0x429d
 11474 4296 0B       		.uleb128 0xb
 11475 4297 37000000 		.4byte	0x37
 11476 429b 08       		.byte	0x8
 11477 429c 00       		.byte	0
 11478 429d 0F       		.uleb128 0xf
 11479 429e 8D420000 		.4byte	0x428d
 11480 42a2 30       		.uleb128 0x30
 11481 42a3 3F150000 		.4byte	.LASF843
ARM GAS  C:\Users\PCHAUT~1\AppData\Local\Temp\cc7u0cQS.s 			page 203


 11482 42a7 05       		.byte	0x5
 11483 42a8 0A01     		.2byte	0x10a
 11484 42aa 00000000 		.4byte	.LFB260
 11485 42ae 6C000000 		.4byte	.LFE260-.LFB260
 11486 42b2 01       		.uleb128 0x1
 11487 42b3 9C       		.byte	0x9c
 11488 42b4 D5420000 		.4byte	0x42d5
 11489 42b8 31       		.uleb128 0x31
 11490 42b9 12200000 		.4byte	.LASF824
 11491 42bd 05       		.byte	0x5
 11492 42be 0A01     		.2byte	0x10a
 11493 42c0 75340000 		.4byte	0x3475
 11494 42c4 02       		.uleb128 0x2
 11495 42c5 91       		.byte	0x91
 11496 42c6 6C       		.sleb128 -20
 11497 42c7 34       		.uleb128 0x34
 11498 42c8 6900     		.ascii	"i\000"
 11499 42ca 05       		.byte	0x5
 11500 42cb 0B01     		.2byte	0x10b
 11501 42cd 37000000 		.4byte	0x37
 11502 42d1 02       		.uleb128 0x2
 11503 42d2 91       		.byte	0x91
 11504 42d3 70       		.sleb128 -16
 11505 42d4 00       		.byte	0
 11506 42d5 36       		.uleb128 0x36
 11507 42d6 EC0F0000 		.4byte	.LASF862
 11508 42da 05       		.byte	0x5
 11509 42db FE       		.byte	0xfe
 11510 42dc 00000000 		.4byte	.LFB259
 11511 42e0 28000000 		.4byte	.LFE259-.LFB259
 11512 42e4 01       		.uleb128 0x1
 11513 42e5 9C       		.byte	0x9c
 11514 42e6 37       		.uleb128 0x37
 11515 42e7 3D190000 		.4byte	.LASF844
 11516 42eb 05       		.byte	0x5
 11517 42ec 54       		.byte	0x54
 11518 42ed FA1C0000 		.4byte	0x1cfa
 11519 42f1 00000000 		.4byte	.LFB258
 11520 42f5 B8030000 		.4byte	.LFE258-.LFB258
 11521 42f9 01       		.uleb128 0x1
 11522 42fa 9C       		.byte	0x9c
 11523 42fb 1B430000 		.4byte	0x431b
 11524 42ff 38       		.uleb128 0x38
 11525 4300 12200000 		.4byte	.LASF824
 11526 4304 05       		.byte	0x5
 11527 4305 54       		.byte	0x54
 11528 4306 75340000 		.4byte	0x3475
 11529 430a 02       		.uleb128 0x2
 11530 430b 91       		.byte	0x91
 11531 430c 64       		.sleb128 -28
 11532 430d 39       		.uleb128 0x39
 11533 430e 647000   		.ascii	"dp\000"
 11534 4311 05       		.byte	0x5
 11535 4312 55       		.byte	0x55
 11536 4313 10350000 		.4byte	0x3510
 11537 4317 02       		.uleb128 0x2
 11538 4318 91       		.byte	0x91
ARM GAS  C:\Users\PCHAUT~1\AppData\Local\Temp\cc7u0cQS.s 			page 204


 11539 4319 68       		.sleb128 -24
 11540 431a 00       		.byte	0
 11541 431b 3A       		.uleb128 0x3a
 11542 431c 831B0000 		.4byte	.LASF852
 11543 4320 05       		.byte	0x5
 11544 4321 40       		.byte	0x40
 11545 4322 00000000 		.4byte	.LFB257
 11546 4326 54000000 		.4byte	.LFE257-.LFB257
 11547 432a 01       		.uleb128 0x1
 11548 432b 9C       		.byte	0x9c
 11549 432c 3F430000 		.4byte	0x433f
 11550 4330 38       		.uleb128 0x38
 11551 4331 12200000 		.4byte	.LASF824
 11552 4335 05       		.byte	0x5
 11553 4336 40       		.byte	0x40
 11554 4337 75340000 		.4byte	0x3475
 11555 433b 02       		.uleb128 0x2
 11556 433c 91       		.byte	0x91
 11557 433d 6C       		.sleb128 -20
 11558 433e 00       		.byte	0
 11559 433f 37       		.uleb128 0x37
 11560 4340 D1100000 		.4byte	.LASF845
 11561 4344 05       		.byte	0x5
 11562 4345 33       		.byte	0x33
 11563 4346 01090000 		.4byte	0x901
 11564 434a 00000000 		.4byte	.LFB256
 11565 434e 4C000000 		.4byte	.LFE256-.LFB256
 11566 4352 01       		.uleb128 0x1
 11567 4353 9C       		.byte	0x9c
 11568 4354 72430000 		.4byte	0x4372
 11569 4358 3B       		.uleb128 0x3b
 11570 4359 7000     		.ascii	"p\000"
 11571 435b 05       		.byte	0x5
 11572 435c 33       		.byte	0x33
 11573 435d DE1A0000 		.4byte	0x1ade
 11574 4361 02       		.uleb128 0x2
 11575 4362 91       		.byte	0x91
 11576 4363 6C       		.sleb128 -20
 11577 4364 39       		.uleb128 0x39
 11578 4365 687700   		.ascii	"hw\000"
 11579 4368 05       		.byte	0x5
 11580 4369 34       		.byte	0x34
 11581 436a 01090000 		.4byte	0x901
 11582 436e 02       		.uleb128 0x2
 11583 436f 91       		.byte	0x91
 11584 4370 72       		.sleb128 -14
 11585 4371 00       		.byte	0
 11586 4372 3C       		.uleb128 0x3c
 11587 4373 D1050000 		.4byte	.LASF846
 11588 4377 04       		.byte	0x4
 11589 4378 DE01     		.2byte	0x1de
 11590 437a 00000000 		.4byte	.LFB226
 11591 437e 28000000 		.4byte	.LFE226-.LFB226
 11592 4382 01       		.uleb128 0x1
 11593 4383 9C       		.byte	0x9c
 11594 4384 3C       		.uleb128 0x3c
 11595 4385 21150000 		.4byte	.LASF847
ARM GAS  C:\Users\PCHAUT~1\AppData\Local\Temp\cc7u0cQS.s 			page 205


 11596 4389 04       		.byte	0x4
 11597 438a D301     		.2byte	0x1d3
 11598 438c 00000000 		.4byte	.LFB225
 11599 4390 28000000 		.4byte	.LFE225-.LFB225
 11600 4394 01       		.uleb128 0x1
 11601 4395 9C       		.byte	0x9c
 11602 4396 3C       		.uleb128 0x3c
 11603 4397 56010000 		.4byte	.LASF848
 11604 439b 04       		.byte	0x4
 11605 439c C801     		.2byte	0x1c8
 11606 439e 00000000 		.4byte	.LFB224
 11607 43a2 28000000 		.4byte	.LFE224-.LFB224
 11608 43a6 01       		.uleb128 0x1
 11609 43a7 9C       		.byte	0x9c
 11610 43a8 3C       		.uleb128 0x3c
 11611 43a9 4B1A0000 		.4byte	.LASF849
 11612 43ad 04       		.byte	0x4
 11613 43ae BD01     		.2byte	0x1bd
 11614 43b0 00000000 		.4byte	.LFB223
 11615 43b4 28000000 		.4byte	.LFE223-.LFB223
 11616 43b8 01       		.uleb128 0x1
 11617 43b9 9C       		.byte	0x9c
 11618 43ba 3C       		.uleb128 0x3c
 11619 43bb E1180000 		.4byte	.LASF850
 11620 43bf 03       		.byte	0x3
 11621 43c0 9601     		.2byte	0x196
 11622 43c2 00000000 		.4byte	.LFB148
 11623 43c6 30000000 		.4byte	.LFE148-.LFB148
 11624 43ca 01       		.uleb128 0x1
 11625 43cb 9C       		.byte	0x9c
 11626 43cc 3C       		.uleb128 0x3c
 11627 43cd 57200000 		.4byte	.LASF851
 11628 43d1 03       		.byte	0x3
 11629 43d2 8201     		.2byte	0x182
 11630 43d4 00000000 		.4byte	.LFB147
 11631 43d8 30000000 		.4byte	.LFE147-.LFB147
 11632 43dc 01       		.uleb128 0x1
 11633 43dd 9C       		.byte	0x9c
 11634 43de 3D       		.uleb128 0x3d
 11635 43df 111E0000 		.4byte	.LASF853
 11636 43e3 03       		.byte	0x3
 11637 43e4 6601     		.2byte	0x166
 11638 43e6 00000000 		.4byte	.LFB146
 11639 43ea 58000000 		.4byte	.LFE146-.LFB146
 11640 43ee 01       		.uleb128 0x1
 11641 43ef 9C       		.byte	0x9c
 11642 43f0 04440000 		.4byte	0x4404
 11643 43f4 33       		.uleb128 0x33
 11644 43f5 56000000 		.4byte	.LASF827
 11645 43f9 A53D0000 		.4byte	0x3da5
 11646 43fd 05       		.uleb128 0x5
 11647 43fe 03       		.byte	0x3
 11648 43ff 00000000 		.4byte	__func__.7554
 11649 4403 00       		.byte	0
 11650 4404 3C       		.uleb128 0x3c
 11651 4405 4C160000 		.4byte	.LASF854
 11652 4409 03       		.byte	0x3
ARM GAS  C:\Users\PCHAUT~1\AppData\Local\Temp\cc7u0cQS.s 			page 206


 11653 440a 5A01     		.2byte	0x15a
 11654 440c 00000000 		.4byte	.LFB145
 11655 4410 30000000 		.4byte	.LFE145-.LFB145
 11656 4414 01       		.uleb128 0x1
 11657 4415 9C       		.byte	0x9c
 11658 4416 3C       		.uleb128 0x3c
 11659 4417 89000000 		.4byte	.LASF855
 11660 441b 01       		.byte	0x1
 11661 441c E401     		.2byte	0x1e4
 11662 441e 00000000 		.4byte	.LFB119
 11663 4422 28000000 		.4byte	.LFE119-.LFB119
 11664 4426 01       		.uleb128 0x1
 11665 4427 9C       		.byte	0x9c
 11666 4428 3C       		.uleb128 0x3c
 11667 4429 25130000 		.4byte	.LASF856
 11668 442d 01       		.byte	0x1
 11669 442e D901     		.2byte	0x1d9
 11670 4430 00000000 		.4byte	.LFB118
 11671 4434 28000000 		.4byte	.LFE118-.LFB118
 11672 4438 01       		.uleb128 0x1
 11673 4439 9C       		.byte	0x9c
 11674 443a 3D       		.uleb128 0x3d
 11675 443b 19160000 		.4byte	.LASF857
 11676 443f 01       		.byte	0x1
 11677 4440 CA01     		.2byte	0x1ca
 11678 4442 00000000 		.4byte	.LFB117
 11679 4446 30000000 		.4byte	.LFE117-.LFB117
 11680 444a 01       		.uleb128 0x1
 11681 444b 9C       		.byte	0x9c
 11682 444c 6A440000 		.4byte	0x446a
 11683 4450 3E       		.uleb128 0x3e
 11684 4451 9A440000 		.4byte	0x449a
 11685 4455 0E000000 		.4byte	.LBB8
 11686 4459 06000000 		.4byte	.LBE8-.LBB8
 11687 445d 01       		.byte	0x1
 11688 445e CD01     		.2byte	0x1cd
 11689 4460 3F       		.uleb128 0x3f
 11690 4461 A3440000 		.4byte	0x44a3
 11691 4465 02       		.uleb128 0x2
 11692 4466 91       		.byte	0x91
 11693 4467 70       		.sleb128 -16
 11694 4468 00       		.byte	0
 11695 4469 00       		.byte	0
 11696 446a 3D       		.uleb128 0x3d
 11697 446b AA170000 		.4byte	.LASF858
 11698 446f 01       		.byte	0x1
 11699 4470 BC01     		.2byte	0x1bc
 11700 4472 00000000 		.4byte	.LFB116
 11701 4476 30000000 		.4byte	.LFE116-.LFB116
 11702 447a 01       		.uleb128 0x1
 11703 447b 9C       		.byte	0x9c
 11704 447c 9A440000 		.4byte	0x449a
 11705 4480 3E       		.uleb128 0x3e
 11706 4481 9A440000 		.4byte	0x449a
 11707 4485 0E000000 		.4byte	.LBB6
 11708 4489 06000000 		.4byte	.LBE6-.LBB6
 11709 448d 01       		.byte	0x1
ARM GAS  C:\Users\PCHAUT~1\AppData\Local\Temp\cc7u0cQS.s 			page 207


 11710 448e BF01     		.2byte	0x1bf
 11711 4490 3F       		.uleb128 0x3f
 11712 4491 A3440000 		.4byte	0x44a3
 11713 4495 02       		.uleb128 0x2
 11714 4496 91       		.byte	0x91
 11715 4497 70       		.sleb128 -16
 11716 4498 00       		.byte	0
 11717 4499 00       		.byte	0
 11718 449a 40       		.uleb128 0x40
 11719 449b 17210000 		.4byte	.LASF863
 11720 449f 02       		.byte	0x2
 11721 44a0 2002     		.2byte	0x220
 11722 44a2 03       		.byte	0x3
 11723 44a3 41       		.uleb128 0x41
 11724 44a4 230C0000 		.4byte	.LASF864
 11725 44a8 02       		.byte	0x2
 11726 44a9 2002     		.2byte	0x220
 11727 44ab 1C090000 		.4byte	0x91c
 11728 44af 00       		.byte	0
 11729 44b0 00       		.byte	0
 11730              		.section	.debug_abbrev,"",%progbits
 11731              	.Ldebug_abbrev0:
 11732 0000 01       		.uleb128 0x1
 11733 0001 11       		.uleb128 0x11
 11734 0002 01       		.byte	0x1
 11735 0003 25       		.uleb128 0x25
 11736 0004 0E       		.uleb128 0xe
 11737 0005 13       		.uleb128 0x13
 11738 0006 0B       		.uleb128 0xb
 11739 0007 03       		.uleb128 0x3
 11740 0008 0E       		.uleb128 0xe
 11741 0009 1B       		.uleb128 0x1b
 11742 000a 0E       		.uleb128 0xe
 11743 000b 55       		.uleb128 0x55
 11744 000c 17       		.uleb128 0x17
 11745 000d 11       		.uleb128 0x11
 11746 000e 01       		.uleb128 0x1
 11747 000f 10       		.uleb128 0x10
 11748 0010 17       		.uleb128 0x17
 11749 0011 00       		.byte	0
 11750 0012 00       		.byte	0
 11751 0013 02       		.uleb128 0x2
 11752 0014 24       		.uleb128 0x24
 11753 0015 00       		.byte	0
 11754 0016 0B       		.uleb128 0xb
 11755 0017 0B       		.uleb128 0xb
 11756 0018 3E       		.uleb128 0x3e
 11757 0019 0B       		.uleb128 0xb
 11758 001a 03       		.uleb128 0x3
 11759 001b 08       		.uleb128 0x8
 11760 001c 00       		.byte	0
 11761 001d 00       		.byte	0
 11762 001e 03       		.uleb128 0x3
 11763 001f 16       		.uleb128 0x16
 11764 0020 00       		.byte	0
 11765 0021 03       		.uleb128 0x3
 11766 0022 0E       		.uleb128 0xe
ARM GAS  C:\Users\PCHAUT~1\AppData\Local\Temp\cc7u0cQS.s 			page 208


 11767 0023 3A       		.uleb128 0x3a
 11768 0024 0B       		.uleb128 0xb
 11769 0025 3B       		.uleb128 0x3b
 11770 0026 0B       		.uleb128 0xb
 11771 0027 49       		.uleb128 0x49
 11772 0028 13       		.uleb128 0x13
 11773 0029 00       		.byte	0
 11774 002a 00       		.byte	0
 11775 002b 04       		.uleb128 0x4
 11776 002c 24       		.uleb128 0x24
 11777 002d 00       		.byte	0
 11778 002e 0B       		.uleb128 0xb
 11779 002f 0B       		.uleb128 0xb
 11780 0030 3E       		.uleb128 0x3e
 11781 0031 0B       		.uleb128 0xb
 11782 0032 03       		.uleb128 0x3
 11783 0033 0E       		.uleb128 0xe
 11784 0034 00       		.byte	0
 11785 0035 00       		.byte	0
 11786 0036 05       		.uleb128 0x5
 11787 0037 0F       		.uleb128 0xf
 11788 0038 00       		.byte	0
 11789 0039 0B       		.uleb128 0xb
 11790 003a 0B       		.uleb128 0xb
 11791 003b 49       		.uleb128 0x49
 11792 003c 13       		.uleb128 0x13
 11793 003d 00       		.byte	0
 11794 003e 00       		.byte	0
 11795 003f 06       		.uleb128 0x6
 11796 0040 13       		.uleb128 0x13
 11797 0041 00       		.byte	0
 11798 0042 03       		.uleb128 0x3
 11799 0043 0E       		.uleb128 0xe
 11800 0044 3C       		.uleb128 0x3c
 11801 0045 19       		.uleb128 0x19
 11802 0046 00       		.byte	0
 11803 0047 00       		.byte	0
 11804 0048 07       		.uleb128 0x7
 11805 0049 16       		.uleb128 0x16
 11806 004a 00       		.byte	0
 11807 004b 03       		.uleb128 0x3
 11808 004c 0E       		.uleb128 0xe
 11809 004d 3A       		.uleb128 0x3a
 11810 004e 0B       		.uleb128 0xb
 11811 004f 3B       		.uleb128 0x3b
 11812 0050 05       		.uleb128 0x5
 11813 0051 49       		.uleb128 0x49
 11814 0052 13       		.uleb128 0x13
 11815 0053 00       		.byte	0
 11816 0054 00       		.byte	0
 11817 0055 08       		.uleb128 0x8
 11818 0056 17       		.uleb128 0x17
 11819 0057 01       		.byte	0x1
 11820 0058 0B       		.uleb128 0xb
 11821 0059 0B       		.uleb128 0xb
 11822 005a 3A       		.uleb128 0x3a
 11823 005b 0B       		.uleb128 0xb
ARM GAS  C:\Users\PCHAUT~1\AppData\Local\Temp\cc7u0cQS.s 			page 209


 11824 005c 3B       		.uleb128 0x3b
 11825 005d 0B       		.uleb128 0xb
 11826 005e 01       		.uleb128 0x1
 11827 005f 13       		.uleb128 0x13
 11828 0060 00       		.byte	0
 11829 0061 00       		.byte	0
 11830 0062 09       		.uleb128 0x9
 11831 0063 0D       		.uleb128 0xd
 11832 0064 00       		.byte	0
 11833 0065 03       		.uleb128 0x3
 11834 0066 0E       		.uleb128 0xe
 11835 0067 3A       		.uleb128 0x3a
 11836 0068 0B       		.uleb128 0xb
 11837 0069 3B       		.uleb128 0x3b
 11838 006a 0B       		.uleb128 0xb
 11839 006b 49       		.uleb128 0x49
 11840 006c 13       		.uleb128 0x13
 11841 006d 00       		.byte	0
 11842 006e 00       		.byte	0
 11843 006f 0A       		.uleb128 0xa
 11844 0070 01       		.uleb128 0x1
 11845 0071 01       		.byte	0x1
 11846 0072 49       		.uleb128 0x49
 11847 0073 13       		.uleb128 0x13
 11848 0074 01       		.uleb128 0x1
 11849 0075 13       		.uleb128 0x13
 11850 0076 00       		.byte	0
 11851 0077 00       		.byte	0
 11852 0078 0B       		.uleb128 0xb
 11853 0079 21       		.uleb128 0x21
 11854 007a 00       		.byte	0
 11855 007b 49       		.uleb128 0x49
 11856 007c 13       		.uleb128 0x13
 11857 007d 2F       		.uleb128 0x2f
 11858 007e 0B       		.uleb128 0xb
 11859 007f 00       		.byte	0
 11860 0080 00       		.byte	0
 11861 0081 0C       		.uleb128 0xc
 11862 0082 13       		.uleb128 0x13
 11863 0083 01       		.byte	0x1
 11864 0084 0B       		.uleb128 0xb
 11865 0085 0B       		.uleb128 0xb
 11866 0086 3A       		.uleb128 0x3a
 11867 0087 0B       		.uleb128 0xb
 11868 0088 3B       		.uleb128 0x3b
 11869 0089 0B       		.uleb128 0xb
 11870 008a 01       		.uleb128 0x1
 11871 008b 13       		.uleb128 0x13
 11872 008c 00       		.byte	0
 11873 008d 00       		.byte	0
 11874 008e 0D       		.uleb128 0xd
 11875 008f 0D       		.uleb128 0xd
 11876 0090 00       		.byte	0
 11877 0091 03       		.uleb128 0x3
 11878 0092 0E       		.uleb128 0xe
 11879 0093 3A       		.uleb128 0x3a
 11880 0094 0B       		.uleb128 0xb
ARM GAS  C:\Users\PCHAUT~1\AppData\Local\Temp\cc7u0cQS.s 			page 210


 11881 0095 3B       		.uleb128 0x3b
 11882 0096 0B       		.uleb128 0xb
 11883 0097 49       		.uleb128 0x49
 11884 0098 13       		.uleb128 0x13
 11885 0099 38       		.uleb128 0x38
 11886 009a 0B       		.uleb128 0xb
 11887 009b 00       		.byte	0
 11888 009c 00       		.byte	0
 11889 009d 0E       		.uleb128 0xe
 11890 009e 0F       		.uleb128 0xf
 11891 009f 00       		.byte	0
 11892 00a0 0B       		.uleb128 0xb
 11893 00a1 0B       		.uleb128 0xb
 11894 00a2 00       		.byte	0
 11895 00a3 00       		.byte	0
 11896 00a4 0F       		.uleb128 0xf
 11897 00a5 26       		.uleb128 0x26
 11898 00a6 00       		.byte	0
 11899 00a7 49       		.uleb128 0x49
 11900 00a8 13       		.uleb128 0x13
 11901 00a9 00       		.byte	0
 11902 00aa 00       		.byte	0
 11903 00ab 10       		.uleb128 0x10
 11904 00ac 13       		.uleb128 0x13
 11905 00ad 01       		.byte	0x1
 11906 00ae 03       		.uleb128 0x3
 11907 00af 0E       		.uleb128 0xe
 11908 00b0 0B       		.uleb128 0xb
 11909 00b1 0B       		.uleb128 0xb
 11910 00b2 3A       		.uleb128 0x3a
 11911 00b3 0B       		.uleb128 0xb
 11912 00b4 3B       		.uleb128 0x3b
 11913 00b5 0B       		.uleb128 0xb
 11914 00b6 01       		.uleb128 0x1
 11915 00b7 13       		.uleb128 0x13
 11916 00b8 00       		.byte	0
 11917 00b9 00       		.byte	0
 11918 00ba 11       		.uleb128 0x11
 11919 00bb 0D       		.uleb128 0xd
 11920 00bc 00       		.byte	0
 11921 00bd 03       		.uleb128 0x3
 11922 00be 08       		.uleb128 0x8
 11923 00bf 3A       		.uleb128 0x3a
 11924 00c0 0B       		.uleb128 0xb
 11925 00c1 3B       		.uleb128 0x3b
 11926 00c2 0B       		.uleb128 0xb
 11927 00c3 49       		.uleb128 0x49
 11928 00c4 13       		.uleb128 0x13
 11929 00c5 38       		.uleb128 0x38
 11930 00c6 0B       		.uleb128 0xb
 11931 00c7 00       		.byte	0
 11932 00c8 00       		.byte	0
 11933 00c9 12       		.uleb128 0x12
 11934 00ca 13       		.uleb128 0x13
 11935 00cb 01       		.byte	0x1
 11936 00cc 03       		.uleb128 0x3
 11937 00cd 0E       		.uleb128 0xe
ARM GAS  C:\Users\PCHAUT~1\AppData\Local\Temp\cc7u0cQS.s 			page 211


 11938 00ce 0B       		.uleb128 0xb
 11939 00cf 05       		.uleb128 0x5
 11940 00d0 3A       		.uleb128 0x3a
 11941 00d1 0B       		.uleb128 0xb
 11942 00d2 3B       		.uleb128 0x3b
 11943 00d3 0B       		.uleb128 0xb
 11944 00d4 01       		.uleb128 0x1
 11945 00d5 13       		.uleb128 0x13
 11946 00d6 00       		.byte	0
 11947 00d7 00       		.byte	0
 11948 00d8 13       		.uleb128 0x13
 11949 00d9 0D       		.uleb128 0xd
 11950 00da 00       		.byte	0
 11951 00db 03       		.uleb128 0x3
 11952 00dc 0E       		.uleb128 0xe
 11953 00dd 3A       		.uleb128 0x3a
 11954 00de 0B       		.uleb128 0xb
 11955 00df 3B       		.uleb128 0x3b
 11956 00e0 0B       		.uleb128 0xb
 11957 00e1 49       		.uleb128 0x49
 11958 00e2 13       		.uleb128 0x13
 11959 00e3 38       		.uleb128 0x38
 11960 00e4 05       		.uleb128 0x5
 11961 00e5 00       		.byte	0
 11962 00e6 00       		.byte	0
 11963 00e7 14       		.uleb128 0x14
 11964 00e8 15       		.uleb128 0x15
 11965 00e9 00       		.byte	0
 11966 00ea 27       		.uleb128 0x27
 11967 00eb 19       		.uleb128 0x19
 11968 00ec 00       		.byte	0
 11969 00ed 00       		.byte	0
 11970 00ee 15       		.uleb128 0x15
 11971 00ef 15       		.uleb128 0x15
 11972 00f0 01       		.byte	0x1
 11973 00f1 27       		.uleb128 0x27
 11974 00f2 19       		.uleb128 0x19
 11975 00f3 49       		.uleb128 0x49
 11976 00f4 13       		.uleb128 0x13
 11977 00f5 01       		.uleb128 0x1
 11978 00f6 13       		.uleb128 0x13
 11979 00f7 00       		.byte	0
 11980 00f8 00       		.byte	0
 11981 00f9 16       		.uleb128 0x16
 11982 00fa 05       		.uleb128 0x5
 11983 00fb 00       		.byte	0
 11984 00fc 49       		.uleb128 0x49
 11985 00fd 13       		.uleb128 0x13
 11986 00fe 00       		.byte	0
 11987 00ff 00       		.byte	0
 11988 0100 17       		.uleb128 0x17
 11989 0101 13       		.uleb128 0x13
 11990 0102 01       		.byte	0x1
 11991 0103 03       		.uleb128 0x3
 11992 0104 0E       		.uleb128 0xe
 11993 0105 0B       		.uleb128 0xb
 11994 0106 05       		.uleb128 0x5
ARM GAS  C:\Users\PCHAUT~1\AppData\Local\Temp\cc7u0cQS.s 			page 212


 11995 0107 3A       		.uleb128 0x3a
 11996 0108 0B       		.uleb128 0xb
 11997 0109 3B       		.uleb128 0x3b
 11998 010a 05       		.uleb128 0x5
 11999 010b 01       		.uleb128 0x1
 12000 010c 13       		.uleb128 0x13
 12001 010d 00       		.byte	0
 12002 010e 00       		.byte	0
 12003 010f 18       		.uleb128 0x18
 12004 0110 0D       		.uleb128 0xd
 12005 0111 00       		.byte	0
 12006 0112 03       		.uleb128 0x3
 12007 0113 0E       		.uleb128 0xe
 12008 0114 3A       		.uleb128 0x3a
 12009 0115 0B       		.uleb128 0xb
 12010 0116 3B       		.uleb128 0x3b
 12011 0117 05       		.uleb128 0x5
 12012 0118 49       		.uleb128 0x49
 12013 0119 13       		.uleb128 0x13
 12014 011a 38       		.uleb128 0x38
 12015 011b 0B       		.uleb128 0xb
 12016 011c 00       		.byte	0
 12017 011d 00       		.byte	0
 12018 011e 19       		.uleb128 0x19
 12019 011f 0D       		.uleb128 0xd
 12020 0120 00       		.byte	0
 12021 0121 03       		.uleb128 0x3
 12022 0122 0E       		.uleb128 0xe
 12023 0123 3A       		.uleb128 0x3a
 12024 0124 0B       		.uleb128 0xb
 12025 0125 3B       		.uleb128 0x3b
 12026 0126 05       		.uleb128 0x5
 12027 0127 49       		.uleb128 0x49
 12028 0128 13       		.uleb128 0x13
 12029 0129 38       		.uleb128 0x38
 12030 012a 05       		.uleb128 0x5
 12031 012b 00       		.byte	0
 12032 012c 00       		.byte	0
 12033 012d 1A       		.uleb128 0x1a
 12034 012e 35       		.uleb128 0x35
 12035 012f 00       		.byte	0
 12036 0130 49       		.uleb128 0x49
 12037 0131 13       		.uleb128 0x13
 12038 0132 00       		.byte	0
 12039 0133 00       		.byte	0
 12040 0134 1B       		.uleb128 0x1b
 12041 0135 13       		.uleb128 0x13
 12042 0136 01       		.byte	0x1
 12043 0137 03       		.uleb128 0x3
 12044 0138 0E       		.uleb128 0xe
 12045 0139 0B       		.uleb128 0xb
 12046 013a 0B       		.uleb128 0xb
 12047 013b 3A       		.uleb128 0x3a
 12048 013c 0B       		.uleb128 0xb
 12049 013d 3B       		.uleb128 0x3b
 12050 013e 05       		.uleb128 0x5
 12051 013f 01       		.uleb128 0x1
ARM GAS  C:\Users\PCHAUT~1\AppData\Local\Temp\cc7u0cQS.s 			page 213


 12052 0140 13       		.uleb128 0x13
 12053 0141 00       		.byte	0
 12054 0142 00       		.byte	0
 12055 0143 1C       		.uleb128 0x1c
 12056 0144 13       		.uleb128 0x13
 12057 0145 01       		.byte	0x1
 12058 0146 0B       		.uleb128 0xb
 12059 0147 0B       		.uleb128 0xb
 12060 0148 3A       		.uleb128 0x3a
 12061 0149 0B       		.uleb128 0xb
 12062 014a 3B       		.uleb128 0x3b
 12063 014b 05       		.uleb128 0x5
 12064 014c 01       		.uleb128 0x1
 12065 014d 13       		.uleb128 0x13
 12066 014e 00       		.byte	0
 12067 014f 00       		.byte	0
 12068 0150 1D       		.uleb128 0x1d
 12069 0151 17       		.uleb128 0x17
 12070 0152 01       		.byte	0x1
 12071 0153 0B       		.uleb128 0xb
 12072 0154 0B       		.uleb128 0xb
 12073 0155 3A       		.uleb128 0x3a
 12074 0156 0B       		.uleb128 0xb
 12075 0157 3B       		.uleb128 0x3b
 12076 0158 05       		.uleb128 0x5
 12077 0159 01       		.uleb128 0x1
 12078 015a 13       		.uleb128 0x13
 12079 015b 00       		.byte	0
 12080 015c 00       		.byte	0
 12081 015d 1E       		.uleb128 0x1e
 12082 015e 0D       		.uleb128 0xd
 12083 015f 00       		.byte	0
 12084 0160 03       		.uleb128 0x3
 12085 0161 0E       		.uleb128 0xe
 12086 0162 3A       		.uleb128 0x3a
 12087 0163 0B       		.uleb128 0xb
 12088 0164 3B       		.uleb128 0x3b
 12089 0165 05       		.uleb128 0x5
 12090 0166 49       		.uleb128 0x49
 12091 0167 13       		.uleb128 0x13
 12092 0168 00       		.byte	0
 12093 0169 00       		.byte	0
 12094 016a 1F       		.uleb128 0x1f
 12095 016b 15       		.uleb128 0x15
 12096 016c 01       		.byte	0x1
 12097 016d 27       		.uleb128 0x27
 12098 016e 19       		.uleb128 0x19
 12099 016f 01       		.uleb128 0x1
 12100 0170 13       		.uleb128 0x13
 12101 0171 00       		.byte	0
 12102 0172 00       		.byte	0
 12103 0173 20       		.uleb128 0x20
 12104 0174 34       		.uleb128 0x34
 12105 0175 00       		.byte	0
 12106 0176 03       		.uleb128 0x3
 12107 0177 0E       		.uleb128 0xe
 12108 0178 3A       		.uleb128 0x3a
ARM GAS  C:\Users\PCHAUT~1\AppData\Local\Temp\cc7u0cQS.s 			page 214


 12109 0179 0B       		.uleb128 0xb
 12110 017a 3B       		.uleb128 0x3b
 12111 017b 05       		.uleb128 0x5
 12112 017c 49       		.uleb128 0x49
 12113 017d 13       		.uleb128 0x13
 12114 017e 3F       		.uleb128 0x3f
 12115 017f 19       		.uleb128 0x19
 12116 0180 3C       		.uleb128 0x3c
 12117 0181 19       		.uleb128 0x19
 12118 0182 00       		.byte	0
 12119 0183 00       		.byte	0
 12120 0184 21       		.uleb128 0x21
 12121 0185 0D       		.uleb128 0xd
 12122 0186 00       		.byte	0
 12123 0187 03       		.uleb128 0x3
 12124 0188 08       		.uleb128 0x8
 12125 0189 3A       		.uleb128 0x3a
 12126 018a 0B       		.uleb128 0xb
 12127 018b 3B       		.uleb128 0x3b
 12128 018c 05       		.uleb128 0x5
 12129 018d 49       		.uleb128 0x49
 12130 018e 13       		.uleb128 0x13
 12131 018f 38       		.uleb128 0x38
 12132 0190 0B       		.uleb128 0xb
 12133 0191 00       		.byte	0
 12134 0192 00       		.byte	0
 12135 0193 22       		.uleb128 0x22
 12136 0194 0D       		.uleb128 0xd
 12137 0195 00       		.byte	0
 12138 0196 03       		.uleb128 0x3
 12139 0197 08       		.uleb128 0x8
 12140 0198 3A       		.uleb128 0x3a
 12141 0199 0B       		.uleb128 0xb
 12142 019a 3B       		.uleb128 0x3b
 12143 019b 05       		.uleb128 0x5
 12144 019c 49       		.uleb128 0x49
 12145 019d 13       		.uleb128 0x13
 12146 019e 38       		.uleb128 0x38
 12147 019f 05       		.uleb128 0x5
 12148 01a0 00       		.byte	0
 12149 01a1 00       		.byte	0
 12150 01a2 23       		.uleb128 0x23
 12151 01a3 34       		.uleb128 0x34
 12152 01a4 00       		.byte	0
 12153 01a5 03       		.uleb128 0x3
 12154 01a6 0E       		.uleb128 0xe
 12155 01a7 3A       		.uleb128 0x3a
 12156 01a8 0B       		.uleb128 0xb
 12157 01a9 3B       		.uleb128 0x3b
 12158 01aa 0B       		.uleb128 0xb
 12159 01ab 49       		.uleb128 0x49
 12160 01ac 13       		.uleb128 0x13
 12161 01ad 3F       		.uleb128 0x3f
 12162 01ae 19       		.uleb128 0x19
 12163 01af 3C       		.uleb128 0x3c
 12164 01b0 19       		.uleb128 0x19
 12165 01b1 00       		.byte	0
ARM GAS  C:\Users\PCHAUT~1\AppData\Local\Temp\cc7u0cQS.s 			page 215


 12166 01b2 00       		.byte	0
 12167 01b3 24       		.uleb128 0x24
 12168 01b4 13       		.uleb128 0x13
 12169 01b5 01       		.byte	0x1
 12170 01b6 0B       		.uleb128 0xb
 12171 01b7 05       		.uleb128 0x5
 12172 01b8 3A       		.uleb128 0x3a
 12173 01b9 0B       		.uleb128 0xb
 12174 01ba 3B       		.uleb128 0x3b
 12175 01bb 05       		.uleb128 0x5
 12176 01bc 01       		.uleb128 0x1
 12177 01bd 13       		.uleb128 0x13
 12178 01be 00       		.byte	0
 12179 01bf 00       		.byte	0
 12180 01c0 25       		.uleb128 0x25
 12181 01c1 13       		.uleb128 0x13
 12182 01c2 01       		.byte	0x1
 12183 01c3 0B       		.uleb128 0xb
 12184 01c4 05       		.uleb128 0x5
 12185 01c5 3A       		.uleb128 0x3a
 12186 01c6 0B       		.uleb128 0xb
 12187 01c7 3B       		.uleb128 0x3b
 12188 01c8 0B       		.uleb128 0xb
 12189 01c9 01       		.uleb128 0x1
 12190 01ca 13       		.uleb128 0x13
 12191 01cb 00       		.byte	0
 12192 01cc 00       		.byte	0
 12193 01cd 26       		.uleb128 0x26
 12194 01ce 34       		.uleb128 0x34
 12195 01cf 00       		.byte	0
 12196 01d0 03       		.uleb128 0x3
 12197 01d1 08       		.uleb128 0x8
 12198 01d2 3A       		.uleb128 0x3a
 12199 01d3 0B       		.uleb128 0xb
 12200 01d4 3B       		.uleb128 0x3b
 12201 01d5 05       		.uleb128 0x5
 12202 01d6 49       		.uleb128 0x49
 12203 01d7 13       		.uleb128 0x13
 12204 01d8 3F       		.uleb128 0x3f
 12205 01d9 19       		.uleb128 0x19
 12206 01da 3C       		.uleb128 0x3c
 12207 01db 19       		.uleb128 0x19
 12208 01dc 00       		.byte	0
 12209 01dd 00       		.byte	0
 12210 01de 27       		.uleb128 0x27
 12211 01df 04       		.uleb128 0x4
 12212 01e0 01       		.byte	0x1
 12213 01e1 3E       		.uleb128 0x3e
 12214 01e2 0B       		.uleb128 0xb
 12215 01e3 0B       		.uleb128 0xb
 12216 01e4 0B       		.uleb128 0xb
 12217 01e5 49       		.uleb128 0x49
 12218 01e6 13       		.uleb128 0x13
 12219 01e7 3A       		.uleb128 0x3a
 12220 01e8 0B       		.uleb128 0xb
 12221 01e9 3B       		.uleb128 0x3b
 12222 01ea 0B       		.uleb128 0xb
ARM GAS  C:\Users\PCHAUT~1\AppData\Local\Temp\cc7u0cQS.s 			page 216


 12223 01eb 01       		.uleb128 0x1
 12224 01ec 13       		.uleb128 0x13
 12225 01ed 00       		.byte	0
 12226 01ee 00       		.byte	0
 12227 01ef 28       		.uleb128 0x28
 12228 01f0 28       		.uleb128 0x28
 12229 01f1 00       		.byte	0
 12230 01f2 03       		.uleb128 0x3
 12231 01f3 0E       		.uleb128 0xe
 12232 01f4 1C       		.uleb128 0x1c
 12233 01f5 0B       		.uleb128 0xb
 12234 01f6 00       		.byte	0
 12235 01f7 00       		.byte	0
 12236 01f8 29       		.uleb128 0x29
 12237 01f9 0D       		.uleb128 0xd
 12238 01fa 00       		.byte	0
 12239 01fb 03       		.uleb128 0x3
 12240 01fc 08       		.uleb128 0x8
 12241 01fd 3A       		.uleb128 0x3a
 12242 01fe 0B       		.uleb128 0xb
 12243 01ff 3B       		.uleb128 0x3b
 12244 0200 0B       		.uleb128 0xb
 12245 0201 49       		.uleb128 0x49
 12246 0202 13       		.uleb128 0x13
 12247 0203 00       		.byte	0
 12248 0204 00       		.byte	0
 12249 0205 2A       		.uleb128 0x2a
 12250 0206 04       		.uleb128 0x4
 12251 0207 01       		.byte	0x1
 12252 0208 3E       		.uleb128 0x3e
 12253 0209 0B       		.uleb128 0xb
 12254 020a 0B       		.uleb128 0xb
 12255 020b 0B       		.uleb128 0xb
 12256 020c 49       		.uleb128 0x49
 12257 020d 13       		.uleb128 0x13
 12258 020e 3A       		.uleb128 0x3a
 12259 020f 0B       		.uleb128 0xb
 12260 0210 3B       		.uleb128 0x3b
 12261 0211 05       		.uleb128 0x5
 12262 0212 01       		.uleb128 0x1
 12263 0213 13       		.uleb128 0x13
 12264 0214 00       		.byte	0
 12265 0215 00       		.byte	0
 12266 0216 2B       		.uleb128 0x2b
 12267 0217 26       		.uleb128 0x26
 12268 0218 00       		.byte	0
 12269 0219 00       		.byte	0
 12270 021a 00       		.byte	0
 12271 021b 2C       		.uleb128 0x2c
 12272 021c 13       		.uleb128 0x13
 12273 021d 01       		.byte	0x1
 12274 021e 0B       		.uleb128 0xb
 12275 021f 06       		.uleb128 0x6
 12276 0220 3A       		.uleb128 0x3a
 12277 0221 0B       		.uleb128 0xb
 12278 0222 3B       		.uleb128 0x3b
 12279 0223 0B       		.uleb128 0xb
ARM GAS  C:\Users\PCHAUT~1\AppData\Local\Temp\cc7u0cQS.s 			page 217


 12280 0224 01       		.uleb128 0x1
 12281 0225 13       		.uleb128 0x13
 12282 0226 00       		.byte	0
 12283 0227 00       		.byte	0
 12284 0228 2D       		.uleb128 0x2d
 12285 0229 0D       		.uleb128 0xd
 12286 022a 00       		.byte	0
 12287 022b 03       		.uleb128 0x3
 12288 022c 08       		.uleb128 0x8
 12289 022d 3A       		.uleb128 0x3a
 12290 022e 0B       		.uleb128 0xb
 12291 022f 3B       		.uleb128 0x3b
 12292 0230 0B       		.uleb128 0xb
 12293 0231 49       		.uleb128 0x49
 12294 0232 13       		.uleb128 0x13
 12295 0233 38       		.uleb128 0x38
 12296 0234 05       		.uleb128 0x5
 12297 0235 00       		.byte	0
 12298 0236 00       		.byte	0
 12299 0237 2E       		.uleb128 0x2e
 12300 0238 21       		.uleb128 0x21
 12301 0239 00       		.byte	0
 12302 023a 49       		.uleb128 0x49
 12303 023b 13       		.uleb128 0x13
 12304 023c 2F       		.uleb128 0x2f
 12305 023d 05       		.uleb128 0x5
 12306 023e 00       		.byte	0
 12307 023f 00       		.byte	0
 12308 0240 2F       		.uleb128 0x2f
 12309 0241 34       		.uleb128 0x34
 12310 0242 00       		.byte	0
 12311 0243 03       		.uleb128 0x3
 12312 0244 0E       		.uleb128 0xe
 12313 0245 3A       		.uleb128 0x3a
 12314 0246 0B       		.uleb128 0xb
 12315 0247 3B       		.uleb128 0x3b
 12316 0248 0B       		.uleb128 0xb
 12317 0249 49       		.uleb128 0x49
 12318 024a 13       		.uleb128 0x13
 12319 024b 02       		.uleb128 0x2
 12320 024c 18       		.uleb128 0x18
 12321 024d 00       		.byte	0
 12322 024e 00       		.byte	0
 12323 024f 30       		.uleb128 0x30
 12324 0250 2E       		.uleb128 0x2e
 12325 0251 01       		.byte	0x1
 12326 0252 3F       		.uleb128 0x3f
 12327 0253 19       		.uleb128 0x19
 12328 0254 03       		.uleb128 0x3
 12329 0255 0E       		.uleb128 0xe
 12330 0256 3A       		.uleb128 0x3a
 12331 0257 0B       		.uleb128 0xb
 12332 0258 3B       		.uleb128 0x3b
 12333 0259 05       		.uleb128 0x5
 12334 025a 27       		.uleb128 0x27
 12335 025b 19       		.uleb128 0x19
 12336 025c 11       		.uleb128 0x11
ARM GAS  C:\Users\PCHAUT~1\AppData\Local\Temp\cc7u0cQS.s 			page 218


 12337 025d 01       		.uleb128 0x1
 12338 025e 12       		.uleb128 0x12
 12339 025f 06       		.uleb128 0x6
 12340 0260 40       		.uleb128 0x40
 12341 0261 18       		.uleb128 0x18
 12342 0262 9642     		.uleb128 0x2116
 12343 0264 19       		.uleb128 0x19
 12344 0265 01       		.uleb128 0x1
 12345 0266 13       		.uleb128 0x13
 12346 0267 00       		.byte	0
 12347 0268 00       		.byte	0
 12348 0269 31       		.uleb128 0x31
 12349 026a 05       		.uleb128 0x5
 12350 026b 00       		.byte	0
 12351 026c 03       		.uleb128 0x3
 12352 026d 0E       		.uleb128 0xe
 12353 026e 3A       		.uleb128 0x3a
 12354 026f 0B       		.uleb128 0xb
 12355 0270 3B       		.uleb128 0x3b
 12356 0271 05       		.uleb128 0x5
 12357 0272 49       		.uleb128 0x49
 12358 0273 13       		.uleb128 0x13
 12359 0274 02       		.uleb128 0x2
 12360 0275 18       		.uleb128 0x18
 12361 0276 00       		.byte	0
 12362 0277 00       		.byte	0
 12363 0278 32       		.uleb128 0x32
 12364 0279 05       		.uleb128 0x5
 12365 027a 00       		.byte	0
 12366 027b 03       		.uleb128 0x3
 12367 027c 08       		.uleb128 0x8
 12368 027d 3A       		.uleb128 0x3a
 12369 027e 0B       		.uleb128 0xb
 12370 027f 3B       		.uleb128 0x3b
 12371 0280 05       		.uleb128 0x5
 12372 0281 49       		.uleb128 0x49
 12373 0282 13       		.uleb128 0x13
 12374 0283 02       		.uleb128 0x2
 12375 0284 18       		.uleb128 0x18
 12376 0285 00       		.byte	0
 12377 0286 00       		.byte	0
 12378 0287 33       		.uleb128 0x33
 12379 0288 34       		.uleb128 0x34
 12380 0289 00       		.byte	0
 12381 028a 03       		.uleb128 0x3
 12382 028b 0E       		.uleb128 0xe
 12383 028c 49       		.uleb128 0x49
 12384 028d 13       		.uleb128 0x13
 12385 028e 34       		.uleb128 0x34
 12386 028f 19       		.uleb128 0x19
 12387 0290 02       		.uleb128 0x2
 12388 0291 18       		.uleb128 0x18
 12389 0292 00       		.byte	0
 12390 0293 00       		.byte	0
 12391 0294 34       		.uleb128 0x34
 12392 0295 34       		.uleb128 0x34
 12393 0296 00       		.byte	0
ARM GAS  C:\Users\PCHAUT~1\AppData\Local\Temp\cc7u0cQS.s 			page 219


 12394 0297 03       		.uleb128 0x3
 12395 0298 08       		.uleb128 0x8
 12396 0299 3A       		.uleb128 0x3a
 12397 029a 0B       		.uleb128 0xb
 12398 029b 3B       		.uleb128 0x3b
 12399 029c 05       		.uleb128 0x5
 12400 029d 49       		.uleb128 0x49
 12401 029e 13       		.uleb128 0x13
 12402 029f 02       		.uleb128 0x2
 12403 02a0 18       		.uleb128 0x18
 12404 02a1 00       		.byte	0
 12405 02a2 00       		.byte	0
 12406 02a3 35       		.uleb128 0x35
 12407 02a4 2E       		.uleb128 0x2e
 12408 02a5 01       		.byte	0x1
 12409 02a6 3F       		.uleb128 0x3f
 12410 02a7 19       		.uleb128 0x19
 12411 02a8 03       		.uleb128 0x3
 12412 02a9 0E       		.uleb128 0xe
 12413 02aa 3A       		.uleb128 0x3a
 12414 02ab 0B       		.uleb128 0xb
 12415 02ac 3B       		.uleb128 0x3b
 12416 02ad 05       		.uleb128 0x5
 12417 02ae 27       		.uleb128 0x27
 12418 02af 19       		.uleb128 0x19
 12419 02b0 49       		.uleb128 0x49
 12420 02b1 13       		.uleb128 0x13
 12421 02b2 11       		.uleb128 0x11
 12422 02b3 01       		.uleb128 0x1
 12423 02b4 12       		.uleb128 0x12
 12424 02b5 06       		.uleb128 0x6
 12425 02b6 40       		.uleb128 0x40
 12426 02b7 18       		.uleb128 0x18
 12427 02b8 9642     		.uleb128 0x2116
 12428 02ba 19       		.uleb128 0x19
 12429 02bb 01       		.uleb128 0x1
 12430 02bc 13       		.uleb128 0x13
 12431 02bd 00       		.byte	0
 12432 02be 00       		.byte	0
 12433 02bf 36       		.uleb128 0x36
 12434 02c0 2E       		.uleb128 0x2e
 12435 02c1 00       		.byte	0
 12436 02c2 3F       		.uleb128 0x3f
 12437 02c3 19       		.uleb128 0x19
 12438 02c4 03       		.uleb128 0x3
 12439 02c5 0E       		.uleb128 0xe
 12440 02c6 3A       		.uleb128 0x3a
 12441 02c7 0B       		.uleb128 0xb
 12442 02c8 3B       		.uleb128 0x3b
 12443 02c9 0B       		.uleb128 0xb
 12444 02ca 27       		.uleb128 0x27
 12445 02cb 19       		.uleb128 0x19
 12446 02cc 11       		.uleb128 0x11
 12447 02cd 01       		.uleb128 0x1
 12448 02ce 12       		.uleb128 0x12
 12449 02cf 06       		.uleb128 0x6
 12450 02d0 40       		.uleb128 0x40
ARM GAS  C:\Users\PCHAUT~1\AppData\Local\Temp\cc7u0cQS.s 			page 220


 12451 02d1 18       		.uleb128 0x18
 12452 02d2 9642     		.uleb128 0x2116
 12453 02d4 19       		.uleb128 0x19
 12454 02d5 00       		.byte	0
 12455 02d6 00       		.byte	0
 12456 02d7 37       		.uleb128 0x37
 12457 02d8 2E       		.uleb128 0x2e
 12458 02d9 01       		.byte	0x1
 12459 02da 03       		.uleb128 0x3
 12460 02db 0E       		.uleb128 0xe
 12461 02dc 3A       		.uleb128 0x3a
 12462 02dd 0B       		.uleb128 0xb
 12463 02de 3B       		.uleb128 0x3b
 12464 02df 0B       		.uleb128 0xb
 12465 02e0 27       		.uleb128 0x27
 12466 02e1 19       		.uleb128 0x19
 12467 02e2 49       		.uleb128 0x49
 12468 02e3 13       		.uleb128 0x13
 12469 02e4 11       		.uleb128 0x11
 12470 02e5 01       		.uleb128 0x1
 12471 02e6 12       		.uleb128 0x12
 12472 02e7 06       		.uleb128 0x6
 12473 02e8 40       		.uleb128 0x40
 12474 02e9 18       		.uleb128 0x18
 12475 02ea 9642     		.uleb128 0x2116
 12476 02ec 19       		.uleb128 0x19
 12477 02ed 01       		.uleb128 0x1
 12478 02ee 13       		.uleb128 0x13
 12479 02ef 00       		.byte	0
 12480 02f0 00       		.byte	0
 12481 02f1 38       		.uleb128 0x38
 12482 02f2 05       		.uleb128 0x5
 12483 02f3 00       		.byte	0
 12484 02f4 03       		.uleb128 0x3
 12485 02f5 0E       		.uleb128 0xe
 12486 02f6 3A       		.uleb128 0x3a
 12487 02f7 0B       		.uleb128 0xb
 12488 02f8 3B       		.uleb128 0x3b
 12489 02f9 0B       		.uleb128 0xb
 12490 02fa 49       		.uleb128 0x49
 12491 02fb 13       		.uleb128 0x13
 12492 02fc 02       		.uleb128 0x2
 12493 02fd 18       		.uleb128 0x18
 12494 02fe 00       		.byte	0
 12495 02ff 00       		.byte	0
 12496 0300 39       		.uleb128 0x39
 12497 0301 34       		.uleb128 0x34
 12498 0302 00       		.byte	0
 12499 0303 03       		.uleb128 0x3
 12500 0304 08       		.uleb128 0x8
 12501 0305 3A       		.uleb128 0x3a
 12502 0306 0B       		.uleb128 0xb
 12503 0307 3B       		.uleb128 0x3b
 12504 0308 0B       		.uleb128 0xb
 12505 0309 49       		.uleb128 0x49
 12506 030a 13       		.uleb128 0x13
 12507 030b 02       		.uleb128 0x2
ARM GAS  C:\Users\PCHAUT~1\AppData\Local\Temp\cc7u0cQS.s 			page 221


 12508 030c 18       		.uleb128 0x18
 12509 030d 00       		.byte	0
 12510 030e 00       		.byte	0
 12511 030f 3A       		.uleb128 0x3a
 12512 0310 2E       		.uleb128 0x2e
 12513 0311 01       		.byte	0x1
 12514 0312 03       		.uleb128 0x3
 12515 0313 0E       		.uleb128 0xe
 12516 0314 3A       		.uleb128 0x3a
 12517 0315 0B       		.uleb128 0xb
 12518 0316 3B       		.uleb128 0x3b
 12519 0317 0B       		.uleb128 0xb
 12520 0318 27       		.uleb128 0x27
 12521 0319 19       		.uleb128 0x19
 12522 031a 11       		.uleb128 0x11
 12523 031b 01       		.uleb128 0x1
 12524 031c 12       		.uleb128 0x12
 12525 031d 06       		.uleb128 0x6
 12526 031e 40       		.uleb128 0x40
 12527 031f 18       		.uleb128 0x18
 12528 0320 9642     		.uleb128 0x2116
 12529 0322 19       		.uleb128 0x19
 12530 0323 01       		.uleb128 0x1
 12531 0324 13       		.uleb128 0x13
 12532 0325 00       		.byte	0
 12533 0326 00       		.byte	0
 12534 0327 3B       		.uleb128 0x3b
 12535 0328 05       		.uleb128 0x5
 12536 0329 00       		.byte	0
 12537 032a 03       		.uleb128 0x3
 12538 032b 08       		.uleb128 0x8
 12539 032c 3A       		.uleb128 0x3a
 12540 032d 0B       		.uleb128 0xb
 12541 032e 3B       		.uleb128 0x3b
 12542 032f 0B       		.uleb128 0xb
 12543 0330 49       		.uleb128 0x49
 12544 0331 13       		.uleb128 0x13
 12545 0332 02       		.uleb128 0x2
 12546 0333 18       		.uleb128 0x18
 12547 0334 00       		.byte	0
 12548 0335 00       		.byte	0
 12549 0336 3C       		.uleb128 0x3c
 12550 0337 2E       		.uleb128 0x2e
 12551 0338 00       		.byte	0
 12552 0339 03       		.uleb128 0x3
 12553 033a 0E       		.uleb128 0xe
 12554 033b 3A       		.uleb128 0x3a
 12555 033c 0B       		.uleb128 0xb
 12556 033d 3B       		.uleb128 0x3b
 12557 033e 05       		.uleb128 0x5
 12558 033f 27       		.uleb128 0x27
 12559 0340 19       		.uleb128 0x19
 12560 0341 11       		.uleb128 0x11
 12561 0342 01       		.uleb128 0x1
 12562 0343 12       		.uleb128 0x12
 12563 0344 06       		.uleb128 0x6
 12564 0345 40       		.uleb128 0x40
ARM GAS  C:\Users\PCHAUT~1\AppData\Local\Temp\cc7u0cQS.s 			page 222


 12565 0346 18       		.uleb128 0x18
 12566 0347 9642     		.uleb128 0x2116
 12567 0349 19       		.uleb128 0x19
 12568 034a 00       		.byte	0
 12569 034b 00       		.byte	0
 12570 034c 3D       		.uleb128 0x3d
 12571 034d 2E       		.uleb128 0x2e
 12572 034e 01       		.byte	0x1
 12573 034f 03       		.uleb128 0x3
 12574 0350 0E       		.uleb128 0xe
 12575 0351 3A       		.uleb128 0x3a
 12576 0352 0B       		.uleb128 0xb
 12577 0353 3B       		.uleb128 0x3b
 12578 0354 05       		.uleb128 0x5
 12579 0355 27       		.uleb128 0x27
 12580 0356 19       		.uleb128 0x19
 12581 0357 11       		.uleb128 0x11
 12582 0358 01       		.uleb128 0x1
 12583 0359 12       		.uleb128 0x12
 12584 035a 06       		.uleb128 0x6
 12585 035b 40       		.uleb128 0x40
 12586 035c 18       		.uleb128 0x18
 12587 035d 9642     		.uleb128 0x2116
 12588 035f 19       		.uleb128 0x19
 12589 0360 01       		.uleb128 0x1
 12590 0361 13       		.uleb128 0x13
 12591 0362 00       		.byte	0
 12592 0363 00       		.byte	0
 12593 0364 3E       		.uleb128 0x3e
 12594 0365 1D       		.uleb128 0x1d
 12595 0366 01       		.byte	0x1
 12596 0367 31       		.uleb128 0x31
 12597 0368 13       		.uleb128 0x13
 12598 0369 11       		.uleb128 0x11
 12599 036a 01       		.uleb128 0x1
 12600 036b 12       		.uleb128 0x12
 12601 036c 06       		.uleb128 0x6
 12602 036d 58       		.uleb128 0x58
 12603 036e 0B       		.uleb128 0xb
 12604 036f 59       		.uleb128 0x59
 12605 0370 05       		.uleb128 0x5
 12606 0371 00       		.byte	0
 12607 0372 00       		.byte	0
 12608 0373 3F       		.uleb128 0x3f
 12609 0374 05       		.uleb128 0x5
 12610 0375 00       		.byte	0
 12611 0376 31       		.uleb128 0x31
 12612 0377 13       		.uleb128 0x13
 12613 0378 02       		.uleb128 0x2
 12614 0379 18       		.uleb128 0x18
 12615 037a 00       		.byte	0
 12616 037b 00       		.byte	0
 12617 037c 40       		.uleb128 0x40
 12618 037d 2E       		.uleb128 0x2e
 12619 037e 01       		.byte	0x1
 12620 037f 03       		.uleb128 0x3
 12621 0380 0E       		.uleb128 0xe
ARM GAS  C:\Users\PCHAUT~1\AppData\Local\Temp\cc7u0cQS.s 			page 223


 12622 0381 3A       		.uleb128 0x3a
 12623 0382 0B       		.uleb128 0xb
 12624 0383 3B       		.uleb128 0x3b
 12625 0384 05       		.uleb128 0x5
 12626 0385 27       		.uleb128 0x27
 12627 0386 19       		.uleb128 0x19
 12628 0387 20       		.uleb128 0x20
 12629 0388 0B       		.uleb128 0xb
 12630 0389 00       		.byte	0
 12631 038a 00       		.byte	0
 12632 038b 41       		.uleb128 0x41
 12633 038c 05       		.uleb128 0x5
 12634 038d 00       		.byte	0
 12635 038e 03       		.uleb128 0x3
 12636 038f 0E       		.uleb128 0xe
 12637 0390 3A       		.uleb128 0x3a
 12638 0391 0B       		.uleb128 0xb
 12639 0392 3B       		.uleb128 0x3b
 12640 0393 05       		.uleb128 0x5
 12641 0394 49       		.uleb128 0x49
 12642 0395 13       		.uleb128 0x13
 12643 0396 00       		.byte	0
 12644 0397 00       		.byte	0
 12645 0398 00       		.byte	0
 12646              		.section	.debug_aranges,"",%progbits
 12647 0000 1C010000 		.4byte	0x11c
 12648 0004 0200     		.2byte	0x2
 12649 0006 00000000 		.4byte	.Ldebug_info0
 12650 000a 04       		.byte	0x4
 12651 000b 00       		.byte	0
 12652 000c 0000     		.2byte	0
 12653 000e 0000     		.2byte	0
 12654 0010 00000000 		.4byte	.LFB116
 12655 0014 30000000 		.4byte	.LFE116-.LFB116
 12656 0018 00000000 		.4byte	.LFB117
 12657 001c 30000000 		.4byte	.LFE117-.LFB117
 12658 0020 00000000 		.4byte	.LFB118
 12659 0024 28000000 		.4byte	.LFE118-.LFB118
 12660 0028 00000000 		.4byte	.LFB119
 12661 002c 28000000 		.4byte	.LFE119-.LFB119
 12662 0030 00000000 		.4byte	.LFB145
 12663 0034 30000000 		.4byte	.LFE145-.LFB145
 12664 0038 00000000 		.4byte	.LFB146
 12665 003c 58000000 		.4byte	.LFE146-.LFB146
 12666 0040 00000000 		.4byte	.LFB147
 12667 0044 30000000 		.4byte	.LFE147-.LFB147
 12668 0048 00000000 		.4byte	.LFB148
 12669 004c 30000000 		.4byte	.LFE148-.LFB148
 12670 0050 00000000 		.4byte	.LFB223
 12671 0054 28000000 		.4byte	.LFE223-.LFB223
 12672 0058 00000000 		.4byte	.LFB224
 12673 005c 28000000 		.4byte	.LFE224-.LFB224
 12674 0060 00000000 		.4byte	.LFB225
 12675 0064 28000000 		.4byte	.LFE225-.LFB225
 12676 0068 00000000 		.4byte	.LFB226
 12677 006c 28000000 		.4byte	.LFE226-.LFB226
 12678 0070 00000000 		.4byte	.LFB256
ARM GAS  C:\Users\PCHAUT~1\AppData\Local\Temp\cc7u0cQS.s 			page 224


 12679 0074 4C000000 		.4byte	.LFE256-.LFB256
 12680 0078 00000000 		.4byte	.LFB257
 12681 007c 54000000 		.4byte	.LFE257-.LFB257
 12682 0080 00000000 		.4byte	.LFB258
 12683 0084 B8030000 		.4byte	.LFE258-.LFB258
 12684 0088 00000000 		.4byte	.LFB259
 12685 008c 28000000 		.4byte	.LFE259-.LFB259
 12686 0090 00000000 		.4byte	.LFB260
 12687 0094 6C000000 		.4byte	.LFE260-.LFB260
 12688 0098 00000000 		.4byte	.LFB261
 12689 009c 90000000 		.4byte	.LFE261-.LFB261
 12690 00a0 00000000 		.4byte	.LFB262
 12691 00a4 70000000 		.4byte	.LFE262-.LFB262
 12692 00a8 00000000 		.4byte	.LFB263
 12693 00ac B8000000 		.4byte	.LFE263-.LFB263
 12694 00b0 00000000 		.4byte	.LFB264
 12695 00b4 8C000000 		.4byte	.LFE264-.LFB264
 12696 00b8 00000000 		.4byte	.LFB265
 12697 00bc 68000000 		.4byte	.LFE265-.LFB265
 12698 00c0 00000000 		.4byte	.LFB266
 12699 00c4 68000000 		.4byte	.LFE266-.LFB266
 12700 00c8 00000000 		.4byte	.LFB267
 12701 00cc 68000000 		.4byte	.LFE267-.LFB267
 12702 00d0 00000000 		.4byte	.LFB268
 12703 00d4 68000000 		.4byte	.LFE268-.LFB268
 12704 00d8 00000000 		.4byte	.LFB269
 12705 00dc 84000000 		.4byte	.LFE269-.LFB269
 12706 00e0 00000000 		.4byte	.LFB270
 12707 00e4 84000000 		.4byte	.LFE270-.LFB270
 12708 00e8 00000000 		.4byte	.LFB271
 12709 00ec 6C000000 		.4byte	.LFE271-.LFB271
 12710 00f0 00000000 		.4byte	.LFB272
 12711 00f4 6C000000 		.4byte	.LFE272-.LFB272
 12712 00f8 00000000 		.4byte	.LFB273
 12713 00fc 80000000 		.4byte	.LFE273-.LFB273
 12714 0100 00000000 		.4byte	.LFB274
 12715 0104 8C010000 		.4byte	.LFE274-.LFB274
 12716 0108 00000000 		.4byte	.LFB275
 12717 010c 30010000 		.4byte	.LFE275-.LFB275
 12718 0110 00000000 		.4byte	.LFB276
 12719 0114 E8000000 		.4byte	.LFE276-.LFB276
 12720 0118 00000000 		.4byte	0
 12721 011c 00000000 		.4byte	0
 12722              		.section	.debug_ranges,"",%progbits
 12723              	.Ldebug_ranges0:
 12724 0000 00000000 		.4byte	.LFB116
 12725 0004 30000000 		.4byte	.LFE116
 12726 0008 00000000 		.4byte	.LFB117
 12727 000c 30000000 		.4byte	.LFE117
 12728 0010 00000000 		.4byte	.LFB118
 12729 0014 28000000 		.4byte	.LFE118
 12730 0018 00000000 		.4byte	.LFB119
 12731 001c 28000000 		.4byte	.LFE119
 12732 0020 00000000 		.4byte	.LFB145
 12733 0024 30000000 		.4byte	.LFE145
 12734 0028 00000000 		.4byte	.LFB146
 12735 002c 58000000 		.4byte	.LFE146
ARM GAS  C:\Users\PCHAUT~1\AppData\Local\Temp\cc7u0cQS.s 			page 225


 12736 0030 00000000 		.4byte	.LFB147
 12737 0034 30000000 		.4byte	.LFE147
 12738 0038 00000000 		.4byte	.LFB148
 12739 003c 30000000 		.4byte	.LFE148
 12740 0040 00000000 		.4byte	.LFB223
 12741 0044 28000000 		.4byte	.LFE223
 12742 0048 00000000 		.4byte	.LFB224
 12743 004c 28000000 		.4byte	.LFE224
 12744 0050 00000000 		.4byte	.LFB225
 12745 0054 28000000 		.4byte	.LFE225
 12746 0058 00000000 		.4byte	.LFB226
 12747 005c 28000000 		.4byte	.LFE226
 12748 0060 00000000 		.4byte	.LFB256
 12749 0064 4C000000 		.4byte	.LFE256
 12750 0068 00000000 		.4byte	.LFB257
 12751 006c 54000000 		.4byte	.LFE257
 12752 0070 00000000 		.4byte	.LFB258
 12753 0074 B8030000 		.4byte	.LFE258
 12754 0078 00000000 		.4byte	.LFB259
 12755 007c 28000000 		.4byte	.LFE259
 12756 0080 00000000 		.4byte	.LFB260
 12757 0084 6C000000 		.4byte	.LFE260
 12758 0088 00000000 		.4byte	.LFB261
 12759 008c 90000000 		.4byte	.LFE261
 12760 0090 00000000 		.4byte	.LFB262
 12761 0094 70000000 		.4byte	.LFE262
 12762 0098 00000000 		.4byte	.LFB263
 12763 009c B8000000 		.4byte	.LFE263
 12764 00a0 00000000 		.4byte	.LFB264
 12765 00a4 8C000000 		.4byte	.LFE264
 12766 00a8 00000000 		.4byte	.LFB265
 12767 00ac 68000000 		.4byte	.LFE265
 12768 00b0 00000000 		.4byte	.LFB266
 12769 00b4 68000000 		.4byte	.LFE266
 12770 00b8 00000000 		.4byte	.LFB267
 12771 00bc 68000000 		.4byte	.LFE267
 12772 00c0 00000000 		.4byte	.LFB268
 12773 00c4 68000000 		.4byte	.LFE268
 12774 00c8 00000000 		.4byte	.LFB269
 12775 00cc 84000000 		.4byte	.LFE269
 12776 00d0 00000000 		.4byte	.LFB270
 12777 00d4 84000000 		.4byte	.LFE270
 12778 00d8 00000000 		.4byte	.LFB271
 12779 00dc 6C000000 		.4byte	.LFE271
 12780 00e0 00000000 		.4byte	.LFB272
 12781 00e4 6C000000 		.4byte	.LFE272
 12782 00e8 00000000 		.4byte	.LFB273
 12783 00ec 80000000 		.4byte	.LFE273
 12784 00f0 00000000 		.4byte	.LFB274
 12785 00f4 8C010000 		.4byte	.LFE274
 12786 00f8 00000000 		.4byte	.LFB275
 12787 00fc 30010000 		.4byte	.LFE275
 12788 0100 00000000 		.4byte	.LFB276
 12789 0104 E8000000 		.4byte	.LFE276
 12790 0108 00000000 		.4byte	0
 12791 010c 00000000 		.4byte	0
 12792              		.section	.debug_line,"",%progbits
ARM GAS  C:\Users\PCHAUT~1\AppData\Local\Temp\cc7u0cQS.s 			page 226


 12793              	.Ldebug_line0:
 12794 0000 770D0000 		.section	.debug_str,"MS",%progbits,1
 12794      02008308 
 12794      00000201 
 12794      FB0E0D00 
 12794      01010101 
 12795              	.LASF682:
 12796 0000 5553425F 		.ascii	"USB_STOP\000"
 12796      53544F50 
 12796      00
 12797              	.LASF297:
 12798 0009 706F7274 		.ascii	"port_intctx\000"
 12798      5F696E74 
 12798      63747800 
 12799              	.LASF306:
 12800 0015 63685F74 		.ascii	"ch_trace_buffer_t\000"
 12800      72616365 
 12800      5F627566 
 12800      6665725F 
 12800      7400
 12801              	.LASF338:
 12802 0027 63685F70 		.ascii	"ch_ptrsize\000"
 12802      74727369 
 12802      7A6500
 12803              	.LASF618:
 12804 0032 6576656E 		.ascii	"event\000"
 12804      7400
 12805              	.LASF839:
 12806 0038 75736249 		.ascii	"usbInitEndpointI\000"
 12806      6E697445 
 12806      6E64706F 
 12806      696E7449 
 12806      00
 12807              	.LASF469:
 12808 0049 43414E5F 		.ascii	"CAN_STARTING\000"
 12808      53544152 
 12808      54494E47 
 12808      00
 12809              	.LASF827:
 12810 0056 5F5F6675 		.ascii	"__func__\000"
 12810      6E635F5F 
 12810      00
 12811              	.LASF141:
 12812 005f 6D73675F 		.ascii	"msg_t\000"
 12812      7400
 12813              	.LASF414:
 12814 0065 61667268 		.ascii	"afrh\000"
 12814      00
 12815              	.LASF561:
 12816 006a 4F504D4F 		.ascii	"OPMODE_SMBUS_DEVICE\000"
 12816      44455F53 
 12816      4D425553 
 12816      5F444556 
 12816      49434500 
 12817              	.LASF317:
 12818 007e 6D5F6372 		.ascii	"m_crit_isr\000"
 12818      69745F69 
ARM GAS  C:\Users\PCHAUT~1\AppData\Local\Temp\cc7u0cQS.s 			page 227


 12818      737200
 12819              	.LASF855:
 12820 0089 706F7274 		.ascii	"port_unlock_from_isr\000"
 12820      5F756E6C 
 12820      6F636B5F 
 12820      66726F6D 
 12820      5F697372 
 12821              	.LASF861:
 12822 009e 433A5C55 		.ascii	"C:\\Users\\Pchautems\\Documents\\RobotiqueTP\\Proje"
 12822      73657273 
 12822      5C506368 
 12822      61757465 
 12822      6D735C44 
 12823 00cc 745C6D69 		.ascii	"t\\miniprojet\000"
 12823      6E697072 
 12823      6F6A6574 
 12823      00
 12824              	.LASF634:
 12825 00d9 73646366 		.ascii	"sdcflags_t\000"
 12825      6C616773 
 12825      5F7400
 12826              	.LASF744:
 12827 00e4 44494550 		.ascii	"DIEPTXF0\000"
 12827      54584630 
 12827      00
 12828              	.LASF820:
 12829 00ed 55534244 		.ascii	"USBD1\000"
 12829      3100
 12830              	.LASF468:
 12831 00f3 43414E5F 		.ascii	"CAN_STOP\000"
 12831      53544F50 
 12831      00
 12832              	.LASF351:
 12833 00fc 63665F6F 		.ascii	"cf_off_time\000"
 12833      66665F74 
 12833      696D6500 
 12834              	.LASF200:
 12835 0108 63685F73 		.ascii	"ch_system_t\000"
 12835      79737465 
 12835      6D5F7400 
 12836              	.LASF5:
 12837 0114 5F5F7569 		.ascii	"__uint8_t\000"
 12837      6E74385F 
 12837      7400
 12838              	.LASF323:
 12839 011e 77747365 		.ascii	"wtsemp\000"
 12839      6D7000
 12840              	.LASF398:
 12841 0125 5F426F6F 		.ascii	"_Bool\000"
 12841      6C00
 12842              	.LASF826:
 12843 012b 5F757362 		.ascii	"_usb_ep0in\000"
 12843      5F657030 
 12843      696E00
 12844              	.LASF510:
 12845 0136 64617461 		.ascii	"datamode\000"
 12845      6D6F6465 
ARM GAS  C:\Users\PCHAUT~1\AppData\Local\Temp\cc7u0cQS.s 			page 228


 12845      00
 12846              	.LASF577:
 12847 013f 646D6172 		.ascii	"dmarx\000"
 12847      7800
 12848              	.LASF70:
 12849 0145 5F6D6273 		.ascii	"_mbstate\000"
 12849      74617465 
 12849      00
 12850              	.LASF49:
 12851 014e 5F617465 		.ascii	"_atexit\000"
 12851      78697400 
 12852              	.LASF848:
 12853 0156 6F73616C 		.ascii	"osalSysUnlock\000"
 12853      53797355 
 12853      6E6C6F63 
 12853      6B00
 12854              	.LASF458:
 12855 0164 73717231 		.ascii	"sqr1\000"
 12855      00
 12856              	.LASF385:
 12857 0169 424C4B5F 		.ascii	"BLK_UNINIT\000"
 12857      554E494E 
 12857      495400
 12858              	.LASF589:
 12859 0174 72785F62 		.ascii	"rx_buffer\000"
 12859      75666665 
 12859      7200
 12860              	.LASF573:
 12861 017e 6572726F 		.ascii	"errors\000"
 12861      727300
 12862              	.LASF310:
 12863 0185 776F7273 		.ascii	"worst\000"
 12863      7400
 12864              	.LASF193:
 12865 018b 76745F73 		.ascii	"vt_systime\000"
 12865      79737469 
 12865      6D6500
 12866              	.LASF259:
 12867 0196 444F5231 		.ascii	"DOR1\000"
 12867      00
 12868              	.LASF260:
 12869 019b 444F5232 		.ascii	"DOR2\000"
 12869      00
 12870              	.LASF588:
 12871 01a0 74785F62 		.ascii	"tx_buffer\000"
 12871      75666665 
 12871      7200
 12872              	.LASF39:
 12873 01aa 5F5F746D 		.ascii	"__tm_mon\000"
 12873      5F6D6F6E 
 12873      00
 12874              	.LASF47:
 12875 01b3 5F666E74 		.ascii	"_fntypes\000"
 12875      79706573 
 12875      00
 12876              	.LASF332:
 12877 01bc 6D5F6E65 		.ascii	"m_next\000"
ARM GAS  C:\Users\PCHAUT~1\AppData\Local\Temp\cc7u0cQS.s 			page 229


 12877      787400
 12878              	.LASF418:
 12879 01c3 50434461 		.ascii	"PCData\000"
 12879      746100
 12880              	.LASF77:
 12881 01ca 5F696E63 		.ascii	"_inc\000"
 12881      00
 12882              	.LASF50:
 12883 01cf 5F696E64 		.ascii	"_ind\000"
 12883      00
 12884              	.LASF282:
 12885 01d4 4D41534B 		.ascii	"MASK\000"
 12885      00
 12886              	.LASF443:
 12887 01d9 73616D70 		.ascii	"samples\000"
 12887      6C657300 
 12888              	.LASF748:
 12889 01e1 47434346 		.ascii	"GCCFG\000"
 12889      4700
 12890              	.LASF539:
 12891 01e7 42445452 		.ascii	"BDTR\000"
 12891      00
 12892              	.LASF492:
 12893 01ec 7265676D 		.ascii	"regmask\000"
 12893      61736B00 
 12894              	.LASF571:
 12895 01f4 49324343 		.ascii	"I2CConfig\000"
 12895      6F6E6669 
 12895      6700
 12896              	.LASF130:
 12897 01fe 75696E74 		.ascii	"uint16_t\000"
 12897      31365F74 
 12897      00
 12898              	.LASF578:
 12899 0207 646D6174 		.ascii	"dmatx\000"
 12899      7800
 12900              	.LASF818:
 12901 020d 736F665F 		.ascii	"sof_cb\000"
 12901      636200
 12902              	.LASF842:
 12903 0214 75736253 		.ascii	"usbStart\000"
 12903      74617274 
 12903      00
 12904              	.LASF515:
 12905 021d 4558545F 		.ascii	"EXT_ACTIVE\000"
 12905      41435449 
 12905      564500
 12906              	.LASF56:
 12907 0228 5F666C61 		.ascii	"_flags\000"
 12907      677300
 12908              	.LASF833:
 12909 022f 75736253 		.ascii	"usbStartReceiveI\000"
 12909      74617274 
 12909      52656365 
 12909      69766549 
 12909      00
 12910              	.LASF411:
ARM GAS  C:\Users\PCHAUT~1\AppData\Local\Temp\cc7u0cQS.s 			page 230


 12911 0240 6F737065 		.ascii	"ospeedr\000"
 12911      65647200 
 12912              	.LASF751:
 12913 0248 44494550 		.ascii	"DIEPTXF\000"
 12913      54584600 
 12914              	.LASF357:
 12915 0250 656C5F6E 		.ascii	"el_next\000"
 12915      65787400 
 12916              	.LASF438:
 12917 0258 4144435F 		.ascii	"ADC_ERR_OVERFLOW\000"
 12917      4552525F 
 12917      4F564552 
 12917      464C4F57 
 12917      00
 12918              	.LASF87:
 12919 0269 5F637674 		.ascii	"_cvtlen\000"
 12919      6C656E00 
 12920              	.LASF198:
 12921 0271 6C6F636B 		.ascii	"lock_cnt\000"
 12921      5F636E74 
 12921      00
 12922              	.LASF174:
 12923 027a 63685F74 		.ascii	"ch_threads_queue\000"
 12923      68726561 
 12923      64735F71 
 12923      75657565 
 12923      00
 12924              	.LASF91:
 12925 028b 5F736967 		.ascii	"_sig_func\000"
 12925      5F66756E 
 12925      6300
 12926              	.LASF153:
 12927 0295 705F6E65 		.ascii	"p_newer\000"
 12927      77657200 
 12928              	.LASF761:
 12929 029d 48505254 		.ascii	"HPRT\000"
 12929      00
 12930              	.LASF715:
 12931 02a2 4843494E 		.ascii	"HCINT\000"
 12931      5400
 12932              	.LASF209:
 12933 02a8 534D5052 		.ascii	"SMPR1\000"
 12933      3100
 12934              	.LASF210:
 12935 02ae 534D5052 		.ascii	"SMPR2\000"
 12935      3200
 12936              	.LASF348:
 12937 02b4 63665F6F 		.ascii	"cf_off_flags\000"
 12937      66665F66 
 12937      6C616773 
 12937      00
 12938              	.LASF69:
 12939 02c1 5F6C6F63 		.ascii	"_lock\000"
 12939      6B00
 12940              	.LASF65:
 12941 02c7 5F6E6275 		.ascii	"_nbuf\000"
 12941      6600
ARM GAS  C:\Users\PCHAUT~1\AppData\Local\Temp\cc7u0cQS.s 			page 231


 12942              	.LASF651:
 12943 02cd 5350495F 		.ascii	"SPI_STOP\000"
 12943      53544F50 
 12943      00
 12944              	.LASF123:
 12945 02d6 5F756E75 		.ascii	"_unused\000"
 12945      73656400 
 12946              	.LASF417:
 12947 02de 50424461 		.ascii	"PBData\000"
 12947      746100
 12948              	.LASF336:
 12949 02e5 63685F73 		.ascii	"ch_size\000"
 12949      697A6500 
 12950              	.LASF757:
 12951 02ed 48505458 		.ascii	"HPTXSTS\000"
 12951      53545300 
 12952              	.LASF410:
 12953 02f5 6F747970 		.ascii	"otyper\000"
 12953      657200
 12954              	.LASF401:
 12955 02fc 4F545950 		.ascii	"OTYPER\000"
 12955      455200
 12956              	.LASF494:
 12957 0303 64616370 		.ascii	"dacparams_t\000"
 12957      6172616D 
 12957      735F7400 
 12958              	.LASF629:
 12959 030f 5344435F 		.ascii	"SDC_MODE_1BIT\000"
 12959      4D4F4445 
 12959      5F314249 
 12959      5400
 12960              	.LASF713:
 12961 031d 48434348 		.ascii	"HCCHAR\000"
 12961      415200
 12962              	.LASF555:
 12963 0324 4932435F 		.ascii	"I2C_ACTIVE_RX\000"
 12963      41435449 
 12963      56455F52 
 12963      5800
 12964              	.LASF147:
 12965 0332 74687265 		.ascii	"thread_t\000"
 12965      61645F74 
 12965      00
 12966              	.LASF359:
 12967 033b 656C5F65 		.ascii	"el_events\000"
 12967      76656E74 
 12967      7300
 12968              	.LASF598:
 12969 0345 70776D73 		.ascii	"pwmstate_t\000"
 12969      74617465 
 12969      5F7400
 12970              	.LASF479:
 12971 0350 736C6565 		.ascii	"sleep_event\000"
 12971      705F6576 
 12971      656E7400 
 12972              	.LASF192:
 12973 035c 63685F76 		.ascii	"ch_virtual_timers_list\000"
ARM GAS  C:\Users\PCHAUT~1\AppData\Local\Temp\cc7u0cQS.s 			page 232


 12973      69727475 
 12973      616C5F74 
 12973      696D6572 
 12973      735F6C69 
 12974              	.LASF382:
 12975 0373 76656374 		.ascii	"vector\000"
 12975      6F7200
 12976              	.LASF739:
 12977 037a 47494E54 		.ascii	"GINTSTS\000"
 12977      53545300 
 12978              	.LASF131:
 12979 0382 696E7433 		.ascii	"int32_t\000"
 12979      325F7400 
 12980              	.LASF569:
 12981 038a 636C6F63 		.ascii	"clock_speed\000"
 12981      6B5F7370 
 12981      65656400 
 12982              	.LASF146:
 12983 0396 73797374 		.ascii	"systime_t\000"
 12983      696D655F 
 12983      7400
 12984              	.LASF512:
 12985 03a0 44414344 		.ascii	"DACD2\000"
 12985      3200
 12986              	.LASF481:
 12987 03a6 43414E44 		.ascii	"CANDriver\000"
 12987      72697665 
 12987      7200
 12988              	.LASF101:
 12989 03b0 5F616464 		.ascii	"_add\000"
 12989      00
 12990              	.LASF263:
 12991 03b5 4D304152 		.ascii	"M0AR\000"
 12991      00
 12992              	.LASF720:
 12993 03ba 72657376 		.ascii	"resvd1c\000"
 12993      64316300 
 12994              	.LASF559:
 12995 03c2 69326366 		.ascii	"i2cflags_t\000"
 12995      6C616773 
 12995      5F7400
 12996              	.LASF758:
 12997 03cd 4841494E 		.ascii	"HAINT\000"
 12997      5400
 12998              	.LASF689:
 12999 03d3 45505F53 		.ascii	"EP_STATUS_ACTIVE\000"
 12999      54415455 
 12999      535F4143 
 12999      54495645 
 12999      00
 13000              	.LASF245:
 13001 03e4 46413152 		.ascii	"FA1R\000"
 13001      00
 13002              	.LASF755:
 13003 03e9 48464E55 		.ascii	"HFNUM\000"
 13003      4D00
 13004              	.LASF375:
ARM GAS  C:\Users\PCHAUT~1\AppData\Local\Temp\cc7u0cQS.s 			page 233


 13005 03ef 716E6F74 		.ascii	"qnotify_t\000"
 13005      6966795F 
 13005      7400
 13006              	.LASF434:
 13007 03f9 61646373 		.ascii	"adcstate_t\000"
 13007      74617465 
 13007      5F7400
 13008              	.LASF637:
 13009 0404 63617264 		.ascii	"cardmode\000"
 13009      6D6F6465 
 13009      00
 13010              	.LASF380:
 13011 040d 69736869 		.ascii	"ishift\000"
 13011      667400
 13012              	.LASF822:
 13013 0414 61637469 		.ascii	"active_status\000"
 13013      76655F73 
 13013      74617475 
 13013      7300
 13014              	.LASF529:
 13015 0422 4750545F 		.ascii	"GPT_ONESHOT\000"
 13015      4F4E4553 
 13015      484F5400 
 13016              	.LASF370:
 13017 042e 715F746F 		.ascii	"q_top\000"
 13017      7000
 13018              	.LASF58:
 13019 0434 5F6C6266 		.ascii	"_lbfsize\000"
 13019      73697A65 
 13019      00
 13020              	.LASF706:
 13021 043d 75645F73 		.ascii	"ud_string\000"
 13021      7472696E 
 13021      6700
 13022              	.LASF572:
 13023 0447 49324344 		.ascii	"I2CDriver\000"
 13023      72697665 
 13023      7200
 13024              	.LASF554:
 13025 0451 4932435F 		.ascii	"I2C_ACTIVE_TX\000"
 13025      41435449 
 13025      56455F54 
 13025      5800
 13026              	.LASF624:
 13027 045f 72656164 		.ascii	"read\000"
 13027      00
 13028              	.LASF560:
 13029 0464 4F504D4F 		.ascii	"OPMODE_I2C\000"
 13029      44455F49 
 13029      324300
 13030              	.LASF767:
 13031 046f 72657376 		.ascii	"resvd80C\000"
 13031      64383043 
 13031      00
 13032              	.LASF815:
 13033 0478 6576656E 		.ascii	"event_cb\000"
 13033      745F6362 
ARM GAS  C:\Users\PCHAUT~1\AppData\Local\Temp\cc7u0cQS.s 			page 234


 13033      00
 13034              	.LASF734:
 13035 0481 474F5447 		.ascii	"GOTGCTL\000"
 13035      43544C00 
 13036              	.LASF709:
 13037 0489 75736265 		.ascii	"usbepcallback_t\000"
 13037      7063616C 
 13037      6C626163 
 13037      6B5F7400 
 13038              	.LASF68:
 13039 0499 5F646174 		.ascii	"_data\000"
 13039      6100
 13040              	.LASF203:
 13041 049f 76746C69 		.ascii	"vtlist\000"
 13041      737400
 13042              	.LASF268:
 13043 04a6 54524953 		.ascii	"TRISE\000"
 13043      4500
 13044              	.LASF773:
 13045 04ac 72657376 		.ascii	"resvd824\000"
 13045      64383234 
 13045      00
 13046              	.LASF162:
 13047 04b5 705F7761 		.ascii	"p_waiting\000"
 13047      6974696E 
 13047      6700
 13048              	.LASF318:
 13049 04bf 6B65726E 		.ascii	"kernel_stats_t\000"
 13049      656C5F73 
 13049      74617473 
 13049      5F7400
 13050              	.LASF367:
 13051 04ce 715F7761 		.ascii	"q_waiting\000"
 13051      6974696E 
 13051      6700
 13052              	.LASF227:
 13053 04d8 43414E5F 		.ascii	"CAN_TxMailBox_TypeDef\000"
 13053      54784D61 
 13053      696C426F 
 13053      785F5479 
 13053      70654465 
 13054              	.LASF202:
 13055 04ee 726C6973 		.ascii	"rlist\000"
 13055      7400
 13056              	.LASF171:
 13057 04f4 74687265 		.ascii	"threads_list_t\000"
 13057      6164735F 
 13057      6C697374 
 13057      5F7400
 13058              	.LASF308:
 13059 0503 746D5F63 		.ascii	"tm_calibration_t\000"
 13059      616C6962 
 13059      72617469 
 13059      6F6E5F74 
 13059      00
 13060              	.LASF376:
 13061 0514 696E7075 		.ascii	"input_queue_t\000"
ARM GAS  C:\Users\PCHAUT~1\AppData\Local\Temp\cc7u0cQS.s 			page 235


 13061      745F7175 
 13061      6575655F 
 13061      7400
 13062              	.LASF461:
 13063 0522 41444343 		.ascii	"ADCConversionGroup\000"
 13063      6F6E7665 
 13063      7273696F 
 13063      6E47726F 
 13063      757000
 13064              	.LASF766:
 13065 0535 44535453 		.ascii	"DSTS\000"
 13065      00
 13066              	.LASF124:
 13067 053a 5F5F6C6F 		.ascii	"__lock\000"
 13067      636B00
 13068              	.LASF564:
 13069 0541 5354445F 		.ascii	"STD_DUTY_CYCLE\000"
 13069      44555459 
 13069      5F435943 
 13069      4C4500
 13070              	.LASF72:
 13071 0550 5F726565 		.ascii	"_reent\000"
 13071      6E7400
 13072              	.LASF344:
 13073 0557 63665F6F 		.ascii	"cf_off_older\000"
 13073      66665F6F 
 13073      6C646572 
 13073      00
 13074              	.LASF135:
 13075 0564 72747469 		.ascii	"rttime_t\000"
 13075      6D655F74 
 13075      00
 13076              	.LASF524:
 13077 056d 45585444 		.ascii	"EXTD1\000"
 13077      3100
 13078              	.LASF800:
 13079 0573 72787175 		.ascii	"rxqueued\000"
 13079      65756564 
 13079      00
 13080              	.LASF472:
 13081 057c 63616E73 		.ascii	"canstate_t\000"
 13081      74617465 
 13081      5F7400
 13082              	.LASF247:
 13083 0587 7346696C 		.ascii	"sFilterRegister\000"
 13083      74657252 
 13083      65676973 
 13083      74657200 
 13084              	.LASF93:
 13085 0597 5F5F7366 		.ascii	"__sf\000"
 13085      00
 13086              	.LASF772:
 13087 059c 72657376 		.ascii	"resvd820\000"
 13087      64383230 
 13087      00
 13088              	.LASF53:
 13089 05a5 5F626173 		.ascii	"_base\000"
ARM GAS  C:\Users\PCHAUT~1\AppData\Local\Temp\cc7u0cQS.s 			page 236


 13089      6500
 13090              	.LASF274:
 13091 05ab 52455350 		.ascii	"RESP1\000"
 13091      3100
 13092              	.LASF275:
 13093 05b1 52455350 		.ascii	"RESP2\000"
 13093      3200
 13094              	.LASF276:
 13095 05b7 52455350 		.ascii	"RESP3\000"
 13095      3300
 13096              	.LASF277:
 13097 05bd 52455350 		.ascii	"RESP4\000"
 13097      3400
 13098              	.LASF110:
 13099 05c3 5F6D6274 		.ascii	"_mbtowc_state\000"
 13099      6F77635F 
 13099      73746174 
 13099      6500
 13100              	.LASF846:
 13101 05d1 6F73616C 		.ascii	"osalSysUnlockFromISR\000"
 13101      53797355 
 13101      6E6C6F63 
 13101      6B46726F 
 13101      6D495352 
 13102              	.LASF551:
 13103 05e6 4932435F 		.ascii	"I2C_UNINIT\000"
 13103      554E494E 
 13103      495400
 13104              	.LASF711:
 13105 05f1 75736272 		.ascii	"usbreqhandler_t\000"
 13105      65716861 
 13105      6E646C65 
 13105      725F7400 
 13106              	.LASF432:
 13107 0601 4144435F 		.ascii	"ADC_COMPLETE\000"
 13107      434F4D50 
 13107      4C455445 
 13107      00
 13108              	.LASF548:
 13109 060e 47505443 		.ascii	"GPTConfig\000"
 13109      6F6E6669 
 13109      6700
 13110              	.LASF613:
 13111 0618 53445F55 		.ascii	"SD_UNINIT\000"
 13111      4E494E49 
 13111      5400
 13112              	.LASF830:
 13113 0622 75736253 		.ascii	"usbStallTransmitI\000"
 13113      74616C6C 
 13113      5472616E 
 13113      736D6974 
 13113      4900
 13114              	.LASF140:
 13115 0634 74707269 		.ascii	"tprio_t\000"
 13115      6F5F7400 
 13116              	.LASF314:
 13117 063c 6E5F6972 		.ascii	"n_irq\000"
ARM GAS  C:\Users\PCHAUT~1\AppData\Local\Temp\cc7u0cQS.s 			page 237


 13117      7100
 13118              	.LASF592:
 13119 0642 69327370 		.ascii	"i2spr\000"
 13119      7200
 13120              	.LASF776:
 13121 0648 72657376 		.ascii	"resvd830\000"
 13121      64383330 
 13121      00
 13122              	.LASF34:
 13123 0651 5F5F746D 		.ascii	"__tm\000"
 13123      00
 13124              	.LASF778:
 13125 0656 72657376 		.ascii	"resvd838\000"
 13125      64383338 
 13125      00
 13126              	.LASF567:
 13127 065f 69326364 		.ascii	"i2cdutycycle_t\000"
 13127      75747963 
 13127      79636C65 
 13127      5F7400
 13128              	.LASF779:
 13129 066e 72657376 		.ascii	"resvd83C\000"
 13129      64383343 
 13129      00
 13130              	.LASF446:
 13131 0677 74687265 		.ascii	"thread\000"
 13131      616400
 13132              	.LASF491:
 13133 067e 72656773 		.ascii	"regshift\000"
 13133      68696674 
 13133      00
 13134              	.LASF671:
 13135 0687 73657475 		.ascii	"setup\000"
 13135      7000
 13136              	.LASF650:
 13137 068d 5350495F 		.ascii	"SPI_UNINIT\000"
 13137      554E494E 
 13137      495400
 13138              	.LASF727:
 13139 0698 44545846 		.ascii	"DTXFSTS\000"
 13139      53545300 
 13140              	.LASF395:
 13141 06a0 626C6B5F 		.ascii	"blk_size\000"
 13141      73697A65 
 13141      00
 13142              	.LASF553:
 13143 06a9 4932435F 		.ascii	"I2C_READY\000"
 13143      52454144 
 13143      5900
 13144              	.LASF42:
 13145 06b3 5F5F746D 		.ascii	"__tm_yday\000"
 13145      5F796461 
 13145      7900
 13146              	.LASF665:
 13147 06bd 696E5F70 		.ascii	"in_params\000"
 13147      6172616D 
 13147      7300
ARM GAS  C:\Users\PCHAUT~1\AppData\Local\Temp\cc7u0cQS.s 			page 238


 13148              	.LASF538:
 13149 06c7 43434552 		.ascii	"CCER\000"
 13149      00
 13150              	.LASF290:
 13151 06cc 49325350 		.ascii	"I2SPR\000"
 13151      5200
 13152              	.LASF595:
 13153 06d2 50574D5F 		.ascii	"PWM_UNINIT\000"
 13153      554E494E 
 13153      495400
 13154              	.LASF309:
 13155 06dd 62657374 		.ascii	"best\000"
 13155      00
 13156              	.LASF736:
 13157 06e2 47414842 		.ascii	"GAHBCFG\000"
 13157      43464700 
 13158              	.LASF501:
 13159 06ea 64616363 		.ascii	"daccallback_t\000"
 13159      616C6C62 
 13159      61636B5F 
 13159      7400
 13160              	.LASF17:
 13161 06f8 5F4C4F43 		.ascii	"_LOCK_T\000"
 13161      4B5F5400 
 13162              	.LASF780:
 13163 0700 72657376 		.ascii	"resvd840\000"
 13163      64383430 
 13163      00
 13164              	.LASF286:
 13165 0709 43524350 		.ascii	"CRCPR\000"
 13165      5200
 13166              	.LASF390:
 13167 070f 424C4B5F 		.ascii	"BLK_READY\000"
 13167      52454144 
 13167      5900
 13168              	.LASF7:
 13169 0719 5F5F696E 		.ascii	"__int16_t\000"
 13169      7431365F 
 13169      7400
 13170              	.LASF9:
 13171 0723 5F5F7569 		.ascii	"__uint16_t\000"
 13171      6E743136 
 13171      5F7400
 13172              	.LASF528:
 13173 072e 4750545F 		.ascii	"GPT_CONTINUOUS\000"
 13173      434F4E54 
 13173      494E554F 
 13173      555300
 13174              	.LASF794:
 13175 073d 74787175 		.ascii	"txqueued\000"
 13175      65756564 
 13175      00
 13176              	.LASF164:
 13177 0746 705F6D73 		.ascii	"p_msg\000"
 13177      6700
 13178              	.LASF102:
 13179 074c 5F756E75 		.ascii	"_unused_rand\000"
ARM GAS  C:\Users\PCHAUT~1\AppData\Local\Temp\cc7u0cQS.s 			page 239


 13179      7365645F 
 13179      72616E64 
 13179      00
 13180              	.LASF733:
 13181 0759 73746D33 		.ascii	"stm32_otg_out_ep_t\000"
 13181      325F6F74 
 13181      675F6F75 
 13181      745F6570 
 13181      5F7400
 13182              	.LASF742:
 13183 076c 47525853 		.ascii	"GRXSTSP\000"
 13183      54535000 
 13184              	.LASF741:
 13185 0774 47525853 		.ascii	"GRXSTSR\000"
 13185      54535200 
 13186              	.LASF838:
 13187 077c 75736244 		.ascii	"usbDisableEndpointsI\000"
 13187      69736162 
 13187      6C65456E 
 13187      64706F69 
 13187      6E747349 
 13188              	.LASF320:
 13189 0791 65786974 		.ascii	"exitcode\000"
 13189      636F6465 
 13189      00
 13190              	.LASF264:
 13191 079a 4D314152 		.ascii	"M1AR\000"
 13191      00
 13192              	.LASF678:
 13193 079f 77616974 		.ascii	"wait\000"
 13193      00
 13194              	.LASF265:
 13195 07a4 444D415F 		.ascii	"DMA_Stream_TypeDef\000"
 13195      53747265 
 13195      616D5F54 
 13195      79706544 
 13195      656600
 13196              	.LASF829:
 13197 07b7 5F757362 		.ascii	"_usb_reset\000"
 13197      5F726573 
 13197      657400
 13198              	.LASF685:
 13199 07c2 5553425F 		.ascii	"USB_ACTIVE\000"
 13199      41435449 
 13199      564500
 13200              	.LASF729:
 13201 07cd 73746D33 		.ascii	"stm32_otg_in_ep_t\000"
 13201      325F6F74 
 13201      675F696E 
 13201      5F65705F 
 13201      7400
 13202              	.LASF802:
 13203 07df 7278636E 		.ascii	"rxcnt\000"
 13203      7400
 13204              	.LASF428:
 13205 07e5 4144435F 		.ascii	"ADC_UNINIT\000"
 13205      554E494E 
ARM GAS  C:\Users\PCHAUT~1\AppData\Local\Temp\cc7u0cQS.s 			page 240


 13205      495400
 13206              	.LASF575:
 13207 07f0 7278646D 		.ascii	"rxdmamode\000"
 13207      616D6F64 
 13207      6500
 13208              	.LASF84:
 13209 07fa 5F726573 		.ascii	"_result_k\000"
 13209      756C745F 
 13209      6B00
 13210              	.LASF520:
 13211 0804 6D6F6465 		.ascii	"mode\000"
 13211      00
 13212              	.LASF76:
 13213 0809 5F737464 		.ascii	"_stderr\000"
 13213      65727200 
 13214              	.LASF83:
 13215 0811 5F726573 		.ascii	"_result\000"
 13215      756C7400 
 13216              	.LASF333:
 13217 0819 6D5F636E 		.ascii	"m_cnt\000"
 13217      7400
 13218              	.LASF517:
 13219 081f 45585444 		.ascii	"EXTDriver\000"
 13219      72697665 
 13219      7200
 13220              	.LASF46:
 13221 0829 5F64736F 		.ascii	"_dso_handle\000"
 13221      5F68616E 
 13221      646C6500 
 13222              	.LASF587:
 13223 0835 69327363 		.ascii	"i2scallback_t\000"
 13223      616C6C62 
 13223      61636B5F 
 13223      7400
 13224              	.LASF659:
 13225 0843 73737061 		.ascii	"sspad\000"
 13225      6400
 13226              	.LASF576:
 13227 0849 7478646D 		.ascii	"txdmamode\000"
 13227      616D6F64 
 13227      6500
 13228              	.LASF544:
 13229 0853 67707466 		.ascii	"gptfreq_t\000"
 13229      7265715F 
 13229      7400
 13230              	.LASF859:
 13231 085d 474E5520 		.ascii	"GNU C11 7.2.1 20170904 (release) [ARM/embedded-7-br"
 13231      43313120 
 13231      372E322E 
 13231      31203230 
 13231      31373039 
 13232 0890 616E6368 		.ascii	"anch revision 255204] -mcpu=cortex-m4 -mfloat-abi=h"
 13232      20726576 
 13232      6973696F 
 13232      6E203235 
 13232      35323034 
 13233 08c3 61726420 		.ascii	"ard -mfpu=fpv4-sp-d16 -mno-thumb-interwork -mthumb "
ARM GAS  C:\Users\PCHAUT~1\AppData\Local\Temp\cc7u0cQS.s 			page 241


 13233      2D6D6670 
 13233      753D6670 
 13233      76342D73 
 13233      702D6431 
 13234 08f6 2D676764 		.ascii	"-ggdb -O0 -fomit-frame-pointer -falign-functions=16"
 13234      62202D4F 
 13234      30202D66 
 13234      6F6D6974 
 13234      2D667261 
 13235 0929 202D666E 		.ascii	" -fno-strict-aliasing -fstack-protector-all -ffunct"
 13235      6F2D7374 
 13235      72696374 
 13235      2D616C69 
 13235      6173696E 
 13236 095c 696F6E2D 		.ascii	"ion-sections -fdata-sections -fno-common -fsingle-p"
 13236      73656374 
 13236      696F6E73 
 13236      202D6664 
 13236      6174612D 
 13237 098f 72656369 		.ascii	"recision-constant\000"
 13237      73696F6E 
 13237      2D636F6E 
 13237      7374616E 
 13237      7400
 13238              	.LASF43:
 13239 09a1 5F5F746D 		.ascii	"__tm_isdst\000"
 13239      5F697364 
 13239      737400
 13240              	.LASF787:
 13241 09ac 72785F66 		.ascii	"rx_fifo_size\000"
 13241      69666F5F 
 13241      73697A65 
 13241      00
 13242              	.LASF295:
 13243 09b9 73746B61 		.ascii	"stkalign_t\000"
 13243      6C69676E 
 13243      5F7400
 13244              	.LASF499:
 13245 09c4 4441435F 		.ascii	"DAC_ERR_UNDERFLOW\000"
 13245      4552525F 
 13245      554E4445 
 13245      52464C4F 
 13245      5700
 13246              	.LASF41:
 13247 09d6 5F5F746D 		.ascii	"__tm_wday\000"
 13247      5F776461 
 13247      7900
 13248              	.LASF480:
 13249 09e0 77616B65 		.ascii	"wakeup_event\000"
 13249      75705F65 
 13249      76656E74 
 13249      00
 13250              	.LASF187:
 13251 09ed 76745F70 		.ascii	"vt_prev\000"
 13251      72657600 
 13252              	.LASF454:
 13253 09f5 656E645F 		.ascii	"end_cb\000"
ARM GAS  C:\Users\PCHAUT~1\AppData\Local\Temp\cc7u0cQS.s 			page 242


 13253      636200
 13254              	.LASF805:
 13255 09fc 73657475 		.ascii	"setup_cb\000"
 13255      705F6362 
 13255      00
 13256              	.LASF6:
 13257 0a05 756E7369 		.ascii	"unsigned char\000"
 13257      676E6564 
 13257      20636861 
 13257      7200
 13258              	.LASF75:
 13259 0a13 5F737464 		.ascii	"_stdout\000"
 13259      6F757400 
 13260              	.LASF284:
 13261 0a1b 4649464F 		.ascii	"FIFO\000"
 13261      00
 13262              	.LASF305:
 13263 0a20 74625F62 		.ascii	"tb_buffer\000"
 13263      75666665 
 13263      7200
 13264              	.LASF474:
 13265 0a2a 74787175 		.ascii	"txqueue\000"
 13265      65756500 
 13266              	.LASF328:
 13267 0a32 735F636E 		.ascii	"s_cnt\000"
 13267      7400
 13268              	.LASF175:
 13269 0a38 72656164 		.ascii	"ready_list_t\000"
 13269      795F6C69 
 13269      73745F74 
 13269      00
 13270              	.LASF148:
 13271 0a45 63685F74 		.ascii	"ch_thread\000"
 13271      68726561 
 13271      6400
 13272              	.LASF562:
 13273 0a4f 4F504D4F 		.ascii	"OPMODE_SMBUS_HOST\000"
 13273      44455F53 
 13273      4D425553 
 13273      5F484F53 
 13273      5400
 13274              	.LASF117:
 13275 0a61 5F6D6273 		.ascii	"_mbsrtowcs_state\000"
 13275      72746F77 
 13275      63735F73 
 13275      74617465 
 13275      00
 13276              	.LASF680:
 13277 0a72 75736265 		.ascii	"usbep_t\000"
 13277      705F7400 
 13278              	.LASF32:
 13279 0a7a 5F776473 		.ascii	"_wds\000"
 13279      00
 13280              	.LASF513:
 13281 0a7f 4558545F 		.ascii	"EXT_UNINIT\000"
 13281      554E494E 
 13281      495400
ARM GAS  C:\Users\PCHAUT~1\AppData\Local\Temp\cc7u0cQS.s 			page 243


 13282              	.LASF471:
 13283 0a8a 43414E5F 		.ascii	"CAN_SLEEP\000"
 13283      534C4545 
 13283      5000
 13284              	.LASF301:
 13285 0a94 73655F73 		.ascii	"se_state\000"
 13285      74617465 
 13285      00
 13286              	.LASF54:
 13287 0a9d 5F73697A 		.ascii	"_size\000"
 13287      6500
 13288              	.LASF649:
 13289 0aa3 53444344 		.ascii	"SDCD1\000"
 13289      3100
 13290              	.LASF194:
 13291 0aa9 73797374 		.ascii	"system_debug_t\000"
 13291      656D5F64 
 13291      65627567 
 13291      5F7400
 13292              	.LASF252:
 13293 0ab8 44485238 		.ascii	"DHR8R1\000"
 13293      523100
 13294              	.LASF255:
 13295 0abf 44485238 		.ascii	"DHR8R2\000"
 13295      523200
 13296              	.LASF535:
 13297 0ac6 44494552 		.ascii	"DIER\000"
 13297      00
 13298              	.LASF152:
 13299 0acb 705F6374 		.ascii	"p_ctx\000"
 13299      7800
 13300              	.LASF190:
 13301 0ad1 76745F70 		.ascii	"vt_par\000"
 13301      617200
 13302              	.LASF211:
 13303 0ad8 4A4F4652 		.ascii	"JOFR1\000"
 13303      3100
 13304              	.LASF212:
 13305 0ade 4A4F4652 		.ascii	"JOFR2\000"
 13305      3200
 13306              	.LASF214:
 13307 0ae4 4A4F4652 		.ascii	"JOFR4\000"
 13307      3400
 13308              	.LASF61:
 13309 0aea 5F777269 		.ascii	"_write\000"
 13309      746500
 13310              	.LASF288:
 13311 0af1 54584352 		.ascii	"TXCRCR\000"
 13311      435200
 13312              	.LASF506:
 13313 0af8 64616364 		.ascii	"dacdhrmode_t\000"
 13313      68726D6F 
 13313      64655F74 
 13313      00
 13314              	.LASF448:
 13315 0b05 646D6173 		.ascii	"dmastp\000"
 13315      747000
ARM GAS  C:\Users\PCHAUT~1\AppData\Local\Temp\cc7u0cQS.s 			page 244


 13316              	.LASF566:
 13317 0b0c 46415354 		.ascii	"FAST_DUTY_CYCLE_16_9\000"
 13317      5F445554 
 13317      595F4359 
 13317      434C455F 
 13317      31365F39 
 13318              	.LASF133:
 13319 0b21 75696E74 		.ascii	"uint64_t\000"
 13319      36345F74 
 13319      00
 13320              	.LASF315:
 13321 0b2a 6E5F6374 		.ascii	"n_ctxswc\000"
 13321      78737763 
 13321      00
 13322              	.LASF353:
 13323 0b33 63685F64 		.ascii	"ch_debug\000"
 13323      65627567 
 13323      00
 13324              	.LASF509:
 13325 0b3c 696E6974 		.ascii	"init\000"
 13325      00
 13326              	.LASF239:
 13327 0b41 464D3152 		.ascii	"FM1R\000"
 13327      00
 13328              	.LASF425:
 13329 0b46 50414C43 		.ascii	"PALConfig\000"
 13329      6F6E6669 
 13329      6700
 13330              	.LASF796:
 13331 0b50 7478636E 		.ascii	"txcnt\000"
 13331      7400
 13332              	.LASF710:
 13333 0b56 75736265 		.ascii	"usbeventcb_t\000"
 13333      76656E74 
 13333      63625F74 
 13333      00
 13334              	.LASF387:
 13335 0b63 424C4B5F 		.ascii	"BLK_ACTIVE\000"
 13335      41435449 
 13335      564500
 13336              	.LASF40:
 13337 0b6e 5F5F746D 		.ascii	"__tm_year\000"
 13337      5F796561 
 13337      7200
 13338              	.LASF355:
 13339 0b78 6576656E 		.ascii	"event_listener_t\000"
 13339      745F6C69 
 13339      7374656E 
 13339      65725F74 
 13339      00
 13340              	.LASF788:
 13341 0b89 6F74675F 		.ascii	"otg_ram_size\000"
 13341      72616D5F 
 13341      73697A65 
 13341      00
 13342              	.LASF832:
 13343 0b96 75736253 		.ascii	"usbStartTransmitI\000"
ARM GAS  C:\Users\PCHAUT~1\AppData\Local\Temp\cc7u0cQS.s 			page 245


 13343      74617274 
 13343      5472616E 
 13343      736D6974 
 13343      4900
 13344              	.LASF790:
 13345 0ba8 73746D33 		.ascii	"stm32_otg_params_t\000"
 13345      325F6F74 
 13345      675F7061 
 13345      72616D73 
 13345      5F7400
 13346              	.LASF783:
 13347 0bbb 72657376 		.ascii	"resvdD00\000"
 13347      64443030 
 13347      00
 13348              	.LASF287:
 13349 0bc4 52584352 		.ascii	"RXCRCR\000"
 13349      435200
 13350              	.LASF799:
 13351 0bcb 72786275 		.ascii	"rxbuf\000"
 13351      6600
 13352              	.LASF100:
 13353 0bd1 5F6D756C 		.ascii	"_mult\000"
 13353      7400
 13354              	.LASF329:
 13355 0bd7 63685F6D 		.ascii	"ch_mutex\000"
 13355      75746578 
 13355      00
 13356              	.LASF825:
 13357 0be0 5F757362 		.ascii	"_usb_ep0out\000"
 13357      5F657030 
 13357      6F757400 
 13358              	.LASF477:
 13359 0bec 7478656D 		.ascii	"txempty_event\000"
 13359      7074795F 
 13359      6576656E 
 13359      7400
 13360              	.LASF599:
 13361 0bfa 50574D44 		.ascii	"PWMDriver\000"
 13361      72697665 
 13361      7200
 13362              	.LASF422:
 13363 0c04 50474461 		.ascii	"PGData\000"
 13363      746100
 13364              	.LASF608:
 13365 0c0b 50574D43 		.ascii	"PWMConfig\000"
 13365      6F6E6669 
 13365      6700
 13366              	.LASF115:
 13367 0c15 5F6D6272 		.ascii	"_mbrlen_state\000"
 13367      6C656E5F 
 13367      73746174 
 13367      6500
 13368              	.LASF864:
 13369 0c23 76616C75 		.ascii	"value\000"
 13369      6500
 13370              	.LASF343:
 13371 0c29 63665F6F 		.ascii	"cf_off_newer\000"
ARM GAS  C:\Users\PCHAUT~1\AppData\Local\Temp\cc7u0cQS.s 			page 246


 13371      66665F6E 
 13371      65776572 
 13371      00
 13372              	.LASF768:
 13373 0c36 44494550 		.ascii	"DIEPMSK\000"
 13373      4D534B00 
 13374              	.LASF735:
 13375 0c3e 474F5447 		.ascii	"GOTGINT\000"
 13375      494E5400 
 13376              	.LASF807:
 13377 0c46 6F75745F 		.ascii	"out_cb\000"
 13377      636200
 13378              	.LASF759:
 13379 0c4d 4841494E 		.ascii	"HAINTMSK\000"
 13379      544D534B 
 13379      00
 13380              	.LASF666:
 13381 0c56 6F75745F 		.ascii	"out_params\000"
 13381      70617261 
 13381      6D7300
 13382              	.LASF300:
 13383 0c61 73655F77 		.ascii	"se_wtobjp\000"
 13383      746F626A 
 13383      7000
 13384              	.LASF835:
 13385 0c6b 75736250 		.ascii	"usbPrepareQueuedReceive\000"
 13385      72657061 
 13385      72655175 
 13385      65756564 
 13385      52656365 
 13386              	.LASF218:
 13387 0c83 4A535152 		.ascii	"JSQR\000"
 13387      00
 13388              	.LASF74:
 13389 0c88 5F737464 		.ascii	"_stdin\000"
 13389      696E00
 13390              	.LASF122:
 13391 0c8f 5F6E6D61 		.ascii	"_nmalloc\000"
 13391      6C6C6F63 
 13391      00
 13392              	.LASF547:
 13393 0c98 64696572 		.ascii	"dier\000"
 13393      00
 13394              	.LASF644:
 13395 0c9d 69735F70 		.ascii	"is_protected\000"
 13395      726F7465 
 13395      63746564 
 13395      00
 13396              	.LASF184:
 13397 0caa 76697274 		.ascii	"virtual_timer_t\000"
 13397      75616C5F 
 13397      74696D65 
 13397      725F7400 
 13398              	.LASF809:
 13399 0cba 6F75745F 		.ascii	"out_maxsize\000"
 13399      6D617873 
 13399      697A6500 
ARM GAS  C:\Users\PCHAUT~1\AppData\Local\Temp\cc7u0cQS.s 			page 247


 13400              	.LASF179:
 13401 0cc6 725F6374 		.ascii	"r_ctx\000"
 13401      7800
 13402              	.LASF186:
 13403 0ccc 76745F6E 		.ascii	"vt_next\000"
 13403      65787400 
 13404              	.LASF581:
 13405 0cd4 4932535F 		.ascii	"I2S_STOP\000"
 13405      53544F50 
 13405      00
 13406              	.LASF596:
 13407 0cdd 50574D5F 		.ascii	"PWM_STOP\000"
 13407      53544F50 
 13407      00
 13408              	.LASF134:
 13409 0ce6 7274636E 		.ascii	"rtcnt_t\000"
 13409      745F7400 
 13410              	.LASF447:
 13411 0cee 6D757465 		.ascii	"mutex\000"
 13411      7800
 13412              	.LASF590:
 13413 0cf4 73697A65 		.ascii	"size\000"
 13413      00
 13414              	.LASF495:
 13415 0cf9 44414344 		.ascii	"DACDriver\000"
 13415      72697665 
 13415      7200
 13416              	.LASF511:
 13417 0d03 44414343 		.ascii	"DACConfig\000"
 13417      6F6E6669 
 13417      6700
 13418              	.LASF677:
 13419 0d0d 74787065 		.ascii	"txpending\000"
 13419      6E64696E 
 13419      6700
 13420              	.LASF532:
 13421 0d17 636C6F63 		.ascii	"clock\000"
 13421      6B00
 13422              	.LASF399:
 13423 0d1d 636C6561 		.ascii	"clear\000"
 13423      7200
 13424              	.LASF542:
 13425 0d23 43435852 		.ascii	"CCXR\000"
 13425      00
 13426              	.LASF248:
 13427 0d28 43414E5F 		.ascii	"CAN_TypeDef\000"
 13427      54797065 
 13427      44656600 
 13428              	.LASF18:
 13429 0d34 5F6F6666 		.ascii	"_off_t\000"
 13429      5F7400
 13430              	.LASF834:
 13431 0d3b 75736250 		.ascii	"usbPrepareQueuedTransmit\000"
 13431      72657061 
 13431      72655175 
 13431      65756564 
 13431      5472616E 
ARM GAS  C:\Users\PCHAUT~1\AppData\Local\Temp\cc7u0cQS.s 			page 248


 13432              	.LASF302:
 13433 0d54 63685F73 		.ascii	"ch_swc_event_t\000"
 13433      77635F65 
 13433      76656E74 
 13433      5F7400
 13434              	.LASF614:
 13435 0d63 53445F53 		.ascii	"SD_STOP\000"
 13435      544F5000 
 13436              	.LASF714:
 13437 0d6b 72657376 		.ascii	"resvd8\000"
 13437      643800
 13438              	.LASF4:
 13439 0d72 73697A65 		.ascii	"size_t\000"
 13439      5F7400
 13440              	.LASF105:
 13441 0d79 5F6C6F63 		.ascii	"_localtime_buf\000"
 13441      616C7469 
 13441      6D655F62 
 13441      756600
 13442              	.LASF781:
 13443 0d88 72657376 		.ascii	"resvd880\000"
 13443      64383830 
 13443      00
 13444              	.LASF23:
 13445 0d91 5F5F636F 		.ascii	"__count\000"
 13445      756E7400 
 13446              	.LASF128:
 13447 0d99 75696E74 		.ascii	"uint8_t\000"
 13447      385F7400 
 13448              	.LASF718:
 13449 0da1 72657376 		.ascii	"resvd14\000"
 13449      64313400 
 13450              	.LASF467:
 13451 0da9 43414E5F 		.ascii	"CAN_UNINIT\000"
 13451      554E494E 
 13451      495400
 13452              	.LASF719:
 13453 0db4 72657376 		.ascii	"resvd18\000"
 13453      64313800 
 13454              	.LASF181:
 13455 0dbc 725F6F6C 		.ascii	"r_older\000"
 13455      64657200 
 13456              	.LASF150:
 13457 0dc4 705F7072 		.ascii	"p_prev\000"
 13457      657600
 13458              	.LASF345:
 13459 0dcb 63665F6F 		.ascii	"cf_off_name\000"
 13459      66665F6E 
 13459      616D6500 
 13460              	.LASF607:
 13461 0dd7 50574D43 		.ascii	"PWMChannelConfig\000"
 13461      68616E6E 
 13461      656C436F 
 13461      6E666967 
 13461      00
 13462              	.LASF606:
 13463 0de8 70776D63 		.ascii	"pwmcnt_t\000"
ARM GAS  C:\Users\PCHAUT~1\AppData\Local\Temp\cc7u0cQS.s 			page 249


 13463      6E745F74 
 13463      00
 13464              	.LASF777:
 13465 0df1 44494550 		.ascii	"DIEPEMPMSK\000"
 13465      454D504D 
 13465      534B00
 13466              	.LASF688:
 13467 0dfc 45505F53 		.ascii	"EP_STATUS_STALLED\000"
 13467      54415455 
 13467      535F5354 
 13467      414C4C45 
 13467      4400
 13468              	.LASF836:
 13469 0e0e 75736250 		.ascii	"usbPrepareTransmit\000"
 13469      72657061 
 13469      72655472 
 13469      616E736D 
 13469      697400
 13470              	.LASF722:
 13471 0e21 44494550 		.ascii	"DIEPCTL\000"
 13471      43544C00 
 13472              	.LASF361:
 13473 0e29 656C5F77 		.ascii	"el_wflags\000"
 13473      666C6167 
 13473      7300
 13474              	.LASF675:
 13475 0e33 6F746770 		.ascii	"otgparams\000"
 13475      6172616D 
 13475      7300
 13476              	.LASF303:
 13477 0e3d 74625F73 		.ascii	"tb_size\000"
 13477      697A6500 
 13478              	.LASF419:
 13479 0e45 50444461 		.ascii	"PDData\000"
 13479      746100
 13480              	.LASF639:
 13481 0e4c 73637261 		.ascii	"scratchpad\000"
 13481      74636870 
 13481      616400
 13482              	.LASF88:
 13483 0e57 5F637674 		.ascii	"_cvtbuf\000"
 13483      62756600 
 13484              	.LASF811:
 13485 0e5f 6F75745F 		.ascii	"out_state\000"
 13485      73746174 
 13485      6500
 13486              	.LASF365:
 13487 0e69 696F5F71 		.ascii	"io_queue_t\000"
 13487      75657565 
 13487      5F7400
 13488              	.LASF655:
 13489 0e74 73706973 		.ascii	"spistate_t\000"
 13489      74617465 
 13489      5F7400
 13490              	.LASF552:
 13491 0e7f 4932435F 		.ascii	"I2C_STOP\000"
 13491      53544F50 
ARM GAS  C:\Users\PCHAUT~1\AppData\Local\Temp\cc7u0cQS.s 			page 250


 13491      00
 13492              	.LASF574:
 13493 0e88 61646472 		.ascii	"addr\000"
 13493      00
 13494              	.LASF233:
 13495 0e8d 52463052 		.ascii	"RF0R\000"
 13495      00
 13496              	.LASF437:
 13497 0e92 4144435F 		.ascii	"ADC_ERR_DMAFAILURE\000"
 13497      4552525F 
 13497      444D4146 
 13497      41494C55 
 13497      524500
 13498              	.LASF653:
 13499 0ea5 5350495F 		.ascii	"SPI_ACTIVE\000"
 13499      41435449 
 13499      564500
 13500              	.LASF292:
 13501 0eb0 47545052 		.ascii	"GTPR\000"
 13501      00
 13502              	.LASF521:
 13503 0eb5 45585443 		.ascii	"EXTChannelConfig\000"
 13503      68616E6E 
 13503      656C436F 
 13503      6E666967 
 13503      00
 13504              	.LASF402:
 13505 0ec6 4F535045 		.ascii	"OSPEEDR\000"
 13505      45445200 
 13506              	.LASF485:
 13507 0ece 4441435F 		.ascii	"DAC_READY\000"
 13507      52454144 
 13507      5900
 13508              	.LASF746:
 13509 0ed8 72657376 		.ascii	"resvd30\000"
 13509      64333000 
 13510              	.LASF22:
 13511 0ee0 5F5F7763 		.ascii	"__wchb\000"
 13511      686200
 13512              	.LASF116:
 13513 0ee7 5F6D6272 		.ascii	"_mbrtowc_state\000"
 13513      746F7763 
 13513      5F737461 
 13513      746500
 13514              	.LASF775:
 13515 0ef6 44564255 		.ascii	"DVBUSPULSE\000"
 13515      5350554C 
 13515      534500
 13516              	.LASF37:
 13517 0f01 5F5F746D 		.ascii	"__tm_hour\000"
 13517      5F686F75 
 13517      7200
 13518              	.LASF386:
 13519 0f0b 424C4B5F 		.ascii	"BLK_STOP\000"
 13519      53544F50 
 13519      00
 13520              	.LASF622:
ARM GAS  C:\Users\PCHAUT~1\AppData\Local\Temp\cc7u0cQS.s 			page 251


 13521 0f14 53657269 		.ascii	"SerialDriverVMT\000"
 13521      616C4472 
 13521      69766572 
 13521      564D5400 
 13522              	.LASF696:
 13523 0f24 5553425F 		.ascii	"USB_EP0_ERROR\000"
 13523      4550305F 
 13523      4552524F 
 13523      5200
 13524              	.LASF20:
 13525 0f32 77696E74 		.ascii	"wint_t\000"
 13525      5F7400
 13526              	.LASF645:
 13527 0f39 636F6E6E 		.ascii	"connect\000"
 13527      65637400 
 13528              	.LASF89:
 13529 0f41 5F6E6577 		.ascii	"_new\000"
 13529      00
 13530              	.LASF440:
 13531 0f46 41444344 		.ascii	"ADCDriver\000"
 13531      72697665 
 13531      7200
 13532              	.LASF789:
 13533 0f50 6E756D5F 		.ascii	"num_endpoints\000"
 13533      656E6470 
 13533      6F696E74 
 13533      7300
 13534              	.LASF463:
 13535 0f5e 41444343 		.ascii	"ADCConfig\000"
 13535      6F6E6669 
 13535      6700
 13536              	.LASF797:
 13537 0f68 746F7473 		.ascii	"totsize\000"
 13537      697A6500 
 13538              	.LASF96:
 13539 0f70 5F6E696F 		.ascii	"_niobs\000"
 13539      627300
 13540              	.LASF346:
 13541 0f77 63665F6F 		.ascii	"cf_off_stklimit\000"
 13541      66665F73 
 13541      746B6C69 
 13541      6D697400 
 13542              	.LASF615:
 13543 0f87 53445F52 		.ascii	"SD_READY\000"
 13543      45414459 
 13543      00
 13544              	.LASF712:
 13545 0f90 75736267 		.ascii	"usbgetdescriptor_t\000"
 13545      65746465 
 13545      73637269 
 13545      70746F72 
 13545      5F7400
 13546              	.LASF488:
 13547 0fa3 4441435F 		.ascii	"DAC_ERROR\000"
 13547      4552524F 
 13547      5200
 13548              	.LASF182:
ARM GAS  C:\Users\PCHAUT~1\AppData\Local\Temp\cc7u0cQS.s 			page 252


 13549 0fad 725F6375 		.ascii	"r_current\000"
 13549      7272656E 
 13549      7400
 13550              	.LASF73:
 13551 0fb7 5F657272 		.ascii	"_errno\000"
 13551      6E6F00
 13552              	.LASF691:
 13553 0fbe 5553425F 		.ascii	"USB_EP0_TX\000"
 13553      4550305F 
 13553      545800
 13554              	.LASF667:
 13555 0fc9 65703073 		.ascii	"ep0state\000"
 13555      74617465 
 13555      00
 13556              	.LASF38:
 13557 0fd2 5F5F746D 		.ascii	"__tm_mday\000"
 13557      5F6D6461 
 13557      7900
 13558              	.LASF379:
 13559 0fdc 69666372 		.ascii	"ifcr\000"
 13559      00
 13560              	.LASF580:
 13561 0fe1 4932535F 		.ascii	"I2S_UNINIT\000"
 13561      554E494E 
 13561      495400
 13562              	.LASF862:
 13563 0fec 75736249 		.ascii	"usbInit\000"
 13563      6E697400 
 13564              	.LASF408:
 13565 0ff4 73746D33 		.ascii	"stm32_gpio_t\000"
 13565      325F6770 
 13565      696F5F74 
 13565      00
 13566              	.LASF319:
 13567 1001 7264796D 		.ascii	"rdymsg\000"
 13567      736700
 13568              	.LASF45:
 13569 1008 5F666E61 		.ascii	"_fnargs\000"
 13569      72677300 
 13570              	.LASF597:
 13571 1010 50574D5F 		.ascii	"PWM_READY\000"
 13571      52454144 
 13571      5900
 13572              	.LASF224:
 13573 101a 54445452 		.ascii	"TDTR\000"
 13573      00
 13574              	.LASF232:
 13575 101f 43414E5F 		.ascii	"CAN_FilterRegister_TypeDef\000"
 13575      46696C74 
 13575      65725265 
 13575      67697374 
 13575      65725F54 
 13576              	.LASF478:
 13577 103a 6572726F 		.ascii	"error_event\000"
 13577      725F6576 
 13577      656E7400 
 13578              	.LASF453:
ARM GAS  C:\Users\PCHAUT~1\AppData\Local\Temp\cc7u0cQS.s 			page 253


 13579 1046 6E756D5F 		.ascii	"num_channels\000"
 13579      6368616E 
 13579      6E656C73 
 13579      00
 13580              	.LASF213:
 13581 1053 4A4F4652 		.ascii	"JOFR3\000"
 13581      3300
 13582              	.LASF749:
 13583 1059 72657376 		.ascii	"resvd58\000"
 13583      64353800 
 13584              	.LASF798:
 13585 1061 55534249 		.ascii	"USBInEndpointState\000"
 13585      6E456E64 
 13585      706F696E 
 13585      74537461 
 13585      746500
 13586              	.LASF151:
 13587 1074 705F7072 		.ascii	"p_prio\000"
 13587      696F00
 13588              	.LASF366:
 13589 107b 696F5F71 		.ascii	"io_queue\000"
 13589      75657565 
 13589      00
 13590              	.LASF416:
 13591 1084 50414461 		.ascii	"PAData\000"
 13591      746100
 13592              	.LASF15:
 13593 108b 5F5F7569 		.ascii	"__uint64_t\000"
 13593      6E743634 
 13593      5F7400
 13594              	.LASF29:
 13595 1096 5F6E6578 		.ascii	"_next\000"
 13595      7400
 13596              	.LASF602:
 13597 109c 70776D63 		.ascii	"pwmcallback_t\000"
 13597      616C6C62 
 13597      61636B5F 
 13597      7400
 13598              	.LASF496:
 13599 10aa 70617261 		.ascii	"params\000"
 13599      6D7300
 13600              	.LASF695:
 13601 10b1 5553425F 		.ascii	"USB_EP0_SENDING_STS\000"
 13601      4550305F 
 13601      53454E44 
 13601      494E475F 
 13601      53545300 
 13602              	.LASF113:
 13603 10c5 5F736967 		.ascii	"_signal_buf\000"
 13603      6E616C5F 
 13603      62756600 
 13604              	.LASF845:
 13605 10d1 6765745F 		.ascii	"get_hword\000"
 13605      68776F72 
 13605      6400
 13606              	.LASF557:
 13607 10db 69326373 		.ascii	"i2cstate_t\000"
ARM GAS  C:\Users\PCHAUT~1\AppData\Local\Temp\cc7u0cQS.s 			page 254


 13607      74617465 
 13607      5F7400
 13608              	.LASF59:
 13609 10e6 5F636F6F 		.ascii	"_cookie\000"
 13609      6B696500 
 13610              	.LASF697:
 13611 10ee 75736265 		.ascii	"usbep0state_t\000"
 13611      70307374 
 13611      6174655F 
 13611      7400
 13612              	.LASF500:
 13613 10fc 64616365 		.ascii	"dacerror_t\000"
 13613      72726F72 
 13613      5F7400
 13614              	.LASF236:
 13615 1107 7354784D 		.ascii	"sTxMailBox\000"
 13615      61696C42 
 13615      6F7800
 13616              	.LASF435:
 13617 1112 61646373 		.ascii	"adcsample_t\000"
 13617      616D706C 
 13617      655F7400 
 13618              	.LASF533:
 13619 111e 67707463 		.ascii	"gptcallback_t\000"
 13619      616C6C62 
 13619      61636B5F 
 13619      7400
 13620              	.LASF369:
 13621 112c 715F6275 		.ascii	"q_buffer\000"
 13621      66666572 
 13621      00
 13622              	.LASF149:
 13623 1135 705F6E65 		.ascii	"p_next\000"
 13623      787400
 13624              	.LASF579:
 13625 113c 49324344 		.ascii	"I2CD1\000"
 13625      3100
 13626              	.LASF723:
 13627 1142 72657376 		.ascii	"resvd4\000"
 13627      643400
 13628              	.LASF840:
 13629 1149 65706370 		.ascii	"epcp\000"
 13629      00
 13630              	.LASF662:
 13631 114e 55534244 		.ascii	"USBDriver\000"
 13631      72697665 
 13631      7200
 13632              	.LASF782:
 13633 1158 72657376 		.ascii	"resvd8C0\000"
 13633      64384330 
 13633      00
 13634              	.LASF819:
 13635 1161 55534243 		.ascii	"USBConfig\000"
 13635      6F6E6669 
 13635      6700
 13636              	.LASF725:
 13637 116b 72657376 		.ascii	"resvdC\000"
ARM GAS  C:\Users\PCHAUT~1\AppData\Local\Temp\cc7u0cQS.s 			page 255


 13637      644300
 13638              	.LASF609:
 13639 1172 50574D44 		.ascii	"PWMD2\000"
 13639      3200
 13640              	.LASF610:
 13641 1178 50574D44 		.ascii	"PWMD3\000"
 13641      3300
 13642              	.LASF611:
 13643 117e 50574D44 		.ascii	"PWMD4\000"
 13643      3400
 13644              	.LASF612:
 13645 1184 50574D44 		.ascii	"PWMD5\000"
 13645      3500
 13646              	.LASF828:
 13647 118a 5F757362 		.ascii	"_usb_ep0setup\000"
 13647      5F657030 
 13647      73657475 
 13647      7000
 13648              	.LASF620:
 13649 1198 6F717565 		.ascii	"oqueue\000"
 13649      756500
 13650              	.LASF138:
 13651 119f 74726566 		.ascii	"trefs_t\000"
 13651      735F7400 
 13652              	.LASF168:
 13653 11a7 705F6D70 		.ascii	"p_mpool\000"
 13653      6F6F6C00 
 13654              	.LASF270:
 13655 11af 4932435F 		.ascii	"I2C_TypeDef\000"
 13655      54797065 
 13655      44656600 
 13656              	.LASF508:
 13657 11bb 44414343 		.ascii	"DACConversionGroup\000"
 13657      6F6E7665 
 13657      7273696F 
 13657      6E47726F 
 13657      757000
 13658              	.LASF35:
 13659 11ce 5F5F746D 		.ascii	"__tm_sec\000"
 13659      5F736563 
 13659      00
 13660              	.LASF812:
 13661 11d7 696E5F6D 		.ascii	"in_multiplier\000"
 13661      756C7469 
 13661      706C6965 
 13661      7200
 13662              	.LASF433:
 13663 11e5 4144435F 		.ascii	"ADC_ERROR\000"
 13663      4552524F 
 13663      5200
 13664              	.LASF44:
 13665 11ef 5F6F6E5F 		.ascii	"_on_exit_args\000"
 13665      65786974 
 13665      5F617267 
 13665      7300
 13666              	.LASF296:
 13667 11fd 636F6E74 		.ascii	"context\000"
ARM GAS  C:\Users\PCHAUT~1\AppData\Local\Temp\cc7u0cQS.s 			page 256


 13667      65787400 
 13668              	.LASF136:
 13669 1205 746D6F64 		.ascii	"tmode_t\000"
 13669      655F7400 
 13670              	.LASF431:
 13671 120d 4144435F 		.ascii	"ADC_ACTIVE\000"
 13671      41435449 
 13671      564500
 13672              	.LASF215:
 13673 1218 53515231 		.ascii	"SQR1\000"
 13673      00
 13674              	.LASF216:
 13675 121d 53515232 		.ascii	"SQR2\000"
 13675      00
 13676              	.LASF217:
 13677 1222 53515233 		.ascii	"SQR3\000"
 13677      00
 13678              	.LASF404:
 13679 1227 42535252 		.ascii	"BSRR\000"
 13679      00
 13680              	.LASF383:
 13681 122c 73746D33 		.ascii	"stm32_dma_stream_t\000"
 13681      325F646D 
 13681      615F7374 
 13681      7265616D 
 13681      5F7400
 13682              	.LASF817:
 13683 123f 72657175 		.ascii	"requests_hook_cb\000"
 13683      65737473 
 13683      5F686F6F 
 13683      6B5F6362 
 13683      00
 13684              	.LASF118:
 13685 1250 5F776372 		.ascii	"_wcrtomb_state\000"
 13685      746F6D62 
 13685      5F737461 
 13685      746500
 13686              	.LASF631:
 13687 125f 5344435F 		.ascii	"SDC_MODE_8BIT\000"
 13687      4D4F4445 
 13687      5F384249 
 13687      5400
 13688              	.LASF795:
 13689 126d 74787369 		.ascii	"txsize\000"
 13689      7A6500
 13690              	.LASF823:
 13691 1274 68616C74 		.ascii	"halted_status\000"
 13691      65645F73 
 13691      74617475 
 13691      7300
 13692              	.LASF504:
 13693 1282 4441435F 		.ascii	"DAC_DHRM_12BIT_LEFT\000"
 13693      4448524D 
 13693      5F313242 
 13693      49545F4C 
 13693      45465400 
 13694              	.LASF600:
ARM GAS  C:\Users\PCHAUT~1\AppData\Local\Temp\cc7u0cQS.s 			page 257


 13695 1296 70657269 		.ascii	"period\000"
 13695      6F6400
 13696              	.LASF330:
 13697 129d 6D5F7175 		.ascii	"m_queue\000"
 13697      65756500 
 13698              	.LASF556:
 13699 12a5 4932435F 		.ascii	"I2C_LOCKED\000"
 13699      4C4F434B 
 13699      454400
 13700              	.LASF197:
 13701 12b0 6973725F 		.ascii	"isr_cnt\000"
 13701      636E7400 
 13702              	.LASF683:
 13703 12b8 5553425F 		.ascii	"USB_READY\000"
 13703      52454144 
 13703      5900
 13704              	.LASF628:
 13705 12c2 72656164 		.ascii	"readt\000"
 13705      7400
 13706              	.LASF738:
 13707 12c8 47525354 		.ascii	"GRSTCTL\000"
 13707      43544C00 
 13708              	.LASF530:
 13709 12d0 67707473 		.ascii	"gptstate_t\000"
 13709      74617465 
 13709      5F7400
 13710              	.LASF28:
 13711 12db 5F5F554C 		.ascii	"__ULong\000"
 13711      6F6E6700 
 13712              	.LASF196:
 13713 12e3 70616E69 		.ascii	"panic_msg\000"
 13713      635F6D73 
 13713      6700
 13714              	.LASF654:
 13715 12ed 5350495F 		.ascii	"SPI_COMPLETE\000"
 13715      434F4D50 
 13715      4C455445 
 13715      00
 13716              	.LASF278:
 13717 12fa 4454494D 		.ascii	"DTIMER\000"
 13717      455200
 13718              	.LASF180:
 13719 1301 725F6E65 		.ascii	"r_newer\000"
 13719      77657200 
 13720              	.LASF703:
 13721 1309 5553425F 		.ascii	"USB_EVENT_STALLED\000"
 13721      4556454E 
 13721      545F5354 
 13721      414C4C45 
 13721      4400
 13722              	.LASF352:
 13723 131b 63686465 		.ascii	"chdebug_t\000"
 13723      6275675F 
 13723      7400
 13724              	.LASF856:
 13725 1325 706F7274 		.ascii	"port_lock_from_isr\000"
 13725      5F6C6F63 
ARM GAS  C:\Users\PCHAUT~1\AppData\Local\Temp\cc7u0cQS.s 			page 258


 13725      6B5F6672 
 13725      6F6D5F69 
 13725      737200
 13726              	.LASF801:
 13727 1338 72787369 		.ascii	"rxsize\000"
 13727      7A6500
 13728              	.LASF717:
 13729 133f 48435453 		.ascii	"HCTSIZ\000"
 13729      495A00
 13730              	.LASF700:
 13731 1346 5553425F 		.ascii	"USB_EVENT_CONFIGURED\000"
 13731      4556454E 
 13731      545F434F 
 13731      4E464947 
 13731      55524544 
 13732              	.LASF646:
 13733 135b 64697363 		.ascii	"disconnect\000"
 13733      6F6E6E65 
 13733      637400
 13734              	.LASF625:
 13735 1366 70757474 		.ascii	"putt\000"
 13735      00
 13736              	.LASF139:
 13737 136b 74736C69 		.ascii	"tslices_t\000"
 13737      6365735F 
 13737      7400
 13738              	.LASF103:
 13739 1375 5F737472 		.ascii	"_strtok_last\000"
 13739      746F6B5F 
 13739      6C617374 
 13739      00
 13740              	.LASF339:
 13741 1382 63685F74 		.ascii	"ch_timesize\000"
 13741      696D6573 
 13741      697A6500 
 13742              	.LASF679:
 13743 138e 77615F70 		.ascii	"wa_pump\000"
 13743      756D7000 
 13744              	.LASF283:
 13745 1396 4649464F 		.ascii	"FIFOCNT\000"
 13745      434E5400 
 13746              	.LASF364:
 13747 139e 6576656E 		.ascii	"event_source_t\000"
 13747      745F736F 
 13747      75726365 
 13747      5F7400
 13748              	.LASF752:
 13749 13ad 72657376 		.ascii	"resvd140\000"
 13749      64313430 
 13749      00
 13750              	.LASF188:
 13751 13b6 76745F64 		.ascii	"vt_delta\000"
 13751      656C7461 
 13751      00
 13752              	.LASF99:
 13753 13bf 5F736565 		.ascii	"_seed\000"
 13753      6400
ARM GAS  C:\Users\PCHAUT~1\AppData\Local\Temp\cc7u0cQS.s 			page 259


 13754              	.LASF304:
 13755 13c5 74625F70 		.ascii	"tb_ptr\000"
 13755      747200
 13756              	.LASF507:
 13757 13cc 74726967 		.ascii	"trigger\000"
 13757      67657200 
 13758              	.LASF62:
 13759 13d4 5F736565 		.ascii	"_seek\000"
 13759      6B00
 13760              	.LASF701:
 13761 13da 5553425F 		.ascii	"USB_EVENT_SUSPEND\000"
 13761      4556454E 
 13761      545F5355 
 13761      5350454E 
 13761      4400
 13762              	.LASF129:
 13763 13ec 696E7431 		.ascii	"int16_t\000"
 13763      365F7400 
 13764              	.LASF526:
 13765 13f4 4750545F 		.ascii	"GPT_STOP\000"
 13765      53544F50 
 13765      00
 13766              	.LASF223:
 13767 13fd 4144435F 		.ascii	"ADC_TypeDef\000"
 13767      54797065 
 13767      44656600 
 13768              	.LASF730:
 13769 1409 444F4550 		.ascii	"DOEPCTL\000"
 13769      43544C00 
 13770              	.LASF10:
 13771 1411 73686F72 		.ascii	"short unsigned int\000"
 13771      7420756E 
 13771      7369676E 
 13771      65642069 
 13771      6E7400
 13772              	.LASF568:
 13773 1424 6F705F6D 		.ascii	"op_mode\000"
 13773      6F646500 
 13774              	.LASF3:
 13775 142c 7369676E 		.ascii	"signed char\000"
 13775      65642063 
 13775      68617200 
 13776              	.LASF605:
 13777 1438 70776D63 		.ascii	"pwmchnmsk_t\000"
 13777      686E6D73 
 13777      6B5F7400 
 13778              	.LASF160:
 13779 1444 705F7072 		.ascii	"p_preempt\000"
 13779      65656D70 
 13779      7400
 13780              	.LASF582:
 13781 144e 4932535F 		.ascii	"I2S_READY\000"
 13781      52454144 
 13781      5900
 13782              	.LASF145:
 13783 1458 75636E74 		.ascii	"ucnt_t\000"
 13783      5F7400
ARM GAS  C:\Users\PCHAUT~1\AppData\Local\Temp\cc7u0cQS.s 			page 260


 13784              	.LASF226:
 13785 145f 54444852 		.ascii	"TDHR\000"
 13785      00
 13786              	.LASF429:
 13787 1464 4144435F 		.ascii	"ADC_STOP\000"
 13787      53544F50 
 13787      00
 13788              	.LASF694:
 13789 146d 5553425F 		.ascii	"USB_EP0_RX\000"
 13789      4550305F 
 13789      525800
 13790              	.LASF603:
 13791 1478 70776D6D 		.ascii	"pwmmode_t\000"
 13791      6F64655F 
 13791      7400
 13792              	.LASF672:
 13793 1482 73746174 		.ascii	"status\000"
 13793      757300
 13794              	.LASF279:
 13795 1489 444C454E 		.ascii	"DLEN\000"
 13795      00
 13796              	.LASF630:
 13797 148e 5344435F 		.ascii	"SDC_MODE_4BIT\000"
 13797      4D4F4445 
 13797      5F344249 
 13797      5400
 13798              	.LASF707:
 13799 149c 55534244 		.ascii	"USBDescriptor\000"
 13799      65736372 
 13799      6970746F 
 13799      7200
 13800              	.LASF657:
 13801 14aa 73706963 		.ascii	"spicallback_t\000"
 13801      616C6C62 
 13801      61636B5F 
 13801      7400
 13802              	.LASF86:
 13803 14b8 5F667265 		.ascii	"_freelist\000"
 13803      656C6973 
 13803      7400
 13804              	.LASF673:
 13805 14c2 61646472 		.ascii	"address\000"
 13805      65737300 
 13806              	.LASF163:
 13807 14ca 705F6D73 		.ascii	"p_msgqueue\000"
 13807      67717565 
 13807      756500
 13808              	.LASF349:
 13809 14d5 63665F6F 		.ascii	"cf_off_refs\000"
 13809      66665F72 
 13809      65667300 
 13810              	.LASF347:
 13811 14e1 63665F6F 		.ascii	"cf_off_state\000"
 13811      66665F73 
 13811      74617465 
 13811      00
 13812              	.LASF331:
ARM GAS  C:\Users\PCHAUT~1\AppData\Local\Temp\cc7u0cQS.s 			page 261


 13813 14ee 6D5F6F77 		.ascii	"m_owner\000"
 13813      6E657200 
 13814              	.LASF67:
 13815 14f6 5F6F6666 		.ascii	"_offset\000"
 13815      73657400 
 13816              	.LASF208:
 13817 14fe 53797374 		.ascii	"SystemCoreClock\000"
 13817      656D436F 
 13817      7265436C 
 13817      6F636B00 
 13818              	.LASF451:
 13819 150e 61646365 		.ascii	"adcerrorcallback_t\000"
 13819      72726F72 
 13819      63616C6C 
 13819      6261636B 
 13819      5F7400
 13820              	.LASF847:
 13821 1521 6F73616C 		.ascii	"osalSysLockFromISR\000"
 13821      5379734C 
 13821      6F636B46 
 13821      726F6D49 
 13821      535200
 13822              	.LASF486:
 13823 1534 4441435F 		.ascii	"DAC_ACTIVE\000"
 13823      41435449 
 13823      564500
 13824              	.LASF843:
 13825 153f 7573624F 		.ascii	"usbObjectInit\000"
 13825      626A6563 
 13825      74496E69 
 13825      7400
 13826              	.LASF441:
 13827 154d 73746174 		.ascii	"state\000"
 13827      6500
 13828              	.LASF337:
 13829 1553 63685F76 		.ascii	"ch_version\000"
 13829      65727369 
 13829      6F6E00
 13830              	.LASF52:
 13831 155e 5F5F7362 		.ascii	"__sbuf\000"
 13831      756600
 13832              	.LASF638:
 13833 1565 7364696F 		.ascii	"sdio\000"
 13833      00
 13834              	.LASF249:
 13835 156a 53575452 		.ascii	"SWTRIGR\000"
 13835      49475200 
 13836              	.LASF693:
 13837 1572 5553425F 		.ascii	"USB_EP0_WAITING_STS\000"
 13837      4550305F 
 13837      57414954 
 13837      494E475F 
 13837      53545300 
 13838              	.LASF112:
 13839 1586 5F6C3634 		.ascii	"_l64a_buf\000"
 13839      615F6275 
 13839      6600
ARM GAS  C:\Users\PCHAUT~1\AppData\Local\Temp\cc7u0cQS.s 			page 262


 13840              	.LASF230:
 13841 1590 52444852 		.ascii	"RDHR\000"
 13841      00
 13842              	.LASF540:
 13843 1595 444D4152 		.ascii	"DMAR\000"
 13843      00
 13844              	.LASF546:
 13845 159a 63616C6C 		.ascii	"callback\000"
 13845      6261636B 
 13845      00
 13846              	.LASF201:
 13847 15a3 63685F73 		.ascii	"ch_system\000"
 13847      79737465 
 13847      6D00
 13848              	.LASF271:
 13849 15ad 504F5745 		.ascii	"POWER\000"
 13849      5200
 13850              	.LASF199:
 13851 15b3 74726163 		.ascii	"trace_buffer\000"
 13851      655F6275 
 13851      66666572 
 13851      00
 13852              	.LASF104:
 13853 15c0 5F617363 		.ascii	"_asctime_buf\000"
 13853      74696D65 
 13853      5F627566 
 13853      00
 13854              	.LASF505:
 13855 15cd 4441435F 		.ascii	"DAC_DHRM_8BIT_RIGHT\000"
 13855      4448524D 
 13855      5F384249 
 13855      545F5249 
 13855      47485400 
 13856              	.LASF525:
 13857 15e1 4750545F 		.ascii	"GPT_UNINIT\000"
 13857      554E494E 
 13857      495400
 13858              	.LASF21:
 13859 15ec 5F5F7763 		.ascii	"__wch\000"
 13859      6800
 13860              	.LASF326:
 13861 15f2 63685F73 		.ascii	"ch_semaphore\000"
 13861      656D6170 
 13861      686F7265 
 13861      00
 13862              	.LASF119:
 13863 15ff 5F776373 		.ascii	"_wcsrtombs_state\000"
 13863      72746F6D 
 13863      62735F73 
 13863      74617465 
 13863      00
 13864              	.LASF726:
 13865 1610 44494550 		.ascii	"DIEPTSIZ\000"
 13865      5453495A 
 13865      00
 13866              	.LASF857:
 13867 1619 706F7274 		.ascii	"port_unlock\000"
ARM GAS  C:\Users\PCHAUT~1\AppData\Local\Temp\cc7u0cQS.s 			page 263


 13867      5F756E6C 
 13867      6F636B00 
 13868              	.LASF456:
 13869 1625 736D7072 		.ascii	"smpr1\000"
 13869      3100
 13870              	.LASF457:
 13871 162b 736D7072 		.ascii	"smpr2\000"
 13871      3200
 13872              	.LASF173:
 13873 1631 74687265 		.ascii	"threads_queue_t\000"
 13873      6164735F 
 13873      71756575 
 13873      655F7400 
 13874              	.LASF394:
 13875 1641 626C6B73 		.ascii	"blkstate_t\000"
 13875      74617465 
 13875      5F7400
 13876              	.LASF854:
 13877 164c 63685379 		.ascii	"chSysLock\000"
 13877      734C6F63 
 13877      6B00
 13878              	.LASF534:
 13879 1656 534D4352 		.ascii	"SMCR\000"
 13879      00
 13880              	.LASF161:
 13881 165b 705F7469 		.ascii	"p_time\000"
 13881      6D6500
 13882              	.LASF159:
 13883 1662 705F7265 		.ascii	"p_refs\000"
 13883      667300
 13884              	.LASF804:
 13885 1669 65705F6D 		.ascii	"ep_mode\000"
 13885      6F646500 
 13886              	.LASF604:
 13887 1671 70776D63 		.ascii	"pwmchannel_t\000"
 13887      68616E6E 
 13887      656C5F74 
 13887      00
 13888              	.LASF225:
 13889 167e 54444C52 		.ascii	"TDLR\000"
 13889      00
 13890              	.LASF12:
 13891 1683 6C6F6E67 		.ascii	"long int\000"
 13891      20696E74 
 13891      00
 13892              	.LASF204:
 13893 168c 6D61696E 		.ascii	"mainthread\000"
 13893      74687265 
 13893      616400
 13894              	.LASF669:
 13895 1697 6570306E 		.ascii	"ep0n\000"
 13895      00
 13896              	.LASF785:
 13897 169c 72657376 		.ascii	"resvdE04\000"
 13897      64453034 
 13897      00
 13898              	.LASF558:
ARM GAS  C:\Users\PCHAUT~1\AppData\Local\Temp\cc7u0cQS.s 			page 264


 13899 16a5 69326361 		.ascii	"i2caddr_t\000"
 13899      6464725F 
 13899      7400
 13900              	.LASF111:
 13901 16af 5F776374 		.ascii	"_wctomb_state\000"
 13901      6F6D625F 
 13901      73746174 
 13901      6500
 13902              	.LASF493:
 13903 16bd 646D6169 		.ascii	"dmairqprio\000"
 13903      72717072 
 13903      696F00
 13904              	.LASF531:
 13905 16c8 47505444 		.ascii	"GPTDriver\000"
 13905      72697665 
 13905      7200
 13906              	.LASF368:
 13907 16d2 715F636F 		.ascii	"q_counter\000"
 13907      756E7465 
 13907      7200
 13908              	.LASF423:
 13909 16dc 50484461 		.ascii	"PHData\000"
 13909      746100
 13910              	.LASF426:
 13911 16e3 696F706F 		.ascii	"ioportid_t\000"
 13911      72746964 
 13911      5F7400
 13912              	.LASF464:
 13913 16ee 41444344 		.ascii	"ADCD1\000"
 13913      3100
 13914              	.LASF465:
 13915 16f4 41444344 		.ascii	"ADCD2\000"
 13915      3200
 13916              	.LASF466:
 13917 16fa 41444344 		.ascii	"ADCD3\000"
 13917      3300
 13918              	.LASF753:
 13919 1700 48434647 		.ascii	"HCFG\000"
 13919      00
 13920              	.LASF449:
 13921 1705 646D616D 		.ascii	"dmamode\000"
 13921      6F646500 
 13922              	.LASF312:
 13923 170d 63756D75 		.ascii	"cumulative\000"
 13923      6C617469 
 13923      766500
 13924              	.LASF97:
 13925 1718 5F696F62 		.ascii	"_iobs\000"
 13925      7300
 13926              	.LASF78:
 13927 171e 5F656D65 		.ascii	"_emergency\000"
 13927      7267656E 
 13927      637900
 13928              	.LASF626:
 13929 1729 67657474 		.ascii	"gett\000"
 13929      00
 13930              	.LASF322:
ARM GAS  C:\Users\PCHAUT~1\AppData\Local\Temp\cc7u0cQS.s 			page 265


 13931 172e 77747472 		.ascii	"wttrp\000"
 13931      7000
 13932              	.LASF372:
 13933 1734 715F7264 		.ascii	"q_rdptr\000"
 13933      70747200 
 13934              	.LASF121:
 13935 173c 5F6E6578 		.ascii	"_nextf\000"
 13935      746600
 13936              	.LASF623:
 13937 1743 77726974 		.ascii	"write\000"
 13937      6500
 13938              	.LASF107:
 13939 1749 5F72616E 		.ascii	"_rand_next\000"
 13939      645F6E65 
 13939      787400
 13940              	.LASF619:
 13941 1754 69717565 		.ascii	"iqueue\000"
 13941      756500
 13942              	.LASF806:
 13943 175b 696E5F63 		.ascii	"in_cb\000"
 13943      6200
 13944              	.LASF731:
 13945 1761 444F4550 		.ascii	"DOEPINT\000"
 13945      494E5400 
 13946              	.LASF311:
 13947 1769 6C617374 		.ascii	"last\000"
 13947      00
 13948              	.LASF405:
 13949 176e 4C434B52 		.ascii	"LCKR\000"
 13949      00
 13950              	.LASF616:
 13951 1773 73647374 		.ascii	"sdstate_t\000"
 13951      6174655F 
 13951      7400
 13952              	.LASF132:
 13953 177d 75696E74 		.ascii	"uint32_t\000"
 13953      33325F74 
 13953      00
 13954              	.LASF490:
 13955 1786 64617461 		.ascii	"dataoffset\000"
 13955      6F666673 
 13955      657400
 13956              	.LASF30:
 13957 1791 5F6D6178 		.ascii	"_maxwds\000"
 13957      77647300 
 13958              	.LASF392:
 13959 1799 424C4B5F 		.ascii	"BLK_WRITING\000"
 13959      57524954 
 13959      494E4700 
 13960              	.LASF229:
 13961 17a5 52444C52 		.ascii	"RDLR\000"
 13961      00
 13962              	.LASF858:
 13963 17aa 706F7274 		.ascii	"port_lock\000"
 13963      5F6C6F63 
 13963      6B00
 13964              	.LASF2:
ARM GAS  C:\Users\PCHAUT~1\AppData\Local\Temp\cc7u0cQS.s 			page 266


 13965 17b4 6C6F6E67 		.ascii	"long double\000"
 13965      20646F75 
 13965      626C6500 
 13966              	.LASF294:
 13967 17c0 72656761 		.ascii	"regarm_t\000"
 13967      726D5F74 
 13967      00
 13968              	.LASF142:
 13969 17c9 6576656E 		.ascii	"eventmask_t\000"
 13969      746D6173 
 13969      6B5F7400 
 13970              	.LASF444:
 13971 17d5 64657074 		.ascii	"depth\000"
 13971      6800
 13972              	.LASF243:
 13973 17db 46464131 		.ascii	"FFA1R\000"
 13973      5200
 13974              	.LASF234:
 13975 17e1 52463152 		.ascii	"RF1R\000"
 13975      00
 13976              	.LASF684:
 13977 17e6 5553425F 		.ascii	"USB_SELECTED\000"
 13977      53454C45 
 13977      43544544 
 13977      00
 13978              	.LASF470:
 13979 17f3 43414E5F 		.ascii	"CAN_READY\000"
 13979      52454144 
 13979      5900
 13980              	.LASF14:
 13981 17fd 6C6F6E67 		.ascii	"long unsigned int\000"
 13981      20756E73 
 13981      69676E65 
 13981      6420696E 
 13981      7400
 13982              	.LASF583:
 13983 180f 4932535F 		.ascii	"I2S_ACTIVE\000"
 13983      41435449 
 13983      564500
 13984              	.LASF527:
 13985 181a 4750545F 		.ascii	"GPT_READY\000"
 13985      52454144 
 13985      5900
 13986              	.LASF489:
 13987 1824 64616373 		.ascii	"dacstate_t\000"
 13987      74617465 
 13987      5F7400
 13988              	.LASF299:
 13989 182f 73655F74 		.ascii	"se_tp\000"
 13989      7000
 13990              	.LASF371:
 13991 1835 715F7772 		.ascii	"q_wrptr\000"
 13991      70747200 
 13992              	.LASF497:
 13993 183d 64616373 		.ascii	"dacsample_t\000"
 13993      616D706C 
 13993      655F7400 
ARM GAS  C:\Users\PCHAUT~1\AppData\Local\Temp\cc7u0cQS.s 			page 267


 13994              	.LASF699:
 13995 1849 5553425F 		.ascii	"USB_EVENT_ADDRESS\000"
 13995      4556454E 
 13995      545F4144 
 13995      44524553 
 13995      5300
 13996              	.LASF591:
 13997 185b 69327363 		.ascii	"i2scfgr\000"
 13997      66677200 
 13998              	.LASF273:
 13999 1863 52455350 		.ascii	"RESPCMD\000"
 13999      434D4400 
 14000              	.LASF476:
 14001 186b 72786675 		.ascii	"rxfull_event\000"
 14001      6C6C5F65 
 14001      76656E74 
 14001      00
 14002              	.LASF704:
 14003 1878 75736265 		.ascii	"usbevent_t\000"
 14003      76656E74 
 14003      5F7400
 14004              	.LASF63:
 14005 1883 5F636C6F 		.ascii	"_close\000"
 14005      736500
 14006              	.LASF860:
 14007 188a 2E2E2F6C 		.ascii	"../lib/e-puck2_main-processor/ChibiOS//os/hal/src/u"
 14007      69622F65 
 14007      2D707563 
 14007      6B325F6D 
 14007      61696E2D 
 14008 18bd 73622E63 		.ascii	"sb.c\000"
 14008      00
 14009              	.LASF473:
 14010 18c2 43414E43 		.ascii	"CANConfig\000"
 14010      6F6E6669 
 14010      6700
 14011              	.LASF420:
 14012 18cc 50454461 		.ascii	"PEData\000"
 14012      746100
 14013              	.LASF177:
 14014 18d3 725F7175 		.ascii	"r_queue\000"
 14014      65756500 
 14015              	.LASF95:
 14016 18db 5F676C75 		.ascii	"_glue\000"
 14016      6500
 14017              	.LASF850:
 14018 18e1 63685379 		.ascii	"chSysUnlockFromISR\000"
 14018      73556E6C 
 14018      6F636B46 
 14018      726F6D49 
 14018      535200
 14019              	.LASF641:
 14020 18f4 53444343 		.ascii	"SDCConfig\000"
 14020      6F6E6669 
 14020      6700
 14021              	.LASF601:
 14022 18fe 656E6162 		.ascii	"enabled\000"
ARM GAS  C:\Users\PCHAUT~1\AppData\Local\Temp\cc7u0cQS.s 			page 268


 14022      6C656400 
 14023              	.LASF498:
 14024 1906 4441435F 		.ascii	"DAC_ERR_DMAFAILURE\000"
 14024      4552525F 
 14024      444D4146 
 14024      41494C55 
 14024      524500
 14025              	.LASF743:
 14026 1919 47525846 		.ascii	"GRXFSIZ\000"
 14026      53495A00 
 14027              	.LASF647:
 14028 1921 73796E63 		.ascii	"sync\000"
 14028      00
 14029              	.LASF621:
 14030 1926 75736172 		.ascii	"usart\000"
 14030      7400
 14031              	.LASF633:
 14032 192c 7364636D 		.ascii	"sdcmode_t\000"
 14032      6F64655F 
 14032      7400
 14033              	.LASF374:
 14034 1936 715F6C69 		.ascii	"q_link\000"
 14034      6E6B00
 14035              	.LASF844:
 14036 193d 64656661 		.ascii	"default_handler\000"
 14036      756C745F 
 14036      68616E64 
 14036      6C657200 
 14037              	.LASF764:
 14038 194d 44434647 		.ascii	"DCFG\000"
 14038      00
 14039              	.LASF33:
 14040 1952 5F426967 		.ascii	"_Bigint\000"
 14040      696E7400 
 14041              	.LASF774:
 14042 195a 44564255 		.ascii	"DVBUSDIS\000"
 14042      53444953 
 14042      00
 14043              	.LASF740:
 14044 1963 47494E54 		.ascii	"GINTMSK\000"
 14044      4D534B00 
 14045              	.LASF745:
 14046 196b 484E5054 		.ascii	"HNPTXSTS\000"
 14046      58535453 
 14046      00
 14047              	.LASF674:
 14048 1974 636F6E66 		.ascii	"configuration\000"
 14048      69677572 
 14048      6174696F 
 14048      6E00
 14049              	.LASF90:
 14050 1982 5F617465 		.ascii	"_atexit0\000"
 14050      78697430 
 14050      00
 14051              	.LASF415:
 14052 198b 73746D33 		.ascii	"stm32_gpio_setup_t\000"
 14052      325F6770 
ARM GAS  C:\Users\PCHAUT~1\AppData\Local\Temp\cc7u0cQS.s 			page 269


 14052      696F5F73 
 14052      65747570 
 14052      5F7400
 14053              	.LASF384:
 14054 199e 5F73746D 		.ascii	"_stm32_dma_streams\000"
 14054      33325F64 
 14054      6D615F73 
 14054      74726561 
 14054      6D7300
 14055              	.LASF251:
 14056 19b1 44485231 		.ascii	"DHR12L1\000"
 14056      324C3100 
 14057              	.LASF254:
 14058 19b9 44485231 		.ascii	"DHR12L2\000"
 14058      324C3200 
 14059              	.LASF114:
 14060 19c1 5F676574 		.ascii	"_getdate_err\000"
 14060      64617465 
 14060      5F657272 
 14060      00
 14061              	.LASF632:
 14062 19ce 73646362 		.ascii	"sdcbusmode_t\000"
 14062      75736D6F 
 14062      64655F74 
 14062      00
 14063              	.LASF257:
 14064 19db 44485231 		.ascii	"DHR12LD\000"
 14064      324C4400 
 14065              	.LASF205:
 14066 19e3 6B65726E 		.ascii	"kernel_stats\000"
 14066      656C5F73 
 14066      74617473 
 14066      00
 14067              	.LASF450:
 14068 19f0 61646363 		.ascii	"adccallback_t\000"
 14068      616C6C62 
 14068      61636B5F 
 14068      7400
 14069              	.LASF156:
 14070 19fe 705F7374 		.ascii	"p_stklimit\000"
 14070      6B6C696D 
 14070      697400
 14071              	.LASF144:
 14072 1a09 636E745F 		.ascii	"cnt_t\000"
 14072      7400
 14073              	.LASF516:
 14074 1a0f 65787473 		.ascii	"extstate_t\000"
 14074      74617465 
 14074      5F7400
 14075              	.LASF692:
 14076 1a1a 5553425F 		.ascii	"USB_EP0_WAITING_TX0\000"
 14076      4550305F 
 14076      57414954 
 14076      494E475F 
 14076      54583000 
 14077              	.LASF668:
 14078 1a2e 6570306E 		.ascii	"ep0next\000"
ARM GAS  C:\Users\PCHAUT~1\AppData\Local\Temp\cc7u0cQS.s 			page 270


 14078      65787400 
 14079              	.LASF721:
 14080 1a36 73746D33 		.ascii	"stm32_otg_host_chn_t\000"
 14080      325F6F74 
 14080      675F686F 
 14080      73745F63 
 14080      686E5F74 
 14081              	.LASF849:
 14082 1a4b 6F73616C 		.ascii	"osalSysLock\000"
 14082      5379734C 
 14082      6F636B00 
 14083              	.LASF407:
 14084 1a57 41465248 		.ascii	"AFRH\000"
 14084      00
 14085              	.LASF406:
 14086 1a5c 4146524C 		.ascii	"AFRL\000"
 14086      00
 14087              	.LASF126:
 14088 1a61 5F696D70 		.ascii	"_impure_ptr\000"
 14088      7572655F 
 14088      70747200 
 14089              	.LASF350:
 14090 1a6d 63665F6F 		.ascii	"cf_off_preempt\000"
 14090      66665F70 
 14090      7265656D 
 14090      707400
 14091              	.LASF487:
 14092 1a7c 4441435F 		.ascii	"DAC_COMPLETE\000"
 14092      434F4D50 
 14092      4C455445 
 14092      00
 14093              	.LASF66:
 14094 1a89 5F626C6B 		.ascii	"_blksize\000"
 14094      73697A65 
 14094      00
 14095              	.LASF837:
 14096 1a92 75736250 		.ascii	"usbPrepareReceive\000"
 14096      72657061 
 14096      72655265 
 14096      63656976 
 14096      6500
 14097              	.LASF716:
 14098 1aa4 4843494E 		.ascii	"HCINTMSK\000"
 14098      544D534B 
 14098      00
 14099              	.LASF64:
 14100 1aad 5F756275 		.ascii	"_ubuf\000"
 14100      6600
 14101              	.LASF442:
 14102 1ab3 636F6E66 		.ascii	"config\000"
 14102      696700
 14103              	.LASF550:
 14104 1aba 47505444 		.ascii	"GPTD11\000"
 14104      313100
 14105              	.LASF109:
 14106 1ac1 5F6D626C 		.ascii	"_mblen_state\000"
 14106      656E5F73 
ARM GAS  C:\Users\PCHAUT~1\AppData\Local\Temp\cc7u0cQS.s 			page 271


 14106      74617465 
 14106      00
 14107              	.LASF92:
 14108 1ace 5F5F7367 		.ascii	"__sglue\000"
 14108      6C756500 
 14109              	.LASF125:
 14110 1ad6 5F5F6C6F 		.ascii	"__locale_t\000"
 14110      63616C65 
 14110      5F7400
 14111              	.LASF388:
 14112 1ae1 424C4B5F 		.ascii	"BLK_CONNECTING\000"
 14112      434F4E4E 
 14112      45435449 
 14112      4E4700
 14113              	.LASF82:
 14114 1af0 5F5F636C 		.ascii	"__cleanup\000"
 14114      65616E75 
 14114      7000
 14115              	.LASF483:
 14116 1afa 4441435F 		.ascii	"DAC_UNINIT\000"
 14116      554E494E 
 14116      495400
 14117              	.LASF436:
 14118 1b05 6164635F 		.ascii	"adc_channels_num_t\000"
 14118      6368616E 
 14118      6E656C73 
 14118      5F6E756D 
 14118      5F7400
 14119              	.LASF183:
 14120 1b18 76746675 		.ascii	"vtfunc_t\000"
 14120      6E635F74 
 14120      00
 14121              	.LASF231:
 14122 1b21 43414E5F 		.ascii	"CAN_FIFOMailBox_TypeDef\000"
 14122      4649464F 
 14122      4D61696C 
 14122      426F785F 
 14122      54797065 
 14123              	.LASF261:
 14124 1b39 4441435F 		.ascii	"DAC_TypeDef\000"
 14124      54797065 
 14124      44656600 
 14125              	.LASF321:
 14126 1b45 77746F62 		.ascii	"wtobjp\000"
 14126      6A7000
 14127              	.LASF19:
 14128 1b4c 5F66706F 		.ascii	"_fpos_t\000"
 14128      735F7400 
 14129              	.LASF503:
 14130 1b54 4441435F 		.ascii	"DAC_DHRM_12BIT_RIGHT\000"
 14130      4448524D 
 14130      5F313242 
 14130      49545F52 
 14130      49474854 
 14131              	.LASF57:
 14132 1b69 5F66696C 		.ascii	"_file\000"
 14132      6500
ARM GAS  C:\Users\PCHAUT~1\AppData\Local\Temp\cc7u0cQS.s 			page 272


 14133              	.LASF167:
 14134 1b6f 705F7265 		.ascii	"p_realprio\000"
 14134      616C7072 
 14134      696F00
 14135              	.LASF636:
 14136 1b7a 63617061 		.ascii	"capacity\000"
 14136      63697479 
 14136      00
 14137              	.LASF852:
 14138 1b83 7365745F 		.ascii	"set_address\000"
 14138      61646472 
 14138      65737300 
 14139              	.LASF373:
 14140 1b8f 715F6E6F 		.ascii	"q_notify\000"
 14140      74696679 
 14140      00
 14141              	.LASF324:
 14142 1b98 77746D74 		.ascii	"wtmtxp\000"
 14142      787000
 14143              	.LASF55:
 14144 1b9f 5F5F7346 		.ascii	"__sFILE\000"
 14144      494C4500 
 14145              	.LASF51:
 14146 1ba7 5F666E73 		.ascii	"_fns\000"
 14146      00
 14147              	.LASF803:
 14148 1bac 5553424F 		.ascii	"USBOutEndpointState\000"
 14148      7574456E 
 14148      64706F69 
 14148      6E745374 
 14148      61746500 
 14149              	.LASF760:
 14150 1bc0 72657376 		.ascii	"resvd41C\000"
 14150      64343143 
 14150      00
 14151              	.LASF25:
 14152 1bc9 5F6D6273 		.ascii	"_mbstate_t\000"
 14152      74617465 
 14152      5F7400
 14153              	.LASF120:
 14154 1bd4 5F685F65 		.ascii	"_h_errno\000"
 14154      72726E6F 
 14154      00
 14155              	.LASF831:
 14156 1bdd 75736253 		.ascii	"usbStallReceiveI\000"
 14156      74616C6C 
 14156      52656365 
 14156      69766549 
 14156      00
 14157              	.LASF228:
 14158 1bee 52445452 		.ascii	"RDTR\000"
 14158      00
 14159              	.LASF396:
 14160 1bf3 626C6B5F 		.ascii	"blk_num\000"
 14160      6E756D00 
 14161              	.LASF698:
 14162 1bfb 5553425F 		.ascii	"USB_EVENT_RESET\000"
ARM GAS  C:\Users\PCHAUT~1\AppData\Local\Temp\cc7u0cQS.s 			page 273


 14162      4556454E 
 14162      545F5245 
 14162      53455400 
 14163              	.LASF176:
 14164 1c0b 63685F72 		.ascii	"ch_ready_list\000"
 14164      65616479 
 14164      5F6C6973 
 14164      7400
 14165              	.LASF403:
 14166 1c19 50555044 		.ascii	"PUPDR\000"
 14166      5200
 14167              	.LASF11:
 14168 1c1f 5F5F696E 		.ascii	"__int32_t\000"
 14168      7433325F 
 14168      7400
 14169              	.LASF13:
 14170 1c29 5F5F7569 		.ascii	"__uint32_t\000"
 14170      6E743332 
 14170      5F7400
 14171              	.LASF195:
 14172 1c34 63685F73 		.ascii	"ch_system_debug\000"
 14172      79737465 
 14172      6D5F6465 
 14172      62756700 
 14173              	.LASF771:
 14174 1c44 4441494E 		.ascii	"DAINTMSK\000"
 14174      544D534B 
 14174      00
 14175              	.LASF523:
 14176 1c4d 45585443 		.ascii	"EXTConfig\000"
 14176      6F6E6669 
 14176      6700
 14177              	.LASF24:
 14178 1c57 5F5F7661 		.ascii	"__value\000"
 14178      6C756500 
 14179              	.LASF690:
 14180 1c5f 5553425F 		.ascii	"USB_EP0_WAITING_SETUP\000"
 14180      4550305F 
 14180      57414954 
 14180      494E475F 
 14180      53455455 
 14181              	.LASF48:
 14182 1c75 5F69735F 		.ascii	"_is_cxa\000"
 14182      63786100 
 14183              	.LASF391:
 14184 1c7d 424C4B5F 		.ascii	"BLK_READING\000"
 14184      52454144 
 14184      494E4700 
 14185              	.LASF413:
 14186 1c89 6166726C 		.ascii	"afrl\000"
 14186      00
 14187              	.LASF793:
 14188 1c8e 71756575 		.ascii	"queue\000"
 14188      6500
 14189              	.LASF821:
 14190 1c94 7A65726F 		.ascii	"zero_status\000"
 14190      5F737461 
ARM GAS  C:\Users\PCHAUT~1\AppData\Local\Temp\cc7u0cQS.s 			page 274


 14190      74757300 
 14191              	.LASF670:
 14192 1ca0 65703065 		.ascii	"ep0endcb\000"
 14192      6E646362 
 14192      00
 14193              	.LASF381:
 14194 1ca9 73656C66 		.ascii	"selfindex\000"
 14194      696E6465 
 14194      7800
 14195              	.LASF354:
 14196 1cb3 6D757465 		.ascii	"mutex_t\000"
 14196      785F7400 
 14197              	.LASF85:
 14198 1cbb 5F703573 		.ascii	"_p5s\000"
 14198      00
 14199              	.LASF165:
 14200 1cc0 705F6570 		.ascii	"p_epending\000"
 14200      656E6469 
 14200      6E6700
 14201              	.LASF687:
 14202 1ccb 45505F53 		.ascii	"EP_STATUS_DISABLED\000"
 14202      54415455 
 14202      535F4449 
 14202      5341424C 
 14202      454400
 14203              	.LASF400:
 14204 1cde 4D4F4445 		.ascii	"MODER\000"
 14204      5200
 14205              	.LASF584:
 14206 1ce4 4932535F 		.ascii	"I2S_COMPLETE\000"
 14206      434F4D50 
 14206      4C455445 
 14206      00
 14207              	.LASF235:
 14208 1cf1 52455345 		.ascii	"RESERVED0\000"
 14208      52564544 
 14208      3000
 14209              	.LASF238:
 14210 1cfb 52455345 		.ascii	"RESERVED1\000"
 14210      52564544 
 14210      3100
 14211              	.LASF240:
 14212 1d05 52455345 		.ascii	"RESERVED2\000"
 14212      52564544 
 14212      3200
 14213              	.LASF242:
 14214 1d0f 52455345 		.ascii	"RESERVED3\000"
 14214      52564544 
 14214      3300
 14215              	.LASF244:
 14216 1d19 52455345 		.ascii	"RESERVED4\000"
 14216      52564544 
 14216      3400
 14217              	.LASF246:
 14218 1d23 52455345 		.ascii	"RESERVED5\000"
 14218      52564544 
 14218      3500
ARM GAS  C:\Users\PCHAUT~1\AppData\Local\Temp\cc7u0cQS.s 			page 275


 14219              	.LASF814:
 14220 1d2d 55534245 		.ascii	"USBEndpointConfig\000"
 14220      6E64706F 
 14220      696E7443 
 14220      6F6E6669 
 14220      6700
 14221              	.LASF250:
 14222 1d3f 44485231 		.ascii	"DHR12R1\000"
 14222      32523100 
 14223              	.LASF253:
 14224 1d47 44485231 		.ascii	"DHR12R2\000"
 14224      32523200 
 14225              	.LASF519:
 14226 1d4f 65787463 		.ascii	"extcallback_t\000"
 14226      616C6C62 
 14226      61636B5F 
 14226      7400
 14227              	.LASF475:
 14228 1d5d 72787175 		.ascii	"rxqueue\000"
 14228      65756500 
 14229              	.LASF298:
 14230 1d65 73655F74 		.ascii	"se_time\000"
 14230      696D6500 
 14231              	.LASF762:
 14232 1d6d 72657376 		.ascii	"resvd444\000"
 14232      64343434 
 14232      00
 14233              	.LASF427:
 14234 1d76 70616C5F 		.ascii	"pal_default_config\000"
 14234      64656661 
 14234      756C745F 
 14234      636F6E66 
 14234      696700
 14235              	.LASF445:
 14236 1d89 67727070 		.ascii	"grpp\000"
 14236      00
 14237              	.LASF256:
 14238 1d8e 44485231 		.ascii	"DHR12RD\000"
 14238      32524400 
 14239              	.LASF358:
 14240 1d96 656C5F6C 		.ascii	"el_listener\000"
 14240      69737465 
 14240      6E657200 
 14241              	.LASF792:
 14242 1da2 6C696E65 		.ascii	"linear\000"
 14242      617200
 14243              	.LASF543:
 14244 1da9 73746D33 		.ascii	"stm32_tim_t\000"
 14244      325F7469 
 14244      6D5F7400 
 14245              	.LASF178:
 14246 1db5 725F7072 		.ascii	"r_prio\000"
 14246      696F00
 14247              	.LASF676:
 14248 1dbc 706D6E65 		.ascii	"pmnext\000"
 14248      787400
 14249              	.LASF207:
ARM GAS  C:\Users\PCHAUT~1\AppData\Local\Temp\cc7u0cQS.s 			page 276


 14250 1dc3 49544D5F 		.ascii	"ITM_RxBuffer\000"
 14250      52784275 
 14250      66666572 
 14250      00
 14251              	.LASF397:
 14252 1dd0 426C6F63 		.ascii	"BlockDeviceInfo\000"
 14252      6B446576 
 14252      69636549 
 14252      6E666F00 
 14253              	.LASF16:
 14254 1de0 6C6F6E67 		.ascii	"long long unsigned int\000"
 14254      206C6F6E 
 14254      6720756E 
 14254      7369676E 
 14254      65642069 
 14255              	.LASF285:
 14256 1df7 5344494F 		.ascii	"SDIO_TypeDef\000"
 14256      5F547970 
 14256      65446566 
 14256      00
 14257              	.LASF307:
 14258 1e04 6F666673 		.ascii	"offset\000"
 14258      657400
 14259              	.LASF661:
 14260 1e0b 53504944 		.ascii	"SPID1\000"
 14260      3100
 14261              	.LASF853:
 14262 1e11 63685379 		.ascii	"chSysUnlock\000"
 14262      73556E6C 
 14262      6F636B00 
 14263              	.LASF262:
 14264 1e1d 4E445452 		.ascii	"NDTR\000"
 14264      00
 14265              	.LASF363:
 14266 1e22 65735F6E 		.ascii	"es_next\000"
 14266      65787400 
 14267              	.LASF106:
 14268 1e2a 5F67616D 		.ascii	"_gamma_signgam\000"
 14268      6D615F73 
 14268      69676E67 
 14268      616D00
 14269              	.LASF728:
 14270 1e39 72657376 		.ascii	"resvd1C\000"
 14270      64314300 
 14271              	.LASF206:
 14272 1e41 69646C65 		.ascii	"idle_thread_wa\000"
 14272      5F746872 
 14272      6561645F 
 14272      776100
 14273              	.LASF724:
 14274 1e50 44494550 		.ascii	"DIEPINT\000"
 14274      494E5400 
 14275              	.LASF291:
 14276 1e58 5350495F 		.ascii	"SPI_TypeDef\000"
 14276      54797065 
 14276      44656600 
 14277              	.LASF189:
ARM GAS  C:\Users\PCHAUT~1\AppData\Local\Temp\cc7u0cQS.s 			page 277


 14278 1e64 76745F66 		.ascii	"vt_func\000"
 14278      756E6300 
 14279              	.LASF27:
 14280 1e6c 63686172 		.ascii	"char\000"
 14280      00
 14281              	.LASF769:
 14282 1e71 444F4550 		.ascii	"DOEPMSK\000"
 14282      4D534B00 
 14283              	.LASF185:
 14284 1e79 63685F76 		.ascii	"ch_virtual_timer\000"
 14284      69727475 
 14284      616C5F74 
 14284      696D6572 
 14284      00
 14285              	.LASF158:
 14286 1e8a 705F666C 		.ascii	"p_flags\000"
 14286      61677300 
 14287              	.LASF325:
 14288 1e92 65776D61 		.ascii	"ewmask\000"
 14288      736B00
 14289              	.LASF360:
 14290 1e99 656C5F66 		.ascii	"el_flags\000"
 14290      6C616773 
 14290      00
 14291              	.LASF362:
 14292 1ea2 6576656E 		.ascii	"event_source\000"
 14292      745F736F 
 14292      75726365 
 14292      00
 14293              	.LASF166:
 14294 1eaf 705F6D74 		.ascii	"p_mtxlist\000"
 14294      786C6973 
 14294      7400
 14295              	.LASF482:
 14296 1eb9 43414E44 		.ascii	"CAND1\000"
 14296      3100
 14297              	.LASF241:
 14298 1ebf 46533152 		.ascii	"FS1R\000"
 14298      00
 14299              	.LASF137:
 14300 1ec4 74737461 		.ascii	"tstate_t\000"
 14300      74655F74 
 14300      00
 14301              	.LASF127:
 14302 1ecd 5F676C6F 		.ascii	"_global_impure_ptr\000"
 14302      62616C5F 
 14302      696D7075 
 14302      72655F70 
 14302      747200
 14303              	.LASF770:
 14304 1ee0 4441494E 		.ascii	"DAINT\000"
 14304      5400
 14305              	.LASF660:
 14306 1ee6 53504943 		.ascii	"SPIConfig\000"
 14306      6F6E6669 
 14306      6700
 14307              	.LASF79:
ARM GAS  C:\Users\PCHAUT~1\AppData\Local\Temp\cc7u0cQS.s 			page 278


 14308 1ef0 5F756E73 		.ascii	"_unspecified_locale_info\000"
 14308      70656369 
 14308      66696564 
 14308      5F6C6F63 
 14308      616C655F 
 14309              	.LASF412:
 14310 1f09 70757064 		.ascii	"pupdr\000"
 14310      7200
 14311              	.LASF502:
 14312 1f0f 64616365 		.ascii	"dacerrorcallback_t\000"
 14312      72726F72 
 14312      63616C6C 
 14312      6261636B 
 14312      5F7400
 14313              	.LASF663:
 14314 1f22 7472616E 		.ascii	"transmitting\000"
 14314      736D6974 
 14314      74696E67 
 14314      00
 14315              	.LASF522:
 14316 1f2f 6368616E 		.ascii	"channels\000"
 14316      6E656C73 
 14316      00
 14317              	.LASF272:
 14318 1f38 434C4B43 		.ascii	"CLKCR\000"
 14318      5200
 14319              	.LASF635:
 14320 1f3e 53444344 		.ascii	"SDCDriver\000"
 14320      72697665 
 14320      7200
 14321              	.LASF155:
 14322 1f48 705F6E61 		.ascii	"p_name\000"
 14322      6D6500
 14323              	.LASF81:
 14324 1f4f 5F5F7364 		.ascii	"__sdidinit\000"
 14324      6964696E 
 14324      697400
 14325              	.LASF617:
 14326 1f5a 53657269 		.ascii	"SerialDriver\000"
 14326      616C4472 
 14326      69766572 
 14326      00
 14327              	.LASF219:
 14328 1f67 4A445231 		.ascii	"JDR1\000"
 14328      00
 14329              	.LASF220:
 14330 1f6c 4A445232 		.ascii	"JDR2\000"
 14330      00
 14331              	.LASF221:
 14332 1f71 4A445233 		.ascii	"JDR3\000"
 14332      00
 14333              	.LASF222:
 14334 1f76 4A445234 		.ascii	"JDR4\000"
 14334      00
 14335              	.LASF732:
 14336 1f7b 444F4550 		.ascii	"DOEPTSIZ\000"
 14336      5453495A 
ARM GAS  C:\Users\PCHAUT~1\AppData\Local\Temp\cc7u0cQS.s 			page 279


 14336      00
 14337              	.LASF430:
 14338 1f84 4144435F 		.ascii	"ADC_READY\000"
 14338      52454144 
 14338      5900
 14339              	.LASF342:
 14340 1f8e 63665F6F 		.ascii	"cf_off_ctx\000"
 14340      66665F63 
 14340      747800
 14341              	.LASF26:
 14342 1f99 5F666C6F 		.ascii	"_flock_t\000"
 14342      636B5F74 
 14342      00
 14343              	.LASF191:
 14344 1fa2 76697274 		.ascii	"virtual_timers_list_t\000"
 14344      75616C5F 
 14344      74696D65 
 14344      72735F6C 
 14344      6973745F 
 14345              	.LASF756:
 14346 1fb8 72657376 		.ascii	"resvd40C\000"
 14346      64343043 
 14346      00
 14347              	.LASF452:
 14348 1fc1 63697263 		.ascii	"circular\000"
 14348      756C6172 
 14348      00
 14349              	.LASF585:
 14350 1fca 69327373 		.ascii	"i2sstate_t\000"
 14350      74617465 
 14350      5F7400
 14351              	.LASF409:
 14352 1fd5 6D6F6465 		.ascii	"moder\000"
 14352      7200
 14353              	.LASF656:
 14354 1fdb 53504944 		.ascii	"SPIDriver\000"
 14354      72697665 
 14354      7200
 14355              	.LASF327:
 14356 1fe5 735F7175 		.ascii	"s_queue\000"
 14356      65756500 
 14357              	.LASF316:
 14358 1fed 6D5F6372 		.ascii	"m_crit_thd\000"
 14358      69745F74 
 14358      686400
 14359              	.LASF484:
 14360 1ff8 4441435F 		.ascii	"DAC_STOP\000"
 14360      53544F50 
 14360      00
 14361              	.LASF763:
 14362 2001 72657376 		.ascii	"resvd700\000"
 14362      64373030 
 14362      00
 14363              	.LASF289:
 14364 200a 49325343 		.ascii	"I2SCFGR\000"
 14364      46475200 
 14365              	.LASF824:
ARM GAS  C:\Users\PCHAUT~1\AppData\Local\Temp\cc7u0cQS.s 			page 280


 14366 2012 75736270 		.ascii	"usbp\000"
 14366      00
 14367              	.LASF334:
 14368 2017 63685F69 		.ascii	"ch_identifier\000"
 14368      64656E74 
 14368      69666965 
 14368      7200
 14369              	.LASF627:
 14370 2025 77726974 		.ascii	"writet\000"
 14370      657400
 14371              	.LASF1:
 14372 202c 6C6F6E67 		.ascii	"long long int\000"
 14372      206C6F6E 
 14372      6720696E 
 14372      7400
 14373              	.LASF750:
 14374 203a 48505458 		.ascii	"HPTXFSIZ\000"
 14374      4653495A 
 14374      00
 14375              	.LASF341:
 14376 2043 63665F6F 		.ascii	"cf_off_prio\000"
 14376      66665F70 
 14376      72696F00 
 14377              	.LASF71:
 14378 204f 5F666C61 		.ascii	"_flags2\000"
 14378      67733200 
 14379              	.LASF851:
 14380 2057 63685379 		.ascii	"chSysLockFromISR\000"
 14380      734C6F63 
 14380      6B46726F 
 14380      6D495352 
 14380      00
 14381              	.LASF313:
 14382 2068 74696D65 		.ascii	"time_measurement_t\000"
 14382      5F6D6561 
 14382      73757265 
 14382      6D656E74 
 14382      5F7400
 14383              	.LASF648:
 14384 207b 6765745F 		.ascii	"get_info\000"
 14384      696E666F 
 14384      00
 14385              	.LASF439:
 14386 2084 61646365 		.ascii	"adcerror_t\000"
 14386      72726F72 
 14386      5F7400
 14387              	.LASF841:
 14388 208f 75736253 		.ascii	"usbStop\000"
 14388      746F7000 
 14389              	.LASF816:
 14390 2097 6765745F 		.ascii	"get_descriptor_cb\000"
 14390      64657363 
 14390      72697074 
 14390      6F725F63 
 14390      6200
 14391              	.LASF80:
 14392 20a9 5F6C6F63 		.ascii	"_locale\000"
ARM GAS  C:\Users\PCHAUT~1\AppData\Local\Temp\cc7u0cQS.s 			page 281


 14392      616C6500 
 14393              	.LASF143:
 14394 20b1 6576656E 		.ascii	"eventflags_t\000"
 14394      74666C61 
 14394      67735F74 
 14394      00
 14395              	.LASF652:
 14396 20be 5350495F 		.ascii	"SPI_READY\000"
 14396      52454144 
 14396      5900
 14397              	.LASF237:
 14398 20c8 73464946 		.ascii	"sFIFOMailBox\000"
 14398      4F4D6169 
 14398      6C426F78 
 14398      00
 14399              	.LASF640:
 14400 20d5 6275735F 		.ascii	"bus_width\000"
 14400      77696474 
 14400      6800
 14401              	.LASF258:
 14402 20df 44485238 		.ascii	"DHR8RD\000"
 14402      524400
 14403              	.LASF765:
 14404 20e6 4443544C 		.ascii	"DCTL\000"
 14404      00
 14405              	.LASF642:
 14406 20eb 53444344 		.ascii	"SDCDriverVMT\000"
 14406      72697665 
 14406      72564D54 
 14406      00
 14407              	.LASF791:
 14408 20f8 74786275 		.ascii	"txbuf\000"
 14408      6600
 14409              	.LASF784:
 14410 20fe 50434743 		.ascii	"PCGCCTL\000"
 14410      43544C00 
 14411              	.LASF702:
 14412 2106 5553425F 		.ascii	"USB_EVENT_WAKEUP\000"
 14412      4556454E 
 14412      545F5741 
 14412      4B455550 
 14412      00
 14413              	.LASF863:
 14414 2117 5F5F7365 		.ascii	"__set_BASEPRI\000"
 14414      745F4241 
 14414      53455052 
 14414      4900
 14415              	.LASF154:
 14416 2125 705F6F6C 		.ascii	"p_older\000"
 14416      64657200 
 14417              	.LASF393:
 14418 212d 424C4B5F 		.ascii	"BLK_SYNCING\000"
 14418      53594E43 
 14418      494E4700 
 14419              	.LASF424:
 14420 2139 50494461 		.ascii	"PIData\000"
 14420      746100
ARM GAS  C:\Users\PCHAUT~1\AppData\Local\Temp\cc7u0cQS.s 			page 282


 14421              	.LASF813:
 14422 2140 73657475 		.ascii	"setup_buf\000"
 14422      705F6275 
 14422      6600
 14423              	.LASF747:
 14424 214a 72657376 		.ascii	"resvd34\000"
 14424      64333400 
 14425              	.LASF549:
 14426 2152 47505444 		.ascii	"GPTD6\000"
 14426      3600
 14427              	.LASF455:
 14428 2158 6572726F 		.ascii	"error_cb\000"
 14428      725F6362 
 14428      00
 14429              	.LASF389:
 14430 2161 424C4B5F 		.ascii	"BLK_DISCONNECTING\000"
 14430      44495343 
 14430      4F4E4E45 
 14430      4354494E 
 14430      4700
 14431              	.LASF658:
 14432 2173 7373706F 		.ascii	"ssport\000"
 14432      727400
 14433              	.LASF170:
 14434 217a 74687265 		.ascii	"thread_reference_t\000"
 14434      61645F72 
 14434      65666572 
 14434      656E6365 
 14434      5F7400
 14435              	.LASF518:
 14436 218d 65787063 		.ascii	"expchannel_t\000"
 14436      68616E6E 
 14436      656C5F74 
 14436      00
 14437              	.LASF664:
 14438 219a 72656365 		.ascii	"receiving\000"
 14438      6976696E 
 14438      6700
 14439              	.LASF94:
 14440 21a4 5F5F4649 		.ascii	"__FILE\000"
 14440      4C4500
 14441              	.LASF545:
 14442 21ab 66726571 		.ascii	"frequency\000"
 14442      75656E63 
 14442      7900
 14443              	.LASF31:
 14444 21b5 5F736967 		.ascii	"_sign\000"
 14444      6E00
 14445              	.LASF810:
 14446 21bb 696E5F73 		.ascii	"in_state\000"
 14446      74617465 
 14446      00
 14447              	.LASF36:
 14448 21c4 5F5F746D 		.ascii	"__tm_min\000"
 14448      5F6D696E 
 14448      00
 14449              	.LASF335:
ARM GAS  C:\Users\PCHAUT~1\AppData\Local\Temp\cc7u0cQS.s 			page 283


 14450 21cd 63685F7A 		.ascii	"ch_zero\000"
 14450      65726F00 
 14451              	.LASF565:
 14452 21d5 46415354 		.ascii	"FAST_DUTY_CYCLE_2\000"
 14452      5F445554 
 14452      595F4359 
 14452      434C455F 
 14452      3200
 14453              	.LASF280:
 14454 21e7 44435452 		.ascii	"DCTRL\000"
 14454      4C00
 14455              	.LASF340:
 14456 21ed 63685F74 		.ascii	"ch_threadsize\000"
 14456      68726561 
 14456      6473697A 
 14456      6500
 14457              	.LASF269:
 14458 21fb 464C5452 		.ascii	"FLTR\000"
 14458      00
 14459              	.LASF536:
 14460 2200 43434D52 		.ascii	"CCMR1\000"
 14460      3100
 14461              	.LASF537:
 14462 2206 43434D52 		.ascii	"CCMR2\000"
 14462      3200
 14463              	.LASF541:
 14464 220c 43434D52 		.ascii	"CCMR3\000"
 14464      3300
 14465              	.LASF0:
 14466 2212 756E7369 		.ascii	"unsigned int\000"
 14466      676E6564 
 14466      20696E74 
 14466      00
 14467              	.LASF459:
 14468 221f 73717232 		.ascii	"sqr2\000"
 14468      00
 14469              	.LASF460:
 14470 2224 73717233 		.ascii	"sqr3\000"
 14470      00
 14471              	.LASF108:
 14472 2229 5F723438 		.ascii	"_r48\000"
 14472      00
 14473              	.LASF754:
 14474 222e 48464952 		.ascii	"HFIR\000"
 14474      00
 14475              	.LASF681:
 14476 2233 5553425F 		.ascii	"USB_UNINIT\000"
 14476      554E494E 
 14476      495400
 14477              	.LASF378:
 14478 223e 73747265 		.ascii	"stream\000"
 14478      616D00
 14479              	.LASF462:
 14480 2245 64756D6D 		.ascii	"dummy\000"
 14480      7900
 14481              	.LASF563:
 14482 224b 6932636F 		.ascii	"i2copmode_t\000"
ARM GAS  C:\Users\PCHAUT~1\AppData\Local\Temp\cc7u0cQS.s 			page 284


 14482      706D6F64 
 14482      655F7400 
 14483              	.LASF356:
 14484 2257 6576656E 		.ascii	"event_listener\000"
 14484      745F6C69 
 14484      7374656E 
 14484      657200
 14485              	.LASF8:
 14486 2266 73686F72 		.ascii	"short int\000"
 14486      7420696E 
 14486      7400
 14487              	.LASF708:
 14488 2270 75736263 		.ascii	"usbcallback_t\000"
 14488      616C6C62 
 14488      61636B5F 
 14488      7400
 14489              	.LASF60:
 14490 227e 5F726561 		.ascii	"_read\000"
 14490      6400
 14491              	.LASF737:
 14492 2284 47555342 		.ascii	"GUSBCFG\000"
 14492      43464700 
 14493              	.LASF293:
 14494 228c 55534152 		.ascii	"USART_TypeDef\000"
 14494      545F5479 
 14494      70654465 
 14494      6600
 14495              	.LASF377:
 14496 229a 6F757470 		.ascii	"output_queue_t\000"
 14496      75745F71 
 14496      75657565 
 14496      5F7400
 14497              	.LASF98:
 14498 22a9 5F72616E 		.ascii	"_rand48\000"
 14498      64343800 
 14499              	.LASF786:
 14500 22b1 73746D33 		.ascii	"stm32_otg_t\000"
 14500      325F6F74 
 14500      675F7400 
 14501              	.LASF586:
 14502 22bd 49325344 		.ascii	"I2SDriver\000"
 14502      72697665 
 14502      7200
 14503              	.LASF570:
 14504 22c7 64757479 		.ascii	"duty_cycle\000"
 14504      5F637963 
 14504      6C6500
 14505              	.LASF593:
 14506 22d2 49325343 		.ascii	"I2SConfig\000"
 14506      6F6E6669 
 14506      6700
 14507              	.LASF705:
 14508 22dc 75645F73 		.ascii	"ud_size\000"
 14508      697A6500 
 14509              	.LASF808:
 14510 22e4 696E5F6D 		.ascii	"in_maxsize\000"
 14510      61787369 
ARM GAS  C:\Users\PCHAUT~1\AppData\Local\Temp\cc7u0cQS.s 			page 285


 14510      7A6500
 14511              	.LASF421:
 14512 22ef 50464461 		.ascii	"PFData\000"
 14512      746100
 14513              	.LASF514:
 14514 22f6 4558545F 		.ascii	"EXT_STOP\000"
 14514      53544F50 
 14514      00
 14515              	.LASF157:
 14516 22ff 705F7374 		.ascii	"p_state\000"
 14516      61746500 
 14517              	.LASF594:
 14518 2307 49325344 		.ascii	"I2SD2\000"
 14518      3200
 14519              	.LASF643:
 14520 230d 69735F69 		.ascii	"is_inserted\000"
 14520      6E736572 
 14520      74656400 
 14521              	.LASF172:
 14522 2319 63685F74 		.ascii	"ch_threads_list\000"
 14522      68726561 
 14522      64735F6C 
 14522      69737400 
 14523              	.LASF281:
 14524 2329 44434F55 		.ascii	"DCOUNT\000"
 14524      4E5400
 14525              	.LASF266:
 14526 2330 4F415231 		.ascii	"OAR1\000"
 14526      00
 14527              	.LASF267:
 14528 2335 4F415232 		.ascii	"OAR2\000"
 14528      00
 14529              	.LASF169:
 14530 233a 705F7374 		.ascii	"p_stats\000"
 14530      61747300 
 14531              	.LASF686:
 14532 2342 75736273 		.ascii	"usbstate_t\000"
 14532      74617465 
 14532      5F7400
 14533              		.ident	"GCC: (GNU Tools for Arm Embedded Processors 7-2017-q4-major) 7.2.1 20170904 (release) [ARM
ARM GAS  C:\Users\PCHAUT~1\AppData\Local\Temp\cc7u0cQS.s 			page 286


DEFINED SYMBOLS
                            *ABS*:00000000 usb.c
C:\Users\PCHAUT~1\AppData\Local\Temp\cc7u0cQS.s:18     .text.port_lock:00000000 $t
C:\Users\PCHAUT~1\AppData\Local\Temp\cc7u0cQS.s:25     .text.port_lock:00000000 port_lock
C:\Users\PCHAUT~1\AppData\Local\Temp\cc7u0cQS.s:72     .text.port_lock:0000002c $d
C:\Users\PCHAUT~1\AppData\Local\Temp\cc7u0cQS.s:77     .text.port_unlock:00000000 $t
C:\Users\PCHAUT~1\AppData\Local\Temp\cc7u0cQS.s:84     .text.port_unlock:00000000 port_unlock
C:\Users\PCHAUT~1\AppData\Local\Temp\cc7u0cQS.s:129    .text.port_unlock:0000002c $d
C:\Users\PCHAUT~1\AppData\Local\Temp\cc7u0cQS.s:134    .text.port_lock_from_isr:00000000 $t
C:\Users\PCHAUT~1\AppData\Local\Temp\cc7u0cQS.s:141    .text.port_lock_from_isr:00000000 port_lock_from_isr
C:\Users\PCHAUT~1\AppData\Local\Temp\cc7u0cQS.s:174    .text.port_lock_from_isr:00000024 $d
C:\Users\PCHAUT~1\AppData\Local\Temp\cc7u0cQS.s:179    .text.port_unlock_from_isr:00000000 $t
C:\Users\PCHAUT~1\AppData\Local\Temp\cc7u0cQS.s:186    .text.port_unlock_from_isr:00000000 port_unlock_from_isr
C:\Users\PCHAUT~1\AppData\Local\Temp\cc7u0cQS.s:219    .text.port_unlock_from_isr:00000024 $d
C:\Users\PCHAUT~1\AppData\Local\Temp\cc7u0cQS.s:224    .text.chSysLock:00000000 $t
C:\Users\PCHAUT~1\AppData\Local\Temp\cc7u0cQS.s:231    .text.chSysLock:00000000 chSysLock
C:\Users\PCHAUT~1\AppData\Local\Temp\cc7u0cQS.s:269    .text.chSysLock:0000002c $d
C:\Users\PCHAUT~1\AppData\Local\Temp\cc7u0cQS.s:274    .text.chSysUnlock:00000000 $t
C:\Users\PCHAUT~1\AppData\Local\Temp\cc7u0cQS.s:281    .text.chSysUnlock:00000000 chSysUnlock
C:\Users\PCHAUT~1\AppData\Local\Temp\cc7u0cQS.s:337    .text.chSysUnlock:0000004c $d
C:\Users\PCHAUT~1\AppData\Local\Temp\cc7u0cQS.s:3234   .rodata.__func__.7554:00000000 __func__.7554
C:\Users\PCHAUT~1\AppData\Local\Temp\cc7u0cQS.s:344    .text.chSysLockFromISR:00000000 $t
C:\Users\PCHAUT~1\AppData\Local\Temp\cc7u0cQS.s:351    .text.chSysLockFromISR:00000000 chSysLockFromISR
C:\Users\PCHAUT~1\AppData\Local\Temp\cc7u0cQS.s:388    .text.chSysLockFromISR:0000002c $d
C:\Users\PCHAUT~1\AppData\Local\Temp\cc7u0cQS.s:393    .text.chSysUnlockFromISR:00000000 $t
C:\Users\PCHAUT~1\AppData\Local\Temp\cc7u0cQS.s:400    .text.chSysUnlockFromISR:00000000 chSysUnlockFromISR
C:\Users\PCHAUT~1\AppData\Local\Temp\cc7u0cQS.s:437    .text.chSysUnlockFromISR:0000002c $d
C:\Users\PCHAUT~1\AppData\Local\Temp\cc7u0cQS.s:442    .text.osalSysLock:00000000 $t
C:\Users\PCHAUT~1\AppData\Local\Temp\cc7u0cQS.s:449    .text.osalSysLock:00000000 osalSysLock
C:\Users\PCHAUT~1\AppData\Local\Temp\cc7u0cQS.s:483    .text.osalSysLock:00000024 $d
C:\Users\PCHAUT~1\AppData\Local\Temp\cc7u0cQS.s:488    .text.osalSysUnlock:00000000 $t
C:\Users\PCHAUT~1\AppData\Local\Temp\cc7u0cQS.s:495    .text.osalSysUnlock:00000000 osalSysUnlock
C:\Users\PCHAUT~1\AppData\Local\Temp\cc7u0cQS.s:528    .text.osalSysUnlock:00000024 $d
C:\Users\PCHAUT~1\AppData\Local\Temp\cc7u0cQS.s:533    .text.osalSysLockFromISR:00000000 $t
C:\Users\PCHAUT~1\AppData\Local\Temp\cc7u0cQS.s:540    .text.osalSysLockFromISR:00000000 osalSysLockFromISR
C:\Users\PCHAUT~1\AppData\Local\Temp\cc7u0cQS.s:573    .text.osalSysLockFromISR:00000024 $d
C:\Users\PCHAUT~1\AppData\Local\Temp\cc7u0cQS.s:578    .text.osalSysUnlockFromISR:00000000 $t
C:\Users\PCHAUT~1\AppData\Local\Temp\cc7u0cQS.s:585    .text.osalSysUnlockFromISR:00000000 osalSysUnlockFromISR
C:\Users\PCHAUT~1\AppData\Local\Temp\cc7u0cQS.s:618    .text.osalSysUnlockFromISR:00000024 $d
C:\Users\PCHAUT~1\AppData\Local\Temp\cc7u0cQS.s:623    .rodata.zero_status:00000000 $d
C:\Users\PCHAUT~1\AppData\Local\Temp\cc7u0cQS.s:626    .rodata.zero_status:00000000 zero_status
C:\Users\PCHAUT~1\AppData\Local\Temp\cc7u0cQS.s:629    .rodata.active_status:00000000 $d
C:\Users\PCHAUT~1\AppData\Local\Temp\cc7u0cQS.s:632    .rodata.active_status:00000000 active_status
C:\Users\PCHAUT~1\AppData\Local\Temp\cc7u0cQS.s:635    .rodata.halted_status:00000000 $d
C:\Users\PCHAUT~1\AppData\Local\Temp\cc7u0cQS.s:638    .rodata.halted_status:00000000 halted_status
C:\Users\PCHAUT~1\AppData\Local\Temp\cc7u0cQS.s:642    .text.get_hword:00000000 $t
C:\Users\PCHAUT~1\AppData\Local\Temp\cc7u0cQS.s:649    .text.get_hword:00000000 get_hword
C:\Users\PCHAUT~1\AppData\Local\Temp\cc7u0cQS.s:699    .text.get_hword:00000048 $d
C:\Users\PCHAUT~1\AppData\Local\Temp\cc7u0cQS.s:704    .text.set_address:00000000 $t
C:\Users\PCHAUT~1\AppData\Local\Temp\cc7u0cQS.s:711    .text.set_address:00000000 set_address
C:\Users\PCHAUT~1\AppData\Local\Temp\cc7u0cQS.s:770    .text.set_address:00000050 $d
C:\Users\PCHAUT~1\AppData\Local\Temp\cc7u0cQS.s:775    .text.default_handler:00000000 $t
C:\Users\PCHAUT~1\AppData\Local\Temp\cc7u0cQS.s:782    .text.default_handler:00000000 default_handler
C:\Users\PCHAUT~1\AppData\Local\Temp\cc7u0cQS.s:1162   .text.default_handler:000002a0 $d
C:\Users\PCHAUT~1\AppData\Local\Temp\cc7u0cQS.s:1168   .text.default_handler:000002b0 $t
C:\Users\PCHAUT~1\AppData\Local\Temp\cc7u0cQS.s:1312   .text.default_handler:000003b0 $d
C:\Users\PCHAUT~1\AppData\Local\Temp\cc7u0cQS.s:1318   .text.usbInit:00000000 $t
ARM GAS  C:\Users\PCHAUT~1\AppData\Local\Temp\cc7u0cQS.s 			page 287


C:\Users\PCHAUT~1\AppData\Local\Temp\cc7u0cQS.s:1326   .text.usbInit:00000000 usbInit
C:\Users\PCHAUT~1\AppData\Local\Temp\cc7u0cQS.s:1359   .text.usbInit:00000024 $d
C:\Users\PCHAUT~1\AppData\Local\Temp\cc7u0cQS.s:1364   .text.usbObjectInit:00000000 $t
C:\Users\PCHAUT~1\AppData\Local\Temp\cc7u0cQS.s:1372   .text.usbObjectInit:00000000 usbObjectInit
C:\Users\PCHAUT~1\AppData\Local\Temp\cc7u0cQS.s:1448   .text.usbObjectInit:00000068 $d
C:\Users\PCHAUT~1\AppData\Local\Temp\cc7u0cQS.s:1453   .text.usbStart:00000000 $t
C:\Users\PCHAUT~1\AppData\Local\Temp\cc7u0cQS.s:1461   .text.usbStart:00000000 usbStart
C:\Users\PCHAUT~1\AppData\Local\Temp\cc7u0cQS.s:1558   .text.usbStart:00000088 $d
C:\Users\PCHAUT~1\AppData\Local\Temp\cc7u0cQS.s:3228   .rodata.__func__.10294:00000000 __func__.10294
C:\Users\PCHAUT~1\AppData\Local\Temp\cc7u0cQS.s:1564   .text.usbStop:00000000 $t
C:\Users\PCHAUT~1\AppData\Local\Temp\cc7u0cQS.s:1572   .text.usbStop:00000000 usbStop
C:\Users\PCHAUT~1\AppData\Local\Temp\cc7u0cQS.s:1647   .text.usbStop:00000068 $d
C:\Users\PCHAUT~1\AppData\Local\Temp\cc7u0cQS.s:3240   .rodata.__func__.10301:00000000 __func__.10301
C:\Users\PCHAUT~1\AppData\Local\Temp\cc7u0cQS.s:1653   .text.usbInitEndpointI:00000000 $t
C:\Users\PCHAUT~1\AppData\Local\Temp\cc7u0cQS.s:1661   .text.usbInitEndpointI:00000000 usbInitEndpointI
C:\Users\PCHAUT~1\AppData\Local\Temp\cc7u0cQS.s:1772   .text.usbInitEndpointI:000000b0 $d
C:\Users\PCHAUT~1\AppData\Local\Temp\cc7u0cQS.s:3246   .rodata.__func__.10307:00000000 __func__.10307
C:\Users\PCHAUT~1\AppData\Local\Temp\cc7u0cQS.s:1778   .text.usbDisableEndpointsI:00000000 $t
C:\Users\PCHAUT~1\AppData\Local\Temp\cc7u0cQS.s:1786   .text.usbDisableEndpointsI:00000000 usbDisableEndpointsI
C:\Users\PCHAUT~1\AppData\Local\Temp\cc7u0cQS.s:1876   .text.usbDisableEndpointsI:00000084 $d
C:\Users\PCHAUT~1\AppData\Local\Temp\cc7u0cQS.s:3252   .rodata.__func__.10312:00000000 __func__.10312
C:\Users\PCHAUT~1\AppData\Local\Temp\cc7u0cQS.s:1882   .text.usbPrepareReceive:00000000 $t
C:\Users\PCHAUT~1\AppData\Local\Temp\cc7u0cQS.s:1890   .text.usbPrepareReceive:00000000 usbPrepareReceive
C:\Users\PCHAUT~1\AppData\Local\Temp\cc7u0cQS.s:1956   .text.usbPrepareReceive:00000064 $d
C:\Users\PCHAUT~1\AppData\Local\Temp\cc7u0cQS.s:1961   .text.usbPrepareTransmit:00000000 $t
C:\Users\PCHAUT~1\AppData\Local\Temp\cc7u0cQS.s:1969   .text.usbPrepareTransmit:00000000 usbPrepareTransmit
C:\Users\PCHAUT~1\AppData\Local\Temp\cc7u0cQS.s:2035   .text.usbPrepareTransmit:00000064 $d
C:\Users\PCHAUT~1\AppData\Local\Temp\cc7u0cQS.s:2040   .text.usbPrepareQueuedReceive:00000000 $t
C:\Users\PCHAUT~1\AppData\Local\Temp\cc7u0cQS.s:2048   .text.usbPrepareQueuedReceive:00000000 usbPrepareQueuedReceive
C:\Users\PCHAUT~1\AppData\Local\Temp\cc7u0cQS.s:2114   .text.usbPrepareQueuedReceive:00000064 $d
C:\Users\PCHAUT~1\AppData\Local\Temp\cc7u0cQS.s:2119   .text.usbPrepareQueuedTransmit:00000000 $t
C:\Users\PCHAUT~1\AppData\Local\Temp\cc7u0cQS.s:2127   .text.usbPrepareQueuedTransmit:00000000 usbPrepareQueuedTransmit
C:\Users\PCHAUT~1\AppData\Local\Temp\cc7u0cQS.s:2193   .text.usbPrepareQueuedTransmit:00000064 $d
C:\Users\PCHAUT~1\AppData\Local\Temp\cc7u0cQS.s:2198   .text.usbStartReceiveI:00000000 $t
C:\Users\PCHAUT~1\AppData\Local\Temp\cc7u0cQS.s:2206   .text.usbStartReceiveI:00000000 usbStartReceiveI
C:\Users\PCHAUT~1\AppData\Local\Temp\cc7u0cQS.s:2284   .text.usbStartReceiveI:0000007c $d
C:\Users\PCHAUT~1\AppData\Local\Temp\cc7u0cQS.s:3258   .rodata.__func__.10348:00000000 __func__.10348
C:\Users\PCHAUT~1\AppData\Local\Temp\cc7u0cQS.s:2290   .text.usbStartTransmitI:00000000 $t
C:\Users\PCHAUT~1\AppData\Local\Temp\cc7u0cQS.s:2298   .text.usbStartTransmitI:00000000 usbStartTransmitI
C:\Users\PCHAUT~1\AppData\Local\Temp\cc7u0cQS.s:2376   .text.usbStartTransmitI:0000007c $d
C:\Users\PCHAUT~1\AppData\Local\Temp\cc7u0cQS.s:3264   .rodata.__func__.10353:00000000 __func__.10353
C:\Users\PCHAUT~1\AppData\Local\Temp\cc7u0cQS.s:2382   .text.usbStallReceiveI:00000000 $t
C:\Users\PCHAUT~1\AppData\Local\Temp\cc7u0cQS.s:2390   .text.usbStallReceiveI:00000000 usbStallReceiveI
C:\Users\PCHAUT~1\AppData\Local\Temp\cc7u0cQS.s:2457   .text.usbStallReceiveI:00000064 $d
C:\Users\PCHAUT~1\AppData\Local\Temp\cc7u0cQS.s:3270   .rodata.__func__.10358:00000000 __func__.10358
C:\Users\PCHAUT~1\AppData\Local\Temp\cc7u0cQS.s:2463   .text.usbStallTransmitI:00000000 $t
C:\Users\PCHAUT~1\AppData\Local\Temp\cc7u0cQS.s:2471   .text.usbStallTransmitI:00000000 usbStallTransmitI
C:\Users\PCHAUT~1\AppData\Local\Temp\cc7u0cQS.s:2538   .text.usbStallTransmitI:00000064 $d
C:\Users\PCHAUT~1\AppData\Local\Temp\cc7u0cQS.s:3276   .rodata.__func__.10363:00000000 __func__.10363
C:\Users\PCHAUT~1\AppData\Local\Temp\cc7u0cQS.s:2544   .text._usb_reset:00000000 $t
C:\Users\PCHAUT~1\AppData\Local\Temp\cc7u0cQS.s:2552   .text._usb_reset:00000000 _usb_reset
C:\Users\PCHAUT~1\AppData\Local\Temp\cc7u0cQS.s:2637   .text._usb_reset:0000007c $d
C:\Users\PCHAUT~1\AppData\Local\Temp\cc7u0cQS.s:2642   .text._usb_ep0setup:00000000 $t
C:\Users\PCHAUT~1\AppData\Local\Temp\cc7u0cQS.s:2650   .text._usb_ep0setup:00000000 _usb_ep0setup
C:\Users\PCHAUT~1\AppData\Local\Temp\cc7u0cQS.s:2877   .text._usb_ep0setup:00000188 $d
C:\Users\PCHAUT~1\AppData\Local\Temp\cc7u0cQS.s:2882   .text._usb_ep0in:00000000 $t
C:\Users\PCHAUT~1\AppData\Local\Temp\cc7u0cQS.s:2890   .text._usb_ep0in:00000000 _usb_ep0in
ARM GAS  C:\Users\PCHAUT~1\AppData\Local\Temp\cc7u0cQS.s 			page 288


C:\Users\PCHAUT~1\AppData\Local\Temp\cc7u0cQS.s:2917   .text._usb_ep0in:00000024 $d
C:\Users\PCHAUT~1\AppData\Local\Temp\cc7u0cQS.s:2924   .text._usb_ep0in:00000040 $t
C:\Users\PCHAUT~1\AppData\Local\Temp\cc7u0cQS.s:3065   .text._usb_ep0in:00000128 $d
C:\Users\PCHAUT~1\AppData\Local\Temp\cc7u0cQS.s:3282   .rodata.__func__.10387:00000000 __func__.10387
C:\Users\PCHAUT~1\AppData\Local\Temp\cc7u0cQS.s:3071   .text._usb_ep0out:00000000 $t
C:\Users\PCHAUT~1\AppData\Local\Temp\cc7u0cQS.s:3079   .text._usb_ep0out:00000000 _usb_ep0out
C:\Users\PCHAUT~1\AppData\Local\Temp\cc7u0cQS.s:3106   .text._usb_ep0out:00000024 $d
C:\Users\PCHAUT~1\AppData\Local\Temp\cc7u0cQS.s:3113   .text._usb_ep0out:00000040 $t
C:\Users\PCHAUT~1\AppData\Local\Temp\cc7u0cQS.s:3219   .text._usb_ep0out:000000e0 $d
C:\Users\PCHAUT~1\AppData\Local\Temp\cc7u0cQS.s:3288   .rodata.__func__.10401:00000000 __func__.10401
C:\Users\PCHAUT~1\AppData\Local\Temp\cc7u0cQS.s:3225   .rodata.__func__.10294:00000000 $d
C:\Users\PCHAUT~1\AppData\Local\Temp\cc7u0cQS.s:3231   .rodata.__func__.7554:00000000 $d
C:\Users\PCHAUT~1\AppData\Local\Temp\cc7u0cQS.s:3237   .rodata.__func__.10301:00000000 $d
C:\Users\PCHAUT~1\AppData\Local\Temp\cc7u0cQS.s:3243   .rodata.__func__.10307:00000000 $d
C:\Users\PCHAUT~1\AppData\Local\Temp\cc7u0cQS.s:3249   .rodata.__func__.10312:00000000 $d
C:\Users\PCHAUT~1\AppData\Local\Temp\cc7u0cQS.s:3255   .rodata.__func__.10348:00000000 $d
C:\Users\PCHAUT~1\AppData\Local\Temp\cc7u0cQS.s:3261   .rodata.__func__.10353:00000000 $d
C:\Users\PCHAUT~1\AppData\Local\Temp\cc7u0cQS.s:3267   .rodata.__func__.10358:00000000 $d
C:\Users\PCHAUT~1\AppData\Local\Temp\cc7u0cQS.s:3273   .rodata.__func__.10363:00000000 $d
C:\Users\PCHAUT~1\AppData\Local\Temp\cc7u0cQS.s:3279   .rodata.__func__.10387:00000000 $d
C:\Users\PCHAUT~1\AppData\Local\Temp\cc7u0cQS.s:3285   .rodata.__func__.10401:00000000 $d

UNDEFINED SYMBOLS
__stack_chk_fail
__stack_chk_guard
_stats_start_measure_crit_thd
_dbg_check_lock
_dbg_check_unlock
_stats_stop_measure_crit_thd
chSysHalt
ch
_stats_start_measure_crit_isr
_dbg_check_lock_from_isr
_dbg_check_unlock_from_isr
_stats_stop_measure_crit_isr
usb_lld_set_address
usb_lld_get_status_in
usb_lld_get_status_out
usb_lld_clear_in
usb_lld_clear_out
usb_lld_stall_in
usb_lld_stall_out
usb_lld_init
usb_lld_start
usb_lld_stop
chDbgCheckClassI
memset
usb_lld_init_endpoint
usb_lld_disable_endpoints
usb_lld_prepare_receive
usb_lld_prepare_transmit
usb_lld_start_out
usb_lld_start_in
usb_lld_reset
usb_lld_read_setup
