ARM GAS  C:\Users\PCHAUT~1\AppData\Local\Temp\cc7u0cQS.s 			page 1


   1              		.cpu cortex-m4
   2              		.eabi_attribute 27, 1
   3              		.eabi_attribute 28, 1
   4              		.eabi_attribute 20, 1
   5              		.eabi_attribute 21, 1
   6              		.eabi_attribute 23, 3
   7              		.eabi_attribute 24, 1
   8              		.eabi_attribute 25, 1
   9              		.eabi_attribute 26, 1
  10              		.eabi_attribute 30, 6
  11              		.eabi_attribute 34, 1
  12              		.eabi_attribute 18, 4
  13              		.file	"usb.c"
  14              		.text
  15              	.Ltext0:
  16              		.cfi_sections	.debug_frame
  17              		.section	.text.port_lock,"ax",%progbits
  18              		.align	1
  19              		.p2align 4,,15
  20              		.syntax unified
  21              		.thumb
  22              		.thumb_func
  23              		.fpu fpv4-sp-d16
  24              		.type	port_lock, %function
  25              	port_lock:
  26              	.LFB116:
  27              		.file 1 "../lib/e-puck2_main-processor/ChibiOS//os/rt/ports/ARMCMx/chcore_v7m.h"
  28              		.loc 1 444 0
  29              		.cfi_startproc
  30              		@ args = 0, pretend = 0, frame = 8
  31              		@ frame_needed = 0, uses_anonymous_args = 0
  32 0000 00B5     		push	{lr}
  33              		.cfi_def_cfa_offset 4
  34              		.cfi_offset 14, -4
  35 0002 83B0     		sub	sp, sp, #12
  36              		.cfi_def_cfa_offset 16
  37              		.loc 1 444 0
  38 0004 094B     		ldr	r3, .L3
  39 0006 1B68     		ldr	r3, [r3]
  40 0008 0193     		str	r3, [sp, #4]
  41 000a 2023     		movs	r3, #32
  42 000c 0093     		str	r3, [sp]
  43              	.LBB6:
  44              	.LBB7:
  45              		.file 2 "../lib/e-puck2_main-processor/ChibiOS//os/ext/CMSIS/include/core_cmFunc.h"
  46              		.loc 2 546 0
  47 000e 009B     		ldr	r3, [sp]
  48              		.syntax unified
  49              	@ 546 "../lib/e-puck2_main-processor/ChibiOS//os/ext/CMSIS/include/core_cmFunc.h" 1
  50 0010 83F31188 		MSR basepri, r3
  51              	@ 0 "" 2
  52              		.thumb
  53              		.syntax unified
  54              	.LBE7:
  55              	.LBE6:
  56              		.loc 1 451 0
  57 0014 00BF     		nop
ARM GAS  C:\Users\PCHAUT~1\AppData\Local\Temp\cc7u0cQS.s 			page 2


  58 0016 054B     		ldr	r3, .L3
  59 0018 019A     		ldr	r2, [sp, #4]
  60 001a 1B68     		ldr	r3, [r3]
  61 001c 9A42     		cmp	r2, r3
  62 001e 01D0     		beq	.L2
  63 0020 FFF7FEFF 		bl	__stack_chk_fail
  64              	.L2:
  65 0024 03B0     		add	sp, sp, #12
  66              		.cfi_def_cfa_offset 4
  67              		@ sp needed
  68 0026 5DF804FB 		ldr	pc, [sp], #4
  69              	.L4:
  70 002a 00BF     		.align	2
  71              	.L3:
  72 002c 00000000 		.word	__stack_chk_guard
  73              		.cfi_endproc
  74              	.LFE116:
  75              		.size	port_lock, .-port_lock
  76              		.section	.text.port_unlock,"ax",%progbits
  77              		.align	1
  78              		.p2align 4,,15
  79              		.syntax unified
  80              		.thumb
  81              		.thumb_func
  82              		.fpu fpv4-sp-d16
  83              		.type	port_unlock, %function
  84              	port_unlock:
  85              	.LFB117:
  86              		.loc 1 458 0
  87              		.cfi_startproc
  88              		@ args = 0, pretend = 0, frame = 8
  89              		@ frame_needed = 0, uses_anonymous_args = 0
  90 0000 00B5     		push	{lr}
  91              		.cfi_def_cfa_offset 4
  92              		.cfi_offset 14, -4
  93 0002 83B0     		sub	sp, sp, #12
  94              		.cfi_def_cfa_offset 16
  95              		.loc 1 458 0
  96 0004 094B     		ldr	r3, .L7
  97 0006 1B68     		ldr	r3, [r3]
  98 0008 0193     		str	r3, [sp, #4]
  99 000a 0023     		movs	r3, #0
 100 000c 0093     		str	r3, [sp]
 101              	.LBB8:
 102              	.LBB9:
 103              		.loc 2 546 0
 104 000e 009B     		ldr	r3, [sp]
 105              		.syntax unified
 106              	@ 546 "../lib/e-puck2_main-processor/ChibiOS//os/ext/CMSIS/include/core_cmFunc.h" 1
 107 0010 83F31188 		MSR basepri, r3
 108              	@ 0 "" 2
 109              		.thumb
 110              		.syntax unified
 111              	.LBE9:
 112              	.LBE8:
 113              		.loc 1 465 0
 114 0014 00BF     		nop
ARM GAS  C:\Users\PCHAUT~1\AppData\Local\Temp\cc7u0cQS.s 			page 3


 115 0016 054B     		ldr	r3, .L7
 116 0018 019A     		ldr	r2, [sp, #4]
 117 001a 1B68     		ldr	r3, [r3]
 118 001c 9A42     		cmp	r2, r3
 119 001e 01D0     		beq	.L6
 120 0020 FFF7FEFF 		bl	__stack_chk_fail
 121              	.L6:
 122 0024 03B0     		add	sp, sp, #12
 123              		.cfi_def_cfa_offset 4
 124              		@ sp needed
 125 0026 5DF804FB 		ldr	pc, [sp], #4
 126              	.L8:
 127 002a 00BF     		.align	2
 128              	.L7:
 129 002c 00000000 		.word	__stack_chk_guard
 130              		.cfi_endproc
 131              	.LFE117:
 132              		.size	port_unlock, .-port_unlock
 133              		.section	.text.port_lock_from_isr,"ax",%progbits
 134              		.align	1
 135              		.p2align 4,,15
 136              		.syntax unified
 137              		.thumb
 138              		.thumb_func
 139              		.fpu fpv4-sp-d16
 140              		.type	port_lock_from_isr, %function
 141              	port_lock_from_isr:
 142              	.LFB118:
 143              		.loc 1 473 0
 144              		.cfi_startproc
 145              		@ args = 0, pretend = 0, frame = 8
 146              		@ frame_needed = 0, uses_anonymous_args = 0
 147 0000 00B5     		push	{lr}
 148              		.cfi_def_cfa_offset 4
 149              		.cfi_offset 14, -4
 150 0002 83B0     		sub	sp, sp, #12
 151              		.cfi_def_cfa_offset 16
 152              		.loc 1 473 0
 153 0004 074B     		ldr	r3, .L11
 154 0006 1B68     		ldr	r3, [r3]
 155 0008 0193     		str	r3, [sp, #4]
 156              		.loc 1 475 0
 157 000a FFF7FEFF 		bl	port_lock
 158              		.loc 1 476 0
 159 000e 00BF     		nop
 160 0010 044B     		ldr	r3, .L11
 161 0012 019A     		ldr	r2, [sp, #4]
 162 0014 1B68     		ldr	r3, [r3]
 163 0016 9A42     		cmp	r2, r3
 164 0018 01D0     		beq	.L10
 165 001a FFF7FEFF 		bl	__stack_chk_fail
 166              	.L10:
 167 001e 03B0     		add	sp, sp, #12
 168              		.cfi_def_cfa_offset 4
 169              		@ sp needed
 170 0020 5DF804FB 		ldr	pc, [sp], #4
 171              	.L12:
ARM GAS  C:\Users\PCHAUT~1\AppData\Local\Temp\cc7u0cQS.s 			page 4


 172              		.align	2
 173              	.L11:
 174 0024 00000000 		.word	__stack_chk_guard
 175              		.cfi_endproc
 176              	.LFE118:
 177              		.size	port_lock_from_isr, .-port_lock_from_isr
 178              		.section	.text.port_unlock_from_isr,"ax",%progbits
 179              		.align	1
 180              		.p2align 4,,15
 181              		.syntax unified
 182              		.thumb
 183              		.thumb_func
 184              		.fpu fpv4-sp-d16
 185              		.type	port_unlock_from_isr, %function
 186              	port_unlock_from_isr:
 187              	.LFB119:
 188              		.loc 1 484 0
 189              		.cfi_startproc
 190              		@ args = 0, pretend = 0, frame = 8
 191              		@ frame_needed = 0, uses_anonymous_args = 0
 192 0000 00B5     		push	{lr}
 193              		.cfi_def_cfa_offset 4
 194              		.cfi_offset 14, -4
 195 0002 83B0     		sub	sp, sp, #12
 196              		.cfi_def_cfa_offset 16
 197              		.loc 1 484 0
 198 0004 074B     		ldr	r3, .L15
 199 0006 1B68     		ldr	r3, [r3]
 200 0008 0193     		str	r3, [sp, #4]
 201              		.loc 1 486 0
 202 000a FFF7FEFF 		bl	port_unlock
 203              		.loc 1 487 0
 204 000e 00BF     		nop
 205 0010 044B     		ldr	r3, .L15
 206 0012 019A     		ldr	r2, [sp, #4]
 207 0014 1B68     		ldr	r3, [r3]
 208 0016 9A42     		cmp	r2, r3
 209 0018 01D0     		beq	.L14
 210 001a FFF7FEFF 		bl	__stack_chk_fail
 211              	.L14:
 212 001e 03B0     		add	sp, sp, #12
 213              		.cfi_def_cfa_offset 4
 214              		@ sp needed
 215 0020 5DF804FB 		ldr	pc, [sp], #4
 216              	.L16:
 217              		.align	2
 218              	.L15:
 219 0024 00000000 		.word	__stack_chk_guard
 220              		.cfi_endproc
 221              	.LFE119:
 222              		.size	port_unlock_from_isr, .-port_unlock_from_isr
 223              		.section	.text.chSysLock,"ax",%progbits
 224              		.align	1
 225              		.p2align 4,,15
 226              		.syntax unified
 227              		.thumb
 228              		.thumb_func
ARM GAS  C:\Users\PCHAUT~1\AppData\Local\Temp\cc7u0cQS.s 			page 5


 229              		.fpu fpv4-sp-d16
 230              		.type	chSysLock, %function
 231              	chSysLock:
 232              	.LFB145:
 233              		.file 3 "../lib/e-puck2_main-processor/ChibiOS//os/rt/include/chsys.h"
 234              		.loc 3 346 0
 235              		.cfi_startproc
 236              		@ args = 0, pretend = 0, frame = 8
 237              		@ frame_needed = 0, uses_anonymous_args = 0
 238 0000 00B5     		push	{lr}
 239              		.cfi_def_cfa_offset 4
 240              		.cfi_offset 14, -4
 241 0002 83B0     		sub	sp, sp, #12
 242              		.cfi_def_cfa_offset 16
 243              		.loc 3 346 0
 244 0004 094B     		ldr	r3, .L19
 245 0006 1B68     		ldr	r3, [r3]
 246 0008 0193     		str	r3, [sp, #4]
 247              		.loc 3 348 0
 248 000a FFF7FEFF 		bl	port_lock
 249              		.loc 3 349 0
 250 000e FFF7FEFF 		bl	_stats_start_measure_crit_thd
 251              		.loc 3 350 0
 252 0012 FFF7FEFF 		bl	_dbg_check_lock
 253              		.loc 3 351 0
 254 0016 00BF     		nop
 255 0018 044B     		ldr	r3, .L19
 256 001a 019A     		ldr	r2, [sp, #4]
 257 001c 1B68     		ldr	r3, [r3]
 258 001e 9A42     		cmp	r2, r3
 259 0020 01D0     		beq	.L18
 260 0022 FFF7FEFF 		bl	__stack_chk_fail
 261              	.L18:
 262 0026 03B0     		add	sp, sp, #12
 263              		.cfi_def_cfa_offset 4
 264              		@ sp needed
 265 0028 5DF804FB 		ldr	pc, [sp], #4
 266              	.L20:
 267              		.align	2
 268              	.L19:
 269 002c 00000000 		.word	__stack_chk_guard
 270              		.cfi_endproc
 271              	.LFE145:
 272              		.size	chSysLock, .-chSysLock
 273              		.section	.text.chSysUnlock,"ax",%progbits
 274              		.align	1
 275              		.p2align 4,,15
 276              		.syntax unified
 277              		.thumb
 278              		.thumb_func
 279              		.fpu fpv4-sp-d16
 280              		.type	chSysUnlock, %function
 281              	chSysUnlock:
 282              	.LFB146:
 283              		.loc 3 358 0
 284              		.cfi_startproc
 285              		@ args = 0, pretend = 0, frame = 8
ARM GAS  C:\Users\PCHAUT~1\AppData\Local\Temp\cc7u0cQS.s 			page 6


 286              		@ frame_needed = 0, uses_anonymous_args = 0
 287 0000 00B5     		push	{lr}
 288              		.cfi_def_cfa_offset 4
 289              		.cfi_offset 14, -4
 290 0002 83B0     		sub	sp, sp, #12
 291              		.cfi_def_cfa_offset 16
 292              		.loc 3 358 0
 293 0004 114B     		ldr	r3, .L24
 294 0006 1B68     		ldr	r3, [r3]
 295 0008 0193     		str	r3, [sp, #4]
 296              		.loc 3 360 0
 297 000a FFF7FEFF 		bl	_dbg_check_unlock
 298              		.loc 3 361 0
 299 000e FFF7FEFF 		bl	_stats_stop_measure_crit_thd
 300              		.loc 3 367 0
 301 0012 0F4B     		ldr	r3, .L24+4
 302 0014 1B68     		ldr	r3, [r3]
 303 0016 0E4A     		ldr	r2, .L24+4
 304 0018 9342     		cmp	r3, r2
 305 001a 0AD0     		beq	.L22
 306              		.loc 3 367 0 is_stmt 0 discriminator 2
 307 001c 0C4B     		ldr	r3, .L24+4
 308 001e 9B69     		ldr	r3, [r3, #24]
 309 0020 9A68     		ldr	r2, [r3, #8]
 310 0022 0B4B     		ldr	r3, .L24+4
 311 0024 1B68     		ldr	r3, [r3]
 312 0026 9B68     		ldr	r3, [r3, #8]
 313 0028 9A42     		cmp	r2, r3
 314 002a 02D2     		bcs	.L22
 315              		.loc 3 367 0 discriminator 3
 316 002c 0948     		ldr	r0, .L24+8
 317 002e FFF7FEFF 		bl	chSysHalt
 318              	.L22:
 319              		.loc 3 371 0 is_stmt 1
 320 0032 FFF7FEFF 		bl	port_unlock
 321              		.loc 3 372 0
 322 0036 00BF     		nop
 323 0038 044B     		ldr	r3, .L24
 324 003a 019A     		ldr	r2, [sp, #4]
 325 003c 1B68     		ldr	r3, [r3]
 326 003e 9A42     		cmp	r2, r3
 327 0040 01D0     		beq	.L23
 328 0042 FFF7FEFF 		bl	__stack_chk_fail
 329              	.L23:
 330 0046 03B0     		add	sp, sp, #12
 331              		.cfi_def_cfa_offset 4
 332              		@ sp needed
 333 0048 5DF804FB 		ldr	pc, [sp], #4
 334              	.L25:
 335              		.align	2
 336              	.L24:
 337 004c 00000000 		.word	__stack_chk_guard
 338 0050 00000000 		.word	ch
 339 0054 00000000 		.word	__func__.7554
 340              		.cfi_endproc
 341              	.LFE146:
 342              		.size	chSysUnlock, .-chSysUnlock
ARM GAS  C:\Users\PCHAUT~1\AppData\Local\Temp\cc7u0cQS.s 			page 7


 343              		.section	.text.chSysLockFromISR,"ax",%progbits
 344              		.align	1
 345              		.p2align 4,,15
 346              		.syntax unified
 347              		.thumb
 348              		.thumb_func
 349              		.fpu fpv4-sp-d16
 350              		.type	chSysLockFromISR, %function
 351              	chSysLockFromISR:
 352              	.LFB147:
 353              		.loc 3 386 0
 354              		.cfi_startproc
 355              		@ args = 0, pretend = 0, frame = 8
 356              		@ frame_needed = 0, uses_anonymous_args = 0
 357 0000 00B5     		push	{lr}
 358              		.cfi_def_cfa_offset 4
 359              		.cfi_offset 14, -4
 360 0002 83B0     		sub	sp, sp, #12
 361              		.cfi_def_cfa_offset 16
 362              		.loc 3 386 0
 363 0004 094B     		ldr	r3, .L28
 364 0006 1B68     		ldr	r3, [r3]
 365 0008 0193     		str	r3, [sp, #4]
 366              		.loc 3 388 0
 367 000a FFF7FEFF 		bl	port_lock_from_isr
 368              		.loc 3 389 0
 369 000e FFF7FEFF 		bl	_stats_start_measure_crit_isr
 370              		.loc 3 390 0
 371 0012 FFF7FEFF 		bl	_dbg_check_lock_from_isr
 372              		.loc 3 391 0
 373 0016 00BF     		nop
 374 0018 044B     		ldr	r3, .L28
 375 001a 019A     		ldr	r2, [sp, #4]
 376 001c 1B68     		ldr	r3, [r3]
 377 001e 9A42     		cmp	r2, r3
 378 0020 01D0     		beq	.L27
 379 0022 FFF7FEFF 		bl	__stack_chk_fail
 380              	.L27:
 381 0026 03B0     		add	sp, sp, #12
 382              		.cfi_def_cfa_offset 4
 383              		@ sp needed
 384 0028 5DF804FB 		ldr	pc, [sp], #4
 385              	.L29:
 386              		.align	2
 387              	.L28:
 388 002c 00000000 		.word	__stack_chk_guard
 389              		.cfi_endproc
 390              	.LFE147:
 391              		.size	chSysLockFromISR, .-chSysLockFromISR
 392              		.section	.text.chSysUnlockFromISR,"ax",%progbits
 393              		.align	1
 394              		.p2align 4,,15
 395              		.syntax unified
 396              		.thumb
 397              		.thumb_func
 398              		.fpu fpv4-sp-d16
 399              		.type	chSysUnlockFromISR, %function
ARM GAS  C:\Users\PCHAUT~1\AppData\Local\Temp\cc7u0cQS.s 			page 8


 400              	chSysUnlockFromISR:
 401              	.LFB148:
 402              		.loc 3 406 0
 403              		.cfi_startproc
 404              		@ args = 0, pretend = 0, frame = 8
 405              		@ frame_needed = 0, uses_anonymous_args = 0
 406 0000 00B5     		push	{lr}
 407              		.cfi_def_cfa_offset 4
 408              		.cfi_offset 14, -4
 409 0002 83B0     		sub	sp, sp, #12
 410              		.cfi_def_cfa_offset 16
 411              		.loc 3 406 0
 412 0004 094B     		ldr	r3, .L32
 413 0006 1B68     		ldr	r3, [r3]
 414 0008 0193     		str	r3, [sp, #4]
 415              		.loc 3 408 0
 416 000a FFF7FEFF 		bl	_dbg_check_unlock_from_isr
 417              		.loc 3 409 0
 418 000e FFF7FEFF 		bl	_stats_stop_measure_crit_isr
 419              		.loc 3 410 0
 420 0012 FFF7FEFF 		bl	port_unlock_from_isr
 421              		.loc 3 411 0
 422 0016 00BF     		nop
 423 0018 044B     		ldr	r3, .L32
 424 001a 019A     		ldr	r2, [sp, #4]
 425 001c 1B68     		ldr	r3, [r3]
 426 001e 9A42     		cmp	r2, r3
 427 0020 01D0     		beq	.L31
 428 0022 FFF7FEFF 		bl	__stack_chk_fail
 429              	.L31:
 430 0026 03B0     		add	sp, sp, #12
 431              		.cfi_def_cfa_offset 4
 432              		@ sp needed
 433 0028 5DF804FB 		ldr	pc, [sp], #4
 434              	.L33:
 435              		.align	2
 436              	.L32:
 437 002c 00000000 		.word	__stack_chk_guard
 438              		.cfi_endproc
 439              	.LFE148:
 440              		.size	chSysUnlockFromISR, .-chSysUnlockFromISR
 441              		.section	.text.osalSysLock,"ax",%progbits
 442              		.align	1
 443              		.p2align 4,,15
 444              		.syntax unified
 445              		.thumb
 446              		.thumb_func
 447              		.fpu fpv4-sp-d16
 448              		.type	osalSysLock, %function
 449              	osalSysLock:
 450              	.LFB223:
 451              		.file 4 "../lib/e-puck2_main-processor/ChibiOS//os/hal/osal/rt/osal.h"
 452              		.loc 4 445 0
 453              		.cfi_startproc
 454              		@ args = 0, pretend = 0, frame = 8
 455              		@ frame_needed = 0, uses_anonymous_args = 0
 456 0000 00B5     		push	{lr}
ARM GAS  C:\Users\PCHAUT~1\AppData\Local\Temp\cc7u0cQS.s 			page 9


 457              		.cfi_def_cfa_offset 4
 458              		.cfi_offset 14, -4
 459 0002 83B0     		sub	sp, sp, #12
 460              		.cfi_def_cfa_offset 16
 461              		.loc 4 445 0
 462 0004 074B     		ldr	r3, .L36
 463 0006 1B68     		ldr	r3, [r3]
 464 0008 0193     		str	r3, [sp, #4]
 465              		.loc 4 447 0
 466 000a FFF7FEFF 		bl	chSysLock
 467              		.loc 4 448 0
 468 000e 00BF     		nop
 469 0010 044B     		ldr	r3, .L36
 470 0012 019A     		ldr	r2, [sp, #4]
 471 0014 1B68     		ldr	r3, [r3]
 472 0016 9A42     		cmp	r2, r3
 473 0018 01D0     		beq	.L35
 474 001a FFF7FEFF 		bl	__stack_chk_fail
 475              	.L35:
 476 001e 03B0     		add	sp, sp, #12
 477              		.cfi_def_cfa_offset 4
 478              		@ sp needed
 479 0020 5DF804FB 		ldr	pc, [sp], #4
 480              	.L37:
 481              		.align	2
 482              	.L36:
 483 0024 00000000 		.word	__stack_chk_guard
 484              		.cfi_endproc
 485              	.LFE223:
 486              		.size	osalSysLock, .-osalSysLock
 487              		.section	.text.osalSysUnlock,"ax",%progbits
 488              		.align	1
 489              		.p2align 4,,15
 490              		.syntax unified
 491              		.thumb
 492              		.thumb_func
 493              		.fpu fpv4-sp-d16
 494              		.type	osalSysUnlock, %function
 495              	osalSysUnlock:
 496              	.LFB224:
 497              		.loc 4 456 0
 498              		.cfi_startproc
 499              		@ args = 0, pretend = 0, frame = 8
 500              		@ frame_needed = 0, uses_anonymous_args = 0
 501 0000 00B5     		push	{lr}
 502              		.cfi_def_cfa_offset 4
 503              		.cfi_offset 14, -4
 504 0002 83B0     		sub	sp, sp, #12
 505              		.cfi_def_cfa_offset 16
 506              		.loc 4 456 0
 507 0004 074B     		ldr	r3, .L40
 508 0006 1B68     		ldr	r3, [r3]
 509 0008 0193     		str	r3, [sp, #4]
 510              		.loc 4 458 0
 511 000a FFF7FEFF 		bl	chSysUnlock
 512              		.loc 4 459 0
 513 000e 00BF     		nop
ARM GAS  C:\Users\PCHAUT~1\AppData\Local\Temp\cc7u0cQS.s 			page 10


 514 0010 044B     		ldr	r3, .L40
 515 0012 019A     		ldr	r2, [sp, #4]
 516 0014 1B68     		ldr	r3, [r3]
 517 0016 9A42     		cmp	r2, r3
 518 0018 01D0     		beq	.L39
 519 001a FFF7FEFF 		bl	__stack_chk_fail
 520              	.L39:
 521 001e 03B0     		add	sp, sp, #12
 522              		.cfi_def_cfa_offset 4
 523              		@ sp needed
 524 0020 5DF804FB 		ldr	pc, [sp], #4
 525              	.L41:
 526              		.align	2
 527              	.L40:
 528 0024 00000000 		.word	__stack_chk_guard
 529              		.cfi_endproc
 530              	.LFE224:
 531              		.size	osalSysUnlock, .-osalSysUnlock
 532              		.section	.text.osalSysLockFromISR,"ax",%progbits
 533              		.align	1
 534              		.p2align 4,,15
 535              		.syntax unified
 536              		.thumb
 537              		.thumb_func
 538              		.fpu fpv4-sp-d16
 539              		.type	osalSysLockFromISR, %function
 540              	osalSysLockFromISR:
 541              	.LFB225:
 542              		.loc 4 467 0
 543              		.cfi_startproc
 544              		@ args = 0, pretend = 0, frame = 8
 545              		@ frame_needed = 0, uses_anonymous_args = 0
 546 0000 00B5     		push	{lr}
 547              		.cfi_def_cfa_offset 4
 548              		.cfi_offset 14, -4
 549 0002 83B0     		sub	sp, sp, #12
 550              		.cfi_def_cfa_offset 16
 551              		.loc 4 467 0
 552 0004 074B     		ldr	r3, .L44
 553 0006 1B68     		ldr	r3, [r3]
 554 0008 0193     		str	r3, [sp, #4]
 555              		.loc 4 469 0
 556 000a FFF7FEFF 		bl	chSysLockFromISR
 557              		.loc 4 470 0
 558 000e 00BF     		nop
 559 0010 044B     		ldr	r3, .L44
 560 0012 019A     		ldr	r2, [sp, #4]
 561 0014 1B68     		ldr	r3, [r3]
 562 0016 9A42     		cmp	r2, r3
 563 0018 01D0     		beq	.L43
 564 001a FFF7FEFF 		bl	__stack_chk_fail
 565              	.L43:
 566 001e 03B0     		add	sp, sp, #12
 567              		.cfi_def_cfa_offset 4
 568              		@ sp needed
 569 0020 5DF804FB 		ldr	pc, [sp], #4
 570              	.L45:
ARM GAS  C:\Users\PCHAUT~1\AppData\Local\Temp\cc7u0cQS.s 			page 11


 571              		.align	2
 572              	.L44:
 573 0024 00000000 		.word	__stack_chk_guard
 574              		.cfi_endproc
 575              	.LFE225:
 576              		.size	osalSysLockFromISR, .-osalSysLockFromISR
 577              		.section	.text.osalSysUnlockFromISR,"ax",%progbits
 578              		.align	1
 579              		.p2align 4,,15
 580              		.syntax unified
 581              		.thumb
 582              		.thumb_func
 583              		.fpu fpv4-sp-d16
 584              		.type	osalSysUnlockFromISR, %function
 585              	osalSysUnlockFromISR:
 586              	.LFB226:
 587              		.loc 4 478 0
 588              		.cfi_startproc
 589              		@ args = 0, pretend = 0, frame = 8
 590              		@ frame_needed = 0, uses_anonymous_args = 0
 591 0000 00B5     		push	{lr}
 592              		.cfi_def_cfa_offset 4
 593              		.cfi_offset 14, -4
 594 0002 83B0     		sub	sp, sp, #12
 595              		.cfi_def_cfa_offset 16
 596              		.loc 4 478 0
 597 0004 074B     		ldr	r3, .L48
 598 0006 1B68     		ldr	r3, [r3]
 599 0008 0193     		str	r3, [sp, #4]
 600              		.loc 4 480 0
 601 000a FFF7FEFF 		bl	chSysUnlockFromISR
 602              		.loc 4 481 0
 603 000e 00BF     		nop
 604 0010 044B     		ldr	r3, .L48
 605 0012 019A     		ldr	r2, [sp, #4]
 606 0014 1B68     		ldr	r3, [r3]
 607 0016 9A42     		cmp	r2, r3
 608 0018 01D0     		beq	.L47
 609 001a FFF7FEFF 		bl	__stack_chk_fail
 610              	.L47:
 611 001e 03B0     		add	sp, sp, #12
 612              		.cfi_def_cfa_offset 4
 613              		@ sp needed
 614 0020 5DF804FB 		ldr	pc, [sp], #4
 615              	.L49:
 616              		.align	2
 617              	.L48:
 618 0024 00000000 		.word	__stack_chk_guard
 619              		.cfi_endproc
 620              	.LFE226:
 621              		.size	osalSysUnlockFromISR, .-osalSysUnlockFromISR
 622              		.section	.rodata.zero_status,"a",%progbits
 623              		.align	2
 624              		.type	zero_status, %object
 625              		.size	zero_status, 2
 626              	zero_status:
 627 0000 0000     		.space	2
ARM GAS  C:\Users\PCHAUT~1\AppData\Local\Temp\cc7u0cQS.s 			page 12


 628              		.section	.rodata.active_status,"a",%progbits
 629              		.align	2
 630              		.type	active_status, %object
 631              		.size	active_status, 2
 632              	active_status:
 633 0000 0000     		.space	2
 634              		.section	.rodata.halted_status,"a",%progbits
 635              		.align	2
 636              		.type	halted_status, %object
 637              		.size	halted_status, 2
 638              	halted_status:
 639 0000 01       		.byte	1
 640 0001 00       		.byte	0
 641              		.section	.text.get_hword,"ax",%progbits
 642              		.align	1
 643              		.p2align 4,,15
 644              		.syntax unified
 645              		.thumb
 646              		.thumb_func
 647              		.fpu fpv4-sp-d16
 648              		.type	get_hword, %function
 649              	get_hword:
 650              	.LFB256:
 651              		.file 5 "../lib/e-puck2_main-processor/ChibiOS//os/hal/src/usb.c"
 652              		.loc 5 51 0
 653              		.cfi_startproc
 654              		@ args = 0, pretend = 0, frame = 16
 655              		@ frame_needed = 0, uses_anonymous_args = 0
 656 0000 00B5     		push	{lr}
 657              		.cfi_def_cfa_offset 4
 658              		.cfi_offset 14, -4
 659 0002 85B0     		sub	sp, sp, #20
 660              		.cfi_def_cfa_offset 24
 661 0004 0190     		str	r0, [sp, #4]
 662              		.loc 5 51 0
 663 0006 104B     		ldr	r3, .L53
 664 0008 1B68     		ldr	r3, [r3]
 665 000a 0393     		str	r3, [sp, #12]
 666              		.loc 5 54 0
 667 000c 019B     		ldr	r3, [sp, #4]
 668 000e 5A1C     		adds	r2, r3, #1
 669 0010 0192     		str	r2, [sp, #4]
 670 0012 1B78     		ldrb	r3, [r3]	@ zero_extendqisi2
 671 0014 ADF80A30 		strh	r3, [sp, #10]	@ movhi
 672              		.loc 5 55 0
 673 0018 019B     		ldr	r3, [sp, #4]
 674 001a 1B78     		ldrb	r3, [r3]	@ zero_extendqisi2
 675 001c 1B02     		lsls	r3, r3, #8
 676 001e 1AB2     		sxth	r2, r3
 677 0020 BDF90A30 		ldrsh	r3, [sp, #10]
 678 0024 1343     		orrs	r3, r3, r2
 679 0026 1BB2     		sxth	r3, r3
 680 0028 ADF80A30 		strh	r3, [sp, #10]	@ movhi
 681              		.loc 5 56 0
 682 002c BDF80A30 		ldrh	r3, [sp, #10]
 683              		.loc 5 57 0
 684 0030 1846     		mov	r0, r3
ARM GAS  C:\Users\PCHAUT~1\AppData\Local\Temp\cc7u0cQS.s 			page 13


 685 0032 054B     		ldr	r3, .L53
 686 0034 039A     		ldr	r2, [sp, #12]
 687 0036 1B68     		ldr	r3, [r3]
 688 0038 9A42     		cmp	r2, r3
 689 003a 01D0     		beq	.L52
 690 003c FFF7FEFF 		bl	__stack_chk_fail
 691              	.L52:
 692 0040 05B0     		add	sp, sp, #20
 693              		.cfi_def_cfa_offset 4
 694              		@ sp needed
 695 0042 5DF804FB 		ldr	pc, [sp], #4
 696              	.L54:
 697 0046 00BF     		.align	2
 698              	.L53:
 699 0048 00000000 		.word	__stack_chk_guard
 700              		.cfi_endproc
 701              	.LFE256:
 702              		.size	get_hword, .-get_hword
 703              		.section	.text.set_address,"ax",%progbits
 704              		.align	1
 705              		.p2align 4,,15
 706              		.syntax unified
 707              		.thumb
 708              		.thumb_func
 709              		.fpu fpv4-sp-d16
 710              		.type	set_address, %function
 711              	set_address:
 712              	.LFB257:
 713              		.loc 5 64 0
 714              		.cfi_startproc
 715              		@ args = 0, pretend = 0, frame = 16
 716              		@ frame_needed = 0, uses_anonymous_args = 0
 717 0000 00B5     		push	{lr}
 718              		.cfi_def_cfa_offset 4
 719              		.cfi_offset 14, -4
 720 0002 85B0     		sub	sp, sp, #20
 721              		.cfi_def_cfa_offset 24
 722 0004 0190     		str	r0, [sp, #4]
 723              		.loc 5 64 0
 724 0006 124B     		ldr	r3, .L58
 725 0008 1B68     		ldr	r3, [r3]
 726 000a 0393     		str	r3, [sp, #12]
 727              		.loc 5 66 0
 728 000c 019B     		ldr	r3, [sp, #4]
 729 000e 93F84620 		ldrb	r2, [r3, #70]	@ zero_extendqisi2
 730 0012 019B     		ldr	r3, [sp, #4]
 731 0014 83F84E20 		strb	r2, [r3, #78]
 732              		.loc 5 67 0
 733 0018 0198     		ldr	r0, [sp, #4]
 734 001a FFF7FEFF 		bl	usb_lld_set_address
 735              		.loc 5 68 0
 736 001e 019B     		ldr	r3, [sp, #4]
 737 0020 5B68     		ldr	r3, [r3, #4]
 738 0022 1B68     		ldr	r3, [r3]
 739 0024 002B     		cmp	r3, #0
 740 0026 05D0     		beq	.L56
 741              		.loc 5 68 0 is_stmt 0 discriminator 1
ARM GAS  C:\Users\PCHAUT~1\AppData\Local\Temp\cc7u0cQS.s 			page 14


 742 0028 019B     		ldr	r3, [sp, #4]
 743 002a 5B68     		ldr	r3, [r3, #4]
 744 002c 1B68     		ldr	r3, [r3]
 745 002e 0121     		movs	r1, #1
 746 0030 0198     		ldr	r0, [sp, #4]
 747 0032 9847     		blx	r3
 748              	.LVL0:
 749              	.L56:
 750              		.loc 5 69 0 is_stmt 1
 751 0034 019B     		ldr	r3, [sp, #4]
 752 0036 0322     		movs	r2, #3
 753 0038 1A70     		strb	r2, [r3]
 754              		.loc 5 70 0
 755 003a 00BF     		nop
 756 003c 044B     		ldr	r3, .L58
 757 003e 039A     		ldr	r2, [sp, #12]
 758 0040 1B68     		ldr	r3, [r3]
 759 0042 9A42     		cmp	r2, r3
 760 0044 01D0     		beq	.L57
 761 0046 FFF7FEFF 		bl	__stack_chk_fail
 762              	.L57:
 763 004a 05B0     		add	sp, sp, #20
 764              		.cfi_def_cfa_offset 4
 765              		@ sp needed
 766 004c 5DF804FB 		ldr	pc, [sp], #4
 767              	.L59:
 768              		.align	2
 769              	.L58:
 770 0050 00000000 		.word	__stack_chk_guard
 771              		.cfi_endproc
 772              	.LFE257:
 773              		.size	set_address, .-set_address
 774              		.section	.text.default_handler,"ax",%progbits
 775              		.align	1
 776              		.p2align 4,,15
 777              		.syntax unified
 778              		.thumb
 779              		.thumb_func
 780              		.fpu fpv4-sp-d16
 781              		.type	default_handler, %function
 782              	default_handler:
 783              	.LFB258:
 784              		.loc 5 84 0
 785              		.cfi_startproc
 786              		@ args = 0, pretend = 0, frame = 16
 787              		@ frame_needed = 0, uses_anonymous_args = 0
 788 0000 70B5     		push	{r4, r5, r6, lr}
 789              		.cfi_def_cfa_offset 16
 790              		.cfi_offset 4, -16
 791              		.cfi_offset 5, -12
 792              		.cfi_offset 6, -8
 793              		.cfi_offset 14, -4
 794 0002 84B0     		sub	sp, sp, #16
 795              		.cfi_def_cfa_offset 32
 796 0004 0190     		str	r0, [sp, #4]
 797              		.loc 5 84 0
 798 0006 A64B     		ldr	r3, .L100
ARM GAS  C:\Users\PCHAUT~1\AppData\Local\Temp\cc7u0cQS.s 			page 15


 799 0008 1B68     		ldr	r3, [r3]
 800 000a 0393     		str	r3, [sp, #12]
 801              		.loc 5 88 0
 802 000c 019B     		ldr	r3, [sp, #4]
 803 000e 93F84430 		ldrb	r3, [r3, #68]	@ zero_extendqisi2
 804 0012 03F07F02 		and	r2, r3, #127
 805              		.loc 5 90 0
 806 0016 019B     		ldr	r3, [sp, #4]
 807 0018 93F84530 		ldrb	r3, [r3, #69]	@ zero_extendqisi2
 808 001c 1B02     		lsls	r3, r3, #8
 809              		.loc 5 89 0
 810 001e 1343     		orrs	r3, r3, r2
 811              		.loc 5 88 0
 812 0020 B3F5407F 		cmp	r3, #768
 813 0024 5AD0     		beq	.L62
 814 0026 B3F5407F 		cmp	r3, #768
 815 002a 12D8     		bhi	.L63
 816 002c 022B     		cmp	r3, #2
 817 002e 00F0EE80 		beq	.L64
 818 0032 022B     		cmp	r3, #2
 819 0034 05D8     		bhi	.L65
 820 0036 002B     		cmp	r3, #0
 821 0038 28D0     		beq	.L66
 822 003a 012B     		cmp	r3, #1
 823 003c 00F0DC80 		beq	.L67
 824 0040 ABE1     		b	.L61
 825              	.L65:
 826 0042 B3F5807F 		cmp	r3, #256
 827 0046 2ED0     		beq	.L68
 828 0048 B3F5817F 		cmp	r3, #258
 829 004c 00F03D81 		beq	.L69
 830 0050 A3E1     		b	.L61
 831              	.L63:
 832 0052 B3F5C06F 		cmp	r3, #1536
 833 0056 74D0     		beq	.L70
 834 0058 B3F5C06F 		cmp	r3, #1536
 835 005c 08D8     		bhi	.L71
 836 005e 40F20232 		movw	r2, #770
 837 0062 9342     		cmp	r3, r2
 838 0064 00F06581 		beq	.L72
 839 0068 B3F5A06F 		cmp	r3, #1280
 840 006c 51D0     		beq	.L73
 841 006e 94E1     		b	.L61
 842              	.L71:
 843 0070 B3F5106F 		cmp	r3, #2304
 844 0074 00F09880 		beq	.L74
 845 0078 40F60242 		movw	r2, #3074
 846 007c 9342     		cmp	r3, r2
 847 007e 00F0BB80 		beq	.L67
 848 0082 B3F5006F 		cmp	r3, #2048
 849 0086 00F08280 		beq	.L75
 850 008a 86E1     		b	.L61
 851              	.L66:
 852              		.loc 5 93 0
 853 008c 019B     		ldr	r3, [sp, #4]
 854 008e 03F14C02 		add	r2, r3, #76
 855 0092 019B     		ldr	r3, [sp, #4]
ARM GAS  C:\Users\PCHAUT~1\AppData\Local\Temp\cc7u0cQS.s 			page 16


 856 0094 9A63     		str	r2, [r3, #56]
 857 0096 019B     		ldr	r3, [sp, #4]
 858 0098 0222     		movs	r2, #2
 859 009a DA63     		str	r2, [r3, #60]
 860 009c 019B     		ldr	r3, [sp, #4]
 861 009e 0022     		movs	r2, #0
 862 00a0 1A64     		str	r2, [r3, #64]
 863              		.loc 5 94 0
 864 00a2 0123     		movs	r3, #1
 865 00a4 7AE1     		b	.L76
 866              	.L68:
 867              		.loc 5 98 0
 868 00a6 019B     		ldr	r3, [sp, #4]
 869 00a8 93F84630 		ldrb	r3, [r3, #70]	@ zero_extendqisi2
 870 00ac 012B     		cmp	r3, #1
 871 00ae 13D1     		bne	.L77
 872              		.loc 5 99 0
 873 00b0 019B     		ldr	r3, [sp, #4]
 874 00b2 B3F84C30 		ldrh	r3, [r3, #76]
 875 00b6 23F00203 		bic	r3, r3, #2
 876 00ba 9AB2     		uxth	r2, r3
 877 00bc 019B     		ldr	r3, [sp, #4]
 878 00be A3F84C20 		strh	r2, [r3, #76]	@ movhi
 879              		.loc 5 100 0
 880 00c2 019B     		ldr	r3, [sp, #4]
 881 00c4 0022     		movs	r2, #0
 882 00c6 9A63     		str	r2, [r3, #56]
 883 00c8 019B     		ldr	r3, [sp, #4]
 884 00ca 0022     		movs	r2, #0
 885 00cc DA63     		str	r2, [r3, #60]
 886 00ce 019B     		ldr	r3, [sp, #4]
 887 00d0 0022     		movs	r2, #0
 888 00d2 1A64     		str	r2, [r3, #64]
 889              		.loc 5 101 0
 890 00d4 0123     		movs	r3, #1
 891 00d6 61E1     		b	.L76
 892              	.L77:
 893              		.loc 5 103 0
 894 00d8 0023     		movs	r3, #0
 895 00da 5FE1     		b	.L76
 896              	.L62:
 897              		.loc 5 107 0
 898 00dc 019B     		ldr	r3, [sp, #4]
 899 00de 93F84630 		ldrb	r3, [r3, #70]	@ zero_extendqisi2
 900 00e2 012B     		cmp	r3, #1
 901 00e4 13D1     		bne	.L78
 902              		.loc 5 108 0
 903 00e6 019B     		ldr	r3, [sp, #4]
 904 00e8 B3F84C30 		ldrh	r3, [r3, #76]
 905 00ec 43F00203 		orr	r3, r3, #2
 906 00f0 9AB2     		uxth	r2, r3
 907 00f2 019B     		ldr	r3, [sp, #4]
 908 00f4 A3F84C20 		strh	r2, [r3, #76]	@ movhi
 909              		.loc 5 109 0
 910 00f8 019B     		ldr	r3, [sp, #4]
 911 00fa 0022     		movs	r2, #0
 912 00fc 9A63     		str	r2, [r3, #56]
ARM GAS  C:\Users\PCHAUT~1\AppData\Local\Temp\cc7u0cQS.s 			page 17


 913 00fe 019B     		ldr	r3, [sp, #4]
 914 0100 0022     		movs	r2, #0
 915 0102 DA63     		str	r2, [r3, #60]
 916 0104 019B     		ldr	r3, [sp, #4]
 917 0106 0022     		movs	r2, #0
 918 0108 1A64     		str	r2, [r3, #64]
 919              		.loc 5 110 0
 920 010a 0123     		movs	r3, #1
 921 010c 46E1     		b	.L76
 922              	.L78:
 923              		.loc 5 112 0
 924 010e 0023     		movs	r3, #0
 925 0110 44E1     		b	.L76
 926              	.L73:
 927              		.loc 5 118 0
 928 0112 019B     		ldr	r3, [sp, #4]
 929 0114 93F84430 		ldrb	r3, [r3, #68]	@ zero_extendqisi2
 930 0118 002B     		cmp	r3, #0
 931 011a 07D1     		bne	.L79
 932              		.loc 5 119 0 discriminator 1
 933 011c 019B     		ldr	r3, [sp, #4]
 934 011e 93F84530 		ldrb	r3, [r3, #69]	@ zero_extendqisi2
 935              		.loc 5 118 0 discriminator 1
 936 0122 052B     		cmp	r3, #5
 937 0124 02D1     		bne	.L79
 938              		.loc 5 120 0
 939 0126 0198     		ldr	r0, [sp, #4]
 940 0128 FFF7FEFF 		bl	set_address
 941              	.L79:
 942              		.loc 5 122 0
 943 012c 019B     		ldr	r3, [sp, #4]
 944 012e 0022     		movs	r2, #0
 945 0130 9A63     		str	r2, [r3, #56]
 946 0132 019B     		ldr	r3, [sp, #4]
 947 0134 0022     		movs	r2, #0
 948 0136 DA63     		str	r2, [r3, #60]
 949 0138 019B     		ldr	r3, [sp, #4]
 950 013a 0022     		movs	r2, #0
 951 013c 1A64     		str	r2, [r3, #64]
 952              		.loc 5 126 0
 953 013e 0123     		movs	r3, #1
 954 0140 2CE1     		b	.L76
 955              	.L70:
 956              		.loc 5 129 0
 957 0142 019B     		ldr	r3, [sp, #4]
 958 0144 5B68     		ldr	r3, [r3, #4]
 959 0146 5C68     		ldr	r4, [r3, #4]
 960 0148 019B     		ldr	r3, [sp, #4]
 961 014a 93F84750 		ldrb	r5, [r3, #71]	@ zero_extendqisi2
 962 014e 019B     		ldr	r3, [sp, #4]
 963 0150 93F84660 		ldrb	r6, [r3, #70]	@ zero_extendqisi2
 964 0154 019B     		ldr	r3, [sp, #4]
 965 0156 4833     		adds	r3, r3, #72
 966 0158 1846     		mov	r0, r3
 967 015a FFF7FEFF 		bl	get_hword
 968 015e 0346     		mov	r3, r0
 969 0160 3246     		mov	r2, r6
ARM GAS  C:\Users\PCHAUT~1\AppData\Local\Temp\cc7u0cQS.s 			page 18


 970 0162 2946     		mov	r1, r5
 971 0164 0198     		ldr	r0, [sp, #4]
 972 0166 A047     		blx	r4
 973              	.LVL1:
 974 0168 0290     		str	r0, [sp, #8]
 975              		.loc 5 132 0
 976 016a 029B     		ldr	r3, [sp, #8]
 977 016c 002B     		cmp	r3, #0
 978 016e 01D1     		bne	.L80
 979              		.loc 5 133 0
 980 0170 0023     		movs	r3, #0
 981 0172 13E1     		b	.L76
 982              	.L80:
 983              		.loc 5 136 0
 984 0174 029B     		ldr	r3, [sp, #8]
 985 0176 5A68     		ldr	r2, [r3, #4]
 986 0178 019B     		ldr	r3, [sp, #4]
 987 017a 9A63     		str	r2, [r3, #56]
 988 017c 029B     		ldr	r3, [sp, #8]
 989 017e 1A68     		ldr	r2, [r3]
 990 0180 019B     		ldr	r3, [sp, #4]
 991 0182 DA63     		str	r2, [r3, #60]
 992 0184 019B     		ldr	r3, [sp, #4]
 993 0186 0022     		movs	r2, #0
 994 0188 1A64     		str	r2, [r3, #64]
 995              		.loc 5 138 0
 996 018a 0123     		movs	r3, #1
 997 018c 06E1     		b	.L76
 998              	.L75:
 999              		.loc 5 141 0
 1000 018e 019B     		ldr	r3, [sp, #4]
 1001 0190 03F14F02 		add	r2, r3, #79
 1002 0194 019B     		ldr	r3, [sp, #4]
 1003 0196 9A63     		str	r2, [r3, #56]
 1004 0198 019B     		ldr	r3, [sp, #4]
 1005 019a 0122     		movs	r2, #1
 1006 019c DA63     		str	r2, [r3, #60]
 1007 019e 019B     		ldr	r3, [sp, #4]
 1008 01a0 0022     		movs	r2, #0
 1009 01a2 1A64     		str	r2, [r3, #64]
 1010              		.loc 5 142 0
 1011 01a4 0123     		movs	r3, #1
 1012 01a6 F9E0     		b	.L76
 1013              	.L74:
 1014              		.loc 5 145 0
 1015 01a8 019B     		ldr	r3, [sp, #4]
 1016 01aa 93F84620 		ldrb	r2, [r3, #70]	@ zero_extendqisi2
 1017 01ae 019B     		ldr	r3, [sp, #4]
 1018 01b0 83F84F20 		strb	r2, [r3, #79]
 1019              		.loc 5 146 0
 1020 01b4 019B     		ldr	r3, [sp, #4]
 1021 01b6 93F84F30 		ldrb	r3, [r3, #79]	@ zero_extendqisi2
 1022 01ba 002B     		cmp	r3, #0
 1023 01bc 03D1     		bne	.L81
 1024              		.loc 5 147 0
 1025 01be 019B     		ldr	r3, [sp, #4]
 1026 01c0 0322     		movs	r2, #3
ARM GAS  C:\Users\PCHAUT~1\AppData\Local\Temp\cc7u0cQS.s 			page 19


 1027 01c2 1A70     		strb	r2, [r3]
 1028 01c4 02E0     		b	.L82
 1029              	.L81:
 1030              		.loc 5 150 0
 1031 01c6 019B     		ldr	r3, [sp, #4]
 1032 01c8 0422     		movs	r2, #4
 1033 01ca 1A70     		strb	r2, [r3]
 1034              	.L82:
 1035              		.loc 5 152 0
 1036 01cc 019B     		ldr	r3, [sp, #4]
 1037 01ce 5B68     		ldr	r3, [r3, #4]
 1038 01d0 1B68     		ldr	r3, [r3]
 1039 01d2 002B     		cmp	r3, #0
 1040 01d4 05D0     		beq	.L83
 1041              		.loc 5 152 0 is_stmt 0 discriminator 1
 1042 01d6 019B     		ldr	r3, [sp, #4]
 1043 01d8 5B68     		ldr	r3, [r3, #4]
 1044 01da 1B68     		ldr	r3, [r3]
 1045 01dc 0221     		movs	r1, #2
 1046 01de 0198     		ldr	r0, [sp, #4]
 1047 01e0 9847     		blx	r3
 1048              	.LVL2:
 1049              	.L83:
 1050              		.loc 5 153 0 is_stmt 1
 1051 01e2 019B     		ldr	r3, [sp, #4]
 1052 01e4 0022     		movs	r2, #0
 1053 01e6 9A63     		str	r2, [r3, #56]
 1054 01e8 019B     		ldr	r3, [sp, #4]
 1055 01ea 0022     		movs	r2, #0
 1056 01ec DA63     		str	r2, [r3, #60]
 1057 01ee 019B     		ldr	r3, [sp, #4]
 1058 01f0 0022     		movs	r2, #0
 1059 01f2 1A64     		str	r2, [r3, #64]
 1060              		.loc 5 154 0
 1061 01f4 0123     		movs	r3, #1
 1062 01f6 D1E0     		b	.L76
 1063              	.L67:
 1064              		.loc 5 160 0
 1065 01f8 019B     		ldr	r3, [sp, #4]
 1066 01fa 2A4A     		ldr	r2, .L100+4
 1067 01fc 9A63     		str	r2, [r3, #56]
 1068 01fe 019B     		ldr	r3, [sp, #4]
 1069 0200 0222     		movs	r2, #2
 1070 0202 DA63     		str	r2, [r3, #60]
 1071 0204 019B     		ldr	r3, [sp, #4]
 1072 0206 0022     		movs	r2, #0
 1073 0208 1A64     		str	r2, [r3, #64]
 1074              		.loc 5 162 0
 1075 020a 0123     		movs	r3, #1
 1076 020c C6E0     		b	.L76
 1077              	.L64:
 1078              		.loc 5 165 0
 1079 020e 019B     		ldr	r3, [sp, #4]
 1080 0210 93F84830 		ldrb	r3, [r3, #72]	@ zero_extendqisi2
 1081 0214 5BB2     		sxtb	r3, r3
 1082 0216 002B     		cmp	r3, #0
 1083 0218 27DA     		bge	.L84
ARM GAS  C:\Users\PCHAUT~1\AppData\Local\Temp\cc7u0cQS.s 			page 20


 1084              		.loc 5 166 0
 1085 021a 019B     		ldr	r3, [sp, #4]
 1086 021c 93F84830 		ldrb	r3, [r3, #72]	@ zero_extendqisi2
 1087 0220 03F00F03 		and	r3, r3, #15
 1088 0224 DBB2     		uxtb	r3, r3
 1089 0226 1946     		mov	r1, r3
 1090 0228 0198     		ldr	r0, [sp, #4]
 1091 022a FFF7FEFF 		bl	usb_lld_get_status_in
 1092 022e 0346     		mov	r3, r0
 1093 0230 012B     		cmp	r3, #1
 1094 0232 02D0     		beq	.L86
 1095 0234 022B     		cmp	r3, #2
 1096 0236 0BD0     		beq	.L87
 1097 0238 15E0     		b	.L98
 1098              	.L86:
 1099              		.loc 5 169 0
 1100 023a 019B     		ldr	r3, [sp, #4]
 1101 023c 1A4A     		ldr	r2, .L100+8
 1102 023e 9A63     		str	r2, [r3, #56]
 1103 0240 019B     		ldr	r3, [sp, #4]
 1104 0242 0222     		movs	r2, #2
 1105 0244 DA63     		str	r2, [r3, #60]
 1106 0246 019B     		ldr	r3, [sp, #4]
 1107 0248 0022     		movs	r2, #0
 1108 024a 1A64     		str	r2, [r3, #64]
 1109              		.loc 5 171 0
 1110 024c 0123     		movs	r3, #1
 1111 024e A5E0     		b	.L76
 1112              	.L87:
 1113              		.loc 5 174 0
 1114 0250 019B     		ldr	r3, [sp, #4]
 1115 0252 164A     		ldr	r2, .L100+12
 1116 0254 9A63     		str	r2, [r3, #56]
 1117 0256 019B     		ldr	r3, [sp, #4]
 1118 0258 0222     		movs	r2, #2
 1119 025a DA63     		str	r2, [r3, #60]
 1120 025c 019B     		ldr	r3, [sp, #4]
 1121 025e 0022     		movs	r2, #0
 1122 0260 1A64     		str	r2, [r3, #64]
 1123              		.loc 5 176 0
 1124 0262 0123     		movs	r3, #1
 1125 0264 9AE0     		b	.L76
 1126              	.L98:
 1127              		.loc 5 179 0
 1128 0266 0023     		movs	r3, #0
 1129 0268 98E0     		b	.L76
 1130              	.L84:
 1131              		.loc 5 183 0
 1132 026a 019B     		ldr	r3, [sp, #4]
 1133 026c 93F84830 		ldrb	r3, [r3, #72]	@ zero_extendqisi2
 1134 0270 03F00F03 		and	r3, r3, #15
 1135 0274 DBB2     		uxtb	r3, r3
 1136 0276 1946     		mov	r1, r3
 1137 0278 0198     		ldr	r0, [sp, #4]
 1138 027a FFF7FEFF 		bl	usb_lld_get_status_out
 1139 027e 0346     		mov	r3, r0
 1140 0280 012B     		cmp	r3, #1
ARM GAS  C:\Users\PCHAUT~1\AppData\Local\Temp\cc7u0cQS.s 			page 21


 1141 0282 02D0     		beq	.L89
 1142 0284 022B     		cmp	r3, #2
 1143 0286 13D0     		beq	.L90
 1144 0288 1DE0     		b	.L99
 1145              	.L89:
 1146              		.loc 5 186 0
 1147 028a 019B     		ldr	r3, [sp, #4]
 1148 028c 064A     		ldr	r2, .L100+8
 1149 028e 9A63     		str	r2, [r3, #56]
 1150 0290 019B     		ldr	r3, [sp, #4]
 1151 0292 0222     		movs	r2, #2
 1152 0294 DA63     		str	r2, [r3, #60]
 1153 0296 019B     		ldr	r3, [sp, #4]
 1154 0298 0022     		movs	r2, #0
 1155 029a 1A64     		str	r2, [r3, #64]
 1156              		.loc 5 188 0
 1157 029c 0123     		movs	r3, #1
 1158 029e 7DE0     		b	.L76
 1159              	.L101:
 1160              		.align	2
 1161              	.L100:
 1162 02a0 00000000 		.word	__stack_chk_guard
 1163 02a4 00000000 		.word	zero_status
 1164 02a8 00000000 		.word	halted_status
 1165 02ac 00000000 		.word	active_status
 1166              	.L90:
 1167              		.loc 5 191 0
 1168 02b0 019B     		ldr	r3, [sp, #4]
 1169 02b2 3F4A     		ldr	r2, .L102
 1170 02b4 9A63     		str	r2, [r3, #56]
 1171 02b6 019B     		ldr	r3, [sp, #4]
 1172 02b8 0222     		movs	r2, #2
 1173 02ba DA63     		str	r2, [r3, #60]
 1174 02bc 019B     		ldr	r3, [sp, #4]
 1175 02be 0022     		movs	r2, #0
 1176 02c0 1A64     		str	r2, [r3, #64]
 1177              		.loc 5 193 0
 1178 02c2 0123     		movs	r3, #1
 1179 02c4 6AE0     		b	.L76
 1180              	.L99:
 1181              		.loc 5 196 0
 1182 02c6 0023     		movs	r3, #0
 1183 02c8 68E0     		b	.L76
 1184              	.L69:
 1185              		.loc 5 201 0
 1186 02ca 019B     		ldr	r3, [sp, #4]
 1187 02cc 93F84630 		ldrb	r3, [r3, #70]	@ zero_extendqisi2
 1188 02d0 002B     		cmp	r3, #0
 1189 02d2 01D0     		beq	.L91
 1190              		.loc 5 202 0
 1191 02d4 0023     		movs	r3, #0
 1192 02d6 61E0     		b	.L76
 1193              	.L91:
 1194              		.loc 5 205 0
 1195 02d8 019B     		ldr	r3, [sp, #4]
 1196 02da 93F84830 		ldrb	r3, [r3, #72]	@ zero_extendqisi2
 1197 02de 03F00F03 		and	r3, r3, #15
ARM GAS  C:\Users\PCHAUT~1\AppData\Local\Temp\cc7u0cQS.s 			page 22


 1198 02e2 002B     		cmp	r3, #0
 1199 02e4 1AD0     		beq	.L92
 1200              		.loc 5 206 0
 1201 02e6 019B     		ldr	r3, [sp, #4]
 1202 02e8 93F84830 		ldrb	r3, [r3, #72]	@ zero_extendqisi2
 1203 02ec 5BB2     		sxtb	r3, r3
 1204 02ee 002B     		cmp	r3, #0
 1205 02f0 0ADA     		bge	.L93
 1206              		.loc 5 207 0
 1207 02f2 019B     		ldr	r3, [sp, #4]
 1208 02f4 93F84830 		ldrb	r3, [r3, #72]	@ zero_extendqisi2
 1209 02f8 03F00F03 		and	r3, r3, #15
 1210 02fc DBB2     		uxtb	r3, r3
 1211 02fe 1946     		mov	r1, r3
 1212 0300 0198     		ldr	r0, [sp, #4]
 1213 0302 FFF7FEFF 		bl	usb_lld_clear_in
 1214 0306 09E0     		b	.L92
 1215              	.L93:
 1216              		.loc 5 210 0
 1217 0308 019B     		ldr	r3, [sp, #4]
 1218 030a 93F84830 		ldrb	r3, [r3, #72]	@ zero_extendqisi2
 1219 030e 03F00F03 		and	r3, r3, #15
 1220 0312 DBB2     		uxtb	r3, r3
 1221 0314 1946     		mov	r1, r3
 1222 0316 0198     		ldr	r0, [sp, #4]
 1223 0318 FFF7FEFF 		bl	usb_lld_clear_out
 1224              	.L92:
 1225              		.loc 5 213 0
 1226 031c 019B     		ldr	r3, [sp, #4]
 1227 031e 0022     		movs	r2, #0
 1228 0320 9A63     		str	r2, [r3, #56]
 1229 0322 019B     		ldr	r3, [sp, #4]
 1230 0324 0022     		movs	r2, #0
 1231 0326 DA63     		str	r2, [r3, #60]
 1232 0328 019B     		ldr	r3, [sp, #4]
 1233 032a 0022     		movs	r2, #0
 1234 032c 1A64     		str	r2, [r3, #64]
 1235              		.loc 5 214 0
 1236 032e 0123     		movs	r3, #1
 1237 0330 34E0     		b	.L76
 1238              	.L72:
 1239              		.loc 5 217 0
 1240 0332 019B     		ldr	r3, [sp, #4]
 1241 0334 93F84630 		ldrb	r3, [r3, #70]	@ zero_extendqisi2
 1242 0338 002B     		cmp	r3, #0
 1243 033a 01D0     		beq	.L94
 1244              		.loc 5 218 0
 1245 033c 0023     		movs	r3, #0
 1246 033e 2DE0     		b	.L76
 1247              	.L94:
 1248              		.loc 5 221 0
 1249 0340 019B     		ldr	r3, [sp, #4]
 1250 0342 93F84830 		ldrb	r3, [r3, #72]	@ zero_extendqisi2
 1251 0346 03F00F03 		and	r3, r3, #15
 1252 034a 002B     		cmp	r3, #0
 1253 034c 1AD0     		beq	.L95
 1254              		.loc 5 222 0
ARM GAS  C:\Users\PCHAUT~1\AppData\Local\Temp\cc7u0cQS.s 			page 23


 1255 034e 019B     		ldr	r3, [sp, #4]
 1256 0350 93F84830 		ldrb	r3, [r3, #72]	@ zero_extendqisi2
 1257 0354 5BB2     		sxtb	r3, r3
 1258 0356 002B     		cmp	r3, #0
 1259 0358 0ADA     		bge	.L96
 1260              		.loc 5 223 0
 1261 035a 019B     		ldr	r3, [sp, #4]
 1262 035c 93F84830 		ldrb	r3, [r3, #72]	@ zero_extendqisi2
 1263 0360 03F00F03 		and	r3, r3, #15
 1264 0364 DBB2     		uxtb	r3, r3
 1265 0366 1946     		mov	r1, r3
 1266 0368 0198     		ldr	r0, [sp, #4]
 1267 036a FFF7FEFF 		bl	usb_lld_stall_in
 1268 036e 09E0     		b	.L95
 1269              	.L96:
 1270              		.loc 5 226 0
 1271 0370 019B     		ldr	r3, [sp, #4]
 1272 0372 93F84830 		ldrb	r3, [r3, #72]	@ zero_extendqisi2
 1273 0376 03F00F03 		and	r3, r3, #15
 1274 037a DBB2     		uxtb	r3, r3
 1275 037c 1946     		mov	r1, r3
 1276 037e 0198     		ldr	r0, [sp, #4]
 1277 0380 FFF7FEFF 		bl	usb_lld_stall_out
 1278              	.L95:
 1279              		.loc 5 229 0
 1280 0384 019B     		ldr	r3, [sp, #4]
 1281 0386 0022     		movs	r2, #0
 1282 0388 9A63     		str	r2, [r3, #56]
 1283 038a 019B     		ldr	r3, [sp, #4]
 1284 038c 0022     		movs	r2, #0
 1285 038e DA63     		str	r2, [r3, #60]
 1286 0390 019B     		ldr	r3, [sp, #4]
 1287 0392 0022     		movs	r2, #0
 1288 0394 1A64     		str	r2, [r3, #64]
 1289              		.loc 5 230 0
 1290 0396 0123     		movs	r3, #1
 1291 0398 00E0     		b	.L76
 1292              	.L61:
 1293              		.loc 5 239 0
 1294 039a 0023     		movs	r3, #0
 1295              	.L76:
 1296              		.loc 5 241 0
 1297 039c 1846     		mov	r0, r3
 1298 039e 054B     		ldr	r3, .L102+4
 1299 03a0 039A     		ldr	r2, [sp, #12]
 1300 03a2 1B68     		ldr	r3, [r3]
 1301 03a4 9A42     		cmp	r2, r3
 1302 03a6 01D0     		beq	.L97
 1303 03a8 FFF7FEFF 		bl	__stack_chk_fail
 1304              	.L97:
 1305 03ac 04B0     		add	sp, sp, #16
 1306              		.cfi_def_cfa_offset 16
 1307              		@ sp needed
 1308 03ae 70BD     		pop	{r4, r5, r6, pc}
 1309              	.L103:
 1310              		.align	2
 1311              	.L102:
ARM GAS  C:\Users\PCHAUT~1\AppData\Local\Temp\cc7u0cQS.s 			page 24


 1312 03b0 00000000 		.word	active_status
 1313 03b4 00000000 		.word	__stack_chk_guard
 1314              		.cfi_endproc
 1315              	.LFE258:
 1316              		.size	default_handler, .-default_handler
 1317              		.section	.text.usbInit,"ax",%progbits
 1318              		.align	1
 1319              		.p2align 4,,15
 1320              		.global	usbInit
 1321              		.syntax unified
 1322              		.thumb
 1323              		.thumb_func
 1324              		.fpu fpv4-sp-d16
 1325              		.type	usbInit, %function
 1326              	usbInit:
 1327              	.LFB259:
 1328              		.loc 5 254 0
 1329              		.cfi_startproc
 1330              		@ args = 0, pretend = 0, frame = 8
 1331              		@ frame_needed = 0, uses_anonymous_args = 0
 1332 0000 00B5     		push	{lr}
 1333              		.cfi_def_cfa_offset 4
 1334              		.cfi_offset 14, -4
 1335 0002 83B0     		sub	sp, sp, #12
 1336              		.cfi_def_cfa_offset 16
 1337              		.loc 5 254 0
 1338 0004 074B     		ldr	r3, .L106
 1339 0006 1B68     		ldr	r3, [r3]
 1340 0008 0193     		str	r3, [sp, #4]
 1341              		.loc 5 256 0
 1342 000a FFF7FEFF 		bl	usb_lld_init
 1343              		.loc 5 257 0
 1344 000e 00BF     		nop
 1345 0010 044B     		ldr	r3, .L106
 1346 0012 019A     		ldr	r2, [sp, #4]
 1347 0014 1B68     		ldr	r3, [r3]
 1348 0016 9A42     		cmp	r2, r3
 1349 0018 01D0     		beq	.L105
 1350 001a FFF7FEFF 		bl	__stack_chk_fail
 1351              	.L105:
 1352 001e 03B0     		add	sp, sp, #12
 1353              		.cfi_def_cfa_offset 4
 1354              		@ sp needed
 1355 0020 5DF804FB 		ldr	pc, [sp], #4
 1356              	.L107:
 1357              		.align	2
 1358              	.L106:
 1359 0024 00000000 		.word	__stack_chk_guard
 1360              		.cfi_endproc
 1361              	.LFE259:
 1362              		.size	usbInit, .-usbInit
 1363              		.section	.text.usbObjectInit,"ax",%progbits
 1364              		.align	1
 1365              		.p2align 4,,15
 1366              		.global	usbObjectInit
 1367              		.syntax unified
 1368              		.thumb
ARM GAS  C:\Users\PCHAUT~1\AppData\Local\Temp\cc7u0cQS.s 			page 25


 1369              		.thumb_func
 1370              		.fpu fpv4-sp-d16
 1371              		.type	usbObjectInit, %function
 1372              	usbObjectInit:
 1373              	.LFB260:
 1374              		.loc 5 266 0
 1375              		.cfi_startproc
 1376              		@ args = 0, pretend = 0, frame = 16
 1377              		@ frame_needed = 0, uses_anonymous_args = 0
 1378 0000 00B5     		push	{lr}
 1379              		.cfi_def_cfa_offset 4
 1380              		.cfi_offset 14, -4
 1381 0002 85B0     		sub	sp, sp, #20
 1382              		.cfi_def_cfa_offset 24
 1383 0004 0190     		str	r0, [sp, #4]
 1384              		.loc 5 266 0
 1385 0006 184B     		ldr	r3, .L112
 1386 0008 1B68     		ldr	r3, [r3]
 1387 000a 0393     		str	r3, [sp, #12]
 1388              		.loc 5 269 0
 1389 000c 019B     		ldr	r3, [sp, #4]
 1390 000e 0122     		movs	r2, #1
 1391 0010 1A70     		strb	r2, [r3]
 1392              		.loc 5 270 0
 1393 0012 019B     		ldr	r3, [sp, #4]
 1394 0014 0022     		movs	r2, #0
 1395 0016 5A60     		str	r2, [r3, #4]
 1396              		.loc 5 271 0
 1397 0018 0023     		movs	r3, #0
 1398 001a 0293     		str	r3, [sp, #8]
 1399 001c 0FE0     		b	.L109
 1400              	.L110:
 1401              		.loc 5 272 0 discriminator 3
 1402 001e 019A     		ldr	r2, [sp, #4]
 1403 0020 029B     		ldr	r3, [sp, #8]
 1404 0022 0633     		adds	r3, r3, #6
 1405 0024 9B00     		lsls	r3, r3, #2
 1406 0026 1344     		add	r3, r3, r2
 1407 0028 0022     		movs	r2, #0
 1408 002a 5A60     		str	r2, [r3, #4]
 1409              		.loc 5 273 0 discriminator 3
 1410 002c 019B     		ldr	r3, [sp, #4]
 1411 002e 029A     		ldr	r2, [sp, #8]
 1412 0030 0A32     		adds	r2, r2, #10
 1413 0032 0021     		movs	r1, #0
 1414 0034 43F82210 		str	r1, [r3, r2, lsl #2]
 1415              		.loc 5 271 0 discriminator 3
 1416 0038 029B     		ldr	r3, [sp, #8]
 1417 003a 0133     		adds	r3, r3, #1
 1418 003c 0293     		str	r3, [sp, #8]
 1419              	.L109:
 1420              		.loc 5 271 0 is_stmt 0 discriminator 1
 1421 003e 029B     		ldr	r3, [sp, #8]
 1422 0040 022B     		cmp	r3, #2
 1423 0042 ECD9     		bls	.L110
 1424              		.loc 5 275 0 is_stmt 1
 1425 0044 019B     		ldr	r3, [sp, #4]
ARM GAS  C:\Users\PCHAUT~1\AppData\Local\Temp\cc7u0cQS.s 			page 26


 1426 0046 0022     		movs	r2, #0
 1427 0048 1A81     		strh	r2, [r3, #8]	@ movhi
 1428              		.loc 5 276 0
 1429 004a 019B     		ldr	r3, [sp, #4]
 1430 004c 0022     		movs	r2, #0
 1431 004e 5A81     		strh	r2, [r3, #10]	@ movhi
 1432              		.loc 5 277 0
 1433 0050 00BF     		nop
 1434 0052 054B     		ldr	r3, .L112
 1435 0054 039A     		ldr	r2, [sp, #12]
 1436 0056 1B68     		ldr	r3, [r3]
 1437 0058 9A42     		cmp	r2, r3
 1438 005a 01D0     		beq	.L111
 1439 005c FFF7FEFF 		bl	__stack_chk_fail
 1440              	.L111:
 1441 0060 05B0     		add	sp, sp, #20
 1442              		.cfi_def_cfa_offset 4
 1443              		@ sp needed
 1444 0062 5DF804FB 		ldr	pc, [sp], #4
 1445              	.L113:
 1446 0066 00BF     		.align	2
 1447              	.L112:
 1448 0068 00000000 		.word	__stack_chk_guard
 1449              		.cfi_endproc
 1450              	.LFE260:
 1451              		.size	usbObjectInit, .-usbObjectInit
 1452              		.section	.text.usbStart,"ax",%progbits
 1453              		.align	1
 1454              		.p2align 4,,15
 1455              		.global	usbStart
 1456              		.syntax unified
 1457              		.thumb
 1458              		.thumb_func
 1459              		.fpu fpv4-sp-d16
 1460              		.type	usbStart, %function
 1461              	usbStart:
 1462              	.LFB261:
 1463              		.loc 5 287 0
 1464              		.cfi_startproc
 1465              		@ args = 0, pretend = 0, frame = 16
 1466              		@ frame_needed = 0, uses_anonymous_args = 0
 1467 0000 00B5     		push	{lr}
 1468              		.cfi_def_cfa_offset 4
 1469              		.cfi_offset 14, -4
 1470 0002 85B0     		sub	sp, sp, #20
 1471              		.cfi_def_cfa_offset 24
 1472 0004 0190     		str	r0, [sp, #4]
 1473 0006 0091     		str	r1, [sp]
 1474              		.loc 5 287 0
 1475 0008 1F4B     		ldr	r3, .L121
 1476 000a 1B68     		ldr	r3, [r3]
 1477 000c 0393     		str	r3, [sp, #12]
 1478              		.loc 5 290 0
 1479 000e 019B     		ldr	r3, [sp, #4]
 1480 0010 002B     		cmp	r3, #0
 1481 0012 02D0     		beq	.L115
 1482              		.loc 5 290 0 is_stmt 0 discriminator 3
ARM GAS  C:\Users\PCHAUT~1\AppData\Local\Temp\cc7u0cQS.s 			page 27


 1483 0014 009B     		ldr	r3, [sp]
 1484 0016 002B     		cmp	r3, #0
 1485 0018 02D1     		bne	.L116
 1486              	.L115:
 1487              		.loc 5 290 0 discriminator 4
 1488 001a 1C48     		ldr	r0, .L121+4
 1489 001c FFF7FEFF 		bl	chSysHalt
 1490              	.L116:
 1491              		.loc 5 292 0 is_stmt 1
 1492 0020 FFF7FEFF 		bl	osalSysLock
 1493              		.loc 5 293 0
 1494 0024 019B     		ldr	r3, [sp, #4]
 1495 0026 1B78     		ldrb	r3, [r3]	@ zero_extendqisi2
 1496 0028 012B     		cmp	r3, #1
 1497 002a 06D0     		beq	.L117
 1498              		.loc 5 293 0 is_stmt 0 discriminator 2
 1499 002c 019B     		ldr	r3, [sp, #4]
 1500 002e 1B78     		ldrb	r3, [r3]	@ zero_extendqisi2
 1501 0030 022B     		cmp	r3, #2
 1502 0032 02D0     		beq	.L117
 1503              		.loc 5 293 0 discriminator 3
 1504 0034 1548     		ldr	r0, .L121+4
 1505 0036 FFF7FEFF 		bl	chSysHalt
 1506              	.L117:
 1507              		.loc 5 295 0 is_stmt 1
 1508 003a 019B     		ldr	r3, [sp, #4]
 1509 003c 009A     		ldr	r2, [sp]
 1510 003e 5A60     		str	r2, [r3, #4]
 1511              		.loc 5 296 0
 1512 0040 0023     		movs	r3, #0
 1513 0042 0293     		str	r3, [sp, #8]
 1514 0044 09E0     		b	.L118
 1515              	.L119:
 1516              		.loc 5 297 0 discriminator 3
 1517 0046 019A     		ldr	r2, [sp, #4]
 1518 0048 029B     		ldr	r3, [sp, #8]
 1519 004a 0233     		adds	r3, r3, #2
 1520 004c 9B00     		lsls	r3, r3, #2
 1521 004e 1344     		add	r3, r3, r2
 1522 0050 0022     		movs	r2, #0
 1523 0052 5A60     		str	r2, [r3, #4]
 1524              		.loc 5 296 0 discriminator 3
 1525 0054 029B     		ldr	r3, [sp, #8]
 1526 0056 0133     		adds	r3, r3, #1
 1527 0058 0293     		str	r3, [sp, #8]
 1528              	.L118:
 1529              		.loc 5 296 0 is_stmt 0 discriminator 1
 1530 005a 029B     		ldr	r3, [sp, #8]
 1531 005c 032B     		cmp	r3, #3
 1532 005e F2D9     		bls	.L119
 1533              		.loc 5 299 0 is_stmt 1
 1534 0060 0198     		ldr	r0, [sp, #4]
 1535 0062 FFF7FEFF 		bl	usb_lld_start
 1536              		.loc 5 300 0
 1537 0066 019B     		ldr	r3, [sp, #4]
 1538 0068 0222     		movs	r2, #2
 1539 006a 1A70     		strb	r2, [r3]
ARM GAS  C:\Users\PCHAUT~1\AppData\Local\Temp\cc7u0cQS.s 			page 28


 1540              		.loc 5 301 0
 1541 006c FFF7FEFF 		bl	osalSysUnlock
 1542              		.loc 5 302 0
 1543 0070 00BF     		nop
 1544 0072 054B     		ldr	r3, .L121
 1545 0074 039A     		ldr	r2, [sp, #12]
 1546 0076 1B68     		ldr	r3, [r3]
 1547 0078 9A42     		cmp	r2, r3
 1548 007a 01D0     		beq	.L120
 1549 007c FFF7FEFF 		bl	__stack_chk_fail
 1550              	.L120:
 1551 0080 05B0     		add	sp, sp, #20
 1552              		.cfi_def_cfa_offset 4
 1553              		@ sp needed
 1554 0082 5DF804FB 		ldr	pc, [sp], #4
 1555              	.L122:
 1556 0086 00BF     		.align	2
 1557              	.L121:
 1558 0088 00000000 		.word	__stack_chk_guard
 1559 008c 00000000 		.word	__func__.10294
 1560              		.cfi_endproc
 1561              	.LFE261:
 1562              		.size	usbStart, .-usbStart
 1563              		.section	.text.usbStop,"ax",%progbits
 1564              		.align	1
 1565              		.p2align 4,,15
 1566              		.global	usbStop
 1567              		.syntax unified
 1568              		.thumb
 1569              		.thumb_func
 1570              		.fpu fpv4-sp-d16
 1571              		.type	usbStop, %function
 1572              	usbStop:
 1573              	.LFB262:
 1574              		.loc 5 311 0
 1575              		.cfi_startproc
 1576              		@ args = 0, pretend = 0, frame = 16
 1577              		@ frame_needed = 0, uses_anonymous_args = 0
 1578 0000 00B5     		push	{lr}
 1579              		.cfi_def_cfa_offset 4
 1580              		.cfi_offset 14, -4
 1581 0002 85B0     		sub	sp, sp, #20
 1582              		.cfi_def_cfa_offset 24
 1583 0004 0190     		str	r0, [sp, #4]
 1584              		.loc 5 311 0
 1585 0006 184B     		ldr	r3, .L127
 1586 0008 1B68     		ldr	r3, [r3]
 1587 000a 0393     		str	r3, [sp, #12]
 1588              		.loc 5 313 0
 1589 000c 019B     		ldr	r3, [sp, #4]
 1590 000e 002B     		cmp	r3, #0
 1591 0010 02D1     		bne	.L124
 1592              		.loc 5 313 0 is_stmt 0 discriminator 2
 1593 0012 1648     		ldr	r0, .L127+4
 1594 0014 FFF7FEFF 		bl	chSysHalt
 1595              	.L124:
 1596              		.loc 5 315 0 is_stmt 1
ARM GAS  C:\Users\PCHAUT~1\AppData\Local\Temp\cc7u0cQS.s 			page 29


 1597 0018 FFF7FEFF 		bl	osalSysLock
 1598              		.loc 5 316 0
 1599 001c 019B     		ldr	r3, [sp, #4]
 1600 001e 1B78     		ldrb	r3, [r3]	@ zero_extendqisi2
 1601 0020 012B     		cmp	r3, #1
 1602 0022 0ED0     		beq	.L125
 1603              		.loc 5 316 0 is_stmt 0 discriminator 2
 1604 0024 019B     		ldr	r3, [sp, #4]
 1605 0026 1B78     		ldrb	r3, [r3]	@ zero_extendqisi2
 1606 0028 022B     		cmp	r3, #2
 1607 002a 0AD0     		beq	.L125
 1608              		.loc 5 316 0 discriminator 3
 1609 002c 019B     		ldr	r3, [sp, #4]
 1610 002e 1B78     		ldrb	r3, [r3]	@ zero_extendqisi2
 1611 0030 032B     		cmp	r3, #3
 1612 0032 06D0     		beq	.L125
 1613              		.loc 5 316 0 discriminator 4
 1614 0034 019B     		ldr	r3, [sp, #4]
 1615 0036 1B78     		ldrb	r3, [r3]	@ zero_extendqisi2
 1616 0038 042B     		cmp	r3, #4
 1617 003a 02D0     		beq	.L125
 1618              		.loc 5 316 0 discriminator 5
 1619 003c 0B48     		ldr	r0, .L127+4
 1620 003e FFF7FEFF 		bl	chSysHalt
 1621              	.L125:
 1622              		.loc 5 319 0 is_stmt 1
 1623 0042 0198     		ldr	r0, [sp, #4]
 1624 0044 FFF7FEFF 		bl	usb_lld_stop
 1625              		.loc 5 320 0
 1626 0048 019B     		ldr	r3, [sp, #4]
 1627 004a 0122     		movs	r2, #1
 1628 004c 1A70     		strb	r2, [r3]
 1629              		.loc 5 321 0
 1630 004e FFF7FEFF 		bl	osalSysUnlock
 1631              		.loc 5 322 0
 1632 0052 00BF     		nop
 1633 0054 044B     		ldr	r3, .L127
 1634 0056 039A     		ldr	r2, [sp, #12]
 1635 0058 1B68     		ldr	r3, [r3]
 1636 005a 9A42     		cmp	r2, r3
 1637 005c 01D0     		beq	.L126
 1638 005e FFF7FEFF 		bl	__stack_chk_fail
 1639              	.L126:
 1640 0062 05B0     		add	sp, sp, #20
 1641              		.cfi_def_cfa_offset 4
 1642              		@ sp needed
 1643 0064 5DF804FB 		ldr	pc, [sp], #4
 1644              	.L128:
 1645              		.align	2
 1646              	.L127:
 1647 0068 00000000 		.word	__stack_chk_guard
 1648 006c 00000000 		.word	__func__.10301
 1649              		.cfi_endproc
 1650              	.LFE262:
 1651              		.size	usbStop, .-usbStop
 1652              		.section	.text.usbInitEndpointI,"ax",%progbits
 1653              		.align	1
ARM GAS  C:\Users\PCHAUT~1\AppData\Local\Temp\cc7u0cQS.s 			page 30


 1654              		.p2align 4,,15
 1655              		.global	usbInitEndpointI
 1656              		.syntax unified
 1657              		.thumb
 1658              		.thumb_func
 1659              		.fpu fpv4-sp-d16
 1660              		.type	usbInitEndpointI, %function
 1661              	usbInitEndpointI:
 1662              	.LFB263:
 1663              		.loc 5 338 0
 1664              		.cfi_startproc
 1665              		@ args = 0, pretend = 0, frame = 24
 1666              		@ frame_needed = 0, uses_anonymous_args = 0
 1667 0000 00B5     		push	{lr}
 1668              		.cfi_def_cfa_offset 4
 1669              		.cfi_offset 14, -4
 1670 0002 87B0     		sub	sp, sp, #28
 1671              		.cfi_def_cfa_offset 32
 1672 0004 0390     		str	r0, [sp, #12]
 1673 0006 0B46     		mov	r3, r1
 1674 0008 0192     		str	r2, [sp, #4]
 1675 000a 8DF80B30 		strb	r3, [sp, #11]
 1676              		.loc 5 338 0
 1677 000e 284B     		ldr	r3, .L139
 1678 0010 1B68     		ldr	r3, [r3]
 1679 0012 0593     		str	r3, [sp, #20]
 1680              		.loc 5 340 0
 1681 0014 FFF7FEFF 		bl	chDbgCheckClassI
 1682              		.loc 5 341 0
 1683 0018 039B     		ldr	r3, [sp, #12]
 1684 001a 002B     		cmp	r3, #0
 1685 001c 02D0     		beq	.L130
 1686              		.loc 5 341 0 is_stmt 0 discriminator 3
 1687 001e 019B     		ldr	r3, [sp, #4]
 1688 0020 002B     		cmp	r3, #0
 1689 0022 02D1     		bne	.L137
 1690              	.L130:
 1691              		.loc 5 341 0 discriminator 4
 1692 0024 2348     		ldr	r0, .L139+4
 1693 0026 FFF7FEFF 		bl	chSysHalt
 1694              	.L137:
 1695              		.loc 5 342 0 is_stmt 1 discriminator 1
 1696 002a 039B     		ldr	r3, [sp, #12]
 1697 002c 1B78     		ldrb	r3, [r3]	@ zero_extendqisi2
 1698 002e 042B     		cmp	r3, #4
 1699 0030 02D0     		beq	.L138
 1700              		.loc 5 342 0 is_stmt 0 discriminator 2
 1701 0032 2048     		ldr	r0, .L139+4
 1702 0034 FFF7FEFF 		bl	chSysHalt
 1703              	.L138:
 1704              		.loc 5 344 0 is_stmt 1 discriminator 1
 1705 0038 9DF80B30 		ldrb	r3, [sp, #11]	@ zero_extendqisi2
 1706 003c 039A     		ldr	r2, [sp, #12]
 1707 003e 0233     		adds	r3, r3, #2
 1708 0040 9B00     		lsls	r3, r3, #2
 1709 0042 1344     		add	r3, r3, r2
 1710 0044 5B68     		ldr	r3, [r3, #4]
ARM GAS  C:\Users\PCHAUT~1\AppData\Local\Temp\cc7u0cQS.s 			page 31


 1711 0046 002B     		cmp	r3, #0
 1712 0048 02D0     		beq	.L133
 1713              		.loc 5 344 0 is_stmt 0 discriminator 2
 1714 004a 1A48     		ldr	r0, .L139+4
 1715 004c FFF7FEFF 		bl	chSysHalt
 1716              	.L133:
 1717              		.loc 5 347 0 is_stmt 1
 1718 0050 019B     		ldr	r3, [sp, #4]
 1719 0052 5B69     		ldr	r3, [r3, #20]
 1720 0054 002B     		cmp	r3, #0
 1721 0056 06D0     		beq	.L134
 1722              		.loc 5 348 0
 1723 0058 019B     		ldr	r3, [sp, #4]
 1724 005a 5B69     		ldr	r3, [r3, #20]
 1725 005c 1422     		movs	r2, #20
 1726 005e 0021     		movs	r1, #0
 1727 0060 1846     		mov	r0, r3
 1728 0062 FFF7FEFF 		bl	memset
 1729              	.L134:
 1730              		.loc 5 350 0
 1731 0066 019B     		ldr	r3, [sp, #4]
 1732 0068 9B69     		ldr	r3, [r3, #24]
 1733 006a 002B     		cmp	r3, #0
 1734 006c 06D0     		beq	.L135
 1735              		.loc 5 351 0
 1736 006e 019B     		ldr	r3, [sp, #4]
 1737 0070 9B69     		ldr	r3, [r3, #24]
 1738 0072 1422     		movs	r2, #20
 1739 0074 0021     		movs	r1, #0
 1740 0076 1846     		mov	r0, r3
 1741 0078 FFF7FEFF 		bl	memset
 1742              	.L135:
 1743              		.loc 5 354 0
 1744 007c 9DF80B30 		ldrb	r3, [sp, #11]	@ zero_extendqisi2
 1745 0080 039A     		ldr	r2, [sp, #12]
 1746 0082 0233     		adds	r3, r3, #2
 1747 0084 9B00     		lsls	r3, r3, #2
 1748 0086 1344     		add	r3, r3, r2
 1749 0088 019A     		ldr	r2, [sp, #4]
 1750 008a 5A60     		str	r2, [r3, #4]
 1751              		.loc 5 357 0
 1752 008c 9DF80B30 		ldrb	r3, [sp, #11]	@ zero_extendqisi2
 1753 0090 1946     		mov	r1, r3
 1754 0092 0398     		ldr	r0, [sp, #12]
 1755 0094 FFF7FEFF 		bl	usb_lld_init_endpoint
 1756              		.loc 5 358 0
 1757 0098 00BF     		nop
 1758 009a 054B     		ldr	r3, .L139
 1759 009c 059A     		ldr	r2, [sp, #20]
 1760 009e 1B68     		ldr	r3, [r3]
 1761 00a0 9A42     		cmp	r2, r3
 1762 00a2 01D0     		beq	.L136
 1763 00a4 FFF7FEFF 		bl	__stack_chk_fail
 1764              	.L136:
 1765 00a8 07B0     		add	sp, sp, #28
 1766              		.cfi_def_cfa_offset 4
 1767              		@ sp needed
ARM GAS  C:\Users\PCHAUT~1\AppData\Local\Temp\cc7u0cQS.s 			page 32


 1768 00aa 5DF804FB 		ldr	pc, [sp], #4
 1769              	.L140:
 1770 00ae 00BF     		.align	2
 1771              	.L139:
 1772 00b0 00000000 		.word	__stack_chk_guard
 1773 00b4 00000000 		.word	__func__.10307
 1774              		.cfi_endproc
 1775              	.LFE263:
 1776              		.size	usbInitEndpointI, .-usbInitEndpointI
 1777              		.section	.text.usbDisableEndpointsI,"ax",%progbits
 1778              		.align	1
 1779              		.p2align 4,,15
 1780              		.global	usbDisableEndpointsI
 1781              		.syntax unified
 1782              		.thumb
 1783              		.thumb_func
 1784              		.fpu fpv4-sp-d16
 1785              		.type	usbDisableEndpointsI, %function
 1786              	usbDisableEndpointsI:
 1787              	.LFB264:
 1788              		.loc 5 371 0
 1789              		.cfi_startproc
 1790              		@ args = 0, pretend = 0, frame = 16
 1791              		@ frame_needed = 0, uses_anonymous_args = 0
 1792 0000 00B5     		push	{lr}
 1793              		.cfi_def_cfa_offset 4
 1794              		.cfi_offset 14, -4
 1795 0002 85B0     		sub	sp, sp, #20
 1796              		.cfi_def_cfa_offset 24
 1797 0004 0190     		str	r0, [sp, #4]
 1798              		.loc 5 371 0
 1799 0006 1F4B     		ldr	r3, .L148
 1800 0008 1B68     		ldr	r3, [r3]
 1801 000a 0393     		str	r3, [sp, #12]
 1802              		.loc 5 374 0
 1803 000c FFF7FEFF 		bl	chDbgCheckClassI
 1804              		.loc 5 375 0
 1805 0010 019B     		ldr	r3, [sp, #4]
 1806 0012 002B     		cmp	r3, #0
 1807 0014 02D1     		bne	.L147
 1808              		.loc 5 375 0 is_stmt 0 discriminator 2
 1809 0016 1C48     		ldr	r0, .L148+4
 1810 0018 FFF7FEFF 		bl	chSysHalt
 1811              	.L147:
 1812              		.loc 5 376 0 is_stmt 1 discriminator 1
 1813 001c 019B     		ldr	r3, [sp, #4]
 1814 001e 1B78     		ldrb	r3, [r3]	@ zero_extendqisi2
 1815 0020 032B     		cmp	r3, #3
 1816 0022 02D0     		beq	.L143
 1817              		.loc 5 376 0 is_stmt 0 discriminator 2
 1818 0024 1848     		ldr	r0, .L148+4
 1819 0026 FFF7FEFF 		bl	chSysHalt
 1820              	.L143:
 1821              		.loc 5 378 0 is_stmt 1
 1822 002a 019B     		ldr	r3, [sp, #4]
 1823 002c 1B89     		ldrh	r3, [r3, #8]
 1824 002e 23F00103 		bic	r3, r3, #1
ARM GAS  C:\Users\PCHAUT~1\AppData\Local\Temp\cc7u0cQS.s 			page 33


 1825 0032 9AB2     		uxth	r2, r3
 1826 0034 019B     		ldr	r3, [sp, #4]
 1827 0036 1A81     		strh	r2, [r3, #8]	@ movhi
 1828              		.loc 5 379 0
 1829 0038 019B     		ldr	r3, [sp, #4]
 1830 003a 5B89     		ldrh	r3, [r3, #10]
 1831 003c 23F00103 		bic	r3, r3, #1
 1832 0040 9AB2     		uxth	r2, r3
 1833 0042 019B     		ldr	r3, [sp, #4]
 1834 0044 5A81     		strh	r2, [r3, #10]	@ movhi
 1835              		.loc 5 380 0
 1836 0046 0123     		movs	r3, #1
 1837 0048 0293     		str	r3, [sp, #8]
 1838 004a 09E0     		b	.L144
 1839              	.L145:
 1840              		.loc 5 381 0 discriminator 3
 1841 004c 019A     		ldr	r2, [sp, #4]
 1842 004e 029B     		ldr	r3, [sp, #8]
 1843 0050 0233     		adds	r3, r3, #2
 1844 0052 9B00     		lsls	r3, r3, #2
 1845 0054 1344     		add	r3, r3, r2
 1846 0056 0022     		movs	r2, #0
 1847 0058 5A60     		str	r2, [r3, #4]
 1848              		.loc 5 380 0 discriminator 3
 1849 005a 029B     		ldr	r3, [sp, #8]
 1850 005c 0133     		adds	r3, r3, #1
 1851 005e 0293     		str	r3, [sp, #8]
 1852              	.L144:
 1853              		.loc 5 380 0 is_stmt 0 discriminator 1
 1854 0060 029B     		ldr	r3, [sp, #8]
 1855 0062 032B     		cmp	r3, #3
 1856 0064 F2D9     		bls	.L145
 1857              		.loc 5 385 0 is_stmt 1
 1858 0066 0198     		ldr	r0, [sp, #4]
 1859 0068 FFF7FEFF 		bl	usb_lld_disable_endpoints
 1860              		.loc 5 386 0
 1861 006c 00BF     		nop
 1862 006e 054B     		ldr	r3, .L148
 1863 0070 039A     		ldr	r2, [sp, #12]
 1864 0072 1B68     		ldr	r3, [r3]
 1865 0074 9A42     		cmp	r2, r3
 1866 0076 01D0     		beq	.L146
 1867 0078 FFF7FEFF 		bl	__stack_chk_fail
 1868              	.L146:
 1869 007c 05B0     		add	sp, sp, #20
 1870              		.cfi_def_cfa_offset 4
 1871              		@ sp needed
 1872 007e 5DF804FB 		ldr	pc, [sp], #4
 1873              	.L149:
 1874 0082 00BF     		.align	2
 1875              	.L148:
 1876 0084 00000000 		.word	__stack_chk_guard
 1877 0088 00000000 		.word	__func__.10312
 1878              		.cfi_endproc
 1879              	.LFE264:
 1880              		.size	usbDisableEndpointsI, .-usbDisableEndpointsI
 1881              		.section	.text.usbPrepareReceive,"ax",%progbits
ARM GAS  C:\Users\PCHAUT~1\AppData\Local\Temp\cc7u0cQS.s 			page 34


 1882              		.align	1
 1883              		.p2align 4,,15
 1884              		.global	usbPrepareReceive
 1885              		.syntax unified
 1886              		.thumb
 1887              		.thumb_func
 1888              		.fpu fpv4-sp-d16
 1889              		.type	usbPrepareReceive, %function
 1890              	usbPrepareReceive:
 1891              	.LFB265:
 1892              		.loc 5 400 0
 1893              		.cfi_startproc
 1894              		@ args = 0, pretend = 0, frame = 24
 1895              		@ frame_needed = 0, uses_anonymous_args = 0
 1896 0000 00B5     		push	{lr}
 1897              		.cfi_def_cfa_offset 4
 1898              		.cfi_offset 14, -4
 1899 0002 87B0     		sub	sp, sp, #28
 1900              		.cfi_def_cfa_offset 32
 1901 0004 0390     		str	r0, [sp, #12]
 1902 0006 0192     		str	r2, [sp, #4]
 1903 0008 0093     		str	r3, [sp]
 1904 000a 0B46     		mov	r3, r1
 1905 000c 8DF80B30 		strb	r3, [sp, #11]
 1906              		.loc 5 400 0
 1907 0010 144B     		ldr	r3, .L152
 1908 0012 1B68     		ldr	r3, [r3]
 1909 0014 0593     		str	r3, [sp, #20]
 1910              		.loc 5 401 0
 1911 0016 9DF80B30 		ldrb	r3, [sp, #11]	@ zero_extendqisi2
 1912 001a 039A     		ldr	r2, [sp, #12]
 1913 001c 0233     		adds	r3, r3, #2
 1914 001e 9B00     		lsls	r3, r3, #2
 1915 0020 1344     		add	r3, r3, r2
 1916 0022 5B68     		ldr	r3, [r3, #4]
 1917 0024 9B69     		ldr	r3, [r3, #24]
 1918 0026 0493     		str	r3, [sp, #16]
 1919              		.loc 5 403 0
 1920 0028 049B     		ldr	r3, [sp, #16]
 1921 002a 0022     		movs	r2, #0
 1922 002c 1A70     		strb	r2, [r3]
 1923              		.loc 5 404 0
 1924 002e 049B     		ldr	r3, [sp, #16]
 1925 0030 019A     		ldr	r2, [sp, #4]
 1926 0032 DA60     		str	r2, [r3, #12]
 1927              		.loc 5 405 0
 1928 0034 049B     		ldr	r3, [sp, #16]
 1929 0036 009A     		ldr	r2, [sp]
 1930 0038 5A60     		str	r2, [r3, #4]
 1931              		.loc 5 406 0
 1932 003a 049B     		ldr	r3, [sp, #16]
 1933 003c 0022     		movs	r2, #0
 1934 003e 9A60     		str	r2, [r3, #8]
 1935              		.loc 5 408 0
 1936 0040 9DF80B30 		ldrb	r3, [sp, #11]	@ zero_extendqisi2
 1937 0044 1946     		mov	r1, r3
 1938 0046 0398     		ldr	r0, [sp, #12]
ARM GAS  C:\Users\PCHAUT~1\AppData\Local\Temp\cc7u0cQS.s 			page 35


 1939 0048 FFF7FEFF 		bl	usb_lld_prepare_receive
 1940              		.loc 5 409 0
 1941 004c 00BF     		nop
 1942 004e 054B     		ldr	r3, .L152
 1943 0050 059A     		ldr	r2, [sp, #20]
 1944 0052 1B68     		ldr	r3, [r3]
 1945 0054 9A42     		cmp	r2, r3
 1946 0056 01D0     		beq	.L151
 1947 0058 FFF7FEFF 		bl	__stack_chk_fail
 1948              	.L151:
 1949 005c 07B0     		add	sp, sp, #28
 1950              		.cfi_def_cfa_offset 4
 1951              		@ sp needed
 1952 005e 5DF804FB 		ldr	pc, [sp], #4
 1953              	.L153:
 1954 0062 00BF     		.align	2
 1955              	.L152:
 1956 0064 00000000 		.word	__stack_chk_guard
 1957              		.cfi_endproc
 1958              	.LFE265:
 1959              		.size	usbPrepareReceive, .-usbPrepareReceive
 1960              		.section	.text.usbPrepareTransmit,"ax",%progbits
 1961              		.align	1
 1962              		.p2align 4,,15
 1963              		.global	usbPrepareTransmit
 1964              		.syntax unified
 1965              		.thumb
 1966              		.thumb_func
 1967              		.fpu fpv4-sp-d16
 1968              		.type	usbPrepareTransmit, %function
 1969              	usbPrepareTransmit:
 1970              	.LFB266:
 1971              		.loc 5 426 0
 1972              		.cfi_startproc
 1973              		@ args = 0, pretend = 0, frame = 24
 1974              		@ frame_needed = 0, uses_anonymous_args = 0
 1975 0000 00B5     		push	{lr}
 1976              		.cfi_def_cfa_offset 4
 1977              		.cfi_offset 14, -4
 1978 0002 87B0     		sub	sp, sp, #28
 1979              		.cfi_def_cfa_offset 32
 1980 0004 0390     		str	r0, [sp, #12]
 1981 0006 0192     		str	r2, [sp, #4]
 1982 0008 0093     		str	r3, [sp]
 1983 000a 0B46     		mov	r3, r1
 1984 000c 8DF80B30 		strb	r3, [sp, #11]
 1985              		.loc 5 426 0
 1986 0010 144B     		ldr	r3, .L156
 1987 0012 1B68     		ldr	r3, [r3]
 1988 0014 0593     		str	r3, [sp, #20]
 1989              		.loc 5 427 0
 1990 0016 9DF80B30 		ldrb	r3, [sp, #11]	@ zero_extendqisi2
 1991 001a 039A     		ldr	r2, [sp, #12]
 1992 001c 0233     		adds	r3, r3, #2
 1993 001e 9B00     		lsls	r3, r3, #2
 1994 0020 1344     		add	r3, r3, r2
 1995 0022 5B68     		ldr	r3, [r3, #4]
ARM GAS  C:\Users\PCHAUT~1\AppData\Local\Temp\cc7u0cQS.s 			page 36


 1996 0024 5B69     		ldr	r3, [r3, #20]
 1997 0026 0493     		str	r3, [sp, #16]
 1998              		.loc 5 429 0
 1999 0028 049B     		ldr	r3, [sp, #16]
 2000 002a 0022     		movs	r2, #0
 2001 002c 1A70     		strb	r2, [r3]
 2002              		.loc 5 430 0
 2003 002e 049B     		ldr	r3, [sp, #16]
 2004 0030 019A     		ldr	r2, [sp, #4]
 2005 0032 DA60     		str	r2, [r3, #12]
 2006              		.loc 5 431 0
 2007 0034 049B     		ldr	r3, [sp, #16]
 2008 0036 009A     		ldr	r2, [sp]
 2009 0038 5A60     		str	r2, [r3, #4]
 2010              		.loc 5 432 0
 2011 003a 049B     		ldr	r3, [sp, #16]
 2012 003c 0022     		movs	r2, #0
 2013 003e 9A60     		str	r2, [r3, #8]
 2014              		.loc 5 434 0
 2015 0040 9DF80B30 		ldrb	r3, [sp, #11]	@ zero_extendqisi2
 2016 0044 1946     		mov	r1, r3
 2017 0046 0398     		ldr	r0, [sp, #12]
 2018 0048 FFF7FEFF 		bl	usb_lld_prepare_transmit
 2019              		.loc 5 435 0
 2020 004c 00BF     		nop
 2021 004e 054B     		ldr	r3, .L156
 2022 0050 059A     		ldr	r2, [sp, #20]
 2023 0052 1B68     		ldr	r3, [r3]
 2024 0054 9A42     		cmp	r2, r3
 2025 0056 01D0     		beq	.L155
 2026 0058 FFF7FEFF 		bl	__stack_chk_fail
 2027              	.L155:
 2028 005c 07B0     		add	sp, sp, #28
 2029              		.cfi_def_cfa_offset 4
 2030              		@ sp needed
 2031 005e 5DF804FB 		ldr	pc, [sp], #4
 2032              	.L157:
 2033 0062 00BF     		.align	2
 2034              	.L156:
 2035 0064 00000000 		.word	__stack_chk_guard
 2036              		.cfi_endproc
 2037              	.LFE266:
 2038              		.size	usbPrepareTransmit, .-usbPrepareTransmit
 2039              		.section	.text.usbPrepareQueuedReceive,"ax",%progbits
 2040              		.align	1
 2041              		.p2align 4,,15
 2042              		.global	usbPrepareQueuedReceive
 2043              		.syntax unified
 2044              		.thumb
 2045              		.thumb_func
 2046              		.fpu fpv4-sp-d16
 2047              		.type	usbPrepareQueuedReceive, %function
 2048              	usbPrepareQueuedReceive:
 2049              	.LFB267:
 2050              		.loc 5 455 0
 2051              		.cfi_startproc
 2052              		@ args = 0, pretend = 0, frame = 24
ARM GAS  C:\Users\PCHAUT~1\AppData\Local\Temp\cc7u0cQS.s 			page 37


 2053              		@ frame_needed = 0, uses_anonymous_args = 0
 2054 0000 00B5     		push	{lr}
 2055              		.cfi_def_cfa_offset 4
 2056              		.cfi_offset 14, -4
 2057 0002 87B0     		sub	sp, sp, #28
 2058              		.cfi_def_cfa_offset 32
 2059 0004 0390     		str	r0, [sp, #12]
 2060 0006 0192     		str	r2, [sp, #4]
 2061 0008 0093     		str	r3, [sp]
 2062 000a 0B46     		mov	r3, r1
 2063 000c 8DF80B30 		strb	r3, [sp, #11]
 2064              		.loc 5 455 0
 2065 0010 144B     		ldr	r3, .L160
 2066 0012 1B68     		ldr	r3, [r3]
 2067 0014 0593     		str	r3, [sp, #20]
 2068              		.loc 5 456 0
 2069 0016 9DF80B30 		ldrb	r3, [sp, #11]	@ zero_extendqisi2
 2070 001a 039A     		ldr	r2, [sp, #12]
 2071 001c 0233     		adds	r3, r3, #2
 2072 001e 9B00     		lsls	r3, r3, #2
 2073 0020 1344     		add	r3, r3, r2
 2074 0022 5B68     		ldr	r3, [r3, #4]
 2075 0024 9B69     		ldr	r3, [r3, #24]
 2076 0026 0493     		str	r3, [sp, #16]
 2077              		.loc 5 458 0
 2078 0028 049B     		ldr	r3, [sp, #16]
 2079 002a 0122     		movs	r2, #1
 2080 002c 1A70     		strb	r2, [r3]
 2081              		.loc 5 459 0
 2082 002e 049B     		ldr	r3, [sp, #16]
 2083 0030 019A     		ldr	r2, [sp, #4]
 2084 0032 DA60     		str	r2, [r3, #12]
 2085              		.loc 5 460 0
 2086 0034 049B     		ldr	r3, [sp, #16]
 2087 0036 009A     		ldr	r2, [sp]
 2088 0038 5A60     		str	r2, [r3, #4]
 2089              		.loc 5 461 0
 2090 003a 049B     		ldr	r3, [sp, #16]
 2091 003c 0022     		movs	r2, #0
 2092 003e 9A60     		str	r2, [r3, #8]
 2093              		.loc 5 463 0
 2094 0040 9DF80B30 		ldrb	r3, [sp, #11]	@ zero_extendqisi2
 2095 0044 1946     		mov	r1, r3
 2096 0046 0398     		ldr	r0, [sp, #12]
 2097 0048 FFF7FEFF 		bl	usb_lld_prepare_receive
 2098              		.loc 5 464 0
 2099 004c 00BF     		nop
 2100 004e 054B     		ldr	r3, .L160
 2101 0050 059A     		ldr	r2, [sp, #20]
 2102 0052 1B68     		ldr	r3, [r3]
 2103 0054 9A42     		cmp	r2, r3
 2104 0056 01D0     		beq	.L159
 2105 0058 FFF7FEFF 		bl	__stack_chk_fail
 2106              	.L159:
 2107 005c 07B0     		add	sp, sp, #28
 2108              		.cfi_def_cfa_offset 4
 2109              		@ sp needed
ARM GAS  C:\Users\PCHAUT~1\AppData\Local\Temp\cc7u0cQS.s 			page 38


 2110 005e 5DF804FB 		ldr	pc, [sp], #4
 2111              	.L161:
 2112 0062 00BF     		.align	2
 2113              	.L160:
 2114 0064 00000000 		.word	__stack_chk_guard
 2115              		.cfi_endproc
 2116              	.LFE267:
 2117              		.size	usbPrepareQueuedReceive, .-usbPrepareQueuedReceive
 2118              		.section	.text.usbPrepareQueuedTransmit,"ax",%progbits
 2119              		.align	1
 2120              		.p2align 4,,15
 2121              		.global	usbPrepareQueuedTransmit
 2122              		.syntax unified
 2123              		.thumb
 2124              		.thumb_func
 2125              		.fpu fpv4-sp-d16
 2126              		.type	usbPrepareQueuedTransmit, %function
 2127              	usbPrepareQueuedTransmit:
 2128              	.LFB268:
 2129              		.loc 5 481 0
 2130              		.cfi_startproc
 2131              		@ args = 0, pretend = 0, frame = 24
 2132              		@ frame_needed = 0, uses_anonymous_args = 0
 2133 0000 00B5     		push	{lr}
 2134              		.cfi_def_cfa_offset 4
 2135              		.cfi_offset 14, -4
 2136 0002 87B0     		sub	sp, sp, #28
 2137              		.cfi_def_cfa_offset 32
 2138 0004 0390     		str	r0, [sp, #12]
 2139 0006 0192     		str	r2, [sp, #4]
 2140 0008 0093     		str	r3, [sp]
 2141 000a 0B46     		mov	r3, r1
 2142 000c 8DF80B30 		strb	r3, [sp, #11]
 2143              		.loc 5 481 0
 2144 0010 144B     		ldr	r3, .L164
 2145 0012 1B68     		ldr	r3, [r3]
 2146 0014 0593     		str	r3, [sp, #20]
 2147              		.loc 5 482 0
 2148 0016 9DF80B30 		ldrb	r3, [sp, #11]	@ zero_extendqisi2
 2149 001a 039A     		ldr	r2, [sp, #12]
 2150 001c 0233     		adds	r3, r3, #2
 2151 001e 9B00     		lsls	r3, r3, #2
 2152 0020 1344     		add	r3, r3, r2
 2153 0022 5B68     		ldr	r3, [r3, #4]
 2154 0024 5B69     		ldr	r3, [r3, #20]
 2155 0026 0493     		str	r3, [sp, #16]
 2156              		.loc 5 484 0
 2157 0028 049B     		ldr	r3, [sp, #16]
 2158 002a 0122     		movs	r2, #1
 2159 002c 1A70     		strb	r2, [r3]
 2160              		.loc 5 485 0
 2161 002e 049B     		ldr	r3, [sp, #16]
 2162 0030 019A     		ldr	r2, [sp, #4]
 2163 0032 DA60     		str	r2, [r3, #12]
 2164              		.loc 5 486 0
 2165 0034 049B     		ldr	r3, [sp, #16]
 2166 0036 009A     		ldr	r2, [sp]
ARM GAS  C:\Users\PCHAUT~1\AppData\Local\Temp\cc7u0cQS.s 			page 39


 2167 0038 5A60     		str	r2, [r3, #4]
 2168              		.loc 5 487 0
 2169 003a 049B     		ldr	r3, [sp, #16]
 2170 003c 0022     		movs	r2, #0
 2171 003e 9A60     		str	r2, [r3, #8]
 2172              		.loc 5 489 0
 2173 0040 9DF80B30 		ldrb	r3, [sp, #11]	@ zero_extendqisi2
 2174 0044 1946     		mov	r1, r3
 2175 0046 0398     		ldr	r0, [sp, #12]
 2176 0048 FFF7FEFF 		bl	usb_lld_prepare_transmit
 2177              		.loc 5 490 0
 2178 004c 00BF     		nop
 2179 004e 054B     		ldr	r3, .L164
 2180 0050 059A     		ldr	r2, [sp, #20]
 2181 0052 1B68     		ldr	r3, [r3]
 2182 0054 9A42     		cmp	r2, r3
 2183 0056 01D0     		beq	.L163
 2184 0058 FFF7FEFF 		bl	__stack_chk_fail
 2185              	.L163:
 2186 005c 07B0     		add	sp, sp, #28
 2187              		.cfi_def_cfa_offset 4
 2188              		@ sp needed
 2189 005e 5DF804FB 		ldr	pc, [sp], #4
 2190              	.L165:
 2191 0062 00BF     		.align	2
 2192              	.L164:
 2193 0064 00000000 		.word	__stack_chk_guard
 2194              		.cfi_endproc
 2195              	.LFE268:
 2196              		.size	usbPrepareQueuedTransmit, .-usbPrepareQueuedTransmit
 2197              		.section	.text.usbStartReceiveI,"ax",%progbits
 2198              		.align	1
 2199              		.p2align 4,,15
 2200              		.global	usbStartReceiveI
 2201              		.syntax unified
 2202              		.thumb
 2203              		.thumb_func
 2204              		.fpu fpv4-sp-d16
 2205              		.type	usbStartReceiveI, %function
 2206              	usbStartReceiveI:
 2207              	.LFB269:
 2208              		.loc 5 506 0
 2209              		.cfi_startproc
 2210              		@ args = 0, pretend = 0, frame = 16
 2211              		@ frame_needed = 0, uses_anonymous_args = 0
 2212 0000 00B5     		push	{lr}
 2213              		.cfi_def_cfa_offset 4
 2214              		.cfi_offset 14, -4
 2215 0002 85B0     		sub	sp, sp, #20
 2216              		.cfi_def_cfa_offset 24
 2217 0004 0190     		str	r0, [sp, #4]
 2218 0006 0B46     		mov	r3, r1
 2219 0008 8DF80330 		strb	r3, [sp, #3]
 2220              		.loc 5 506 0
 2221 000c 1B4B     		ldr	r3, .L171
 2222 000e 1B68     		ldr	r3, [r3]
 2223 0010 0393     		str	r3, [sp, #12]
ARM GAS  C:\Users\PCHAUT~1\AppData\Local\Temp\cc7u0cQS.s 			page 40


 2224              		.loc 5 508 0
 2225 0012 FFF7FEFF 		bl	chDbgCheckClassI
 2226              		.loc 5 509 0
 2227 0016 019B     		ldr	r3, [sp, #4]
 2228 0018 002B     		cmp	r3, #0
 2229 001a 02D1     		bne	.L167
 2230              		.loc 5 509 0 is_stmt 0 discriminator 2
 2231 001c 1848     		ldr	r0, .L171+4
 2232 001e FFF7FEFF 		bl	chSysHalt
 2233              	.L167:
 2234              		.loc 5 511 0 is_stmt 1
 2235 0022 019B     		ldr	r3, [sp, #4]
 2236 0024 5A89     		ldrh	r2, [r3, #10]
 2237 0026 9DF80330 		ldrb	r3, [sp, #3]	@ zero_extendqisi2
 2238 002a 0121     		movs	r1, #1
 2239 002c 01FA03F3 		lsl	r3, r1, r3
 2240 0030 9BB2     		uxth	r3, r3
 2241 0032 1340     		ands	r3, r3, r2
 2242 0034 9BB2     		uxth	r3, r3
 2243 0036 002B     		cmp	r3, #0
 2244 0038 01D0     		beq	.L168
 2245              		.loc 5 512 0
 2246 003a 0123     		movs	r3, #1
 2247 003c 12E0     		b	.L169
 2248              	.L168:
 2249              		.loc 5 515 0
 2250 003e 019B     		ldr	r3, [sp, #4]
 2251 0040 5A89     		ldrh	r2, [r3, #10]
 2252 0042 9DF80330 		ldrb	r3, [sp, #3]	@ zero_extendqisi2
 2253 0046 0121     		movs	r1, #1
 2254 0048 01FA03F3 		lsl	r3, r1, r3
 2255 004c 9BB2     		uxth	r3, r3
 2256 004e 1343     		orrs	r3, r3, r2
 2257 0050 9AB2     		uxth	r2, r3
 2258 0052 019B     		ldr	r3, [sp, #4]
 2259 0054 5A81     		strh	r2, [r3, #10]	@ movhi
 2260              		.loc 5 516 0
 2261 0056 9DF80330 		ldrb	r3, [sp, #3]	@ zero_extendqisi2
 2262 005a 1946     		mov	r1, r3
 2263 005c 0198     		ldr	r0, [sp, #4]
 2264 005e FFF7FEFF 		bl	usb_lld_start_out
 2265              		.loc 5 517 0
 2266 0062 0023     		movs	r3, #0
 2267              	.L169:
 2268              		.loc 5 518 0
 2269 0064 1846     		mov	r0, r3
 2270 0066 054B     		ldr	r3, .L171
 2271 0068 039A     		ldr	r2, [sp, #12]
 2272 006a 1B68     		ldr	r3, [r3]
 2273 006c 9A42     		cmp	r2, r3
 2274 006e 01D0     		beq	.L170
 2275 0070 FFF7FEFF 		bl	__stack_chk_fail
 2276              	.L170:
 2277 0074 05B0     		add	sp, sp, #20
 2278              		.cfi_def_cfa_offset 4
 2279              		@ sp needed
 2280 0076 5DF804FB 		ldr	pc, [sp], #4
ARM GAS  C:\Users\PCHAUT~1\AppData\Local\Temp\cc7u0cQS.s 			page 41


 2281              	.L172:
 2282 007a 00BF     		.align	2
 2283              	.L171:
 2284 007c 00000000 		.word	__stack_chk_guard
 2285 0080 00000000 		.word	__func__.10348
 2286              		.cfi_endproc
 2287              	.LFE269:
 2288              		.size	usbStartReceiveI, .-usbStartReceiveI
 2289              		.section	.text.usbStartTransmitI,"ax",%progbits
 2290              		.align	1
 2291              		.p2align 4,,15
 2292              		.global	usbStartTransmitI
 2293              		.syntax unified
 2294              		.thumb
 2295              		.thumb_func
 2296              		.fpu fpv4-sp-d16
 2297              		.type	usbStartTransmitI, %function
 2298              	usbStartTransmitI:
 2299              	.LFB270:
 2300              		.loc 5 534 0
 2301              		.cfi_startproc
 2302              		@ args = 0, pretend = 0, frame = 16
 2303              		@ frame_needed = 0, uses_anonymous_args = 0
 2304 0000 00B5     		push	{lr}
 2305              		.cfi_def_cfa_offset 4
 2306              		.cfi_offset 14, -4
 2307 0002 85B0     		sub	sp, sp, #20
 2308              		.cfi_def_cfa_offset 24
 2309 0004 0190     		str	r0, [sp, #4]
 2310 0006 0B46     		mov	r3, r1
 2311 0008 8DF80330 		strb	r3, [sp, #3]
 2312              		.loc 5 534 0
 2313 000c 1B4B     		ldr	r3, .L178
 2314 000e 1B68     		ldr	r3, [r3]
 2315 0010 0393     		str	r3, [sp, #12]
 2316              		.loc 5 536 0
 2317 0012 FFF7FEFF 		bl	chDbgCheckClassI
 2318              		.loc 5 537 0
 2319 0016 019B     		ldr	r3, [sp, #4]
 2320 0018 002B     		cmp	r3, #0
 2321 001a 02D1     		bne	.L174
 2322              		.loc 5 537 0 is_stmt 0 discriminator 2
 2323 001c 1848     		ldr	r0, .L178+4
 2324 001e FFF7FEFF 		bl	chSysHalt
 2325              	.L174:
 2326              		.loc 5 539 0 is_stmt 1
 2327 0022 019B     		ldr	r3, [sp, #4]
 2328 0024 1A89     		ldrh	r2, [r3, #8]
 2329 0026 9DF80330 		ldrb	r3, [sp, #3]	@ zero_extendqisi2
 2330 002a 0121     		movs	r1, #1
 2331 002c 01FA03F3 		lsl	r3, r1, r3
 2332 0030 9BB2     		uxth	r3, r3
 2333 0032 1340     		ands	r3, r3, r2
 2334 0034 9BB2     		uxth	r3, r3
 2335 0036 002B     		cmp	r3, #0
 2336 0038 01D0     		beq	.L175
 2337              		.loc 5 540 0
ARM GAS  C:\Users\PCHAUT~1\AppData\Local\Temp\cc7u0cQS.s 			page 42


 2338 003a 0123     		movs	r3, #1
 2339 003c 12E0     		b	.L176
 2340              	.L175:
 2341              		.loc 5 543 0
 2342 003e 019B     		ldr	r3, [sp, #4]
 2343 0040 1A89     		ldrh	r2, [r3, #8]
 2344 0042 9DF80330 		ldrb	r3, [sp, #3]	@ zero_extendqisi2
 2345 0046 0121     		movs	r1, #1
 2346 0048 01FA03F3 		lsl	r3, r1, r3
 2347 004c 9BB2     		uxth	r3, r3
 2348 004e 1343     		orrs	r3, r3, r2
 2349 0050 9AB2     		uxth	r2, r3
 2350 0052 019B     		ldr	r3, [sp, #4]
 2351 0054 1A81     		strh	r2, [r3, #8]	@ movhi
 2352              		.loc 5 544 0
 2353 0056 9DF80330 		ldrb	r3, [sp, #3]	@ zero_extendqisi2
 2354 005a 1946     		mov	r1, r3
 2355 005c 0198     		ldr	r0, [sp, #4]
 2356 005e FFF7FEFF 		bl	usb_lld_start_in
 2357              		.loc 5 545 0
 2358 0062 0023     		movs	r3, #0
 2359              	.L176:
 2360              		.loc 5 546 0
 2361 0064 1846     		mov	r0, r3
 2362 0066 054B     		ldr	r3, .L178
 2363 0068 039A     		ldr	r2, [sp, #12]
 2364 006a 1B68     		ldr	r3, [r3]
 2365 006c 9A42     		cmp	r2, r3
 2366 006e 01D0     		beq	.L177
 2367 0070 FFF7FEFF 		bl	__stack_chk_fail
 2368              	.L177:
 2369 0074 05B0     		add	sp, sp, #20
 2370              		.cfi_def_cfa_offset 4
 2371              		@ sp needed
 2372 0076 5DF804FB 		ldr	pc, [sp], #4
 2373              	.L179:
 2374 007a 00BF     		.align	2
 2375              	.L178:
 2376 007c 00000000 		.word	__stack_chk_guard
 2377 0080 00000000 		.word	__func__.10353
 2378              		.cfi_endproc
 2379              	.LFE270:
 2380              		.size	usbStartTransmitI, .-usbStartTransmitI
 2381              		.section	.text.usbStallReceiveI,"ax",%progbits
 2382              		.align	1
 2383              		.p2align 4,,15
 2384              		.global	usbStallReceiveI
 2385              		.syntax unified
 2386              		.thumb
 2387              		.thumb_func
 2388              		.fpu fpv4-sp-d16
 2389              		.type	usbStallReceiveI, %function
 2390              	usbStallReceiveI:
 2391              	.LFB271:
 2392              		.loc 5 560 0
 2393              		.cfi_startproc
 2394              		@ args = 0, pretend = 0, frame = 16
ARM GAS  C:\Users\PCHAUT~1\AppData\Local\Temp\cc7u0cQS.s 			page 43


 2395              		@ frame_needed = 0, uses_anonymous_args = 0
 2396 0000 00B5     		push	{lr}
 2397              		.cfi_def_cfa_offset 4
 2398              		.cfi_offset 14, -4
 2399 0002 85B0     		sub	sp, sp, #20
 2400              		.cfi_def_cfa_offset 24
 2401 0004 0190     		str	r0, [sp, #4]
 2402 0006 0B46     		mov	r3, r1
 2403 0008 8DF80330 		strb	r3, [sp, #3]
 2404              		.loc 5 560 0
 2405 000c 154B     		ldr	r3, .L185
 2406 000e 1B68     		ldr	r3, [r3]
 2407 0010 0393     		str	r3, [sp, #12]
 2408              		.loc 5 562 0
 2409 0012 FFF7FEFF 		bl	chDbgCheckClassI
 2410              		.loc 5 563 0
 2411 0016 019B     		ldr	r3, [sp, #4]
 2412 0018 002B     		cmp	r3, #0
 2413 001a 02D1     		bne	.L181
 2414              		.loc 5 563 0 is_stmt 0 discriminator 2
 2415 001c 1248     		ldr	r0, .L185+4
 2416 001e FFF7FEFF 		bl	chSysHalt
 2417              	.L181:
 2418              		.loc 5 565 0 is_stmt 1
 2419 0022 019B     		ldr	r3, [sp, #4]
 2420 0024 5A89     		ldrh	r2, [r3, #10]
 2421 0026 9DF80330 		ldrb	r3, [sp, #3]	@ zero_extendqisi2
 2422 002a 0121     		movs	r1, #1
 2423 002c 01FA03F3 		lsl	r3, r1, r3
 2424 0030 9BB2     		uxth	r3, r3
 2425 0032 1340     		ands	r3, r3, r2
 2426 0034 9BB2     		uxth	r3, r3
 2427 0036 002B     		cmp	r3, #0
 2428 0038 01D0     		beq	.L182
 2429              		.loc 5 566 0
 2430 003a 0123     		movs	r3, #1
 2431 003c 06E0     		b	.L183
 2432              	.L182:
 2433              		.loc 5 569 0
 2434 003e 9DF80330 		ldrb	r3, [sp, #3]	@ zero_extendqisi2
 2435 0042 1946     		mov	r1, r3
 2436 0044 0198     		ldr	r0, [sp, #4]
 2437 0046 FFF7FEFF 		bl	usb_lld_stall_out
 2438              		.loc 5 570 0
 2439 004a 0023     		movs	r3, #0
 2440              	.L183:
 2441              		.loc 5 571 0
 2442 004c 1846     		mov	r0, r3
 2443 004e 054B     		ldr	r3, .L185
 2444 0050 039A     		ldr	r2, [sp, #12]
 2445 0052 1B68     		ldr	r3, [r3]
 2446 0054 9A42     		cmp	r2, r3
 2447 0056 01D0     		beq	.L184
 2448 0058 FFF7FEFF 		bl	__stack_chk_fail
 2449              	.L184:
 2450 005c 05B0     		add	sp, sp, #20
 2451              		.cfi_def_cfa_offset 4
ARM GAS  C:\Users\PCHAUT~1\AppData\Local\Temp\cc7u0cQS.s 			page 44


 2452              		@ sp needed
 2453 005e 5DF804FB 		ldr	pc, [sp], #4
 2454              	.L186:
 2455 0062 00BF     		.align	2
 2456              	.L185:
 2457 0064 00000000 		.word	__stack_chk_guard
 2458 0068 00000000 		.word	__func__.10358
 2459              		.cfi_endproc
 2460              	.LFE271:
 2461              		.size	usbStallReceiveI, .-usbStallReceiveI
 2462              		.section	.text.usbStallTransmitI,"ax",%progbits
 2463              		.align	1
 2464              		.p2align 4,,15
 2465              		.global	usbStallTransmitI
 2466              		.syntax unified
 2467              		.thumb
 2468              		.thumb_func
 2469              		.fpu fpv4-sp-d16
 2470              		.type	usbStallTransmitI, %function
 2471              	usbStallTransmitI:
 2472              	.LFB272:
 2473              		.loc 5 585 0
 2474              		.cfi_startproc
 2475              		@ args = 0, pretend = 0, frame = 16
 2476              		@ frame_needed = 0, uses_anonymous_args = 0
 2477 0000 00B5     		push	{lr}
 2478              		.cfi_def_cfa_offset 4
 2479              		.cfi_offset 14, -4
 2480 0002 85B0     		sub	sp, sp, #20
 2481              		.cfi_def_cfa_offset 24
 2482 0004 0190     		str	r0, [sp, #4]
 2483 0006 0B46     		mov	r3, r1
 2484 0008 8DF80330 		strb	r3, [sp, #3]
 2485              		.loc 5 585 0
 2486 000c 154B     		ldr	r3, .L192
 2487 000e 1B68     		ldr	r3, [r3]
 2488 0010 0393     		str	r3, [sp, #12]
 2489              		.loc 5 587 0
 2490 0012 FFF7FEFF 		bl	chDbgCheckClassI
 2491              		.loc 5 588 0
 2492 0016 019B     		ldr	r3, [sp, #4]
 2493 0018 002B     		cmp	r3, #0
 2494 001a 02D1     		bne	.L188
 2495              		.loc 5 588 0 is_stmt 0 discriminator 2
 2496 001c 1248     		ldr	r0, .L192+4
 2497 001e FFF7FEFF 		bl	chSysHalt
 2498              	.L188:
 2499              		.loc 5 590 0 is_stmt 1
 2500 0022 019B     		ldr	r3, [sp, #4]
 2501 0024 1A89     		ldrh	r2, [r3, #8]
 2502 0026 9DF80330 		ldrb	r3, [sp, #3]	@ zero_extendqisi2
 2503 002a 0121     		movs	r1, #1
 2504 002c 01FA03F3 		lsl	r3, r1, r3
 2505 0030 9BB2     		uxth	r3, r3
 2506 0032 1340     		ands	r3, r3, r2
 2507 0034 9BB2     		uxth	r3, r3
 2508 0036 002B     		cmp	r3, #0
ARM GAS  C:\Users\PCHAUT~1\AppData\Local\Temp\cc7u0cQS.s 			page 45


 2509 0038 01D0     		beq	.L189
 2510              		.loc 5 591 0
 2511 003a 0123     		movs	r3, #1
 2512 003c 06E0     		b	.L190
 2513              	.L189:
 2514              		.loc 5 594 0
 2515 003e 9DF80330 		ldrb	r3, [sp, #3]	@ zero_extendqisi2
 2516 0042 1946     		mov	r1, r3
 2517 0044 0198     		ldr	r0, [sp, #4]
 2518 0046 FFF7FEFF 		bl	usb_lld_stall_in
 2519              		.loc 5 595 0
 2520 004a 0023     		movs	r3, #0
 2521              	.L190:
 2522              		.loc 5 596 0
 2523 004c 1846     		mov	r0, r3
 2524 004e 054B     		ldr	r3, .L192
 2525 0050 039A     		ldr	r2, [sp, #12]
 2526 0052 1B68     		ldr	r3, [r3]
 2527 0054 9A42     		cmp	r2, r3
 2528 0056 01D0     		beq	.L191
 2529 0058 FFF7FEFF 		bl	__stack_chk_fail
 2530              	.L191:
 2531 005c 05B0     		add	sp, sp, #20
 2532              		.cfi_def_cfa_offset 4
 2533              		@ sp needed
 2534 005e 5DF804FB 		ldr	pc, [sp], #4
 2535              	.L193:
 2536 0062 00BF     		.align	2
 2537              	.L192:
 2538 0064 00000000 		.word	__stack_chk_guard
 2539 0068 00000000 		.word	__func__.10363
 2540              		.cfi_endproc
 2541              	.LFE272:
 2542              		.size	usbStallTransmitI, .-usbStallTransmitI
 2543              		.section	.text._usb_reset,"ax",%progbits
 2544              		.align	1
 2545              		.p2align 4,,15
 2546              		.global	_usb_reset
 2547              		.syntax unified
 2548              		.thumb
 2549              		.thumb_func
 2550              		.fpu fpv4-sp-d16
 2551              		.type	_usb_reset, %function
 2552              	_usb_reset:
 2553              	.LFB273:
 2554              		.loc 5 607 0
 2555              		.cfi_startproc
 2556              		@ args = 0, pretend = 0, frame = 16
 2557              		@ frame_needed = 0, uses_anonymous_args = 0
 2558 0000 00B5     		push	{lr}
 2559              		.cfi_def_cfa_offset 4
 2560              		.cfi_offset 14, -4
 2561 0002 85B0     		sub	sp, sp, #20
 2562              		.cfi_def_cfa_offset 24
 2563 0004 0190     		str	r0, [sp, #4]
 2564              		.loc 5 607 0
 2565 0006 1D4B     		ldr	r3, .L198
ARM GAS  C:\Users\PCHAUT~1\AppData\Local\Temp\cc7u0cQS.s 			page 46


 2566 0008 1B68     		ldr	r3, [r3]
 2567 000a 0393     		str	r3, [sp, #12]
 2568              		.loc 5 610 0
 2569 000c 019B     		ldr	r3, [sp, #4]
 2570 000e 0222     		movs	r2, #2
 2571 0010 1A70     		strb	r2, [r3]
 2572              		.loc 5 611 0
 2573 0012 019B     		ldr	r3, [sp, #4]
 2574 0014 0022     		movs	r2, #0
 2575 0016 A3F84C20 		strh	r2, [r3, #76]	@ movhi
 2576              		.loc 5 612 0
 2577 001a 019B     		ldr	r3, [sp, #4]
 2578 001c 0022     		movs	r2, #0
 2579 001e 83F84E20 		strb	r2, [r3, #78]
 2580              		.loc 5 613 0
 2581 0022 019B     		ldr	r3, [sp, #4]
 2582 0024 0022     		movs	r2, #0
 2583 0026 83F84F20 		strb	r2, [r3, #79]
 2584              		.loc 5 614 0
 2585 002a 019B     		ldr	r3, [sp, #4]
 2586 002c 0022     		movs	r2, #0
 2587 002e 1A81     		strh	r2, [r3, #8]	@ movhi
 2588              		.loc 5 615 0
 2589 0030 019B     		ldr	r3, [sp, #4]
 2590 0032 0022     		movs	r2, #0
 2591 0034 5A81     		strh	r2, [r3, #10]	@ movhi
 2592              		.loc 5 618 0
 2593 0036 0023     		movs	r3, #0
 2594 0038 0293     		str	r3, [sp, #8]
 2595 003a 09E0     		b	.L195
 2596              	.L196:
 2597              		.loc 5 619 0 discriminator 3
 2598 003c 019A     		ldr	r2, [sp, #4]
 2599 003e 029B     		ldr	r3, [sp, #8]
 2600 0040 0233     		adds	r3, r3, #2
 2601 0042 9B00     		lsls	r3, r3, #2
 2602 0044 1344     		add	r3, r3, r2
 2603 0046 0022     		movs	r2, #0
 2604 0048 5A60     		str	r2, [r3, #4]
 2605              		.loc 5 618 0 discriminator 3
 2606 004a 029B     		ldr	r3, [sp, #8]
 2607 004c 0133     		adds	r3, r3, #1
 2608 004e 0293     		str	r3, [sp, #8]
 2609              	.L195:
 2610              		.loc 5 618 0 is_stmt 0 discriminator 1
 2611 0050 029B     		ldr	r3, [sp, #8]
 2612 0052 032B     		cmp	r3, #3
 2613 0054 F2D9     		bls	.L196
 2614              		.loc 5 623 0 is_stmt 1
 2615 0056 019B     		ldr	r3, [sp, #4]
 2616 0058 0022     		movs	r2, #0
 2617 005a 83F83420 		strb	r2, [r3, #52]
 2618              		.loc 5 626 0
 2619 005e 0198     		ldr	r0, [sp, #4]
 2620 0060 FFF7FEFF 		bl	usb_lld_reset
 2621              		.loc 5 627 0
 2622 0064 00BF     		nop
ARM GAS  C:\Users\PCHAUT~1\AppData\Local\Temp\cc7u0cQS.s 			page 47


 2623 0066 054B     		ldr	r3, .L198
 2624 0068 039A     		ldr	r2, [sp, #12]
 2625 006a 1B68     		ldr	r3, [r3]
 2626 006c 9A42     		cmp	r2, r3
 2627 006e 01D0     		beq	.L197
 2628 0070 FFF7FEFF 		bl	__stack_chk_fail
 2629              	.L197:
 2630 0074 05B0     		add	sp, sp, #20
 2631              		.cfi_def_cfa_offset 4
 2632              		@ sp needed
 2633 0076 5DF804FB 		ldr	pc, [sp], #4
 2634              	.L199:
 2635 007a 00BF     		.align	2
 2636              	.L198:
 2637 007c 00000000 		.word	__stack_chk_guard
 2638              		.cfi_endproc
 2639              	.LFE273:
 2640              		.size	_usb_reset, .-_usb_reset
 2641              		.section	.text._usb_ep0setup,"ax",%progbits
 2642              		.align	1
 2643              		.p2align 4,,15
 2644              		.global	_usb_ep0setup
 2645              		.syntax unified
 2646              		.thumb
 2647              		.thumb_func
 2648              		.fpu fpv4-sp-d16
 2649              		.type	_usb_ep0setup, %function
 2650              	_usb_ep0setup:
 2651              	.LFB274:
 2652              		.loc 5 639 0
 2653              		.cfi_startproc
 2654              		@ args = 0, pretend = 0, frame = 16
 2655              		@ frame_needed = 0, uses_anonymous_args = 0
 2656 0000 00B5     		push	{lr}
 2657              		.cfi_def_cfa_offset 4
 2658              		.cfi_offset 14, -4
 2659 0002 85B0     		sub	sp, sp, #20
 2660              		.cfi_def_cfa_offset 24
 2661 0004 0190     		str	r0, [sp, #4]
 2662 0006 0B46     		mov	r3, r1
 2663 0008 8DF80330 		strb	r3, [sp, #3]
 2664              		.loc 5 639 0
 2665 000c 5E4B     		ldr	r3, .L212
 2666 000e 1B68     		ldr	r3, [r3]
 2667 0010 0393     		str	r3, [sp, #12]
 2668              		.loc 5 642 0
 2669 0012 019B     		ldr	r3, [sp, #4]
 2670 0014 0022     		movs	r2, #0
 2671 0016 83F83420 		strb	r2, [r3, #52]
 2672              		.loc 5 643 0
 2673 001a 019B     		ldr	r3, [sp, #4]
 2674 001c 03F14402 		add	r2, r3, #68
 2675 0020 9DF80330 		ldrb	r3, [sp, #3]	@ zero_extendqisi2
 2676 0024 1946     		mov	r1, r3
 2677 0026 0198     		ldr	r0, [sp, #4]
 2678 0028 FFF7FEFF 		bl	usb_lld_read_setup
 2679              		.loc 5 648 0
ARM GAS  C:\Users\PCHAUT~1\AppData\Local\Temp\cc7u0cQS.s 			page 48


 2680 002c 019B     		ldr	r3, [sp, #4]
 2681 002e 5B68     		ldr	r3, [r3, #4]
 2682 0030 9B68     		ldr	r3, [r3, #8]
 2683 0032 002B     		cmp	r3, #0
 2684 0034 0AD0     		beq	.L201
 2685              		.loc 5 649 0 discriminator 1
 2686 0036 019B     		ldr	r3, [sp, #4]
 2687 0038 5B68     		ldr	r3, [r3, #4]
 2688 003a 9B68     		ldr	r3, [r3, #8]
 2689 003c 0198     		ldr	r0, [sp, #4]
 2690 003e 9847     		blx	r3
 2691              	.LVL3:
 2692 0040 0346     		mov	r3, r0
 2693 0042 83F00103 		eor	r3, r3, #1
 2694 0046 DBB2     		uxtb	r3, r3
 2695              		.loc 5 648 0 discriminator 1
 2696 0048 002B     		cmp	r3, #0
 2697 004a 27D0     		beq	.L202
 2698              	.L201:
 2699              		.loc 5 654 0
 2700 004c 019B     		ldr	r3, [sp, #4]
 2701 004e 93F84430 		ldrb	r3, [r3, #68]	@ zero_extendqisi2
 2702 0052 03F06003 		and	r3, r3, #96
 2703 0056 002B     		cmp	r3, #0
 2704 0058 08D1     		bne	.L203
 2705              		.loc 5 655 0 discriminator 1
 2706 005a 0198     		ldr	r0, [sp, #4]
 2707 005c FFF7FEFF 		bl	default_handler
 2708 0060 0346     		mov	r3, r0
 2709 0062 83F00103 		eor	r3, r3, #1
 2710 0066 DBB2     		uxtb	r3, r3
 2711              		.loc 5 654 0 discriminator 1
 2712 0068 002B     		cmp	r3, #0
 2713 006a 17D0     		beq	.L202
 2714              	.L203:
 2715              		.loc 5 660 0
 2716 006c 0021     		movs	r1, #0
 2717 006e 0198     		ldr	r0, [sp, #4]
 2718 0070 FFF7FEFF 		bl	usb_lld_stall_in
 2719              		.loc 5 661 0
 2720 0074 0021     		movs	r1, #0
 2721 0076 0198     		ldr	r0, [sp, #4]
 2722 0078 FFF7FEFF 		bl	usb_lld_stall_out
 2723              		.loc 5 662 0
 2724 007c 019B     		ldr	r3, [sp, #4]
 2725 007e 5B68     		ldr	r3, [r3, #4]
 2726 0080 1B68     		ldr	r3, [r3]
 2727 0082 002B     		cmp	r3, #0
 2728 0084 05D0     		beq	.L204
 2729              		.loc 5 662 0 is_stmt 0 discriminator 1
 2730 0086 019B     		ldr	r3, [sp, #4]
 2731 0088 5B68     		ldr	r3, [r3, #4]
 2732 008a 1B68     		ldr	r3, [r3]
 2733 008c 0521     		movs	r1, #5
 2734 008e 0198     		ldr	r0, [sp, #4]
 2735 0090 9847     		blx	r3
 2736              	.LVL4:
ARM GAS  C:\Users\PCHAUT~1\AppData\Local\Temp\cc7u0cQS.s 			page 49


 2737              	.L204:
 2738              		.loc 5 663 0 is_stmt 1
 2739 0092 019B     		ldr	r3, [sp, #4]
 2740 0094 0622     		movs	r2, #6
 2741 0096 83F83420 		strb	r2, [r3, #52]
 2742              		.loc 5 664 0
 2743 009a 6BE0     		b	.L200
 2744              	.L202:
 2745              		.loc 5 676 0
 2746 009c 019B     		ldr	r3, [sp, #4]
 2747 009e 4A33     		adds	r3, r3, #74
 2748 00a0 1846     		mov	r0, r3
 2749 00a2 FFF7FEFF 		bl	get_hword
 2750 00a6 0346     		mov	r3, r0
 2751 00a8 0293     		str	r3, [sp, #8]
 2752              		.loc 5 678 0
 2753 00aa 019B     		ldr	r3, [sp, #4]
 2754 00ac DB6B     		ldr	r3, [r3, #60]
 2755 00ae 029A     		ldr	r2, [sp, #8]
 2756 00b0 9A42     		cmp	r2, r3
 2757 00b2 02D2     		bcs	.L206
 2758              		.loc 5 679 0
 2759 00b4 019B     		ldr	r3, [sp, #4]
 2760 00b6 029A     		ldr	r2, [sp, #8]
 2761 00b8 DA63     		str	r2, [r3, #60]
 2762              	.L206:
 2763              		.loc 5 681 0
 2764 00ba 019B     		ldr	r3, [sp, #4]
 2765 00bc 93F84430 		ldrb	r3, [r3, #68]	@ zero_extendqisi2
 2766 00c0 5BB2     		sxtb	r3, r3
 2767 00c2 002B     		cmp	r3, #0
 2768 00c4 2BDA     		bge	.L207
 2769              		.loc 5 683 0
 2770 00c6 019B     		ldr	r3, [sp, #4]
 2771 00c8 DB6B     		ldr	r3, [r3, #60]
 2772 00ca 002B     		cmp	r3, #0
 2773 00cc 14D0     		beq	.L208
 2774              		.loc 5 685 0
 2775 00ce 019B     		ldr	r3, [sp, #4]
 2776 00d0 0122     		movs	r2, #1
 2777 00d2 83F83420 		strb	r2, [r3, #52]
 2778              		.loc 5 686 0
 2779 00d6 019B     		ldr	r3, [sp, #4]
 2780 00d8 9A6B     		ldr	r2, [r3, #56]
 2781 00da 019B     		ldr	r3, [sp, #4]
 2782 00dc DB6B     		ldr	r3, [r3, #60]
 2783 00de 0021     		movs	r1, #0
 2784 00e0 0198     		ldr	r0, [sp, #4]
 2785 00e2 FFF7FEFF 		bl	usbPrepareTransmit
 2786              		.loc 5 687 0
 2787 00e6 FFF7FEFF 		bl	osalSysLockFromISR
 2788              		.loc 5 688 0
 2789 00ea 0021     		movs	r1, #0
 2790 00ec 0198     		ldr	r0, [sp, #4]
 2791 00ee FFF7FEFF 		bl	usbStartTransmitI
 2792              		.loc 5 689 0
 2793 00f2 FFF7FEFF 		bl	osalSysUnlockFromISR
ARM GAS  C:\Users\PCHAUT~1\AppData\Local\Temp\cc7u0cQS.s 			page 50


 2794 00f6 3DE0     		b	.L200
 2795              	.L208:
 2796              		.loc 5 694 0
 2797 00f8 019B     		ldr	r3, [sp, #4]
 2798 00fa 0322     		movs	r2, #3
 2799 00fc 83F83420 		strb	r2, [r3, #52]
 2800              		.loc 5 696 0
 2801 0100 0023     		movs	r3, #0
 2802 0102 0022     		movs	r2, #0
 2803 0104 0021     		movs	r1, #0
 2804 0106 0198     		ldr	r0, [sp, #4]
 2805 0108 FFF7FEFF 		bl	usbPrepareReceive
 2806              		.loc 5 697 0
 2807 010c FFF7FEFF 		bl	osalSysLockFromISR
 2808              		.loc 5 698 0
 2809 0110 0021     		movs	r1, #0
 2810 0112 0198     		ldr	r0, [sp, #4]
 2811 0114 FFF7FEFF 		bl	usbStartReceiveI
 2812              		.loc 5 699 0
 2813 0118 FFF7FEFF 		bl	osalSysUnlockFromISR
 2814 011c 2AE0     		b	.L200
 2815              	.L207:
 2816              		.loc 5 707 0
 2817 011e 019B     		ldr	r3, [sp, #4]
 2818 0120 DB6B     		ldr	r3, [r3, #60]
 2819 0122 002B     		cmp	r3, #0
 2820 0124 14D0     		beq	.L210
 2821              		.loc 5 709 0
 2822 0126 019B     		ldr	r3, [sp, #4]
 2823 0128 0422     		movs	r2, #4
 2824 012a 83F83420 		strb	r2, [r3, #52]
 2825              		.loc 5 710 0
 2826 012e 019B     		ldr	r3, [sp, #4]
 2827 0130 9A6B     		ldr	r2, [r3, #56]
 2828 0132 019B     		ldr	r3, [sp, #4]
 2829 0134 DB6B     		ldr	r3, [r3, #60]
 2830 0136 0021     		movs	r1, #0
 2831 0138 0198     		ldr	r0, [sp, #4]
 2832 013a FFF7FEFF 		bl	usbPrepareReceive
 2833              		.loc 5 711 0
 2834 013e FFF7FEFF 		bl	osalSysLockFromISR
 2835              		.loc 5 712 0
 2836 0142 0021     		movs	r1, #0
 2837 0144 0198     		ldr	r0, [sp, #4]
 2838 0146 FFF7FEFF 		bl	usbStartReceiveI
 2839              		.loc 5 713 0
 2840 014a FFF7FEFF 		bl	osalSysUnlockFromISR
 2841 014e 11E0     		b	.L200
 2842              	.L210:
 2843              		.loc 5 718 0
 2844 0150 019B     		ldr	r3, [sp, #4]
 2845 0152 0522     		movs	r2, #5
 2846 0154 83F83420 		strb	r2, [r3, #52]
 2847              		.loc 5 720 0
 2848 0158 0023     		movs	r3, #0
 2849 015a 0022     		movs	r2, #0
 2850 015c 0021     		movs	r1, #0
ARM GAS  C:\Users\PCHAUT~1\AppData\Local\Temp\cc7u0cQS.s 			page 51


 2851 015e 0198     		ldr	r0, [sp, #4]
 2852 0160 FFF7FEFF 		bl	usbPrepareTransmit
 2853              		.loc 5 721 0
 2854 0164 FFF7FEFF 		bl	osalSysLockFromISR
 2855              		.loc 5 722 0
 2856 0168 0021     		movs	r1, #0
 2857 016a 0198     		ldr	r0, [sp, #4]
 2858 016c FFF7FEFF 		bl	usbStartTransmitI
 2859              		.loc 5 723 0
 2860 0170 FFF7FEFF 		bl	osalSysUnlockFromISR
 2861              	.L200:
 2862              		.loc 5 729 0
 2863 0174 044B     		ldr	r3, .L212
 2864 0176 039A     		ldr	r2, [sp, #12]
 2865 0178 1B68     		ldr	r3, [r3]
 2866 017a 9A42     		cmp	r2, r3
 2867 017c 01D0     		beq	.L211
 2868 017e FFF7FEFF 		bl	__stack_chk_fail
 2869              	.L211:
 2870 0182 05B0     		add	sp, sp, #20
 2871              		.cfi_def_cfa_offset 4
 2872              		@ sp needed
 2873 0184 5DF804FB 		ldr	pc, [sp], #4
 2874              	.L213:
 2875              		.align	2
 2876              	.L212:
 2877 0188 00000000 		.word	__stack_chk_guard
 2878              		.cfi_endproc
 2879              	.LFE274:
 2880              		.size	_usb_ep0setup, .-_usb_ep0setup
 2881              		.section	.text._usb_ep0in,"ax",%progbits
 2882              		.align	1
 2883              		.p2align 4,,15
 2884              		.global	_usb_ep0in
 2885              		.syntax unified
 2886              		.thumb
 2887              		.thumb_func
 2888              		.fpu fpv4-sp-d16
 2889              		.type	_usb_ep0in, %function
 2890              	_usb_ep0in:
 2891              	.LFB275:
 2892              		.loc 5 741 0
 2893              		.cfi_startproc
 2894              		@ args = 0, pretend = 0, frame = 16
 2895              		@ frame_needed = 0, uses_anonymous_args = 0
 2896 0000 00B5     		push	{lr}
 2897              		.cfi_def_cfa_offset 4
 2898              		.cfi_offset 14, -4
 2899 0002 85B0     		sub	sp, sp, #20
 2900              		.cfi_def_cfa_offset 24
 2901 0004 0190     		str	r0, [sp, #4]
 2902 0006 0B46     		mov	r3, r1
 2903 0008 8DF80330 		strb	r3, [sp, #3]
 2904              		.loc 5 741 0
 2905 000c 464B     		ldr	r3, .L228
 2906 000e 1B68     		ldr	r3, [r3]
 2907 0010 0393     		str	r3, [sp, #12]
ARM GAS  C:\Users\PCHAUT~1\AppData\Local\Temp\cc7u0cQS.s 			page 52


 2908              		.loc 5 745 0
 2909 0012 019B     		ldr	r3, [sp, #4]
 2910 0014 93F83430 		ldrb	r3, [r3, #52]	@ zero_extendqisi2
 2911 0018 062B     		cmp	r3, #6
 2912 001a 77D8     		bhi	.L226
 2913 001c 01A2     		adr	r2, .L217
 2914 001e 52F823F0 		ldr	pc, [r2, r3, lsl #2]
 2915 0022 00BF     		.p2align 2
 2916              	.L217:
 2917 0024 D7000000 		.word	.L227+1
 2918 0028 41000000 		.word	.L218+1
 2919 002c 97000000 		.word	.L219+1
 2920 0030 D7000000 		.word	.L227+1
 2921 0034 D7000000 		.word	.L227+1
 2922 0038 BD000000 		.word	.L220+1
 2923 003c DD000000 		.word	.L221+1
 2924              		.p2align 1
 2925              	.L218:
 2926              		.loc 5 747 0
 2927 0040 019B     		ldr	r3, [sp, #4]
 2928 0042 4A33     		adds	r3, r3, #74
 2929 0044 1846     		mov	r0, r3
 2930 0046 FFF7FEFF 		bl	get_hword
 2931 004a 0346     		mov	r3, r0
 2932 004c 0293     		str	r3, [sp, #8]
 2933              		.loc 5 751 0
 2934 004e 019B     		ldr	r3, [sp, #4]
 2935 0050 DB6B     		ldr	r3, [r3, #60]
 2936 0052 029A     		ldr	r2, [sp, #8]
 2937 0054 9A42     		cmp	r2, r3
 2938 0056 1ED9     		bls	.L219
 2939              		.loc 5 752 0 discriminator 1
 2940 0058 019B     		ldr	r3, [sp, #4]
 2941 005a DB6B     		ldr	r3, [r3, #60]
 2942 005c 019A     		ldr	r2, [sp, #4]
 2943 005e D268     		ldr	r2, [r2, #12]
 2944 0060 128A     		ldrh	r2, [r2, #16]
 2945 0062 B3FBF2F1 		udiv	r1, r3, r2
 2946 0066 02FB01F2 		mul	r2, r2, r1
 2947 006a 9B1A     		subs	r3, r3, r2
 2948              		.loc 5 751 0 discriminator 1
 2949 006c 002B     		cmp	r3, #0
 2950 006e 12D1     		bne	.L219
 2951              		.loc 5 753 0
 2952 0070 0023     		movs	r3, #0
 2953 0072 0022     		movs	r2, #0
 2954 0074 0021     		movs	r1, #0
 2955 0076 0198     		ldr	r0, [sp, #4]
 2956 0078 FFF7FEFF 		bl	usbPrepareTransmit
 2957              		.loc 5 754 0
 2958 007c FFF7FEFF 		bl	osalSysLockFromISR
 2959              		.loc 5 755 0
 2960 0080 0021     		movs	r1, #0
 2961 0082 0198     		ldr	r0, [sp, #4]
 2962 0084 FFF7FEFF 		bl	usbStartTransmitI
 2963              		.loc 5 756 0
 2964 0088 FFF7FEFF 		bl	osalSysUnlockFromISR
ARM GAS  C:\Users\PCHAUT~1\AppData\Local\Temp\cc7u0cQS.s 			page 53


 2965              		.loc 5 757 0
 2966 008c 019B     		ldr	r3, [sp, #4]
 2967 008e 0222     		movs	r2, #2
 2968 0090 83F83420 		strb	r2, [r3, #52]
 2969              		.loc 5 758 0
 2970 0094 3DE0     		b	.L214
 2971              	.L219:
 2972              		.loc 5 763 0
 2973 0096 019B     		ldr	r3, [sp, #4]
 2974 0098 0322     		movs	r2, #3
 2975 009a 83F83420 		strb	r2, [r3, #52]
 2976              		.loc 5 765 0
 2977 009e 0023     		movs	r3, #0
 2978 00a0 0022     		movs	r2, #0
 2979 00a2 0021     		movs	r1, #0
 2980 00a4 0198     		ldr	r0, [sp, #4]
 2981 00a6 FFF7FEFF 		bl	usbPrepareReceive
 2982              		.loc 5 766 0
 2983 00aa FFF7FEFF 		bl	osalSysLockFromISR
 2984              		.loc 5 767 0
 2985 00ae 0021     		movs	r1, #0
 2986 00b0 0198     		ldr	r0, [sp, #4]
 2987 00b2 FFF7FEFF 		bl	usbStartReceiveI
 2988              		.loc 5 768 0
 2989 00b6 FFF7FEFF 		bl	osalSysUnlockFromISR
 2990              		.loc 5 772 0
 2991 00ba 2AE0     		b	.L214
 2992              	.L220:
 2993              		.loc 5 775 0
 2994 00bc 019B     		ldr	r3, [sp, #4]
 2995 00be 1B6C     		ldr	r3, [r3, #64]
 2996 00c0 002B     		cmp	r3, #0
 2997 00c2 03D0     		beq	.L223
 2998              		.loc 5 776 0
 2999 00c4 019B     		ldr	r3, [sp, #4]
 3000 00c6 1B6C     		ldr	r3, [r3, #64]
 3001 00c8 0198     		ldr	r0, [sp, #4]
 3002 00ca 9847     		blx	r3
 3003              	.LVL5:
 3004              	.L223:
 3005              		.loc 5 778 0
 3006 00cc 019B     		ldr	r3, [sp, #4]
 3007 00ce 0022     		movs	r2, #0
 3008 00d0 83F83420 		strb	r2, [r3, #52]
 3009              		.loc 5 779 0
 3010 00d4 1DE0     		b	.L214
 3011              	.L227:
 3012              		.loc 5 784 0 discriminator 2
 3013 00d6 1548     		ldr	r0, .L228+4
 3014 00d8 FFF7FEFF 		bl	chSysHalt
 3015              	.L221:
 3016              		.loc 5 790 0
 3017 00dc 0021     		movs	r1, #0
 3018 00de 0198     		ldr	r0, [sp, #4]
 3019 00e0 FFF7FEFF 		bl	usb_lld_stall_in
 3020              		.loc 5 791 0
 3021 00e4 0021     		movs	r1, #0
ARM GAS  C:\Users\PCHAUT~1\AppData\Local\Temp\cc7u0cQS.s 			page 54


 3022 00e6 0198     		ldr	r0, [sp, #4]
 3023 00e8 FFF7FEFF 		bl	usb_lld_stall_out
 3024              		.loc 5 792 0
 3025 00ec 019B     		ldr	r3, [sp, #4]
 3026 00ee 5B68     		ldr	r3, [r3, #4]
 3027 00f0 1B68     		ldr	r3, [r3]
 3028 00f2 002B     		cmp	r3, #0
 3029 00f4 05D0     		beq	.L224
 3030              		.loc 5 792 0 is_stmt 0 discriminator 1
 3031 00f6 019B     		ldr	r3, [sp, #4]
 3032 00f8 5B68     		ldr	r3, [r3, #4]
 3033 00fa 1B68     		ldr	r3, [r3]
 3034 00fc 0521     		movs	r1, #5
 3035 00fe 0198     		ldr	r0, [sp, #4]
 3036 0100 9847     		blx	r3
 3037              	.LVL6:
 3038              	.L224:
 3039              		.loc 5 793 0 is_stmt 1
 3040 0102 019B     		ldr	r3, [sp, #4]
 3041 0104 0622     		movs	r2, #6
 3042 0106 83F83420 		strb	r2, [r3, #52]
 3043              		.loc 5 794 0
 3044 010a 02E0     		b	.L214
 3045              	.L226:
 3046              		.loc 5 796 0 discriminator 2
 3047 010c 0748     		ldr	r0, .L228+4
 3048 010e FFF7FEFF 		bl	chSysHalt
 3049              	.L214:
 3050              		.loc 5 798 0
 3051 0112 054B     		ldr	r3, .L228
 3052 0114 039A     		ldr	r2, [sp, #12]
 3053 0116 1B68     		ldr	r3, [r3]
 3054 0118 9A42     		cmp	r2, r3
 3055 011a 01D0     		beq	.L225
 3056 011c FFF7FEFF 		bl	__stack_chk_fail
 3057              	.L225:
 3058 0120 05B0     		add	sp, sp, #20
 3059              		.cfi_def_cfa_offset 4
 3060              		@ sp needed
 3061 0122 5DF804FB 		ldr	pc, [sp], #4
 3062              	.L229:
 3063 0126 00BF     		.align	2
 3064              	.L228:
 3065 0128 00000000 		.word	__stack_chk_guard
 3066 012c 00000000 		.word	__func__.10387
 3067              		.cfi_endproc
 3068              	.LFE275:
 3069              		.size	_usb_ep0in, .-_usb_ep0in
 3070              		.section	.text._usb_ep0out,"ax",%progbits
 3071              		.align	1
 3072              		.p2align 4,,15
 3073              		.global	_usb_ep0out
 3074              		.syntax unified
 3075              		.thumb
 3076              		.thumb_func
 3077              		.fpu fpv4-sp-d16
 3078              		.type	_usb_ep0out, %function
ARM GAS  C:\Users\PCHAUT~1\AppData\Local\Temp\cc7u0cQS.s 			page 55


 3079              	_usb_ep0out:
 3080              	.LFB276:
 3081              		.loc 5 810 0
 3082              		.cfi_startproc
 3083              		@ args = 0, pretend = 0, frame = 16
 3084              		@ frame_needed = 0, uses_anonymous_args = 0
 3085 0000 00B5     		push	{lr}
 3086              		.cfi_def_cfa_offset 4
 3087              		.cfi_offset 14, -4
 3088 0002 85B0     		sub	sp, sp, #20
 3089              		.cfi_def_cfa_offset 24
 3090 0004 0190     		str	r0, [sp, #4]
 3091 0006 0B46     		mov	r3, r1
 3092 0008 8DF80330 		strb	r3, [sp, #3]
 3093              		.loc 5 810 0
 3094 000c 344B     		ldr	r3, .L245
 3095 000e 1B68     		ldr	r3, [r3]
 3096 0010 0393     		str	r3, [sp, #12]
 3097              		.loc 5 813 0
 3098 0012 019B     		ldr	r3, [sp, #4]
 3099 0014 93F83430 		ldrb	r3, [r3, #52]	@ zero_extendqisi2
 3100 0018 062B     		cmp	r3, #6
 3101 001a 52D8     		bhi	.L242
 3102 001c 01A2     		adr	r2, .L233
 3103 001e 52F823F0 		ldr	pc, [r2, r3, lsl #2]
 3104 0022 00BF     		.p2align 2
 3105              	.L233:
 3106 0024 8D000000 		.word	.L243+1
 3107 0028 8D000000 		.word	.L243+1
 3108 002c 8D000000 		.word	.L243+1
 3109 0030 67000000 		.word	.L234+1
 3110 0034 41000000 		.word	.L235+1
 3111 0038 8D000000 		.word	.L243+1
 3112 003c 93000000 		.word	.L236+1
 3113              		.p2align 1
 3114              	.L235:
 3115              		.loc 5 816 0
 3116 0040 019B     		ldr	r3, [sp, #4]
 3117 0042 0522     		movs	r2, #5
 3118 0044 83F83420 		strb	r2, [r3, #52]
 3119              		.loc 5 818 0
 3120 0048 0023     		movs	r3, #0
 3121 004a 0022     		movs	r2, #0
 3122 004c 0021     		movs	r1, #0
 3123 004e 0198     		ldr	r0, [sp, #4]
 3124 0050 FFF7FEFF 		bl	usbPrepareTransmit
 3125              		.loc 5 819 0
 3126 0054 FFF7FEFF 		bl	osalSysLockFromISR
 3127              		.loc 5 820 0
 3128 0058 0021     		movs	r1, #0
 3129 005a 0198     		ldr	r0, [sp, #4]
 3130 005c FFF7FEFF 		bl	usbStartTransmitI
 3131              		.loc 5 821 0
 3132 0060 FFF7FEFF 		bl	osalSysUnlockFromISR
 3133              		.loc 5 825 0
 3134 0064 32E0     		b	.L230
 3135              	.L234:
ARM GAS  C:\Users\PCHAUT~1\AppData\Local\Temp\cc7u0cQS.s 			page 56


 3136              		.loc 5 830 0
 3137 0066 019B     		ldr	r3, [sp, #4]
 3138 0068 DB68     		ldr	r3, [r3, #12]
 3139 006a 9B69     		ldr	r3, [r3, #24]
 3140 006c 9B68     		ldr	r3, [r3, #8]
 3141 006e 002B     		cmp	r3, #0
 3142 0070 2BD1     		bne	.L244
 3143              		.loc 5 834 0
 3144 0072 019B     		ldr	r3, [sp, #4]
 3145 0074 1B6C     		ldr	r3, [r3, #64]
 3146 0076 002B     		cmp	r3, #0
 3147 0078 03D0     		beq	.L239
 3148              		.loc 5 835 0
 3149 007a 019B     		ldr	r3, [sp, #4]
 3150 007c 1B6C     		ldr	r3, [r3, #64]
 3151 007e 0198     		ldr	r0, [sp, #4]
 3152 0080 9847     		blx	r3
 3153              	.LVL7:
 3154              	.L239:
 3155              		.loc 5 837 0
 3156 0082 019B     		ldr	r3, [sp, #4]
 3157 0084 0022     		movs	r2, #0
 3158 0086 83F83420 		strb	r2, [r3, #52]
 3159              		.loc 5 838 0
 3160 008a 1FE0     		b	.L230
 3161              	.L243:
 3162              		.loc 5 844 0 discriminator 2
 3163 008c 1548     		ldr	r0, .L245+4
 3164 008e FFF7FEFF 		bl	chSysHalt
 3165              	.L236:
 3166              		.loc 5 850 0
 3167 0092 0021     		movs	r1, #0
 3168 0094 0198     		ldr	r0, [sp, #4]
 3169 0096 FFF7FEFF 		bl	usb_lld_stall_in
 3170              		.loc 5 851 0
 3171 009a 0021     		movs	r1, #0
 3172 009c 0198     		ldr	r0, [sp, #4]
 3173 009e FFF7FEFF 		bl	usb_lld_stall_out
 3174              		.loc 5 852 0
 3175 00a2 019B     		ldr	r3, [sp, #4]
 3176 00a4 5B68     		ldr	r3, [r3, #4]
 3177 00a6 1B68     		ldr	r3, [r3]
 3178 00a8 002B     		cmp	r3, #0
 3179 00aa 05D0     		beq	.L240
 3180              		.loc 5 852 0 is_stmt 0 discriminator 1
 3181 00ac 019B     		ldr	r3, [sp, #4]
 3182 00ae 5B68     		ldr	r3, [r3, #4]
 3183 00b0 1B68     		ldr	r3, [r3]
 3184 00b2 0521     		movs	r1, #5
 3185 00b4 0198     		ldr	r0, [sp, #4]
 3186 00b6 9847     		blx	r3
 3187              	.LVL8:
 3188              	.L240:
 3189              		.loc 5 853 0 is_stmt 1
 3190 00b8 019B     		ldr	r3, [sp, #4]
 3191 00ba 0622     		movs	r2, #6
 3192 00bc 83F83420 		strb	r2, [r3, #52]
ARM GAS  C:\Users\PCHAUT~1\AppData\Local\Temp\cc7u0cQS.s 			page 57


 3193              		.loc 5 854 0
 3194 00c0 04E0     		b	.L230
 3195              	.L242:
 3196              		.loc 5 856 0 discriminator 2
 3197 00c2 0848     		ldr	r0, .L245+4
 3198 00c4 FFF7FEFF 		bl	chSysHalt
 3199 00c8 00E0     		b	.L230
 3200              	.L244:
 3201              		.loc 5 831 0
 3202 00ca 00BF     		nop
 3203              	.L230:
 3204              		.loc 5 858 0
 3205 00cc 044B     		ldr	r3, .L245
 3206 00ce 039A     		ldr	r2, [sp, #12]
 3207 00d0 1B68     		ldr	r3, [r3]
 3208 00d2 9A42     		cmp	r2, r3
 3209 00d4 01D0     		beq	.L241
 3210 00d6 FFF7FEFF 		bl	__stack_chk_fail
 3211              	.L241:
 3212 00da 05B0     		add	sp, sp, #20
 3213              		.cfi_def_cfa_offset 4
 3214              		@ sp needed
 3215 00dc 5DF804FB 		ldr	pc, [sp], #4
 3216              	.L246:
 3217              		.align	2
 3218              	.L245:
 3219 00e0 00000000 		.word	__stack_chk_guard
 3220 00e4 00000000 		.word	__func__.10401
 3221              		.cfi_endproc
 3222              	.LFE276:
 3223              		.size	_usb_ep0out, .-_usb_ep0out
 3224              		.section	.rodata.__func__.10294,"a",%progbits
 3225              		.align	2
 3226              		.type	__func__.10294, %object
 3227              		.size	__func__.10294, 9
 3228              	__func__.10294:
 3229 0000 75736253 		.ascii	"usbStart\000"
 3229      74617274 
 3229      00
 3230              		.section	.rodata.__func__.7554,"a",%progbits
 3231              		.align	2
 3232              		.type	__func__.7554, %object
 3233              		.size	__func__.7554, 12
 3234              	__func__.7554:
 3235 0000 63685379 		.ascii	"chSysUnlock\000"
 3235      73556E6C 
 3235      6F636B00 
 3236              		.section	.rodata.__func__.10301,"a",%progbits
 3237              		.align	2
 3238              		.type	__func__.10301, %object
 3239              		.size	__func__.10301, 8
 3240              	__func__.10301:
 3241 0000 75736253 		.ascii	"usbStop\000"
 3241      746F7000 
 3242              		.section	.rodata.__func__.10307,"a",%progbits
 3243              		.align	2
 3244              		.type	__func__.10307, %object
ARM GAS  C:\Users\PCHAUT~1\AppData\Local\Temp\cc7u0cQS.s 			page 58


 3245              		.size	__func__.10307, 17
 3246              	__func__.10307:
 3247 0000 75736249 		.ascii	"usbInitEndpointI\000"
 3247      6E697445 
 3247      6E64706F 
 3247      696E7449 
 3247      00
 3248              		.section	.rodata.__func__.10312,"a",%progbits
 3249              		.align	2
 3250              		.type	__func__.10312, %object
 3251              		.size	__func__.10312, 21
 3252              	__func__.10312:
 3253 0000 75736244 		.ascii	"usbDisableEndpointsI\000"
 3253      69736162 
 3253      6C65456E 
 3253      64706F69 
 3253      6E747349 
 3254              		.section	.rodata.__func__.10348,"a",%progbits
 3255              		.align	2
 3256              		.type	__func__.10348, %object
 3257              		.size	__func__.10348, 17
 3258              	__func__.10348:
 3259 0000 75736253 		.ascii	"usbStartReceiveI\000"
 3259      74617274 
 3259      52656365 
 3259      69766549 
 3259      00
 3260              		.section	.rodata.__func__.10353,"a",%progbits
 3261              		.align	2
 3262              		.type	__func__.10353, %object
 3263              		.size	__func__.10353, 18
 3264              	__func__.10353:
 3265 0000 75736253 		.ascii	"usbStartTransmitI\000"
 3265      74617274 
 3265      5472616E 
 3265      736D6974 
 3265      4900
 3266              		.section	.rodata.__func__.10358,"a",%progbits
 3267              		.align	2
 3268              		.type	__func__.10358, %object
 3269              		.size	__func__.10358, 17
 3270              	__func__.10358:
 3271 0000 75736253 		.ascii	"usbStallReceiveI\000"
 3271      74616C6C 
 3271      52656365 
 3271      69766549 
 3271      00
 3272              		.section	.rodata.__func__.10363,"a",%progbits
 3273              		.align	2
 3274              		.type	__func__.10363, %object
 3275              		.size	__func__.10363, 18
 3276              	__func__.10363:
 3277 0000 75736253 		.ascii	"usbStallTransmitI\000"
 3277      74616C6C 
 3277      5472616E 
 3277      736D6974 
 3277      4900
ARM GAS  C:\Users\PCHAUT~1\AppData\Local\Temp\cc7u0cQS.s 			page 59


 3278              		.section	.rodata.__func__.10387,"a",%progbits
 3279              		.align	2
 3280              		.type	__func__.10387, %object
 3281              		.size	__func__.10387, 11
 3282              	__func__.10387:
 3283 0000 5F757362 		.ascii	"_usb_ep0in\000"
 3283      5F657030 
 3283      696E00
 3284              		.section	.rodata.__func__.10401,"a",%progbits
 3285              		.align	2
 3286              		.type	__func__.10401, %object
 3287              		.size	__func__.10401, 12
 3288              	__func__.10401:
 3289 0000 5F757362 		.ascii	"_usb_ep0out\000"
 3289      5F657030 
 3289      6F757400 
 3290              		.text
 3291              	.Letext0:
 3292              		.file 6 "c:\\users\\pchautems\\documents\\robotiquetp\\eclipse_e-puck2\\tools\\gcc-arm-none-eabi-7
 3293              		.file 7 "c:\\users\\pchautems\\documents\\robotiquetp\\eclipse_e-puck2\\tools\\gcc-arm-none-eabi-7
 3294              		.file 8 "c:\\users\\pchautems\\documents\\robotiquetp\\eclipse_e-puck2\\tools\\gcc-arm-none-eabi-7
 3295              		.file 9 "c:\\users\\pchautems\\documents\\robotiquetp\\eclipse_e-puck2\\tools\\gcc-arm-none-eabi-7
 3296              		.file 10 "c:\\users\\pchautems\\documents\\robotiquetp\\eclipse_e-puck2\\tools\\gcc-arm-none-eabi-
 3297              		.file 11 "c:\\users\\pchautems\\documents\\robotiquetp\\eclipse_e-puck2\\tools\\gcc-arm-none-eabi-
 3298              		.file 12 "../lib/e-puck2_main-processor/ChibiOS//os/rt/ports/ARMCMx/compilers/GCC/chtypes.h"
 3299              		.file 13 "../lib/e-puck2_main-processor/ChibiOS//os/rt/include/chsystypes.h"
 3300              		.file 14 "../lib/e-puck2_main-processor/ChibiOS//os/rt/include/chschd.h"
 3301              		.file 15 "../lib/e-puck2_main-processor/ChibiOS//os/ext/CMSIS/include/core_cm4.h"
 3302              		.file 16 "../lib/e-puck2_main-processor/ChibiOS//os/ext/CMSIS/ST/system_stm32f4xx.h"
 3303              		.file 17 "../lib/e-puck2_main-processor/ChibiOS//os/ext/CMSIS/ST/stm32f407xx.h"
 3304              		.file 18 "../lib/e-puck2_main-processor/ChibiOS//os/rt/ports/ARMCMx/chcore.h"
 3305              		.file 19 "../lib/e-puck2_main-processor/ChibiOS//os/rt/include/chdebug.h"
 3306              		.file 20 "../lib/e-puck2_main-processor/ChibiOS//os/rt/include/chtm.h"
 3307              		.file 21 "../lib/e-puck2_main-processor/ChibiOS//os/rt/include/chstats.h"
 3308              		.file 22 "../lib/e-puck2_main-processor/ChibiOS//os/rt/include/chsem.h"
 3309              		.file 23 "../lib/e-puck2_main-processor/ChibiOS//os/rt/include/chmtx.h"
 3310              		.file 24 "../lib/e-puck2_main-processor/ChibiOS//os/rt/include/chregistry.h"
 3311              		.file 25 "../lib/e-puck2_main-processor/ChibiOS//os/rt/include/chevents.h"
 3312              		.file 26 "../lib/e-puck2_main-processor/ChibiOS//os/rt/include/chqueues.h"
 3313              		.file 27 "../lib/e-puck2_main-processor/ChibiOS//os/hal/ports/STM32/STM32F4xx/stm32_dma.h"
 3314              		.file 28 "../lib/e-puck2_main-processor/ChibiOS//os/hal/include/hal_ioblock.h"
 3315              		.file 29 "../lib/e-puck2_main-processor/ChibiOS//os/hal/ports/STM32/LLD/GPIOv2/pal_lld.h"
 3316              		.file 30 "../lib/e-puck2_main-processor/ChibiOS//os/hal/include/adc.h"
 3317              		.file 31 "../lib/e-puck2_main-processor/ChibiOS//os/hal/ports/STM32/STM32F4xx/adc_lld.h"
 3318              		.file 32 "../lib/e-puck2_main-processor/ChibiOS//os/hal/include/can.h"
 3319              		.file 33 "../lib/e-puck2_main-processor/ChibiOS//os/hal/ports/STM32/LLD/can_lld.h"
 3320              		.file 34 "../lib/e-puck2_main-processor/ChibiOS//os/hal/include/dac.h"
 3321              		.file 35 "../lib/e-puck2_main-processor/ChibiOS//os/hal/ports/STM32/LLD/DACv1/dac_lld.h"
 3322              		.file 36 "../lib/e-puck2_main-processor/ChibiOS//os/hal/include/ext.h"
 3323              		.file 37 "../lib/e-puck2_main-processor/ChibiOS//os/hal/ports/STM32/LLD/ext_lld.h"
 3324              		.file 38 "../lib/e-puck2_main-processor/ChibiOS//os/hal/include/gpt.h"
 3325              		.file 39 "../lib/e-puck2_main-processor/ChibiOS//os/hal/ports/STM32/LLD/TIMv1/gpt_lld.h"
 3326              		.file 40 "../lib/e-puck2_main-processor/ChibiOS//os/hal/ports/STM32/LLD/TIMv1/stm32_tim.h"
 3327              		.file 41 "../lib/e-puck2_main-processor/ChibiOS//os/hal/include/i2c.h"
 3328              		.file 42 "../lib/e-puck2_main-processor/ChibiOS//os/hal/ports/STM32/LLD/I2Cv1/i2c_lld.h"
 3329              		.file 43 "../lib/e-puck2_main-processor/ChibiOS//os/hal/include/i2s.h"
 3330              		.file 44 "../lib/e-puck2_main-processor/ChibiOS//os/hal/ports/STM32/LLD/SPIv1/i2s_lld.h"
ARM GAS  C:\Users\PCHAUT~1\AppData\Local\Temp\cc7u0cQS.s 			page 60


 3331              		.file 45 "../lib/e-puck2_main-processor/ChibiOS//os/hal/include/pwm.h"
 3332              		.file 46 "../lib/e-puck2_main-processor/ChibiOS//os/hal/ports/STM32/LLD/TIMv1/pwm_lld.h"
 3333              		.file 47 "../lib/e-puck2_main-processor/ChibiOS//os/hal/include/serial.h"
 3334              		.file 48 "../lib/e-puck2_main-processor/ChibiOS//os/hal/ports/STM32/LLD/USARTv1/serial_lld.h"
 3335              		.file 49 "../lib/e-puck2_main-processor/ChibiOS//os/hal/include/sdc.h"
 3336              		.file 50 "../lib/e-puck2_main-processor/ChibiOS//os/hal/ports/STM32/LLD/sdc_lld.h"
 3337              		.file 51 "../lib/e-puck2_main-processor/ChibiOS//os/hal/include/spi.h"
 3338              		.file 52 "../lib/e-puck2_main-processor/ChibiOS//os/hal/ports/STM32/LLD/SPIv1/spi_lld.h"
 3339              		.file 53 "../lib/e-puck2_main-processor/ChibiOS//os/hal/include/usb.h"
 3340              		.file 54 "../lib/e-puck2_main-processor/ChibiOS//os/hal/ports/STM32/LLD/OTGv1/usb_lld.h"
 3341              		.file 55 "../lib/e-puck2_main-processor/ChibiOS//os/hal/ports/STM32/LLD/OTGv1/stm32_otg.h"