ARM GAS  C:\Users\PCHAUT~1\AppData\Local\Temp\ccJuO4y2.s 			page 1


   1              		.cpu cortex-m4
   2              		.eabi_attribute 27, 1
   3              		.eabi_attribute 28, 1
   4              		.eabi_attribute 20, 1
   5              		.eabi_attribute 21, 1
   6              		.eabi_attribute 23, 3
   7              		.eabi_attribute 24, 1
   8              		.eabi_attribute 25, 1
   9              		.eabi_attribute 26, 1
  10              		.eabi_attribute 30, 6
  11              		.eabi_attribute 34, 1
  12              		.eabi_attribute 18, 4
  13              		.file	"usb_lld.c"
  14              		.text
  15              	.Ltext0:
  16              		.cfi_sections	.debug_frame
  17              		.section	.text.port_lock,"ax",%progbits
  18              		.align	1
  19              		.p2align 4,,15
  20              		.syntax unified
  21              		.thumb
  22              		.thumb_func
  23              		.fpu fpv4-sp-d16
  24              		.type	port_lock, %function
  25              	port_lock:
  26              	.LFB116:
  27              		.file 1 "../lib/e-puck2_main-processor/ChibiOS//os/rt/ports/ARMCMx/chcore_v7m.h"
  28              		.loc 1 444 0
  29              		.cfi_startproc
  30              		@ args = 0, pretend = 0, frame = 8
  31              		@ frame_needed = 0, uses_anonymous_args = 0
  32 0000 00B5     		push	{lr}
  33              		.cfi_def_cfa_offset 4
  34              		.cfi_offset 14, -4
  35 0002 83B0     		sub	sp, sp, #12
  36              		.cfi_def_cfa_offset 16
  37              		.loc 1 444 0
  38 0004 094B     		ldr	r3, .L3
  39 0006 1B68     		ldr	r3, [r3]
  40 0008 0193     		str	r3, [sp, #4]
  41 000a 2023     		movs	r3, #32
  42 000c 0093     		str	r3, [sp]
  43              	.LBB6:
  44              	.LBB7:
  45              		.file 2 "../lib/e-puck2_main-processor/ChibiOS//os/ext/CMSIS/include/core_cmFunc.h"
  46              		.loc 2 546 0
  47 000e 009B     		ldr	r3, [sp]
  48              		.syntax unified
  49              	@ 546 "../lib/e-puck2_main-processor/ChibiOS//os/ext/CMSIS/include/core_cmFunc.h" 1
  50 0010 83F31188 		MSR basepri, r3
  51              	@ 0 "" 2
  52              		.thumb
  53              		.syntax unified
  54              	.LBE7:
  55              	.LBE6:
  56              		.loc 1 451 0
  57 0014 00BF     		nop
ARM GAS  C:\Users\PCHAUT~1\AppData\Local\Temp\ccJuO4y2.s 			page 2


  58 0016 054B     		ldr	r3, .L3
  59 0018 019A     		ldr	r2, [sp, #4]
  60 001a 1B68     		ldr	r3, [r3]
  61 001c 9A42     		cmp	r2, r3
  62 001e 01D0     		beq	.L2
  63 0020 FFF7FEFF 		bl	__stack_chk_fail
  64              	.L2:
  65 0024 03B0     		add	sp, sp, #12
  66              		.cfi_def_cfa_offset 4
  67              		@ sp needed
  68 0026 5DF804FB 		ldr	pc, [sp], #4
  69              	.L4:
  70 002a 00BF     		.align	2
  71              	.L3:
  72 002c 00000000 		.word	__stack_chk_guard
  73              		.cfi_endproc
  74              	.LFE116:
  75              		.size	port_lock, .-port_lock
  76              		.section	.text.port_unlock,"ax",%progbits
  77              		.align	1
  78              		.p2align 4,,15
  79              		.syntax unified
  80              		.thumb
  81              		.thumb_func
  82              		.fpu fpv4-sp-d16
  83              		.type	port_unlock, %function
  84              	port_unlock:
  85              	.LFB117:
  86              		.loc 1 458 0
  87              		.cfi_startproc
  88              		@ args = 0, pretend = 0, frame = 8
  89              		@ frame_needed = 0, uses_anonymous_args = 0
  90 0000 00B5     		push	{lr}
  91              		.cfi_def_cfa_offset 4
  92              		.cfi_offset 14, -4
  93 0002 83B0     		sub	sp, sp, #12
  94              		.cfi_def_cfa_offset 16
  95              		.loc 1 458 0
  96 0004 094B     		ldr	r3, .L7
  97 0006 1B68     		ldr	r3, [r3]
  98 0008 0193     		str	r3, [sp, #4]
  99 000a 0023     		movs	r3, #0
 100 000c 0093     		str	r3, [sp]
 101              	.LBB8:
 102              	.LBB9:
 103              		.loc 2 546 0
 104 000e 009B     		ldr	r3, [sp]
 105              		.syntax unified
 106              	@ 546 "../lib/e-puck2_main-processor/ChibiOS//os/ext/CMSIS/include/core_cmFunc.h" 1
 107 0010 83F31188 		MSR basepri, r3
 108              	@ 0 "" 2
 109              		.thumb
 110              		.syntax unified
 111              	.LBE9:
 112              	.LBE8:
 113              		.loc 1 465 0
 114 0014 00BF     		nop
ARM GAS  C:\Users\PCHAUT~1\AppData\Local\Temp\ccJuO4y2.s 			page 3


 115 0016 054B     		ldr	r3, .L7
 116 0018 019A     		ldr	r2, [sp, #4]
 117 001a 1B68     		ldr	r3, [r3]
 118 001c 9A42     		cmp	r2, r3
 119 001e 01D0     		beq	.L6
 120 0020 FFF7FEFF 		bl	__stack_chk_fail
 121              	.L6:
 122 0024 03B0     		add	sp, sp, #12
 123              		.cfi_def_cfa_offset 4
 124              		@ sp needed
 125 0026 5DF804FB 		ldr	pc, [sp], #4
 126              	.L8:
 127 002a 00BF     		.align	2
 128              	.L7:
 129 002c 00000000 		.word	__stack_chk_guard
 130              		.cfi_endproc
 131              	.LFE117:
 132              		.size	port_unlock, .-port_unlock
 133              		.section	.text.port_lock_from_isr,"ax",%progbits
 134              		.align	1
 135              		.p2align 4,,15
 136              		.syntax unified
 137              		.thumb
 138              		.thumb_func
 139              		.fpu fpv4-sp-d16
 140              		.type	port_lock_from_isr, %function
 141              	port_lock_from_isr:
 142              	.LFB118:
 143              		.loc 1 473 0
 144              		.cfi_startproc
 145              		@ args = 0, pretend = 0, frame = 8
 146              		@ frame_needed = 0, uses_anonymous_args = 0
 147 0000 00B5     		push	{lr}
 148              		.cfi_def_cfa_offset 4
 149              		.cfi_offset 14, -4
 150 0002 83B0     		sub	sp, sp, #12
 151              		.cfi_def_cfa_offset 16
 152              		.loc 1 473 0
 153 0004 074B     		ldr	r3, .L11
 154 0006 1B68     		ldr	r3, [r3]
 155 0008 0193     		str	r3, [sp, #4]
 156              		.loc 1 475 0
 157 000a FFF7FEFF 		bl	port_lock
 158              		.loc 1 476 0
 159 000e 00BF     		nop
 160 0010 044B     		ldr	r3, .L11
 161 0012 019A     		ldr	r2, [sp, #4]
 162 0014 1B68     		ldr	r3, [r3]
 163 0016 9A42     		cmp	r2, r3
 164 0018 01D0     		beq	.L10
 165 001a FFF7FEFF 		bl	__stack_chk_fail
 166              	.L10:
 167 001e 03B0     		add	sp, sp, #12
 168              		.cfi_def_cfa_offset 4
 169              		@ sp needed
 170 0020 5DF804FB 		ldr	pc, [sp], #4
 171              	.L12:
ARM GAS  C:\Users\PCHAUT~1\AppData\Local\Temp\ccJuO4y2.s 			page 4


 172              		.align	2
 173              	.L11:
 174 0024 00000000 		.word	__stack_chk_guard
 175              		.cfi_endproc
 176              	.LFE118:
 177              		.size	port_lock_from_isr, .-port_lock_from_isr
 178              		.section	.text.port_unlock_from_isr,"ax",%progbits
 179              		.align	1
 180              		.p2align 4,,15
 181              		.syntax unified
 182              		.thumb
 183              		.thumb_func
 184              		.fpu fpv4-sp-d16
 185              		.type	port_unlock_from_isr, %function
 186              	port_unlock_from_isr:
 187              	.LFB119:
 188              		.loc 1 484 0
 189              		.cfi_startproc
 190              		@ args = 0, pretend = 0, frame = 8
 191              		@ frame_needed = 0, uses_anonymous_args = 0
 192 0000 00B5     		push	{lr}
 193              		.cfi_def_cfa_offset 4
 194              		.cfi_offset 14, -4
 195 0002 83B0     		sub	sp, sp, #12
 196              		.cfi_def_cfa_offset 16
 197              		.loc 1 484 0
 198 0004 074B     		ldr	r3, .L15
 199 0006 1B68     		ldr	r3, [r3]
 200 0008 0193     		str	r3, [sp, #4]
 201              		.loc 1 486 0
 202 000a FFF7FEFF 		bl	port_unlock
 203              		.loc 1 487 0
 204 000e 00BF     		nop
 205 0010 044B     		ldr	r3, .L15
 206 0012 019A     		ldr	r2, [sp, #4]
 207 0014 1B68     		ldr	r3, [r3]
 208 0016 9A42     		cmp	r2, r3
 209 0018 01D0     		beq	.L14
 210 001a FFF7FEFF 		bl	__stack_chk_fail
 211              	.L14:
 212 001e 03B0     		add	sp, sp, #12
 213              		.cfi_def_cfa_offset 4
 214              		@ sp needed
 215 0020 5DF804FB 		ldr	pc, [sp], #4
 216              	.L16:
 217              		.align	2
 218              	.L15:
 219 0024 00000000 		.word	__stack_chk_guard
 220              		.cfi_endproc
 221              	.LFE119:
 222              		.size	port_unlock_from_isr, .-port_unlock_from_isr
 223              		.section	.text.chSysLock,"ax",%progbits
 224              		.align	1
 225              		.p2align 4,,15
 226              		.syntax unified
 227              		.thumb
 228              		.thumb_func
ARM GAS  C:\Users\PCHAUT~1\AppData\Local\Temp\ccJuO4y2.s 			page 5


 229              		.fpu fpv4-sp-d16
 230              		.type	chSysLock, %function
 231              	chSysLock:
 232              	.LFB145:
 233              		.file 3 "../lib/e-puck2_main-processor/ChibiOS//os/rt/include/chsys.h"
 234              		.loc 3 346 0
 235              		.cfi_startproc
 236              		@ args = 0, pretend = 0, frame = 8
 237              		@ frame_needed = 0, uses_anonymous_args = 0
 238 0000 00B5     		push	{lr}
 239              		.cfi_def_cfa_offset 4
 240              		.cfi_offset 14, -4
 241 0002 83B0     		sub	sp, sp, #12
 242              		.cfi_def_cfa_offset 16
 243              		.loc 3 346 0
 244 0004 094B     		ldr	r3, .L19
 245 0006 1B68     		ldr	r3, [r3]
 246 0008 0193     		str	r3, [sp, #4]
 247              		.loc 3 348 0
 248 000a FFF7FEFF 		bl	port_lock
 249              		.loc 3 349 0
 250 000e FFF7FEFF 		bl	_stats_start_measure_crit_thd
 251              		.loc 3 350 0
 252 0012 FFF7FEFF 		bl	_dbg_check_lock
 253              		.loc 3 351 0
 254 0016 00BF     		nop
 255 0018 044B     		ldr	r3, .L19
 256 001a 019A     		ldr	r2, [sp, #4]
 257 001c 1B68     		ldr	r3, [r3]
 258 001e 9A42     		cmp	r2, r3
 259 0020 01D0     		beq	.L18
 260 0022 FFF7FEFF 		bl	__stack_chk_fail
 261              	.L18:
 262 0026 03B0     		add	sp, sp, #12
 263              		.cfi_def_cfa_offset 4
 264              		@ sp needed
 265 0028 5DF804FB 		ldr	pc, [sp], #4
 266              	.L20:
 267              		.align	2
 268              	.L19:
 269 002c 00000000 		.word	__stack_chk_guard
 270              		.cfi_endproc
 271              	.LFE145:
 272              		.size	chSysLock, .-chSysLock
 273              		.section	.text.chSysUnlock,"ax",%progbits
 274              		.align	1
 275              		.p2align 4,,15
 276              		.syntax unified
 277              		.thumb
 278              		.thumb_func
 279              		.fpu fpv4-sp-d16
 280              		.type	chSysUnlock, %function
 281              	chSysUnlock:
 282              	.LFB146:
 283              		.loc 3 358 0
 284              		.cfi_startproc
 285              		@ args = 0, pretend = 0, frame = 8
ARM GAS  C:\Users\PCHAUT~1\AppData\Local\Temp\ccJuO4y2.s 			page 6


 286              		@ frame_needed = 0, uses_anonymous_args = 0
 287 0000 00B5     		push	{lr}
 288              		.cfi_def_cfa_offset 4
 289              		.cfi_offset 14, -4
 290 0002 83B0     		sub	sp, sp, #12
 291              		.cfi_def_cfa_offset 16
 292              		.loc 3 358 0
 293 0004 114B     		ldr	r3, .L24
 294 0006 1B68     		ldr	r3, [r3]
 295 0008 0193     		str	r3, [sp, #4]
 296              		.loc 3 360 0
 297 000a FFF7FEFF 		bl	_dbg_check_unlock
 298              		.loc 3 361 0
 299 000e FFF7FEFF 		bl	_stats_stop_measure_crit_thd
 300              		.loc 3 367 0
 301 0012 0F4B     		ldr	r3, .L24+4
 302 0014 1B68     		ldr	r3, [r3]
 303 0016 0E4A     		ldr	r2, .L24+4
 304 0018 9342     		cmp	r3, r2
 305 001a 0AD0     		beq	.L22
 306              		.loc 3 367 0 is_stmt 0 discriminator 2
 307 001c 0C4B     		ldr	r3, .L24+4
 308 001e 9B69     		ldr	r3, [r3, #24]
 309 0020 9A68     		ldr	r2, [r3, #8]
 310 0022 0B4B     		ldr	r3, .L24+4
 311 0024 1B68     		ldr	r3, [r3]
 312 0026 9B68     		ldr	r3, [r3, #8]
 313 0028 9A42     		cmp	r2, r3
 314 002a 02D2     		bcs	.L22
 315              		.loc 3 367 0 discriminator 3
 316 002c 0948     		ldr	r0, .L24+8
 317 002e FFF7FEFF 		bl	chSysHalt
 318              	.L22:
 319              		.loc 3 371 0 is_stmt 1
 320 0032 FFF7FEFF 		bl	port_unlock
 321              		.loc 3 372 0
 322 0036 00BF     		nop
 323 0038 044B     		ldr	r3, .L24
 324 003a 019A     		ldr	r2, [sp, #4]
 325 003c 1B68     		ldr	r3, [r3]
 326 003e 9A42     		cmp	r2, r3
 327 0040 01D0     		beq	.L23
 328 0042 FFF7FEFF 		bl	__stack_chk_fail
 329              	.L23:
 330 0046 03B0     		add	sp, sp, #12
 331              		.cfi_def_cfa_offset 4
 332              		@ sp needed
 333 0048 5DF804FB 		ldr	pc, [sp], #4
 334              	.L25:
 335              		.align	2
 336              	.L24:
 337 004c 00000000 		.word	__stack_chk_guard
 338 0050 00000000 		.word	ch
 339 0054 00000000 		.word	__func__.7554
 340              		.cfi_endproc
 341              	.LFE146:
 342              		.size	chSysUnlock, .-chSysUnlock
ARM GAS  C:\Users\PCHAUT~1\AppData\Local\Temp\ccJuO4y2.s 			page 7


 343              		.section	.text.chSysLockFromISR,"ax",%progbits
 344              		.align	1
 345              		.p2align 4,,15
 346              		.syntax unified
 347              		.thumb
 348              		.thumb_func
 349              		.fpu fpv4-sp-d16
 350              		.type	chSysLockFromISR, %function
 351              	chSysLockFromISR:
 352              	.LFB147:
 353              		.loc 3 386 0
 354              		.cfi_startproc
 355              		@ args = 0, pretend = 0, frame = 8
 356              		@ frame_needed = 0, uses_anonymous_args = 0
 357 0000 00B5     		push	{lr}
 358              		.cfi_def_cfa_offset 4
 359              		.cfi_offset 14, -4
 360 0002 83B0     		sub	sp, sp, #12
 361              		.cfi_def_cfa_offset 16
 362              		.loc 3 386 0
 363 0004 094B     		ldr	r3, .L28
 364 0006 1B68     		ldr	r3, [r3]
 365 0008 0193     		str	r3, [sp, #4]
 366              		.loc 3 388 0
 367 000a FFF7FEFF 		bl	port_lock_from_isr
 368              		.loc 3 389 0
 369 000e FFF7FEFF 		bl	_stats_start_measure_crit_isr
 370              		.loc 3 390 0
 371 0012 FFF7FEFF 		bl	_dbg_check_lock_from_isr
 372              		.loc 3 391 0
 373 0016 00BF     		nop
 374 0018 044B     		ldr	r3, .L28
 375 001a 019A     		ldr	r2, [sp, #4]
 376 001c 1B68     		ldr	r3, [r3]
 377 001e 9A42     		cmp	r2, r3
 378 0020 01D0     		beq	.L27
 379 0022 FFF7FEFF 		bl	__stack_chk_fail
 380              	.L27:
 381 0026 03B0     		add	sp, sp, #12
 382              		.cfi_def_cfa_offset 4
 383              		@ sp needed
 384 0028 5DF804FB 		ldr	pc, [sp], #4
 385              	.L29:
 386              		.align	2
 387              	.L28:
 388 002c 00000000 		.word	__stack_chk_guard
 389              		.cfi_endproc
 390              	.LFE147:
 391              		.size	chSysLockFromISR, .-chSysLockFromISR
 392              		.section	.text.chSysUnlockFromISR,"ax",%progbits
 393              		.align	1
 394              		.p2align 4,,15
 395              		.syntax unified
 396              		.thumb
 397              		.thumb_func
 398              		.fpu fpv4-sp-d16
 399              		.type	chSysUnlockFromISR, %function
ARM GAS  C:\Users\PCHAUT~1\AppData\Local\Temp\ccJuO4y2.s 			page 8


 400              	chSysUnlockFromISR:
 401              	.LFB148:
 402              		.loc 3 406 0
 403              		.cfi_startproc
 404              		@ args = 0, pretend = 0, frame = 8
 405              		@ frame_needed = 0, uses_anonymous_args = 0
 406 0000 00B5     		push	{lr}
 407              		.cfi_def_cfa_offset 4
 408              		.cfi_offset 14, -4
 409 0002 83B0     		sub	sp, sp, #12
 410              		.cfi_def_cfa_offset 16
 411              		.loc 3 406 0
 412 0004 094B     		ldr	r3, .L32
 413 0006 1B68     		ldr	r3, [r3]
 414 0008 0193     		str	r3, [sp, #4]
 415              		.loc 3 408 0
 416 000a FFF7FEFF 		bl	_dbg_check_unlock_from_isr
 417              		.loc 3 409 0
 418 000e FFF7FEFF 		bl	_stats_stop_measure_crit_isr
 419              		.loc 3 410 0
 420 0012 FFF7FEFF 		bl	port_unlock_from_isr
 421              		.loc 3 411 0
 422 0016 00BF     		nop
 423 0018 044B     		ldr	r3, .L32
 424 001a 019A     		ldr	r2, [sp, #4]
 425 001c 1B68     		ldr	r3, [r3]
 426 001e 9A42     		cmp	r2, r3
 427 0020 01D0     		beq	.L31
 428 0022 FFF7FEFF 		bl	__stack_chk_fail
 429              	.L31:
 430 0026 03B0     		add	sp, sp, #12
 431              		.cfi_def_cfa_offset 4
 432              		@ sp needed
 433 0028 5DF804FB 		ldr	pc, [sp], #4
 434              	.L33:
 435              		.align	2
 436              	.L32:
 437 002c 00000000 		.word	__stack_chk_guard
 438              		.cfi_endproc
 439              	.LFE148:
 440              		.size	chSysUnlockFromISR, .-chSysUnlockFromISR
 441              		.section	.text.chThdStartI,"ax",%progbits
 442              		.align	1
 443              		.p2align 4,,15
 444              		.syntax unified
 445              		.thumb
 446              		.thumb_func
 447              		.fpu fpv4-sp-d16
 448              		.type	chThdStartI, %function
 449              	chThdStartI:
 450              	.LFB171:
 451              		.file 4 "../lib/e-puck2_main-processor/ChibiOS//os/rt/include/chthreads.h"
 452              		.loc 4 245 0
 453              		.cfi_startproc
 454              		@ args = 0, pretend = 0, frame = 16
 455              		@ frame_needed = 0, uses_anonymous_args = 0
 456 0000 00B5     		push	{lr}
ARM GAS  C:\Users\PCHAUT~1\AppData\Local\Temp\ccJuO4y2.s 			page 9


 457              		.cfi_def_cfa_offset 4
 458              		.cfi_offset 14, -4
 459 0002 85B0     		sub	sp, sp, #20
 460              		.cfi_def_cfa_offset 24
 461 0004 0190     		str	r0, [sp, #4]
 462              		.loc 4 245 0
 463 0006 0D4B     		ldr	r3, .L38
 464 0008 1B68     		ldr	r3, [r3]
 465 000a 0393     		str	r3, [sp, #12]
 466              		.loc 4 247 0
 467 000c 019B     		ldr	r3, [sp, #4]
 468 000e 93F82030 		ldrb	r3, [r3, #32]	@ zero_extendqisi2
 469 0012 022B     		cmp	r3, #2
 470 0014 02D0     		beq	.L35
 471              		.loc 4 247 0 is_stmt 0 discriminator 2
 472 0016 0A48     		ldr	r0, .L38+4
 473 0018 FFF7FEFF 		bl	chSysHalt
 474              	.L35:
 475              		.loc 4 249 0 is_stmt 1
 476 001c 0198     		ldr	r0, [sp, #4]
 477 001e FFF7FEFF 		bl	chSchReadyI
 478 0022 0346     		mov	r3, r0
 479              		.loc 4 250 0
 480 0024 1846     		mov	r0, r3
 481 0026 054B     		ldr	r3, .L38
 482 0028 039A     		ldr	r2, [sp, #12]
 483 002a 1B68     		ldr	r3, [r3]
 484 002c 9A42     		cmp	r2, r3
 485 002e 01D0     		beq	.L37
 486 0030 FFF7FEFF 		bl	__stack_chk_fail
 487              	.L37:
 488 0034 05B0     		add	sp, sp, #20
 489              		.cfi_def_cfa_offset 4
 490              		@ sp needed
 491 0036 5DF804FB 		ldr	pc, [sp], #4
 492              	.L39:
 493 003a 00BF     		.align	2
 494              	.L38:
 495 003c 00000000 		.word	__stack_chk_guard
 496 0040 00000000 		.word	__func__.7721
 497              		.cfi_endproc
 498              	.LFE171:
 499              		.size	chThdStartI, .-chThdStartI
 500              		.section	.text.chRegSetThreadName,"ax",%progbits
 501              		.align	1
 502              		.p2align 4,,15
 503              		.syntax unified
 504              		.thumb
 505              		.thumb_func
 506              		.fpu fpv4-sp-d16
 507              		.type	chRegSetThreadName, %function
 508              	chRegSetThreadName:
 509              	.LFB176:
 510              		.file 5 "../lib/e-puck2_main-processor/ChibiOS//os/rt/include/chregistry.h"
 511              		.loc 5 132 0
 512              		.cfi_startproc
 513              		@ args = 0, pretend = 0, frame = 16
ARM GAS  C:\Users\PCHAUT~1\AppData\Local\Temp\ccJuO4y2.s 			page 10


 514              		@ frame_needed = 0, uses_anonymous_args = 0
 515 0000 00B5     		push	{lr}
 516              		.cfi_def_cfa_offset 4
 517              		.cfi_offset 14, -4
 518 0002 85B0     		sub	sp, sp, #20
 519              		.cfi_def_cfa_offset 24
 520 0004 0190     		str	r0, [sp, #4]
 521              		.loc 5 132 0
 522 0006 094B     		ldr	r3, .L42
 523 0008 1B68     		ldr	r3, [r3]
 524 000a 0393     		str	r3, [sp, #12]
 525              		.loc 5 135 0
 526 000c 084B     		ldr	r3, .L42+4
 527 000e 9B69     		ldr	r3, [r3, #24]
 528 0010 019A     		ldr	r2, [sp, #4]
 529 0012 9A61     		str	r2, [r3, #24]
 530              		.loc 5 139 0
 531 0014 00BF     		nop
 532 0016 054B     		ldr	r3, .L42
 533 0018 039A     		ldr	r2, [sp, #12]
 534 001a 1B68     		ldr	r3, [r3]
 535 001c 9A42     		cmp	r2, r3
 536 001e 01D0     		beq	.L41
 537 0020 FFF7FEFF 		bl	__stack_chk_fail
 538              	.L41:
 539 0024 05B0     		add	sp, sp, #20
 540              		.cfi_def_cfa_offset 4
 541              		@ sp needed
 542 0026 5DF804FB 		ldr	pc, [sp], #4
 543              	.L43:
 544 002a 00BF     		.align	2
 545              	.L42:
 546 002c 00000000 		.word	__stack_chk_guard
 547 0030 00000000 		.word	ch
 548              		.cfi_endproc
 549              	.LFE176:
 550              		.size	chRegSetThreadName, .-chRegSetThreadName
 551              		.section	.text.osalSysLock,"ax",%progbits
 552              		.align	1
 553              		.p2align 4,,15
 554              		.syntax unified
 555              		.thumb
 556              		.thumb_func
 557              		.fpu fpv4-sp-d16
 558              		.type	osalSysLock, %function
 559              	osalSysLock:
 560              	.LFB223:
 561              		.file 6 "../lib/e-puck2_main-processor/ChibiOS//os/hal/osal/rt/osal.h"
 562              		.loc 6 445 0
 563              		.cfi_startproc
 564              		@ args = 0, pretend = 0, frame = 8
 565              		@ frame_needed = 0, uses_anonymous_args = 0
 566 0000 00B5     		push	{lr}
 567              		.cfi_def_cfa_offset 4
 568              		.cfi_offset 14, -4
 569 0002 83B0     		sub	sp, sp, #12
 570              		.cfi_def_cfa_offset 16
ARM GAS  C:\Users\PCHAUT~1\AppData\Local\Temp\ccJuO4y2.s 			page 11


 571              		.loc 6 445 0
 572 0004 074B     		ldr	r3, .L46
 573 0006 1B68     		ldr	r3, [r3]
 574 0008 0193     		str	r3, [sp, #4]
 575              		.loc 6 447 0
 576 000a FFF7FEFF 		bl	chSysLock
 577              		.loc 6 448 0
 578 000e 00BF     		nop
 579 0010 044B     		ldr	r3, .L46
 580 0012 019A     		ldr	r2, [sp, #4]
 581 0014 1B68     		ldr	r3, [r3]
 582 0016 9A42     		cmp	r2, r3
 583 0018 01D0     		beq	.L45
 584 001a FFF7FEFF 		bl	__stack_chk_fail
 585              	.L45:
 586 001e 03B0     		add	sp, sp, #12
 587              		.cfi_def_cfa_offset 4
 588              		@ sp needed
 589 0020 5DF804FB 		ldr	pc, [sp], #4
 590              	.L47:
 591              		.align	2
 592              	.L46:
 593 0024 00000000 		.word	__stack_chk_guard
 594              		.cfi_endproc
 595              	.LFE223:
 596              		.size	osalSysLock, .-osalSysLock
 597              		.section	.text.osalSysUnlock,"ax",%progbits
 598              		.align	1
 599              		.p2align 4,,15
 600              		.syntax unified
 601              		.thumb
 602              		.thumb_func
 603              		.fpu fpv4-sp-d16
 604              		.type	osalSysUnlock, %function
 605              	osalSysUnlock:
 606              	.LFB224:
 607              		.loc 6 456 0
 608              		.cfi_startproc
 609              		@ args = 0, pretend = 0, frame = 8
 610              		@ frame_needed = 0, uses_anonymous_args = 0
 611 0000 00B5     		push	{lr}
 612              		.cfi_def_cfa_offset 4
 613              		.cfi_offset 14, -4
 614 0002 83B0     		sub	sp, sp, #12
 615              		.cfi_def_cfa_offset 16
 616              		.loc 6 456 0
 617 0004 074B     		ldr	r3, .L50
 618 0006 1B68     		ldr	r3, [r3]
 619 0008 0193     		str	r3, [sp, #4]
 620              		.loc 6 458 0
 621 000a FFF7FEFF 		bl	chSysUnlock
 622              		.loc 6 459 0
 623 000e 00BF     		nop
 624 0010 044B     		ldr	r3, .L50
 625 0012 019A     		ldr	r2, [sp, #4]
 626 0014 1B68     		ldr	r3, [r3]
 627 0016 9A42     		cmp	r2, r3
ARM GAS  C:\Users\PCHAUT~1\AppData\Local\Temp\ccJuO4y2.s 			page 12


 628 0018 01D0     		beq	.L49
 629 001a FFF7FEFF 		bl	__stack_chk_fail
 630              	.L49:
 631 001e 03B0     		add	sp, sp, #12
 632              		.cfi_def_cfa_offset 4
 633              		@ sp needed
 634 0020 5DF804FB 		ldr	pc, [sp], #4
 635              	.L51:
 636              		.align	2
 637              	.L50:
 638 0024 00000000 		.word	__stack_chk_guard
 639              		.cfi_endproc
 640              	.LFE224:
 641              		.size	osalSysUnlock, .-osalSysUnlock
 642              		.section	.text.osalSysLockFromISR,"ax",%progbits
 643              		.align	1
 644              		.p2align 4,,15
 645              		.syntax unified
 646              		.thumb
 647              		.thumb_func
 648              		.fpu fpv4-sp-d16
 649              		.type	osalSysLockFromISR, %function
 650              	osalSysLockFromISR:
 651              	.LFB225:
 652              		.loc 6 467 0
 653              		.cfi_startproc
 654              		@ args = 0, pretend = 0, frame = 8
 655              		@ frame_needed = 0, uses_anonymous_args = 0
 656 0000 00B5     		push	{lr}
 657              		.cfi_def_cfa_offset 4
 658              		.cfi_offset 14, -4
 659 0002 83B0     		sub	sp, sp, #12
 660              		.cfi_def_cfa_offset 16
 661              		.loc 6 467 0
 662 0004 074B     		ldr	r3, .L54
 663 0006 1B68     		ldr	r3, [r3]
 664 0008 0193     		str	r3, [sp, #4]
 665              		.loc 6 469 0
 666 000a FFF7FEFF 		bl	chSysLockFromISR
 667              		.loc 6 470 0
 668 000e 00BF     		nop
 669 0010 044B     		ldr	r3, .L54
 670 0012 019A     		ldr	r2, [sp, #4]
 671 0014 1B68     		ldr	r3, [r3]
 672 0016 9A42     		cmp	r2, r3
 673 0018 01D0     		beq	.L53
 674 001a FFF7FEFF 		bl	__stack_chk_fail
 675              	.L53:
 676 001e 03B0     		add	sp, sp, #12
 677              		.cfi_def_cfa_offset 4
 678              		@ sp needed
 679 0020 5DF804FB 		ldr	pc, [sp], #4
 680              	.L55:
 681              		.align	2
 682              	.L54:
 683 0024 00000000 		.word	__stack_chk_guard
 684              		.cfi_endproc
ARM GAS  C:\Users\PCHAUT~1\AppData\Local\Temp\ccJuO4y2.s 			page 13


 685              	.LFE225:
 686              		.size	osalSysLockFromISR, .-osalSysLockFromISR
 687              		.section	.text.osalSysUnlockFromISR,"ax",%progbits
 688              		.align	1
 689              		.p2align 4,,15
 690              		.syntax unified
 691              		.thumb
 692              		.thumb_func
 693              		.fpu fpv4-sp-d16
 694              		.type	osalSysUnlockFromISR, %function
 695              	osalSysUnlockFromISR:
 696              	.LFB226:
 697              		.loc 6 478 0
 698              		.cfi_startproc
 699              		@ args = 0, pretend = 0, frame = 8
 700              		@ frame_needed = 0, uses_anonymous_args = 0
 701 0000 00B5     		push	{lr}
 702              		.cfi_def_cfa_offset 4
 703              		.cfi_offset 14, -4
 704 0002 83B0     		sub	sp, sp, #12
 705              		.cfi_def_cfa_offset 16
 706              		.loc 6 478 0
 707 0004 074B     		ldr	r3, .L58
 708 0006 1B68     		ldr	r3, [r3]
 709 0008 0193     		str	r3, [sp, #4]
 710              		.loc 6 480 0
 711 000a FFF7FEFF 		bl	chSysUnlockFromISR
 712              		.loc 6 481 0
 713 000e 00BF     		nop
 714 0010 044B     		ldr	r3, .L58
 715 0012 019A     		ldr	r2, [sp, #4]
 716 0014 1B68     		ldr	r3, [r3]
 717 0016 9A42     		cmp	r2, r3
 718 0018 01D0     		beq	.L57
 719 001a FFF7FEFF 		bl	__stack_chk_fail
 720              	.L57:
 721 001e 03B0     		add	sp, sp, #12
 722              		.cfi_def_cfa_offset 4
 723              		@ sp needed
 724 0020 5DF804FB 		ldr	pc, [sp], #4
 725              	.L59:
 726              		.align	2
 727              	.L58:
 728 0024 00000000 		.word	__stack_chk_guard
 729              		.cfi_endproc
 730              	.LFE226:
 731              		.size	osalSysUnlockFromISR, .-osalSysUnlockFromISR
 732              		.section	.text.osalSysPolledDelayX,"ax",%progbits
 733              		.align	1
 734              		.p2align 4,,15
 735              		.syntax unified
 736              		.thumb
 737              		.thumb_func
 738              		.fpu fpv4-sp-d16
 739              		.type	osalSysPolledDelayX, %function
 740              	osalSysPolledDelayX:
 741              	.LFB229:
ARM GAS  C:\Users\PCHAUT~1\AppData\Local\Temp\ccJuO4y2.s 			page 14


 742              		.loc 6 525 0
 743              		.cfi_startproc
 744              		@ args = 0, pretend = 0, frame = 16
 745              		@ frame_needed = 0, uses_anonymous_args = 0
 746 0000 00B5     		push	{lr}
 747              		.cfi_def_cfa_offset 4
 748              		.cfi_offset 14, -4
 749 0002 85B0     		sub	sp, sp, #20
 750              		.cfi_def_cfa_offset 24
 751 0004 0190     		str	r0, [sp, #4]
 752              		.loc 6 525 0
 753 0006 084B     		ldr	r3, .L62
 754 0008 1B68     		ldr	r3, [r3]
 755 000a 0393     		str	r3, [sp, #12]
 756              		.loc 6 527 0
 757 000c 0198     		ldr	r0, [sp, #4]
 758 000e FFF7FEFF 		bl	chSysPolledDelayX
 759              		.loc 6 528 0
 760 0012 00BF     		nop
 761 0014 044B     		ldr	r3, .L62
 762 0016 039A     		ldr	r2, [sp, #12]
 763 0018 1B68     		ldr	r3, [r3]
 764 001a 9A42     		cmp	r2, r3
 765 001c 01D0     		beq	.L61
 766 001e FFF7FEFF 		bl	__stack_chk_fail
 767              	.L61:
 768 0022 05B0     		add	sp, sp, #20
 769              		.cfi_def_cfa_offset 4
 770              		@ sp needed
 771 0024 5DF804FB 		ldr	pc, [sp], #4
 772              	.L63:
 773              		.align	2
 774              	.L62:
 775 0028 00000000 		.word	__stack_chk_guard
 776              		.cfi_endproc
 777              	.LFE229:
 778              		.size	osalSysPolledDelayX, .-osalSysPolledDelayX
 779              		.section	.text.osalOsRescheduleS,"ax",%progbits
 780              		.align	1
 781              		.p2align 4,,15
 782              		.syntax unified
 783              		.thumb
 784              		.thumb_func
 785              		.fpu fpv4-sp-d16
 786              		.type	osalOsRescheduleS, %function
 787              	osalOsRescheduleS:
 788              	.LFB231:
 789              		.loc 6 552 0
 790              		.cfi_startproc
 791              		@ args = 0, pretend = 0, frame = 8
 792              		@ frame_needed = 0, uses_anonymous_args = 0
 793 0000 00B5     		push	{lr}
 794              		.cfi_def_cfa_offset 4
 795              		.cfi_offset 14, -4
 796 0002 83B0     		sub	sp, sp, #12
 797              		.cfi_def_cfa_offset 16
 798              		.loc 6 552 0
ARM GAS  C:\Users\PCHAUT~1\AppData\Local\Temp\ccJuO4y2.s 			page 15


 799 0004 074B     		ldr	r3, .L66
 800 0006 1B68     		ldr	r3, [r3]
 801 0008 0193     		str	r3, [sp, #4]
 802              		.loc 6 554 0
 803 000a FFF7FEFF 		bl	chSchRescheduleS
 804              		.loc 6 555 0
 805 000e 00BF     		nop
 806 0010 044B     		ldr	r3, .L66
 807 0012 019A     		ldr	r2, [sp, #4]
 808 0014 1B68     		ldr	r3, [r3]
 809 0016 9A42     		cmp	r2, r3
 810 0018 01D0     		beq	.L65
 811 001a FFF7FEFF 		bl	__stack_chk_fail
 812              	.L65:
 813 001e 03B0     		add	sp, sp, #12
 814              		.cfi_def_cfa_offset 4
 815              		@ sp needed
 816 0020 5DF804FB 		ldr	pc, [sp], #4
 817              	.L67:
 818              		.align	2
 819              	.L66:
 820 0024 00000000 		.word	__stack_chk_guard
 821              		.cfi_endproc
 822              	.LFE231:
 823              		.size	osalOsRescheduleS, .-osalOsRescheduleS
 824              		.section	.text.osalThreadSuspendS,"ax",%progbits
 825              		.align	1
 826              		.p2align 4,,15
 827              		.syntax unified
 828              		.thumb
 829              		.thumb_func
 830              		.fpu fpv4-sp-d16
 831              		.type	osalThreadSuspendS, %function
 832              	osalThreadSuspendS:
 833              	.LFB236:
 834              		.loc 6 640 0
 835              		.cfi_startproc
 836              		@ args = 0, pretend = 0, frame = 16
 837              		@ frame_needed = 0, uses_anonymous_args = 0
 838 0000 00B5     		push	{lr}
 839              		.cfi_def_cfa_offset 4
 840              		.cfi_offset 14, -4
 841 0002 85B0     		sub	sp, sp, #20
 842              		.cfi_def_cfa_offset 24
 843 0004 0190     		str	r0, [sp, #4]
 844              		.loc 6 640 0
 845 0006 094B     		ldr	r3, .L71
 846 0008 1B68     		ldr	r3, [r3]
 847 000a 0393     		str	r3, [sp, #12]
 848              		.loc 6 642 0
 849 000c 0198     		ldr	r0, [sp, #4]
 850 000e FFF7FEFF 		bl	chThdSuspendS
 851 0012 0346     		mov	r3, r0
 852              		.loc 6 643 0
 853 0014 1846     		mov	r0, r3
 854 0016 054B     		ldr	r3, .L71
 855 0018 039A     		ldr	r2, [sp, #12]
ARM GAS  C:\Users\PCHAUT~1\AppData\Local\Temp\ccJuO4y2.s 			page 16


 856 001a 1B68     		ldr	r3, [r3]
 857 001c 9A42     		cmp	r2, r3
 858 001e 01D0     		beq	.L70
 859 0020 FFF7FEFF 		bl	__stack_chk_fail
 860              	.L70:
 861 0024 05B0     		add	sp, sp, #20
 862              		.cfi_def_cfa_offset 4
 863              		@ sp needed
 864 0026 5DF804FB 		ldr	pc, [sp], #4
 865              	.L72:
 866 002a 00BF     		.align	2
 867              	.L71:
 868 002c 00000000 		.word	__stack_chk_guard
 869              		.cfi_endproc
 870              	.LFE236:
 871              		.size	osalThreadSuspendS, .-osalThreadSuspendS
 872              		.section	.text.osalThreadResumeI,"ax",%progbits
 873              		.align	1
 874              		.p2align 4,,15
 875              		.syntax unified
 876              		.thumb
 877              		.thumb_func
 878              		.fpu fpv4-sp-d16
 879              		.type	osalThreadResumeI, %function
 880              	osalThreadResumeI:
 881              	.LFB238:
 882              		.loc 6 680 0
 883              		.cfi_startproc
 884              		@ args = 0, pretend = 0, frame = 16
 885              		@ frame_needed = 0, uses_anonymous_args = 0
 886 0000 00B5     		push	{lr}
 887              		.cfi_def_cfa_offset 4
 888              		.cfi_offset 14, -4
 889 0002 85B0     		sub	sp, sp, #20
 890              		.cfi_def_cfa_offset 24
 891 0004 0190     		str	r0, [sp, #4]
 892 0006 0091     		str	r1, [sp]
 893              		.loc 6 680 0
 894 0008 084B     		ldr	r3, .L75
 895 000a 1B68     		ldr	r3, [r3]
 896 000c 0393     		str	r3, [sp, #12]
 897              		.loc 6 682 0
 898 000e 0099     		ldr	r1, [sp]
 899 0010 0198     		ldr	r0, [sp, #4]
 900 0012 FFF7FEFF 		bl	chThdResumeI
 901              		.loc 6 683 0
 902 0016 00BF     		nop
 903 0018 044B     		ldr	r3, .L75
 904 001a 039A     		ldr	r2, [sp, #12]
 905 001c 1B68     		ldr	r3, [r3]
 906 001e 9A42     		cmp	r2, r3
 907 0020 01D0     		beq	.L74
 908 0022 FFF7FEFF 		bl	__stack_chk_fail
 909              	.L74:
 910 0026 05B0     		add	sp, sp, #20
 911              		.cfi_def_cfa_offset 4
 912              		@ sp needed
ARM GAS  C:\Users\PCHAUT~1\AppData\Local\Temp\ccJuO4y2.s 			page 17


 913 0028 5DF804FB 		ldr	pc, [sp], #4
 914              	.L76:
 915              		.align	2
 916              	.L75:
 917 002c 00000000 		.word	__stack_chk_guard
 918              		.cfi_endproc
 919              	.LFE238:
 920              		.size	osalThreadResumeI, .-osalThreadResumeI
 921              		.section	.text.osalThreadDequeueAllI,"ax",%progbits
 922              		.align	1
 923              		.p2align 4,,15
 924              		.syntax unified
 925              		.thumb
 926              		.thumb_func
 927              		.fpu fpv4-sp-d16
 928              		.type	osalThreadDequeueAllI, %function
 929              	osalThreadDequeueAllI:
 930              	.LFB243:
 931              		.loc 6 762 0
 932              		.cfi_startproc
 933              		@ args = 0, pretend = 0, frame = 16
 934              		@ frame_needed = 0, uses_anonymous_args = 0
 935 0000 00B5     		push	{lr}
 936              		.cfi_def_cfa_offset 4
 937              		.cfi_offset 14, -4
 938 0002 85B0     		sub	sp, sp, #20
 939              		.cfi_def_cfa_offset 24
 940 0004 0190     		str	r0, [sp, #4]
 941 0006 0091     		str	r1, [sp]
 942              		.loc 6 762 0
 943 0008 084B     		ldr	r3, .L79
 944 000a 1B68     		ldr	r3, [r3]
 945 000c 0393     		str	r3, [sp, #12]
 946              		.loc 6 764 0
 947 000e 0099     		ldr	r1, [sp]
 948 0010 0198     		ldr	r0, [sp, #4]
 949 0012 FFF7FEFF 		bl	chThdDequeueAllI
 950              		.loc 6 765 0
 951 0016 00BF     		nop
 952 0018 044B     		ldr	r3, .L79
 953 001a 039A     		ldr	r2, [sp, #12]
 954 001c 1B68     		ldr	r3, [r3]
 955 001e 9A42     		cmp	r2, r3
 956 0020 01D0     		beq	.L78
 957 0022 FFF7FEFF 		bl	__stack_chk_fail
 958              	.L78:
 959 0026 05B0     		add	sp, sp, #20
 960              		.cfi_def_cfa_offset 4
 961              		@ sp needed
 962 0028 5DF804FB 		ldr	pc, [sp], #4
 963              	.L80:
 964              		.align	2
 965              	.L79:
 966 002c 00000000 		.word	__stack_chk_guard
 967              		.cfi_endproc
 968              	.LFE243:
 969              		.size	osalThreadDequeueAllI, .-osalThreadDequeueAllI
ARM GAS  C:\Users\PCHAUT~1\AppData\Local\Temp\ccJuO4y2.s 			page 18


 970              		.global	USBD1
 971              		.section	.bss.USBD1,"aw",%nobits
 972              		.align	3
 973              		.type	USBD1, %object
 974              		.size	USBD1, 608
 975              	USBD1:
 976 0000 00000000 		.space	608
 976      00000000 
 976      00000000 
 976      00000000 
 976      00000000 
 977              		.section	.bss.ep0_state,"aw",%nobits
 978              		.align	2
 979              		.type	ep0_state, %object
 980              		.size	ep0_state, 20
 981              	ep0_state:
 982 0000 00000000 		.space	20
 982      00000000 
 982      00000000 
 982      00000000 
 982      00000000 
 983              		.section	.bss.ep0setup_buffer,"aw",%nobits
 984              		.align	2
 985              		.type	ep0setup_buffer, %object
 986              		.size	ep0setup_buffer, 8
 987              	ep0setup_buffer:
 988 0000 00000000 		.space	8
 988      00000000 
 989              		.section	.rodata.ep0config,"a",%progbits
 990              		.align	2
 991              		.type	ep0config, %object
 992              		.size	ep0config, 36
 993              	ep0config:
 994 0000 00000000 		.word	0
 995 0004 00000000 		.word	_usb_ep0setup
 996 0008 00000000 		.word	_usb_ep0in
 997 000c 00000000 		.word	_usb_ep0out
 998 0010 4000     		.short	64
 999 0012 4000     		.short	64
 1000 0014 00000000 		.word	ep0_state
 1001 0018 00000000 		.word	ep0_state
 1002 001c 0100     		.short	1
 1003 001e 0000     		.space	2
 1004 0020 00000000 		.word	ep0setup_buffer
 1005              		.section	.rodata.fsparams,"a",%progbits
 1006              		.align	2
 1007              		.type	fsparams, %object
 1008              		.size	fsparams, 12
 1009              	fsparams:
 1010 0000 80000000 		.word	128
 1011 0004 40010000 		.word	320
 1012 0008 03000000 		.word	3
 1013              		.section	.text.otg_core_reset,"ax",%progbits
 1014              		.align	1
 1015              		.p2align 4,,15
 1016              		.syntax unified
 1017              		.thumb
ARM GAS  C:\Users\PCHAUT~1\AppData\Local\Temp\ccJuO4y2.s 			page 19


 1018              		.thumb_func
 1019              		.fpu fpv4-sp-d16
 1020              		.type	otg_core_reset, %function
 1021              	otg_core_reset:
 1022              	.LFB256:
 1023              		.file 7 "../lib/e-puck2_main-processor/ChibiOS//os/hal/ports/STM32/LLD/OTGv1/usb_lld.c"
 1024              		.loc 7 115 0
 1025              		.cfi_startproc
 1026              		@ args = 0, pretend = 0, frame = 16
 1027              		@ frame_needed = 0, uses_anonymous_args = 0
 1028 0000 00B5     		push	{lr}
 1029              		.cfi_def_cfa_offset 4
 1030              		.cfi_offset 14, -4
 1031 0002 85B0     		sub	sp, sp, #20
 1032              		.cfi_def_cfa_offset 24
 1033 0004 0190     		str	r0, [sp, #4]
 1034              		.loc 7 115 0
 1035 0006 134B     		ldr	r3, .L85
 1036 0008 1B68     		ldr	r3, [r3]
 1037 000a 0393     		str	r3, [sp, #12]
 1038              		.loc 7 116 0
 1039 000c 019B     		ldr	r3, [sp, #4]
 1040 000e 1B6D     		ldr	r3, [r3, #80]
 1041 0010 0293     		str	r3, [sp, #8]
 1042              		.loc 7 118 0
 1043 0012 2020     		movs	r0, #32
 1044 0014 FFF7FEFF 		bl	osalSysPolledDelayX
 1045              		.loc 7 121 0
 1046 0018 029B     		ldr	r3, [sp, #8]
 1047 001a 0122     		movs	r2, #1
 1048 001c 1A61     		str	r2, [r3, #16]
 1049              		.loc 7 122 0
 1050 001e 00BF     		nop
 1051              	.L82:
 1052              		.loc 7 122 0 is_stmt 0 discriminator 1
 1053 0020 029B     		ldr	r3, [sp, #8]
 1054 0022 1B69     		ldr	r3, [r3, #16]
 1055 0024 03F00103 		and	r3, r3, #1
 1056 0028 002B     		cmp	r3, #0
 1057 002a F9D1     		bne	.L82
 1058              		.loc 7 125 0 is_stmt 1
 1059 002c 0C20     		movs	r0, #12
 1060 002e FFF7FEFF 		bl	osalSysPolledDelayX
 1061              		.loc 7 128 0
 1062 0032 00BF     		nop
 1063              	.L83:
 1064              		.loc 7 128 0 is_stmt 0 discriminator 1
 1065 0034 029B     		ldr	r3, [sp, #8]
 1066 0036 1B69     		ldr	r3, [r3, #16]
 1067 0038 002B     		cmp	r3, #0
 1068 003a FBDA     		bge	.L83
 1069              		.loc 7 130 0 is_stmt 1
 1070 003c 00BF     		nop
 1071 003e 054B     		ldr	r3, .L85
 1072 0040 039A     		ldr	r2, [sp, #12]
 1073 0042 1B68     		ldr	r3, [r3]
 1074 0044 9A42     		cmp	r2, r3
ARM GAS  C:\Users\PCHAUT~1\AppData\Local\Temp\ccJuO4y2.s 			page 20


 1075 0046 01D0     		beq	.L84
 1076 0048 FFF7FEFF 		bl	__stack_chk_fail
 1077              	.L84:
 1078 004c 05B0     		add	sp, sp, #20
 1079              		.cfi_def_cfa_offset 4
 1080              		@ sp needed
 1081 004e 5DF804FB 		ldr	pc, [sp], #4
 1082              	.L86:
 1083 0052 00BF     		.align	2
 1084              	.L85:
 1085 0054 00000000 		.word	__stack_chk_guard
 1086              		.cfi_endproc
 1087              	.LFE256:
 1088              		.size	otg_core_reset, .-otg_core_reset
 1089              		.section	.text.otg_disable_ep,"ax",%progbits
 1090              		.align	1
 1091              		.p2align 4,,15
 1092              		.syntax unified
 1093              		.thumb
 1094              		.thumb_func
 1095              		.fpu fpv4-sp-d16
 1096              		.type	otg_disable_ep, %function
 1097              	otg_disable_ep:
 1098              	.LFB257:
 1099              		.loc 7 132 0
 1100              		.cfi_startproc
 1101              		@ args = 0, pretend = 0, frame = 24
 1102              		@ frame_needed = 0, uses_anonymous_args = 0
 1103 0000 00B5     		push	{lr}
 1104              		.cfi_def_cfa_offset 4
 1105              		.cfi_offset 14, -4
 1106 0002 87B0     		sub	sp, sp, #28
 1107              		.cfi_def_cfa_offset 32
 1108 0004 0190     		str	r0, [sp, #4]
 1109              		.loc 7 132 0
 1110 0006 464B     		ldr	r3, .L97
 1111 0008 1B68     		ldr	r3, [r3]
 1112 000a 0593     		str	r3, [sp, #20]
 1113              		.loc 7 133 0
 1114 000c 019B     		ldr	r3, [sp, #4]
 1115 000e 1B6D     		ldr	r3, [r3, #80]
 1116 0010 0493     		str	r3, [sp, #16]
 1117              		.loc 7 136 0
 1118 0012 0023     		movs	r3, #0
 1119 0014 0393     		str	r3, [sp, #12]
 1120 0016 6CE0     		b	.L88
 1121              	.L95:
 1122              		.loc 7 140 0
 1123 0018 049A     		ldr	r2, [sp, #16]
 1124 001a 039B     		ldr	r3, [sp, #12]
 1125 001c 4833     		adds	r3, r3, #72
 1126 001e 5B01     		lsls	r3, r3, #5
 1127 0020 1344     		add	r3, r3, r2
 1128 0022 1B68     		ldr	r3, [r3]
 1129 0024 002B     		cmp	r3, #0
 1130 0026 14DA     		bge	.L89
 1131              		.loc 7 141 0
ARM GAS  C:\Users\PCHAUT~1\AppData\Local\Temp\ccJuO4y2.s 			page 21


 1132 0028 049A     		ldr	r2, [sp, #16]
 1133 002a 039B     		ldr	r3, [sp, #12]
 1134 002c 4833     		adds	r3, r3, #72
 1135 002e 5B01     		lsls	r3, r3, #5
 1136 0030 1344     		add	r3, r3, r2
 1137 0032 4FF08042 		mov	r2, #1073741824
 1138 0036 1A60     		str	r2, [r3]
 1139              		.loc 7 143 0
 1140 0038 00BF     		nop
 1141              	.L90:
 1142              		.loc 7 143 0 is_stmt 0 discriminator 1
 1143 003a 049A     		ldr	r2, [sp, #16]
 1144 003c 039B     		ldr	r3, [sp, #12]
 1145 003e 5B01     		lsls	r3, r3, #5
 1146 0040 1344     		add	r3, r3, r2
 1147 0042 03F60813 		addw	r3, r3, #2312
 1148 0046 1B68     		ldr	r3, [r3]
 1149 0048 03F00203 		and	r3, r3, #2
 1150 004c 002B     		cmp	r3, #0
 1151 004e F4D0     		beq	.L90
 1152 0050 06E0     		b	.L91
 1153              	.L89:
 1154              		.loc 7 147 0 is_stmt 1
 1155 0052 049A     		ldr	r2, [sp, #16]
 1156 0054 039B     		ldr	r3, [sp, #12]
 1157 0056 4833     		adds	r3, r3, #72
 1158 0058 5B01     		lsls	r3, r3, #5
 1159 005a 1344     		add	r3, r3, r2
 1160 005c 0022     		movs	r2, #0
 1161 005e 1A60     		str	r2, [r3]
 1162              	.L91:
 1163              		.loc 7 148 0
 1164 0060 049A     		ldr	r2, [sp, #16]
 1165 0062 039B     		ldr	r3, [sp, #12]
 1166 0064 5B01     		lsls	r3, r3, #5
 1167 0066 1344     		add	r3, r3, r2
 1168 0068 03F51163 		add	r3, r3, #2320
 1169 006c 0022     		movs	r2, #0
 1170 006e 1A60     		str	r2, [r3]
 1171              		.loc 7 149 0
 1172 0070 049A     		ldr	r2, [sp, #16]
 1173 0072 039B     		ldr	r3, [sp, #12]
 1174 0074 5B01     		lsls	r3, r3, #5
 1175 0076 1344     		add	r3, r3, r2
 1176 0078 03F60813 		addw	r3, r3, #2312
 1177 007c 4FF0FF32 		mov	r2, #-1
 1178 0080 1A60     		str	r2, [r3]
 1179              		.loc 7 155 0
 1180 0082 049A     		ldr	r2, [sp, #16]
 1181 0084 039B     		ldr	r3, [sp, #12]
 1182 0086 5833     		adds	r3, r3, #88
 1183 0088 5B01     		lsls	r3, r3, #5
 1184 008a 1344     		add	r3, r3, r2
 1185 008c 1B68     		ldr	r3, [r3]
 1186 008e 002B     		cmp	r3, #0
 1187 0090 14DA     		bge	.L92
 1188              		.loc 7 156 0
ARM GAS  C:\Users\PCHAUT~1\AppData\Local\Temp\ccJuO4y2.s 			page 22


 1189 0092 049A     		ldr	r2, [sp, #16]
 1190 0094 039B     		ldr	r3, [sp, #12]
 1191 0096 5833     		adds	r3, r3, #88
 1192 0098 5B01     		lsls	r3, r3, #5
 1193 009a 1344     		add	r3, r3, r2
 1194 009c 4FF08042 		mov	r2, #1073741824
 1195 00a0 1A60     		str	r2, [r3]
 1196              		.loc 7 158 0
 1197 00a2 00BF     		nop
 1198              	.L93:
 1199              		.loc 7 158 0 is_stmt 0 discriminator 1
 1200 00a4 049A     		ldr	r2, [sp, #16]
 1201 00a6 039B     		ldr	r3, [sp, #12]
 1202 00a8 5B01     		lsls	r3, r3, #5
 1203 00aa 1344     		add	r3, r3, r2
 1204 00ac 03F60833 		addw	r3, r3, #2824
 1205 00b0 1B68     		ldr	r3, [r3]
 1206 00b2 03F01003 		and	r3, r3, #16
 1207 00b6 002B     		cmp	r3, #0
 1208 00b8 F4D0     		beq	.L93
 1209 00ba 06E0     		b	.L94
 1210              	.L92:
 1211              		.loc 7 162 0 is_stmt 1
 1212 00bc 049A     		ldr	r2, [sp, #16]
 1213 00be 039B     		ldr	r3, [sp, #12]
 1214 00c0 5833     		adds	r3, r3, #88
 1215 00c2 5B01     		lsls	r3, r3, #5
 1216 00c4 1344     		add	r3, r3, r2
 1217 00c6 0022     		movs	r2, #0
 1218 00c8 1A60     		str	r2, [r3]
 1219              	.L94:
 1220              		.loc 7 163 0 discriminator 2
 1221 00ca 049A     		ldr	r2, [sp, #16]
 1222 00cc 039B     		ldr	r3, [sp, #12]
 1223 00ce 5B01     		lsls	r3, r3, #5
 1224 00d0 1344     		add	r3, r3, r2
 1225 00d2 03F53163 		add	r3, r3, #2832
 1226 00d6 0022     		movs	r2, #0
 1227 00d8 1A60     		str	r2, [r3]
 1228              		.loc 7 164 0 discriminator 2
 1229 00da 049A     		ldr	r2, [sp, #16]
 1230 00dc 039B     		ldr	r3, [sp, #12]
 1231 00de 5B01     		lsls	r3, r3, #5
 1232 00e0 1344     		add	r3, r3, r2
 1233 00e2 03F60833 		addw	r3, r3, #2824
 1234 00e6 4FF0FF32 		mov	r2, #-1
 1235 00ea 1A60     		str	r2, [r3]
 1236              		.loc 7 136 0 discriminator 2
 1237 00ec 039B     		ldr	r3, [sp, #12]
 1238 00ee 0133     		adds	r3, r3, #1
 1239 00f0 0393     		str	r3, [sp, #12]
 1240              	.L88:
 1241              		.loc 7 136 0 is_stmt 0 discriminator 1
 1242 00f2 019B     		ldr	r3, [sp, #4]
 1243 00f4 5B6D     		ldr	r3, [r3, #84]
 1244 00f6 9B68     		ldr	r3, [r3, #8]
 1245 00f8 039A     		ldr	r2, [sp, #12]
ARM GAS  C:\Users\PCHAUT~1\AppData\Local\Temp\ccJuO4y2.s 			page 23


 1246 00fa 9A42     		cmp	r2, r3
 1247 00fc 8CD9     		bls	.L95
 1248              		.loc 7 166 0 is_stmt 1
 1249 00fe 049B     		ldr	r3, [sp, #16]
 1250 0100 4FF00112 		mov	r2, #65537
 1251 0104 C3F81C28 		str	r2, [r3, #2076]
 1252              		.loc 7 167 0
 1253 0108 00BF     		nop
 1254 010a 054B     		ldr	r3, .L97
 1255 010c 059A     		ldr	r2, [sp, #20]
 1256 010e 1B68     		ldr	r3, [r3]
 1257 0110 9A42     		cmp	r2, r3
 1258 0112 01D0     		beq	.L96
 1259 0114 FFF7FEFF 		bl	__stack_chk_fail
 1260              	.L96:
 1261 0118 07B0     		add	sp, sp, #28
 1262              		.cfi_def_cfa_offset 4
 1263              		@ sp needed
 1264 011a 5DF804FB 		ldr	pc, [sp], #4
 1265              	.L98:
 1266 011e 00BF     		.align	2
 1267              	.L97:
 1268 0120 00000000 		.word	__stack_chk_guard
 1269              		.cfi_endproc
 1270              	.LFE257:
 1271              		.size	otg_disable_ep, .-otg_disable_ep
 1272              		.section	.text.otg_rxfifo_flush,"ax",%progbits
 1273              		.align	1
 1274              		.p2align 4,,15
 1275              		.syntax unified
 1276              		.thumb
 1277              		.thumb_func
 1278              		.fpu fpv4-sp-d16
 1279              		.type	otg_rxfifo_flush, %function
 1280              	otg_rxfifo_flush:
 1281              	.LFB258:
 1282              		.loc 7 169 0
 1283              		.cfi_startproc
 1284              		@ args = 0, pretend = 0, frame = 16
 1285              		@ frame_needed = 0, uses_anonymous_args = 0
 1286 0000 00B5     		push	{lr}
 1287              		.cfi_def_cfa_offset 4
 1288              		.cfi_offset 14, -4
 1289 0002 85B0     		sub	sp, sp, #20
 1290              		.cfi_def_cfa_offset 24
 1291 0004 0190     		str	r0, [sp, #4]
 1292              		.loc 7 169 0
 1293 0006 0F4B     		ldr	r3, .L102
 1294 0008 1B68     		ldr	r3, [r3]
 1295 000a 0393     		str	r3, [sp, #12]
 1296              		.loc 7 170 0
 1297 000c 019B     		ldr	r3, [sp, #4]
 1298 000e 1B6D     		ldr	r3, [r3, #80]
 1299 0010 0293     		str	r3, [sp, #8]
 1300              		.loc 7 172 0
 1301 0012 029B     		ldr	r3, [sp, #8]
 1302 0014 1022     		movs	r2, #16
ARM GAS  C:\Users\PCHAUT~1\AppData\Local\Temp\ccJuO4y2.s 			page 24


 1303 0016 1A61     		str	r2, [r3, #16]
 1304              		.loc 7 173 0
 1305 0018 00BF     		nop
 1306              	.L100:
 1307              		.loc 7 173 0 is_stmt 0 discriminator 1
 1308 001a 029B     		ldr	r3, [sp, #8]
 1309 001c 1B69     		ldr	r3, [r3, #16]
 1310 001e 03F01003 		and	r3, r3, #16
 1311 0022 002B     		cmp	r3, #0
 1312 0024 F9D1     		bne	.L100
 1313              		.loc 7 176 0 is_stmt 1
 1314 0026 0C20     		movs	r0, #12
 1315 0028 FFF7FEFF 		bl	osalSysPolledDelayX
 1316              		.loc 7 177 0
 1317 002c 00BF     		nop
 1318 002e 054B     		ldr	r3, .L102
 1319 0030 039A     		ldr	r2, [sp, #12]
 1320 0032 1B68     		ldr	r3, [r3]
 1321 0034 9A42     		cmp	r2, r3
 1322 0036 01D0     		beq	.L101
 1323 0038 FFF7FEFF 		bl	__stack_chk_fail
 1324              	.L101:
 1325 003c 05B0     		add	sp, sp, #20
 1326              		.cfi_def_cfa_offset 4
 1327              		@ sp needed
 1328 003e 5DF804FB 		ldr	pc, [sp], #4
 1329              	.L103:
 1330 0042 00BF     		.align	2
 1331              	.L102:
 1332 0044 00000000 		.word	__stack_chk_guard
 1333              		.cfi_endproc
 1334              	.LFE258:
 1335              		.size	otg_rxfifo_flush, .-otg_rxfifo_flush
 1336              		.section	.text.otg_txfifo_flush,"ax",%progbits
 1337              		.align	1
 1338              		.p2align 4,,15
 1339              		.syntax unified
 1340              		.thumb
 1341              		.thumb_func
 1342              		.fpu fpv4-sp-d16
 1343              		.type	otg_txfifo_flush, %function
 1344              	otg_txfifo_flush:
 1345              	.LFB259:
 1346              		.loc 7 179 0
 1347              		.cfi_startproc
 1348              		@ args = 0, pretend = 0, frame = 16
 1349              		@ frame_needed = 0, uses_anonymous_args = 0
 1350 0000 00B5     		push	{lr}
 1351              		.cfi_def_cfa_offset 4
 1352              		.cfi_offset 14, -4
 1353 0002 85B0     		sub	sp, sp, #20
 1354              		.cfi_def_cfa_offset 24
 1355 0004 0190     		str	r0, [sp, #4]
 1356 0006 0091     		str	r1, [sp]
 1357              		.loc 7 179 0
 1358 0008 104B     		ldr	r3, .L107
 1359 000a 1B68     		ldr	r3, [r3]
ARM GAS  C:\Users\PCHAUT~1\AppData\Local\Temp\ccJuO4y2.s 			page 25


 1360 000c 0393     		str	r3, [sp, #12]
 1361              		.loc 7 180 0
 1362 000e 019B     		ldr	r3, [sp, #4]
 1363 0010 1B6D     		ldr	r3, [r3, #80]
 1364 0012 0293     		str	r3, [sp, #8]
 1365              		.loc 7 182 0
 1366 0014 009B     		ldr	r3, [sp]
 1367 0016 9B01     		lsls	r3, r3, #6
 1368 0018 43F02002 		orr	r2, r3, #32
 1369 001c 029B     		ldr	r3, [sp, #8]
 1370 001e 1A61     		str	r2, [r3, #16]
 1371              		.loc 7 183 0
 1372 0020 00BF     		nop
 1373              	.L105:
 1374              		.loc 7 183 0 is_stmt 0 discriminator 1
 1375 0022 029B     		ldr	r3, [sp, #8]
 1376 0024 1B69     		ldr	r3, [r3, #16]
 1377 0026 03F02003 		and	r3, r3, #32
 1378 002a 002B     		cmp	r3, #0
 1379 002c F9D1     		bne	.L105
 1380              		.loc 7 186 0 is_stmt 1
 1381 002e 0C20     		movs	r0, #12
 1382 0030 FFF7FEFF 		bl	osalSysPolledDelayX
 1383              		.loc 7 187 0
 1384 0034 00BF     		nop
 1385 0036 054B     		ldr	r3, .L107
 1386 0038 039A     		ldr	r2, [sp, #12]
 1387 003a 1B68     		ldr	r3, [r3]
 1388 003c 9A42     		cmp	r2, r3
 1389 003e 01D0     		beq	.L106
 1390 0040 FFF7FEFF 		bl	__stack_chk_fail
 1391              	.L106:
 1392 0044 05B0     		add	sp, sp, #20
 1393              		.cfi_def_cfa_offset 4
 1394              		@ sp needed
 1395 0046 5DF804FB 		ldr	pc, [sp], #4
 1396              	.L108:
 1397 004a 00BF     		.align	2
 1398              	.L107:
 1399 004c 00000000 		.word	__stack_chk_guard
 1400              		.cfi_endproc
 1401              	.LFE259:
 1402              		.size	otg_txfifo_flush, .-otg_txfifo_flush
 1403              		.section	.text.otg_ram_reset,"ax",%progbits
 1404              		.align	1
 1405              		.p2align 4,,15
 1406              		.syntax unified
 1407              		.thumb
 1408              		.thumb_func
 1409              		.fpu fpv4-sp-d16
 1410              		.type	otg_ram_reset, %function
 1411              	otg_ram_reset:
 1412              	.LFB260:
 1413              		.loc 7 196 0
 1414              		.cfi_startproc
 1415              		@ args = 0, pretend = 0, frame = 16
 1416              		@ frame_needed = 0, uses_anonymous_args = 0
ARM GAS  C:\Users\PCHAUT~1\AppData\Local\Temp\ccJuO4y2.s 			page 26


 1417 0000 00B5     		push	{lr}
 1418              		.cfi_def_cfa_offset 4
 1419              		.cfi_offset 14, -4
 1420 0002 85B0     		sub	sp, sp, #20
 1421              		.cfi_def_cfa_offset 24
 1422 0004 0190     		str	r0, [sp, #4]
 1423              		.loc 7 196 0
 1424 0006 094B     		ldr	r3, .L111
 1425 0008 1B68     		ldr	r3, [r3]
 1426 000a 0393     		str	r3, [sp, #12]
 1427              		.loc 7 198 0
 1428 000c 019B     		ldr	r3, [sp, #4]
 1429 000e 5B6D     		ldr	r3, [r3, #84]
 1430 0010 1A68     		ldr	r2, [r3]
 1431 0012 019B     		ldr	r3, [sp, #4]
 1432 0014 9A65     		str	r2, [r3, #88]
 1433              		.loc 7 199 0
 1434 0016 00BF     		nop
 1435 0018 044B     		ldr	r3, .L111
 1436 001a 039A     		ldr	r2, [sp, #12]
 1437 001c 1B68     		ldr	r3, [r3]
 1438 001e 9A42     		cmp	r2, r3
 1439 0020 01D0     		beq	.L110
 1440 0022 FFF7FEFF 		bl	__stack_chk_fail
 1441              	.L110:
 1442 0026 05B0     		add	sp, sp, #20
 1443              		.cfi_def_cfa_offset 4
 1444              		@ sp needed
 1445 0028 5DF804FB 		ldr	pc, [sp], #4
 1446              	.L112:
 1447              		.align	2
 1448              	.L111:
 1449 002c 00000000 		.word	__stack_chk_guard
 1450              		.cfi_endproc
 1451              	.LFE260:
 1452              		.size	otg_ram_reset, .-otg_ram_reset
 1453              		.section	.text.otg_ram_alloc,"ax",%progbits
 1454              		.align	1
 1455              		.p2align 4,,15
 1456              		.syntax unified
 1457              		.thumb
 1458              		.thumb_func
 1459              		.fpu fpv4-sp-d16
 1460              		.type	otg_ram_alloc, %function
 1461              	otg_ram_alloc:
 1462              	.LFB261:
 1463              		.loc 7 209 0
 1464              		.cfi_startproc
 1465              		@ args = 0, pretend = 0, frame = 16
 1466              		@ frame_needed = 0, uses_anonymous_args = 0
 1467 0000 00B5     		push	{lr}
 1468              		.cfi_def_cfa_offset 4
 1469              		.cfi_offset 14, -4
 1470 0002 85B0     		sub	sp, sp, #20
 1471              		.cfi_def_cfa_offset 24
 1472 0004 0190     		str	r0, [sp, #4]
 1473 0006 0091     		str	r1, [sp]
ARM GAS  C:\Users\PCHAUT~1\AppData\Local\Temp\ccJuO4y2.s 			page 27


 1474              		.loc 7 209 0
 1475 0008 104B     		ldr	r3, .L117
 1476 000a 1B68     		ldr	r3, [r3]
 1477 000c 0393     		str	r3, [sp, #12]
 1478              		.loc 7 212 0
 1479 000e 019B     		ldr	r3, [sp, #4]
 1480 0010 9B6D     		ldr	r3, [r3, #88]
 1481 0012 0293     		str	r3, [sp, #8]
 1482              		.loc 7 213 0
 1483 0014 019B     		ldr	r3, [sp, #4]
 1484 0016 9A6D     		ldr	r2, [r3, #88]
 1485 0018 009B     		ldr	r3, [sp]
 1486 001a 1A44     		add	r2, r2, r3
 1487 001c 019B     		ldr	r3, [sp, #4]
 1488 001e 9A65     		str	r2, [r3, #88]
 1489              		.loc 7 214 0
 1490 0020 019B     		ldr	r3, [sp, #4]
 1491 0022 9A6D     		ldr	r2, [r3, #88]
 1492 0024 019B     		ldr	r3, [sp, #4]
 1493 0026 5B6D     		ldr	r3, [r3, #84]
 1494 0028 5B68     		ldr	r3, [r3, #4]
 1495 002a 9A42     		cmp	r2, r3
 1496 002c 02D9     		bls	.L114
 1497              		.loc 7 214 0 is_stmt 0 discriminator 2
 1498 002e 0848     		ldr	r0, .L117+4
 1499 0030 FFF7FEFF 		bl	chSysHalt
 1500              	.L114:
 1501              		.loc 7 216 0 is_stmt 1
 1502 0034 029B     		ldr	r3, [sp, #8]
 1503              		.loc 7 217 0
 1504 0036 1846     		mov	r0, r3
 1505 0038 044B     		ldr	r3, .L117
 1506 003a 039A     		ldr	r2, [sp, #12]
 1507 003c 1B68     		ldr	r3, [r3]
 1508 003e 9A42     		cmp	r2, r3
 1509 0040 01D0     		beq	.L116
 1510 0042 FFF7FEFF 		bl	__stack_chk_fail
 1511              	.L116:
 1512 0046 05B0     		add	sp, sp, #20
 1513              		.cfi_def_cfa_offset 4
 1514              		@ sp needed
 1515 0048 5DF804FB 		ldr	pc, [sp], #4
 1516              	.L118:
 1517              		.align	2
 1518              	.L117:
 1519 004c 00000000 		.word	__stack_chk_guard
 1520 0050 00000000 		.word	__func__.10294
 1521              		.cfi_endproc
 1522              	.LFE261:
 1523              		.size	otg_ram_alloc, .-otg_ram_alloc
 1524              		.section	.text.otg_do_push,"ax",%progbits
 1525              		.align	1
 1526              		.p2align 4,,15
 1527              		.syntax unified
 1528              		.thumb
 1529              		.thumb_func
 1530              		.fpu fpv4-sp-d16
ARM GAS  C:\Users\PCHAUT~1\AppData\Local\Temp\ccJuO4y2.s 			page 28


 1531              		.type	otg_do_push, %function
 1532              	otg_do_push:
 1533              	.LFB262:
 1534              		.loc 7 231 0
 1535              		.cfi_startproc
 1536              		@ args = 0, pretend = 0, frame = 24
 1537              		@ frame_needed = 0, uses_anonymous_args = 0
 1538 0000 00B5     		push	{lr}
 1539              		.cfi_def_cfa_offset 4
 1540              		.cfi_offset 14, -4
 1541 0002 87B0     		sub	sp, sp, #28
 1542              		.cfi_def_cfa_offset 32
 1543 0004 0390     		str	r0, [sp, #12]
 1544 0006 0291     		str	r1, [sp, #8]
 1545 0008 0192     		str	r2, [sp, #4]
 1546              		.loc 7 231 0
 1547 000a 0E4B     		ldr	r3, .L124
 1548 000c 1B68     		ldr	r3, [r3]
 1549 000e 0593     		str	r3, [sp, #20]
 1550              		.loc 7 233 0
 1551 0010 09E0     		b	.L120
 1552              	.L121:
 1553              		.loc 7 236 0
 1554 0012 029B     		ldr	r3, [sp, #8]
 1555 0014 1A68     		ldr	r2, [r3]
 1556 0016 039B     		ldr	r3, [sp, #12]
 1557 0018 1A60     		str	r2, [r3]
 1558              		.loc 7 237 0
 1559 001a 029B     		ldr	r3, [sp, #8]
 1560 001c 0433     		adds	r3, r3, #4
 1561 001e 0293     		str	r3, [sp, #8]
 1562              		.loc 7 238 0
 1563 0020 019B     		ldr	r3, [sp, #4]
 1564 0022 013B     		subs	r3, r3, #1
 1565 0024 0193     		str	r3, [sp, #4]
 1566              	.L120:
 1567              		.loc 7 233 0
 1568 0026 019B     		ldr	r3, [sp, #4]
 1569 0028 002B     		cmp	r3, #0
 1570 002a F2D1     		bne	.L121
 1571              		.loc 7 240 0
 1572 002c 029B     		ldr	r3, [sp, #8]
 1573              		.loc 7 241 0
 1574 002e 1846     		mov	r0, r3
 1575 0030 044B     		ldr	r3, .L124
 1576 0032 059A     		ldr	r2, [sp, #20]
 1577 0034 1B68     		ldr	r3, [r3]
 1578 0036 9A42     		cmp	r2, r3
 1579 0038 01D0     		beq	.L123
 1580 003a FFF7FEFF 		bl	__stack_chk_fail
 1581              	.L123:
 1582 003e 07B0     		add	sp, sp, #28
 1583              		.cfi_def_cfa_offset 4
 1584              		@ sp needed
 1585 0040 5DF804FB 		ldr	pc, [sp], #4
 1586              	.L125:
 1587              		.align	2
ARM GAS  C:\Users\PCHAUT~1\AppData\Local\Temp\ccJuO4y2.s 			page 29


 1588              	.L124:
 1589 0044 00000000 		.word	__stack_chk_guard
 1590              		.cfi_endproc
 1591              	.LFE262:
 1592              		.size	otg_do_push, .-otg_do_push
 1593              		.section	.text.otg_fifo_write_from_buffer,"ax",%progbits
 1594              		.align	1
 1595              		.p2align 4,,15
 1596              		.syntax unified
 1597              		.thumb
 1598              		.thumb_func
 1599              		.fpu fpv4-sp-d16
 1600              		.type	otg_fifo_write_from_buffer, %function
 1601              	otg_fifo_write_from_buffer:
 1602              	.LFB263:
 1603              		.loc 7 254 0
 1604              		.cfi_startproc
 1605              		@ args = 0, pretend = 0, frame = 24
 1606              		@ frame_needed = 0, uses_anonymous_args = 0
 1607 0000 00B5     		push	{lr}
 1608              		.cfi_def_cfa_offset 4
 1609              		.cfi_offset 14, -4
 1610 0002 87B0     		sub	sp, sp, #28
 1611              		.cfi_def_cfa_offset 32
 1612 0004 0390     		str	r0, [sp, #12]
 1613 0006 0291     		str	r1, [sp, #8]
 1614 0008 0192     		str	r2, [sp, #4]
 1615              		.loc 7 254 0
 1616 000a 0B4B     		ldr	r3, .L128
 1617 000c 1B68     		ldr	r3, [r3]
 1618 000e 0593     		str	r3, [sp, #20]
 1619              		.loc 7 256 0
 1620 0010 019B     		ldr	r3, [sp, #4]
 1621 0012 0333     		adds	r3, r3, #3
 1622 0014 9B08     		lsrs	r3, r3, #2
 1623 0016 1A46     		mov	r2, r3
 1624 0018 0299     		ldr	r1, [sp, #8]
 1625 001a 0398     		ldr	r0, [sp, #12]
 1626 001c FFF7FEFF 		bl	otg_do_push
 1627              		.loc 7 257 0
 1628 0020 00BF     		nop
 1629 0022 054B     		ldr	r3, .L128
 1630 0024 059A     		ldr	r2, [sp, #20]
 1631 0026 1B68     		ldr	r3, [r3]
 1632 0028 9A42     		cmp	r2, r3
 1633 002a 01D0     		beq	.L127
 1634 002c FFF7FEFF 		bl	__stack_chk_fail
 1635              	.L127:
 1636 0030 07B0     		add	sp, sp, #28
 1637              		.cfi_def_cfa_offset 4
 1638              		@ sp needed
 1639 0032 5DF804FB 		ldr	pc, [sp], #4
 1640              	.L129:
 1641 0036 00BF     		.align	2
 1642              	.L128:
 1643 0038 00000000 		.word	__stack_chk_guard
 1644              		.cfi_endproc
ARM GAS  C:\Users\PCHAUT~1\AppData\Local\Temp\ccJuO4y2.s 			page 30


 1645              	.LFE263:
 1646              		.size	otg_fifo_write_from_buffer, .-otg_fifo_write_from_buffer
 1647              		.section	.text.otg_fifo_write_from_queue,"ax",%progbits
 1648              		.align	1
 1649              		.p2align 4,,15
 1650              		.syntax unified
 1651              		.thumb
 1652              		.thumb_func
 1653              		.fpu fpv4-sp-d16
 1654              		.type	otg_fifo_write_from_queue, %function
 1655              	otg_fifo_write_from_queue:
 1656              	.LFB264:
 1657              		.loc 7 270 0
 1658              		.cfi_startproc
 1659              		@ args = 0, pretend = 0, frame = 48
 1660              		@ frame_needed = 0, uses_anonymous_args = 0
 1661 0000 00B5     		push	{lr}
 1662              		.cfi_def_cfa_offset 4
 1663              		.cfi_offset 14, -4
 1664 0002 8DB0     		sub	sp, sp, #52
 1665              		.cfi_def_cfa_offset 56
 1666 0004 0390     		str	r0, [sp, #12]
 1667 0006 0291     		str	r1, [sp, #8]
 1668 0008 0192     		str	r2, [sp, #4]
 1669              		.loc 7 270 0
 1670 000a 434B     		ldr	r3, .L143
 1671 000c 1B68     		ldr	r3, [r3]
 1672 000e 0B93     		str	r3, [sp, #44]
 1673              		.loc 7 273 0
 1674 0010 019B     		ldr	r3, [sp, #4]
 1675 0012 0593     		str	r3, [sp, #20]
 1676              		.loc 7 274 0
 1677 0014 5FE0     		b	.L131
 1678              	.L140:
 1679              	.LBB10:
 1680              		.loc 7 276 0
 1681 0016 059B     		ldr	r3, [sp, #20]
 1682 0018 9B08     		lsrs	r3, r3, #2
 1683 001a 0893     		str	r3, [sp, #32]
 1684              		.loc 7 278 0
 1685 001c 089B     		ldr	r3, [sp, #32]
 1686 001e 002B     		cmp	r3, #0
 1687 0020 2AD0     		beq	.L132
 1688              	.LBB11:
 1689              		.loc 7 280 0
 1690 0022 029B     		ldr	r3, [sp, #8]
 1691 0024 1B69     		ldr	r3, [r3, #16]
 1692 0026 1A46     		mov	r2, r3
 1693 0028 029B     		ldr	r3, [sp, #8]
 1694 002a 9B69     		ldr	r3, [r3, #24]
 1695 002c D31A     		subs	r3, r2, r3
 1696 002e 002B     		cmp	r3, #0
 1697 0030 00DA     		bge	.L133
 1698 0032 0333     		adds	r3, r3, #3
 1699              	.L133:
 1700 0034 9B10     		asrs	r3, r3, #2
 1701 0036 0993     		str	r3, [sp, #36]
ARM GAS  C:\Users\PCHAUT~1\AppData\Local\Temp\ccJuO4y2.s 			page 31


 1702              		.loc 7 282 0
 1703 0038 089A     		ldr	r2, [sp, #32]
 1704 003a 099B     		ldr	r3, [sp, #36]
 1705 003c 9342     		cmp	r3, r2
 1706 003e 28BF     		it	cs
 1707 0040 1346     		movcs	r3, r2
 1708 0042 0A93     		str	r3, [sp, #40]
 1709 0044 0A9B     		ldr	r3, [sp, #40]
 1710 0046 9B00     		lsls	r3, r3, #2
 1711 0048 059A     		ldr	r2, [sp, #20]
 1712 004a D31A     		subs	r3, r2, r3
 1713 004c 0593     		str	r3, [sp, #20]
 1714              		.loc 7 283 0
 1715 004e 029B     		ldr	r3, [sp, #8]
 1716 0050 9B69     		ldr	r3, [r3, #24]
 1717 0052 0A9A     		ldr	r2, [sp, #40]
 1718 0054 1946     		mov	r1, r3
 1719 0056 0398     		ldr	r0, [sp, #12]
 1720 0058 FFF7FEFF 		bl	otg_do_push
 1721 005c 0246     		mov	r2, r0
 1722 005e 029B     		ldr	r3, [sp, #8]
 1723 0060 9A61     		str	r2, [r3, #24]
 1724              		.loc 7 284 0
 1725 0062 029B     		ldr	r3, [sp, #8]
 1726 0064 9A69     		ldr	r2, [r3, #24]
 1727 0066 029B     		ldr	r3, [sp, #8]
 1728 0068 1B69     		ldr	r3, [r3, #16]
 1729 006a 9A42     		cmp	r2, r3
 1730 006c 04D3     		bcc	.L132
 1731              		.loc 7 285 0
 1732 006e 029B     		ldr	r3, [sp, #8]
 1733 0070 DA68     		ldr	r2, [r3, #12]
 1734 0072 029B     		ldr	r3, [sp, #8]
 1735 0074 9A61     		str	r2, [r3, #24]
 1736              		.loc 7 286 0
 1737 0076 2EE0     		b	.L131
 1738              	.L132:
 1739              	.LBE11:
 1740              		.loc 7 292 0
 1741 0078 059B     		ldr	r3, [sp, #20]
 1742 007a 002B     		cmp	r3, #0
 1743 007c 2FD0     		beq	.L142
 1744              		.loc 7 296 0
 1745 007e 0023     		movs	r3, #0
 1746 0080 0693     		str	r3, [sp, #24]
 1747              		.loc 7 297 0
 1748 0082 0023     		movs	r3, #0
 1749 0084 0793     		str	r3, [sp, #28]
 1750              		.loc 7 298 0
 1751 0086 1DE0     		b	.L136
 1752              	.L139:
 1753              		.loc 7 299 0
 1754 0088 029B     		ldr	r3, [sp, #8]
 1755 008a 9B69     		ldr	r3, [r3, #24]
 1756 008c 591C     		adds	r1, r3, #1
 1757 008e 029A     		ldr	r2, [sp, #8]
 1758 0090 9161     		str	r1, [r2, #24]
ARM GAS  C:\Users\PCHAUT~1\AppData\Local\Temp\ccJuO4y2.s 			page 32


 1759 0092 1B78     		ldrb	r3, [r3]	@ zero_extendqisi2
 1760 0094 1A46     		mov	r2, r3
 1761 0096 079B     		ldr	r3, [sp, #28]
 1762 0098 DB00     		lsls	r3, r3, #3
 1763 009a 02FA03F3 		lsl	r3, r2, r3
 1764 009e 069A     		ldr	r2, [sp, #24]
 1765 00a0 1343     		orrs	r3, r3, r2
 1766 00a2 0693     		str	r3, [sp, #24]
 1767              		.loc 7 300 0
 1768 00a4 029B     		ldr	r3, [sp, #8]
 1769 00a6 9A69     		ldr	r2, [r3, #24]
 1770 00a8 029B     		ldr	r3, [sp, #8]
 1771 00aa 1B69     		ldr	r3, [r3, #16]
 1772 00ac 9A42     		cmp	r2, r3
 1773 00ae 03D3     		bcc	.L137
 1774              		.loc 7 301 0
 1775 00b0 029B     		ldr	r3, [sp, #8]
 1776 00b2 DA68     		ldr	r2, [r3, #12]
 1777 00b4 029B     		ldr	r3, [sp, #8]
 1778 00b6 9A61     		str	r2, [r3, #24]
 1779              	.L137:
 1780              		.loc 7 302 0
 1781 00b8 059B     		ldr	r3, [sp, #20]
 1782 00ba 013B     		subs	r3, r3, #1
 1783 00bc 0593     		str	r3, [sp, #20]
 1784              		.loc 7 303 0
 1785 00be 079B     		ldr	r3, [sp, #28]
 1786 00c0 0133     		adds	r3, r3, #1
 1787 00c2 0793     		str	r3, [sp, #28]
 1788              	.L136:
 1789              		.loc 7 298 0
 1790 00c4 059B     		ldr	r3, [sp, #20]
 1791 00c6 002B     		cmp	r3, #0
 1792 00c8 02D0     		beq	.L138
 1793              		.loc 7 298 0 is_stmt 0 discriminator 1
 1794 00ca 079B     		ldr	r3, [sp, #28]
 1795 00cc 032B     		cmp	r3, #3
 1796 00ce DBD9     		bls	.L139
 1797              	.L138:
 1798              		.loc 7 305 0 is_stmt 1
 1799 00d0 039B     		ldr	r3, [sp, #12]
 1800 00d2 069A     		ldr	r2, [sp, #24]
 1801 00d4 1A60     		str	r2, [r3]
 1802              	.L131:
 1803              	.LBE10:
 1804              		.loc 7 274 0
 1805 00d6 059B     		ldr	r3, [sp, #20]
 1806 00d8 002B     		cmp	r3, #0
 1807 00da 9CD1     		bne	.L140
 1808 00dc 00E0     		b	.L135
 1809              	.L142:
 1810              	.LBB12:
 1811              		.loc 7 293 0
 1812 00de 00BF     		nop
 1813              	.L135:
 1814              	.LBE12:
 1815              		.loc 7 309 0
ARM GAS  C:\Users\PCHAUT~1\AppData\Local\Temp\ccJuO4y2.s 			page 33


 1816 00e0 FFF7FEFF 		bl	osalSysLock
 1817              		.loc 7 310 0
 1818 00e4 029B     		ldr	r3, [sp, #8]
 1819 00e6 9A68     		ldr	r2, [r3, #8]
 1820 00e8 019B     		ldr	r3, [sp, #4]
 1821 00ea 1A44     		add	r2, r2, r3
 1822 00ec 029B     		ldr	r3, [sp, #8]
 1823 00ee 9A60     		str	r2, [r3, #8]
 1824              		.loc 7 311 0
 1825 00f0 029B     		ldr	r3, [sp, #8]
 1826 00f2 0021     		movs	r1, #0
 1827 00f4 1846     		mov	r0, r3
 1828 00f6 FFF7FEFF 		bl	osalThreadDequeueAllI
 1829              		.loc 7 312 0
 1830 00fa FFF7FEFF 		bl	osalOsRescheduleS
 1831              		.loc 7 313 0
 1832 00fe FFF7FEFF 		bl	osalSysUnlock
 1833              		.loc 7 314 0
 1834 0102 00BF     		nop
 1835 0104 044B     		ldr	r3, .L143
 1836 0106 0B9A     		ldr	r2, [sp, #44]
 1837 0108 1B68     		ldr	r3, [r3]
 1838 010a 9A42     		cmp	r2, r3
 1839 010c 01D0     		beq	.L141
 1840 010e FFF7FEFF 		bl	__stack_chk_fail
 1841              	.L141:
 1842 0112 0DB0     		add	sp, sp, #52
 1843              		.cfi_def_cfa_offset 4
 1844              		@ sp needed
 1845 0114 5DF804FB 		ldr	pc, [sp], #4
 1846              	.L144:
 1847              		.align	2
 1848              	.L143:
 1849 0118 00000000 		.word	__stack_chk_guard
 1850              		.cfi_endproc
 1851              	.LFE264:
 1852              		.size	otg_fifo_write_from_queue, .-otg_fifo_write_from_queue
 1853              		.section	.text.otg_do_pop,"ax",%progbits
 1854              		.align	1
 1855              		.p2align 4,,15
 1856              		.syntax unified
 1857              		.thumb
 1858              		.thumb_func
 1859              		.fpu fpv4-sp-d16
 1860              		.type	otg_do_pop, %function
 1861              	otg_do_pop:
 1862              	.LFB265:
 1863              		.loc 7 328 0
 1864              		.cfi_startproc
 1865              		@ args = 0, pretend = 0, frame = 24
 1866              		@ frame_needed = 0, uses_anonymous_args = 0
 1867 0000 00B5     		push	{lr}
 1868              		.cfi_def_cfa_offset 4
 1869              		.cfi_offset 14, -4
 1870 0002 87B0     		sub	sp, sp, #28
 1871              		.cfi_def_cfa_offset 32
 1872 0004 0390     		str	r0, [sp, #12]
ARM GAS  C:\Users\PCHAUT~1\AppData\Local\Temp\ccJuO4y2.s 			page 34


 1873 0006 0291     		str	r1, [sp, #8]
 1874 0008 0192     		str	r2, [sp, #4]
 1875              		.loc 7 328 0
 1876 000a 0F4B     		ldr	r3, .L150
 1877 000c 1B68     		ldr	r3, [r3]
 1878 000e 0593     		str	r3, [sp, #20]
 1879              		.loc 7 330 0
 1880 0010 0BE0     		b	.L146
 1881              	.L147:
 1882              	.LBB13:
 1883              		.loc 7 331 0
 1884 0012 039B     		ldr	r3, [sp, #12]
 1885 0014 1B68     		ldr	r3, [r3]
 1886 0016 0493     		str	r3, [sp, #16]
 1887              		.loc 7 334 0
 1888 0018 029B     		ldr	r3, [sp, #8]
 1889 001a 049A     		ldr	r2, [sp, #16]
 1890 001c 1A60     		str	r2, [r3]
 1891              		.loc 7 335 0
 1892 001e 029B     		ldr	r3, [sp, #8]
 1893 0020 0433     		adds	r3, r3, #4
 1894 0022 0293     		str	r3, [sp, #8]
 1895              		.loc 7 336 0
 1896 0024 019B     		ldr	r3, [sp, #4]
 1897 0026 013B     		subs	r3, r3, #1
 1898 0028 0193     		str	r3, [sp, #4]
 1899              	.L146:
 1900              	.LBE13:
 1901              		.loc 7 330 0
 1902 002a 019B     		ldr	r3, [sp, #4]
 1903 002c 002B     		cmp	r3, #0
 1904 002e F0D1     		bne	.L147
 1905              		.loc 7 338 0
 1906 0030 029B     		ldr	r3, [sp, #8]
 1907              		.loc 7 339 0
 1908 0032 1846     		mov	r0, r3
 1909 0034 044B     		ldr	r3, .L150
 1910 0036 059A     		ldr	r2, [sp, #20]
 1911 0038 1B68     		ldr	r3, [r3]
 1912 003a 9A42     		cmp	r2, r3
 1913 003c 01D0     		beq	.L149
 1914 003e FFF7FEFF 		bl	__stack_chk_fail
 1915              	.L149:
 1916 0042 07B0     		add	sp, sp, #28
 1917              		.cfi_def_cfa_offset 4
 1918              		@ sp needed
 1919 0044 5DF804FB 		ldr	pc, [sp], #4
 1920              	.L151:
 1921              		.align	2
 1922              	.L150:
 1923 0048 00000000 		.word	__stack_chk_guard
 1924              		.cfi_endproc
 1925              	.LFE265:
 1926              		.size	otg_do_pop, .-otg_do_pop
 1927              		.section	.text.otg_fifo_read_to_buffer,"ax",%progbits
 1928              		.align	1
 1929              		.p2align 4,,15
ARM GAS  C:\Users\PCHAUT~1\AppData\Local\Temp\ccJuO4y2.s 			page 35


 1930              		.syntax unified
 1931              		.thumb
 1932              		.thumb_func
 1933              		.fpu fpv4-sp-d16
 1934              		.type	otg_fifo_read_to_buffer, %function
 1935              	otg_fifo_read_to_buffer:
 1936              	.LFB266:
 1937              		.loc 7 354 0
 1938              		.cfi_startproc
 1939              		@ args = 0, pretend = 0, frame = 24
 1940              		@ frame_needed = 0, uses_anonymous_args = 0
 1941 0000 00B5     		push	{lr}
 1942              		.cfi_def_cfa_offset 4
 1943              		.cfi_offset 14, -4
 1944 0002 87B0     		sub	sp, sp, #28
 1945              		.cfi_def_cfa_offset 32
 1946 0004 0390     		str	r0, [sp, #12]
 1947 0006 0291     		str	r1, [sp, #8]
 1948 0008 0192     		str	r2, [sp, #4]
 1949 000a 0093     		str	r3, [sp]
 1950              		.loc 7 354 0
 1951 000c 154B     		ldr	r3, .L157
 1952 000e 1B68     		ldr	r3, [r3]
 1953 0010 0593     		str	r3, [sp, #20]
 1954              		.loc 7 356 0
 1955 0012 019B     		ldr	r3, [sp, #4]
 1956 0014 0333     		adds	r3, r3, #3
 1957 0016 9B08     		lsrs	r3, r3, #2
 1958 0018 0193     		str	r3, [sp, #4]
 1959              		.loc 7 357 0
 1960 001a 009B     		ldr	r3, [sp]
 1961 001c 0333     		adds	r3, r3, #3
 1962 001e 9B08     		lsrs	r3, r3, #2
 1963 0020 0093     		str	r3, [sp]
 1964              		.loc 7 358 0
 1965 0022 11E0     		b	.L153
 1966              	.L155:
 1967              	.LBB14:
 1968              		.loc 7 359 0
 1969 0024 039B     		ldr	r3, [sp, #12]
 1970 0026 1B68     		ldr	r3, [r3]
 1971 0028 0493     		str	r3, [sp, #16]
 1972              		.loc 7 360 0
 1973 002a 009B     		ldr	r3, [sp]
 1974 002c 002B     		cmp	r3, #0
 1975 002e 08D0     		beq	.L154
 1976              		.loc 7 363 0
 1977 0030 029B     		ldr	r3, [sp, #8]
 1978 0032 049A     		ldr	r2, [sp, #16]
 1979 0034 1A60     		str	r2, [r3]
 1980              		.loc 7 364 0
 1981 0036 029B     		ldr	r3, [sp, #8]
 1982 0038 0433     		adds	r3, r3, #4
 1983 003a 0293     		str	r3, [sp, #8]
 1984              		.loc 7 365 0
 1985 003c 009B     		ldr	r3, [sp]
 1986 003e 013B     		subs	r3, r3, #1
ARM GAS  C:\Users\PCHAUT~1\AppData\Local\Temp\ccJuO4y2.s 			page 36


 1987 0040 0093     		str	r3, [sp]
 1988              	.L154:
 1989              		.loc 7 367 0
 1990 0042 019B     		ldr	r3, [sp, #4]
 1991 0044 013B     		subs	r3, r3, #1
 1992 0046 0193     		str	r3, [sp, #4]
 1993              	.L153:
 1994              	.LBE14:
 1995              		.loc 7 358 0
 1996 0048 019B     		ldr	r3, [sp, #4]
 1997 004a 002B     		cmp	r3, #0
 1998 004c EAD1     		bne	.L155
 1999              		.loc 7 369 0
 2000 004e 00BF     		nop
 2001 0050 044B     		ldr	r3, .L157
 2002 0052 059A     		ldr	r2, [sp, #20]
 2003 0054 1B68     		ldr	r3, [r3]
 2004 0056 9A42     		cmp	r2, r3
 2005 0058 01D0     		beq	.L156
 2006 005a FFF7FEFF 		bl	__stack_chk_fail
 2007              	.L156:
 2008 005e 07B0     		add	sp, sp, #28
 2009              		.cfi_def_cfa_offset 4
 2010              		@ sp needed
 2011 0060 5DF804FB 		ldr	pc, [sp], #4
 2012              	.L158:
 2013              		.align	2
 2014              	.L157:
 2015 0064 00000000 		.word	__stack_chk_guard
 2016              		.cfi_endproc
 2017              	.LFE266:
 2018              		.size	otg_fifo_read_to_buffer, .-otg_fifo_read_to_buffer
 2019              		.section	.text.otg_fifo_read_to_queue,"ax",%progbits
 2020              		.align	1
 2021              		.p2align 4,,15
 2022              		.syntax unified
 2023              		.thumb
 2024              		.thumb_func
 2025              		.fpu fpv4-sp-d16
 2026              		.type	otg_fifo_read_to_queue, %function
 2027              	otg_fifo_read_to_queue:
 2028              	.LFB267:
 2029              		.loc 7 382 0
 2030              		.cfi_startproc
 2031              		@ args = 0, pretend = 0, frame = 48
 2032              		@ frame_needed = 0, uses_anonymous_args = 0
 2033 0000 00B5     		push	{lr}
 2034              		.cfi_def_cfa_offset 4
 2035              		.cfi_offset 14, -4
 2036 0002 8DB0     		sub	sp, sp, #52
 2037              		.cfi_def_cfa_offset 56
 2038 0004 0390     		str	r0, [sp, #12]
 2039 0006 0291     		str	r1, [sp, #8]
 2040 0008 0192     		str	r2, [sp, #4]
 2041              		.loc 7 382 0
 2042 000a 3D4B     		ldr	r3, .L170
 2043 000c 1B68     		ldr	r3, [r3]
ARM GAS  C:\Users\PCHAUT~1\AppData\Local\Temp\ccJuO4y2.s 			page 37


 2044 000e 0B93     		str	r3, [sp, #44]
 2045              		.loc 7 385 0
 2046 0010 019B     		ldr	r3, [sp, #4]
 2047 0012 0593     		str	r3, [sp, #20]
 2048              		.loc 7 386 0
 2049 0014 52E0     		b	.L160
 2050              	.L167:
 2051              	.LBB15:
 2052              		.loc 7 388 0
 2053 0016 059B     		ldr	r3, [sp, #20]
 2054 0018 9B08     		lsrs	r3, r3, #2
 2055 001a 0793     		str	r3, [sp, #28]
 2056              		.loc 7 390 0
 2057 001c 079B     		ldr	r3, [sp, #28]
 2058 001e 002B     		cmp	r3, #0
 2059 0020 21D0     		beq	.L161
 2060              	.LBB16:
 2061              		.loc 7 392 0
 2062 0022 0023     		movs	r3, #0
 2063 0024 0893     		str	r3, [sp, #32]
 2064              		.loc 7 394 0
 2065 0026 079A     		ldr	r2, [sp, #28]
 2066 0028 089B     		ldr	r3, [sp, #32]
 2067 002a 9342     		cmp	r3, r2
 2068 002c 28BF     		it	cs
 2069 002e 1346     		movcs	r3, r2
 2070 0030 0993     		str	r3, [sp, #36]
 2071 0032 099B     		ldr	r3, [sp, #36]
 2072 0034 9B00     		lsls	r3, r3, #2
 2073 0036 059A     		ldr	r2, [sp, #20]
 2074 0038 D31A     		subs	r3, r2, r3
 2075 003a 0593     		str	r3, [sp, #20]
 2076              		.loc 7 395 0
 2077 003c 029B     		ldr	r3, [sp, #8]
 2078 003e 5B69     		ldr	r3, [r3, #20]
 2079 0040 099A     		ldr	r2, [sp, #36]
 2080 0042 1946     		mov	r1, r3
 2081 0044 0398     		ldr	r0, [sp, #12]
 2082 0046 FFF7FEFF 		bl	otg_do_pop
 2083 004a 0246     		mov	r2, r0
 2084 004c 029B     		ldr	r3, [sp, #8]
 2085 004e 5A61     		str	r2, [r3, #20]
 2086              		.loc 7 396 0
 2087 0050 029B     		ldr	r3, [sp, #8]
 2088 0052 5A69     		ldr	r2, [r3, #20]
 2089 0054 029B     		ldr	r3, [sp, #8]
 2090 0056 1B69     		ldr	r3, [r3, #16]
 2091 0058 9A42     		cmp	r2, r3
 2092 005a 04D3     		bcc	.L161
 2093              		.loc 7 397 0
 2094 005c 029B     		ldr	r3, [sp, #8]
 2095 005e DA68     		ldr	r2, [r3, #12]
 2096 0060 029B     		ldr	r3, [sp, #8]
 2097 0062 5A61     		str	r2, [r3, #20]
 2098              		.loc 7 398 0
 2099 0064 2AE0     		b	.L160
 2100              	.L161:
ARM GAS  C:\Users\PCHAUT~1\AppData\Local\Temp\ccJuO4y2.s 			page 38


 2101              	.LBE16:
 2102              		.loc 7 404 0
 2103 0066 059B     		ldr	r3, [sp, #20]
 2104 0068 002B     		cmp	r3, #0
 2105 006a 2BD0     		beq	.L169
 2106              		.loc 7 408 0
 2107 006c 039B     		ldr	r3, [sp, #12]
 2108 006e 1B68     		ldr	r3, [r3]
 2109 0070 0A93     		str	r3, [sp, #40]
 2110              		.loc 7 409 0
 2111 0072 0023     		movs	r3, #0
 2112 0074 0693     		str	r3, [sp, #24]
 2113              		.loc 7 410 0
 2114 0076 1BE0     		b	.L164
 2115              	.L166:
 2116              		.loc 7 411 0
 2117 0078 069B     		ldr	r3, [sp, #24]
 2118 007a DB00     		lsls	r3, r3, #3
 2119 007c 0A9A     		ldr	r2, [sp, #40]
 2120 007e 22FA03F0 		lsr	r0, r2, r3
 2121 0082 029B     		ldr	r3, [sp, #8]
 2122 0084 5B69     		ldr	r3, [r3, #20]
 2123 0086 591C     		adds	r1, r3, #1
 2124 0088 029A     		ldr	r2, [sp, #8]
 2125 008a 5161     		str	r1, [r2, #20]
 2126 008c C2B2     		uxtb	r2, r0
 2127 008e 1A70     		strb	r2, [r3]
 2128              		.loc 7 412 0
 2129 0090 029B     		ldr	r3, [sp, #8]
 2130 0092 5A69     		ldr	r2, [r3, #20]
 2131 0094 029B     		ldr	r3, [sp, #8]
 2132 0096 1B69     		ldr	r3, [r3, #16]
 2133 0098 9A42     		cmp	r2, r3
 2134 009a 03D3     		bcc	.L165
 2135              		.loc 7 413 0
 2136 009c 029B     		ldr	r3, [sp, #8]
 2137 009e DA68     		ldr	r2, [r3, #12]
 2138 00a0 029B     		ldr	r3, [sp, #8]
 2139 00a2 5A61     		str	r2, [r3, #20]
 2140              	.L165:
 2141              		.loc 7 414 0
 2142 00a4 059B     		ldr	r3, [sp, #20]
 2143 00a6 013B     		subs	r3, r3, #1
 2144 00a8 0593     		str	r3, [sp, #20]
 2145              		.loc 7 415 0
 2146 00aa 069B     		ldr	r3, [sp, #24]
 2147 00ac 0133     		adds	r3, r3, #1
 2148 00ae 0693     		str	r3, [sp, #24]
 2149              	.L164:
 2150              		.loc 7 410 0
 2151 00b0 059B     		ldr	r3, [sp, #20]
 2152 00b2 002B     		cmp	r3, #0
 2153 00b4 02D0     		beq	.L160
 2154              		.loc 7 410 0 is_stmt 0 discriminator 1
 2155 00b6 069B     		ldr	r3, [sp, #24]
 2156 00b8 032B     		cmp	r3, #3
 2157 00ba DDD9     		bls	.L166
ARM GAS  C:\Users\PCHAUT~1\AppData\Local\Temp\ccJuO4y2.s 			page 39


 2158              	.L160:
 2159              	.LBE15:
 2160              		.loc 7 386 0 is_stmt 1
 2161 00bc 059B     		ldr	r3, [sp, #20]
 2162 00be 002B     		cmp	r3, #0
 2163 00c0 A9D1     		bne	.L167
 2164 00c2 00E0     		b	.L163
 2165              	.L169:
 2166              	.LBB17:
 2167              		.loc 7 405 0
 2168 00c4 00BF     		nop
 2169              	.L163:
 2170              	.LBE17:
 2171              		.loc 7 420 0
 2172 00c6 FFF7FEFF 		bl	osalSysLock
 2173              		.loc 7 421 0
 2174 00ca 029B     		ldr	r3, [sp, #8]
 2175 00cc 9A68     		ldr	r2, [r3, #8]
 2176 00ce 019B     		ldr	r3, [sp, #4]
 2177 00d0 1A44     		add	r2, r2, r3
 2178 00d2 029B     		ldr	r3, [sp, #8]
 2179 00d4 9A60     		str	r2, [r3, #8]
 2180              		.loc 7 422 0
 2181 00d6 029B     		ldr	r3, [sp, #8]
 2182 00d8 0021     		movs	r1, #0
 2183 00da 1846     		mov	r0, r3
 2184 00dc FFF7FEFF 		bl	osalThreadDequeueAllI
 2185              		.loc 7 423 0
 2186 00e0 FFF7FEFF 		bl	osalOsRescheduleS
 2187              		.loc 7 424 0
 2188 00e4 FFF7FEFF 		bl	osalSysUnlock
 2189              		.loc 7 425 0
 2190 00e8 00BF     		nop
 2191 00ea 054B     		ldr	r3, .L170
 2192 00ec 0B9A     		ldr	r2, [sp, #44]
 2193 00ee 1B68     		ldr	r3, [r3]
 2194 00f0 9A42     		cmp	r2, r3
 2195 00f2 01D0     		beq	.L168
 2196 00f4 FFF7FEFF 		bl	__stack_chk_fail
 2197              	.L168:
 2198 00f8 0DB0     		add	sp, sp, #52
 2199              		.cfi_def_cfa_offset 4
 2200              		@ sp needed
 2201 00fa 5DF804FB 		ldr	pc, [sp], #4
 2202              	.L171:
 2203 00fe 00BF     		.align	2
 2204              	.L170:
 2205 0100 00000000 		.word	__stack_chk_guard
 2206              		.cfi_endproc
 2207              	.LFE267:
 2208              		.size	otg_fifo_read_to_queue, .-otg_fifo_read_to_queue
 2209              		.section	.text.otg_rxfifo_handler,"ax",%progbits
 2210              		.align	1
 2211              		.p2align 4,,15
 2212              		.syntax unified
 2213              		.thumb
 2214              		.thumb_func
ARM GAS  C:\Users\PCHAUT~1\AppData\Local\Temp\ccJuO4y2.s 			page 40


 2215              		.fpu fpv4-sp-d16
 2216              		.type	otg_rxfifo_handler, %function
 2217              	otg_rxfifo_handler:
 2218              	.LFB268:
 2219              		.loc 7 434 0
 2220              		.cfi_startproc
 2221              		@ args = 0, pretend = 0, frame = 24
 2222              		@ frame_needed = 0, uses_anonymous_args = 0
 2223 0000 10B5     		push	{r4, lr}
 2224              		.cfi_def_cfa_offset 8
 2225              		.cfi_offset 4, -8
 2226              		.cfi_offset 14, -4
 2227 0002 86B0     		sub	sp, sp, #24
 2228              		.cfi_def_cfa_offset 32
 2229 0004 0190     		str	r0, [sp, #4]
 2230              		.loc 7 434 0
 2231 0006 514B     		ldr	r3, .L182
 2232 0008 1B68     		ldr	r3, [r3]
 2233 000a 0593     		str	r3, [sp, #20]
 2234              		.loc 7 437 0
 2235 000c 019B     		ldr	r3, [sp, #4]
 2236 000e 1B6D     		ldr	r3, [r3, #80]
 2237 0010 1B6A     		ldr	r3, [r3, #32]
 2238 0012 0293     		str	r3, [sp, #8]
 2239              		.loc 7 438 0
 2240 0014 029B     		ldr	r3, [sp, #8]
 2241 0016 03F4F013 		and	r3, r3, #1966080
 2242 001a B3F5002F 		cmp	r3, #524288
 2243 001e 00F08A80 		beq	.L180
 2244 0022 B3F5402F 		cmp	r3, #786432
 2245 0026 03D0     		beq	.L175
 2246 0028 B3F5802F 		cmp	r3, #262144
 2247 002c 19D0     		beq	.L176
 2248              		.loc 7 471 0
 2249 002e 83E0     		b	.L181
 2250              	.L175:
 2251              		.loc 7 442 0
 2252 0030 029B     		ldr	r3, [sp, #8]
 2253 0032 1B09     		lsrs	r3, r3, #4
 2254 0034 C3F30A03 		ubfx	r3, r3, #0, #11
 2255 0038 0393     		str	r3, [sp, #12]
 2256              		.loc 7 443 0
 2257 003a 029B     		ldr	r3, [sp, #8]
 2258 003c 03F00F03 		and	r3, r3, #15
 2259 0040 0493     		str	r3, [sp, #16]
 2260              		.loc 7 444 0
 2261 0042 019B     		ldr	r3, [sp, #4]
 2262 0044 1B6D     		ldr	r3, [r3, #80]
 2263 0046 03F58050 		add	r0, r3, #4096
 2264 004a 019A     		ldr	r2, [sp, #4]
 2265 004c 049B     		ldr	r3, [sp, #16]
 2266 004e 0233     		adds	r3, r3, #2
 2267 0050 9B00     		lsls	r3, r3, #2
 2268 0052 1344     		add	r3, r3, r2
 2269 0054 5B68     		ldr	r3, [r3, #4]
 2270 0056 196A     		ldr	r1, [r3, #32]
 2271 0058 0823     		movs	r3, #8
ARM GAS  C:\Users\PCHAUT~1\AppData\Local\Temp\ccJuO4y2.s 			page 41


 2272 005a 039A     		ldr	r2, [sp, #12]
 2273 005c FFF7FEFF 		bl	otg_fifo_read_to_buffer
 2274              		.loc 7 446 0
 2275 0060 6AE0     		b	.L173
 2276              	.L176:
 2277              		.loc 7 448 0
 2278 0062 029B     		ldr	r3, [sp, #8]
 2279 0064 1B09     		lsrs	r3, r3, #4
 2280 0066 C3F30A03 		ubfx	r3, r3, #0, #11
 2281 006a 0393     		str	r3, [sp, #12]
 2282              		.loc 7 449 0
 2283 006c 029B     		ldr	r3, [sp, #8]
 2284 006e 03F00F03 		and	r3, r3, #15
 2285 0072 0493     		str	r3, [sp, #16]
 2286              		.loc 7 450 0
 2287 0074 019A     		ldr	r2, [sp, #4]
 2288 0076 049B     		ldr	r3, [sp, #16]
 2289 0078 0233     		adds	r3, r3, #2
 2290 007a 9B00     		lsls	r3, r3, #2
 2291 007c 1344     		add	r3, r3, r2
 2292 007e 5B68     		ldr	r3, [r3, #4]
 2293 0080 9B69     		ldr	r3, [r3, #24]
 2294 0082 1B78     		ldrb	r3, [r3]	@ zero_extendqisi2
 2295 0084 002B     		cmp	r3, #0
 2296 0086 10D0     		beq	.L177
 2297              		.loc 7 452 0
 2298 0088 019B     		ldr	r3, [sp, #4]
 2299 008a 1B6D     		ldr	r3, [r3, #80]
 2300 008c 03F58050 		add	r0, r3, #4096
 2301              		.loc 7 453 0
 2302 0090 019A     		ldr	r2, [sp, #4]
 2303 0092 049B     		ldr	r3, [sp, #16]
 2304 0094 0233     		adds	r3, r3, #2
 2305 0096 9B00     		lsls	r3, r3, #2
 2306 0098 1344     		add	r3, r3, r2
 2307 009a 5B68     		ldr	r3, [r3, #4]
 2308 009c 9B69     		ldr	r3, [r3, #24]
 2309              		.loc 7 452 0
 2310 009e DB68     		ldr	r3, [r3, #12]
 2311 00a0 039A     		ldr	r2, [sp, #12]
 2312 00a2 1946     		mov	r1, r3
 2313 00a4 FFF7FEFF 		bl	otg_fifo_read_to_queue
 2314 00a8 32E0     		b	.L178
 2315              	.L177:
 2316              		.loc 7 457 0
 2317 00aa 019B     		ldr	r3, [sp, #4]
 2318 00ac 1B6D     		ldr	r3, [r3, #80]
 2319 00ae 03F58050 		add	r0, r3, #4096
 2320              		.loc 7 458 0
 2321 00b2 019A     		ldr	r2, [sp, #4]
 2322 00b4 049B     		ldr	r3, [sp, #16]
 2323 00b6 0233     		adds	r3, r3, #2
 2324 00b8 9B00     		lsls	r3, r3, #2
 2325 00ba 1344     		add	r3, r3, r2
 2326 00bc 5B68     		ldr	r3, [r3, #4]
 2327 00be 9B69     		ldr	r3, [r3, #24]
 2328              		.loc 7 457 0
ARM GAS  C:\Users\PCHAUT~1\AppData\Local\Temp\ccJuO4y2.s 			page 42


 2329 00c0 DC68     		ldr	r4, [r3, #12]
 2330              		.loc 7 460 0
 2331 00c2 019A     		ldr	r2, [sp, #4]
 2332 00c4 049B     		ldr	r3, [sp, #16]
 2333 00c6 0233     		adds	r3, r3, #2
 2334 00c8 9B00     		lsls	r3, r3, #2
 2335 00ca 1344     		add	r3, r3, r2
 2336 00cc 5B68     		ldr	r3, [r3, #4]
 2337 00ce 9B69     		ldr	r3, [r3, #24]
 2338 00d0 5A68     		ldr	r2, [r3, #4]
 2339              		.loc 7 461 0
 2340 00d2 0199     		ldr	r1, [sp, #4]
 2341 00d4 049B     		ldr	r3, [sp, #16]
 2342 00d6 0233     		adds	r3, r3, #2
 2343 00d8 9B00     		lsls	r3, r3, #2
 2344 00da 0B44     		add	r3, r3, r1
 2345 00dc 5B68     		ldr	r3, [r3, #4]
 2346 00de 9B69     		ldr	r3, [r3, #24]
 2347 00e0 9B68     		ldr	r3, [r3, #8]
 2348              		.loc 7 457 0
 2349 00e2 D31A     		subs	r3, r2, r3
 2350 00e4 039A     		ldr	r2, [sp, #12]
 2351 00e6 2146     		mov	r1, r4
 2352 00e8 FFF7FEFF 		bl	otg_fifo_read_to_buffer
 2353              		.loc 7 462 0
 2354 00ec 019A     		ldr	r2, [sp, #4]
 2355 00ee 049B     		ldr	r3, [sp, #16]
 2356 00f0 0233     		adds	r3, r3, #2
 2357 00f2 9B00     		lsls	r3, r3, #2
 2358 00f4 1344     		add	r3, r3, r2
 2359 00f6 5B68     		ldr	r3, [r3, #4]
 2360 00f8 9B69     		ldr	r3, [r3, #24]
 2361 00fa D968     		ldr	r1, [r3, #12]
 2362 00fc 019A     		ldr	r2, [sp, #4]
 2363 00fe 049B     		ldr	r3, [sp, #16]
 2364 0100 0233     		adds	r3, r3, #2
 2365 0102 9B00     		lsls	r3, r3, #2
 2366 0104 1344     		add	r3, r3, r2
 2367 0106 5B68     		ldr	r3, [r3, #4]
 2368 0108 9B69     		ldr	r3, [r3, #24]
 2369 010a 039A     		ldr	r2, [sp, #12]
 2370 010c 0A44     		add	r2, r2, r1
 2371 010e DA60     		str	r2, [r3, #12]
 2372              	.L178:
 2373              		.loc 7 464 0
 2374 0110 019A     		ldr	r2, [sp, #4]
 2375 0112 049B     		ldr	r3, [sp, #16]
 2376 0114 0233     		adds	r3, r3, #2
 2377 0116 9B00     		lsls	r3, r3, #2
 2378 0118 1344     		add	r3, r3, r2
 2379 011a 5B68     		ldr	r3, [r3, #4]
 2380 011c 9B69     		ldr	r3, [r3, #24]
 2381 011e 9968     		ldr	r1, [r3, #8]
 2382 0120 019A     		ldr	r2, [sp, #4]
 2383 0122 049B     		ldr	r3, [sp, #16]
 2384 0124 0233     		adds	r3, r3, #2
 2385 0126 9B00     		lsls	r3, r3, #2
ARM GAS  C:\Users\PCHAUT~1\AppData\Local\Temp\ccJuO4y2.s 			page 43


 2386 0128 1344     		add	r3, r3, r2
 2387 012a 5B68     		ldr	r3, [r3, #4]
 2388 012c 9B69     		ldr	r3, [r3, #24]
 2389 012e 039A     		ldr	r2, [sp, #12]
 2390 0130 0A44     		add	r2, r2, r1
 2391 0132 9A60     		str	r2, [r3, #8]
 2392              		.loc 7 465 0
 2393 0134 00E0     		b	.L173
 2394              	.L180:
 2395              		.loc 7 440 0
 2396 0136 00BF     		nop
 2397              	.L173:
 2398              	.L181:
 2399              		.loc 7 471 0
 2400 0138 00BF     		nop
 2401 013a 044B     		ldr	r3, .L182
 2402 013c 059A     		ldr	r2, [sp, #20]
 2403 013e 1B68     		ldr	r3, [r3]
 2404 0140 9A42     		cmp	r2, r3
 2405 0142 01D0     		beq	.L179
 2406 0144 FFF7FEFF 		bl	__stack_chk_fail
 2407              	.L179:
 2408 0148 06B0     		add	sp, sp, #24
 2409              		.cfi_def_cfa_offset 8
 2410              		@ sp needed
 2411 014a 10BD     		pop	{r4, pc}
 2412              	.L183:
 2413              		.align	2
 2414              	.L182:
 2415 014c 00000000 		.word	__stack_chk_guard
 2416              		.cfi_endproc
 2417              	.LFE268:
 2418              		.size	otg_rxfifo_handler, .-otg_rxfifo_handler
 2419              		.section	.text.otg_txfifo_handler,"ax",%progbits
 2420              		.align	1
 2421              		.p2align 4,,15
 2422              		.syntax unified
 2423              		.thumb
 2424              		.thumb_func
 2425              		.fpu fpv4-sp-d16
 2426              		.type	otg_txfifo_handler, %function
 2427              	otg_txfifo_handler:
 2428              	.LFB269:
 2429              		.loc 7 481 0
 2430              		.cfi_startproc
 2431              		@ args = 0, pretend = 0, frame = 16
 2432              		@ frame_needed = 0, uses_anonymous_args = 0
 2433 0000 00B5     		push	{lr}
 2434              		.cfi_def_cfa_offset 4
 2435              		.cfi_offset 14, -4
 2436 0002 85B0     		sub	sp, sp, #20
 2437              		.cfi_def_cfa_offset 24
 2438 0004 0190     		str	r0, [sp, #4]
 2439 0006 0B46     		mov	r3, r1
 2440 0008 8DF80330 		strb	r3, [sp, #3]
 2441              		.loc 7 481 0
 2442 000c 5C4B     		ldr	r3, .L193
ARM GAS  C:\Users\PCHAUT~1\AppData\Local\Temp\ccJuO4y2.s 			page 44


 2443 000e 1B68     		ldr	r3, [r3]
 2444 0010 0393     		str	r3, [sp, #12]
 2445              	.L191:
 2446              	.LBB18:
 2447              		.loc 7 488 0
 2448 0012 9DF80330 		ldrb	r3, [sp, #3]	@ zero_extendqisi2
 2449 0016 019A     		ldr	r2, [sp, #4]
 2450 0018 0233     		adds	r3, r3, #2
 2451 001a 9B00     		lsls	r3, r3, #2
 2452 001c 1344     		add	r3, r3, r2
 2453 001e 5B68     		ldr	r3, [r3, #4]
 2454 0020 5B69     		ldr	r3, [r3, #20]
 2455 0022 9A68     		ldr	r2, [r3, #8]
 2456 0024 9DF80330 		ldrb	r3, [sp, #3]	@ zero_extendqisi2
 2457 0028 0199     		ldr	r1, [sp, #4]
 2458 002a 0233     		adds	r3, r3, #2
 2459 002c 9B00     		lsls	r3, r3, #2
 2460 002e 0B44     		add	r3, r3, r1
 2461 0030 5B68     		ldr	r3, [r3, #4]
 2462 0032 5B69     		ldr	r3, [r3, #20]
 2463 0034 5B68     		ldr	r3, [r3, #4]
 2464 0036 9A42     		cmp	r2, r3
 2465 0038 01D3     		bcc	.L185
 2466              		.loc 7 489 0
 2467 003a 0123     		movs	r3, #1
 2468 003c 95E0     		b	.L186
 2469              	.L185:
 2470              		.loc 7 492 0
 2471 003e 9DF80330 		ldrb	r3, [sp, #3]	@ zero_extendqisi2
 2472 0042 019A     		ldr	r2, [sp, #4]
 2473 0044 0233     		adds	r3, r3, #2
 2474 0046 9B00     		lsls	r3, r3, #2
 2475 0048 1344     		add	r3, r3, r2
 2476 004a 5B68     		ldr	r3, [r3, #4]
 2477 004c 5B69     		ldr	r3, [r3, #20]
 2478 004e 5A68     		ldr	r2, [r3, #4]
 2479 0050 9DF80330 		ldrb	r3, [sp, #3]	@ zero_extendqisi2
 2480 0054 0199     		ldr	r1, [sp, #4]
 2481 0056 0233     		adds	r3, r3, #2
 2482 0058 9B00     		lsls	r3, r3, #2
 2483 005a 0B44     		add	r3, r3, r1
 2484 005c 5B68     		ldr	r3, [r3, #4]
 2485 005e 5B69     		ldr	r3, [r3, #20]
 2486 0060 9B68     		ldr	r3, [r3, #8]
 2487 0062 D31A     		subs	r3, r2, r3
 2488 0064 0293     		str	r3, [sp, #8]
 2489              		.loc 7 493 0
 2490 0066 9DF80330 		ldrb	r3, [sp, #3]	@ zero_extendqisi2
 2491 006a 019A     		ldr	r2, [sp, #4]
 2492 006c 0233     		adds	r3, r3, #2
 2493 006e 9B00     		lsls	r3, r3, #2
 2494 0070 1344     		add	r3, r3, r2
 2495 0072 5B68     		ldr	r3, [r3, #4]
 2496 0074 1B8A     		ldrh	r3, [r3, #16]
 2497 0076 1A46     		mov	r2, r3
 2498 0078 029B     		ldr	r3, [sp, #8]
 2499 007a 9342     		cmp	r3, r2
ARM GAS  C:\Users\PCHAUT~1\AppData\Local\Temp\ccJuO4y2.s 			page 45


 2500 007c 08D9     		bls	.L187
 2501              		.loc 7 494 0
 2502 007e 9DF80330 		ldrb	r3, [sp, #3]	@ zero_extendqisi2
 2503 0082 019A     		ldr	r2, [sp, #4]
 2504 0084 0233     		adds	r3, r3, #2
 2505 0086 9B00     		lsls	r3, r3, #2
 2506 0088 1344     		add	r3, r3, r2
 2507 008a 5B68     		ldr	r3, [r3, #4]
 2508 008c 1B8A     		ldrh	r3, [r3, #16]
 2509 008e 0293     		str	r3, [sp, #8]
 2510              	.L187:
 2511              		.loc 7 498 0
 2512 0090 019B     		ldr	r3, [sp, #4]
 2513 0092 1A6D     		ldr	r2, [r3, #80]
 2514 0094 9DF80330 		ldrb	r3, [sp, #3]	@ zero_extendqisi2
 2515 0098 5B01     		lsls	r3, r3, #5
 2516 009a 1344     		add	r3, r3, r2
 2517 009c 03F61813 		addw	r3, r3, #2328
 2518 00a0 1B68     		ldr	r3, [r3]
 2519 00a2 9BB2     		uxth	r3, r3
 2520 00a4 9B00     		lsls	r3, r3, #2
 2521 00a6 029A     		ldr	r2, [sp, #8]
 2522 00a8 9A42     		cmp	r2, r3
 2523 00aa 01D9     		bls	.L188
 2524              		.loc 7 499 0
 2525 00ac 0023     		movs	r3, #0
 2526 00ae 5CE0     		b	.L186
 2527              	.L188:
 2528              		.loc 7 505 0
 2529 00b0 9DF80330 		ldrb	r3, [sp, #3]	@ zero_extendqisi2
 2530 00b4 019A     		ldr	r2, [sp, #4]
 2531 00b6 0233     		adds	r3, r3, #2
 2532 00b8 9B00     		lsls	r3, r3, #2
 2533 00ba 1344     		add	r3, r3, r2
 2534 00bc 5B68     		ldr	r3, [r3, #4]
 2535 00be 5B69     		ldr	r3, [r3, #20]
 2536 00c0 1B78     		ldrb	r3, [r3]	@ zero_extendqisi2
 2537 00c2 002B     		cmp	r3, #0
 2538 00c4 14D0     		beq	.L189
 2539              		.loc 7 507 0
 2540 00c6 019B     		ldr	r3, [sp, #4]
 2541 00c8 1A6D     		ldr	r2, [r3, #80]
 2542 00ca 9DF80330 		ldrb	r3, [sp, #3]	@ zero_extendqisi2
 2543 00ce 0133     		adds	r3, r3, #1
 2544 00d0 1B03     		lsls	r3, r3, #12
 2545 00d2 D018     		adds	r0, r2, r3
 2546              		.loc 7 508 0
 2547 00d4 9DF80330 		ldrb	r3, [sp, #3]	@ zero_extendqisi2
 2548 00d8 019A     		ldr	r2, [sp, #4]
 2549 00da 0233     		adds	r3, r3, #2
 2550 00dc 9B00     		lsls	r3, r3, #2
 2551 00de 1344     		add	r3, r3, r2
 2552 00e0 5B68     		ldr	r3, [r3, #4]
 2553 00e2 5B69     		ldr	r3, [r3, #20]
 2554              		.loc 7 507 0
 2555 00e4 DB68     		ldr	r3, [r3, #12]
 2556 00e6 029A     		ldr	r2, [sp, #8]
ARM GAS  C:\Users\PCHAUT~1\AppData\Local\Temp\ccJuO4y2.s 			page 46


 2557 00e8 1946     		mov	r1, r3
 2558 00ea FFF7FEFF 		bl	otg_fifo_write_from_queue
 2559 00ee 27E0     		b	.L190
 2560              	.L189:
 2561              		.loc 7 513 0
 2562 00f0 019B     		ldr	r3, [sp, #4]
 2563 00f2 1A6D     		ldr	r2, [r3, #80]
 2564 00f4 9DF80330 		ldrb	r3, [sp, #3]	@ zero_extendqisi2
 2565 00f8 0133     		adds	r3, r3, #1
 2566 00fa 1B03     		lsls	r3, r3, #12
 2567 00fc D018     		adds	r0, r2, r3
 2568              		.loc 7 514 0
 2569 00fe 9DF80330 		ldrb	r3, [sp, #3]	@ zero_extendqisi2
 2570 0102 019A     		ldr	r2, [sp, #4]
 2571 0104 0233     		adds	r3, r3, #2
 2572 0106 9B00     		lsls	r3, r3, #2
 2573 0108 1344     		add	r3, r3, r2
 2574 010a 5B68     		ldr	r3, [r3, #4]
 2575 010c 5B69     		ldr	r3, [r3, #20]
 2576              		.loc 7 513 0
 2577 010e DB68     		ldr	r3, [r3, #12]
 2578 0110 029A     		ldr	r2, [sp, #8]
 2579 0112 1946     		mov	r1, r3
 2580 0114 FFF7FEFF 		bl	otg_fifo_write_from_buffer
 2581              		.loc 7 516 0
 2582 0118 9DF80330 		ldrb	r3, [sp, #3]	@ zero_extendqisi2
 2583 011c 019A     		ldr	r2, [sp, #4]
 2584 011e 0233     		adds	r3, r3, #2
 2585 0120 9B00     		lsls	r3, r3, #2
 2586 0122 1344     		add	r3, r3, r2
 2587 0124 5B68     		ldr	r3, [r3, #4]
 2588 0126 5B69     		ldr	r3, [r3, #20]
 2589 0128 D968     		ldr	r1, [r3, #12]
 2590 012a 9DF80330 		ldrb	r3, [sp, #3]	@ zero_extendqisi2
 2591 012e 019A     		ldr	r2, [sp, #4]
 2592 0130 0233     		adds	r3, r3, #2
 2593 0132 9B00     		lsls	r3, r3, #2
 2594 0134 1344     		add	r3, r3, r2
 2595 0136 5B68     		ldr	r3, [r3, #4]
 2596 0138 5B69     		ldr	r3, [r3, #20]
 2597 013a 029A     		ldr	r2, [sp, #8]
 2598 013c 0A44     		add	r2, r2, r1
 2599 013e DA60     		str	r2, [r3, #12]
 2600              	.L190:
 2601              		.loc 7 521 0
 2602 0140 9DF80330 		ldrb	r3, [sp, #3]	@ zero_extendqisi2
 2603 0144 019A     		ldr	r2, [sp, #4]
 2604 0146 0233     		adds	r3, r3, #2
 2605 0148 9B00     		lsls	r3, r3, #2
 2606 014a 1344     		add	r3, r3, r2
 2607 014c 5B68     		ldr	r3, [r3, #4]
 2608 014e 5B69     		ldr	r3, [r3, #20]
 2609 0150 9968     		ldr	r1, [r3, #8]
 2610 0152 9DF80330 		ldrb	r3, [sp, #3]	@ zero_extendqisi2
 2611 0156 019A     		ldr	r2, [sp, #4]
 2612 0158 0233     		adds	r3, r3, #2
 2613 015a 9B00     		lsls	r3, r3, #2
ARM GAS  C:\Users\PCHAUT~1\AppData\Local\Temp\ccJuO4y2.s 			page 47


 2614 015c 1344     		add	r3, r3, r2
 2615 015e 5B68     		ldr	r3, [r3, #4]
 2616 0160 5B69     		ldr	r3, [r3, #20]
 2617 0162 029A     		ldr	r2, [sp, #8]
 2618 0164 0A44     		add	r2, r2, r1
 2619 0166 9A60     		str	r2, [r3, #8]
 2620              	.LBE18:
 2621              		.loc 7 484 0
 2622 0168 53E7     		b	.L191
 2623              	.L186:
 2624              		.loc 7 523 0
 2625 016a 1846     		mov	r0, r3
 2626 016c 044B     		ldr	r3, .L193
 2627 016e 039A     		ldr	r2, [sp, #12]
 2628 0170 1B68     		ldr	r3, [r3]
 2629 0172 9A42     		cmp	r2, r3
 2630 0174 01D0     		beq	.L192
 2631 0176 FFF7FEFF 		bl	__stack_chk_fail
 2632              	.L192:
 2633 017a 05B0     		add	sp, sp, #20
 2634              		.cfi_def_cfa_offset 4
 2635              		@ sp needed
 2636 017c 5DF804FB 		ldr	pc, [sp], #4
 2637              	.L194:
 2638              		.align	2
 2639              	.L193:
 2640 0180 00000000 		.word	__stack_chk_guard
 2641              		.cfi_endproc
 2642              	.LFE269:
 2643              		.size	otg_txfifo_handler, .-otg_txfifo_handler
 2644              		.section	.text.otg_epin_handler,"ax",%progbits
 2645              		.align	1
 2646              		.p2align 4,,15
 2647              		.syntax unified
 2648              		.thumb
 2649              		.thumb_func
 2650              		.fpu fpv4-sp-d16
 2651              		.type	otg_epin_handler, %function
 2652              	otg_epin_handler:
 2653              	.LFB270:
 2654              		.loc 7 533 0
 2655              		.cfi_startproc
 2656              		@ args = 0, pretend = 0, frame = 24
 2657              		@ frame_needed = 0, uses_anonymous_args = 0
 2658 0000 00B5     		push	{lr}
 2659              		.cfi_def_cfa_offset 4
 2660              		.cfi_offset 14, -4
 2661 0002 87B0     		sub	sp, sp, #28
 2662              		.cfi_def_cfa_offset 32
 2663 0004 0190     		str	r0, [sp, #4]
 2664 0006 0B46     		mov	r3, r1
 2665 0008 8DF80330 		strb	r3, [sp, #3]
 2666              		.loc 7 533 0
 2667 000c 534B     		ldr	r3, .L201
 2668 000e 1B68     		ldr	r3, [r3]
 2669 0010 0593     		str	r3, [sp, #20]
 2670              		.loc 7 534 0
ARM GAS  C:\Users\PCHAUT~1\AppData\Local\Temp\ccJuO4y2.s 			page 48


 2671 0012 019B     		ldr	r3, [sp, #4]
 2672 0014 1B6D     		ldr	r3, [r3, #80]
 2673 0016 0293     		str	r3, [sp, #8]
 2674              		.loc 7 535 0
 2675 0018 9DF80330 		ldrb	r3, [sp, #3]	@ zero_extendqisi2
 2676 001c 029A     		ldr	r2, [sp, #8]
 2677 001e 5B01     		lsls	r3, r3, #5
 2678 0020 1344     		add	r3, r3, r2
 2679 0022 03F60813 		addw	r3, r3, #2312
 2680 0026 1B68     		ldr	r3, [r3]
 2681 0028 0393     		str	r3, [sp, #12]
 2682              		.loc 7 537 0
 2683 002a 9DF80330 		ldrb	r3, [sp, #3]	@ zero_extendqisi2
 2684 002e 029A     		ldr	r2, [sp, #8]
 2685 0030 5B01     		lsls	r3, r3, #5
 2686 0032 1344     		add	r3, r3, r2
 2687 0034 03F60813 		addw	r3, r3, #2312
 2688 0038 039A     		ldr	r2, [sp, #12]
 2689 003a 1A60     		str	r2, [r3]
 2690              		.loc 7 542 0
 2691 003c 039B     		ldr	r3, [sp, #12]
 2692 003e 03F00103 		and	r3, r3, #1
 2693 0042 002B     		cmp	r3, #0
 2694 0044 4DD0     		beq	.L196
 2695              		.loc 7 542 0 is_stmt 0 discriminator 1
 2696 0046 029B     		ldr	r3, [sp, #8]
 2697 0048 D3F81038 		ldr	r3, [r3, #2064]
 2698 004c 03F00103 		and	r3, r3, #1
 2699 0050 002B     		cmp	r3, #0
 2700 0052 46D0     		beq	.L196
 2701              	.LBB19:
 2702              		.loc 7 544 0 is_stmt 1
 2703 0054 9DF80330 		ldrb	r3, [sp, #3]	@ zero_extendqisi2
 2704 0058 019A     		ldr	r2, [sp, #4]
 2705 005a 0233     		adds	r3, r3, #2
 2706 005c 9B00     		lsls	r3, r3, #2
 2707 005e 1344     		add	r3, r3, r2
 2708 0060 5B68     		ldr	r3, [r3, #4]
 2709 0062 5B69     		ldr	r3, [r3, #20]
 2710 0064 0493     		str	r3, [sp, #16]
 2711              		.loc 7 546 0
 2712 0066 049B     		ldr	r3, [sp, #16]
 2713 0068 5A68     		ldr	r2, [r3, #4]
 2714 006a 049B     		ldr	r3, [sp, #16]
 2715 006c 1B69     		ldr	r3, [r3, #16]
 2716 006e 9A42     		cmp	r2, r3
 2717 0070 1AD2     		bcs	.L197
 2718              		.loc 7 550 0
 2719 0072 049B     		ldr	r3, [sp, #16]
 2720 0074 1A69     		ldr	r2, [r3, #16]
 2721 0076 049B     		ldr	r3, [sp, #16]
 2722 0078 5B68     		ldr	r3, [r3, #4]
 2723 007a D21A     		subs	r2, r2, r3
 2724 007c 049B     		ldr	r3, [sp, #16]
 2725 007e 5A60     		str	r2, [r3, #4]
 2726              		.loc 7 551 0
 2727 0080 049B     		ldr	r3, [sp, #16]
ARM GAS  C:\Users\PCHAUT~1\AppData\Local\Temp\ccJuO4y2.s 			page 49


 2728 0082 0022     		movs	r2, #0
 2729 0084 9A60     		str	r2, [r3, #8]
 2730              		.loc 7 552 0
 2731 0086 9DF80330 		ldrb	r3, [sp, #3]	@ zero_extendqisi2
 2732 008a 1946     		mov	r1, r3
 2733 008c 0198     		ldr	r0, [sp, #4]
 2734 008e FFF7FEFF 		bl	usb_lld_prepare_transmit
 2735              		.loc 7 553 0
 2736 0092 FFF7FEFF 		bl	osalSysLockFromISR
 2737              		.loc 7 554 0
 2738 0096 9DF80330 		ldrb	r3, [sp, #3]	@ zero_extendqisi2
 2739 009a 1946     		mov	r1, r3
 2740 009c 0198     		ldr	r0, [sp, #4]
 2741 009e FFF7FEFF 		bl	usb_lld_start_in
 2742              		.loc 7 555 0
 2743 00a2 FFF7FEFF 		bl	osalSysUnlockFromISR
 2744 00a6 1CE0     		b	.L196
 2745              	.L197:
 2746              		.loc 7 559 0
 2747 00a8 019B     		ldr	r3, [sp, #4]
 2748 00aa 1B89     		ldrh	r3, [r3, #8]
 2749 00ac 1AB2     		sxth	r2, r3
 2750 00ae 9DF80330 		ldrb	r3, [sp, #3]	@ zero_extendqisi2
 2751 00b2 0121     		movs	r1, #1
 2752 00b4 01FA03F3 		lsl	r3, r1, r3
 2753 00b8 1BB2     		sxth	r3, r3
 2754 00ba DB43     		mvns	r3, r3
 2755 00bc 1BB2     		sxth	r3, r3
 2756 00be 1340     		ands	r3, r3, r2
 2757 00c0 1BB2     		sxth	r3, r3
 2758 00c2 9AB2     		uxth	r2, r3
 2759 00c4 019B     		ldr	r3, [sp, #4]
 2760 00c6 1A81     		strh	r2, [r3, #8]	@ movhi
 2761 00c8 9DF80330 		ldrb	r3, [sp, #3]	@ zero_extendqisi2
 2762 00cc 019A     		ldr	r2, [sp, #4]
 2763 00ce 0233     		adds	r3, r3, #2
 2764 00d0 9B00     		lsls	r3, r3, #2
 2765 00d2 1344     		add	r3, r3, r2
 2766 00d4 5B68     		ldr	r3, [r3, #4]
 2767 00d6 9B68     		ldr	r3, [r3, #8]
 2768 00d8 9DF80320 		ldrb	r2, [sp, #3]	@ zero_extendqisi2
 2769 00dc 1146     		mov	r1, r2
 2770 00de 0198     		ldr	r0, [sp, #4]
 2771 00e0 9847     		blx	r3
 2772              	.LVL0:
 2773              	.L196:
 2774              	.LBE19:
 2775              		.loc 7 562 0
 2776 00e2 039B     		ldr	r3, [sp, #12]
 2777 00e4 03F08003 		and	r3, r3, #128
 2778 00e8 002B     		cmp	r3, #0
 2779 00ea 2BD0     		beq	.L200
 2780              		.loc 7 563 0 discriminator 1
 2781 00ec 029B     		ldr	r3, [sp, #8]
 2782 00ee D3F83428 		ldr	r2, [r3, #2100]
 2783 00f2 9DF80330 		ldrb	r3, [sp, #3]	@ zero_extendqisi2
 2784 00f6 0121     		movs	r1, #1
ARM GAS  C:\Users\PCHAUT~1\AppData\Local\Temp\ccJuO4y2.s 			page 50


 2785 00f8 01FA03F3 		lsl	r3, r1, r3
 2786 00fc 1340     		ands	r3, r3, r2
 2787              		.loc 7 562 0 discriminator 1
 2788 00fe 002B     		cmp	r3, #0
 2789 0100 20D0     		beq	.L200
 2790              		.loc 7 565 0
 2791 0102 FFF7FEFF 		bl	osalSysLockFromISR
 2792              		.loc 7 566 0
 2793 0106 019B     		ldr	r3, [sp, #4]
 2794 0108 DB6D     		ldr	r3, [r3, #92]
 2795 010a 9DF80320 		ldrb	r2, [sp, #3]	@ zero_extendqisi2
 2796 010e 0121     		movs	r1, #1
 2797 0110 01FA02F2 		lsl	r2, r1, r2
 2798 0114 1A43     		orrs	r2, r2, r3
 2799 0116 019B     		ldr	r3, [sp, #4]
 2800 0118 DA65     		str	r2, [r3, #92]
 2801              		.loc 7 567 0
 2802 011a 029B     		ldr	r3, [sp, #8]
 2803 011c D3F83438 		ldr	r3, [r3, #2100]
 2804 0120 9DF80320 		ldrb	r2, [sp, #3]	@ zero_extendqisi2
 2805 0124 0121     		movs	r1, #1
 2806 0126 01FA02F2 		lsl	r2, r1, r2
 2807 012a D243     		mvns	r2, r2
 2808 012c 1A40     		ands	r2, r2, r3
 2809 012e 029B     		ldr	r3, [sp, #8]
 2810 0130 C3F83428 		str	r2, [r3, #2100]
 2811              		.loc 7 568 0
 2812 0134 019B     		ldr	r3, [sp, #4]
 2813 0136 6033     		adds	r3, r3, #96
 2814 0138 0021     		movs	r1, #0
 2815 013a 1846     		mov	r0, r3
 2816 013c FFF7FEFF 		bl	osalThreadResumeI
 2817              		.loc 7 569 0
 2818 0140 FFF7FEFF 		bl	osalSysUnlockFromISR
 2819              	.L200:
 2820              		.loc 7 571 0
 2821 0144 00BF     		nop
 2822 0146 054B     		ldr	r3, .L201
 2823 0148 059A     		ldr	r2, [sp, #20]
 2824 014a 1B68     		ldr	r3, [r3]
 2825 014c 9A42     		cmp	r2, r3
 2826 014e 01D0     		beq	.L199
 2827 0150 FFF7FEFF 		bl	__stack_chk_fail
 2828              	.L199:
 2829 0154 07B0     		add	sp, sp, #28
 2830              		.cfi_def_cfa_offset 4
 2831              		@ sp needed
 2832 0156 5DF804FB 		ldr	pc, [sp], #4
 2833              	.L202:
 2834 015a 00BF     		.align	2
 2835              	.L201:
 2836 015c 00000000 		.word	__stack_chk_guard
 2837              		.cfi_endproc
 2838              	.LFE270:
 2839              		.size	otg_epin_handler, .-otg_epin_handler
 2840              		.section	.text.otg_epout_handler,"ax",%progbits
 2841              		.align	1
ARM GAS  C:\Users\PCHAUT~1\AppData\Local\Temp\ccJuO4y2.s 			page 51


 2842              		.p2align 4,,15
 2843              		.syntax unified
 2844              		.thumb
 2845              		.thumb_func
 2846              		.fpu fpv4-sp-d16
 2847              		.type	otg_epout_handler, %function
 2848              	otg_epout_handler:
 2849              	.LFB271:
 2850              		.loc 7 581 0
 2851              		.cfi_startproc
 2852              		@ args = 0, pretend = 0, frame = 24
 2853              		@ frame_needed = 0, uses_anonymous_args = 0
 2854 0000 00B5     		push	{lr}
 2855              		.cfi_def_cfa_offset 4
 2856              		.cfi_offset 14, -4
 2857 0002 87B0     		sub	sp, sp, #28
 2858              		.cfi_def_cfa_offset 32
 2859 0004 0190     		str	r0, [sp, #4]
 2860 0006 0B46     		mov	r3, r1
 2861 0008 8DF80330 		strb	r3, [sp, #3]
 2862              		.loc 7 581 0
 2863 000c 474B     		ldr	r3, .L209
 2864 000e 1B68     		ldr	r3, [r3]
 2865 0010 0593     		str	r3, [sp, #20]
 2866              		.loc 7 582 0
 2867 0012 019B     		ldr	r3, [sp, #4]
 2868 0014 1B6D     		ldr	r3, [r3, #80]
 2869 0016 0293     		str	r3, [sp, #8]
 2870              		.loc 7 583 0
 2871 0018 9DF80330 		ldrb	r3, [sp, #3]	@ zero_extendqisi2
 2872 001c 029A     		ldr	r2, [sp, #8]
 2873 001e 5B01     		lsls	r3, r3, #5
 2874 0020 1344     		add	r3, r3, r2
 2875 0022 03F60833 		addw	r3, r3, #2824
 2876 0026 1B68     		ldr	r3, [r3]
 2877 0028 0393     		str	r3, [sp, #12]
 2878              		.loc 7 586 0
 2879 002a 9DF80330 		ldrb	r3, [sp, #3]	@ zero_extendqisi2
 2880 002e 029A     		ldr	r2, [sp, #8]
 2881 0030 5B01     		lsls	r3, r3, #5
 2882 0032 1344     		add	r3, r3, r2
 2883 0034 03F60833 		addw	r3, r3, #2824
 2884 0038 039A     		ldr	r2, [sp, #12]
 2885 003a 1A60     		str	r2, [r3]
 2886              		.loc 7 588 0
 2887 003c 039B     		ldr	r3, [sp, #12]
 2888 003e 03F00803 		and	r3, r3, #8
 2889 0042 002B     		cmp	r3, #0
 2890 0044 13D0     		beq	.L204
 2891              		.loc 7 588 0 is_stmt 0 discriminator 1
 2892 0046 029B     		ldr	r3, [sp, #8]
 2893 0048 D3F81438 		ldr	r3, [r3, #2068]
 2894 004c 03F00803 		and	r3, r3, #8
 2895 0050 002B     		cmp	r3, #0
 2896 0052 0CD0     		beq	.L204
 2897              		.loc 7 591 0 is_stmt 1
 2898 0054 9DF80330 		ldrb	r3, [sp, #3]	@ zero_extendqisi2
ARM GAS  C:\Users\PCHAUT~1\AppData\Local\Temp\ccJuO4y2.s 			page 52


 2899 0058 019A     		ldr	r2, [sp, #4]
 2900 005a 0233     		adds	r3, r3, #2
 2901 005c 9B00     		lsls	r3, r3, #2
 2902 005e 1344     		add	r3, r3, r2
 2903 0060 5B68     		ldr	r3, [r3, #4]
 2904 0062 5B68     		ldr	r3, [r3, #4]
 2905 0064 9DF80320 		ldrb	r2, [sp, #3]	@ zero_extendqisi2
 2906 0068 1146     		mov	r1, r2
 2907 006a 0198     		ldr	r0, [sp, #4]
 2908 006c 9847     		blx	r3
 2909              	.LVL1:
 2910              	.L204:
 2911              		.loc 7 594 0
 2912 006e 039B     		ldr	r3, [sp, #12]
 2913 0070 03F00103 		and	r3, r3, #1
 2914 0074 002B     		cmp	r3, #0
 2915 0076 4DD0     		beq	.L208
 2916              		.loc 7 594 0 is_stmt 0 discriminator 1
 2917 0078 029B     		ldr	r3, [sp, #8]
 2918 007a D3F81438 		ldr	r3, [r3, #2068]
 2919 007e 03F00103 		and	r3, r3, #1
 2920 0082 002B     		cmp	r3, #0
 2921 0084 46D0     		beq	.L208
 2922              	.LBB20:
 2923              		.loc 7 596 0 is_stmt 1
 2924 0086 9DF80330 		ldrb	r3, [sp, #3]	@ zero_extendqisi2
 2925 008a 019A     		ldr	r2, [sp, #4]
 2926 008c 0233     		adds	r3, r3, #2
 2927 008e 9B00     		lsls	r3, r3, #2
 2928 0090 1344     		add	r3, r3, r2
 2929 0092 5B68     		ldr	r3, [r3, #4]
 2930 0094 9B69     		ldr	r3, [r3, #24]
 2931 0096 0493     		str	r3, [sp, #16]
 2932              		.loc 7 598 0
 2933 0098 049B     		ldr	r3, [sp, #16]
 2934 009a 5A68     		ldr	r2, [r3, #4]
 2935 009c 049B     		ldr	r3, [sp, #16]
 2936 009e 1B69     		ldr	r3, [r3, #16]
 2937 00a0 9A42     		cmp	r2, r3
 2938 00a2 1AD2     		bcs	.L206
 2939              		.loc 7 602 0
 2940 00a4 049B     		ldr	r3, [sp, #16]
 2941 00a6 1A69     		ldr	r2, [r3, #16]
 2942 00a8 049B     		ldr	r3, [sp, #16]
 2943 00aa 5B68     		ldr	r3, [r3, #4]
 2944 00ac D21A     		subs	r2, r2, r3
 2945 00ae 049B     		ldr	r3, [sp, #16]
 2946 00b0 5A60     		str	r2, [r3, #4]
 2947              		.loc 7 603 0
 2948 00b2 049B     		ldr	r3, [sp, #16]
 2949 00b4 0022     		movs	r2, #0
 2950 00b6 9A60     		str	r2, [r3, #8]
 2951              		.loc 7 604 0
 2952 00b8 9DF80330 		ldrb	r3, [sp, #3]	@ zero_extendqisi2
 2953 00bc 1946     		mov	r1, r3
 2954 00be 0198     		ldr	r0, [sp, #4]
 2955 00c0 FFF7FEFF 		bl	usb_lld_prepare_receive
ARM GAS  C:\Users\PCHAUT~1\AppData\Local\Temp\ccJuO4y2.s 			page 53


 2956              		.loc 7 605 0
 2957 00c4 FFF7FEFF 		bl	chSysLockFromISR
 2958              		.loc 7 606 0
 2959 00c8 9DF80330 		ldrb	r3, [sp, #3]	@ zero_extendqisi2
 2960 00cc 1946     		mov	r1, r3
 2961 00ce 0198     		ldr	r0, [sp, #4]
 2962 00d0 FFF7FEFF 		bl	usb_lld_start_out
 2963              		.loc 7 607 0
 2964 00d4 FFF7FEFF 		bl	chSysUnlockFromISR
 2965              	.LBE20:
 2966              		.loc 7 614 0
 2967 00d8 1CE0     		b	.L208
 2968              	.L206:
 2969              	.LBB21:
 2970              		.loc 7 611 0
 2971 00da 019B     		ldr	r3, [sp, #4]
 2972 00dc 5B89     		ldrh	r3, [r3, #10]
 2973 00de 1AB2     		sxth	r2, r3
 2974 00e0 9DF80330 		ldrb	r3, [sp, #3]	@ zero_extendqisi2
 2975 00e4 0121     		movs	r1, #1
 2976 00e6 01FA03F3 		lsl	r3, r1, r3
 2977 00ea 1BB2     		sxth	r3, r3
 2978 00ec DB43     		mvns	r3, r3
 2979 00ee 1BB2     		sxth	r3, r3
 2980 00f0 1340     		ands	r3, r3, r2
 2981 00f2 1BB2     		sxth	r3, r3
 2982 00f4 9AB2     		uxth	r2, r3
 2983 00f6 019B     		ldr	r3, [sp, #4]
 2984 00f8 5A81     		strh	r2, [r3, #10]	@ movhi
 2985 00fa 9DF80330 		ldrb	r3, [sp, #3]	@ zero_extendqisi2
 2986 00fe 019A     		ldr	r2, [sp, #4]
 2987 0100 0233     		adds	r3, r3, #2
 2988 0102 9B00     		lsls	r3, r3, #2
 2989 0104 1344     		add	r3, r3, r2
 2990 0106 5B68     		ldr	r3, [r3, #4]
 2991 0108 DB68     		ldr	r3, [r3, #12]
 2992 010a 9DF80320 		ldrb	r2, [sp, #3]	@ zero_extendqisi2
 2993 010e 1146     		mov	r1, r2
 2994 0110 0198     		ldr	r0, [sp, #4]
 2995 0112 9847     		blx	r3
 2996              	.LVL2:
 2997              	.L208:
 2998              	.LBE21:
 2999              		.loc 7 614 0
 3000 0114 00BF     		nop
 3001 0116 054B     		ldr	r3, .L209
 3002 0118 059A     		ldr	r2, [sp, #20]
 3003 011a 1B68     		ldr	r3, [r3]
 3004 011c 9A42     		cmp	r2, r3
 3005 011e 01D0     		beq	.L207
 3006 0120 FFF7FEFF 		bl	__stack_chk_fail
 3007              	.L207:
 3008 0124 07B0     		add	sp, sp, #28
 3009              		.cfi_def_cfa_offset 4
 3010              		@ sp needed
 3011 0126 5DF804FB 		ldr	pc, [sp], #4
 3012              	.L210:
ARM GAS  C:\Users\PCHAUT~1\AppData\Local\Temp\ccJuO4y2.s 			page 54


 3013 012a 00BF     		.align	2
 3014              	.L209:
 3015 012c 00000000 		.word	__stack_chk_guard
 3016              		.cfi_endproc
 3017              	.LFE271:
 3018              		.size	otg_epout_handler, .-otg_epout_handler
 3019              		.section	.text.usb_lld_serve_interrupt,"ax",%progbits
 3020              		.align	1
 3021              		.p2align 4,,15
 3022              		.syntax unified
 3023              		.thumb
 3024              		.thumb_func
 3025              		.fpu fpv4-sp-d16
 3026              		.type	usb_lld_serve_interrupt, %function
 3027              	usb_lld_serve_interrupt:
 3028              	.LFB272:
 3029              		.loc 7 623 0
 3030              		.cfi_startproc
 3031              		@ args = 0, pretend = 0, frame = 24
 3032              		@ frame_needed = 0, uses_anonymous_args = 0
 3033 0000 00B5     		push	{lr}
 3034              		.cfi_def_cfa_offset 4
 3035              		.cfi_offset 14, -4
 3036 0002 87B0     		sub	sp, sp, #28
 3037              		.cfi_def_cfa_offset 32
 3038 0004 0190     		str	r0, [sp, #4]
 3039              		.loc 7 623 0
 3040 0006 584B     		ldr	r3, .L226
 3041 0008 1B68     		ldr	r3, [r3]
 3042 000a 0593     		str	r3, [sp, #20]
 3043              		.loc 7 624 0
 3044 000c 019B     		ldr	r3, [sp, #4]
 3045 000e 1B6D     		ldr	r3, [r3, #80]
 3046 0010 0293     		str	r3, [sp, #8]
 3047              		.loc 7 627 0
 3048 0012 029B     		ldr	r3, [sp, #8]
 3049 0014 5B69     		ldr	r3, [r3, #20]
 3050 0016 0393     		str	r3, [sp, #12]
 3051              		.loc 7 628 0
 3052 0018 029B     		ldr	r3, [sp, #8]
 3053 001a 9B69     		ldr	r3, [r3, #24]
 3054 001c 039A     		ldr	r2, [sp, #12]
 3055 001e 1340     		ands	r3, r3, r2
 3056 0020 0393     		str	r3, [sp, #12]
 3057              		.loc 7 629 0
 3058 0022 029B     		ldr	r3, [sp, #8]
 3059 0024 039A     		ldr	r2, [sp, #12]
 3060 0026 5A61     		str	r2, [r3, #20]
 3061              		.loc 7 632 0
 3062 0028 039B     		ldr	r3, [sp, #12]
 3063 002a 03F48053 		and	r3, r3, #4096
 3064 002e 002B     		cmp	r3, #0
 3065 0030 0DD0     		beq	.L212
 3066              		.loc 7 633 0
 3067 0032 0198     		ldr	r0, [sp, #4]
 3068 0034 FFF7FEFF 		bl	_usb_reset
 3069              		.loc 7 634 0
ARM GAS  C:\Users\PCHAUT~1\AppData\Local\Temp\ccJuO4y2.s 			page 55


 3070 0038 019B     		ldr	r3, [sp, #4]
 3071 003a 5B68     		ldr	r3, [r3, #4]
 3072 003c 1B68     		ldr	r3, [r3]
 3073 003e 002B     		cmp	r3, #0
 3074 0040 05D0     		beq	.L212
 3075              		.loc 7 634 0 is_stmt 0 discriminator 1
 3076 0042 019B     		ldr	r3, [sp, #4]
 3077 0044 5B68     		ldr	r3, [r3, #4]
 3078 0046 1B68     		ldr	r3, [r3]
 3079 0048 0021     		movs	r1, #0
 3080 004a 0198     		ldr	r0, [sp, #4]
 3081 004c 9847     		blx	r3
 3082              	.LVL3:
 3083              	.L212:
 3084              		.loc 7 638 0 is_stmt 1
 3085 004e 039B     		ldr	r3, [sp, #12]
 3086 0050 03F40053 		and	r3, r3, #8192
 3087 0054 002B     		cmp	r3, #0
 3088 0056 02D0     		beq	.L213
 3089              		.loc 7 639 0
 3090 0058 029B     		ldr	r3, [sp, #8]
 3091 005a D3F80838 		ldr	r3, [r3, #2056]
 3092              	.L213:
 3093              		.loc 7 643 0
 3094 005e 039B     		ldr	r3, [sp, #12]
 3095 0060 03F00803 		and	r3, r3, #8
 3096 0064 002B     		cmp	r3, #0
 3097 0066 09D0     		beq	.L214
 3098              		.loc 7 644 0
 3099 0068 019B     		ldr	r3, [sp, #4]
 3100 006a 5B68     		ldr	r3, [r3, #4]
 3101 006c DB68     		ldr	r3, [r3, #12]
 3102 006e 002B     		cmp	r3, #0
 3103 0070 04D0     		beq	.L214
 3104              		.loc 7 644 0 is_stmt 0 discriminator 1
 3105 0072 019B     		ldr	r3, [sp, #4]
 3106 0074 5B68     		ldr	r3, [r3, #4]
 3107 0076 DB68     		ldr	r3, [r3, #12]
 3108 0078 0198     		ldr	r0, [sp, #4]
 3109 007a 9847     		blx	r3
 3110              	.LVL4:
 3111              	.L214:
 3112              		.loc 7 648 0 is_stmt 1
 3113 007c 039B     		ldr	r3, [sp, #12]
 3114 007e 03F01003 		and	r3, r3, #16
 3115 0082 002B     		cmp	r3, #0
 3116 0084 0FD0     		beq	.L215
 3117              		.loc 7 651 0
 3118 0086 FFF7FEFF 		bl	osalSysLockFromISR
 3119              		.loc 7 652 0
 3120 008a 029B     		ldr	r3, [sp, #8]
 3121 008c 9B69     		ldr	r3, [r3, #24]
 3122 008e 23F01002 		bic	r2, r3, #16
 3123 0092 029B     		ldr	r3, [sp, #8]
 3124 0094 9A61     		str	r2, [r3, #24]
 3125              		.loc 7 653 0
 3126 0096 019B     		ldr	r3, [sp, #4]
ARM GAS  C:\Users\PCHAUT~1\AppData\Local\Temp\ccJuO4y2.s 			page 56


 3127 0098 6033     		adds	r3, r3, #96
 3128 009a 0021     		movs	r1, #0
 3129 009c 1846     		mov	r0, r3
 3130 009e FFF7FEFF 		bl	osalThreadResumeI
 3131              		.loc 7 654 0
 3132 00a2 FFF7FEFF 		bl	osalSysUnlockFromISR
 3133              	.L215:
 3134              		.loc 7 658 0
 3135 00a6 029B     		ldr	r3, [sp, #8]
 3136 00a8 D3F81838 		ldr	r3, [r3, #2072]
 3137 00ac 0493     		str	r3, [sp, #16]
 3138              		.loc 7 659 0
 3139 00ae 039B     		ldr	r3, [sp, #12]
 3140 00b0 03F48023 		and	r3, r3, #262144
 3141 00b4 002B     		cmp	r3, #0
 3142 00b6 23D0     		beq	.L216
 3143              		.loc 7 660 0
 3144 00b8 049B     		ldr	r3, [sp, #16]
 3145 00ba 03F00103 		and	r3, r3, #1
 3146 00be 002B     		cmp	r3, #0
 3147 00c0 03D0     		beq	.L217
 3148              		.loc 7 661 0
 3149 00c2 0021     		movs	r1, #0
 3150 00c4 0198     		ldr	r0, [sp, #4]
 3151 00c6 FFF7FEFF 		bl	otg_epin_handler
 3152              	.L217:
 3153              		.loc 7 662 0
 3154 00ca 049B     		ldr	r3, [sp, #16]
 3155 00cc 03F00203 		and	r3, r3, #2
 3156 00d0 002B     		cmp	r3, #0
 3157 00d2 03D0     		beq	.L218
 3158              		.loc 7 663 0
 3159 00d4 0121     		movs	r1, #1
 3160 00d6 0198     		ldr	r0, [sp, #4]
 3161 00d8 FFF7FEFF 		bl	otg_epin_handler
 3162              	.L218:
 3163              		.loc 7 664 0
 3164 00dc 049B     		ldr	r3, [sp, #16]
 3165 00de 03F00403 		and	r3, r3, #4
 3166 00e2 002B     		cmp	r3, #0
 3167 00e4 03D0     		beq	.L219
 3168              		.loc 7 665 0
 3169 00e6 0221     		movs	r1, #2
 3170 00e8 0198     		ldr	r0, [sp, #4]
 3171 00ea FFF7FEFF 		bl	otg_epin_handler
 3172              	.L219:
 3173              		.loc 7 666 0
 3174 00ee 049B     		ldr	r3, [sp, #16]
 3175 00f0 03F00803 		and	r3, r3, #8
 3176 00f4 002B     		cmp	r3, #0
 3177 00f6 03D0     		beq	.L216
 3178              		.loc 7 667 0
 3179 00f8 0321     		movs	r1, #3
 3180 00fa 0198     		ldr	r0, [sp, #4]
 3181 00fc FFF7FEFF 		bl	otg_epin_handler
 3182              	.L216:
 3183              		.loc 7 675 0
ARM GAS  C:\Users\PCHAUT~1\AppData\Local\Temp\ccJuO4y2.s 			page 57


 3184 0100 039B     		ldr	r3, [sp, #12]
 3185 0102 03F40023 		and	r3, r3, #524288
 3186 0106 002B     		cmp	r3, #0
 3187 0108 23D0     		beq	.L225
 3188              		.loc 7 676 0
 3189 010a 049B     		ldr	r3, [sp, #16]
 3190 010c 03F48033 		and	r3, r3, #65536
 3191 0110 002B     		cmp	r3, #0
 3192 0112 03D0     		beq	.L221
 3193              		.loc 7 677 0
 3194 0114 0021     		movs	r1, #0
 3195 0116 0198     		ldr	r0, [sp, #4]
 3196 0118 FFF7FEFF 		bl	otg_epout_handler
 3197              	.L221:
 3198              		.loc 7 678 0
 3199 011c 049B     		ldr	r3, [sp, #16]
 3200 011e 03F40033 		and	r3, r3, #131072
 3201 0122 002B     		cmp	r3, #0
 3202 0124 03D0     		beq	.L222
 3203              		.loc 7 679 0
 3204 0126 0121     		movs	r1, #1
 3205 0128 0198     		ldr	r0, [sp, #4]
 3206 012a FFF7FEFF 		bl	otg_epout_handler
 3207              	.L222:
 3208              		.loc 7 680 0
 3209 012e 049B     		ldr	r3, [sp, #16]
 3210 0130 03F48023 		and	r3, r3, #262144
 3211 0134 002B     		cmp	r3, #0
 3212 0136 03D0     		beq	.L223
 3213              		.loc 7 681 0
 3214 0138 0221     		movs	r1, #2
 3215 013a 0198     		ldr	r0, [sp, #4]
 3216 013c FFF7FEFF 		bl	otg_epout_handler
 3217              	.L223:
 3218              		.loc 7 682 0
 3219 0140 049B     		ldr	r3, [sp, #16]
 3220 0142 03F40023 		and	r3, r3, #524288
 3221 0146 002B     		cmp	r3, #0
 3222 0148 03D0     		beq	.L225
 3223              		.loc 7 683 0
 3224 014a 0321     		movs	r1, #3
 3225 014c 0198     		ldr	r0, [sp, #4]
 3226 014e FFF7FEFF 		bl	otg_epout_handler
 3227              	.L225:
 3228              		.loc 7 691 0
 3229 0152 00BF     		nop
 3230 0154 044B     		ldr	r3, .L226
 3231 0156 059A     		ldr	r2, [sp, #20]
 3232 0158 1B68     		ldr	r3, [r3]
 3233 015a 9A42     		cmp	r2, r3
 3234 015c 01D0     		beq	.L224
 3235 015e FFF7FEFF 		bl	__stack_chk_fail
 3236              	.L224:
 3237 0162 07B0     		add	sp, sp, #28
 3238              		.cfi_def_cfa_offset 4
 3239              		@ sp needed
 3240 0164 5DF804FB 		ldr	pc, [sp], #4
ARM GAS  C:\Users\PCHAUT~1\AppData\Local\Temp\ccJuO4y2.s 			page 58


 3241              	.L227:
 3242              		.align	2
 3243              	.L226:
 3244 0168 00000000 		.word	__stack_chk_guard
 3245              		.cfi_endproc
 3246              	.LFE272:
 3247              		.size	usb_lld_serve_interrupt, .-usb_lld_serve_interrupt
 3248              		.section	.text.Vector14C,"ax",%progbits
 3249              		.align	1
 3250              		.p2align 4,,15
 3251              		.global	Vector14C
 3252              		.syntax unified
 3253              		.thumb
 3254              		.thumb_func
 3255              		.fpu fpv4-sp-d16
 3256              		.type	Vector14C, %function
 3257              	Vector14C:
 3258              	.LFB273:
 3259              		.loc 7 706 0
 3260              		.cfi_startproc
 3261              		@ args = 0, pretend = 0, frame = 8
 3262              		@ frame_needed = 0, uses_anonymous_args = 0
 3263 0000 00B5     		push	{lr}
 3264              		.cfi_def_cfa_offset 4
 3265              		.cfi_offset 14, -4
 3266 0002 83B0     		sub	sp, sp, #12
 3267              		.cfi_def_cfa_offset 16
 3268              		.loc 7 706 0
 3269 0004 0C4B     		ldr	r3, .L230
 3270 0006 1B68     		ldr	r3, [r3]
 3271 0008 0193     		str	r3, [sp, #4]
 3272              		.loc 7 708 0
 3273 000a FFF7FEFF 		bl	_stats_increase_irq
 3274 000e FFF7FEFF 		bl	_dbg_check_enter_isr
 3275              		.loc 7 710 0
 3276 0012 0A48     		ldr	r0, .L230+4
 3277 0014 FFF7FEFF 		bl	usb_lld_serve_interrupt
 3278              		.loc 7 712 0
 3279 0018 FFF7FEFF 		bl	_dbg_check_leave_isr
 3280 001c FFF7FEFF 		bl	_port_irq_epilogue
 3281              		.loc 7 713 0
 3282 0020 00BF     		nop
 3283 0022 054B     		ldr	r3, .L230
 3284 0024 019A     		ldr	r2, [sp, #4]
 3285 0026 1B68     		ldr	r3, [r3]
 3286 0028 9A42     		cmp	r2, r3
 3287 002a 01D0     		beq	.L229
 3288 002c FFF7FEFF 		bl	__stack_chk_fail
 3289              	.L229:
 3290 0030 03B0     		add	sp, sp, #12
 3291              		.cfi_def_cfa_offset 4
 3292              		@ sp needed
 3293 0032 5DF804FB 		ldr	pc, [sp], #4
 3294              	.L231:
 3295 0036 00BF     		.align	2
 3296              	.L230:
 3297 0038 00000000 		.word	__stack_chk_guard
ARM GAS  C:\Users\PCHAUT~1\AppData\Local\Temp\ccJuO4y2.s 			page 59


 3298 003c 00000000 		.word	USBD1
 3299              		.cfi_endproc
 3300              	.LFE273:
 3301              		.size	Vector14C, .-Vector14C
 3302              		.section	.text.usb_lld_init,"ax",%progbits
 3303              		.align	1
 3304              		.p2align 4,,15
 3305              		.global	usb_lld_init
 3306              		.syntax unified
 3307              		.thumb
 3308              		.thumb_func
 3309              		.fpu fpv4-sp-d16
 3310              		.type	usb_lld_init, %function
 3311              	usb_lld_init:
 3312              	.LFB274:
 3313              		.loc 7 744 0
 3314              		.cfi_startproc
 3315              		@ args = 0, pretend = 0, frame = 8
 3316              		@ frame_needed = 0, uses_anonymous_args = 0
 3317 0000 00B5     		push	{lr}
 3318              		.cfi_def_cfa_offset 4
 3319              		.cfi_offset 14, -4
 3320 0002 83B0     		sub	sp, sp, #12
 3321              		.cfi_def_cfa_offset 16
 3322              		.loc 7 744 0
 3323 0004 184B     		ldr	r3, .L234
 3324 0006 1B68     		ldr	r3, [r3]
 3325 0008 0193     		str	r3, [sp, #4]
 3326              		.loc 7 748 0
 3327 000a 1848     		ldr	r0, .L234+4
 3328 000c FFF7FEFF 		bl	usbObjectInit
 3329              		.loc 7 749 0
 3330 0010 164B     		ldr	r3, .L234+4
 3331 0012 0022     		movs	r2, #0
 3332 0014 1A66     		str	r2, [r3, #96]
 3333              		.loc 7 750 0
 3334 0016 154B     		ldr	r3, .L234+4
 3335 0018 4FF0A042 		mov	r2, #1342177280
 3336 001c 1A65     		str	r2, [r3, #80]
 3337              		.loc 7 751 0
 3338 001e 134B     		ldr	r3, .L234+4
 3339 0020 134A     		ldr	r2, .L234+8
 3340 0022 5A65     		str	r2, [r3, #84]
 3341              		.loc 7 754 0
 3342 0024 114B     		ldr	r3, .L234+4
 3343 0026 0022     		movs	r2, #0
 3344 0028 5A66     		str	r2, [r3, #100]
 3345              	.LBB22:
 3346              		.loc 7 759 0
 3347 002a 124B     		ldr	r3, .L234+12
 3348 002c 0093     		str	r3, [sp]
 3349              		.loc 7 760 0
 3350 002e 009B     		ldr	r3, [sp]
 3351 0030 6833     		adds	r3, r3, #104
 3352 0032 FF22     		movs	r2, #255
 3353 0034 1946     		mov	r1, r3
 3354 0036 0098     		ldr	r0, [sp]
ARM GAS  C:\Users\PCHAUT~1\AppData\Local\Temp\ccJuO4y2.s 			page 60


 3355 0038 FFF7FEFF 		bl	_thread_memfill
 3356              		.loc 7 763 0
 3357 003c 009B     		ldr	r3, [sp]
 3358 003e 03F16800 		add	r0, r3, #104
 3359 0042 009B     		ldr	r3, [sp]
 3360 0044 03F5FC73 		add	r3, r3, #504
 3361 0048 5522     		movs	r2, #85
 3362 004a 1946     		mov	r1, r3
 3363 004c FFF7FEFF 		bl	_thread_memfill
 3364              	.LBE22:
 3365              		.loc 7 794 0
 3366 0050 00BF     		nop
 3367 0052 054B     		ldr	r3, .L234
 3368 0054 019A     		ldr	r2, [sp, #4]
 3369 0056 1B68     		ldr	r3, [r3]
 3370 0058 9A42     		cmp	r2, r3
 3371 005a 01D0     		beq	.L233
 3372 005c FFF7FEFF 		bl	__stack_chk_fail
 3373              	.L233:
 3374 0060 03B0     		add	sp, sp, #12
 3375              		.cfi_def_cfa_offset 4
 3376              		@ sp needed
 3377 0062 5DF804FB 		ldr	pc, [sp], #4
 3378              	.L235:
 3379 0066 00BF     		.align	2
 3380              	.L234:
 3381 0068 00000000 		.word	__stack_chk_guard
 3382 006c 00000000 		.word	USBD1
 3383 0070 00000000 		.word	fsparams
 3384 0074 68000000 		.word	USBD1+104
 3385              		.cfi_endproc
 3386              	.LFE274:
 3387              		.size	usb_lld_init, .-usb_lld_init
 3388              		.section	.text.usb_lld_start,"ax",%progbits
 3389              		.align	1
 3390              		.p2align 4,,15
 3391              		.global	usb_lld_start
 3392              		.syntax unified
 3393              		.thumb
 3394              		.thumb_func
 3395              		.fpu fpv4-sp-d16
 3396              		.type	usb_lld_start, %function
 3397              	usb_lld_start:
 3398              	.LFB275:
 3399              		.loc 7 806 0
 3400              		.cfi_startproc
 3401              		@ args = 0, pretend = 0, frame = 16
 3402              		@ frame_needed = 0, uses_anonymous_args = 0
 3403 0000 00B5     		push	{lr}
 3404              		.cfi_def_cfa_offset 4
 3405              		.cfi_offset 14, -4
 3406 0002 87B0     		sub	sp, sp, #28
 3407              		.cfi_def_cfa_offset 32
 3408 0004 0390     		str	r0, [sp, #12]
 3409              		.loc 7 806 0
 3410 0006 424B     		ldr	r3, .L244
 3411 0008 1B68     		ldr	r3, [r3]
ARM GAS  C:\Users\PCHAUT~1\AppData\Local\Temp\ccJuO4y2.s 			page 61


 3412 000a 0593     		str	r3, [sp, #20]
 3413              		.loc 7 807 0
 3414 000c 039B     		ldr	r3, [sp, #12]
 3415 000e 1B6D     		ldr	r3, [r3, #80]
 3416 0010 0493     		str	r3, [sp, #16]
 3417              		.loc 7 809 0
 3418 0012 039B     		ldr	r3, [sp, #12]
 3419 0014 1B78     		ldrb	r3, [r3]	@ zero_extendqisi2
 3420 0016 012B     		cmp	r3, #1
 3421 0018 6ED1     		bne	.L243
 3422              		.loc 7 812 0
 3423 001a 039B     		ldr	r3, [sp, #12]
 3424 001c 3D4A     		ldr	r2, .L244+4
 3425 001e 9342     		cmp	r3, r2
 3426 0020 12D1     		bne	.L238
 3427              		.loc 7 814 0
 3428 0022 3D4B     		ldr	r3, .L244+8
 3429 0024 5B6B     		ldr	r3, [r3, #52]
 3430 0026 3C4A     		ldr	r2, .L244+8
 3431 0028 43F08003 		orr	r3, r3, #128
 3432 002c 5363     		str	r3, [r2, #52]
 3433              		.loc 7 815 0
 3434 002e 3A4B     		ldr	r3, .L244+8
 3435 0030 5B69     		ldr	r3, [r3, #20]
 3436 0032 394A     		ldr	r2, .L244+8
 3437 0034 43F08003 		orr	r3, r3, #128
 3438 0038 5361     		str	r3, [r2, #20]
 3439 003a 374B     		ldr	r3, .L244+8
 3440 003c 0022     		movs	r2, #0
 3441 003e 5A61     		str	r2, [r3, #20]
 3442              		.loc 7 818 0
 3443 0040 0E21     		movs	r1, #14
 3444 0042 4320     		movs	r0, #67
 3445 0044 FFF7FEFF 		bl	nvicEnableVector
 3446              	.L238:
 3447              		.loc 7 836 0
 3448 0048 039B     		ldr	r3, [sp, #12]
 3449 004a 0022     		movs	r2, #0
 3450 004c DA65     		str	r2, [r3, #92]
 3451              		.loc 7 841 0
 3452 004e 049B     		ldr	r3, [sp, #16]
 3453 0050 324A     		ldr	r2, .L244+12
 3454 0052 DA60     		str	r2, [r3, #12]
 3455              		.loc 7 844 0
 3456 0054 049B     		ldr	r3, [sp, #16]
 3457 0056 324A     		ldr	r2, .L244+16
 3458 0058 C3F80028 		str	r2, [r3, #2048]
 3459              		.loc 7 847 0
 3460 005c 049B     		ldr	r3, [sp, #16]
 3461 005e 0022     		movs	r2, #0
 3462 0060 C3F8002E 		str	r2, [r3, #3584]
 3463              		.loc 7 854 0
 3464 0064 049B     		ldr	r3, [sp, #16]
 3465 0066 4FF45022 		mov	r2, #851968
 3466 006a 9A63     		str	r2, [r3, #56]
 3467              		.loc 7 858 0
 3468 006c 0398     		ldr	r0, [sp, #12]
ARM GAS  C:\Users\PCHAUT~1\AppData\Local\Temp\ccJuO4y2.s 			page 62


 3469 006e FFF7FEFF 		bl	otg_core_reset
 3470              		.loc 7 861 0
 3471 0072 049B     		ldr	r3, [sp, #16]
 3472 0074 0022     		movs	r2, #0
 3473 0076 9A60     		str	r2, [r3, #8]
 3474              		.loc 7 864 0
 3475 0078 0398     		ldr	r0, [sp, #12]
 3476 007a FFF7FEFF 		bl	otg_disable_ep
 3477              		.loc 7 868 0
 3478 007e 049B     		ldr	r3, [sp, #16]
 3479 0080 0022     		movs	r2, #0
 3480 0082 C3F81028 		str	r2, [r3, #2064]
 3481              		.loc 7 869 0
 3482 0086 049B     		ldr	r3, [sp, #16]
 3483 0088 0022     		movs	r2, #0
 3484 008a C3F81428 		str	r2, [r3, #2068]
 3485              		.loc 7 870 0
 3486 008e 049B     		ldr	r3, [sp, #16]
 3487 0090 0022     		movs	r2, #0
 3488 0092 C3F81C28 		str	r2, [r3, #2076]
 3489              		.loc 7 871 0
 3490 0096 039B     		ldr	r3, [sp, #12]
 3491 0098 5B68     		ldr	r3, [r3, #4]
 3492 009a DB68     		ldr	r3, [r3, #12]
 3493 009c 002B     		cmp	r3, #0
 3494 009e 04D1     		bne	.L239
 3495              		.loc 7 872 0
 3496 00a0 049B     		ldr	r3, [sp, #16]
 3497 00a2 4FF44052 		mov	r2, #12288
 3498 00a6 9A61     		str	r2, [r3, #24]
 3499 00a8 03E0     		b	.L240
 3500              	.L239:
 3501              		.loc 7 875 0
 3502 00aa 049B     		ldr	r3, [sp, #16]
 3503 00ac 43F20802 		movw	r2, #12296
 3504 00b0 9A61     		str	r2, [r3, #24]
 3505              	.L240:
 3506              		.loc 7 877 0
 3507 00b2 049B     		ldr	r3, [sp, #16]
 3508 00b4 4FF0FF32 		mov	r2, #-1
 3509 00b8 5A61     		str	r2, [r3, #20]
 3510              		.loc 7 881 0
 3511 00ba 039B     		ldr	r3, [sp, #12]
 3512 00bc 5B6E     		ldr	r3, [r3, #100]
 3513 00be 002B     		cmp	r3, #0
 3514 00c0 14D1     		bne	.L241
 3515              		.loc 7 882 0
 3516 00c2 039B     		ldr	r3, [sp, #12]
 3517 00c4 03F16800 		add	r0, r3, #104
 3518 00c8 039B     		ldr	r3, [sp, #12]
 3519 00ca 0093     		str	r3, [sp]
 3520 00cc 154B     		ldr	r3, .L244+20
 3521 00ce 4A22     		movs	r2, #74
 3522 00d0 4FF4FC71 		mov	r1, #504
 3523 00d4 FFF7FEFF 		bl	chThdCreateI
 3524 00d8 0246     		mov	r2, r0
 3525 00da 039B     		ldr	r3, [sp, #12]
ARM GAS  C:\Users\PCHAUT~1\AppData\Local\Temp\ccJuO4y2.s 			page 63


 3526 00dc 5A66     		str	r2, [r3, #100]
 3527              		.loc 7 885 0
 3528 00de 039B     		ldr	r3, [sp, #12]
 3529 00e0 5B6E     		ldr	r3, [r3, #100]
 3530 00e2 1846     		mov	r0, r3
 3531 00e4 FFF7FEFF 		bl	chThdStartI
 3532              		.loc 7 886 0
 3533 00e8 FFF7FEFF 		bl	chSchRescheduleS
 3534              	.L241:
 3535              		.loc 7 891 0
 3536 00ec 049B     		ldr	r3, [sp, #16]
 3537 00ee 9B68     		ldr	r3, [r3, #8]
 3538 00f0 43F00102 		orr	r2, r3, #1
 3539 00f4 049B     		ldr	r3, [sp, #16]
 3540 00f6 9A60     		str	r2, [r3, #8]
 3541              	.L243:
 3542              		.loc 7 893 0
 3543 00f8 00BF     		nop
 3544 00fa 054B     		ldr	r3, .L244
 3545 00fc 059A     		ldr	r2, [sp, #20]
 3546 00fe 1B68     		ldr	r3, [r3]
 3547 0100 9A42     		cmp	r2, r3
 3548 0102 01D0     		beq	.L242
 3549 0104 FFF7FEFF 		bl	__stack_chk_fail
 3550              	.L242:
 3551 0108 07B0     		add	sp, sp, #28
 3552              		.cfi_def_cfa_offset 4
 3553              		@ sp needed
 3554 010a 5DF804FB 		ldr	pc, [sp], #4
 3555              	.L245:
 3556 010e 00BF     		.align	2
 3557              	.L244:
 3558 0110 00000000 		.word	__stack_chk_guard
 3559 0114 00000000 		.word	USBD1
 3560 0118 00380240 		.word	1073887232
 3561 011c 40140040 		.word	1073747008
 3562 0120 03002002 		.word	35651587
 3563 0124 00000000 		.word	usb_lld_pump
 3564              		.cfi_endproc
 3565              	.LFE275:
 3566              		.size	usb_lld_start, .-usb_lld_start
 3567              		.section	.text.usb_lld_stop,"ax",%progbits
 3568              		.align	1
 3569              		.p2align 4,,15
 3570              		.global	usb_lld_stop
 3571              		.syntax unified
 3572              		.thumb
 3573              		.thumb_func
 3574              		.fpu fpv4-sp-d16
 3575              		.type	usb_lld_stop, %function
 3576              	usb_lld_stop:
 3577              	.LFB276:
 3578              		.loc 7 902 0
 3579              		.cfi_startproc
 3580              		@ args = 0, pretend = 0, frame = 16
 3581              		@ frame_needed = 0, uses_anonymous_args = 0
 3582 0000 00B5     		push	{lr}
ARM GAS  C:\Users\PCHAUT~1\AppData\Local\Temp\ccJuO4y2.s 			page 64


 3583              		.cfi_def_cfa_offset 4
 3584              		.cfi_offset 14, -4
 3585 0002 85B0     		sub	sp, sp, #20
 3586              		.cfi_def_cfa_offset 24
 3587 0004 0190     		str	r0, [sp, #4]
 3588              		.loc 7 902 0
 3589 0006 194B     		ldr	r3, .L250
 3590 0008 1B68     		ldr	r3, [r3]
 3591 000a 0393     		str	r3, [sp, #12]
 3592              		.loc 7 903 0
 3593 000c 019B     		ldr	r3, [sp, #4]
 3594 000e 1B6D     		ldr	r3, [r3, #80]
 3595 0010 0293     		str	r3, [sp, #8]
 3596              		.loc 7 906 0
 3597 0012 019B     		ldr	r3, [sp, #4]
 3598 0014 1B78     		ldrb	r3, [r3]	@ zero_extendqisi2
 3599 0016 012B     		cmp	r3, #1
 3600 0018 1CD0     		beq	.L249
 3601              		.loc 7 910 0
 3602 001a 0198     		ldr	r0, [sp, #4]
 3603 001c FFF7FEFF 		bl	otg_disable_ep
 3604              		.loc 7 912 0
 3605 0020 019B     		ldr	r3, [sp, #4]
 3606 0022 0022     		movs	r2, #0
 3607 0024 DA65     		str	r2, [r3, #92]
 3608              		.loc 7 914 0
 3609 0026 029B     		ldr	r3, [sp, #8]
 3610 0028 0022     		movs	r2, #0
 3611 002a C3F81C28 		str	r2, [r3, #2076]
 3612              		.loc 7 915 0
 3613 002e 029B     		ldr	r3, [sp, #8]
 3614 0030 0022     		movs	r2, #0
 3615 0032 9A60     		str	r2, [r3, #8]
 3616              		.loc 7 916 0
 3617 0034 029B     		ldr	r3, [sp, #8]
 3618 0036 0022     		movs	r2, #0
 3619 0038 9A63     		str	r2, [r3, #56]
 3620              		.loc 7 919 0
 3621 003a 019B     		ldr	r3, [sp, #4]
 3622 003c 0C4A     		ldr	r2, .L250+4
 3623 003e 9342     		cmp	r3, r2
 3624 0040 08D1     		bne	.L249
 3625              		.loc 7 920 0
 3626 0042 4320     		movs	r0, #67
 3627 0044 FFF7FEFF 		bl	nvicDisableVector
 3628              		.loc 7 921 0
 3629 0048 0A4B     		ldr	r3, .L250+8
 3630 004a 5B6B     		ldr	r3, [r3, #52]
 3631 004c 094A     		ldr	r2, .L250+8
 3632 004e 23F08003 		bic	r3, r3, #128
 3633 0052 5363     		str	r3, [r2, #52]
 3634              	.L249:
 3635              		.loc 7 932 0
 3636 0054 00BF     		nop
 3637 0056 054B     		ldr	r3, .L250
 3638 0058 039A     		ldr	r2, [sp, #12]
 3639 005a 1B68     		ldr	r3, [r3]
ARM GAS  C:\Users\PCHAUT~1\AppData\Local\Temp\ccJuO4y2.s 			page 65


 3640 005c 9A42     		cmp	r2, r3
 3641 005e 01D0     		beq	.L248
 3642 0060 FFF7FEFF 		bl	__stack_chk_fail
 3643              	.L248:
 3644 0064 05B0     		add	sp, sp, #20
 3645              		.cfi_def_cfa_offset 4
 3646              		@ sp needed
 3647 0066 5DF804FB 		ldr	pc, [sp], #4
 3648              	.L251:
 3649 006a 00BF     		.align	2
 3650              	.L250:
 3651 006c 00000000 		.word	__stack_chk_guard
 3652 0070 00000000 		.word	USBD1
 3653 0074 00380240 		.word	1073887232
 3654              		.cfi_endproc
 3655              	.LFE276:
 3656              		.size	usb_lld_stop, .-usb_lld_stop
 3657              		.section	.text.usb_lld_reset,"ax",%progbits
 3658              		.align	1
 3659              		.p2align 4,,15
 3660              		.global	usb_lld_reset
 3661              		.syntax unified
 3662              		.thumb
 3663              		.thumb_func
 3664              		.fpu fpv4-sp-d16
 3665              		.type	usb_lld_reset, %function
 3666              	usb_lld_reset:
 3667              	.LFB277:
 3668              		.loc 7 941 0
 3669              		.cfi_startproc
 3670              		@ args = 0, pretend = 0, frame = 24
 3671              		@ frame_needed = 0, uses_anonymous_args = 0
 3672 0000 10B5     		push	{r4, lr}
 3673              		.cfi_def_cfa_offset 8
 3674              		.cfi_offset 4, -8
 3675              		.cfi_offset 14, -4
 3676 0002 86B0     		sub	sp, sp, #24
 3677              		.cfi_def_cfa_offset 32
 3678 0004 0190     		str	r0, [sp, #4]
 3679              		.loc 7 941 0
 3680 0006 4C4B     		ldr	r3, .L256
 3681 0008 1B68     		ldr	r3, [r3]
 3682 000a 0593     		str	r3, [sp, #20]
 3683              		.loc 7 943 0
 3684 000c 019B     		ldr	r3, [sp, #4]
 3685 000e 1B6D     		ldr	r3, [r3, #80]
 3686 0010 0493     		str	r3, [sp, #16]
 3687              		.loc 7 946 0
 3688 0012 0021     		movs	r1, #0
 3689 0014 0198     		ldr	r0, [sp, #4]
 3690 0016 FFF7FEFF 		bl	otg_txfifo_flush
 3691              		.loc 7 949 0
 3692 001a 0023     		movs	r3, #0
 3693 001c 0393     		str	r3, [sp, #12]
 3694 001e 22E0     		b	.L253
 3695              	.L254:
 3696              		.loc 7 950 0 discriminator 3
ARM GAS  C:\Users\PCHAUT~1\AppData\Local\Temp\ccJuO4y2.s 			page 66


 3697 0020 049A     		ldr	r2, [sp, #16]
 3698 0022 039B     		ldr	r3, [sp, #12]
 3699 0024 4833     		adds	r3, r3, #72
 3700 0026 5B01     		lsls	r3, r3, #5
 3701 0028 1344     		add	r3, r3, r2
 3702 002a 4FF00062 		mov	r2, #134217728
 3703 002e 1A60     		str	r2, [r3]
 3704              		.loc 7 951 0 discriminator 3
 3705 0030 049A     		ldr	r2, [sp, #16]
 3706 0032 039B     		ldr	r3, [sp, #12]
 3707 0034 5833     		adds	r3, r3, #88
 3708 0036 5B01     		lsls	r3, r3, #5
 3709 0038 1344     		add	r3, r3, r2
 3710 003a 4FF00062 		mov	r2, #134217728
 3711 003e 1A60     		str	r2, [r3]
 3712              		.loc 7 952 0 discriminator 3
 3713 0040 049A     		ldr	r2, [sp, #16]
 3714 0042 039B     		ldr	r3, [sp, #12]
 3715 0044 5B01     		lsls	r3, r3, #5
 3716 0046 1344     		add	r3, r3, r2
 3717 0048 03F60813 		addw	r3, r3, #2312
 3718 004c FF22     		movs	r2, #255
 3719 004e 1A60     		str	r2, [r3]
 3720              		.loc 7 953 0 discriminator 3
 3721 0050 049A     		ldr	r2, [sp, #16]
 3722 0052 039B     		ldr	r3, [sp, #12]
 3723 0054 5B01     		lsls	r3, r3, #5
 3724 0056 1344     		add	r3, r3, r2
 3725 0058 03F60833 		addw	r3, r3, #2824
 3726 005c FF22     		movs	r2, #255
 3727 005e 1A60     		str	r2, [r3]
 3728              		.loc 7 949 0 discriminator 3
 3729 0060 039B     		ldr	r3, [sp, #12]
 3730 0062 0133     		adds	r3, r3, #1
 3731 0064 0393     		str	r3, [sp, #12]
 3732              	.L253:
 3733              		.loc 7 949 0 is_stmt 0 discriminator 1
 3734 0066 019B     		ldr	r3, [sp, #4]
 3735 0068 5B6D     		ldr	r3, [r3, #84]
 3736 006a 9B68     		ldr	r3, [r3, #8]
 3737 006c 039A     		ldr	r2, [sp, #12]
 3738 006e 9A42     		cmp	r2, r3
 3739 0070 D6D9     		bls	.L254
 3740              		.loc 7 957 0 is_stmt 1
 3741 0072 049B     		ldr	r3, [sp, #16]
 3742 0074 4FF0FF32 		mov	r2, #-1
 3743 0078 C3F81828 		str	r2, [r3, #2072]
 3744              		.loc 7 958 0
 3745 007c 049B     		ldr	r3, [sp, #16]
 3746 007e 4FF00112 		mov	r2, #65537
 3747 0082 C3F81C28 		str	r2, [r3, #2076]
 3748              		.loc 7 961 0
 3749 0086 0198     		ldr	r0, [sp, #4]
 3750 0088 FFF7FEFF 		bl	otg_ram_reset
 3751              		.loc 7 964 0
 3752 008c 019B     		ldr	r3, [sp, #4]
 3753 008e 5B6D     		ldr	r3, [r3, #84]
ARM GAS  C:\Users\PCHAUT~1\AppData\Local\Temp\ccJuO4y2.s 			page 67


 3754 0090 1A68     		ldr	r2, [r3]
 3755 0092 049B     		ldr	r3, [sp, #16]
 3756 0094 5A62     		str	r2, [r3, #36]
 3757              		.loc 7 965 0
 3758 0096 0198     		ldr	r0, [sp, #4]
 3759 0098 FFF7FEFF 		bl	otg_rxfifo_flush
 3760              		.loc 7 968 0
 3761 009c 049B     		ldr	r3, [sp, #16]
 3762 009e D3F80038 		ldr	r3, [r3, #2048]
 3763 00a2 23F4FE62 		bic	r2, r3, #2032
 3764 00a6 049B     		ldr	r3, [sp, #16]
 3765 00a8 C3F80028 		str	r2, [r3, #2048]
 3766              		.loc 7 971 0
 3767 00ac 049B     		ldr	r3, [sp, #16]
 3768 00ae 9B69     		ldr	r3, [r3, #24]
 3769 00b0 43F44023 		orr	r3, r3, #786432
 3770 00b4 43F01003 		orr	r3, r3, #16
 3771 00b8 049A     		ldr	r2, [sp, #16]
 3772 00ba 9361     		str	r3, [r2, #24]
 3773              		.loc 7 972 0
 3774 00bc 049B     		ldr	r3, [sp, #16]
 3775 00be 0922     		movs	r2, #9
 3776 00c0 C3F81028 		str	r2, [r3, #2064]
 3777              		.loc 7 973 0
 3778 00c4 049B     		ldr	r3, [sp, #16]
 3779 00c6 0922     		movs	r2, #9
 3780 00c8 C3F81428 		str	r2, [r3, #2068]
 3781              		.loc 7 976 0
 3782 00cc 019B     		ldr	r3, [sp, #4]
 3783 00ce 1B4A     		ldr	r2, .L256+4
 3784 00d0 DA60     		str	r2, [r3, #12]
 3785              		.loc 7 977 0
 3786 00d2 049B     		ldr	r3, [sp, #16]
 3787 00d4 0022     		movs	r2, #0
 3788 00d6 C3F8102B 		str	r2, [r3, #2832]
 3789              		.loc 7 979 0
 3790 00da 4023     		movs	r3, #64
 3791              		.loc 7 978 0
 3792 00dc 43F08053 		orr	r3, r3, #268435456
 3793 00e0 43F40043 		orr	r3, r3, #32768
 3794 00e4 049A     		ldr	r2, [sp, #16]
 3795 00e6 C2F8003B 		str	r3, [r2, #2816]
 3796              		.loc 7 980 0
 3797 00ea 049B     		ldr	r3, [sp, #16]
 3798 00ec 0022     		movs	r2, #0
 3799 00ee C3F81029 		str	r2, [r3, #2320]
 3800              		.loc 7 982 0
 3801 00f2 4023     		movs	r3, #64
 3802 00f4 43F08053 		orr	r3, r3, #268435456
 3803 00f8 43F40043 		orr	r3, r3, #32768
 3804              		.loc 7 981 0
 3805 00fc 049A     		ldr	r2, [sp, #16]
 3806 00fe C2F80039 		str	r3, [r2, #2304]
 3807              		.loc 7 983 0
 3808 0102 4023     		movs	r3, #64
 3809 0104 9B08     		lsrs	r3, r3, #2
 3810 0106 9BB2     		uxth	r3, r3
ARM GAS  C:\Users\PCHAUT~1\AppData\Local\Temp\ccJuO4y2.s 			page 68


 3811 0108 1B04     		lsls	r3, r3, #16
 3812 010a 1C46     		mov	r4, r3
 3813              		.loc 7 984 0
 3814 010c 4023     		movs	r3, #64
 3815 010e 9B08     		lsrs	r3, r3, #2
 3816 0110 9BB2     		uxth	r3, r3
 3817 0112 1946     		mov	r1, r3
 3818 0114 0198     		ldr	r0, [sp, #4]
 3819 0116 FFF7FEFF 		bl	otg_ram_alloc
 3820 011a 0346     		mov	r3, r0
 3821              		.loc 7 983 0
 3822 011c 44EA0302 		orr	r2, r4, r3
 3823 0120 049B     		ldr	r3, [sp, #16]
 3824 0122 9A62     		str	r2, [r3, #40]
 3825              		.loc 7 986 0
 3826 0124 00BF     		nop
 3827 0126 044B     		ldr	r3, .L256
 3828 0128 059A     		ldr	r2, [sp, #20]
 3829 012a 1B68     		ldr	r3, [r3]
 3830 012c 9A42     		cmp	r2, r3
 3831 012e 01D0     		beq	.L255
 3832 0130 FFF7FEFF 		bl	__stack_chk_fail
 3833              	.L255:
 3834 0134 06B0     		add	sp, sp, #24
 3835              		.cfi_def_cfa_offset 8
 3836              		@ sp needed
 3837 0136 10BD     		pop	{r4, pc}
 3838              	.L257:
 3839              		.align	2
 3840              	.L256:
 3841 0138 00000000 		.word	__stack_chk_guard
 3842 013c 00000000 		.word	ep0config
 3843              		.cfi_endproc
 3844              	.LFE277:
 3845              		.size	usb_lld_reset, .-usb_lld_reset
 3846              		.section	.text.usb_lld_set_address,"ax",%progbits
 3847              		.align	1
 3848              		.p2align 4,,15
 3849              		.global	usb_lld_set_address
 3850              		.syntax unified
 3851              		.thumb
 3852              		.thumb_func
 3853              		.fpu fpv4-sp-d16
 3854              		.type	usb_lld_set_address, %function
 3855              	usb_lld_set_address:
 3856              	.LFB278:
 3857              		.loc 7 995 0
 3858              		.cfi_startproc
 3859              		@ args = 0, pretend = 0, frame = 16
 3860              		@ frame_needed = 0, uses_anonymous_args = 0
 3861 0000 00B5     		push	{lr}
 3862              		.cfi_def_cfa_offset 4
 3863              		.cfi_offset 14, -4
 3864 0002 85B0     		sub	sp, sp, #20
 3865              		.cfi_def_cfa_offset 24
 3866 0004 0190     		str	r0, [sp, #4]
 3867              		.loc 7 995 0
ARM GAS  C:\Users\PCHAUT~1\AppData\Local\Temp\ccJuO4y2.s 			page 69


 3868 0006 0F4B     		ldr	r3, .L260
 3869 0008 1B68     		ldr	r3, [r3]
 3870 000a 0393     		str	r3, [sp, #12]
 3871              		.loc 7 996 0
 3872 000c 019B     		ldr	r3, [sp, #4]
 3873 000e 1B6D     		ldr	r3, [r3, #80]
 3874 0010 0293     		str	r3, [sp, #8]
 3875              		.loc 7 998 0
 3876 0012 029B     		ldr	r3, [sp, #8]
 3877 0014 D3F80038 		ldr	r3, [r3, #2048]
 3878 0018 23F4FE63 		bic	r3, r3, #2032
 3879 001c 019A     		ldr	r2, [sp, #4]
 3880 001e 92F84E20 		ldrb	r2, [r2, #78]	@ zero_extendqisi2
 3881 0022 1201     		lsls	r2, r2, #4
 3882 0024 1A43     		orrs	r2, r2, r3
 3883 0026 029B     		ldr	r3, [sp, #8]
 3884 0028 C3F80028 		str	r2, [r3, #2048]
 3885              		.loc 7 999 0
 3886 002c 00BF     		nop
 3887 002e 054B     		ldr	r3, .L260
 3888 0030 039A     		ldr	r2, [sp, #12]
 3889 0032 1B68     		ldr	r3, [r3]
 3890 0034 9A42     		cmp	r2, r3
 3891 0036 01D0     		beq	.L259
 3892 0038 FFF7FEFF 		bl	__stack_chk_fail
 3893              	.L259:
 3894 003c 05B0     		add	sp, sp, #20
 3895              		.cfi_def_cfa_offset 4
 3896              		@ sp needed
 3897 003e 5DF804FB 		ldr	pc, [sp], #4
 3898              	.L261:
 3899 0042 00BF     		.align	2
 3900              	.L260:
 3901 0044 00000000 		.word	__stack_chk_guard
 3902              		.cfi_endproc
 3903              	.LFE278:
 3904              		.size	usb_lld_set_address, .-usb_lld_set_address
 3905              		.section	.text.usb_lld_init_endpoint,"ax",%progbits
 3906              		.align	1
 3907              		.p2align 4,,15
 3908              		.global	usb_lld_init_endpoint
 3909              		.syntax unified
 3910              		.thumb
 3911              		.thumb_func
 3912              		.fpu fpv4-sp-d16
 3913              		.type	usb_lld_init_endpoint, %function
 3914              	usb_lld_init_endpoint:
 3915              	.LFB279:
 3916              		.loc 7 1009 0
 3917              		.cfi_startproc
 3918              		@ args = 0, pretend = 0, frame = 24
 3919              		@ frame_needed = 0, uses_anonymous_args = 0
 3920 0000 10B5     		push	{r4, lr}
 3921              		.cfi_def_cfa_offset 8
 3922              		.cfi_offset 4, -8
 3923              		.cfi_offset 14, -4
 3924 0002 86B0     		sub	sp, sp, #24
ARM GAS  C:\Users\PCHAUT~1\AppData\Local\Temp\ccJuO4y2.s 			page 70


 3925              		.cfi_def_cfa_offset 32
 3926 0004 0190     		str	r0, [sp, #4]
 3927 0006 0B46     		mov	r3, r1
 3928 0008 8DF80330 		strb	r3, [sp, #3]
 3929              		.loc 7 1009 0
 3930 000c 904B     		ldr	r3, .L277
 3931 000e 1B68     		ldr	r3, [r3]
 3932 0010 0593     		str	r3, [sp, #20]
 3933              		.loc 7 1011 0
 3934 0012 019B     		ldr	r3, [sp, #4]
 3935 0014 1B6D     		ldr	r3, [r3, #80]
 3936 0016 0493     		str	r3, [sp, #16]
 3937              		.loc 7 1014 0
 3938 0018 9DF80330 		ldrb	r3, [sp, #3]	@ zero_extendqisi2
 3939 001c 019A     		ldr	r2, [sp, #4]
 3940 001e 0233     		adds	r3, r3, #2
 3941 0020 9B00     		lsls	r3, r3, #2
 3942 0022 1344     		add	r3, r3, r2
 3943 0024 5B68     		ldr	r3, [r3, #4]
 3944 0026 1B68     		ldr	r3, [r3]
 3945 0028 03F00303 		and	r3, r3, #3
 3946 002c 032B     		cmp	r3, #3
 3947 002e 00F20481 		bhi	.L276
 3948 0032 01A2     		adr	r2, .L265
 3949 0034 52F823F0 		ldr	pc, [r2, r3, lsl #2]
 3950              		.p2align 2
 3951              	.L265:
 3952 0038 49000000 		.word	.L264+1
 3953 003c 4F000000 		.word	.L266+1
 3954 0040 55000000 		.word	.L267+1
 3955 0044 5B000000 		.word	.L268+1
 3956              		.p2align 1
 3957              	.L264:
 3958              		.loc 7 1016 0
 3959 0048 824B     		ldr	r3, .L277+4
 3960 004a 0293     		str	r3, [sp, #8]
 3961              		.loc 7 1017 0
 3962 004c 08E0     		b	.L269
 3963              	.L266:
 3964              		.loc 7 1019 0
 3965 004e 824B     		ldr	r3, .L277+8
 3966 0050 0293     		str	r3, [sp, #8]
 3967              		.loc 7 1020 0
 3968 0052 05E0     		b	.L269
 3969              	.L267:
 3970              		.loc 7 1022 0
 3971 0054 814B     		ldr	r3, .L277+12
 3972 0056 0293     		str	r3, [sp, #8]
 3973              		.loc 7 1023 0
 3974 0058 02E0     		b	.L269
 3975              	.L268:
 3976              		.loc 7 1025 0
 3977 005a 814B     		ldr	r3, .L277+16
 3978 005c 0293     		str	r3, [sp, #8]
 3979              		.loc 7 1026 0
 3980 005e 00BF     		nop
 3981              	.L269:
ARM GAS  C:\Users\PCHAUT~1\AppData\Local\Temp\ccJuO4y2.s 			page 71


 3982              		.loc 7 1032 0
 3983 0060 9DF80330 		ldrb	r3, [sp, #3]	@ zero_extendqisi2
 3984 0064 049A     		ldr	r2, [sp, #16]
 3985 0066 5B01     		lsls	r3, r3, #5
 3986 0068 1344     		add	r3, r3, r2
 3987 006a 03F53163 		add	r3, r3, #2832
 3988 006e 0022     		movs	r2, #0
 3989 0070 1A60     		str	r2, [r3]
 3990              		.loc 7 1033 0
 3991 0072 9DF80330 		ldrb	r3, [sp, #3]	@ zero_extendqisi2
 3992 0076 019A     		ldr	r2, [sp, #4]
 3993 0078 0233     		adds	r3, r3, #2
 3994 007a 9B00     		lsls	r3, r3, #2
 3995 007c 1344     		add	r3, r3, r2
 3996 007e 5B68     		ldr	r3, [r3, #4]
 3997 0080 DB68     		ldr	r3, [r3, #12]
 3998 0082 002B     		cmp	r3, #0
 3999 0084 1FD0     		beq	.L271
 4000              		.loc 7 1034 0
 4001 0086 9DF80330 		ldrb	r3, [sp, #3]	@ zero_extendqisi2
 4002 008a 019A     		ldr	r2, [sp, #4]
 4003 008c 0233     		adds	r3, r3, #2
 4004 008e 9B00     		lsls	r3, r3, #2
 4005 0090 1344     		add	r3, r3, r2
 4006 0092 5B68     		ldr	r3, [r3, #4]
 4007 0094 5B8A     		ldrh	r3, [r3, #18]
 4008 0096 1946     		mov	r1, r3
 4009 0098 9DF80330 		ldrb	r3, [sp, #3]	@ zero_extendqisi2
 4010 009c 029A     		ldr	r2, [sp, #8]
 4011 009e 0A43     		orrs	r2, r2, r1
 4012 00a0 0499     		ldr	r1, [sp, #16]
 4013 00a2 5833     		adds	r3, r3, #88
 4014 00a4 5B01     		lsls	r3, r3, #5
 4015 00a6 0B44     		add	r3, r3, r1
 4016 00a8 1A60     		str	r2, [r3]
 4017              		.loc 7 1035 0
 4018 00aa 049B     		ldr	r3, [sp, #16]
 4019 00ac D3F81C28 		ldr	r2, [r3, #2076]
 4020 00b0 9DF80330 		ldrb	r3, [sp, #3]	@ zero_extendqisi2
 4021 00b4 1033     		adds	r3, r3, #16
 4022 00b6 0121     		movs	r1, #1
 4023 00b8 01FA03F3 		lsl	r3, r1, r3
 4024 00bc 1A43     		orrs	r2, r2, r3
 4025 00be 049B     		ldr	r3, [sp, #16]
 4026 00c0 C3F81C28 		str	r2, [r3, #2076]
 4027 00c4 1DE0     		b	.L272
 4028              	.L271:
 4029              		.loc 7 1038 0
 4030 00c6 9DF80330 		ldrb	r3, [sp, #3]	@ zero_extendqisi2
 4031 00ca 049A     		ldr	r2, [sp, #16]
 4032 00cc 5833     		adds	r3, r3, #88
 4033 00ce 5B01     		lsls	r3, r3, #5
 4034 00d0 1344     		add	r3, r3, r2
 4035 00d2 1A68     		ldr	r2, [r3]
 4036 00d4 9DF80330 		ldrb	r3, [sp, #3]	@ zero_extendqisi2
 4037 00d8 22F40042 		bic	r2, r2, #32768
 4038 00dc 0499     		ldr	r1, [sp, #16]
ARM GAS  C:\Users\PCHAUT~1\AppData\Local\Temp\ccJuO4y2.s 			page 72


 4039 00de 5833     		adds	r3, r3, #88
 4040 00e0 5B01     		lsls	r3, r3, #5
 4041 00e2 0B44     		add	r3, r3, r1
 4042 00e4 1A60     		str	r2, [r3]
 4043              		.loc 7 1039 0
 4044 00e6 049B     		ldr	r3, [sp, #16]
 4045 00e8 D3F81C28 		ldr	r2, [r3, #2076]
 4046 00ec 9DF80330 		ldrb	r3, [sp, #3]	@ zero_extendqisi2
 4047 00f0 1033     		adds	r3, r3, #16
 4048 00f2 0121     		movs	r1, #1
 4049 00f4 01FA03F3 		lsl	r3, r1, r3
 4050 00f8 DB43     		mvns	r3, r3
 4051 00fa 1A40     		ands	r2, r2, r3
 4052 00fc 049B     		ldr	r3, [sp, #16]
 4053 00fe C3F81C28 		str	r2, [r3, #2076]
 4054              	.L272:
 4055              		.loc 7 1043 0
 4056 0102 9DF80330 		ldrb	r3, [sp, #3]	@ zero_extendqisi2
 4057 0106 049A     		ldr	r2, [sp, #16]
 4058 0108 5B01     		lsls	r3, r3, #5
 4059 010a 1344     		add	r3, r3, r2
 4060 010c 03F51163 		add	r3, r3, #2320
 4061 0110 0022     		movs	r2, #0
 4062 0112 1A60     		str	r2, [r3]
 4063              		.loc 7 1044 0
 4064 0114 9DF80330 		ldrb	r3, [sp, #3]	@ zero_extendqisi2
 4065 0118 019A     		ldr	r2, [sp, #4]
 4066 011a 0233     		adds	r3, r3, #2
 4067 011c 9B00     		lsls	r3, r3, #2
 4068 011e 1344     		add	r3, r3, r2
 4069 0120 5B68     		ldr	r3, [r3, #4]
 4070 0122 9B68     		ldr	r3, [r3, #8]
 4071 0124 002B     		cmp	r3, #0
 4072 0126 5BD0     		beq	.L273
 4073              		.loc 7 1046 0
 4074 0128 9DF80330 		ldrb	r3, [sp, #3]	@ zero_extendqisi2
 4075 012c 019A     		ldr	r2, [sp, #4]
 4076 012e 0233     		adds	r3, r3, #2
 4077 0130 9B00     		lsls	r3, r3, #2
 4078 0132 1344     		add	r3, r3, r2
 4079 0134 5B68     		ldr	r3, [r3, #4]
 4080 0136 1B8A     		ldrh	r3, [r3, #16]
 4081 0138 9B08     		lsrs	r3, r3, #2
 4082 013a 9BB2     		uxth	r3, r3
 4083 013c 0393     		str	r3, [sp, #12]
 4084              		.loc 7 1047 0
 4085 013e 9DF80330 		ldrb	r3, [sp, #3]	@ zero_extendqisi2
 4086 0142 019A     		ldr	r2, [sp, #4]
 4087 0144 0233     		adds	r3, r3, #2
 4088 0146 9B00     		lsls	r3, r3, #2
 4089 0148 1344     		add	r3, r3, r2
 4090 014a 5B68     		ldr	r3, [r3, #4]
 4091 014c 9B8B     		ldrh	r3, [r3, #28]
 4092 014e 012B     		cmp	r3, #1
 4093 0150 0CD9     		bls	.L274
 4094              		.loc 7 1048 0
 4095 0152 9DF80330 		ldrb	r3, [sp, #3]	@ zero_extendqisi2
ARM GAS  C:\Users\PCHAUT~1\AppData\Local\Temp\ccJuO4y2.s 			page 73


 4096 0156 019A     		ldr	r2, [sp, #4]
 4097 0158 0233     		adds	r3, r3, #2
 4098 015a 9B00     		lsls	r3, r3, #2
 4099 015c 1344     		add	r3, r3, r2
 4100 015e 5B68     		ldr	r3, [r3, #4]
 4101 0160 9B8B     		ldrh	r3, [r3, #28]
 4102 0162 1A46     		mov	r2, r3
 4103 0164 039B     		ldr	r3, [sp, #12]
 4104 0166 02FB03F3 		mul	r3, r2, r3
 4105 016a 0393     		str	r3, [sp, #12]
 4106              	.L274:
 4107              		.loc 7 1049 0
 4108 016c 039B     		ldr	r3, [sp, #12]
 4109 016e 1C04     		lsls	r4, r3, #16
 4110              		.loc 7 1050 0
 4111 0170 0399     		ldr	r1, [sp, #12]
 4112 0172 0198     		ldr	r0, [sp, #4]
 4113 0174 FFF7FEFF 		bl	otg_ram_alloc
 4114 0178 0246     		mov	r2, r0
 4115              		.loc 7 1049 0
 4116 017a 9DF80330 		ldrb	r3, [sp, #3]	@ zero_extendqisi2
 4117 017e 013B     		subs	r3, r3, #1
 4118 0180 2243     		orrs	r2, r2, r4
 4119 0182 0499     		ldr	r1, [sp, #16]
 4120 0184 4033     		adds	r3, r3, #64
 4121 0186 9B00     		lsls	r3, r3, #2
 4122 0188 0B44     		add	r3, r3, r1
 4123 018a 5A60     		str	r2, [r3, #4]
 4124              		.loc 7 1051 0
 4125 018c 9DF80330 		ldrb	r3, [sp, #3]	@ zero_extendqisi2
 4126 0190 1946     		mov	r1, r3
 4127 0192 0198     		ldr	r0, [sp, #4]
 4128 0194 FFF7FEFF 		bl	otg_txfifo_flush
 4129              		.loc 7 1054 0
 4130 0198 9DF80330 		ldrb	r3, [sp, #3]	@ zero_extendqisi2
 4131 019c 9B05     		lsls	r3, r3, #22
 4132 019e 1A46     		mov	r2, r3
 4133              		.loc 7 1053 0
 4134 01a0 029B     		ldr	r3, [sp, #8]
 4135 01a2 1A43     		orrs	r2, r2, r3
 4136              		.loc 7 1055 0
 4137 01a4 9DF80330 		ldrb	r3, [sp, #3]	@ zero_extendqisi2
 4138 01a8 0199     		ldr	r1, [sp, #4]
 4139 01aa 0233     		adds	r3, r3, #2
 4140 01ac 9B00     		lsls	r3, r3, #2
 4141 01ae 0B44     		add	r3, r3, r1
 4142 01b0 5B68     		ldr	r3, [r3, #4]
 4143 01b2 1B8A     		ldrh	r3, [r3, #16]
 4144 01b4 1946     		mov	r1, r3
 4145              		.loc 7 1053 0
 4146 01b6 9DF80330 		ldrb	r3, [sp, #3]	@ zero_extendqisi2
 4147              		.loc 7 1054 0
 4148 01ba 0A43     		orrs	r2, r2, r1
 4149              		.loc 7 1053 0
 4150 01bc 0499     		ldr	r1, [sp, #16]
 4151 01be 4833     		adds	r3, r3, #72
 4152 01c0 5B01     		lsls	r3, r3, #5
ARM GAS  C:\Users\PCHAUT~1\AppData\Local\Temp\ccJuO4y2.s 			page 74


 4153 01c2 0B44     		add	r3, r3, r1
 4154 01c4 1A60     		str	r2, [r3]
 4155              		.loc 7 1056 0
 4156 01c6 049B     		ldr	r3, [sp, #16]
 4157 01c8 D3F81C28 		ldr	r2, [r3, #2076]
 4158 01cc 9DF80330 		ldrb	r3, [sp, #3]	@ zero_extendqisi2
 4159 01d0 0121     		movs	r1, #1
 4160 01d2 01FA03F3 		lsl	r3, r1, r3
 4161 01d6 1A43     		orrs	r2, r2, r3
 4162 01d8 049B     		ldr	r3, [sp, #16]
 4163 01da C3F81C28 		str	r2, [r3, #2076]
 4164 01de 2DE0     		b	.L262
 4165              	.L273:
 4166              		.loc 7 1059 0
 4167 01e0 9DF80330 		ldrb	r3, [sp, #3]	@ zero_extendqisi2
 4168 01e4 013B     		subs	r3, r3, #1
 4169 01e6 049A     		ldr	r2, [sp, #16]
 4170 01e8 4033     		adds	r3, r3, #64
 4171 01ea 9B00     		lsls	r3, r3, #2
 4172 01ec 1344     		add	r3, r3, r2
 4173 01ee 1D4A     		ldr	r2, .L277+20
 4174 01f0 5A60     		str	r2, [r3, #4]
 4175              		.loc 7 1060 0
 4176 01f2 9DF80330 		ldrb	r3, [sp, #3]	@ zero_extendqisi2
 4177 01f6 1946     		mov	r1, r3
 4178 01f8 0198     		ldr	r0, [sp, #4]
 4179 01fa FFF7FEFF 		bl	otg_txfifo_flush
 4180              		.loc 7 1061 0
 4181 01fe 9DF80330 		ldrb	r3, [sp, #3]	@ zero_extendqisi2
 4182 0202 049A     		ldr	r2, [sp, #16]
 4183 0204 4833     		adds	r3, r3, #72
 4184 0206 5B01     		lsls	r3, r3, #5
 4185 0208 1344     		add	r3, r3, r2
 4186 020a 1A68     		ldr	r2, [r3]
 4187 020c 9DF80330 		ldrb	r3, [sp, #3]	@ zero_extendqisi2
 4188 0210 22F40042 		bic	r2, r2, #32768
 4189 0214 0499     		ldr	r1, [sp, #16]
 4190 0216 4833     		adds	r3, r3, #72
 4191 0218 5B01     		lsls	r3, r3, #5
 4192 021a 0B44     		add	r3, r3, r1
 4193 021c 1A60     		str	r2, [r3]
 4194              		.loc 7 1062 0
 4195 021e 049B     		ldr	r3, [sp, #16]
 4196 0220 D3F81C28 		ldr	r2, [r3, #2076]
 4197 0224 9DF80330 		ldrb	r3, [sp, #3]	@ zero_extendqisi2
 4198 0228 0121     		movs	r1, #1
 4199 022a 01FA03F3 		lsl	r3, r1, r3
 4200 022e DB43     		mvns	r3, r3
 4201 0230 1A40     		ands	r2, r2, r3
 4202 0232 049B     		ldr	r3, [sp, #16]
 4203 0234 C3F81C28 		str	r2, [r3, #2076]
 4204 0238 00E0     		b	.L262
 4205              	.L276:
 4206              		.loc 7 1028 0
 4207 023a 00BF     		nop
 4208              	.L262:
 4209              		.loc 7 1064 0
ARM GAS  C:\Users\PCHAUT~1\AppData\Local\Temp\ccJuO4y2.s 			page 75


 4210 023c 044B     		ldr	r3, .L277
 4211 023e 059A     		ldr	r2, [sp, #20]
 4212 0240 1B68     		ldr	r3, [r3]
 4213 0242 9A42     		cmp	r2, r3
 4214 0244 01D0     		beq	.L275
 4215 0246 FFF7FEFF 		bl	__stack_chk_fail
 4216              	.L275:
 4217 024a 06B0     		add	sp, sp, #24
 4218              		.cfi_def_cfa_offset 8
 4219              		@ sp needed
 4220 024c 10BD     		pop	{r4, pc}
 4221              	.L278:
 4222 024e 00BF     		.align	2
 4223              	.L277:
 4224 0250 00000000 		.word	__stack_chk_guard
 4225 0254 00800010 		.word	268468224
 4226 0258 00800410 		.word	268730368
 4227 025c 00800810 		.word	268992512
 4228 0260 00800C10 		.word	269254656
 4229 0264 00040002 		.word	33555456
 4230              		.cfi_endproc
 4231              	.LFE279:
 4232              		.size	usb_lld_init_endpoint, .-usb_lld_init_endpoint
 4233              		.section	.text.usb_lld_disable_endpoints,"ax",%progbits
 4234              		.align	1
 4235              		.p2align 4,,15
 4236              		.global	usb_lld_disable_endpoints
 4237              		.syntax unified
 4238              		.thumb
 4239              		.thumb_func
 4240              		.fpu fpv4-sp-d16
 4241              		.type	usb_lld_disable_endpoints, %function
 4242              	usb_lld_disable_endpoints:
 4243              	.LFB280:
 4244              		.loc 7 1073 0
 4245              		.cfi_startproc
 4246              		@ args = 0, pretend = 0, frame = 16
 4247              		@ frame_needed = 0, uses_anonymous_args = 0
 4248 0000 00B5     		push	{lr}
 4249              		.cfi_def_cfa_offset 4
 4250              		.cfi_offset 14, -4
 4251 0002 85B0     		sub	sp, sp, #20
 4252              		.cfi_def_cfa_offset 24
 4253 0004 0190     		str	r0, [sp, #4]
 4254              		.loc 7 1073 0
 4255 0006 0A4B     		ldr	r3, .L281
 4256 0008 1B68     		ldr	r3, [r3]
 4257 000a 0393     		str	r3, [sp, #12]
 4258              		.loc 7 1076 0
 4259 000c 0198     		ldr	r0, [sp, #4]
 4260 000e FFF7FEFF 		bl	otg_ram_reset
 4261              		.loc 7 1079 0
 4262 0012 0198     		ldr	r0, [sp, #4]
 4263 0014 FFF7FEFF 		bl	otg_disable_ep
 4264              		.loc 7 1080 0
 4265 0018 00BF     		nop
 4266 001a 054B     		ldr	r3, .L281
ARM GAS  C:\Users\PCHAUT~1\AppData\Local\Temp\ccJuO4y2.s 			page 76


 4267 001c 039A     		ldr	r2, [sp, #12]
 4268 001e 1B68     		ldr	r3, [r3]
 4269 0020 9A42     		cmp	r2, r3
 4270 0022 01D0     		beq	.L280
 4271 0024 FFF7FEFF 		bl	__stack_chk_fail
 4272              	.L280:
 4273 0028 05B0     		add	sp, sp, #20
 4274              		.cfi_def_cfa_offset 4
 4275              		@ sp needed
 4276 002a 5DF804FB 		ldr	pc, [sp], #4
 4277              	.L282:
 4278 002e 00BF     		.align	2
 4279              	.L281:
 4280 0030 00000000 		.word	__stack_chk_guard
 4281              		.cfi_endproc
 4282              	.LFE280:
 4283              		.size	usb_lld_disable_endpoints, .-usb_lld_disable_endpoints
 4284              		.section	.text.usb_lld_get_status_out,"ax",%progbits
 4285              		.align	1
 4286              		.p2align 4,,15
 4287              		.global	usb_lld_get_status_out
 4288              		.syntax unified
 4289              		.thumb
 4290              		.thumb_func
 4291              		.fpu fpv4-sp-d16
 4292              		.type	usb_lld_get_status_out, %function
 4293              	usb_lld_get_status_out:
 4294              	.LFB281:
 4295              		.loc 7 1094 0
 4296              		.cfi_startproc
 4297              		@ args = 0, pretend = 0, frame = 16
 4298              		@ frame_needed = 0, uses_anonymous_args = 0
 4299 0000 00B5     		push	{lr}
 4300              		.cfi_def_cfa_offset 4
 4301              		.cfi_offset 14, -4
 4302 0002 85B0     		sub	sp, sp, #20
 4303              		.cfi_def_cfa_offset 24
 4304 0004 0190     		str	r0, [sp, #4]
 4305 0006 0B46     		mov	r3, r1
 4306 0008 8DF80330 		strb	r3, [sp, #3]
 4307              		.loc 7 1094 0
 4308 000c 124B     		ldr	r3, .L288
 4309 000e 1B68     		ldr	r3, [r3]
 4310 0010 0393     		str	r3, [sp, #12]
 4311              		.loc 7 1099 0
 4312 0012 019B     		ldr	r3, [sp, #4]
 4313 0014 1A6D     		ldr	r2, [r3, #80]
 4314 0016 9DF80330 		ldrb	r3, [sp, #3]	@ zero_extendqisi2
 4315 001a 5833     		adds	r3, r3, #88
 4316 001c 5B01     		lsls	r3, r3, #5
 4317 001e 1344     		add	r3, r3, r2
 4318 0020 1B68     		ldr	r3, [r3]
 4319 0022 0293     		str	r3, [sp, #8]
 4320              		.loc 7 1100 0
 4321 0024 029B     		ldr	r3, [sp, #8]
 4322 0026 03F40043 		and	r3, r3, #32768
 4323 002a 002B     		cmp	r3, #0
ARM GAS  C:\Users\PCHAUT~1\AppData\Local\Temp\ccJuO4y2.s 			page 77


 4324 002c 01D1     		bne	.L284
 4325              		.loc 7 1101 0
 4326 002e 0023     		movs	r3, #0
 4327 0030 07E0     		b	.L285
 4328              	.L284:
 4329              		.loc 7 1102 0
 4330 0032 029B     		ldr	r3, [sp, #8]
 4331 0034 03F40013 		and	r3, r3, #2097152
 4332 0038 002B     		cmp	r3, #0
 4333 003a 01D0     		beq	.L286
 4334              		.loc 7 1103 0
 4335 003c 0123     		movs	r3, #1
 4336 003e 00E0     		b	.L285
 4337              	.L286:
 4338              		.loc 7 1104 0
 4339 0040 0223     		movs	r3, #2
 4340              	.L285:
 4341              		.loc 7 1105 0
 4342 0042 1846     		mov	r0, r3
 4343 0044 044B     		ldr	r3, .L288
 4344 0046 039A     		ldr	r2, [sp, #12]
 4345 0048 1B68     		ldr	r3, [r3]
 4346 004a 9A42     		cmp	r2, r3
 4347 004c 01D0     		beq	.L287
 4348 004e FFF7FEFF 		bl	__stack_chk_fail
 4349              	.L287:
 4350 0052 05B0     		add	sp, sp, #20
 4351              		.cfi_def_cfa_offset 4
 4352              		@ sp needed
 4353 0054 5DF804FB 		ldr	pc, [sp], #4
 4354              	.L289:
 4355              		.align	2
 4356              	.L288:
 4357 0058 00000000 		.word	__stack_chk_guard
 4358              		.cfi_endproc
 4359              	.LFE281:
 4360              		.size	usb_lld_get_status_out, .-usb_lld_get_status_out
 4361              		.section	.text.usb_lld_get_status_in,"ax",%progbits
 4362              		.align	1
 4363              		.p2align 4,,15
 4364              		.global	usb_lld_get_status_in
 4365              		.syntax unified
 4366              		.thumb
 4367              		.thumb_func
 4368              		.fpu fpv4-sp-d16
 4369              		.type	usb_lld_get_status_in, %function
 4370              	usb_lld_get_status_in:
 4371              	.LFB282:
 4372              		.loc 7 1119 0
 4373              		.cfi_startproc
 4374              		@ args = 0, pretend = 0, frame = 16
 4375              		@ frame_needed = 0, uses_anonymous_args = 0
 4376 0000 00B5     		push	{lr}
 4377              		.cfi_def_cfa_offset 4
 4378              		.cfi_offset 14, -4
 4379 0002 85B0     		sub	sp, sp, #20
 4380              		.cfi_def_cfa_offset 24
ARM GAS  C:\Users\PCHAUT~1\AppData\Local\Temp\ccJuO4y2.s 			page 78


 4381 0004 0190     		str	r0, [sp, #4]
 4382 0006 0B46     		mov	r3, r1
 4383 0008 8DF80330 		strb	r3, [sp, #3]
 4384              		.loc 7 1119 0
 4385 000c 124B     		ldr	r3, .L295
 4386 000e 1B68     		ldr	r3, [r3]
 4387 0010 0393     		str	r3, [sp, #12]
 4388              		.loc 7 1124 0
 4389 0012 019B     		ldr	r3, [sp, #4]
 4390 0014 1A6D     		ldr	r2, [r3, #80]
 4391 0016 9DF80330 		ldrb	r3, [sp, #3]	@ zero_extendqisi2
 4392 001a 4833     		adds	r3, r3, #72
 4393 001c 5B01     		lsls	r3, r3, #5
 4394 001e 1344     		add	r3, r3, r2
 4395 0020 1B68     		ldr	r3, [r3]
 4396 0022 0293     		str	r3, [sp, #8]
 4397              		.loc 7 1125 0
 4398 0024 029B     		ldr	r3, [sp, #8]
 4399 0026 03F40043 		and	r3, r3, #32768
 4400 002a 002B     		cmp	r3, #0
 4401 002c 01D1     		bne	.L291
 4402              		.loc 7 1126 0
 4403 002e 0023     		movs	r3, #0
 4404 0030 07E0     		b	.L292
 4405              	.L291:
 4406              		.loc 7 1127 0
 4407 0032 029B     		ldr	r3, [sp, #8]
 4408 0034 03F40013 		and	r3, r3, #2097152
 4409 0038 002B     		cmp	r3, #0
 4410 003a 01D0     		beq	.L293
 4411              		.loc 7 1128 0
 4412 003c 0123     		movs	r3, #1
 4413 003e 00E0     		b	.L292
 4414              	.L293:
 4415              		.loc 7 1129 0
 4416 0040 0223     		movs	r3, #2
 4417              	.L292:
 4418              		.loc 7 1130 0
 4419 0042 1846     		mov	r0, r3
 4420 0044 044B     		ldr	r3, .L295
 4421 0046 039A     		ldr	r2, [sp, #12]
 4422 0048 1B68     		ldr	r3, [r3]
 4423 004a 9A42     		cmp	r2, r3
 4424 004c 01D0     		beq	.L294
 4425 004e FFF7FEFF 		bl	__stack_chk_fail
 4426              	.L294:
 4427 0052 05B0     		add	sp, sp, #20
 4428              		.cfi_def_cfa_offset 4
 4429              		@ sp needed
 4430 0054 5DF804FB 		ldr	pc, [sp], #4
 4431              	.L296:
 4432              		.align	2
 4433              	.L295:
 4434 0058 00000000 		.word	__stack_chk_guard
 4435              		.cfi_endproc
 4436              	.LFE282:
 4437              		.size	usb_lld_get_status_in, .-usb_lld_get_status_in
ARM GAS  C:\Users\PCHAUT~1\AppData\Local\Temp\ccJuO4y2.s 			page 79


 4438              		.section	.text.usb_lld_read_setup,"ax",%progbits
 4439              		.align	1
 4440              		.p2align 4,,15
 4441              		.global	usb_lld_read_setup
 4442              		.syntax unified
 4443              		.thumb
 4444              		.thumb_func
 4445              		.fpu fpv4-sp-d16
 4446              		.type	usb_lld_read_setup, %function
 4447              	usb_lld_read_setup:
 4448              	.LFB283:
 4449              		.loc 7 1146 0
 4450              		.cfi_startproc
 4451              		@ args = 0, pretend = 0, frame = 24
 4452              		@ frame_needed = 0, uses_anonymous_args = 0
 4453 0000 00B5     		push	{lr}
 4454              		.cfi_def_cfa_offset 4
 4455              		.cfi_offset 14, -4
 4456 0002 87B0     		sub	sp, sp, #28
 4457              		.cfi_def_cfa_offset 32
 4458 0004 0390     		str	r0, [sp, #12]
 4459 0006 0B46     		mov	r3, r1
 4460 0008 0192     		str	r2, [sp, #4]
 4461 000a 8DF80B30 		strb	r3, [sp, #11]
 4462              		.loc 7 1146 0
 4463 000e 0D4B     		ldr	r3, .L299
 4464 0010 1B68     		ldr	r3, [r3]
 4465 0012 0593     		str	r3, [sp, #20]
 4466              		.loc 7 1148 0
 4467 0014 9DF80B30 		ldrb	r3, [sp, #11]	@ zero_extendqisi2
 4468 0018 039A     		ldr	r2, [sp, #12]
 4469 001a 0233     		adds	r3, r3, #2
 4470 001c 9B00     		lsls	r3, r3, #2
 4471 001e 1344     		add	r3, r3, r2
 4472 0020 5B68     		ldr	r3, [r3, #4]
 4473 0022 1B6A     		ldr	r3, [r3, #32]
 4474 0024 0822     		movs	r2, #8
 4475 0026 1946     		mov	r1, r3
 4476 0028 0198     		ldr	r0, [sp, #4]
 4477 002a FFF7FEFF 		bl	memcpy
 4478              		.loc 7 1149 0
 4479 002e 00BF     		nop
 4480 0030 044B     		ldr	r3, .L299
 4481 0032 059A     		ldr	r2, [sp, #20]
 4482 0034 1B68     		ldr	r3, [r3]
 4483 0036 9A42     		cmp	r2, r3
 4484 0038 01D0     		beq	.L298
 4485 003a FFF7FEFF 		bl	__stack_chk_fail
 4486              	.L298:
 4487 003e 07B0     		add	sp, sp, #28
 4488              		.cfi_def_cfa_offset 4
 4489              		@ sp needed
 4490 0040 5DF804FB 		ldr	pc, [sp], #4
 4491              	.L300:
 4492              		.align	2
 4493              	.L299:
 4494 0044 00000000 		.word	__stack_chk_guard
ARM GAS  C:\Users\PCHAUT~1\AppData\Local\Temp\ccJuO4y2.s 			page 80


 4495              		.cfi_endproc
 4496              	.LFE283:
 4497              		.size	usb_lld_read_setup, .-usb_lld_read_setup
 4498              		.section	.text.usb_lld_prepare_receive,"ax",%progbits
 4499              		.align	1
 4500              		.p2align 4,,15
 4501              		.global	usb_lld_prepare_receive
 4502              		.syntax unified
 4503              		.thumb
 4504              		.thumb_func
 4505              		.fpu fpv4-sp-d16
 4506              		.type	usb_lld_prepare_receive, %function
 4507              	usb_lld_prepare_receive:
 4508              	.LFB284:
 4509              		.loc 7 1159 0
 4510              		.cfi_startproc
 4511              		@ args = 0, pretend = 0, frame = 24
 4512              		@ frame_needed = 0, uses_anonymous_args = 0
 4513 0000 00B5     		push	{lr}
 4514              		.cfi_def_cfa_offset 4
 4515              		.cfi_offset 14, -4
 4516 0002 87B0     		sub	sp, sp, #28
 4517              		.cfi_def_cfa_offset 32
 4518 0004 0190     		str	r0, [sp, #4]
 4519 0006 0B46     		mov	r3, r1
 4520 0008 8DF80330 		strb	r3, [sp, #3]
 4521              		.loc 7 1159 0
 4522 000c 264B     		ldr	r3, .L304
 4523 000e 1B68     		ldr	r3, [r3]
 4524 0010 0593     		str	r3, [sp, #20]
 4525              		.loc 7 1161 0
 4526 0012 9DF80330 		ldrb	r3, [sp, #3]	@ zero_extendqisi2
 4527 0016 019A     		ldr	r2, [sp, #4]
 4528 0018 0233     		adds	r3, r3, #2
 4529 001a 9B00     		lsls	r3, r3, #2
 4530 001c 1344     		add	r3, r3, r2
 4531 001e 5B68     		ldr	r3, [r3, #4]
 4532 0020 9B69     		ldr	r3, [r3, #24]
 4533 0022 0393     		str	r3, [sp, #12]
 4534              		.loc 7 1164 0
 4535 0024 039B     		ldr	r3, [sp, #12]
 4536 0026 5A68     		ldr	r2, [r3, #4]
 4537 0028 039B     		ldr	r3, [sp, #12]
 4538 002a 1A61     		str	r2, [r3, #16]
 4539              		.loc 7 1165 0
 4540 002c 9DF80330 		ldrb	r3, [sp, #3]	@ zero_extendqisi2
 4541 0030 002B     		cmp	r3, #0
 4542 0032 06D1     		bne	.L302
 4543              		.loc 7 1165 0 is_stmt 0 discriminator 1
 4544 0034 039B     		ldr	r3, [sp, #12]
 4545 0036 5B68     		ldr	r3, [r3, #4]
 4546 0038 402B     		cmp	r3, #64
 4547 003a 02D9     		bls	.L302
 4548              		.loc 7 1166 0 is_stmt 1
 4549 003c 039B     		ldr	r3, [sp, #12]
 4550 003e 4022     		movs	r2, #64
 4551 0040 5A60     		str	r2, [r3, #4]
ARM GAS  C:\Users\PCHAUT~1\AppData\Local\Temp\ccJuO4y2.s 			page 81


 4552              	.L302:
 4553              		.loc 7 1168 0
 4554 0042 039B     		ldr	r3, [sp, #12]
 4555 0044 5A68     		ldr	r2, [r3, #4]
 4556 0046 9DF80330 		ldrb	r3, [sp, #3]	@ zero_extendqisi2
 4557 004a 0199     		ldr	r1, [sp, #4]
 4558 004c 0233     		adds	r3, r3, #2
 4559 004e 9B00     		lsls	r3, r3, #2
 4560 0050 0B44     		add	r3, r3, r1
 4561 0052 5B68     		ldr	r3, [r3, #4]
 4562 0054 5B8A     		ldrh	r3, [r3, #18]
 4563 0056 1344     		add	r3, r3, r2
 4564 0058 5A1E     		subs	r2, r3, #1
 4565              		.loc 7 1169 0
 4566 005a 9DF80330 		ldrb	r3, [sp, #3]	@ zero_extendqisi2
 4567 005e 0199     		ldr	r1, [sp, #4]
 4568 0060 0233     		adds	r3, r3, #2
 4569 0062 9B00     		lsls	r3, r3, #2
 4570 0064 0B44     		add	r3, r3, r1
 4571 0066 5B68     		ldr	r3, [r3, #4]
 4572 0068 5B8A     		ldrh	r3, [r3, #18]
 4573              		.loc 7 1168 0
 4574 006a B2FBF3F3 		udiv	r3, r2, r3
 4575 006e 0493     		str	r3, [sp, #16]
 4576              		.loc 7 1170 0
 4577 0070 049B     		ldr	r3, [sp, #16]
 4578 0072 DA04     		lsls	r2, r3, #19
 4579              		.loc 7 1171 0
 4580 0074 039B     		ldr	r3, [sp, #12]
 4581 0076 5B68     		ldr	r3, [r3, #4]
 4582              		.loc 7 1170 0
 4583 0078 1A43     		orrs	r2, r2, r3
 4584 007a 019B     		ldr	r3, [sp, #4]
 4585 007c 196D     		ldr	r1, [r3, #80]
 4586 007e 9DF80330 		ldrb	r3, [sp, #3]	@ zero_extendqisi2
 4587 0082 42F0C042 		orr	r2, r2, #1610612736
 4588 0086 5B01     		lsls	r3, r3, #5
 4589 0088 0B44     		add	r3, r3, r1
 4590 008a 03F53163 		add	r3, r3, #2832
 4591 008e 1A60     		str	r2, [r3]
 4592              		.loc 7 1173 0
 4593 0090 00BF     		nop
 4594 0092 054B     		ldr	r3, .L304
 4595 0094 059A     		ldr	r2, [sp, #20]
 4596 0096 1B68     		ldr	r3, [r3]
 4597 0098 9A42     		cmp	r2, r3
 4598 009a 01D0     		beq	.L303
 4599 009c FFF7FEFF 		bl	__stack_chk_fail
 4600              	.L303:
 4601 00a0 07B0     		add	sp, sp, #28
 4602              		.cfi_def_cfa_offset 4
 4603              		@ sp needed
 4604 00a2 5DF804FB 		ldr	pc, [sp], #4
 4605              	.L305:
 4606 00a6 00BF     		.align	2
 4607              	.L304:
 4608 00a8 00000000 		.word	__stack_chk_guard
ARM GAS  C:\Users\PCHAUT~1\AppData\Local\Temp\ccJuO4y2.s 			page 82


 4609              		.cfi_endproc
 4610              	.LFE284:
 4611              		.size	usb_lld_prepare_receive, .-usb_lld_prepare_receive
 4612              		.section	.text.usb_lld_prepare_transmit,"ax",%progbits
 4613              		.align	1
 4614              		.p2align 4,,15
 4615              		.global	usb_lld_prepare_transmit
 4616              		.syntax unified
 4617              		.thumb
 4618              		.thumb_func
 4619              		.fpu fpv4-sp-d16
 4620              		.type	usb_lld_prepare_transmit, %function
 4621              	usb_lld_prepare_transmit:
 4622              	.LFB285:
 4623              		.loc 7 1183 0
 4624              		.cfi_startproc
 4625              		@ args = 0, pretend = 0, frame = 24
 4626              		@ frame_needed = 0, uses_anonymous_args = 0
 4627 0000 00B5     		push	{lr}
 4628              		.cfi_def_cfa_offset 4
 4629              		.cfi_offset 14, -4
 4630 0002 87B0     		sub	sp, sp, #28
 4631              		.cfi_def_cfa_offset 32
 4632 0004 0190     		str	r0, [sp, #4]
 4633 0006 0B46     		mov	r3, r1
 4634 0008 8DF80330 		strb	r3, [sp, #3]
 4635              		.loc 7 1183 0
 4636 000c 2D4B     		ldr	r3, .L312
 4637 000e 1B68     		ldr	r3, [r3]
 4638 0010 0593     		str	r3, [sp, #20]
 4639              		.loc 7 1184 0
 4640 0012 9DF80330 		ldrb	r3, [sp, #3]	@ zero_extendqisi2
 4641 0016 019A     		ldr	r2, [sp, #4]
 4642 0018 0233     		adds	r3, r3, #2
 4643 001a 9B00     		lsls	r3, r3, #2
 4644 001c 1344     		add	r3, r3, r2
 4645 001e 5B68     		ldr	r3, [r3, #4]
 4646 0020 5B69     		ldr	r3, [r3, #20]
 4647 0022 0393     		str	r3, [sp, #12]
 4648              		.loc 7 1187 0
 4649 0024 039B     		ldr	r3, [sp, #12]
 4650 0026 5A68     		ldr	r2, [r3, #4]
 4651 0028 039B     		ldr	r3, [sp, #12]
 4652 002a 1A61     		str	r2, [r3, #16]
 4653              		.loc 7 1188 0
 4654 002c 039B     		ldr	r3, [sp, #12]
 4655 002e 5B68     		ldr	r3, [r3, #4]
 4656 0030 002B     		cmp	r3, #0
 4657 0032 0BD1     		bne	.L307
 4658              		.loc 7 1190 0
 4659 0034 019B     		ldr	r3, [sp, #4]
 4660 0036 1A6D     		ldr	r2, [r3, #80]
 4661 0038 9DF80330 		ldrb	r3, [sp, #3]	@ zero_extendqisi2
 4662 003c 5B01     		lsls	r3, r3, #5
 4663 003e 1344     		add	r3, r3, r2
 4664 0040 03F51163 		add	r3, r3, #2320
 4665 0044 4FF40022 		mov	r2, #524288
ARM GAS  C:\Users\PCHAUT~1\AppData\Local\Temp\ccJuO4y2.s 			page 83


 4666 0048 1A60     		str	r2, [r3]
 4667              		.loc 7 1202 0
 4668 004a 2FE0     		b	.L311
 4669              	.L307:
 4670              	.LBB23:
 4671              		.loc 7 1193 0
 4672 004c 9DF80330 		ldrb	r3, [sp, #3]	@ zero_extendqisi2
 4673 0050 002B     		cmp	r3, #0
 4674 0052 06D1     		bne	.L309
 4675              		.loc 7 1193 0 is_stmt 0 discriminator 1
 4676 0054 039B     		ldr	r3, [sp, #12]
 4677 0056 5B68     		ldr	r3, [r3, #4]
 4678 0058 402B     		cmp	r3, #64
 4679 005a 02D9     		bls	.L309
 4680              		.loc 7 1194 0 is_stmt 1
 4681 005c 039B     		ldr	r3, [sp, #12]
 4682 005e 4022     		movs	r2, #64
 4683 0060 5A60     		str	r2, [r3, #4]
 4684              	.L309:
 4685              		.loc 7 1197 0
 4686 0062 039B     		ldr	r3, [sp, #12]
 4687 0064 5A68     		ldr	r2, [r3, #4]
 4688 0066 9DF80330 		ldrb	r3, [sp, #3]	@ zero_extendqisi2
 4689 006a 0199     		ldr	r1, [sp, #4]
 4690 006c 0233     		adds	r3, r3, #2
 4691 006e 9B00     		lsls	r3, r3, #2
 4692 0070 0B44     		add	r3, r3, r1
 4693 0072 5B68     		ldr	r3, [r3, #4]
 4694 0074 1B8A     		ldrh	r3, [r3, #16]
 4695 0076 1344     		add	r3, r3, r2
 4696 0078 5A1E     		subs	r2, r3, #1
 4697              		.loc 7 1198 0
 4698 007a 9DF80330 		ldrb	r3, [sp, #3]	@ zero_extendqisi2
 4699 007e 0199     		ldr	r1, [sp, #4]
 4700 0080 0233     		adds	r3, r3, #2
 4701 0082 9B00     		lsls	r3, r3, #2
 4702 0084 0B44     		add	r3, r3, r1
 4703 0086 5B68     		ldr	r3, [r3, #4]
 4704 0088 1B8A     		ldrh	r3, [r3, #16]
 4705              		.loc 7 1197 0
 4706 008a B2FBF3F3 		udiv	r3, r2, r3
 4707 008e 0493     		str	r3, [sp, #16]
 4708              		.loc 7 1199 0
 4709 0090 049B     		ldr	r3, [sp, #16]
 4710 0092 D804     		lsls	r0, r3, #19
 4711              		.loc 7 1200 0
 4712 0094 039B     		ldr	r3, [sp, #12]
 4713 0096 5A68     		ldr	r2, [r3, #4]
 4714              		.loc 7 1199 0
 4715 0098 019B     		ldr	r3, [sp, #4]
 4716 009a 196D     		ldr	r1, [r3, #80]
 4717 009c 9DF80330 		ldrb	r3, [sp, #3]	@ zero_extendqisi2
 4718 00a0 0243     		orrs	r2, r2, r0
 4719 00a2 5B01     		lsls	r3, r3, #5
 4720 00a4 0B44     		add	r3, r3, r1
 4721 00a6 03F51163 		add	r3, r3, #2320
 4722 00aa 1A60     		str	r2, [r3]
ARM GAS  C:\Users\PCHAUT~1\AppData\Local\Temp\ccJuO4y2.s 			page 84


 4723              	.L311:
 4724              	.LBE23:
 4725              		.loc 7 1202 0
 4726 00ac 00BF     		nop
 4727 00ae 054B     		ldr	r3, .L312
 4728 00b0 059A     		ldr	r2, [sp, #20]
 4729 00b2 1B68     		ldr	r3, [r3]
 4730 00b4 9A42     		cmp	r2, r3
 4731 00b6 01D0     		beq	.L310
 4732 00b8 FFF7FEFF 		bl	__stack_chk_fail
 4733              	.L310:
 4734 00bc 07B0     		add	sp, sp, #28
 4735              		.cfi_def_cfa_offset 4
 4736              		@ sp needed
 4737 00be 5DF804FB 		ldr	pc, [sp], #4
 4738              	.L313:
 4739 00c2 00BF     		.align	2
 4740              	.L312:
 4741 00c4 00000000 		.word	__stack_chk_guard
 4742              		.cfi_endproc
 4743              	.LFE285:
 4744              		.size	usb_lld_prepare_transmit, .-usb_lld_prepare_transmit
 4745              		.section	.text.usb_lld_start_out,"ax",%progbits
 4746              		.align	1
 4747              		.p2align 4,,15
 4748              		.global	usb_lld_start_out
 4749              		.syntax unified
 4750              		.thumb
 4751              		.thumb_func
 4752              		.fpu fpv4-sp-d16
 4753              		.type	usb_lld_start_out, %function
 4754              	usb_lld_start_out:
 4755              	.LFB286:
 4756              		.loc 7 1212 0
 4757              		.cfi_startproc
 4758              		@ args = 0, pretend = 0, frame = 16
 4759              		@ frame_needed = 0, uses_anonymous_args = 0
 4760 0000 00B5     		push	{lr}
 4761              		.cfi_def_cfa_offset 4
 4762              		.cfi_offset 14, -4
 4763 0002 85B0     		sub	sp, sp, #20
 4764              		.cfi_def_cfa_offset 24
 4765 0004 0190     		str	r0, [sp, #4]
 4766 0006 0B46     		mov	r3, r1
 4767 0008 8DF80330 		strb	r3, [sp, #3]
 4768              		.loc 7 1212 0
 4769 000c 0F4B     		ldr	r3, .L316
 4770 000e 1B68     		ldr	r3, [r3]
 4771 0010 0393     		str	r3, [sp, #12]
 4772              		.loc 7 1214 0
 4773 0012 019B     		ldr	r3, [sp, #4]
 4774 0014 1A6D     		ldr	r2, [r3, #80]
 4775 0016 9DF80330 		ldrb	r3, [sp, #3]	@ zero_extendqisi2
 4776 001a 5833     		adds	r3, r3, #88
 4777 001c 5B01     		lsls	r3, r3, #5
 4778 001e 1344     		add	r3, r3, r2
 4779 0020 1A68     		ldr	r2, [r3]
ARM GAS  C:\Users\PCHAUT~1\AppData\Local\Temp\ccJuO4y2.s 			page 85


 4780 0022 019B     		ldr	r3, [sp, #4]
 4781 0024 196D     		ldr	r1, [r3, #80]
 4782 0026 9DF80330 		ldrb	r3, [sp, #3]	@ zero_extendqisi2
 4783 002a 42F08062 		orr	r2, r2, #67108864
 4784 002e 5833     		adds	r3, r3, #88
 4785 0030 5B01     		lsls	r3, r3, #5
 4786 0032 0B44     		add	r3, r3, r1
 4787 0034 1A60     		str	r2, [r3]
 4788              		.loc 7 1215 0
 4789 0036 00BF     		nop
 4790 0038 044B     		ldr	r3, .L316
 4791 003a 039A     		ldr	r2, [sp, #12]
 4792 003c 1B68     		ldr	r3, [r3]
 4793 003e 9A42     		cmp	r2, r3
 4794 0040 01D0     		beq	.L315
 4795 0042 FFF7FEFF 		bl	__stack_chk_fail
 4796              	.L315:
 4797 0046 05B0     		add	sp, sp, #20
 4798              		.cfi_def_cfa_offset 4
 4799              		@ sp needed
 4800 0048 5DF804FB 		ldr	pc, [sp], #4
 4801              	.L317:
 4802              		.align	2
 4803              	.L316:
 4804 004c 00000000 		.word	__stack_chk_guard
 4805              		.cfi_endproc
 4806              	.LFE286:
 4807              		.size	usb_lld_start_out, .-usb_lld_start_out
 4808              		.section	.text.usb_lld_start_in,"ax",%progbits
 4809              		.align	1
 4810              		.p2align 4,,15
 4811              		.global	usb_lld_start_in
 4812              		.syntax unified
 4813              		.thumb
 4814              		.thumb_func
 4815              		.fpu fpv4-sp-d16
 4816              		.type	usb_lld_start_in, %function
 4817              	usb_lld_start_in:
 4818              	.LFB287:
 4819              		.loc 7 1225 0
 4820              		.cfi_startproc
 4821              		@ args = 0, pretend = 0, frame = 16
 4822              		@ frame_needed = 0, uses_anonymous_args = 0
 4823 0000 00B5     		push	{lr}
 4824              		.cfi_def_cfa_offset 4
 4825              		.cfi_offset 14, -4
 4826 0002 85B0     		sub	sp, sp, #20
 4827              		.cfi_def_cfa_offset 24
 4828 0004 0190     		str	r0, [sp, #4]
 4829 0006 0B46     		mov	r3, r1
 4830 0008 8DF80330 		strb	r3, [sp, #3]
 4831              		.loc 7 1225 0
 4832 000c 164B     		ldr	r3, .L320
 4833 000e 1B68     		ldr	r3, [r3]
 4834 0010 0393     		str	r3, [sp, #12]
 4835              		.loc 7 1227 0
 4836 0012 019B     		ldr	r3, [sp, #4]
ARM GAS  C:\Users\PCHAUT~1\AppData\Local\Temp\ccJuO4y2.s 			page 86


 4837 0014 1A6D     		ldr	r2, [r3, #80]
 4838 0016 9DF80330 		ldrb	r3, [sp, #3]	@ zero_extendqisi2
 4839 001a 4833     		adds	r3, r3, #72
 4840 001c 5B01     		lsls	r3, r3, #5
 4841 001e 1344     		add	r3, r3, r2
 4842 0020 1A68     		ldr	r2, [r3]
 4843 0022 019B     		ldr	r3, [sp, #4]
 4844 0024 196D     		ldr	r1, [r3, #80]
 4845 0026 9DF80330 		ldrb	r3, [sp, #3]	@ zero_extendqisi2
 4846 002a 42F00442 		orr	r2, r2, #-2080374784
 4847 002e 4833     		adds	r3, r3, #72
 4848 0030 5B01     		lsls	r3, r3, #5
 4849 0032 0B44     		add	r3, r3, r1
 4850 0034 1A60     		str	r2, [r3]
 4851              		.loc 7 1228 0
 4852 0036 019B     		ldr	r3, [sp, #4]
 4853 0038 1B6D     		ldr	r3, [r3, #80]
 4854 003a D3F83418 		ldr	r1, [r3, #2100]
 4855 003e 9DF80330 		ldrb	r3, [sp, #3]	@ zero_extendqisi2
 4856 0042 0122     		movs	r2, #1
 4857 0044 9A40     		lsls	r2, r2, r3
 4858 0046 019B     		ldr	r3, [sp, #4]
 4859 0048 1B6D     		ldr	r3, [r3, #80]
 4860 004a 0A43     		orrs	r2, r2, r1
 4861 004c C3F83428 		str	r2, [r3, #2100]
 4862              		.loc 7 1229 0
 4863 0050 00BF     		nop
 4864 0052 054B     		ldr	r3, .L320
 4865 0054 039A     		ldr	r2, [sp, #12]
 4866 0056 1B68     		ldr	r3, [r3]
 4867 0058 9A42     		cmp	r2, r3
 4868 005a 01D0     		beq	.L319
 4869 005c FFF7FEFF 		bl	__stack_chk_fail
 4870              	.L319:
 4871 0060 05B0     		add	sp, sp, #20
 4872              		.cfi_def_cfa_offset 4
 4873              		@ sp needed
 4874 0062 5DF804FB 		ldr	pc, [sp], #4
 4875              	.L321:
 4876 0066 00BF     		.align	2
 4877              	.L320:
 4878 0068 00000000 		.word	__stack_chk_guard
 4879              		.cfi_endproc
 4880              	.LFE287:
 4881              		.size	usb_lld_start_in, .-usb_lld_start_in
 4882              		.section	.text.usb_lld_stall_out,"ax",%progbits
 4883              		.align	1
 4884              		.p2align 4,,15
 4885              		.global	usb_lld_stall_out
 4886              		.syntax unified
 4887              		.thumb
 4888              		.thumb_func
 4889              		.fpu fpv4-sp-d16
 4890              		.type	usb_lld_stall_out, %function
 4891              	usb_lld_stall_out:
 4892              	.LFB288:
 4893              		.loc 7 1239 0
ARM GAS  C:\Users\PCHAUT~1\AppData\Local\Temp\ccJuO4y2.s 			page 87


 4894              		.cfi_startproc
 4895              		@ args = 0, pretend = 0, frame = 16
 4896              		@ frame_needed = 0, uses_anonymous_args = 0
 4897 0000 00B5     		push	{lr}
 4898              		.cfi_def_cfa_offset 4
 4899              		.cfi_offset 14, -4
 4900 0002 85B0     		sub	sp, sp, #20
 4901              		.cfi_def_cfa_offset 24
 4902 0004 0190     		str	r0, [sp, #4]
 4903 0006 0B46     		mov	r3, r1
 4904 0008 8DF80330 		strb	r3, [sp, #3]
 4905              		.loc 7 1239 0
 4906 000c 0F4B     		ldr	r3, .L324
 4907 000e 1B68     		ldr	r3, [r3]
 4908 0010 0393     		str	r3, [sp, #12]
 4909              		.loc 7 1241 0
 4910 0012 019B     		ldr	r3, [sp, #4]
 4911 0014 1A6D     		ldr	r2, [r3, #80]
 4912 0016 9DF80330 		ldrb	r3, [sp, #3]	@ zero_extendqisi2
 4913 001a 5833     		adds	r3, r3, #88
 4914 001c 5B01     		lsls	r3, r3, #5
 4915 001e 1344     		add	r3, r3, r2
 4916 0020 1A68     		ldr	r2, [r3]
 4917 0022 019B     		ldr	r3, [sp, #4]
 4918 0024 196D     		ldr	r1, [r3, #80]
 4919 0026 9DF80330 		ldrb	r3, [sp, #3]	@ zero_extendqisi2
 4920 002a 42F40012 		orr	r2, r2, #2097152
 4921 002e 5833     		adds	r3, r3, #88
 4922 0030 5B01     		lsls	r3, r3, #5
 4923 0032 0B44     		add	r3, r3, r1
 4924 0034 1A60     		str	r2, [r3]
 4925              		.loc 7 1242 0
 4926 0036 00BF     		nop
 4927 0038 044B     		ldr	r3, .L324
 4928 003a 039A     		ldr	r2, [sp, #12]
 4929 003c 1B68     		ldr	r3, [r3]
 4930 003e 9A42     		cmp	r2, r3
 4931 0040 01D0     		beq	.L323
 4932 0042 FFF7FEFF 		bl	__stack_chk_fail
 4933              	.L323:
 4934 0046 05B0     		add	sp, sp, #20
 4935              		.cfi_def_cfa_offset 4
 4936              		@ sp needed
 4937 0048 5DF804FB 		ldr	pc, [sp], #4
 4938              	.L325:
 4939              		.align	2
 4940              	.L324:
 4941 004c 00000000 		.word	__stack_chk_guard
 4942              		.cfi_endproc
 4943              	.LFE288:
 4944              		.size	usb_lld_stall_out, .-usb_lld_stall_out
 4945              		.section	.text.usb_lld_stall_in,"ax",%progbits
 4946              		.align	1
 4947              		.p2align 4,,15
 4948              		.global	usb_lld_stall_in
 4949              		.syntax unified
 4950              		.thumb
ARM GAS  C:\Users\PCHAUT~1\AppData\Local\Temp\ccJuO4y2.s 			page 88


 4951              		.thumb_func
 4952              		.fpu fpv4-sp-d16
 4953              		.type	usb_lld_stall_in, %function
 4954              	usb_lld_stall_in:
 4955              	.LFB289:
 4956              		.loc 7 1252 0
 4957              		.cfi_startproc
 4958              		@ args = 0, pretend = 0, frame = 16
 4959              		@ frame_needed = 0, uses_anonymous_args = 0
 4960 0000 00B5     		push	{lr}
 4961              		.cfi_def_cfa_offset 4
 4962              		.cfi_offset 14, -4
 4963 0002 85B0     		sub	sp, sp, #20
 4964              		.cfi_def_cfa_offset 24
 4965 0004 0190     		str	r0, [sp, #4]
 4966 0006 0B46     		mov	r3, r1
 4967 0008 8DF80330 		strb	r3, [sp, #3]
 4968              		.loc 7 1252 0
 4969 000c 0F4B     		ldr	r3, .L328
 4970 000e 1B68     		ldr	r3, [r3]
 4971 0010 0393     		str	r3, [sp, #12]
 4972              		.loc 7 1254 0
 4973 0012 019B     		ldr	r3, [sp, #4]
 4974 0014 1A6D     		ldr	r2, [r3, #80]
 4975 0016 9DF80330 		ldrb	r3, [sp, #3]	@ zero_extendqisi2
 4976 001a 4833     		adds	r3, r3, #72
 4977 001c 5B01     		lsls	r3, r3, #5
 4978 001e 1344     		add	r3, r3, r2
 4979 0020 1A68     		ldr	r2, [r3]
 4980 0022 019B     		ldr	r3, [sp, #4]
 4981 0024 196D     		ldr	r1, [r3, #80]
 4982 0026 9DF80330 		ldrb	r3, [sp, #3]	@ zero_extendqisi2
 4983 002a 42F40012 		orr	r2, r2, #2097152
 4984 002e 4833     		adds	r3, r3, #72
 4985 0030 5B01     		lsls	r3, r3, #5
 4986 0032 0B44     		add	r3, r3, r1
 4987 0034 1A60     		str	r2, [r3]
 4988              		.loc 7 1255 0
 4989 0036 00BF     		nop
 4990 0038 044B     		ldr	r3, .L328
 4991 003a 039A     		ldr	r2, [sp, #12]
 4992 003c 1B68     		ldr	r3, [r3]
 4993 003e 9A42     		cmp	r2, r3
 4994 0040 01D0     		beq	.L327
 4995 0042 FFF7FEFF 		bl	__stack_chk_fail
 4996              	.L327:
 4997 0046 05B0     		add	sp, sp, #20
 4998              		.cfi_def_cfa_offset 4
 4999              		@ sp needed
 5000 0048 5DF804FB 		ldr	pc, [sp], #4
 5001              	.L329:
 5002              		.align	2
 5003              	.L328:
 5004 004c 00000000 		.word	__stack_chk_guard
 5005              		.cfi_endproc
 5006              	.LFE289:
 5007              		.size	usb_lld_stall_in, .-usb_lld_stall_in
ARM GAS  C:\Users\PCHAUT~1\AppData\Local\Temp\ccJuO4y2.s 			page 89


 5008              		.section	.text.usb_lld_clear_out,"ax",%progbits
 5009              		.align	1
 5010              		.p2align 4,,15
 5011              		.global	usb_lld_clear_out
 5012              		.syntax unified
 5013              		.thumb
 5014              		.thumb_func
 5015              		.fpu fpv4-sp-d16
 5016              		.type	usb_lld_clear_out, %function
 5017              	usb_lld_clear_out:
 5018              	.LFB290:
 5019              		.loc 7 1265 0
 5020              		.cfi_startproc
 5021              		@ args = 0, pretend = 0, frame = 16
 5022              		@ frame_needed = 0, uses_anonymous_args = 0
 5023 0000 00B5     		push	{lr}
 5024              		.cfi_def_cfa_offset 4
 5025              		.cfi_offset 14, -4
 5026 0002 85B0     		sub	sp, sp, #20
 5027              		.cfi_def_cfa_offset 24
 5028 0004 0190     		str	r0, [sp, #4]
 5029 0006 0B46     		mov	r3, r1
 5030 0008 8DF80330 		strb	r3, [sp, #3]
 5031              		.loc 7 1265 0
 5032 000c 0F4B     		ldr	r3, .L332
 5033 000e 1B68     		ldr	r3, [r3]
 5034 0010 0393     		str	r3, [sp, #12]
 5035              		.loc 7 1267 0
 5036 0012 019B     		ldr	r3, [sp, #4]
 5037 0014 1A6D     		ldr	r2, [r3, #80]
 5038 0016 9DF80330 		ldrb	r3, [sp, #3]	@ zero_extendqisi2
 5039 001a 5833     		adds	r3, r3, #88
 5040 001c 5B01     		lsls	r3, r3, #5
 5041 001e 1344     		add	r3, r3, r2
 5042 0020 1A68     		ldr	r2, [r3]
 5043 0022 019B     		ldr	r3, [sp, #4]
 5044 0024 196D     		ldr	r1, [r3, #80]
 5045 0026 9DF80330 		ldrb	r3, [sp, #3]	@ zero_extendqisi2
 5046 002a 22F40012 		bic	r2, r2, #2097152
 5047 002e 5833     		adds	r3, r3, #88
 5048 0030 5B01     		lsls	r3, r3, #5
 5049 0032 0B44     		add	r3, r3, r1
 5050 0034 1A60     		str	r2, [r3]
 5051              		.loc 7 1268 0
 5052 0036 00BF     		nop
 5053 0038 044B     		ldr	r3, .L332
 5054 003a 039A     		ldr	r2, [sp, #12]
 5055 003c 1B68     		ldr	r3, [r3]
 5056 003e 9A42     		cmp	r2, r3
 5057 0040 01D0     		beq	.L331
 5058 0042 FFF7FEFF 		bl	__stack_chk_fail
 5059              	.L331:
 5060 0046 05B0     		add	sp, sp, #20
 5061              		.cfi_def_cfa_offset 4
 5062              		@ sp needed
 5063 0048 5DF804FB 		ldr	pc, [sp], #4
 5064              	.L333:
ARM GAS  C:\Users\PCHAUT~1\AppData\Local\Temp\ccJuO4y2.s 			page 90


 5065              		.align	2
 5066              	.L332:
 5067 004c 00000000 		.word	__stack_chk_guard
 5068              		.cfi_endproc
 5069              	.LFE290:
 5070              		.size	usb_lld_clear_out, .-usb_lld_clear_out
 5071              		.section	.text.usb_lld_clear_in,"ax",%progbits
 5072              		.align	1
 5073              		.p2align 4,,15
 5074              		.global	usb_lld_clear_in
 5075              		.syntax unified
 5076              		.thumb
 5077              		.thumb_func
 5078              		.fpu fpv4-sp-d16
 5079              		.type	usb_lld_clear_in, %function
 5080              	usb_lld_clear_in:
 5081              	.LFB291:
 5082              		.loc 7 1278 0
 5083              		.cfi_startproc
 5084              		@ args = 0, pretend = 0, frame = 16
 5085              		@ frame_needed = 0, uses_anonymous_args = 0
 5086 0000 00B5     		push	{lr}
 5087              		.cfi_def_cfa_offset 4
 5088              		.cfi_offset 14, -4
 5089 0002 85B0     		sub	sp, sp, #20
 5090              		.cfi_def_cfa_offset 24
 5091 0004 0190     		str	r0, [sp, #4]
 5092 0006 0B46     		mov	r3, r1
 5093 0008 8DF80330 		strb	r3, [sp, #3]
 5094              		.loc 7 1278 0
 5095 000c 0F4B     		ldr	r3, .L336
 5096 000e 1B68     		ldr	r3, [r3]
 5097 0010 0393     		str	r3, [sp, #12]
 5098              		.loc 7 1280 0
 5099 0012 019B     		ldr	r3, [sp, #4]
 5100 0014 1A6D     		ldr	r2, [r3, #80]
 5101 0016 9DF80330 		ldrb	r3, [sp, #3]	@ zero_extendqisi2
 5102 001a 4833     		adds	r3, r3, #72
 5103 001c 5B01     		lsls	r3, r3, #5
 5104 001e 1344     		add	r3, r3, r2
 5105 0020 1A68     		ldr	r2, [r3]
 5106 0022 019B     		ldr	r3, [sp, #4]
 5107 0024 196D     		ldr	r1, [r3, #80]
 5108 0026 9DF80330 		ldrb	r3, [sp, #3]	@ zero_extendqisi2
 5109 002a 22F40012 		bic	r2, r2, #2097152
 5110 002e 4833     		adds	r3, r3, #72
 5111 0030 5B01     		lsls	r3, r3, #5
 5112 0032 0B44     		add	r3, r3, r1
 5113 0034 1A60     		str	r2, [r3]
 5114              		.loc 7 1281 0
 5115 0036 00BF     		nop
 5116 0038 044B     		ldr	r3, .L336
 5117 003a 039A     		ldr	r2, [sp, #12]
 5118 003c 1B68     		ldr	r3, [r3]
 5119 003e 9A42     		cmp	r2, r3
 5120 0040 01D0     		beq	.L335
 5121 0042 FFF7FEFF 		bl	__stack_chk_fail
ARM GAS  C:\Users\PCHAUT~1\AppData\Local\Temp\ccJuO4y2.s 			page 91


 5122              	.L335:
 5123 0046 05B0     		add	sp, sp, #20
 5124              		.cfi_def_cfa_offset 4
 5125              		@ sp needed
 5126 0048 5DF804FB 		ldr	pc, [sp], #4
 5127              	.L337:
 5128              		.align	2
 5129              	.L336:
 5130 004c 00000000 		.word	__stack_chk_guard
 5131              		.cfi_endproc
 5132              	.LFE291:
 5133              		.size	usb_lld_clear_in, .-usb_lld_clear_in
 5134              		.section	.rodata
 5135              		.align	2
 5136              	.LC0:
 5137 0000 7573625F 		.ascii	"usb_lld_pump\000"
 5137      6C6C645F 
 5137      70756D70 
 5137      00
 5138              		.section	.text.usb_lld_pump,"ax",%progbits
 5139              		.align	1
 5140              		.p2align 4,,15
 5141              		.global	usb_lld_pump
 5142              		.syntax unified
 5143              		.thumb
 5144              		.thumb_func
 5145              		.fpu fpv4-sp-d16
 5146              		.type	usb_lld_pump, %function
 5147              	usb_lld_pump:
 5148              	.LFB292:
 5149              		.loc 7 1294 0
 5150              		.cfi_startproc
 5151              		@ args = 0, pretend = 0, frame = 32
 5152              		@ frame_needed = 0, uses_anonymous_args = 0
 5153 0000 00B5     		push	{lr}
 5154              		.cfi_def_cfa_offset 4
 5155              		.cfi_offset 14, -4
 5156 0002 89B0     		sub	sp, sp, #36
 5157              		.cfi_def_cfa_offset 40
 5158 0004 0190     		str	r0, [sp, #4]
 5159              		.loc 7 1294 0
 5160 0006 414B     		ldr	r3, .L349
 5161 0008 1B68     		ldr	r3, [r3]
 5162 000a 0793     		str	r3, [sp, #28]
 5163              		.loc 7 1295 0
 5164 000c 019B     		ldr	r3, [sp, #4]
 5165 000e 0493     		str	r3, [sp, #16]
 5166              		.loc 7 1296 0
 5167 0010 049B     		ldr	r3, [sp, #16]
 5168 0012 1B6D     		ldr	r3, [r3, #80]
 5169 0014 0593     		str	r3, [sp, #20]
 5170              		.loc 7 1299 0
 5171 0016 3E48     		ldr	r0, .L349+4
 5172 0018 FFF7FEFF 		bl	chRegSetThreadName
 5173              		.loc 7 1301 0
 5174 001c FFF7FEFF 		bl	osalSysLock
 5175              	.L347:
ARM GAS  C:\Users\PCHAUT~1\AppData\Local\Temp\ccJuO4y2.s 			page 92


 5176              	.LBB24:
 5177              		.loc 7 1307 0
 5178 0020 049B     		ldr	r3, [sp, #16]
 5179 0022 1B78     		ldrb	r3, [r3]	@ zero_extendqisi2
 5180 0024 012B     		cmp	r3, #1
 5181 0026 09D0     		beq	.L339
 5182              		.loc 7 1308 0 discriminator 1
 5183 0028 049B     		ldr	r3, [sp, #16]
 5184 002a DB6D     		ldr	r3, [r3, #92]
 5185              		.loc 7 1307 0 discriminator 1
 5186 002c 002B     		cmp	r3, #0
 5187 002e 10D1     		bne	.L340
 5188              		.loc 7 1308 0
 5189 0030 059B     		ldr	r3, [sp, #20]
 5190 0032 5B69     		ldr	r3, [r3, #20]
 5191 0034 03F01003 		and	r3, r3, #16
 5192 0038 002B     		cmp	r3, #0
 5193 003a 0AD1     		bne	.L340
 5194              	.L339:
 5195              		.loc 7 1309 0
 5196 003c 059B     		ldr	r3, [sp, #20]
 5197 003e 9B69     		ldr	r3, [r3, #24]
 5198 0040 43F01002 		orr	r2, r3, #16
 5199 0044 059B     		ldr	r3, [sp, #20]
 5200 0046 9A61     		str	r2, [r3, #24]
 5201              		.loc 7 1310 0
 5202 0048 049B     		ldr	r3, [sp, #16]
 5203 004a 6033     		adds	r3, r3, #96
 5204 004c 1846     		mov	r0, r3
 5205 004e FFF7FEFF 		bl	osalThreadSuspendS
 5206              	.L340:
 5207              		.loc 7 1312 0
 5208 0052 FFF7FEFF 		bl	osalSysUnlock
 5209              		.loc 7 1315 0
 5210 0056 0023     		movs	r3, #0
 5211 0058 8DF80E30 		strb	r3, [sp, #14]
 5212 005c 4CE0     		b	.L341
 5213              	.L343:
 5214              		.loc 7 1319 0
 5215 005e 0498     		ldr	r0, [sp, #16]
 5216 0060 FFF7FEFF 		bl	otg_rxfifo_handler
 5217              	.L342:
 5218              		.loc 7 1318 0
 5219 0064 059B     		ldr	r3, [sp, #20]
 5220 0066 5B69     		ldr	r3, [r3, #20]
 5221 0068 03F01003 		and	r3, r3, #16
 5222 006c 002B     		cmp	r3, #0
 5223 006e F6D1     		bne	.L343
 5224              		.loc 7 1322 0
 5225 0070 9DF80E30 		ldrb	r3, [sp, #14]	@ zero_extendqisi2
 5226 0074 0122     		movs	r2, #1
 5227 0076 02FA03F3 		lsl	r3, r2, r3
 5228 007a 0693     		str	r3, [sp, #24]
 5229              		.loc 7 1323 0
 5230 007c 049B     		ldr	r3, [sp, #16]
 5231 007e DA6D     		ldr	r2, [r3, #92]
 5232 0080 069B     		ldr	r3, [sp, #24]
ARM GAS  C:\Users\PCHAUT~1\AppData\Local\Temp\ccJuO4y2.s 			page 93


 5233 0082 1340     		ands	r3, r3, r2
 5234 0084 002B     		cmp	r3, #0
 5235 0086 32D0     		beq	.L344
 5236              	.LBB25:
 5237              		.loc 7 1326 0
 5238 0088 FFF7FEFF 		bl	osalSysLock
 5239              		.loc 7 1334 0
 5240 008c 059B     		ldr	r3, [sp, #20]
 5241 008e 9B68     		ldr	r3, [r3, #8]
 5242 0090 23F00102 		bic	r2, r3, #1
 5243 0094 059B     		ldr	r3, [sp, #20]
 5244 0096 9A60     		str	r2, [r3, #8]
 5245              		.loc 7 1335 0
 5246 0098 049B     		ldr	r3, [sp, #16]
 5247 009a DA6D     		ldr	r2, [r3, #92]
 5248 009c 069B     		ldr	r3, [sp, #24]
 5249 009e DB43     		mvns	r3, r3
 5250 00a0 1A40     		ands	r2, r2, r3
 5251 00a2 049B     		ldr	r3, [sp, #16]
 5252 00a4 DA65     		str	r2, [r3, #92]
 5253              		.loc 7 1336 0
 5254 00a6 FFF7FEFF 		bl	osalSysUnlock
 5255              		.loc 7 1338 0
 5256 00aa 9DF80E30 		ldrb	r3, [sp, #14]	@ zero_extendqisi2
 5257 00ae 1946     		mov	r1, r3
 5258 00b0 0498     		ldr	r0, [sp, #16]
 5259 00b2 FFF7FEFF 		bl	otg_txfifo_handler
 5260 00b6 0346     		mov	r3, r0
 5261 00b8 8DF80F30 		strb	r3, [sp, #15]
 5262              		.loc 7 1340 0
 5263 00bc FFF7FEFF 		bl	osalSysLock
 5264              		.loc 7 1341 0
 5265 00c0 059B     		ldr	r3, [sp, #20]
 5266 00c2 9B68     		ldr	r3, [r3, #8]
 5267 00c4 43F00102 		orr	r2, r3, #1
 5268 00c8 059B     		ldr	r3, [sp, #20]
 5269 00ca 9A60     		str	r2, [r3, #8]
 5270              		.loc 7 1342 0
 5271 00cc 9DF80F30 		ldrb	r3, [sp, #15]
 5272 00d0 83F00103 		eor	r3, r3, #1
 5273 00d4 DBB2     		uxtb	r3, r3
 5274 00d6 002B     		cmp	r3, #0
 5275 00d8 07D0     		beq	.L345
 5276              		.loc 7 1343 0
 5277 00da 059B     		ldr	r3, [sp, #20]
 5278 00dc D3F83428 		ldr	r2, [r3, #2100]
 5279 00e0 069B     		ldr	r3, [sp, #24]
 5280 00e2 1A43     		orrs	r2, r2, r3
 5281 00e4 059B     		ldr	r3, [sp, #20]
 5282 00e6 C3F83428 		str	r2, [r3, #2100]
 5283              	.L345:
 5284              		.loc 7 1344 0
 5285 00ea FFF7FEFF 		bl	osalSysUnlock
 5286              	.L344:
 5287              	.LBE25:
 5288              		.loc 7 1315 0 discriminator 2
 5289 00ee 9DF80E30 		ldrb	r3, [sp, #14]	@ zero_extendqisi2
ARM GAS  C:\Users\PCHAUT~1\AppData\Local\Temp\ccJuO4y2.s 			page 94


 5290 00f2 0133     		adds	r3, r3, #1
 5291 00f4 8DF80E30 		strb	r3, [sp, #14]
 5292              	.L341:
 5293              		.loc 7 1315 0 is_stmt 0 discriminator 1
 5294 00f8 9DF80E20 		ldrb	r2, [sp, #14]	@ zero_extendqisi2
 5295 00fc 049B     		ldr	r3, [sp, #16]
 5296 00fe 5B6D     		ldr	r3, [r3, #84]
 5297 0100 9B68     		ldr	r3, [r3, #8]
 5298 0102 9A42     		cmp	r2, r3
 5299 0104 AED9     		bls	.L342
 5300              		.loc 7 1347 0 is_stmt 1
 5301 0106 FFF7FEFF 		bl	osalSysLock
 5302              	.LBE24:
 5303              		.loc 7 1302 0
 5304 010a 89E7     		b	.L347
 5305              	.L350:
 5306              		.align	2
 5307              	.L349:
 5308 010c 00000000 		.word	__stack_chk_guard
 5309 0110 00000000 		.word	.LC0
 5310              		.cfi_endproc
 5311              	.LFE292:
 5312              		.size	usb_lld_pump, .-usb_lld_pump
 5313              		.section	.rodata.__func__.10294,"a",%progbits
 5314              		.align	2
 5315              		.type	__func__.10294, %object
 5316              		.size	__func__.10294, 14
 5317              	__func__.10294:
 5318 0000 6F74675F 		.ascii	"otg_ram_alloc\000"
 5318      72616D5F 
 5318      616C6C6F 
 5318      6300
 5319              		.section	.rodata.__func__.7554,"a",%progbits
 5320              		.align	2
 5321              		.type	__func__.7554, %object
 5322              		.size	__func__.7554, 12
 5323              	__func__.7554:
 5324 0000 63685379 		.ascii	"chSysUnlock\000"
 5324      73556E6C 
 5324      6F636B00 
 5325              		.section	.rodata.__func__.7721,"a",%progbits
 5326              		.align	2
 5327              		.type	__func__.7721, %object
 5328              		.size	__func__.7721, 12
 5329              	__func__.7721:
 5330 0000 63685468 		.ascii	"chThdStartI\000"
 5330      64537461 
 5330      72744900 
 5331              		.text
 5332              	.Letext0:
 5333              		.file 8 "c:\\users\\pchautems\\documents\\robotiquetp\\eclipse_e-puck2\\tools\\gcc-arm-none-eabi-7
 5334              		.file 9 "c:\\users\\pchautems\\documents\\robotiquetp\\eclipse_e-puck2\\tools\\gcc-arm-none-eabi-7
 5335              		.file 10 "c:\\users\\pchautems\\documents\\robotiquetp\\eclipse_e-puck2\\tools\\gcc-arm-none-eabi-
 5336              		.file 11 "c:\\users\\pchautems\\documents\\robotiquetp\\eclipse_e-puck2\\tools\\gcc-arm-none-eabi-
 5337              		.file 12 "c:\\users\\pchautems\\documents\\robotiquetp\\eclipse_e-puck2\\tools\\gcc-arm-none-eabi-
 5338              		.file 13 "c:\\users\\pchautems\\documents\\robotiquetp\\eclipse_e-puck2\\tools\\gcc-arm-none-eabi-
 5339              		.file 14 "../lib/e-puck2_main-processor/ChibiOS//os/rt/ports/ARMCMx/compilers/GCC/chtypes.h"
ARM GAS  C:\Users\PCHAUT~1\AppData\Local\Temp\ccJuO4y2.s 			page 95


 5340              		.file 15 "../lib/e-puck2_main-processor/ChibiOS//os/rt/include/chsystypes.h"
 5341              		.file 16 "../lib/e-puck2_main-processor/ChibiOS//os/rt/include/chschd.h"
 5342              		.file 17 "../lib/e-puck2_main-processor/ChibiOS//os/ext/CMSIS/include/core_cm4.h"
 5343              		.file 18 "../lib/e-puck2_main-processor/ChibiOS//os/ext/CMSIS/ST/system_stm32f4xx.h"
 5344              		.file 19 "../lib/e-puck2_main-processor/ChibiOS//os/ext/CMSIS/ST/stm32f407xx.h"
 5345              		.file 20 "../lib/e-puck2_main-processor/ChibiOS//os/rt/ports/ARMCMx/chcore.h"
 5346              		.file 21 "../lib/e-puck2_main-processor/ChibiOS//os/rt/include/chdebug.h"
 5347              		.file 22 "../lib/e-puck2_main-processor/ChibiOS//os/rt/include/chtm.h"
 5348              		.file 23 "../lib/e-puck2_main-processor/ChibiOS//os/rt/include/chstats.h"
 5349              		.file 24 "../lib/e-puck2_main-processor/ChibiOS//os/rt/include/chsem.h"
 5350              		.file 25 "../lib/e-puck2_main-processor/ChibiOS//os/rt/include/chmtx.h"
 5351              		.file 26 "../lib/e-puck2_main-processor/ChibiOS//os/rt/include/chevents.h"
 5352              		.file 27 "../lib/e-puck2_main-processor/ChibiOS//os/rt/include/chqueues.h"
 5353              		.file 28 "../lib/e-puck2_main-processor/ChibiOS//os/hal/ports/STM32/STM32F4xx/stm32_dma.h"
 5354              		.file 29 "../lib/e-puck2_main-processor/ChibiOS//os/hal/include/hal_ioblock.h"
 5355              		.file 30 "../lib/e-puck2_main-processor/ChibiOS//os/hal/ports/STM32/LLD/GPIOv2/pal_lld.h"
 5356              		.file 31 "../lib/e-puck2_main-processor/ChibiOS//os/hal/include/adc.h"
 5357              		.file 32 "../lib/e-puck2_main-processor/ChibiOS//os/hal/ports/STM32/STM32F4xx/adc_lld.h"
 5358              		.file 33 "../lib/e-puck2_main-processor/ChibiOS//os/hal/include/can.h"
 5359              		.file 34 "../lib/e-puck2_main-processor/ChibiOS//os/hal/ports/STM32/LLD/can_lld.h"
 5360              		.file 35 "../lib/e-puck2_main-processor/ChibiOS//os/hal/include/dac.h"
 5361              		.file 36 "../lib/e-puck2_main-processor/ChibiOS//os/hal/ports/STM32/LLD/DACv1/dac_lld.h"
 5362              		.file 37 "../lib/e-puck2_main-processor/ChibiOS//os/hal/include/ext.h"
 5363              		.file 38 "../lib/e-puck2_main-processor/ChibiOS//os/hal/ports/STM32/LLD/ext_lld.h"
 5364              		.file 39 "../lib/e-puck2_main-processor/ChibiOS//os/hal/include/gpt.h"
 5365              		.file 40 "../lib/e-puck2_main-processor/ChibiOS//os/hal/ports/STM32/LLD/TIMv1/gpt_lld.h"
 5366              		.file 41 "../lib/e-puck2_main-processor/ChibiOS//os/hal/ports/STM32/LLD/TIMv1/stm32_tim.h"
 5367              		.file 42 "../lib/e-puck2_main-processor/ChibiOS//os/hal/include/i2c.h"
 5368              		.file 43 "../lib/e-puck2_main-processor/ChibiOS//os/hal/ports/STM32/LLD/I2Cv1/i2c_lld.h"
 5369              		.file 44 "../lib/e-puck2_main-processor/ChibiOS//os/hal/include/i2s.h"
 5370              		.file 45 "../lib/e-puck2_main-processor/ChibiOS//os/hal/ports/STM32/LLD/SPIv1/i2s_lld.h"
 5371              		.file 46 "../lib/e-puck2_main-processor/ChibiOS//os/hal/include/pwm.h"
 5372              		.file 47 "../lib/e-puck2_main-processor/ChibiOS//os/hal/ports/STM32/LLD/TIMv1/pwm_lld.h"
 5373              		.file 48 "../lib/e-puck2_main-processor/ChibiOS//os/hal/include/serial.h"
 5374              		.file 49 "../lib/e-puck2_main-processor/ChibiOS//os/hal/ports/STM32/LLD/USARTv1/serial_lld.h"
 5375              		.file 50 "../lib/e-puck2_main-processor/ChibiOS//os/hal/include/sdc.h"
 5376              		.file 51 "../lib/e-puck2_main-processor/ChibiOS//os/hal/ports/STM32/LLD/sdc_lld.h"
 5377              		.file 52 "../lib/e-puck2_main-processor/ChibiOS//os/hal/include/spi.h"
 5378              		.file 53 "../lib/e-puck2_main-processor/ChibiOS//os/hal/ports/STM32/LLD/SPIv1/spi_lld.h"
 5379              		.file 54 "../lib/e-puck2_main-processor/ChibiOS//os/hal/include/usb.h"
 5380              		.file 55 "../lib/e-puck2_main-processor/ChibiOS//os/hal/ports/STM32/LLD/OTGv1/usb_lld.h"
 5381              		.file 56 "../lib/e-puck2_main-processor/ChibiOS//os/hal/ports/STM32/LLD/OTGv1/stm32_otg.h"
 5382              		.section	.debug_info,"",%progbits
 5383              	.Ldebug_info0:
 5384 0000 464C0000 		.4byte	0x4c46
 5385 0004 0400     		.2byte	0x4
 5386 0006 00000000 		.4byte	.Ldebug_abbrev0
 5387 000a 04       		.byte	0x4
 5388 000b 01       		.uleb128 0x1
 5389 000c AC080000 		.4byte	.LASF919
 5390 0010 0C       		.byte	0xc
 5391 0011 DD0B0000 		.4byte	.LASF920
 5392 0015 8D000000 		.4byte	.LASF921
 5393 0019 48000000 		.4byte	.Ldebug_ranges0+0x48
 5394 001d 00000000 		.4byte	0
 5395 0021 00000000 		.4byte	.Ldebug_line0
 5396 0025 02       		.uleb128 0x2
ARM GAS  C:\Users\PCHAUT~1\AppData\Local\Temp\ccJuO4y2.s 			page 96


 5397 0026 04       		.byte	0x4
 5398 0027 05       		.byte	0x5
 5399 0028 696E7400 		.ascii	"int\000"
 5400 002c 03       		.uleb128 0x3
 5401 002d 5B0E0000 		.4byte	.LASF4
 5402 0031 08       		.byte	0x8
 5403 0032 D8       		.byte	0xd8
 5404 0033 37000000 		.4byte	0x37
 5405 0037 04       		.uleb128 0x4
 5406 0038 04       		.byte	0x4
 5407 0039 07       		.byte	0x7
 5408 003a EA240000 		.4byte	.LASF0
 5409 003e 04       		.uleb128 0x4
 5410 003f 08       		.byte	0x8
 5411 0040 05       		.byte	0x5
 5412 0041 BF220000 		.4byte	.LASF1
 5413 0045 04       		.uleb128 0x4
 5414 0046 08       		.byte	0x8
 5415 0047 04       		.byte	0x4
 5416 0048 BC190000 		.4byte	.LASF2
 5417 004c 04       		.uleb128 0x4
 5418 004d 01       		.byte	0x1
 5419 004e 06       		.byte	0x6
 5420 004f D9150000 		.4byte	.LASF3
 5421 0053 03       		.uleb128 0x3
 5422 0054 03010000 		.4byte	.LASF5
 5423 0058 09       		.byte	0x9
 5424 0059 2B       		.byte	0x2b
 5425 005a 5E000000 		.4byte	0x5e
 5426 005e 04       		.uleb128 0x4
 5427 005f 01       		.byte	0x1
 5428 0060 08       		.byte	0x8
 5429 0061 6D0A0000 		.4byte	.LASF6
 5430 0065 03       		.uleb128 0x3
 5431 0066 70070000 		.4byte	.LASF7
 5432 006a 09       		.byte	0x9
 5433 006b 37       		.byte	0x37
 5434 006c 70000000 		.4byte	0x70
 5435 0070 04       		.uleb128 0x4
 5436 0071 02       		.byte	0x2
 5437 0072 05       		.byte	0x5
 5438 0073 5D250000 		.4byte	.LASF8
 5439 0077 03       		.uleb128 0x3
 5440 0078 92070000 		.4byte	.LASF9
 5441 007c 09       		.byte	0x9
 5442 007d 39       		.byte	0x39
 5443 007e 82000000 		.4byte	0x82
 5444 0082 04       		.uleb128 0x4
 5445 0083 02       		.byte	0x2
 5446 0084 07       		.byte	0x7
 5447 0085 BE150000 		.4byte	.LASF10
 5448 0089 03       		.uleb128 0x3
 5449 008a 471E0000 		.4byte	.LASF11
 5450 008e 09       		.byte	0x9
 5451 008f 4D       		.byte	0x4d
 5452 0090 94000000 		.4byte	0x94
 5453 0094 04       		.uleb128 0x4
ARM GAS  C:\Users\PCHAUT~1\AppData\Local\Temp\ccJuO4y2.s 			page 97


 5454 0095 04       		.byte	0x4
 5455 0096 05       		.byte	0x5
 5456 0097 82180000 		.4byte	.LASF12
 5457 009b 03       		.uleb128 0x3
 5458 009c 511E0000 		.4byte	.LASF13
 5459 00a0 09       		.byte	0x9
 5460 00a1 4F       		.byte	0x4f
 5461 00a2 A6000000 		.4byte	0xa6
 5462 00a6 04       		.uleb128 0x4
 5463 00a7 04       		.byte	0x4
 5464 00a8 07       		.byte	0x7
 5465 00a9 051A0000 		.4byte	.LASF14
 5466 00ad 03       		.uleb128 0x3
 5467 00ae B1110000 		.4byte	.LASF15
 5468 00b2 09       		.byte	0x9
 5469 00b3 69       		.byte	0x69
 5470 00b4 B8000000 		.4byte	0xb8
 5471 00b8 04       		.uleb128 0x4
 5472 00b9 08       		.byte	0x8
 5473 00ba 07       		.byte	0x7
 5474 00bb 18200000 		.4byte	.LASF16
 5475 00bf 03       		.uleb128 0x3
 5476 00c0 4F070000 		.4byte	.LASF17
 5477 00c4 0A       		.byte	0xa
 5478 00c5 22       		.byte	0x22
 5479 00c6 CA000000 		.4byte	0xca
 5480 00ca 05       		.uleb128 0x5
 5481 00cb 04       		.byte	0x4
 5482 00cc D0000000 		.4byte	0xd0
 5483 00d0 06       		.uleb128 0x6
 5484 00d1 81050000 		.4byte	.LASF124
 5485 00d5 03       		.uleb128 0x3
 5486 00d6 360E0000 		.4byte	.LASF18
 5487 00da 0B       		.byte	0xb
 5488 00db 2C       		.byte	0x2c
 5489 00dc 94000000 		.4byte	0x94
 5490 00e0 03       		.uleb128 0x3
 5491 00e1 751D0000 		.4byte	.LASF19
 5492 00e5 0B       		.byte	0xb
 5493 00e6 72       		.byte	0x72
 5494 00e7 94000000 		.4byte	0x94
 5495 00eb 07       		.uleb128 0x7
 5496 00ec 56100000 		.4byte	.LASF20
 5497 00f0 08       		.byte	0x8
 5498 00f1 6501     		.2byte	0x165
 5499 00f3 37000000 		.4byte	0x37
 5500 00f7 08       		.uleb128 0x8
 5501 00f8 04       		.byte	0x4
 5502 00f9 0B       		.byte	0xb
 5503 00fa A6       		.byte	0xa6
 5504 00fb 16010000 		.4byte	0x116
 5505 00ff 09       		.uleb128 0x9
 5506 0100 E4170000 		.4byte	.LASF21
 5507 0104 0B       		.byte	0xb
 5508 0105 A8       		.byte	0xa8
 5509 0106 EB000000 		.4byte	0xeb
 5510 010a 09       		.uleb128 0x9
ARM GAS  C:\Users\PCHAUT~1\AppData\Local\Temp\ccJuO4y2.s 			page 98


 5511 010b F60F0000 		.4byte	.LASF22
 5512 010f 0B       		.byte	0xb
 5513 0110 A9       		.byte	0xa9
 5514 0111 16010000 		.4byte	0x116
 5515 0115 00       		.byte	0
 5516 0116 0A       		.uleb128 0xa
 5517 0117 5E000000 		.4byte	0x5e
 5518 011b 26010000 		.4byte	0x126
 5519 011f 0B       		.uleb128 0xb
 5520 0120 37000000 		.4byte	0x37
 5521 0124 03       		.byte	0x3
 5522 0125 00       		.byte	0
 5523 0126 0C       		.uleb128 0xc
 5524 0127 08       		.byte	0x8
 5525 0128 0B       		.byte	0xb
 5526 0129 A3       		.byte	0xa3
 5527 012a 47010000 		.4byte	0x147
 5528 012e 0D       		.uleb128 0xd
 5529 012f 7A0E0000 		.4byte	.LASF23
 5530 0133 0B       		.byte	0xb
 5531 0134 A5       		.byte	0xa5
 5532 0135 25000000 		.4byte	0x25
 5533 0139 00       		.byte	0
 5534 013a 0D       		.uleb128 0xd
 5535 013b 7F1E0000 		.4byte	.LASF24
 5536 013f 0B       		.byte	0xb
 5537 0140 AA       		.byte	0xaa
 5538 0141 F7000000 		.4byte	0xf7
 5539 0145 04       		.byte	0x4
 5540 0146 00       		.byte	0
 5541 0147 03       		.uleb128 0x3
 5542 0148 E61D0000 		.4byte	.LASF25
 5543 014c 0B       		.byte	0xb
 5544 014d AB       		.byte	0xab
 5545 014e 26010000 		.4byte	0x126
 5546 0152 03       		.uleb128 0x3
 5547 0153 25220000 		.4byte	.LASF26
 5548 0157 0B       		.byte	0xb
 5549 0158 AF       		.byte	0xaf
 5550 0159 BF000000 		.4byte	0xbf
 5551 015d 0E       		.uleb128 0xe
 5552 015e 04       		.byte	0x4
 5553 015f 05       		.uleb128 0x5
 5554 0160 04       		.byte	0x4
 5555 0161 65010000 		.4byte	0x165
 5556 0165 04       		.uleb128 0x4
 5557 0166 01       		.byte	0x1
 5558 0167 08       		.byte	0x8
 5559 0168 B61A0000 		.4byte	.LASF27
 5560 016c 0F       		.uleb128 0xf
 5561 016d 65010000 		.4byte	0x165
 5562 0171 03       		.uleb128 0x3
 5563 0172 3D140000 		.4byte	.LASF28
 5564 0176 0C       		.byte	0xc
 5565 0177 16       		.byte	0x16
 5566 0178 A6000000 		.4byte	0xa6
 5567 017c 10       		.uleb128 0x10
ARM GAS  C:\Users\PCHAUT~1\AppData\Local\Temp\ccJuO4y2.s 			page 99


 5568 017d 571B0000 		.4byte	.LASF33
 5569 0181 18       		.byte	0x18
 5570 0182 0C       		.byte	0xc
 5571 0183 2F       		.byte	0x2f
 5572 0184 CF010000 		.4byte	0x1cf
 5573 0188 0D       		.uleb128 0xd
 5574 0189 CD110000 		.4byte	.LASF29
 5575 018d 0C       		.byte	0xc
 5576 018e 31       		.byte	0x31
 5577 018f CF010000 		.4byte	0x1cf
 5578 0193 00       		.byte	0
 5579 0194 11       		.uleb128 0x11
 5580 0195 5F6B00   		.ascii	"_k\000"
 5581 0198 0C       		.byte	0xc
 5582 0199 32       		.byte	0x32
 5583 019a 25000000 		.4byte	0x25
 5584 019e 04       		.byte	0x4
 5585 019f 0D       		.uleb128 0xd
 5586 01a0 99190000 		.4byte	.LASF30
 5587 01a4 0C       		.byte	0xc
 5588 01a5 32       		.byte	0x32
 5589 01a6 25000000 		.4byte	0x25
 5590 01aa 08       		.byte	0x8
 5591 01ab 0D       		.uleb128 0xd
 5592 01ac 8D240000 		.4byte	.LASF31
 5593 01b0 0C       		.byte	0xc
 5594 01b1 32       		.byte	0x32
 5595 01b2 25000000 		.4byte	0x25
 5596 01b6 0C       		.byte	0xc
 5597 01b7 0D       		.uleb128 0xd
 5598 01b8 FC0A0000 		.4byte	.LASF32
 5599 01bc 0C       		.byte	0xc
 5600 01bd 32       		.byte	0x32
 5601 01be 25000000 		.4byte	0x25
 5602 01c2 10       		.byte	0x10
 5603 01c3 11       		.uleb128 0x11
 5604 01c4 5F7800   		.ascii	"_x\000"
 5605 01c7 0C       		.byte	0xc
 5606 01c8 33       		.byte	0x33
 5607 01c9 D5010000 		.4byte	0x1d5
 5608 01cd 14       		.byte	0x14
 5609 01ce 00       		.byte	0
 5610 01cf 05       		.uleb128 0x5
 5611 01d0 04       		.byte	0x4
 5612 01d1 7C010000 		.4byte	0x17c
 5613 01d5 0A       		.uleb128 0xa
 5614 01d6 71010000 		.4byte	0x171
 5615 01da E5010000 		.4byte	0x1e5
 5616 01de 0B       		.uleb128 0xb
 5617 01df 37000000 		.4byte	0x37
 5618 01e3 00       		.byte	0
 5619 01e4 00       		.byte	0
 5620 01e5 10       		.uleb128 0x10
 5621 01e6 A8060000 		.4byte	.LASF34
 5622 01ea 24       		.byte	0x24
 5623 01eb 0C       		.byte	0xc
 5624 01ec 37       		.byte	0x37
ARM GAS  C:\Users\PCHAUT~1\AppData\Local\Temp\ccJuO4y2.s 			page 100


 5625 01ed 5E020000 		.4byte	0x25e
 5626 01f1 0D       		.uleb128 0xd
 5627 01f2 22130000 		.4byte	.LASF35
 5628 01f6 0C       		.byte	0xc
 5629 01f7 39       		.byte	0x39
 5630 01f8 25000000 		.4byte	0x25
 5631 01fc 00       		.byte	0
 5632 01fd 0D       		.uleb128 0xd
 5633 01fe 9C240000 		.4byte	.LASF36
 5634 0202 0C       		.byte	0xc
 5635 0203 3A       		.byte	0x3a
 5636 0204 25000000 		.4byte	0x25
 5637 0208 04       		.byte	0x4
 5638 0209 0D       		.uleb128 0xd
 5639 020a 25100000 		.4byte	.LASF37
 5640 020e 0C       		.byte	0xc
 5641 020f 3B       		.byte	0x3b
 5642 0210 25000000 		.4byte	0x25
 5643 0214 08       		.byte	0x8
 5644 0215 0D       		.uleb128 0xd
 5645 0216 F6100000 		.4byte	.LASF38
 5646 021a 0C       		.byte	0xc
 5647 021b 3C       		.byte	0x3c
 5648 021c 25000000 		.4byte	0x25
 5649 0220 0C       		.byte	0xc
 5650 0221 0D       		.uleb128 0xd
 5651 0222 9A010000 		.4byte	.LASF39
 5652 0226 0C       		.byte	0xc
 5653 0227 3D       		.byte	0x3d
 5654 0228 25000000 		.4byte	0x25
 5655 022c 10       		.byte	0x10
 5656 022d 0D       		.uleb128 0xd
 5657 022e 780C0000 		.4byte	.LASF40
 5658 0232 0C       		.byte	0xc
 5659 0233 3E       		.byte	0x3e
 5660 0234 25000000 		.4byte	0x25
 5661 0238 14       		.byte	0x14
 5662 0239 0D       		.uleb128 0xd
 5663 023a 3E0A0000 		.4byte	.LASF41
 5664 023e 0C       		.byte	0xc
 5665 023f 3F       		.byte	0x3f
 5666 0240 25000000 		.4byte	0x25
 5667 0244 18       		.byte	0x18
 5668 0245 0D       		.uleb128 0xd
 5669 0246 0A070000 		.4byte	.LASF42
 5670 024a 0C       		.byte	0xc
 5671 024b 40       		.byte	0x40
 5672 024c 25000000 		.4byte	0x25
 5673 0250 1C       		.byte	0x1c
 5674 0251 0D       		.uleb128 0xd
 5675 0252 F0090000 		.4byte	.LASF43
 5676 0256 0C       		.byte	0xc
 5677 0257 41       		.byte	0x41
 5678 0258 25000000 		.4byte	0x25
 5679 025c 20       		.byte	0x20
 5680 025d 00       		.byte	0
 5681 025e 12       		.uleb128 0x12
ARM GAS  C:\Users\PCHAUT~1\AppData\Local\Temp\ccJuO4y2.s 			page 101


 5682 025f 43130000 		.4byte	.LASF44
 5683 0263 0801     		.2byte	0x108
 5684 0265 0C       		.byte	0xc
 5685 0266 4A       		.byte	0x4a
 5686 0267 9E020000 		.4byte	0x29e
 5687 026b 0D       		.uleb128 0xd
 5688 026c 2E110000 		.4byte	.LASF45
 5689 0270 0C       		.byte	0xc
 5690 0271 4B       		.byte	0x4b
 5691 0272 9E020000 		.4byte	0x29e
 5692 0276 00       		.byte	0
 5693 0277 0D       		.uleb128 0xd
 5694 0278 78080000 		.4byte	.LASF46
 5695 027c 0C       		.byte	0xc
 5696 027d 4C       		.byte	0x4c
 5697 027e 9E020000 		.4byte	0x29e
 5698 0282 80       		.byte	0x80
 5699 0283 13       		.uleb128 0x13
 5700 0284 A3010000 		.4byte	.LASF47
 5701 0288 0C       		.byte	0xc
 5702 0289 4E       		.byte	0x4e
 5703 028a 71010000 		.4byte	0x171
 5704 028e 0001     		.2byte	0x100
 5705 0290 13       		.uleb128 0x13
 5706 0291 9D1E0000 		.4byte	.LASF48
 5707 0295 0C       		.byte	0xc
 5708 0296 51       		.byte	0x51
 5709 0297 71010000 		.4byte	0x171
 5710 029b 0401     		.2byte	0x104
 5711 029d 00       		.byte	0
 5712 029e 0A       		.uleb128 0xa
 5713 029f 5D010000 		.4byte	0x15d
 5714 02a3 AE020000 		.4byte	0x2ae
 5715 02a7 0B       		.uleb128 0xb
 5716 02a8 37000000 		.4byte	0x37
 5717 02ac 1F       		.byte	0x1f
 5718 02ad 00       		.byte	0
 5719 02ae 12       		.uleb128 0x12
 5720 02af 32010000 		.4byte	.LASF49
 5721 02b3 9001     		.2byte	0x190
 5722 02b5 0C       		.byte	0xc
 5723 02b6 5D       		.byte	0x5d
 5724 02b7 EC020000 		.4byte	0x2ec
 5725 02bb 0D       		.uleb128 0xd
 5726 02bc CD110000 		.4byte	.LASF29
 5727 02c0 0C       		.byte	0xc
 5728 02c1 5E       		.byte	0x5e
 5729 02c2 EC020000 		.4byte	0x2ec
 5730 02c6 00       		.byte	0
 5731 02c7 0D       		.uleb128 0xd
 5732 02c8 BF010000 		.4byte	.LASF50
 5733 02cc 0C       		.byte	0xc
 5734 02cd 5F       		.byte	0x5f
 5735 02ce 25000000 		.4byte	0x25
 5736 02d2 04       		.byte	0x4
 5737 02d3 0D       		.uleb128 0xd
 5738 02d4 C41D0000 		.4byte	.LASF51
ARM GAS  C:\Users\PCHAUT~1\AppData\Local\Temp\ccJuO4y2.s 			page 102


 5739 02d8 0C       		.byte	0xc
 5740 02d9 61       		.byte	0x61
 5741 02da F2020000 		.4byte	0x2f2
 5742 02de 08       		.byte	0x8
 5743 02df 0D       		.uleb128 0xd
 5744 02e0 43130000 		.4byte	.LASF44
 5745 02e4 0C       		.byte	0xc
 5746 02e5 62       		.byte	0x62
 5747 02e6 5E020000 		.4byte	0x25e
 5748 02ea 88       		.byte	0x88
 5749 02eb 00       		.byte	0
 5750 02ec 05       		.uleb128 0x5
 5751 02ed 04       		.byte	0x4
 5752 02ee AE020000 		.4byte	0x2ae
 5753 02f2 0A       		.uleb128 0xa
 5754 02f3 02030000 		.4byte	0x302
 5755 02f7 02030000 		.4byte	0x302
 5756 02fb 0B       		.uleb128 0xb
 5757 02fc 37000000 		.4byte	0x37
 5758 0300 1F       		.byte	0x1f
 5759 0301 00       		.byte	0
 5760 0302 05       		.uleb128 0x5
 5761 0303 04       		.byte	0x4
 5762 0304 08030000 		.4byte	0x308
 5763 0308 14       		.uleb128 0x14
 5764 0309 10       		.uleb128 0x10
 5765 030a 26170000 		.4byte	.LASF52
 5766 030e 08       		.byte	0x8
 5767 030f 0C       		.byte	0xc
 5768 0310 75       		.byte	0x75
 5769 0311 2E030000 		.4byte	0x32e
 5770 0315 0D       		.uleb128 0xd
 5771 0316 FD050000 		.4byte	.LASF53
 5772 031a 0C       		.byte	0xc
 5773 031b 76       		.byte	0x76
 5774 031c 2E030000 		.4byte	0x32e
 5775 0320 00       		.byte	0
 5776 0321 0D       		.uleb128 0xd
 5777 0322 1F0B0000 		.4byte	.LASF54
 5778 0326 0C       		.byte	0xc
 5779 0327 77       		.byte	0x77
 5780 0328 25000000 		.4byte	0x25
 5781 032c 04       		.byte	0x4
 5782 032d 00       		.byte	0
 5783 032e 05       		.uleb128 0x5
 5784 032f 04       		.byte	0x4
 5785 0330 5E000000 		.4byte	0x5e
 5786 0334 10       		.uleb128 0x10
 5787 0335 BC1D0000 		.4byte	.LASF55
 5788 0339 68       		.byte	0x68
 5789 033a 0C       		.byte	0xc
 5790 033b B5       		.byte	0xb5
 5791 033c 5E040000 		.4byte	0x45e
 5792 0340 11       		.uleb128 0x11
 5793 0341 5F7000   		.ascii	"_p\000"
 5794 0344 0C       		.byte	0xc
 5795 0345 B6       		.byte	0xb6
ARM GAS  C:\Users\PCHAUT~1\AppData\Local\Temp\ccJuO4y2.s 			page 103


 5796 0346 2E030000 		.4byte	0x32e
 5797 034a 00       		.byte	0
 5798 034b 11       		.uleb128 0x11
 5799 034c 5F7200   		.ascii	"_r\000"
 5800 034f 0C       		.byte	0xc
 5801 0350 B7       		.byte	0xb7
 5802 0351 25000000 		.4byte	0x25
 5803 0355 04       		.byte	0x4
 5804 0356 11       		.uleb128 0x11
 5805 0357 5F7700   		.ascii	"_w\000"
 5806 035a 0C       		.byte	0xc
 5807 035b B8       		.byte	0xb8
 5808 035c 25000000 		.4byte	0x25
 5809 0360 08       		.byte	0x8
 5810 0361 0D       		.uleb128 0xd
 5811 0362 21020000 		.4byte	.LASF56
 5812 0366 0C       		.byte	0xc
 5813 0367 B9       		.byte	0xb9
 5814 0368 70000000 		.4byte	0x70
 5815 036c 0C       		.byte	0xc
 5816 036d 0D       		.uleb128 0xd
 5817 036e 921D0000 		.4byte	.LASF57
 5818 0372 0C       		.byte	0xc
 5819 0373 BA       		.byte	0xba
 5820 0374 70000000 		.4byte	0x70
 5821 0378 0E       		.byte	0xe
 5822 0379 11       		.uleb128 0x11
 5823 037a 5F626600 		.ascii	"_bf\000"
 5824 037e 0C       		.byte	0xc
 5825 037f BB       		.byte	0xbb
 5826 0380 09030000 		.4byte	0x309
 5827 0384 10       		.byte	0x10
 5828 0385 0D       		.uleb128 0xd
 5829 0386 7B040000 		.4byte	.LASF58
 5830 038a 0C       		.byte	0xc
 5831 038b BC       		.byte	0xbc
 5832 038c 25000000 		.4byte	0x25
 5833 0390 18       		.byte	0x18
 5834 0391 0D       		.uleb128 0xd
 5835 0392 13120000 		.4byte	.LASF59
 5836 0396 0C       		.byte	0xc
 5837 0397 C3       		.byte	0xc3
 5838 0398 5D010000 		.4byte	0x15d
 5839 039c 1C       		.byte	0x1c
 5840 039d 0D       		.uleb128 0xd
 5841 039e 75250000 		.4byte	.LASF60
 5842 03a2 0C       		.byte	0xc
 5843 03a3 C5       		.byte	0xc5
 5844 03a4 B9050000 		.4byte	0x5b9
 5845 03a8 20       		.byte	0x20
 5846 03a9 0D       		.uleb128 0xd
 5847 03aa 760B0000 		.4byte	.LASF61
 5848 03ae 0C       		.byte	0xc
 5849 03af C7       		.byte	0xc7
 5850 03b0 E8050000 		.4byte	0x5e8
 5851 03b4 24       		.byte	0x24
 5852 03b5 0D       		.uleb128 0xd
ARM GAS  C:\Users\PCHAUT~1\AppData\Local\Temp\ccJuO4y2.s 			page 104


 5853 03b6 81150000 		.4byte	.LASF62
 5854 03ba 0C       		.byte	0xc
 5855 03bb CA       		.byte	0xca
 5856 03bc 0C060000 		.4byte	0x60c
 5857 03c0 28       		.byte	0x28
 5858 03c1 0D       		.uleb128 0xd
 5859 03c2 AA1A0000 		.4byte	.LASF63
 5860 03c6 0C       		.byte	0xc
 5861 03c7 CB       		.byte	0xcb
 5862 03c8 26060000 		.4byte	0x626
 5863 03cc 2C       		.byte	0x2c
 5864 03cd 11       		.uleb128 0x11
 5865 03ce 5F756200 		.ascii	"_ub\000"
 5866 03d2 0C       		.byte	0xc
 5867 03d3 CE       		.byte	0xce
 5868 03d4 09030000 		.4byte	0x309
 5869 03d8 30       		.byte	0x30
 5870 03d9 11       		.uleb128 0x11
 5871 03da 5F757000 		.ascii	"_up\000"
 5872 03de 0C       		.byte	0xc
 5873 03df CF       		.byte	0xcf
 5874 03e0 2E030000 		.4byte	0x32e
 5875 03e4 38       		.byte	0x38
 5876 03e5 11       		.uleb128 0x11
 5877 03e6 5F757200 		.ascii	"_ur\000"
 5878 03ea 0C       		.byte	0xc
 5879 03eb D0       		.byte	0xd0
 5880 03ec 25000000 		.4byte	0x25
 5881 03f0 3C       		.byte	0x3c
 5882 03f1 0D       		.uleb128 0xd
 5883 03f2 CE1C0000 		.4byte	.LASF64
 5884 03f6 0C       		.byte	0xc
 5885 03f7 D3       		.byte	0xd3
 5886 03f8 2C060000 		.4byte	0x62c
 5887 03fc 40       		.byte	0x40
 5888 03fd 0D       		.uleb128 0xd
 5889 03fe C7020000 		.4byte	.LASF65
 5890 0402 0C       		.byte	0xc
 5891 0403 D4       		.byte	0xd4
 5892 0404 3C060000 		.4byte	0x63c
 5893 0408 43       		.byte	0x43
 5894 0409 11       		.uleb128 0x11
 5895 040a 5F6C6200 		.ascii	"_lb\000"
 5896 040e 0C       		.byte	0xc
 5897 040f D7       		.byte	0xd7
 5898 0410 09030000 		.4byte	0x309
 5899 0414 44       		.byte	0x44
 5900 0415 0D       		.uleb128 0xd
 5901 0416 BC1C0000 		.4byte	.LASF66
 5902 041a 0C       		.byte	0xc
 5903 041b DA       		.byte	0xda
 5904 041c 25000000 		.4byte	0x25
 5905 0420 4C       		.byte	0x4c
 5906 0421 0D       		.uleb128 0xd
 5907 0422 CC160000 		.4byte	.LASF67
 5908 0426 0C       		.byte	0xc
 5909 0427 DB       		.byte	0xdb
ARM GAS  C:\Users\PCHAUT~1\AppData\Local\Temp\ccJuO4y2.s 			page 105


 5910 0428 D5000000 		.4byte	0xd5
 5911 042c 50       		.byte	0x50
 5912 042d 0D       		.uleb128 0xd
 5913 042e E0040000 		.4byte	.LASF68
 5914 0432 0C       		.byte	0xc
 5915 0433 DE       		.byte	0xde
 5916 0434 7C040000 		.4byte	0x47c
 5917 0438 54       		.byte	0x54
 5918 0439 0D       		.uleb128 0xd
 5919 043a C1020000 		.4byte	.LASF69
 5920 043e 0C       		.byte	0xc
 5921 043f E2       		.byte	0xe2
 5922 0440 52010000 		.4byte	0x152
 5923 0444 58       		.byte	0x58
 5924 0445 0D       		.uleb128 0xd
 5925 0446 29010000 		.4byte	.LASF70
 5926 044a 0C       		.byte	0xc
 5927 044b E4       		.byte	0xe4
 5928 044c 47010000 		.4byte	0x147
 5929 0450 5C       		.byte	0x5c
 5930 0451 0D       		.uleb128 0xd
 5931 0452 F4220000 		.4byte	.LASF71
 5932 0456 0C       		.byte	0xc
 5933 0457 E5       		.byte	0xe5
 5934 0458 25000000 		.4byte	0x25
 5935 045c 64       		.byte	0x64
 5936 045d 00       		.byte	0
 5937 045e 15       		.uleb128 0x15
 5938 045f 25000000 		.4byte	0x25
 5939 0463 7C040000 		.4byte	0x47c
 5940 0467 16       		.uleb128 0x16
 5941 0468 7C040000 		.4byte	0x47c
 5942 046c 16       		.uleb128 0x16
 5943 046d 5D010000 		.4byte	0x15d
 5944 0471 16       		.uleb128 0x16
 5945 0472 5F010000 		.4byte	0x15f
 5946 0476 16       		.uleb128 0x16
 5947 0477 25000000 		.4byte	0x25
 5948 047b 00       		.byte	0
 5949 047c 05       		.uleb128 0x5
 5950 047d 04       		.byte	0x4
 5951 047e 87040000 		.4byte	0x487
 5952 0482 0F       		.uleb128 0xf
 5953 0483 7C040000 		.4byte	0x47c
 5954 0487 17       		.uleb128 0x17
 5955 0488 97050000 		.4byte	.LASF72
 5956 048c 2804     		.2byte	0x428
 5957 048e 0C       		.byte	0xc
 5958 048f 3902     		.2byte	0x239
 5959 0491 B9050000 		.4byte	0x5b9
 5960 0495 18       		.uleb128 0x18
 5961 0496 DB100000 		.4byte	.LASF73
 5962 049a 0C       		.byte	0xc
 5963 049b 3B02     		.2byte	0x23b
 5964 049d 25000000 		.4byte	0x25
 5965 04a1 00       		.byte	0
 5966 04a2 18       		.uleb128 0x18
ARM GAS  C:\Users\PCHAUT~1\AppData\Local\Temp\ccJuO4y2.s 			page 106


 5967 04a3 8A0D0000 		.4byte	.LASF74
 5968 04a7 0C       		.byte	0xc
 5969 04a8 4002     		.2byte	0x240
 5970 04aa 93060000 		.4byte	0x693
 5971 04ae 04       		.byte	0x4
 5972 04af 18       		.uleb128 0x18
 5973 04b0 7B0A0000 		.4byte	.LASF75
 5974 04b4 0C       		.byte	0xc
 5975 04b5 4002     		.2byte	0x240
 5976 04b7 93060000 		.4byte	0x693
 5977 04bb 08       		.byte	0x8
 5978 04bc 18       		.uleb128 0x18
 5979 04bd 58080000 		.4byte	.LASF76
 5980 04c1 0C       		.byte	0xc
 5981 04c2 4002     		.2byte	0x240
 5982 04c4 93060000 		.4byte	0x693
 5983 04c8 0C       		.byte	0xc
 5984 04c9 18       		.uleb128 0x18
 5985 04ca BA010000 		.4byte	.LASF77
 5986 04ce 0C       		.byte	0xc
 5987 04cf 4202     		.2byte	0x242
 5988 04d1 25000000 		.4byte	0x25
 5989 04d5 10       		.byte	0x10
 5990 04d6 18       		.uleb128 0x18
 5991 04d7 26190000 		.4byte	.LASF78
 5992 04db 0C       		.byte	0xc
 5993 04dc 4302     		.2byte	0x243
 5994 04de 75080000 		.4byte	0x875
 5995 04e2 14       		.byte	0x14
 5996 04e3 18       		.uleb128 0x18
 5997 04e4 53210000 		.4byte	.LASF79
 5998 04e8 0C       		.byte	0xc
 5999 04e9 4602     		.2byte	0x246
 6000 04eb 25000000 		.4byte	0x25
 6001 04ef 30       		.byte	0x30
 6002 04f0 18       		.uleb128 0x18
 6003 04f1 57230000 		.4byte	.LASF80
 6004 04f5 0C       		.byte	0xc
 6005 04f6 4702     		.2byte	0x247
 6006 04f8 8A080000 		.4byte	0x88a
 6007 04fc 34       		.byte	0x34
 6008 04fd 18       		.uleb128 0x18
 6009 04fe B2210000 		.4byte	.LASF81
 6010 0502 0C       		.byte	0xc
 6011 0503 4902     		.2byte	0x249
 6012 0505 25000000 		.4byte	0x25
 6013 0509 38       		.byte	0x38
 6014 050a 18       		.uleb128 0x18
 6015 050b 111D0000 		.4byte	.LASF82
 6016 050f 0C       		.byte	0xc
 6017 0510 4B02     		.2byte	0x24b
 6018 0512 9B080000 		.4byte	0x89b
 6019 0516 3C       		.byte	0x3c
 6020 0517 18       		.uleb128 0x18
 6021 0518 60080000 		.4byte	.LASF83
 6022 051c 0C       		.byte	0xc
 6023 051d 4E02     		.2byte	0x24e
ARM GAS  C:\Users\PCHAUT~1\AppData\Local\Temp\ccJuO4y2.s 			page 107


 6024 051f CF010000 		.4byte	0x1cf
 6025 0523 40       		.byte	0x40
 6026 0524 18       		.uleb128 0x18
 6027 0525 49080000 		.4byte	.LASF84
 6028 0529 0C       		.byte	0xc
 6029 052a 4F02     		.2byte	0x24f
 6030 052c 25000000 		.4byte	0x25
 6031 0530 44       		.byte	0x44
 6032 0531 18       		.uleb128 0x18
 6033 0532 D71E0000 		.4byte	.LASF85
 6034 0536 0C       		.byte	0xc
 6035 0537 5002     		.2byte	0x250
 6036 0539 CF010000 		.4byte	0x1cf
 6037 053d 48       		.byte	0x48
 6038 053e 18       		.uleb128 0x18
 6039 053f 77160000 		.4byte	.LASF86
 6040 0543 0C       		.byte	0xc
 6041 0544 5102     		.2byte	0x251
 6042 0546 A1080000 		.4byte	0x8a1
 6043 054a 4C       		.byte	0x4c
 6044 054b 18       		.uleb128 0x18
 6045 054c 56020000 		.4byte	.LASF87
 6046 0550 0C       		.byte	0xc
 6047 0551 5402     		.2byte	0x254
 6048 0553 25000000 		.4byte	0x25
 6049 0557 50       		.byte	0x50
 6050 0558 18       		.uleb128 0x18
 6051 0559 400F0000 		.4byte	.LASF88
 6052 055d 0C       		.byte	0xc
 6053 055e 5502     		.2byte	0x255
 6054 0560 5F010000 		.4byte	0x15f
 6055 0564 54       		.byte	0x54
 6056 0565 18       		.uleb128 0x18
 6057 0566 65100000 		.4byte	.LASF89
 6058 056a 0C       		.byte	0xc
 6059 056b 7802     		.2byte	0x278
 6060 056d 53080000 		.4byte	0x853
 6061 0571 58       		.byte	0x58
 6062 0572 19       		.uleb128 0x19
 6063 0573 32010000 		.4byte	.LASF49
 6064 0577 0C       		.byte	0xc
 6065 0578 7C02     		.2byte	0x27c
 6066 057a EC020000 		.4byte	0x2ec
 6067 057e 4801     		.2byte	0x148
 6068 0580 19       		.uleb128 0x19
 6069 0581 8F1B0000 		.4byte	.LASF90
 6070 0585 0C       		.byte	0xc
 6071 0586 7D02     		.2byte	0x27d
 6072 0588 AE020000 		.4byte	0x2ae
 6073 058c 4C01     		.2byte	0x14c
 6074 058e 19       		.uleb128 0x19
 6075 058f 8B020000 		.4byte	.LASF91
 6076 0593 0C       		.byte	0xc
 6077 0594 8102     		.2byte	0x281
 6078 0596 B2080000 		.4byte	0x8b2
 6079 059a DC02     		.2byte	0x2dc
 6080 059c 19       		.uleb128 0x19
ARM GAS  C:\Users\PCHAUT~1\AppData\Local\Temp\ccJuO4y2.s 			page 108


 6081 059d EF1C0000 		.4byte	.LASF92
 6082 05a1 0C       		.byte	0xc
 6083 05a2 8602     		.2byte	0x286
 6084 05a4 58060000 		.4byte	0x658
 6085 05a8 E002     		.2byte	0x2e0
 6086 05aa 19       		.uleb128 0x19
 6087 05ab EF050000 		.4byte	.LASF93
 6088 05af 0C       		.byte	0xc
 6089 05b0 8802     		.2byte	0x288
 6090 05b2 BE080000 		.4byte	0x8be
 6091 05b6 EC02     		.2byte	0x2ec
 6092 05b8 00       		.byte	0
 6093 05b9 05       		.uleb128 0x5
 6094 05ba 04       		.byte	0x4
 6095 05bb 5E040000 		.4byte	0x45e
 6096 05bf 15       		.uleb128 0x15
 6097 05c0 25000000 		.4byte	0x25
 6098 05c4 DD050000 		.4byte	0x5dd
 6099 05c8 16       		.uleb128 0x16
 6100 05c9 7C040000 		.4byte	0x47c
 6101 05cd 16       		.uleb128 0x16
 6102 05ce 5D010000 		.4byte	0x15d
 6103 05d2 16       		.uleb128 0x16
 6104 05d3 DD050000 		.4byte	0x5dd
 6105 05d7 16       		.uleb128 0x16
 6106 05d8 25000000 		.4byte	0x25
 6107 05dc 00       		.byte	0
 6108 05dd 05       		.uleb128 0x5
 6109 05de 04       		.byte	0x4
 6110 05df 6C010000 		.4byte	0x16c
 6111 05e3 1A       		.uleb128 0x1a
 6112 05e4 DD050000 		.4byte	0x5dd
 6113 05e8 05       		.uleb128 0x5
 6114 05e9 04       		.byte	0x4
 6115 05ea BF050000 		.4byte	0x5bf
 6116 05ee 15       		.uleb128 0x15
 6117 05ef E0000000 		.4byte	0xe0
 6118 05f3 0C060000 		.4byte	0x60c
 6119 05f7 16       		.uleb128 0x16
 6120 05f8 7C040000 		.4byte	0x47c
 6121 05fc 16       		.uleb128 0x16
 6122 05fd 5D010000 		.4byte	0x15d
 6123 0601 16       		.uleb128 0x16
 6124 0602 E0000000 		.4byte	0xe0
 6125 0606 16       		.uleb128 0x16
 6126 0607 25000000 		.4byte	0x25
 6127 060b 00       		.byte	0
 6128 060c 05       		.uleb128 0x5
 6129 060d 04       		.byte	0x4
 6130 060e EE050000 		.4byte	0x5ee
 6131 0612 15       		.uleb128 0x15
 6132 0613 25000000 		.4byte	0x25
 6133 0617 26060000 		.4byte	0x626
 6134 061b 16       		.uleb128 0x16
 6135 061c 7C040000 		.4byte	0x47c
 6136 0620 16       		.uleb128 0x16
 6137 0621 5D010000 		.4byte	0x15d
ARM GAS  C:\Users\PCHAUT~1\AppData\Local\Temp\ccJuO4y2.s 			page 109


 6138 0625 00       		.byte	0
 6139 0626 05       		.uleb128 0x5
 6140 0627 04       		.byte	0x4
 6141 0628 12060000 		.4byte	0x612
 6142 062c 0A       		.uleb128 0xa
 6143 062d 5E000000 		.4byte	0x5e
 6144 0631 3C060000 		.4byte	0x63c
 6145 0635 0B       		.uleb128 0xb
 6146 0636 37000000 		.4byte	0x37
 6147 063a 02       		.byte	0x2
 6148 063b 00       		.byte	0
 6149 063c 0A       		.uleb128 0xa
 6150 063d 5E000000 		.4byte	0x5e
 6151 0641 4C060000 		.4byte	0x64c
 6152 0645 0B       		.uleb128 0xb
 6153 0646 37000000 		.4byte	0x37
 6154 064a 00       		.byte	0
 6155 064b 00       		.byte	0
 6156 064c 07       		.uleb128 0x7
 6157 064d 68240000 		.4byte	.LASF94
 6158 0651 0C       		.byte	0xc
 6159 0652 1F01     		.2byte	0x11f
 6160 0654 34030000 		.4byte	0x334
 6161 0658 1B       		.uleb128 0x1b
 6162 0659 D41A0000 		.4byte	.LASF95
 6163 065d 0C       		.byte	0xc
 6164 065e 0C       		.byte	0xc
 6165 065f 2301     		.2byte	0x123
 6166 0661 8D060000 		.4byte	0x68d
 6167 0665 18       		.uleb128 0x18
 6168 0666 CD110000 		.4byte	.LASF29
 6169 066a 0C       		.byte	0xc
 6170 066b 2501     		.2byte	0x125
 6171 066d 8D060000 		.4byte	0x68d
 6172 0671 00       		.byte	0
 6173 0672 18       		.uleb128 0x18
 6174 0673 94100000 		.4byte	.LASF96
 6175 0677 0C       		.byte	0xc
 6176 0678 2601     		.2byte	0x126
 6177 067a 25000000 		.4byte	0x25
 6178 067e 04       		.byte	0x4
 6179 067f 18       		.uleb128 0x18
 6180 0680 20190000 		.4byte	.LASF97
 6181 0684 0C       		.byte	0xc
 6182 0685 2701     		.2byte	0x127
 6183 0687 93060000 		.4byte	0x693
 6184 068b 08       		.byte	0x8
 6185 068c 00       		.byte	0
 6186 068d 05       		.uleb128 0x5
 6187 068e 04       		.byte	0x4
 6188 068f 58060000 		.4byte	0x658
 6189 0693 05       		.uleb128 0x5
 6190 0694 04       		.byte	0x4
 6191 0695 4C060000 		.4byte	0x64c
 6192 0699 1B       		.uleb128 0x1b
 6193 069a A0250000 		.4byte	.LASF98
 6194 069e 0E       		.byte	0xe
ARM GAS  C:\Users\PCHAUT~1\AppData\Local\Temp\ccJuO4y2.s 			page 110


 6195 069f 0C       		.byte	0xc
 6196 06a0 3F01     		.2byte	0x13f
 6197 06a2 CE060000 		.4byte	0x6ce
 6198 06a6 18       		.uleb128 0x18
 6199 06a7 6C150000 		.4byte	.LASF99
 6200 06ab 0C       		.byte	0xc
 6201 06ac 4001     		.2byte	0x140
 6202 06ae CE060000 		.4byte	0x6ce
 6203 06b2 00       		.byte	0
 6204 06b3 18       		.uleb128 0x18
 6205 06b4 D80C0000 		.4byte	.LASF100
 6206 06b8 0C       		.byte	0xc
 6207 06b9 4101     		.2byte	0x141
 6208 06bb CE060000 		.4byte	0x6ce
 6209 06bf 06       		.byte	0x6
 6210 06c0 18       		.uleb128 0x18
 6211 06c1 CF030000 		.4byte	.LASF101
 6212 06c5 0C       		.byte	0xc
 6213 06c6 4201     		.2byte	0x142
 6214 06c8 82000000 		.4byte	0x82
 6215 06cc 0C       		.byte	0xc
 6216 06cd 00       		.byte	0
 6217 06ce 0A       		.uleb128 0xa
 6218 06cf 82000000 		.4byte	0x82
 6219 06d3 DE060000 		.4byte	0x6de
 6220 06d7 0B       		.uleb128 0xb
 6221 06d8 37000000 		.4byte	0x37
 6222 06dc 02       		.byte	0x2
 6223 06dd 00       		.byte	0
 6224 06de 1C       		.uleb128 0x1c
 6225 06df D0       		.byte	0xd0
 6226 06e0 0C       		.byte	0xc
 6227 06e1 5902     		.2byte	0x259
 6228 06e3 DF070000 		.4byte	0x7df
 6229 06e7 18       		.uleb128 0x18
 6230 06e8 BB070000 		.4byte	.LASF102
 6231 06ec 0C       		.byte	0xc
 6232 06ed 5B02     		.2byte	0x25b
 6233 06ef 37000000 		.4byte	0x37
 6234 06f3 00       		.byte	0
 6235 06f4 18       		.uleb128 0x18
 6236 06f5 F9140000 		.4byte	.LASF103
 6237 06f9 0C       		.byte	0xc
 6238 06fa 5C02     		.2byte	0x25c
 6239 06fc 5F010000 		.4byte	0x15f
 6240 0700 04       		.byte	0x4
 6241 0701 18       		.uleb128 0x18
 6242 0702 A0170000 		.4byte	.LASF104
 6243 0706 0C       		.byte	0xc
 6244 0707 5D02     		.2byte	0x25d
 6245 0709 DF070000 		.4byte	0x7df
 6246 070d 08       		.byte	0x8
 6247 070e 18       		.uleb128 0x18
 6248 070f 620E0000 		.4byte	.LASF105
 6249 0713 0C       		.byte	0xc
 6250 0714 5E02     		.2byte	0x25e
 6251 0716 E5010000 		.4byte	0x1e5
ARM GAS  C:\Users\PCHAUT~1\AppData\Local\Temp\ccJuO4y2.s 			page 111


 6252 071a 24       		.byte	0x24
 6253 071b 18       		.uleb128 0x18
 6254 071c 7F200000 		.4byte	.LASF106
 6255 0720 0C       		.byte	0xc
 6256 0721 5F02     		.2byte	0x25f
 6257 0723 25000000 		.4byte	0x25
 6258 0727 48       		.byte	0x48
 6259 0728 18       		.uleb128 0x18
 6260 0729 51190000 		.4byte	.LASF107
 6261 072d 0C       		.byte	0xc
 6262 072e 6002     		.2byte	0x260
 6263 0730 B8000000 		.4byte	0xb8
 6264 0734 50       		.byte	0x50
 6265 0735 18       		.uleb128 0x18
 6266 0736 01250000 		.4byte	.LASF108
 6267 073a 0C       		.byte	0xc
 6268 073b 6102     		.2byte	0x261
 6269 073d 99060000 		.4byte	0x699
 6270 0741 58       		.byte	0x58
 6271 0742 18       		.uleb128 0x18
 6272 0743 E21C0000 		.4byte	.LASF109
 6273 0747 0C       		.byte	0xc
 6274 0748 6202     		.2byte	0x262
 6275 074a 47010000 		.4byte	0x147
 6276 074e 68       		.byte	0x68
 6277 074f 18       		.uleb128 0x18
 6278 0750 1B060000 		.4byte	.LASF110
 6279 0754 0C       		.byte	0xc
 6280 0755 6302     		.2byte	0x263
 6281 0757 47010000 		.4byte	0x147
 6282 075b 70       		.byte	0x70
 6283 075c 18       		.uleb128 0x18
 6284 075d AE180000 		.4byte	.LASF111
 6285 0761 0C       		.byte	0xc
 6286 0762 6402     		.2byte	0x264
 6287 0764 47010000 		.4byte	0x147
 6288 0768 78       		.byte	0x78
 6289 0769 18       		.uleb128 0x18
 6290 076a 4E170000 		.4byte	.LASF112
 6291 076e 0C       		.byte	0xc
 6292 076f 6502     		.2byte	0x265
 6293 0771 EF070000 		.4byte	0x7ef
 6294 0775 80       		.byte	0x80
 6295 0776 18       		.uleb128 0x18
 6296 0777 FC110000 		.4byte	.LASF113
 6297 077b 0C       		.byte	0xc
 6298 077c 6602     		.2byte	0x266
 6299 077e FF070000 		.4byte	0x7ff
 6300 0782 88       		.byte	0x88
 6301 0783 18       		.uleb128 0x18
 6302 0784 DE1B0000 		.4byte	.LASF114
 6303 0788 0C       		.byte	0xc
 6304 0789 6702     		.2byte	0x267
 6305 078b 25000000 		.4byte	0x25
 6306 078f A0       		.byte	0xa0
 6307 0790 18       		.uleb128 0x18
 6308 0791 1E0D0000 		.4byte	.LASF115
ARM GAS  C:\Users\PCHAUT~1\AppData\Local\Temp\ccJuO4y2.s 			page 112


 6309 0795 0C       		.byte	0xc
 6310 0796 6802     		.2byte	0x268
 6311 0798 47010000 		.4byte	0x147
 6312 079c A4       		.byte	0xa4
 6313 079d 18       		.uleb128 0x18
 6314 079e FD0F0000 		.4byte	.LASF116
 6315 07a2 0C       		.byte	0xc
 6316 07a3 6902     		.2byte	0x269
 6317 07a5 47010000 		.4byte	0x147
 6318 07a9 AC       		.byte	0xac
 6319 07aa 18       		.uleb128 0x18
 6320 07ab C90A0000 		.4byte	.LASF117
 6321 07af 0C       		.byte	0xc
 6322 07b0 6A02     		.2byte	0x26a
 6323 07b2 47010000 		.4byte	0x147
 6324 07b6 B4       		.byte	0xb4
 6325 07b7 18       		.uleb128 0x18
 6326 07b8 AC130000 		.4byte	.LASF118
 6327 07bc 0C       		.byte	0xc
 6328 07bd 6B02     		.2byte	0x26b
 6329 07bf 47010000 		.4byte	0x147
 6330 07c3 BC       		.byte	0xbc
 6331 07c4 18       		.uleb128 0x18
 6332 07c5 F7170000 		.4byte	.LASF119
 6333 07c9 0C       		.byte	0xc
 6334 07ca 6C02     		.2byte	0x26c
 6335 07cc 47010000 		.4byte	0x147
 6336 07d0 C4       		.byte	0xc4
 6337 07d1 18       		.uleb128 0x18
 6338 07d2 F11D0000 		.4byte	.LASF120
 6339 07d6 0C       		.byte	0xc
 6340 07d7 6D02     		.2byte	0x26d
 6341 07d9 25000000 		.4byte	0x25
 6342 07dd CC       		.byte	0xcc
 6343 07de 00       		.byte	0
 6344 07df 0A       		.uleb128 0xa
 6345 07e0 65010000 		.4byte	0x165
 6346 07e4 EF070000 		.4byte	0x7ef
 6347 07e8 0B       		.uleb128 0xb
 6348 07e9 37000000 		.4byte	0x37
 6349 07ed 19       		.byte	0x19
 6350 07ee 00       		.byte	0
 6351 07ef 0A       		.uleb128 0xa
 6352 07f0 65010000 		.4byte	0x165
 6353 07f4 FF070000 		.4byte	0x7ff
 6354 07f8 0B       		.uleb128 0xb
 6355 07f9 37000000 		.4byte	0x37
 6356 07fd 07       		.byte	0x7
 6357 07fe 00       		.byte	0
 6358 07ff 0A       		.uleb128 0xa
 6359 0800 65010000 		.4byte	0x165
 6360 0804 0F080000 		.4byte	0x80f
 6361 0808 0B       		.uleb128 0xb
 6362 0809 37000000 		.4byte	0x37
 6363 080d 17       		.byte	0x17
 6364 080e 00       		.byte	0
 6365 080f 1C       		.uleb128 0x1c
ARM GAS  C:\Users\PCHAUT~1\AppData\Local\Temp\ccJuO4y2.s 			page 113


 6366 0810 F0       		.byte	0xf0
 6367 0811 0C       		.byte	0xc
 6368 0812 7202     		.2byte	0x272
 6369 0814 33080000 		.4byte	0x833
 6370 0818 18       		.uleb128 0x18
 6371 0819 44190000 		.4byte	.LASF121
 6372 081d 0C       		.byte	0xc
 6373 081e 7502     		.2byte	0x275
 6374 0820 33080000 		.4byte	0x833
 6375 0824 00       		.byte	0
 6376 0825 18       		.uleb128 0x18
 6377 0826 910D0000 		.4byte	.LASF122
 6378 082a 0C       		.byte	0xc
 6379 082b 7602     		.2byte	0x276
 6380 082d 43080000 		.4byte	0x843
 6381 0831 78       		.byte	0x78
 6382 0832 00       		.byte	0
 6383 0833 0A       		.uleb128 0xa
 6384 0834 2E030000 		.4byte	0x32e
 6385 0838 43080000 		.4byte	0x843
 6386 083c 0B       		.uleb128 0xb
 6387 083d 37000000 		.4byte	0x37
 6388 0841 1D       		.byte	0x1d
 6389 0842 00       		.byte	0
 6390 0843 0A       		.uleb128 0xa
 6391 0844 37000000 		.4byte	0x37
 6392 0848 53080000 		.4byte	0x853
 6393 084c 0B       		.uleb128 0xb
 6394 084d 37000000 		.4byte	0x37
 6395 0851 1D       		.byte	0x1d
 6396 0852 00       		.byte	0
 6397 0853 1D       		.uleb128 0x1d
 6398 0854 F0       		.byte	0xf0
 6399 0855 0C       		.byte	0xc
 6400 0856 5702     		.2byte	0x257
 6401 0858 75080000 		.4byte	0x875
 6402 085c 1E       		.uleb128 0x1e
 6403 085d 97050000 		.4byte	.LASF72
 6404 0861 0C       		.byte	0xc
 6405 0862 6E02     		.2byte	0x26e
 6406 0864 DE060000 		.4byte	0x6de
 6407 0868 1E       		.uleb128 0x1e
 6408 0869 DD020000 		.4byte	.LASF123
 6409 086d 0C       		.byte	0xc
 6410 086e 7702     		.2byte	0x277
 6411 0870 0F080000 		.4byte	0x80f
 6412 0874 00       		.byte	0
 6413 0875 0A       		.uleb128 0xa
 6414 0876 65010000 		.4byte	0x165
 6415 087a 85080000 		.4byte	0x885
 6416 087e 0B       		.uleb128 0xb
 6417 087f 37000000 		.4byte	0x37
 6418 0883 18       		.byte	0x18
 6419 0884 00       		.byte	0
 6420 0885 06       		.uleb128 0x6
 6421 0886 F71C0000 		.4byte	.LASF125
 6422 088a 05       		.uleb128 0x5
ARM GAS  C:\Users\PCHAUT~1\AppData\Local\Temp\ccJuO4y2.s 			page 114


 6423 088b 04       		.byte	0x4
 6424 088c 85080000 		.4byte	0x885
 6425 0890 1F       		.uleb128 0x1f
 6426 0891 9B080000 		.4byte	0x89b
 6427 0895 16       		.uleb128 0x16
 6428 0896 7C040000 		.4byte	0x47c
 6429 089a 00       		.byte	0
 6430 089b 05       		.uleb128 0x5
 6431 089c 04       		.byte	0x4
 6432 089d 90080000 		.4byte	0x890
 6433 08a1 05       		.uleb128 0x5
 6434 08a2 04       		.byte	0x4
 6435 08a3 CF010000 		.4byte	0x1cf
 6436 08a7 1F       		.uleb128 0x1f
 6437 08a8 B2080000 		.4byte	0x8b2
 6438 08ac 16       		.uleb128 0x16
 6439 08ad 25000000 		.4byte	0x25
 6440 08b1 00       		.byte	0
 6441 08b2 05       		.uleb128 0x5
 6442 08b3 04       		.byte	0x4
 6443 08b4 B8080000 		.4byte	0x8b8
 6444 08b8 05       		.uleb128 0x5
 6445 08b9 04       		.byte	0x4
 6446 08ba A7080000 		.4byte	0x8a7
 6447 08be 0A       		.uleb128 0xa
 6448 08bf 4C060000 		.4byte	0x64c
 6449 08c3 CE080000 		.4byte	0x8ce
 6450 08c7 0B       		.uleb128 0xb
 6451 08c8 37000000 		.4byte	0x37
 6452 08cc 02       		.byte	0x2
 6453 08cd 00       		.byte	0
 6454 08ce 20       		.uleb128 0x20
 6455 08cf 941C0000 		.4byte	.LASF126
 6456 08d3 0C       		.byte	0xc
 6457 08d4 0703     		.2byte	0x307
 6458 08d6 7C040000 		.4byte	0x47c
 6459 08da 20       		.uleb128 0x20
 6460 08db 30210000 		.4byte	.LASF127
 6461 08df 0C       		.byte	0xc
 6462 08e0 0803     		.2byte	0x308
 6463 08e2 82040000 		.4byte	0x482
 6464 08e6 03       		.uleb128 0x3
 6465 08e7 820E0000 		.4byte	.LASF128
 6466 08eb 0D       		.byte	0xd
 6467 08ec 18       		.byte	0x18
 6468 08ed 53000000 		.4byte	0x53
 6469 08f1 0F       		.uleb128 0xf
 6470 08f2 E6080000 		.4byte	0x8e6
 6471 08f6 03       		.uleb128 0x3
 6472 08f7 99150000 		.4byte	.LASF129
 6473 08fb 0D       		.byte	0xd
 6474 08fc 20       		.byte	0x20
 6475 08fd 65000000 		.4byte	0x65
 6476 0901 03       		.uleb128 0x3
 6477 0902 00020000 		.4byte	.LASF130
 6478 0906 0D       		.byte	0xd
 6479 0907 24       		.byte	0x24
ARM GAS  C:\Users\PCHAUT~1\AppData\Local\Temp\ccJuO4y2.s 			page 115


 6480 0908 77000000 		.4byte	0x77
 6481 090c 03       		.uleb128 0x3
 6482 090d A1030000 		.4byte	.LASF131
 6483 0911 0D       		.byte	0xd
 6484 0912 2C       		.byte	0x2c
 6485 0913 89000000 		.4byte	0x89
 6486 0917 1A       		.uleb128 0x1a
 6487 0918 0C090000 		.4byte	0x90c
 6488 091c 03       		.uleb128 0x3
 6489 091d 85190000 		.4byte	.LASF132
 6490 0921 0D       		.byte	0xd
 6491 0922 30       		.byte	0x30
 6492 0923 9B000000 		.4byte	0x9b
 6493 0927 1A       		.uleb128 0x1a
 6494 0928 1C090000 		.4byte	0x91c
 6495 092c 0F       		.uleb128 0xf
 6496 092d 27090000 		.4byte	0x927
 6497 0931 03       		.uleb128 0x3
 6498 0932 2B0C0000 		.4byte	.LASF133
 6499 0936 0D       		.byte	0xd
 6500 0937 3C       		.byte	0x3c
 6501 0938 AD000000 		.4byte	0xad
 6502 093c 03       		.uleb128 0x3
 6503 093d E80D0000 		.4byte	.LASF134
 6504 0941 0E       		.byte	0xe
 6505 0942 45       		.byte	0x45
 6506 0943 1C090000 		.4byte	0x91c
 6507 0947 03       		.uleb128 0x3
 6508 0948 AB050000 		.4byte	.LASF135
 6509 094c 0E       		.byte	0xe
 6510 094d 46       		.byte	0x46
 6511 094e 31090000 		.4byte	0x931
 6512 0952 03       		.uleb128 0x3
 6513 0953 59130000 		.4byte	.LASF136
 6514 0957 0E       		.byte	0xe
 6515 0958 48       		.byte	0x48
 6516 0959 E6080000 		.4byte	0x8e6
 6517 095d 03       		.uleb128 0x3
 6518 095e 27210000 		.4byte	.LASF137
 6519 0962 0E       		.byte	0xe
 6520 0963 49       		.byte	0x49
 6521 0964 E6080000 		.4byte	0x8e6
 6522 0968 03       		.uleb128 0x3
 6523 0969 E2120000 		.4byte	.LASF138
 6524 096d 0E       		.byte	0xe
 6525 096e 4A       		.byte	0x4a
 6526 096f E6080000 		.4byte	0x8e6
 6527 0973 03       		.uleb128 0x3
 6528 0974 EF140000 		.4byte	.LASF139
 6529 0978 0E       		.byte	0xe
 6530 0979 4B       		.byte	0x4b
 6531 097a E6080000 		.4byte	0x8e6
 6532 097e 03       		.uleb128 0x3
 6533 097f 83060000 		.4byte	.LASF140
 6534 0983 0E       		.byte	0xe
 6535 0984 4C       		.byte	0x4c
 6536 0985 1C090000 		.4byte	0x91c
ARM GAS  C:\Users\PCHAUT~1\AppData\Local\Temp\ccJuO4y2.s 			page 116


 6537 0989 03       		.uleb128 0x3
 6538 098a 4E000000 		.4byte	.LASF141
 6539 098e 0E       		.byte	0xe
 6540 098f 4D       		.byte	0x4d
 6541 0990 0C090000 		.4byte	0x90c
 6542 0994 03       		.uleb128 0x3
 6543 0995 D1190000 		.4byte	.LASF142
 6544 0999 0E       		.byte	0xe
 6545 099a 4F       		.byte	0x4f
 6546 099b 1C090000 		.4byte	0x91c
 6547 099f 03       		.uleb128 0x3
 6548 09a0 5F230000 		.4byte	.LASF143
 6549 09a4 0E       		.byte	0xe
 6550 09a5 50       		.byte	0x50
 6551 09a6 1C090000 		.4byte	0x91c
 6552 09aa 03       		.uleb128 0x3
 6553 09ab 2B1C0000 		.4byte	.LASF144
 6554 09af 0E       		.byte	0xe
 6555 09b0 51       		.byte	0x51
 6556 09b1 0C090000 		.4byte	0x90c
 6557 09b5 03       		.uleb128 0x3
 6558 09b6 05160000 		.4byte	.LASF145
 6559 09ba 0E       		.byte	0xe
 6560 09bb 52       		.byte	0x52
 6561 09bc 1C090000 		.4byte	0x91c
 6562 09c0 03       		.uleb128 0x3
 6563 09c1 B5030000 		.4byte	.LASF146
 6564 09c5 0F       		.byte	0xf
 6565 09c6 33       		.byte	0x33
 6566 09c7 1C090000 		.4byte	0x91c
 6567 09cb 1A       		.uleb128 0x1a
 6568 09cc C0090000 		.4byte	0x9c0
 6569 09d0 03       		.uleb128 0x3
 6570 09d1 51030000 		.4byte	.LASF147
 6571 09d5 0F       		.byte	0xf
 6572 09d6 3F       		.byte	0x3f
 6573 09d7 DB090000 		.4byte	0x9db
 6574 09db 10       		.uleb128 0x10
 6575 09dc AD0A0000 		.4byte	.LASF148
 6576 09e0 68       		.byte	0x68
 6577 09e1 10       		.byte	0x10
 6578 09e2 C2       		.byte	0xc2
 6579 09e3 F90A0000 		.4byte	0xaf9
 6580 09e7 0D       		.uleb128 0xd
 6581 09e8 81120000 		.4byte	.LASF149
 6582 09ec 10       		.byte	0x10
 6583 09ed C3       		.byte	0xc3
 6584 09ee 040B0000 		.4byte	0xb04
 6585 09f2 00       		.byte	0
 6586 09f3 0D       		.uleb128 0xd
 6587 09f4 AD0E0000 		.4byte	.LASF150
 6588 09f8 10       		.byte	0x10
 6589 09f9 C5       		.byte	0xc5
 6590 09fa 040B0000 		.4byte	0xb04
 6591 09fe 04       		.byte	0x4
 6592 09ff 0D       		.uleb128 0xd
 6593 0a00 9A110000 		.4byte	.LASF151
ARM GAS  C:\Users\PCHAUT~1\AppData\Local\Temp\ccJuO4y2.s 			page 117


 6594 0a04 10       		.byte	0x10
 6595 0a05 C7       		.byte	0xc7
 6596 0a06 7E090000 		.4byte	0x97e
 6597 0a0a 08       		.byte	0x8
 6598 0a0b 0D       		.uleb128 0xd
 6599 0a0c 570B0000 		.4byte	.LASF152
 6600 0a10 10       		.byte	0x10
 6601 0a11 C8       		.byte	0xc8
 6602 0a12 A7160000 		.4byte	0x16a7
 6603 0a16 0C       		.byte	0xc
 6604 0a17 0D       		.uleb128 0xd
 6605 0a18 95020000 		.4byte	.LASF153
 6606 0a1c 10       		.byte	0x10
 6607 0a1d CA       		.byte	0xca
 6608 0a1e 040B0000 		.4byte	0xb04
 6609 0a22 10       		.byte	0x10
 6610 0a23 0D       		.uleb128 0xd
 6611 0a24 E9230000 		.4byte	.LASF154
 6612 0a28 10       		.byte	0x10
 6613 0a29 CB       		.byte	0xcb
 6614 0a2a 040B0000 		.4byte	0xb04
 6615 0a2e 14       		.byte	0x14
 6616 0a2f 0D       		.uleb128 0xd
 6617 0a30 AB210000 		.4byte	.LASF155
 6618 0a34 10       		.byte	0x10
 6619 0a35 D2       		.byte	0xd2
 6620 0a36 DD050000 		.4byte	0x5dd
 6621 0a3a 18       		.byte	0x18
 6622 0a3b 0D       		.uleb128 0xd
 6623 0a3c 201C0000 		.4byte	.LASF156
 6624 0a40 10       		.byte	0x10
 6625 0a41 D8       		.byte	0xd8
 6626 0a42 1D1A0000 		.4byte	0x1a1d
 6627 0a46 1C       		.byte	0x1c
 6628 0a47 0D       		.uleb128 0xd
 6629 0a48 19260000 		.4byte	.LASF157
 6630 0a4c 10       		.byte	0x10
 6631 0a4d DD       		.byte	0xdd
 6632 0a4e 5D090000 		.4byte	0x95d
 6633 0a52 20       		.byte	0x20
 6634 0a53 0D       		.uleb128 0xd
 6635 0a54 ED200000 		.4byte	.LASF158
 6636 0a58 10       		.byte	0x10
 6637 0a59 E1       		.byte	0xe1
 6638 0a5a 52090000 		.4byte	0x952
 6639 0a5e 21       		.byte	0x21
 6640 0a5f 0D       		.uleb128 0xd
 6641 0a60 61180000 		.4byte	.LASF159
 6642 0a64 10       		.byte	0x10
 6643 0a65 E6       		.byte	0xe6
 6644 0a66 68090000 		.4byte	0x968
 6645 0a6a 22       		.byte	0x22
 6646 0a6b 0D       		.uleb128 0xd
 6647 0a6c F1150000 		.4byte	.LASF160
 6648 0a70 10       		.byte	0x10
 6649 0a71 EC       		.byte	0xec
 6650 0a72 73090000 		.4byte	0x973
ARM GAS  C:\Users\PCHAUT~1\AppData\Local\Temp\ccJuO4y2.s 			page 118


 6651 0a76 23       		.byte	0x23
 6652 0a77 0D       		.uleb128 0xd
 6653 0a78 5A180000 		.4byte	.LASF161
 6654 0a7c 10       		.byte	0x10
 6655 0a7d F3       		.byte	0xf3
 6656 0a7e CB090000 		.4byte	0x9cb
 6657 0a82 24       		.byte	0x24
 6658 0a83 21       		.uleb128 0x21
 6659 0a84 705F7500 		.ascii	"p_u\000"
 6660 0a88 10       		.byte	0x10
 6661 0a89 3101     		.2byte	0x131
 6662 0a8b 4C190000 		.4byte	0x194c
 6663 0a8f 28       		.byte	0x28
 6664 0a90 18       		.uleb128 0x18
 6665 0a91 FC040000 		.4byte	.LASF162
 6666 0a95 10       		.byte	0x10
 6667 0a96 3601     		.2byte	0x136
 6668 0a98 0A0B0000 		.4byte	0xb0a
 6669 0a9c 2C       		.byte	0x2c
 6670 0a9d 18       		.uleb128 0x18
 6671 0a9e A0160000 		.4byte	.LASF163
 6672 0aa2 10       		.byte	0x10
 6673 0aa3 3C01     		.2byte	0x13c
 6674 0aa5 2E0B0000 		.4byte	0xb2e
 6675 0aa9 30       		.byte	0x30
 6676 0aaa 18       		.uleb128 0x18
 6677 0aab B5070000 		.4byte	.LASF164
 6678 0aaf 10       		.byte	0x10
 6679 0ab0 4001     		.2byte	0x140
 6680 0ab2 89090000 		.4byte	0x989
 6681 0ab6 38       		.byte	0x38
 6682 0ab7 18       		.uleb128 0x18
 6683 0ab8 DC1E0000 		.4byte	.LASF165
 6684 0abc 10       		.byte	0x10
 6685 0abd 4601     		.2byte	0x146
 6686 0abf 94090000 		.4byte	0x994
 6687 0ac3 3C       		.byte	0x3c
 6688 0ac4 18       		.uleb128 0x18
 6689 0ac5 12210000 		.4byte	.LASF166
 6690 0ac9 10       		.byte	0x10
 6691 0aca 4D01     		.2byte	0x14d
 6692 0acc 171A0000 		.4byte	0x1a17
 6693 0ad0 40       		.byte	0x40
 6694 0ad1 18       		.uleb128 0x18
 6695 0ad2 981D0000 		.4byte	.LASF167
 6696 0ad6 10       		.byte	0x10
 6697 0ad7 5101     		.2byte	0x151
 6698 0ad9 7E090000 		.4byte	0x97e
 6699 0add 44       		.byte	0x44
 6700 0ade 18       		.uleb128 0x18
 6701 0adf EA120000 		.4byte	.LASF168
 6702 0ae3 10       		.byte	0x10
 6703 0ae4 5801     		.2byte	0x158
 6704 0ae6 5D010000 		.4byte	0x15d
 6705 0aea 48       		.byte	0x48
 6706 0aeb 18       		.uleb128 0x18
 6707 0aec 54260000 		.4byte	.LASF169
ARM GAS  C:\Users\PCHAUT~1\AppData\Local\Temp\ccJuO4y2.s 			page 119


 6708 0af0 10       		.byte	0x10
 6709 0af1 5E01     		.2byte	0x15e
 6710 0af3 FD180000 		.4byte	0x18fd
 6711 0af7 50       		.byte	0x50
 6712 0af8 00       		.byte	0
 6713 0af9 03       		.uleb128 0x3
 6714 0afa 3E240000 		.4byte	.LASF170
 6715 0afe 0F       		.byte	0xf
 6716 0aff 44       		.byte	0x44
 6717 0b00 040B0000 		.4byte	0xb04
 6718 0b04 05       		.uleb128 0x5
 6719 0b05 04       		.byte	0x4
 6720 0b06 D0090000 		.4byte	0x9d0
 6721 0b0a 03       		.uleb128 0x3
 6722 0b0b 3B050000 		.4byte	.LASF171
 6723 0b0f 0F       		.byte	0xf
 6724 0b10 49       		.byte	0x49
 6725 0b11 150B0000 		.4byte	0xb15
 6726 0b15 10       		.uleb128 0x10
 6727 0b16 33260000 		.4byte	.LASF172
 6728 0b1a 04       		.byte	0x4
 6729 0b1b 10       		.byte	0x10
 6730 0b1c B0       		.byte	0xb0
 6731 0b1d 2E0B0000 		.4byte	0xb2e
 6732 0b21 0D       		.uleb128 0xd
 6733 0b22 81120000 		.4byte	.LASF149
 6734 0b26 10       		.byte	0x10
 6735 0b27 B1       		.byte	0xb1
 6736 0b28 040B0000 		.4byte	0xb04
 6737 0b2c 00       		.byte	0
 6738 0b2d 00       		.byte	0
 6739 0b2e 03       		.uleb128 0x3
 6740 0b2f 35180000 		.4byte	.LASF173
 6741 0b33 0F       		.byte	0xf
 6742 0b34 50       		.byte	0x50
 6743 0b35 390B0000 		.4byte	0xb39
 6744 0b39 10       		.uleb128 0x10
 6745 0b3a 6D020000 		.4byte	.LASF174
 6746 0b3e 08       		.byte	0x8
 6747 0b3f 10       		.byte	0x10
 6748 0b40 B7       		.byte	0xb7
 6749 0b41 5E0B0000 		.4byte	0xb5e
 6750 0b45 0D       		.uleb128 0xd
 6751 0b46 81120000 		.4byte	.LASF149
 6752 0b4a 10       		.byte	0x10
 6753 0b4b B8       		.byte	0xb8
 6754 0b4c 040B0000 		.4byte	0xb04
 6755 0b50 00       		.byte	0
 6756 0b51 0D       		.uleb128 0xd
 6757 0b52 AD0E0000 		.4byte	.LASF150
 6758 0b56 10       		.byte	0x10
 6759 0b57 B9       		.byte	0xb9
 6760 0b58 040B0000 		.4byte	0xb04
 6761 0b5c 04       		.byte	0x4
 6762 0b5d 00       		.byte	0
 6763 0b5e 03       		.uleb128 0x3
 6764 0b5f A00A0000 		.4byte	.LASF175
ARM GAS  C:\Users\PCHAUT~1\AppData\Local\Temp\ccJuO4y2.s 			page 120


 6765 0b63 0F       		.byte	0xf
 6766 0b64 57       		.byte	0x57
 6767 0b65 690B0000 		.4byte	0xb69
 6768 0b69 1B       		.uleb128 0x1b
 6769 0b6a 331E0000 		.4byte	.LASF176
 6770 0b6e 1C       		.byte	0x1c
 6771 0b6f 10       		.byte	0x10
 6772 0b70 9001     		.2byte	0x190
 6773 0b72 C50B0000 		.4byte	0xbc5
 6774 0b76 18       		.uleb128 0x18
 6775 0b77 CC1A0000 		.4byte	.LASF177
 6776 0b7b 10       		.byte	0x10
 6777 0b7c 9101     		.2byte	0x191
 6778 0b7e 2E0B0000 		.4byte	0xb2e
 6779 0b82 00       		.byte	0
 6780 0b83 18       		.uleb128 0x18
 6781 0b84 ED1F0000 		.4byte	.LASF178
 6782 0b88 10       		.byte	0x10
 6783 0b89 9201     		.2byte	0x192
 6784 0b8b 7E090000 		.4byte	0x97e
 6785 0b8f 08       		.byte	0x8
 6786 0b90 18       		.uleb128 0x18
 6787 0b91 C80D0000 		.4byte	.LASF179
 6788 0b95 10       		.byte	0x10
 6789 0b96 9401     		.2byte	0x194
 6790 0b98 A7160000 		.4byte	0x16a7
 6791 0b9c 0C       		.byte	0xc
 6792 0b9d 18       		.uleb128 0x18
 6793 0b9e 63140000 		.4byte	.LASF180
 6794 0ba2 10       		.byte	0x10
 6795 0ba3 9701     		.2byte	0x197
 6796 0ba5 040B0000 		.4byte	0xb04
 6797 0ba9 10       		.byte	0x10
 6798 0baa 18       		.uleb128 0x18
 6799 0bab A50E0000 		.4byte	.LASF181
 6800 0baf 10       		.byte	0x10
 6801 0bb0 9801     		.2byte	0x198
 6802 0bb2 040B0000 		.4byte	0xb04
 6803 0bb6 14       		.byte	0x14
 6804 0bb7 18       		.uleb128 0x18
 6805 0bb8 D1100000 		.4byte	.LASF182
 6806 0bbc 10       		.byte	0x10
 6807 0bbd 9B01     		.2byte	0x19b
 6808 0bbf 040B0000 		.4byte	0xb04
 6809 0bc3 18       		.byte	0x18
 6810 0bc4 00       		.byte	0
 6811 0bc5 03       		.uleb128 0x3
 6812 0bc6 411D0000 		.4byte	.LASF183
 6813 0bca 0F       		.byte	0xf
 6814 0bcb 5C       		.byte	0x5c
 6815 0bcc D00B0000 		.4byte	0xbd0
 6816 0bd0 05       		.uleb128 0x5
 6817 0bd1 04       		.byte	0x4
 6818 0bd2 D60B0000 		.4byte	0xbd6
 6819 0bd6 1F       		.uleb128 0x1f
 6820 0bd7 E10B0000 		.4byte	0xbe1
 6821 0bdb 16       		.uleb128 0x16
ARM GAS  C:\Users\PCHAUT~1\AppData\Local\Temp\ccJuO4y2.s 			page 121


 6822 0bdc 5D010000 		.4byte	0x15d
 6823 0be0 00       		.byte	0
 6824 0be1 03       		.uleb128 0x3
 6825 0be2 AC0D0000 		.4byte	.LASF184
 6826 0be6 0F       		.byte	0xf
 6827 0be7 61       		.byte	0x61
 6828 0be8 EC0B0000 		.4byte	0xbec
 6829 0bec 1B       		.uleb128 0x1b
 6830 0bed DC200000 		.4byte	.LASF185
 6831 0bf1 14       		.byte	0x14
 6832 0bf2 10       		.byte	0x10
 6833 0bf3 6B01     		.2byte	0x16b
 6834 0bf5 3B0C0000 		.4byte	0xc3b
 6835 0bf9 18       		.uleb128 0x18
 6836 0bfa CE0D0000 		.4byte	.LASF186
 6837 0bfe 10       		.byte	0x10
 6838 0bff 6C01     		.2byte	0x16c
 6839 0c01 231A0000 		.4byte	0x1a23
 6840 0c05 00       		.byte	0
 6841 0c06 18       		.uleb128 0x18
 6842 0c07 550A0000 		.4byte	.LASF187
 6843 0c0b 10       		.byte	0x10
 6844 0c0c 6D01     		.2byte	0x16d
 6845 0c0e 231A0000 		.4byte	0x1a23
 6846 0c12 04       		.byte	0x4
 6847 0c13 18       		.uleb128 0x18
 6848 0c14 4D150000 		.4byte	.LASF188
 6849 0c18 10       		.byte	0x10
 6850 0c19 6E01     		.2byte	0x16e
 6851 0c1b C0090000 		.4byte	0x9c0
 6852 0c1f 08       		.byte	0x8
 6853 0c20 18       		.uleb128 0x18
 6854 0c21 B9200000 		.4byte	.LASF189
 6855 0c25 10       		.byte	0x10
 6856 0c26 6F01     		.2byte	0x16f
 6857 0c28 C50B0000 		.4byte	0xbc5
 6858 0c2c 0C       		.byte	0xc
 6859 0c2d 18       		.uleb128 0x18
 6860 0c2e 5D0B0000 		.4byte	.LASF190
 6861 0c32 10       		.byte	0x10
 6862 0c33 7101     		.2byte	0x171
 6863 0c35 5D010000 		.4byte	0x15d
 6864 0c39 10       		.byte	0x10
 6865 0c3a 00       		.byte	0
 6866 0c3b 03       		.uleb128 0x3
 6867 0c3c 2E220000 		.4byte	.LASF191
 6868 0c40 0F       		.byte	0xf
 6869 0c41 66       		.byte	0x66
 6870 0c42 460C0000 		.4byte	0xc46
 6871 0c46 1B       		.uleb128 0x1b
 6872 0c47 7B030000 		.4byte	.LASF192
 6873 0c4b 10       		.byte	0x10
 6874 0c4c 10       		.byte	0x10
 6875 0c4d 7B01     		.2byte	0x17b
 6876 0c4f 880C0000 		.4byte	0xc88
 6877 0c53 18       		.uleb128 0x18
 6878 0c54 CE0D0000 		.4byte	.LASF186
ARM GAS  C:\Users\PCHAUT~1\AppData\Local\Temp\ccJuO4y2.s 			page 122


 6879 0c58 10       		.byte	0x10
 6880 0c59 7C01     		.2byte	0x17c
 6881 0c5b 231A0000 		.4byte	0x1a23
 6882 0c5f 00       		.byte	0
 6883 0c60 18       		.uleb128 0x18
 6884 0c61 550A0000 		.4byte	.LASF187
 6885 0c65 10       		.byte	0x10
 6886 0c66 7E01     		.2byte	0x17e
 6887 0c68 231A0000 		.4byte	0x1a23
 6888 0c6c 04       		.byte	0x4
 6889 0c6d 18       		.uleb128 0x18
 6890 0c6e 4D150000 		.4byte	.LASF188
 6891 0c72 10       		.byte	0x10
 6892 0c73 8001     		.2byte	0x180
 6893 0c75 C0090000 		.4byte	0x9c0
 6894 0c79 08       		.byte	0x8
 6895 0c7a 18       		.uleb128 0x18
 6896 0c7b 6F010000 		.4byte	.LASF193
 6897 0c7f 10       		.byte	0x10
 6898 0c80 8201     		.2byte	0x182
 6899 0c82 CB090000 		.4byte	0x9cb
 6900 0c86 0C       		.byte	0xc
 6901 0c87 00       		.byte	0
 6902 0c88 03       		.uleb128 0x3
 6903 0c89 2B0B0000 		.4byte	.LASF194
 6904 0c8d 0F       		.byte	0xf
 6905 0c8e 6B       		.byte	0x6b
 6906 0c8f 930C0000 		.4byte	0xc93
 6907 0c93 17       		.uleb128 0x17
 6908 0c94 5C1E0000 		.4byte	.LASF195
 6909 0c98 1404     		.2byte	0x414
 6910 0c9a 10       		.byte	0x10
 6911 0c9b A201     		.2byte	0x1a2
 6912 0c9d D60C0000 		.4byte	0xcd6
 6913 0ca1 18       		.uleb128 0x18
 6914 0ca2 45140000 		.4byte	.LASF196
 6915 0ca6 10       		.byte	0x10
 6916 0ca7 AA01     		.2byte	0x1aa
 6917 0ca9 E3050000 		.4byte	0x5e3
 6918 0cad 00       		.byte	0
 6919 0cae 18       		.uleb128 0x18
 6920 0caf 12140000 		.4byte	.LASF197
 6921 0cb3 10       		.byte	0x10
 6922 0cb4 AF01     		.2byte	0x1af
 6923 0cb6 AA090000 		.4byte	0x9aa
 6924 0cba 04       		.byte	0x4
 6925 0cbb 18       		.uleb128 0x18
 6926 0cbc 5E020000 		.4byte	.LASF198
 6927 0cc0 10       		.byte	0x10
 6928 0cc1 B301     		.2byte	0x1b3
 6929 0cc3 AA090000 		.4byte	0x9aa
 6930 0cc7 08       		.byte	0x8
 6931 0cc8 18       		.uleb128 0x18
 6932 0cc9 93170000 		.4byte	.LASF199
 6933 0ccd 10       		.byte	0x10
 6934 0cce B901     		.2byte	0x1b9
 6935 0cd0 8F180000 		.4byte	0x188f
ARM GAS  C:\Users\PCHAUT~1\AppData\Local\Temp\ccJuO4y2.s 			page 123


 6936 0cd4 0C       		.byte	0xc
 6937 0cd5 00       		.byte	0
 6938 0cd6 03       		.uleb128 0x3
 6939 0cd7 F7000000 		.4byte	.LASF200
 6940 0cdb 0F       		.byte	0xf
 6941 0cdc 70       		.byte	0x70
 6942 0cdd E10C0000 		.4byte	0xce1
 6943 0ce1 17       		.uleb128 0x17
 6944 0ce2 78170000 		.4byte	.LASF201
 6945 0ce6 7006     		.2byte	0x670
 6946 0ce8 10       		.byte	0x10
 6947 0ce9 C201     		.2byte	0x1c2
 6948 0ceb 4E0D0000 		.4byte	0xd4e
 6949 0cef 18       		.uleb128 0x18
 6950 0cf0 35050000 		.4byte	.LASF202
 6951 0cf4 10       		.byte	0x10
 6952 0cf5 C601     		.2byte	0x1c6
 6953 0cf7 5E0B0000 		.4byte	0xb5e
 6954 0cfb 00       		.byte	0
 6955 0cfc 18       		.uleb128 0x18
 6956 0cfd E6040000 		.4byte	.LASF203
 6957 0d01 10       		.byte	0x10
 6958 0d02 CA01     		.2byte	0x1ca
 6959 0d04 3B0C0000 		.4byte	0xc3b
 6960 0d08 1C       		.byte	0x1c
 6961 0d09 21       		.uleb128 0x21
 6962 0d0a 64626700 		.ascii	"dbg\000"
 6963 0d0e 10       		.byte	0x10
 6964 0d0f CE01     		.2byte	0x1ce
 6965 0d11 880C0000 		.4byte	0xc88
 6966 0d15 2C       		.byte	0x2c
 6967 0d16 19       		.uleb128 0x19
 6968 0d17 8B180000 		.4byte	.LASF204
 6969 0d1b 10       		.byte	0x10
 6970 0d1c D201     		.2byte	0x1d2
 6971 0d1e D0090000 		.4byte	0x9d0
 6972 0d22 4004     		.2byte	0x440
 6973 0d24 22       		.uleb128 0x22
 6974 0d25 746D00   		.ascii	"tm\000"
 6975 0d28 10       		.byte	0x10
 6976 0d29 D701     		.2byte	0x1d7
 6977 0d2b AF180000 		.4byte	0x18af
 6978 0d2f A804     		.2byte	0x4a8
 6979 0d31 19       		.uleb128 0x19
 6980 0d32 001C0000 		.4byte	.LASF205
 6981 0d36 10       		.byte	0x10
 6982 0d37 DD01     		.2byte	0x1dd
 6983 0d39 41190000 		.4byte	0x1941
 6984 0d3d B004     		.2byte	0x4b0
 6985 0d3f 19       		.uleb128 0x19
 6986 0d40 96200000 		.4byte	.LASF206
 6987 0d44 10       		.byte	0x10
 6988 0d45 E301     		.2byte	0x1e3
 6989 0d47 291A0000 		.4byte	0x1a29
 6990 0d4b E804     		.2byte	0x4e8
 6991 0d4d 00       		.byte	0
 6992 0d4e 0A       		.uleb128 0xa
ARM GAS  C:\Users\PCHAUT~1\AppData\Local\Temp\ccJuO4y2.s 			page 124


 6993 0d4f 1C090000 		.4byte	0x91c
 6994 0d53 5E0D0000 		.4byte	0xd5e
 6995 0d57 0B       		.uleb128 0xb
 6996 0d58 37000000 		.4byte	0x37
 6997 0d5c 01       		.byte	0x1
 6998 0d5d 00       		.byte	0
 6999 0d5e 0A       		.uleb128 0xa
 7000 0d5f 1C090000 		.4byte	0x91c
 7001 0d63 6E0D0000 		.4byte	0xd6e
 7002 0d67 0B       		.uleb128 0xb
 7003 0d68 37000000 		.4byte	0x37
 7004 0d6c 07       		.byte	0x7
 7005 0d6d 00       		.byte	0
 7006 0d6e 20       		.uleb128 0x20
 7007 0d6f FB1F0000 		.4byte	.LASF207
 7008 0d73 11       		.byte	0x11
 7009 0d74 A706     		.2byte	0x6a7
 7010 0d76 17090000 		.4byte	0x917
 7011 0d7a 23       		.uleb128 0x23
 7012 0d7b D4160000 		.4byte	.LASF208
 7013 0d7f 12       		.byte	0x12
 7014 0d80 4C       		.byte	0x4c
 7015 0d81 1C090000 		.4byte	0x91c
 7016 0d85 0C       		.uleb128 0xc
 7017 0d86 50       		.byte	0x50
 7018 0d87 13       		.byte	0x13
 7019 0d88 C4       		.byte	0xc4
 7020 0d89 7C0E0000 		.4byte	0xe7c
 7021 0d8d 11       		.uleb128 0x11
 7022 0d8e 535200   		.ascii	"SR\000"
 7023 0d91 13       		.byte	0x13
 7024 0d92 C6       		.byte	0xc6
 7025 0d93 27090000 		.4byte	0x927
 7026 0d97 00       		.byte	0
 7027 0d98 11       		.uleb128 0x11
 7028 0d99 43523100 		.ascii	"CR1\000"
 7029 0d9d 13       		.byte	0x13
 7030 0d9e C7       		.byte	0xc7
 7031 0d9f 27090000 		.4byte	0x927
 7032 0da3 04       		.byte	0x4
 7033 0da4 11       		.uleb128 0x11
 7034 0da5 43523200 		.ascii	"CR2\000"
 7035 0da9 13       		.byte	0x13
 7036 0daa C8       		.byte	0xc8
 7037 0dab 27090000 		.4byte	0x927
 7038 0daf 08       		.byte	0x8
 7039 0db0 0D       		.uleb128 0xd
 7040 0db1 A8020000 		.4byte	.LASF209
 7041 0db5 13       		.byte	0x13
 7042 0db6 C9       		.byte	0xc9
 7043 0db7 27090000 		.4byte	0x927
 7044 0dbb 0C       		.byte	0xc
 7045 0dbc 0D       		.uleb128 0xd
 7046 0dbd AE020000 		.4byte	.LASF210
 7047 0dc1 13       		.byte	0x13
 7048 0dc2 CA       		.byte	0xca
 7049 0dc3 27090000 		.4byte	0x927
ARM GAS  C:\Users\PCHAUT~1\AppData\Local\Temp\ccJuO4y2.s 			page 125


 7050 0dc7 10       		.byte	0x10
 7051 0dc8 0D       		.uleb128 0xd
 7052 0dc9 640B0000 		.4byte	.LASF211
 7053 0dcd 13       		.byte	0x13
 7054 0dce CB       		.byte	0xcb
 7055 0dcf 27090000 		.4byte	0x927
 7056 0dd3 14       		.byte	0x14
 7057 0dd4 0D       		.uleb128 0xd
 7058 0dd5 6A0B0000 		.4byte	.LASF212
 7059 0dd9 13       		.byte	0x13
 7060 0dda CC       		.byte	0xcc
 7061 0ddb 27090000 		.4byte	0x927
 7062 0ddf 18       		.byte	0x18
 7063 0de0 0D       		.uleb128 0xd
 7064 0de1 79110000 		.4byte	.LASF213
 7065 0de5 13       		.byte	0x13
 7066 0de6 CD       		.byte	0xcd
 7067 0de7 27090000 		.4byte	0x927
 7068 0deb 1C       		.byte	0x1c
 7069 0dec 0D       		.uleb128 0xd
 7070 0ded 700B0000 		.4byte	.LASF214
 7071 0df1 13       		.byte	0x13
 7072 0df2 CE       		.byte	0xce
 7073 0df3 27090000 		.4byte	0x927
 7074 0df7 20       		.byte	0x20
 7075 0df8 11       		.uleb128 0x11
 7076 0df9 48545200 		.ascii	"HTR\000"
 7077 0dfd 13       		.byte	0x13
 7078 0dfe CF       		.byte	0xcf
 7079 0dff 27090000 		.4byte	0x927
 7080 0e03 24       		.byte	0x24
 7081 0e04 11       		.uleb128 0x11
 7082 0e05 4C545200 		.ascii	"LTR\000"
 7083 0e09 13       		.byte	0x13
 7084 0e0a D0       		.byte	0xd0
 7085 0e0b 27090000 		.4byte	0x927
 7086 0e0f 28       		.byte	0x28
 7087 0e10 0D       		.uleb128 0xd
 7088 0e11 74130000 		.4byte	.LASF215
 7089 0e15 13       		.byte	0x13
 7090 0e16 D1       		.byte	0xd1
 7091 0e17 27090000 		.4byte	0x927
 7092 0e1b 2C       		.byte	0x2c
 7093 0e1c 0D       		.uleb128 0xd
 7094 0e1d 79130000 		.4byte	.LASF216
 7095 0e21 13       		.byte	0x13
 7096 0e22 D2       		.byte	0xd2
 7097 0e23 27090000 		.4byte	0x927
 7098 0e27 30       		.byte	0x30
 7099 0e28 0D       		.uleb128 0xd
 7100 0e29 7E130000 		.4byte	.LASF217
 7101 0e2d 13       		.byte	0x13
 7102 0e2e D3       		.byte	0xd3
 7103 0e2f 27090000 		.4byte	0x927
 7104 0e33 34       		.byte	0x34
 7105 0e34 0D       		.uleb128 0xd
 7106 0e35 740D0000 		.4byte	.LASF218
ARM GAS  C:\Users\PCHAUT~1\AppData\Local\Temp\ccJuO4y2.s 			page 126


 7107 0e39 13       		.byte	0x13
 7108 0e3a D4       		.byte	0xd4
 7109 0e3b 27090000 		.4byte	0x927
 7110 0e3f 38       		.byte	0x38
 7111 0e40 0D       		.uleb128 0xd
 7112 0e41 CA210000 		.4byte	.LASF219
 7113 0e45 13       		.byte	0x13
 7114 0e46 D5       		.byte	0xd5
 7115 0e47 27090000 		.4byte	0x927
 7116 0e4b 3C       		.byte	0x3c
 7117 0e4c 0D       		.uleb128 0xd
 7118 0e4d CF210000 		.4byte	.LASF220
 7119 0e51 13       		.byte	0x13
 7120 0e52 D6       		.byte	0xd6
 7121 0e53 27090000 		.4byte	0x927
 7122 0e57 40       		.byte	0x40
 7123 0e58 0D       		.uleb128 0xd
 7124 0e59 D4210000 		.4byte	.LASF221
 7125 0e5d 13       		.byte	0x13
 7126 0e5e D7       		.byte	0xd7
 7127 0e5f 27090000 		.4byte	0x927
 7128 0e63 44       		.byte	0x44
 7129 0e64 0D       		.uleb128 0xd
 7130 0e65 D9210000 		.4byte	.LASF222
 7131 0e69 13       		.byte	0x13
 7132 0e6a D8       		.byte	0xd8
 7133 0e6b 27090000 		.4byte	0x927
 7134 0e6f 48       		.byte	0x48
 7135 0e70 11       		.uleb128 0x11
 7136 0e71 445200   		.ascii	"DR\000"
 7137 0e74 13       		.byte	0x13
 7138 0e75 D9       		.byte	0xd9
 7139 0e76 27090000 		.4byte	0x927
 7140 0e7a 4C       		.byte	0x4c
 7141 0e7b 00       		.byte	0
 7142 0e7c 03       		.uleb128 0x3
 7143 0e7d AA150000 		.4byte	.LASF223
 7144 0e81 13       		.byte	0x13
 7145 0e82 DA       		.byte	0xda
 7146 0e83 850D0000 		.4byte	0xd85
 7147 0e87 0C       		.uleb128 0xc
 7148 0e88 10       		.byte	0x10
 7149 0e89 13       		.byte	0x13
 7150 0e8a E9       		.byte	0xe9
 7151 0e8b C00E0000 		.4byte	0xec0
 7152 0e8f 11       		.uleb128 0x11
 7153 0e90 54495200 		.ascii	"TIR\000"
 7154 0e94 13       		.byte	0x13
 7155 0e95 EB       		.byte	0xeb
 7156 0e96 27090000 		.4byte	0x927
 7157 0e9a 00       		.byte	0
 7158 0e9b 0D       		.uleb128 0xd
 7159 0e9c 40110000 		.4byte	.LASF224
 7160 0ea0 13       		.byte	0x13
 7161 0ea1 EC       		.byte	0xec
 7162 0ea2 27090000 		.4byte	0x927
 7163 0ea6 04       		.byte	0x4
ARM GAS  C:\Users\PCHAUT~1\AppData\Local\Temp\ccJuO4y2.s 			page 127


 7164 0ea7 0D       		.uleb128 0xd
 7165 0ea8 7D180000 		.4byte	.LASF225
 7166 0eac 13       		.byte	0x13
 7167 0ead ED       		.byte	0xed
 7168 0eae 27090000 		.4byte	0x927
 7169 0eb2 08       		.byte	0x8
 7170 0eb3 0D       		.uleb128 0xd
 7171 0eb4 0C160000 		.4byte	.LASF226
 7172 0eb8 13       		.byte	0x13
 7173 0eb9 EE       		.byte	0xee
 7174 0eba 27090000 		.4byte	0x927
 7175 0ebe 0C       		.byte	0xc
 7176 0ebf 00       		.byte	0
 7177 0ec0 03       		.uleb128 0x3
 7178 0ec1 1F050000 		.4byte	.LASF227
 7179 0ec5 13       		.byte	0x13
 7180 0ec6 EF       		.byte	0xef
 7181 0ec7 870E0000 		.4byte	0xe87
 7182 0ecb 0C       		.uleb128 0xc
 7183 0ecc 10       		.byte	0x10
 7184 0ecd 13       		.byte	0x13
 7185 0ece F5       		.byte	0xf5
 7186 0ecf 040F0000 		.4byte	0xf04
 7187 0ed3 11       		.uleb128 0x11
 7188 0ed4 52495200 		.ascii	"RIR\000"
 7189 0ed8 13       		.byte	0x13
 7190 0ed9 F7       		.byte	0xf7
 7191 0eda 27090000 		.4byte	0x927
 7192 0ede 00       		.byte	0
 7193 0edf 0D       		.uleb128 0xd
 7194 0ee0 FA1D0000 		.4byte	.LASF228
 7195 0ee4 13       		.byte	0x13
 7196 0ee5 F8       		.byte	0xf8
 7197 0ee6 27090000 		.4byte	0x927
 7198 0eea 04       		.byte	0x4
 7199 0eeb 0D       		.uleb128 0xd
 7200 0eec AD190000 		.4byte	.LASF229
 7201 0ef0 13       		.byte	0x13
 7202 0ef1 F9       		.byte	0xf9
 7203 0ef2 27090000 		.4byte	0x927
 7204 0ef6 08       		.byte	0x8
 7205 0ef7 0D       		.uleb128 0xd
 7206 0ef8 65170000 		.4byte	.LASF230
 7207 0efc 13       		.byte	0x13
 7208 0efd FA       		.byte	0xfa
 7209 0efe 27090000 		.4byte	0x927
 7210 0f02 0C       		.byte	0xc
 7211 0f03 00       		.byte	0
 7212 0f04 03       		.uleb128 0x3
 7213 0f05 4A1D0000 		.4byte	.LASF231
 7214 0f09 13       		.byte	0x13
 7215 0f0a FB       		.byte	0xfb
 7216 0f0b CB0E0000 		.4byte	0xecb
 7217 0f0f 1C       		.uleb128 0x1c
 7218 0f10 08       		.byte	0x8
 7219 0f11 13       		.byte	0x13
 7220 0f12 0101     		.2byte	0x101
ARM GAS  C:\Users\PCHAUT~1\AppData\Local\Temp\ccJuO4y2.s 			page 128


 7221 0f14 330F0000 		.4byte	0xf33
 7222 0f18 21       		.uleb128 0x21
 7223 0f19 46523100 		.ascii	"FR1\000"
 7224 0f1d 13       		.byte	0x13
 7225 0f1e 0301     		.2byte	0x103
 7226 0f20 27090000 		.4byte	0x927
 7227 0f24 00       		.byte	0
 7228 0f25 21       		.uleb128 0x21
 7229 0f26 46523200 		.ascii	"FR2\000"
 7230 0f2a 13       		.byte	0x13
 7231 0f2b 0401     		.2byte	0x104
 7232 0f2d 27090000 		.4byte	0x927
 7233 0f31 04       		.byte	0x4
 7234 0f32 00       		.byte	0
 7235 0f33 07       		.uleb128 0x7
 7236 0f34 45110000 		.4byte	.LASF232
 7237 0f38 13       		.byte	0x13
 7238 0f39 0501     		.2byte	0x105
 7239 0f3b 0F0F0000 		.4byte	0xf0f
 7240 0f3f 24       		.uleb128 0x24
 7241 0f40 2003     		.2byte	0x320
 7242 0f42 13       		.byte	0x13
 7243 0f43 0B01     		.2byte	0x10b
 7244 0f45 75100000 		.4byte	0x1075
 7245 0f49 21       		.uleb128 0x21
 7246 0f4a 4D435200 		.ascii	"MCR\000"
 7247 0f4e 13       		.byte	0x13
 7248 0f4f 0D01     		.2byte	0x10d
 7249 0f51 27090000 		.4byte	0x927
 7250 0f55 00       		.byte	0
 7251 0f56 21       		.uleb128 0x21
 7252 0f57 4D535200 		.ascii	"MSR\000"
 7253 0f5b 13       		.byte	0x13
 7254 0f5c 0E01     		.2byte	0x10e
 7255 0f5e 27090000 		.4byte	0x927
 7256 0f62 04       		.byte	0x4
 7257 0f63 21       		.uleb128 0x21
 7258 0f64 54535200 		.ascii	"TSR\000"
 7259 0f68 13       		.byte	0x13
 7260 0f69 0F01     		.2byte	0x10f
 7261 0f6b 27090000 		.4byte	0x927
 7262 0f6f 08       		.byte	0x8
 7263 0f70 18       		.uleb128 0x18
 7264 0f71 970F0000 		.4byte	.LASF233
 7265 0f75 13       		.byte	0x13
 7266 0f76 1001     		.2byte	0x110
 7267 0f78 27090000 		.4byte	0x927
 7268 0f7c 0C       		.byte	0xc
 7269 0f7d 18       		.uleb128 0x18
 7270 0f7e E9190000 		.4byte	.LASF234
 7271 0f82 13       		.byte	0x13
 7272 0f83 1101     		.2byte	0x111
 7273 0f85 27090000 		.4byte	0x927
 7274 0f89 10       		.byte	0x10
 7275 0f8a 21       		.uleb128 0x21
 7276 0f8b 49455200 		.ascii	"IER\000"
 7277 0f8f 13       		.byte	0x13
ARM GAS  C:\Users\PCHAUT~1\AppData\Local\Temp\ccJuO4y2.s 			page 129


 7278 0f90 1201     		.2byte	0x112
 7279 0f92 27090000 		.4byte	0x927
 7280 0f96 14       		.byte	0x14
 7281 0f97 21       		.uleb128 0x21
 7282 0f98 45535200 		.ascii	"ESR\000"
 7283 0f9c 13       		.byte	0x13
 7284 0f9d 1301     		.2byte	0x113
 7285 0f9f 27090000 		.4byte	0x927
 7286 0fa3 18       		.byte	0x18
 7287 0fa4 21       		.uleb128 0x21
 7288 0fa5 42545200 		.ascii	"BTR\000"
 7289 0fa9 13       		.byte	0x13
 7290 0faa 1401     		.2byte	0x114
 7291 0fac 27090000 		.4byte	0x927
 7292 0fb0 1C       		.byte	0x1c
 7293 0fb1 18       		.uleb128 0x18
 7294 0fb2 1F1F0000 		.4byte	.LASF235
 7295 0fb6 13       		.byte	0x13
 7296 0fb7 1501     		.2byte	0x115
 7297 0fb9 75100000 		.4byte	0x1075
 7298 0fbd 20       		.byte	0x20
 7299 0fbe 19       		.uleb128 0x19
 7300 0fbf 4A120000 		.4byte	.LASF236
 7301 0fc3 13       		.byte	0x13
 7302 0fc4 1601     		.2byte	0x116
 7303 0fc6 85100000 		.4byte	0x1085
 7304 0fca 8001     		.2byte	0x180
 7305 0fcc 19       		.uleb128 0x19
 7306 0fcd 8C230000 		.4byte	.LASF237
 7307 0fd1 13       		.byte	0x13
 7308 0fd2 1701     		.2byte	0x117
 7309 0fd4 95100000 		.4byte	0x1095
 7310 0fd8 B001     		.2byte	0x1b0
 7311 0fda 19       		.uleb128 0x19
 7312 0fdb 291F0000 		.4byte	.LASF238
 7313 0fdf 13       		.byte	0x13
 7314 0fe0 1801     		.2byte	0x118
 7315 0fe2 A5100000 		.4byte	0x10a5
 7316 0fe6 D001     		.2byte	0x1d0
 7317 0fe8 22       		.uleb128 0x22
 7318 0fe9 464D5200 		.ascii	"FMR\000"
 7319 0fed 13       		.byte	0x13
 7320 0fee 1901     		.2byte	0x119
 7321 0ff0 27090000 		.4byte	0x927
 7322 0ff4 0002     		.2byte	0x200
 7323 0ff6 19       		.uleb128 0x19
 7324 0ff7 4B0C0000 		.4byte	.LASF239
 7325 0ffb 13       		.byte	0x13
 7326 0ffc 1A01     		.2byte	0x11a
 7327 0ffe 27090000 		.4byte	0x927
 7328 1002 0402     		.2byte	0x204
 7329 1004 19       		.uleb128 0x19
 7330 1005 331F0000 		.4byte	.LASF240
 7331 1009 13       		.byte	0x13
 7332 100a 1B01     		.2byte	0x11b
 7333 100c 1C090000 		.4byte	0x91c
 7334 1010 0802     		.2byte	0x208
ARM GAS  C:\Users\PCHAUT~1\AppData\Local\Temp\ccJuO4y2.s 			page 130


 7335 1012 19       		.uleb128 0x19
 7336 1013 22210000 		.4byte	.LASF241
 7337 1017 13       		.byte	0x13
 7338 1018 1C01     		.2byte	0x11c
 7339 101a 27090000 		.4byte	0x927
 7340 101e 0C02     		.2byte	0x20c
 7341 1020 19       		.uleb128 0x19
 7342 1021 3D1F0000 		.4byte	.LASF242
 7343 1025 13       		.byte	0x13
 7344 1026 1D01     		.2byte	0x11d
 7345 1028 1C090000 		.4byte	0x91c
 7346 102c 1002     		.2byte	0x210
 7347 102e 19       		.uleb128 0x19
 7348 102f E3190000 		.4byte	.LASF243
 7349 1033 13       		.byte	0x13
 7350 1034 1E01     		.2byte	0x11e
 7351 1036 27090000 		.4byte	0x927
 7352 103a 1402     		.2byte	0x214
 7353 103c 19       		.uleb128 0x19
 7354 103d 471F0000 		.4byte	.LASF244
 7355 1041 13       		.byte	0x13
 7356 1042 1F01     		.2byte	0x11f
 7357 1044 1C090000 		.4byte	0x91c
 7358 1048 1802     		.2byte	0x218
 7359 104a 19       		.uleb128 0x19
 7360 104b 03040000 		.4byte	.LASF245
 7361 104f 13       		.byte	0x13
 7362 1050 2001     		.2byte	0x120
 7363 1052 27090000 		.4byte	0x927
 7364 1056 1C02     		.2byte	0x21c
 7365 1058 19       		.uleb128 0x19
 7366 1059 511F0000 		.4byte	.LASF246
 7367 105d 13       		.byte	0x13
 7368 105e 2101     		.2byte	0x121
 7369 1060 5E0D0000 		.4byte	0xd5e
 7370 1064 2002     		.2byte	0x220
 7371 1066 19       		.uleb128 0x19
 7372 1067 DF050000 		.4byte	.LASF247
 7373 106b 13       		.byte	0x13
 7374 106c 2201     		.2byte	0x122
 7375 106e B5100000 		.4byte	0x10b5
 7376 1072 4002     		.2byte	0x240
 7377 1074 00       		.byte	0
 7378 1075 0A       		.uleb128 0xa
 7379 1076 1C090000 		.4byte	0x91c
 7380 107a 85100000 		.4byte	0x1085
 7381 107e 0B       		.uleb128 0xb
 7382 107f 37000000 		.4byte	0x37
 7383 1083 57       		.byte	0x57
 7384 1084 00       		.byte	0
 7385 1085 0A       		.uleb128 0xa
 7386 1086 C00E0000 		.4byte	0xec0
 7387 108a 95100000 		.4byte	0x1095
 7388 108e 0B       		.uleb128 0xb
 7389 108f 37000000 		.4byte	0x37
 7390 1093 02       		.byte	0x2
 7391 1094 00       		.byte	0
ARM GAS  C:\Users\PCHAUT~1\AppData\Local\Temp\ccJuO4y2.s 			page 131


 7392 1095 0A       		.uleb128 0xa
 7393 1096 040F0000 		.4byte	0xf04
 7394 109a A5100000 		.4byte	0x10a5
 7395 109e 0B       		.uleb128 0xb
 7396 109f 37000000 		.4byte	0x37
 7397 10a3 01       		.byte	0x1
 7398 10a4 00       		.byte	0
 7399 10a5 0A       		.uleb128 0xa
 7400 10a6 1C090000 		.4byte	0x91c
 7401 10aa B5100000 		.4byte	0x10b5
 7402 10ae 0B       		.uleb128 0xb
 7403 10af 37000000 		.4byte	0x37
 7404 10b3 0B       		.byte	0xb
 7405 10b4 00       		.byte	0
 7406 10b5 0A       		.uleb128 0xa
 7407 10b6 330F0000 		.4byte	0xf33
 7408 10ba C5100000 		.4byte	0x10c5
 7409 10be 0B       		.uleb128 0xb
 7410 10bf 37000000 		.4byte	0x37
 7411 10c3 1B       		.byte	0x1b
 7412 10c4 00       		.byte	0
 7413 10c5 07       		.uleb128 0x7
 7414 10c6 2A0E0000 		.4byte	.LASF248
 7415 10ca 13       		.byte	0x13
 7416 10cb 2301     		.2byte	0x123
 7417 10cd 3F0F0000 		.4byte	0xf3f
 7418 10d1 1C       		.uleb128 0x1c
 7419 10d2 38       		.byte	0x38
 7420 10d3 13       		.byte	0x13
 7421 10d4 3601     		.2byte	0x136
 7422 10d6 8F110000 		.4byte	0x118f
 7423 10da 21       		.uleb128 0x21
 7424 10db 435200   		.ascii	"CR\000"
 7425 10de 13       		.byte	0x13
 7426 10df 3801     		.2byte	0x138
 7427 10e1 27090000 		.4byte	0x927
 7428 10e5 00       		.byte	0
 7429 10e6 18       		.uleb128 0x18
 7430 10e7 32170000 		.4byte	.LASF249
 7431 10eb 13       		.byte	0x13
 7432 10ec 3901     		.2byte	0x139
 7433 10ee 27090000 		.4byte	0x927
 7434 10f2 04       		.byte	0x4
 7435 10f3 18       		.uleb128 0x18
 7436 10f4 771F0000 		.4byte	.LASF250
 7437 10f8 13       		.byte	0x13
 7438 10f9 3A01     		.2byte	0x13a
 7439 10fb 27090000 		.4byte	0x927
 7440 10ff 08       		.byte	0x8
 7441 1100 18       		.uleb128 0x18
 7442 1101 CE1B0000 		.4byte	.LASF251
 7443 1105 13       		.byte	0x13
 7444 1106 3B01     		.2byte	0x13b
 7445 1108 27090000 		.4byte	0x927
 7446 110c 0C       		.byte	0xc
 7447 110d 18       		.uleb128 0x18
 7448 110e 3A0B0000 		.4byte	.LASF252
ARM GAS  C:\Users\PCHAUT~1\AppData\Local\Temp\ccJuO4y2.s 			page 132


 7449 1112 13       		.byte	0x13
 7450 1113 3C01     		.2byte	0x13c
 7451 1115 27090000 		.4byte	0x927
 7452 1119 10       		.byte	0x10
 7453 111a 18       		.uleb128 0x18
 7454 111b 7F1F0000 		.4byte	.LASF253
 7455 111f 13       		.byte	0x13
 7456 1120 3D01     		.2byte	0x13d
 7457 1122 27090000 		.4byte	0x927
 7458 1126 14       		.byte	0x14
 7459 1127 18       		.uleb128 0x18
 7460 1128 D61B0000 		.4byte	.LASF254
 7461 112c 13       		.byte	0x13
 7462 112d 3E01     		.2byte	0x13e
 7463 112f 27090000 		.4byte	0x927
 7464 1133 18       		.byte	0x18
 7465 1134 18       		.uleb128 0x18
 7466 1135 410B0000 		.4byte	.LASF255
 7467 1139 13       		.byte	0x13
 7468 113a 3F01     		.2byte	0x13f
 7469 113c 27090000 		.4byte	0x927
 7470 1140 1C       		.byte	0x1c
 7471 1141 18       		.uleb128 0x18
 7472 1142 C61F0000 		.4byte	.LASF256
 7473 1146 13       		.byte	0x13
 7474 1147 4001     		.2byte	0x140
 7475 1149 27090000 		.4byte	0x927
 7476 114d 20       		.byte	0x20
 7477 114e 18       		.uleb128 0x18
 7478 114f F81B0000 		.4byte	.LASF257
 7479 1153 13       		.byte	0x13
 7480 1154 4101     		.2byte	0x141
 7481 1156 27090000 		.4byte	0x927
 7482 115a 24       		.byte	0x24
 7483 115b 18       		.uleb128 0x18
 7484 115c A3230000 		.4byte	.LASF258
 7485 1160 13       		.byte	0x13
 7486 1161 4201     		.2byte	0x142
 7487 1163 27090000 		.4byte	0x927
 7488 1167 28       		.byte	0x28
 7489 1168 18       		.uleb128 0x18
 7490 1169 7A010000 		.4byte	.LASF259
 7491 116d 13       		.byte	0x13
 7492 116e 4301     		.2byte	0x143
 7493 1170 27090000 		.4byte	0x927
 7494 1174 2C       		.byte	0x2c
 7495 1175 18       		.uleb128 0x18
 7496 1176 7F010000 		.4byte	.LASF260
 7497 117a 13       		.byte	0x13
 7498 117b 4401     		.2byte	0x144
 7499 117d 27090000 		.4byte	0x927
 7500 1181 30       		.byte	0x30
 7501 1182 21       		.uleb128 0x21
 7502 1183 535200   		.ascii	"SR\000"
 7503 1186 13       		.byte	0x13
 7504 1187 4501     		.2byte	0x145
 7505 1189 27090000 		.4byte	0x927
ARM GAS  C:\Users\PCHAUT~1\AppData\Local\Temp\ccJuO4y2.s 			page 133


 7506 118d 34       		.byte	0x34
 7507 118e 00       		.byte	0
 7508 118f 07       		.uleb128 0x7
 7509 1190 621D0000 		.4byte	.LASF261
 7510 1194 13       		.byte	0x13
 7511 1195 4601     		.2byte	0x146
 7512 1197 D1100000 		.4byte	0x10d1
 7513 119b 1C       		.uleb128 0x1c
 7514 119c 18       		.byte	0x18
 7515 119d 13       		.byte	0x13
 7516 119e 6B01     		.2byte	0x16b
 7517 11a0 F2110000 		.4byte	0x11f2
 7518 11a4 21       		.uleb128 0x21
 7519 11a5 435200   		.ascii	"CR\000"
 7520 11a8 13       		.byte	0x13
 7521 11a9 6D01     		.2byte	0x16d
 7522 11ab 27090000 		.4byte	0x927
 7523 11af 00       		.byte	0
 7524 11b0 18       		.uleb128 0x18
 7525 11b1 72200000 		.4byte	.LASF262
 7526 11b5 13       		.byte	0x13
 7527 11b6 6E01     		.2byte	0x16e
 7528 11b8 27090000 		.4byte	0x927
 7529 11bc 04       		.byte	0x4
 7530 11bd 21       		.uleb128 0x21
 7531 11be 50415200 		.ascii	"PAR\000"
 7532 11c2 13       		.byte	0x13
 7533 11c3 6F01     		.2byte	0x16f
 7534 11c5 27090000 		.4byte	0x927
 7535 11c9 08       		.byte	0x8
 7536 11ca 18       		.uleb128 0x18
 7537 11cb D4030000 		.4byte	.LASF263
 7538 11cf 13       		.byte	0x13
 7539 11d0 7001     		.2byte	0x170
 7540 11d2 27090000 		.4byte	0x927
 7541 11d6 0C       		.byte	0xc
 7542 11d7 18       		.uleb128 0x18
 7543 11d8 F4070000 		.4byte	.LASF264
 7544 11dc 13       		.byte	0x13
 7545 11dd 7101     		.2byte	0x171
 7546 11df 27090000 		.4byte	0x927
 7547 11e3 10       		.byte	0x10
 7548 11e4 21       		.uleb128 0x21
 7549 11e5 46435200 		.ascii	"FCR\000"
 7550 11e9 13       		.byte	0x13
 7551 11ea 7201     		.2byte	0x172
 7552 11ec 27090000 		.4byte	0x927
 7553 11f0 14       		.byte	0x14
 7554 11f1 00       		.byte	0
 7555 11f2 07       		.uleb128 0x7
 7556 11f3 FE070000 		.4byte	.LASF265
 7557 11f7 13       		.byte	0x13
 7558 11f8 7301     		.2byte	0x173
 7559 11fa 9B110000 		.4byte	0x119b
 7560 11fe 0A       		.uleb128 0xa
 7561 11ff 27090000 		.4byte	0x927
 7562 1203 0E120000 		.4byte	0x120e
ARM GAS  C:\Users\PCHAUT~1\AppData\Local\Temp\ccJuO4y2.s 			page 134


 7563 1207 0B       		.uleb128 0xb
 7564 1208 37000000 		.4byte	0x37
 7565 120c 01       		.byte	0x1
 7566 120d 00       		.byte	0
 7567 120e 1A       		.uleb128 0x1a
 7568 120f FE110000 		.4byte	0x11fe
 7569 1213 0A       		.uleb128 0xa
 7570 1214 27090000 		.4byte	0x927
 7571 1218 23120000 		.4byte	0x1223
 7572 121c 0B       		.uleb128 0xb
 7573 121d 37000000 		.4byte	0x37
 7574 1221 03       		.byte	0x3
 7575 1222 00       		.byte	0
 7576 1223 1A       		.uleb128 0x1a
 7577 1224 13120000 		.4byte	0x1213
 7578 1228 1C       		.uleb128 0x1c
 7579 1229 28       		.byte	0x28
 7580 122a 13       		.byte	0x13
 7581 122b 3F02     		.2byte	0x23f
 7582 122d B3120000 		.4byte	0x12b3
 7583 1231 21       		.uleb128 0x21
 7584 1232 43523100 		.ascii	"CR1\000"
 7585 1236 13       		.byte	0x13
 7586 1237 4102     		.2byte	0x241
 7587 1239 27090000 		.4byte	0x927
 7588 123d 00       		.byte	0
 7589 123e 21       		.uleb128 0x21
 7590 123f 43523200 		.ascii	"CR2\000"
 7591 1243 13       		.byte	0x13
 7592 1244 4202     		.2byte	0x242
 7593 1246 27090000 		.4byte	0x927
 7594 124a 04       		.byte	0x4
 7595 124b 18       		.uleb128 0x18
 7596 124c 4A260000 		.4byte	.LASF266
 7597 1250 13       		.byte	0x13
 7598 1251 4302     		.2byte	0x243
 7599 1253 27090000 		.4byte	0x927
 7600 1257 08       		.byte	0x8
 7601 1258 18       		.uleb128 0x18
 7602 1259 4F260000 		.4byte	.LASF267
 7603 125d 13       		.byte	0x13
 7604 125e 4402     		.2byte	0x244
 7605 1260 27090000 		.4byte	0x927
 7606 1264 0C       		.byte	0xc
 7607 1265 21       		.uleb128 0x21
 7608 1266 445200   		.ascii	"DR\000"
 7609 1269 13       		.byte	0x13
 7610 126a 4502     		.2byte	0x245
 7611 126c 27090000 		.4byte	0x927
 7612 1270 10       		.byte	0x10
 7613 1271 21       		.uleb128 0x21
 7614 1272 53523100 		.ascii	"SR1\000"
 7615 1276 13       		.byte	0x13
 7616 1277 4602     		.2byte	0x246
 7617 1279 27090000 		.4byte	0x927
 7618 127d 14       		.byte	0x14
 7619 127e 21       		.uleb128 0x21
ARM GAS  C:\Users\PCHAUT~1\AppData\Local\Temp\ccJuO4y2.s 			page 135


 7620 127f 53523200 		.ascii	"SR2\000"
 7621 1283 13       		.byte	0x13
 7622 1284 4702     		.2byte	0x247
 7623 1286 27090000 		.4byte	0x927
 7624 128a 18       		.byte	0x18
 7625 128b 21       		.uleb128 0x21
 7626 128c 43435200 		.ascii	"CCR\000"
 7627 1290 13       		.byte	0x13
 7628 1291 4802     		.2byte	0x248
 7629 1293 27090000 		.4byte	0x927
 7630 1297 1C       		.byte	0x1c
 7631 1298 18       		.uleb128 0x18
 7632 1299 ED040000 		.4byte	.LASF268
 7633 129d 13       		.byte	0x13
 7634 129e 4902     		.2byte	0x249
 7635 12a0 27090000 		.4byte	0x927
 7636 12a4 20       		.byte	0x20
 7637 12a5 18       		.uleb128 0x18
 7638 12a6 D3240000 		.4byte	.LASF269
 7639 12aa 13       		.byte	0x13
 7640 12ab 4A02     		.2byte	0x24a
 7641 12ad 27090000 		.4byte	0x927
 7642 12b1 24       		.byte	0x24
 7643 12b2 00       		.byte	0
 7644 12b3 07       		.uleb128 0x7
 7645 12b4 F2120000 		.4byte	.LASF270
 7646 12b8 13       		.byte	0x13
 7647 12b9 4B02     		.2byte	0x24b
 7648 12bb 28120000 		.4byte	0x1228
 7649 12bf 1C       		.uleb128 0x1c
 7650 12c0 88       		.byte	0x88
 7651 12c1 13       		.byte	0x13
 7652 12c2 6702     		.2byte	0x267
 7653 12c4 4E140000 		.4byte	0x144e
 7654 12c8 21       		.uleb128 0x21
 7655 12c9 435200   		.ascii	"CR\000"
 7656 12cc 13       		.byte	0x13
 7657 12cd 6902     		.2byte	0x269
 7658 12cf 27090000 		.4byte	0x927
 7659 12d3 00       		.byte	0
 7660 12d4 18       		.uleb128 0x18
 7661 12d5 1B1D0000 		.4byte	.LASF271
 7662 12d9 13       		.byte	0x13
 7663 12da 6A02     		.2byte	0x26a
 7664 12dc 27090000 		.4byte	0x927
 7665 12e0 04       		.byte	0x4
 7666 12e1 18       		.uleb128 0x18
 7667 12e2 20150000 		.4byte	.LASF272
 7668 12e6 13       		.byte	0x13
 7669 12e7 6B02     		.2byte	0x26b
 7670 12e9 27090000 		.4byte	0x927
 7671 12ed 08       		.byte	0x8
 7672 12ee 21       		.uleb128 0x21
 7673 12ef 43495200 		.ascii	"CIR\000"
 7674 12f3 13       		.byte	0x13
 7675 12f4 6C02     		.2byte	0x26c
 7676 12f6 27090000 		.4byte	0x927
ARM GAS  C:\Users\PCHAUT~1\AppData\Local\Temp\ccJuO4y2.s 			page 136


 7677 12fa 0C       		.byte	0xc
 7678 12fb 18       		.uleb128 0x18
 7679 12fc F5250000 		.4byte	.LASF273
 7680 1300 13       		.byte	0x13
 7681 1301 6D02     		.2byte	0x26d
 7682 1303 27090000 		.4byte	0x927
 7683 1307 10       		.byte	0x10
 7684 1308 18       		.uleb128 0x18
 7685 1309 FA0C0000 		.4byte	.LASF274
 7686 130d 13       		.byte	0x13
 7687 130e 6E02     		.2byte	0x26e
 7688 1310 27090000 		.4byte	0x927
 7689 1314 14       		.byte	0x14
 7690 1315 18       		.uleb128 0x18
 7691 1316 D1180000 		.4byte	.LASF275
 7692 131a 13       		.byte	0x13
 7693 131b 6F02     		.2byte	0x26f
 7694 131d 27090000 		.4byte	0x927
 7695 1321 18       		.byte	0x18
 7696 1322 18       		.uleb128 0x18
 7697 1323 1F1F0000 		.4byte	.LASF235
 7698 1327 13       		.byte	0x13
 7699 1328 7002     		.2byte	0x270
 7700 132a 1C090000 		.4byte	0x91c
 7701 132e 1C       		.byte	0x1c
 7702 132f 18       		.uleb128 0x18
 7703 1330 35040000 		.4byte	.LASF276
 7704 1334 13       		.byte	0x13
 7705 1335 7102     		.2byte	0x271
 7706 1337 27090000 		.4byte	0x927
 7707 133b 20       		.byte	0x20
 7708 133c 18       		.uleb128 0x18
 7709 133d 78120000 		.4byte	.LASF277
 7710 1341 13       		.byte	0x13
 7711 1342 7202     		.2byte	0x272
 7712 1344 27090000 		.4byte	0x927
 7713 1348 24       		.byte	0x24
 7714 1349 18       		.uleb128 0x18
 7715 134a 291F0000 		.4byte	.LASF238
 7716 134e 13       		.byte	0x13
 7717 134f 7302     		.2byte	0x273
 7718 1351 4E0D0000 		.4byte	0xd4e
 7719 1355 28       		.byte	0x28
 7720 1356 18       		.uleb128 0x18
 7721 1357 7D140000 		.4byte	.LASF278
 7722 135b 13       		.byte	0x13
 7723 135c 7402     		.2byte	0x274
 7724 135e 27090000 		.4byte	0x927
 7725 1362 30       		.byte	0x30
 7726 1363 18       		.uleb128 0x18
 7727 1364 ED250000 		.4byte	.LASF279
 7728 1368 13       		.byte	0x13
 7729 1369 7502     		.2byte	0x275
 7730 136b 27090000 		.4byte	0x927
 7731 136f 34       		.byte	0x34
 7732 1370 18       		.uleb128 0x18
 7733 1371 61130000 		.4byte	.LASF280
ARM GAS  C:\Users\PCHAUT~1\AppData\Local\Temp\ccJuO4y2.s 			page 137


 7734 1375 13       		.byte	0x13
 7735 1376 7602     		.2byte	0x276
 7736 1378 27090000 		.4byte	0x927
 7737 137c 38       		.byte	0x38
 7738 137d 18       		.uleb128 0x18
 7739 137e 331F0000 		.4byte	.LASF240
 7740 1382 13       		.byte	0x13
 7741 1383 7702     		.2byte	0x277
 7742 1385 1C090000 		.4byte	0x91c
 7743 1389 3C       		.byte	0x3c
 7744 138a 18       		.uleb128 0x18
 7745 138b 791B0000 		.4byte	.LASF281
 7746 138f 13       		.byte	0x13
 7747 1390 7802     		.2byte	0x278
 7748 1392 27090000 		.4byte	0x927
 7749 1396 40       		.byte	0x40
 7750 1397 18       		.uleb128 0x18
 7751 1398 97060000 		.4byte	.LASF282
 7752 139c 13       		.byte	0x13
 7753 139d 7902     		.2byte	0x279
 7754 139f 27090000 		.4byte	0x927
 7755 13a3 44       		.byte	0x44
 7756 13a4 18       		.uleb128 0x18
 7757 13a5 3D1F0000 		.4byte	.LASF242
 7758 13a9 13       		.byte	0x13
 7759 13aa 7A02     		.2byte	0x27a
 7760 13ac 4E0D0000 		.4byte	0xd4e
 7761 13b0 48       		.byte	0x48
 7762 13b1 18       		.uleb128 0x18
 7763 13b2 43200000 		.4byte	.LASF283
 7764 13b6 13       		.byte	0x13
 7765 13b7 7B02     		.2byte	0x27b
 7766 13b9 27090000 		.4byte	0x927
 7767 13bd 50       		.byte	0x50
 7768 13be 18       		.uleb128 0x18
 7769 13bf 4D0B0000 		.4byte	.LASF284
 7770 13c3 13       		.byte	0x13
 7771 13c4 7C02     		.2byte	0x27c
 7772 13c6 27090000 		.4byte	0x927
 7773 13ca 54       		.byte	0x54
 7774 13cb 18       		.uleb128 0x18
 7775 13cc F20A0000 		.4byte	.LASF285
 7776 13d0 13       		.byte	0x13
 7777 13d1 7D02     		.2byte	0x27d
 7778 13d3 27090000 		.4byte	0x927
 7779 13d7 58       		.byte	0x58
 7780 13d8 18       		.uleb128 0x18
 7781 13d9 471F0000 		.4byte	.LASF244
 7782 13dd 13       		.byte	0x13
 7783 13de 7E02     		.2byte	0x27e
 7784 13e0 1C090000 		.4byte	0x91c
 7785 13e4 5C       		.byte	0x5c
 7786 13e5 18       		.uleb128 0x18
 7787 13e6 D1120000 		.4byte	.LASF286
 7788 13ea 13       		.byte	0x13
 7789 13eb 7F02     		.2byte	0x27f
 7790 13ed 27090000 		.4byte	0x927
ARM GAS  C:\Users\PCHAUT~1\AppData\Local\Temp\ccJuO4y2.s 			page 138


 7791 13f1 60       		.byte	0x60
 7792 13f2 18       		.uleb128 0x18
 7793 13f3 E7210000 		.4byte	.LASF287
 7794 13f7 13       		.byte	0x13
 7795 13f8 8002     		.2byte	0x280
 7796 13fa 27090000 		.4byte	0x927
 7797 13fe 64       		.byte	0x64
 7798 13ff 18       		.uleb128 0x18
 7799 1400 511F0000 		.4byte	.LASF246
 7800 1404 13       		.byte	0x13
 7801 1405 8102     		.2byte	0x281
 7802 1407 4E0D0000 		.4byte	0xd4e
 7803 140b 68       		.byte	0x68
 7804 140c 18       		.uleb128 0x18
 7805 140d 1E1E0000 		.4byte	.LASF288
 7806 1411 13       		.byte	0x13
 7807 1412 8202     		.2byte	0x282
 7808 1414 27090000 		.4byte	0x927
 7809 1418 70       		.byte	0x70
 7810 1419 21       		.uleb128 0x21
 7811 141a 43535200 		.ascii	"CSR\000"
 7812 141e 13       		.byte	0x13
 7813 141f 8302     		.2byte	0x283
 7814 1421 27090000 		.4byte	0x927
 7815 1425 74       		.byte	0x74
 7816 1426 18       		.uleb128 0x18
 7817 1427 5B1F0000 		.4byte	.LASF289
 7818 142b 13       		.byte	0x13
 7819 142c 8402     		.2byte	0x284
 7820 142e 4E0D0000 		.4byte	0xd4e
 7821 1432 78       		.byte	0x78
 7822 1433 18       		.uleb128 0x18
 7823 1434 41160000 		.4byte	.LASF290
 7824 1438 13       		.byte	0x13
 7825 1439 8502     		.2byte	0x285
 7826 143b 27090000 		.4byte	0x927
 7827 143f 80       		.byte	0x80
 7828 1440 18       		.uleb128 0x18
 7829 1441 88170000 		.4byte	.LASF291
 7830 1445 13       		.byte	0x13
 7831 1446 8602     		.2byte	0x286
 7832 1448 27090000 		.4byte	0x927
 7833 144c 84       		.byte	0x84
 7834 144d 00       		.byte	0
 7835 144e 07       		.uleb128 0x7
 7836 144f 8E010000 		.4byte	.LASF292
 7837 1453 13       		.byte	0x13
 7838 1454 8802     		.2byte	0x288
 7839 1456 BF120000 		.4byte	0x12bf
 7840 145a 1C       		.uleb128 0x1c
 7841 145b 84       		.byte	0x84
 7842 145c 13       		.byte	0x13
 7843 145d BF02     		.2byte	0x2bf
 7844 145f 68150000 		.4byte	0x1568
 7845 1463 18       		.uleb128 0x18
 7846 1464 82170000 		.4byte	.LASF293
 7847 1468 13       		.byte	0x13
ARM GAS  C:\Users\PCHAUT~1\AppData\Local\Temp\ccJuO4y2.s 			page 139


 7848 1469 C102     		.2byte	0x2c1
 7849 146b 27090000 		.4byte	0x927
 7850 146f 00       		.byte	0
 7851 1470 18       		.uleb128 0x18
 7852 1471 9B210000 		.4byte	.LASF294
 7853 1475 13       		.byte	0x13
 7854 1476 C202     		.2byte	0x2c2
 7855 1478 27090000 		.4byte	0x927
 7856 147c 04       		.byte	0x4
 7857 147d 21       		.uleb128 0x21
 7858 147e 41524700 		.ascii	"ARG\000"
 7859 1482 13       		.byte	0x13
 7860 1483 C302     		.2byte	0x2c3
 7861 1485 27090000 		.4byte	0x927
 7862 1489 08       		.byte	0x8
 7863 148a 21       		.uleb128 0x21
 7864 148b 434D4400 		.ascii	"CMD\000"
 7865 148f 13       		.byte	0x13
 7866 1490 C402     		.2byte	0x2c4
 7867 1492 27090000 		.4byte	0x927
 7868 1496 0C       		.byte	0xc
 7869 1497 18       		.uleb128 0x18
 7870 1498 8A1A0000 		.4byte	.LASF295
 7871 149c 13       		.byte	0x13
 7872 149d C502     		.2byte	0x2c5
 7873 149f 2C090000 		.4byte	0x92c
 7874 14a3 10       		.byte	0x10
 7875 14a4 18       		.uleb128 0x18
 7876 14a5 03060000 		.4byte	.LASF296
 7877 14a9 13       		.byte	0x13
 7878 14aa C602     		.2byte	0x2c6
 7879 14ac 2C090000 		.4byte	0x92c
 7880 14b0 14       		.byte	0x14
 7881 14b1 18       		.uleb128 0x18
 7882 14b2 09060000 		.4byte	.LASF297
 7883 14b6 13       		.byte	0x13
 7884 14b7 C702     		.2byte	0x2c7
 7885 14b9 2C090000 		.4byte	0x92c
 7886 14bd 18       		.byte	0x18
 7887 14be 18       		.uleb128 0x18
 7888 14bf 0F060000 		.4byte	.LASF298
 7889 14c3 13       		.byte	0x13
 7890 14c4 C802     		.2byte	0x2c8
 7891 14c6 2C090000 		.4byte	0x92c
 7892 14ca 1C       		.byte	0x1c
 7893 14cb 18       		.uleb128 0x18
 7894 14cc 15060000 		.4byte	.LASF299
 7895 14d0 13       		.byte	0x13
 7896 14d1 C902     		.2byte	0x2c9
 7897 14d3 2C090000 		.4byte	0x92c
 7898 14d7 20       		.byte	0x20
 7899 14d8 18       		.uleb128 0x18
 7900 14d9 5C140000 		.4byte	.LASF300
 7901 14dd 13       		.byte	0x13
 7902 14de CA02     		.2byte	0x2ca
 7903 14e0 27090000 		.4byte	0x927
 7904 14e4 24       		.byte	0x24
ARM GAS  C:\Users\PCHAUT~1\AppData\Local\Temp\ccJuO4y2.s 			page 140


 7905 14e5 18       		.uleb128 0x18
 7906 14e6 3C160000 		.4byte	.LASF301
 7907 14ea 13       		.byte	0x13
 7908 14eb CB02     		.2byte	0x2cb
 7909 14ed 27090000 		.4byte	0x927
 7910 14f1 28       		.byte	0x28
 7911 14f2 18       		.uleb128 0x18
 7912 14f3 BF240000 		.4byte	.LASF302
 7913 14f7 13       		.byte	0x13
 7914 14f8 CC02     		.2byte	0x2cc
 7915 14fa 27090000 		.4byte	0x927
 7916 14fe 2C       		.byte	0x2c
 7917 14ff 18       		.uleb128 0x18
 7918 1500 43260000 		.4byte	.LASF303
 7919 1504 13       		.byte	0x13
 7920 1505 CD02     		.2byte	0x2cd
 7921 1507 2C090000 		.4byte	0x92c
 7922 150b 30       		.byte	0x30
 7923 150c 21       		.uleb128 0x21
 7924 150d 53544100 		.ascii	"STA\000"
 7925 1511 13       		.byte	0x13
 7926 1512 CE02     		.2byte	0x2ce
 7927 1514 2C090000 		.4byte	0x92c
 7928 1518 34       		.byte	0x34
 7929 1519 21       		.uleb128 0x21
 7930 151a 49435200 		.ascii	"ICR\000"
 7931 151e 13       		.byte	0x13
 7932 151f CF02     		.2byte	0x2cf
 7933 1521 27090000 		.4byte	0x927
 7934 1525 38       		.byte	0x38
 7935 1526 18       		.uleb128 0x18
 7936 1527 C4010000 		.4byte	.LASF304
 7937 152b 13       		.byte	0x13
 7938 152c D002     		.2byte	0x2d0
 7939 152e 27090000 		.4byte	0x927
 7940 1532 3C       		.byte	0x3c
 7941 1533 18       		.uleb128 0x18
 7942 1534 1F1F0000 		.4byte	.LASF235
 7943 1538 13       		.byte	0x13
 7944 1539 D102     		.2byte	0x2d1
 7945 153b 4E0D0000 		.4byte	0xd4e
 7946 153f 40       		.byte	0x40
 7947 1540 18       		.uleb128 0x18
 7948 1541 2D150000 		.4byte	.LASF305
 7949 1545 13       		.byte	0x13
 7950 1546 D202     		.2byte	0x2d2
 7951 1548 2C090000 		.4byte	0x92c
 7952 154c 48       		.byte	0x48
 7953 154d 18       		.uleb128 0x18
 7954 154e 291F0000 		.4byte	.LASF238
 7955 1552 13       		.byte	0x13
 7956 1553 D302     		.2byte	0x2d3
 7957 1555 68150000 		.4byte	0x1568
 7958 1559 4C       		.byte	0x4c
 7959 155a 18       		.uleb128 0x18
 7960 155b 830A0000 		.4byte	.LASF306
 7961 155f 13       		.byte	0x13
ARM GAS  C:\Users\PCHAUT~1\AppData\Local\Temp\ccJuO4y2.s 			page 141


 7962 1560 D402     		.2byte	0x2d4
 7963 1562 27090000 		.4byte	0x927
 7964 1566 80       		.byte	0x80
 7965 1567 00       		.byte	0
 7966 1568 0A       		.uleb128 0xa
 7967 1569 1C090000 		.4byte	0x91c
 7968 156d 78150000 		.4byte	0x1578
 7969 1571 0B       		.uleb128 0xb
 7970 1572 37000000 		.4byte	0x37
 7971 1576 0C       		.byte	0xc
 7972 1577 00       		.byte	0
 7973 1578 07       		.uleb128 0x7
 7974 1579 2F200000 		.4byte	.LASF307
 7975 157d 13       		.byte	0x13
 7976 157e D502     		.2byte	0x2d5
 7977 1580 5A140000 		.4byte	0x145a
 7978 1584 1C       		.uleb128 0x1c
 7979 1585 24       		.byte	0x24
 7980 1586 13       		.byte	0x13
 7981 1587 DB02     		.2byte	0x2db
 7982 1589 01160000 		.4byte	0x1601
 7983 158d 21       		.uleb128 0x21
 7984 158e 43523100 		.ascii	"CR1\000"
 7985 1592 13       		.byte	0x13
 7986 1593 DD02     		.2byte	0x2dd
 7987 1595 27090000 		.4byte	0x927
 7988 1599 00       		.byte	0
 7989 159a 21       		.uleb128 0x21
 7990 159b 43523200 		.ascii	"CR2\000"
 7991 159f 13       		.byte	0x13
 7992 15a0 DE02     		.2byte	0x2de
 7993 15a2 27090000 		.4byte	0x927
 7994 15a6 04       		.byte	0x4
 7995 15a7 21       		.uleb128 0x21
 7996 15a8 535200   		.ascii	"SR\000"
 7997 15ab 13       		.byte	0x13
 7998 15ac DF02     		.2byte	0x2df
 7999 15ae 27090000 		.4byte	0x927
 8000 15b2 08       		.byte	0x8
 8001 15b3 21       		.uleb128 0x21
 8002 15b4 445200   		.ascii	"DR\000"
 8003 15b7 13       		.byte	0x13
 8004 15b8 E002     		.2byte	0x2e0
 8005 15ba 27090000 		.4byte	0x927
 8006 15be 0C       		.byte	0xc
 8007 15bf 18       		.uleb128 0x18
 8008 15c0 60070000 		.4byte	.LASF308
 8009 15c4 13       		.byte	0x13
 8010 15c5 E102     		.2byte	0x2e1
 8011 15c7 27090000 		.4byte	0x927
 8012 15cb 10       		.byte	0x10
 8013 15cc 18       		.uleb128 0x18
 8014 15cd CB0C0000 		.4byte	.LASF309
 8015 15d1 13       		.byte	0x13
 8016 15d2 E202     		.2byte	0x2e2
 8017 15d4 27090000 		.4byte	0x927
 8018 15d8 14       		.byte	0x14
ARM GAS  C:\Users\PCHAUT~1\AppData\Local\Temp\ccJuO4y2.s 			page 142


 8019 15d9 18       		.uleb128 0x18
 8020 15da 7D0B0000 		.4byte	.LASF310
 8021 15de 13       		.byte	0x13
 8022 15df E302     		.2byte	0x2e3
 8023 15e1 27090000 		.4byte	0x927
 8024 15e5 18       		.byte	0x18
 8025 15e6 18       		.uleb128 0x18
 8026 15e7 9D220000 		.4byte	.LASF311
 8027 15eb 13       		.byte	0x13
 8028 15ec E402     		.2byte	0x2e4
 8029 15ee 27090000 		.4byte	0x927
 8030 15f2 1C       		.byte	0x1c
 8031 15f3 18       		.uleb128 0x18
 8032 15f4 23070000 		.4byte	.LASF312
 8033 15f8 13       		.byte	0x13
 8034 15f9 E502     		.2byte	0x2e5
 8035 15fb 27090000 		.4byte	0x927
 8036 15ff 20       		.byte	0x20
 8037 1600 00       		.byte	0
 8038 1601 07       		.uleb128 0x7
 8039 1602 AD200000 		.4byte	.LASF313
 8040 1606 13       		.byte	0x13
 8041 1607 E602     		.2byte	0x2e6
 8042 1609 84150000 		.4byte	0x1584
 8043 160d 1C       		.uleb128 0x1c
 8044 160e 1C       		.byte	0x1c
 8045 160f 13       		.byte	0x13
 8046 1610 0903     		.2byte	0x309
 8047 1612 70160000 		.4byte	0x1670
 8048 1616 21       		.uleb128 0x21
 8049 1617 535200   		.ascii	"SR\000"
 8050 161a 13       		.byte	0x13
 8051 161b 0B03     		.2byte	0x30b
 8052 161d 27090000 		.4byte	0x927
 8053 1621 00       		.byte	0
 8054 1622 21       		.uleb128 0x21
 8055 1623 445200   		.ascii	"DR\000"
 8056 1626 13       		.byte	0x13
 8057 1627 0C03     		.2byte	0x30c
 8058 1629 27090000 		.4byte	0x927
 8059 162d 04       		.byte	0x4
 8060 162e 21       		.uleb128 0x21
 8061 162f 42525200 		.ascii	"BRR\000"
 8062 1633 13       		.byte	0x13
 8063 1634 0D03     		.2byte	0x30d
 8064 1636 27090000 		.4byte	0x927
 8065 163a 08       		.byte	0x8
 8066 163b 21       		.uleb128 0x21
 8067 163c 43523100 		.ascii	"CR1\000"
 8068 1640 13       		.byte	0x13
 8069 1641 0E03     		.2byte	0x30e
 8070 1643 27090000 		.4byte	0x927
 8071 1647 0C       		.byte	0xc
 8072 1648 21       		.uleb128 0x21
 8073 1649 43523200 		.ascii	"CR2\000"
 8074 164d 13       		.byte	0x13
 8075 164e 0F03     		.2byte	0x30f
ARM GAS  C:\Users\PCHAUT~1\AppData\Local\Temp\ccJuO4y2.s 			page 143


 8076 1650 27090000 		.4byte	0x927
 8077 1654 10       		.byte	0x10
 8078 1655 21       		.uleb128 0x21
 8079 1656 43523300 		.ascii	"CR3\000"
 8080 165a 13       		.byte	0x13
 8081 165b 1003     		.2byte	0x310
 8082 165d 27090000 		.4byte	0x927
 8083 1661 14       		.byte	0x14
 8084 1662 18       		.uleb128 0x18
 8085 1663 C60F0000 		.4byte	.LASF314
 8086 1667 13       		.byte	0x13
 8087 1668 1103     		.2byte	0x311
 8088 166a 27090000 		.4byte	0x927
 8089 166e 18       		.byte	0x18
 8090 166f 00       		.byte	0
 8091 1670 07       		.uleb128 0x7
 8092 1671 83250000 		.4byte	.LASF315
 8093 1675 13       		.byte	0x13
 8094 1676 1203     		.2byte	0x312
 8095 1678 0D160000 		.4byte	0x160d
 8096 167c 0A       		.uleb128 0xa
 8097 167d 27090000 		.4byte	0x927
 8098 1681 8C160000 		.4byte	0x168c
 8099 1685 0B       		.uleb128 0xb
 8100 1686 37000000 		.4byte	0x37
 8101 168a 0E       		.byte	0xe
 8102 168b 00       		.byte	0
 8103 168c 1A       		.uleb128 0x1a
 8104 168d 7C160000 		.4byte	0x167c
 8105 1691 03       		.uleb128 0x3
 8106 1692 C8190000 		.4byte	.LASF316
 8107 1696 14       		.byte	0x14
 8108 1697 65       		.byte	0x65
 8109 1698 5D010000 		.4byte	0x15d
 8110 169c 03       		.uleb128 0x3
 8111 169d 210A0000 		.4byte	.LASF317
 8112 16a1 14       		.byte	0x14
 8113 16a2 6D       		.byte	0x6d
 8114 16a3 31090000 		.4byte	0x931
 8115 16a7 10       		.uleb128 0x10
 8116 16a8 51130000 		.4byte	.LASF318
 8117 16ac 04       		.byte	0x4
 8118 16ad 14       		.byte	0x14
 8119 16ae 89       		.byte	0x89
 8120 16af C0160000 		.4byte	0x16c0
 8121 16b3 11       		.uleb128 0x11
 8122 16b4 72313300 		.ascii	"r13\000"
 8123 16b8 14       		.byte	0x14
 8124 16b9 8A       		.byte	0x8a
 8125 16ba 01180000 		.4byte	0x1801
 8126 16be 00       		.byte	0
 8127 16bf 00       		.byte	0
 8128 16c0 10       		.uleb128 0x10
 8129 16c1 09000000 		.4byte	.LASF319
 8130 16c5 64       		.byte	0x64
 8131 16c6 01       		.byte	0x1
 8132 16c7 F4       		.byte	0xf4
ARM GAS  C:\Users\PCHAUT~1\AppData\Local\Temp\ccJuO4y2.s 			page 144


 8133 16c8 01180000 		.4byte	0x1801
 8134 16cc 11       		.uleb128 0x11
 8135 16cd 73313600 		.ascii	"s16\000"
 8136 16d1 01       		.byte	0x1
 8137 16d2 F6       		.byte	0xf6
 8138 16d3 91160000 		.4byte	0x1691
 8139 16d7 00       		.byte	0
 8140 16d8 11       		.uleb128 0x11
 8141 16d9 73313700 		.ascii	"s17\000"
 8142 16dd 01       		.byte	0x1
 8143 16de F7       		.byte	0xf7
 8144 16df 91160000 		.4byte	0x1691
 8145 16e3 04       		.byte	0x4
 8146 16e4 11       		.uleb128 0x11
 8147 16e5 73313800 		.ascii	"s18\000"
 8148 16e9 01       		.byte	0x1
 8149 16ea F8       		.byte	0xf8
 8150 16eb 91160000 		.4byte	0x1691
 8151 16ef 08       		.byte	0x8
 8152 16f0 11       		.uleb128 0x11
 8153 16f1 73313900 		.ascii	"s19\000"
 8154 16f5 01       		.byte	0x1
 8155 16f6 F9       		.byte	0xf9
 8156 16f7 91160000 		.4byte	0x1691
 8157 16fb 0C       		.byte	0xc
 8158 16fc 11       		.uleb128 0x11
 8159 16fd 73323000 		.ascii	"s20\000"
 8160 1701 01       		.byte	0x1
 8161 1702 FA       		.byte	0xfa
 8162 1703 91160000 		.4byte	0x1691
 8163 1707 10       		.byte	0x10
 8164 1708 11       		.uleb128 0x11
 8165 1709 73323100 		.ascii	"s21\000"
 8166 170d 01       		.byte	0x1
 8167 170e FB       		.byte	0xfb
 8168 170f 91160000 		.4byte	0x1691
 8169 1713 14       		.byte	0x14
 8170 1714 11       		.uleb128 0x11
 8171 1715 73323200 		.ascii	"s22\000"
 8172 1719 01       		.byte	0x1
 8173 171a FC       		.byte	0xfc
 8174 171b 91160000 		.4byte	0x1691
 8175 171f 18       		.byte	0x18
 8176 1720 11       		.uleb128 0x11
 8177 1721 73323300 		.ascii	"s23\000"
 8178 1725 01       		.byte	0x1
 8179 1726 FD       		.byte	0xfd
 8180 1727 91160000 		.4byte	0x1691
 8181 172b 1C       		.byte	0x1c
 8182 172c 11       		.uleb128 0x11
 8183 172d 73323400 		.ascii	"s24\000"
 8184 1731 01       		.byte	0x1
 8185 1732 FE       		.byte	0xfe
 8186 1733 91160000 		.4byte	0x1691
 8187 1737 20       		.byte	0x20
 8188 1738 11       		.uleb128 0x11
 8189 1739 73323500 		.ascii	"s25\000"
ARM GAS  C:\Users\PCHAUT~1\AppData\Local\Temp\ccJuO4y2.s 			page 145


 8190 173d 01       		.byte	0x1
 8191 173e FF       		.byte	0xff
 8192 173f 91160000 		.4byte	0x1691
 8193 1743 24       		.byte	0x24
 8194 1744 21       		.uleb128 0x21
 8195 1745 73323600 		.ascii	"s26\000"
 8196 1749 01       		.byte	0x1
 8197 174a 0001     		.2byte	0x100
 8198 174c 91160000 		.4byte	0x1691
 8199 1750 28       		.byte	0x28
 8200 1751 21       		.uleb128 0x21
 8201 1752 73323700 		.ascii	"s27\000"
 8202 1756 01       		.byte	0x1
 8203 1757 0101     		.2byte	0x101
 8204 1759 91160000 		.4byte	0x1691
 8205 175d 2C       		.byte	0x2c
 8206 175e 21       		.uleb128 0x21
 8207 175f 73323800 		.ascii	"s28\000"
 8208 1763 01       		.byte	0x1
 8209 1764 0201     		.2byte	0x102
 8210 1766 91160000 		.4byte	0x1691
 8211 176a 30       		.byte	0x30
 8212 176b 21       		.uleb128 0x21
 8213 176c 73323900 		.ascii	"s29\000"
 8214 1770 01       		.byte	0x1
 8215 1771 0301     		.2byte	0x103
 8216 1773 91160000 		.4byte	0x1691
 8217 1777 34       		.byte	0x34
 8218 1778 21       		.uleb128 0x21
 8219 1779 73333000 		.ascii	"s30\000"
 8220 177d 01       		.byte	0x1
 8221 177e 0401     		.2byte	0x104
 8222 1780 91160000 		.4byte	0x1691
 8223 1784 38       		.byte	0x38
 8224 1785 21       		.uleb128 0x21
 8225 1786 73333100 		.ascii	"s31\000"
 8226 178a 01       		.byte	0x1
 8227 178b 0501     		.2byte	0x105
 8228 178d 91160000 		.4byte	0x1691
 8229 1791 3C       		.byte	0x3c
 8230 1792 21       		.uleb128 0x21
 8231 1793 723400   		.ascii	"r4\000"
 8232 1796 01       		.byte	0x1
 8233 1797 0701     		.2byte	0x107
 8234 1799 91160000 		.4byte	0x1691
 8235 179d 40       		.byte	0x40
 8236 179e 21       		.uleb128 0x21
 8237 179f 723500   		.ascii	"r5\000"
 8238 17a2 01       		.byte	0x1
 8239 17a3 0801     		.2byte	0x108
 8240 17a5 91160000 		.4byte	0x1691
 8241 17a9 44       		.byte	0x44
 8242 17aa 21       		.uleb128 0x21
 8243 17ab 723600   		.ascii	"r6\000"
 8244 17ae 01       		.byte	0x1
 8245 17af 0901     		.2byte	0x109
 8246 17b1 91160000 		.4byte	0x1691
ARM GAS  C:\Users\PCHAUT~1\AppData\Local\Temp\ccJuO4y2.s 			page 146


 8247 17b5 48       		.byte	0x48
 8248 17b6 21       		.uleb128 0x21
 8249 17b7 723700   		.ascii	"r7\000"
 8250 17ba 01       		.byte	0x1
 8251 17bb 0A01     		.2byte	0x10a
 8252 17bd 91160000 		.4byte	0x1691
 8253 17c1 4C       		.byte	0x4c
 8254 17c2 21       		.uleb128 0x21
 8255 17c3 723800   		.ascii	"r8\000"
 8256 17c6 01       		.byte	0x1
 8257 17c7 0B01     		.2byte	0x10b
 8258 17c9 91160000 		.4byte	0x1691
 8259 17cd 50       		.byte	0x50
 8260 17ce 21       		.uleb128 0x21
 8261 17cf 723900   		.ascii	"r9\000"
 8262 17d2 01       		.byte	0x1
 8263 17d3 0C01     		.2byte	0x10c
 8264 17d5 91160000 		.4byte	0x1691
 8265 17d9 54       		.byte	0x54
 8266 17da 21       		.uleb128 0x21
 8267 17db 72313000 		.ascii	"r10\000"
 8268 17df 01       		.byte	0x1
 8269 17e0 0D01     		.2byte	0x10d
 8270 17e2 91160000 		.4byte	0x1691
 8271 17e6 58       		.byte	0x58
 8272 17e7 21       		.uleb128 0x21
 8273 17e8 72313100 		.ascii	"r11\000"
 8274 17ec 01       		.byte	0x1
 8275 17ed 0E01     		.2byte	0x10e
 8276 17ef 91160000 		.4byte	0x1691
 8277 17f3 5C       		.byte	0x5c
 8278 17f4 21       		.uleb128 0x21
 8279 17f5 6C7200   		.ascii	"lr\000"
 8280 17f8 01       		.byte	0x1
 8281 17f9 0F01     		.2byte	0x10f
 8282 17fb 91160000 		.4byte	0x1691
 8283 17ff 60       		.byte	0x60
 8284 1800 00       		.byte	0
 8285 1801 05       		.uleb128 0x5
 8286 1802 04       		.byte	0x4
 8287 1803 C0160000 		.4byte	0x16c0
 8288 1807 0C       		.uleb128 0xc
 8289 1808 10       		.byte	0x10
 8290 1809 15       		.byte	0x15
 8291 180a 51       		.byte	0x51
 8292 180b 40180000 		.4byte	0x1840
 8293 180f 0D       		.uleb128 0xd
 8294 1810 9D1F0000 		.4byte	.LASF320
 8295 1814 15       		.byte	0x15
 8296 1815 55       		.byte	0x55
 8297 1816 C0090000 		.4byte	0x9c0
 8298 181a 00       		.byte	0
 8299 181b 0D       		.uleb128 0xd
 8300 181c 561A0000 		.4byte	.LASF321
 8301 1820 15       		.byte	0x15
 8302 1821 59       		.byte	0x59
 8303 1822 040B0000 		.4byte	0xb04
ARM GAS  C:\Users\PCHAUT~1\AppData\Local\Temp\ccJuO4y2.s 			page 147


 8304 1826 04       		.byte	0x4
 8305 1827 0D       		.uleb128 0xd
 8306 1828 6A0D0000 		.4byte	.LASF322
 8307 182c 15       		.byte	0x15
 8308 182d 5D       		.byte	0x5d
 8309 182e 5D010000 		.4byte	0x15d
 8310 1832 08       		.byte	0x8
 8311 1833 0D       		.uleb128 0xd
 8312 1834 160B0000 		.4byte	.LASF323
 8313 1838 15       		.byte	0x15
 8314 1839 61       		.byte	0x61
 8315 183a E6080000 		.4byte	0x8e6
 8316 183e 0C       		.byte	0xc
 8317 183f 00       		.byte	0
 8318 1840 03       		.uleb128 0x3
 8319 1841 3D0E0000 		.4byte	.LASF324
 8320 1845 15       		.byte	0x15
 8321 1846 62       		.byte	0x62
 8322 1847 07180000 		.4byte	0x1807
 8323 184b 25       		.uleb128 0x25
 8324 184c 0804     		.2byte	0x408
 8325 184e 15       		.byte	0x15
 8326 184f 67       		.byte	0x67
 8327 1850 79180000 		.4byte	0x1879
 8328 1854 0D       		.uleb128 0xd
 8329 1855 130F0000 		.4byte	.LASF325
 8330 1859 15       		.byte	0x15
 8331 185a 6B       		.byte	0x6b
 8332 185b 37000000 		.4byte	0x37
 8333 185f 00       		.byte	0
 8334 1860 0D       		.uleb128 0xd
 8335 1861 72150000 		.4byte	.LASF326
 8336 1865 15       		.byte	0x15
 8337 1866 6F       		.byte	0x6f
 8338 1867 79180000 		.4byte	0x1879
 8339 186b 04       		.byte	0x4
 8340 186c 0D       		.uleb128 0xd
 8341 186d 880A0000 		.4byte	.LASF327
 8342 1871 15       		.byte	0x15
 8343 1872 73       		.byte	0x73
 8344 1873 7F180000 		.4byte	0x187f
 8345 1877 08       		.byte	0x8
 8346 1878 00       		.byte	0
 8347 1879 05       		.uleb128 0x5
 8348 187a 04       		.byte	0x4
 8349 187b 40180000 		.4byte	0x1840
 8350 187f 0A       		.uleb128 0xa
 8351 1880 40180000 		.4byte	0x1840
 8352 1884 8F180000 		.4byte	0x188f
 8353 1888 0B       		.uleb128 0xb
 8354 1889 37000000 		.4byte	0x37
 8355 188d 3F       		.byte	0x3f
 8356 188e 00       		.byte	0
 8357 188f 03       		.uleb128 0x3
 8358 1890 15000000 		.4byte	.LASF328
 8359 1894 15       		.byte	0x15
 8360 1895 74       		.byte	0x74
ARM GAS  C:\Users\PCHAUT~1\AppData\Local\Temp\ccJuO4y2.s 			page 148


 8361 1896 4B180000 		.4byte	0x184b
 8362 189a 0C       		.uleb128 0xc
 8363 189b 04       		.byte	0x4
 8364 189c 16       		.byte	0x16
 8365 189d 38       		.byte	0x38
 8366 189e AF180000 		.4byte	0x18af
 8367 18a2 0D       		.uleb128 0xd
 8368 18a3 3C200000 		.4byte	.LASF329
 8369 18a7 16       		.byte	0x16
 8370 18a8 3C       		.byte	0x3c
 8371 18a9 3C090000 		.4byte	0x93c
 8372 18ad 00       		.byte	0
 8373 18ae 00       		.byte	0
 8374 18af 03       		.uleb128 0x3
 8375 18b0 4A050000 		.4byte	.LASF330
 8376 18b4 16       		.byte	0x16
 8377 18b5 3D       		.byte	0x3d
 8378 18b6 9A180000 		.4byte	0x189a
 8379 18ba 0C       		.uleb128 0xc
 8380 18bb 18       		.byte	0x18
 8381 18bc 16       		.byte	0x16
 8382 18bd 48       		.byte	0x48
 8383 18be FD180000 		.4byte	0x18fd
 8384 18c2 0D       		.uleb128 0xd
 8385 18c3 34070000 		.4byte	.LASF331
 8386 18c7 16       		.byte	0x16
 8387 18c8 49       		.byte	0x49
 8388 18c9 3C090000 		.4byte	0x93c
 8389 18cd 00       		.byte	0
 8390 18ce 0D       		.uleb128 0xd
 8391 18cf 69010000 		.4byte	.LASF332
 8392 18d3 16       		.byte	0x16
 8393 18d4 4A       		.byte	0x4a
 8394 18d5 3C090000 		.4byte	0x93c
 8395 18d9 04       		.byte	0x4
 8396 18da 0D       		.uleb128 0xd
 8397 18db 71190000 		.4byte	.LASF333
 8398 18df 16       		.byte	0x16
 8399 18e0 4B       		.byte	0x4b
 8400 18e1 3C090000 		.4byte	0x93c
 8401 18e5 08       		.byte	0x8
 8402 18e6 11       		.uleb128 0x11
 8403 18e7 6E00     		.ascii	"n\000"
 8404 18e9 16       		.byte	0x16
 8405 18ea 4C       		.byte	0x4c
 8406 18eb B5090000 		.4byte	0x9b5
 8407 18ef 0C       		.byte	0xc
 8408 18f0 0D       		.uleb128 0xd
 8409 18f1 15190000 		.4byte	.LASF334
 8410 18f5 16       		.byte	0x16
 8411 18f6 4D       		.byte	0x4d
 8412 18f7 47090000 		.4byte	0x947
 8413 18fb 10       		.byte	0x10
 8414 18fc 00       		.byte	0
 8415 18fd 03       		.uleb128 0x3
 8416 18fe 0D230000 		.4byte	.LASF335
 8417 1902 16       		.byte	0x16
ARM GAS  C:\Users\PCHAUT~1\AppData\Local\Temp\ccJuO4y2.s 			page 149


 8418 1903 4E       		.byte	0x4e
 8419 1904 BA180000 		.4byte	0x18ba
 8420 1908 0C       		.uleb128 0xc
 8421 1909 38       		.byte	0x38
 8422 190a 17       		.byte	0x17
 8423 190b 38       		.byte	0x38
 8424 190c 41190000 		.4byte	0x1941
 8425 1910 0D       		.uleb128 0xd
 8426 1911 8B060000 		.4byte	.LASF336
 8427 1915 17       		.byte	0x17
 8428 1916 39       		.byte	0x39
 8429 1917 B5090000 		.4byte	0x9b5
 8430 191b 00       		.byte	0
 8431 191c 0D       		.uleb128 0xd
 8432 191d 340C0000 		.4byte	.LASF337
 8433 1921 17       		.byte	0x17
 8434 1922 3A       		.byte	0x3a
 8435 1923 B5090000 		.4byte	0x9b5
 8436 1927 04       		.byte	0x4
 8437 1928 0D       		.uleb128 0xd
 8438 1929 80220000 		.4byte	.LASF338
 8439 192d 17       		.byte	0x17
 8440 192e 3B       		.byte	0x3b
 8441 192f FD180000 		.4byte	0x18fd
 8442 1933 08       		.byte	0x8
 8443 1934 0D       		.uleb128 0xd
 8444 1935 6D000000 		.4byte	.LASF339
 8445 1939 17       		.byte	0x17
 8446 193a 3D       		.byte	0x3d
 8447 193b FD180000 		.4byte	0x18fd
 8448 193f 20       		.byte	0x20
 8449 1940 00       		.byte	0
 8450 1941 03       		.uleb128 0x3
 8451 1942 06050000 		.4byte	.LASF340
 8452 1946 17       		.byte	0x17
 8453 1947 3F       		.byte	0x3f
 8454 1948 08190000 		.4byte	0x1908
 8455 194c 08       		.uleb128 0x8
 8456 194d 04       		.byte	0x4
 8457 194e 10       		.byte	0x10
 8458 194f FA       		.byte	0xfa
 8459 1950 A9190000 		.4byte	0x19a9
 8460 1954 1E       		.uleb128 0x1e
 8461 1955 27110000 		.4byte	.LASF341
 8462 1959 10       		.byte	0x10
 8463 195a 0101     		.2byte	0x101
 8464 195c 89090000 		.4byte	0x989
 8465 1960 1E       		.uleb128 0x1e
 8466 1961 EB070000 		.4byte	.LASF342
 8467 1965 10       		.byte	0x10
 8468 1966 0801     		.2byte	0x108
 8469 1968 89090000 		.4byte	0x989
 8470 196c 1E       		.uleb128 0x1e
 8471 196d 6E1D0000 		.4byte	.LASF343
 8472 1971 10       		.byte	0x10
 8473 1972 0F01     		.2byte	0x10f
 8474 1974 5D010000 		.4byte	0x15d
ARM GAS  C:\Users\PCHAUT~1\AppData\Local\Temp\ccJuO4y2.s 			page 150


 8475 1978 1E       		.uleb128 0x1e
 8476 1979 36190000 		.4byte	.LASF344
 8477 197d 10       		.byte	0x10
 8478 197e 1601     		.2byte	0x116
 8479 1980 A9190000 		.4byte	0x19a9
 8480 1984 1E       		.uleb128 0x1e
 8481 1985 0D010000 		.4byte	.LASF345
 8482 1989 10       		.byte	0x10
 8483 198a 1E01     		.2byte	0x11e
 8484 198c D4190000 		.4byte	0x19d4
 8485 1990 1E       		.uleb128 0x1e
 8486 1991 B51D0000 		.4byte	.LASF346
 8487 1995 10       		.byte	0x10
 8488 1996 2701     		.2byte	0x127
 8489 1998 171A0000 		.4byte	0x1a17
 8490 199c 1E       		.uleb128 0x1e
 8491 199d F5200000 		.4byte	.LASF347
 8492 19a1 10       		.byte	0x10
 8493 19a2 2F01     		.2byte	0x12f
 8494 19a4 94090000 		.4byte	0x994
 8495 19a8 00       		.byte	0
 8496 19a9 05       		.uleb128 0x5
 8497 19aa 04       		.byte	0x4
 8498 19ab F90A0000 		.4byte	0xaf9
 8499 19af 10       		.uleb128 0x10
 8500 19b0 EA170000 		.4byte	.LASF348
 8501 19b4 0C       		.byte	0xc
 8502 19b5 18       		.byte	0x18
 8503 19b6 34       		.byte	0x34
 8504 19b7 D4190000 		.4byte	0x19d4
 8505 19bb 0D       		.uleb128 0xd
 8506 19bc 78220000 		.4byte	.LASF349
 8507 19c0 18       		.byte	0x18
 8508 19c1 35       		.byte	0x35
 8509 19c2 2E0B0000 		.4byte	0xb2e
 8510 19c6 00       		.byte	0
 8511 19c7 0D       		.uleb128 0xd
 8512 19c8 9A0A0000 		.4byte	.LASF350
 8513 19cc 18       		.byte	0x18
 8514 19cd 37       		.byte	0x37
 8515 19ce AA090000 		.4byte	0x9aa
 8516 19d2 08       		.byte	0x8
 8517 19d3 00       		.byte	0
 8518 19d4 05       		.uleb128 0x5
 8519 19d5 04       		.byte	0x4
 8520 19d6 AF190000 		.4byte	0x19af
 8521 19da 10       		.uleb128 0x10
 8522 19db DE0C0000 		.4byte	.LASF351
 8523 19df 14       		.byte	0x14
 8524 19e0 19       		.byte	0x19
 8525 19e1 39       		.byte	0x39
 8526 19e2 171A0000 		.4byte	0x1a17
 8527 19e6 0D       		.uleb128 0xd
 8528 19e7 EB130000 		.4byte	.LASF352
 8529 19eb 19       		.byte	0x19
 8530 19ec 3A       		.byte	0x3a
 8531 19ed 2E0B0000 		.4byte	0xb2e
ARM GAS  C:\Users\PCHAUT~1\AppData\Local\Temp\ccJuO4y2.s 			page 151


 8532 19f1 00       		.byte	0
 8533 19f2 0D       		.uleb128 0xd
 8534 19f3 C4160000 		.4byte	.LASF353
 8535 19f7 19       		.byte	0x19
 8536 19f8 3C       		.byte	0x3c
 8537 19f9 040B0000 		.4byte	0xb04
 8538 19fd 08       		.byte	0x8
 8539 19fe 0D       		.uleb128 0xd
 8540 19ff AC010000 		.4byte	.LASF354
 8541 1a03 19       		.byte	0x19
 8542 1a04 3E       		.byte	0x3e
 8543 1a05 5B1B0000 		.4byte	0x1b5b
 8544 1a09 0C       		.byte	0xc
 8545 1a0a 0D       		.uleb128 0xd
 8546 1a0b 68080000 		.4byte	.LASF355
 8547 1a0f 19       		.byte	0x19
 8548 1a10 41       		.byte	0x41
 8549 1a11 AA090000 		.4byte	0x9aa
 8550 1a15 10       		.byte	0x10
 8551 1a16 00       		.byte	0
 8552 1a17 05       		.uleb128 0x5
 8553 1a18 04       		.byte	0x4
 8554 1a19 DA190000 		.4byte	0x19da
 8555 1a1d 05       		.uleb128 0x5
 8556 1a1e 04       		.byte	0x4
 8557 1a1f 9C160000 		.4byte	0x169c
 8558 1a23 05       		.uleb128 0x5
 8559 1a24 04       		.byte	0x4
 8560 1a25 E10B0000 		.4byte	0xbe1
 8561 1a29 0A       		.uleb128 0xa
 8562 1a2a 9C160000 		.4byte	0x169c
 8563 1a2e 391A0000 		.4byte	0x1a39
 8564 1a32 0B       		.uleb128 0xb
 8565 1a33 37000000 		.4byte	0x37
 8566 1a37 30       		.byte	0x30
 8567 1a38 00       		.byte	0
 8568 1a39 26       		.uleb128 0x26
 8569 1a3a 636800   		.ascii	"ch\000"
 8570 1a3d 10       		.byte	0x10
 8571 1a3e 0902     		.2byte	0x209
 8572 1a40 D60C0000 		.4byte	0xcd6
 8573 1a44 0C       		.uleb128 0xc
 8574 1a45 16       		.byte	0x16
 8575 1a46 05       		.byte	0x5
 8576 1a47 34       		.byte	0x34
 8577 1a48 251B0000 		.4byte	0x1b25
 8578 1a4c 0D       		.uleb128 0xd
 8579 1a4d AA220000 		.4byte	.LASF356
 8580 1a51 05       		.byte	0x5
 8581 1a52 35       		.byte	0x35
 8582 1a53 251B0000 		.4byte	0x1b25
 8583 1a57 00       		.byte	0
 8584 1a58 0D       		.uleb128 0xd
 8585 1a59 A5240000 		.4byte	.LASF357
 8586 1a5d 05       		.byte	0x5
 8587 1a5e 36       		.byte	0x36
 8588 1a5f E6080000 		.4byte	0x8e6
ARM GAS  C:\Users\PCHAUT~1\AppData\Local\Temp\ccJuO4y2.s 			page 152


 8589 1a63 04       		.byte	0x4
 8590 1a64 0D       		.uleb128 0xd
 8591 1a65 F6020000 		.4byte	.LASF358
 8592 1a69 05       		.byte	0x5
 8593 1a6a 37       		.byte	0x37
 8594 1a6b E6080000 		.4byte	0x8e6
 8595 1a6f 05       		.byte	0x5
 8596 1a70 0D       		.uleb128 0xd
 8597 1a71 1B170000 		.4byte	.LASF359
 8598 1a75 05       		.byte	0x5
 8599 1a76 38       		.byte	0x38
 8600 1a77 01090000 		.4byte	0x901
 8601 1a7b 06       		.byte	0x6
 8602 1a7c 0D       		.uleb128 0xd
 8603 1a7d 27000000 		.4byte	.LASF360
 8604 1a81 05       		.byte	0x5
 8605 1a82 39       		.byte	0x39
 8606 1a83 E6080000 		.4byte	0x8e6
 8607 1a87 08       		.byte	0x8
 8608 1a88 0D       		.uleb128 0xd
 8609 1a89 06150000 		.4byte	.LASF361
 8610 1a8d 05       		.byte	0x5
 8611 1a8e 3A       		.byte	0x3a
 8612 1a8f E6080000 		.4byte	0x8e6
 8613 1a93 09       		.byte	0x9
 8614 1a94 0D       		.uleb128 0xd
 8615 1a95 C5240000 		.4byte	.LASF362
 8616 1a99 05       		.byte	0x5
 8617 1a9a 3B       		.byte	0x3b
 8618 1a9b E6080000 		.4byte	0x8e6
 8619 1a9f 0A       		.byte	0xa
 8620 1aa0 0D       		.uleb128 0xd
 8621 1aa1 E8220000 		.4byte	.LASF363
 8622 1aa5 05       		.byte	0x5
 8623 1aa6 3C       		.byte	0x3c
 8624 1aa7 E6080000 		.4byte	0x8e6
 8625 1aab 0B       		.byte	0xb
 8626 1aac 0D       		.uleb128 0xd
 8627 1aad 15220000 		.4byte	.LASF364
 8628 1ab1 05       		.byte	0x5
 8629 1ab2 3D       		.byte	0x3d
 8630 1ab3 E6080000 		.4byte	0x8e6
 8631 1ab7 0C       		.byte	0xc
 8632 1ab8 0D       		.uleb128 0xd
 8633 1ab9 320D0000 		.4byte	.LASF365
 8634 1abd 05       		.byte	0x5
 8635 1abe 3E       		.byte	0x3e
 8636 1abf E6080000 		.4byte	0x8e6
 8637 1ac3 0D       		.byte	0xd
 8638 1ac4 0D       		.uleb128 0xd
 8639 1ac5 9E050000 		.4byte	.LASF366
 8640 1ac9 05       		.byte	0x5
 8641 1aca 3F       		.byte	0x3f
 8642 1acb E6080000 		.4byte	0x8e6
 8643 1acf 0E       		.byte	0xe
 8644 1ad0 0D       		.uleb128 0xd
 8645 1ad1 B40E0000 		.4byte	.LASF367
ARM GAS  C:\Users\PCHAUT~1\AppData\Local\Temp\ccJuO4y2.s 			page 153


 8646 1ad5 05       		.byte	0x5
 8647 1ad6 40       		.byte	0x40
 8648 1ad7 E6080000 		.4byte	0x8e6
 8649 1adb 0F       		.byte	0xf
 8650 1adc 0D       		.uleb128 0xd
 8651 1add 9B100000 		.4byte	.LASF368
 8652 1ae1 05       		.byte	0x5
 8653 1ae2 41       		.byte	0x41
 8654 1ae3 E6080000 		.4byte	0x8e6
 8655 1ae7 10       		.byte	0x10
 8656 1ae8 0D       		.uleb128 0xd
 8657 1ae9 B7160000 		.4byte	.LASF369
 8658 1aed 05       		.byte	0x5
 8659 1aee 43       		.byte	0x43
 8660 1aef E6080000 		.4byte	0x8e6
 8661 1af3 11       		.byte	0x11
 8662 1af4 0D       		.uleb128 0xd
 8663 1af5 B4020000 		.4byte	.LASF370
 8664 1af9 05       		.byte	0x5
 8665 1afa 44       		.byte	0x44
 8666 1afb E6080000 		.4byte	0x8e6
 8667 1aff 12       		.byte	0x12
 8668 1b00 0D       		.uleb128 0xd
 8669 1b01 AB160000 		.4byte	.LASF371
 8670 1b05 05       		.byte	0x5
 8671 1b06 45       		.byte	0x45
 8672 1b07 E6080000 		.4byte	0x8e6
 8673 1b0b 13       		.byte	0x13
 8674 1b0c 0D       		.uleb128 0xd
 8675 1b0d A01C0000 		.4byte	.LASF372
 8676 1b11 05       		.byte	0x5
 8677 1b12 46       		.byte	0x46
 8678 1b13 E6080000 		.4byte	0x8e6
 8679 1b17 14       		.byte	0x14
 8680 1b18 0D       		.uleb128 0xd
 8681 1b19 EB000000 		.4byte	.LASF373
 8682 1b1d 05       		.byte	0x5
 8683 1b1e 48       		.byte	0x48
 8684 1b1f E6080000 		.4byte	0x8e6
 8685 1b23 15       		.byte	0x15
 8686 1b24 00       		.byte	0
 8687 1b25 0A       		.uleb128 0xa
 8688 1b26 65010000 		.4byte	0x165
 8689 1b2a 351B0000 		.4byte	0x1b35
 8690 1b2e 0B       		.uleb128 0xb
 8691 1b2f 37000000 		.4byte	0x37
 8692 1b33 03       		.byte	0x3
 8693 1b34 00       		.byte	0
 8694 1b35 03       		.uleb128 0x3
 8695 1b36 85140000 		.4byte	.LASF374
 8696 1b3a 05       		.byte	0x5
 8697 1b3b 49       		.byte	0x49
 8698 1b3c 441A0000 		.4byte	0x1a44
 8699 1b40 0F       		.uleb128 0xf
 8700 1b41 351B0000 		.4byte	0x1b35
 8701 1b45 23       		.uleb128 0x23
 8702 1b46 3D0C0000 		.4byte	.LASF375
ARM GAS  C:\Users\PCHAUT~1\AppData\Local\Temp\ccJuO4y2.s 			page 154


 8703 1b4a 05       		.byte	0x5
 8704 1b4b 6E       		.byte	0x6e
 8705 1b4c 401B0000 		.4byte	0x1b40
 8706 1b50 03       		.uleb128 0x3
 8707 1b51 CF1E0000 		.4byte	.LASF376
 8708 1b55 19       		.byte	0x19
 8709 1b56 34       		.byte	0x34
 8710 1b57 DA190000 		.4byte	0x19da
 8711 1b5b 05       		.uleb128 0x5
 8712 1b5c 04       		.byte	0x4
 8713 1b5d 501B0000 		.4byte	0x1b50
 8714 1b61 03       		.uleb128 0x3
 8715 1b62 820C0000 		.4byte	.LASF377
 8716 1b66 1A       		.byte	0x1a
 8717 1b67 34       		.byte	0x34
 8718 1b68 6C1B0000 		.4byte	0x1b6c
 8719 1b6c 10       		.uleb128 0x10
 8720 1b6d 4E250000 		.4byte	.LASF378
 8721 1b71 14       		.byte	0x14
 8722 1b72 1A       		.byte	0x1a
 8723 1b73 39       		.byte	0x39
 8724 1b74 B51B0000 		.4byte	0x1bb5
 8725 1b78 0D       		.uleb128 0xd
 8726 1b79 3D020000 		.4byte	.LASF379
 8727 1b7d 1A       		.byte	0x1a
 8728 1b7e 3A       		.byte	0x3a
 8729 1b7f B51B0000 		.4byte	0x1bb5
 8730 1b83 00       		.byte	0
 8731 1b84 0D       		.uleb128 0xd
 8732 1b85 CE1F0000 		.4byte	.LASF380
 8733 1b89 1A       		.byte	0x1a
 8734 1b8a 3D       		.byte	0x3d
 8735 1b8b 040B0000 		.4byte	0xb04
 8736 1b8f 04       		.byte	0x4
 8737 1b90 0D       		.uleb128 0xd
 8738 1b91 5A030000 		.4byte	.LASF381
 8739 1b95 1A       		.byte	0x1a
 8740 1b96 3F       		.byte	0x3f
 8741 1b97 94090000 		.4byte	0x994
 8742 1b9b 08       		.byte	0x8
 8743 1b9c 0D       		.uleb128 0xd
 8744 1b9d FC200000 		.4byte	.LASF382
 8745 1ba1 1A       		.byte	0x1a
 8746 1ba2 41       		.byte	0x41
 8747 1ba3 9F090000 		.4byte	0x99f
 8748 1ba7 0C       		.byte	0xc
 8749 1ba8 0D       		.uleb128 0xd
 8750 1ba9 FF0E0000 		.4byte	.LASF383
 8751 1bad 1A       		.byte	0x1a
 8752 1bae 43       		.byte	0x43
 8753 1baf 9F090000 		.4byte	0x99f
 8754 1bb3 10       		.byte	0x10
 8755 1bb4 00       		.byte	0
 8756 1bb5 05       		.uleb128 0x5
 8757 1bb6 04       		.byte	0x4
 8758 1bb7 611B0000 		.4byte	0x1b61
 8759 1bbb 10       		.uleb128 0x10
ARM GAS  C:\Users\PCHAUT~1\AppData\Local\Temp\ccJuO4y2.s 			page 155


 8760 1bbc 05210000 		.4byte	.LASF384
 8761 1bc0 04       		.byte	0x4
 8762 1bc1 1A       		.byte	0x1a
 8763 1bc2 4A       		.byte	0x4a
 8764 1bc3 D41B0000 		.4byte	0x1bd4
 8765 1bc7 0D       		.uleb128 0xd
 8766 1bc8 77200000 		.4byte	.LASF385
 8767 1bcc 1A       		.byte	0x1a
 8768 1bcd 4B       		.byte	0x4b
 8769 1bce B51B0000 		.4byte	0x1bb5
 8770 1bd2 00       		.byte	0
 8771 1bd3 00       		.byte	0
 8772 1bd4 03       		.uleb128 0x3
 8773 1bd5 35150000 		.4byte	.LASF386
 8774 1bd9 1A       		.byte	0x1a
 8775 1bda 4E       		.byte	0x4e
 8776 1bdb BB1B0000 		.4byte	0x1bbb
 8777 1bdf 03       		.uleb128 0x3
 8778 1be0 520F0000 		.4byte	.LASF387
 8779 1be4 1B       		.byte	0x1b
 8780 1be5 3F       		.byte	0x3f
 8781 1be6 EA1B0000 		.4byte	0x1bea
 8782 1bea 10       		.uleb128 0x10
 8783 1beb A1110000 		.4byte	.LASF388
 8784 1bef 24       		.byte	0x24
 8785 1bf0 1B       		.byte	0x1b
 8786 1bf1 4D       		.byte	0x4d
 8787 1bf2 571C0000 		.4byte	0x1c57
 8788 1bf6 0D       		.uleb128 0xd
 8789 1bf7 15050000 		.4byte	.LASF389
 8790 1bfb 1B       		.byte	0x1b
 8791 1bfc 4E       		.byte	0x4e
 8792 1bfd 2E0B0000 		.4byte	0xb2e
 8793 1c01 00       		.byte	0
 8794 1c02 0D       		.uleb128 0xd
 8795 1c03 DA180000 		.4byte	.LASF390
 8796 1c07 1B       		.byte	0x1b
 8797 1c08 4F       		.byte	0x4f
 8798 1c09 2C000000 		.4byte	0x2c
 8799 1c0d 08       		.byte	0x8
 8800 1c0e 0D       		.uleb128 0xd
 8801 1c0f 6F120000 		.4byte	.LASF391
 8802 1c13 1B       		.byte	0x1b
 8803 1c14 50       		.byte	0x50
 8804 1c15 791C0000 		.4byte	0x1c79
 8805 1c19 0C       		.byte	0xc
 8806 1c1a 0D       		.uleb128 0xd
 8807 1c1b 75040000 		.4byte	.LASF392
 8808 1c1f 1B       		.byte	0x1b
 8809 1c20 51       		.byte	0x51
 8810 1c21 791C0000 		.4byte	0x1c79
 8811 1c25 10       		.byte	0x10
 8812 1c26 0D       		.uleb128 0xd
 8813 1c27 5C1A0000 		.4byte	.LASF393
 8814 1c2b 1B       		.byte	0x1b
 8815 1c2c 53       		.byte	0x53
 8816 1c2d 791C0000 		.4byte	0x1c79
ARM GAS  C:\Users\PCHAUT~1\AppData\Local\Temp\ccJuO4y2.s 			page 156


 8817 1c31 14       		.byte	0x14
 8818 1c32 0D       		.uleb128 0xd
 8819 1c33 3C190000 		.4byte	.LASF394
 8820 1c37 1B       		.byte	0x1b
 8821 1c38 54       		.byte	0x54
 8822 1c39 791C0000 		.4byte	0x1c79
 8823 1c3d 18       		.byte	0x18
 8824 1c3e 0D       		.uleb128 0xd
 8825 1c3f AC1D0000 		.4byte	.LASF395
 8826 1c43 1B       		.byte	0x1b
 8827 1c44 55       		.byte	0x55
 8828 1c45 571C0000 		.4byte	0x1c57
 8829 1c49 1C       		.byte	0x1c
 8830 1c4a 0D       		.uleb128 0xd
 8831 1c4b 2F1B0000 		.4byte	.LASF396
 8832 1c4f 1B       		.byte	0x1b
 8833 1c50 56       		.byte	0x56
 8834 1c51 5D010000 		.4byte	0x15d
 8835 1c55 20       		.byte	0x20
 8836 1c56 00       		.byte	0
 8837 1c57 03       		.uleb128 0x3
 8838 1c58 20040000 		.4byte	.LASF397
 8839 1c5c 1B       		.byte	0x1b
 8840 1c5d 42       		.byte	0x42
 8841 1c5e 621C0000 		.4byte	0x1c62
 8842 1c62 05       		.uleb128 0x5
 8843 1c63 04       		.byte	0x4
 8844 1c64 681C0000 		.4byte	0x1c68
 8845 1c68 1F       		.uleb128 0x1f
 8846 1c69 731C0000 		.4byte	0x1c73
 8847 1c6d 16       		.uleb128 0x16
 8848 1c6e 731C0000 		.4byte	0x1c73
 8849 1c72 00       		.byte	0
 8850 1c73 05       		.uleb128 0x5
 8851 1c74 04       		.byte	0x4
 8852 1c75 DF1B0000 		.4byte	0x1bdf
 8853 1c79 05       		.uleb128 0x5
 8854 1c7a 04       		.byte	0x4
 8855 1c7b E6080000 		.4byte	0x8e6
 8856 1c7f 03       		.uleb128 0x3
 8857 1c80 5B050000 		.4byte	.LASF398
 8858 1c84 1B       		.byte	0x1b
 8859 1c85 64       		.byte	0x64
 8860 1c86 DF1B0000 		.4byte	0x1bdf
 8861 1c8a 03       		.uleb128 0x3
 8862 1c8b 91250000 		.4byte	.LASF399
 8863 1c8f 1B       		.byte	0x1b
 8864 1c90 71       		.byte	0x71
 8865 1c91 DF1B0000 		.4byte	0x1bdf
 8866 1c95 15       		.uleb128 0x15
 8867 1c96 2C000000 		.4byte	0x2c
 8868 1c9a AE1C0000 		.4byte	0x1cae
 8869 1c9e 16       		.uleb128 0x16
 8870 1c9f 5D010000 		.4byte	0x15d
 8871 1ca3 16       		.uleb128 0x16
 8872 1ca4 AE1C0000 		.4byte	0x1cae
 8873 1ca8 16       		.uleb128 0x16
ARM GAS  C:\Users\PCHAUT~1\AppData\Local\Temp\ccJuO4y2.s 			page 157


 8874 1ca9 2C000000 		.4byte	0x2c
 8875 1cad 00       		.byte	0
 8876 1cae 05       		.uleb128 0x5
 8877 1caf 04       		.byte	0x4
 8878 1cb0 F1080000 		.4byte	0x8f1
 8879 1cb4 05       		.uleb128 0x5
 8880 1cb5 04       		.byte	0x4
 8881 1cb6 951C0000 		.4byte	0x1c95
 8882 1cba 15       		.uleb128 0x15
 8883 1cbb 2C000000 		.4byte	0x2c
 8884 1cbf D31C0000 		.4byte	0x1cd3
 8885 1cc3 16       		.uleb128 0x16
 8886 1cc4 5D010000 		.4byte	0x15d
 8887 1cc8 16       		.uleb128 0x16
 8888 1cc9 791C0000 		.4byte	0x1c79
 8889 1ccd 16       		.uleb128 0x16
 8890 1cce 2C000000 		.4byte	0x2c
 8891 1cd2 00       		.byte	0
 8892 1cd3 05       		.uleb128 0x5
 8893 1cd4 04       		.byte	0x4
 8894 1cd5 BA1C0000 		.4byte	0x1cba
 8895 1cd9 15       		.uleb128 0x15
 8896 1cda 89090000 		.4byte	0x989
 8897 1cde ED1C0000 		.4byte	0x1ced
 8898 1ce2 16       		.uleb128 0x16
 8899 1ce3 5D010000 		.4byte	0x15d
 8900 1ce7 16       		.uleb128 0x16
 8901 1ce8 E6080000 		.4byte	0x8e6
 8902 1cec 00       		.byte	0
 8903 1ced 05       		.uleb128 0x5
 8904 1cee 04       		.byte	0x4
 8905 1cef D91C0000 		.4byte	0x1cd9
 8906 1cf3 15       		.uleb128 0x15
 8907 1cf4 89090000 		.4byte	0x989
 8908 1cf8 021D0000 		.4byte	0x1d02
 8909 1cfc 16       		.uleb128 0x16
 8910 1cfd 5D010000 		.4byte	0x15d
 8911 1d01 00       		.byte	0
 8912 1d02 05       		.uleb128 0x5
 8913 1d03 04       		.byte	0x4
 8914 1d04 F31C0000 		.4byte	0x1cf3
 8915 1d08 0C       		.uleb128 0xc
 8916 1d09 0C       		.byte	0xc
 8917 1d0a 1C       		.byte	0x1c
 8918 1d0b DA       		.byte	0xda
 8919 1d0c 4D1D0000 		.4byte	0x1d4d
 8920 1d10 0D       		.uleb128 0xd
 8921 1d11 1D250000 		.4byte	.LASF400
 8922 1d15 1C       		.byte	0x1c
 8923 1d16 DB       		.byte	0xdb
 8924 1d17 4D1D0000 		.4byte	0x1d4d
 8925 1d1b 00       		.byte	0
 8926 1d1c 0D       		.uleb128 0xd
 8927 1d1d 00110000 		.4byte	.LASF401
 8928 1d21 1C       		.byte	0x1c
 8929 1d22 DC       		.byte	0xdc
 8930 1d23 531D0000 		.4byte	0x1d53
ARM GAS  C:\Users\PCHAUT~1\AppData\Local\Temp\ccJuO4y2.s 			page 158


 8931 1d27 04       		.byte	0x4
 8932 1d28 0D       		.uleb128 0xd
 8933 1d29 47040000 		.4byte	.LASF402
 8934 1d2d 1C       		.byte	0x1c
 8935 1d2e DD       		.byte	0xdd
 8936 1d2f E6080000 		.4byte	0x8e6
 8937 1d33 08       		.byte	0x8
 8938 1d34 0D       		.uleb128 0xd
 8939 1d35 C51E0000 		.4byte	.LASF403
 8940 1d39 1C       		.byte	0x1c
 8941 1d3a DF       		.byte	0xdf
 8942 1d3b E6080000 		.4byte	0x8e6
 8943 1d3f 09       		.byte	0x9
 8944 1d40 0D       		.uleb128 0xd
 8945 1d41 92030000 		.4byte	.LASF404
 8946 1d45 1C       		.byte	0x1c
 8947 1d46 E0       		.byte	0xe0
 8948 1d47 E6080000 		.4byte	0x8e6
 8949 1d4b 0A       		.byte	0xa
 8950 1d4c 00       		.byte	0
 8951 1d4d 05       		.uleb128 0x5
 8952 1d4e 04       		.byte	0x4
 8953 1d4f F2110000 		.4byte	0x11f2
 8954 1d53 05       		.uleb128 0x5
 8955 1d54 04       		.byte	0x4
 8956 1d55 27090000 		.4byte	0x927
 8957 1d59 03       		.uleb128 0x3
 8958 1d5a 88130000 		.4byte	.LASF405
 8959 1d5e 1C       		.byte	0x1c
 8960 1d5f E1       		.byte	0xe1
 8961 1d60 081D0000 		.4byte	0x1d08
 8962 1d64 0F       		.uleb128 0xf
 8963 1d65 591D0000 		.4byte	0x1d59
 8964 1d69 0A       		.uleb128 0xa
 8965 1d6a 641D0000 		.4byte	0x1d64
 8966 1d6e 791D0000 		.4byte	0x1d79
 8967 1d72 0B       		.uleb128 0xb
 8968 1d73 37000000 		.4byte	0x37
 8969 1d77 0F       		.byte	0xf
 8970 1d78 00       		.byte	0
 8971 1d79 0F       		.uleb128 0xf
 8972 1d7a 691D0000 		.4byte	0x1d69
 8973 1d7e 20       		.uleb128 0x20
 8974 1d7f BB1B0000 		.4byte	.LASF406
 8975 1d83 1C       		.byte	0x1c
 8976 1d84 BB01     		.2byte	0x1bb
 8977 1d86 791D0000 		.4byte	0x1d79
 8978 1d8a 15       		.uleb128 0x15
 8979 1d8b 89090000 		.4byte	0x989
 8980 1d8f A31D0000 		.4byte	0x1da3
 8981 1d93 16       		.uleb128 0x16
 8982 1d94 5D010000 		.4byte	0x15d
 8983 1d98 16       		.uleb128 0x16
 8984 1d99 E6080000 		.4byte	0x8e6
 8985 1d9d 16       		.uleb128 0x16
 8986 1d9e C0090000 		.4byte	0x9c0
 8987 1da2 00       		.byte	0
ARM GAS  C:\Users\PCHAUT~1\AppData\Local\Temp\ccJuO4y2.s 			page 159


 8988 1da3 05       		.uleb128 0x5
 8989 1da4 04       		.byte	0x4
 8990 1da5 8A1D0000 		.4byte	0x1d8a
 8991 1da9 15       		.uleb128 0x15
 8992 1daa 89090000 		.4byte	0x989
 8993 1dae BD1D0000 		.4byte	0x1dbd
 8994 1db2 16       		.uleb128 0x16
 8995 1db3 5D010000 		.4byte	0x15d
 8996 1db7 16       		.uleb128 0x16
 8997 1db8 C0090000 		.4byte	0x9c0
 8998 1dbc 00       		.byte	0
 8999 1dbd 05       		.uleb128 0x5
 9000 1dbe 04       		.byte	0x4
 9001 1dbf A91D0000 		.4byte	0x1da9
 9002 1dc3 15       		.uleb128 0x15
 9003 1dc4 2C000000 		.4byte	0x2c
 9004 1dc8 E11D0000 		.4byte	0x1de1
 9005 1dcc 16       		.uleb128 0x16
 9006 1dcd 5D010000 		.4byte	0x15d
 9007 1dd1 16       		.uleb128 0x16
 9008 1dd2 AE1C0000 		.4byte	0x1cae
 9009 1dd6 16       		.uleb128 0x16
 9010 1dd7 2C000000 		.4byte	0x2c
 9011 1ddb 16       		.uleb128 0x16
 9012 1ddc C0090000 		.4byte	0x9c0
 9013 1de0 00       		.byte	0
 9014 1de1 05       		.uleb128 0x5
 9015 1de2 04       		.byte	0x4
 9016 1de3 C31D0000 		.4byte	0x1dc3
 9017 1de7 15       		.uleb128 0x15
 9018 1de8 2C000000 		.4byte	0x2c
 9019 1dec 051E0000 		.4byte	0x1e05
 9020 1df0 16       		.uleb128 0x16
 9021 1df1 5D010000 		.4byte	0x15d
 9022 1df5 16       		.uleb128 0x16
 9023 1df6 791C0000 		.4byte	0x1c79
 9024 1dfa 16       		.uleb128 0x16
 9025 1dfb 2C000000 		.4byte	0x2c
 9026 1dff 16       		.uleb128 0x16
 9027 1e00 C0090000 		.4byte	0x9c0
 9028 1e04 00       		.byte	0
 9029 1e05 05       		.uleb128 0x5
 9030 1e06 04       		.byte	0x4
 9031 1e07 E71D0000 		.4byte	0x1de7
 9032 1e0b 27       		.uleb128 0x27
 9033 1e0c 07       		.byte	0x7
 9034 1e0d 01       		.byte	0x1
 9035 1e0e 5E000000 		.4byte	0x5e
 9036 1e12 1D       		.byte	0x1d
 9037 1e13 28       		.byte	0x28
 9038 1e14 4F1E0000 		.4byte	0x1e4f
 9039 1e18 28       		.uleb128 0x28
 9040 1e19 4D010000 		.4byte	.LASF407
 9041 1e1d 00       		.byte	0
 9042 1e1e 28       		.uleb128 0x28
 9043 1e1f 2F100000 		.4byte	.LASF408
 9044 1e23 01       		.byte	0x1
ARM GAS  C:\Users\PCHAUT~1\AppData\Local\Temp\ccJuO4y2.s 			page 160


 9045 1e24 28       		.uleb128 0x28
 9046 1e25 6D0C0000 		.4byte	.LASF409
 9047 1e29 02       		.byte	0x2
 9048 1e2a 28       		.uleb128 0x28
 9049 1e2b 021D0000 		.4byte	.LASF410
 9050 1e2f 03       		.byte	0x3
 9051 1e30 28       		.uleb128 0x28
 9052 1e31 25240000 		.4byte	.LASF411
 9053 1e35 04       		.byte	0x4
 9054 1e36 28       		.uleb128 0x28
 9055 1e37 66070000 		.4byte	.LASF412
 9056 1e3b 05       		.byte	0x5
 9057 1e3c 28       		.uleb128 0x28
 9058 1e3d A51E0000 		.4byte	.LASF413
 9059 1e41 06       		.byte	0x6
 9060 1e42 28       		.uleb128 0x28
 9061 1e43 A1190000 		.4byte	.LASF414
 9062 1e47 07       		.byte	0x7
 9063 1e48 28       		.uleb128 0x28
 9064 1e49 F1230000 		.4byte	.LASF415
 9065 1e4d 08       		.byte	0x8
 9066 1e4e 00       		.byte	0
 9067 1e4f 03       		.uleb128 0x3
 9068 1e50 45180000 		.4byte	.LASF416
 9069 1e54 1D       		.byte	0x1d
 9070 1e55 32       		.byte	0x32
 9071 1e56 0B1E0000 		.4byte	0x1e0b
 9072 1e5a 0C       		.uleb128 0xc
 9073 1e5b 08       		.byte	0x8
 9074 1e5c 1D       		.byte	0x1d
 9075 1e5d 37       		.byte	0x37
 9076 1e5e 7B1E0000 		.4byte	0x1e7b
 9077 1e62 0D       		.uleb128 0xd
 9078 1e63 F7060000 		.4byte	.LASF417
 9079 1e67 1D       		.byte	0x1d
 9080 1e68 38       		.byte	0x38
 9081 1e69 1C090000 		.4byte	0x91c
 9082 1e6d 00       		.byte	0
 9083 1e6e 0D       		.uleb128 0xd
 9084 1e6f FF1D0000 		.4byte	.LASF418
 9085 1e73 1D       		.byte	0x1d
 9086 1e74 39       		.byte	0x39
 9087 1e75 1C090000 		.4byte	0x91c
 9088 1e79 04       		.byte	0x4
 9089 1e7a 00       		.byte	0
 9090 1e7b 03       		.uleb128 0x3
 9091 1e7c 08200000 		.4byte	.LASF419
 9092 1e80 1D       		.byte	0x1d
 9093 1e81 3A       		.byte	0x3a
 9094 1e82 5A1E0000 		.4byte	0x1e5a
 9095 1e86 15       		.uleb128 0x15
 9096 1e87 951E0000 		.4byte	0x1e95
 9097 1e8b 951E0000 		.4byte	0x1e95
 9098 1e8f 16       		.uleb128 0x16
 9099 1e90 5D010000 		.4byte	0x15d
 9100 1e94 00       		.byte	0
 9101 1e95 04       		.uleb128 0x4
ARM GAS  C:\Users\PCHAUT~1\AppData\Local\Temp\ccJuO4y2.s 			page 161


 9102 1e96 01       		.byte	0x1
 9103 1e97 02       		.byte	0x2
 9104 1e98 14010000 		.4byte	.LASF420
 9105 1e9c 05       		.uleb128 0x5
 9106 1e9d 04       		.byte	0x4
 9107 1e9e 861E0000 		.4byte	0x1e86
 9108 1ea2 15       		.uleb128 0x15
 9109 1ea3 951E0000 		.4byte	0x1e95
 9110 1ea7 C01E0000 		.4byte	0x1ec0
 9111 1eab 16       		.uleb128 0x16
 9112 1eac 5D010000 		.4byte	0x15d
 9113 1eb0 16       		.uleb128 0x16
 9114 1eb1 1C090000 		.4byte	0x91c
 9115 1eb5 16       		.uleb128 0x16
 9116 1eb6 791C0000 		.4byte	0x1c79
 9117 1eba 16       		.uleb128 0x16
 9118 1ebb 1C090000 		.4byte	0x91c
 9119 1ebf 00       		.byte	0
 9120 1ec0 05       		.uleb128 0x5
 9121 1ec1 04       		.byte	0x4
 9122 1ec2 A21E0000 		.4byte	0x1ea2
 9123 1ec6 15       		.uleb128 0x15
 9124 1ec7 951E0000 		.4byte	0x1e95
 9125 1ecb E41E0000 		.4byte	0x1ee4
 9126 1ecf 16       		.uleb128 0x16
 9127 1ed0 5D010000 		.4byte	0x15d
 9128 1ed4 16       		.uleb128 0x16
 9129 1ed5 1C090000 		.4byte	0x91c
 9130 1ed9 16       		.uleb128 0x16
 9131 1eda AE1C0000 		.4byte	0x1cae
 9132 1ede 16       		.uleb128 0x16
 9133 1edf 1C090000 		.4byte	0x91c
 9134 1ee3 00       		.byte	0
 9135 1ee4 05       		.uleb128 0x5
 9136 1ee5 04       		.byte	0x4
 9137 1ee6 C61E0000 		.4byte	0x1ec6
 9138 1eea 15       		.uleb128 0x15
 9139 1eeb 951E0000 		.4byte	0x1e95
 9140 1eef FE1E0000 		.4byte	0x1efe
 9141 1ef3 16       		.uleb128 0x16
 9142 1ef4 5D010000 		.4byte	0x15d
 9143 1ef8 16       		.uleb128 0x16
 9144 1ef9 FE1E0000 		.4byte	0x1efe
 9145 1efd 00       		.byte	0
 9146 1efe 05       		.uleb128 0x5
 9147 1eff 04       		.byte	0x4
 9148 1f00 7B1E0000 		.4byte	0x1e7b
 9149 1f04 05       		.uleb128 0x5
 9150 1f05 04       		.byte	0x4
 9151 1f06 EA1E0000 		.4byte	0x1eea
 9152 1f0a 0A       		.uleb128 0xa
 9153 1f0b 1C090000 		.4byte	0x91c
 9154 1f0f 1A1F0000 		.4byte	0x1f1a
 9155 1f13 0B       		.uleb128 0xb
 9156 1f14 37000000 		.4byte	0x37
 9157 1f18 03       		.byte	0x3
 9158 1f19 00       		.byte	0
ARM GAS  C:\Users\PCHAUT~1\AppData\Local\Temp\ccJuO4y2.s 			page 162


 9159 1f1a 0C       		.uleb128 0xc
 9160 1f1b 04       		.byte	0x4
 9161 1f1c 1E       		.byte	0x1e
 9162 1f1d B3       		.byte	0xb3
 9163 1f1e 3B1F0000 		.4byte	0x1f3b
 9164 1f22 11       		.uleb128 0x11
 9165 1f23 73657400 		.ascii	"set\000"
 9166 1f27 1E       		.byte	0x1e
 9167 1f28 B4       		.byte	0xb4
 9168 1f29 01090000 		.4byte	0x901
 9169 1f2d 00       		.byte	0
 9170 1f2e 0D       		.uleb128 0xd
 9171 1f2f 1F0E0000 		.4byte	.LASF421
 9172 1f33 1E       		.byte	0x1e
 9173 1f34 B5       		.byte	0xb5
 9174 1f35 01090000 		.4byte	0x901
 9175 1f39 02       		.byte	0x2
 9176 1f3a 00       		.byte	0
 9177 1f3b 08       		.uleb128 0x8
 9178 1f3c 04       		.byte	0x4
 9179 1f3d 1E       		.byte	0x1e
 9180 1f3e B1       		.byte	0xb1
 9181 1f3f 561F0000 		.4byte	0x1f56
 9182 1f43 29       		.uleb128 0x29
 9183 1f44 5700     		.ascii	"W\000"
 9184 1f46 1E       		.byte	0x1e
 9185 1f47 B2       		.byte	0xb2
 9186 1f48 1C090000 		.4byte	0x91c
 9187 1f4c 29       		.uleb128 0x29
 9188 1f4d 4800     		.ascii	"H\000"
 9189 1f4f 1E       		.byte	0x1e
 9190 1f50 B6       		.byte	0xb6
 9191 1f51 1A1F0000 		.4byte	0x1f1a
 9192 1f55 00       		.byte	0
 9193 1f56 1A       		.uleb128 0x1a
 9194 1f57 3B1F0000 		.4byte	0x1f3b
 9195 1f5b 0C       		.uleb128 0xc
 9196 1f5c 2C       		.byte	0x2c
 9197 1f5d 1E       		.byte	0x1e
 9198 1f5e A9       		.byte	0xa9
 9199 1f5f E81F0000 		.4byte	0x1fe8
 9200 1f63 0D       		.uleb128 0xd
 9201 1f64 FA1E0000 		.4byte	.LASF422
 9202 1f68 1E       		.byte	0x1e
 9203 1f69 AB       		.byte	0xab
 9204 1f6a 27090000 		.4byte	0x927
 9205 1f6e 00       		.byte	0
 9206 1f6f 0D       		.uleb128 0xd
 9207 1f70 1B030000 		.4byte	.LASF423
 9208 1f74 1E       		.byte	0x1e
 9209 1f75 AC       		.byte	0xac
 9210 1f76 27090000 		.4byte	0x927
 9211 1f7a 04       		.byte	0x4
 9212 1f7b 0D       		.uleb128 0xd
 9213 1f7c DC0F0000 		.4byte	.LASF424
 9214 1f80 1E       		.byte	0x1e
 9215 1f81 AD       		.byte	0xad
ARM GAS  C:\Users\PCHAUT~1\AppData\Local\Temp\ccJuO4y2.s 			page 163


 9216 1f82 27090000 		.4byte	0x927
 9217 1f86 08       		.byte	0x8
 9218 1f87 0D       		.uleb128 0xd
 9219 1f88 411E0000 		.4byte	.LASF425
 9220 1f8c 1E       		.byte	0x1e
 9221 1f8d AE       		.byte	0xae
 9222 1f8e 27090000 		.4byte	0x927
 9223 1f92 0C       		.byte	0xc
 9224 1f93 11       		.uleb128 0x11
 9225 1f94 49445200 		.ascii	"IDR\000"
 9226 1f98 1E       		.byte	0x1e
 9227 1f99 AF       		.byte	0xaf
 9228 1f9a 27090000 		.4byte	0x927
 9229 1f9e 10       		.byte	0x10
 9230 1f9f 11       		.uleb128 0x11
 9231 1fa0 4F445200 		.ascii	"ODR\000"
 9232 1fa4 1E       		.byte	0x1e
 9233 1fa5 B0       		.byte	0xb0
 9234 1fa6 27090000 		.4byte	0x927
 9235 1faa 14       		.byte	0x14
 9236 1fab 0D       		.uleb128 0xd
 9237 1fac 83130000 		.4byte	.LASF426
 9238 1fb0 1E       		.byte	0x1e
 9239 1fb1 B7       		.byte	0xb7
 9240 1fb2 561F0000 		.4byte	0x1f56
 9241 1fb6 18       		.byte	0x18
 9242 1fb7 0D       		.uleb128 0xd
 9243 1fb8 76190000 		.4byte	.LASF427
 9244 1fbc 1E       		.byte	0x1e
 9245 1fbd B8       		.byte	0xb8
 9246 1fbe 27090000 		.4byte	0x927
 9247 1fc2 1C       		.byte	0x1c
 9248 1fc3 0D       		.uleb128 0xd
 9249 1fc4 8F1C0000 		.4byte	.LASF428
 9250 1fc8 1E       		.byte	0x1e
 9251 1fc9 B9       		.byte	0xb9
 9252 1fca 27090000 		.4byte	0x927
 9253 1fce 20       		.byte	0x20
 9254 1fcf 0D       		.uleb128 0xd
 9255 1fd0 8A1C0000 		.4byte	.LASF429
 9256 1fd4 1E       		.byte	0x1e
 9257 1fd5 BA       		.byte	0xba
 9258 1fd6 27090000 		.4byte	0x927
 9259 1fda 24       		.byte	0x24
 9260 1fdb 11       		.uleb128 0x11
 9261 1fdc 42525200 		.ascii	"BRR\000"
 9262 1fe0 1E       		.byte	0x1e
 9263 1fe1 BB       		.byte	0xbb
 9264 1fe2 27090000 		.4byte	0x927
 9265 1fe6 28       		.byte	0x28
 9266 1fe7 00       		.byte	0
 9267 1fe8 03       		.uleb128 0x3
 9268 1fe9 1A110000 		.4byte	.LASF430
 9269 1fed 1E       		.byte	0x1e
 9270 1fee BC       		.byte	0xbc
 9271 1fef 5B1F0000 		.4byte	0x1f5b
 9272 1ff3 0C       		.uleb128 0xc
ARM GAS  C:\Users\PCHAUT~1\AppData\Local\Temp\ccJuO4y2.s 			page 164


 9273 1ff4 1C       		.byte	0x1c
 9274 1ff5 1E       		.byte	0x1e
 9275 1ff6 C1       		.byte	0xc1
 9276 1ff7 50200000 		.4byte	0x2050
 9277 1ffb 0D       		.uleb128 0xd
 9278 1ffc 68220000 		.4byte	.LASF431
 9279 2000 1E       		.byte	0x1e
 9280 2001 C3       		.byte	0xc3
 9281 2002 1C090000 		.4byte	0x91c
 9282 2006 00       		.byte	0
 9283 2007 0D       		.uleb128 0xd
 9284 2008 06030000 		.4byte	.LASF432
 9285 200c 1E       		.byte	0x1e
 9286 200d C5       		.byte	0xc5
 9287 200e 1C090000 		.4byte	0x91c
 9288 2012 04       		.byte	0x4
 9289 2013 0D       		.uleb128 0xd
 9290 2014 2D020000 		.4byte	.LASF433
 9291 2018 1E       		.byte	0x1e
 9292 2019 C7       		.byte	0xc7
 9293 201a 1C090000 		.4byte	0x91c
 9294 201e 08       		.byte	0x8
 9295 201f 0D       		.uleb128 0xd
 9296 2020 6C210000 		.4byte	.LASF434
 9297 2024 1E       		.byte	0x1e
 9298 2025 C9       		.byte	0xc9
 9299 2026 1C090000 		.4byte	0x91c
 9300 202a 0C       		.byte	0xc
 9301 202b 11       		.uleb128 0x11
 9302 202c 6F647200 		.ascii	"odr\000"
 9303 2030 1E       		.byte	0x1e
 9304 2031 CB       		.byte	0xcb
 9305 2032 1C090000 		.4byte	0x91c
 9306 2036 10       		.byte	0x10
 9307 2037 0D       		.uleb128 0xd
 9308 2038 B11E0000 		.4byte	.LASF435
 9309 203c 1E       		.byte	0x1e
 9310 203d CD       		.byte	0xcd
 9311 203e 1C090000 		.4byte	0x91c
 9312 2042 14       		.byte	0x14
 9313 2043 0D       		.uleb128 0xd
 9314 2044 54000000 		.4byte	.LASF436
 9315 2048 1E       		.byte	0x1e
 9316 2049 CF       		.byte	0xcf
 9317 204a 1C090000 		.4byte	0x91c
 9318 204e 18       		.byte	0x18
 9319 204f 00       		.byte	0
 9320 2050 03       		.uleb128 0x3
 9321 2051 981B0000 		.4byte	.LASF437
 9322 2055 1E       		.byte	0x1e
 9323 2056 D0       		.byte	0xd0
 9324 2057 F31F0000 		.4byte	0x1ff3
 9325 205b 0C       		.uleb128 0xc
 9326 205c FC       		.byte	0xfc
 9327 205d 1E       		.byte	0x1e
 9328 205e D9       		.byte	0xd9
 9329 205f D0200000 		.4byte	0x20d0
ARM GAS  C:\Users\PCHAUT~1\AppData\Local\Temp\ccJuO4y2.s 			page 165


 9330 2063 0D       		.uleb128 0xd
 9331 2064 AA110000 		.4byte	.LASF438
 9332 2068 1E       		.byte	0x1e
 9333 2069 DC       		.byte	0xdc
 9334 206a 50200000 		.4byte	0x2050
 9335 206e 00       		.byte	0
 9336 206f 0D       		.uleb128 0xd
 9337 2070 E5020000 		.4byte	.LASF439
 9338 2074 1E       		.byte	0x1e
 9339 2075 E0       		.byte	0xe0
 9340 2076 50200000 		.4byte	0x2050
 9341 207a 1C       		.byte	0x1c
 9342 207b 0D       		.uleb128 0xd
 9343 207c B3010000 		.4byte	.LASF440
 9344 2080 1E       		.byte	0x1e
 9345 2081 E4       		.byte	0xe4
 9346 2082 50200000 		.4byte	0x2050
 9347 2086 38       		.byte	0x38
 9348 2087 0D       		.uleb128 0xd
 9349 2088 1B0F0000 		.4byte	.LASF441
 9350 208c 1E       		.byte	0x1e
 9351 208d E8       		.byte	0xe8
 9352 208e 50200000 		.4byte	0x2050
 9353 2092 54       		.byte	0x54
 9354 2093 0D       		.uleb128 0xd
 9355 2094 C51A0000 		.4byte	.LASF442
 9356 2098 1E       		.byte	0x1e
 9357 2099 EC       		.byte	0xec
 9358 209a 50200000 		.4byte	0x2050
 9359 209e 70       		.byte	0x70
 9360 209f 0D       		.uleb128 0xd
 9361 20a0 09260000 		.4byte	.LASF443
 9362 20a4 1E       		.byte	0x1e
 9363 20a5 F0       		.byte	0xf0
 9364 20a6 50200000 		.4byte	0x2050
 9365 20aa 8C       		.byte	0x8c
 9366 20ab 0D       		.uleb128 0xd
 9367 20ac 0D0D0000 		.4byte	.LASF444
 9368 20b0 1E       		.byte	0x1e
 9369 20b1 F4       		.byte	0xf4
 9370 20b2 50200000 		.4byte	0x2050
 9371 20b6 A8       		.byte	0xa8
 9372 20b7 0D       		.uleb128 0xd
 9373 20b8 E4180000 		.4byte	.LASF445
 9374 20bc 1E       		.byte	0x1e
 9375 20bd F8       		.byte	0xf8
 9376 20be 50200000 		.4byte	0x2050
 9377 20c2 C4       		.byte	0xc4
 9378 20c3 0D       		.uleb128 0xd
 9379 20c4 FD230000 		.4byte	.LASF446
 9380 20c8 1E       		.byte	0x1e
 9381 20c9 FC       		.byte	0xfc
 9382 20ca 50200000 		.4byte	0x2050
 9383 20ce E0       		.byte	0xe0
 9384 20cf 00       		.byte	0
 9385 20d0 03       		.uleb128 0x3
 9386 20d1 500C0000 		.4byte	.LASF447
ARM GAS  C:\Users\PCHAUT~1\AppData\Local\Temp\ccJuO4y2.s 			page 166


 9387 20d5 1E       		.byte	0x1e
 9388 20d6 FE       		.byte	0xfe
 9389 20d7 5B200000 		.4byte	0x205b
 9390 20db 0F       		.uleb128 0xf
 9391 20dc D0200000 		.4byte	0x20d0
 9392 20e0 07       		.uleb128 0x7
 9393 20e1 EB180000 		.4byte	.LASF448
 9394 20e5 1E       		.byte	0x1e
 9395 20e6 1B01     		.2byte	0x11b
 9396 20e8 EC200000 		.4byte	0x20ec
 9397 20ec 05       		.uleb128 0x5
 9398 20ed 04       		.byte	0x4
 9399 20ee E81F0000 		.4byte	0x1fe8
 9400 20f2 20       		.uleb128 0x20
 9401 20f3 AE1F0000 		.4byte	.LASF449
 9402 20f7 1E       		.byte	0x1e
 9403 20f8 DA01     		.2byte	0x1da
 9404 20fa DB200000 		.4byte	0x20db
 9405 20fe 27       		.uleb128 0x27
 9406 20ff 07       		.byte	0x7
 9407 2100 01       		.byte	0x1
 9408 2101 5E000000 		.4byte	0x5e
 9409 2105 1F       		.byte	0x1f
 9410 2106 46       		.byte	0x46
 9411 2107 30210000 		.4byte	0x2130
 9412 210b 28       		.uleb128 0x28
 9413 210c 34080000 		.4byte	.LASF450
 9414 2110 00       		.byte	0
 9415 2111 28       		.uleb128 0x28
 9416 2112 17160000 		.4byte	.LASF451
 9417 2116 01       		.byte	0x1
 9418 2117 28       		.uleb128 0x28
 9419 2118 F1210000 		.4byte	.LASF452
 9420 211c 02       		.byte	0x2
 9421 211d 28       		.uleb128 0x28
 9422 211e 69130000 		.4byte	.LASF453
 9423 2122 03       		.byte	0x3
 9424 2123 28       		.uleb128 0x28
 9425 2124 62060000 		.4byte	.LASF454
 9426 2128 04       		.byte	0x4
 9427 2129 28       		.uleb128 0x28
 9428 212a 39130000 		.4byte	.LASF455
 9429 212e 05       		.byte	0x5
 9430 212f 00       		.byte	0
 9431 2130 03       		.uleb128 0x3
 9432 2131 2A040000 		.4byte	.LASF456
 9433 2135 1F       		.byte	0x1f
 9434 2136 4D       		.byte	0x4d
 9435 2137 FE200000 		.4byte	0x20fe
 9436 213b 07       		.uleb128 0x7
 9437 213c 55120000 		.4byte	.LASF457
 9438 2140 20       		.byte	0x20
 9439 2141 2701     		.2byte	0x127
 9440 2143 01090000 		.4byte	0x901
 9441 2147 07       		.uleb128 0x7
 9442 2148 2E1D0000 		.4byte	.LASF458
 9443 214c 20       		.byte	0x20
ARM GAS  C:\Users\PCHAUT~1\AppData\Local\Temp\ccJuO4y2.s 			page 167


 9444 214d 2C01     		.2byte	0x12c
 9445 214f 01090000 		.4byte	0x901
 9446 2153 2A       		.uleb128 0x2a
 9447 2154 07       		.byte	0x7
 9448 2155 01       		.byte	0x1
 9449 2156 5E000000 		.4byte	0x5e
 9450 215a 20       		.byte	0x20
 9451 215b 3301     		.2byte	0x133
 9452 215d 6E210000 		.4byte	0x216e
 9453 2161 28       		.uleb128 0x28
 9454 2162 A80F0000 		.4byte	.LASF459
 9455 2166 00       		.byte	0
 9456 2167 28       		.uleb128 0x28
 9457 2168 45020000 		.4byte	.LASF460
 9458 216c 01       		.byte	0x1
 9459 216d 00       		.byte	0
 9460 216e 07       		.uleb128 0x7
 9461 216f 29230000 		.4byte	.LASF461
 9462 2173 20       		.byte	0x20
 9463 2174 3601     		.2byte	0x136
 9464 2176 53210000 		.4byte	0x2153
 9465 217a 07       		.uleb128 0x7
 9466 217b 6A100000 		.4byte	.LASF462
 9467 217f 20       		.byte	0x20
 9468 2180 3B01     		.2byte	0x13b
 9469 2182 86210000 		.4byte	0x2186
 9470 2186 1B       		.uleb128 0x1b
 9471 2187 6A100000 		.4byte	.LASF462
 9472 218b 38       		.byte	0x38
 9473 218c 20       		.byte	0x20
 9474 218d 9F01     		.2byte	0x19f
 9475 218f 16220000 		.4byte	0x2216
 9476 2193 18       		.uleb128 0x18
 9477 2194 15170000 		.4byte	.LASF463
 9478 2198 20       		.byte	0x20
 9479 2199 A301     		.2byte	0x1a3
 9480 219b 30210000 		.4byte	0x2130
 9481 219f 00       		.byte	0
 9482 21a0 18       		.uleb128 0x18
 9483 21a1 D41C0000 		.4byte	.LASF464
 9484 21a5 20       		.byte	0x20
 9485 21a6 A701     		.2byte	0x1a7
 9486 21a8 3D230000 		.4byte	0x233d
 9487 21ac 04       		.byte	0x4
 9488 21ad 18       		.uleb128 0x18
 9489 21ae C9010000 		.4byte	.LASF465
 9490 21b2 20       		.byte	0x20
 9491 21b3 AB01     		.2byte	0x1ab
 9492 21b5 43220000 		.4byte	0x2243
 9493 21b9 08       		.byte	0x8
 9494 21ba 18       		.uleb128 0x18
 9495 21bb DD190000 		.4byte	.LASF466
 9496 21bf 20       		.byte	0x20
 9497 21c0 AF01     		.2byte	0x1af
 9498 21c2 2C000000 		.4byte	0x2c
 9499 21c6 0C       		.byte	0xc
 9500 21c7 18       		.uleb128 0x18
ARM GAS  C:\Users\PCHAUT~1\AppData\Local\Temp\ccJuO4y2.s 			page 168


 9501 21c8 C11F0000 		.4byte	.LASF467
 9502 21cc 20       		.byte	0x20
 9503 21cd B301     		.2byte	0x1b3
 9504 21cf 43230000 		.4byte	0x2343
 9505 21d3 10       		.byte	0x10
 9506 21d4 18       		.uleb128 0x18
 9507 21d5 CE060000 		.4byte	.LASF468
 9508 21d9 20       		.byte	0x20
 9509 21da B801     		.2byte	0x1b8
 9510 21dc F90A0000 		.4byte	0xaf9
 9511 21e0 14       		.byte	0x14
 9512 21e1 18       		.uleb128 0x18
 9513 21e2 F00D0000 		.4byte	.LASF469
 9514 21e6 20       		.byte	0x20
 9515 21e7 BE01     		.2byte	0x1be
 9516 21e9 501B0000 		.4byte	0x1b50
 9517 21ed 18       		.byte	0x18
 9518 21ee 21       		.uleb128 0x21
 9519 21ef 61646300 		.ascii	"adc\000"
 9520 21f3 20       		.byte	0x20
 9521 21f4 C701     		.2byte	0x1c7
 9522 21f6 49230000 		.4byte	0x2349
 9523 21fa 2C       		.byte	0x2c
 9524 21fb 18       		.uleb128 0x18
 9525 21fc A40B0000 		.4byte	.LASF470
 9526 2200 20       		.byte	0x20
 9527 2201 CB01     		.2byte	0x1cb
 9528 2203 4F230000 		.4byte	0x234f
 9529 2207 30       		.byte	0x30
 9530 2208 18       		.uleb128 0x18
 9531 2209 0D190000 		.4byte	.LASF471
 9532 220d 20       		.byte	0x20
 9533 220e CF01     		.2byte	0x1cf
 9534 2210 1C090000 		.4byte	0x91c
 9535 2214 34       		.byte	0x34
 9536 2215 00       		.byte	0
 9537 2216 07       		.uleb128 0x7
 9538 2217 121C0000 		.4byte	.LASF472
 9539 221b 20       		.byte	0x20
 9540 221c 4501     		.2byte	0x145
 9541 221e 22220000 		.4byte	0x2222
 9542 2222 05       		.uleb128 0x5
 9543 2223 04       		.byte	0x4
 9544 2224 28220000 		.4byte	0x2228
 9545 2228 1F       		.uleb128 0x1f
 9546 2229 3D220000 		.4byte	0x223d
 9547 222d 16       		.uleb128 0x16
 9548 222e 3D220000 		.4byte	0x223d
 9549 2232 16       		.uleb128 0x16
 9550 2233 43220000 		.4byte	0x2243
 9551 2237 16       		.uleb128 0x16
 9552 2238 2C000000 		.4byte	0x2c
 9553 223c 00       		.byte	0
 9554 223d 05       		.uleb128 0x5
 9555 223e 04       		.byte	0x4
 9556 223f 7A210000 		.4byte	0x217a
 9557 2243 05       		.uleb128 0x5
ARM GAS  C:\Users\PCHAUT~1\AppData\Local\Temp\ccJuO4y2.s 			page 169


 9558 2244 04       		.byte	0x4
 9559 2245 3B210000 		.4byte	0x213b
 9560 2249 07       		.uleb128 0x7
 9561 224a E4160000 		.4byte	.LASF473
 9562 224e 20       		.byte	0x20
 9563 224f 4E01     		.2byte	0x14e
 9564 2251 55220000 		.4byte	0x2255
 9565 2255 05       		.uleb128 0x5
 9566 2256 04       		.byte	0x4
 9567 2257 5B220000 		.4byte	0x225b
 9568 225b 1F       		.uleb128 0x1f
 9569 225c 6B220000 		.4byte	0x226b
 9570 2260 16       		.uleb128 0x16
 9571 2261 3D220000 		.4byte	0x223d
 9572 2265 16       		.uleb128 0x16
 9573 2266 6E210000 		.4byte	0x216e
 9574 226a 00       		.byte	0
 9575 226b 1C       		.uleb128 0x1c
 9576 226c 28       		.byte	0x28
 9577 226d 20       		.byte	0x20
 9578 226e 5801     		.2byte	0x158
 9579 2270 04230000 		.4byte	0x2304
 9580 2274 18       		.uleb128 0x18
 9581 2275 54220000 		.4byte	.LASF474
 9582 2279 20       		.byte	0x20
 9583 227a 5C01     		.2byte	0x15c
 9584 227c 951E0000 		.4byte	0x1e95
 9585 2280 00       		.byte	0
 9586 2281 18       		.uleb128 0x18
 9587 2282 6C110000 		.4byte	.LASF475
 9588 2286 20       		.byte	0x20
 9589 2287 6001     		.2byte	0x160
 9590 2289 47210000 		.4byte	0x2147
 9591 228d 02       		.byte	0x2
 9592 228e 18       		.uleb128 0x18
 9593 228f 5D0A0000 		.4byte	.LASF476
 9594 2293 20       		.byte	0x20
 9595 2294 6401     		.2byte	0x164
 9596 2296 16220000 		.4byte	0x2216
 9597 229a 04       		.byte	0x4
 9598 229b 18       		.uleb128 0x18
 9599 229c 1C240000 		.4byte	.LASF477
 9600 22a0 20       		.byte	0x20
 9601 22a1 6801     		.2byte	0x168
 9602 22a3 49220000 		.4byte	0x2249
 9603 22a7 08       		.byte	0x8
 9604 22a8 21       		.uleb128 0x21
 9605 22a9 63723100 		.ascii	"cr1\000"
 9606 22ad 20       		.byte	0x20
 9607 22ae 6F01     		.2byte	0x16f
 9608 22b0 1C090000 		.4byte	0x91c
 9609 22b4 0C       		.byte	0xc
 9610 22b5 21       		.uleb128 0x21
 9611 22b6 63723200 		.ascii	"cr2\000"
 9612 22ba 20       		.byte	0x20
 9613 22bb 7601     		.2byte	0x176
 9614 22bd 1C090000 		.4byte	0x91c
ARM GAS  C:\Users\PCHAUT~1\AppData\Local\Temp\ccJuO4y2.s 			page 170


 9615 22c1 10       		.byte	0x10
 9616 22c2 18       		.uleb128 0x18
 9617 22c3 29180000 		.4byte	.LASF478
 9618 22c7 20       		.byte	0x20
 9619 22c8 7C01     		.2byte	0x17c
 9620 22ca 1C090000 		.4byte	0x91c
 9621 22ce 14       		.byte	0x14
 9622 22cf 18       		.uleb128 0x18
 9623 22d0 2F180000 		.4byte	.LASF479
 9624 22d4 20       		.byte	0x20
 9625 22d5 8201     		.2byte	0x182
 9626 22d7 1C090000 		.4byte	0x91c
 9627 22db 18       		.byte	0x18
 9628 22dc 18       		.uleb128 0x18
 9629 22dd 48010000 		.4byte	.LASF480
 9630 22e1 20       		.byte	0x20
 9631 22e2 8701     		.2byte	0x187
 9632 22e4 1C090000 		.4byte	0x91c
 9633 22e8 1C       		.byte	0x1c
 9634 22e9 18       		.uleb128 0x18
 9635 22ea F7240000 		.4byte	.LASF481
 9636 22ee 20       		.byte	0x20
 9637 22ef 8C01     		.2byte	0x18c
 9638 22f1 1C090000 		.4byte	0x91c
 9639 22f5 20       		.byte	0x20
 9640 22f6 18       		.uleb128 0x18
 9641 22f7 FC240000 		.4byte	.LASF482
 9642 22fb 20       		.byte	0x20
 9643 22fc 9101     		.2byte	0x191
 9644 22fe 1C090000 		.4byte	0x91c
 9645 2302 24       		.byte	0x24
 9646 2303 00       		.byte	0
 9647 2304 07       		.uleb128 0x7
 9648 2305 69050000 		.4byte	.LASF483
 9649 2309 20       		.byte	0x20
 9650 230a 9201     		.2byte	0x192
 9651 230c 6B220000 		.4byte	0x226b
 9652 2310 0F       		.uleb128 0xf
 9653 2311 04230000 		.4byte	0x2304
 9654 2315 1C       		.uleb128 0x1c
 9655 2316 04       		.byte	0x4
 9656 2317 20       		.byte	0x20
 9657 2318 9801     		.2byte	0x198
 9658 231a 2C230000 		.4byte	0x232c
 9659 231e 18       		.uleb128 0x18
 9660 231f 24250000 		.4byte	.LASF484
 9661 2323 20       		.byte	0x20
 9662 2324 9901     		.2byte	0x199
 9663 2326 1C090000 		.4byte	0x91c
 9664 232a 00       		.byte	0
 9665 232b 00       		.byte	0
 9666 232c 07       		.uleb128 0x7
 9667 232d 82100000 		.4byte	.LASF485
 9668 2331 20       		.byte	0x20
 9669 2332 9A01     		.2byte	0x19a
 9670 2334 15230000 		.4byte	0x2315
 9671 2338 0F       		.uleb128 0xf
ARM GAS  C:\Users\PCHAUT~1\AppData\Local\Temp\ccJuO4y2.s 			page 171


 9672 2339 2C230000 		.4byte	0x232c
 9673 233d 05       		.uleb128 0x5
 9674 233e 04       		.byte	0x4
 9675 233f 38230000 		.4byte	0x2338
 9676 2343 05       		.uleb128 0x5
 9677 2344 04       		.byte	0x4
 9678 2345 10230000 		.4byte	0x2310
 9679 2349 05       		.uleb128 0x5
 9680 234a 04       		.byte	0x4
 9681 234b 7C0E0000 		.4byte	0xe7c
 9682 234f 05       		.uleb128 0x5
 9683 2350 04       		.byte	0x4
 9684 2351 641D0000 		.4byte	0x1d64
 9685 2355 20       		.uleb128 0x20
 9686 2356 F6180000 		.4byte	.LASF486
 9687 235a 20       		.byte	0x20
 9688 235b 1402     		.2byte	0x214
 9689 235d 7A210000 		.4byte	0x217a
 9690 2361 20       		.uleb128 0x20
 9691 2362 FC180000 		.4byte	.LASF487
 9692 2366 20       		.byte	0x20
 9693 2367 1802     		.2byte	0x218
 9694 2369 7A210000 		.4byte	0x217a
 9695 236d 20       		.uleb128 0x20
 9696 236e 02190000 		.4byte	.LASF488
 9697 2372 20       		.byte	0x20
 9698 2373 1C02     		.2byte	0x21c
 9699 2375 7A210000 		.4byte	0x217a
 9700 2379 27       		.uleb128 0x27
 9701 237a 07       		.byte	0x7
 9702 237b 01       		.byte	0x1
 9703 237c 5E000000 		.4byte	0x5e
 9704 2380 21       		.byte	0x21
 9705 2381 5F       		.byte	0x5f
 9706 2382 A5230000 		.4byte	0x23a5
 9707 2386 28       		.uleb128 0x28
 9708 2387 920E0000 		.4byte	.LASF489
 9709 238b 00       		.byte	0
 9710 238c 28       		.uleb128 0x28
 9711 238d E2000000 		.4byte	.LASF490
 9712 2391 01       		.byte	0x1
 9713 2392 28       		.uleb128 0x28
 9714 2393 38000000 		.4byte	.LASF491
 9715 2397 02       		.byte	0x2
 9716 2398 28       		.uleb128 0x28
 9717 2399 FB190000 		.4byte	.LASF492
 9718 239d 03       		.byte	0x3
 9719 239e 28       		.uleb128 0x28
 9720 239f 0C0B0000 		.4byte	.LASF493
 9721 23a3 04       		.byte	0x4
 9722 23a4 00       		.byte	0
 9723 23a5 03       		.uleb128 0x3
 9724 23a6 D4050000 		.4byte	.LASF494
 9725 23aa 21       		.byte	0x21
 9726 23ab 65       		.byte	0x65
 9727 23ac 79230000 		.4byte	0x2379
 9728 23b0 0A       		.uleb128 0xa
ARM GAS  C:\Users\PCHAUT~1\AppData\Local\Temp\ccJuO4y2.s 			page 172


 9729 23b1 E6080000 		.4byte	0x8e6
 9730 23b5 C0230000 		.4byte	0x23c0
 9731 23b9 0B       		.uleb128 0xb
 9732 23ba 37000000 		.4byte	0x37
 9733 23be 07       		.byte	0x7
 9734 23bf 00       		.byte	0
 9735 23c0 0C       		.uleb128 0xc
 9736 23c1 08       		.byte	0x8
 9737 23c2 22       		.byte	0x22
 9738 23c3 F4       		.byte	0xf4
 9739 23c4 E2230000 		.4byte	0x23e2
 9740 23c8 11       		.uleb128 0x11
 9741 23c9 6D637200 		.ascii	"mcr\000"
 9742 23cd 22       		.byte	0x22
 9743 23ce FA       		.byte	0xfa
 9744 23cf 1C090000 		.4byte	0x91c
 9745 23d3 00       		.byte	0
 9746 23d4 21       		.uleb128 0x21
 9747 23d5 62747200 		.ascii	"btr\000"
 9748 23d9 22       		.byte	0x22
 9749 23da 0001     		.2byte	0x100
 9750 23dc 1C090000 		.4byte	0x91c
 9751 23e0 04       		.byte	0x4
 9752 23e1 00       		.byte	0
 9753 23e2 07       		.uleb128 0x7
 9754 23e3 BB1A0000 		.4byte	.LASF495
 9755 23e7 22       		.byte	0x22
 9756 23e8 0101     		.2byte	0x101
 9757 23ea C0230000 		.4byte	0x23c0
 9758 23ee 0F       		.uleb128 0xf
 9759 23ef E2230000 		.4byte	0x23e2
 9760 23f3 1C       		.uleb128 0x1c
 9761 23f4 30       		.byte	0x30
 9762 23f5 22       		.byte	0x22
 9763 23f6 0601     		.2byte	0x106
 9764 23f8 7F240000 		.4byte	0x247f
 9765 23fc 18       		.uleb128 0x18
 9766 23fd 15170000 		.4byte	.LASF463
 9767 2401 22       		.byte	0x22
 9768 2402 0A01     		.2byte	0x10a
 9769 2404 A5230000 		.4byte	0x23a5
 9770 2408 00       		.byte	0
 9771 2409 18       		.uleb128 0x18
 9772 240a D41C0000 		.4byte	.LASF464
 9773 240e 22       		.byte	0x22
 9774 240f 0E01     		.2byte	0x10e
 9775 2411 7F240000 		.4byte	0x247f
 9776 2415 04       		.byte	0x4
 9777 2416 18       		.uleb128 0x18
 9778 2417 920A0000 		.4byte	.LASF496
 9779 241b 22       		.byte	0x22
 9780 241c 1201     		.2byte	0x112
 9781 241e 2E0B0000 		.4byte	0xb2e
 9782 2422 08       		.byte	0x8
 9783 2423 18       		.uleb128 0x18
 9784 2424 951F0000 		.4byte	.LASF497
 9785 2428 22       		.byte	0x22
ARM GAS  C:\Users\PCHAUT~1\AppData\Local\Temp\ccJuO4y2.s 			page 173


 9786 2429 1601     		.2byte	0x116
 9787 242b 2E0B0000 		.4byte	0xb2e
 9788 242f 10       		.byte	0x10
 9789 2430 18       		.uleb128 0x18
 9790 2431 921A0000 		.4byte	.LASF498
 9791 2435 22       		.byte	0x22
 9792 2436 2301     		.2byte	0x123
 9793 2438 D41B0000 		.4byte	0x1bd4
 9794 243c 18       		.byte	0x18
 9795 243d 18       		.uleb128 0x18
 9796 243e EC0C0000 		.4byte	.LASF499
 9797 2442 22       		.byte	0x22
 9798 2443 2A01     		.2byte	0x12a
 9799 2445 D41B0000 		.4byte	0x1bd4
 9800 2449 1C       		.byte	0x1c
 9801 244a 18       		.uleb128 0x18
 9802 244b 60110000 		.4byte	.LASF500
 9803 244f 22       		.byte	0x22
 9804 2450 3001     		.2byte	0x130
 9805 2452 D41B0000 		.4byte	0x1bd4
 9806 2456 20       		.byte	0x20
 9807 2457 18       		.uleb128 0x18
 9808 2458 6F030000 		.4byte	.LASF501
 9809 245c 22       		.byte	0x22
 9810 245d 3501     		.2byte	0x135
 9811 245f D41B0000 		.4byte	0x1bd4
 9812 2463 24       		.byte	0x24
 9813 2464 18       		.uleb128 0x18
 9814 2465 480A0000 		.4byte	.LASF502
 9815 2469 22       		.byte	0x22
 9816 246a 3901     		.2byte	0x139
 9817 246c D41B0000 		.4byte	0x1bd4
 9818 2470 28       		.byte	0x28
 9819 2471 21       		.uleb128 0x21
 9820 2472 63616E00 		.ascii	"can\000"
 9821 2476 22       		.byte	0x22
 9822 2477 3F01     		.2byte	0x13f
 9823 2479 85240000 		.4byte	0x2485
 9824 247d 2C       		.byte	0x2c
 9825 247e 00       		.byte	0
 9826 247f 05       		.uleb128 0x5
 9827 2480 04       		.byte	0x4
 9828 2481 EE230000 		.4byte	0x23ee
 9829 2485 05       		.uleb128 0x5
 9830 2486 04       		.byte	0x4
 9831 2487 C5100000 		.4byte	0x10c5
 9832 248b 07       		.uleb128 0x7
 9833 248c C5030000 		.4byte	.LASF503
 9834 2490 22       		.byte	0x22
 9835 2491 4001     		.2byte	0x140
 9836 2493 F3230000 		.4byte	0x23f3
 9837 2497 20       		.uleb128 0x20
 9838 2498 1C210000 		.4byte	.LASF504
 9839 249c 22       		.byte	0x22
 9840 249d 4B01     		.2byte	0x14b
 9841 249f 8B240000 		.4byte	0x248b
 9842 24a3 27       		.uleb128 0x27
ARM GAS  C:\Users\PCHAUT~1\AppData\Local\Temp\ccJuO4y2.s 			page 174


 9843 24a4 07       		.byte	0x7
 9844 24a5 01       		.byte	0x1
 9845 24a6 5E000000 		.4byte	0x5e
 9846 24aa 23       		.byte	0x23
 9847 24ab 46       		.byte	0x46
 9848 24ac D5240000 		.4byte	0x24d5
 9849 24b0 28       		.uleb128 0x28
 9850 24b1 231D0000 		.4byte	.LASF505
 9851 24b5 00       		.byte	0
 9852 24b6 28       		.uleb128 0x28
 9853 24b7 8B220000 		.4byte	.LASF506
 9854 24bb 01       		.byte	0x1
 9855 24bc 28       		.uleb128 0x28
 9856 24bd E40F0000 		.4byte	.LASF507
 9857 24c1 02       		.byte	0x2
 9858 24c2 28       		.uleb128 0x28
 9859 24c3 0A170000 		.4byte	.LASF508
 9860 24c7 03       		.byte	0x3
 9861 24c8 28       		.uleb128 0x28
 9862 24c9 AF1C0000 		.4byte	.LASF509
 9863 24cd 04       		.byte	0x4
 9864 24ce 28       		.uleb128 0x28
 9865 24cf C7100000 		.4byte	.LASF510
 9866 24d3 05       		.byte	0x5
 9867 24d4 00       		.byte	0
 9868 24d5 03       		.uleb128 0x3
 9869 24d6 2C1A0000 		.4byte	.LASF511
 9870 24da 23       		.byte	0x23
 9871 24db 4D       		.byte	0x4d
 9872 24dc A3240000 		.4byte	0x24a3
 9873 24e0 0C       		.uleb128 0xc
 9874 24e1 1C       		.byte	0x1c
 9875 24e2 24       		.byte	0x24
 9876 24e3 F9       		.byte	0xf9
 9877 24e4 43250000 		.4byte	0x2543
 9878 24e8 11       		.uleb128 0x11
 9879 24e9 64616300 		.ascii	"dac\000"
 9880 24ed 24       		.byte	0x24
 9881 24ee FD       		.byte	0xfd
 9882 24ef 43250000 		.4byte	0x2543
 9883 24f3 00       		.byte	0
 9884 24f4 18       		.uleb128 0x18
 9885 24f5 8E190000 		.4byte	.LASF512
 9886 24f9 24       		.byte	0x24
 9887 24fa 0101     		.2byte	0x101
 9888 24fc 1C090000 		.4byte	0x91c
 9889 2500 04       		.byte	0x4
 9890 2501 18       		.uleb128 0x18
 9891 2502 D5060000 		.4byte	.LASF513
 9892 2506 24       		.byte	0x24
 9893 2507 0501     		.2byte	0x105
 9894 2509 1C090000 		.4byte	0x91c
 9895 250d 08       		.byte	0x8
 9896 250e 18       		.uleb128 0x18
 9897 250f DC010000 		.4byte	.LASF514
 9898 2513 24       		.byte	0x24
 9899 2514 0901     		.2byte	0x109
ARM GAS  C:\Users\PCHAUT~1\AppData\Local\Temp\ccJuO4y2.s 			page 175


 9900 2516 1C090000 		.4byte	0x91c
 9901 251a 0C       		.byte	0xc
 9902 251b 21       		.uleb128 0x21
 9903 251c 646D6100 		.ascii	"dma\000"
 9904 2520 24       		.byte	0x24
 9905 2521 0D01     		.2byte	0x10d
 9906 2523 4F230000 		.4byte	0x234f
 9907 2527 10       		.byte	0x10
 9908 2528 18       		.uleb128 0x18
 9909 2529 0D190000 		.4byte	.LASF471
 9910 252d 24       		.byte	0x24
 9911 252e 1101     		.2byte	0x111
 9912 2530 1C090000 		.4byte	0x91c
 9913 2534 14       		.byte	0x14
 9914 2535 18       		.uleb128 0x18
 9915 2536 BC180000 		.4byte	.LASF515
 9916 253a 24       		.byte	0x24
 9917 253b 1501     		.2byte	0x115
 9918 253d 1C090000 		.4byte	0x91c
 9919 2541 18       		.byte	0x18
 9920 2542 00       		.byte	0
 9921 2543 05       		.uleb128 0x5
 9922 2544 04       		.byte	0x4
 9923 2545 8F110000 		.4byte	0x118f
 9924 2549 07       		.uleb128 0x7
 9925 254a 22030000 		.4byte	.LASF516
 9926 254e 24       		.byte	0x24
 9927 254f 1601     		.2byte	0x116
 9928 2551 E0240000 		.4byte	0x24e0
 9929 2555 0F       		.uleb128 0xf
 9930 2556 49250000 		.4byte	0x2549
 9931 255a 07       		.uleb128 0x7
 9932 255b FB0D0000 		.4byte	.LASF517
 9933 255f 24       		.byte	0x24
 9934 2560 1B01     		.2byte	0x11b
 9935 2562 66250000 		.4byte	0x2566
 9936 2566 1B       		.uleb128 0x1b
 9937 2567 FB0D0000 		.4byte	.LASF517
 9938 256b 30       		.byte	0x30
 9939 256c 24       		.byte	0x24
 9940 256d 7B01     		.2byte	0x17b
 9941 256f DC250000 		.4byte	0x25dc
 9942 2573 18       		.uleb128 0x18
 9943 2574 15170000 		.4byte	.LASF463
 9944 2578 24       		.byte	0x24
 9945 2579 7F01     		.2byte	0x17f
 9946 257b D5240000 		.4byte	0x24d5
 9947 257f 00       		.byte	0
 9948 2580 18       		.uleb128 0x18
 9949 2581 C11F0000 		.4byte	.LASF467
 9950 2585 24       		.byte	0x24
 9951 2586 8301     		.2byte	0x183
 9952 2588 1A270000 		.4byte	0x271a
 9953 258c 04       		.byte	0x4
 9954 258d 18       		.uleb128 0x18
 9955 258e C9010000 		.4byte	.LASF465
 9956 2592 24       		.byte	0x24
ARM GAS  C:\Users\PCHAUT~1\AppData\Local\Temp\ccJuO4y2.s 			page 176


 9957 2593 8701     		.2byte	0x187
 9958 2595 41260000 		.4byte	0x2641
 9959 2599 08       		.byte	0x8
 9960 259a 18       		.uleb128 0x18
 9961 259b DD190000 		.4byte	.LASF466
 9962 259f 24       		.byte	0x24
 9963 25a0 8B01     		.2byte	0x18b
 9964 25a2 01090000 		.4byte	0x901
 9965 25a6 0C       		.byte	0xc
 9966 25a7 18       		.uleb128 0x18
 9967 25a8 D41C0000 		.4byte	.LASF464
 9968 25ac 24       		.byte	0x24
 9969 25ad 8F01     		.2byte	0x18f
 9970 25af 20270000 		.4byte	0x2720
 9971 25b3 10       		.byte	0x10
 9972 25b4 18       		.uleb128 0x18
 9973 25b5 CE060000 		.4byte	.LASF468
 9974 25b9 24       		.byte	0x24
 9975 25ba 9401     		.2byte	0x194
 9976 25bc F90A0000 		.4byte	0xaf9
 9977 25c0 14       		.byte	0x14
 9978 25c1 18       		.uleb128 0x18
 9979 25c2 F00D0000 		.4byte	.LASF469
 9980 25c6 24       		.byte	0x24
 9981 25c7 9A01     		.2byte	0x19a
 9982 25c9 501B0000 		.4byte	0x1b50
 9983 25cd 18       		.byte	0x18
 9984 25ce 18       		.uleb128 0x18
 9985 25cf E1110000 		.4byte	.LASF518
 9986 25d3 24       		.byte	0x24
 9987 25d4 A301     		.2byte	0x1a3
 9988 25d6 26270000 		.4byte	0x2726
 9989 25da 2C       		.byte	0x2c
 9990 25db 00       		.byte	0
 9991 25dc 07       		.uleb128 0x7
 9992 25dd 641A0000 		.4byte	.LASF519
 9993 25e1 24       		.byte	0x24
 9994 25e2 2001     		.2byte	0x120
 9995 25e4 01090000 		.4byte	0x901
 9996 25e8 0F       		.uleb128 0xf
 9997 25e9 DC250000 		.4byte	0x25dc
 9998 25ed 2A       		.uleb128 0x2a
 9999 25ee 07       		.byte	0x7
 10000 25ef 01       		.byte	0x1
 10001 25f0 5E000000 		.4byte	0x5e
 10002 25f4 24       		.byte	0x24
 10003 25f5 2701     		.2byte	0x127
 10004 25f7 08260000 		.4byte	0x2608
 10005 25fb 28       		.uleb128 0x28
 10006 25fc FF1A0000 		.4byte	.LASF520
 10007 2600 00       		.byte	0
 10008 2601 28       		.uleb128 0x28
 10009 2602 2C0A0000 		.4byte	.LASF521
 10010 2606 01       		.byte	0x1
 10011 2607 00       		.byte	0
 10012 2608 07       		.uleb128 0x7
 10013 2609 3F120000 		.4byte	.LASF522
ARM GAS  C:\Users\PCHAUT~1\AppData\Local\Temp\ccJuO4y2.s 			page 177


 10014 260d 24       		.byte	0x24
 10015 260e 2A01     		.2byte	0x12a
 10016 2610 ED250000 		.4byte	0x25ed
 10017 2614 07       		.uleb128 0x7
 10018 2615 41070000 		.4byte	.LASF523
 10019 2619 24       		.byte	0x24
 10020 261a 3401     		.2byte	0x134
 10021 261c 20260000 		.4byte	0x2620
 10022 2620 05       		.uleb128 0x5
 10023 2621 04       		.byte	0x4
 10024 2622 26260000 		.4byte	0x2626
 10025 2626 1F       		.uleb128 0x1f
 10026 2627 3B260000 		.4byte	0x263b
 10027 262b 16       		.uleb128 0x16
 10028 262c 3B260000 		.4byte	0x263b
 10029 2630 16       		.uleb128 0x16
 10030 2631 41260000 		.4byte	0x2641
 10031 2635 16       		.uleb128 0x16
 10032 2636 2C000000 		.4byte	0x2c
 10033 263a 00       		.byte	0
 10034 263b 05       		.uleb128 0x5
 10035 263c 04       		.byte	0x4
 10036 263d 5A250000 		.4byte	0x255a
 10037 2641 05       		.uleb128 0x5
 10038 2642 04       		.byte	0x4
 10039 2643 E8250000 		.4byte	0x25e8
 10040 2647 07       		.uleb128 0x7
 10041 2648 72210000 		.4byte	.LASF524
 10042 264c 24       		.byte	0x24
 10043 264d 3F01     		.2byte	0x13f
 10044 264f 53260000 		.4byte	0x2653
 10045 2653 05       		.uleb128 0x5
 10046 2654 04       		.byte	0x4
 10047 2655 59260000 		.4byte	0x2659
 10048 2659 1F       		.uleb128 0x1f
 10049 265a 69260000 		.4byte	0x2669
 10050 265e 16       		.uleb128 0x16
 10051 265f 3B260000 		.4byte	0x263b
 10052 2663 16       		.uleb128 0x16
 10053 2664 08260000 		.4byte	0x2608
 10054 2668 00       		.byte	0
 10055 2669 2A       		.uleb128 0x2a
 10056 266a 07       		.byte	0x7
 10057 266b 01       		.byte	0x1
 10058 266c 5E000000 		.4byte	0x5e
 10059 2670 24       		.byte	0x24
 10060 2671 4401     		.2byte	0x144
 10061 2673 8A260000 		.4byte	0x268a
 10062 2677 28       		.uleb128 0x28
 10063 2678 7D1D0000 		.4byte	.LASF525
 10064 267c 00       		.byte	0
 10065 267d 28       		.uleb128 0x28
 10066 267e D0130000 		.4byte	.LASF526
 10067 2682 01       		.byte	0x1
 10068 2683 28       		.uleb128 0x28
 10069 2684 AD170000 		.4byte	.LASF527
 10070 2688 02       		.byte	0x2
ARM GAS  C:\Users\PCHAUT~1\AppData\Local\Temp\ccJuO4y2.s 			page 178


 10071 2689 00       		.byte	0
 10072 268a 07       		.uleb128 0x7
 10073 268b 970B0000 		.4byte	.LASF528
 10074 268f 24       		.byte	0x24
 10075 2690 4D01     		.2byte	0x14d
 10076 2692 69260000 		.4byte	0x2669
 10077 2696 1C       		.uleb128 0x1c
 10078 2697 10       		.byte	0x10
 10079 2698 24       		.byte	0x24
 10080 2699 5201     		.2byte	0x152
 10081 269b D4260000 		.4byte	0x26d4
 10082 269f 18       		.uleb128 0x18
 10083 26a0 6C110000 		.4byte	.LASF475
 10084 26a4 24       		.byte	0x24
 10085 26a5 5601     		.2byte	0x156
 10086 26a7 1C090000 		.4byte	0x91c
 10087 26ab 00       		.byte	0
 10088 26ac 18       		.uleb128 0x18
 10089 26ad 5D0A0000 		.4byte	.LASF476
 10090 26b1 24       		.byte	0x24
 10091 26b2 5A01     		.2byte	0x15a
 10092 26b4 14260000 		.4byte	0x2614
 10093 26b8 04       		.byte	0x4
 10094 26b9 18       		.uleb128 0x18
 10095 26ba 1C240000 		.4byte	.LASF477
 10096 26be 24       		.byte	0x24
 10097 26bf 5E01     		.2byte	0x15e
 10098 26c1 47260000 		.4byte	0x2647
 10099 26c5 08       		.byte	0x8
 10100 26c6 18       		.uleb128 0x18
 10101 26c7 79150000 		.4byte	.LASF529
 10102 26cb 24       		.byte	0x24
 10103 26cc 6601     		.2byte	0x166
 10104 26ce 1C090000 		.4byte	0x91c
 10105 26d2 0C       		.byte	0xc
 10106 26d3 00       		.byte	0
 10107 26d4 07       		.uleb128 0x7
 10108 26d5 0F130000 		.4byte	.LASF530
 10109 26d9 24       		.byte	0x24
 10110 26da 6701     		.2byte	0x167
 10111 26dc 96260000 		.4byte	0x2696
 10112 26e0 0F       		.uleb128 0xf
 10113 26e1 D4260000 		.4byte	0x26d4
 10114 26e5 1C       		.uleb128 0x1c
 10115 26e6 04       		.byte	0x4
 10116 26e7 24       		.byte	0x24
 10117 26e8 6C01     		.2byte	0x16c
 10118 26ea 09270000 		.4byte	0x2709
 10119 26ee 18       		.uleb128 0x18
 10120 26ef 460C0000 		.4byte	.LASF531
 10121 26f3 24       		.byte	0x24
 10122 26f4 7101     		.2byte	0x171
 10123 26f6 DC250000 		.4byte	0x25dc
 10124 26fa 00       		.byte	0
 10125 26fb 18       		.uleb128 0x18
 10126 26fc 1A010000 		.4byte	.LASF532
 10127 2700 24       		.byte	0x24
ARM GAS  C:\Users\PCHAUT~1\AppData\Local\Temp\ccJuO4y2.s 			page 179


 10128 2701 7501     		.2byte	0x175
 10129 2703 8A260000 		.4byte	0x268a
 10130 2707 02       		.byte	0x2
 10131 2708 00       		.byte	0
 10132 2709 07       		.uleb128 0x7
 10133 270a 050E0000 		.4byte	.LASF533
 10134 270e 24       		.byte	0x24
 10135 270f 7601     		.2byte	0x176
 10136 2711 E5260000 		.4byte	0x26e5
 10137 2715 0F       		.uleb128 0xf
 10138 2716 09270000 		.4byte	0x2709
 10139 271a 05       		.uleb128 0x5
 10140 271b 04       		.byte	0x4
 10141 271c E0260000 		.4byte	0x26e0
 10142 2720 05       		.uleb128 0x5
 10143 2721 04       		.byte	0x4
 10144 2722 15270000 		.4byte	0x2715
 10145 2726 05       		.uleb128 0x5
 10146 2727 04       		.byte	0x4
 10147 2728 55250000 		.4byte	0x2555
 10148 272c 20       		.uleb128 0x20
 10149 272d BF030000 		.4byte	.LASF534
 10150 2731 24       		.byte	0x24
 10151 2732 B301     		.2byte	0x1b3
 10152 2734 5A250000 		.4byte	0x255a
 10153 2738 27       		.uleb128 0x27
 10154 2739 07       		.byte	0x7
 10155 273a 01       		.byte	0x1
 10156 273b 5E000000 		.4byte	0x5e
 10157 273f 25       		.byte	0x25
 10158 2740 3F       		.byte	0x3f
 10159 2741 58270000 		.4byte	0x2758
 10160 2745 28       		.uleb128 0x28
 10161 2746 010B0000 		.4byte	.LASF535
 10162 274a 00       		.byte	0
 10163 274b 28       		.uleb128 0x28
 10164 274c 10260000 		.4byte	.LASF536
 10165 2750 01       		.byte	0x1
 10166 2751 28       		.uleb128 0x28
 10167 2752 16020000 		.4byte	.LASF537
 10168 2756 02       		.byte	0x2
 10169 2757 00       		.byte	0
 10170 2758 03       		.uleb128 0x3
 10171 2759 311C0000 		.4byte	.LASF538
 10172 275d 25       		.byte	0x25
 10173 275e 43       		.byte	0x43
 10174 275f 38270000 		.4byte	0x2738
 10175 2763 03       		.uleb128 0x3
 10176 2764 6E080000 		.4byte	.LASF539
 10177 2768 25       		.byte	0x25
 10178 2769 48       		.byte	0x48
 10179 276a 6E270000 		.4byte	0x276e
 10180 276e 10       		.uleb128 0x10
 10181 276f 6E080000 		.4byte	.LASF539
 10182 2773 08       		.byte	0x8
 10183 2774 26       		.byte	0x26
 10184 2775 71       		.byte	0x71
ARM GAS  C:\Users\PCHAUT~1\AppData\Local\Temp\ccJuO4y2.s 			page 180


 10185 2776 93270000 		.4byte	0x2793
 10186 277a 0D       		.uleb128 0xd
 10187 277b 15170000 		.4byte	.LASF463
 10188 277f 26       		.byte	0x26
 10189 2780 75       		.byte	0x75
 10190 2781 58270000 		.4byte	0x2758
 10191 2785 00       		.byte	0
 10192 2786 0D       		.uleb128 0xd
 10193 2787 D41C0000 		.4byte	.LASF464
 10194 278b 26       		.byte	0x26
 10195 278c 79       		.byte	0x79
 10196 278d 25280000 		.4byte	0x2825
 10197 2791 04       		.byte	0x4
 10198 2792 00       		.byte	0
 10199 2793 03       		.uleb128 0x3
 10200 2794 51240000 		.4byte	.LASF540
 10201 2798 26       		.byte	0x26
 10202 2799 47       		.byte	0x47
 10203 279a 1C090000 		.4byte	0x91c
 10204 279e 03       		.uleb128 0x3
 10205 279f 871F0000 		.4byte	.LASF541
 10206 27a3 26       		.byte	0x26
 10207 27a4 4F       		.byte	0x4f
 10208 27a5 A9270000 		.4byte	0x27a9
 10209 27a9 05       		.uleb128 0x5
 10210 27aa 04       		.byte	0x4
 10211 27ab AF270000 		.4byte	0x27af
 10212 27af 1F       		.uleb128 0x1f
 10213 27b0 BF270000 		.4byte	0x27bf
 10214 27b4 16       		.uleb128 0x16
 10215 27b5 BF270000 		.4byte	0x27bf
 10216 27b9 16       		.uleb128 0x16
 10217 27ba 93270000 		.4byte	0x2793
 10218 27be 00       		.byte	0
 10219 27bf 05       		.uleb128 0x5
 10220 27c0 04       		.byte	0x4
 10221 27c1 63270000 		.4byte	0x2763
 10222 27c5 0C       		.uleb128 0xc
 10223 27c6 08       		.byte	0x8
 10224 27c7 26       		.byte	0x26
 10225 27c8 54       		.byte	0x54
 10226 27c9 E5270000 		.4byte	0x27e5
 10227 27cd 0D       		.uleb128 0xd
 10228 27ce 53080000 		.4byte	.LASF542
 10229 27d2 26       		.byte	0x26
 10230 27d3 58       		.byte	0x58
 10231 27d4 1C090000 		.4byte	0x91c
 10232 27d8 00       		.byte	0
 10233 27d9 11       		.uleb128 0x11
 10234 27da 636200   		.ascii	"cb\000"
 10235 27dd 26       		.byte	0x26
 10236 27de 5F       		.byte	0x5f
 10237 27df 9E270000 		.4byte	0x279e
 10238 27e3 04       		.byte	0x4
 10239 27e4 00       		.byte	0
 10240 27e5 03       		.uleb128 0x3
 10241 27e6 CB0F0000 		.4byte	.LASF543
ARM GAS  C:\Users\PCHAUT~1\AppData\Local\Temp\ccJuO4y2.s 			page 181


 10242 27ea 26       		.byte	0x26
 10243 27eb 60       		.byte	0x60
 10244 27ec C5270000 		.4byte	0x27c5
 10245 27f0 0C       		.uleb128 0xc
 10246 27f1 B8       		.byte	0xb8
 10247 27f2 26       		.byte	0x26
 10248 27f3 66       		.byte	0x66
 10249 27f4 05280000 		.4byte	0x2805
 10250 27f8 0D       		.uleb128 0xd
 10251 27f9 92210000 		.4byte	.LASF544
 10252 27fd 26       		.byte	0x26
 10253 27fe 6A       		.byte	0x6a
 10254 27ff 05280000 		.4byte	0x2805
 10255 2803 00       		.byte	0
 10256 2804 00       		.byte	0
 10257 2805 0A       		.uleb128 0xa
 10258 2806 E5270000 		.4byte	0x27e5
 10259 280a 15280000 		.4byte	0x2815
 10260 280e 0B       		.uleb128 0xb
 10261 280f 37000000 		.4byte	0x37
 10262 2813 16       		.byte	0x16
 10263 2814 00       		.byte	0
 10264 2815 03       		.uleb128 0x3
 10265 2816 751E0000 		.4byte	.LASF545
 10266 281a 26       		.byte	0x26
 10267 281b 6C       		.byte	0x6c
 10268 281c F0270000 		.4byte	0x27f0
 10269 2820 0F       		.uleb128 0xf
 10270 2821 15280000 		.4byte	0x2815
 10271 2825 05       		.uleb128 0x5
 10272 2826 04       		.byte	0x4
 10273 2827 20280000 		.4byte	0x2820
 10274 282b 23       		.uleb128 0x23
 10275 282c B4050000 		.4byte	.LASF546
 10276 2830 26       		.byte	0x26
 10277 2831 86       		.byte	0x86
 10278 2832 63270000 		.4byte	0x2763
 10279 2836 27       		.uleb128 0x27
 10280 2837 07       		.byte	0x7
 10281 2838 01       		.byte	0x1
 10282 2839 5E000000 		.4byte	0x5e
 10283 283d 27       		.byte	0x27
 10284 283e 31       		.byte	0x31
 10285 283f 62280000 		.4byte	0x2862
 10286 2843 28       		.uleb128 0x28
 10287 2844 C1170000 		.4byte	.LASF547
 10288 2848 00       		.byte	0
 10289 2849 28       		.uleb128 0x28
 10290 284a A1150000 		.4byte	.LASF548
 10291 284e 01       		.byte	0x1
 10292 284f 28       		.uleb128 0x28
 10293 2850 221A0000 		.4byte	.LASF549
 10294 2854 02       		.byte	0x2
 10295 2855 28       		.uleb128 0x28
 10296 2856 9D070000 		.4byte	.LASF550
 10297 285a 03       		.byte	0x3
 10298 285b 28       		.uleb128 0x28
ARM GAS  C:\Users\PCHAUT~1\AppData\Local\Temp\ccJuO4y2.s 			page 182


 10299 285c 69040000 		.4byte	.LASF551
 10300 2860 04       		.byte	0x4
 10301 2861 00       		.byte	0
 10302 2862 03       		.uleb128 0x3
 10303 2863 32140000 		.4byte	.LASF552
 10304 2867 27       		.byte	0x27
 10305 2868 37       		.byte	0x37
 10306 2869 36280000 		.4byte	0x2836
 10307 286d 03       		.uleb128 0x3
 10308 286e C7180000 		.4byte	.LASF553
 10309 2872 27       		.byte	0x27
 10310 2873 3C       		.byte	0x3c
 10311 2874 78280000 		.4byte	0x2878
 10312 2878 1B       		.uleb128 0x1b
 10313 2879 C7180000 		.4byte	.LASF553
 10314 287d 10       		.byte	0x10
 10315 287e 28       		.byte	0x28
 10316 287f 9701     		.2byte	0x197
 10317 2881 BA280000 		.4byte	0x28ba
 10318 2885 18       		.uleb128 0x18
 10319 2886 15170000 		.4byte	.LASF463
 10320 288a 28       		.byte	0x28
 10321 288b 9B01     		.2byte	0x19b
 10322 288d 62280000 		.4byte	0x2862
 10323 2891 00       		.byte	0
 10324 2892 18       		.uleb128 0x18
 10325 2893 D41C0000 		.4byte	.LASF464
 10326 2897 28       		.byte	0x28
 10327 2898 9F01     		.2byte	0x19f
 10328 289a 4F2A0000 		.4byte	0x2a4f
 10329 289e 04       		.byte	0x4
 10330 289f 18       		.uleb128 0x18
 10331 28a0 190E0000 		.4byte	.LASF554
 10332 28a4 28       		.byte	0x28
 10333 28a5 A701     		.2byte	0x1a7
 10334 28a7 1C090000 		.4byte	0x91c
 10335 28ab 08       		.byte	0x8
 10336 28ac 21       		.uleb128 0x21
 10337 28ad 74696D00 		.ascii	"tim\000"
 10338 28b1 28       		.byte	0x28
 10339 28b2 AB01     		.2byte	0x1ab
 10340 28b4 552A0000 		.4byte	0x2a55
 10341 28b8 0C       		.byte	0xc
 10342 28b9 00       		.byte	0
 10343 28ba 03       		.uleb128 0x3
 10344 28bb 61120000 		.4byte	.LASF555
 10345 28bf 27       		.byte	0x27
 10346 28c0 43       		.byte	0x43
 10347 28c1 C5280000 		.4byte	0x28c5
 10348 28c5 05       		.uleb128 0x5
 10349 28c6 04       		.byte	0x4
 10350 28c7 CB280000 		.4byte	0x28cb
 10351 28cb 1F       		.uleb128 0x1f
 10352 28cc D6280000 		.4byte	0x28d6
 10353 28d0 16       		.uleb128 0x16
 10354 28d1 D6280000 		.4byte	0x28d6
 10355 28d5 00       		.byte	0
ARM GAS  C:\Users\PCHAUT~1\AppData\Local\Temp\ccJuO4y2.s 			page 183


 10356 28d6 05       		.uleb128 0x5
 10357 28d7 04       		.byte	0x4
 10358 28d8 6D280000 		.4byte	0x286d
 10359 28dc 1C       		.uleb128 0x1c
 10360 28dd 60       		.byte	0x60
 10361 28de 29       		.byte	0x29
 10362 28df 9E01     		.2byte	0x19e
 10363 28e1 E8290000 		.4byte	0x29e8
 10364 28e5 21       		.uleb128 0x21
 10365 28e6 43523100 		.ascii	"CR1\000"
 10366 28ea 29       		.byte	0x29
 10367 28eb 9F01     		.2byte	0x19f
 10368 28ed 27090000 		.4byte	0x927
 10369 28f1 00       		.byte	0
 10370 28f2 21       		.uleb128 0x21
 10371 28f3 43523200 		.ascii	"CR2\000"
 10372 28f7 29       		.byte	0x29
 10373 28f8 A001     		.2byte	0x1a0
 10374 28fa 27090000 		.4byte	0x927
 10375 28fe 04       		.byte	0x4
 10376 28ff 18       		.uleb128 0x18
 10377 2900 C1200000 		.4byte	.LASF556
 10378 2904 29       		.byte	0x29
 10379 2905 A101     		.2byte	0x1a1
 10380 2907 27090000 		.4byte	0x927
 10381 290b 08       		.byte	0x8
 10382 290c 18       		.uleb128 0x18
 10383 290d 480B0000 		.4byte	.LASF557
 10384 2911 29       		.byte	0x29
 10385 2912 A201     		.2byte	0x1a2
 10386 2914 27090000 		.4byte	0x927
 10387 2918 0C       		.byte	0xc
 10388 2919 21       		.uleb128 0x21
 10389 291a 535200   		.ascii	"SR\000"
 10390 291d 29       		.byte	0x29
 10391 291e A301     		.2byte	0x1a3
 10392 2920 27090000 		.4byte	0x927
 10393 2924 10       		.byte	0x10
 10394 2925 21       		.uleb128 0x21
 10395 2926 45475200 		.ascii	"EGR\000"
 10396 292a 29       		.byte	0x29
 10397 292b A401     		.2byte	0x1a4
 10398 292d 27090000 		.4byte	0x927
 10399 2931 14       		.byte	0x14
 10400 2932 18       		.uleb128 0x18
 10401 2933 D8240000 		.4byte	.LASF558
 10402 2937 29       		.byte	0x29
 10403 2938 A501     		.2byte	0x1a5
 10404 293a 27090000 		.4byte	0x927
 10405 293e 18       		.byte	0x18
 10406 293f 18       		.uleb128 0x18
 10407 2940 DE240000 		.4byte	.LASF559
 10408 2944 29       		.byte	0x29
 10409 2945 A601     		.2byte	0x1a6
 10410 2947 27090000 		.4byte	0x927
 10411 294b 1C       		.byte	0x1c
 10412 294c 18       		.uleb128 0x18
ARM GAS  C:\Users\PCHAUT~1\AppData\Local\Temp\ccJuO4y2.s 			page 184


 10413 294d 1E070000 		.4byte	.LASF560
 10414 2951 29       		.byte	0x29
 10415 2952 A701     		.2byte	0x1a7
 10416 2954 27090000 		.4byte	0x927
 10417 2958 20       		.byte	0x20
 10418 2959 21       		.uleb128 0x21
 10419 295a 434E5400 		.ascii	"CNT\000"
 10420 295e 29       		.byte	0x29
 10421 295f A801     		.2byte	0x1a8
 10422 2961 27090000 		.4byte	0x927
 10423 2965 24       		.byte	0x24
 10424 2966 21       		.uleb128 0x21
 10425 2967 50534300 		.ascii	"PSC\000"
 10426 296b 29       		.byte	0x29
 10427 296c A901     		.2byte	0x1a9
 10428 296e 27090000 		.4byte	0x927
 10429 2972 28       		.byte	0x28
 10430 2973 21       		.uleb128 0x21
 10431 2974 41525200 		.ascii	"ARR\000"
 10432 2978 29       		.byte	0x29
 10433 2979 AA01     		.2byte	0x1aa
 10434 297b 27090000 		.4byte	0x927
 10435 297f 2C       		.byte	0x2c
 10436 2980 21       		.uleb128 0x21
 10437 2981 52435200 		.ascii	"RCR\000"
 10438 2985 29       		.byte	0x29
 10439 2986 AB01     		.2byte	0x1ab
 10440 2988 27090000 		.4byte	0x927
 10441 298c 30       		.byte	0x30
 10442 298d 21       		.uleb128 0x21
 10443 298e 43435200 		.ascii	"CCR\000"
 10444 2992 29       		.byte	0x29
 10445 2993 AC01     		.2byte	0x1ac
 10446 2995 23120000 		.4byte	0x1223
 10447 2999 34       		.byte	0x34
 10448 299a 18       		.uleb128 0x18
 10449 299b D7010000 		.4byte	.LASF561
 10450 299f 29       		.byte	0x29
 10451 29a0 AD01     		.2byte	0x1ad
 10452 29a2 27090000 		.4byte	0x927
 10453 29a6 44       		.byte	0x44
 10454 29a7 21       		.uleb128 0x21
 10455 29a8 44435200 		.ascii	"DCR\000"
 10456 29ac 29       		.byte	0x29
 10457 29ad AE01     		.2byte	0x1ae
 10458 29af 27090000 		.4byte	0x927
 10459 29b3 48       		.byte	0x48
 10460 29b4 18       		.uleb128 0x18
 10461 29b5 6A170000 		.4byte	.LASF562
 10462 29b9 29       		.byte	0x29
 10463 29ba AF01     		.2byte	0x1af
 10464 29bc 27090000 		.4byte	0x927
 10465 29c0 4C       		.byte	0x4c
 10466 29c1 21       		.uleb128 0x21
 10467 29c2 4F5200   		.ascii	"OR\000"
 10468 29c5 29       		.byte	0x29
 10469 29c6 B001     		.2byte	0x1b0
ARM GAS  C:\Users\PCHAUT~1\AppData\Local\Temp\ccJuO4y2.s 			page 185


 10470 29c8 27090000 		.4byte	0x927
 10471 29cc 50       		.byte	0x50
 10472 29cd 18       		.uleb128 0x18
 10473 29ce E4240000 		.4byte	.LASF563
 10474 29d2 29       		.byte	0x29
 10475 29d3 B101     		.2byte	0x1b1
 10476 29d5 27090000 		.4byte	0x927
 10477 29d9 54       		.byte	0x54
 10478 29da 18       		.uleb128 0x18
 10479 29db 250E0000 		.4byte	.LASF564
 10480 29df 29       		.byte	0x29
 10481 29e0 B201     		.2byte	0x1b2
 10482 29e2 0E120000 		.4byte	0x120e
 10483 29e6 58       		.byte	0x58
 10484 29e7 00       		.byte	0
 10485 29e8 07       		.uleb128 0x7
 10486 29e9 E11F0000 		.4byte	.LASF565
 10487 29ed 29       		.byte	0x29
 10488 29ee B301     		.2byte	0x1b3
 10489 29f0 DC280000 		.4byte	0x28dc
 10490 29f4 07       		.uleb128 0x7
 10491 29f5 A2080000 		.4byte	.LASF566
 10492 29f9 28       		.byte	0x28
 10493 29fa 6D01     		.2byte	0x16d
 10494 29fc 1C090000 		.4byte	0x91c
 10495 2a00 1C       		.uleb128 0x1c
 10496 2a01 10       		.byte	0x10
 10497 2a02 28       		.byte	0x28
 10498 2a03 7801     		.2byte	0x178
 10499 2a05 3E2A0000 		.4byte	0x2a3e
 10500 2a09 18       		.uleb128 0x18
 10501 2a0a 6F240000 		.4byte	.LASF567
 10502 2a0e 28       		.byte	0x28
 10503 2a0f 7E01     		.2byte	0x17e
 10504 2a11 F4290000 		.4byte	0x29f4
 10505 2a15 00       		.byte	0
 10506 2a16 18       		.uleb128 0x18
 10507 2a17 6F170000 		.4byte	.LASF568
 10508 2a1b 28       		.byte	0x28
 10509 2a1c 8501     		.2byte	0x185
 10510 2a1e BA280000 		.4byte	0x28ba
 10511 2a22 04       		.byte	0x4
 10512 2a23 21       		.uleb128 0x21
 10513 2a24 63723200 		.ascii	"cr2\000"
 10514 2a28 28       		.byte	0x28
 10515 2a29 8B01     		.2byte	0x18b
 10516 2a2b 1C090000 		.4byte	0x91c
 10517 2a2f 08       		.byte	0x8
 10518 2a30 18       		.uleb128 0x18
 10519 2a31 9A0D0000 		.4byte	.LASF569
 10520 2a35 28       		.byte	0x28
 10521 2a36 9101     		.2byte	0x191
 10522 2a38 1C090000 		.4byte	0x91c
 10523 2a3c 0C       		.byte	0xc
 10524 2a3d 00       		.byte	0
 10525 2a3e 07       		.uleb128 0x7
 10526 2a3f 6F060000 		.4byte	.LASF570
ARM GAS  C:\Users\PCHAUT~1\AppData\Local\Temp\ccJuO4y2.s 			page 186


 10527 2a43 28       		.byte	0x28
 10528 2a44 9201     		.2byte	0x192
 10529 2a46 002A0000 		.4byte	0x2a00
 10530 2a4a 0F       		.uleb128 0xf
 10531 2a4b 3E2A0000 		.4byte	0x2a3e
 10532 2a4f 05       		.uleb128 0x5
 10533 2a50 04       		.byte	0x4
 10534 2a51 4A2A0000 		.4byte	0x2a4a
 10535 2a55 05       		.uleb128 0x5
 10536 2a56 04       		.byte	0x4
 10537 2a57 E8290000 		.4byte	0x29e8
 10538 2a5b 20       		.uleb128 0x20
 10539 2a5c 16240000 		.4byte	.LASF571
 10540 2a60 28       		.byte	0x28
 10541 2a61 F201     		.2byte	0x1f2
 10542 2a63 6D280000 		.4byte	0x286d
 10543 2a67 20       		.uleb128 0x20
 10544 2a68 DB1C0000 		.4byte	.LASF572
 10545 2a6c 28       		.byte	0x28
 10546 2a6d 0202     		.2byte	0x202
 10547 2a6f 6D280000 		.4byte	0x286d
 10548 2a73 27       		.uleb128 0x27
 10549 2a74 07       		.byte	0x7
 10550 2a75 01       		.byte	0x1
 10551 2a76 5E000000 		.4byte	0x5e
 10552 2a7a 2A       		.byte	0x2a
 10553 2a7b 4C       		.byte	0x4c
 10554 2a7c A52A0000 		.4byte	0x2aa5
 10555 2a80 28       		.uleb128 0x28
 10556 2a81 47060000 		.4byte	.LASF573
 10557 2a85 00       		.byte	0
 10558 2a86 28       		.uleb128 0x28
 10559 2a87 760F0000 		.4byte	.LASF574
 10560 2a8b 01       		.byte	0x1
 10561 2a8c 28       		.uleb128 0x28
 10562 2a8d 00070000 		.4byte	.LASF575
 10563 2a91 02       		.byte	0x2
 10564 2a92 28       		.uleb128 0x28
 10565 2a93 98040000 		.4byte	.LASF576
 10566 2a97 03       		.byte	0x3
 10567 2a98 28       		.uleb128 0x28
 10568 2a99 43030000 		.4byte	.LASF577
 10569 2a9d 04       		.byte	0x4
 10570 2a9e 28       		.uleb128 0x28
 10571 2a9f 07140000 		.4byte	.LASF578
 10572 2aa3 05       		.byte	0x5
 10573 2aa4 00       		.byte	0
 10574 2aa5 03       		.uleb128 0x3
 10575 2aa6 08120000 		.4byte	.LASF579
 10576 2aaa 2A       		.byte	0x2a
 10577 2aab 53       		.byte	0x53
 10578 2aac 732A0000 		.4byte	0x2a73
 10579 2ab0 07       		.uleb128 0x7
 10580 2ab1 A4180000 		.4byte	.LASF580
 10581 2ab5 2B       		.byte	0x2b
 10582 2ab6 6A01     		.2byte	0x16a
 10583 2ab8 01090000 		.4byte	0x901
ARM GAS  C:\Users\PCHAUT~1\AppData\Local\Temp\ccJuO4y2.s 			page 187


 10584 2abc 07       		.uleb128 0x7
 10585 2abd E1030000 		.4byte	.LASF581
 10586 2ac1 2B       		.byte	0x2b
 10587 2ac2 6F01     		.2byte	0x16f
 10588 2ac4 1C090000 		.4byte	0x91c
 10589 2ac8 2A       		.uleb128 0x2a
 10590 2ac9 07       		.byte	0x7
 10591 2aca 01       		.byte	0x1
 10592 2acb 5E000000 		.4byte	0x5e
 10593 2acf 2B       		.byte	0x2b
 10594 2ad0 7401     		.2byte	0x174
 10595 2ad2 E92A0000 		.4byte	0x2ae9
 10596 2ad6 28       		.uleb128 0x28
 10597 2ad7 AB040000 		.4byte	.LASF582
 10598 2adb 01       		.byte	0x1
 10599 2adc 28       		.uleb128 0x28
 10600 2add 59000000 		.4byte	.LASF583
 10601 2ae1 02       		.byte	0x2
 10602 2ae2 28       		.uleb128 0x28
 10603 2ae3 B70A0000 		.4byte	.LASF584
 10604 2ae7 03       		.byte	0x3
 10605 2ae8 00       		.byte	0
 10606 2ae9 07       		.uleb128 0x7
 10607 2aea 2A250000 		.4byte	.LASF585
 10608 2aee 2B       		.byte	0x2b
 10609 2aef 7801     		.2byte	0x178
 10610 2af1 C82A0000 		.4byte	0x2ac8
 10611 2af5 2A       		.uleb128 0x2a
 10612 2af6 07       		.byte	0x7
 10613 2af7 01       		.byte	0x1
 10614 2af8 5E000000 		.4byte	0x5e
 10615 2afc 2B       		.byte	0x2b
 10616 2afd 7D01     		.2byte	0x17d
 10617 2aff 162B0000 		.4byte	0x2b16
 10618 2b03 28       		.uleb128 0x28
 10619 2b04 88050000 		.4byte	.LASF586
 10620 2b08 01       		.byte	0x1
 10621 2b09 28       		.uleb128 0x28
 10622 2b0a AD240000 		.4byte	.LASF587
 10623 2b0e 02       		.byte	0x2
 10624 2b0f 28       		.uleb128 0x28
 10625 2b10 AB0B0000 		.4byte	.LASF588
 10626 2b14 03       		.byte	0x3
 10627 2b15 00       		.byte	0
 10628 2b16 07       		.uleb128 0x7
 10629 2b17 B6060000 		.4byte	.LASF589
 10630 2b1b 2B       		.byte	0x2b
 10631 2b1c 8101     		.2byte	0x181
 10632 2b1e F52A0000 		.4byte	0x2af5
 10633 2b22 1C       		.uleb128 0x1c
 10634 2b23 0C       		.byte	0xc
 10635 2b24 2B       		.byte	0x2b
 10636 2b25 8601     		.2byte	0x186
 10637 2b27 532B0000 		.4byte	0x2b53
 10638 2b2b 18       		.uleb128 0x18
 10639 2b2c D1150000 		.4byte	.LASF590
 10640 2b30 2B       		.byte	0x2b
ARM GAS  C:\Users\PCHAUT~1\AppData\Local\Temp\ccJuO4y2.s 			page 188


 10641 2b31 8801     		.2byte	0x188
 10642 2b33 E92A0000 		.4byte	0x2ae9
 10643 2b37 00       		.byte	0
 10644 2b38 18       		.uleb128 0x18
 10645 2b39 A9030000 		.4byte	.LASF591
 10646 2b3d 2B       		.byte	0x2b
 10647 2b3e 8901     		.2byte	0x189
 10648 2b40 1C090000 		.4byte	0x91c
 10649 2b44 04       		.byte	0x4
 10650 2b45 18       		.uleb128 0x18
 10651 2b46 D0250000 		.4byte	.LASF592
 10652 2b4a 2B       		.byte	0x2b
 10653 2b4b 8C01     		.2byte	0x18c
 10654 2b4d 162B0000 		.4byte	0x2b16
 10655 2b51 08       		.byte	0x8
 10656 2b52 00       		.byte	0
 10657 2b53 07       		.uleb128 0x7
 10658 2b54 F6010000 		.4byte	.LASF593
 10659 2b58 2B       		.byte	0x2b
 10660 2b59 8E01     		.2byte	0x18e
 10661 2b5b 222B0000 		.4byte	0x2b22
 10662 2b5f 0F       		.uleb128 0xf
 10663 2b60 532B0000 		.4byte	0x2b53
 10664 2b64 07       		.uleb128 0x7
 10665 2b65 8E040000 		.4byte	.LASF594
 10666 2b69 2B       		.byte	0x2b
 10667 2b6a 9301     		.2byte	0x193
 10668 2b6c 702B0000 		.4byte	0x2b70
 10669 2b70 1B       		.uleb128 0x1b
 10670 2b71 8E040000 		.4byte	.LASF594
 10671 2b75 3C       		.byte	0x3c
 10672 2b76 2B       		.byte	0x2b
 10673 2b77 9801     		.2byte	0x198
 10674 2b79 0D2C0000 		.4byte	0x2c0d
 10675 2b7d 18       		.uleb128 0x18
 10676 2b7e 15170000 		.4byte	.LASF463
 10677 2b82 2B       		.byte	0x2b
 10678 2b83 9C01     		.2byte	0x19c
 10679 2b85 A52A0000 		.4byte	0x2aa5
 10680 2b89 00       		.byte	0
 10681 2b8a 18       		.uleb128 0x18
 10682 2b8b D41C0000 		.4byte	.LASF464
 10683 2b8f 2B       		.byte	0x2b
 10684 2b90 A001     		.2byte	0x1a0
 10685 2b92 0D2C0000 		.4byte	0x2c0d
 10686 2b96 04       		.byte	0x4
 10687 2b97 18       		.uleb128 0x18
 10688 2b98 62010000 		.4byte	.LASF595
 10689 2b9c 2B       		.byte	0x2b
 10690 2b9d A401     		.2byte	0x1a4
 10691 2b9f BC2A0000 		.4byte	0x2abc
 10692 2ba3 08       		.byte	0x8
 10693 2ba4 18       		.uleb128 0x18
 10694 2ba5 F00D0000 		.4byte	.LASF469
 10695 2ba9 2B       		.byte	0x2b
 10696 2baa A901     		.2byte	0x1a9
 10697 2bac 501B0000 		.4byte	0x1b50
ARM GAS  C:\Users\PCHAUT~1\AppData\Local\Temp\ccJuO4y2.s 			page 189


 10698 2bb0 0C       		.byte	0xc
 10699 2bb1 18       		.uleb128 0x18
 10700 2bb2 CE060000 		.4byte	.LASF468
 10701 2bb6 2B       		.byte	0x2b
 10702 2bb7 B201     		.2byte	0x1b2
 10703 2bb9 F90A0000 		.4byte	0xaf9
 10704 2bbd 20       		.byte	0x20
 10705 2bbe 18       		.uleb128 0x18
 10706 2bbf 7F0F0000 		.4byte	.LASF596
 10707 2bc3 2B       		.byte	0x2b
 10708 2bc4 B601     		.2byte	0x1b6
 10709 2bc6 B02A0000 		.4byte	0x2ab0
 10710 2bca 24       		.byte	0x24
 10711 2bcb 18       		.uleb128 0x18
 10712 2bcc 3F080000 		.4byte	.LASF597
 10713 2bd0 2B       		.byte	0x2b
 10714 2bd1 BA01     		.2byte	0x1ba
 10715 2bd3 1C090000 		.4byte	0x91c
 10716 2bd7 28       		.byte	0x28
 10717 2bd8 18       		.uleb128 0x18
 10718 2bd9 98080000 		.4byte	.LASF598
 10719 2bdd 2B       		.byte	0x2b
 10720 2bde BE01     		.2byte	0x1be
 10721 2be0 1C090000 		.4byte	0x91c
 10722 2be4 2C       		.byte	0x2c
 10723 2be5 18       		.uleb128 0x18
 10724 2be6 23010000 		.4byte	.LASF599
 10725 2bea 2B       		.byte	0x2b
 10726 2beb C201     		.2byte	0x1c2
 10727 2bed 4F230000 		.4byte	0x234f
 10728 2bf1 30       		.byte	0x30
 10729 2bf2 18       		.uleb128 0x18
 10730 2bf3 09020000 		.4byte	.LASF600
 10731 2bf7 2B       		.byte	0x2b
 10732 2bf8 C601     		.2byte	0x1c6
 10733 2bfa 4F230000 		.4byte	0x234f
 10734 2bfe 34       		.byte	0x34
 10735 2bff 21       		.uleb128 0x21
 10736 2c00 69326300 		.ascii	"i2c\000"
 10737 2c04 2B       		.byte	0x2b
 10738 2c05 CA01     		.2byte	0x1ca
 10739 2c07 132C0000 		.4byte	0x2c13
 10740 2c0b 38       		.byte	0x38
 10741 2c0c 00       		.byte	0
 10742 2c0d 05       		.uleb128 0x5
 10743 2c0e 04       		.byte	0x4
 10744 2c0f 5F2B0000 		.4byte	0x2b5f
 10745 2c13 05       		.uleb128 0x5
 10746 2c14 04       		.byte	0x4
 10747 2c15 B3120000 		.4byte	0x12b3
 10748 2c19 20       		.uleb128 0x20
 10749 2c1a 88120000 		.4byte	.LASF601
 10750 2c1e 2B       		.byte	0x2b
 10751 2c1f E001     		.2byte	0x1e0
 10752 2c21 642B0000 		.4byte	0x2b64
 10753 2c25 27       		.uleb128 0x27
 10754 2c26 07       		.byte	0x7
ARM GAS  C:\Users\PCHAUT~1\AppData\Local\Temp\ccJuO4y2.s 			page 190


 10755 2c27 01       		.byte	0x1
 10756 2c28 5E000000 		.4byte	0x5e
 10757 2c2c 2C       		.byte	0x2c
 10758 2c2d 39       		.byte	0x39
 10759 2c2e 512C0000 		.4byte	0x2c51
 10760 2c32 28       		.uleb128 0x28
 10761 2c33 0F110000 		.4byte	.LASF602
 10762 2c37 00       		.byte	0
 10763 2c38 28       		.uleb128 0x28
 10764 2c39 D60D0000 		.4byte	.LASF603
 10765 2c3d 01       		.byte	0x1
 10766 2c3e 28       		.uleb128 0x28
 10767 2c3f FB150000 		.4byte	.LASF604
 10768 2c43 02       		.byte	0x2
 10769 2c44 28       		.uleb128 0x28
 10770 2c45 171A0000 		.4byte	.LASF605
 10771 2c49 03       		.byte	0x3
 10772 2c4a 28       		.uleb128 0x28
 10773 2c4b 121F0000 		.4byte	.LASF606
 10774 2c4f 04       		.byte	0x4
 10775 2c50 00       		.byte	0
 10776 2c51 03       		.uleb128 0x3
 10777 2c52 5D220000 		.4byte	.LASF607
 10778 2c56 2C       		.byte	0x2c
 10779 2c57 3F       		.byte	0x3f
 10780 2c58 252C0000 		.4byte	0x2c25
 10781 2c5c 03       		.uleb128 0x3
 10782 2c5d C6250000 		.4byte	.LASF608
 10783 2c61 2D       		.byte	0x2d
 10784 2c62 E2       		.byte	0xe2
 10785 2c63 672C0000 		.4byte	0x2c67
 10786 2c67 1B       		.uleb128 0x1b
 10787 2c68 C6250000 		.4byte	.LASF608
 10788 2c6c 20       		.byte	0x20
 10789 2c6d 2D       		.byte	0x2d
 10790 2c6e 1B01     		.2byte	0x11b
 10791 2c70 DD2C0000 		.4byte	0x2cdd
 10792 2c74 18       		.uleb128 0x18
 10793 2c75 15170000 		.4byte	.LASF463
 10794 2c79 2D       		.byte	0x2d
 10795 2c7a 1F01     		.2byte	0x11f
 10796 2c7c 512C0000 		.4byte	0x2c51
 10797 2c80 00       		.byte	0
 10798 2c81 18       		.uleb128 0x18
 10799 2c82 D41C0000 		.4byte	.LASF464
 10800 2c86 2D       		.byte	0x2d
 10801 2c87 2301     		.2byte	0x123
 10802 2c89 752D0000 		.4byte	0x2d75
 10803 2c8d 04       		.byte	0x4
 10804 2c8e 21       		.uleb128 0x21
 10805 2c8f 73706900 		.ascii	"spi\000"
 10806 2c93 2D       		.byte	0x2d
 10807 2c94 2801     		.2byte	0x128
 10808 2c96 7B2D0000 		.4byte	0x2d7b
 10809 2c9a 08       		.byte	0x8
 10810 2c9b 21       		.uleb128 0x21
 10811 2c9c 63666700 		.ascii	"cfg\000"
ARM GAS  C:\Users\PCHAUT~1\AppData\Local\Temp\ccJuO4y2.s 			page 191


 10812 2ca0 2D       		.byte	0x2d
 10813 2ca1 2C01     		.2byte	0x12c
 10814 2ca3 01090000 		.4byte	0x901
 10815 2ca7 0C       		.byte	0xc
 10816 2ca8 18       		.uleb128 0x18
 10817 2ca9 23010000 		.4byte	.LASF599
 10818 2cad 2D       		.byte	0x2d
 10819 2cae 3001     		.2byte	0x130
 10820 2cb0 4F230000 		.4byte	0x234f
 10821 2cb4 10       		.byte	0x10
 10822 2cb5 18       		.uleb128 0x18
 10823 2cb6 09020000 		.4byte	.LASF600
 10824 2cba 2D       		.byte	0x2d
 10825 2cbb 3401     		.2byte	0x134
 10826 2cbd 4F230000 		.4byte	0x234f
 10827 2cc1 14       		.byte	0x14
 10828 2cc2 18       		.uleb128 0x18
 10829 2cc3 3F080000 		.4byte	.LASF597
 10830 2cc7 2D       		.byte	0x2d
 10831 2cc8 3801     		.2byte	0x138
 10832 2cca 1C090000 		.4byte	0x91c
 10833 2cce 18       		.byte	0x18
 10834 2ccf 18       		.uleb128 0x18
 10835 2cd0 98080000 		.4byte	.LASF598
 10836 2cd4 2D       		.byte	0x2d
 10837 2cd5 3C01     		.2byte	0x13c
 10838 2cd7 1C090000 		.4byte	0x91c
 10839 2cdb 1C       		.byte	0x1c
 10840 2cdc 00       		.byte	0
 10841 2cdd 03       		.uleb128 0x3
 10842 2cde 84080000 		.4byte	.LASF609
 10843 2ce2 2D       		.byte	0x2d
 10844 2ce3 EB       		.byte	0xeb
 10845 2ce4 E82C0000 		.4byte	0x2ce8
 10846 2ce8 05       		.uleb128 0x5
 10847 2ce9 04       		.byte	0x4
 10848 2cea EE2C0000 		.4byte	0x2cee
 10849 2cee 1F       		.uleb128 0x1f
 10850 2cef 032D0000 		.4byte	0x2d03
 10851 2cf3 16       		.uleb128 0x16
 10852 2cf4 032D0000 		.4byte	0x2d03
 10853 2cf8 16       		.uleb128 0x16
 10854 2cf9 2C000000 		.4byte	0x2c
 10855 2cfd 16       		.uleb128 0x16
 10856 2cfe 2C000000 		.4byte	0x2c
 10857 2d02 00       		.byte	0
 10858 2d03 05       		.uleb128 0x5
 10859 2d04 04       		.byte	0x4
 10860 2d05 5C2C0000 		.4byte	0x2c5c
 10861 2d09 0C       		.uleb128 0xc
 10862 2d0a 14       		.byte	0x14
 10863 2d0b 2D       		.byte	0x2d
 10864 2d0c F1       		.byte	0xf1
 10865 2d0d 5D2D0000 		.4byte	0x2d5d
 10866 2d11 0D       		.uleb128 0xd
 10867 2d12 84010000 		.4byte	.LASF610
 10868 2d16 2D       		.byte	0x2d
ARM GAS  C:\Users\PCHAUT~1\AppData\Local\Temp\ccJuO4y2.s 			page 192


 10869 2d17 F6       		.byte	0xf6
 10870 2d18 5D2D0000 		.4byte	0x2d5d
 10871 2d1c 00       		.byte	0
 10872 2d1d 0D       		.uleb128 0xd
 10873 2d1e 58010000 		.4byte	.LASF611
 10874 2d22 2D       		.byte	0x2d
 10875 2d23 FB       		.byte	0xfb
 10876 2d24 5D010000 		.4byte	0x15d
 10877 2d28 04       		.byte	0x4
 10878 2d29 0D       		.uleb128 0xd
 10879 2d2a F60D0000 		.4byte	.LASF612
 10880 2d2e 2D       		.byte	0x2d
 10881 2d2f FF       		.byte	0xff
 10882 2d30 2C000000 		.4byte	0x2c
 10883 2d34 08       		.byte	0x8
 10884 2d35 18       		.uleb128 0x18
 10885 2d36 5D0A0000 		.4byte	.LASF476
 10886 2d3a 2D       		.byte	0x2d
 10887 2d3b 0301     		.2byte	0x103
 10888 2d3d DD2C0000 		.4byte	0x2cdd
 10889 2d41 0C       		.byte	0xc
 10890 2d42 18       		.uleb128 0x18
 10891 2d43 821A0000 		.4byte	.LASF613
 10892 2d47 2D       		.byte	0x2d
 10893 2d48 0F01     		.2byte	0x10f
 10894 2d4a F6080000 		.4byte	0x8f6
 10895 2d4e 10       		.byte	0x10
 10896 2d4f 18       		.uleb128 0x18
 10897 2d50 91060000 		.4byte	.LASF614
 10898 2d54 2D       		.byte	0x2d
 10899 2d55 1501     		.2byte	0x115
 10900 2d57 F6080000 		.4byte	0x8f6
 10901 2d5b 12       		.byte	0x12
 10902 2d5c 00       		.byte	0
 10903 2d5d 05       		.uleb128 0x5
 10904 2d5e 04       		.byte	0x4
 10905 2d5f 632D0000 		.4byte	0x2d63
 10906 2d63 2B       		.uleb128 0x2b
 10907 2d64 07       		.uleb128 0x7
 10908 2d65 DB250000 		.4byte	.LASF615
 10909 2d69 2D       		.byte	0x2d
 10910 2d6a 1601     		.2byte	0x116
 10911 2d6c 092D0000 		.4byte	0x2d09
 10912 2d70 0F       		.uleb128 0xf
 10913 2d71 642D0000 		.4byte	0x2d64
 10914 2d75 05       		.uleb128 0x5
 10915 2d76 04       		.byte	0x4
 10916 2d77 702D0000 		.4byte	0x2d70
 10917 2d7b 05       		.uleb128 0x5
 10918 2d7c 04       		.byte	0x4
 10919 2d7d 01160000 		.4byte	0x1601
 10920 2d81 20       		.uleb128 0x20
 10921 2d82 21260000 		.4byte	.LASF616
 10922 2d86 2D       		.byte	0x2d
 10923 2d87 4801     		.2byte	0x148
 10924 2d89 5C2C0000 		.4byte	0x2c5c
 10925 2d8d 27       		.uleb128 0x27
ARM GAS  C:\Users\PCHAUT~1\AppData\Local\Temp\ccJuO4y2.s 			page 193


 10926 2d8e 07       		.byte	0x7
 10927 2d8f 01       		.byte	0x1
 10928 2d90 5E000000 		.4byte	0x5e
 10929 2d94 2E       		.byte	0x2e
 10930 2d95 4A       		.byte	0x4a
 10931 2d96 AD2D0000 		.4byte	0x2dad
 10932 2d9a 28       		.uleb128 0x28
 10933 2d9b 29070000 		.4byte	.LASF617
 10934 2d9f 00       		.byte	0
 10935 2da0 28       		.uleb128 0x28
 10936 2da1 DF0D0000 		.4byte	.LASF618
 10937 2da5 01       		.byte	0x1
 10938 2da6 28       		.uleb128 0x28
 10939 2da7 36110000 		.4byte	.LASF619
 10940 2dab 02       		.byte	0x2
 10941 2dac 00       		.byte	0
 10942 2dad 03       		.uleb128 0x3
 10943 2dae 64030000 		.4byte	.LASF620
 10944 2db2 2E       		.byte	0x2e
 10945 2db3 4E       		.byte	0x4e
 10946 2db4 8D2D0000 		.4byte	0x2d8d
 10947 2db8 03       		.uleb128 0x3
 10948 2db9 030D0000 		.4byte	.LASF621
 10949 2dbd 2E       		.byte	0x2e
 10950 2dbe 53       		.byte	0x53
 10951 2dbf C32D0000 		.4byte	0x2dc3
 10952 2dc3 1B       		.uleb128 0x1b
 10953 2dc4 030D0000 		.4byte	.LASF621
 10954 2dc8 1C       		.byte	0x1c
 10955 2dc9 2F       		.byte	0x2f
 10956 2dca 7901     		.2byte	0x179
 10957 2dcc 2C2E0000 		.4byte	0x2e2c
 10958 2dd0 18       		.uleb128 0x18
 10959 2dd1 15170000 		.4byte	.LASF463
 10960 2dd5 2F       		.byte	0x2f
 10961 2dd6 7D01     		.2byte	0x17d
 10962 2dd8 AD2D0000 		.4byte	0x2dad
 10963 2ddc 00       		.byte	0
 10964 2ddd 18       		.uleb128 0x18
 10965 2dde D41C0000 		.4byte	.LASF464
 10966 2de2 2F       		.byte	0x2f
 10967 2de3 8101     		.2byte	0x181
 10968 2de5 272F0000 		.4byte	0x2f27
 10969 2de9 04       		.byte	0x4
 10970 2dea 18       		.uleb128 0x18
 10971 2deb E4130000 		.4byte	.LASF622
 10972 2def 2F       		.byte	0x2f
 10973 2df0 8501     		.2byte	0x185
 10974 2df2 722E0000 		.4byte	0x2e72
 10975 2df6 08       		.byte	0x8
 10976 2df7 18       		.uleb128 0x18
 10977 2df8 F71A0000 		.4byte	.LASF623
 10978 2dfc 2F       		.byte	0x2f
 10979 2dfd 8901     		.2byte	0x189
 10980 2dff 662E0000 		.4byte	0x2e66
 10981 2e03 0C       		.byte	0xc
 10982 2e04 18       		.uleb128 0x18
ARM GAS  C:\Users\PCHAUT~1\AppData\Local\Temp\ccJuO4y2.s 			page 194


 10983 2e05 92210000 		.4byte	.LASF544
 10984 2e09 2F       		.byte	0x2f
 10985 2e0a 8D01     		.2byte	0x18d
 10986 2e0c 5A2E0000 		.4byte	0x2e5a
 10987 2e10 10       		.byte	0x10
 10988 2e11 18       		.uleb128 0x18
 10989 2e12 190E0000 		.4byte	.LASF554
 10990 2e16 2F       		.byte	0x2f
 10991 2e17 9501     		.2byte	0x195
 10992 2e19 1C090000 		.4byte	0x91c
 10993 2e1d 14       		.byte	0x14
 10994 2e1e 21       		.uleb128 0x21
 10995 2e1f 74696D00 		.ascii	"tim\000"
 10996 2e23 2F       		.byte	0x2f
 10997 2e24 9901     		.2byte	0x199
 10998 2e26 552A0000 		.4byte	0x2a55
 10999 2e2a 18       		.byte	0x18
 11000 2e2b 00       		.byte	0
 11001 2e2c 03       		.uleb128 0x3
 11002 2e2d D3110000 		.4byte	.LASF624
 11003 2e31 2E       		.byte	0x2e
 11004 2e32 5A       		.byte	0x5a
 11005 2e33 372E0000 		.4byte	0x2e37
 11006 2e37 05       		.uleb128 0x5
 11007 2e38 04       		.byte	0x4
 11008 2e39 3D2E0000 		.4byte	0x2e3d
 11009 2e3d 1F       		.uleb128 0x1f
 11010 2e3e 482E0000 		.4byte	0x2e48
 11011 2e42 16       		.uleb128 0x16
 11012 2e43 482E0000 		.4byte	0x2e48
 11013 2e47 00       		.byte	0
 11014 2e48 05       		.uleb128 0x5
 11015 2e49 04       		.byte	0x4
 11016 2e4a B82D0000 		.4byte	0x2db8
 11017 2e4e 07       		.uleb128 0x7
 11018 2e4f 2B160000 		.4byte	.LASF625
 11019 2e53 2F       		.byte	0x2f
 11020 2e54 2501     		.2byte	0x125
 11021 2e56 1C090000 		.4byte	0x91c
 11022 2e5a 07       		.uleb128 0x7
 11023 2e5b 70180000 		.4byte	.LASF626
 11024 2e5f 2F       		.byte	0x2f
 11025 2e60 2A01     		.2byte	0x12a
 11026 2e62 E6080000 		.4byte	0x8e6
 11027 2e66 07       		.uleb128 0x7
 11028 2e67 E5150000 		.4byte	.LASF627
 11029 2e6b 2F       		.byte	0x2f
 11030 2e6c 2F01     		.2byte	0x12f
 11031 2e6e 1C090000 		.4byte	0x91c
 11032 2e72 07       		.uleb128 0x7
 11033 2e73 D10E0000 		.4byte	.LASF628
 11034 2e77 2F       		.byte	0x2f
 11035 2e78 3401     		.2byte	0x134
 11036 2e7a 1C090000 		.4byte	0x91c
 11037 2e7e 1C       		.uleb128 0x1c
 11038 2e7f 08       		.byte	0x8
 11039 2e80 2F       		.byte	0x2f
ARM GAS  C:\Users\PCHAUT~1\AppData\Local\Temp\ccJuO4y2.s 			page 195


 11040 2e81 3901     		.2byte	0x139
 11041 2e83 A22E0000 		.4byte	0x2ea2
 11042 2e87 18       		.uleb128 0x18
 11043 2e88 53080000 		.4byte	.LASF542
 11044 2e8c 2F       		.byte	0x2f
 11045 2e8d 3D01     		.2byte	0x13d
 11046 2e8f 4E2E0000 		.4byte	0x2e4e
 11047 2e93 00       		.byte	0
 11048 2e94 18       		.uleb128 0x18
 11049 2e95 6F170000 		.4byte	.LASF568
 11050 2e99 2F       		.byte	0x2f
 11051 2e9a 4301     		.2byte	0x143
 11052 2e9c 2C2E0000 		.4byte	0x2e2c
 11053 2ea0 04       		.byte	0x4
 11054 2ea1 00       		.byte	0
 11055 2ea2 07       		.uleb128 0x7
 11056 2ea3 C00E0000 		.4byte	.LASF629
 11057 2ea7 2F       		.byte	0x2f
 11058 2ea8 4501     		.2byte	0x145
 11059 2eaa 7E2E0000 		.4byte	0x2e7e
 11060 2eae 1C       		.uleb128 0x1c
 11061 2eaf 34       		.byte	0x34
 11062 2eb0 2F       		.byte	0x2f
 11063 2eb1 4A01     		.2byte	0x14a
 11064 2eb3 062F0000 		.4byte	0x2f06
 11065 2eb7 18       		.uleb128 0x18
 11066 2eb8 6F240000 		.4byte	.LASF567
 11067 2ebc 2F       		.byte	0x2f
 11068 2ebd 5001     		.2byte	0x150
 11069 2ebf 1C090000 		.4byte	0x91c
 11070 2ec3 00       		.byte	0
 11071 2ec4 18       		.uleb128 0x18
 11072 2ec5 E4130000 		.4byte	.LASF622
 11073 2ec9 2F       		.byte	0x2f
 11074 2eca 5601     		.2byte	0x156
 11075 2ecc 722E0000 		.4byte	0x2e72
 11076 2ed0 04       		.byte	0x4
 11077 2ed1 18       		.uleb128 0x18
 11078 2ed2 6F170000 		.4byte	.LASF568
 11079 2ed6 2F       		.byte	0x2f
 11080 2ed7 5C01     		.2byte	0x15c
 11081 2ed9 2C2E0000 		.4byte	0x2e2c
 11082 2edd 08       		.byte	0x8
 11083 2ede 18       		.uleb128 0x18
 11084 2edf 92210000 		.4byte	.LASF544
 11085 2ee3 2F       		.byte	0x2f
 11086 2ee4 6001     		.2byte	0x160
 11087 2ee6 062F0000 		.4byte	0x2f06
 11088 2eea 0C       		.byte	0xc
 11089 2eeb 21       		.uleb128 0x21
 11090 2eec 63723200 		.ascii	"cr2\000"
 11091 2ef0 2F       		.byte	0x2f
 11092 2ef1 6601     		.2byte	0x166
 11093 2ef3 1C090000 		.4byte	0x91c
 11094 2ef7 2C       		.byte	0x2c
 11095 2ef8 18       		.uleb128 0x18
 11096 2ef9 9A0D0000 		.4byte	.LASF569
ARM GAS  C:\Users\PCHAUT~1\AppData\Local\Temp\ccJuO4y2.s 			page 196


 11097 2efd 2F       		.byte	0x2f
 11098 2efe 7301     		.2byte	0x173
 11099 2f00 1C090000 		.4byte	0x91c
 11100 2f04 30       		.byte	0x30
 11101 2f05 00       		.byte	0
 11102 2f06 0A       		.uleb128 0xa
 11103 2f07 A22E0000 		.4byte	0x2ea2
 11104 2f0b 162F0000 		.4byte	0x2f16
 11105 2f0f 0B       		.uleb128 0xb
 11106 2f10 37000000 		.4byte	0x37
 11107 2f14 03       		.byte	0x3
 11108 2f15 00       		.byte	0
 11109 2f16 07       		.uleb128 0x7
 11110 2f17 140D0000 		.4byte	.LASF630
 11111 2f1b 2F       		.byte	0x2f
 11112 2f1c 7401     		.2byte	0x174
 11113 2f1e AE2E0000 		.4byte	0x2eae
 11114 2f22 0F       		.uleb128 0xf
 11115 2f23 162F0000 		.4byte	0x2f16
 11116 2f27 05       		.uleb128 0x5
 11117 2f28 04       		.byte	0x4
 11118 2f29 222F0000 		.4byte	0x2f22
 11119 2f2d 20       		.uleb128 0x20
 11120 2f2e B9120000 		.4byte	.LASF631
 11121 2f32 2F       		.byte	0x2f
 11122 2f33 BC01     		.2byte	0x1bc
 11123 2f35 B82D0000 		.4byte	0x2db8
 11124 2f39 20       		.uleb128 0x20
 11125 2f3a BF120000 		.4byte	.LASF632
 11126 2f3e 2F       		.byte	0x2f
 11127 2f3f C001     		.2byte	0x1c0
 11128 2f41 B82D0000 		.4byte	0x2db8
 11129 2f45 20       		.uleb128 0x20
 11130 2f46 C5120000 		.4byte	.LASF633
 11131 2f4a 2F       		.byte	0x2f
 11132 2f4b C401     		.2byte	0x1c4
 11133 2f4d B82D0000 		.4byte	0x2db8
 11134 2f51 20       		.uleb128 0x20
 11135 2f52 CB120000 		.4byte	.LASF634
 11136 2f56 2F       		.byte	0x2f
 11137 2f57 C801     		.2byte	0x1c8
 11138 2f59 B82D0000 		.4byte	0x2db8
 11139 2f5d 27       		.uleb128 0x27
 11140 2f5e 07       		.byte	0x7
 11141 2f5f 01       		.byte	0x1
 11142 2f60 5E000000 		.4byte	0x5e
 11143 2f64 30       		.byte	0x30
 11144 2f65 55       		.byte	0x55
 11145 2f66 7D2F0000 		.4byte	0x2f7d
 11146 2f6a 28       		.uleb128 0x28
 11147 2f6b 79060000 		.4byte	.LASF635
 11148 2f6f 00       		.byte	0
 11149 2f70 28       		.uleb128 0x28
 11150 2f71 4C0E0000 		.4byte	.LASF636
 11151 2f75 01       		.byte	0x1
 11152 2f76 28       		.uleb128 0x28
 11153 2f77 AB100000 		.4byte	.LASF637
ARM GAS  C:\Users\PCHAUT~1\AppData\Local\Temp\ccJuO4y2.s 			page 197


 11154 2f7b 02       		.byte	0x2
 11155 2f7c 00       		.byte	0
 11156 2f7d 03       		.uleb128 0x3
 11157 2f7e 7B190000 		.4byte	.LASF638
 11158 2f82 30       		.byte	0x30
 11159 2f83 59       		.byte	0x59
 11160 2f84 5D2F0000 		.4byte	0x2f5d
 11161 2f88 03       		.uleb128 0x3
 11162 2f89 BD210000 		.4byte	.LASF639
 11163 2f8d 30       		.byte	0x30
 11164 2f8e 5E       		.byte	0x5e
 11165 2f8f 932F0000 		.4byte	0x2f93
 11166 2f93 10       		.uleb128 0x10
 11167 2f94 BD210000 		.4byte	.LASF639
 11168 2f98 78       		.byte	0x78
 11169 2f99 30       		.byte	0x30
 11170 2f9a 78       		.byte	0x78
 11171 2f9b FE2F0000 		.4byte	0x2ffe
 11172 2f9f 11       		.uleb128 0x11
 11173 2fa0 766D7400 		.ascii	"vmt\000"
 11174 2fa4 30       		.byte	0x30
 11175 2fa5 7A       		.byte	0x7a
 11176 2fa6 7C300000 		.4byte	0x307c
 11177 2faa 00       		.byte	0
 11178 2fab 0D       		.uleb128 0xd
 11179 2fac 32000000 		.4byte	.LASF640
 11180 2fb0 30       		.byte	0x30
 11181 2fb1 7B       		.byte	0x7b
 11182 2fb2 D41B0000 		.4byte	0x1bd4
 11183 2fb6 04       		.byte	0x4
 11184 2fb7 0D       		.uleb128 0xd
 11185 2fb8 15170000 		.4byte	.LASF463
 11186 2fbc 30       		.byte	0x30
 11187 2fbd 7B       		.byte	0x7b
 11188 2fbe 7D2F0000 		.4byte	0x2f7d
 11189 2fc2 08       		.byte	0x8
 11190 2fc3 0D       		.uleb128 0xd
 11191 2fc4 5C190000 		.4byte	.LASF641
 11192 2fc8 30       		.byte	0x30
 11193 2fc9 7B       		.byte	0x7b
 11194 2fca 7F1C0000 		.4byte	0x1c7f
 11195 2fce 0C       		.byte	0xc
 11196 2fcf 0D       		.uleb128 0xd
 11197 2fd0 DB120000 		.4byte	.LASF642
 11198 2fd4 30       		.byte	0x30
 11199 2fd5 7B       		.byte	0x7b
 11200 2fd6 8A1C0000 		.4byte	0x1c8a
 11201 2fda 30       		.byte	0x30
 11202 2fdb 11       		.uleb128 0x11
 11203 2fdc 696200   		.ascii	"ib\000"
 11204 2fdf 30       		.byte	0x30
 11205 2fe0 7B       		.byte	0x7b
 11206 2fe1 82300000 		.4byte	0x3082
 11207 2fe5 54       		.byte	0x54
 11208 2fe6 11       		.uleb128 0x11
 11209 2fe7 6F6200   		.ascii	"ob\000"
 11210 2fea 30       		.byte	0x30
ARM GAS  C:\Users\PCHAUT~1\AppData\Local\Temp\ccJuO4y2.s 			page 198


 11211 2feb 7B       		.byte	0x7b
 11212 2fec 82300000 		.4byte	0x3082
 11213 2ff0 64       		.byte	0x64
 11214 2ff1 0D       		.uleb128 0xd
 11215 2ff2 1F1B0000 		.4byte	.LASF643
 11216 2ff6 30       		.byte	0x30
 11217 2ff7 7B       		.byte	0x7b
 11218 2ff8 92300000 		.4byte	0x3092
 11219 2ffc 74       		.byte	0x74
 11220 2ffd 00       		.byte	0
 11221 2ffe 26       		.uleb128 0x26
 11222 2fff 53443300 		.ascii	"SD3\000"
 11223 3003 31       		.byte	0x31
 11224 3004 1501     		.2byte	0x115
 11225 3006 882F0000 		.4byte	0x2f88
 11226 300a 10       		.uleb128 0x10
 11227 300b 38100000 		.4byte	.LASF644
 11228 300f 20       		.byte	0x20
 11229 3010 30       		.byte	0x30
 11230 3011 6D       		.byte	0x6d
 11231 3012 77300000 		.4byte	0x3077
 11232 3016 0D       		.uleb128 0xd
 11233 3017 4B190000 		.4byte	.LASF645
 11234 301b 30       		.byte	0x30
 11235 301c 6E       		.byte	0x6e
 11236 301d B41C0000 		.4byte	0x1cb4
 11237 3021 00       		.byte	0
 11238 3022 0D       		.uleb128 0xd
 11239 3023 A6040000 		.4byte	.LASF646
 11240 3027 30       		.byte	0x30
 11241 3028 6E       		.byte	0x6e
 11242 3029 D31C0000 		.4byte	0x1cd3
 11243 302d 04       		.byte	0x4
 11244 302e 11       		.uleb128 0x11
 11245 302f 70757400 		.ascii	"put\000"
 11246 3033 30       		.byte	0x30
 11247 3034 6E       		.byte	0x6e
 11248 3035 ED1C0000 		.4byte	0x1ced
 11249 3039 08       		.byte	0x8
 11250 303a 11       		.uleb128 0x11
 11251 303b 67657400 		.ascii	"get\000"
 11252 303f 30       		.byte	0x30
 11253 3040 6E       		.byte	0x6e
 11254 3041 021D0000 		.4byte	0x1d02
 11255 3045 0C       		.byte	0xc
 11256 3046 0D       		.uleb128 0xd
 11257 3047 EA140000 		.4byte	.LASF647
 11258 304b 30       		.byte	0x30
 11259 304c 6E       		.byte	0x6e
 11260 304d A31D0000 		.4byte	0x1da3
 11261 3051 10       		.byte	0x10
 11262 3052 0D       		.uleb128 0xd
 11263 3053 31190000 		.4byte	.LASF648
 11264 3057 30       		.byte	0x30
 11265 3058 6E       		.byte	0x6e
 11266 3059 BD1D0000 		.4byte	0x1dbd
 11267 305d 14       		.byte	0x14
ARM GAS  C:\Users\PCHAUT~1\AppData\Local\Temp\ccJuO4y2.s 			page 199


 11268 305e 0D       		.uleb128 0xd
 11269 305f B8220000 		.4byte	.LASF649
 11270 3063 30       		.byte	0x30
 11271 3064 6E       		.byte	0x6e
 11272 3065 E11D0000 		.4byte	0x1de1
 11273 3069 18       		.byte	0x18
 11274 306a 0D       		.uleb128 0xd
 11275 306b 24140000 		.4byte	.LASF650
 11276 306f 30       		.byte	0x30
 11277 3070 6E       		.byte	0x6e
 11278 3071 051E0000 		.4byte	0x1e05
 11279 3075 1C       		.byte	0x1c
 11280 3076 00       		.byte	0
 11281 3077 0F       		.uleb128 0xf
 11282 3078 0A300000 		.4byte	0x300a
 11283 307c 05       		.uleb128 0x5
 11284 307d 04       		.byte	0x4
 11285 307e 77300000 		.4byte	0x3077
 11286 3082 0A       		.uleb128 0xa
 11287 3083 E6080000 		.4byte	0x8e6
 11288 3087 92300000 		.4byte	0x3092
 11289 308b 0B       		.uleb128 0xb
 11290 308c 37000000 		.4byte	0x37
 11291 3090 0F       		.byte	0xf
 11292 3091 00       		.byte	0
 11293 3092 05       		.uleb128 0x5
 11294 3093 04       		.byte	0x4
 11295 3094 70160000 		.4byte	0x1670
 11296 3098 27       		.uleb128 0x27
 11297 3099 07       		.byte	0x7
 11298 309a 01       		.byte	0x1
 11299 309b 5E000000 		.4byte	0x5e
 11300 309f 32       		.byte	0x32
 11301 30a0 6C       		.byte	0x6c
 11302 30a1 B8300000 		.4byte	0x30b8
 11303 30a5 28       		.uleb128 0x28
 11304 30a6 2E030000 		.4byte	.LASF651
 11305 30aa 00       		.byte	0
 11306 30ab 28       		.uleb128 0x28
 11307 30ac 47160000 		.4byte	.LASF652
 11308 30b0 01       		.byte	0x1
 11309 30b1 28       		.uleb128 0x28
 11310 30b2 BB130000 		.4byte	.LASF653
 11311 30b6 02       		.byte	0x2
 11312 30b7 00       		.byte	0
 11313 30b8 03       		.uleb128 0x3
 11314 30b9 EB1B0000 		.4byte	.LASF654
 11315 30bd 32       		.byte	0x32
 11316 30be 70       		.byte	0x70
 11317 30bf 98300000 		.4byte	0x3098
 11318 30c3 03       		.uleb128 0x3
 11319 30c4 251B0000 		.4byte	.LASF655
 11320 30c8 33       		.byte	0x33
 11321 30c9 BF       		.byte	0xbf
 11322 30ca 1C090000 		.4byte	0x91c
 11323 30ce 03       		.uleb128 0x3
 11324 30cf C8000000 		.4byte	.LASF656
ARM GAS  C:\Users\PCHAUT~1\AppData\Local\Temp\ccJuO4y2.s 			page 200


 11325 30d3 33       		.byte	0x33
 11326 30d4 C4       		.byte	0xc4
 11327 30d5 1C090000 		.4byte	0x91c
 11328 30d9 03       		.uleb128 0x3
 11329 30da A1210000 		.4byte	.LASF657
 11330 30de 33       		.byte	0x33
 11331 30df C9       		.byte	0xc9
 11332 30e0 E4300000 		.4byte	0x30e4
 11333 30e4 10       		.uleb128 0x10
 11334 30e5 A1210000 		.4byte	.LASF657
 11335 30e9 4C       		.byte	0x4c
 11336 30ea 33       		.byte	0x33
 11337 30eb F2       		.byte	0xf2
 11338 30ec 93310000 		.4byte	0x3193
 11339 30f0 11       		.uleb128 0x11
 11340 30f1 766D7400 		.ascii	"vmt\000"
 11341 30f5 33       		.byte	0x33
 11342 30f6 F6       		.byte	0xf6
 11343 30f7 36320000 		.4byte	0x3236
 11344 30fb 00       		.byte	0
 11345 30fc 0D       		.uleb128 0xd
 11346 30fd 15170000 		.4byte	.LASF463
 11347 3101 33       		.byte	0x33
 11348 3102 F7       		.byte	0xf7
 11349 3103 4F1E0000 		.4byte	0x1e4f
 11350 3107 04       		.byte	0x4
 11351 3108 11       		.uleb128 0x11
 11352 3109 63696400 		.ascii	"cid\000"
 11353 310d 33       		.byte	0x33
 11354 310e F7       		.byte	0xf7
 11355 310f 0A1F0000 		.4byte	0x1f0a
 11356 3113 08       		.byte	0x8
 11357 3114 11       		.uleb128 0x11
 11358 3115 63736400 		.ascii	"csd\000"
 11359 3119 33       		.byte	0x33
 11360 311a F7       		.byte	0xf7
 11361 311b 0A1F0000 		.4byte	0x1f0a
 11362 311f 18       		.byte	0x18
 11363 3120 0D       		.uleb128 0xd
 11364 3121 A31D0000 		.4byte	.LASF658
 11365 3125 33       		.byte	0x33
 11366 3126 F7       		.byte	0xf7
 11367 3127 1C090000 		.4byte	0x91c
 11368 312b 28       		.byte	0x28
 11369 312c 0D       		.uleb128 0xd
 11370 312d D41C0000 		.4byte	.LASF464
 11371 3131 33       		.byte	0x33
 11372 3132 FB       		.byte	0xfb
 11373 3133 3C320000 		.4byte	0x323c
 11374 3137 2C       		.byte	0x2c
 11375 3138 0D       		.uleb128 0xd
 11376 3139 3E040000 		.4byte	.LASF659
 11377 313d 33       		.byte	0x33
 11378 313e FF       		.byte	0xff
 11379 313f C3300000 		.4byte	0x30c3
 11380 3143 30       		.byte	0x30
 11381 3144 18       		.uleb128 0x18
ARM GAS  C:\Users\PCHAUT~1\AppData\Local\Temp\ccJuO4y2.s 			page 201


 11382 3145 62010000 		.4byte	.LASF595
 11383 3149 33       		.byte	0x33
 11384 314a 0301     		.2byte	0x103
 11385 314c CE300000 		.4byte	0x30ce
 11386 3150 34       		.byte	0x34
 11387 3151 21       		.uleb128 0x21
 11388 3152 72636100 		.ascii	"rca\000"
 11389 3156 33       		.byte	0x33
 11390 3157 0701     		.2byte	0x107
 11391 3159 1C090000 		.4byte	0x91c
 11392 315d 38       		.byte	0x38
 11393 315e 18       		.uleb128 0x18
 11394 315f CE060000 		.4byte	.LASF468
 11395 3163 33       		.byte	0x33
 11396 3164 0C01     		.2byte	0x10c
 11397 3166 F90A0000 		.4byte	0xaf9
 11398 316a 3C       		.byte	0x3c
 11399 316b 18       		.uleb128 0x18
 11400 316c 0D190000 		.4byte	.LASF471
 11401 3170 33       		.byte	0x33
 11402 3171 1001     		.2byte	0x110
 11403 3173 1C090000 		.4byte	0x91c
 11404 3177 40       		.byte	0x40
 11405 3178 21       		.uleb128 0x21
 11406 3179 646D6100 		.ascii	"dma\000"
 11407 317d 33       		.byte	0x33
 11408 317e 1401     		.2byte	0x114
 11409 3180 4F230000 		.4byte	0x234f
 11410 3184 44       		.byte	0x44
 11411 3185 18       		.uleb128 0x18
 11412 3186 2D170000 		.4byte	.LASF660
 11413 318a 33       		.byte	0x33
 11414 318b 1901     		.2byte	0x119
 11415 318d 42320000 		.4byte	0x3242
 11416 3191 48       		.byte	0x48
 11417 3192 00       		.byte	0
 11418 3193 0C       		.uleb128 0xc
 11419 3194 08       		.byte	0x8
 11420 3195 33       		.byte	0x33
 11421 3196 CF       		.byte	0xcf
 11422 3197 B4310000 		.4byte	0x31b4
 11423 319b 0D       		.uleb128 0xd
 11424 319c 220F0000 		.4byte	.LASF661
 11425 31a0 33       		.byte	0x33
 11426 31a1 D8       		.byte	0xd8
 11427 31a2 791C0000 		.4byte	0x1c79
 11428 31a6 00       		.byte	0
 11429 31a7 0D       		.uleb128 0xd
 11430 31a8 99230000 		.4byte	.LASF662
 11431 31ac 33       		.byte	0x33
 11432 31ad DC       		.byte	0xdc
 11433 31ae B8300000 		.4byte	0x30b8
 11434 31b2 04       		.byte	0x4
 11435 31b3 00       		.byte	0
 11436 31b4 03       		.uleb128 0x3
 11437 31b5 ED1A0000 		.4byte	.LASF663
 11438 31b9 33       		.byte	0x33
ARM GAS  C:\Users\PCHAUT~1\AppData\Local\Temp\ccJuO4y2.s 			page 202


 11439 31ba DE       		.byte	0xde
 11440 31bb 93310000 		.4byte	0x3193
 11441 31bf 0F       		.uleb128 0xf
 11442 31c0 B4310000 		.4byte	0x31b4
 11443 31c4 10       		.uleb128 0x10
 11444 31c5 AF230000 		.4byte	.LASF664
 11445 31c9 20       		.byte	0x20
 11446 31ca 33       		.byte	0x33
 11447 31cb EB       		.byte	0xeb
 11448 31cc 31320000 		.4byte	0x3231
 11449 31d0 0D       		.uleb128 0xd
 11450 31d1 27260000 		.4byte	.LASF665
 11451 31d5 33       		.byte	0x33
 11452 31d6 EC       		.byte	0xec
 11453 31d7 9C1E0000 		.4byte	0x1e9c
 11454 31db 00       		.byte	0
 11455 31dc 0D       		.uleb128 0xd
 11456 31dd 9F0D0000 		.4byte	.LASF666
 11457 31e1 33       		.byte	0x33
 11458 31e2 EC       		.byte	0xec
 11459 31e3 9C1E0000 		.4byte	0x1e9c
 11460 31e7 04       		.byte	0x4
 11461 31e8 0D       		.uleb128 0xd
 11462 31e9 5D100000 		.4byte	.LASF667
 11463 31ed 33       		.byte	0x33
 11464 31ee EC       		.byte	0xec
 11465 31ef 9C1E0000 		.4byte	0x1e9c
 11466 31f3 08       		.byte	0x8
 11467 31f4 0D       		.uleb128 0xd
 11468 31f5 DF140000 		.4byte	.LASF668
 11469 31f9 33       		.byte	0x33
 11470 31fa EC       		.byte	0xec
 11471 31fb 9C1E0000 		.4byte	0x1e9c
 11472 31ff 0C       		.byte	0xc
 11473 3200 0D       		.uleb128 0xd
 11474 3201 A6040000 		.4byte	.LASF646
 11475 3205 33       		.byte	0x33
 11476 3206 EC       		.byte	0xec
 11477 3207 C01E0000 		.4byte	0x1ec0
 11478 320b 10       		.byte	0x10
 11479 320c 0D       		.uleb128 0xd
 11480 320d 4B190000 		.4byte	.LASF645
 11481 3211 33       		.byte	0x33
 11482 3212 EC       		.byte	0xec
 11483 3213 E41E0000 		.4byte	0x1ee4
 11484 3217 14       		.byte	0x14
 11485 3218 0D       		.uleb128 0xd
 11486 3219 1A1B0000 		.4byte	.LASF669
 11487 321d 33       		.byte	0x33
 11488 321e EC       		.byte	0xec
 11489 321f 9C1E0000 		.4byte	0x1e9c
 11490 3223 18       		.byte	0x18
 11491 3224 0D       		.uleb128 0xd
 11492 3225 20230000 		.4byte	.LASF670
 11493 3229 33       		.byte	0x33
 11494 322a EC       		.byte	0xec
 11495 322b 041F0000 		.4byte	0x1f04
ARM GAS  C:\Users\PCHAUT~1\AppData\Local\Temp\ccJuO4y2.s 			page 203


 11496 322f 1C       		.byte	0x1c
 11497 3230 00       		.byte	0
 11498 3231 0F       		.uleb128 0xf
 11499 3232 C4310000 		.4byte	0x31c4
 11500 3236 05       		.uleb128 0x5
 11501 3237 04       		.byte	0x4
 11502 3238 31320000 		.4byte	0x3231
 11503 323c 05       		.uleb128 0x5
 11504 323d 04       		.byte	0x4
 11505 323e BF310000 		.4byte	0x31bf
 11506 3242 05       		.uleb128 0x5
 11507 3243 04       		.byte	0x4
 11508 3244 78150000 		.4byte	0x1578
 11509 3248 20       		.uleb128 0x20
 11510 3249 250B0000 		.4byte	.LASF671
 11511 324d 33       		.byte	0x33
 11512 324e 2501     		.2byte	0x125
 11513 3250 D9300000 		.4byte	0x30d9
 11514 3254 27       		.uleb128 0x27
 11515 3255 07       		.byte	0x7
 11516 3256 01       		.byte	0x1
 11517 3257 5E000000 		.4byte	0x5e
 11518 325b 34       		.byte	0x34
 11519 325c 46       		.byte	0x46
 11520 325d 80320000 		.4byte	0x3280
 11521 3261 28       		.uleb128 0x28
 11522 3262 E4060000 		.4byte	.LASF672
 11523 3266 00       		.byte	0
 11524 3267 28       		.uleb128 0x28
 11525 3268 CD020000 		.4byte	.LASF673
 11526 326c 01       		.byte	0x1
 11527 326d 28       		.uleb128 0x28
 11528 326e 6C230000 		.4byte	.LASF674
 11529 3272 02       		.byte	0x2
 11530 3273 28       		.uleb128 0x28
 11531 3274 BB0F0000 		.4byte	.LASF675
 11532 3278 03       		.byte	0x3
 11533 3279 28       		.uleb128 0x28
 11534 327a 4F140000 		.4byte	.LASF676
 11535 327e 04       		.byte	0x4
 11536 327f 00       		.byte	0
 11537 3280 03       		.uleb128 0x3
 11538 3281 6B0F0000 		.4byte	.LASF677
 11539 3285 34       		.byte	0x34
 11540 3286 4C       		.byte	0x4c
 11541 3287 54320000 		.4byte	0x3254
 11542 328b 07       		.uleb128 0x7
 11543 328c 6E220000 		.4byte	.LASF678
 11544 3290 35       		.byte	0x35
 11545 3291 9601     		.2byte	0x196
 11546 3293 97320000 		.4byte	0x3297
 11547 3297 1B       		.uleb128 0x1b
 11548 3298 6E220000 		.4byte	.LASF678
 11549 329c 34       		.byte	0x34
 11550 329d 35       		.byte	0x35
 11551 329e BA01     		.2byte	0x1ba
 11552 32a0 1A330000 		.4byte	0x331a
ARM GAS  C:\Users\PCHAUT~1\AppData\Local\Temp\ccJuO4y2.s 			page 204


 11553 32a4 18       		.uleb128 0x18
 11554 32a5 15170000 		.4byte	.LASF463
 11555 32a9 35       		.byte	0x35
 11556 32aa BE01     		.2byte	0x1be
 11557 32ac 80320000 		.4byte	0x3280
 11558 32b0 00       		.byte	0
 11559 32b1 18       		.uleb128 0x18
 11560 32b2 D41C0000 		.4byte	.LASF464
 11561 32b6 35       		.byte	0x35
 11562 32b7 C201     		.2byte	0x1c2
 11563 32b9 8C330000 		.4byte	0x338c
 11564 32bd 04       		.byte	0x4
 11565 32be 18       		.uleb128 0x18
 11566 32bf CE060000 		.4byte	.LASF468
 11567 32c3 35       		.byte	0x35
 11568 32c4 C701     		.2byte	0x1c7
 11569 32c6 F90A0000 		.4byte	0xaf9
 11570 32ca 08       		.byte	0x8
 11571 32cb 18       		.uleb128 0x18
 11572 32cc F00D0000 		.4byte	.LASF469
 11573 32d0 35       		.byte	0x35
 11574 32d1 CD01     		.2byte	0x1cd
 11575 32d3 501B0000 		.4byte	0x1b50
 11576 32d7 0C       		.byte	0xc
 11577 32d8 21       		.uleb128 0x21
 11578 32d9 73706900 		.ascii	"spi\000"
 11579 32dd 35       		.byte	0x35
 11580 32de D601     		.2byte	0x1d6
 11581 32e0 7B2D0000 		.4byte	0x2d7b
 11582 32e4 20       		.byte	0x20
 11583 32e5 18       		.uleb128 0x18
 11584 32e6 23010000 		.4byte	.LASF599
 11585 32ea 35       		.byte	0x35
 11586 32eb DA01     		.2byte	0x1da
 11587 32ed 4F230000 		.4byte	0x234f
 11588 32f1 24       		.byte	0x24
 11589 32f2 18       		.uleb128 0x18
 11590 32f3 09020000 		.4byte	.LASF600
 11591 32f7 35       		.byte	0x35
 11592 32f8 DE01     		.2byte	0x1de
 11593 32fa 4F230000 		.4byte	0x234f
 11594 32fe 28       		.byte	0x28
 11595 32ff 18       		.uleb128 0x18
 11596 3300 3F080000 		.4byte	.LASF597
 11597 3304 35       		.byte	0x35
 11598 3305 E201     		.2byte	0x1e2
 11599 3307 1C090000 		.4byte	0x91c
 11600 330b 2C       		.byte	0x2c
 11601 330c 18       		.uleb128 0x18
 11602 330d 98080000 		.4byte	.LASF598
 11603 3311 35       		.byte	0x35
 11604 3312 E601     		.2byte	0x1e6
 11605 3314 1C090000 		.4byte	0x91c
 11606 3318 30       		.byte	0x30
 11607 3319 00       		.byte	0
 11608 331a 07       		.uleb128 0x7
 11609 331b 63160000 		.4byte	.LASF679
ARM GAS  C:\Users\PCHAUT~1\AppData\Local\Temp\ccJuO4y2.s 			page 205


 11610 331f 35       		.byte	0x35
 11611 3320 9E01     		.2byte	0x19e
 11612 3322 26330000 		.4byte	0x3326
 11613 3326 05       		.uleb128 0x5
 11614 3327 04       		.byte	0x4
 11615 3328 2C330000 		.4byte	0x332c
 11616 332c 1F       		.uleb128 0x1f
 11617 332d 37330000 		.4byte	0x3337
 11618 3331 16       		.uleb128 0x16
 11619 3332 37330000 		.4byte	0x3337
 11620 3336 00       		.byte	0
 11621 3337 05       		.uleb128 0x5
 11622 3338 04       		.byte	0x4
 11623 3339 8B320000 		.4byte	0x328b
 11624 333d 1C       		.uleb128 0x1c
 11625 333e 0C       		.byte	0xc
 11626 333f 35       		.byte	0x35
 11627 3340 A301     		.2byte	0x1a3
 11628 3342 7B330000 		.4byte	0x337b
 11629 3346 18       		.uleb128 0x18
 11630 3347 5D0A0000 		.4byte	.LASF476
 11631 334b 35       		.byte	0x35
 11632 334c A701     		.2byte	0x1a7
 11633 334e 1A330000 		.4byte	0x331a
 11634 3352 00       		.byte	0
 11635 3353 18       		.uleb128 0x18
 11636 3354 37240000 		.4byte	.LASF680
 11637 3358 35       		.byte	0x35
 11638 3359 AC01     		.2byte	0x1ac
 11639 335b E0200000 		.4byte	0x20e0
 11640 335f 04       		.byte	0x4
 11641 3360 18       		.uleb128 0x18
 11642 3361 92080000 		.4byte	.LASF681
 11643 3365 35       		.byte	0x35
 11644 3366 B001     		.2byte	0x1b0
 11645 3368 01090000 		.4byte	0x901
 11646 336c 08       		.byte	0x8
 11647 336d 21       		.uleb128 0x21
 11648 336e 63723100 		.ascii	"cr1\000"
 11649 3372 35       		.byte	0x35
 11650 3373 B401     		.2byte	0x1b4
 11651 3375 01090000 		.4byte	0x901
 11652 3379 0A       		.byte	0xa
 11653 337a 00       		.byte	0
 11654 337b 07       		.uleb128 0x7
 11655 337c 49210000 		.4byte	.LASF682
 11656 3380 35       		.byte	0x35
 11657 3381 B501     		.2byte	0x1b5
 11658 3383 3D330000 		.4byte	0x333d
 11659 3387 0F       		.uleb128 0xf
 11660 3388 7B330000 		.4byte	0x337b
 11661 338c 05       		.uleb128 0x5
 11662 338d 04       		.byte	0x4
 11663 338e 87330000 		.4byte	0x3387
 11664 3392 20       		.uleb128 0x20
 11665 3393 60200000 		.4byte	.LASF683
 11666 3397 35       		.byte	0x35
ARM GAS  C:\Users\PCHAUT~1\AppData\Local\Temp\ccJuO4y2.s 			page 206


 11667 3398 F201     		.2byte	0x1f2
 11668 339a 8B320000 		.4byte	0x328b
 11669 339e 03       		.uleb128 0x3
 11670 339f 95120000 		.4byte	.LASF684
 11671 33a3 36       		.byte	0x36
 11672 33a4 FA       		.byte	0xfa
 11673 33a5 A9330000 		.4byte	0x33a9
 11674 33a9 17       		.uleb128 0x17
 11675 33aa 95120000 		.4byte	.LASF684
 11676 33ae 6002     		.2byte	0x260
 11677 33b0 37       		.byte	0x37
 11678 33b1 7701     		.2byte	0x177
 11679 33b3 D5340000 		.4byte	0x34d5
 11680 33b7 18       		.uleb128 0x18
 11681 33b8 15170000 		.4byte	.LASF463
 11682 33bc 37       		.byte	0x37
 11683 33bd 7B01     		.2byte	0x17b
 11684 33bf 0D350000 		.4byte	0x350d
 11685 33c3 00       		.byte	0
 11686 33c4 18       		.uleb128 0x18
 11687 33c5 D41C0000 		.4byte	.LASF464
 11688 33c9 37       		.byte	0x37
 11689 33ca 7F01     		.2byte	0x17f
 11690 33cc 5D3E0000 		.4byte	0x3e5d
 11691 33d0 04       		.byte	0x4
 11692 33d1 18       		.uleb128 0x18
 11693 33d2 85210000 		.4byte	.LASF685
 11694 33d6 37       		.byte	0x37
 11695 33d7 8301     		.2byte	0x183
 11696 33d9 01090000 		.4byte	0x901
 11697 33dd 08       		.byte	0x8
 11698 33de 18       		.uleb128 0x18
 11699 33df 5E240000 		.4byte	.LASF686
 11700 33e3 37       		.byte	0x37
 11701 33e4 8701     		.2byte	0x187
 11702 33e6 01090000 		.4byte	0x901
 11703 33ea 0A       		.byte	0xa
 11704 33eb 21       		.uleb128 0x21
 11705 33ec 65706300 		.ascii	"epc\000"
 11706 33f0 37       		.byte	0x37
 11707 33f1 8B01     		.2byte	0x18b
 11708 33f3 633E0000 		.4byte	0x3e63
 11709 33f7 0C       		.byte	0xc
 11710 33f8 18       		.uleb128 0x18
 11711 33f9 14070000 		.4byte	.LASF687
 11712 33fd 37       		.byte	0x37
 11713 33fe 9201     		.2byte	0x192
 11714 3400 793E0000 		.4byte	0x3e79
 11715 3404 1C       		.byte	0x1c
 11716 3405 18       		.uleb128 0x18
 11717 3406 5F0D0000 		.4byte	.LASF688
 11718 340a 37       		.byte	0x37
 11719 340b 9901     		.2byte	0x199
 11720 340d 793E0000 		.4byte	0x3e79
 11721 3411 28       		.byte	0x28
 11722 3412 18       		.uleb128 0x18
 11723 3413 ED100000 		.4byte	.LASF689
ARM GAS  C:\Users\PCHAUT~1\AppData\Local\Temp\ccJuO4y2.s 			page 207


 11724 3417 37       		.byte	0x37
 11725 3418 9D01     		.2byte	0x19d
 11726 341a 7F350000 		.4byte	0x357f
 11727 341e 34       		.byte	0x34
 11728 341f 18       		.uleb128 0x18
 11729 3420 501C0000 		.4byte	.LASF690
 11730 3424 37       		.byte	0x37
 11731 3425 A101     		.2byte	0x1a1
 11732 3427 791C0000 		.4byte	0x1c79
 11733 342b 38       		.byte	0x38
 11734 342c 18       		.uleb128 0x18
 11735 342d 96180000 		.4byte	.LASF691
 11736 3431 37       		.byte	0x37
 11737 3432 A501     		.2byte	0x1a5
 11738 3434 2C000000 		.4byte	0x2c
 11739 3438 3C       		.byte	0x3c
 11740 3439 18       		.uleb128 0x18
 11741 343a BC1E0000 		.4byte	.LASF692
 11742 343e 37       		.byte	0x37
 11743 343f A901     		.2byte	0x1a9
 11744 3441 FF350000 		.4byte	0x35ff
 11745 3445 40       		.byte	0x40
 11746 3446 18       		.uleb128 0x18
 11747 3447 DE060000 		.4byte	.LASF693
 11748 344b 37       		.byte	0x37
 11749 344c AD01     		.2byte	0x1ad
 11750 344e B0230000 		.4byte	0x23b0
 11751 3452 44       		.byte	0x44
 11752 3453 18       		.uleb128 0x18
 11753 3454 35160000 		.4byte	.LASF694
 11754 3458 37       		.byte	0x37
 11755 3459 B101     		.2byte	0x1b1
 11756 345b 01090000 		.4byte	0x901
 11757 345f 4C       		.byte	0x4c
 11758 3460 18       		.uleb128 0x18
 11759 3461 81160000 		.4byte	.LASF695
 11760 3465 37       		.byte	0x37
 11761 3466 B501     		.2byte	0x1b5
 11762 3468 E6080000 		.4byte	0x8e6
 11763 346c 4E       		.byte	0x4e
 11764 346d 18       		.uleb128 0x18
 11765 346e 811B0000 		.4byte	.LASF696
 11766 3472 37       		.byte	0x37
 11767 3473 B901     		.2byte	0x1b9
 11768 3475 E6080000 		.4byte	0x8e6
 11769 3479 4F       		.byte	0x4f
 11770 347a 21       		.uleb128 0x21
 11771 347b 6F746700 		.ascii	"otg\000"
 11772 347f 37       		.byte	0x37
 11773 3480 C101     		.2byte	0x1c1
 11774 3482 893E0000 		.4byte	0x3e89
 11775 3486 50       		.byte	0x50
 11776 3487 18       		.uleb128 0x18
 11777 3488 090F0000 		.4byte	.LASF697
 11778 348c 37       		.byte	0x37
 11779 348d C501     		.2byte	0x1c5
 11780 348f 8F3E0000 		.4byte	0x3e8f
ARM GAS  C:\Users\PCHAUT~1\AppData\Local\Temp\ccJuO4y2.s 			page 208


 11781 3493 54       		.byte	0x54
 11782 3494 18       		.uleb128 0x18
 11783 3495 F41F0000 		.4byte	.LASF698
 11784 3499 37       		.byte	0x37
 11785 349a C901     		.2byte	0x1c9
 11786 349c 1C090000 		.4byte	0x91c
 11787 34a0 58       		.byte	0x58
 11788 34a1 18       		.uleb128 0x18
 11789 34a2 0F0E0000 		.4byte	.LASF699
 11790 34a6 37       		.byte	0x37
 11791 34a7 CD01     		.2byte	0x1cd
 11792 34a9 1C090000 		.4byte	0x91c
 11793 34ad 5C       		.byte	0x5c
 11794 34ae 18       		.uleb128 0x18
 11795 34af F9070000 		.4byte	.LASF700
 11796 34b3 37       		.byte	0x37
 11797 34b4 D101     		.2byte	0x1d1
 11798 34b6 F90A0000 		.4byte	0xaf9
 11799 34ba 60       		.byte	0x60
 11800 34bb 21       		.uleb128 0x21
 11801 34bc 747200   		.ascii	"tr\000"
 11802 34bf 37       		.byte	0x37
 11803 34c0 D601     		.2byte	0x1d6
 11804 34c2 F90A0000 		.4byte	0xaf9
 11805 34c6 64       		.byte	0x64
 11806 34c7 18       		.uleb128 0x18
 11807 34c8 25150000 		.4byte	.LASF701
 11808 34cc 37       		.byte	0x37
 11809 34cd DA01     		.2byte	0x1da
 11810 34cf 953E0000 		.4byte	0x3e95
 11811 34d3 68       		.byte	0x68
 11812 34d4 00       		.byte	0
 11813 34d5 03       		.uleb128 0x3
 11814 34d6 DA0A0000 		.4byte	.LASF702
 11815 34da 36       		.byte	0x36
 11816 34db FF       		.byte	0xff
 11817 34dc E6080000 		.4byte	0x8e6
 11818 34e0 2A       		.uleb128 0x2a
 11819 34e1 07       		.byte	0x7
 11820 34e2 01       		.byte	0x1
 11821 34e3 5E000000 		.4byte	0x5e
 11822 34e7 36       		.byte	0x36
 11823 34e8 0401     		.2byte	0x104
 11824 34ea 0D350000 		.4byte	0x350d
 11825 34ee 28       		.uleb128 0x28
 11826 34ef 0B250000 		.4byte	.LASF703
 11827 34f3 00       		.byte	0
 11828 34f4 28       		.uleb128 0x28
 11829 34f5 00000000 		.4byte	.LASF704
 11830 34f9 01       		.byte	0x1
 11831 34fa 28       		.uleb128 0x28
 11832 34fb 1A140000 		.4byte	.LASF705
 11833 34ff 02       		.byte	0x2
 11834 3500 28       		.uleb128 0x28
 11835 3501 EE190000 		.4byte	.LASF706
 11836 3505 03       		.byte	0x3
 11837 3506 28       		.uleb128 0x28
ARM GAS  C:\Users\PCHAUT~1\AppData\Local\Temp\ccJuO4y2.s 			page 209


 11838 3507 11080000 		.4byte	.LASF707
 11839 350b 04       		.byte	0x4
 11840 350c 00       		.byte	0
 11841 350d 07       		.uleb128 0x7
 11842 350e 5C260000 		.4byte	.LASF708
 11843 3512 36       		.byte	0x36
 11844 3513 0A01     		.2byte	0x10a
 11845 3515 E0340000 		.4byte	0x34e0
 11846 3519 2A       		.uleb128 0x2a
 11847 351a 07       		.byte	0x7
 11848 351b 01       		.byte	0x1
 11849 351c 5E000000 		.4byte	0x5e
 11850 3520 36       		.byte	0x36
 11851 3521 0F01     		.2byte	0x10f
 11852 3523 3A350000 		.4byte	0x353a
 11853 3527 28       		.uleb128 0x28
 11854 3528 E71E0000 		.4byte	.LASF709
 11855 352c 00       		.byte	0
 11856 352d 28       		.uleb128 0x28
 11857 352e E50E0000 		.4byte	.LASF710
 11858 3532 01       		.byte	0x1
 11859 3533 28       		.uleb128 0x28
 11860 3534 F2030000 		.4byte	.LASF711
 11861 3538 02       		.byte	0x2
 11862 3539 00       		.byte	0
 11863 353a 07       		.uleb128 0x7
 11864 353b 0D030000 		.4byte	.LASF712
 11865 353f 36       		.byte	0x36
 11866 3540 1301     		.2byte	0x113
 11867 3542 19350000 		.4byte	0x3519
 11868 3546 2A       		.uleb128 0x2a
 11869 3547 07       		.byte	0x7
 11870 3548 01       		.byte	0x1
 11871 3549 5E000000 		.4byte	0x5e
 11872 354d 36       		.byte	0x36
 11873 354e 1801     		.2byte	0x118
 11874 3550 7F350000 		.4byte	0x357f
 11875 3554 28       		.uleb128 0x28
 11876 3555 871E0000 		.4byte	.LASF713
 11877 3559 00       		.byte	0
 11878 355a 28       		.uleb128 0x28
 11879 355b E2100000 		.4byte	.LASF714
 11880 355f 01       		.byte	0x1
 11881 3560 28       		.uleb128 0x28
 11882 3561 3C1C0000 		.4byte	.LASF715
 11883 3565 02       		.byte	0x2
 11884 3566 28       		.uleb128 0x28
 11885 3567 3A170000 		.4byte	.LASF716
 11886 356b 03       		.byte	0x3
 11887 356c 28       		.uleb128 0x28
 11888 356d 20160000 		.4byte	.LASF717
 11889 3571 04       		.byte	0x4
 11890 3572 28       		.uleb128 0x28
 11891 3573 E8110000 		.4byte	.LASF718
 11892 3577 05       		.byte	0x5
 11893 3578 28       		.uleb128 0x28
 11894 3579 48100000 		.4byte	.LASF719
ARM GAS  C:\Users\PCHAUT~1\AppData\Local\Temp\ccJuO4y2.s 			page 210


 11895 357d 06       		.byte	0x6
 11896 357e 00       		.byte	0
 11897 357f 07       		.uleb128 0x7
 11898 3580 31120000 		.4byte	.LASF720
 11899 3584 36       		.byte	0x36
 11900 3585 2001     		.2byte	0x120
 11901 3587 46350000 		.4byte	0x3546
 11902 358b 2A       		.uleb128 0x2a
 11903 358c 07       		.byte	0x7
 11904 358d 01       		.byte	0x1
 11905 358e 5E000000 		.4byte	0x5e
 11906 3592 36       		.byte	0x36
 11907 3593 2501     		.2byte	0x125
 11908 3595 BE350000 		.4byte	0x35be
 11909 3599 28       		.uleb128 0x28
 11910 359a 231E0000 		.4byte	.LASF721
 11911 359e 00       		.byte	0
 11912 359f 28       		.uleb128 0x28
 11913 35a0 701A0000 		.4byte	.LASF722
 11914 35a4 01       		.byte	0x1
 11915 35a5 28       		.uleb128 0x28
 11916 35a6 CA140000 		.4byte	.LASF723
 11917 35aa 02       		.byte	0x2
 11918 35ab 28       		.uleb128 0x28
 11919 35ac 87150000 		.4byte	.LASF724
 11920 35b0 03       		.byte	0x3
 11921 35b1 28       		.uleb128 0x28
 11922 35b2 CA230000 		.4byte	.LASF725
 11923 35b6 04       		.byte	0x4
 11924 35b7 28       		.uleb128 0x28
 11925 35b8 6B140000 		.4byte	.LASF726
 11926 35bc 05       		.byte	0x5
 11927 35bd 00       		.byte	0
 11928 35be 07       		.uleb128 0x7
 11929 35bf 9F1A0000 		.4byte	.LASF727
 11930 35c3 36       		.byte	0x36
 11931 35c4 2C01     		.2byte	0x12c
 11932 35c6 8B350000 		.4byte	0x358b
 11933 35ca 1C       		.uleb128 0x1c
 11934 35cb 08       		.byte	0x8
 11935 35cc 36       		.byte	0x36
 11936 35cd 3101     		.2byte	0x131
 11937 35cf EE350000 		.4byte	0x35ee
 11938 35d3 18       		.uleb128 0x18
 11939 35d4 E5250000 		.4byte	.LASF728
 11940 35d8 36       		.byte	0x36
 11941 35d9 3501     		.2byte	0x135
 11942 35db 2C000000 		.4byte	0x2c
 11943 35df 00       		.byte	0
 11944 35e0 18       		.uleb128 0x18
 11945 35e1 84040000 		.4byte	.LASF729
 11946 35e5 36       		.byte	0x36
 11947 35e6 3901     		.2byte	0x139
 11948 35e8 AE1C0000 		.4byte	0x1cae
 11949 35ec 04       		.byte	0x4
 11950 35ed 00       		.byte	0
 11951 35ee 07       		.uleb128 0x7
ARM GAS  C:\Users\PCHAUT~1\AppData\Local\Temp\ccJuO4y2.s 			page 211


 11952 35ef 55160000 		.4byte	.LASF730
 11953 35f3 36       		.byte	0x36
 11954 35f4 3A01     		.2byte	0x13a
 11955 35f6 CA350000 		.4byte	0x35ca
 11956 35fa 0F       		.uleb128 0xf
 11957 35fb EE350000 		.4byte	0x35ee
 11958 35ff 07       		.uleb128 0x7
 11959 3600 67250000 		.4byte	.LASF731
 11960 3604 36       		.byte	0x36
 11961 3605 4201     		.2byte	0x142
 11962 3607 0B360000 		.4byte	0x360b
 11963 360b 05       		.uleb128 0x5
 11964 360c 04       		.byte	0x4
 11965 360d 11360000 		.4byte	0x3611
 11966 3611 1F       		.uleb128 0x1f
 11967 3612 1C360000 		.4byte	0x361c
 11968 3616 16       		.uleb128 0x16
 11969 3617 1C360000 		.4byte	0x361c
 11970 361b 00       		.byte	0
 11971 361c 05       		.uleb128 0x5
 11972 361d 04       		.byte	0x4
 11973 361e 9E330000 		.4byte	0x339e
 11974 3622 07       		.uleb128 0x7
 11975 3623 D0040000 		.4byte	.LASF732
 11976 3627 36       		.byte	0x36
 11977 3628 4B01     		.2byte	0x14b
 11978 362a 2E360000 		.4byte	0x362e
 11979 362e 05       		.uleb128 0x5
 11980 362f 04       		.byte	0x4
 11981 3630 34360000 		.4byte	0x3634
 11982 3634 1F       		.uleb128 0x1f
 11983 3635 44360000 		.4byte	0x3644
 11984 3639 16       		.uleb128 0x16
 11985 363a 1C360000 		.4byte	0x361c
 11986 363e 16       		.uleb128 0x16
 11987 363f D5340000 		.4byte	0x34d5
 11988 3643 00       		.byte	0
 11989 3644 07       		.uleb128 0x7
 11990 3645 600C0000 		.4byte	.LASF733
 11991 3649 36       		.byte	0x36
 11992 364a 5401     		.2byte	0x154
 11993 364c 50360000 		.4byte	0x3650
 11994 3650 05       		.uleb128 0x5
 11995 3651 04       		.byte	0x4
 11996 3652 56360000 		.4byte	0x3656
 11997 3656 1F       		.uleb128 0x1f
 11998 3657 66360000 		.4byte	0x3666
 11999 365b 16       		.uleb128 0x16
 12000 365c 1C360000 		.4byte	0x361c
 12001 3660 16       		.uleb128 0x16
 12002 3661 BE350000 		.4byte	0x35be
 12003 3665 00       		.byte	0
 12004 3666 07       		.uleb128 0x7
 12005 3667 52060000 		.4byte	.LASF734
 12006 366b 36       		.byte	0x36
 12007 366c 6001     		.2byte	0x160
 12008 366e 72360000 		.4byte	0x3672
ARM GAS  C:\Users\PCHAUT~1\AppData\Local\Temp\ccJuO4y2.s 			page 212


 12009 3672 05       		.uleb128 0x5
 12010 3673 04       		.byte	0x4
 12011 3674 78360000 		.4byte	0x3678
 12012 3678 15       		.uleb128 0x15
 12013 3679 951E0000 		.4byte	0x1e95
 12014 367d 87360000 		.4byte	0x3687
 12015 3681 16       		.uleb128 0x16
 12016 3682 1C360000 		.4byte	0x361c
 12017 3686 00       		.byte	0
 12018 3687 07       		.uleb128 0x7
 12019 3688 B4100000 		.4byte	.LASF735
 12020 368c 36       		.byte	0x36
 12021 368d 6501     		.2byte	0x165
 12022 368f 93360000 		.4byte	0x3693
 12023 3693 05       		.uleb128 0x5
 12024 3694 04       		.byte	0x4
 12025 3695 99360000 		.4byte	0x3699
 12026 3699 15       		.uleb128 0x15
 12027 369a B7360000 		.4byte	0x36b7
 12028 369e B7360000 		.4byte	0x36b7
 12029 36a2 16       		.uleb128 0x16
 12030 36a3 1C360000 		.4byte	0x361c
 12031 36a7 16       		.uleb128 0x16
 12032 36a8 E6080000 		.4byte	0x8e6
 12033 36ac 16       		.uleb128 0x16
 12034 36ad E6080000 		.4byte	0x8e6
 12035 36b1 16       		.uleb128 0x16
 12036 36b2 01090000 		.4byte	0x901
 12037 36b6 00       		.byte	0
 12038 36b7 05       		.uleb128 0x5
 12039 36b8 04       		.byte	0x4
 12040 36b9 FA350000 		.4byte	0x35fa
 12041 36bd 0C       		.uleb128 0xc
 12042 36be 20       		.byte	0x20
 12043 36bf 38       		.byte	0x38
 12044 36c0 35       		.byte	0x35
 12045 36c1 26370000 		.4byte	0x3726
 12046 36c5 0D       		.uleb128 0xd
 12047 36c6 3C030000 		.4byte	.LASF736
 12048 36ca 38       		.byte	0x38
 12049 36cb 36       		.byte	0x36
 12050 36cc 27090000 		.4byte	0x927
 12051 36d0 00       		.byte	0
 12052 36d1 0D       		.uleb128 0xd
 12053 36d2 540E0000 		.4byte	.LASF737
 12054 36d6 38       		.byte	0x38
 12055 36d7 38       		.byte	0x38
 12056 36d8 27090000 		.4byte	0x927
 12057 36dc 04       		.byte	0x4
 12058 36dd 0D       		.uleb128 0xd
 12059 36de A2020000 		.4byte	.LASF738
 12060 36e2 38       		.byte	0x38
 12061 36e3 39       		.byte	0x39
 12062 36e4 27090000 		.4byte	0x927
 12063 36e8 08       		.byte	0x8
 12064 36e9 0D       		.uleb128 0xd
 12065 36ea C51C0000 		.4byte	.LASF739
ARM GAS  C:\Users\PCHAUT~1\AppData\Local\Temp\ccJuO4y2.s 			page 213


 12066 36ee 38       		.byte	0x38
 12067 36ef 3A       		.byte	0x3a
 12068 36f0 27090000 		.4byte	0x927
 12069 36f4 0C       		.byte	0xc
 12070 36f5 0D       		.uleb128 0xd
 12071 36f6 C3140000 		.4byte	.LASF740
 12072 36fa 38       		.byte	0x38
 12073 36fb 3C       		.byte	0x3c
 12074 36fc 27090000 		.4byte	0x927
 12075 3700 10       		.byte	0x10
 12076 3701 0D       		.uleb128 0xd
 12077 3702 8A0E0000 		.4byte	.LASF741
 12078 3706 38       		.byte	0x38
 12079 3707 3E       		.byte	0x3e
 12080 3708 27090000 		.4byte	0x927
 12081 370c 14       		.byte	0x14
 12082 370d 0D       		.uleb128 0xd
 12083 370e 9D0E0000 		.4byte	.LASF742
 12084 3712 38       		.byte	0x38
 12085 3713 3F       		.byte	0x3f
 12086 3714 27090000 		.4byte	0x927
 12087 3718 18       		.byte	0x18
 12088 3719 0D       		.uleb128 0xd
 12089 371a D9030000 		.4byte	.LASF743
 12090 371e 38       		.byte	0x38
 12091 371f 40       		.byte	0x40
 12092 3720 27090000 		.4byte	0x927
 12093 3724 1C       		.byte	0x1c
 12094 3725 00       		.byte	0
 12095 3726 03       		.uleb128 0x3
 12096 3727 581C0000 		.4byte	.LASF744
 12097 372b 38       		.byte	0x38
 12098 372c 41       		.byte	0x41
 12099 372d BD360000 		.4byte	0x36bd
 12100 3731 0C       		.uleb128 0xc
 12101 3732 20       		.byte	0x20
 12102 3733 38       		.byte	0x38
 12103 3734 46       		.byte	0x46
 12104 3735 9A370000 		.4byte	0x379a
 12105 3739 0D       		.uleb128 0xd
 12106 373a F70E0000 		.4byte	.LASF745
 12107 373e 38       		.byte	0x38
 12108 373f 47       		.byte	0x47
 12109 3740 27090000 		.4byte	0x927
 12110 3744 00       		.byte	0
 12111 3745 0D       		.uleb128 0xd
 12112 3746 8E120000 		.4byte	.LASF746
 12113 374a 38       		.byte	0x38
 12114 374b 49       		.byte	0x49
 12115 374c 27090000 		.4byte	0x927
 12116 3750 04       		.byte	0x4
 12117 3751 0D       		.uleb128 0xd
 12118 3752 A5200000 		.4byte	.LASF747
 12119 3756 38       		.byte	0x38
 12120 3757 4A       		.byte	0x4a
 12121 3758 27090000 		.4byte	0x927
 12122 375c 08       		.byte	0x8
ARM GAS  C:\Users\PCHAUT~1\AppData\Local\Temp\ccJuO4y2.s 			page 214


 12123 375d 0D       		.uleb128 0xd
 12124 375e B2120000 		.4byte	.LASF748
 12125 3762 38       		.byte	0x38
 12126 3763 4C       		.byte	0x4c
 12127 3764 27090000 		.4byte	0x927
 12128 3768 0C       		.byte	0xc
 12129 3769 0D       		.uleb128 0xd
 12130 376a 14180000 		.4byte	.LASF749
 12131 376e 38       		.byte	0x38
 12132 376f 4D       		.byte	0x4d
 12133 3770 27090000 		.4byte	0x927
 12134 3774 10       		.byte	0x10
 12135 3775 0D       		.uleb128 0xd
 12136 3776 8A0E0000 		.4byte	.LASF741
 12137 377a 38       		.byte	0x38
 12138 377b 4F       		.byte	0x4f
 12139 377c 27090000 		.4byte	0x927
 12140 3780 14       		.byte	0x14
 12141 3781 0D       		.uleb128 0xd
 12142 3782 EF060000 		.4byte	.LASF750
 12143 3786 38       		.byte	0x38
 12144 3787 50       		.byte	0x50
 12145 3788 27090000 		.4byte	0x927
 12146 378c 18       		.byte	0x18
 12147 378d 0D       		.uleb128 0xd
 12148 378e 8E200000 		.4byte	.LASF751
 12149 3792 38       		.byte	0x38
 12150 3793 52       		.byte	0x52
 12151 3794 27090000 		.4byte	0x927
 12152 3798 1C       		.byte	0x1c
 12153 3799 00       		.byte	0
 12154 379a 03       		.uleb128 0x3
 12155 379b 1C080000 		.4byte	.LASF752
 12156 379f 38       		.byte	0x38
 12157 37a0 53       		.byte	0x53
 12158 37a1 31370000 		.4byte	0x3731
 12159 37a5 0C       		.uleb128 0xc
 12160 37a6 20       		.byte	0x20
 12161 37a7 38       		.byte	0x38
 12162 37a8 58       		.byte	0x58
 12163 37a9 0E380000 		.4byte	0x380e
 12164 37ad 0D       		.uleb128 0xd
 12165 37ae B6150000 		.4byte	.LASF753
 12166 37b2 38       		.byte	0x38
 12167 37b3 59       		.byte	0x59
 12168 37b4 27090000 		.4byte	0x927
 12169 37b8 00       		.byte	0
 12170 37b9 0D       		.uleb128 0xd
 12171 37ba 8E120000 		.4byte	.LASF746
 12172 37be 38       		.byte	0x38
 12173 37bf 5B       		.byte	0x5b
 12174 37c0 27090000 		.4byte	0x927
 12175 37c4 04       		.byte	0x4
 12176 37c5 0D       		.uleb128 0xd
 12177 37c6 69190000 		.4byte	.LASF754
 12178 37ca 38       		.byte	0x38
 12179 37cb 5C       		.byte	0x5c
ARM GAS  C:\Users\PCHAUT~1\AppData\Local\Temp\ccJuO4y2.s 			page 215


 12180 37cc 27090000 		.4byte	0x927
 12181 37d0 08       		.byte	0x8
 12182 37d1 0D       		.uleb128 0xd
 12183 37d2 B2120000 		.4byte	.LASF748
 12184 37d6 38       		.byte	0x38
 12185 37d7 5E       		.byte	0x5e
 12186 37d8 27090000 		.4byte	0x927
 12187 37dc 0C       		.byte	0xc
 12188 37dd 0D       		.uleb128 0xd
 12189 37de DE210000 		.4byte	.LASF755
 12190 37e2 38       		.byte	0x38
 12191 37e3 5F       		.byte	0x5f
 12192 37e4 27090000 		.4byte	0x927
 12193 37e8 10       		.byte	0x10
 12194 37e9 0D       		.uleb128 0xd
 12195 37ea 8A0E0000 		.4byte	.LASF741
 12196 37ee 38       		.byte	0x38
 12197 37ef 61       		.byte	0x61
 12198 37f0 27090000 		.4byte	0x927
 12199 37f4 14       		.byte	0x14
 12200 37f5 0D       		.uleb128 0xd
 12201 37f6 9D0E0000 		.4byte	.LASF742
 12202 37fa 38       		.byte	0x38
 12203 37fb 62       		.byte	0x62
 12204 37fc 27090000 		.4byte	0x927
 12205 3800 18       		.byte	0x18
 12206 3801 0D       		.uleb128 0xd
 12207 3802 8E200000 		.4byte	.LASF751
 12208 3806 38       		.byte	0x38
 12209 3807 63       		.byte	0x63
 12210 3808 27090000 		.4byte	0x927
 12211 380c 1C       		.byte	0x1c
 12212 380d 00       		.byte	0
 12213 380e 03       		.uleb128 0x3
 12214 380f C8070000 		.4byte	.LASF756
 12215 3813 38       		.byte	0x38
 12216 3814 64       		.byte	0x64
 12217 3815 A5370000 		.4byte	0x37a5
 12218 3819 2C       		.uleb128 0x2c
 12219 381a 00100100 		.4byte	0x11000
 12220 381e 38       		.byte	0x38
 12221 381f 69       		.byte	0x69
 12222 3820 F63A0000 		.4byte	0x3af6
 12223 3824 0D       		.uleb128 0xd
 12224 3825 C8040000 		.4byte	.LASF757
 12225 3829 38       		.byte	0x38
 12226 382a 6A       		.byte	0x6a
 12227 382b 27090000 		.4byte	0x927
 12228 382f 00       		.byte	0
 12229 3830 0D       		.uleb128 0xd
 12230 3831 470D0000 		.4byte	.LASF758
 12231 3835 38       		.byte	0x38
 12232 3836 6B       		.byte	0x6b
 12233 3837 27090000 		.4byte	0x927
 12234 383b 04       		.byte	0x4
 12235 383c 0D       		.uleb128 0xd
 12236 383d 39070000 		.4byte	.LASF759
ARM GAS  C:\Users\PCHAUT~1\AppData\Local\Temp\ccJuO4y2.s 			page 216


 12237 3841 38       		.byte	0x38
 12238 3842 6C       		.byte	0x6c
 12239 3843 27090000 		.4byte	0x927
 12240 3847 08       		.byte	0x8
 12241 3848 0D       		.uleb128 0xd
 12242 3849 7B250000 		.4byte	.LASF760
 12243 384d 38       		.byte	0x38
 12244 384e 6D       		.byte	0x6d
 12245 384f 27090000 		.4byte	0x927
 12246 3853 0C       		.byte	0xc
 12247 3854 0D       		.uleb128 0xd
 12248 3855 2A140000 		.4byte	.LASF761
 12249 3859 38       		.byte	0x38
 12250 385a 6E       		.byte	0x6e
 12251 385b 27090000 		.4byte	0x927
 12252 385f 10       		.byte	0x10
 12253 3860 0D       		.uleb128 0xd
 12254 3861 99030000 		.4byte	.LASF762
 12255 3865 38       		.byte	0x38
 12256 3866 6F       		.byte	0x6f
 12257 3867 27090000 		.4byte	0x927
 12258 386b 14       		.byte	0x14
 12259 386c 0D       		.uleb128 0xd
 12260 386d 681B0000 		.4byte	.LASF763
 12261 3871 38       		.byte	0x38
 12262 3872 70       		.byte	0x70
 12263 3873 27090000 		.4byte	0x927
 12264 3877 18       		.byte	0x18
 12265 3878 0D       		.uleb128 0xd
 12266 3879 E3070000 		.4byte	.LASF764
 12267 387d 38       		.byte	0x38
 12268 387e 71       		.byte	0x71
 12269 387f 27090000 		.4byte	0x927
 12270 3883 1C       		.byte	0x1c
 12271 3884 0D       		.uleb128 0xd
 12272 3885 DB070000 		.4byte	.LASF765
 12273 3889 38       		.byte	0x38
 12274 388a 73       		.byte	0x73
 12275 388b 27090000 		.4byte	0x927
 12276 388f 20       		.byte	0x20
 12277 3890 0D       		.uleb128 0xd
 12278 3891 121B0000 		.4byte	.LASF766
 12279 3895 38       		.byte	0x38
 12280 3896 75       		.byte	0x75
 12281 3897 27090000 		.4byte	0x927
 12282 389b 24       		.byte	0x24
 12283 389c 0D       		.uleb128 0xd
 12284 389d D3000000 		.4byte	.LASF767
 12285 38a1 38       		.byte	0x38
 12286 38a2 76       		.byte	0x76
 12287 38a3 27090000 		.4byte	0x927
 12288 38a7 28       		.byte	0x28
 12289 38a8 0D       		.uleb128 0xd
 12290 38a9 701B0000 		.4byte	.LASF768
 12291 38ad 38       		.byte	0x38
 12292 38ae 78       		.byte	0x78
 12293 38af 27090000 		.4byte	0x927
ARM GAS  C:\Users\PCHAUT~1\AppData\Local\Temp\ccJuO4y2.s 			page 217


 12294 38b3 2C       		.byte	0x2c
 12295 38b4 0D       		.uleb128 0xd
 12296 38b5 EE0F0000 		.4byte	.LASF769
 12297 38b9 38       		.byte	0x38
 12298 38ba 7A       		.byte	0x7a
 12299 38bb 27090000 		.4byte	0x927
 12300 38bf 30       		.byte	0x30
 12301 38c0 0D       		.uleb128 0xd
 12302 38c1 0E240000 		.4byte	.LASF770
 12303 38c5 38       		.byte	0x38
 12304 38c6 7B       		.byte	0x7b
 12305 38c7 27090000 		.4byte	0x927
 12306 38cb 34       		.byte	0x34
 12307 38cc 0D       		.uleb128 0xd
 12308 38cd D1010000 		.4byte	.LASF771
 12309 38d1 38       		.byte	0x38
 12310 38d2 7C       		.byte	0x7c
 12311 38d3 27090000 		.4byte	0x927
 12312 38d7 38       		.byte	0x38
 12313 38d8 11       		.uleb128 0x11
 12314 38d9 43494400 		.ascii	"CID\000"
 12315 38dd 38       		.byte	0x38
 12316 38de 7D       		.byte	0x7d
 12317 38df 27090000 		.4byte	0x927
 12318 38e3 3C       		.byte	0x3c
 12319 38e4 0D       		.uleb128 0xd
 12320 38e5 7F110000 		.4byte	.LASF772
 12321 38e9 38       		.byte	0x38
 12322 38ea 7E       		.byte	0x7e
 12323 38eb 063B0000 		.4byte	0x3b06
 12324 38ef 40       		.byte	0x40
 12325 38f0 13       		.uleb128 0x13
 12326 38f1 CD220000 		.4byte	.LASF773
 12327 38f5 38       		.byte	0x38
 12328 38f6 7F       		.byte	0x7f
 12329 38f7 27090000 		.4byte	0x927
 12330 38fb 0001     		.2byte	0x100
 12331 38fd 13       		.uleb128 0x13
 12332 38fe 35020000 		.4byte	.LASF774
 12333 3902 38       		.byte	0x38
 12334 3903 81       		.byte	0x81
 12335 3904 8C160000 		.4byte	0x168c
 12336 3908 0401     		.2byte	0x104
 12337 390a 13       		.uleb128 0x13
 12338 390b 44150000 		.4byte	.LASF775
 12339 390f 38       		.byte	0x38
 12340 3910 83       		.byte	0x83
 12341 3911 1B3B0000 		.4byte	0x3b1b
 12342 3915 4001     		.2byte	0x140
 12343 3917 13       		.uleb128 0x13
 12344 3918 08190000 		.4byte	.LASF776
 12345 391c 38       		.byte	0x38
 12346 391d 84       		.byte	0x84
 12347 391e 27090000 		.4byte	0x927
 12348 3922 0004     		.2byte	0x400
 12349 3924 13       		.uleb128 0x13
 12350 3925 06250000 		.4byte	.LASF777
ARM GAS  C:\Users\PCHAUT~1\AppData\Local\Temp\ccJuO4y2.s 			page 218


 12351 3929 38       		.byte	0x38
 12352 392a 85       		.byte	0x85
 12353 392b 27090000 		.4byte	0x927
 12354 392f 0404     		.2byte	0x404
 12355 3931 13       		.uleb128 0x13
 12356 3932 1A040000 		.4byte	.LASF778
 12357 3936 38       		.byte	0x38
 12358 3937 86       		.byte	0x86
 12359 3938 27090000 		.4byte	0x927
 12360 393c 0804     		.2byte	0x408
 12361 393e 13       		.uleb128 0x13
 12362 393f 4B220000 		.4byte	.LASF779
 12363 3943 38       		.byte	0x38
 12364 3944 88       		.byte	0x88
 12365 3945 27090000 		.4byte	0x927
 12366 3949 0C04     		.2byte	0x40c
 12367 394b 13       		.uleb128 0x13
 12368 394c FE020000 		.4byte	.LASF780
 12369 3950 38       		.byte	0x38
 12370 3951 89       		.byte	0x89
 12371 3952 27090000 		.4byte	0x927
 12372 3956 1004     		.2byte	0x410
 12373 3958 13       		.uleb128 0x13
 12374 3959 EC030000 		.4byte	.LASF781
 12375 395d 38       		.byte	0x38
 12376 395e 8B       		.byte	0x8b
 12377 395f 27090000 		.4byte	0x927
 12378 3963 1404     		.2byte	0x414
 12379 3965 13       		.uleb128 0x13
 12380 3966 560D0000 		.4byte	.LASF782
 12381 396a 38       		.byte	0x38
 12382 396b 8D       		.byte	0x8d
 12383 396c 27090000 		.4byte	0x927
 12384 3970 1804     		.2byte	0x418
 12385 3972 13       		.uleb128 0x13
 12386 3973 DD1D0000 		.4byte	.LASF783
 12387 3977 38       		.byte	0x38
 12388 3978 8F       		.byte	0x8f
 12389 3979 303B0000 		.4byte	0x3b30
 12390 397d 1C04     		.2byte	0x41c
 12391 397f 13       		.uleb128 0x13
 12392 3980 9D020000 		.4byte	.LASF784
 12393 3984 38       		.byte	0x38
 12394 3985 90       		.byte	0x90
 12395 3986 27090000 		.4byte	0x927
 12396 398a 4004     		.2byte	0x440
 12397 398c 13       		.uleb128 0x13
 12398 398d A51F0000 		.4byte	.LASF785
 12399 3991 38       		.byte	0x38
 12400 3992 92       		.byte	0x92
 12401 3993 453B0000 		.4byte	0x3b45
 12402 3997 4404     		.2byte	0x444
 12403 3999 2D       		.uleb128 0x2d
 12404 399a 686300   		.ascii	"hc\000"
 12405 399d 38       		.byte	0x38
 12406 399e 93       		.byte	0x93
 12407 399f 4A3B0000 		.4byte	0x3b4a
ARM GAS  C:\Users\PCHAUT~1\AppData\Local\Temp\ccJuO4y2.s 			page 219


 12408 39a3 0005     		.2byte	0x500
 12409 39a5 13       		.uleb128 0x13
 12410 39a6 94220000 		.4byte	.LASF786
 12411 39aa 38       		.byte	0x38
 12412 39ab 94       		.byte	0x94
 12413 39ac 6A3B0000 		.4byte	0x3b6a
 12414 39b0 0007     		.2byte	0x700
 12415 39b2 13       		.uleb128 0x13
 12416 39b3 451B0000 		.4byte	.LASF787
 12417 39b7 38       		.byte	0x38
 12418 39b8 95       		.byte	0x95
 12419 39b9 27090000 		.4byte	0x927
 12420 39bd 0008     		.2byte	0x800
 12421 39bf 13       		.uleb128 0x13
 12422 39c0 AA230000 		.4byte	.LASF788
 12423 39c4 38       		.byte	0x38
 12424 39c5 96       		.byte	0x96
 12425 39c6 27090000 		.4byte	0x927
 12426 39ca 0408     		.2byte	0x804
 12427 39cc 13       		.uleb128 0x13
 12428 39cd 7C050000 		.4byte	.LASF789
 12429 39d1 38       		.byte	0x38
 12430 39d2 97       		.byte	0x97
 12431 39d3 27090000 		.4byte	0x927
 12432 39d7 0808     		.2byte	0x808
 12433 39d9 13       		.uleb128 0x13
 12434 39da B6040000 		.4byte	.LASF790
 12435 39de 38       		.byte	0x38
 12436 39df 98       		.byte	0x98
 12437 39e0 27090000 		.4byte	0x927
 12438 39e4 0C08     		.2byte	0x80c
 12439 39e6 13       		.uleb128 0x13
 12440 39e7 3F0D0000 		.4byte	.LASF791
 12441 39eb 38       		.byte	0x38
 12442 39ec 99       		.byte	0x99
 12443 39ed 27090000 		.4byte	0x927
 12444 39f1 1008     		.2byte	0x810
 12445 39f3 13       		.uleb128 0x13
 12446 39f4 C6200000 		.4byte	.LASF792
 12447 39f8 38       		.byte	0x38
 12448 39f9 9B       		.byte	0x9b
 12449 39fa 27090000 		.4byte	0x927
 12450 39fe 1408     		.2byte	0x814
 12451 3a00 13       		.uleb128 0x13
 12452 3a01 43210000 		.4byte	.LASF793
 12453 3a05 38       		.byte	0x38
 12454 3a06 9D       		.byte	0x9d
 12455 3a07 27090000 		.4byte	0x927
 12456 3a0b 1808     		.2byte	0x818
 12457 3a0d 13       		.uleb128 0x13
 12458 3a0e 6C1E0000 		.4byte	.LASF794
 12459 3a12 38       		.byte	0x38
 12460 3a13 9F       		.byte	0x9f
 12461 3a14 27090000 		.4byte	0x927
 12462 3a18 1C08     		.2byte	0x81c
 12463 3a1a 13       		.uleb128 0x13
 12464 3a1b F4050000 		.4byte	.LASF795
ARM GAS  C:\Users\PCHAUT~1\AppData\Local\Temp\ccJuO4y2.s 			page 220


 12465 3a1f 38       		.byte	0x38
 12466 3a20 A1       		.byte	0xa1
 12467 3a21 27090000 		.4byte	0x927
 12468 3a25 2008     		.2byte	0x820
 12469 3a27 13       		.uleb128 0x13
 12470 3a28 F3040000 		.4byte	.LASF796
 12471 3a2c 38       		.byte	0x38
 12472 3a2d A2       		.byte	0xa2
 12473 3a2e 27090000 		.4byte	0x927
 12474 3a32 2408     		.2byte	0x824
 12475 3a34 13       		.uleb128 0x13
 12476 3a35 5F1B0000 		.4byte	.LASF797
 12477 3a39 38       		.byte	0x38
 12478 3a3a A3       		.byte	0xa3
 12479 3a3b 27090000 		.4byte	0x927
 12480 3a3f 2808     		.2byte	0x828
 12481 3a41 13       		.uleb128 0x13
 12482 3a42 0C100000 		.4byte	.LASF798
 12483 3a46 38       		.byte	0x38
 12484 3a47 A5       		.byte	0xa5
 12485 3a48 27090000 		.4byte	0x927
 12486 3a4c 2C08     		.2byte	0x82c
 12487 3a4e 13       		.uleb128 0x13
 12488 3a4f 9F060000 		.4byte	.LASF799
 12489 3a53 38       		.byte	0x38
 12490 3a54 A7       		.byte	0xa7
 12491 3a55 27090000 		.4byte	0x927
 12492 3a59 3008     		.2byte	0x830
 12493 3a5b 13       		.uleb128 0x13
 12494 3a5c DA0E0000 		.4byte	.LASF800
 12495 3a60 38       		.byte	0x38
 12496 3a61 A8       		.byte	0xa8
 12497 3a62 27090000 		.4byte	0x927
 12498 3a66 3408     		.2byte	0x834
 12499 3a68 13       		.uleb128 0x13
 12500 3a69 AD060000 		.4byte	.LASF801
 12501 3a6d 38       		.byte	0x38
 12502 3a6e AA       		.byte	0xaa
 12503 3a6f 27090000 		.4byte	0x927
 12504 3a73 3808     		.2byte	0x838
 12505 3a75 13       		.uleb128 0x13
 12506 3a76 C5060000 		.4byte	.LASF802
 12507 3a7a 38       		.byte	0x38
 12508 3a7b AB       		.byte	0xab
 12509 3a7c 27090000 		.4byte	0x927
 12510 3a80 3C08     		.2byte	0x83c
 12511 3a82 13       		.uleb128 0x13
 12512 3a83 57070000 		.4byte	.LASF803
 12513 3a87 38       		.byte	0x38
 12514 3a88 AC       		.byte	0xac
 12515 3a89 7F3B0000 		.4byte	0x3b7f
 12516 3a8d 4008     		.2byte	0x840
 12517 3a8f 13       		.uleb128 0x13
 12518 3a90 710E0000 		.4byte	.LASF804
 12519 3a94 38       		.byte	0x38
 12520 3a95 AD       		.byte	0xad
 12521 3a96 7F3B0000 		.4byte	0x3b7f
ARM GAS  C:\Users\PCHAUT~1\AppData\Local\Temp\ccJuO4y2.s 			page 221


 12522 3a9a 8008     		.2byte	0x880
 12523 3a9c 13       		.uleb128 0x13
 12524 3a9d 9F120000 		.4byte	.LASF805
 12525 3aa1 38       		.byte	0x38
 12526 3aa2 AE       		.byte	0xae
 12527 3aa3 7F3B0000 		.4byte	0x3b7f
 12528 3aa7 C008     		.2byte	0x8c0
 12529 3aa9 2D       		.uleb128 0x2d
 12530 3aaa 696500   		.ascii	"ie\000"
 12531 3aad 38       		.byte	0x38
 12532 3aae AF       		.byte	0xaf
 12533 3aaf 843B0000 		.4byte	0x3b84
 12534 3ab3 0009     		.2byte	0x900
 12535 3ab5 2D       		.uleb128 0x2d
 12536 3ab6 6F6500   		.ascii	"oe\000"
 12537 3ab9 38       		.byte	0x38
 12538 3aba B0       		.byte	0xb0
 12539 3abb 943B0000 		.4byte	0x3b94
 12540 3abf 000B     		.2byte	0xb00
 12541 3ac1 13       		.uleb128 0x13
 12542 3ac2 C20C0000 		.4byte	.LASF806
 12543 3ac6 38       		.byte	0x38
 12544 3ac7 B1       		.byte	0xb1
 12545 3ac8 6A3B0000 		.4byte	0x3b6a
 12546 3acc 000D     		.2byte	0xd00
 12547 3ace 13       		.uleb128 0x13
 12548 3acf C2230000 		.4byte	.LASF807
 12549 3ad3 38       		.byte	0x38
 12550 3ad4 B2       		.byte	0xb2
 12551 3ad5 27090000 		.4byte	0x927
 12552 3ad9 000E     		.2byte	0xe00
 12553 3adb 13       		.uleb128 0x13
 12554 3adc 9B180000 		.4byte	.LASF808
 12555 3ae0 38       		.byte	0x38
 12556 3ae1 B4       		.byte	0xb4
 12557 3ae2 B43B0000 		.4byte	0x3bb4
 12558 3ae6 040E     		.2byte	0xe04
 12559 3ae8 13       		.uleb128 0x13
 12560 3ae9 830A0000 		.4byte	.LASF306
 12561 3aed 38       		.byte	0x38
 12562 3aee B5       		.byte	0xb5
 12563 3aef D03B0000 		.4byte	0x3bd0
 12564 3af3 0010     		.2byte	0x1000
 12565 3af5 00       		.byte	0
 12566 3af6 0A       		.uleb128 0xa
 12567 3af7 27090000 		.4byte	0x927
 12568 3afb 063B0000 		.4byte	0x3b06
 12569 3aff 0B       		.uleb128 0xb
 12570 3b00 37000000 		.4byte	0x37
 12571 3b04 2F       		.byte	0x2f
 12572 3b05 00       		.byte	0
 12573 3b06 1A       		.uleb128 0x1a
 12574 3b07 F63A0000 		.4byte	0x3af6
 12575 3b0b 0A       		.uleb128 0xa
 12576 3b0c 27090000 		.4byte	0x927
 12577 3b10 1B3B0000 		.4byte	0x3b1b
 12578 3b14 0B       		.uleb128 0xb
ARM GAS  C:\Users\PCHAUT~1\AppData\Local\Temp\ccJuO4y2.s 			page 222


 12579 3b15 37000000 		.4byte	0x37
 12580 3b19 AF       		.byte	0xaf
 12581 3b1a 00       		.byte	0
 12582 3b1b 1A       		.uleb128 0x1a
 12583 3b1c 0B3B0000 		.4byte	0x3b0b
 12584 3b20 0A       		.uleb128 0xa
 12585 3b21 27090000 		.4byte	0x927
 12586 3b25 303B0000 		.4byte	0x3b30
 12587 3b29 0B       		.uleb128 0xb
 12588 3b2a 37000000 		.4byte	0x37
 12589 3b2e 08       		.byte	0x8
 12590 3b2f 00       		.byte	0
 12591 3b30 1A       		.uleb128 0x1a
 12592 3b31 203B0000 		.4byte	0x3b20
 12593 3b35 0A       		.uleb128 0xa
 12594 3b36 27090000 		.4byte	0x927
 12595 3b3a 453B0000 		.4byte	0x3b45
 12596 3b3e 0B       		.uleb128 0xb
 12597 3b3f 37000000 		.4byte	0x37
 12598 3b43 2E       		.byte	0x2e
 12599 3b44 00       		.byte	0
 12600 3b45 1A       		.uleb128 0x1a
 12601 3b46 353B0000 		.4byte	0x3b35
 12602 3b4a 0A       		.uleb128 0xa
 12603 3b4b 26370000 		.4byte	0x3726
 12604 3b4f 5A3B0000 		.4byte	0x3b5a
 12605 3b53 0B       		.uleb128 0xb
 12606 3b54 37000000 		.4byte	0x37
 12607 3b58 0F       		.byte	0xf
 12608 3b59 00       		.byte	0
 12609 3b5a 0A       		.uleb128 0xa
 12610 3b5b 27090000 		.4byte	0x927
 12611 3b5f 6A3B0000 		.4byte	0x3b6a
 12612 3b63 0B       		.uleb128 0xb
 12613 3b64 37000000 		.4byte	0x37
 12614 3b68 3F       		.byte	0x3f
 12615 3b69 00       		.byte	0
 12616 3b6a 1A       		.uleb128 0x1a
 12617 3b6b 5A3B0000 		.4byte	0x3b5a
 12618 3b6f 0A       		.uleb128 0xa
 12619 3b70 27090000 		.4byte	0x927
 12620 3b74 7F3B0000 		.4byte	0x3b7f
 12621 3b78 0B       		.uleb128 0xb
 12622 3b79 37000000 		.4byte	0x37
 12623 3b7d 0F       		.byte	0xf
 12624 3b7e 00       		.byte	0
 12625 3b7f 1A       		.uleb128 0x1a
 12626 3b80 6F3B0000 		.4byte	0x3b6f
 12627 3b84 0A       		.uleb128 0xa
 12628 3b85 9A370000 		.4byte	0x379a
 12629 3b89 943B0000 		.4byte	0x3b94
 12630 3b8d 0B       		.uleb128 0xb
 12631 3b8e 37000000 		.4byte	0x37
 12632 3b92 0F       		.byte	0xf
 12633 3b93 00       		.byte	0
 12634 3b94 0A       		.uleb128 0xa
 12635 3b95 0E380000 		.4byte	0x380e
ARM GAS  C:\Users\PCHAUT~1\AppData\Local\Temp\ccJuO4y2.s 			page 223


 12636 3b99 A43B0000 		.4byte	0x3ba4
 12637 3b9d 0B       		.uleb128 0xb
 12638 3b9e 37000000 		.4byte	0x37
 12639 3ba2 0F       		.byte	0xf
 12640 3ba3 00       		.byte	0
 12641 3ba4 0A       		.uleb128 0xa
 12642 3ba5 27090000 		.4byte	0x927
 12643 3ba9 B43B0000 		.4byte	0x3bb4
 12644 3bad 0B       		.uleb128 0xb
 12645 3bae 37000000 		.4byte	0x37
 12646 3bb2 7E       		.byte	0x7e
 12647 3bb3 00       		.byte	0
 12648 3bb4 1A       		.uleb128 0x1a
 12649 3bb5 A43B0000 		.4byte	0x3ba4
 12650 3bb9 0A       		.uleb128 0xa
 12651 3bba 27090000 		.4byte	0x927
 12652 3bbe D03B0000 		.4byte	0x3bd0
 12653 3bc2 0B       		.uleb128 0xb
 12654 3bc3 37000000 		.4byte	0x37
 12655 3bc7 0F       		.byte	0xf
 12656 3bc8 2E       		.uleb128 0x2e
 12657 3bc9 37000000 		.4byte	0x37
 12658 3bcd FF03     		.2byte	0x3ff
 12659 3bcf 00       		.byte	0
 12660 3bd0 1A       		.uleb128 0x1a
 12661 3bd1 B93B0000 		.4byte	0x3bb9
 12662 3bd5 03       		.uleb128 0x3
 12663 3bd6 A8250000 		.4byte	.LASF809
 12664 3bda 38       		.byte	0x38
 12665 3bdb B6       		.byte	0xb6
 12666 3bdc 19380000 		.4byte	0x3819
 12667 3be0 0C       		.uleb128 0xc
 12668 3be1 0C       		.byte	0xc
 12669 3be2 37       		.byte	0x37
 12670 3be3 C6       		.byte	0xc6
 12671 3be4 0D3C0000 		.4byte	0x3c0d
 12672 3be8 0D       		.uleb128 0xd
 12673 3be9 140A0000 		.4byte	.LASF810
 12674 3bed 37       		.byte	0x37
 12675 3bee C7       		.byte	0xc7
 12676 3bef 1C090000 		.4byte	0x91c
 12677 3bf3 00       		.byte	0
 12678 3bf4 0D       		.uleb128 0xd
 12679 3bf5 930C0000 		.4byte	.LASF811
 12680 3bf9 37       		.byte	0x37
 12681 3bfa C8       		.byte	0xc8
 12682 3bfb 1C090000 		.4byte	0x91c
 12683 3bff 04       		.byte	0x4
 12684 3c00 0D       		.uleb128 0xd
 12685 3c01 74100000 		.4byte	.LASF812
 12686 3c05 37       		.byte	0x37
 12687 3c06 C9       		.byte	0xc9
 12688 3c07 1C090000 		.4byte	0x91c
 12689 3c0b 08       		.byte	0x8
 12690 3c0c 00       		.byte	0
 12691 3c0d 03       		.uleb128 0x3
 12692 3c0e AF0C0000 		.4byte	.LASF813
ARM GAS  C:\Users\PCHAUT~1\AppData\Local\Temp\ccJuO4y2.s 			page 224


 12693 3c12 37       		.byte	0x37
 12694 3c13 CA       		.byte	0xca
 12695 3c14 E03B0000 		.4byte	0x3be0
 12696 3c18 0F       		.uleb128 0xf
 12697 3c19 0D3C0000 		.4byte	0x3c0d
 12698 3c1d 0C       		.uleb128 0xc
 12699 3c1e 04       		.byte	0x4
 12700 3c1f 37       		.byte	0x37
 12701 3c20 DD       		.byte	0xdd
 12702 3c21 323C0000 		.4byte	0x3c32
 12703 3c25 0D       		.uleb128 0xd
 12704 3c26 BC230000 		.4byte	.LASF814
 12705 3c2a 37       		.byte	0x37
 12706 3c2b E1       		.byte	0xe1
 12707 3c2c AE1C0000 		.4byte	0x1cae
 12708 3c30 00       		.byte	0
 12709 3c31 00       		.byte	0
 12710 3c32 0C       		.uleb128 0xc
 12711 3c33 04       		.byte	0x4
 12712 3c34 37       		.byte	0x37
 12713 3c35 E3       		.byte	0xe3
 12714 3c36 473C0000 		.4byte	0x3c47
 12715 3c3a 0D       		.uleb128 0xd
 12716 3c3b 920A0000 		.4byte	.LASF496
 12717 3c3f 37       		.byte	0x37
 12718 3c40 E7       		.byte	0xe7
 12719 3c41 473C0000 		.4byte	0x3c47
 12720 3c45 00       		.byte	0
 12721 3c46 00       		.byte	0
 12722 3c47 05       		.uleb128 0x5
 12723 3c48 04       		.byte	0x4
 12724 3c49 8A1C0000 		.4byte	0x1c8a
 12725 3c4d 08       		.uleb128 0x8
 12726 3c4e 04       		.byte	0x4
 12727 3c4f 37       		.byte	0x37
 12728 3c50 DC       		.byte	0xdc
 12729 3c51 6C3C0000 		.4byte	0x3c6c
 12730 3c55 09       		.uleb128 0x9
 12731 3c56 DA1F0000 		.4byte	.LASF815
 12732 3c5a 37       		.byte	0x37
 12733 3c5b E2       		.byte	0xe2
 12734 3c5c 1D3C0000 		.4byte	0x3c1d
 12735 3c60 09       		.uleb128 0x9
 12736 3c61 B61E0000 		.4byte	.LASF816
 12737 3c65 37       		.byte	0x37
 12738 3c66 E8       		.byte	0xe8
 12739 3c67 323C0000 		.4byte	0x3c32
 12740 3c6b 00       		.byte	0
 12741 3c6c 0C       		.uleb128 0xc
 12742 3c6d 14       		.byte	0x14
 12743 3c6e 37       		.byte	0x37
 12744 3c6f CF       		.byte	0xcf
 12745 3c70 B13C0000 		.4byte	0x3cb1
 12746 3c74 0D       		.uleb128 0xd
 12747 3c75 AC070000 		.4byte	.LASF817
 12748 3c79 37       		.byte	0x37
 12749 3c7a D3       		.byte	0xd3
ARM GAS  C:\Users\PCHAUT~1\AppData\Local\Temp\ccJuO4y2.s 			page 225


 12750 3c7b 951E0000 		.4byte	0x1e95
 12751 3c7f 00       		.byte	0
 12752 3c80 0D       		.uleb128 0xd
 12753 3c81 C9130000 		.4byte	.LASF818
 12754 3c85 37       		.byte	0x37
 12755 3c86 D7       		.byte	0xd7
 12756 3c87 2C000000 		.4byte	0x2c
 12757 3c8b 04       		.byte	0x4
 12758 3c8c 0D       		.uleb128 0xd
 12759 3c8d 5A0C0000 		.4byte	.LASF819
 12760 3c91 37       		.byte	0x37
 12761 3c92 DB       		.byte	0xdb
 12762 3c93 2C000000 		.4byte	0x2c
 12763 3c97 08       		.byte	0x8
 12764 3c98 0D       		.uleb128 0xd
 12765 3c99 53080000 		.4byte	.LASF542
 12766 3c9d 37       		.byte	0x37
 12767 3c9e E9       		.byte	0xe9
 12768 3c9f 4D3C0000 		.4byte	0x3c4d
 12769 3ca3 0C       		.byte	0xc
 12770 3ca4 0D       		.uleb128 0xd
 12771 3ca5 8C100000 		.4byte	.LASF820
 12772 3ca9 37       		.byte	0x37
 12773 3caa ED       		.byte	0xed
 12774 3cab 2C000000 		.4byte	0x2c
 12775 3caf 10       		.byte	0x10
 12776 3cb0 00       		.byte	0
 12777 3cb1 03       		.uleb128 0x3
 12778 3cb2 87110000 		.4byte	.LASF821
 12779 3cb6 37       		.byte	0x37
 12780 3cb7 EE       		.byte	0xee
 12781 3cb8 6C3C0000 		.4byte	0x3c6c
 12782 3cbc 1C       		.uleb128 0x1c
 12783 3cbd 04       		.byte	0x4
 12784 3cbe 37       		.byte	0x37
 12785 3cbf 0101     		.2byte	0x101
 12786 3cc1 D33C0000 		.4byte	0x3cd3
 12787 3cc5 18       		.uleb128 0x18
 12788 3cc6 D20C0000 		.4byte	.LASF822
 12789 3cca 37       		.byte	0x37
 12790 3ccb 0501     		.2byte	0x105
 12791 3ccd 791C0000 		.4byte	0x1c79
 12792 3cd1 00       		.byte	0
 12793 3cd2 00       		.byte	0
 12794 3cd3 1C       		.uleb128 0x1c
 12795 3cd4 04       		.byte	0x4
 12796 3cd5 37       		.byte	0x37
 12797 3cd6 0701     		.2byte	0x107
 12798 3cd8 EA3C0000 		.4byte	0x3cea
 12799 3cdc 18       		.uleb128 0x18
 12800 3cdd 951F0000 		.4byte	.LASF497
 12801 3ce1 37       		.byte	0x37
 12802 3ce2 0B01     		.2byte	0x10b
 12803 3ce4 EA3C0000 		.4byte	0x3cea
 12804 3ce8 00       		.byte	0
 12805 3ce9 00       		.byte	0
 12806 3cea 05       		.uleb128 0x5
ARM GAS  C:\Users\PCHAUT~1\AppData\Local\Temp\ccJuO4y2.s 			page 226


 12807 3ceb 04       		.byte	0x4
 12808 3cec 7F1C0000 		.4byte	0x1c7f
 12809 3cf0 1D       		.uleb128 0x1d
 12810 3cf1 04       		.byte	0x4
 12811 3cf2 37       		.byte	0x37
 12812 3cf3 0001     		.2byte	0x100
 12813 3cf5 123D0000 		.4byte	0x3d12
 12814 3cf9 1E       		.uleb128 0x1e
 12815 3cfa DA1F0000 		.4byte	.LASF815
 12816 3cfe 37       		.byte	0x37
 12817 3cff 0601     		.2byte	0x106
 12818 3d01 BC3C0000 		.4byte	0x3cbc
 12819 3d05 1E       		.uleb128 0x1e
 12820 3d06 B61E0000 		.4byte	.LASF816
 12821 3d0a 37       		.byte	0x37
 12822 3d0b 0C01     		.2byte	0x10c
 12823 3d0d D33C0000 		.4byte	0x3cd3
 12824 3d11 00       		.byte	0
 12825 3d12 0C       		.uleb128 0xc
 12826 3d13 14       		.byte	0x14
 12827 3d14 37       		.byte	0x37
 12828 3d15 F3       		.byte	0xf3
 12829 3d16 593D0000 		.4byte	0x3d59
 12830 3d1a 0D       		.uleb128 0xd
 12831 3d1b BA050000 		.4byte	.LASF823
 12832 3d1f 37       		.byte	0x37
 12833 3d20 F7       		.byte	0xf7
 12834 3d21 951E0000 		.4byte	0x1e95
 12835 3d25 00       		.byte	0
 12836 3d26 0D       		.uleb128 0xd
 12837 3d27 A2140000 		.4byte	.LASF824
 12838 3d2b 37       		.byte	0x37
 12839 3d2c FB       		.byte	0xfb
 12840 3d2d 2C000000 		.4byte	0x2c
 12841 3d31 04       		.byte	0x4
 12842 3d32 0D       		.uleb128 0xd
 12843 3d33 2E080000 		.4byte	.LASF825
 12844 3d37 37       		.byte	0x37
 12845 3d38 FF       		.byte	0xff
 12846 3d39 2C000000 		.4byte	0x2c
 12847 3d3d 08       		.byte	0x8
 12848 3d3e 18       		.uleb128 0x18
 12849 3d3f 53080000 		.4byte	.LASF542
 12850 3d43 37       		.byte	0x37
 12851 3d44 0D01     		.2byte	0x10d
 12852 3d46 F03C0000 		.4byte	0x3cf0
 12853 3d4a 0C       		.byte	0xc
 12854 3d4b 18       		.uleb128 0x18
 12855 3d4c 8C100000 		.4byte	.LASF820
 12856 3d50 37       		.byte	0x37
 12857 3d51 1101     		.2byte	0x111
 12858 3d53 2C000000 		.4byte	0x2c
 12859 3d57 10       		.byte	0x10
 12860 3d58 00       		.byte	0
 12861 3d59 07       		.uleb128 0x7
 12862 3d5a C91D0000 		.4byte	.LASF826
 12863 3d5e 37       		.byte	0x37
ARM GAS  C:\Users\PCHAUT~1\AppData\Local\Temp\ccJuO4y2.s 			page 227


 12864 3d5f 1201     		.2byte	0x112
 12865 3d61 123D0000 		.4byte	0x3d12
 12866 3d65 1C       		.uleb128 0x1c
 12867 3d66 24       		.byte	0x24
 12868 3d67 37       		.byte	0x37
 12869 3d68 1801     		.2byte	0x118
 12870 3d6a F13D0000 		.4byte	0x3df1
 12871 3d6e 18       		.uleb128 0x18
 12872 3d6f 68180000 		.4byte	.LASF827
 12873 3d73 37       		.byte	0x37
 12874 3d74 1C01     		.2byte	0x11c
 12875 3d76 1C090000 		.4byte	0x91c
 12876 3d7a 00       		.byte	0
 12877 3d7b 18       		.uleb128 0x18
 12878 3d7c 640A0000 		.4byte	.LASF828
 12879 3d80 37       		.byte	0x37
 12880 3d81 2701     		.2byte	0x127
 12881 3d83 22360000 		.4byte	0x3622
 12882 3d87 04       		.byte	0x4
 12883 3d88 18       		.uleb128 0x18
 12884 3d89 63190000 		.4byte	.LASF829
 12885 3d8d 37       		.byte	0x37
 12886 3d8e 2D01     		.2byte	0x12d
 12887 3d90 22360000 		.4byte	0x3622
 12888 3d94 08       		.byte	0x8
 12889 3d95 18       		.uleb128 0x18
 12890 3d96 4F0D0000 		.4byte	.LASF830
 12891 3d9a 37       		.byte	0x37
 12892 3d9b 3301     		.2byte	0x133
 12893 3d9d 22360000 		.4byte	0x3622
 12894 3da1 0C       		.byte	0xc
 12895 3da2 18       		.uleb128 0x18
 12896 3da3 FE250000 		.4byte	.LASF831
 12897 3da7 37       		.byte	0x37
 12898 3da8 3901     		.2byte	0x139
 12899 3daa 01090000 		.4byte	0x901
 12900 3dae 10       		.byte	0x10
 12901 3daf 18       		.uleb128 0x18
 12902 3db0 BC0D0000 		.4byte	.LASF832
 12903 3db4 37       		.byte	0x37
 12904 3db5 3F01     		.2byte	0x13f
 12905 3db7 01090000 		.4byte	0x901
 12906 3dbb 12       		.byte	0x12
 12907 3dbc 18       		.uleb128 0x18
 12908 3dbd 93240000 		.4byte	.LASF833
 12909 3dc1 37       		.byte	0x37
 12910 3dc2 4401     		.2byte	0x144
 12911 3dc4 F13D0000 		.4byte	0x3df1
 12912 3dc8 14       		.byte	0x14
 12913 3dc9 18       		.uleb128 0x18
 12914 3dca 480F0000 		.4byte	.LASF834
 12915 3dce 37       		.byte	0x37
 12916 3dcf 4901     		.2byte	0x149
 12917 3dd1 F73D0000 		.4byte	0x3df7
 12918 3dd5 18       		.byte	0x18
 12919 3dd6 18       		.uleb128 0x18
 12920 3dd7 2B130000 		.4byte	.LASF835
ARM GAS  C:\Users\PCHAUT~1\AppData\Local\Temp\ccJuO4y2.s 			page 228


 12921 3ddb 37       		.byte	0x37
 12922 3ddc 5001     		.2byte	0x150
 12923 3dde 01090000 		.4byte	0x901
 12924 3de2 1C       		.byte	0x1c
 12925 3de3 18       		.uleb128 0x18
 12926 3de4 04240000 		.4byte	.LASF836
 12927 3de8 37       		.byte	0x37
 12928 3de9 5601     		.2byte	0x156
 12929 3deb 791C0000 		.4byte	0x1c79
 12930 3def 20       		.byte	0x20
 12931 3df0 00       		.byte	0
 12932 3df1 05       		.uleb128 0x5
 12933 3df2 04       		.byte	0x4
 12934 3df3 B13C0000 		.4byte	0x3cb1
 12935 3df7 05       		.uleb128 0x5
 12936 3df8 04       		.byte	0x4
 12937 3df9 593D0000 		.4byte	0x3d59
 12938 3dfd 07       		.uleb128 0x7
 12939 3dfe 651F0000 		.4byte	.LASF837
 12940 3e02 37       		.byte	0x37
 12941 3e03 5701     		.2byte	0x157
 12942 3e05 653D0000 		.4byte	0x3d65
 12943 3e09 0F       		.uleb128 0xf
 12944 3e0a FD3D0000 		.4byte	0x3dfd
 12945 3e0e 1C       		.uleb128 0x1c
 12946 3e0f 10       		.byte	0x10
 12947 3e10 37       		.byte	0x37
 12948 3e11 5C01     		.2byte	0x15c
 12949 3e13 4C3E0000 		.4byte	0x3e4c
 12950 3e17 18       		.uleb128 0x18
 12951 3e18 BF040000 		.4byte	.LASF838
 12952 3e1c 37       		.byte	0x37
 12953 3e1d 6101     		.2byte	0x161
 12954 3e1f 44360000 		.4byte	0x3644
 12955 3e23 00       		.byte	0
 12956 3e24 18       		.uleb128 0x18
 12957 3e25 45230000 		.4byte	.LASF839
 12958 3e29 37       		.byte	0x37
 12959 3e2a 6601     		.2byte	0x166
 12960 3e2c 87360000 		.4byte	0x3687
 12961 3e30 04       		.byte	0x4
 12962 3e31 18       		.uleb128 0x18
 12963 3e32 9B130000 		.4byte	.LASF840
 12964 3e36 37       		.byte	0x37
 12965 3e37 6C01     		.2byte	0x16c
 12966 3e39 66360000 		.4byte	0x3666
 12967 3e3d 08       		.byte	0x8
 12968 3e3e 18       		.uleb128 0x18
 12969 3e3f 0F020000 		.4byte	.LASF841
 12970 3e43 37       		.byte	0x37
 12971 3e44 7001     		.2byte	0x170
 12972 3e46 FF350000 		.4byte	0x35ff
 12973 3e4a 0C       		.byte	0xc
 12974 3e4b 00       		.byte	0
 12975 3e4c 07       		.uleb128 0x7
 12976 3e4d A8120000 		.4byte	.LASF842
 12977 3e51 37       		.byte	0x37
ARM GAS  C:\Users\PCHAUT~1\AppData\Local\Temp\ccJuO4y2.s 			page 229


 12978 3e52 7201     		.2byte	0x172
 12979 3e54 0E3E0000 		.4byte	0x3e0e
 12980 3e58 0F       		.uleb128 0xf
 12981 3e59 4C3E0000 		.4byte	0x3e4c
 12982 3e5d 05       		.uleb128 0x5
 12983 3e5e 04       		.byte	0x4
 12984 3e5f 583E0000 		.4byte	0x3e58
 12985 3e63 0A       		.uleb128 0xa
 12986 3e64 733E0000 		.4byte	0x3e73
 12987 3e68 733E0000 		.4byte	0x3e73
 12988 3e6c 0B       		.uleb128 0xb
 12989 3e6d 37000000 		.4byte	0x37
 12990 3e71 03       		.byte	0x3
 12991 3e72 00       		.byte	0
 12992 3e73 05       		.uleb128 0x5
 12993 3e74 04       		.byte	0x4
 12994 3e75 093E0000 		.4byte	0x3e09
 12995 3e79 0A       		.uleb128 0xa
 12996 3e7a 5D010000 		.4byte	0x15d
 12997 3e7e 893E0000 		.4byte	0x3e89
 12998 3e82 0B       		.uleb128 0xb
 12999 3e83 37000000 		.4byte	0x37
 13000 3e87 02       		.byte	0x2
 13001 3e88 00       		.byte	0
 13002 3e89 05       		.uleb128 0x5
 13003 3e8a 04       		.byte	0x4
 13004 3e8b D53B0000 		.4byte	0x3bd5
 13005 3e8f 05       		.uleb128 0x5
 13006 3e90 04       		.byte	0x4
 13007 3e91 183C0000 		.4byte	0x3c18
 13008 3e95 0A       		.uleb128 0xa
 13009 3e96 9C160000 		.4byte	0x169c
 13010 3e9a A53E0000 		.4byte	0x3ea5
 13011 3e9e 0B       		.uleb128 0xb
 13012 3e9f 37000000 		.4byte	0x37
 13013 3ea3 3E       		.byte	0x3e
 13014 3ea4 00       		.byte	0
 13015 3ea5 20       		.uleb128 0x20
 13016 3ea6 DC000000 		.4byte	.LASF843
 13017 3eaa 37       		.byte	0x37
 13018 3eab 0602     		.2byte	0x206
 13019 3ead 9E330000 		.4byte	0x339e
 13020 3eb1 2F       		.uleb128 0x2f
 13021 3eb2 A53E0000 		.4byte	0x3ea5
 13022 3eb6 07       		.byte	0x7
 13023 3eb7 2E       		.byte	0x2e
 13024 3eb8 05       		.uleb128 0x5
 13025 3eb9 03       		.byte	0x3
 13026 3eba 00000000 		.4byte	USBD1
 13027 3ebe 08       		.uleb128 0x8
 13028 3ebf 14       		.byte	0x14
 13029 3ec0 07       		.byte	0x7
 13030 3ec1 3F       		.byte	0x3f
 13031 3ec2 DC3E0000 		.4byte	0x3edc
 13032 3ec6 29       		.uleb128 0x29
 13033 3ec7 696E00   		.ascii	"in\000"
 13034 3eca 07       		.byte	0x7
ARM GAS  C:\Users\PCHAUT~1\AppData\Local\Temp\ccJuO4y2.s 			page 230


 13035 3ecb 43       		.byte	0x43
 13036 3ecc B13C0000 		.4byte	0x3cb1
 13037 3ed0 29       		.uleb128 0x29
 13038 3ed1 6F757400 		.ascii	"out\000"
 13039 3ed5 07       		.byte	0x7
 13040 3ed6 47       		.byte	0x47
 13041 3ed7 593D0000 		.4byte	0x3d59
 13042 3edb 00       		.byte	0
 13043 3edc 30       		.uleb128 0x30
 13044 3edd AB1B0000 		.4byte	.LASF844
 13045 3ee1 07       		.byte	0x7
 13046 3ee2 48       		.byte	0x48
 13047 3ee3 BE3E0000 		.4byte	0x3ebe
 13048 3ee7 05       		.uleb128 0x5
 13049 3ee8 03       		.byte	0x3
 13050 3ee9 00000000 		.4byte	ep0_state
 13051 3eed 30       		.uleb128 0x30
 13052 3eee E20A0000 		.4byte	.LASF845
 13053 3ef2 07       		.byte	0x7
 13054 3ef3 4D       		.byte	0x4d
 13055 3ef4 B0230000 		.4byte	0x23b0
 13056 3ef8 05       		.uleb128 0x5
 13057 3ef9 03       		.byte	0x3
 13058 3efa 00000000 		.4byte	ep0setup_buffer
 13059 3efe 30       		.uleb128 0x30
 13060 3eff EC020000 		.4byte	.LASF846
 13061 3f03 07       		.byte	0x7
 13062 3f04 52       		.byte	0x52
 13063 3f05 093E0000 		.4byte	0x3e09
 13064 3f09 05       		.uleb128 0x5
 13065 3f0a 03       		.byte	0x3
 13066 3f0b 00000000 		.4byte	ep0config
 13067 3f0f 30       		.uleb128 0x30
 13068 3f10 29060000 		.4byte	.LASF847
 13069 3f14 07       		.byte	0x7
 13070 3f15 60       		.byte	0x60
 13071 3f16 183C0000 		.4byte	0x3c18
 13072 3f1a 05       		.uleb128 0x5
 13073 3f1b 03       		.byte	0x3
 13074 3f1c 00000000 		.4byte	fsparams
 13075 3f20 31       		.uleb128 0x31
 13076 3f21 4A1B0000 		.4byte	.LASF852
 13077 3f25 07       		.byte	0x7
 13078 3f26 0E05     		.2byte	0x50e
 13079 3f28 00000000 		.4byte	.LFB292
 13080 3f2c 14010000 		.4byte	.LFE292-.LFB292
 13081 3f30 01       		.uleb128 0x1
 13082 3f31 9C       		.byte	0x9c
 13083 3f32 A23F0000 		.4byte	0x3fa2
 13084 3f36 32       		.uleb128 0x32
 13085 3f37 7000     		.ascii	"p\000"
 13086 3f39 07       		.byte	0x7
 13087 3f3a 0E05     		.2byte	0x50e
 13088 3f3c 5D010000 		.4byte	0x15d
 13089 3f40 02       		.uleb128 0x2
 13090 3f41 91       		.byte	0x91
 13091 3f42 5C       		.sleb128 -36
ARM GAS  C:\Users\PCHAUT~1\AppData\Local\Temp\ccJuO4y2.s 			page 231


 13092 3f43 33       		.uleb128 0x33
 13093 3f44 A5220000 		.4byte	.LASF848
 13094 3f48 07       		.byte	0x7
 13095 3f49 0F05     		.2byte	0x50f
 13096 3f4b 1C360000 		.4byte	0x361c
 13097 3f4f 02       		.uleb128 0x2
 13098 3f50 91       		.byte	0x91
 13099 3f51 68       		.sleb128 -24
 13100 3f52 33       		.uleb128 0x33
 13101 3f53 0D1C0000 		.4byte	.LASF849
 13102 3f57 07       		.byte	0x7
 13103 3f58 1005     		.2byte	0x510
 13104 3f5a 893E0000 		.4byte	0x3e89
 13105 3f5e 02       		.uleb128 0x2
 13106 3f5f 91       		.byte	0x91
 13107 3f60 6C       		.sleb128 -20
 13108 3f61 34       		.uleb128 0x34
 13109 3f62 20000000 		.4byte	.LBB24
 13110 3f66 EA000000 		.4byte	.LBE24-.LBB24
 13111 3f6a 35       		.uleb128 0x35
 13112 3f6b 657000   		.ascii	"ep\000"
 13113 3f6e 07       		.byte	0x7
 13114 3f6f 1705     		.2byte	0x517
 13115 3f71 D5340000 		.4byte	0x34d5
 13116 3f75 02       		.uleb128 0x2
 13117 3f76 91       		.byte	0x91
 13118 3f77 66       		.sleb128 -26
 13119 3f78 33       		.uleb128 0x33
 13120 3f79 4F1A0000 		.4byte	.LASF850
 13121 3f7d 07       		.byte	0x7
 13122 3f7e 1805     		.2byte	0x518
 13123 3f80 1C090000 		.4byte	0x91c
 13124 3f84 02       		.uleb128 0x2
 13125 3f85 91       		.byte	0x91
 13126 3f86 70       		.sleb128 -16
 13127 3f87 34       		.uleb128 0x34
 13128 3f88 88000000 		.4byte	.LBB25
 13129 3f8c 66000000 		.4byte	.LBE25-.LBB25
 13130 3f90 33       		.uleb128 0x33
 13131 3f91 7A070000 		.4byte	.LASF851
 13132 3f95 07       		.byte	0x7
 13133 3f96 2C05     		.2byte	0x52c
 13134 3f98 951E0000 		.4byte	0x1e95
 13135 3f9c 02       		.uleb128 0x2
 13136 3f9d 91       		.byte	0x91
 13137 3f9e 67       		.sleb128 -25
 13138 3f9f 00       		.byte	0
 13139 3fa0 00       		.byte	0
 13140 3fa1 00       		.byte	0
 13141 3fa2 31       		.uleb128 0x31
 13142 3fa3 790D0000 		.4byte	.LASF853
 13143 3fa7 07       		.byte	0x7
 13144 3fa8 FE04     		.2byte	0x4fe
 13145 3faa 00000000 		.4byte	.LFB291
 13146 3fae 50000000 		.4byte	.LFE291-.LFB291
 13147 3fb2 01       		.uleb128 0x1
 13148 3fb3 9C       		.byte	0x9c
ARM GAS  C:\Users\PCHAUT~1\AppData\Local\Temp\ccJuO4y2.s 			page 232


 13149 3fb4 D63F0000 		.4byte	0x3fd6
 13150 3fb8 36       		.uleb128 0x36
 13151 3fb9 A5220000 		.4byte	.LASF848
 13152 3fbd 07       		.byte	0x7
 13153 3fbe FE04     		.2byte	0x4fe
 13154 3fc0 1C360000 		.4byte	0x361c
 13155 3fc4 02       		.uleb128 0x2
 13156 3fc5 91       		.byte	0x91
 13157 3fc6 6C       		.sleb128 -20
 13158 3fc7 32       		.uleb128 0x32
 13159 3fc8 657000   		.ascii	"ep\000"
 13160 3fcb 07       		.byte	0x7
 13161 3fcc FE04     		.2byte	0x4fe
 13162 3fce D5340000 		.4byte	0x34d5
 13163 3fd2 02       		.uleb128 0x2
 13164 3fd3 91       		.byte	0x91
 13165 3fd4 6B       		.sleb128 -21
 13166 3fd5 00       		.byte	0
 13167 3fd6 31       		.uleb128 0x31
 13168 3fd7 D6220000 		.4byte	.LASF854
 13169 3fdb 07       		.byte	0x7
 13170 3fdc F104     		.2byte	0x4f1
 13171 3fde 00000000 		.4byte	.LFB290
 13172 3fe2 50000000 		.4byte	.LFE290-.LFB290
 13173 3fe6 01       		.uleb128 0x1
 13174 3fe7 9C       		.byte	0x9c
 13175 3fe8 0A400000 		.4byte	0x400a
 13176 3fec 36       		.uleb128 0x36
 13177 3fed A5220000 		.4byte	.LASF848
 13178 3ff1 07       		.byte	0x7
 13179 3ff2 F104     		.2byte	0x4f1
 13180 3ff4 1C360000 		.4byte	0x361c
 13181 3ff8 02       		.uleb128 0x2
 13182 3ff9 91       		.byte	0x91
 13183 3ffa 6C       		.sleb128 -20
 13184 3ffb 32       		.uleb128 0x32
 13185 3ffc 657000   		.ascii	"ep\000"
 13186 3fff 07       		.byte	0x7
 13187 4000 F104     		.2byte	0x4f1
 13188 4002 D5340000 		.4byte	0x34d5
 13189 4006 02       		.uleb128 0x2
 13190 4007 91       		.byte	0x91
 13191 4008 6B       		.sleb128 -21
 13192 4009 00       		.byte	0
 13193 400a 31       		.uleb128 0x31
 13194 400b BC110000 		.4byte	.LASF855
 13195 400f 07       		.byte	0x7
 13196 4010 E404     		.2byte	0x4e4
 13197 4012 00000000 		.4byte	.LFB289
 13198 4016 50000000 		.4byte	.LFE289-.LFB289
 13199 401a 01       		.uleb128 0x1
 13200 401b 9C       		.byte	0x9c
 13201 401c 3E400000 		.4byte	0x403e
 13202 4020 36       		.uleb128 0x36
 13203 4021 A5220000 		.4byte	.LASF848
 13204 4025 07       		.byte	0x7
 13205 4026 E404     		.2byte	0x4e4
ARM GAS  C:\Users\PCHAUT~1\AppData\Local\Temp\ccJuO4y2.s 			page 233


 13206 4028 1C360000 		.4byte	0x361c
 13207 402c 02       		.uleb128 0x2
 13208 402d 91       		.byte	0x91
 13209 402e 6C       		.sleb128 -20
 13210 402f 32       		.uleb128 0x32
 13211 4030 657000   		.ascii	"ep\000"
 13212 4033 07       		.byte	0x7
 13213 4034 E404     		.2byte	0x4e4
 13214 4036 D5340000 		.4byte	0x34d5
 13215 403a 02       		.uleb128 0x2
 13216 403b 91       		.byte	0x91
 13217 403c 6B       		.sleb128 -21
 13218 403d 00       		.byte	0
 13219 403e 31       		.uleb128 0x31
 13220 403f B4250000 		.4byte	.LASF856
 13221 4043 07       		.byte	0x7
 13222 4044 D704     		.2byte	0x4d7
 13223 4046 00000000 		.4byte	.LFB288
 13224 404a 50000000 		.4byte	.LFE288-.LFB288
 13225 404e 01       		.uleb128 0x1
 13226 404f 9C       		.byte	0x9c
 13227 4050 72400000 		.4byte	0x4072
 13228 4054 36       		.uleb128 0x36
 13229 4055 A5220000 		.4byte	.LASF848
 13230 4059 07       		.byte	0x7
 13231 405a D704     		.2byte	0x4d7
 13232 405c 1C360000 		.4byte	0x361c
 13233 4060 02       		.uleb128 0x2
 13234 4061 91       		.byte	0x91
 13235 4062 6C       		.sleb128 -20
 13236 4063 32       		.uleb128 0x32
 13237 4064 657000   		.ascii	"ep\000"
 13238 4067 07       		.byte	0x7
 13239 4068 D704     		.2byte	0x4d7
 13240 406a D5340000 		.4byte	0x34d5
 13241 406e 02       		.uleb128 0x2
 13242 406f 91       		.byte	0x91
 13243 4070 6B       		.sleb128 -21
 13244 4071 00       		.byte	0
 13245 4072 31       		.uleb128 0x31
 13246 4073 C3050000 		.4byte	.LASF857
 13247 4077 07       		.byte	0x7
 13248 4078 C904     		.2byte	0x4c9
 13249 407a 00000000 		.4byte	.LFB287
 13250 407e 6C000000 		.4byte	.LFE287-.LFB287
 13251 4082 01       		.uleb128 0x1
 13252 4083 9C       		.byte	0x9c
 13253 4084 A6400000 		.4byte	0x40a6
 13254 4088 36       		.uleb128 0x36
 13255 4089 A5220000 		.4byte	.LASF848
 13256 408d 07       		.byte	0x7
 13257 408e C904     		.2byte	0x4c9
 13258 4090 1C360000 		.4byte	0x361c
 13259 4094 02       		.uleb128 0x2
 13260 4095 91       		.byte	0x91
 13261 4096 6C       		.sleb128 -20
 13262 4097 32       		.uleb128 0x32
ARM GAS  C:\Users\PCHAUT~1\AppData\Local\Temp\ccJuO4y2.s 			page 234


 13263 4098 657000   		.ascii	"ep\000"
 13264 409b 07       		.byte	0x7
 13265 409c C904     		.2byte	0x4c9
 13266 409e D5340000 		.4byte	0x34d5
 13267 40a2 02       		.uleb128 0x2
 13268 40a3 91       		.byte	0x91
 13269 40a4 6B       		.sleb128 -21
 13270 40a5 00       		.byte	0
 13271 40a6 31       		.uleb128 0x31
 13272 40a7 CB0B0000 		.4byte	.LASF858
 13273 40ab 07       		.byte	0x7
 13274 40ac BC04     		.2byte	0x4bc
 13275 40ae 00000000 		.4byte	.LFB286
 13276 40b2 50000000 		.4byte	.LFE286-.LFB286
 13277 40b6 01       		.uleb128 0x1
 13278 40b7 9C       		.byte	0x9c
 13279 40b8 DA400000 		.4byte	0x40da
 13280 40bc 36       		.uleb128 0x36
 13281 40bd A5220000 		.4byte	.LASF848
 13282 40c1 07       		.byte	0x7
 13283 40c2 BC04     		.2byte	0x4bc
 13284 40c4 1C360000 		.4byte	0x361c
 13285 40c8 02       		.uleb128 0x2
 13286 40c9 91       		.byte	0x91
 13287 40ca 6C       		.sleb128 -20
 13288 40cb 32       		.uleb128 0x32
 13289 40cc 657000   		.ascii	"ep\000"
 13290 40cf 07       		.byte	0x7
 13291 40d0 BC04     		.2byte	0x4bc
 13292 40d2 D5340000 		.4byte	0x34d5
 13293 40d6 02       		.uleb128 0x2
 13294 40d7 91       		.byte	0x91
 13295 40d8 6B       		.sleb128 -21
 13296 40d9 00       		.byte	0
 13297 40da 31       		.uleb128 0x31
 13298 40db FB090000 		.4byte	.LASF859
 13299 40df 07       		.byte	0x7
 13300 40e0 9F04     		.2byte	0x49f
 13301 40e2 00000000 		.4byte	.LFB285
 13302 40e6 C8000000 		.4byte	.LFE285-.LFB285
 13303 40ea 01       		.uleb128 0x1
 13304 40eb 9C       		.byte	0x9c
 13305 40ec 36410000 		.4byte	0x4136
 13306 40f0 36       		.uleb128 0x36
 13307 40f1 A5220000 		.4byte	.LASF848
 13308 40f5 07       		.byte	0x7
 13309 40f6 9F04     		.2byte	0x49f
 13310 40f8 1C360000 		.4byte	0x361c
 13311 40fc 02       		.uleb128 0x2
 13312 40fd 91       		.byte	0x91
 13313 40fe 64       		.sleb128 -28
 13314 40ff 32       		.uleb128 0x32
 13315 4100 657000   		.ascii	"ep\000"
 13316 4103 07       		.byte	0x7
 13317 4104 9F04     		.2byte	0x49f
 13318 4106 D5340000 		.4byte	0x34d5
 13319 410a 02       		.uleb128 0x2
ARM GAS  C:\Users\PCHAUT~1\AppData\Local\Temp\ccJuO4y2.s 			page 235


 13320 410b 91       		.byte	0x91
 13321 410c 63       		.sleb128 -29
 13322 410d 35       		.uleb128 0x35
 13323 410e 69737000 		.ascii	"isp\000"
 13324 4112 07       		.byte	0x7
 13325 4113 A004     		.2byte	0x4a0
 13326 4115 F13D0000 		.4byte	0x3df1
 13327 4119 02       		.uleb128 0x2
 13328 411a 91       		.byte	0x91
 13329 411b 6C       		.sleb128 -20
 13330 411c 34       		.uleb128 0x34
 13331 411d 4C000000 		.4byte	.LBB23
 13332 4121 60000000 		.4byte	.LBE23-.LBB23
 13333 4125 33       		.uleb128 0x33
 13334 4126 B11A0000 		.4byte	.LASF860
 13335 412a 07       		.byte	0x7
 13336 412b AD04     		.2byte	0x4ad
 13337 412d 1C090000 		.4byte	0x91c
 13338 4131 02       		.uleb128 0x2
 13339 4132 91       		.byte	0x91
 13340 4133 70       		.sleb128 -16
 13341 4134 00       		.byte	0
 13342 4135 00       		.byte	0
 13343 4136 31       		.uleb128 0x31
 13344 4137 371A0000 		.4byte	.LASF861
 13345 413b 07       		.byte	0x7
 13346 413c 8704     		.2byte	0x487
 13347 413e 00000000 		.4byte	.LFB284
 13348 4142 AC000000 		.4byte	.LFE284-.LFB284
 13349 4146 01       		.uleb128 0x1
 13350 4147 9C       		.byte	0x9c
 13351 4148 88410000 		.4byte	0x4188
 13352 414c 36       		.uleb128 0x36
 13353 414d A5220000 		.4byte	.LASF848
 13354 4151 07       		.byte	0x7
 13355 4152 8704     		.2byte	0x487
 13356 4154 1C360000 		.4byte	0x361c
 13357 4158 02       		.uleb128 0x2
 13358 4159 91       		.byte	0x91
 13359 415a 64       		.sleb128 -28
 13360 415b 32       		.uleb128 0x32
 13361 415c 657000   		.ascii	"ep\000"
 13362 415f 07       		.byte	0x7
 13363 4160 8704     		.2byte	0x487
 13364 4162 D5340000 		.4byte	0x34d5
 13365 4166 02       		.uleb128 0x2
 13366 4167 91       		.byte	0x91
 13367 4168 63       		.sleb128 -29
 13368 4169 33       		.uleb128 0x33
 13369 416a B11A0000 		.4byte	.LASF860
 13370 416e 07       		.byte	0x7
 13371 416f 8804     		.2byte	0x488
 13372 4171 1C090000 		.4byte	0x91c
 13373 4175 02       		.uleb128 0x2
 13374 4176 91       		.byte	0x91
 13375 4177 70       		.sleb128 -16
 13376 4178 35       		.uleb128 0x35
ARM GAS  C:\Users\PCHAUT~1\AppData\Local\Temp\ccJuO4y2.s 			page 236


 13377 4179 6F737000 		.ascii	"osp\000"
 13378 417d 07       		.byte	0x7
 13379 417e 8904     		.2byte	0x489
 13380 4180 F73D0000 		.4byte	0x3df7
 13381 4184 02       		.uleb128 0x2
 13382 4185 91       		.byte	0x91
 13383 4186 6C       		.sleb128 -20
 13384 4187 00       		.byte	0
 13385 4188 31       		.uleb128 0x31
 13386 4189 840B0000 		.4byte	.LASF862
 13387 418d 07       		.byte	0x7
 13388 418e 7A04     		.2byte	0x47a
 13389 4190 00000000 		.4byte	.LFB283
 13390 4194 48000000 		.4byte	.LFE283-.LFB283
 13391 4198 01       		.uleb128 0x1
 13392 4199 9C       		.byte	0x9c
 13393 419a CB410000 		.4byte	0x41cb
 13394 419e 36       		.uleb128 0x36
 13395 419f A5220000 		.4byte	.LASF848
 13396 41a3 07       		.byte	0x7
 13397 41a4 7A04     		.2byte	0x47a
 13398 41a6 1C360000 		.4byte	0x361c
 13399 41aa 02       		.uleb128 0x2
 13400 41ab 91       		.byte	0x91
 13401 41ac 6C       		.sleb128 -20
 13402 41ad 32       		.uleb128 0x32
 13403 41ae 657000   		.ascii	"ep\000"
 13404 41b1 07       		.byte	0x7
 13405 41b2 7A04     		.2byte	0x47a
 13406 41b4 D5340000 		.4byte	0x34d5
 13407 41b8 02       		.uleb128 0x2
 13408 41b9 91       		.byte	0x91
 13409 41ba 6B       		.sleb128 -21
 13410 41bb 32       		.uleb128 0x32
 13411 41bc 62756600 		.ascii	"buf\000"
 13412 41c0 07       		.byte	0x7
 13413 41c1 7A04     		.2byte	0x47a
 13414 41c3 791C0000 		.4byte	0x1c79
 13415 41c7 02       		.uleb128 0x2
 13416 41c8 91       		.byte	0x91
 13417 41c9 64       		.sleb128 -28
 13418 41ca 00       		.byte	0
 13419 41cb 37       		.uleb128 0x37
 13420 41cc 56150000 		.4byte	.LASF863
 13421 41d0 07       		.byte	0x7
 13422 41d1 5F04     		.2byte	0x45f
 13423 41d3 3A350000 		.4byte	0x353a
 13424 41d7 00000000 		.4byte	.LFB282
 13425 41db 5C000000 		.4byte	.LFE282-.LFB282
 13426 41df 01       		.uleb128 0x1
 13427 41e0 9C       		.byte	0x9c
 13428 41e1 12420000 		.4byte	0x4212
 13429 41e5 36       		.uleb128 0x36
 13430 41e6 A5220000 		.4byte	.LASF848
 13431 41ea 07       		.byte	0x7
 13432 41eb 5F04     		.2byte	0x45f
 13433 41ed 1C360000 		.4byte	0x361c
ARM GAS  C:\Users\PCHAUT~1\AppData\Local\Temp\ccJuO4y2.s 			page 237


 13434 41f1 02       		.uleb128 0x2
 13435 41f2 91       		.byte	0x91
 13436 41f3 6C       		.sleb128 -20
 13437 41f4 32       		.uleb128 0x32
 13438 41f5 657000   		.ascii	"ep\000"
 13439 41f8 07       		.byte	0x7
 13440 41f9 5F04     		.2byte	0x45f
 13441 41fb D5340000 		.4byte	0x34d5
 13442 41ff 02       		.uleb128 0x2
 13443 4200 91       		.byte	0x91
 13444 4201 6B       		.sleb128 -21
 13445 4202 35       		.uleb128 0x35
 13446 4203 63746C00 		.ascii	"ctl\000"
 13447 4207 07       		.byte	0x7
 13448 4208 6004     		.2byte	0x460
 13449 420a 1C090000 		.4byte	0x91c
 13450 420e 02       		.uleb128 0x2
 13451 420f 91       		.byte	0x91
 13452 4210 70       		.sleb128 -16
 13453 4211 00       		.byte	0
 13454 4212 37       		.uleb128 0x37
 13455 4213 89160000 		.4byte	.LASF864
 13456 4217 07       		.byte	0x7
 13457 4218 4604     		.2byte	0x446
 13458 421a 3A350000 		.4byte	0x353a
 13459 421e 00000000 		.4byte	.LFB281
 13460 4222 5C000000 		.4byte	.LFE281-.LFB281
 13461 4226 01       		.uleb128 0x1
 13462 4227 9C       		.byte	0x9c
 13463 4228 59420000 		.4byte	0x4259
 13464 422c 36       		.uleb128 0x36
 13465 422d A5220000 		.4byte	.LASF848
 13466 4231 07       		.byte	0x7
 13467 4232 4604     		.2byte	0x446
 13468 4234 1C360000 		.4byte	0x361c
 13469 4238 02       		.uleb128 0x2
 13470 4239 91       		.byte	0x91
 13471 423a 6C       		.sleb128 -20
 13472 423b 32       		.uleb128 0x32
 13473 423c 657000   		.ascii	"ep\000"
 13474 423f 07       		.byte	0x7
 13475 4240 4604     		.2byte	0x446
 13476 4242 D5340000 		.4byte	0x34d5
 13477 4246 02       		.uleb128 0x2
 13478 4247 91       		.byte	0x91
 13479 4248 6B       		.sleb128 -21
 13480 4249 35       		.uleb128 0x35
 13481 424a 63746C00 		.ascii	"ctl\000"
 13482 424e 07       		.byte	0x7
 13483 424f 4704     		.2byte	0x447
 13484 4251 1C090000 		.4byte	0x91c
 13485 4255 02       		.uleb128 0x2
 13486 4256 91       		.byte	0x91
 13487 4257 70       		.sleb128 -16
 13488 4258 00       		.byte	0
 13489 4259 31       		.uleb128 0x31
 13490 425a A9140000 		.4byte	.LASF865
ARM GAS  C:\Users\PCHAUT~1\AppData\Local\Temp\ccJuO4y2.s 			page 238


 13491 425e 07       		.byte	0x7
 13492 425f 3104     		.2byte	0x431
 13493 4261 00000000 		.4byte	.LFB280
 13494 4265 34000000 		.4byte	.LFE280-.LFB280
 13495 4269 01       		.uleb128 0x1
 13496 426a 9C       		.byte	0x9c
 13497 426b 7F420000 		.4byte	0x427f
 13498 426f 36       		.uleb128 0x36
 13499 4270 A5220000 		.4byte	.LASF848
 13500 4274 07       		.byte	0x7
 13501 4275 3104     		.2byte	0x431
 13502 4277 1C360000 		.4byte	0x361c
 13503 427b 02       		.uleb128 0x2
 13504 427c 91       		.byte	0x91
 13505 427d 6C       		.sleb128 -20
 13506 427e 00       		.byte	0
 13507 427f 31       		.uleb128 0x31
 13508 4280 76230000 		.4byte	.LASF866
 13509 4284 07       		.byte	0x7
 13510 4285 F103     		.2byte	0x3f1
 13511 4287 00000000 		.4byte	.LFB279
 13512 428b 68020000 		.4byte	.LFE279-.LFB279
 13513 428f 01       		.uleb128 0x1
 13514 4290 9C       		.byte	0x9c
 13515 4291 E0420000 		.4byte	0x42e0
 13516 4295 36       		.uleb128 0x36
 13517 4296 A5220000 		.4byte	.LASF848
 13518 429a 07       		.byte	0x7
 13519 429b F103     		.2byte	0x3f1
 13520 429d 1C360000 		.4byte	0x361c
 13521 42a1 02       		.uleb128 0x2
 13522 42a2 91       		.byte	0x91
 13523 42a3 64       		.sleb128 -28
 13524 42a4 32       		.uleb128 0x32
 13525 42a5 657000   		.ascii	"ep\000"
 13526 42a8 07       		.byte	0x7
 13527 42a9 F103     		.2byte	0x3f1
 13528 42ab D5340000 		.4byte	0x34d5
 13529 42af 02       		.uleb128 0x2
 13530 42b0 91       		.byte	0x91
 13531 42b1 63       		.sleb128 -29
 13532 42b2 35       		.uleb128 0x35
 13533 42b3 63746C00 		.ascii	"ctl\000"
 13534 42b7 07       		.byte	0x7
 13535 42b8 F203     		.2byte	0x3f2
 13536 42ba 1C090000 		.4byte	0x91c
 13537 42be 02       		.uleb128 0x2
 13538 42bf 91       		.byte	0x91
 13539 42c0 68       		.sleb128 -24
 13540 42c1 33       		.uleb128 0x33
 13541 42c2 11160000 		.4byte	.LASF867
 13542 42c6 07       		.byte	0x7
 13543 42c7 F203     		.2byte	0x3f2
 13544 42c9 1C090000 		.4byte	0x91c
 13545 42cd 02       		.uleb128 0x2
 13546 42ce 91       		.byte	0x91
 13547 42cf 6C       		.sleb128 -20
ARM GAS  C:\Users\PCHAUT~1\AppData\Local\Temp\ccJuO4y2.s 			page 239


 13548 42d0 33       		.uleb128 0x33
 13549 42d1 0D1C0000 		.4byte	.LASF849
 13550 42d5 07       		.byte	0x7
 13551 42d6 F303     		.2byte	0x3f3
 13552 42d8 893E0000 		.4byte	0x3e89
 13553 42dc 02       		.uleb128 0x2
 13554 42dd 91       		.byte	0x91
 13555 42de 70       		.sleb128 -16
 13556 42df 00       		.byte	0
 13557 42e0 31       		.uleb128 0x31
 13558 42e1 F3130000 		.4byte	.LASF868
 13559 42e5 07       		.byte	0x7
 13560 42e6 E303     		.2byte	0x3e3
 13561 42e8 00000000 		.4byte	.LFB278
 13562 42ec 48000000 		.4byte	.LFE278-.LFB278
 13563 42f0 01       		.uleb128 0x1
 13564 42f1 9C       		.byte	0x9c
 13565 42f2 15430000 		.4byte	0x4315
 13566 42f6 36       		.uleb128 0x36
 13567 42f7 A5220000 		.4byte	.LASF848
 13568 42fb 07       		.byte	0x7
 13569 42fc E303     		.2byte	0x3e3
 13570 42fe 1C360000 		.4byte	0x361c
 13571 4302 02       		.uleb128 0x2
 13572 4303 91       		.byte	0x91
 13573 4304 6C       		.sleb128 -20
 13574 4305 33       		.uleb128 0x33
 13575 4306 0D1C0000 		.4byte	.LASF849
 13576 430a 07       		.byte	0x7
 13577 430b E403     		.2byte	0x3e4
 13578 430d 893E0000 		.4byte	0x3e89
 13579 4311 02       		.uleb128 0x2
 13580 4312 91       		.byte	0x91
 13581 4313 70       		.sleb128 -16
 13582 4314 00       		.byte	0
 13583 4315 31       		.uleb128 0x31
 13584 4316 12150000 		.4byte	.LASF869
 13585 431a 07       		.byte	0x7
 13586 431b AD03     		.2byte	0x3ad
 13587 431d 00000000 		.4byte	.LFB277
 13588 4321 40010000 		.4byte	.LFE277-.LFB277
 13589 4325 01       		.uleb128 0x1
 13590 4326 9C       		.byte	0x9c
 13591 4327 57430000 		.4byte	0x4357
 13592 432b 36       		.uleb128 0x36
 13593 432c A5220000 		.4byte	.LASF848
 13594 4330 07       		.byte	0x7
 13595 4331 AD03     		.2byte	0x3ad
 13596 4333 1C360000 		.4byte	0x361c
 13597 4337 02       		.uleb128 0x2
 13598 4338 91       		.byte	0x91
 13599 4339 64       		.sleb128 -28
 13600 433a 35       		.uleb128 0x35
 13601 433b 6900     		.ascii	"i\000"
 13602 433d 07       		.byte	0x7
 13603 433e AE03     		.2byte	0x3ae
 13604 4340 37000000 		.4byte	0x37
ARM GAS  C:\Users\PCHAUT~1\AppData\Local\Temp\ccJuO4y2.s 			page 240


 13605 4344 02       		.uleb128 0x2
 13606 4345 91       		.byte	0x91
 13607 4346 6C       		.sleb128 -20
 13608 4347 33       		.uleb128 0x33
 13609 4348 0D1C0000 		.4byte	.LASF849
 13610 434c 07       		.byte	0x7
 13611 434d AF03     		.2byte	0x3af
 13612 434f 893E0000 		.4byte	0x3e89
 13613 4353 02       		.uleb128 0x2
 13614 4354 91       		.byte	0x91
 13615 4355 70       		.sleb128 -16
 13616 4356 00       		.byte	0
 13617 4357 31       		.uleb128 0x31
 13618 4358 7E020000 		.4byte	.LASF870
 13619 435c 07       		.byte	0x7
 13620 435d 8603     		.2byte	0x386
 13621 435f 00000000 		.4byte	.LFB276
 13622 4363 78000000 		.4byte	.LFE276-.LFB276
 13623 4367 01       		.uleb128 0x1
 13624 4368 9C       		.byte	0x9c
 13625 4369 8C430000 		.4byte	0x438c
 13626 436d 36       		.uleb128 0x36
 13627 436e A5220000 		.4byte	.LASF848
 13628 4372 07       		.byte	0x7
 13629 4373 8603     		.2byte	0x386
 13630 4375 1C360000 		.4byte	0x361c
 13631 4379 02       		.uleb128 0x2
 13632 437a 91       		.byte	0x91
 13633 437b 6C       		.sleb128 -20
 13634 437c 33       		.uleb128 0x33
 13635 437d 0D1C0000 		.4byte	.LASF849
 13636 4381 07       		.byte	0x7
 13637 4382 8703     		.2byte	0x387
 13638 4384 893E0000 		.4byte	0x3e89
 13639 4388 02       		.uleb128 0x2
 13640 4389 91       		.byte	0x91
 13641 438a 70       		.sleb128 -16
 13642 438b 00       		.byte	0
 13643 438c 31       		.uleb128 0x31
 13644 438d 5D0F0000 		.4byte	.LASF871
 13645 4391 07       		.byte	0x7
 13646 4392 2603     		.2byte	0x326
 13647 4394 00000000 		.4byte	.LFB275
 13648 4398 28010000 		.4byte	.LFE275-.LFB275
 13649 439c 01       		.uleb128 0x1
 13650 439d 9C       		.byte	0x9c
 13651 439e C1430000 		.4byte	0x43c1
 13652 43a2 36       		.uleb128 0x36
 13653 43a3 A5220000 		.4byte	.LASF848
 13654 43a7 07       		.byte	0x7
 13655 43a8 2603     		.2byte	0x326
 13656 43aa 1C360000 		.4byte	0x361c
 13657 43ae 02       		.uleb128 0x2
 13658 43af 91       		.byte	0x91
 13659 43b0 6C       		.sleb128 -20
 13660 43b1 33       		.uleb128 0x33
 13661 43b2 0D1C0000 		.4byte	.LASF849
ARM GAS  C:\Users\PCHAUT~1\AppData\Local\Temp\ccJuO4y2.s 			page 241


 13662 43b6 07       		.byte	0x7
 13663 43b7 2703     		.2byte	0x327
 13664 43b9 893E0000 		.4byte	0x3e89
 13665 43bd 02       		.uleb128 0x2
 13666 43be 91       		.byte	0x91
 13667 43bf 70       		.sleb128 -16
 13668 43c0 00       		.byte	0
 13669 43c1 31       		.uleb128 0x31
 13670 43c2 58170000 		.4byte	.LASF872
 13671 43c6 07       		.byte	0x7
 13672 43c7 E802     		.2byte	0x2e8
 13673 43c9 00000000 		.4byte	.LFB274
 13674 43cd 78000000 		.4byte	.LFE274-.LFB274
 13675 43d1 01       		.uleb128 0x1
 13676 43d2 9C       		.byte	0x9c
 13677 43d3 F1430000 		.4byte	0x43f1
 13678 43d7 34       		.uleb128 0x34
 13679 43d8 2A000000 		.4byte	.LBB22
 13680 43dc 26000000 		.4byte	.LBE22-.LBB22
 13681 43e0 35       		.uleb128 0x35
 13682 43e1 77737000 		.ascii	"wsp\000"
 13683 43e5 07       		.byte	0x7
 13684 43e6 F702     		.2byte	0x2f7
 13685 43e8 5D010000 		.4byte	0x15d
 13686 43ec 02       		.uleb128 0x2
 13687 43ed 91       		.byte	0x91
 13688 43ee 70       		.sleb128 -16
 13689 43ef 00       		.byte	0
 13690 43f0 00       		.byte	0
 13691 43f1 38       		.uleb128 0x38
 13692 43f2 05110000 		.4byte	.LASF922
 13693 43f6 07       		.byte	0x7
 13694 43f7 C202     		.2byte	0x2c2
 13695 43f9 00000000 		.4byte	.LFB273
 13696 43fd 40000000 		.4byte	.LFE273-.LFB273
 13697 4401 01       		.uleb128 0x1
 13698 4402 9C       		.byte	0x9c
 13699 4403 39       		.uleb128 0x39
 13700 4404 CC170000 		.4byte	.LASF873
 13701 4408 07       		.byte	0x7
 13702 4409 6F02     		.2byte	0x26f
 13703 440b 00000000 		.4byte	.LFB272
 13704 440f 6C010000 		.4byte	.LFE272-.LFB272
 13705 4413 01       		.uleb128 0x1
 13706 4414 9C       		.byte	0x9c
 13707 4415 56440000 		.4byte	0x4456
 13708 4419 36       		.uleb128 0x36
 13709 441a A5220000 		.4byte	.LASF848
 13710 441e 07       		.byte	0x7
 13711 441f 6F02     		.2byte	0x26f
 13712 4421 1C360000 		.4byte	0x361c
 13713 4425 02       		.uleb128 0x2
 13714 4426 91       		.byte	0x91
 13715 4427 64       		.sleb128 -28
 13716 4428 33       		.uleb128 0x33
 13717 4429 0D1C0000 		.4byte	.LASF849
 13718 442d 07       		.byte	0x7
ARM GAS  C:\Users\PCHAUT~1\AppData\Local\Temp\ccJuO4y2.s 			page 242


 13719 442e 7002     		.2byte	0x270
 13720 4430 893E0000 		.4byte	0x3e89
 13721 4434 02       		.uleb128 0x2
 13722 4435 91       		.byte	0x91
 13723 4436 68       		.sleb128 -24
 13724 4437 35       		.uleb128 0x35
 13725 4438 73747300 		.ascii	"sts\000"
 13726 443c 07       		.byte	0x7
 13727 443d 7102     		.2byte	0x271
 13728 443f 1C090000 		.4byte	0x91c
 13729 4443 02       		.uleb128 0x2
 13730 4444 91       		.byte	0x91
 13731 4445 6C       		.sleb128 -20
 13732 4446 35       		.uleb128 0x35
 13733 4447 73726300 		.ascii	"src\000"
 13734 444b 07       		.byte	0x7
 13735 444c 7102     		.2byte	0x271
 13736 444e 1C090000 		.4byte	0x91c
 13737 4452 02       		.uleb128 0x2
 13738 4453 91       		.byte	0x91
 13739 4454 70       		.sleb128 -16
 13740 4455 00       		.byte	0
 13741 4456 39       		.uleb128 0x39
 13742 4457 E4010000 		.4byte	.LASF874
 13743 445b 07       		.byte	0x7
 13744 445c 4502     		.2byte	0x245
 13745 445e 00000000 		.4byte	.LFB271
 13746 4462 30010000 		.4byte	.LFE271-.LFB271
 13747 4466 01       		.uleb128 0x1
 13748 4467 9C       		.byte	0x9c
 13749 4468 BD440000 		.4byte	0x44bd
 13750 446c 36       		.uleb128 0x36
 13751 446d A5220000 		.4byte	.LASF848
 13752 4471 07       		.byte	0x7
 13753 4472 4502     		.2byte	0x245
 13754 4474 1C360000 		.4byte	0x361c
 13755 4478 02       		.uleb128 0x2
 13756 4479 91       		.byte	0x91
 13757 447a 64       		.sleb128 -28
 13758 447b 32       		.uleb128 0x32
 13759 447c 657000   		.ascii	"ep\000"
 13760 447f 07       		.byte	0x7
 13761 4480 4502     		.2byte	0x245
 13762 4482 D5340000 		.4byte	0x34d5
 13763 4486 02       		.uleb128 0x2
 13764 4487 91       		.byte	0x91
 13765 4488 63       		.sleb128 -29
 13766 4489 33       		.uleb128 0x33
 13767 448a 0D1C0000 		.4byte	.LASF849
 13768 448e 07       		.byte	0x7
 13769 448f 4602     		.2byte	0x246
 13770 4491 893E0000 		.4byte	0x3e89
 13771 4495 02       		.uleb128 0x2
 13772 4496 91       		.byte	0x91
 13773 4497 68       		.sleb128 -24
 13774 4498 33       		.uleb128 0x33
 13775 4499 67020000 		.4byte	.LASF875
ARM GAS  C:\Users\PCHAUT~1\AppData\Local\Temp\ccJuO4y2.s 			page 243


 13776 449d 07       		.byte	0x7
 13777 449e 4702     		.2byte	0x247
 13778 44a0 1C090000 		.4byte	0x91c
 13779 44a4 02       		.uleb128 0x2
 13780 44a5 91       		.byte	0x91
 13781 44a6 6C       		.sleb128 -20
 13782 44a7 3A       		.uleb128 0x3a
 13783 44a8 30000000 		.4byte	.Ldebug_ranges0+0x30
 13784 44ac 35       		.uleb128 0x35
 13785 44ad 6F737000 		.ascii	"osp\000"
 13786 44b1 07       		.byte	0x7
 13787 44b2 5402     		.2byte	0x254
 13788 44b4 F73D0000 		.4byte	0x3df7
 13789 44b8 02       		.uleb128 0x2
 13790 44b9 91       		.byte	0x91
 13791 44ba 70       		.sleb128 -16
 13792 44bb 00       		.byte	0
 13793 44bc 00       		.byte	0
 13794 44bd 39       		.uleb128 0x39
 13795 44be 6D1C0000 		.4byte	.LASF876
 13796 44c2 07       		.byte	0x7
 13797 44c3 1502     		.2byte	0x215
 13798 44c5 00000000 		.4byte	.LFB270
 13799 44c9 60010000 		.4byte	.LFE270-.LFB270
 13800 44cd 01       		.uleb128 0x1
 13801 44ce 9C       		.byte	0x9c
 13802 44cf 28450000 		.4byte	0x4528
 13803 44d3 36       		.uleb128 0x36
 13804 44d4 A5220000 		.4byte	.LASF848
 13805 44d8 07       		.byte	0x7
 13806 44d9 1502     		.2byte	0x215
 13807 44db 1C360000 		.4byte	0x361c
 13808 44df 02       		.uleb128 0x2
 13809 44e0 91       		.byte	0x91
 13810 44e1 64       		.sleb128 -28
 13811 44e2 32       		.uleb128 0x32
 13812 44e3 657000   		.ascii	"ep\000"
 13813 44e6 07       		.byte	0x7
 13814 44e7 1502     		.2byte	0x215
 13815 44e9 D5340000 		.4byte	0x34d5
 13816 44ed 02       		.uleb128 0x2
 13817 44ee 91       		.byte	0x91
 13818 44ef 63       		.sleb128 -29
 13819 44f0 33       		.uleb128 0x33
 13820 44f1 0D1C0000 		.4byte	.LASF849
 13821 44f5 07       		.byte	0x7
 13822 44f6 1602     		.2byte	0x216
 13823 44f8 893E0000 		.4byte	0x3e89
 13824 44fc 02       		.uleb128 0x2
 13825 44fd 91       		.byte	0x91
 13826 44fe 68       		.sleb128 -24
 13827 44ff 33       		.uleb128 0x33
 13828 4500 67020000 		.4byte	.LASF875
 13829 4504 07       		.byte	0x7
 13830 4505 1702     		.2byte	0x217
 13831 4507 1C090000 		.4byte	0x91c
 13832 450b 02       		.uleb128 0x2
ARM GAS  C:\Users\PCHAUT~1\AppData\Local\Temp\ccJuO4y2.s 			page 244


 13833 450c 91       		.byte	0x91
 13834 450d 6C       		.sleb128 -20
 13835 450e 34       		.uleb128 0x34
 13836 450f 54000000 		.4byte	.LBB19
 13837 4513 8E000000 		.4byte	.LBE19-.LBB19
 13838 4517 35       		.uleb128 0x35
 13839 4518 69737000 		.ascii	"isp\000"
 13840 451c 07       		.byte	0x7
 13841 451d 2002     		.2byte	0x220
 13842 451f F13D0000 		.4byte	0x3df1
 13843 4523 02       		.uleb128 0x2
 13844 4524 91       		.byte	0x91
 13845 4525 70       		.sleb128 -16
 13846 4526 00       		.byte	0
 13847 4527 00       		.byte	0
 13848 4528 3B       		.uleb128 0x3b
 13849 4529 2D0F0000 		.4byte	.LASF884
 13850 452d 07       		.byte	0x7
 13851 452e E101     		.2byte	0x1e1
 13852 4530 951E0000 		.4byte	0x1e95
 13853 4534 00000000 		.4byte	.LFB269
 13854 4538 84010000 		.4byte	.LFE269-.LFB269
 13855 453c 01       		.uleb128 0x1
 13856 453d 9C       		.byte	0x9c
 13857 453e 77450000 		.4byte	0x4577
 13858 4542 36       		.uleb128 0x36
 13859 4543 A5220000 		.4byte	.LASF848
 13860 4547 07       		.byte	0x7
 13861 4548 E101     		.2byte	0x1e1
 13862 454a 1C360000 		.4byte	0x361c
 13863 454e 02       		.uleb128 0x2
 13864 454f 91       		.byte	0x91
 13865 4550 6C       		.sleb128 -20
 13866 4551 32       		.uleb128 0x32
 13867 4552 657000   		.ascii	"ep\000"
 13868 4555 07       		.byte	0x7
 13869 4556 E101     		.2byte	0x1e1
 13870 4558 D5340000 		.4byte	0x34d5
 13871 455c 02       		.uleb128 0x2
 13872 455d 91       		.byte	0x91
 13873 455e 6B       		.sleb128 -21
 13874 455f 34       		.uleb128 0x34
 13875 4560 12000000 		.4byte	.LBB18
 13876 4564 56010000 		.4byte	.LBE18-.LBB18
 13877 4568 35       		.uleb128 0x35
 13878 4569 6E00     		.ascii	"n\000"
 13879 456b 07       		.byte	0x7
 13880 456c E501     		.2byte	0x1e5
 13881 456e 1C090000 		.4byte	0x91c
 13882 4572 02       		.uleb128 0x2
 13883 4573 91       		.byte	0x91
 13884 4574 70       		.sleb128 -16
 13885 4575 00       		.byte	0
 13886 4576 00       		.byte	0
 13887 4577 39       		.uleb128 0x39
 13888 4578 7F070000 		.4byte	.LASF877
 13889 457c 07       		.byte	0x7
ARM GAS  C:\Users\PCHAUT~1\AppData\Local\Temp\ccJuO4y2.s 			page 245


 13890 457d B201     		.2byte	0x1b2
 13891 457f 00000000 		.4byte	.LFB268
 13892 4583 50010000 		.4byte	.LFE268-.LFB268
 13893 4587 01       		.uleb128 0x1
 13894 4588 9C       		.byte	0x9c
 13895 4589 C9450000 		.4byte	0x45c9
 13896 458d 36       		.uleb128 0x36
 13897 458e A5220000 		.4byte	.LASF848
 13898 4592 07       		.byte	0x7
 13899 4593 B201     		.2byte	0x1b2
 13900 4595 1C360000 		.4byte	0x361c
 13901 4599 02       		.uleb128 0x2
 13902 459a 91       		.byte	0x91
 13903 459b 64       		.sleb128 -28
 13904 459c 35       		.uleb128 0x35
 13905 459d 73747300 		.ascii	"sts\000"
 13906 45a1 07       		.byte	0x7
 13907 45a2 B301     		.2byte	0x1b3
 13908 45a4 1C090000 		.4byte	0x91c
 13909 45a8 02       		.uleb128 0x2
 13910 45a9 91       		.byte	0x91
 13911 45aa 68       		.sleb128 -24
 13912 45ab 35       		.uleb128 0x35
 13913 45ac 636E7400 		.ascii	"cnt\000"
 13914 45b0 07       		.byte	0x7
 13915 45b1 B301     		.2byte	0x1b3
 13916 45b3 1C090000 		.4byte	0x91c
 13917 45b7 02       		.uleb128 0x2
 13918 45b8 91       		.byte	0x91
 13919 45b9 6C       		.sleb128 -20
 13920 45ba 35       		.uleb128 0x35
 13921 45bb 657000   		.ascii	"ep\000"
 13922 45be 07       		.byte	0x7
 13923 45bf B301     		.2byte	0x1b3
 13924 45c1 1C090000 		.4byte	0x91c
 13925 45c5 02       		.uleb128 0x2
 13926 45c6 91       		.byte	0x91
 13927 45c7 70       		.sleb128 -16
 13928 45c8 00       		.byte	0
 13929 45c9 39       		.uleb128 0x39
 13930 45ca 071E0000 		.4byte	.LASF878
 13931 45ce 07       		.byte	0x7
 13932 45cf 7C01     		.2byte	0x17c
 13933 45d1 00000000 		.4byte	.LFB267
 13934 45d5 04010000 		.4byte	.LFE267-.LFB267
 13935 45d9 01       		.uleb128 0x1
 13936 45da 9C       		.byte	0x9c
 13937 45db 70460000 		.4byte	0x4670
 13938 45df 36       		.uleb128 0x36
 13939 45e0 71160000 		.4byte	.LASF879
 13940 45e4 07       		.byte	0x7
 13941 45e5 7C01     		.2byte	0x17c
 13942 45e7 531D0000 		.4byte	0x1d53
 13943 45eb 02       		.uleb128 0x2
 13944 45ec 91       		.byte	0x91
 13945 45ed 54       		.sleb128 -44
 13946 45ee 32       		.uleb128 0x32
ARM GAS  C:\Users\PCHAUT~1\AppData\Local\Temp\ccJuO4y2.s 			page 246


 13947 45ef 69717000 		.ascii	"iqp\000"
 13948 45f3 07       		.byte	0x7
 13949 45f4 7D01     		.2byte	0x17d
 13950 45f6 EA3C0000 		.4byte	0x3cea
 13951 45fa 02       		.uleb128 0x2
 13952 45fb 91       		.byte	0x91
 13953 45fc 50       		.sleb128 -48
 13954 45fd 32       		.uleb128 0x32
 13955 45fe 6E00     		.ascii	"n\000"
 13956 4600 07       		.byte	0x7
 13957 4601 7E01     		.2byte	0x17e
 13958 4603 2C000000 		.4byte	0x2c
 13959 4607 02       		.uleb128 0x2
 13960 4608 91       		.byte	0x91
 13961 4609 4C       		.sleb128 -52
 13962 460a 33       		.uleb128 0x33
 13963 460b B51B0000 		.4byte	.LASF880
 13964 460f 07       		.byte	0x7
 13965 4610 7F01     		.2byte	0x17f
 13966 4612 2C000000 		.4byte	0x2c
 13967 4616 02       		.uleb128 0x2
 13968 4617 91       		.byte	0x91
 13969 4618 5C       		.sleb128 -36
 13970 4619 3A       		.uleb128 0x3a
 13971 461a 18000000 		.4byte	.Ldebug_ranges0+0x18
 13972 461e 35       		.uleb128 0x35
 13973 461f 7700     		.ascii	"w\000"
 13974 4621 07       		.byte	0x7
 13975 4622 8301     		.2byte	0x183
 13976 4624 1C090000 		.4byte	0x91c
 13977 4628 02       		.uleb128 0x2
 13978 4629 91       		.byte	0x91
 13979 462a 70       		.sleb128 -16
 13980 462b 35       		.uleb128 0x35
 13981 462c 6900     		.ascii	"i\000"
 13982 462e 07       		.byte	0x7
 13983 462f 8301     		.2byte	0x183
 13984 4631 1C090000 		.4byte	0x91c
 13985 4635 02       		.uleb128 0x2
 13986 4636 91       		.byte	0x91
 13987 4637 60       		.sleb128 -32
 13988 4638 35       		.uleb128 0x35
 13989 4639 6E7700   		.ascii	"nw\000"
 13990 463c 07       		.byte	0x7
 13991 463d 8401     		.2byte	0x184
 13992 463f 2C000000 		.4byte	0x2c
 13993 4643 02       		.uleb128 0x2
 13994 4644 91       		.byte	0x91
 13995 4645 64       		.sleb128 -28
 13996 4646 34       		.uleb128 0x34
 13997 4647 22000000 		.4byte	.LBB16
 13998 464b 44000000 		.4byte	.LBE16-.LBB16
 13999 464f 33       		.uleb128 0x33
 14000 4650 16250000 		.4byte	.LASF881
 14001 4654 07       		.byte	0x7
 14002 4655 8701     		.2byte	0x187
 14003 4657 2C000000 		.4byte	0x2c
ARM GAS  C:\Users\PCHAUT~1\AppData\Local\Temp\ccJuO4y2.s 			page 247


 14004 465b 02       		.uleb128 0x2
 14005 465c 91       		.byte	0x91
 14006 465d 6C       		.sleb128 -20
 14007 465e 33       		.uleb128 0x33
 14008 465f 44220000 		.4byte	.LASF882
 14009 4663 07       		.byte	0x7
 14010 4664 8801     		.2byte	0x188
 14011 4666 1C090000 		.4byte	0x91c
 14012 466a 02       		.uleb128 0x2
 14013 466b 91       		.byte	0x91
 14014 466c 68       		.sleb128 -24
 14015 466d 00       		.byte	0
 14016 466e 00       		.byte	0
 14017 466f 00       		.byte	0
 14018 4670 39       		.uleb128 0x39
 14019 4671 36250000 		.4byte	.LASF883
 14020 4675 07       		.byte	0x7
 14021 4676 5F01     		.2byte	0x15f
 14022 4678 00000000 		.4byte	.LFB266
 14023 467c 68000000 		.4byte	.LFE266-.LFB266
 14024 4680 01       		.uleb128 0x1
 14025 4681 9C       		.byte	0x9c
 14026 4682 D8460000 		.4byte	0x46d8
 14027 4686 36       		.uleb128 0x36
 14028 4687 71160000 		.4byte	.LASF879
 14029 468b 07       		.byte	0x7
 14030 468c 5F01     		.2byte	0x15f
 14031 468e 531D0000 		.4byte	0x1d53
 14032 4692 02       		.uleb128 0x2
 14033 4693 91       		.byte	0x91
 14034 4694 6C       		.sleb128 -20
 14035 4695 32       		.uleb128 0x32
 14036 4696 62756600 		.ascii	"buf\000"
 14037 469a 07       		.byte	0x7
 14038 469b 6001     		.2byte	0x160
 14039 469d 791C0000 		.4byte	0x1c79
 14040 46a1 02       		.uleb128 0x2
 14041 46a2 91       		.byte	0x91
 14042 46a3 68       		.sleb128 -24
 14043 46a4 32       		.uleb128 0x32
 14044 46a5 6E00     		.ascii	"n\000"
 14045 46a7 07       		.byte	0x7
 14046 46a8 6101     		.2byte	0x161
 14047 46aa 2C000000 		.4byte	0x2c
 14048 46ae 02       		.uleb128 0x2
 14049 46af 91       		.byte	0x91
 14050 46b0 64       		.sleb128 -28
 14051 46b1 32       		.uleb128 0x32
 14052 46b2 6D617800 		.ascii	"max\000"
 14053 46b6 07       		.byte	0x7
 14054 46b7 6201     		.2byte	0x162
 14055 46b9 2C000000 		.4byte	0x2c
 14056 46bd 02       		.uleb128 0x2
 14057 46be 91       		.byte	0x91
 14058 46bf 60       		.sleb128 -32
 14059 46c0 34       		.uleb128 0x34
 14060 46c1 24000000 		.4byte	.LBB14
ARM GAS  C:\Users\PCHAUT~1\AppData\Local\Temp\ccJuO4y2.s 			page 248


 14061 46c5 24000000 		.4byte	.LBE14-.LBB14
 14062 46c9 35       		.uleb128 0x35
 14063 46ca 7700     		.ascii	"w\000"
 14064 46cc 07       		.byte	0x7
 14065 46cd 6701     		.2byte	0x167
 14066 46cf 1C090000 		.4byte	0x91c
 14067 46d3 02       		.uleb128 0x2
 14068 46d4 91       		.byte	0x91
 14069 46d5 70       		.sleb128 -16
 14070 46d6 00       		.byte	0
 14071 46d7 00       		.byte	0
 14072 46d8 3B       		.uleb128 0x3b
 14073 46d9 C00B0000 		.4byte	.LASF885
 14074 46dd 07       		.byte	0x7
 14075 46de 4801     		.2byte	0x148
 14076 46e0 791C0000 		.4byte	0x1c79
 14077 46e4 00000000 		.4byte	.LFB265
 14078 46e8 4C000000 		.4byte	.LFE265-.LFB265
 14079 46ec 01       		.uleb128 0x1
 14080 46ed 9C       		.byte	0x9c
 14081 46ee 35470000 		.4byte	0x4735
 14082 46f2 36       		.uleb128 0x36
 14083 46f3 71160000 		.4byte	.LASF879
 14084 46f7 07       		.byte	0x7
 14085 46f8 4801     		.2byte	0x148
 14086 46fa 531D0000 		.4byte	0x1d53
 14087 46fe 02       		.uleb128 0x2
 14088 46ff 91       		.byte	0x91
 14089 4700 6C       		.sleb128 -20
 14090 4701 32       		.uleb128 0x32
 14091 4702 62756600 		.ascii	"buf\000"
 14092 4706 07       		.byte	0x7
 14093 4707 4801     		.2byte	0x148
 14094 4709 791C0000 		.4byte	0x1c79
 14095 470d 02       		.uleb128 0x2
 14096 470e 91       		.byte	0x91
 14097 470f 68       		.sleb128 -24
 14098 4710 32       		.uleb128 0x32
 14099 4711 6E00     		.ascii	"n\000"
 14100 4713 07       		.byte	0x7
 14101 4714 4801     		.2byte	0x148
 14102 4716 2C000000 		.4byte	0x2c
 14103 471a 02       		.uleb128 0x2
 14104 471b 91       		.byte	0x91
 14105 471c 64       		.sleb128 -28
 14106 471d 34       		.uleb128 0x34
 14107 471e 12000000 		.4byte	.LBB13
 14108 4722 18000000 		.4byte	.LBE13-.LBB13
 14109 4726 35       		.uleb128 0x35
 14110 4727 7700     		.ascii	"w\000"
 14111 4729 07       		.byte	0x7
 14112 472a 4B01     		.2byte	0x14b
 14113 472c 1C090000 		.4byte	0x91c
 14114 4730 02       		.uleb128 0x2
 14115 4731 91       		.byte	0x91
 14116 4732 70       		.sleb128 -16
 14117 4733 00       		.byte	0
ARM GAS  C:\Users\PCHAUT~1\AppData\Local\Temp\ccJuO4y2.s 			page 249


 14118 4734 00       		.byte	0
 14119 4735 39       		.uleb128 0x39
 14120 4736 FB210000 		.4byte	.LASF886
 14121 473a 07       		.byte	0x7
 14122 473b 0C01     		.2byte	0x10c
 14123 473d 00000000 		.4byte	.LFB264
 14124 4741 1C010000 		.4byte	.LFE264-.LFB264
 14125 4745 01       		.uleb128 0x1
 14126 4746 9C       		.byte	0x9c
 14127 4747 DC470000 		.4byte	0x47dc
 14128 474b 36       		.uleb128 0x36
 14129 474c 71160000 		.4byte	.LASF879
 14130 4750 07       		.byte	0x7
 14131 4751 0C01     		.2byte	0x10c
 14132 4753 531D0000 		.4byte	0x1d53
 14133 4757 02       		.uleb128 0x2
 14134 4758 91       		.byte	0x91
 14135 4759 54       		.sleb128 -44
 14136 475a 32       		.uleb128 0x32
 14137 475b 6F717000 		.ascii	"oqp\000"
 14138 475f 07       		.byte	0x7
 14139 4760 0D01     		.2byte	0x10d
 14140 4762 473C0000 		.4byte	0x3c47
 14141 4766 02       		.uleb128 0x2
 14142 4767 91       		.byte	0x91
 14143 4768 50       		.sleb128 -48
 14144 4769 32       		.uleb128 0x32
 14145 476a 6E00     		.ascii	"n\000"
 14146 476c 07       		.byte	0x7
 14147 476d 0E01     		.2byte	0x10e
 14148 476f 2C000000 		.4byte	0x2c
 14149 4773 02       		.uleb128 0x2
 14150 4774 91       		.byte	0x91
 14151 4775 4C       		.sleb128 -52
 14152 4776 33       		.uleb128 0x33
 14153 4777 B51B0000 		.4byte	.LASF880
 14154 477b 07       		.byte	0x7
 14155 477c 0F01     		.2byte	0x10f
 14156 477e 2C000000 		.4byte	0x2c
 14157 4782 02       		.uleb128 0x2
 14158 4783 91       		.byte	0x91
 14159 4784 5C       		.sleb128 -36
 14160 4785 3A       		.uleb128 0x3a
 14161 4786 00000000 		.4byte	.Ldebug_ranges0+0
 14162 478a 35       		.uleb128 0x35
 14163 478b 7700     		.ascii	"w\000"
 14164 478d 07       		.byte	0x7
 14165 478e 1301     		.2byte	0x113
 14166 4790 1C090000 		.4byte	0x91c
 14167 4794 02       		.uleb128 0x2
 14168 4795 91       		.byte	0x91
 14169 4796 60       		.sleb128 -32
 14170 4797 35       		.uleb128 0x35
 14171 4798 6900     		.ascii	"i\000"
 14172 479a 07       		.byte	0x7
 14173 479b 1301     		.2byte	0x113
 14174 479d 1C090000 		.4byte	0x91c
ARM GAS  C:\Users\PCHAUT~1\AppData\Local\Temp\ccJuO4y2.s 			page 250


 14175 47a1 02       		.uleb128 0x2
 14176 47a2 91       		.byte	0x91
 14177 47a3 64       		.sleb128 -28
 14178 47a4 35       		.uleb128 0x35
 14179 47a5 6E7700   		.ascii	"nw\000"
 14180 47a8 07       		.byte	0x7
 14181 47a9 1401     		.2byte	0x114
 14182 47ab 2C000000 		.4byte	0x2c
 14183 47af 02       		.uleb128 0x2
 14184 47b0 91       		.byte	0x91
 14185 47b1 68       		.sleb128 -24
 14186 47b2 34       		.uleb128 0x34
 14187 47b3 22000000 		.4byte	.LBB11
 14188 47b7 56000000 		.4byte	.LBE11-.LBB11
 14189 47bb 33       		.uleb128 0x33
 14190 47bc 16250000 		.4byte	.LASF881
 14191 47c0 07       		.byte	0x7
 14192 47c1 1701     		.2byte	0x117
 14193 47c3 2C000000 		.4byte	0x2c
 14194 47c7 02       		.uleb128 0x2
 14195 47c8 91       		.byte	0x91
 14196 47c9 70       		.sleb128 -16
 14197 47ca 33       		.uleb128 0x33
 14198 47cb 44220000 		.4byte	.LASF882
 14199 47cf 07       		.byte	0x7
 14200 47d0 1801     		.2byte	0x118
 14201 47d2 1C090000 		.4byte	0x91c
 14202 47d6 02       		.uleb128 0x2
 14203 47d7 91       		.byte	0x91
 14204 47d8 6C       		.sleb128 -20
 14205 47d9 00       		.byte	0
 14206 47da 00       		.byte	0
 14207 47db 00       		.byte	0
 14208 47dc 3C       		.uleb128 0x3c
 14209 47dd 4E040000 		.4byte	.LASF887
 14210 47e1 07       		.byte	0x7
 14211 47e2 FC       		.byte	0xfc
 14212 47e3 00000000 		.4byte	.LFB263
 14213 47e7 3C000000 		.4byte	.LFE263-.LFB263
 14214 47eb 01       		.uleb128 0x1
 14215 47ec 9C       		.byte	0x9c
 14216 47ed 1A480000 		.4byte	0x481a
 14217 47f1 3D       		.uleb128 0x3d
 14218 47f2 71160000 		.4byte	.LASF879
 14219 47f6 07       		.byte	0x7
 14220 47f7 FC       		.byte	0xfc
 14221 47f8 531D0000 		.4byte	0x1d53
 14222 47fc 02       		.uleb128 0x2
 14223 47fd 91       		.byte	0x91
 14224 47fe 6C       		.sleb128 -20
 14225 47ff 3E       		.uleb128 0x3e
 14226 4800 62756600 		.ascii	"buf\000"
 14227 4804 07       		.byte	0x7
 14228 4805 FD       		.byte	0xfd
 14229 4806 AE1C0000 		.4byte	0x1cae
 14230 480a 02       		.uleb128 0x2
 14231 480b 91       		.byte	0x91
ARM GAS  C:\Users\PCHAUT~1\AppData\Local\Temp\ccJuO4y2.s 			page 251


 14232 480c 68       		.sleb128 -24
 14233 480d 3E       		.uleb128 0x3e
 14234 480e 6E00     		.ascii	"n\000"
 14235 4810 07       		.byte	0x7
 14236 4811 FE       		.byte	0xfe
 14237 4812 2C000000 		.4byte	0x2c
 14238 4816 02       		.uleb128 0x2
 14239 4817 91       		.byte	0x91
 14240 4818 64       		.sleb128 -28
 14241 4819 00       		.byte	0
 14242 481a 3F       		.uleb128 0x3f
 14243 481b 08180000 		.4byte	.LASF888
 14244 481f 07       		.byte	0x7
 14245 4820 E7       		.byte	0xe7
 14246 4821 791C0000 		.4byte	0x1c79
 14247 4825 00000000 		.4byte	.LFB262
 14248 4829 48000000 		.4byte	.LFE262-.LFB262
 14249 482d 01       		.uleb128 0x1
 14250 482e 9C       		.byte	0x9c
 14251 482f 5C480000 		.4byte	0x485c
 14252 4833 3D       		.uleb128 0x3d
 14253 4834 71160000 		.4byte	.LASF879
 14254 4838 07       		.byte	0x7
 14255 4839 E7       		.byte	0xe7
 14256 483a 531D0000 		.4byte	0x1d53
 14257 483e 02       		.uleb128 0x2
 14258 483f 91       		.byte	0x91
 14259 4840 6C       		.sleb128 -20
 14260 4841 3E       		.uleb128 0x3e
 14261 4842 62756600 		.ascii	"buf\000"
 14262 4846 07       		.byte	0x7
 14263 4847 E7       		.byte	0xe7
 14264 4848 791C0000 		.4byte	0x1c79
 14265 484c 02       		.uleb128 0x2
 14266 484d 91       		.byte	0x91
 14267 484e 68       		.sleb128 -24
 14268 484f 3E       		.uleb128 0x3e
 14269 4850 6E00     		.ascii	"n\000"
 14270 4852 07       		.byte	0x7
 14271 4853 E7       		.byte	0xe7
 14272 4854 2C000000 		.4byte	0x2c
 14273 4858 02       		.uleb128 0x2
 14274 4859 91       		.byte	0x91
 14275 485a 64       		.sleb128 -28
 14276 485b 00       		.byte	0
 14277 485c 3F       		.uleb128 0x3f
 14278 485d 17100000 		.4byte	.LASF889
 14279 4861 07       		.byte	0x7
 14280 4862 D1       		.byte	0xd1
 14281 4863 1C090000 		.4byte	0x91c
 14282 4867 00000000 		.4byte	.LFB261
 14283 486b 54000000 		.4byte	.LFE261-.LFB261
 14284 486f 01       		.uleb128 0x1
 14285 4870 9C       		.byte	0x9c
 14286 4871 AF480000 		.4byte	0x48af
 14287 4875 3D       		.uleb128 0x3d
 14288 4876 A5220000 		.4byte	.LASF848
ARM GAS  C:\Users\PCHAUT~1\AppData\Local\Temp\ccJuO4y2.s 			page 252


 14289 487a 07       		.byte	0x7
 14290 487b D1       		.byte	0xd1
 14291 487c 1C360000 		.4byte	0x361c
 14292 4880 02       		.uleb128 0x2
 14293 4881 91       		.byte	0x91
 14294 4882 6C       		.sleb128 -20
 14295 4883 3D       		.uleb128 0x3d
 14296 4884 F60D0000 		.4byte	.LASF612
 14297 4888 07       		.byte	0x7
 14298 4889 D1       		.byte	0xd1
 14299 488a 2C000000 		.4byte	0x2c
 14300 488e 02       		.uleb128 0x2
 14301 488f 91       		.byte	0x91
 14302 4890 68       		.sleb128 -24
 14303 4891 30       		.uleb128 0x30
 14304 4892 28020000 		.4byte	.LASF890
 14305 4896 07       		.byte	0x7
 14306 4897 D2       		.byte	0xd2
 14307 4898 1C090000 		.4byte	0x91c
 14308 489c 02       		.uleb128 0x2
 14309 489d 91       		.byte	0x91
 14310 489e 70       		.sleb128 -16
 14311 489f 40       		.uleb128 0x40
 14312 48a0 45000000 		.4byte	.LASF910
 14313 48a4 BF480000 		.4byte	0x48bf
 14314 48a8 05       		.uleb128 0x5
 14315 48a9 03       		.byte	0x3
 14316 48aa 00000000 		.4byte	__func__.10294
 14317 48ae 00       		.byte	0
 14318 48af 0A       		.uleb128 0xa
 14319 48b0 6C010000 		.4byte	0x16c
 14320 48b4 BF480000 		.4byte	0x48bf
 14321 48b8 0B       		.uleb128 0xb
 14322 48b9 37000000 		.4byte	0x37
 14323 48bd 0D       		.byte	0xd
 14324 48be 00       		.byte	0
 14325 48bf 0F       		.uleb128 0xf
 14326 48c0 AF480000 		.4byte	0x48af
 14327 48c4 3C       		.uleb128 0x3c
 14328 48c5 CE200000 		.4byte	.LASF891
 14329 48c9 07       		.byte	0x7
 14330 48ca C4       		.byte	0xc4
 14331 48cb 00000000 		.4byte	.LFB260
 14332 48cf 30000000 		.4byte	.LFE260-.LFB260
 14333 48d3 01       		.uleb128 0x1
 14334 48d4 9C       		.byte	0x9c
 14335 48d5 E8480000 		.4byte	0x48e8
 14336 48d9 3D       		.uleb128 0x3d
 14337 48da A5220000 		.4byte	.LASF848
 14338 48de 07       		.byte	0x7
 14339 48df C4       		.byte	0xc4
 14340 48e0 1C360000 		.4byte	0x361c
 14341 48e4 02       		.uleb128 0x2
 14342 48e5 91       		.byte	0x91
 14343 48e6 6C       		.sleb128 -20
 14344 48e7 00       		.byte	0
 14345 48e8 3C       		.uleb128 0x3c
ARM GAS  C:\Users\PCHAUT~1\AppData\Local\Temp\ccJuO4y2.s 			page 253


 14346 48e9 FE120000 		.4byte	.LASF892
 14347 48ed 07       		.byte	0x7
 14348 48ee B3       		.byte	0xb3
 14349 48ef 00000000 		.4byte	.LFB259
 14350 48f3 50000000 		.4byte	.LFE259-.LFB259
 14351 48f7 01       		.uleb128 0x1
 14352 48f8 9C       		.byte	0x9c
 14353 48f9 28490000 		.4byte	0x4928
 14354 48fd 3D       		.uleb128 0x3d
 14355 48fe A5220000 		.4byte	.LASF848
 14356 4902 07       		.byte	0x7
 14357 4903 B3       		.byte	0xb3
 14358 4904 1C360000 		.4byte	0x361c
 14359 4908 02       		.uleb128 0x2
 14360 4909 91       		.byte	0x91
 14361 490a 6C       		.sleb128 -20
 14362 490b 3D       		.uleb128 0x3d
 14363 490c E70C0000 		.4byte	.LASF893
 14364 4910 07       		.byte	0x7
 14365 4911 B3       		.byte	0xb3
 14366 4912 1C090000 		.4byte	0x91c
 14367 4916 02       		.uleb128 0x2
 14368 4917 91       		.byte	0x91
 14369 4918 68       		.sleb128 -24
 14370 4919 30       		.uleb128 0x30
 14371 491a 0D1C0000 		.4byte	.LASF849
 14372 491e 07       		.byte	0x7
 14373 491f B4       		.byte	0xb4
 14374 4920 893E0000 		.4byte	0x3e89
 14375 4924 02       		.uleb128 0x2
 14376 4925 91       		.byte	0x91
 14377 4926 70       		.sleb128 -16
 14378 4927 00       		.byte	0
 14379 4928 3C       		.uleb128 0x3c
 14380 4929 34230000 		.4byte	.LASF894
 14381 492d 07       		.byte	0x7
 14382 492e A9       		.byte	0xa9
 14383 492f 00000000 		.4byte	.LFB258
 14384 4933 48000000 		.4byte	.LFE258-.LFB258
 14385 4937 01       		.uleb128 0x1
 14386 4938 9C       		.byte	0x9c
 14387 4939 5A490000 		.4byte	0x495a
 14388 493d 3D       		.uleb128 0x3d
 14389 493e A5220000 		.4byte	.LASF848
 14390 4942 07       		.byte	0x7
 14391 4943 A9       		.byte	0xa9
 14392 4944 1C360000 		.4byte	0x361c
 14393 4948 02       		.uleb128 0x2
 14394 4949 91       		.byte	0x91
 14395 494a 6C       		.sleb128 -20
 14396 494b 30       		.uleb128 0x30
 14397 494c 0D1C0000 		.4byte	.LASF849
 14398 4950 07       		.byte	0x7
 14399 4951 AA       		.byte	0xaa
 14400 4952 893E0000 		.4byte	0x3e89
 14401 4956 02       		.uleb128 0x2
 14402 4957 91       		.byte	0x91
ARM GAS  C:\Users\PCHAUT~1\AppData\Local\Temp\ccJuO4y2.s 			page 254


 14403 4958 70       		.sleb128 -16
 14404 4959 00       		.byte	0
 14405 495a 3C       		.uleb128 0x3c
 14406 495b 361B0000 		.4byte	.LASF895
 14407 495f 07       		.byte	0x7
 14408 4960 84       		.byte	0x84
 14409 4961 00000000 		.4byte	.LFB257
 14410 4965 24010000 		.4byte	.LFE257-.LFB257
 14411 4969 01       		.uleb128 0x1
 14412 496a 9C       		.byte	0x9c
 14413 496b 98490000 		.4byte	0x4998
 14414 496f 3D       		.uleb128 0x3d
 14415 4970 A5220000 		.4byte	.LASF848
 14416 4974 07       		.byte	0x7
 14417 4975 84       		.byte	0x84
 14418 4976 1C360000 		.4byte	0x361c
 14419 497a 02       		.uleb128 0x2
 14420 497b 91       		.byte	0x91
 14421 497c 64       		.sleb128 -28
 14422 497d 30       		.uleb128 0x30
 14423 497e 0D1C0000 		.4byte	.LASF849
 14424 4982 07       		.byte	0x7
 14425 4983 85       		.byte	0x85
 14426 4984 893E0000 		.4byte	0x3e89
 14427 4988 02       		.uleb128 0x2
 14428 4989 91       		.byte	0x91
 14429 498a 70       		.sleb128 -16
 14430 498b 41       		.uleb128 0x41
 14431 498c 6900     		.ascii	"i\000"
 14432 498e 07       		.byte	0x7
 14433 498f 86       		.byte	0x86
 14434 4990 37000000 		.4byte	0x37
 14435 4994 02       		.uleb128 0x2
 14436 4995 91       		.byte	0x91
 14437 4996 6C       		.sleb128 -20
 14438 4997 00       		.byte	0
 14439 4998 3C       		.uleb128 0x3c
 14440 4999 A00C0000 		.4byte	.LASF896
 14441 499d 07       		.byte	0x7
 14442 499e 73       		.byte	0x73
 14443 499f 00000000 		.4byte	.LFB256
 14444 49a3 58000000 		.4byte	.LFE256-.LFB256
 14445 49a7 01       		.uleb128 0x1
 14446 49a8 9C       		.byte	0x9c
 14447 49a9 CA490000 		.4byte	0x49ca
 14448 49ad 3D       		.uleb128 0x3d
 14449 49ae A5220000 		.4byte	.LASF848
 14450 49b2 07       		.byte	0x7
 14451 49b3 73       		.byte	0x73
 14452 49b4 1C360000 		.4byte	0x361c
 14453 49b8 02       		.uleb128 0x2
 14454 49b9 91       		.byte	0x91
 14455 49ba 6C       		.sleb128 -20
 14456 49bb 30       		.uleb128 0x30
 14457 49bc 0D1C0000 		.4byte	.LASF849
 14458 49c0 07       		.byte	0x7
 14459 49c1 74       		.byte	0x74
ARM GAS  C:\Users\PCHAUT~1\AppData\Local\Temp\ccJuO4y2.s 			page 255


 14460 49c2 893E0000 		.4byte	0x3e89
 14461 49c6 02       		.uleb128 0x2
 14462 49c7 91       		.byte	0x91
 14463 49c8 70       		.sleb128 -16
 14464 49c9 00       		.byte	0
 14465 49ca 39       		.uleb128 0x39
 14466 49cb 1B120000 		.4byte	.LASF897
 14467 49cf 06       		.byte	0x6
 14468 49d0 FA02     		.2byte	0x2fa
 14469 49d2 00000000 		.4byte	.LFB243
 14470 49d6 30000000 		.4byte	.LFE243-.LFB243
 14471 49da 01       		.uleb128 0x1
 14472 49db 9C       		.byte	0x9c
 14473 49dc FF490000 		.4byte	0x49ff
 14474 49e0 32       		.uleb128 0x32
 14475 49e1 74717000 		.ascii	"tqp\000"
 14476 49e5 06       		.byte	0x6
 14477 49e6 FA02     		.2byte	0x2fa
 14478 49e8 FF490000 		.4byte	0x49ff
 14479 49ec 02       		.uleb128 0x2
 14480 49ed 91       		.byte	0x91
 14481 49ee 6C       		.sleb128 -20
 14482 49ef 32       		.uleb128 0x32
 14483 49f0 6D736700 		.ascii	"msg\000"
 14484 49f4 06       		.byte	0x6
 14485 49f5 FA02     		.2byte	0x2fa
 14486 49f7 89090000 		.4byte	0x989
 14487 49fb 02       		.uleb128 0x2
 14488 49fc 91       		.byte	0x91
 14489 49fd 68       		.sleb128 -24
 14490 49fe 00       		.byte	0
 14491 49ff 05       		.uleb128 0x5
 14492 4a00 04       		.byte	0x4
 14493 4a01 2E0B0000 		.4byte	0xb2e
 14494 4a05 39       		.uleb128 0x39
 14495 4a06 08040000 		.4byte	.LASF898
 14496 4a0a 06       		.byte	0x6
 14497 4a0b A802     		.2byte	0x2a8
 14498 4a0d 00000000 		.4byte	.LFB238
 14499 4a11 30000000 		.4byte	.LFE238-.LFB238
 14500 4a15 01       		.uleb128 0x1
 14501 4a16 9C       		.byte	0x9c
 14502 4a17 3A4A0000 		.4byte	0x4a3a
 14503 4a1b 32       		.uleb128 0x32
 14504 4a1c 74727000 		.ascii	"trp\000"
 14505 4a20 06       		.byte	0x6
 14506 4a21 A802     		.2byte	0x2a8
 14507 4a23 A9190000 		.4byte	0x19a9
 14508 4a27 02       		.uleb128 0x2
 14509 4a28 91       		.byte	0x91
 14510 4a29 6C       		.sleb128 -20
 14511 4a2a 32       		.uleb128 0x32
 14512 4a2b 6D736700 		.ascii	"msg\000"
 14513 4a2f 06       		.byte	0x6
 14514 4a30 A802     		.2byte	0x2a8
 14515 4a32 89090000 		.4byte	0x989
 14516 4a36 02       		.uleb128 0x2
ARM GAS  C:\Users\PCHAUT~1\AppData\Local\Temp\ccJuO4y2.s 			page 256


 14517 4a37 91       		.byte	0x91
 14518 4a38 68       		.sleb128 -24
 14519 4a39 00       		.byte	0
 14520 4a3a 3B       		.uleb128 0x3b
 14521 4a3b 840F0000 		.4byte	.LASF899
 14522 4a3f 06       		.byte	0x6
 14523 4a40 8002     		.2byte	0x280
 14524 4a42 89090000 		.4byte	0x989
 14525 4a46 00000000 		.4byte	.LFB236
 14526 4a4a 30000000 		.4byte	.LFE236-.LFB236
 14527 4a4e 01       		.uleb128 0x1
 14528 4a4f 9C       		.byte	0x9c
 14529 4a50 644A0000 		.4byte	0x4a64
 14530 4a54 32       		.uleb128 0x32
 14531 4a55 74727000 		.ascii	"trp\000"
 14532 4a59 06       		.byte	0x6
 14533 4a5a 8002     		.2byte	0x280
 14534 4a5c A9190000 		.4byte	0x19a9
 14535 4a60 02       		.uleb128 0x2
 14536 4a61 91       		.byte	0x91
 14537 4a62 6C       		.sleb128 -20
 14538 4a63 00       		.byte	0
 14539 4a64 42       		.uleb128 0x42
 14540 4a65 001F0000 		.4byte	.LASF902
 14541 4a69 06       		.byte	0x6
 14542 4a6a 2802     		.2byte	0x228
 14543 4a6c 00000000 		.4byte	.LFB231
 14544 4a70 28000000 		.4byte	.LFE231-.LFB231
 14545 4a74 01       		.uleb128 0x1
 14546 4a75 9C       		.byte	0x9c
 14547 4a76 39       		.uleb128 0x39
 14548 4a77 79240000 		.4byte	.LASF900
 14549 4a7b 06       		.byte	0x6
 14550 4a7c 0D02     		.2byte	0x20d
 14551 4a7e 00000000 		.4byte	.LFB229
 14552 4a82 2C000000 		.4byte	.LFE229-.LFB229
 14553 4a86 01       		.uleb128 0x1
 14554 4a87 9C       		.byte	0x9c
 14555 4a88 9C4A0000 		.4byte	0x4a9c
 14556 4a8c 36       		.uleb128 0x36
 14557 4a8d D6020000 		.4byte	.LASF901
 14558 4a91 06       		.byte	0x6
 14559 4a92 0D02     		.2byte	0x20d
 14560 4a94 3C090000 		.4byte	0x93c
 14561 4a98 02       		.uleb128 0x2
 14562 4a99 91       		.byte	0x91
 14563 4a9a 6C       		.sleb128 -20
 14564 4a9b 00       		.byte	0
 14565 4a9c 42       		.uleb128 0x42
 14566 4a9d 32060000 		.4byte	.LASF903
 14567 4aa1 06       		.byte	0x6
 14568 4aa2 DE01     		.2byte	0x1de
 14569 4aa4 00000000 		.4byte	.LFB226
 14570 4aa8 28000000 		.4byte	.LFE226-.LFB226
 14571 4aac 01       		.uleb128 0x1
 14572 4aad 9C       		.byte	0x9c
 14573 4aae 42       		.uleb128 0x42
ARM GAS  C:\Users\PCHAUT~1\AppData\Local\Temp\ccJuO4y2.s 			page 257


 14574 4aaf F7160000 		.4byte	.LASF904
 14575 4ab3 06       		.byte	0x6
 14576 4ab4 D301     		.2byte	0x1d3
 14577 4ab6 00000000 		.4byte	.LFB225
 14578 4aba 28000000 		.4byte	.LFE225-.LFB225
 14579 4abe 01       		.uleb128 0x1
 14580 4abf 9C       		.byte	0x9c
 14581 4ac0 42       		.uleb128 0x42
 14582 4ac1 3A010000 		.4byte	.LASF905
 14583 4ac5 06       		.byte	0x6
 14584 4ac6 C801     		.2byte	0x1c8
 14585 4ac8 00000000 		.4byte	.LFB224
 14586 4acc 28000000 		.4byte	.LFE224-.LFB224
 14587 4ad0 01       		.uleb128 0x1
 14588 4ad1 9C       		.byte	0x9c
 14589 4ad2 42       		.uleb128 0x42
 14590 4ad3 7E1C0000 		.4byte	.LASF906
 14591 4ad7 06       		.byte	0x6
 14592 4ad8 BD01     		.2byte	0x1bd
 14593 4ada 00000000 		.4byte	.LFB223
 14594 4ade 28000000 		.4byte	.LFE223-.LFB223
 14595 4ae2 01       		.uleb128 0x1
 14596 4ae3 9C       		.byte	0x9c
 14597 4ae4 3C       		.uleb128 0x3c
 14598 4ae5 4D200000 		.4byte	.LASF907
 14599 4ae9 05       		.byte	0x5
 14600 4aea 84       		.byte	0x84
 14601 4aeb 00000000 		.4byte	.LFB176
 14602 4aef 34000000 		.4byte	.LFE176-.LFB176
 14603 4af3 01       		.uleb128 0x1
 14604 4af4 9C       		.byte	0x9c
 14605 4af5 084B0000 		.4byte	0x4b08
 14606 4af9 3D       		.uleb128 0x3d
 14607 4afa 20220000 		.4byte	.LASF908
 14608 4afe 05       		.byte	0x5
 14609 4aff 84       		.byte	0x84
 14610 4b00 DD050000 		.4byte	0x5dd
 14611 4b04 02       		.uleb128 0x2
 14612 4b05 91       		.byte	0x91
 14613 4b06 6C       		.sleb128 -20
 14614 4b07 00       		.byte	0
 14615 4b08 3F       		.uleb128 0x3f
 14616 4b09 9C0F0000 		.4byte	.LASF909
 14617 4b0d 04       		.byte	0x4
 14618 4b0e F5       		.byte	0xf5
 14619 4b0f 040B0000 		.4byte	0xb04
 14620 4b13 00000000 		.4byte	.LFB171
 14621 4b17 44000000 		.4byte	.LFE171-.LFB171
 14622 4b1b 01       		.uleb128 0x1
 14623 4b1c 9C       		.byte	0x9c
 14624 4b1d 3E4B0000 		.4byte	0x4b3e
 14625 4b21 3E       		.uleb128 0x3e
 14626 4b22 747000   		.ascii	"tp\000"
 14627 4b25 04       		.byte	0x4
 14628 4b26 F5       		.byte	0xf5
 14629 4b27 040B0000 		.4byte	0xb04
 14630 4b2b 02       		.uleb128 0x2
ARM GAS  C:\Users\PCHAUT~1\AppData\Local\Temp\ccJuO4y2.s 			page 258


 14631 4b2c 91       		.byte	0x91
 14632 4b2d 6C       		.sleb128 -20
 14633 4b2e 40       		.uleb128 0x40
 14634 4b2f 45000000 		.4byte	.LASF910
 14635 4b33 4E4B0000 		.4byte	0x4b4e
 14636 4b37 05       		.uleb128 0x5
 14637 4b38 03       		.byte	0x3
 14638 4b39 00000000 		.4byte	__func__.7721
 14639 4b3d 00       		.byte	0
 14640 4b3e 0A       		.uleb128 0xa
 14641 4b3f 6C010000 		.4byte	0x16c
 14642 4b43 4E4B0000 		.4byte	0x4b4e
 14643 4b47 0B       		.uleb128 0xb
 14644 4b48 37000000 		.4byte	0x37
 14645 4b4c 0B       		.byte	0xb
 14646 4b4d 00       		.byte	0
 14647 4b4e 0F       		.uleb128 0xf
 14648 4b4f 3E4B0000 		.4byte	0x4b3e
 14649 4b53 42       		.uleb128 0x42
 14650 4b54 DA1A0000 		.4byte	.LASF911
 14651 4b58 03       		.byte	0x3
 14652 4b59 9601     		.2byte	0x196
 14653 4b5b 00000000 		.4byte	.LFB148
 14654 4b5f 30000000 		.4byte	.LFE148-.LFB148
 14655 4b63 01       		.uleb128 0x1
 14656 4b64 9C       		.byte	0x9c
 14657 4b65 42       		.uleb128 0x42
 14658 4b66 FC220000 		.4byte	.LASF912
 14659 4b6a 03       		.byte	0x3
 14660 4b6b 8201     		.2byte	0x182
 14661 4b6d 00000000 		.4byte	.LFB147
 14662 4b71 30000000 		.4byte	.LFE147-.LFB147
 14663 4b75 01       		.uleb128 0x1
 14664 4b76 9C       		.byte	0x9c
 14665 4b77 39       		.uleb128 0x39
 14666 4b78 66200000 		.4byte	.LASF913
 14667 4b7c 03       		.byte	0x3
 14668 4b7d 6601     		.2byte	0x166
 14669 4b7f 00000000 		.4byte	.LFB146
 14670 4b83 58000000 		.4byte	.LFE146-.LFB146
 14671 4b87 01       		.uleb128 0x1
 14672 4b88 9C       		.byte	0x9c
 14673 4b89 9D4B0000 		.4byte	0x4b9d
 14674 4b8d 40       		.uleb128 0x40
 14675 4b8e 45000000 		.4byte	.LASF910
 14676 4b92 4E4B0000 		.4byte	0x4b4e
 14677 4b96 05       		.uleb128 0x5
 14678 4b97 03       		.byte	0x3
 14679 4b98 00000000 		.4byte	__func__.7554
 14680 4b9c 00       		.byte	0
 14681 4b9d 42       		.uleb128 0x42
 14682 4b9e 50180000 		.4byte	.LASF914
 14683 4ba2 03       		.byte	0x3
 14684 4ba3 5A01     		.2byte	0x15a
 14685 4ba5 00000000 		.4byte	.LFB145
 14686 4ba9 30000000 		.4byte	.LFE145-.LFB145
 14687 4bad 01       		.uleb128 0x1
ARM GAS  C:\Users\PCHAUT~1\AppData\Local\Temp\ccJuO4y2.s 			page 259


 14688 4bae 9C       		.byte	0x9c
 14689 4baf 42       		.uleb128 0x42
 14690 4bb0 78000000 		.4byte	.LASF915
 14691 4bb4 01       		.byte	0x1
 14692 4bb5 E401     		.2byte	0x1e4
 14693 4bb7 00000000 		.4byte	.LFB119
 14694 4bbb 28000000 		.4byte	.LFE119-.LFB119
 14695 4bbf 01       		.uleb128 0x1
 14696 4bc0 9C       		.byte	0x9c
 14697 4bc1 42       		.uleb128 0x42
 14698 4bc2 8F140000 		.4byte	.LASF916
 14699 4bc6 01       		.byte	0x1
 14700 4bc7 D901     		.2byte	0x1d9
 14701 4bc9 00000000 		.4byte	.LFB118
 14702 4bcd 28000000 		.4byte	.LFE118-.LFB118
 14703 4bd1 01       		.uleb128 0x1
 14704 4bd2 9C       		.byte	0x9c
 14705 4bd3 39       		.uleb128 0x39
 14706 4bd4 1D180000 		.4byte	.LASF917
 14707 4bd8 01       		.byte	0x1
 14708 4bd9 CA01     		.2byte	0x1ca
 14709 4bdb 00000000 		.4byte	.LFB117
 14710 4bdf 30000000 		.4byte	.LFE117-.LFB117
 14711 4be3 01       		.uleb128 0x1
 14712 4be4 9C       		.byte	0x9c
 14713 4be5 034C0000 		.4byte	0x4c03
 14714 4be9 43       		.uleb128 0x43
 14715 4bea 334C0000 		.4byte	0x4c33
 14716 4bee 0E000000 		.4byte	.LBB8
 14717 4bf2 06000000 		.4byte	.LBE8-.LBB8
 14718 4bf6 01       		.byte	0x1
 14719 4bf7 CD01     		.2byte	0x1cd
 14720 4bf9 44       		.uleb128 0x44
 14721 4bfa 3C4C0000 		.4byte	0x4c3c
 14722 4bfe 02       		.uleb128 0x2
 14723 4bff 91       		.byte	0x91
 14724 4c00 70       		.sleb128 -16
 14725 4c01 00       		.byte	0
 14726 4c02 00       		.byte	0
 14727 4c03 39       		.uleb128 0x39
 14728 4c04 B2190000 		.4byte	.LASF918
 14729 4c08 01       		.byte	0x1
 14730 4c09 BC01     		.2byte	0x1bc
 14731 4c0b 00000000 		.4byte	.LFB116
 14732 4c0f 30000000 		.4byte	.LFE116-.LFB116
 14733 4c13 01       		.uleb128 0x1
 14734 4c14 9C       		.byte	0x9c
 14735 4c15 334C0000 		.4byte	0x4c33
 14736 4c19 43       		.uleb128 0x43
 14737 4c1a 334C0000 		.4byte	0x4c33
 14738 4c1e 0E000000 		.4byte	.LBB6
 14739 4c22 06000000 		.4byte	.LBE6-.LBB6
 14740 4c26 01       		.byte	0x1
 14741 4c27 BF01     		.2byte	0x1bf
 14742 4c29 44       		.uleb128 0x44
 14743 4c2a 3C4C0000 		.4byte	0x4c3c
 14744 4c2e 02       		.uleb128 0x2
ARM GAS  C:\Users\PCHAUT~1\AppData\Local\Temp\ccJuO4y2.s 			page 260


 14745 4c2f 91       		.byte	0x91
 14746 4c30 70       		.sleb128 -16
 14747 4c31 00       		.byte	0
 14748 4c32 00       		.byte	0
 14749 4c33 45       		.uleb128 0x45
 14750 4c34 DB230000 		.4byte	.LASF923
 14751 4c38 02       		.byte	0x2
 14752 4c39 2002     		.2byte	0x220
 14753 4c3b 03       		.byte	0x3
 14754 4c3c 46       		.uleb128 0x46
 14755 4c3d 2C0D0000 		.4byte	.LASF924
 14756 4c41 02       		.byte	0x2
 14757 4c42 2002     		.2byte	0x220
 14758 4c44 1C090000 		.4byte	0x91c
 14759 4c48 00       		.byte	0
 14760 4c49 00       		.byte	0
 14761              		.section	.debug_abbrev,"",%progbits
 14762              	.Ldebug_abbrev0:
 14763 0000 01       		.uleb128 0x1
 14764 0001 11       		.uleb128 0x11
 14765 0002 01       		.byte	0x1
 14766 0003 25       		.uleb128 0x25
 14767 0004 0E       		.uleb128 0xe
 14768 0005 13       		.uleb128 0x13
 14769 0006 0B       		.uleb128 0xb
 14770 0007 03       		.uleb128 0x3
 14771 0008 0E       		.uleb128 0xe
 14772 0009 1B       		.uleb128 0x1b
 14773 000a 0E       		.uleb128 0xe
 14774 000b 55       		.uleb128 0x55
 14775 000c 17       		.uleb128 0x17
 14776 000d 11       		.uleb128 0x11
 14777 000e 01       		.uleb128 0x1
 14778 000f 10       		.uleb128 0x10
 14779 0010 17       		.uleb128 0x17
 14780 0011 00       		.byte	0
 14781 0012 00       		.byte	0
 14782 0013 02       		.uleb128 0x2
 14783 0014 24       		.uleb128 0x24
 14784 0015 00       		.byte	0
 14785 0016 0B       		.uleb128 0xb
 14786 0017 0B       		.uleb128 0xb
 14787 0018 3E       		.uleb128 0x3e
 14788 0019 0B       		.uleb128 0xb
 14789 001a 03       		.uleb128 0x3
 14790 001b 08       		.uleb128 0x8
 14791 001c 00       		.byte	0
 14792 001d 00       		.byte	0
 14793 001e 03       		.uleb128 0x3
 14794 001f 16       		.uleb128 0x16
 14795 0020 00       		.byte	0
 14796 0021 03       		.uleb128 0x3
 14797 0022 0E       		.uleb128 0xe
 14798 0023 3A       		.uleb128 0x3a
 14799 0024 0B       		.uleb128 0xb
 14800 0025 3B       		.uleb128 0x3b
 14801 0026 0B       		.uleb128 0xb
ARM GAS  C:\Users\PCHAUT~1\AppData\Local\Temp\ccJuO4y2.s 			page 261


 14802 0027 49       		.uleb128 0x49
 14803 0028 13       		.uleb128 0x13
 14804 0029 00       		.byte	0
 14805 002a 00       		.byte	0
 14806 002b 04       		.uleb128 0x4
 14807 002c 24       		.uleb128 0x24
 14808 002d 00       		.byte	0
 14809 002e 0B       		.uleb128 0xb
 14810 002f 0B       		.uleb128 0xb
 14811 0030 3E       		.uleb128 0x3e
 14812 0031 0B       		.uleb128 0xb
 14813 0032 03       		.uleb128 0x3
 14814 0033 0E       		.uleb128 0xe
 14815 0034 00       		.byte	0
 14816 0035 00       		.byte	0
 14817 0036 05       		.uleb128 0x5
 14818 0037 0F       		.uleb128 0xf
 14819 0038 00       		.byte	0
 14820 0039 0B       		.uleb128 0xb
 14821 003a 0B       		.uleb128 0xb
 14822 003b 49       		.uleb128 0x49
 14823 003c 13       		.uleb128 0x13
 14824 003d 00       		.byte	0
 14825 003e 00       		.byte	0
 14826 003f 06       		.uleb128 0x6
 14827 0040 13       		.uleb128 0x13
 14828 0041 00       		.byte	0
 14829 0042 03       		.uleb128 0x3
 14830 0043 0E       		.uleb128 0xe
 14831 0044 3C       		.uleb128 0x3c
 14832 0045 19       		.uleb128 0x19
 14833 0046 00       		.byte	0
 14834 0047 00       		.byte	0
 14835 0048 07       		.uleb128 0x7
 14836 0049 16       		.uleb128 0x16
 14837 004a 00       		.byte	0
 14838 004b 03       		.uleb128 0x3
 14839 004c 0E       		.uleb128 0xe
 14840 004d 3A       		.uleb128 0x3a
 14841 004e 0B       		.uleb128 0xb
 14842 004f 3B       		.uleb128 0x3b
 14843 0050 05       		.uleb128 0x5
 14844 0051 49       		.uleb128 0x49
 14845 0052 13       		.uleb128 0x13
 14846 0053 00       		.byte	0
 14847 0054 00       		.byte	0
 14848 0055 08       		.uleb128 0x8
 14849 0056 17       		.uleb128 0x17
 14850 0057 01       		.byte	0x1
 14851 0058 0B       		.uleb128 0xb
 14852 0059 0B       		.uleb128 0xb
 14853 005a 3A       		.uleb128 0x3a
 14854 005b 0B       		.uleb128 0xb
 14855 005c 3B       		.uleb128 0x3b
 14856 005d 0B       		.uleb128 0xb
 14857 005e 01       		.uleb128 0x1
 14858 005f 13       		.uleb128 0x13
ARM GAS  C:\Users\PCHAUT~1\AppData\Local\Temp\ccJuO4y2.s 			page 262


 14859 0060 00       		.byte	0
 14860 0061 00       		.byte	0
 14861 0062 09       		.uleb128 0x9
 14862 0063 0D       		.uleb128 0xd
 14863 0064 00       		.byte	0
 14864 0065 03       		.uleb128 0x3
 14865 0066 0E       		.uleb128 0xe
 14866 0067 3A       		.uleb128 0x3a
 14867 0068 0B       		.uleb128 0xb
 14868 0069 3B       		.uleb128 0x3b
 14869 006a 0B       		.uleb128 0xb
 14870 006b 49       		.uleb128 0x49
 14871 006c 13       		.uleb128 0x13
 14872 006d 00       		.byte	0
 14873 006e 00       		.byte	0
 14874 006f 0A       		.uleb128 0xa
 14875 0070 01       		.uleb128 0x1
 14876 0071 01       		.byte	0x1
 14877 0072 49       		.uleb128 0x49
 14878 0073 13       		.uleb128 0x13
 14879 0074 01       		.uleb128 0x1
 14880 0075 13       		.uleb128 0x13
 14881 0076 00       		.byte	0
 14882 0077 00       		.byte	0
 14883 0078 0B       		.uleb128 0xb
 14884 0079 21       		.uleb128 0x21
 14885 007a 00       		.byte	0
 14886 007b 49       		.uleb128 0x49
 14887 007c 13       		.uleb128 0x13
 14888 007d 2F       		.uleb128 0x2f
 14889 007e 0B       		.uleb128 0xb
 14890 007f 00       		.byte	0
 14891 0080 00       		.byte	0
 14892 0081 0C       		.uleb128 0xc
 14893 0082 13       		.uleb128 0x13
 14894 0083 01       		.byte	0x1
 14895 0084 0B       		.uleb128 0xb
 14896 0085 0B       		.uleb128 0xb
 14897 0086 3A       		.uleb128 0x3a
 14898 0087 0B       		.uleb128 0xb
 14899 0088 3B       		.uleb128 0x3b
 14900 0089 0B       		.uleb128 0xb
 14901 008a 01       		.uleb128 0x1
 14902 008b 13       		.uleb128 0x13
 14903 008c 00       		.byte	0
 14904 008d 00       		.byte	0
 14905 008e 0D       		.uleb128 0xd
 14906 008f 0D       		.uleb128 0xd
 14907 0090 00       		.byte	0
 14908 0091 03       		.uleb128 0x3
 14909 0092 0E       		.uleb128 0xe
 14910 0093 3A       		.uleb128 0x3a
 14911 0094 0B       		.uleb128 0xb
 14912 0095 3B       		.uleb128 0x3b
 14913 0096 0B       		.uleb128 0xb
 14914 0097 49       		.uleb128 0x49
 14915 0098 13       		.uleb128 0x13
ARM GAS  C:\Users\PCHAUT~1\AppData\Local\Temp\ccJuO4y2.s 			page 263


 14916 0099 38       		.uleb128 0x38
 14917 009a 0B       		.uleb128 0xb
 14918 009b 00       		.byte	0
 14919 009c 00       		.byte	0
 14920 009d 0E       		.uleb128 0xe
 14921 009e 0F       		.uleb128 0xf
 14922 009f 00       		.byte	0
 14923 00a0 0B       		.uleb128 0xb
 14924 00a1 0B       		.uleb128 0xb
 14925 00a2 00       		.byte	0
 14926 00a3 00       		.byte	0
 14927 00a4 0F       		.uleb128 0xf
 14928 00a5 26       		.uleb128 0x26
 14929 00a6 00       		.byte	0
 14930 00a7 49       		.uleb128 0x49
 14931 00a8 13       		.uleb128 0x13
 14932 00a9 00       		.byte	0
 14933 00aa 00       		.byte	0
 14934 00ab 10       		.uleb128 0x10
 14935 00ac 13       		.uleb128 0x13
 14936 00ad 01       		.byte	0x1
 14937 00ae 03       		.uleb128 0x3
 14938 00af 0E       		.uleb128 0xe
 14939 00b0 0B       		.uleb128 0xb
 14940 00b1 0B       		.uleb128 0xb
 14941 00b2 3A       		.uleb128 0x3a
 14942 00b3 0B       		.uleb128 0xb
 14943 00b4 3B       		.uleb128 0x3b
 14944 00b5 0B       		.uleb128 0xb
 14945 00b6 01       		.uleb128 0x1
 14946 00b7 13       		.uleb128 0x13
 14947 00b8 00       		.byte	0
 14948 00b9 00       		.byte	0
 14949 00ba 11       		.uleb128 0x11
 14950 00bb 0D       		.uleb128 0xd
 14951 00bc 00       		.byte	0
 14952 00bd 03       		.uleb128 0x3
 14953 00be 08       		.uleb128 0x8
 14954 00bf 3A       		.uleb128 0x3a
 14955 00c0 0B       		.uleb128 0xb
 14956 00c1 3B       		.uleb128 0x3b
 14957 00c2 0B       		.uleb128 0xb
 14958 00c3 49       		.uleb128 0x49
 14959 00c4 13       		.uleb128 0x13
 14960 00c5 38       		.uleb128 0x38
 14961 00c6 0B       		.uleb128 0xb
 14962 00c7 00       		.byte	0
 14963 00c8 00       		.byte	0
 14964 00c9 12       		.uleb128 0x12
 14965 00ca 13       		.uleb128 0x13
 14966 00cb 01       		.byte	0x1
 14967 00cc 03       		.uleb128 0x3
 14968 00cd 0E       		.uleb128 0xe
 14969 00ce 0B       		.uleb128 0xb
 14970 00cf 05       		.uleb128 0x5
 14971 00d0 3A       		.uleb128 0x3a
 14972 00d1 0B       		.uleb128 0xb
ARM GAS  C:\Users\PCHAUT~1\AppData\Local\Temp\ccJuO4y2.s 			page 264


 14973 00d2 3B       		.uleb128 0x3b
 14974 00d3 0B       		.uleb128 0xb
 14975 00d4 01       		.uleb128 0x1
 14976 00d5 13       		.uleb128 0x13
 14977 00d6 00       		.byte	0
 14978 00d7 00       		.byte	0
 14979 00d8 13       		.uleb128 0x13
 14980 00d9 0D       		.uleb128 0xd
 14981 00da 00       		.byte	0
 14982 00db 03       		.uleb128 0x3
 14983 00dc 0E       		.uleb128 0xe
 14984 00dd 3A       		.uleb128 0x3a
 14985 00de 0B       		.uleb128 0xb
 14986 00df 3B       		.uleb128 0x3b
 14987 00e0 0B       		.uleb128 0xb
 14988 00e1 49       		.uleb128 0x49
 14989 00e2 13       		.uleb128 0x13
 14990 00e3 38       		.uleb128 0x38
 14991 00e4 05       		.uleb128 0x5
 14992 00e5 00       		.byte	0
 14993 00e6 00       		.byte	0
 14994 00e7 14       		.uleb128 0x14
 14995 00e8 15       		.uleb128 0x15
 14996 00e9 00       		.byte	0
 14997 00ea 27       		.uleb128 0x27
 14998 00eb 19       		.uleb128 0x19
 14999 00ec 00       		.byte	0
 15000 00ed 00       		.byte	0
 15001 00ee 15       		.uleb128 0x15
 15002 00ef 15       		.uleb128 0x15
 15003 00f0 01       		.byte	0x1
 15004 00f1 27       		.uleb128 0x27
 15005 00f2 19       		.uleb128 0x19
 15006 00f3 49       		.uleb128 0x49
 15007 00f4 13       		.uleb128 0x13
 15008 00f5 01       		.uleb128 0x1
 15009 00f6 13       		.uleb128 0x13
 15010 00f7 00       		.byte	0
 15011 00f8 00       		.byte	0
 15012 00f9 16       		.uleb128 0x16
 15013 00fa 05       		.uleb128 0x5
 15014 00fb 00       		.byte	0
 15015 00fc 49       		.uleb128 0x49
 15016 00fd 13       		.uleb128 0x13
 15017 00fe 00       		.byte	0
 15018 00ff 00       		.byte	0
 15019 0100 17       		.uleb128 0x17
 15020 0101 13       		.uleb128 0x13
 15021 0102 01       		.byte	0x1
 15022 0103 03       		.uleb128 0x3
 15023 0104 0E       		.uleb128 0xe
 15024 0105 0B       		.uleb128 0xb
 15025 0106 05       		.uleb128 0x5
 15026 0107 3A       		.uleb128 0x3a
 15027 0108 0B       		.uleb128 0xb
 15028 0109 3B       		.uleb128 0x3b
 15029 010a 05       		.uleb128 0x5
ARM GAS  C:\Users\PCHAUT~1\AppData\Local\Temp\ccJuO4y2.s 			page 265


 15030 010b 01       		.uleb128 0x1
 15031 010c 13       		.uleb128 0x13
 15032 010d 00       		.byte	0
 15033 010e 00       		.byte	0
 15034 010f 18       		.uleb128 0x18
 15035 0110 0D       		.uleb128 0xd
 15036 0111 00       		.byte	0
 15037 0112 03       		.uleb128 0x3
 15038 0113 0E       		.uleb128 0xe
 15039 0114 3A       		.uleb128 0x3a
 15040 0115 0B       		.uleb128 0xb
 15041 0116 3B       		.uleb128 0x3b
 15042 0117 05       		.uleb128 0x5
 15043 0118 49       		.uleb128 0x49
 15044 0119 13       		.uleb128 0x13
 15045 011a 38       		.uleb128 0x38
 15046 011b 0B       		.uleb128 0xb
 15047 011c 00       		.byte	0
 15048 011d 00       		.byte	0
 15049 011e 19       		.uleb128 0x19
 15050 011f 0D       		.uleb128 0xd
 15051 0120 00       		.byte	0
 15052 0121 03       		.uleb128 0x3
 15053 0122 0E       		.uleb128 0xe
 15054 0123 3A       		.uleb128 0x3a
 15055 0124 0B       		.uleb128 0xb
 15056 0125 3B       		.uleb128 0x3b
 15057 0126 05       		.uleb128 0x5
 15058 0127 49       		.uleb128 0x49
 15059 0128 13       		.uleb128 0x13
 15060 0129 38       		.uleb128 0x38
 15061 012a 05       		.uleb128 0x5
 15062 012b 00       		.byte	0
 15063 012c 00       		.byte	0
 15064 012d 1A       		.uleb128 0x1a
 15065 012e 35       		.uleb128 0x35
 15066 012f 00       		.byte	0
 15067 0130 49       		.uleb128 0x49
 15068 0131 13       		.uleb128 0x13
 15069 0132 00       		.byte	0
 15070 0133 00       		.byte	0
 15071 0134 1B       		.uleb128 0x1b
 15072 0135 13       		.uleb128 0x13
 15073 0136 01       		.byte	0x1
 15074 0137 03       		.uleb128 0x3
 15075 0138 0E       		.uleb128 0xe
 15076 0139 0B       		.uleb128 0xb
 15077 013a 0B       		.uleb128 0xb
 15078 013b 3A       		.uleb128 0x3a
 15079 013c 0B       		.uleb128 0xb
 15080 013d 3B       		.uleb128 0x3b
 15081 013e 05       		.uleb128 0x5
 15082 013f 01       		.uleb128 0x1
 15083 0140 13       		.uleb128 0x13
 15084 0141 00       		.byte	0
 15085 0142 00       		.byte	0
 15086 0143 1C       		.uleb128 0x1c
ARM GAS  C:\Users\PCHAUT~1\AppData\Local\Temp\ccJuO4y2.s 			page 266


 15087 0144 13       		.uleb128 0x13
 15088 0145 01       		.byte	0x1
 15089 0146 0B       		.uleb128 0xb
 15090 0147 0B       		.uleb128 0xb
 15091 0148 3A       		.uleb128 0x3a
 15092 0149 0B       		.uleb128 0xb
 15093 014a 3B       		.uleb128 0x3b
 15094 014b 05       		.uleb128 0x5
 15095 014c 01       		.uleb128 0x1
 15096 014d 13       		.uleb128 0x13
 15097 014e 00       		.byte	0
 15098 014f 00       		.byte	0
 15099 0150 1D       		.uleb128 0x1d
 15100 0151 17       		.uleb128 0x17
 15101 0152 01       		.byte	0x1
 15102 0153 0B       		.uleb128 0xb
 15103 0154 0B       		.uleb128 0xb
 15104 0155 3A       		.uleb128 0x3a
 15105 0156 0B       		.uleb128 0xb
 15106 0157 3B       		.uleb128 0x3b
 15107 0158 05       		.uleb128 0x5
 15108 0159 01       		.uleb128 0x1
 15109 015a 13       		.uleb128 0x13
 15110 015b 00       		.byte	0
 15111 015c 00       		.byte	0
 15112 015d 1E       		.uleb128 0x1e
 15113 015e 0D       		.uleb128 0xd
 15114 015f 00       		.byte	0
 15115 0160 03       		.uleb128 0x3
 15116 0161 0E       		.uleb128 0xe
 15117 0162 3A       		.uleb128 0x3a
 15118 0163 0B       		.uleb128 0xb
 15119 0164 3B       		.uleb128 0x3b
 15120 0165 05       		.uleb128 0x5
 15121 0166 49       		.uleb128 0x49
 15122 0167 13       		.uleb128 0x13
 15123 0168 00       		.byte	0
 15124 0169 00       		.byte	0
 15125 016a 1F       		.uleb128 0x1f
 15126 016b 15       		.uleb128 0x15
 15127 016c 01       		.byte	0x1
 15128 016d 27       		.uleb128 0x27
 15129 016e 19       		.uleb128 0x19
 15130 016f 01       		.uleb128 0x1
 15131 0170 13       		.uleb128 0x13
 15132 0171 00       		.byte	0
 15133 0172 00       		.byte	0
 15134 0173 20       		.uleb128 0x20
 15135 0174 34       		.uleb128 0x34
 15136 0175 00       		.byte	0
 15137 0176 03       		.uleb128 0x3
 15138 0177 0E       		.uleb128 0xe
 15139 0178 3A       		.uleb128 0x3a
 15140 0179 0B       		.uleb128 0xb
 15141 017a 3B       		.uleb128 0x3b
 15142 017b 05       		.uleb128 0x5
 15143 017c 49       		.uleb128 0x49
ARM GAS  C:\Users\PCHAUT~1\AppData\Local\Temp\ccJuO4y2.s 			page 267


 15144 017d 13       		.uleb128 0x13
 15145 017e 3F       		.uleb128 0x3f
 15146 017f 19       		.uleb128 0x19
 15147 0180 3C       		.uleb128 0x3c
 15148 0181 19       		.uleb128 0x19
 15149 0182 00       		.byte	0
 15150 0183 00       		.byte	0
 15151 0184 21       		.uleb128 0x21
 15152 0185 0D       		.uleb128 0xd
 15153 0186 00       		.byte	0
 15154 0187 03       		.uleb128 0x3
 15155 0188 08       		.uleb128 0x8
 15156 0189 3A       		.uleb128 0x3a
 15157 018a 0B       		.uleb128 0xb
 15158 018b 3B       		.uleb128 0x3b
 15159 018c 05       		.uleb128 0x5
 15160 018d 49       		.uleb128 0x49
 15161 018e 13       		.uleb128 0x13
 15162 018f 38       		.uleb128 0x38
 15163 0190 0B       		.uleb128 0xb
 15164 0191 00       		.byte	0
 15165 0192 00       		.byte	0
 15166 0193 22       		.uleb128 0x22
 15167 0194 0D       		.uleb128 0xd
 15168 0195 00       		.byte	0
 15169 0196 03       		.uleb128 0x3
 15170 0197 08       		.uleb128 0x8
 15171 0198 3A       		.uleb128 0x3a
 15172 0199 0B       		.uleb128 0xb
 15173 019a 3B       		.uleb128 0x3b
 15174 019b 05       		.uleb128 0x5
 15175 019c 49       		.uleb128 0x49
 15176 019d 13       		.uleb128 0x13
 15177 019e 38       		.uleb128 0x38
 15178 019f 05       		.uleb128 0x5
 15179 01a0 00       		.byte	0
 15180 01a1 00       		.byte	0
 15181 01a2 23       		.uleb128 0x23
 15182 01a3 34       		.uleb128 0x34
 15183 01a4 00       		.byte	0
 15184 01a5 03       		.uleb128 0x3
 15185 01a6 0E       		.uleb128 0xe
 15186 01a7 3A       		.uleb128 0x3a
 15187 01a8 0B       		.uleb128 0xb
 15188 01a9 3B       		.uleb128 0x3b
 15189 01aa 0B       		.uleb128 0xb
 15190 01ab 49       		.uleb128 0x49
 15191 01ac 13       		.uleb128 0x13
 15192 01ad 3F       		.uleb128 0x3f
 15193 01ae 19       		.uleb128 0x19
 15194 01af 3C       		.uleb128 0x3c
 15195 01b0 19       		.uleb128 0x19
 15196 01b1 00       		.byte	0
 15197 01b2 00       		.byte	0
 15198 01b3 24       		.uleb128 0x24
 15199 01b4 13       		.uleb128 0x13
 15200 01b5 01       		.byte	0x1
ARM GAS  C:\Users\PCHAUT~1\AppData\Local\Temp\ccJuO4y2.s 			page 268


 15201 01b6 0B       		.uleb128 0xb
 15202 01b7 05       		.uleb128 0x5
 15203 01b8 3A       		.uleb128 0x3a
 15204 01b9 0B       		.uleb128 0xb
 15205 01ba 3B       		.uleb128 0x3b
 15206 01bb 05       		.uleb128 0x5
 15207 01bc 01       		.uleb128 0x1
 15208 01bd 13       		.uleb128 0x13
 15209 01be 00       		.byte	0
 15210 01bf 00       		.byte	0
 15211 01c0 25       		.uleb128 0x25
 15212 01c1 13       		.uleb128 0x13
 15213 01c2 01       		.byte	0x1
 15214 01c3 0B       		.uleb128 0xb
 15215 01c4 05       		.uleb128 0x5
 15216 01c5 3A       		.uleb128 0x3a
 15217 01c6 0B       		.uleb128 0xb
 15218 01c7 3B       		.uleb128 0x3b
 15219 01c8 0B       		.uleb128 0xb
 15220 01c9 01       		.uleb128 0x1
 15221 01ca 13       		.uleb128 0x13
 15222 01cb 00       		.byte	0
 15223 01cc 00       		.byte	0
 15224 01cd 26       		.uleb128 0x26
 15225 01ce 34       		.uleb128 0x34
 15226 01cf 00       		.byte	0
 15227 01d0 03       		.uleb128 0x3
 15228 01d1 08       		.uleb128 0x8
 15229 01d2 3A       		.uleb128 0x3a
 15230 01d3 0B       		.uleb128 0xb
 15231 01d4 3B       		.uleb128 0x3b
 15232 01d5 05       		.uleb128 0x5
 15233 01d6 49       		.uleb128 0x49
 15234 01d7 13       		.uleb128 0x13
 15235 01d8 3F       		.uleb128 0x3f
 15236 01d9 19       		.uleb128 0x19
 15237 01da 3C       		.uleb128 0x3c
 15238 01db 19       		.uleb128 0x19
 15239 01dc 00       		.byte	0
 15240 01dd 00       		.byte	0
 15241 01de 27       		.uleb128 0x27
 15242 01df 04       		.uleb128 0x4
 15243 01e0 01       		.byte	0x1
 15244 01e1 3E       		.uleb128 0x3e
 15245 01e2 0B       		.uleb128 0xb
 15246 01e3 0B       		.uleb128 0xb
 15247 01e4 0B       		.uleb128 0xb
 15248 01e5 49       		.uleb128 0x49
 15249 01e6 13       		.uleb128 0x13
 15250 01e7 3A       		.uleb128 0x3a
 15251 01e8 0B       		.uleb128 0xb
 15252 01e9 3B       		.uleb128 0x3b
 15253 01ea 0B       		.uleb128 0xb
 15254 01eb 01       		.uleb128 0x1
 15255 01ec 13       		.uleb128 0x13
 15256 01ed 00       		.byte	0
 15257 01ee 00       		.byte	0
ARM GAS  C:\Users\PCHAUT~1\AppData\Local\Temp\ccJuO4y2.s 			page 269


 15258 01ef 28       		.uleb128 0x28
 15259 01f0 28       		.uleb128 0x28
 15260 01f1 00       		.byte	0
 15261 01f2 03       		.uleb128 0x3
 15262 01f3 0E       		.uleb128 0xe
 15263 01f4 1C       		.uleb128 0x1c
 15264 01f5 0B       		.uleb128 0xb
 15265 01f6 00       		.byte	0
 15266 01f7 00       		.byte	0
 15267 01f8 29       		.uleb128 0x29
 15268 01f9 0D       		.uleb128 0xd
 15269 01fa 00       		.byte	0
 15270 01fb 03       		.uleb128 0x3
 15271 01fc 08       		.uleb128 0x8
 15272 01fd 3A       		.uleb128 0x3a
 15273 01fe 0B       		.uleb128 0xb
 15274 01ff 3B       		.uleb128 0x3b
 15275 0200 0B       		.uleb128 0xb
 15276 0201 49       		.uleb128 0x49
 15277 0202 13       		.uleb128 0x13
 15278 0203 00       		.byte	0
 15279 0204 00       		.byte	0
 15280 0205 2A       		.uleb128 0x2a
 15281 0206 04       		.uleb128 0x4
 15282 0207 01       		.byte	0x1
 15283 0208 3E       		.uleb128 0x3e
 15284 0209 0B       		.uleb128 0xb
 15285 020a 0B       		.uleb128 0xb
 15286 020b 0B       		.uleb128 0xb
 15287 020c 49       		.uleb128 0x49
 15288 020d 13       		.uleb128 0x13
 15289 020e 3A       		.uleb128 0x3a
 15290 020f 0B       		.uleb128 0xb
 15291 0210 3B       		.uleb128 0x3b
 15292 0211 05       		.uleb128 0x5
 15293 0212 01       		.uleb128 0x1
 15294 0213 13       		.uleb128 0x13
 15295 0214 00       		.byte	0
 15296 0215 00       		.byte	0
 15297 0216 2B       		.uleb128 0x2b
 15298 0217 26       		.uleb128 0x26
 15299 0218 00       		.byte	0
 15300 0219 00       		.byte	0
 15301 021a 00       		.byte	0
 15302 021b 2C       		.uleb128 0x2c
 15303 021c 13       		.uleb128 0x13
 15304 021d 01       		.byte	0x1
 15305 021e 0B       		.uleb128 0xb
 15306 021f 06       		.uleb128 0x6
 15307 0220 3A       		.uleb128 0x3a
 15308 0221 0B       		.uleb128 0xb
 15309 0222 3B       		.uleb128 0x3b
 15310 0223 0B       		.uleb128 0xb
 15311 0224 01       		.uleb128 0x1
 15312 0225 13       		.uleb128 0x13
 15313 0226 00       		.byte	0
 15314 0227 00       		.byte	0
ARM GAS  C:\Users\PCHAUT~1\AppData\Local\Temp\ccJuO4y2.s 			page 270


 15315 0228 2D       		.uleb128 0x2d
 15316 0229 0D       		.uleb128 0xd
 15317 022a 00       		.byte	0
 15318 022b 03       		.uleb128 0x3
 15319 022c 08       		.uleb128 0x8
 15320 022d 3A       		.uleb128 0x3a
 15321 022e 0B       		.uleb128 0xb
 15322 022f 3B       		.uleb128 0x3b
 15323 0230 0B       		.uleb128 0xb
 15324 0231 49       		.uleb128 0x49
 15325 0232 13       		.uleb128 0x13
 15326 0233 38       		.uleb128 0x38
 15327 0234 05       		.uleb128 0x5
 15328 0235 00       		.byte	0
 15329 0236 00       		.byte	0
 15330 0237 2E       		.uleb128 0x2e
 15331 0238 21       		.uleb128 0x21
 15332 0239 00       		.byte	0
 15333 023a 49       		.uleb128 0x49
 15334 023b 13       		.uleb128 0x13
 15335 023c 2F       		.uleb128 0x2f
 15336 023d 05       		.uleb128 0x5
 15337 023e 00       		.byte	0
 15338 023f 00       		.byte	0
 15339 0240 2F       		.uleb128 0x2f
 15340 0241 34       		.uleb128 0x34
 15341 0242 00       		.byte	0
 15342 0243 47       		.uleb128 0x47
 15343 0244 13       		.uleb128 0x13
 15344 0245 3A       		.uleb128 0x3a
 15345 0246 0B       		.uleb128 0xb
 15346 0247 3B       		.uleb128 0x3b
 15347 0248 0B       		.uleb128 0xb
 15348 0249 02       		.uleb128 0x2
 15349 024a 18       		.uleb128 0x18
 15350 024b 00       		.byte	0
 15351 024c 00       		.byte	0
 15352 024d 30       		.uleb128 0x30
 15353 024e 34       		.uleb128 0x34
 15354 024f 00       		.byte	0
 15355 0250 03       		.uleb128 0x3
 15356 0251 0E       		.uleb128 0xe
 15357 0252 3A       		.uleb128 0x3a
 15358 0253 0B       		.uleb128 0xb
 15359 0254 3B       		.uleb128 0x3b
 15360 0255 0B       		.uleb128 0xb
 15361 0256 49       		.uleb128 0x49
 15362 0257 13       		.uleb128 0x13
 15363 0258 02       		.uleb128 0x2
 15364 0259 18       		.uleb128 0x18
 15365 025a 00       		.byte	0
 15366 025b 00       		.byte	0
 15367 025c 31       		.uleb128 0x31
 15368 025d 2E       		.uleb128 0x2e
 15369 025e 01       		.byte	0x1
 15370 025f 3F       		.uleb128 0x3f
 15371 0260 19       		.uleb128 0x19
ARM GAS  C:\Users\PCHAUT~1\AppData\Local\Temp\ccJuO4y2.s 			page 271


 15372 0261 03       		.uleb128 0x3
 15373 0262 0E       		.uleb128 0xe
 15374 0263 3A       		.uleb128 0x3a
 15375 0264 0B       		.uleb128 0xb
 15376 0265 3B       		.uleb128 0x3b
 15377 0266 05       		.uleb128 0x5
 15378 0267 27       		.uleb128 0x27
 15379 0268 19       		.uleb128 0x19
 15380 0269 11       		.uleb128 0x11
 15381 026a 01       		.uleb128 0x1
 15382 026b 12       		.uleb128 0x12
 15383 026c 06       		.uleb128 0x6
 15384 026d 40       		.uleb128 0x40
 15385 026e 18       		.uleb128 0x18
 15386 026f 9642     		.uleb128 0x2116
 15387 0271 19       		.uleb128 0x19
 15388 0272 01       		.uleb128 0x1
 15389 0273 13       		.uleb128 0x13
 15390 0274 00       		.byte	0
 15391 0275 00       		.byte	0
 15392 0276 32       		.uleb128 0x32
 15393 0277 05       		.uleb128 0x5
 15394 0278 00       		.byte	0
 15395 0279 03       		.uleb128 0x3
 15396 027a 08       		.uleb128 0x8
 15397 027b 3A       		.uleb128 0x3a
 15398 027c 0B       		.uleb128 0xb
 15399 027d 3B       		.uleb128 0x3b
 15400 027e 05       		.uleb128 0x5
 15401 027f 49       		.uleb128 0x49
 15402 0280 13       		.uleb128 0x13
 15403 0281 02       		.uleb128 0x2
 15404 0282 18       		.uleb128 0x18
 15405 0283 00       		.byte	0
 15406 0284 00       		.byte	0
 15407 0285 33       		.uleb128 0x33
 15408 0286 34       		.uleb128 0x34
 15409 0287 00       		.byte	0
 15410 0288 03       		.uleb128 0x3
 15411 0289 0E       		.uleb128 0xe
 15412 028a 3A       		.uleb128 0x3a
 15413 028b 0B       		.uleb128 0xb
 15414 028c 3B       		.uleb128 0x3b
 15415 028d 05       		.uleb128 0x5
 15416 028e 49       		.uleb128 0x49
 15417 028f 13       		.uleb128 0x13
 15418 0290 02       		.uleb128 0x2
 15419 0291 18       		.uleb128 0x18
 15420 0292 00       		.byte	0
 15421 0293 00       		.byte	0
 15422 0294 34       		.uleb128 0x34
 15423 0295 0B       		.uleb128 0xb
 15424 0296 01       		.byte	0x1
 15425 0297 11       		.uleb128 0x11
 15426 0298 01       		.uleb128 0x1
 15427 0299 12       		.uleb128 0x12
 15428 029a 06       		.uleb128 0x6
ARM GAS  C:\Users\PCHAUT~1\AppData\Local\Temp\ccJuO4y2.s 			page 272


 15429 029b 00       		.byte	0
 15430 029c 00       		.byte	0
 15431 029d 35       		.uleb128 0x35
 15432 029e 34       		.uleb128 0x34
 15433 029f 00       		.byte	0
 15434 02a0 03       		.uleb128 0x3
 15435 02a1 08       		.uleb128 0x8
 15436 02a2 3A       		.uleb128 0x3a
 15437 02a3 0B       		.uleb128 0xb
 15438 02a4 3B       		.uleb128 0x3b
 15439 02a5 05       		.uleb128 0x5
 15440 02a6 49       		.uleb128 0x49
 15441 02a7 13       		.uleb128 0x13
 15442 02a8 02       		.uleb128 0x2
 15443 02a9 18       		.uleb128 0x18
 15444 02aa 00       		.byte	0
 15445 02ab 00       		.byte	0
 15446 02ac 36       		.uleb128 0x36
 15447 02ad 05       		.uleb128 0x5
 15448 02ae 00       		.byte	0
 15449 02af 03       		.uleb128 0x3
 15450 02b0 0E       		.uleb128 0xe
 15451 02b1 3A       		.uleb128 0x3a
 15452 02b2 0B       		.uleb128 0xb
 15453 02b3 3B       		.uleb128 0x3b
 15454 02b4 05       		.uleb128 0x5
 15455 02b5 49       		.uleb128 0x49
 15456 02b6 13       		.uleb128 0x13
 15457 02b7 02       		.uleb128 0x2
 15458 02b8 18       		.uleb128 0x18
 15459 02b9 00       		.byte	0
 15460 02ba 00       		.byte	0
 15461 02bb 37       		.uleb128 0x37
 15462 02bc 2E       		.uleb128 0x2e
 15463 02bd 01       		.byte	0x1
 15464 02be 3F       		.uleb128 0x3f
 15465 02bf 19       		.uleb128 0x19
 15466 02c0 03       		.uleb128 0x3
 15467 02c1 0E       		.uleb128 0xe
 15468 02c2 3A       		.uleb128 0x3a
 15469 02c3 0B       		.uleb128 0xb
 15470 02c4 3B       		.uleb128 0x3b
 15471 02c5 05       		.uleb128 0x5
 15472 02c6 27       		.uleb128 0x27
 15473 02c7 19       		.uleb128 0x19
 15474 02c8 49       		.uleb128 0x49
 15475 02c9 13       		.uleb128 0x13
 15476 02ca 11       		.uleb128 0x11
 15477 02cb 01       		.uleb128 0x1
 15478 02cc 12       		.uleb128 0x12
 15479 02cd 06       		.uleb128 0x6
 15480 02ce 40       		.uleb128 0x40
 15481 02cf 18       		.uleb128 0x18
 15482 02d0 9642     		.uleb128 0x2116
 15483 02d2 19       		.uleb128 0x19
 15484 02d3 01       		.uleb128 0x1
 15485 02d4 13       		.uleb128 0x13
ARM GAS  C:\Users\PCHAUT~1\AppData\Local\Temp\ccJuO4y2.s 			page 273


 15486 02d5 00       		.byte	0
 15487 02d6 00       		.byte	0
 15488 02d7 38       		.uleb128 0x38
 15489 02d8 2E       		.uleb128 0x2e
 15490 02d9 00       		.byte	0
 15491 02da 3F       		.uleb128 0x3f
 15492 02db 19       		.uleb128 0x19
 15493 02dc 03       		.uleb128 0x3
 15494 02dd 0E       		.uleb128 0xe
 15495 02de 3A       		.uleb128 0x3a
 15496 02df 0B       		.uleb128 0xb
 15497 02e0 3B       		.uleb128 0x3b
 15498 02e1 05       		.uleb128 0x5
 15499 02e2 27       		.uleb128 0x27
 15500 02e3 19       		.uleb128 0x19
 15501 02e4 11       		.uleb128 0x11
 15502 02e5 01       		.uleb128 0x1
 15503 02e6 12       		.uleb128 0x12
 15504 02e7 06       		.uleb128 0x6
 15505 02e8 40       		.uleb128 0x40
 15506 02e9 18       		.uleb128 0x18
 15507 02ea 9642     		.uleb128 0x2116
 15508 02ec 19       		.uleb128 0x19
 15509 02ed 00       		.byte	0
 15510 02ee 00       		.byte	0
 15511 02ef 39       		.uleb128 0x39
 15512 02f0 2E       		.uleb128 0x2e
 15513 02f1 01       		.byte	0x1
 15514 02f2 03       		.uleb128 0x3
 15515 02f3 0E       		.uleb128 0xe
 15516 02f4 3A       		.uleb128 0x3a
 15517 02f5 0B       		.uleb128 0xb
 15518 02f6 3B       		.uleb128 0x3b
 15519 02f7 05       		.uleb128 0x5
 15520 02f8 27       		.uleb128 0x27
 15521 02f9 19       		.uleb128 0x19
 15522 02fa 11       		.uleb128 0x11
 15523 02fb 01       		.uleb128 0x1
 15524 02fc 12       		.uleb128 0x12
 15525 02fd 06       		.uleb128 0x6
 15526 02fe 40       		.uleb128 0x40
 15527 02ff 18       		.uleb128 0x18
 15528 0300 9642     		.uleb128 0x2116
 15529 0302 19       		.uleb128 0x19
 15530 0303 01       		.uleb128 0x1
 15531 0304 13       		.uleb128 0x13
 15532 0305 00       		.byte	0
 15533 0306 00       		.byte	0
 15534 0307 3A       		.uleb128 0x3a
 15535 0308 0B       		.uleb128 0xb
 15536 0309 01       		.byte	0x1
 15537 030a 55       		.uleb128 0x55
 15538 030b 17       		.uleb128 0x17
 15539 030c 00       		.byte	0
 15540 030d 00       		.byte	0
 15541 030e 3B       		.uleb128 0x3b
 15542 030f 2E       		.uleb128 0x2e
ARM GAS  C:\Users\PCHAUT~1\AppData\Local\Temp\ccJuO4y2.s 			page 274


 15543 0310 01       		.byte	0x1
 15544 0311 03       		.uleb128 0x3
 15545 0312 0E       		.uleb128 0xe
 15546 0313 3A       		.uleb128 0x3a
 15547 0314 0B       		.uleb128 0xb
 15548 0315 3B       		.uleb128 0x3b
 15549 0316 05       		.uleb128 0x5
 15550 0317 27       		.uleb128 0x27
 15551 0318 19       		.uleb128 0x19
 15552 0319 49       		.uleb128 0x49
 15553 031a 13       		.uleb128 0x13
 15554 031b 11       		.uleb128 0x11
 15555 031c 01       		.uleb128 0x1
 15556 031d 12       		.uleb128 0x12
 15557 031e 06       		.uleb128 0x6
 15558 031f 40       		.uleb128 0x40
 15559 0320 18       		.uleb128 0x18
 15560 0321 9642     		.uleb128 0x2116
 15561 0323 19       		.uleb128 0x19
 15562 0324 01       		.uleb128 0x1
 15563 0325 13       		.uleb128 0x13
 15564 0326 00       		.byte	0
 15565 0327 00       		.byte	0
 15566 0328 3C       		.uleb128 0x3c
 15567 0329 2E       		.uleb128 0x2e
 15568 032a 01       		.byte	0x1
 15569 032b 03       		.uleb128 0x3
 15570 032c 0E       		.uleb128 0xe
 15571 032d 3A       		.uleb128 0x3a
 15572 032e 0B       		.uleb128 0xb
 15573 032f 3B       		.uleb128 0x3b
 15574 0330 0B       		.uleb128 0xb
 15575 0331 27       		.uleb128 0x27
 15576 0332 19       		.uleb128 0x19
 15577 0333 11       		.uleb128 0x11
 15578 0334 01       		.uleb128 0x1
 15579 0335 12       		.uleb128 0x12
 15580 0336 06       		.uleb128 0x6
 15581 0337 40       		.uleb128 0x40
 15582 0338 18       		.uleb128 0x18
 15583 0339 9642     		.uleb128 0x2116
 15584 033b 19       		.uleb128 0x19
 15585 033c 01       		.uleb128 0x1
 15586 033d 13       		.uleb128 0x13
 15587 033e 00       		.byte	0
 15588 033f 00       		.byte	0
 15589 0340 3D       		.uleb128 0x3d
 15590 0341 05       		.uleb128 0x5
 15591 0342 00       		.byte	0
 15592 0343 03       		.uleb128 0x3
 15593 0344 0E       		.uleb128 0xe
 15594 0345 3A       		.uleb128 0x3a
 15595 0346 0B       		.uleb128 0xb
 15596 0347 3B       		.uleb128 0x3b
 15597 0348 0B       		.uleb128 0xb
 15598 0349 49       		.uleb128 0x49
 15599 034a 13       		.uleb128 0x13
ARM GAS  C:\Users\PCHAUT~1\AppData\Local\Temp\ccJuO4y2.s 			page 275


 15600 034b 02       		.uleb128 0x2
 15601 034c 18       		.uleb128 0x18
 15602 034d 00       		.byte	0
 15603 034e 00       		.byte	0
 15604 034f 3E       		.uleb128 0x3e
 15605 0350 05       		.uleb128 0x5
 15606 0351 00       		.byte	0
 15607 0352 03       		.uleb128 0x3
 15608 0353 08       		.uleb128 0x8
 15609 0354 3A       		.uleb128 0x3a
 15610 0355 0B       		.uleb128 0xb
 15611 0356 3B       		.uleb128 0x3b
 15612 0357 0B       		.uleb128 0xb
 15613 0358 49       		.uleb128 0x49
 15614 0359 13       		.uleb128 0x13
 15615 035a 02       		.uleb128 0x2
 15616 035b 18       		.uleb128 0x18
 15617 035c 00       		.byte	0
 15618 035d 00       		.byte	0
 15619 035e 3F       		.uleb128 0x3f
 15620 035f 2E       		.uleb128 0x2e
 15621 0360 01       		.byte	0x1
 15622 0361 03       		.uleb128 0x3
 15623 0362 0E       		.uleb128 0xe
 15624 0363 3A       		.uleb128 0x3a
 15625 0364 0B       		.uleb128 0xb
 15626 0365 3B       		.uleb128 0x3b
 15627 0366 0B       		.uleb128 0xb
 15628 0367 27       		.uleb128 0x27
 15629 0368 19       		.uleb128 0x19
 15630 0369 49       		.uleb128 0x49
 15631 036a 13       		.uleb128 0x13
 15632 036b 11       		.uleb128 0x11
 15633 036c 01       		.uleb128 0x1
 15634 036d 12       		.uleb128 0x12
 15635 036e 06       		.uleb128 0x6
 15636 036f 40       		.uleb128 0x40
 15637 0370 18       		.uleb128 0x18
 15638 0371 9642     		.uleb128 0x2116
 15639 0373 19       		.uleb128 0x19
 15640 0374 01       		.uleb128 0x1
 15641 0375 13       		.uleb128 0x13
 15642 0376 00       		.byte	0
 15643 0377 00       		.byte	0
 15644 0378 40       		.uleb128 0x40
 15645 0379 34       		.uleb128 0x34
 15646 037a 00       		.byte	0
 15647 037b 03       		.uleb128 0x3
 15648 037c 0E       		.uleb128 0xe
 15649 037d 49       		.uleb128 0x49
 15650 037e 13       		.uleb128 0x13
 15651 037f 34       		.uleb128 0x34
 15652 0380 19       		.uleb128 0x19
 15653 0381 02       		.uleb128 0x2
 15654 0382 18       		.uleb128 0x18
 15655 0383 00       		.byte	0
 15656 0384 00       		.byte	0
ARM GAS  C:\Users\PCHAUT~1\AppData\Local\Temp\ccJuO4y2.s 			page 276


 15657 0385 41       		.uleb128 0x41
 15658 0386 34       		.uleb128 0x34
 15659 0387 00       		.byte	0
 15660 0388 03       		.uleb128 0x3
 15661 0389 08       		.uleb128 0x8
 15662 038a 3A       		.uleb128 0x3a
 15663 038b 0B       		.uleb128 0xb
 15664 038c 3B       		.uleb128 0x3b
 15665 038d 0B       		.uleb128 0xb
 15666 038e 49       		.uleb128 0x49
 15667 038f 13       		.uleb128 0x13
 15668 0390 02       		.uleb128 0x2
 15669 0391 18       		.uleb128 0x18
 15670 0392 00       		.byte	0
 15671 0393 00       		.byte	0
 15672 0394 42       		.uleb128 0x42
 15673 0395 2E       		.uleb128 0x2e
 15674 0396 00       		.byte	0
 15675 0397 03       		.uleb128 0x3
 15676 0398 0E       		.uleb128 0xe
 15677 0399 3A       		.uleb128 0x3a
 15678 039a 0B       		.uleb128 0xb
 15679 039b 3B       		.uleb128 0x3b
 15680 039c 05       		.uleb128 0x5
 15681 039d 27       		.uleb128 0x27
 15682 039e 19       		.uleb128 0x19
 15683 039f 11       		.uleb128 0x11
 15684 03a0 01       		.uleb128 0x1
 15685 03a1 12       		.uleb128 0x12
 15686 03a2 06       		.uleb128 0x6
 15687 03a3 40       		.uleb128 0x40
 15688 03a4 18       		.uleb128 0x18
 15689 03a5 9642     		.uleb128 0x2116
 15690 03a7 19       		.uleb128 0x19
 15691 03a8 00       		.byte	0
 15692 03a9 00       		.byte	0
 15693 03aa 43       		.uleb128 0x43
 15694 03ab 1D       		.uleb128 0x1d
 15695 03ac 01       		.byte	0x1
 15696 03ad 31       		.uleb128 0x31
 15697 03ae 13       		.uleb128 0x13
 15698 03af 11       		.uleb128 0x11
 15699 03b0 01       		.uleb128 0x1
 15700 03b1 12       		.uleb128 0x12
 15701 03b2 06       		.uleb128 0x6
 15702 03b3 58       		.uleb128 0x58
 15703 03b4 0B       		.uleb128 0xb
 15704 03b5 59       		.uleb128 0x59
 15705 03b6 05       		.uleb128 0x5
 15706 03b7 00       		.byte	0
 15707 03b8 00       		.byte	0
 15708 03b9 44       		.uleb128 0x44
 15709 03ba 05       		.uleb128 0x5
 15710 03bb 00       		.byte	0
 15711 03bc 31       		.uleb128 0x31
 15712 03bd 13       		.uleb128 0x13
 15713 03be 02       		.uleb128 0x2
ARM GAS  C:\Users\PCHAUT~1\AppData\Local\Temp\ccJuO4y2.s 			page 277


 15714 03bf 18       		.uleb128 0x18
 15715 03c0 00       		.byte	0
 15716 03c1 00       		.byte	0
 15717 03c2 45       		.uleb128 0x45
 15718 03c3 2E       		.uleb128 0x2e
 15719 03c4 01       		.byte	0x1
 15720 03c5 03       		.uleb128 0x3
 15721 03c6 0E       		.uleb128 0xe
 15722 03c7 3A       		.uleb128 0x3a
 15723 03c8 0B       		.uleb128 0xb
 15724 03c9 3B       		.uleb128 0x3b
 15725 03ca 05       		.uleb128 0x5
 15726 03cb 27       		.uleb128 0x27
 15727 03cc 19       		.uleb128 0x19
 15728 03cd 20       		.uleb128 0x20
 15729 03ce 0B       		.uleb128 0xb
 15730 03cf 00       		.byte	0
 15731 03d0 00       		.byte	0
 15732 03d1 46       		.uleb128 0x46
 15733 03d2 05       		.uleb128 0x5
 15734 03d3 00       		.byte	0
 15735 03d4 03       		.uleb128 0x3
 15736 03d5 0E       		.uleb128 0xe
 15737 03d6 3A       		.uleb128 0x3a
 15738 03d7 0B       		.uleb128 0xb
 15739 03d8 3B       		.uleb128 0x3b
 15740 03d9 05       		.uleb128 0x5
 15741 03da 49       		.uleb128 0x49
 15742 03db 13       		.uleb128 0x13
 15743 03dc 00       		.byte	0
 15744 03dd 00       		.byte	0
 15745 03de 00       		.byte	0
 15746              		.section	.debug_aranges,"",%progbits
 15747 0000 D4010000 		.4byte	0x1d4
 15748 0004 0200     		.2byte	0x2
 15749 0006 00000000 		.4byte	.Ldebug_info0
 15750 000a 04       		.byte	0x4
 15751 000b 00       		.byte	0
 15752 000c 0000     		.2byte	0
 15753 000e 0000     		.2byte	0
 15754 0010 00000000 		.4byte	.LFB116
 15755 0014 30000000 		.4byte	.LFE116-.LFB116
 15756 0018 00000000 		.4byte	.LFB117
 15757 001c 30000000 		.4byte	.LFE117-.LFB117
 15758 0020 00000000 		.4byte	.LFB118
 15759 0024 28000000 		.4byte	.LFE118-.LFB118
 15760 0028 00000000 		.4byte	.LFB119
 15761 002c 28000000 		.4byte	.LFE119-.LFB119
 15762 0030 00000000 		.4byte	.LFB145
 15763 0034 30000000 		.4byte	.LFE145-.LFB145
 15764 0038 00000000 		.4byte	.LFB146
 15765 003c 58000000 		.4byte	.LFE146-.LFB146
 15766 0040 00000000 		.4byte	.LFB147
 15767 0044 30000000 		.4byte	.LFE147-.LFB147
 15768 0048 00000000 		.4byte	.LFB148
 15769 004c 30000000 		.4byte	.LFE148-.LFB148
 15770 0050 00000000 		.4byte	.LFB171
ARM GAS  C:\Users\PCHAUT~1\AppData\Local\Temp\ccJuO4y2.s 			page 278


 15771 0054 44000000 		.4byte	.LFE171-.LFB171
 15772 0058 00000000 		.4byte	.LFB176
 15773 005c 34000000 		.4byte	.LFE176-.LFB176
 15774 0060 00000000 		.4byte	.LFB223
 15775 0064 28000000 		.4byte	.LFE223-.LFB223
 15776 0068 00000000 		.4byte	.LFB224
 15777 006c 28000000 		.4byte	.LFE224-.LFB224
 15778 0070 00000000 		.4byte	.LFB225
 15779 0074 28000000 		.4byte	.LFE225-.LFB225
 15780 0078 00000000 		.4byte	.LFB226
 15781 007c 28000000 		.4byte	.LFE226-.LFB226
 15782 0080 00000000 		.4byte	.LFB229
 15783 0084 2C000000 		.4byte	.LFE229-.LFB229
 15784 0088 00000000 		.4byte	.LFB231
 15785 008c 28000000 		.4byte	.LFE231-.LFB231
 15786 0090 00000000 		.4byte	.LFB236
 15787 0094 30000000 		.4byte	.LFE236-.LFB236
 15788 0098 00000000 		.4byte	.LFB238
 15789 009c 30000000 		.4byte	.LFE238-.LFB238
 15790 00a0 00000000 		.4byte	.LFB243
 15791 00a4 30000000 		.4byte	.LFE243-.LFB243
 15792 00a8 00000000 		.4byte	.LFB256
 15793 00ac 58000000 		.4byte	.LFE256-.LFB256
 15794 00b0 00000000 		.4byte	.LFB257
 15795 00b4 24010000 		.4byte	.LFE257-.LFB257
 15796 00b8 00000000 		.4byte	.LFB258
 15797 00bc 48000000 		.4byte	.LFE258-.LFB258
 15798 00c0 00000000 		.4byte	.LFB259
 15799 00c4 50000000 		.4byte	.LFE259-.LFB259
 15800 00c8 00000000 		.4byte	.LFB260
 15801 00cc 30000000 		.4byte	.LFE260-.LFB260
 15802 00d0 00000000 		.4byte	.LFB261
 15803 00d4 54000000 		.4byte	.LFE261-.LFB261
 15804 00d8 00000000 		.4byte	.LFB262
 15805 00dc 48000000 		.4byte	.LFE262-.LFB262
 15806 00e0 00000000 		.4byte	.LFB263
 15807 00e4 3C000000 		.4byte	.LFE263-.LFB263
 15808 00e8 00000000 		.4byte	.LFB264
 15809 00ec 1C010000 		.4byte	.LFE264-.LFB264
 15810 00f0 00000000 		.4byte	.LFB265
 15811 00f4 4C000000 		.4byte	.LFE265-.LFB265
 15812 00f8 00000000 		.4byte	.LFB266
 15813 00fc 68000000 		.4byte	.LFE266-.LFB266
 15814 0100 00000000 		.4byte	.LFB267
 15815 0104 04010000 		.4byte	.LFE267-.LFB267
 15816 0108 00000000 		.4byte	.LFB268
 15817 010c 50010000 		.4byte	.LFE268-.LFB268
 15818 0110 00000000 		.4byte	.LFB269
 15819 0114 84010000 		.4byte	.LFE269-.LFB269
 15820 0118 00000000 		.4byte	.LFB270
 15821 011c 60010000 		.4byte	.LFE270-.LFB270
 15822 0120 00000000 		.4byte	.LFB271
 15823 0124 30010000 		.4byte	.LFE271-.LFB271
 15824 0128 00000000 		.4byte	.LFB272
 15825 012c 6C010000 		.4byte	.LFE272-.LFB272
 15826 0130 00000000 		.4byte	.LFB273
 15827 0134 40000000 		.4byte	.LFE273-.LFB273
ARM GAS  C:\Users\PCHAUT~1\AppData\Local\Temp\ccJuO4y2.s 			page 279


 15828 0138 00000000 		.4byte	.LFB274
 15829 013c 78000000 		.4byte	.LFE274-.LFB274
 15830 0140 00000000 		.4byte	.LFB275
 15831 0144 28010000 		.4byte	.LFE275-.LFB275
 15832 0148 00000000 		.4byte	.LFB276
 15833 014c 78000000 		.4byte	.LFE276-.LFB276
 15834 0150 00000000 		.4byte	.LFB277
 15835 0154 40010000 		.4byte	.LFE277-.LFB277
 15836 0158 00000000 		.4byte	.LFB278
 15837 015c 48000000 		.4byte	.LFE278-.LFB278
 15838 0160 00000000 		.4byte	.LFB279
 15839 0164 68020000 		.4byte	.LFE279-.LFB279
 15840 0168 00000000 		.4byte	.LFB280
 15841 016c 34000000 		.4byte	.LFE280-.LFB280
 15842 0170 00000000 		.4byte	.LFB281
 15843 0174 5C000000 		.4byte	.LFE281-.LFB281
 15844 0178 00000000 		.4byte	.LFB282
 15845 017c 5C000000 		.4byte	.LFE282-.LFB282
 15846 0180 00000000 		.4byte	.LFB283
 15847 0184 48000000 		.4byte	.LFE283-.LFB283
 15848 0188 00000000 		.4byte	.LFB284
 15849 018c AC000000 		.4byte	.LFE284-.LFB284
 15850 0190 00000000 		.4byte	.LFB285
 15851 0194 C8000000 		.4byte	.LFE285-.LFB285
 15852 0198 00000000 		.4byte	.LFB286
 15853 019c 50000000 		.4byte	.LFE286-.LFB286
 15854 01a0 00000000 		.4byte	.LFB287
 15855 01a4 6C000000 		.4byte	.LFE287-.LFB287
 15856 01a8 00000000 		.4byte	.LFB288
 15857 01ac 50000000 		.4byte	.LFE288-.LFB288
 15858 01b0 00000000 		.4byte	.LFB289
 15859 01b4 50000000 		.4byte	.LFE289-.LFB289
 15860 01b8 00000000 		.4byte	.LFB290
 15861 01bc 50000000 		.4byte	.LFE290-.LFB290
 15862 01c0 00000000 		.4byte	.LFB291
 15863 01c4 50000000 		.4byte	.LFE291-.LFB291
 15864 01c8 00000000 		.4byte	.LFB292
 15865 01cc 14010000 		.4byte	.LFE292-.LFB292
 15866 01d0 00000000 		.4byte	0
 15867 01d4 00000000 		.4byte	0
 15868              		.section	.debug_ranges,"",%progbits
 15869              	.Ldebug_ranges0:
 15870 0000 16000000 		.4byte	.LBB10
 15871 0004 D6000000 		.4byte	.LBE10
 15872 0008 DE000000 		.4byte	.LBB12
 15873 000c E0000000 		.4byte	.LBE12
 15874 0010 00000000 		.4byte	0
 15875 0014 00000000 		.4byte	0
 15876 0018 16000000 		.4byte	.LBB15
 15877 001c BC000000 		.4byte	.LBE15
 15878 0020 C4000000 		.4byte	.LBB17
 15879 0024 C6000000 		.4byte	.LBE17
 15880 0028 00000000 		.4byte	0
 15881 002c 00000000 		.4byte	0
 15882 0030 86000000 		.4byte	.LBB20
 15883 0034 D8000000 		.4byte	.LBE20
 15884 0038 DA000000 		.4byte	.LBB21
ARM GAS  C:\Users\PCHAUT~1\AppData\Local\Temp\ccJuO4y2.s 			page 280


 15885 003c 14010000 		.4byte	.LBE21
 15886 0040 00000000 		.4byte	0
 15887 0044 00000000 		.4byte	0
 15888 0048 00000000 		.4byte	.LFB116
 15889 004c 30000000 		.4byte	.LFE116
 15890 0050 00000000 		.4byte	.LFB117
 15891 0054 30000000 		.4byte	.LFE117
 15892 0058 00000000 		.4byte	.LFB118
 15893 005c 28000000 		.4byte	.LFE118
 15894 0060 00000000 		.4byte	.LFB119
 15895 0064 28000000 		.4byte	.LFE119
 15896 0068 00000000 		.4byte	.LFB145
 15897 006c 30000000 		.4byte	.LFE145
 15898 0070 00000000 		.4byte	.LFB146
 15899 0074 58000000 		.4byte	.LFE146
 15900 0078 00000000 		.4byte	.LFB147
 15901 007c 30000000 		.4byte	.LFE147
 15902 0080 00000000 		.4byte	.LFB148
 15903 0084 30000000 		.4byte	.LFE148
 15904 0088 00000000 		.4byte	.LFB171
 15905 008c 44000000 		.4byte	.LFE171
 15906 0090 00000000 		.4byte	.LFB176
 15907 0094 34000000 		.4byte	.LFE176
 15908 0098 00000000 		.4byte	.LFB223
 15909 009c 28000000 		.4byte	.LFE223
 15910 00a0 00000000 		.4byte	.LFB224
 15911 00a4 28000000 		.4byte	.LFE224
 15912 00a8 00000000 		.4byte	.LFB225
 15913 00ac 28000000 		.4byte	.LFE225
 15914 00b0 00000000 		.4byte	.LFB226
 15915 00b4 28000000 		.4byte	.LFE226
 15916 00b8 00000000 		.4byte	.LFB229
 15917 00bc 2C000000 		.4byte	.LFE229
 15918 00c0 00000000 		.4byte	.LFB231
 15919 00c4 28000000 		.4byte	.LFE231
 15920 00c8 00000000 		.4byte	.LFB236
 15921 00cc 30000000 		.4byte	.LFE236
 15922 00d0 00000000 		.4byte	.LFB238
 15923 00d4 30000000 		.4byte	.LFE238
 15924 00d8 00000000 		.4byte	.LFB243
 15925 00dc 30000000 		.4byte	.LFE243
 15926 00e0 00000000 		.4byte	.LFB256
 15927 00e4 58000000 		.4byte	.LFE256
 15928 00e8 00000000 		.4byte	.LFB257
 15929 00ec 24010000 		.4byte	.LFE257
 15930 00f0 00000000 		.4byte	.LFB258
 15931 00f4 48000000 		.4byte	.LFE258
 15932 00f8 00000000 		.4byte	.LFB259
 15933 00fc 50000000 		.4byte	.LFE259
 15934 0100 00000000 		.4byte	.LFB260
 15935 0104 30000000 		.4byte	.LFE260
 15936 0108 00000000 		.4byte	.LFB261
 15937 010c 54000000 		.4byte	.LFE261
 15938 0110 00000000 		.4byte	.LFB262
 15939 0114 48000000 		.4byte	.LFE262
 15940 0118 00000000 		.4byte	.LFB263
 15941 011c 3C000000 		.4byte	.LFE263
ARM GAS  C:\Users\PCHAUT~1\AppData\Local\Temp\ccJuO4y2.s 			page 281


 15942 0120 00000000 		.4byte	.LFB264
 15943 0124 1C010000 		.4byte	.LFE264
 15944 0128 00000000 		.4byte	.LFB265
 15945 012c 4C000000 		.4byte	.LFE265
 15946 0130 00000000 		.4byte	.LFB266
 15947 0134 68000000 		.4byte	.LFE266
 15948 0138 00000000 		.4byte	.LFB267
 15949 013c 04010000 		.4byte	.LFE267
 15950 0140 00000000 		.4byte	.LFB268
 15951 0144 50010000 		.4byte	.LFE268
 15952 0148 00000000 		.4byte	.LFB269
 15953 014c 84010000 		.4byte	.LFE269
 15954 0150 00000000 		.4byte	.LFB270
 15955 0154 60010000 		.4byte	.LFE270
 15956 0158 00000000 		.4byte	.LFB271
 15957 015c 30010000 		.4byte	.LFE271
 15958 0160 00000000 		.4byte	.LFB272
 15959 0164 6C010000 		.4byte	.LFE272
 15960 0168 00000000 		.4byte	.LFB273
 15961 016c 40000000 		.4byte	.LFE273
 15962 0170 00000000 		.4byte	.LFB274
 15963 0174 78000000 		.4byte	.LFE274
 15964 0178 00000000 		.4byte	.LFB275
 15965 017c 28010000 		.4byte	.LFE275
 15966 0180 00000000 		.4byte	.LFB276
 15967 0184 78000000 		.4byte	.LFE276
 15968 0188 00000000 		.4byte	.LFB277
 15969 018c 40010000 		.4byte	.LFE277
 15970 0190 00000000 		.4byte	.LFB278
 15971 0194 48000000 		.4byte	.LFE278
 15972 0198 00000000 		.4byte	.LFB279
 15973 019c 68020000 		.4byte	.LFE279
 15974 01a0 00000000 		.4byte	.LFB280
 15975 01a4 34000000 		.4byte	.LFE280
 15976 01a8 00000000 		.4byte	.LFB281
 15977 01ac 5C000000 		.4byte	.LFE281
 15978 01b0 00000000 		.4byte	.LFB282
 15979 01b4 5C000000 		.4byte	.LFE282
 15980 01b8 00000000 		.4byte	.LFB283
 15981 01bc 48000000 		.4byte	.LFE283
 15982 01c0 00000000 		.4byte	.LFB284
 15983 01c4 AC000000 		.4byte	.LFE284
 15984 01c8 00000000 		.4byte	.LFB285
 15985 01cc C8000000 		.4byte	.LFE285
 15986 01d0 00000000 		.4byte	.LFB286
 15987 01d4 50000000 		.4byte	.LFE286
 15988 01d8 00000000 		.4byte	.LFB287
 15989 01dc 6C000000 		.4byte	.LFE287
 15990 01e0 00000000 		.4byte	.LFB288
 15991 01e4 50000000 		.4byte	.LFE288
 15992 01e8 00000000 		.4byte	.LFB289
 15993 01ec 50000000 		.4byte	.LFE289
 15994 01f0 00000000 		.4byte	.LFB290
 15995 01f4 50000000 		.4byte	.LFE290
 15996 01f8 00000000 		.4byte	.LFB291
 15997 01fc 50000000 		.4byte	.LFE291
 15998 0200 00000000 		.4byte	.LFB292
ARM GAS  C:\Users\PCHAUT~1\AppData\Local\Temp\ccJuO4y2.s 			page 282


 15999 0204 14010000 		.4byte	.LFE292
 16000 0208 00000000 		.4byte	0
 16001 020c 00000000 		.4byte	0
 16002              		.section	.debug_line,"",%progbits
 16003              	.Ldebug_line0:
 16004 0000 A00F0000 		.section	.debug_str,"MS",%progbits,1
 16004      02006408 
 16004      00000201 
 16004      FB0E0D00 
 16004      01010101 
 16005              	.LASF704:
 16006 0000 5553425F 		.ascii	"USB_STOP\000"
 16006      53544F50 
 16006      00
 16007              	.LASF319:
 16008 0009 706F7274 		.ascii	"port_intctx\000"
 16008      5F696E74 
 16008      63747800 
 16009              	.LASF328:
 16010 0015 63685F74 		.ascii	"ch_trace_buffer_t\000"
 16010      72616365 
 16010      5F627566 
 16010      6665725F 
 16010      7400
 16011              	.LASF360:
 16012 0027 63685F70 		.ascii	"ch_ptrsize\000"
 16012      74727369 
 16012      7A6500
 16013              	.LASF640:
 16014 0032 6576656E 		.ascii	"event\000"
 16014      7400
 16015              	.LASF491:
 16016 0038 43414E5F 		.ascii	"CAN_STARTING\000"
 16016      53544152 
 16016      54494E47 
 16016      00
 16017              	.LASF910:
 16018 0045 5F5F6675 		.ascii	"__func__\000"
 16018      6E635F5F 
 16018      00
 16019              	.LASF141:
 16020 004e 6D73675F 		.ascii	"msg_t\000"
 16020      7400
 16021              	.LASF436:
 16022 0054 61667268 		.ascii	"afrh\000"
 16022      00
 16023              	.LASF583:
 16024 0059 4F504D4F 		.ascii	"OPMODE_SMBUS_DEVICE\000"
 16024      44455F53 
 16024      4D425553 
 16024      5F444556 
 16024      49434500 
 16025              	.LASF339:
 16026 006d 6D5F6372 		.ascii	"m_crit_isr\000"
 16026      69745F69 
 16026      737200
 16027              	.LASF915:
ARM GAS  C:\Users\PCHAUT~1\AppData\Local\Temp\ccJuO4y2.s 			page 283


 16028 0078 706F7274 		.ascii	"port_unlock_from_isr\000"
 16028      5F756E6C 
 16028      6F636B5F 
 16028      66726F6D 
 16028      5F697372 
 16029              	.LASF921:
 16030 008d 433A5C55 		.ascii	"C:\\Users\\Pchautems\\Documents\\RobotiqueTP\\Proje"
 16030      73657273 
 16030      5C506368 
 16030      61757465 
 16030      6D735C44 
 16031 00bb 745C6D69 		.ascii	"t\\miniprojet\000"
 16031      6E697072 
 16031      6F6A6574 
 16031      00
 16032              	.LASF656:
 16033 00c8 73646366 		.ascii	"sdcflags_t\000"
 16033      6C616773 
 16033      5F7400
 16034              	.LASF767:
 16035 00d3 44494550 		.ascii	"DIEPTXF0\000"
 16035      54584630 
 16035      00
 16036              	.LASF843:
 16037 00dc 55534244 		.ascii	"USBD1\000"
 16037      3100
 16038              	.LASF490:
 16039 00e2 43414E5F 		.ascii	"CAN_STOP\000"
 16039      53544F50 
 16039      00
 16040              	.LASF373:
 16041 00eb 63665F6F 		.ascii	"cf_off_time\000"
 16041      66665F74 
 16041      696D6500 
 16042              	.LASF200:
 16043 00f7 63685F73 		.ascii	"ch_system_t\000"
 16043      79737465 
 16043      6D5F7400 
 16044              	.LASF5:
 16045 0103 5F5F7569 		.ascii	"__uint8_t\000"
 16045      6E74385F 
 16045      7400
 16046              	.LASF345:
 16047 010d 77747365 		.ascii	"wtsemp\000"
 16047      6D7000
 16048              	.LASF420:
 16049 0114 5F426F6F 		.ascii	"_Bool\000"
 16049      6C00
 16050              	.LASF532:
 16051 011a 64617461 		.ascii	"datamode\000"
 16051      6D6F6465 
 16051      00
 16052              	.LASF599:
 16053 0123 646D6172 		.ascii	"dmarx\000"
 16053      7800
 16054              	.LASF70:
 16055 0129 5F6D6273 		.ascii	"_mbstate\000"
ARM GAS  C:\Users\PCHAUT~1\AppData\Local\Temp\ccJuO4y2.s 			page 284


 16055      74617465 
 16055      00
 16056              	.LASF49:
 16057 0132 5F617465 		.ascii	"_atexit\000"
 16057      78697400 
 16058              	.LASF905:
 16059 013a 6F73616C 		.ascii	"osalSysUnlock\000"
 16059      53797355 
 16059      6E6C6F63 
 16059      6B00
 16060              	.LASF480:
 16061 0148 73717231 		.ascii	"sqr1\000"
 16061      00
 16062              	.LASF407:
 16063 014d 424C4B5F 		.ascii	"BLK_UNINIT\000"
 16063      554E494E 
 16063      495400
 16064              	.LASF611:
 16065 0158 72785F62 		.ascii	"rx_buffer\000"
 16065      75666665 
 16065      7200
 16066              	.LASF595:
 16067 0162 6572726F 		.ascii	"errors\000"
 16067      727300
 16068              	.LASF332:
 16069 0169 776F7273 		.ascii	"worst\000"
 16069      7400
 16070              	.LASF193:
 16071 016f 76745F73 		.ascii	"vt_systime\000"
 16071      79737469 
 16071      6D6500
 16072              	.LASF259:
 16073 017a 444F5231 		.ascii	"DOR1\000"
 16073      00
 16074              	.LASF260:
 16075 017f 444F5232 		.ascii	"DOR2\000"
 16075      00
 16076              	.LASF610:
 16077 0184 74785F62 		.ascii	"tx_buffer\000"
 16077      75666665 
 16077      7200
 16078              	.LASF292:
 16079 018e 5243435F 		.ascii	"RCC_TypeDef\000"
 16079      54797065 
 16079      44656600 
 16080              	.LASF39:
 16081 019a 5F5F746D 		.ascii	"__tm_mon\000"
 16081      5F6D6F6E 
 16081      00
 16082              	.LASF47:
 16083 01a3 5F666E74 		.ascii	"_fntypes\000"
 16083      79706573 
 16083      00
 16084              	.LASF354:
 16085 01ac 6D5F6E65 		.ascii	"m_next\000"
 16085      787400
 16086              	.LASF440:
ARM GAS  C:\Users\PCHAUT~1\AppData\Local\Temp\ccJuO4y2.s 			page 285


 16087 01b3 50434461 		.ascii	"PCData\000"
 16087      746100
 16088              	.LASF77:
 16089 01ba 5F696E63 		.ascii	"_inc\000"
 16089      00
 16090              	.LASF50:
 16091 01bf 5F696E64 		.ascii	"_ind\000"
 16091      00
 16092              	.LASF304:
 16093 01c4 4D41534B 		.ascii	"MASK\000"
 16093      00
 16094              	.LASF465:
 16095 01c9 73616D70 		.ascii	"samples\000"
 16095      6C657300 
 16096              	.LASF771:
 16097 01d1 47434346 		.ascii	"GCCFG\000"
 16097      4700
 16098              	.LASF561:
 16099 01d7 42445452 		.ascii	"BDTR\000"
 16099      00
 16100              	.LASF514:
 16101 01dc 7265676D 		.ascii	"regmask\000"
 16101      61736B00 
 16102              	.LASF874:
 16103 01e4 6F74675F 		.ascii	"otg_epout_handler\000"
 16103      65706F75 
 16103      745F6861 
 16103      6E646C65 
 16103      7200
 16104              	.LASF593:
 16105 01f6 49324343 		.ascii	"I2CConfig\000"
 16105      6F6E6669 
 16105      6700
 16106              	.LASF130:
 16107 0200 75696E74 		.ascii	"uint16_t\000"
 16107      31365F74 
 16107      00
 16108              	.LASF600:
 16109 0209 646D6174 		.ascii	"dmatx\000"
 16109      7800
 16110              	.LASF841:
 16111 020f 736F665F 		.ascii	"sof_cb\000"
 16111      636200
 16112              	.LASF537:
 16113 0216 4558545F 		.ascii	"EXT_ACTIVE\000"
 16113      41435449 
 16113      564500
 16114              	.LASF56:
 16115 0221 5F666C61 		.ascii	"_flags\000"
 16115      677300
 16116              	.LASF890:
 16117 0228 6E657874 		.ascii	"next\000"
 16117      00
 16118              	.LASF433:
 16119 022d 6F737065 		.ascii	"ospeedr\000"
 16119      65647200 
 16120              	.LASF774:
ARM GAS  C:\Users\PCHAUT~1\AppData\Local\Temp\ccJuO4y2.s 			page 286


 16121 0235 44494550 		.ascii	"DIEPTXF\000"
 16121      54584600 
 16122              	.LASF379:
 16123 023d 656C5F6E 		.ascii	"el_next\000"
 16123      65787400 
 16124              	.LASF460:
 16125 0245 4144435F 		.ascii	"ADC_ERR_OVERFLOW\000"
 16125      4552525F 
 16125      4F564552 
 16125      464C4F57 
 16125      00
 16126              	.LASF87:
 16127 0256 5F637674 		.ascii	"_cvtlen\000"
 16127      6C656E00 
 16128              	.LASF198:
 16129 025e 6C6F636B 		.ascii	"lock_cnt\000"
 16129      5F636E74 
 16129      00
 16130              	.LASF875:
 16131 0267 6570696E 		.ascii	"epint\000"
 16131      7400
 16132              	.LASF174:
 16133 026d 63685F74 		.ascii	"ch_threads_queue\000"
 16133      68726561 
 16133      64735F71 
 16133      75657565 
 16133      00
 16134              	.LASF870:
 16135 027e 7573625F 		.ascii	"usb_lld_stop\000"
 16135      6C6C645F 
 16135      73746F70 
 16135      00
 16136              	.LASF91:
 16137 028b 5F736967 		.ascii	"_sig_func\000"
 16137      5F66756E 
 16137      6300
 16138              	.LASF153:
 16139 0295 705F6E65 		.ascii	"p_newer\000"
 16139      77657200 
 16140              	.LASF784:
 16141 029d 48505254 		.ascii	"HPRT\000"
 16141      00
 16142              	.LASF738:
 16143 02a2 4843494E 		.ascii	"HCINT\000"
 16143      5400
 16144              	.LASF209:
 16145 02a8 534D5052 		.ascii	"SMPR1\000"
 16145      3100
 16146              	.LASF210:
 16147 02ae 534D5052 		.ascii	"SMPR2\000"
 16147      3200
 16148              	.LASF370:
 16149 02b4 63665F6F 		.ascii	"cf_off_flags\000"
 16149      66665F66 
 16149      6C616773 
 16149      00
 16150              	.LASF69:
ARM GAS  C:\Users\PCHAUT~1\AppData\Local\Temp\ccJuO4y2.s 			page 287


 16151 02c1 5F6C6F63 		.ascii	"_lock\000"
 16151      6B00
 16152              	.LASF65:
 16153 02c7 5F6E6275 		.ascii	"_nbuf\000"
 16153      6600
 16154              	.LASF673:
 16155 02cd 5350495F 		.ascii	"SPI_STOP\000"
 16155      53544F50 
 16155      00
 16156              	.LASF901:
 16157 02d6 6379636C 		.ascii	"cycles\000"
 16157      657300
 16158              	.LASF123:
 16159 02dd 5F756E75 		.ascii	"_unused\000"
 16159      73656400 
 16160              	.LASF439:
 16161 02e5 50424461 		.ascii	"PBData\000"
 16161      746100
 16162              	.LASF846:
 16163 02ec 65703063 		.ascii	"ep0config\000"
 16163      6F6E6669 
 16163      6700
 16164              	.LASF358:
 16165 02f6 63685F73 		.ascii	"ch_size\000"
 16165      697A6500 
 16166              	.LASF780:
 16167 02fe 48505458 		.ascii	"HPTXSTS\000"
 16167      53545300 
 16168              	.LASF432:
 16169 0306 6F747970 		.ascii	"otyper\000"
 16169      657200
 16170              	.LASF712:
 16171 030d 75736265 		.ascii	"usbepstatus_t\000"
 16171      70737461 
 16171      7475735F 
 16171      7400
 16172              	.LASF423:
 16173 031b 4F545950 		.ascii	"OTYPER\000"
 16173      455200
 16174              	.LASF516:
 16175 0322 64616370 		.ascii	"dacparams_t\000"
 16175      6172616D 
 16175      735F7400 
 16176              	.LASF651:
 16177 032e 5344435F 		.ascii	"SDC_MODE_1BIT\000"
 16177      4D4F4445 
 16177      5F314249 
 16177      5400
 16178              	.LASF736:
 16179 033c 48434348 		.ascii	"HCCHAR\000"
 16179      415200
 16180              	.LASF577:
 16181 0343 4932435F 		.ascii	"I2C_ACTIVE_RX\000"
 16181      41435449 
 16181      56455F52 
 16181      5800
 16182              	.LASF147:
ARM GAS  C:\Users\PCHAUT~1\AppData\Local\Temp\ccJuO4y2.s 			page 288


 16183 0351 74687265 		.ascii	"thread_t\000"
 16183      61645F74 
 16183      00
 16184              	.LASF381:
 16185 035a 656C5F65 		.ascii	"el_events\000"
 16185      76656E74 
 16185      7300
 16186              	.LASF620:
 16187 0364 70776D73 		.ascii	"pwmstate_t\000"
 16187      74617465 
 16187      5F7400
 16188              	.LASF501:
 16189 036f 736C6565 		.ascii	"sleep_event\000"
 16189      705F6576 
 16189      656E7400 
 16190              	.LASF192:
 16191 037b 63685F76 		.ascii	"ch_virtual_timers_list\000"
 16191      69727475 
 16191      616C5F74 
 16191      696D6572 
 16191      735F6C69 
 16192              	.LASF404:
 16193 0392 76656374 		.ascii	"vector\000"
 16193      6F7200
 16194              	.LASF762:
 16195 0399 47494E54 		.ascii	"GINTSTS\000"
 16195      53545300 
 16196              	.LASF131:
 16197 03a1 696E7433 		.ascii	"int32_t\000"
 16197      325F7400 
 16198              	.LASF591:
 16199 03a9 636C6F63 		.ascii	"clock_speed\000"
 16199      6B5F7370 
 16199      65656400 
 16200              	.LASF146:
 16201 03b5 73797374 		.ascii	"systime_t\000"
 16201      696D655F 
 16201      7400
 16202              	.LASF534:
 16203 03bf 44414344 		.ascii	"DACD2\000"
 16203      3200
 16204              	.LASF503:
 16205 03c5 43414E44 		.ascii	"CANDriver\000"
 16205      72697665 
 16205      7200
 16206              	.LASF101:
 16207 03cf 5F616464 		.ascii	"_add\000"
 16207      00
 16208              	.LASF263:
 16209 03d4 4D304152 		.ascii	"M0AR\000"
 16209      00
 16210              	.LASF743:
 16211 03d9 72657376 		.ascii	"resvd1c\000"
 16211      64316300 
 16212              	.LASF581:
 16213 03e1 69326366 		.ascii	"i2cflags_t\000"
 16213      6C616773 
ARM GAS  C:\Users\PCHAUT~1\AppData\Local\Temp\ccJuO4y2.s 			page 289


 16213      5F7400
 16214              	.LASF781:
 16215 03ec 4841494E 		.ascii	"HAINT\000"
 16215      5400
 16216              	.LASF711:
 16217 03f2 45505F53 		.ascii	"EP_STATUS_ACTIVE\000"
 16217      54415455 
 16217      535F4143 
 16217      54495645 
 16217      00
 16218              	.LASF245:
 16219 0403 46413152 		.ascii	"FA1R\000"
 16219      00
 16220              	.LASF898:
 16221 0408 6F73616C 		.ascii	"osalThreadResumeI\000"
 16221      54687265 
 16221      61645265 
 16221      73756D65 
 16221      4900
 16222              	.LASF778:
 16223 041a 48464E55 		.ascii	"HFNUM\000"
 16223      4D00
 16224              	.LASF397:
 16225 0420 716E6F74 		.ascii	"qnotify_t\000"
 16225      6966795F 
 16225      7400
 16226              	.LASF456:
 16227 042a 61646373 		.ascii	"adcstate_t\000"
 16227      74617465 
 16227      5F7400
 16228              	.LASF276:
 16229 0435 41504231 		.ascii	"APB1RSTR\000"
 16229      52535452 
 16229      00
 16230              	.LASF659:
 16231 043e 63617264 		.ascii	"cardmode\000"
 16231      6D6F6465 
 16231      00
 16232              	.LASF402:
 16233 0447 69736869 		.ascii	"ishift\000"
 16233      667400
 16234              	.LASF887:
 16235 044e 6F74675F 		.ascii	"otg_fifo_write_from_buffer\000"
 16235      6669666F 
 16235      5F777269 
 16235      74655F66 
 16235      726F6D5F 
 16236              	.LASF551:
 16237 0469 4750545F 		.ascii	"GPT_ONESHOT\000"
 16237      4F4E4553 
 16237      484F5400 
 16238              	.LASF392:
 16239 0475 715F746F 		.ascii	"q_top\000"
 16239      7000
 16240              	.LASF58:
 16241 047b 5F6C6266 		.ascii	"_lbfsize\000"
 16241      73697A65 
ARM GAS  C:\Users\PCHAUT~1\AppData\Local\Temp\ccJuO4y2.s 			page 290


 16241      00
 16242              	.LASF729:
 16243 0484 75645F73 		.ascii	"ud_string\000"
 16243      7472696E 
 16243      6700
 16244              	.LASF594:
 16245 048e 49324344 		.ascii	"I2CDriver\000"
 16245      72697665 
 16245      7200
 16246              	.LASF576:
 16247 0498 4932435F 		.ascii	"I2C_ACTIVE_TX\000"
 16247      41435449 
 16247      56455F54 
 16247      5800
 16248              	.LASF646:
 16249 04a6 72656164 		.ascii	"read\000"
 16249      00
 16250              	.LASF582:
 16251 04ab 4F504D4F 		.ascii	"OPMODE_I2C\000"
 16251      44455F49 
 16251      324300
 16252              	.LASF790:
 16253 04b6 72657376 		.ascii	"resvd80C\000"
 16253      64383043 
 16253      00
 16254              	.LASF838:
 16255 04bf 6576656E 		.ascii	"event_cb\000"
 16255      745F6362 
 16255      00
 16256              	.LASF757:
 16257 04c8 474F5447 		.ascii	"GOTGCTL\000"
 16257      43544C00 
 16258              	.LASF732:
 16259 04d0 75736265 		.ascii	"usbepcallback_t\000"
 16259      7063616C 
 16259      6C626163 
 16259      6B5F7400 
 16260              	.LASF68:
 16261 04e0 5F646174 		.ascii	"_data\000"
 16261      6100
 16262              	.LASF203:
 16263 04e6 76746C69 		.ascii	"vtlist\000"
 16263      737400
 16264              	.LASF268:
 16265 04ed 54524953 		.ascii	"TRISE\000"
 16265      4500
 16266              	.LASF796:
 16267 04f3 72657376 		.ascii	"resvd824\000"
 16267      64383234 
 16267      00
 16268              	.LASF162:
 16269 04fc 705F7761 		.ascii	"p_waiting\000"
 16269      6974696E 
 16269      6700
 16270              	.LASF340:
 16271 0506 6B65726E 		.ascii	"kernel_stats_t\000"
 16271      656C5F73 
ARM GAS  C:\Users\PCHAUT~1\AppData\Local\Temp\ccJuO4y2.s 			page 291


 16271      74617473 
 16271      5F7400
 16272              	.LASF389:
 16273 0515 715F7761 		.ascii	"q_waiting\000"
 16273      6974696E 
 16273      6700
 16274              	.LASF227:
 16275 051f 43414E5F 		.ascii	"CAN_TxMailBox_TypeDef\000"
 16275      54784D61 
 16275      696C426F 
 16275      785F5479 
 16275      70654465 
 16276              	.LASF202:
 16277 0535 726C6973 		.ascii	"rlist\000"
 16277      7400
 16278              	.LASF171:
 16279 053b 74687265 		.ascii	"threads_list_t\000"
 16279      6164735F 
 16279      6C697374 
 16279      5F7400
 16280              	.LASF330:
 16281 054a 746D5F63 		.ascii	"tm_calibration_t\000"
 16281      616C6962 
 16281      72617469 
 16281      6F6E5F74 
 16281      00
 16282              	.LASF398:
 16283 055b 696E7075 		.ascii	"input_queue_t\000"
 16283      745F7175 
 16283      6575655F 
 16283      7400
 16284              	.LASF483:
 16285 0569 41444343 		.ascii	"ADCConversionGroup\000"
 16285      6F6E7665 
 16285      7273696F 
 16285      6E47726F 
 16285      757000
 16286              	.LASF789:
 16287 057c 44535453 		.ascii	"DSTS\000"
 16287      00
 16288              	.LASF124:
 16289 0581 5F5F6C6F 		.ascii	"__lock\000"
 16289      636B00
 16290              	.LASF586:
 16291 0588 5354445F 		.ascii	"STD_DUTY_CYCLE\000"
 16291      44555459 
 16291      5F435943 
 16291      4C4500
 16292              	.LASF72:
 16293 0597 5F726565 		.ascii	"_reent\000"
 16293      6E7400
 16294              	.LASF366:
 16295 059e 63665F6F 		.ascii	"cf_off_older\000"
 16295      66665F6F 
 16295      6C646572 
 16295      00
 16296              	.LASF135:
ARM GAS  C:\Users\PCHAUT~1\AppData\Local\Temp\ccJuO4y2.s 			page 292


 16297 05ab 72747469 		.ascii	"rttime_t\000"
 16297      6D655F74 
 16297      00
 16298              	.LASF546:
 16299 05b4 45585444 		.ascii	"EXTD1\000"
 16299      3100
 16300              	.LASF823:
 16301 05ba 72787175 		.ascii	"rxqueued\000"
 16301      65756564 
 16301      00
 16302              	.LASF857:
 16303 05c3 7573625F 		.ascii	"usb_lld_start_in\000"
 16303      6C6C645F 
 16303      73746172 
 16303      745F696E 
 16303      00
 16304              	.LASF494:
 16305 05d4 63616E73 		.ascii	"canstate_t\000"
 16305      74617465 
 16305      5F7400
 16306              	.LASF247:
 16307 05df 7346696C 		.ascii	"sFilterRegister\000"
 16307      74657252 
 16307      65676973 
 16307      74657200 
 16308              	.LASF93:
 16309 05ef 5F5F7366 		.ascii	"__sf\000"
 16309      00
 16310              	.LASF795:
 16311 05f4 72657376 		.ascii	"resvd820\000"
 16311      64383230 
 16311      00
 16312              	.LASF53:
 16313 05fd 5F626173 		.ascii	"_base\000"
 16313      6500
 16314              	.LASF296:
 16315 0603 52455350 		.ascii	"RESP1\000"
 16315      3100
 16316              	.LASF297:
 16317 0609 52455350 		.ascii	"RESP2\000"
 16317      3200
 16318              	.LASF298:
 16319 060f 52455350 		.ascii	"RESP3\000"
 16319      3300
 16320              	.LASF299:
 16321 0615 52455350 		.ascii	"RESP4\000"
 16321      3400
 16322              	.LASF110:
 16323 061b 5F6D6274 		.ascii	"_mbtowc_state\000"
 16323      6F77635F 
 16323      73746174 
 16323      6500
 16324              	.LASF847:
 16325 0629 66737061 		.ascii	"fsparams\000"
 16325      72616D73 
 16325      00
 16326              	.LASF903:
ARM GAS  C:\Users\PCHAUT~1\AppData\Local\Temp\ccJuO4y2.s 			page 293


 16327 0632 6F73616C 		.ascii	"osalSysUnlockFromISR\000"
 16327      53797355 
 16327      6E6C6F63 
 16327      6B46726F 
 16327      6D495352 
 16328              	.LASF573:
 16329 0647 4932435F 		.ascii	"I2C_UNINIT\000"
 16329      554E494E 
 16329      495400
 16330              	.LASF734:
 16331 0652 75736272 		.ascii	"usbreqhandler_t\000"
 16331      65716861 
 16331      6E646C65 
 16331      725F7400 
 16332              	.LASF454:
 16333 0662 4144435F 		.ascii	"ADC_COMPLETE\000"
 16333      434F4D50 
 16333      4C455445 
 16333      00
 16334              	.LASF570:
 16335 066f 47505443 		.ascii	"GPTConfig\000"
 16335      6F6E6669 
 16335      6700
 16336              	.LASF635:
 16337 0679 53445F55 		.ascii	"SD_UNINIT\000"
 16337      4E494E49 
 16337      5400
 16338              	.LASF140:
 16339 0683 74707269 		.ascii	"tprio_t\000"
 16339      6F5F7400 
 16340              	.LASF336:
 16341 068b 6E5F6972 		.ascii	"n_irq\000"
 16341      7100
 16342              	.LASF614:
 16343 0691 69327370 		.ascii	"i2spr\000"
 16343      7200
 16344              	.LASF282:
 16345 0697 41504232 		.ascii	"APB2ENR\000"
 16345      454E5200 
 16346              	.LASF799:
 16347 069f 72657376 		.ascii	"resvd830\000"
 16347      64383330 
 16347      00
 16348              	.LASF34:
 16349 06a8 5F5F746D 		.ascii	"__tm\000"
 16349      00
 16350              	.LASF801:
 16351 06ad 72657376 		.ascii	"resvd838\000"
 16351      64383338 
 16351      00
 16352              	.LASF589:
 16353 06b6 69326364 		.ascii	"i2cdutycycle_t\000"
 16353      75747963 
 16353      79636C65 
 16353      5F7400
 16354              	.LASF802:
 16355 06c5 72657376 		.ascii	"resvd83C\000"
ARM GAS  C:\Users\PCHAUT~1\AppData\Local\Temp\ccJuO4y2.s 			page 294


 16355      64383343 
 16355      00
 16356              	.LASF468:
 16357 06ce 74687265 		.ascii	"thread\000"
 16357      616400
 16358              	.LASF513:
 16359 06d5 72656773 		.ascii	"regshift\000"
 16359      68696674 
 16359      00
 16360              	.LASF693:
 16361 06de 73657475 		.ascii	"setup\000"
 16361      7000
 16362              	.LASF672:
 16363 06e4 5350495F 		.ascii	"SPI_UNINIT\000"
 16363      554E494E 
 16363      495400
 16364              	.LASF750:
 16365 06ef 44545846 		.ascii	"DTXFSTS\000"
 16365      53545300 
 16366              	.LASF417:
 16367 06f7 626C6B5F 		.ascii	"blk_size\000"
 16367      73697A65 
 16367      00
 16368              	.LASF575:
 16369 0700 4932435F 		.ascii	"I2C_READY\000"
 16369      52454144 
 16369      5900
 16370              	.LASF42:
 16371 070a 5F5F746D 		.ascii	"__tm_yday\000"
 16371      5F796461 
 16371      7900
 16372              	.LASF687:
 16373 0714 696E5F70 		.ascii	"in_params\000"
 16373      6172616D 
 16373      7300
 16374              	.LASF560:
 16375 071e 43434552 		.ascii	"CCER\000"
 16375      00
 16376              	.LASF312:
 16377 0723 49325350 		.ascii	"I2SPR\000"
 16377      5200
 16378              	.LASF617:
 16379 0729 50574D5F 		.ascii	"PWM_UNINIT\000"
 16379      554E494E 
 16379      495400
 16380              	.LASF331:
 16381 0734 62657374 		.ascii	"best\000"
 16381      00
 16382              	.LASF759:
 16383 0739 47414842 		.ascii	"GAHBCFG\000"
 16383      43464700 
 16384              	.LASF523:
 16385 0741 64616363 		.ascii	"daccallback_t\000"
 16385      616C6C62 
 16385      61636B5F 
 16385      7400
 16386              	.LASF17:
ARM GAS  C:\Users\PCHAUT~1\AppData\Local\Temp\ccJuO4y2.s 			page 295


 16387 074f 5F4C4F43 		.ascii	"_LOCK_T\000"
 16387      4B5F5400 
 16388              	.LASF803:
 16389 0757 72657376 		.ascii	"resvd840\000"
 16389      64383430 
 16389      00
 16390              	.LASF308:
 16391 0760 43524350 		.ascii	"CRCPR\000"
 16391      5200
 16392              	.LASF412:
 16393 0766 424C4B5F 		.ascii	"BLK_READY\000"
 16393      52454144 
 16393      5900
 16394              	.LASF7:
 16395 0770 5F5F696E 		.ascii	"__int16_t\000"
 16395      7431365F 
 16395      7400
 16396              	.LASF851:
 16397 077a 646F6E65 		.ascii	"done\000"
 16397      00
 16398              	.LASF877:
 16399 077f 6F74675F 		.ascii	"otg_rxfifo_handler\000"
 16399      72786669 
 16399      666F5F68 
 16399      616E646C 
 16399      657200
 16400              	.LASF9:
 16401 0792 5F5F7569 		.ascii	"__uint16_t\000"
 16401      6E743136 
 16401      5F7400
 16402              	.LASF550:
 16403 079d 4750545F 		.ascii	"GPT_CONTINUOUS\000"
 16403      434F4E54 
 16403      494E554F 
 16403      555300
 16404              	.LASF817:
 16405 07ac 74787175 		.ascii	"txqueued\000"
 16405      65756564 
 16405      00
 16406              	.LASF164:
 16407 07b5 705F6D73 		.ascii	"p_msg\000"
 16407      6700
 16408              	.LASF102:
 16409 07bb 5F756E75 		.ascii	"_unused_rand\000"
 16409      7365645F 
 16409      72616E64 
 16409      00
 16410              	.LASF756:
 16411 07c8 73746D33 		.ascii	"stm32_otg_out_ep_t\000"
 16411      325F6F74 
 16411      675F6F75 
 16411      745F6570 
 16411      5F7400
 16412              	.LASF765:
 16413 07db 47525853 		.ascii	"GRXSTSP\000"
 16413      54535000 
 16414              	.LASF764:
ARM GAS  C:\Users\PCHAUT~1\AppData\Local\Temp\ccJuO4y2.s 			page 296


 16415 07e3 47525853 		.ascii	"GRXSTSR\000"
 16415      54535200 
 16416              	.LASF342:
 16417 07eb 65786974 		.ascii	"exitcode\000"
 16417      636F6465 
 16417      00
 16418              	.LASF264:
 16419 07f4 4D314152 		.ascii	"M1AR\000"
 16419      00
 16420              	.LASF700:
 16421 07f9 77616974 		.ascii	"wait\000"
 16421      00
 16422              	.LASF265:
 16423 07fe 444D415F 		.ascii	"DMA_Stream_TypeDef\000"
 16423      53747265 
 16423      616D5F54 
 16423      79706544 
 16423      656600
 16424              	.LASF707:
 16425 0811 5553425F 		.ascii	"USB_ACTIVE\000"
 16425      41435449 
 16425      564500
 16426              	.LASF752:
 16427 081c 73746D33 		.ascii	"stm32_otg_in_ep_t\000"
 16427      325F6F74 
 16427      675F696E 
 16427      5F65705F 
 16427      7400
 16428              	.LASF825:
 16429 082e 7278636E 		.ascii	"rxcnt\000"
 16429      7400
 16430              	.LASF450:
 16431 0834 4144435F 		.ascii	"ADC_UNINIT\000"
 16431      554E494E 
 16431      495400
 16432              	.LASF597:
 16433 083f 7278646D 		.ascii	"rxdmamode\000"
 16433      616D6F64 
 16433      6500
 16434              	.LASF84:
 16435 0849 5F726573 		.ascii	"_result_k\000"
 16435      756C745F 
 16435      6B00
 16436              	.LASF542:
 16437 0853 6D6F6465 		.ascii	"mode\000"
 16437      00
 16438              	.LASF76:
 16439 0858 5F737464 		.ascii	"_stderr\000"
 16439      65727200 
 16440              	.LASF83:
 16441 0860 5F726573 		.ascii	"_result\000"
 16441      756C7400 
 16442              	.LASF355:
 16443 0868 6D5F636E 		.ascii	"m_cnt\000"
 16443      7400
 16444              	.LASF539:
 16445 086e 45585444 		.ascii	"EXTDriver\000"
ARM GAS  C:\Users\PCHAUT~1\AppData\Local\Temp\ccJuO4y2.s 			page 297


 16445      72697665 
 16445      7200
 16446              	.LASF46:
 16447 0878 5F64736F 		.ascii	"_dso_handle\000"
 16447      5F68616E 
 16447      646C6500 
 16448              	.LASF609:
 16449 0884 69327363 		.ascii	"i2scallback_t\000"
 16449      616C6C62 
 16449      61636B5F 
 16449      7400
 16450              	.LASF681:
 16451 0892 73737061 		.ascii	"sspad\000"
 16451      6400
 16452              	.LASF598:
 16453 0898 7478646D 		.ascii	"txdmamode\000"
 16453      616D6F64 
 16453      6500
 16454              	.LASF566:
 16455 08a2 67707466 		.ascii	"gptfreq_t\000"
 16455      7265715F 
 16455      7400
 16456              	.LASF919:
 16457 08ac 474E5520 		.ascii	"GNU C11 7.2.1 20170904 (release) [ARM/embedded-7-br"
 16457      43313120 
 16457      372E322E 
 16457      31203230 
 16457      31373039 
 16458 08df 616E6368 		.ascii	"anch revision 255204] -mcpu=cortex-m4 -mfloat-abi=h"
 16458      20726576 
 16458      6973696F 
 16458      6E203235 
 16458      35323034 
 16459 0912 61726420 		.ascii	"ard -mfpu=fpv4-sp-d16 -mno-thumb-interwork -mthumb "
 16459      2D6D6670 
 16459      753D6670 
 16459      76342D73 
 16459      702D6431 
 16460 0945 2D676764 		.ascii	"-ggdb -O0 -fomit-frame-pointer -falign-functions=16"
 16460      62202D4F 
 16460      30202D66 
 16460      6F6D6974 
 16460      2D667261 
 16461 0978 202D666E 		.ascii	" -fno-strict-aliasing -fstack-protector-all -ffunct"
 16461      6F2D7374 
 16461      72696374 
 16461      2D616C69 
 16461      6173696E 
 16462 09ab 696F6E2D 		.ascii	"ion-sections -fdata-sections -fno-common -fsingle-p"
 16462      73656374 
 16462      696F6E73 
 16462      202D6664 
 16462      6174612D 
 16463 09de 72656369 		.ascii	"recision-constant\000"
 16463      73696F6E 
 16463      2D636F6E 
 16463      7374616E 
ARM GAS  C:\Users\PCHAUT~1\AppData\Local\Temp\ccJuO4y2.s 			page 298


 16463      7400
 16464              	.LASF43:
 16465 09f0 5F5F746D 		.ascii	"__tm_isdst\000"
 16465      5F697364 
 16465      737400
 16466              	.LASF859:
 16467 09fb 7573625F 		.ascii	"usb_lld_prepare_transmit\000"
 16467      6C6C645F 
 16467      70726570 
 16467      6172655F 
 16467      7472616E 
 16468              	.LASF810:
 16469 0a14 72785F66 		.ascii	"rx_fifo_size\000"
 16469      69666F5F 
 16469      73697A65 
 16469      00
 16470              	.LASF317:
 16471 0a21 73746B61 		.ascii	"stkalign_t\000"
 16471      6C69676E 
 16471      5F7400
 16472              	.LASF521:
 16473 0a2c 4441435F 		.ascii	"DAC_ERR_UNDERFLOW\000"
 16473      4552525F 
 16473      554E4445 
 16473      52464C4F 
 16473      5700
 16474              	.LASF41:
 16475 0a3e 5F5F746D 		.ascii	"__tm_wday\000"
 16475      5F776461 
 16475      7900
 16476              	.LASF502:
 16477 0a48 77616B65 		.ascii	"wakeup_event\000"
 16477      75705F65 
 16477      76656E74 
 16477      00
 16478              	.LASF187:
 16479 0a55 76745F70 		.ascii	"vt_prev\000"
 16479      72657600 
 16480              	.LASF476:
 16481 0a5d 656E645F 		.ascii	"end_cb\000"
 16481      636200
 16482              	.LASF828:
 16483 0a64 73657475 		.ascii	"setup_cb\000"
 16483      705F6362 
 16483      00
 16484              	.LASF6:
 16485 0a6d 756E7369 		.ascii	"unsigned char\000"
 16485      676E6564 
 16485      20636861 
 16485      7200
 16486              	.LASF75:
 16487 0a7b 5F737464 		.ascii	"_stdout\000"
 16487      6F757400 
 16488              	.LASF306:
 16489 0a83 4649464F 		.ascii	"FIFO\000"
 16489      00
 16490              	.LASF327:
ARM GAS  C:\Users\PCHAUT~1\AppData\Local\Temp\ccJuO4y2.s 			page 299


 16491 0a88 74625F62 		.ascii	"tb_buffer\000"
 16491      75666665 
 16491      7200
 16492              	.LASF496:
 16493 0a92 74787175 		.ascii	"txqueue\000"
 16493      65756500 
 16494              	.LASF350:
 16495 0a9a 735F636E 		.ascii	"s_cnt\000"
 16495      7400
 16496              	.LASF175:
 16497 0aa0 72656164 		.ascii	"ready_list_t\000"
 16497      795F6C69 
 16497      73745F74 
 16497      00
 16498              	.LASF148:
 16499 0aad 63685F74 		.ascii	"ch_thread\000"
 16499      68726561 
 16499      6400
 16500              	.LASF584:
 16501 0ab7 4F504D4F 		.ascii	"OPMODE_SMBUS_HOST\000"
 16501      44455F53 
 16501      4D425553 
 16501      5F484F53 
 16501      5400
 16502              	.LASF117:
 16503 0ac9 5F6D6273 		.ascii	"_mbsrtowcs_state\000"
 16503      72746F77 
 16503      63735F73 
 16503      74617465 
 16503      00
 16504              	.LASF702:
 16505 0ada 75736265 		.ascii	"usbep_t\000"
 16505      705F7400 
 16506              	.LASF845:
 16507 0ae2 65703073 		.ascii	"ep0setup_buffer\000"
 16507      65747570 
 16507      5F627566 
 16507      66657200 
 16508              	.LASF285:
 16509 0af2 41484233 		.ascii	"AHB3LPENR\000"
 16509      4C50454E 
 16509      5200
 16510              	.LASF32:
 16511 0afc 5F776473 		.ascii	"_wds\000"
 16511      00
 16512              	.LASF535:
 16513 0b01 4558545F 		.ascii	"EXT_UNINIT\000"
 16513      554E494E 
 16513      495400
 16514              	.LASF493:
 16515 0b0c 43414E5F 		.ascii	"CAN_SLEEP\000"
 16515      534C4545 
 16515      5000
 16516              	.LASF323:
 16517 0b16 73655F73 		.ascii	"se_state\000"
 16517      74617465 
 16517      00
ARM GAS  C:\Users\PCHAUT~1\AppData\Local\Temp\ccJuO4y2.s 			page 300


 16518              	.LASF54:
 16519 0b1f 5F73697A 		.ascii	"_size\000"
 16519      6500
 16520              	.LASF671:
 16521 0b25 53444344 		.ascii	"SDCD1\000"
 16521      3100
 16522              	.LASF194:
 16523 0b2b 73797374 		.ascii	"system_debug_t\000"
 16523      656D5F64 
 16523      65627567 
 16523      5F7400
 16524              	.LASF252:
 16525 0b3a 44485238 		.ascii	"DHR8R1\000"
 16525      523100
 16526              	.LASF255:
 16527 0b41 44485238 		.ascii	"DHR8R2\000"
 16527      523200
 16528              	.LASF557:
 16529 0b48 44494552 		.ascii	"DIER\000"
 16529      00
 16530              	.LASF284:
 16531 0b4d 41484232 		.ascii	"AHB2LPENR\000"
 16531      4C50454E 
 16531      5200
 16532              	.LASF152:
 16533 0b57 705F6374 		.ascii	"p_ctx\000"
 16533      7800
 16534              	.LASF190:
 16535 0b5d 76745F70 		.ascii	"vt_par\000"
 16535      617200
 16536              	.LASF211:
 16537 0b64 4A4F4652 		.ascii	"JOFR1\000"
 16537      3100
 16538              	.LASF212:
 16539 0b6a 4A4F4652 		.ascii	"JOFR2\000"
 16539      3200
 16540              	.LASF214:
 16541 0b70 4A4F4652 		.ascii	"JOFR4\000"
 16541      3400
 16542              	.LASF61:
 16543 0b76 5F777269 		.ascii	"_write\000"
 16543      746500
 16544              	.LASF310:
 16545 0b7d 54584352 		.ascii	"TXCRCR\000"
 16545      435200
 16546              	.LASF862:
 16547 0b84 7573625F 		.ascii	"usb_lld_read_setup\000"
 16547      6C6C645F 
 16547      72656164 
 16547      5F736574 
 16547      757000
 16548              	.LASF528:
 16549 0b97 64616364 		.ascii	"dacdhrmode_t\000"
 16549      68726D6F 
 16549      64655F74 
 16549      00
 16550              	.LASF470:
ARM GAS  C:\Users\PCHAUT~1\AppData\Local\Temp\ccJuO4y2.s 			page 301


 16551 0ba4 646D6173 		.ascii	"dmastp\000"
 16551      747000
 16552              	.LASF588:
 16553 0bab 46415354 		.ascii	"FAST_DUTY_CYCLE_16_9\000"
 16553      5F445554 
 16553      595F4359 
 16553      434C455F 
 16553      31365F39 
 16554              	.LASF885:
 16555 0bc0 6F74675F 		.ascii	"otg_do_pop\000"
 16555      646F5F70 
 16555      6F7000
 16556              	.LASF858:
 16557 0bcb 7573625F 		.ascii	"usb_lld_start_out\000"
 16557      6C6C645F 
 16557      73746172 
 16557      745F6F75 
 16557      7400
 16558              	.LASF920:
 16559 0bdd 2E2E2F6C 		.ascii	"../lib/e-puck2_main-processor/ChibiOS//os/hal/ports"
 16559      69622F65 
 16559      2D707563 
 16559      6B325F6D 
 16559      61696E2D 
 16560 0c10 2F53544D 		.ascii	"/STM32/LLD/OTGv1/usb_lld.c\000"
 16560      33322F4C 
 16560      4C442F4F 
 16560      54477631 
 16560      2F757362 
 16561              	.LASF133:
 16562 0c2b 75696E74 		.ascii	"uint64_t\000"
 16562      36345F74 
 16562      00
 16563              	.LASF337:
 16564 0c34 6E5F6374 		.ascii	"n_ctxswc\000"
 16564      78737763 
 16564      00
 16565              	.LASF375:
 16566 0c3d 63685F64 		.ascii	"ch_debug\000"
 16566      65627567 
 16566      00
 16567              	.LASF531:
 16568 0c46 696E6974 		.ascii	"init\000"
 16568      00
 16569              	.LASF239:
 16570 0c4b 464D3152 		.ascii	"FM1R\000"
 16570      00
 16571              	.LASF447:
 16572 0c50 50414C43 		.ascii	"PALConfig\000"
 16572      6F6E6669 
 16572      6700
 16573              	.LASF819:
 16574 0c5a 7478636E 		.ascii	"txcnt\000"
 16574      7400
 16575              	.LASF733:
 16576 0c60 75736265 		.ascii	"usbeventcb_t\000"
 16576      76656E74 
ARM GAS  C:\Users\PCHAUT~1\AppData\Local\Temp\ccJuO4y2.s 			page 302


 16576      63625F74 
 16576      00
 16577              	.LASF409:
 16578 0c6d 424C4B5F 		.ascii	"BLK_ACTIVE\000"
 16578      41435449 
 16578      564500
 16579              	.LASF40:
 16580 0c78 5F5F746D 		.ascii	"__tm_year\000"
 16580      5F796561 
 16580      7200
 16581              	.LASF377:
 16582 0c82 6576656E 		.ascii	"event_listener_t\000"
 16582      745F6C69 
 16582      7374656E 
 16582      65725F74 
 16582      00
 16583              	.LASF811:
 16584 0c93 6F74675F 		.ascii	"otg_ram_size\000"
 16584      72616D5F 
 16584      73697A65 
 16584      00
 16585              	.LASF896:
 16586 0ca0 6F74675F 		.ascii	"otg_core_reset\000"
 16586      636F7265 
 16586      5F726573 
 16586      657400
 16587              	.LASF813:
 16588 0caf 73746D33 		.ascii	"stm32_otg_params_t\000"
 16588      325F6F74 
 16588      675F7061 
 16588      72616D73 
 16588      5F7400
 16589              	.LASF806:
 16590 0cc2 72657376 		.ascii	"resvdD00\000"
 16590      64443030 
 16590      00
 16591              	.LASF309:
 16592 0ccb 52584352 		.ascii	"RXCRCR\000"
 16592      435200
 16593              	.LASF822:
 16594 0cd2 72786275 		.ascii	"rxbuf\000"
 16594      6600
 16595              	.LASF100:
 16596 0cd8 5F6D756C 		.ascii	"_mult\000"
 16596      7400
 16597              	.LASF351:
 16598 0cde 63685F6D 		.ascii	"ch_mutex\000"
 16598      75746578 
 16598      00
 16599              	.LASF893:
 16600 0ce7 6669666F 		.ascii	"fifo\000"
 16600      00
 16601              	.LASF499:
 16602 0cec 7478656D 		.ascii	"txempty_event\000"
 16602      7074795F 
 16602      6576656E 
 16602      7400
ARM GAS  C:\Users\PCHAUT~1\AppData\Local\Temp\ccJuO4y2.s 			page 303


 16603              	.LASF274:
 16604 0cfa 41484232 		.ascii	"AHB2RSTR\000"
 16604      52535452 
 16604      00
 16605              	.LASF621:
 16606 0d03 50574D44 		.ascii	"PWMDriver\000"
 16606      72697665 
 16606      7200
 16607              	.LASF444:
 16608 0d0d 50474461 		.ascii	"PGData\000"
 16608      746100
 16609              	.LASF630:
 16610 0d14 50574D43 		.ascii	"PWMConfig\000"
 16610      6F6E6669 
 16610      6700
 16611              	.LASF115:
 16612 0d1e 5F6D6272 		.ascii	"_mbrlen_state\000"
 16612      6C656E5F 
 16612      73746174 
 16612      6500
 16613              	.LASF924:
 16614 0d2c 76616C75 		.ascii	"value\000"
 16614      6500
 16615              	.LASF365:
 16616 0d32 63665F6F 		.ascii	"cf_off_newer\000"
 16616      66665F6E 
 16616      65776572 
 16616      00
 16617              	.LASF791:
 16618 0d3f 44494550 		.ascii	"DIEPMSK\000"
 16618      4D534B00 
 16619              	.LASF758:
 16620 0d47 474F5447 		.ascii	"GOTGINT\000"
 16620      494E5400 
 16621              	.LASF830:
 16622 0d4f 6F75745F 		.ascii	"out_cb\000"
 16622      636200
 16623              	.LASF782:
 16624 0d56 4841494E 		.ascii	"HAINTMSK\000"
 16624      544D534B 
 16624      00
 16625              	.LASF688:
 16626 0d5f 6F75745F 		.ascii	"out_params\000"
 16626      70617261 
 16626      6D7300
 16627              	.LASF322:
 16628 0d6a 73655F77 		.ascii	"se_wtobjp\000"
 16628      746F626A 
 16628      7000
 16629              	.LASF218:
 16630 0d74 4A535152 		.ascii	"JSQR\000"
 16630      00
 16631              	.LASF853:
 16632 0d79 7573625F 		.ascii	"usb_lld_clear_in\000"
 16632      6C6C645F 
 16632      636C6561 
 16632      725F696E 
ARM GAS  C:\Users\PCHAUT~1\AppData\Local\Temp\ccJuO4y2.s 			page 304


 16632      00
 16633              	.LASF74:
 16634 0d8a 5F737464 		.ascii	"_stdin\000"
 16634      696E00
 16635              	.LASF122:
 16636 0d91 5F6E6D61 		.ascii	"_nmalloc\000"
 16636      6C6C6F63 
 16636      00
 16637              	.LASF569:
 16638 0d9a 64696572 		.ascii	"dier\000"
 16638      00
 16639              	.LASF666:
 16640 0d9f 69735F70 		.ascii	"is_protected\000"
 16640      726F7465 
 16640      63746564 
 16640      00
 16641              	.LASF184:
 16642 0dac 76697274 		.ascii	"virtual_timer_t\000"
 16642      75616C5F 
 16642      74696D65 
 16642      725F7400 
 16643              	.LASF832:
 16644 0dbc 6F75745F 		.ascii	"out_maxsize\000"
 16644      6D617873 
 16644      697A6500 
 16645              	.LASF179:
 16646 0dc8 725F6374 		.ascii	"r_ctx\000"
 16646      7800
 16647              	.LASF186:
 16648 0dce 76745F6E 		.ascii	"vt_next\000"
 16648      65787400 
 16649              	.LASF603:
 16650 0dd6 4932535F 		.ascii	"I2S_STOP\000"
 16650      53544F50 
 16650      00
 16651              	.LASF618:
 16652 0ddf 50574D5F 		.ascii	"PWM_STOP\000"
 16652      53544F50 
 16652      00
 16653              	.LASF134:
 16654 0de8 7274636E 		.ascii	"rtcnt_t\000"
 16654      745F7400 
 16655              	.LASF469:
 16656 0df0 6D757465 		.ascii	"mutex\000"
 16656      7800
 16657              	.LASF612:
 16658 0df6 73697A65 		.ascii	"size\000"
 16658      00
 16659              	.LASF517:
 16660 0dfb 44414344 		.ascii	"DACDriver\000"
 16660      72697665 
 16660      7200
 16661              	.LASF533:
 16662 0e05 44414343 		.ascii	"DACConfig\000"
 16662      6F6E6669 
 16662      6700
 16663              	.LASF699:
ARM GAS  C:\Users\PCHAUT~1\AppData\Local\Temp\ccJuO4y2.s 			page 305


 16664 0e0f 74787065 		.ascii	"txpending\000"
 16664      6E64696E 
 16664      6700
 16665              	.LASF554:
 16666 0e19 636C6F63 		.ascii	"clock\000"
 16666      6B00
 16667              	.LASF421:
 16668 0e1f 636C6561 		.ascii	"clear\000"
 16668      7200
 16669              	.LASF564:
 16670 0e25 43435852 		.ascii	"CCXR\000"
 16670      00
 16671              	.LASF248:
 16672 0e2a 43414E5F 		.ascii	"CAN_TypeDef\000"
 16672      54797065 
 16672      44656600 
 16673              	.LASF18:
 16674 0e36 5F6F6666 		.ascii	"_off_t\000"
 16674      5F7400
 16675              	.LASF324:
 16676 0e3d 63685F73 		.ascii	"ch_swc_event_t\000"
 16676      77635F65 
 16676      76656E74 
 16676      5F7400
 16677              	.LASF636:
 16678 0e4c 53445F53 		.ascii	"SD_STOP\000"
 16678      544F5000 
 16679              	.LASF737:
 16680 0e54 72657376 		.ascii	"resvd8\000"
 16680      643800
 16681              	.LASF4:
 16682 0e5b 73697A65 		.ascii	"size_t\000"
 16682      5F7400
 16683              	.LASF105:
 16684 0e62 5F6C6F63 		.ascii	"_localtime_buf\000"
 16684      616C7469 
 16684      6D655F62 
 16684      756600
 16685              	.LASF804:
 16686 0e71 72657376 		.ascii	"resvd880\000"
 16686      64383830 
 16686      00
 16687              	.LASF23:
 16688 0e7a 5F5F636F 		.ascii	"__count\000"
 16688      756E7400 
 16689              	.LASF128:
 16690 0e82 75696E74 		.ascii	"uint8_t\000"
 16690      385F7400 
 16691              	.LASF741:
 16692 0e8a 72657376 		.ascii	"resvd14\000"
 16692      64313400 
 16693              	.LASF489:
 16694 0e92 43414E5F 		.ascii	"CAN_UNINIT\000"
 16694      554E494E 
 16694      495400
 16695              	.LASF742:
 16696 0e9d 72657376 		.ascii	"resvd18\000"
ARM GAS  C:\Users\PCHAUT~1\AppData\Local\Temp\ccJuO4y2.s 			page 306


 16696      64313800 
 16697              	.LASF181:
 16698 0ea5 725F6F6C 		.ascii	"r_older\000"
 16698      64657200 
 16699              	.LASF150:
 16700 0ead 705F7072 		.ascii	"p_prev\000"
 16700      657600
 16701              	.LASF367:
 16702 0eb4 63665F6F 		.ascii	"cf_off_name\000"
 16702      66665F6E 
 16702      616D6500 
 16703              	.LASF629:
 16704 0ec0 50574D43 		.ascii	"PWMChannelConfig\000"
 16704      68616E6E 
 16704      656C436F 
 16704      6E666967 
 16704      00
 16705              	.LASF628:
 16706 0ed1 70776D63 		.ascii	"pwmcnt_t\000"
 16706      6E745F74 
 16706      00
 16707              	.LASF800:
 16708 0eda 44494550 		.ascii	"DIEPEMPMSK\000"
 16708      454D504D 
 16708      534B00
 16709              	.LASF710:
 16710 0ee5 45505F53 		.ascii	"EP_STATUS_STALLED\000"
 16710      54415455 
 16710      535F5354 
 16710      414C4C45 
 16710      4400
 16711              	.LASF745:
 16712 0ef7 44494550 		.ascii	"DIEPCTL\000"
 16712      43544C00 
 16713              	.LASF383:
 16714 0eff 656C5F77 		.ascii	"el_wflags\000"
 16714      666C6167 
 16714      7300
 16715              	.LASF697:
 16716 0f09 6F746770 		.ascii	"otgparams\000"
 16716      6172616D 
 16716      7300
 16717              	.LASF325:
 16718 0f13 74625F73 		.ascii	"tb_size\000"
 16718      697A6500 
 16719              	.LASF441:
 16720 0f1b 50444461 		.ascii	"PDData\000"
 16720      746100
 16721              	.LASF661:
 16722 0f22 73637261 		.ascii	"scratchpad\000"
 16722      74636870 
 16722      616400
 16723              	.LASF884:
 16724 0f2d 6F74675F 		.ascii	"otg_txfifo_handler\000"
 16724      74786669 
 16724      666F5F68 
 16724      616E646C 
ARM GAS  C:\Users\PCHAUT~1\AppData\Local\Temp\ccJuO4y2.s 			page 307


 16724      657200
 16725              	.LASF88:
 16726 0f40 5F637674 		.ascii	"_cvtbuf\000"
 16726      62756600 
 16727              	.LASF834:
 16728 0f48 6F75745F 		.ascii	"out_state\000"
 16728      73746174 
 16728      6500
 16729              	.LASF387:
 16730 0f52 696F5F71 		.ascii	"io_queue_t\000"
 16730      75657565 
 16730      5F7400
 16731              	.LASF871:
 16732 0f5d 7573625F 		.ascii	"usb_lld_start\000"
 16732      6C6C645F 
 16732      73746172 
 16732      7400
 16733              	.LASF677:
 16734 0f6b 73706973 		.ascii	"spistate_t\000"
 16734      74617465 
 16734      5F7400
 16735              	.LASF574:
 16736 0f76 4932435F 		.ascii	"I2C_STOP\000"
 16736      53544F50 
 16736      00
 16737              	.LASF596:
 16738 0f7f 61646472 		.ascii	"addr\000"
 16738      00
 16739              	.LASF899:
 16740 0f84 6F73616C 		.ascii	"osalThreadSuspendS\000"
 16740      54687265 
 16740      61645375 
 16740      7370656E 
 16740      645300
 16741              	.LASF233:
 16742 0f97 52463052 		.ascii	"RF0R\000"
 16742      00
 16743              	.LASF909:
 16744 0f9c 63685468 		.ascii	"chThdStartI\000"
 16744      64537461 
 16744      72744900 
 16745              	.LASF459:
 16746 0fa8 4144435F 		.ascii	"ADC_ERR_DMAFAILURE\000"
 16746      4552525F 
 16746      444D4146 
 16746      41494C55 
 16746      524500
 16747              	.LASF675:
 16748 0fbb 5350495F 		.ascii	"SPI_ACTIVE\000"
 16748      41435449 
 16748      564500
 16749              	.LASF314:
 16750 0fc6 47545052 		.ascii	"GTPR\000"
 16750      00
 16751              	.LASF543:
 16752 0fcb 45585443 		.ascii	"EXTChannelConfig\000"
 16752      68616E6E 
ARM GAS  C:\Users\PCHAUT~1\AppData\Local\Temp\ccJuO4y2.s 			page 308


 16752      656C436F 
 16752      6E666967 
 16752      00
 16753              	.LASF424:
 16754 0fdc 4F535045 		.ascii	"OSPEEDR\000"
 16754      45445200 
 16755              	.LASF507:
 16756 0fe4 4441435F 		.ascii	"DAC_READY\000"
 16756      52454144 
 16756      5900
 16757              	.LASF769:
 16758 0fee 72657376 		.ascii	"resvd30\000"
 16758      64333000 
 16759              	.LASF22:
 16760 0ff6 5F5F7763 		.ascii	"__wchb\000"
 16760      686200
 16761              	.LASF116:
 16762 0ffd 5F6D6272 		.ascii	"_mbrtowc_state\000"
 16762      746F7763 
 16762      5F737461 
 16762      746500
 16763              	.LASF798:
 16764 100c 44564255 		.ascii	"DVBUSPULSE\000"
 16764      5350554C 
 16764      534500
 16765              	.LASF889:
 16766 1017 6F74675F 		.ascii	"otg_ram_alloc\000"
 16766      72616D5F 
 16766      616C6C6F 
 16766      6300
 16767              	.LASF37:
 16768 1025 5F5F746D 		.ascii	"__tm_hour\000"
 16768      5F686F75 
 16768      7200
 16769              	.LASF408:
 16770 102f 424C4B5F 		.ascii	"BLK_STOP\000"
 16770      53544F50 
 16770      00
 16771              	.LASF644:
 16772 1038 53657269 		.ascii	"SerialDriverVMT\000"
 16772      616C4472 
 16772      69766572 
 16772      564D5400 
 16773              	.LASF719:
 16774 1048 5553425F 		.ascii	"USB_EP0_ERROR\000"
 16774      4550305F 
 16774      4552524F 
 16774      5200
 16775              	.LASF20:
 16776 1056 77696E74 		.ascii	"wint_t\000"
 16776      5F7400
 16777              	.LASF667:
 16778 105d 636F6E6E 		.ascii	"connect\000"
 16778      65637400 
 16779              	.LASF89:
 16780 1065 5F6E6577 		.ascii	"_new\000"
 16780      00
ARM GAS  C:\Users\PCHAUT~1\AppData\Local\Temp\ccJuO4y2.s 			page 309


 16781              	.LASF462:
 16782 106a 41444344 		.ascii	"ADCDriver\000"
 16782      72697665 
 16782      7200
 16783              	.LASF812:
 16784 1074 6E756D5F 		.ascii	"num_endpoints\000"
 16784      656E6470 
 16784      6F696E74 
 16784      7300
 16785              	.LASF485:
 16786 1082 41444343 		.ascii	"ADCConfig\000"
 16786      6F6E6669 
 16786      6700
 16787              	.LASF820:
 16788 108c 746F7473 		.ascii	"totsize\000"
 16788      697A6500 
 16789              	.LASF96:
 16790 1094 5F6E696F 		.ascii	"_niobs\000"
 16790      627300
 16791              	.LASF368:
 16792 109b 63665F6F 		.ascii	"cf_off_stklimit\000"
 16792      66665F73 
 16792      746B6C69 
 16792      6D697400 
 16793              	.LASF637:
 16794 10ab 53445F52 		.ascii	"SD_READY\000"
 16794      45414459 
 16794      00
 16795              	.LASF735:
 16796 10b4 75736267 		.ascii	"usbgetdescriptor_t\000"
 16796      65746465 
 16796      73637269 
 16796      70746F72 
 16796      5F7400
 16797              	.LASF510:
 16798 10c7 4441435F 		.ascii	"DAC_ERROR\000"
 16798      4552524F 
 16798      5200
 16799              	.LASF182:
 16800 10d1 725F6375 		.ascii	"r_current\000"
 16800      7272656E 
 16800      7400
 16801              	.LASF73:
 16802 10db 5F657272 		.ascii	"_errno\000"
 16802      6E6F00
 16803              	.LASF714:
 16804 10e2 5553425F 		.ascii	"USB_EP0_TX\000"
 16804      4550305F 
 16804      545800
 16805              	.LASF689:
 16806 10ed 65703073 		.ascii	"ep0state\000"
 16806      74617465 
 16806      00
 16807              	.LASF38:
 16808 10f6 5F5F746D 		.ascii	"__tm_mday\000"
 16808      5F6D6461 
 16808      7900
ARM GAS  C:\Users\PCHAUT~1\AppData\Local\Temp\ccJuO4y2.s 			page 310


 16809              	.LASF401:
 16810 1100 69666372 		.ascii	"ifcr\000"
 16810      00
 16811              	.LASF922:
 16812 1105 56656374 		.ascii	"Vector14C\000"
 16812      6F723134 
 16812      4300
 16813              	.LASF602:
 16814 110f 4932535F 		.ascii	"I2S_UNINIT\000"
 16814      554E494E 
 16814      495400
 16815              	.LASF430:
 16816 111a 73746D33 		.ascii	"stm32_gpio_t\000"
 16816      325F6770 
 16816      696F5F74 
 16816      00
 16817              	.LASF341:
 16818 1127 7264796D 		.ascii	"rdymsg\000"
 16818      736700
 16819              	.LASF45:
 16820 112e 5F666E61 		.ascii	"_fnargs\000"
 16820      72677300 
 16821              	.LASF619:
 16822 1136 50574D5F 		.ascii	"PWM_READY\000"
 16822      52454144 
 16822      5900
 16823              	.LASF224:
 16824 1140 54445452 		.ascii	"TDTR\000"
 16824      00
 16825              	.LASF232:
 16826 1145 43414E5F 		.ascii	"CAN_FilterRegister_TypeDef\000"
 16826      46696C74 
 16826      65725265 
 16826      67697374 
 16826      65725F54 
 16827              	.LASF500:
 16828 1160 6572726F 		.ascii	"error_event\000"
 16828      725F6576 
 16828      656E7400 
 16829              	.LASF475:
 16830 116c 6E756D5F 		.ascii	"num_channels\000"
 16830      6368616E 
 16830      6E656C73 
 16830      00
 16831              	.LASF213:
 16832 1179 4A4F4652 		.ascii	"JOFR3\000"
 16832      3300
 16833              	.LASF772:
 16834 117f 72657376 		.ascii	"resvd58\000"
 16834      64353800 
 16835              	.LASF821:
 16836 1187 55534249 		.ascii	"USBInEndpointState\000"
 16836      6E456E64 
 16836      706F696E 
 16836      74537461 
 16836      746500
 16837              	.LASF151:
ARM GAS  C:\Users\PCHAUT~1\AppData\Local\Temp\ccJuO4y2.s 			page 311


 16838 119a 705F7072 		.ascii	"p_prio\000"
 16838      696F00
 16839              	.LASF388:
 16840 11a1 696F5F71 		.ascii	"io_queue\000"
 16840      75657565 
 16840      00
 16841              	.LASF438:
 16842 11aa 50414461 		.ascii	"PAData\000"
 16842      746100
 16843              	.LASF15:
 16844 11b1 5F5F7569 		.ascii	"__uint64_t\000"
 16844      6E743634 
 16844      5F7400
 16845              	.LASF855:
 16846 11bc 7573625F 		.ascii	"usb_lld_stall_in\000"
 16846      6C6C645F 
 16846      7374616C 
 16846      6C5F696E 
 16846      00
 16847              	.LASF29:
 16848 11cd 5F6E6578 		.ascii	"_next\000"
 16848      7400
 16849              	.LASF624:
 16850 11d3 70776D63 		.ascii	"pwmcallback_t\000"
 16850      616C6C62 
 16850      61636B5F 
 16850      7400
 16851              	.LASF518:
 16852 11e1 70617261 		.ascii	"params\000"
 16852      6D7300
 16853              	.LASF718:
 16854 11e8 5553425F 		.ascii	"USB_EP0_SENDING_STS\000"
 16854      4550305F 
 16854      53454E44 
 16854      494E475F 
 16854      53545300 
 16855              	.LASF113:
 16856 11fc 5F736967 		.ascii	"_signal_buf\000"
 16856      6E616C5F 
 16856      62756600 
 16857              	.LASF579:
 16858 1208 69326373 		.ascii	"i2cstate_t\000"
 16858      74617465 
 16858      5F7400
 16859              	.LASF59:
 16860 1213 5F636F6F 		.ascii	"_cookie\000"
 16860      6B696500 
 16861              	.LASF897:
 16862 121b 6F73616C 		.ascii	"osalThreadDequeueAllI\000"
 16862      54687265 
 16862      61644465 
 16862      71756575 
 16862      65416C6C 
 16863              	.LASF720:
 16864 1231 75736265 		.ascii	"usbep0state_t\000"
 16864      70307374 
 16864      6174655F 
ARM GAS  C:\Users\PCHAUT~1\AppData\Local\Temp\ccJuO4y2.s 			page 312


 16864      7400
 16865              	.LASF522:
 16866 123f 64616365 		.ascii	"dacerror_t\000"
 16866      72726F72 
 16866      5F7400
 16867              	.LASF236:
 16868 124a 7354784D 		.ascii	"sTxMailBox\000"
 16868      61696C42 
 16868      6F7800
 16869              	.LASF457:
 16870 1255 61646373 		.ascii	"adcsample_t\000"
 16870      616D706C 
 16870      655F7400 
 16871              	.LASF555:
 16872 1261 67707463 		.ascii	"gptcallback_t\000"
 16872      616C6C62 
 16872      61636B5F 
 16872      7400
 16873              	.LASF391:
 16874 126f 715F6275 		.ascii	"q_buffer\000"
 16874      66666572 
 16874      00
 16875              	.LASF277:
 16876 1278 41504232 		.ascii	"APB2RSTR\000"
 16876      52535452 
 16876      00
 16877              	.LASF149:
 16878 1281 705F6E65 		.ascii	"p_next\000"
 16878      787400
 16879              	.LASF601:
 16880 1288 49324344 		.ascii	"I2CD1\000"
 16880      3100
 16881              	.LASF746:
 16882 128e 72657376 		.ascii	"resvd4\000"
 16882      643400
 16883              	.LASF684:
 16884 1295 55534244 		.ascii	"USBDriver\000"
 16884      72697665 
 16884      7200
 16885              	.LASF805:
 16886 129f 72657376 		.ascii	"resvd8C0\000"
 16886      64384330 
 16886      00
 16887              	.LASF842:
 16888 12a8 55534243 		.ascii	"USBConfig\000"
 16888      6F6E6669 
 16888      6700
 16889              	.LASF748:
 16890 12b2 72657376 		.ascii	"resvdC\000"
 16890      644300
 16891              	.LASF631:
 16892 12b9 50574D44 		.ascii	"PWMD2\000"
 16892      3200
 16893              	.LASF632:
 16894 12bf 50574D44 		.ascii	"PWMD3\000"
 16894      3300
 16895              	.LASF633:
ARM GAS  C:\Users\PCHAUT~1\AppData\Local\Temp\ccJuO4y2.s 			page 313


 16896 12c5 50574D44 		.ascii	"PWMD4\000"
 16896      3400
 16897              	.LASF634:
 16898 12cb 50574D44 		.ascii	"PWMD5\000"
 16898      3500
 16899              	.LASF286:
 16900 12d1 41504231 		.ascii	"APB1LPENR\000"
 16900      4C50454E 
 16900      5200
 16901              	.LASF642:
 16902 12db 6F717565 		.ascii	"oqueue\000"
 16902      756500
 16903              	.LASF138:
 16904 12e2 74726566 		.ascii	"trefs_t\000"
 16904      735F7400 
 16905              	.LASF168:
 16906 12ea 705F6D70 		.ascii	"p_mpool\000"
 16906      6F6F6C00 
 16907              	.LASF270:
 16908 12f2 4932435F 		.ascii	"I2C_TypeDef\000"
 16908      54797065 
 16908      44656600 
 16909              	.LASF892:
 16910 12fe 6F74675F 		.ascii	"otg_txfifo_flush\000"
 16910      74786669 
 16910      666F5F66 
 16910      6C757368 
 16910      00
 16911              	.LASF530:
 16912 130f 44414343 		.ascii	"DACConversionGroup\000"
 16912      6F6E7665 
 16912      7273696F 
 16912      6E47726F 
 16912      757000
 16913              	.LASF35:
 16914 1322 5F5F746D 		.ascii	"__tm_sec\000"
 16914      5F736563 
 16914      00
 16915              	.LASF835:
 16916 132b 696E5F6D 		.ascii	"in_multiplier\000"
 16916      756C7469 
 16916      706C6965 
 16916      7200
 16917              	.LASF455:
 16918 1339 4144435F 		.ascii	"ADC_ERROR\000"
 16918      4552524F 
 16918      5200
 16919              	.LASF44:
 16920 1343 5F6F6E5F 		.ascii	"_on_exit_args\000"
 16920      65786974 
 16920      5F617267 
 16920      7300
 16921              	.LASF318:
 16922 1351 636F6E74 		.ascii	"context\000"
 16922      65787400 
 16923              	.LASF136:
 16924 1359 746D6F64 		.ascii	"tmode_t\000"
ARM GAS  C:\Users\PCHAUT~1\AppData\Local\Temp\ccJuO4y2.s 			page 314


 16924      655F7400 
 16925              	.LASF280:
 16926 1361 41484233 		.ascii	"AHB3ENR\000"
 16926      454E5200 
 16927              	.LASF453:
 16928 1369 4144435F 		.ascii	"ADC_ACTIVE\000"
 16928      41435449 
 16928      564500
 16929              	.LASF215:
 16930 1374 53515231 		.ascii	"SQR1\000"
 16930      00
 16931              	.LASF216:
 16932 1379 53515232 		.ascii	"SQR2\000"
 16932      00
 16933              	.LASF217:
 16934 137e 53515233 		.ascii	"SQR3\000"
 16934      00
 16935              	.LASF426:
 16936 1383 42535252 		.ascii	"BSRR\000"
 16936      00
 16937              	.LASF405:
 16938 1388 73746D33 		.ascii	"stm32_dma_stream_t\000"
 16938      325F646D 
 16938      615F7374 
 16938      7265616D 
 16938      5F7400
 16939              	.LASF840:
 16940 139b 72657175 		.ascii	"requests_hook_cb\000"
 16940      65737473 
 16940      5F686F6F 
 16940      6B5F6362 
 16940      00
 16941              	.LASF118:
 16942 13ac 5F776372 		.ascii	"_wcrtomb_state\000"
 16942      746F6D62 
 16942      5F737461 
 16942      746500
 16943              	.LASF653:
 16944 13bb 5344435F 		.ascii	"SDC_MODE_8BIT\000"
 16944      4D4F4445 
 16944      5F384249 
 16944      5400
 16945              	.LASF818:
 16946 13c9 74787369 		.ascii	"txsize\000"
 16946      7A6500
 16947              	.LASF526:
 16948 13d0 4441435F 		.ascii	"DAC_DHRM_12BIT_LEFT\000"
 16948      4448524D 
 16948      5F313242 
 16948      49545F4C 
 16948      45465400 
 16949              	.LASF622:
 16950 13e4 70657269 		.ascii	"period\000"
 16950      6F6400
 16951              	.LASF352:
 16952 13eb 6D5F7175 		.ascii	"m_queue\000"
 16952      65756500 
ARM GAS  C:\Users\PCHAUT~1\AppData\Local\Temp\ccJuO4y2.s 			page 315


 16953              	.LASF868:
 16954 13f3 7573625F 		.ascii	"usb_lld_set_address\000"
 16954      6C6C645F 
 16954      7365745F 
 16954      61646472 
 16954      65737300 
 16955              	.LASF578:
 16956 1407 4932435F 		.ascii	"I2C_LOCKED\000"
 16956      4C4F434B 
 16956      454400
 16957              	.LASF197:
 16958 1412 6973725F 		.ascii	"isr_cnt\000"
 16958      636E7400 
 16959              	.LASF705:
 16960 141a 5553425F 		.ascii	"USB_READY\000"
 16960      52454144 
 16960      5900
 16961              	.LASF650:
 16962 1424 72656164 		.ascii	"readt\000"
 16962      7400
 16963              	.LASF761:
 16964 142a 47525354 		.ascii	"GRSTCTL\000"
 16964      43544C00 
 16965              	.LASF552:
 16966 1432 67707473 		.ascii	"gptstate_t\000"
 16966      74617465 
 16966      5F7400
 16967              	.LASF28:
 16968 143d 5F5F554C 		.ascii	"__ULong\000"
 16968      6F6E6700 
 16969              	.LASF196:
 16970 1445 70616E69 		.ascii	"panic_msg\000"
 16970      635F6D73 
 16970      6700
 16971              	.LASF676:
 16972 144f 5350495F 		.ascii	"SPI_COMPLETE\000"
 16972      434F4D50 
 16972      4C455445 
 16972      00
 16973              	.LASF300:
 16974 145c 4454494D 		.ascii	"DTIMER\000"
 16974      455200
 16975              	.LASF180:
 16976 1463 725F6E65 		.ascii	"r_newer\000"
 16976      77657200 
 16977              	.LASF726:
 16978 146b 5553425F 		.ascii	"USB_EVENT_STALLED\000"
 16978      4556454E 
 16978      545F5354 
 16978      414C4C45 
 16978      4400
 16979              	.LASF278:
 16980 147d 41484231 		.ascii	"AHB1ENR\000"
 16980      454E5200 
 16981              	.LASF374:
 16982 1485 63686465 		.ascii	"chdebug_t\000"
 16982      6275675F 
ARM GAS  C:\Users\PCHAUT~1\AppData\Local\Temp\ccJuO4y2.s 			page 316


 16982      7400
 16983              	.LASF916:
 16984 148f 706F7274 		.ascii	"port_lock_from_isr\000"
 16984      5F6C6F63 
 16984      6B5F6672 
 16984      6F6D5F69 
 16984      737200
 16985              	.LASF824:
 16986 14a2 72787369 		.ascii	"rxsize\000"
 16986      7A6500
 16987              	.LASF865:
 16988 14a9 7573625F 		.ascii	"usb_lld_disable_endpoints\000"
 16988      6C6C645F 
 16988      64697361 
 16988      626C655F 
 16988      656E6470 
 16989              	.LASF740:
 16990 14c3 48435453 		.ascii	"HCTSIZ\000"
 16990      495A00
 16991              	.LASF723:
 16992 14ca 5553425F 		.ascii	"USB_EVENT_CONFIGURED\000"
 16992      4556454E 
 16992      545F434F 
 16992      4E464947 
 16992      55524544 
 16993              	.LASF668:
 16994 14df 64697363 		.ascii	"disconnect\000"
 16994      6F6E6E65 
 16994      637400
 16995              	.LASF647:
 16996 14ea 70757474 		.ascii	"putt\000"
 16996      00
 16997              	.LASF139:
 16998 14ef 74736C69 		.ascii	"tslices_t\000"
 16998      6365735F 
 16998      7400
 16999              	.LASF103:
 17000 14f9 5F737472 		.ascii	"_strtok_last\000"
 17000      746F6B5F 
 17000      6C617374 
 17000      00
 17001              	.LASF361:
 17002 1506 63685F74 		.ascii	"ch_timesize\000"
 17002      696D6573 
 17002      697A6500 
 17003              	.LASF869:
 17004 1512 7573625F 		.ascii	"usb_lld_reset\000"
 17004      6C6C645F 
 17004      72657365 
 17004      7400
 17005              	.LASF272:
 17006 1520 43464752 		.ascii	"CFGR\000"
 17006      00
 17007              	.LASF701:
 17008 1525 77615F70 		.ascii	"wa_pump\000"
 17008      756D7000 
 17009              	.LASF305:
ARM GAS  C:\Users\PCHAUT~1\AppData\Local\Temp\ccJuO4y2.s 			page 317


 17010 152d 4649464F 		.ascii	"FIFOCNT\000"
 17010      434E5400 
 17011              	.LASF386:
 17012 1535 6576656E 		.ascii	"event_source_t\000"
 17012      745F736F 
 17012      75726365 
 17012      5F7400
 17013              	.LASF775:
 17014 1544 72657376 		.ascii	"resvd140\000"
 17014      64313430 
 17014      00
 17015              	.LASF188:
 17016 154d 76745F64 		.ascii	"vt_delta\000"
 17016      656C7461 
 17016      00
 17017              	.LASF863:
 17018 1556 7573625F 		.ascii	"usb_lld_get_status_in\000"
 17018      6C6C645F 
 17018      6765745F 
 17018      73746174 
 17018      75735F69 
 17019              	.LASF99:
 17020 156c 5F736565 		.ascii	"_seed\000"
 17020      6400
 17021              	.LASF326:
 17022 1572 74625F70 		.ascii	"tb_ptr\000"
 17022      747200
 17023              	.LASF529:
 17024 1579 74726967 		.ascii	"trigger\000"
 17024      67657200 
 17025              	.LASF62:
 17026 1581 5F736565 		.ascii	"_seek\000"
 17026      6B00
 17027              	.LASF724:
 17028 1587 5553425F 		.ascii	"USB_EVENT_SUSPEND\000"
 17028      4556454E 
 17028      545F5355 
 17028      5350454E 
 17028      4400
 17029              	.LASF129:
 17030 1599 696E7431 		.ascii	"int16_t\000"
 17030      365F7400 
 17031              	.LASF548:
 17032 15a1 4750545F 		.ascii	"GPT_STOP\000"
 17032      53544F50 
 17032      00
 17033              	.LASF223:
 17034 15aa 4144435F 		.ascii	"ADC_TypeDef\000"
 17034      54797065 
 17034      44656600 
 17035              	.LASF753:
 17036 15b6 444F4550 		.ascii	"DOEPCTL\000"
 17036      43544C00 
 17037              	.LASF10:
 17038 15be 73686F72 		.ascii	"short unsigned int\000"
 17038      7420756E 
 17038      7369676E 
ARM GAS  C:\Users\PCHAUT~1\AppData\Local\Temp\ccJuO4y2.s 			page 318


 17038      65642069 
 17038      6E7400
 17039              	.LASF590:
 17040 15d1 6F705F6D 		.ascii	"op_mode\000"
 17040      6F646500 
 17041              	.LASF3:
 17042 15d9 7369676E 		.ascii	"signed char\000"
 17042      65642063 
 17042      68617200 
 17043              	.LASF627:
 17044 15e5 70776D63 		.ascii	"pwmchnmsk_t\000"
 17044      686E6D73 
 17044      6B5F7400 
 17045              	.LASF160:
 17046 15f1 705F7072 		.ascii	"p_preempt\000"
 17046      65656D70 
 17046      7400
 17047              	.LASF604:
 17048 15fb 4932535F 		.ascii	"I2S_READY\000"
 17048      52454144 
 17048      5900
 17049              	.LASF145:
 17050 1605 75636E74 		.ascii	"ucnt_t\000"
 17050      5F7400
 17051              	.LASF226:
 17052 160c 54444852 		.ascii	"TDHR\000"
 17052      00
 17053              	.LASF867:
 17054 1611 6673697A 		.ascii	"fsize\000"
 17054      6500
 17055              	.LASF451:
 17056 1617 4144435F 		.ascii	"ADC_STOP\000"
 17056      53544F50 
 17056      00
 17057              	.LASF717:
 17058 1620 5553425F 		.ascii	"USB_EP0_RX\000"
 17058      4550305F 
 17058      525800
 17059              	.LASF625:
 17060 162b 70776D6D 		.ascii	"pwmmode_t\000"
 17060      6F64655F 
 17060      7400
 17061              	.LASF694:
 17062 1635 73746174 		.ascii	"status\000"
 17062      757300
 17063              	.LASF301:
 17064 163c 444C454E 		.ascii	"DLEN\000"
 17064      00
 17065              	.LASF290:
 17066 1641 53534347 		.ascii	"SSCGR\000"
 17066      5200
 17067              	.LASF652:
 17068 1647 5344435F 		.ascii	"SDC_MODE_4BIT\000"
 17068      4D4F4445 
 17068      5F344249 
 17068      5400
 17069              	.LASF730:
ARM GAS  C:\Users\PCHAUT~1\AppData\Local\Temp\ccJuO4y2.s 			page 319


 17070 1655 55534244 		.ascii	"USBDescriptor\000"
 17070      65736372 
 17070      6970746F 
 17070      7200
 17071              	.LASF679:
 17072 1663 73706963 		.ascii	"spicallback_t\000"
 17072      616C6C62 
 17072      61636B5F 
 17072      7400
 17073              	.LASF879:
 17074 1671 6669666F 		.ascii	"fifop\000"
 17074      7000
 17075              	.LASF86:
 17076 1677 5F667265 		.ascii	"_freelist\000"
 17076      656C6973 
 17076      7400
 17077              	.LASF695:
 17078 1681 61646472 		.ascii	"address\000"
 17078      65737300 
 17079              	.LASF864:
 17080 1689 7573625F 		.ascii	"usb_lld_get_status_out\000"
 17080      6C6C645F 
 17080      6765745F 
 17080      73746174 
 17080      75735F6F 
 17081              	.LASF163:
 17082 16a0 705F6D73 		.ascii	"p_msgqueue\000"
 17082      67717565 
 17082      756500
 17083              	.LASF371:
 17084 16ab 63665F6F 		.ascii	"cf_off_refs\000"
 17084      66665F72 
 17084      65667300 
 17085              	.LASF369:
 17086 16b7 63665F6F 		.ascii	"cf_off_state\000"
 17086      66665F73 
 17086      74617465 
 17086      00
 17087              	.LASF353:
 17088 16c4 6D5F6F77 		.ascii	"m_owner\000"
 17088      6E657200 
 17089              	.LASF67:
 17090 16cc 5F6F6666 		.ascii	"_offset\000"
 17090      73657400 
 17091              	.LASF208:
 17092 16d4 53797374 		.ascii	"SystemCoreClock\000"
 17092      656D436F 
 17092      7265436C 
 17092      6F636B00 
 17093              	.LASF473:
 17094 16e4 61646365 		.ascii	"adcerrorcallback_t\000"
 17094      72726F72 
 17094      63616C6C 
 17094      6261636B 
 17094      5F7400
 17095              	.LASF904:
 17096 16f7 6F73616C 		.ascii	"osalSysLockFromISR\000"
ARM GAS  C:\Users\PCHAUT~1\AppData\Local\Temp\ccJuO4y2.s 			page 320


 17096      5379734C 
 17096      6F636B46 
 17096      726F6D49 
 17096      535200
 17097              	.LASF508:
 17098 170a 4441435F 		.ascii	"DAC_ACTIVE\000"
 17098      41435449 
 17098      564500
 17099              	.LASF463:
 17100 1715 73746174 		.ascii	"state\000"
 17100      6500
 17101              	.LASF359:
 17102 171b 63685F76 		.ascii	"ch_version\000"
 17102      65727369 
 17102      6F6E00
 17103              	.LASF52:
 17104 1726 5F5F7362 		.ascii	"__sbuf\000"
 17104      756600
 17105              	.LASF660:
 17106 172d 7364696F 		.ascii	"sdio\000"
 17106      00
 17107              	.LASF249:
 17108 1732 53575452 		.ascii	"SWTRIGR\000"
 17108      49475200 
 17109              	.LASF716:
 17110 173a 5553425F 		.ascii	"USB_EP0_WAITING_STS\000"
 17110      4550305F 
 17110      57414954 
 17110      494E475F 
 17110      53545300 
 17111              	.LASF112:
 17112 174e 5F6C3634 		.ascii	"_l64a_buf\000"
 17112      615F6275 
 17112      6600
 17113              	.LASF872:
 17114 1758 7573625F 		.ascii	"usb_lld_init\000"
 17114      6C6C645F 
 17114      696E6974 
 17114      00
 17115              	.LASF230:
 17116 1765 52444852 		.ascii	"RDHR\000"
 17116      00
 17117              	.LASF562:
 17118 176a 444D4152 		.ascii	"DMAR\000"
 17118      00
 17119              	.LASF568:
 17120 176f 63616C6C 		.ascii	"callback\000"
 17120      6261636B 
 17120      00
 17121              	.LASF201:
 17122 1778 63685F73 		.ascii	"ch_system\000"
 17122      79737465 
 17122      6D00
 17123              	.LASF293:
 17124 1782 504F5745 		.ascii	"POWER\000"
 17124      5200
 17125              	.LASF291:
ARM GAS  C:\Users\PCHAUT~1\AppData\Local\Temp\ccJuO4y2.s 			page 321


 17126 1788 504C4C49 		.ascii	"PLLI2SCFGR\000"
 17126      32534346 
 17126      475200
 17127              	.LASF199:
 17128 1793 74726163 		.ascii	"trace_buffer\000"
 17128      655F6275 
 17128      66666572 
 17128      00
 17129              	.LASF104:
 17130 17a0 5F617363 		.ascii	"_asctime_buf\000"
 17130      74696D65 
 17130      5F627566 
 17130      00
 17131              	.LASF527:
 17132 17ad 4441435F 		.ascii	"DAC_DHRM_8BIT_RIGHT\000"
 17132      4448524D 
 17132      5F384249 
 17132      545F5249 
 17132      47485400 
 17133              	.LASF547:
 17134 17c1 4750545F 		.ascii	"GPT_UNINIT\000"
 17134      554E494E 
 17134      495400
 17135              	.LASF873:
 17136 17cc 7573625F 		.ascii	"usb_lld_serve_interrupt\000"
 17136      6C6C645F 
 17136      73657276 
 17136      655F696E 
 17136      74657272 
 17137              	.LASF21:
 17138 17e4 5F5F7763 		.ascii	"__wch\000"
 17138      6800
 17139              	.LASF348:
 17140 17ea 63685F73 		.ascii	"ch_semaphore\000"
 17140      656D6170 
 17140      686F7265 
 17140      00
 17141              	.LASF119:
 17142 17f7 5F776373 		.ascii	"_wcsrtombs_state\000"
 17142      72746F6D 
 17142      62735F73 
 17142      74617465 
 17142      00
 17143              	.LASF888:
 17144 1808 6F74675F 		.ascii	"otg_do_push\000"
 17144      646F5F70 
 17144      75736800 
 17145              	.LASF749:
 17146 1814 44494550 		.ascii	"DIEPTSIZ\000"
 17146      5453495A 
 17146      00
 17147              	.LASF917:
 17148 181d 706F7274 		.ascii	"port_unlock\000"
 17148      5F756E6C 
 17148      6F636B00 
 17149              	.LASF478:
 17150 1829 736D7072 		.ascii	"smpr1\000"
ARM GAS  C:\Users\PCHAUT~1\AppData\Local\Temp\ccJuO4y2.s 			page 322


 17150      3100
 17151              	.LASF479:
 17152 182f 736D7072 		.ascii	"smpr2\000"
 17152      3200
 17153              	.LASF173:
 17154 1835 74687265 		.ascii	"threads_queue_t\000"
 17154      6164735F 
 17154      71756575 
 17154      655F7400 
 17155              	.LASF416:
 17156 1845 626C6B73 		.ascii	"blkstate_t\000"
 17156      74617465 
 17156      5F7400
 17157              	.LASF914:
 17158 1850 63685379 		.ascii	"chSysLock\000"
 17158      734C6F63 
 17158      6B00
 17159              	.LASF161:
 17160 185a 705F7469 		.ascii	"p_time\000"
 17160      6D6500
 17161              	.LASF159:
 17162 1861 705F7265 		.ascii	"p_refs\000"
 17162      667300
 17163              	.LASF827:
 17164 1868 65705F6D 		.ascii	"ep_mode\000"
 17164      6F646500 
 17165              	.LASF626:
 17166 1870 70776D63 		.ascii	"pwmchannel_t\000"
 17166      68616E6E 
 17166      656C5F74 
 17166      00
 17167              	.LASF225:
 17168 187d 54444C52 		.ascii	"TDLR\000"
 17168      00
 17169              	.LASF12:
 17170 1882 6C6F6E67 		.ascii	"long int\000"
 17170      20696E74 
 17170      00
 17171              	.LASF204:
 17172 188b 6D61696E 		.ascii	"mainthread\000"
 17172      74687265 
 17172      616400
 17173              	.LASF691:
 17174 1896 6570306E 		.ascii	"ep0n\000"
 17174      00
 17175              	.LASF808:
 17176 189b 72657376 		.ascii	"resvdE04\000"
 17176      64453034 
 17176      00
 17177              	.LASF580:
 17178 18a4 69326361 		.ascii	"i2caddr_t\000"
 17178      6464725F 
 17178      7400
 17179              	.LASF111:
 17180 18ae 5F776374 		.ascii	"_wctomb_state\000"
 17180      6F6D625F 
 17180      73746174 
ARM GAS  C:\Users\PCHAUT~1\AppData\Local\Temp\ccJuO4y2.s 			page 323


 17180      6500
 17181              	.LASF515:
 17182 18bc 646D6169 		.ascii	"dmairqprio\000"
 17182      72717072 
 17182      696F00
 17183              	.LASF553:
 17184 18c7 47505444 		.ascii	"GPTDriver\000"
 17184      72697665 
 17184      7200
 17185              	.LASF275:
 17186 18d1 41484233 		.ascii	"AHB3RSTR\000"
 17186      52535452 
 17186      00
 17187              	.LASF390:
 17188 18da 715F636F 		.ascii	"q_counter\000"
 17188      756E7465 
 17188      7200
 17189              	.LASF445:
 17190 18e4 50484461 		.ascii	"PHData\000"
 17190      746100
 17191              	.LASF448:
 17192 18eb 696F706F 		.ascii	"ioportid_t\000"
 17192      72746964 
 17192      5F7400
 17193              	.LASF486:
 17194 18f6 41444344 		.ascii	"ADCD1\000"
 17194      3100
 17195              	.LASF487:
 17196 18fc 41444344 		.ascii	"ADCD2\000"
 17196      3200
 17197              	.LASF488:
 17198 1902 41444344 		.ascii	"ADCD3\000"
 17198      3300
 17199              	.LASF776:
 17200 1908 48434647 		.ascii	"HCFG\000"
 17200      00
 17201              	.LASF471:
 17202 190d 646D616D 		.ascii	"dmamode\000"
 17202      6F646500 
 17203              	.LASF334:
 17204 1915 63756D75 		.ascii	"cumulative\000"
 17204      6C617469 
 17204      766500
 17205              	.LASF97:
 17206 1920 5F696F62 		.ascii	"_iobs\000"
 17206      7300
 17207              	.LASF78:
 17208 1926 5F656D65 		.ascii	"_emergency\000"
 17208      7267656E 
 17208      637900
 17209              	.LASF648:
 17210 1931 67657474 		.ascii	"gett\000"
 17210      00
 17211              	.LASF344:
 17212 1936 77747472 		.ascii	"wttrp\000"
 17212      7000
 17213              	.LASF394:
ARM GAS  C:\Users\PCHAUT~1\AppData\Local\Temp\ccJuO4y2.s 			page 324


 17214 193c 715F7264 		.ascii	"q_rdptr\000"
 17214      70747200 
 17215              	.LASF121:
 17216 1944 5F6E6578 		.ascii	"_nextf\000"
 17216      746600
 17217              	.LASF645:
 17218 194b 77726974 		.ascii	"write\000"
 17218      6500
 17219              	.LASF107:
 17220 1951 5F72616E 		.ascii	"_rand_next\000"
 17220      645F6E65 
 17220      787400
 17221              	.LASF641:
 17222 195c 69717565 		.ascii	"iqueue\000"
 17222      756500
 17223              	.LASF829:
 17224 1963 696E5F63 		.ascii	"in_cb\000"
 17224      6200
 17225              	.LASF754:
 17226 1969 444F4550 		.ascii	"DOEPINT\000"
 17226      494E5400 
 17227              	.LASF333:
 17228 1971 6C617374 		.ascii	"last\000"
 17228      00
 17229              	.LASF427:
 17230 1976 4C434B52 		.ascii	"LCKR\000"
 17230      00
 17231              	.LASF638:
 17232 197b 73647374 		.ascii	"sdstate_t\000"
 17232      6174655F 
 17232      7400
 17233              	.LASF132:
 17234 1985 75696E74 		.ascii	"uint32_t\000"
 17234      33325F74 
 17234      00
 17235              	.LASF512:
 17236 198e 64617461 		.ascii	"dataoffset\000"
 17236      6F666673 
 17236      657400
 17237              	.LASF30:
 17238 1999 5F6D6178 		.ascii	"_maxwds\000"
 17238      77647300 
 17239              	.LASF414:
 17240 19a1 424C4B5F 		.ascii	"BLK_WRITING\000"
 17240      57524954 
 17240      494E4700 
 17241              	.LASF229:
 17242 19ad 52444C52 		.ascii	"RDLR\000"
 17242      00
 17243              	.LASF918:
 17244 19b2 706F7274 		.ascii	"port_lock\000"
 17244      5F6C6F63 
 17244      6B00
 17245              	.LASF2:
 17246 19bc 6C6F6E67 		.ascii	"long double\000"
 17246      20646F75 
 17246      626C6500 
ARM GAS  C:\Users\PCHAUT~1\AppData\Local\Temp\ccJuO4y2.s 			page 325


 17247              	.LASF316:
 17248 19c8 72656761 		.ascii	"regarm_t\000"
 17248      726D5F74 
 17248      00
 17249              	.LASF142:
 17250 19d1 6576656E 		.ascii	"eventmask_t\000"
 17250      746D6173 
 17250      6B5F7400 
 17251              	.LASF466:
 17252 19dd 64657074 		.ascii	"depth\000"
 17252      6800
 17253              	.LASF243:
 17254 19e3 46464131 		.ascii	"FFA1R\000"
 17254      5200
 17255              	.LASF234:
 17256 19e9 52463152 		.ascii	"RF1R\000"
 17256      00
 17257              	.LASF706:
 17258 19ee 5553425F 		.ascii	"USB_SELECTED\000"
 17258      53454C45 
 17258      43544544 
 17258      00
 17259              	.LASF492:
 17260 19fb 43414E5F 		.ascii	"CAN_READY\000"
 17260      52454144 
 17260      5900
 17261              	.LASF14:
 17262 1a05 6C6F6E67 		.ascii	"long unsigned int\000"
 17262      20756E73 
 17262      69676E65 
 17262      6420696E 
 17262      7400
 17263              	.LASF605:
 17264 1a17 4932535F 		.ascii	"I2S_ACTIVE\000"
 17264      41435449 
 17264      564500
 17265              	.LASF549:
 17266 1a22 4750545F 		.ascii	"GPT_READY\000"
 17266      52454144 
 17266      5900
 17267              	.LASF511:
 17268 1a2c 64616373 		.ascii	"dacstate_t\000"
 17268      74617465 
 17268      5F7400
 17269              	.LASF861:
 17270 1a37 7573625F 		.ascii	"usb_lld_prepare_receive\000"
 17270      6C6C645F 
 17270      70726570 
 17270      6172655F 
 17270      72656365 
 17271              	.LASF850:
 17272 1a4f 65706D61 		.ascii	"epmask\000"
 17272      736B00
 17273              	.LASF321:
 17274 1a56 73655F74 		.ascii	"se_tp\000"
 17274      7000
 17275              	.LASF393:
ARM GAS  C:\Users\PCHAUT~1\AppData\Local\Temp\ccJuO4y2.s 			page 326


 17276 1a5c 715F7772 		.ascii	"q_wrptr\000"
 17276      70747200 
 17277              	.LASF519:
 17278 1a64 64616373 		.ascii	"dacsample_t\000"
 17278      616D706C 
 17278      655F7400 
 17279              	.LASF722:
 17280 1a70 5553425F 		.ascii	"USB_EVENT_ADDRESS\000"
 17280      4556454E 
 17280      545F4144 
 17280      44524553 
 17280      5300
 17281              	.LASF613:
 17282 1a82 69327363 		.ascii	"i2scfgr\000"
 17282      66677200 
 17283              	.LASF295:
 17284 1a8a 52455350 		.ascii	"RESPCMD\000"
 17284      434D4400 
 17285              	.LASF498:
 17286 1a92 72786675 		.ascii	"rxfull_event\000"
 17286      6C6C5F65 
 17286      76656E74 
 17286      00
 17287              	.LASF727:
 17288 1a9f 75736265 		.ascii	"usbevent_t\000"
 17288      76656E74 
 17288      5F7400
 17289              	.LASF63:
 17290 1aaa 5F636C6F 		.ascii	"_close\000"
 17290      736500
 17291              	.LASF860:
 17292 1ab1 70636E74 		.ascii	"pcnt\000"
 17292      00
 17293              	.LASF27:
 17294 1ab6 63686172 		.ascii	"char\000"
 17294      00
 17295              	.LASF495:
 17296 1abb 43414E43 		.ascii	"CANConfig\000"
 17296      6F6E6669 
 17296      6700
 17297              	.LASF442:
 17298 1ac5 50454461 		.ascii	"PEData\000"
 17298      746100
 17299              	.LASF177:
 17300 1acc 725F7175 		.ascii	"r_queue\000"
 17300      65756500 
 17301              	.LASF95:
 17302 1ad4 5F676C75 		.ascii	"_glue\000"
 17302      6500
 17303              	.LASF911:
 17304 1ada 63685379 		.ascii	"chSysUnlockFromISR\000"
 17304      73556E6C 
 17304      6F636B46 
 17304      726F6D49 
 17304      535200
 17305              	.LASF663:
 17306 1aed 53444343 		.ascii	"SDCConfig\000"
ARM GAS  C:\Users\PCHAUT~1\AppData\Local\Temp\ccJuO4y2.s 			page 327


 17306      6F6E6669 
 17306      6700
 17307              	.LASF623:
 17308 1af7 656E6162 		.ascii	"enabled\000"
 17308      6C656400 
 17309              	.LASF520:
 17310 1aff 4441435F 		.ascii	"DAC_ERR_DMAFAILURE\000"
 17310      4552525F 
 17310      444D4146 
 17310      41494C55 
 17310      524500
 17311              	.LASF766:
 17312 1b12 47525846 		.ascii	"GRXFSIZ\000"
 17312      53495A00 
 17313              	.LASF669:
 17314 1b1a 73796E63 		.ascii	"sync\000"
 17314      00
 17315              	.LASF643:
 17316 1b1f 75736172 		.ascii	"usart\000"
 17316      7400
 17317              	.LASF655:
 17318 1b25 7364636D 		.ascii	"sdcmode_t\000"
 17318      6F64655F 
 17318      7400
 17319              	.LASF396:
 17320 1b2f 715F6C69 		.ascii	"q_link\000"
 17320      6E6B00
 17321              	.LASF895:
 17322 1b36 6F74675F 		.ascii	"otg_disable_ep\000"
 17322      64697361 
 17322      626C655F 
 17322      657000
 17323              	.LASF787:
 17324 1b45 44434647 		.ascii	"DCFG\000"
 17324      00
 17325              	.LASF852:
 17326 1b4a 7573625F 		.ascii	"usb_lld_pump\000"
 17326      6C6C645F 
 17326      70756D70 
 17326      00
 17327              	.LASF33:
 17328 1b57 5F426967 		.ascii	"_Bigint\000"
 17328      696E7400 
 17329              	.LASF797:
 17330 1b5f 44564255 		.ascii	"DVBUSDIS\000"
 17330      53444953 
 17330      00
 17331              	.LASF763:
 17332 1b68 47494E54 		.ascii	"GINTMSK\000"
 17332      4D534B00 
 17333              	.LASF768:
 17334 1b70 484E5054 		.ascii	"HNPTXSTS\000"
 17334      58535453 
 17334      00
 17335              	.LASF281:
 17336 1b79 41504231 		.ascii	"APB1ENR\000"
 17336      454E5200 
ARM GAS  C:\Users\PCHAUT~1\AppData\Local\Temp\ccJuO4y2.s 			page 328


 17337              	.LASF696:
 17338 1b81 636F6E66 		.ascii	"configuration\000"
 17338      69677572 
 17338      6174696F 
 17338      6E00
 17339              	.LASF90:
 17340 1b8f 5F617465 		.ascii	"_atexit0\000"
 17340      78697430 
 17340      00
 17341              	.LASF437:
 17342 1b98 73746D33 		.ascii	"stm32_gpio_setup_t\000"
 17342      325F6770 
 17342      696F5F73 
 17342      65747570 
 17342      5F7400
 17343              	.LASF844:
 17344 1bab 6570305F 		.ascii	"ep0_state\000"
 17344      73746174 
 17344      6500
 17345              	.LASF880:
 17346 1bb5 6E746F67 		.ascii	"ntogo\000"
 17346      6F00
 17347              	.LASF406:
 17348 1bbb 5F73746D 		.ascii	"_stm32_dma_streams\000"
 17348      33325F64 
 17348      6D615F73 
 17348      74726561 
 17348      6D7300
 17349              	.LASF251:
 17350 1bce 44485231 		.ascii	"DHR12L1\000"
 17350      324C3100 
 17351              	.LASF254:
 17352 1bd6 44485231 		.ascii	"DHR12L2\000"
 17352      324C3200 
 17353              	.LASF114:
 17354 1bde 5F676574 		.ascii	"_getdate_err\000"
 17354      64617465 
 17354      5F657272 
 17354      00
 17355              	.LASF654:
 17356 1beb 73646362 		.ascii	"sdcbusmode_t\000"
 17356      75736D6F 
 17356      64655F74 
 17356      00
 17357              	.LASF257:
 17358 1bf8 44485231 		.ascii	"DHR12LD\000"
 17358      324C4400 
 17359              	.LASF205:
 17360 1c00 6B65726E 		.ascii	"kernel_stats\000"
 17360      656C5F73 
 17360      74617473 
 17360      00
 17361              	.LASF849:
 17362 1c0d 6F746770 		.ascii	"otgp\000"
 17362      00
 17363              	.LASF472:
 17364 1c12 61646363 		.ascii	"adccallback_t\000"
ARM GAS  C:\Users\PCHAUT~1\AppData\Local\Temp\ccJuO4y2.s 			page 329


 17364      616C6C62 
 17364      61636B5F 
 17364      7400
 17365              	.LASF156:
 17366 1c20 705F7374 		.ascii	"p_stklimit\000"
 17366      6B6C696D 
 17366      697400
 17367              	.LASF144:
 17368 1c2b 636E745F 		.ascii	"cnt_t\000"
 17368      7400
 17369              	.LASF538:
 17370 1c31 65787473 		.ascii	"extstate_t\000"
 17370      74617465 
 17370      5F7400
 17371              	.LASF715:
 17372 1c3c 5553425F 		.ascii	"USB_EP0_WAITING_TX0\000"
 17372      4550305F 
 17372      57414954 
 17372      494E475F 
 17372      54583000 
 17373              	.LASF690:
 17374 1c50 6570306E 		.ascii	"ep0next\000"
 17374      65787400 
 17375              	.LASF744:
 17376 1c58 73746D33 		.ascii	"stm32_otg_host_chn_t\000"
 17376      325F6F74 
 17376      675F686F 
 17376      73745F63 
 17376      686E5F74 
 17377              	.LASF876:
 17378 1c6d 6F74675F 		.ascii	"otg_epin_handler\000"
 17378      6570696E 
 17378      5F68616E 
 17378      646C6572 
 17378      00
 17379              	.LASF906:
 17380 1c7e 6F73616C 		.ascii	"osalSysLock\000"
 17380      5379734C 
 17380      6F636B00 
 17381              	.LASF429:
 17382 1c8a 41465248 		.ascii	"AFRH\000"
 17382      00
 17383              	.LASF428:
 17384 1c8f 4146524C 		.ascii	"AFRL\000"
 17384      00
 17385              	.LASF126:
 17386 1c94 5F696D70 		.ascii	"_impure_ptr\000"
 17386      7572655F 
 17386      70747200 
 17387              	.LASF372:
 17388 1ca0 63665F6F 		.ascii	"cf_off_preempt\000"
 17388      66665F70 
 17388      7265656D 
 17388      707400
 17389              	.LASF509:
 17390 1caf 4441435F 		.ascii	"DAC_COMPLETE\000"
 17390      434F4D50 
ARM GAS  C:\Users\PCHAUT~1\AppData\Local\Temp\ccJuO4y2.s 			page 330


 17390      4C455445 
 17390      00
 17391              	.LASF66:
 17392 1cbc 5F626C6B 		.ascii	"_blksize\000"
 17392      73697A65 
 17392      00
 17393              	.LASF739:
 17394 1cc5 4843494E 		.ascii	"HCINTMSK\000"
 17394      544D534B 
 17394      00
 17395              	.LASF64:
 17396 1cce 5F756275 		.ascii	"_ubuf\000"
 17396      6600
 17397              	.LASF464:
 17398 1cd4 636F6E66 		.ascii	"config\000"
 17398      696700
 17399              	.LASF572:
 17400 1cdb 47505444 		.ascii	"GPTD11\000"
 17400      313100
 17401              	.LASF109:
 17402 1ce2 5F6D626C 		.ascii	"_mblen_state\000"
 17402      656E5F73 
 17402      74617465 
 17402      00
 17403              	.LASF92:
 17404 1cef 5F5F7367 		.ascii	"__sglue\000"
 17404      6C756500 
 17405              	.LASF125:
 17406 1cf7 5F5F6C6F 		.ascii	"__locale_t\000"
 17406      63616C65 
 17406      5F7400
 17407              	.LASF410:
 17408 1d02 424C4B5F 		.ascii	"BLK_CONNECTING\000"
 17408      434F4E4E 
 17408      45435449 
 17408      4E4700
 17409              	.LASF82:
 17410 1d11 5F5F636C 		.ascii	"__cleanup\000"
 17410      65616E75 
 17410      7000
 17411              	.LASF271:
 17412 1d1b 504C4C43 		.ascii	"PLLCFGR\000"
 17412      46475200 
 17413              	.LASF505:
 17414 1d23 4441435F 		.ascii	"DAC_UNINIT\000"
 17414      554E494E 
 17414      495400
 17415              	.LASF458:
 17416 1d2e 6164635F 		.ascii	"adc_channels_num_t\000"
 17416      6368616E 
 17416      6E656C73 
 17416      5F6E756D 
 17416      5F7400
 17417              	.LASF183:
 17418 1d41 76746675 		.ascii	"vtfunc_t\000"
 17418      6E635F74 
 17418      00
ARM GAS  C:\Users\PCHAUT~1\AppData\Local\Temp\ccJuO4y2.s 			page 331


 17419              	.LASF231:
 17420 1d4a 43414E5F 		.ascii	"CAN_FIFOMailBox_TypeDef\000"
 17420      4649464F 
 17420      4D61696C 
 17420      426F785F 
 17420      54797065 
 17421              	.LASF261:
 17422 1d62 4441435F 		.ascii	"DAC_TypeDef\000"
 17422      54797065 
 17422      44656600 
 17423              	.LASF343:
 17424 1d6e 77746F62 		.ascii	"wtobjp\000"
 17424      6A7000
 17425              	.LASF19:
 17426 1d75 5F66706F 		.ascii	"_fpos_t\000"
 17426      735F7400 
 17427              	.LASF525:
 17428 1d7d 4441435F 		.ascii	"DAC_DHRM_12BIT_RIGHT\000"
 17428      4448524D 
 17428      5F313242 
 17428      49545F52 
 17428      49474854 
 17429              	.LASF57:
 17430 1d92 5F66696C 		.ascii	"_file\000"
 17430      6500
 17431              	.LASF167:
 17432 1d98 705F7265 		.ascii	"p_realprio\000"
 17432      616C7072 
 17432      696F00
 17433              	.LASF658:
 17434 1da3 63617061 		.ascii	"capacity\000"
 17434      63697479 
 17434      00
 17435              	.LASF395:
 17436 1dac 715F6E6F 		.ascii	"q_notify\000"
 17436      74696679 
 17436      00
 17437              	.LASF346:
 17438 1db5 77746D74 		.ascii	"wtmtxp\000"
 17438      787000
 17439              	.LASF55:
 17440 1dbc 5F5F7346 		.ascii	"__sFILE\000"
 17440      494C4500 
 17441              	.LASF51:
 17442 1dc4 5F666E73 		.ascii	"_fns\000"
 17442      00
 17443              	.LASF826:
 17444 1dc9 5553424F 		.ascii	"USBOutEndpointState\000"
 17444      7574456E 
 17444      64706F69 
 17444      6E745374 
 17444      61746500 
 17445              	.LASF783:
 17446 1ddd 72657376 		.ascii	"resvd41C\000"
 17446      64343143 
 17446      00
 17447              	.LASF25:
ARM GAS  C:\Users\PCHAUT~1\AppData\Local\Temp\ccJuO4y2.s 			page 332


 17448 1de6 5F6D6273 		.ascii	"_mbstate_t\000"
 17448      74617465 
 17448      5F7400
 17449              	.LASF120:
 17450 1df1 5F685F65 		.ascii	"_h_errno\000"
 17450      72726E6F 
 17450      00
 17451              	.LASF228:
 17452 1dfa 52445452 		.ascii	"RDTR\000"
 17452      00
 17453              	.LASF418:
 17454 1dff 626C6B5F 		.ascii	"blk_num\000"
 17454      6E756D00 
 17455              	.LASF878:
 17456 1e07 6F74675F 		.ascii	"otg_fifo_read_to_queue\000"
 17456      6669666F 
 17456      5F726561 
 17456      645F746F 
 17456      5F717565 
 17457              	.LASF288:
 17458 1e1e 42444352 		.ascii	"BDCR\000"
 17458      00
 17459              	.LASF721:
 17460 1e23 5553425F 		.ascii	"USB_EVENT_RESET\000"
 17460      4556454E 
 17460      545F5245 
 17460      53455400 
 17461              	.LASF176:
 17462 1e33 63685F72 		.ascii	"ch_ready_list\000"
 17462      65616479 
 17462      5F6C6973 
 17462      7400
 17463              	.LASF425:
 17464 1e41 50555044 		.ascii	"PUPDR\000"
 17464      5200
 17465              	.LASF11:
 17466 1e47 5F5F696E 		.ascii	"__int32_t\000"
 17466      7433325F 
 17466      7400
 17467              	.LASF13:
 17468 1e51 5F5F7569 		.ascii	"__uint32_t\000"
 17468      6E743332 
 17468      5F7400
 17469              	.LASF195:
 17470 1e5c 63685F73 		.ascii	"ch_system_debug\000"
 17470      79737465 
 17470      6D5F6465 
 17470      62756700 
 17471              	.LASF794:
 17472 1e6c 4441494E 		.ascii	"DAINTMSK\000"
 17472      544D534B 
 17472      00
 17473              	.LASF545:
 17474 1e75 45585443 		.ascii	"EXTConfig\000"
 17474      6F6E6669 
 17474      6700
 17475              	.LASF24:
ARM GAS  C:\Users\PCHAUT~1\AppData\Local\Temp\ccJuO4y2.s 			page 333


 17476 1e7f 5F5F7661 		.ascii	"__value\000"
 17476      6C756500 
 17477              	.LASF713:
 17478 1e87 5553425F 		.ascii	"USB_EP0_WAITING_SETUP\000"
 17478      4550305F 
 17478      57414954 
 17478      494E475F 
 17478      53455455 
 17479              	.LASF48:
 17480 1e9d 5F69735F 		.ascii	"_is_cxa\000"
 17480      63786100 
 17481              	.LASF413:
 17482 1ea5 424C4B5F 		.ascii	"BLK_READING\000"
 17482      52454144 
 17482      494E4700 
 17483              	.LASF435:
 17484 1eb1 6166726C 		.ascii	"afrl\000"
 17484      00
 17485              	.LASF816:
 17486 1eb6 71756575 		.ascii	"queue\000"
 17486      6500
 17487              	.LASF692:
 17488 1ebc 65703065 		.ascii	"ep0endcb\000"
 17488      6E646362 
 17488      00
 17489              	.LASF403:
 17490 1ec5 73656C66 		.ascii	"selfindex\000"
 17490      696E6465 
 17490      7800
 17491              	.LASF376:
 17492 1ecf 6D757465 		.ascii	"mutex_t\000"
 17492      785F7400 
 17493              	.LASF85:
 17494 1ed7 5F703573 		.ascii	"_p5s\000"
 17494      00
 17495              	.LASF165:
 17496 1edc 705F6570 		.ascii	"p_epending\000"
 17496      656E6469 
 17496      6E6700
 17497              	.LASF709:
 17498 1ee7 45505F53 		.ascii	"EP_STATUS_DISABLED\000"
 17498      54415455 
 17498      535F4449 
 17498      5341424C 
 17498      454400
 17499              	.LASF422:
 17500 1efa 4D4F4445 		.ascii	"MODER\000"
 17500      5200
 17501              	.LASF902:
 17502 1f00 6F73616C 		.ascii	"osalOsRescheduleS\000"
 17502      4F735265 
 17502      73636865 
 17502      64756C65 
 17502      5300
 17503              	.LASF606:
 17504 1f12 4932535F 		.ascii	"I2S_COMPLETE\000"
 17504      434F4D50 
ARM GAS  C:\Users\PCHAUT~1\AppData\Local\Temp\ccJuO4y2.s 			page 334


 17504      4C455445 
 17504      00
 17505              	.LASF235:
 17506 1f1f 52455345 		.ascii	"RESERVED0\000"
 17506      52564544 
 17506      3000
 17507              	.LASF238:
 17508 1f29 52455345 		.ascii	"RESERVED1\000"
 17508      52564544 
 17508      3100
 17509              	.LASF240:
 17510 1f33 52455345 		.ascii	"RESERVED2\000"
 17510      52564544 
 17510      3200
 17511              	.LASF242:
 17512 1f3d 52455345 		.ascii	"RESERVED3\000"
 17512      52564544 
 17512      3300
 17513              	.LASF244:
 17514 1f47 52455345 		.ascii	"RESERVED4\000"
 17514      52564544 
 17514      3400
 17515              	.LASF246:
 17516 1f51 52455345 		.ascii	"RESERVED5\000"
 17516      52564544 
 17516      3500
 17517              	.LASF289:
 17518 1f5b 52455345 		.ascii	"RESERVED6\000"
 17518      52564544 
 17518      3600
 17519              	.LASF837:
 17520 1f65 55534245 		.ascii	"USBEndpointConfig\000"
 17520      6E64706F 
 17520      696E7443 
 17520      6F6E6669 
 17520      6700
 17521              	.LASF250:
 17522 1f77 44485231 		.ascii	"DHR12R1\000"
 17522      32523100 
 17523              	.LASF253:
 17524 1f7f 44485231 		.ascii	"DHR12R2\000"
 17524      32523200 
 17525              	.LASF541:
 17526 1f87 65787463 		.ascii	"extcallback_t\000"
 17526      616C6C62 
 17526      61636B5F 
 17526      7400
 17527              	.LASF497:
 17528 1f95 72787175 		.ascii	"rxqueue\000"
 17528      65756500 
 17529              	.LASF320:
 17530 1f9d 73655F74 		.ascii	"se_time\000"
 17530      696D6500 
 17531              	.LASF785:
 17532 1fa5 72657376 		.ascii	"resvd444\000"
 17532      64343434 
 17532      00
ARM GAS  C:\Users\PCHAUT~1\AppData\Local\Temp\ccJuO4y2.s 			page 335


 17533              	.LASF449:
 17534 1fae 70616C5F 		.ascii	"pal_default_config\000"
 17534      64656661 
 17534      756C745F 
 17534      636F6E66 
 17534      696700
 17535              	.LASF467:
 17536 1fc1 67727070 		.ascii	"grpp\000"
 17536      00
 17537              	.LASF256:
 17538 1fc6 44485231 		.ascii	"DHR12RD\000"
 17538      32524400 
 17539              	.LASF380:
 17540 1fce 656C5F6C 		.ascii	"el_listener\000"
 17540      69737465 
 17540      6E657200 
 17541              	.LASF815:
 17542 1fda 6C696E65 		.ascii	"linear\000"
 17542      617200
 17543              	.LASF565:
 17544 1fe1 73746D33 		.ascii	"stm32_tim_t\000"
 17544      325F7469 
 17544      6D5F7400 
 17545              	.LASF178:
 17546 1fed 725F7072 		.ascii	"r_prio\000"
 17546      696F00
 17547              	.LASF698:
 17548 1ff4 706D6E65 		.ascii	"pmnext\000"
 17548      787400
 17549              	.LASF207:
 17550 1ffb 49544D5F 		.ascii	"ITM_RxBuffer\000"
 17550      52784275 
 17550      66666572 
 17550      00
 17551              	.LASF419:
 17552 2008 426C6F63 		.ascii	"BlockDeviceInfo\000"
 17552      6B446576 
 17552      69636549 
 17552      6E666F00 
 17553              	.LASF16:
 17554 2018 6C6F6E67 		.ascii	"long long unsigned int\000"
 17554      206C6F6E 
 17554      6720756E 
 17554      7369676E 
 17554      65642069 
 17555              	.LASF307:
 17556 202f 5344494F 		.ascii	"SDIO_TypeDef\000"
 17556      5F547970 
 17556      65446566 
 17556      00
 17557              	.LASF329:
 17558 203c 6F666673 		.ascii	"offset\000"
 17558      657400
 17559              	.LASF283:
 17560 2043 41484231 		.ascii	"AHB1LPENR\000"
 17560      4C50454E 
 17560      5200
ARM GAS  C:\Users\PCHAUT~1\AppData\Local\Temp\ccJuO4y2.s 			page 336


 17561              	.LASF907:
 17562 204d 63685265 		.ascii	"chRegSetThreadName\000"
 17562      67536574 
 17562      54687265 
 17562      61644E61 
 17562      6D6500
 17563              	.LASF683:
 17564 2060 53504944 		.ascii	"SPID1\000"
 17564      3100
 17565              	.LASF913:
 17566 2066 63685379 		.ascii	"chSysUnlock\000"
 17566      73556E6C 
 17566      6F636B00 
 17567              	.LASF262:
 17568 2072 4E445452 		.ascii	"NDTR\000"
 17568      00
 17569              	.LASF385:
 17570 2077 65735F6E 		.ascii	"es_next\000"
 17570      65787400 
 17571              	.LASF106:
 17572 207f 5F67616D 		.ascii	"_gamma_signgam\000"
 17572      6D615F73 
 17572      69676E67 
 17572      616D00
 17573              	.LASF751:
 17574 208e 72657376 		.ascii	"resvd1C\000"
 17574      64314300 
 17575              	.LASF206:
 17576 2096 69646C65 		.ascii	"idle_thread_wa\000"
 17576      5F746872 
 17576      6561645F 
 17576      776100
 17577              	.LASF747:
 17578 20a5 44494550 		.ascii	"DIEPINT\000"
 17578      494E5400 
 17579              	.LASF313:
 17580 20ad 5350495F 		.ascii	"SPI_TypeDef\000"
 17580      54797065 
 17580      44656600 
 17581              	.LASF189:
 17582 20b9 76745F66 		.ascii	"vt_func\000"
 17582      756E6300 
 17583              	.LASF556:
 17584 20c1 534D4352 		.ascii	"SMCR\000"
 17584      00
 17585              	.LASF792:
 17586 20c6 444F4550 		.ascii	"DOEPMSK\000"
 17586      4D534B00 
 17587              	.LASF891:
 17588 20ce 6F74675F 		.ascii	"otg_ram_reset\000"
 17588      72616D5F 
 17588      72657365 
 17588      7400
 17589              	.LASF185:
 17590 20dc 63685F76 		.ascii	"ch_virtual_timer\000"
 17590      69727475 
 17590      616C5F74 
ARM GAS  C:\Users\PCHAUT~1\AppData\Local\Temp\ccJuO4y2.s 			page 337


 17590      696D6572 
 17590      00
 17591              	.LASF158:
 17592 20ed 705F666C 		.ascii	"p_flags\000"
 17592      61677300 
 17593              	.LASF347:
 17594 20f5 65776D61 		.ascii	"ewmask\000"
 17594      736B00
 17595              	.LASF382:
 17596 20fc 656C5F66 		.ascii	"el_flags\000"
 17596      6C616773 
 17596      00
 17597              	.LASF384:
 17598 2105 6576656E 		.ascii	"event_source\000"
 17598      745F736F 
 17598      75726365 
 17598      00
 17599              	.LASF166:
 17600 2112 705F6D74 		.ascii	"p_mtxlist\000"
 17600      786C6973 
 17600      7400
 17601              	.LASF504:
 17602 211c 43414E44 		.ascii	"CAND1\000"
 17602      3100
 17603              	.LASF241:
 17604 2122 46533152 		.ascii	"FS1R\000"
 17604      00
 17605              	.LASF137:
 17606 2127 74737461 		.ascii	"tstate_t\000"
 17606      74655F74 
 17606      00
 17607              	.LASF127:
 17608 2130 5F676C6F 		.ascii	"_global_impure_ptr\000"
 17608      62616C5F 
 17608      696D7075 
 17608      72655F70 
 17608      747200
 17609              	.LASF793:
 17610 2143 4441494E 		.ascii	"DAINT\000"
 17610      5400
 17611              	.LASF682:
 17612 2149 53504943 		.ascii	"SPIConfig\000"
 17612      6F6E6669 
 17612      6700
 17613              	.LASF79:
 17614 2153 5F756E73 		.ascii	"_unspecified_locale_info\000"
 17614      70656369 
 17614      66696564 
 17614      5F6C6F63 
 17614      616C655F 
 17615              	.LASF434:
 17616 216c 70757064 		.ascii	"pupdr\000"
 17616      7200
 17617              	.LASF524:
 17618 2172 64616365 		.ascii	"dacerrorcallback_t\000"
 17618      72726F72 
 17618      63616C6C 
ARM GAS  C:\Users\PCHAUT~1\AppData\Local\Temp\ccJuO4y2.s 			page 338


 17618      6261636B 
 17618      5F7400
 17619              	.LASF685:
 17620 2185 7472616E 		.ascii	"transmitting\000"
 17620      736D6974 
 17620      74696E67 
 17620      00
 17621              	.LASF544:
 17622 2192 6368616E 		.ascii	"channels\000"
 17622      6E656C73 
 17622      00
 17623              	.LASF294:
 17624 219b 434C4B43 		.ascii	"CLKCR\000"
 17624      5200
 17625              	.LASF657:
 17626 21a1 53444344 		.ascii	"SDCDriver\000"
 17626      72697665 
 17626      7200
 17627              	.LASF155:
 17628 21ab 705F6E61 		.ascii	"p_name\000"
 17628      6D6500
 17629              	.LASF81:
 17630 21b2 5F5F7364 		.ascii	"__sdidinit\000"
 17630      6964696E 
 17630      697400
 17631              	.LASF639:
 17632 21bd 53657269 		.ascii	"SerialDriver\000"
 17632      616C4472 
 17632      69766572 
 17632      00
 17633              	.LASF219:
 17634 21ca 4A445231 		.ascii	"JDR1\000"
 17634      00
 17635              	.LASF220:
 17636 21cf 4A445232 		.ascii	"JDR2\000"
 17636      00
 17637              	.LASF221:
 17638 21d4 4A445233 		.ascii	"JDR3\000"
 17638      00
 17639              	.LASF222:
 17640 21d9 4A445234 		.ascii	"JDR4\000"
 17640      00
 17641              	.LASF755:
 17642 21de 444F4550 		.ascii	"DOEPTSIZ\000"
 17642      5453495A 
 17642      00
 17643              	.LASF287:
 17644 21e7 41504232 		.ascii	"APB2LPENR\000"
 17644      4C50454E 
 17644      5200
 17645              	.LASF452:
 17646 21f1 4144435F 		.ascii	"ADC_READY\000"
 17646      52454144 
 17646      5900
 17647              	.LASF886:
 17648 21fb 6F74675F 		.ascii	"otg_fifo_write_from_queue\000"
 17648      6669666F 
ARM GAS  C:\Users\PCHAUT~1\AppData\Local\Temp\ccJuO4y2.s 			page 339


 17648      5F777269 
 17648      74655F66 
 17648      726F6D5F 
 17649              	.LASF364:
 17650 2215 63665F6F 		.ascii	"cf_off_ctx\000"
 17650      66665F63 
 17650      747800
 17651              	.LASF908:
 17652 2220 6E616D65 		.ascii	"name\000"
 17652      00
 17653              	.LASF26:
 17654 2225 5F666C6F 		.ascii	"_flock_t\000"
 17654      636B5F74 
 17654      00
 17655              	.LASF191:
 17656 222e 76697274 		.ascii	"virtual_timers_list_t\000"
 17656      75616C5F 
 17656      74696D65 
 17656      72735F6C 
 17656      6973745F 
 17657              	.LASF882:
 17658 2244 6E773265 		.ascii	"nw2end\000"
 17658      6E6400
 17659              	.LASF779:
 17660 224b 72657376 		.ascii	"resvd40C\000"
 17660      64343043 
 17660      00
 17661              	.LASF474:
 17662 2254 63697263 		.ascii	"circular\000"
 17662      756C6172 
 17662      00
 17663              	.LASF607:
 17664 225d 69327373 		.ascii	"i2sstate_t\000"
 17664      74617465 
 17664      5F7400
 17665              	.LASF431:
 17666 2268 6D6F6465 		.ascii	"moder\000"
 17666      7200
 17667              	.LASF678:
 17668 226e 53504944 		.ascii	"SPIDriver\000"
 17668      72697665 
 17668      7200
 17669              	.LASF349:
 17670 2278 735F7175 		.ascii	"s_queue\000"
 17670      65756500 
 17671              	.LASF338:
 17672 2280 6D5F6372 		.ascii	"m_crit_thd\000"
 17672      69745F74 
 17672      686400
 17673              	.LASF506:
 17674 228b 4441435F 		.ascii	"DAC_STOP\000"
 17674      53544F50 
 17674      00
 17675              	.LASF786:
 17676 2294 72657376 		.ascii	"resvd700\000"
 17676      64373030 
 17676      00
ARM GAS  C:\Users\PCHAUT~1\AppData\Local\Temp\ccJuO4y2.s 			page 340


 17677              	.LASF311:
 17678 229d 49325343 		.ascii	"I2SCFGR\000"
 17678      46475200 
 17679              	.LASF848:
 17680 22a5 75736270 		.ascii	"usbp\000"
 17680      00
 17681              	.LASF356:
 17682 22aa 63685F69 		.ascii	"ch_identifier\000"
 17682      64656E74 
 17682      69666965 
 17682      7200
 17683              	.LASF649:
 17684 22b8 77726974 		.ascii	"writet\000"
 17684      657400
 17685              	.LASF1:
 17686 22bf 6C6F6E67 		.ascii	"long long int\000"
 17686      206C6F6E 
 17686      6720696E 
 17686      7400
 17687              	.LASF773:
 17688 22cd 48505458 		.ascii	"HPTXFSIZ\000"
 17688      4653495A 
 17688      00
 17689              	.LASF854:
 17690 22d6 7573625F 		.ascii	"usb_lld_clear_out\000"
 17690      6C6C645F 
 17690      636C6561 
 17690      725F6F75 
 17690      7400
 17691              	.LASF363:
 17692 22e8 63665F6F 		.ascii	"cf_off_prio\000"
 17692      66665F70 
 17692      72696F00 
 17693              	.LASF71:
 17694 22f4 5F666C61 		.ascii	"_flags2\000"
 17694      67733200 
 17695              	.LASF912:
 17696 22fc 63685379 		.ascii	"chSysLockFromISR\000"
 17696      734C6F63 
 17696      6B46726F 
 17696      6D495352 
 17696      00
 17697              	.LASF335:
 17698 230d 74696D65 		.ascii	"time_measurement_t\000"
 17698      5F6D6561 
 17698      73757265 
 17698      6D656E74 
 17698      5F7400
 17699              	.LASF670:
 17700 2320 6765745F 		.ascii	"get_info\000"
 17700      696E666F 
 17700      00
 17701              	.LASF461:
 17702 2329 61646365 		.ascii	"adcerror_t\000"
 17702      72726F72 
 17702      5F7400
 17703              	.LASF894:
ARM GAS  C:\Users\PCHAUT~1\AppData\Local\Temp\ccJuO4y2.s 			page 341


 17704 2334 6F74675F 		.ascii	"otg_rxfifo_flush\000"
 17704      72786669 
 17704      666F5F66 
 17704      6C757368 
 17704      00
 17705              	.LASF839:
 17706 2345 6765745F 		.ascii	"get_descriptor_cb\000"
 17706      64657363 
 17706      72697074 
 17706      6F725F63 
 17706      6200
 17707              	.LASF80:
 17708 2357 5F6C6F63 		.ascii	"_locale\000"
 17708      616C6500 
 17709              	.LASF143:
 17710 235f 6576656E 		.ascii	"eventflags_t\000"
 17710      74666C61 
 17710      67735F74 
 17710      00
 17711              	.LASF674:
 17712 236c 5350495F 		.ascii	"SPI_READY\000"
 17712      52454144 
 17712      5900
 17713              	.LASF866:
 17714 2376 7573625F 		.ascii	"usb_lld_init_endpoint\000"
 17714      6C6C645F 
 17714      696E6974 
 17714      5F656E64 
 17714      706F696E 
 17715              	.LASF237:
 17716 238c 73464946 		.ascii	"sFIFOMailBox\000"
 17716      4F4D6169 
 17716      6C426F78 
 17716      00
 17717              	.LASF662:
 17718 2399 6275735F 		.ascii	"bus_width\000"
 17718      77696474 
 17718      6800
 17719              	.LASF258:
 17720 23a3 44485238 		.ascii	"DHR8RD\000"
 17720      524400
 17721              	.LASF788:
 17722 23aa 4443544C 		.ascii	"DCTL\000"
 17722      00
 17723              	.LASF664:
 17724 23af 53444344 		.ascii	"SDCDriverVMT\000"
 17724      72697665 
 17724      72564D54 
 17724      00
 17725              	.LASF814:
 17726 23bc 74786275 		.ascii	"txbuf\000"
 17726      6600
 17727              	.LASF807:
 17728 23c2 50434743 		.ascii	"PCGCCTL\000"
 17728      43544C00 
 17729              	.LASF725:
 17730 23ca 5553425F 		.ascii	"USB_EVENT_WAKEUP\000"
ARM GAS  C:\Users\PCHAUT~1\AppData\Local\Temp\ccJuO4y2.s 			page 342


 17730      4556454E 
 17730      545F5741 
 17730      4B455550 
 17730      00
 17731              	.LASF923:
 17732 23db 5F5F7365 		.ascii	"__set_BASEPRI\000"
 17732      745F4241 
 17732      53455052 
 17732      4900
 17733              	.LASF154:
 17734 23e9 705F6F6C 		.ascii	"p_older\000"
 17734      64657200 
 17735              	.LASF415:
 17736 23f1 424C4B5F 		.ascii	"BLK_SYNCING\000"
 17736      53594E43 
 17736      494E4700 
 17737              	.LASF446:
 17738 23fd 50494461 		.ascii	"PIData\000"
 17738      746100
 17739              	.LASF836:
 17740 2404 73657475 		.ascii	"setup_buf\000"
 17740      705F6275 
 17740      6600
 17741              	.LASF770:
 17742 240e 72657376 		.ascii	"resvd34\000"
 17742      64333400 
 17743              	.LASF571:
 17744 2416 47505444 		.ascii	"GPTD6\000"
 17744      3600
 17745              	.LASF477:
 17746 241c 6572726F 		.ascii	"error_cb\000"
 17746      725F6362 
 17746      00
 17747              	.LASF411:
 17748 2425 424C4B5F 		.ascii	"BLK_DISCONNECTING\000"
 17748      44495343 
 17748      4F4E4E45 
 17748      4354494E 
 17748      4700
 17749              	.LASF680:
 17750 2437 7373706F 		.ascii	"ssport\000"
 17750      727400
 17751              	.LASF170:
 17752 243e 74687265 		.ascii	"thread_reference_t\000"
 17752      61645F72 
 17752      65666572 
 17752      656E6365 
 17752      5F7400
 17753              	.LASF540:
 17754 2451 65787063 		.ascii	"expchannel_t\000"
 17754      68616E6E 
 17754      656C5F74 
 17754      00
 17755              	.LASF686:
 17756 245e 72656365 		.ascii	"receiving\000"
 17756      6976696E 
 17756      6700
ARM GAS  C:\Users\PCHAUT~1\AppData\Local\Temp\ccJuO4y2.s 			page 343


 17757              	.LASF94:
 17758 2468 5F5F4649 		.ascii	"__FILE\000"
 17758      4C4500
 17759              	.LASF567:
 17760 246f 66726571 		.ascii	"frequency\000"
 17760      75656E63 
 17760      7900
 17761              	.LASF900:
 17762 2479 6F73616C 		.ascii	"osalSysPolledDelayX\000"
 17762      53797350 
 17762      6F6C6C65 
 17762      6444656C 
 17762      61795800 
 17763              	.LASF31:
 17764 248d 5F736967 		.ascii	"_sign\000"
 17764      6E00
 17765              	.LASF833:
 17766 2493 696E5F73 		.ascii	"in_state\000"
 17766      74617465 
 17766      00
 17767              	.LASF36:
 17768 249c 5F5F746D 		.ascii	"__tm_min\000"
 17768      5F6D696E 
 17768      00
 17769              	.LASF357:
 17770 24a5 63685F7A 		.ascii	"ch_zero\000"
 17770      65726F00 
 17771              	.LASF587:
 17772 24ad 46415354 		.ascii	"FAST_DUTY_CYCLE_2\000"
 17772      5F445554 
 17772      595F4359 
 17772      434C455F 
 17772      3200
 17773              	.LASF302:
 17774 24bf 44435452 		.ascii	"DCTRL\000"
 17774      4C00
 17775              	.LASF362:
 17776 24c5 63685F74 		.ascii	"ch_threadsize\000"
 17776      68726561 
 17776      6473697A 
 17776      6500
 17777              	.LASF269:
 17778 24d3 464C5452 		.ascii	"FLTR\000"
 17778      00
 17779              	.LASF558:
 17780 24d8 43434D52 		.ascii	"CCMR1\000"
 17780      3100
 17781              	.LASF559:
 17782 24de 43434D52 		.ascii	"CCMR2\000"
 17782      3200
 17783              	.LASF563:
 17784 24e4 43434D52 		.ascii	"CCMR3\000"
 17784      3300
 17785              	.LASF0:
 17786 24ea 756E7369 		.ascii	"unsigned int\000"
 17786      676E6564 
 17786      20696E74 
ARM GAS  C:\Users\PCHAUT~1\AppData\Local\Temp\ccJuO4y2.s 			page 344


 17786      00
 17787              	.LASF481:
 17788 24f7 73717232 		.ascii	"sqr2\000"
 17788      00
 17789              	.LASF482:
 17790 24fc 73717233 		.ascii	"sqr3\000"
 17790      00
 17791              	.LASF108:
 17792 2501 5F723438 		.ascii	"_r48\000"
 17792      00
 17793              	.LASF777:
 17794 2506 48464952 		.ascii	"HFIR\000"
 17794      00
 17795              	.LASF703:
 17796 250b 5553425F 		.ascii	"USB_UNINIT\000"
 17796      554E494E 
 17796      495400
 17797              	.LASF881:
 17798 2516 73747265 		.ascii	"streak\000"
 17798      616B00
 17799              	.LASF400:
 17800 251d 73747265 		.ascii	"stream\000"
 17800      616D00
 17801              	.LASF484:
 17802 2524 64756D6D 		.ascii	"dummy\000"
 17802      7900
 17803              	.LASF585:
 17804 252a 6932636F 		.ascii	"i2copmode_t\000"
 17804      706D6F64 
 17804      655F7400 
 17805              	.LASF883:
 17806 2536 6F74675F 		.ascii	"otg_fifo_read_to_buffer\000"
 17806      6669666F 
 17806      5F726561 
 17806      645F746F 
 17806      5F627566 
 17807              	.LASF378:
 17808 254e 6576656E 		.ascii	"event_listener\000"
 17808      745F6C69 
 17808      7374656E 
 17808      657200
 17809              	.LASF8:
 17810 255d 73686F72 		.ascii	"short int\000"
 17810      7420696E 
 17810      7400
 17811              	.LASF731:
 17812 2567 75736263 		.ascii	"usbcallback_t\000"
 17812      616C6C62 
 17812      61636B5F 
 17812      7400
 17813              	.LASF60:
 17814 2575 5F726561 		.ascii	"_read\000"
 17814      6400
 17815              	.LASF760:
 17816 257b 47555342 		.ascii	"GUSBCFG\000"
 17816      43464700 
 17817              	.LASF315:
ARM GAS  C:\Users\PCHAUT~1\AppData\Local\Temp\ccJuO4y2.s 			page 345


 17818 2583 55534152 		.ascii	"USART_TypeDef\000"
 17818      545F5479 
 17818      70654465 
 17818      6600
 17819              	.LASF399:
 17820 2591 6F757470 		.ascii	"output_queue_t\000"
 17820      75745F71 
 17820      75657565 
 17820      5F7400
 17821              	.LASF98:
 17822 25a0 5F72616E 		.ascii	"_rand48\000"
 17822      64343800 
 17823              	.LASF809:
 17824 25a8 73746D33 		.ascii	"stm32_otg_t\000"
 17824      325F6F74 
 17824      675F7400 
 17825              	.LASF856:
 17826 25b4 7573625F 		.ascii	"usb_lld_stall_out\000"
 17826      6C6C645F 
 17826      7374616C 
 17826      6C5F6F75 
 17826      7400
 17827              	.LASF608:
 17828 25c6 49325344 		.ascii	"I2SDriver\000"
 17828      72697665 
 17828      7200
 17829              	.LASF592:
 17830 25d0 64757479 		.ascii	"duty_cycle\000"
 17830      5F637963 
 17830      6C6500
 17831              	.LASF615:
 17832 25db 49325343 		.ascii	"I2SConfig\000"
 17832      6F6E6669 
 17832      6700
 17833              	.LASF728:
 17834 25e5 75645F73 		.ascii	"ud_size\000"
 17834      697A6500 
 17835              	.LASF279:
 17836 25ed 41484232 		.ascii	"AHB2ENR\000"
 17836      454E5200 
 17837              	.LASF273:
 17838 25f5 41484231 		.ascii	"AHB1RSTR\000"
 17838      52535452 
 17838      00
 17839              	.LASF831:
 17840 25fe 696E5F6D 		.ascii	"in_maxsize\000"
 17840      61787369 
 17840      7A6500
 17841              	.LASF443:
 17842 2609 50464461 		.ascii	"PFData\000"
 17842      746100
 17843              	.LASF536:
 17844 2610 4558545F 		.ascii	"EXT_STOP\000"
 17844      53544F50 
 17844      00
 17845              	.LASF157:
 17846 2619 705F7374 		.ascii	"p_state\000"
ARM GAS  C:\Users\PCHAUT~1\AppData\Local\Temp\ccJuO4y2.s 			page 346


 17846      61746500 
 17847              	.LASF616:
 17848 2621 49325344 		.ascii	"I2SD2\000"
 17848      3200
 17849              	.LASF665:
 17850 2627 69735F69 		.ascii	"is_inserted\000"
 17850      6E736572 
 17850      74656400 
 17851              	.LASF172:
 17852 2633 63685F74 		.ascii	"ch_threads_list\000"
 17852      68726561 
 17852      64735F6C 
 17852      69737400 
 17853              	.LASF303:
 17854 2643 44434F55 		.ascii	"DCOUNT\000"
 17854      4E5400
 17855              	.LASF266:
 17856 264a 4F415231 		.ascii	"OAR1\000"
 17856      00
 17857              	.LASF267:
 17858 264f 4F415232 		.ascii	"OAR2\000"
 17858      00
 17859              	.LASF169:
 17860 2654 705F7374 		.ascii	"p_stats\000"
 17860      61747300 
 17861              	.LASF708:
 17862 265c 75736273 		.ascii	"usbstate_t\000"
 17862      74617465 
 17862      5F7400
 17863              		.ident	"GCC: (GNU Tools for Arm Embedded Processors 7-2017-q4-major) 7.2.1 20170904 (release) [ARM
ARM GAS  C:\Users\PCHAUT~1\AppData\Local\Temp\ccJuO4y2.s 			page 347


DEFINED SYMBOLS
                            *ABS*:00000000 usb_lld.c
C:\Users\PCHAUT~1\AppData\Local\Temp\ccJuO4y2.s:18     .text.port_lock:00000000 $t
C:\Users\PCHAUT~1\AppData\Local\Temp\ccJuO4y2.s:25     .text.port_lock:00000000 port_lock
C:\Users\PCHAUT~1\AppData\Local\Temp\ccJuO4y2.s:72     .text.port_lock:0000002c $d
C:\Users\PCHAUT~1\AppData\Local\Temp\ccJuO4y2.s:77     .text.port_unlock:00000000 $t
C:\Users\PCHAUT~1\AppData\Local\Temp\ccJuO4y2.s:84     .text.port_unlock:00000000 port_unlock
C:\Users\PCHAUT~1\AppData\Local\Temp\ccJuO4y2.s:129    .text.port_unlock:0000002c $d
C:\Users\PCHAUT~1\AppData\Local\Temp\ccJuO4y2.s:134    .text.port_lock_from_isr:00000000 $t
C:\Users\PCHAUT~1\AppData\Local\Temp\ccJuO4y2.s:141    .text.port_lock_from_isr:00000000 port_lock_from_isr
C:\Users\PCHAUT~1\AppData\Local\Temp\ccJuO4y2.s:174    .text.port_lock_from_isr:00000024 $d
C:\Users\PCHAUT~1\AppData\Local\Temp\ccJuO4y2.s:179    .text.port_unlock_from_isr:00000000 $t
C:\Users\PCHAUT~1\AppData\Local\Temp\ccJuO4y2.s:186    .text.port_unlock_from_isr:00000000 port_unlock_from_isr
C:\Users\PCHAUT~1\AppData\Local\Temp\ccJuO4y2.s:219    .text.port_unlock_from_isr:00000024 $d
C:\Users\PCHAUT~1\AppData\Local\Temp\ccJuO4y2.s:224    .text.chSysLock:00000000 $t
C:\Users\PCHAUT~1\AppData\Local\Temp\ccJuO4y2.s:231    .text.chSysLock:00000000 chSysLock
C:\Users\PCHAUT~1\AppData\Local\Temp\ccJuO4y2.s:269    .text.chSysLock:0000002c $d
C:\Users\PCHAUT~1\AppData\Local\Temp\ccJuO4y2.s:274    .text.chSysUnlock:00000000 $t
C:\Users\PCHAUT~1\AppData\Local\Temp\ccJuO4y2.s:281    .text.chSysUnlock:00000000 chSysUnlock
C:\Users\PCHAUT~1\AppData\Local\Temp\ccJuO4y2.s:337    .text.chSysUnlock:0000004c $d
C:\Users\PCHAUT~1\AppData\Local\Temp\ccJuO4y2.s:5323   .rodata.__func__.7554:00000000 __func__.7554
C:\Users\PCHAUT~1\AppData\Local\Temp\ccJuO4y2.s:344    .text.chSysLockFromISR:00000000 $t
C:\Users\PCHAUT~1\AppData\Local\Temp\ccJuO4y2.s:351    .text.chSysLockFromISR:00000000 chSysLockFromISR
C:\Users\PCHAUT~1\AppData\Local\Temp\ccJuO4y2.s:388    .text.chSysLockFromISR:0000002c $d
C:\Users\PCHAUT~1\AppData\Local\Temp\ccJuO4y2.s:393    .text.chSysUnlockFromISR:00000000 $t
C:\Users\PCHAUT~1\AppData\Local\Temp\ccJuO4y2.s:400    .text.chSysUnlockFromISR:00000000 chSysUnlockFromISR
C:\Users\PCHAUT~1\AppData\Local\Temp\ccJuO4y2.s:437    .text.chSysUnlockFromISR:0000002c $d
C:\Users\PCHAUT~1\AppData\Local\Temp\ccJuO4y2.s:442    .text.chThdStartI:00000000 $t
C:\Users\PCHAUT~1\AppData\Local\Temp\ccJuO4y2.s:449    .text.chThdStartI:00000000 chThdStartI
C:\Users\PCHAUT~1\AppData\Local\Temp\ccJuO4y2.s:495    .text.chThdStartI:0000003c $d
C:\Users\PCHAUT~1\AppData\Local\Temp\ccJuO4y2.s:5329   .rodata.__func__.7721:00000000 __func__.7721
C:\Users\PCHAUT~1\AppData\Local\Temp\ccJuO4y2.s:501    .text.chRegSetThreadName:00000000 $t
C:\Users\PCHAUT~1\AppData\Local\Temp\ccJuO4y2.s:508    .text.chRegSetThreadName:00000000 chRegSetThreadName
C:\Users\PCHAUT~1\AppData\Local\Temp\ccJuO4y2.s:546    .text.chRegSetThreadName:0000002c $d
C:\Users\PCHAUT~1\AppData\Local\Temp\ccJuO4y2.s:552    .text.osalSysLock:00000000 $t
C:\Users\PCHAUT~1\AppData\Local\Temp\ccJuO4y2.s:559    .text.osalSysLock:00000000 osalSysLock
C:\Users\PCHAUT~1\AppData\Local\Temp\ccJuO4y2.s:593    .text.osalSysLock:00000024 $d
C:\Users\PCHAUT~1\AppData\Local\Temp\ccJuO4y2.s:598    .text.osalSysUnlock:00000000 $t
C:\Users\PCHAUT~1\AppData\Local\Temp\ccJuO4y2.s:605    .text.osalSysUnlock:00000000 osalSysUnlock
C:\Users\PCHAUT~1\AppData\Local\Temp\ccJuO4y2.s:638    .text.osalSysUnlock:00000024 $d
C:\Users\PCHAUT~1\AppData\Local\Temp\ccJuO4y2.s:643    .text.osalSysLockFromISR:00000000 $t
C:\Users\PCHAUT~1\AppData\Local\Temp\ccJuO4y2.s:650    .text.osalSysLockFromISR:00000000 osalSysLockFromISR
C:\Users\PCHAUT~1\AppData\Local\Temp\ccJuO4y2.s:683    .text.osalSysLockFromISR:00000024 $d
C:\Users\PCHAUT~1\AppData\Local\Temp\ccJuO4y2.s:688    .text.osalSysUnlockFromISR:00000000 $t
C:\Users\PCHAUT~1\AppData\Local\Temp\ccJuO4y2.s:695    .text.osalSysUnlockFromISR:00000000 osalSysUnlockFromISR
C:\Users\PCHAUT~1\AppData\Local\Temp\ccJuO4y2.s:728    .text.osalSysUnlockFromISR:00000024 $d
C:\Users\PCHAUT~1\AppData\Local\Temp\ccJuO4y2.s:733    .text.osalSysPolledDelayX:00000000 $t
C:\Users\PCHAUT~1\AppData\Local\Temp\ccJuO4y2.s:740    .text.osalSysPolledDelayX:00000000 osalSysPolledDelayX
C:\Users\PCHAUT~1\AppData\Local\Temp\ccJuO4y2.s:775    .text.osalSysPolledDelayX:00000028 $d
C:\Users\PCHAUT~1\AppData\Local\Temp\ccJuO4y2.s:780    .text.osalOsRescheduleS:00000000 $t
C:\Users\PCHAUT~1\AppData\Local\Temp\ccJuO4y2.s:787    .text.osalOsRescheduleS:00000000 osalOsRescheduleS
C:\Users\PCHAUT~1\AppData\Local\Temp\ccJuO4y2.s:820    .text.osalOsRescheduleS:00000024 $d
C:\Users\PCHAUT~1\AppData\Local\Temp\ccJuO4y2.s:825    .text.osalThreadSuspendS:00000000 $t
C:\Users\PCHAUT~1\AppData\Local\Temp\ccJuO4y2.s:832    .text.osalThreadSuspendS:00000000 osalThreadSuspendS
C:\Users\PCHAUT~1\AppData\Local\Temp\ccJuO4y2.s:868    .text.osalThreadSuspendS:0000002c $d
C:\Users\PCHAUT~1\AppData\Local\Temp\ccJuO4y2.s:873    .text.osalThreadResumeI:00000000 $t
C:\Users\PCHAUT~1\AppData\Local\Temp\ccJuO4y2.s:880    .text.osalThreadResumeI:00000000 osalThreadResumeI
ARM GAS  C:\Users\PCHAUT~1\AppData\Local\Temp\ccJuO4y2.s 			page 348


C:\Users\PCHAUT~1\AppData\Local\Temp\ccJuO4y2.s:917    .text.osalThreadResumeI:0000002c $d
C:\Users\PCHAUT~1\AppData\Local\Temp\ccJuO4y2.s:922    .text.osalThreadDequeueAllI:00000000 $t
C:\Users\PCHAUT~1\AppData\Local\Temp\ccJuO4y2.s:929    .text.osalThreadDequeueAllI:00000000 osalThreadDequeueAllI
C:\Users\PCHAUT~1\AppData\Local\Temp\ccJuO4y2.s:966    .text.osalThreadDequeueAllI:0000002c $d
C:\Users\PCHAUT~1\AppData\Local\Temp\ccJuO4y2.s:975    .bss.USBD1:00000000 USBD1
C:\Users\PCHAUT~1\AppData\Local\Temp\ccJuO4y2.s:972    .bss.USBD1:00000000 $d
C:\Users\PCHAUT~1\AppData\Local\Temp\ccJuO4y2.s:978    .bss.ep0_state:00000000 $d
C:\Users\PCHAUT~1\AppData\Local\Temp\ccJuO4y2.s:981    .bss.ep0_state:00000000 ep0_state
C:\Users\PCHAUT~1\AppData\Local\Temp\ccJuO4y2.s:984    .bss.ep0setup_buffer:00000000 $d
C:\Users\PCHAUT~1\AppData\Local\Temp\ccJuO4y2.s:987    .bss.ep0setup_buffer:00000000 ep0setup_buffer
C:\Users\PCHAUT~1\AppData\Local\Temp\ccJuO4y2.s:990    .rodata.ep0config:00000000 $d
C:\Users\PCHAUT~1\AppData\Local\Temp\ccJuO4y2.s:993    .rodata.ep0config:00000000 ep0config
C:\Users\PCHAUT~1\AppData\Local\Temp\ccJuO4y2.s:1006   .rodata.fsparams:00000000 $d
C:\Users\PCHAUT~1\AppData\Local\Temp\ccJuO4y2.s:1009   .rodata.fsparams:00000000 fsparams
C:\Users\PCHAUT~1\AppData\Local\Temp\ccJuO4y2.s:1014   .text.otg_core_reset:00000000 $t
C:\Users\PCHAUT~1\AppData\Local\Temp\ccJuO4y2.s:1021   .text.otg_core_reset:00000000 otg_core_reset
C:\Users\PCHAUT~1\AppData\Local\Temp\ccJuO4y2.s:1085   .text.otg_core_reset:00000054 $d
C:\Users\PCHAUT~1\AppData\Local\Temp\ccJuO4y2.s:1090   .text.otg_disable_ep:00000000 $t
C:\Users\PCHAUT~1\AppData\Local\Temp\ccJuO4y2.s:1097   .text.otg_disable_ep:00000000 otg_disable_ep
C:\Users\PCHAUT~1\AppData\Local\Temp\ccJuO4y2.s:1268   .text.otg_disable_ep:00000120 $d
C:\Users\PCHAUT~1\AppData\Local\Temp\ccJuO4y2.s:1273   .text.otg_rxfifo_flush:00000000 $t
C:\Users\PCHAUT~1\AppData\Local\Temp\ccJuO4y2.s:1280   .text.otg_rxfifo_flush:00000000 otg_rxfifo_flush
C:\Users\PCHAUT~1\AppData\Local\Temp\ccJuO4y2.s:1332   .text.otg_rxfifo_flush:00000044 $d
C:\Users\PCHAUT~1\AppData\Local\Temp\ccJuO4y2.s:1337   .text.otg_txfifo_flush:00000000 $t
C:\Users\PCHAUT~1\AppData\Local\Temp\ccJuO4y2.s:1344   .text.otg_txfifo_flush:00000000 otg_txfifo_flush
C:\Users\PCHAUT~1\AppData\Local\Temp\ccJuO4y2.s:1399   .text.otg_txfifo_flush:0000004c $d
C:\Users\PCHAUT~1\AppData\Local\Temp\ccJuO4y2.s:1404   .text.otg_ram_reset:00000000 $t
C:\Users\PCHAUT~1\AppData\Local\Temp\ccJuO4y2.s:1411   .text.otg_ram_reset:00000000 otg_ram_reset
C:\Users\PCHAUT~1\AppData\Local\Temp\ccJuO4y2.s:1449   .text.otg_ram_reset:0000002c $d
C:\Users\PCHAUT~1\AppData\Local\Temp\ccJuO4y2.s:1454   .text.otg_ram_alloc:00000000 $t
C:\Users\PCHAUT~1\AppData\Local\Temp\ccJuO4y2.s:1461   .text.otg_ram_alloc:00000000 otg_ram_alloc
C:\Users\PCHAUT~1\AppData\Local\Temp\ccJuO4y2.s:1519   .text.otg_ram_alloc:0000004c $d
C:\Users\PCHAUT~1\AppData\Local\Temp\ccJuO4y2.s:5317   .rodata.__func__.10294:00000000 __func__.10294
C:\Users\PCHAUT~1\AppData\Local\Temp\ccJuO4y2.s:1525   .text.otg_do_push:00000000 $t
C:\Users\PCHAUT~1\AppData\Local\Temp\ccJuO4y2.s:1532   .text.otg_do_push:00000000 otg_do_push
C:\Users\PCHAUT~1\AppData\Local\Temp\ccJuO4y2.s:1589   .text.otg_do_push:00000044 $d
C:\Users\PCHAUT~1\AppData\Local\Temp\ccJuO4y2.s:1594   .text.otg_fifo_write_from_buffer:00000000 $t
C:\Users\PCHAUT~1\AppData\Local\Temp\ccJuO4y2.s:1601   .text.otg_fifo_write_from_buffer:00000000 otg_fifo_write_from_buffer
C:\Users\PCHAUT~1\AppData\Local\Temp\ccJuO4y2.s:1643   .text.otg_fifo_write_from_buffer:00000038 $d
C:\Users\PCHAUT~1\AppData\Local\Temp\ccJuO4y2.s:1648   .text.otg_fifo_write_from_queue:00000000 $t
C:\Users\PCHAUT~1\AppData\Local\Temp\ccJuO4y2.s:1655   .text.otg_fifo_write_from_queue:00000000 otg_fifo_write_from_queue
C:\Users\PCHAUT~1\AppData\Local\Temp\ccJuO4y2.s:1849   .text.otg_fifo_write_from_queue:00000118 $d
C:\Users\PCHAUT~1\AppData\Local\Temp\ccJuO4y2.s:1854   .text.otg_do_pop:00000000 $t
C:\Users\PCHAUT~1\AppData\Local\Temp\ccJuO4y2.s:1861   .text.otg_do_pop:00000000 otg_do_pop
C:\Users\PCHAUT~1\AppData\Local\Temp\ccJuO4y2.s:1923   .text.otg_do_pop:00000048 $d
C:\Users\PCHAUT~1\AppData\Local\Temp\ccJuO4y2.s:1928   .text.otg_fifo_read_to_buffer:00000000 $t
C:\Users\PCHAUT~1\AppData\Local\Temp\ccJuO4y2.s:1935   .text.otg_fifo_read_to_buffer:00000000 otg_fifo_read_to_buffer
C:\Users\PCHAUT~1\AppData\Local\Temp\ccJuO4y2.s:2015   .text.otg_fifo_read_to_buffer:00000064 $d
C:\Users\PCHAUT~1\AppData\Local\Temp\ccJuO4y2.s:2020   .text.otg_fifo_read_to_queue:00000000 $t
C:\Users\PCHAUT~1\AppData\Local\Temp\ccJuO4y2.s:2027   .text.otg_fifo_read_to_queue:00000000 otg_fifo_read_to_queue
C:\Users\PCHAUT~1\AppData\Local\Temp\ccJuO4y2.s:2205   .text.otg_fifo_read_to_queue:00000100 $d
C:\Users\PCHAUT~1\AppData\Local\Temp\ccJuO4y2.s:2210   .text.otg_rxfifo_handler:00000000 $t
C:\Users\PCHAUT~1\AppData\Local\Temp\ccJuO4y2.s:2217   .text.otg_rxfifo_handler:00000000 otg_rxfifo_handler
C:\Users\PCHAUT~1\AppData\Local\Temp\ccJuO4y2.s:2415   .text.otg_rxfifo_handler:0000014c $d
C:\Users\PCHAUT~1\AppData\Local\Temp\ccJuO4y2.s:2420   .text.otg_txfifo_handler:00000000 $t
C:\Users\PCHAUT~1\AppData\Local\Temp\ccJuO4y2.s:2427   .text.otg_txfifo_handler:00000000 otg_txfifo_handler
C:\Users\PCHAUT~1\AppData\Local\Temp\ccJuO4y2.s:2640   .text.otg_txfifo_handler:00000180 $d
ARM GAS  C:\Users\PCHAUT~1\AppData\Local\Temp\ccJuO4y2.s 			page 349


C:\Users\PCHAUT~1\AppData\Local\Temp\ccJuO4y2.s:2645   .text.otg_epin_handler:00000000 $t
C:\Users\PCHAUT~1\AppData\Local\Temp\ccJuO4y2.s:2652   .text.otg_epin_handler:00000000 otg_epin_handler
C:\Users\PCHAUT~1\AppData\Local\Temp\ccJuO4y2.s:4621   .text.usb_lld_prepare_transmit:00000000 usb_lld_prepare_transmit
C:\Users\PCHAUT~1\AppData\Local\Temp\ccJuO4y2.s:4817   .text.usb_lld_start_in:00000000 usb_lld_start_in
C:\Users\PCHAUT~1\AppData\Local\Temp\ccJuO4y2.s:2836   .text.otg_epin_handler:0000015c $d
C:\Users\PCHAUT~1\AppData\Local\Temp\ccJuO4y2.s:2841   .text.otg_epout_handler:00000000 $t
C:\Users\PCHAUT~1\AppData\Local\Temp\ccJuO4y2.s:2848   .text.otg_epout_handler:00000000 otg_epout_handler
C:\Users\PCHAUT~1\AppData\Local\Temp\ccJuO4y2.s:4507   .text.usb_lld_prepare_receive:00000000 usb_lld_prepare_receive
C:\Users\PCHAUT~1\AppData\Local\Temp\ccJuO4y2.s:4754   .text.usb_lld_start_out:00000000 usb_lld_start_out
C:\Users\PCHAUT~1\AppData\Local\Temp\ccJuO4y2.s:3015   .text.otg_epout_handler:0000012c $d
C:\Users\PCHAUT~1\AppData\Local\Temp\ccJuO4y2.s:3020   .text.usb_lld_serve_interrupt:00000000 $t
C:\Users\PCHAUT~1\AppData\Local\Temp\ccJuO4y2.s:3027   .text.usb_lld_serve_interrupt:00000000 usb_lld_serve_interrupt
C:\Users\PCHAUT~1\AppData\Local\Temp\ccJuO4y2.s:3244   .text.usb_lld_serve_interrupt:00000168 $d
C:\Users\PCHAUT~1\AppData\Local\Temp\ccJuO4y2.s:3249   .text.Vector14C:00000000 $t
C:\Users\PCHAUT~1\AppData\Local\Temp\ccJuO4y2.s:3257   .text.Vector14C:00000000 Vector14C
C:\Users\PCHAUT~1\AppData\Local\Temp\ccJuO4y2.s:3297   .text.Vector14C:00000038 $d
C:\Users\PCHAUT~1\AppData\Local\Temp\ccJuO4y2.s:3303   .text.usb_lld_init:00000000 $t
C:\Users\PCHAUT~1\AppData\Local\Temp\ccJuO4y2.s:3311   .text.usb_lld_init:00000000 usb_lld_init
C:\Users\PCHAUT~1\AppData\Local\Temp\ccJuO4y2.s:3381   .text.usb_lld_init:00000068 $d
C:\Users\PCHAUT~1\AppData\Local\Temp\ccJuO4y2.s:3389   .text.usb_lld_start:00000000 $t
C:\Users\PCHAUT~1\AppData\Local\Temp\ccJuO4y2.s:3397   .text.usb_lld_start:00000000 usb_lld_start
C:\Users\PCHAUT~1\AppData\Local\Temp\ccJuO4y2.s:3558   .text.usb_lld_start:00000110 $d
C:\Users\PCHAUT~1\AppData\Local\Temp\ccJuO4y2.s:5147   .text.usb_lld_pump:00000000 usb_lld_pump
C:\Users\PCHAUT~1\AppData\Local\Temp\ccJuO4y2.s:3568   .text.usb_lld_stop:00000000 $t
C:\Users\PCHAUT~1\AppData\Local\Temp\ccJuO4y2.s:3576   .text.usb_lld_stop:00000000 usb_lld_stop
C:\Users\PCHAUT~1\AppData\Local\Temp\ccJuO4y2.s:3651   .text.usb_lld_stop:0000006c $d
C:\Users\PCHAUT~1\AppData\Local\Temp\ccJuO4y2.s:3658   .text.usb_lld_reset:00000000 $t
C:\Users\PCHAUT~1\AppData\Local\Temp\ccJuO4y2.s:3666   .text.usb_lld_reset:00000000 usb_lld_reset
C:\Users\PCHAUT~1\AppData\Local\Temp\ccJuO4y2.s:3841   .text.usb_lld_reset:00000138 $d
C:\Users\PCHAUT~1\AppData\Local\Temp\ccJuO4y2.s:3847   .text.usb_lld_set_address:00000000 $t
C:\Users\PCHAUT~1\AppData\Local\Temp\ccJuO4y2.s:3855   .text.usb_lld_set_address:00000000 usb_lld_set_address
C:\Users\PCHAUT~1\AppData\Local\Temp\ccJuO4y2.s:3901   .text.usb_lld_set_address:00000044 $d
C:\Users\PCHAUT~1\AppData\Local\Temp\ccJuO4y2.s:3906   .text.usb_lld_init_endpoint:00000000 $t
C:\Users\PCHAUT~1\AppData\Local\Temp\ccJuO4y2.s:3914   .text.usb_lld_init_endpoint:00000000 usb_lld_init_endpoint
C:\Users\PCHAUT~1\AppData\Local\Temp\ccJuO4y2.s:3952   .text.usb_lld_init_endpoint:00000038 $d
C:\Users\PCHAUT~1\AppData\Local\Temp\ccJuO4y2.s:3956   .text.usb_lld_init_endpoint:00000048 $t
C:\Users\PCHAUT~1\AppData\Local\Temp\ccJuO4y2.s:4224   .text.usb_lld_init_endpoint:00000250 $d
C:\Users\PCHAUT~1\AppData\Local\Temp\ccJuO4y2.s:4234   .text.usb_lld_disable_endpoints:00000000 $t
C:\Users\PCHAUT~1\AppData\Local\Temp\ccJuO4y2.s:4242   .text.usb_lld_disable_endpoints:00000000 usb_lld_disable_endpoints
C:\Users\PCHAUT~1\AppData\Local\Temp\ccJuO4y2.s:4280   .text.usb_lld_disable_endpoints:00000030 $d
C:\Users\PCHAUT~1\AppData\Local\Temp\ccJuO4y2.s:4285   .text.usb_lld_get_status_out:00000000 $t
C:\Users\PCHAUT~1\AppData\Local\Temp\ccJuO4y2.s:4293   .text.usb_lld_get_status_out:00000000 usb_lld_get_status_out
C:\Users\PCHAUT~1\AppData\Local\Temp\ccJuO4y2.s:4357   .text.usb_lld_get_status_out:00000058 $d
C:\Users\PCHAUT~1\AppData\Local\Temp\ccJuO4y2.s:4362   .text.usb_lld_get_status_in:00000000 $t
C:\Users\PCHAUT~1\AppData\Local\Temp\ccJuO4y2.s:4370   .text.usb_lld_get_status_in:00000000 usb_lld_get_status_in
C:\Users\PCHAUT~1\AppData\Local\Temp\ccJuO4y2.s:4434   .text.usb_lld_get_status_in:00000058 $d
C:\Users\PCHAUT~1\AppData\Local\Temp\ccJuO4y2.s:4439   .text.usb_lld_read_setup:00000000 $t
C:\Users\PCHAUT~1\AppData\Local\Temp\ccJuO4y2.s:4447   .text.usb_lld_read_setup:00000000 usb_lld_read_setup
C:\Users\PCHAUT~1\AppData\Local\Temp\ccJuO4y2.s:4494   .text.usb_lld_read_setup:00000044 $d
C:\Users\PCHAUT~1\AppData\Local\Temp\ccJuO4y2.s:4499   .text.usb_lld_prepare_receive:00000000 $t
C:\Users\PCHAUT~1\AppData\Local\Temp\ccJuO4y2.s:4608   .text.usb_lld_prepare_receive:000000a8 $d
C:\Users\PCHAUT~1\AppData\Local\Temp\ccJuO4y2.s:4613   .text.usb_lld_prepare_transmit:00000000 $t
C:\Users\PCHAUT~1\AppData\Local\Temp\ccJuO4y2.s:4741   .text.usb_lld_prepare_transmit:000000c4 $d
C:\Users\PCHAUT~1\AppData\Local\Temp\ccJuO4y2.s:4746   .text.usb_lld_start_out:00000000 $t
C:\Users\PCHAUT~1\AppData\Local\Temp\ccJuO4y2.s:4804   .text.usb_lld_start_out:0000004c $d
C:\Users\PCHAUT~1\AppData\Local\Temp\ccJuO4y2.s:4809   .text.usb_lld_start_in:00000000 $t
C:\Users\PCHAUT~1\AppData\Local\Temp\ccJuO4y2.s:4878   .text.usb_lld_start_in:00000068 $d
ARM GAS  C:\Users\PCHAUT~1\AppData\Local\Temp\ccJuO4y2.s 			page 350


C:\Users\PCHAUT~1\AppData\Local\Temp\ccJuO4y2.s:4883   .text.usb_lld_stall_out:00000000 $t
C:\Users\PCHAUT~1\AppData\Local\Temp\ccJuO4y2.s:4891   .text.usb_lld_stall_out:00000000 usb_lld_stall_out
C:\Users\PCHAUT~1\AppData\Local\Temp\ccJuO4y2.s:4941   .text.usb_lld_stall_out:0000004c $d
C:\Users\PCHAUT~1\AppData\Local\Temp\ccJuO4y2.s:4946   .text.usb_lld_stall_in:00000000 $t
C:\Users\PCHAUT~1\AppData\Local\Temp\ccJuO4y2.s:4954   .text.usb_lld_stall_in:00000000 usb_lld_stall_in
C:\Users\PCHAUT~1\AppData\Local\Temp\ccJuO4y2.s:5004   .text.usb_lld_stall_in:0000004c $d
C:\Users\PCHAUT~1\AppData\Local\Temp\ccJuO4y2.s:5009   .text.usb_lld_clear_out:00000000 $t
C:\Users\PCHAUT~1\AppData\Local\Temp\ccJuO4y2.s:5017   .text.usb_lld_clear_out:00000000 usb_lld_clear_out
C:\Users\PCHAUT~1\AppData\Local\Temp\ccJuO4y2.s:5067   .text.usb_lld_clear_out:0000004c $d
C:\Users\PCHAUT~1\AppData\Local\Temp\ccJuO4y2.s:5072   .text.usb_lld_clear_in:00000000 $t
C:\Users\PCHAUT~1\AppData\Local\Temp\ccJuO4y2.s:5080   .text.usb_lld_clear_in:00000000 usb_lld_clear_in
C:\Users\PCHAUT~1\AppData\Local\Temp\ccJuO4y2.s:5130   .text.usb_lld_clear_in:0000004c $d
C:\Users\PCHAUT~1\AppData\Local\Temp\ccJuO4y2.s:5135   .rodata:00000000 $d
C:\Users\PCHAUT~1\AppData\Local\Temp\ccJuO4y2.s:5139   .text.usb_lld_pump:00000000 $t
C:\Users\PCHAUT~1\AppData\Local\Temp\ccJuO4y2.s:5308   .text.usb_lld_pump:0000010c $d
C:\Users\PCHAUT~1\AppData\Local\Temp\ccJuO4y2.s:5314   .rodata.__func__.10294:00000000 $d
C:\Users\PCHAUT~1\AppData\Local\Temp\ccJuO4y2.s:5320   .rodata.__func__.7554:00000000 $d
C:\Users\PCHAUT~1\AppData\Local\Temp\ccJuO4y2.s:5326   .rodata.__func__.7721:00000000 $d

UNDEFINED SYMBOLS
__stack_chk_fail
__stack_chk_guard
_stats_start_measure_crit_thd
_dbg_check_lock
_dbg_check_unlock
_stats_stop_measure_crit_thd
chSysHalt
ch
_stats_start_measure_crit_isr
_dbg_check_lock_from_isr
_dbg_check_unlock_from_isr
_stats_stop_measure_crit_isr
chSchReadyI
chSysPolledDelayX
chSchRescheduleS
chThdSuspendS
chThdResumeI
chThdDequeueAllI
_usb_ep0setup
_usb_ep0in
_usb_ep0out
_usb_reset
_stats_increase_irq
_dbg_check_enter_isr
_dbg_check_leave_isr
_port_irq_epilogue
usbObjectInit
_thread_memfill
nvicEnableVector
chThdCreateI
nvicDisableVector
memcpy
