ARM GAS  C:\Users\PCHAUT~1\AppData\Local\Temp\ccJuO4y2.s 			page 1


   1              		.cpu cortex-m4
   2              		.eabi_attribute 27, 1
   3              		.eabi_attribute 28, 1
   4              		.eabi_attribute 20, 1
   5              		.eabi_attribute 21, 1
   6              		.eabi_attribute 23, 3
   7              		.eabi_attribute 24, 1
   8              		.eabi_attribute 25, 1
   9              		.eabi_attribute 26, 1
  10              		.eabi_attribute 30, 6
  11              		.eabi_attribute 34, 1
  12              		.eabi_attribute 18, 4
  13              		.file	"usb_lld.c"
  14              		.text
  15              	.Ltext0:
  16              		.cfi_sections	.debug_frame
  17              		.section	.text.port_lock,"ax",%progbits
  18              		.align	1
  19              		.p2align 4,,15
  20              		.syntax unified
  21              		.thumb
  22              		.thumb_func
  23              		.fpu fpv4-sp-d16
  24              		.type	port_lock, %function
  25              	port_lock:
  26              	.LFB116:
  27              		.file 1 "../lib/e-puck2_main-processor/ChibiOS//os/rt/ports/ARMCMx/chcore_v7m.h"
  28              		.loc 1 444 0
  29              		.cfi_startproc
  30              		@ args = 0, pretend = 0, frame = 8
  31              		@ frame_needed = 0, uses_anonymous_args = 0
  32 0000 00B5     		push	{lr}
  33              		.cfi_def_cfa_offset 4
  34              		.cfi_offset 14, -4
  35 0002 83B0     		sub	sp, sp, #12
  36              		.cfi_def_cfa_offset 16
  37              		.loc 1 444 0
  38 0004 094B     		ldr	r3, .L3
  39 0006 1B68     		ldr	r3, [r3]
  40 0008 0193     		str	r3, [sp, #4]
  41 000a 2023     		movs	r3, #32
  42 000c 0093     		str	r3, [sp]
  43              	.LBB6:
  44              	.LBB7:
  45              		.file 2 "../lib/e-puck2_main-processor/ChibiOS//os/ext/CMSIS/include/core_cmFunc.h"
  46              		.loc 2 546 0
  47 000e 009B     		ldr	r3, [sp]
  48              		.syntax unified
  49              	@ 546 "../lib/e-puck2_main-processor/ChibiOS//os/ext/CMSIS/include/core_cmFunc.h" 1
  50 0010 83F31188 		MSR basepri, r3
  51              	@ 0 "" 2
  52              		.thumb
  53              		.syntax unified
  54              	.LBE7:
  55              	.LBE6:
  56              		.loc 1 451 0
  57 0014 00BF     		nop
ARM GAS  C:\Users\PCHAUT~1\AppData\Local\Temp\ccJuO4y2.s 			page 2


  58 0016 054B     		ldr	r3, .L3
  59 0018 019A     		ldr	r2, [sp, #4]
  60 001a 1B68     		ldr	r3, [r3]
  61 001c 9A42     		cmp	r2, r3
  62 001e 01D0     		beq	.L2
  63 0020 FFF7FEFF 		bl	__stack_chk_fail
  64              	.L2:
  65 0024 03B0     		add	sp, sp, #12
  66              		.cfi_def_cfa_offset 4
  67              		@ sp needed
  68 0026 5DF804FB 		ldr	pc, [sp], #4
  69              	.L4:
  70 002a 00BF     		.align	2
  71              	.L3:
  72 002c 00000000 		.word	__stack_chk_guard
  73              		.cfi_endproc
  74              	.LFE116:
  75              		.size	port_lock, .-port_lock
  76              		.section	.text.port_unlock,"ax",%progbits
  77              		.align	1
  78              		.p2align 4,,15
  79              		.syntax unified
  80              		.thumb
  81              		.thumb_func
  82              		.fpu fpv4-sp-d16
  83              		.type	port_unlock, %function
  84              	port_unlock:
  85              	.LFB117:
  86              		.loc 1 458 0
  87              		.cfi_startproc
  88              		@ args = 0, pretend = 0, frame = 8
  89              		@ frame_needed = 0, uses_anonymous_args = 0
  90 0000 00B5     		push	{lr}
  91              		.cfi_def_cfa_offset 4
  92              		.cfi_offset 14, -4
  93 0002 83B0     		sub	sp, sp, #12
  94              		.cfi_def_cfa_offset 16
  95              		.loc 1 458 0
  96 0004 094B     		ldr	r3, .L7
  97 0006 1B68     		ldr	r3, [r3]
  98 0008 0193     		str	r3, [sp, #4]
  99 000a 0023     		movs	r3, #0
 100 000c 0093     		str	r3, [sp]
 101              	.LBB8:
 102              	.LBB9:
 103              		.loc 2 546 0
 104 000e 009B     		ldr	r3, [sp]
 105              		.syntax unified
 106              	@ 546 "../lib/e-puck2_main-processor/ChibiOS//os/ext/CMSIS/include/core_cmFunc.h" 1
 107 0010 83F31188 		MSR basepri, r3
 108              	@ 0 "" 2
 109              		.thumb
 110              		.syntax unified
 111              	.LBE9:
 112              	.LBE8:
 113              		.loc 1 465 0
 114 0014 00BF     		nop
ARM GAS  C:\Users\PCHAUT~1\AppData\Local\Temp\ccJuO4y2.s 			page 3


 115 0016 054B     		ldr	r3, .L7
 116 0018 019A     		ldr	r2, [sp, #4]
 117 001a 1B68     		ldr	r3, [r3]
 118 001c 9A42     		cmp	r2, r3
 119 001e 01D0     		beq	.L6
 120 0020 FFF7FEFF 		bl	__stack_chk_fail
 121              	.L6:
 122 0024 03B0     		add	sp, sp, #12
 123              		.cfi_def_cfa_offset 4
 124              		@ sp needed
 125 0026 5DF804FB 		ldr	pc, [sp], #4
 126              	.L8:
 127 002a 00BF     		.align	2
 128              	.L7:
 129 002c 00000000 		.word	__stack_chk_guard
 130              		.cfi_endproc
 131              	.LFE117:
 132              		.size	port_unlock, .-port_unlock
 133              		.section	.text.port_lock_from_isr,"ax",%progbits
 134              		.align	1
 135              		.p2align 4,,15
 136              		.syntax unified
 137              		.thumb
 138              		.thumb_func
 139              		.fpu fpv4-sp-d16
 140              		.type	port_lock_from_isr, %function
 141              	port_lock_from_isr:
 142              	.LFB118:
 143              		.loc 1 473 0
 144              		.cfi_startproc
 145              		@ args = 0, pretend = 0, frame = 8
 146              		@ frame_needed = 0, uses_anonymous_args = 0
 147 0000 00B5     		push	{lr}
 148              		.cfi_def_cfa_offset 4
 149              		.cfi_offset 14, -4
 150 0002 83B0     		sub	sp, sp, #12
 151              		.cfi_def_cfa_offset 16
 152              		.loc 1 473 0
 153 0004 074B     		ldr	r3, .L11
 154 0006 1B68     		ldr	r3, [r3]
 155 0008 0193     		str	r3, [sp, #4]
 156              		.loc 1 475 0
 157 000a FFF7FEFF 		bl	port_lock
 158              		.loc 1 476 0
 159 000e 00BF     		nop
 160 0010 044B     		ldr	r3, .L11
 161 0012 019A     		ldr	r2, [sp, #4]
 162 0014 1B68     		ldr	r3, [r3]
 163 0016 9A42     		cmp	r2, r3
 164 0018 01D0     		beq	.L10
 165 001a FFF7FEFF 		bl	__stack_chk_fail
 166              	.L10:
 167 001e 03B0     		add	sp, sp, #12
 168              		.cfi_def_cfa_offset 4
 169              		@ sp needed
 170 0020 5DF804FB 		ldr	pc, [sp], #4
 171              	.L12:
ARM GAS  C:\Users\PCHAUT~1\AppData\Local\Temp\ccJuO4y2.s 			page 4


 172              		.align	2
 173              	.L11:
 174 0024 00000000 		.word	__stack_chk_guard
 175              		.cfi_endproc
 176              	.LFE118:
 177              		.size	port_lock_from_isr, .-port_lock_from_isr
 178              		.section	.text.port_unlock_from_isr,"ax",%progbits
 179              		.align	1
 180              		.p2align 4,,15
 181              		.syntax unified
 182              		.thumb
 183              		.thumb_func
 184              		.fpu fpv4-sp-d16
 185              		.type	port_unlock_from_isr, %function
 186              	port_unlock_from_isr:
 187              	.LFB119:
 188              		.loc 1 484 0
 189              		.cfi_startproc
 190              		@ args = 0, pretend = 0, frame = 8
 191              		@ frame_needed = 0, uses_anonymous_args = 0
 192 0000 00B5     		push	{lr}
 193              		.cfi_def_cfa_offset 4
 194              		.cfi_offset 14, -4
 195 0002 83B0     		sub	sp, sp, #12
 196              		.cfi_def_cfa_offset 16
 197              		.loc 1 484 0
 198 0004 074B     		ldr	r3, .L15
 199 0006 1B68     		ldr	r3, [r3]
 200 0008 0193     		str	r3, [sp, #4]
 201              		.loc 1 486 0
 202 000a FFF7FEFF 		bl	port_unlock
 203              		.loc 1 487 0
 204 000e 00BF     		nop
 205 0010 044B     		ldr	r3, .L15
 206 0012 019A     		ldr	r2, [sp, #4]
 207 0014 1B68     		ldr	r3, [r3]
 208 0016 9A42     		cmp	r2, r3
 209 0018 01D0     		beq	.L14
 210 001a FFF7FEFF 		bl	__stack_chk_fail
 211              	.L14:
 212 001e 03B0     		add	sp, sp, #12
 213              		.cfi_def_cfa_offset 4
 214              		@ sp needed
 215 0020 5DF804FB 		ldr	pc, [sp], #4
 216              	.L16:
 217              		.align	2
 218              	.L15:
 219 0024 00000000 		.word	__stack_chk_guard
 220              		.cfi_endproc
 221              	.LFE119:
 222              		.size	port_unlock_from_isr, .-port_unlock_from_isr
 223              		.section	.text.chSysLock,"ax",%progbits
 224              		.align	1
 225              		.p2align 4,,15
 226              		.syntax unified
 227              		.thumb
 228              		.thumb_func
ARM GAS  C:\Users\PCHAUT~1\AppData\Local\Temp\ccJuO4y2.s 			page 5


 229              		.fpu fpv4-sp-d16
 230              		.type	chSysLock, %function
 231              	chSysLock:
 232              	.LFB145:
 233              		.file 3 "../lib/e-puck2_main-processor/ChibiOS//os/rt/include/chsys.h"
 234              		.loc 3 346 0
 235              		.cfi_startproc
 236              		@ args = 0, pretend = 0, frame = 8
 237              		@ frame_needed = 0, uses_anonymous_args = 0
 238 0000 00B5     		push	{lr}
 239              		.cfi_def_cfa_offset 4
 240              		.cfi_offset 14, -4
 241 0002 83B0     		sub	sp, sp, #12
 242              		.cfi_def_cfa_offset 16
 243              		.loc 3 346 0
 244 0004 094B     		ldr	r3, .L19
 245 0006 1B68     		ldr	r3, [r3]
 246 0008 0193     		str	r3, [sp, #4]
 247              		.loc 3 348 0
 248 000a FFF7FEFF 		bl	port_lock
 249              		.loc 3 349 0
 250 000e FFF7FEFF 		bl	_stats_start_measure_crit_thd
 251              		.loc 3 350 0
 252 0012 FFF7FEFF 		bl	_dbg_check_lock
 253              		.loc 3 351 0
 254 0016 00BF     		nop
 255 0018 044B     		ldr	r3, .L19
 256 001a 019A     		ldr	r2, [sp, #4]
 257 001c 1B68     		ldr	r3, [r3]
 258 001e 9A42     		cmp	r2, r3
 259 0020 01D0     		beq	.L18
 260 0022 FFF7FEFF 		bl	__stack_chk_fail
 261              	.L18:
 262 0026 03B0     		add	sp, sp, #12
 263              		.cfi_def_cfa_offset 4
 264              		@ sp needed
 265 0028 5DF804FB 		ldr	pc, [sp], #4
 266              	.L20:
 267              		.align	2
 268              	.L19:
 269 002c 00000000 		.word	__stack_chk_guard
 270              		.cfi_endproc
 271              	.LFE145:
 272              		.size	chSysLock, .-chSysLock
 273              		.section	.text.chSysUnlock,"ax",%progbits
 274              		.align	1
 275              		.p2align 4,,15
 276              		.syntax unified
 277              		.thumb
 278              		.thumb_func
 279              		.fpu fpv4-sp-d16
 280              		.type	chSysUnlock, %function
 281              	chSysUnlock:
 282              	.LFB146:
 283              		.loc 3 358 0
 284              		.cfi_startproc
 285              		@ args = 0, pretend = 0, frame = 8
ARM GAS  C:\Users\PCHAUT~1\AppData\Local\Temp\ccJuO4y2.s 			page 6


 286              		@ frame_needed = 0, uses_anonymous_args = 0
 287 0000 00B5     		push	{lr}
 288              		.cfi_def_cfa_offset 4
 289              		.cfi_offset 14, -4
 290 0002 83B0     		sub	sp, sp, #12
 291              		.cfi_def_cfa_offset 16
 292              		.loc 3 358 0
 293 0004 114B     		ldr	r3, .L24
 294 0006 1B68     		ldr	r3, [r3]
 295 0008 0193     		str	r3, [sp, #4]
 296              		.loc 3 360 0
 297 000a FFF7FEFF 		bl	_dbg_check_unlock
 298              		.loc 3 361 0
 299 000e FFF7FEFF 		bl	_stats_stop_measure_crit_thd
 300              		.loc 3 367 0
 301 0012 0F4B     		ldr	r3, .L24+4
 302 0014 1B68     		ldr	r3, [r3]
 303 0016 0E4A     		ldr	r2, .L24+4
 304 0018 9342     		cmp	r3, r2
 305 001a 0AD0     		beq	.L22
 306              		.loc 3 367 0 is_stmt 0 discriminator 2
 307 001c 0C4B     		ldr	r3, .L24+4
 308 001e 9B69     		ldr	r3, [r3, #24]
 309 0020 9A68     		ldr	r2, [r3, #8]
 310 0022 0B4B     		ldr	r3, .L24+4
 311 0024 1B68     		ldr	r3, [r3]
 312 0026 9B68     		ldr	r3, [r3, #8]
 313 0028 9A42     		cmp	r2, r3
 314 002a 02D2     		bcs	.L22
 315              		.loc 3 367 0 discriminator 3
 316 002c 0948     		ldr	r0, .L24+8
 317 002e FFF7FEFF 		bl	chSysHalt
 318              	.L22:
 319              		.loc 3 371 0 is_stmt 1
 320 0032 FFF7FEFF 		bl	port_unlock
 321              		.loc 3 372 0
 322 0036 00BF     		nop
 323 0038 044B     		ldr	r3, .L24
 324 003a 019A     		ldr	r2, [sp, #4]
 325 003c 1B68     		ldr	r3, [r3]
 326 003e 9A42     		cmp	r2, r3
 327 0040 01D0     		beq	.L23
 328 0042 FFF7FEFF 		bl	__stack_chk_fail
 329              	.L23:
 330 0046 03B0     		add	sp, sp, #12
 331              		.cfi_def_cfa_offset 4
 332              		@ sp needed
 333 0048 5DF804FB 		ldr	pc, [sp], #4
 334              	.L25:
 335              		.align	2
 336              	.L24:
 337 004c 00000000 		.word	__stack_chk_guard
 338 0050 00000000 		.word	ch
 339 0054 00000000 		.word	__func__.7554
 340              		.cfi_endproc
 341              	.LFE146:
 342              		.size	chSysUnlock, .-chSysUnlock
ARM GAS  C:\Users\PCHAUT~1\AppData\Local\Temp\ccJuO4y2.s 			page 7


 343              		.section	.text.chSysLockFromISR,"ax",%progbits
 344              		.align	1
 345              		.p2align 4,,15
 346              		.syntax unified
 347              		.thumb
 348              		.thumb_func
 349              		.fpu fpv4-sp-d16
 350              		.type	chSysLockFromISR, %function
 351              	chSysLockFromISR:
 352              	.LFB147:
 353              		.loc 3 386 0
 354              		.cfi_startproc
 355              		@ args = 0, pretend = 0, frame = 8
 356              		@ frame_needed = 0, uses_anonymous_args = 0
 357 0000 00B5     		push	{lr}
 358              		.cfi_def_cfa_offset 4
 359              		.cfi_offset 14, -4
 360 0002 83B0     		sub	sp, sp, #12
 361              		.cfi_def_cfa_offset 16
 362              		.loc 3 386 0
 363 0004 094B     		ldr	r3, .L28
 364 0006 1B68     		ldr	r3, [r3]
 365 0008 0193     		str	r3, [sp, #4]
 366              		.loc 3 388 0
 367 000a FFF7FEFF 		bl	port_lock_from_isr
 368              		.loc 3 389 0
 369 000e FFF7FEFF 		bl	_stats_start_measure_crit_isr
 370              		.loc 3 390 0
 371 0012 FFF7FEFF 		bl	_dbg_check_lock_from_isr
 372              		.loc 3 391 0
 373 0016 00BF     		nop
 374 0018 044B     		ldr	r3, .L28
 375 001a 019A     		ldr	r2, [sp, #4]
 376 001c 1B68     		ldr	r3, [r3]
 377 001e 9A42     		cmp	r2, r3
 378 0020 01D0     		beq	.L27
 379 0022 FFF7FEFF 		bl	__stack_chk_fail
 380              	.L27:
 381 0026 03B0     		add	sp, sp, #12
 382              		.cfi_def_cfa_offset 4
 383              		@ sp needed
 384 0028 5DF804FB 		ldr	pc, [sp], #4
 385              	.L29:
 386              		.align	2
 387              	.L28:
 388 002c 00000000 		.word	__stack_chk_guard
 389              		.cfi_endproc
 390              	.LFE147:
 391              		.size	chSysLockFromISR, .-chSysLockFromISR
 392              		.section	.text.chSysUnlockFromISR,"ax",%progbits
 393              		.align	1
 394              		.p2align 4,,15
 395              		.syntax unified
 396              		.thumb
 397              		.thumb_func
 398              		.fpu fpv4-sp-d16
 399              		.type	chSysUnlockFromISR, %function
ARM GAS  C:\Users\PCHAUT~1\AppData\Local\Temp\ccJuO4y2.s 			page 8


 400              	chSysUnlockFromISR:
 401              	.LFB148:
 402              		.loc 3 406 0
 403              		.cfi_startproc
 404              		@ args = 0, pretend = 0, frame = 8
 405              		@ frame_needed = 0, uses_anonymous_args = 0
 406 0000 00B5     		push	{lr}
 407              		.cfi_def_cfa_offset 4
 408              		.cfi_offset 14, -4
 409 0002 83B0     		sub	sp, sp, #12
 410              		.cfi_def_cfa_offset 16
 411              		.loc 3 406 0
 412 0004 094B     		ldr	r3, .L32
 413 0006 1B68     		ldr	r3, [r3]
 414 0008 0193     		str	r3, [sp, #4]
 415              		.loc 3 408 0
 416 000a FFF7FEFF 		bl	_dbg_check_unlock_from_isr
 417              		.loc 3 409 0
 418 000e FFF7FEFF 		bl	_stats_stop_measure_crit_isr
 419              		.loc 3 410 0
 420 0012 FFF7FEFF 		bl	port_unlock_from_isr
 421              		.loc 3 411 0
 422 0016 00BF     		nop
 423 0018 044B     		ldr	r3, .L32
 424 001a 019A     		ldr	r2, [sp, #4]
 425 001c 1B68     		ldr	r3, [r3]
 426 001e 9A42     		cmp	r2, r3
 427 0020 01D0     		beq	.L31
 428 0022 FFF7FEFF 		bl	__stack_chk_fail
 429              	.L31:
 430 0026 03B0     		add	sp, sp, #12
 431              		.cfi_def_cfa_offset 4
 432              		@ sp needed
 433 0028 5DF804FB 		ldr	pc, [sp], #4
 434              	.L33:
 435              		.align	2
 436              	.L32:
 437 002c 00000000 		.word	__stack_chk_guard
 438              		.cfi_endproc
 439              	.LFE148:
 440              		.size	chSysUnlockFromISR, .-chSysUnlockFromISR
 441              		.section	.text.chThdStartI,"ax",%progbits
 442              		.align	1
 443              		.p2align 4,,15
 444              		.syntax unified
 445              		.thumb
 446              		.thumb_func
 447              		.fpu fpv4-sp-d16
 448              		.type	chThdStartI, %function
 449              	chThdStartI:
 450              	.LFB171:
 451              		.file 4 "../lib/e-puck2_main-processor/ChibiOS//os/rt/include/chthreads.h"
 452              		.loc 4 245 0
 453              		.cfi_startproc
 454              		@ args = 0, pretend = 0, frame = 16
 455              		@ frame_needed = 0, uses_anonymous_args = 0
 456 0000 00B5     		push	{lr}
ARM GAS  C:\Users\PCHAUT~1\AppData\Local\Temp\ccJuO4y2.s 			page 9


 457              		.cfi_def_cfa_offset 4
 458              		.cfi_offset 14, -4
 459 0002 85B0     		sub	sp, sp, #20
 460              		.cfi_def_cfa_offset 24
 461 0004 0190     		str	r0, [sp, #4]
 462              		.loc 4 245 0
 463 0006 0D4B     		ldr	r3, .L38
 464 0008 1B68     		ldr	r3, [r3]
 465 000a 0393     		str	r3, [sp, #12]
 466              		.loc 4 247 0
 467 000c 019B     		ldr	r3, [sp, #4]
 468 000e 93F82030 		ldrb	r3, [r3, #32]	@ zero_extendqisi2
 469 0012 022B     		cmp	r3, #2
 470 0014 02D0     		beq	.L35
 471              		.loc 4 247 0 is_stmt 0 discriminator 2
 472 0016 0A48     		ldr	r0, .L38+4
 473 0018 FFF7FEFF 		bl	chSysHalt
 474              	.L35:
 475              		.loc 4 249 0 is_stmt 1
 476 001c 0198     		ldr	r0, [sp, #4]
 477 001e FFF7FEFF 		bl	chSchReadyI
 478 0022 0346     		mov	r3, r0
 479              		.loc 4 250 0
 480 0024 1846     		mov	r0, r3
 481 0026 054B     		ldr	r3, .L38
 482 0028 039A     		ldr	r2, [sp, #12]
 483 002a 1B68     		ldr	r3, [r3]
 484 002c 9A42     		cmp	r2, r3
 485 002e 01D0     		beq	.L37
 486 0030 FFF7FEFF 		bl	__stack_chk_fail
 487              	.L37:
 488 0034 05B0     		add	sp, sp, #20
 489              		.cfi_def_cfa_offset 4
 490              		@ sp needed
 491 0036 5DF804FB 		ldr	pc, [sp], #4
 492              	.L39:
 493 003a 00BF     		.align	2
 494              	.L38:
 495 003c 00000000 		.word	__stack_chk_guard
 496 0040 00000000 		.word	__func__.7721
 497              		.cfi_endproc
 498              	.LFE171:
 499              		.size	chThdStartI, .-chThdStartI
 500              		.section	.text.chRegSetThreadName,"ax",%progbits
 501              		.align	1
 502              		.p2align 4,,15
 503              		.syntax unified
 504              		.thumb
 505              		.thumb_func
 506              		.fpu fpv4-sp-d16
 507              		.type	chRegSetThreadName, %function
 508              	chRegSetThreadName:
 509              	.LFB176:
 510              		.file 5 "../lib/e-puck2_main-processor/ChibiOS//os/rt/include/chregistry.h"
 511              		.loc 5 132 0
 512              		.cfi_startproc
 513              		@ args = 0, pretend = 0, frame = 16
ARM GAS  C:\Users\PCHAUT~1\AppData\Local\Temp\ccJuO4y2.s 			page 10


 514              		@ frame_needed = 0, uses_anonymous_args = 0
 515 0000 00B5     		push	{lr}
 516              		.cfi_def_cfa_offset 4
 517              		.cfi_offset 14, -4
 518 0002 85B0     		sub	sp, sp, #20
 519              		.cfi_def_cfa_offset 24
 520 0004 0190     		str	r0, [sp, #4]
 521              		.loc 5 132 0
 522 0006 094B     		ldr	r3, .L42
 523 0008 1B68     		ldr	r3, [r3]
 524 000a 0393     		str	r3, [sp, #12]
 525              		.loc 5 135 0
 526 000c 084B     		ldr	r3, .L42+4
 527 000e 9B69     		ldr	r3, [r3, #24]
 528 0010 019A     		ldr	r2, [sp, #4]
 529 0012 9A61     		str	r2, [r3, #24]
 530              		.loc 5 139 0
 531 0014 00BF     		nop
 532 0016 054B     		ldr	r3, .L42
 533 0018 039A     		ldr	r2, [sp, #12]
 534 001a 1B68     		ldr	r3, [r3]
 535 001c 9A42     		cmp	r2, r3
 536 001e 01D0     		beq	.L41
 537 0020 FFF7FEFF 		bl	__stack_chk_fail
 538              	.L41:
 539 0024 05B0     		add	sp, sp, #20
 540              		.cfi_def_cfa_offset 4
 541              		@ sp needed
 542 0026 5DF804FB 		ldr	pc, [sp], #4
 543              	.L43:
 544 002a 00BF     		.align	2
 545              	.L42:
 546 002c 00000000 		.word	__stack_chk_guard
 547 0030 00000000 		.word	ch
 548              		.cfi_endproc
 549              	.LFE176:
 550              		.size	chRegSetThreadName, .-chRegSetThreadName
 551              		.section	.text.osalSysLock,"ax",%progbits
 552              		.align	1
 553              		.p2align 4,,15
 554              		.syntax unified
 555              		.thumb
 556              		.thumb_func
 557              		.fpu fpv4-sp-d16
 558              		.type	osalSysLock, %function
 559              	osalSysLock:
 560              	.LFB223:
 561              		.file 6 "../lib/e-puck2_main-processor/ChibiOS//os/hal/osal/rt/osal.h"
 562              		.loc 6 445 0
 563              		.cfi_startproc
 564              		@ args = 0, pretend = 0, frame = 8
 565              		@ frame_needed = 0, uses_anonymous_args = 0
 566 0000 00B5     		push	{lr}
 567              		.cfi_def_cfa_offset 4
 568              		.cfi_offset 14, -4
 569 0002 83B0     		sub	sp, sp, #12
 570              		.cfi_def_cfa_offset 16
ARM GAS  C:\Users\PCHAUT~1\AppData\Local\Temp\ccJuO4y2.s 			page 11


 571              		.loc 6 445 0
 572 0004 074B     		ldr	r3, .L46
 573 0006 1B68     		ldr	r3, [r3]
 574 0008 0193     		str	r3, [sp, #4]
 575              		.loc 6 447 0
 576 000a FFF7FEFF 		bl	chSysLock
 577              		.loc 6 448 0
 578 000e 00BF     		nop
 579 0010 044B     		ldr	r3, .L46
 580 0012 019A     		ldr	r2, [sp, #4]
 581 0014 1B68     		ldr	r3, [r3]
 582 0016 9A42     		cmp	r2, r3
 583 0018 01D0     		beq	.L45
 584 001a FFF7FEFF 		bl	__stack_chk_fail
 585              	.L45:
 586 001e 03B0     		add	sp, sp, #12
 587              		.cfi_def_cfa_offset 4
 588              		@ sp needed
 589 0020 5DF804FB 		ldr	pc, [sp], #4
 590              	.L47:
 591              		.align	2
 592              	.L46:
 593 0024 00000000 		.word	__stack_chk_guard
 594              		.cfi_endproc
 595              	.LFE223:
 596              		.size	osalSysLock, .-osalSysLock
 597              		.section	.text.osalSysUnlock,"ax",%progbits
 598              		.align	1
 599              		.p2align 4,,15
 600              		.syntax unified
 601              		.thumb
 602              		.thumb_func
 603              		.fpu fpv4-sp-d16
 604              		.type	osalSysUnlock, %function
 605              	osalSysUnlock:
 606              	.LFB224:
 607              		.loc 6 456 0
 608              		.cfi_startproc
 609              		@ args = 0, pretend = 0, frame = 8
 610              		@ frame_needed = 0, uses_anonymous_args = 0
 611 0000 00B5     		push	{lr}
 612              		.cfi_def_cfa_offset 4
 613              		.cfi_offset 14, -4
 614 0002 83B0     		sub	sp, sp, #12
 615              		.cfi_def_cfa_offset 16
 616              		.loc 6 456 0
 617 0004 074B     		ldr	r3, .L50
 618 0006 1B68     		ldr	r3, [r3]
 619 0008 0193     		str	r3, [sp, #4]
 620              		.loc 6 458 0
 621 000a FFF7FEFF 		bl	chSysUnlock
 622              		.loc 6 459 0
 623 000e 00BF     		nop
 624 0010 044B     		ldr	r3, .L50
 625 0012 019A     		ldr	r2, [sp, #4]
 626 0014 1B68     		ldr	r3, [r3]
 627 0016 9A42     		cmp	r2, r3
ARM GAS  C:\Users\PCHAUT~1\AppData\Local\Temp\ccJuO4y2.s 			page 12


 628 0018 01D0     		beq	.L49
 629 001a FFF7FEFF 		bl	__stack_chk_fail
 630              	.L49:
 631 001e 03B0     		add	sp, sp, #12
 632              		.cfi_def_cfa_offset 4
 633              		@ sp needed
 634 0020 5DF804FB 		ldr	pc, [sp], #4
 635              	.L51:
 636              		.align	2
 637              	.L50:
 638 0024 00000000 		.word	__stack_chk_guard
 639              		.cfi_endproc
 640              	.LFE224:
 641              		.size	osalSysUnlock, .-osalSysUnlock
 642              		.section	.text.osalSysLockFromISR,"ax",%progbits
 643              		.align	1
 644              		.p2align 4,,15
 645              		.syntax unified
 646              		.thumb
 647              		.thumb_func
 648              		.fpu fpv4-sp-d16
 649              		.type	osalSysLockFromISR, %function
 650              	osalSysLockFromISR:
 651              	.LFB225:
 652              		.loc 6 467 0
 653              		.cfi_startproc
 654              		@ args = 0, pretend = 0, frame = 8
 655              		@ frame_needed = 0, uses_anonymous_args = 0
 656 0000 00B5     		push	{lr}
 657              		.cfi_def_cfa_offset 4
 658              		.cfi_offset 14, -4
 659 0002 83B0     		sub	sp, sp, #12
 660              		.cfi_def_cfa_offset 16
 661              		.loc 6 467 0
 662 0004 074B     		ldr	r3, .L54
 663 0006 1B68     		ldr	r3, [r3]
 664 0008 0193     		str	r3, [sp, #4]
 665              		.loc 6 469 0
 666 000a FFF7FEFF 		bl	chSysLockFromISR
 667              		.loc 6 470 0
 668 000e 00BF     		nop
 669 0010 044B     		ldr	r3, .L54
 670 0012 019A     		ldr	r2, [sp, #4]
 671 0014 1B68     		ldr	r3, [r3]
 672 0016 9A42     		cmp	r2, r3
 673 0018 01D0     		beq	.L53
 674 001a FFF7FEFF 		bl	__stack_chk_fail
 675              	.L53:
 676 001e 03B0     		add	sp, sp, #12
 677              		.cfi_def_cfa_offset 4
 678              		@ sp needed
 679 0020 5DF804FB 		ldr	pc, [sp], #4
 680              	.L55:
 681              		.align	2
 682              	.L54:
 683 0024 00000000 		.word	__stack_chk_guard
 684              		.cfi_endproc
ARM GAS  C:\Users\PCHAUT~1\AppData\Local\Temp\ccJuO4y2.s 			page 13


 685              	.LFE225:
 686              		.size	osalSysLockFromISR, .-osalSysLockFromISR
 687              		.section	.text.osalSysUnlockFromISR,"ax",%progbits
 688              		.align	1
 689              		.p2align 4,,15
 690              		.syntax unified
 691              		.thumb
 692              		.thumb_func
 693              		.fpu fpv4-sp-d16
 694              		.type	osalSysUnlockFromISR, %function
 695              	osalSysUnlockFromISR:
 696              	.LFB226:
 697              		.loc 6 478 0
 698              		.cfi_startproc
 699              		@ args = 0, pretend = 0, frame = 8
 700              		@ frame_needed = 0, uses_anonymous_args = 0
 701 0000 00B5     		push	{lr}
 702              		.cfi_def_cfa_offset 4
 703              		.cfi_offset 14, -4
 704 0002 83B0     		sub	sp, sp, #12
 705              		.cfi_def_cfa_offset 16
 706              		.loc 6 478 0
 707 0004 074B     		ldr	r3, .L58
 708 0006 1B68     		ldr	r3, [r3]
 709 0008 0193     		str	r3, [sp, #4]
 710              		.loc 6 480 0
 711 000a FFF7FEFF 		bl	chSysUnlockFromISR
 712              		.loc 6 481 0
 713 000e 00BF     		nop
 714 0010 044B     		ldr	r3, .L58
 715 0012 019A     		ldr	r2, [sp, #4]
 716 0014 1B68     		ldr	r3, [r3]
 717 0016 9A42     		cmp	r2, r3
 718 0018 01D0     		beq	.L57
 719 001a FFF7FEFF 		bl	__stack_chk_fail
 720              	.L57:
 721 001e 03B0     		add	sp, sp, #12
 722              		.cfi_def_cfa_offset 4
 723              		@ sp needed
 724 0020 5DF804FB 		ldr	pc, [sp], #4
 725              	.L59:
 726              		.align	2
 727              	.L58:
 728 0024 00000000 		.word	__stack_chk_guard
 729              		.cfi_endproc
 730              	.LFE226:
 731              		.size	osalSysUnlockFromISR, .-osalSysUnlockFromISR
 732              		.section	.text.osalSysPolledDelayX,"ax",%progbits
 733              		.align	1
 734              		.p2align 4,,15
 735              		.syntax unified
 736              		.thumb
 737              		.thumb_func
 738              		.fpu fpv4-sp-d16
 739              		.type	osalSysPolledDelayX, %function
 740              	osalSysPolledDelayX:
 741              	.LFB229:
ARM GAS  C:\Users\PCHAUT~1\AppData\Local\Temp\ccJuO4y2.s 			page 14


 742              		.loc 6 525 0
 743              		.cfi_startproc
 744              		@ args = 0, pretend = 0, frame = 16
 745              		@ frame_needed = 0, uses_anonymous_args = 0
 746 0000 00B5     		push	{lr}
 747              		.cfi_def_cfa_offset 4
 748              		.cfi_offset 14, -4
 749 0002 85B0     		sub	sp, sp, #20
 750              		.cfi_def_cfa_offset 24
 751 0004 0190     		str	r0, [sp, #4]
 752              		.loc 6 525 0
 753 0006 084B     		ldr	r3, .L62
 754 0008 1B68     		ldr	r3, [r3]
 755 000a 0393     		str	r3, [sp, #12]
 756              		.loc 6 527 0
 757 000c 0198     		ldr	r0, [sp, #4]
 758 000e FFF7FEFF 		bl	chSysPolledDelayX
 759              		.loc 6 528 0
 760 0012 00BF     		nop
 761 0014 044B     		ldr	r3, .L62
 762 0016 039A     		ldr	r2, [sp, #12]
 763 0018 1B68     		ldr	r3, [r3]
 764 001a 9A42     		cmp	r2, r3
 765 001c 01D0     		beq	.L61
 766 001e FFF7FEFF 		bl	__stack_chk_fail
 767              	.L61:
 768 0022 05B0     		add	sp, sp, #20
 769              		.cfi_def_cfa_offset 4
 770              		@ sp needed
 771 0024 5DF804FB 		ldr	pc, [sp], #4
 772              	.L63:
 773              		.align	2
 774              	.L62:
 775 0028 00000000 		.word	__stack_chk_guard
 776              		.cfi_endproc
 777              	.LFE229:
 778              		.size	osalSysPolledDelayX, .-osalSysPolledDelayX
 779              		.section	.text.osalOsRescheduleS,"ax",%progbits
 780              		.align	1
 781              		.p2align 4,,15
 782              		.syntax unified
 783              		.thumb
 784              		.thumb_func
 785              		.fpu fpv4-sp-d16
 786              		.type	osalOsRescheduleS, %function
 787              	osalOsRescheduleS:
 788              	.LFB231:
 789              		.loc 6 552 0
 790              		.cfi_startproc
 791              		@ args = 0, pretend = 0, frame = 8
 792              		@ frame_needed = 0, uses_anonymous_args = 0
 793 0000 00B5     		push	{lr}
 794              		.cfi_def_cfa_offset 4
 795              		.cfi_offset 14, -4
 796 0002 83B0     		sub	sp, sp, #12
 797              		.cfi_def_cfa_offset 16
 798              		.loc 6 552 0
ARM GAS  C:\Users\PCHAUT~1\AppData\Local\Temp\ccJuO4y2.s 			page 15


 799 0004 074B     		ldr	r3, .L66
 800 0006 1B68     		ldr	r3, [r3]
 801 0008 0193     		str	r3, [sp, #4]
 802              		.loc 6 554 0
 803 000a FFF7FEFF 		bl	chSchRescheduleS
 804              		.loc 6 555 0
 805 000e 00BF     		nop
 806 0010 044B     		ldr	r3, .L66
 807 0012 019A     		ldr	r2, [sp, #4]
 808 0014 1B68     		ldr	r3, [r3]
 809 0016 9A42     		cmp	r2, r3
 810 0018 01D0     		beq	.L65
 811 001a FFF7FEFF 		bl	__stack_chk_fail
 812              	.L65:
 813 001e 03B0     		add	sp, sp, #12
 814              		.cfi_def_cfa_offset 4
 815              		@ sp needed
 816 0020 5DF804FB 		ldr	pc, [sp], #4
 817              	.L67:
 818              		.align	2
 819              	.L66:
 820 0024 00000000 		.word	__stack_chk_guard
 821              		.cfi_endproc
 822              	.LFE231:
 823              		.size	osalOsRescheduleS, .-osalOsRescheduleS
 824              		.section	.text.osalThreadSuspendS,"ax",%progbits
 825              		.align	1
 826              		.p2align 4,,15
 827              		.syntax unified
 828              		.thumb
 829              		.thumb_func
 830              		.fpu fpv4-sp-d16
 831              		.type	osalThreadSuspendS, %function
 832              	osalThreadSuspendS:
 833              	.LFB236:
 834              		.loc 6 640 0
 835              		.cfi_startproc
 836              		@ args = 0, pretend = 0, frame = 16
 837              		@ frame_needed = 0, uses_anonymous_args = 0
 838 0000 00B5     		push	{lr}
 839              		.cfi_def_cfa_offset 4
 840              		.cfi_offset 14, -4
 841 0002 85B0     		sub	sp, sp, #20
 842              		.cfi_def_cfa_offset 24
 843 0004 0190     		str	r0, [sp, #4]
 844              		.loc 6 640 0
 845 0006 094B     		ldr	r3, .L71
 846 0008 1B68     		ldr	r3, [r3]
 847 000a 0393     		str	r3, [sp, #12]
 848              		.loc 6 642 0
 849 000c 0198     		ldr	r0, [sp, #4]
 850 000e FFF7FEFF 		bl	chThdSuspendS
 851 0012 0346     		mov	r3, r0
 852              		.loc 6 643 0
 853 0014 1846     		mov	r0, r3
 854 0016 054B     		ldr	r3, .L71
 855 0018 039A     		ldr	r2, [sp, #12]
ARM GAS  C:\Users\PCHAUT~1\AppData\Local\Temp\ccJuO4y2.s 			page 16


 856 001a 1B68     		ldr	r3, [r3]
 857 001c 9A42     		cmp	r2, r3
 858 001e 01D0     		beq	.L70
 859 0020 FFF7FEFF 		bl	__stack_chk_fail
 860              	.L70:
 861 0024 05B0     		add	sp, sp, #20
 862              		.cfi_def_cfa_offset 4
 863              		@ sp needed
 864 0026 5DF804FB 		ldr	pc, [sp], #4
 865              	.L72:
 866 002a 00BF     		.align	2
 867              	.L71:
 868 002c 00000000 		.word	__stack_chk_guard
 869              		.cfi_endproc
 870              	.LFE236:
 871              		.size	osalThreadSuspendS, .-osalThreadSuspendS
 872              		.section	.text.osalThreadResumeI,"ax",%progbits
 873              		.align	1
 874              		.p2align 4,,15
 875              		.syntax unified
 876              		.thumb
 877              		.thumb_func
 878              		.fpu fpv4-sp-d16
 879              		.type	osalThreadResumeI, %function
 880              	osalThreadResumeI:
 881              	.LFB238:
 882              		.loc 6 680 0
 883              		.cfi_startproc
 884              		@ args = 0, pretend = 0, frame = 16
 885              		@ frame_needed = 0, uses_anonymous_args = 0
 886 0000 00B5     		push	{lr}
 887              		.cfi_def_cfa_offset 4
 888              		.cfi_offset 14, -4
 889 0002 85B0     		sub	sp, sp, #20
 890              		.cfi_def_cfa_offset 24
 891 0004 0190     		str	r0, [sp, #4]
 892 0006 0091     		str	r1, [sp]
 893              		.loc 6 680 0
 894 0008 084B     		ldr	r3, .L75
 895 000a 1B68     		ldr	r3, [r3]
 896 000c 0393     		str	r3, [sp, #12]
 897              		.loc 6 682 0
 898 000e 0099     		ldr	r1, [sp]
 899 0010 0198     		ldr	r0, [sp, #4]
 900 0012 FFF7FEFF 		bl	chThdResumeI
 901              		.loc 6 683 0
 902 0016 00BF     		nop
 903 0018 044B     		ldr	r3, .L75
 904 001a 039A     		ldr	r2, [sp, #12]
 905 001c 1B68     		ldr	r3, [r3]
 906 001e 9A42     		cmp	r2, r3
 907 0020 01D0     		beq	.L74
 908 0022 FFF7FEFF 		bl	__stack_chk_fail
 909              	.L74:
 910 0026 05B0     		add	sp, sp, #20
 911              		.cfi_def_cfa_offset 4
 912              		@ sp needed
ARM GAS  C:\Users\PCHAUT~1\AppData\Local\Temp\ccJuO4y2.s 			page 17


 913 0028 5DF804FB 		ldr	pc, [sp], #4
 914              	.L76:
 915              		.align	2
 916              	.L75:
 917 002c 00000000 		.word	__stack_chk_guard
 918              		.cfi_endproc
 919              	.LFE238:
 920              		.size	osalThreadResumeI, .-osalThreadResumeI
 921              		.section	.text.osalThreadDequeueAllI,"ax",%progbits
 922              		.align	1
 923              		.p2align 4,,15
 924              		.syntax unified
 925              		.thumb
 926              		.thumb_func
 927              		.fpu fpv4-sp-d16
 928              		.type	osalThreadDequeueAllI, %function
 929              	osalThreadDequeueAllI:
 930              	.LFB243:
 931              		.loc 6 762 0
 932              		.cfi_startproc
 933              		@ args = 0, pretend = 0, frame = 16
 934              		@ frame_needed = 0, uses_anonymous_args = 0
 935 0000 00B5     		push	{lr}
 936              		.cfi_def_cfa_offset 4
 937              		.cfi_offset 14, -4
 938 0002 85B0     		sub	sp, sp, #20
 939              		.cfi_def_cfa_offset 24
 940 0004 0190     		str	r0, [sp, #4]
 941 0006 0091     		str	r1, [sp]
 942              		.loc 6 762 0
 943 0008 084B     		ldr	r3, .L79
 944 000a 1B68     		ldr	r3, [r3]
 945 000c 0393     		str	r3, [sp, #12]
 946              		.loc 6 764 0
 947 000e 0099     		ldr	r1, [sp]
 948 0010 0198     		ldr	r0, [sp, #4]
 949 0012 FFF7FEFF 		bl	chThdDequeueAllI
 950              		.loc 6 765 0
 951 0016 00BF     		nop
 952 0018 044B     		ldr	r3, .L79
 953 001a 039A     		ldr	r2, [sp, #12]
 954 001c 1B68     		ldr	r3, [r3]
 955 001e 9A42     		cmp	r2, r3
 956 0020 01D0     		beq	.L78
 957 0022 FFF7FEFF 		bl	__stack_chk_fail
 958              	.L78:
 959 0026 05B0     		add	sp, sp, #20
 960              		.cfi_def_cfa_offset 4
 961              		@ sp needed
 962 0028 5DF804FB 		ldr	pc, [sp], #4
 963              	.L80:
 964              		.align	2
 965              	.L79:
 966 002c 00000000 		.word	__stack_chk_guard
 967              		.cfi_endproc
 968              	.LFE243:
 969              		.size	osalThreadDequeueAllI, .-osalThreadDequeueAllI
ARM GAS  C:\Users\PCHAUT~1\AppData\Local\Temp\ccJuO4y2.s 			page 18


 970              		.global	USBD1
 971              		.section	.bss.USBD1,"aw",%nobits
 972              		.align	3
 973              		.type	USBD1, %object
 974              		.size	USBD1, 608
 975              	USBD1:
 976 0000 00000000 		.space	608
 976      00000000 
 976      00000000 
 976      00000000 
 976      00000000 
 977              		.section	.bss.ep0_state,"aw",%nobits
 978              		.align	2
 979              		.type	ep0_state, %object
 980              		.size	ep0_state, 20
 981              	ep0_state:
 982 0000 00000000 		.space	20
 982      00000000 
 982      00000000 
 982      00000000 
 982      00000000 
 983              		.section	.bss.ep0setup_buffer,"aw",%nobits
 984              		.align	2
 985              		.type	ep0setup_buffer, %object
 986              		.size	ep0setup_buffer, 8
 987              	ep0setup_buffer:
 988 0000 00000000 		.space	8
 988      00000000 
 989              		.section	.rodata.ep0config,"a",%progbits
 990              		.align	2
 991              		.type	ep0config, %object
 992              		.size	ep0config, 36
 993              	ep0config:
 994 0000 00000000 		.word	0
 995 0004 00000000 		.word	_usb_ep0setup
 996 0008 00000000 		.word	_usb_ep0in
 997 000c 00000000 		.word	_usb_ep0out
 998 0010 4000     		.short	64
 999 0012 4000     		.short	64
 1000 0014 00000000 		.word	ep0_state
 1001 0018 00000000 		.word	ep0_state
 1002 001c 0100     		.short	1
 1003 001e 0000     		.space	2
 1004 0020 00000000 		.word	ep0setup_buffer
 1005              		.section	.rodata.fsparams,"a",%progbits
 1006              		.align	2
 1007              		.type	fsparams, %object
 1008              		.size	fsparams, 12
 1009              	fsparams:
 1010 0000 80000000 		.word	128
 1011 0004 40010000 		.word	320
 1012 0008 03000000 		.word	3
 1013              		.section	.text.otg_core_reset,"ax",%progbits
 1014              		.align	1
 1015              		.p2align 4,,15
 1016              		.syntax unified
 1017              		.thumb
ARM GAS  C:\Users\PCHAUT~1\AppData\Local\Temp\ccJuO4y2.s 			page 19


 1018              		.thumb_func
 1019              		.fpu fpv4-sp-d16
 1020              		.type	otg_core_reset, %function
 1021              	otg_core_reset:
 1022              	.LFB256:
 1023              		.file 7 "../lib/e-puck2_main-processor/ChibiOS//os/hal/ports/STM32/LLD/OTGv1/usb_lld.c"
 1024              		.loc 7 115 0
 1025              		.cfi_startproc
 1026              		@ args = 0, pretend = 0, frame = 16
 1027              		@ frame_needed = 0, uses_anonymous_args = 0
 1028 0000 00B5     		push	{lr}
 1029              		.cfi_def_cfa_offset 4
 1030              		.cfi_offset 14, -4
 1031 0002 85B0     		sub	sp, sp, #20
 1032              		.cfi_def_cfa_offset 24
 1033 0004 0190     		str	r0, [sp, #4]
 1034              		.loc 7 115 0
 1035 0006 134B     		ldr	r3, .L85
 1036 0008 1B68     		ldr	r3, [r3]
 1037 000a 0393     		str	r3, [sp, #12]
 1038              		.loc 7 116 0
 1039 000c 019B     		ldr	r3, [sp, #4]
 1040 000e 1B6D     		ldr	r3, [r3, #80]
 1041 0010 0293     		str	r3, [sp, #8]
 1042              		.loc 7 118 0
 1043 0012 2020     		movs	r0, #32
 1044 0014 FFF7FEFF 		bl	osalSysPolledDelayX
 1045              		.loc 7 121 0
 1046 0018 029B     		ldr	r3, [sp, #8]
 1047 001a 0122     		movs	r2, #1
 1048 001c 1A61     		str	r2, [r3, #16]
 1049              		.loc 7 122 0
 1050 001e 00BF     		nop
 1051              	.L82:
 1052              		.loc 7 122 0 is_stmt 0 discriminator 1
 1053 0020 029B     		ldr	r3, [sp, #8]
 1054 0022 1B69     		ldr	r3, [r3, #16]
 1055 0024 03F00103 		and	r3, r3, #1
 1056 0028 002B     		cmp	r3, #0
 1057 002a F9D1     		bne	.L82
 1058              		.loc 7 125 0 is_stmt 1
 1059 002c 0C20     		movs	r0, #12
 1060 002e FFF7FEFF 		bl	osalSysPolledDelayX
 1061              		.loc 7 128 0
 1062 0032 00BF     		nop
 1063              	.L83:
 1064              		.loc 7 128 0 is_stmt 0 discriminator 1
 1065 0034 029B     		ldr	r3, [sp, #8]
 1066 0036 1B69     		ldr	r3, [r3, #16]
 1067 0038 002B     		cmp	r3, #0
 1068 003a FBDA     		bge	.L83
 1069              		.loc 7 130 0 is_stmt 1
 1070 003c 00BF     		nop
 1071 003e 054B     		ldr	r3, .L85
 1072 0040 039A     		ldr	r2, [sp, #12]
 1073 0042 1B68     		ldr	r3, [r3]
 1074 0044 9A42     		cmp	r2, r3
ARM GAS  C:\Users\PCHAUT~1\AppData\Local\Temp\ccJuO4y2.s 			page 20


 1075 0046 01D0     		beq	.L84
 1076 0048 FFF7FEFF 		bl	__stack_chk_fail
 1077              	.L84:
 1078 004c 05B0     		add	sp, sp, #20
 1079              		.cfi_def_cfa_offset 4
 1080              		@ sp needed
 1081 004e 5DF804FB 		ldr	pc, [sp], #4
 1082              	.L86:
 1083 0052 00BF     		.align	2
 1084              	.L85:
 1085 0054 00000000 		.word	__stack_chk_guard
 1086              		.cfi_endproc
 1087              	.LFE256:
 1088              		.size	otg_core_reset, .-otg_core_reset
 1089              		.section	.text.otg_disable_ep,"ax",%progbits
 1090              		.align	1
 1091              		.p2align 4,,15
 1092              		.syntax unified
 1093              		.thumb
 1094              		.thumb_func
 1095              		.fpu fpv4-sp-d16
 1096              		.type	otg_disable_ep, %function
 1097              	otg_disable_ep:
 1098              	.LFB257:
 1099              		.loc 7 132 0
 1100              		.cfi_startproc
 1101              		@ args = 0, pretend = 0, frame = 24
 1102              		@ frame_needed = 0, uses_anonymous_args = 0
 1103 0000 00B5     		push	{lr}
 1104              		.cfi_def_cfa_offset 4
 1105              		.cfi_offset 14, -4
 1106 0002 87B0     		sub	sp, sp, #28
 1107              		.cfi_def_cfa_offset 32
 1108 0004 0190     		str	r0, [sp, #4]
 1109              		.loc 7 132 0
 1110 0006 464B     		ldr	r3, .L97
 1111 0008 1B68     		ldr	r3, [r3]
 1112 000a 0593     		str	r3, [sp, #20]
 1113              		.loc 7 133 0
 1114 000c 019B     		ldr	r3, [sp, #4]
 1115 000e 1B6D     		ldr	r3, [r3, #80]
 1116 0010 0493     		str	r3, [sp, #16]
 1117              		.loc 7 136 0
 1118 0012 0023     		movs	r3, #0
 1119 0014 0393     		str	r3, [sp, #12]
 1120 0016 6CE0     		b	.L88
 1121              	.L95:
 1122              		.loc 7 140 0
 1123 0018 049A     		ldr	r2, [sp, #16]
 1124 001a 039B     		ldr	r3, [sp, #12]
 1125 001c 4833     		adds	r3, r3, #72
 1126 001e 5B01     		lsls	r3, r3, #5
 1127 0020 1344     		add	r3, r3, r2
 1128 0022 1B68     		ldr	r3, [r3]
 1129 0024 002B     		cmp	r3, #0
 1130 0026 14DA     		bge	.L89
 1131              		.loc 7 141 0
ARM GAS  C:\Users\PCHAUT~1\AppData\Local\Temp\ccJuO4y2.s 			page 21


 1132 0028 049A     		ldr	r2, [sp, #16]
 1133 002a 039B     		ldr	r3, [sp, #12]
 1134 002c 4833     		adds	r3, r3, #72
 1135 002e 5B01     		lsls	r3, r3, #5
 1136 0030 1344     		add	r3, r3, r2
 1137 0032 4FF08042 		mov	r2, #1073741824
 1138 0036 1A60     		str	r2, [r3]
 1139              		.loc 7 143 0
 1140 0038 00BF     		nop
 1141              	.L90:
 1142              		.loc 7 143 0 is_stmt 0 discriminator 1
 1143 003a 049A     		ldr	r2, [sp, #16]
 1144 003c 039B     		ldr	r3, [sp, #12]
 1145 003e 5B01     		lsls	r3, r3, #5
 1146 0040 1344     		add	r3, r3, r2
 1147 0042 03F60813 		addw	r3, r3, #2312
 1148 0046 1B68     		ldr	r3, [r3]
 1149 0048 03F00203 		and	r3, r3, #2
 1150 004c 002B     		cmp	r3, #0
 1151 004e F4D0     		beq	.L90
 1152 0050 06E0     		b	.L91
 1153              	.L89:
 1154              		.loc 7 147 0 is_stmt 1
 1155 0052 049A     		ldr	r2, [sp, #16]
 1156 0054 039B     		ldr	r3, [sp, #12]
 1157 0056 4833     		adds	r3, r3, #72
 1158 0058 5B01     		lsls	r3, r3, #5
 1159 005a 1344     		add	r3, r3, r2
 1160 005c 0022     		movs	r2, #0
 1161 005e 1A60     		str	r2, [r3]
 1162              	.L91:
 1163              		.loc 7 148 0
 1164 0060 049A     		ldr	r2, [sp, #16]
 1165 0062 039B     		ldr	r3, [sp, #12]
 1166 0064 5B01     		lsls	r3, r3, #5
 1167 0066 1344     		add	r3, r3, r2
 1168 0068 03F51163 		add	r3, r3, #2320
 1169 006c 0022     		movs	r2, #0
 1170 006e 1A60     		str	r2, [r3]
 1171              		.loc 7 149 0
 1172 0070 049A     		ldr	r2, [sp, #16]
 1173 0072 039B     		ldr	r3, [sp, #12]
 1174 0074 5B01     		lsls	r3, r3, #5
 1175 0076 1344     		add	r3, r3, r2
 1176 0078 03F60813 		addw	r3, r3, #2312
 1177 007c 4FF0FF32 		mov	r2, #-1
 1178 0080 1A60     		str	r2, [r3]
 1179              		.loc 7 155 0
 1180 0082 049A     		ldr	r2, [sp, #16]
 1181 0084 039B     		ldr	r3, [sp, #12]
 1182 0086 5833     		adds	r3, r3, #88
 1183 0088 5B01     		lsls	r3, r3, #5
 1184 008a 1344     		add	r3, r3, r2
 1185 008c 1B68     		ldr	r3, [r3]
 1186 008e 002B     		cmp	r3, #0
 1187 0090 14DA     		bge	.L92
 1188              		.loc 7 156 0
ARM GAS  C:\Users\PCHAUT~1\AppData\Local\Temp\ccJuO4y2.s 			page 22


 1189 0092 049A     		ldr	r2, [sp, #16]
 1190 0094 039B     		ldr	r3, [sp, #12]
 1191 0096 5833     		adds	r3, r3, #88
 1192 0098 5B01     		lsls	r3, r3, #5
 1193 009a 1344     		add	r3, r3, r2
 1194 009c 4FF08042 		mov	r2, #1073741824
 1195 00a0 1A60     		str	r2, [r3]
 1196              		.loc 7 158 0
 1197 00a2 00BF     		nop
 1198              	.L93:
 1199              		.loc 7 158 0 is_stmt 0 discriminator 1
 1200 00a4 049A     		ldr	r2, [sp, #16]
 1201 00a6 039B     		ldr	r3, [sp, #12]
 1202 00a8 5B01     		lsls	r3, r3, #5
 1203 00aa 1344     		add	r3, r3, r2
 1204 00ac 03F60833 		addw	r3, r3, #2824
 1205 00b0 1B68     		ldr	r3, [r3]
 1206 00b2 03F01003 		and	r3, r3, #16
 1207 00b6 002B     		cmp	r3, #0
 1208 00b8 F4D0     		beq	.L93
 1209 00ba 06E0     		b	.L94
 1210              	.L92:
 1211              		.loc 7 162 0 is_stmt 1
 1212 00bc 049A     		ldr	r2, [sp, #16]
 1213 00be 039B     		ldr	r3, [sp, #12]
 1214 00c0 5833     		adds	r3, r3, #88
 1215 00c2 5B01     		lsls	r3, r3, #5
 1216 00c4 1344     		add	r3, r3, r2
 1217 00c6 0022     		movs	r2, #0
 1218 00c8 1A60     		str	r2, [r3]
 1219              	.L94:
 1220              		.loc 7 163 0 discriminator 2
 1221 00ca 049A     		ldr	r2, [sp, #16]
 1222 00cc 039B     		ldr	r3, [sp, #12]
 1223 00ce 5B01     		lsls	r3, r3, #5
 1224 00d0 1344     		add	r3, r3, r2
 1225 00d2 03F53163 		add	r3, r3, #2832
 1226 00d6 0022     		movs	r2, #0
 1227 00d8 1A60     		str	r2, [r3]
 1228              		.loc 7 164 0 discriminator 2
 1229 00da 049A     		ldr	r2, [sp, #16]
 1230 00dc 039B     		ldr	r3, [sp, #12]
 1231 00de 5B01     		lsls	r3, r3, #5
 1232 00e0 1344     		add	r3, r3, r2
 1233 00e2 03F60833 		addw	r3, r3, #2824
 1234 00e6 4FF0FF32 		mov	r2, #-1
 1235 00ea 1A60     		str	r2, [r3]
 1236              		.loc 7 136 0 discriminator 2
 1237 00ec 039B     		ldr	r3, [sp, #12]
 1238 00ee 0133     		adds	r3, r3, #1
 1239 00f0 0393     		str	r3, [sp, #12]
 1240              	.L88:
 1241              		.loc 7 136 0 is_stmt 0 discriminator 1
 1242 00f2 019B     		ldr	r3, [sp, #4]
 1243 00f4 5B6D     		ldr	r3, [r3, #84]
 1244 00f6 9B68     		ldr	r3, [r3, #8]
 1245 00f8 039A     		ldr	r2, [sp, #12]
ARM GAS  C:\Users\PCHAUT~1\AppData\Local\Temp\ccJuO4y2.s 			page 23


 1246 00fa 9A42     		cmp	r2, r3
 1247 00fc 8CD9     		bls	.L95
 1248              		.loc 7 166 0 is_stmt 1
 1249 00fe 049B     		ldr	r3, [sp, #16]
 1250 0100 4FF00112 		mov	r2, #65537
 1251 0104 C3F81C28 		str	r2, [r3, #2076]
 1252              		.loc 7 167 0
 1253 0108 00BF     		nop
 1254 010a 054B     		ldr	r3, .L97
 1255 010c 059A     		ldr	r2, [sp, #20]
 1256 010e 1B68     		ldr	r3, [r3]
 1257 0110 9A42     		cmp	r2, r3
 1258 0112 01D0     		beq	.L96
 1259 0114 FFF7FEFF 		bl	__stack_chk_fail
 1260              	.L96:
 1261 0118 07B0     		add	sp, sp, #28
 1262              		.cfi_def_cfa_offset 4
 1263              		@ sp needed
 1264 011a 5DF804FB 		ldr	pc, [sp], #4
 1265              	.L98:
 1266 011e 00BF     		.align	2
 1267              	.L97:
 1268 0120 00000000 		.word	__stack_chk_guard
 1269              		.cfi_endproc
 1270              	.LFE257:
 1271              		.size	otg_disable_ep, .-otg_disable_ep
 1272              		.section	.text.otg_rxfifo_flush,"ax",%progbits
 1273              		.align	1
 1274              		.p2align 4,,15
 1275              		.syntax unified
 1276              		.thumb
 1277              		.thumb_func
 1278              		.fpu fpv4-sp-d16
 1279              		.type	otg_rxfifo_flush, %function
 1280              	otg_rxfifo_flush:
 1281              	.LFB258:
 1282              		.loc 7 169 0
 1283              		.cfi_startproc
 1284              		@ args = 0, pretend = 0, frame = 16
 1285              		@ frame_needed = 0, uses_anonymous_args = 0
 1286 0000 00B5     		push	{lr}
 1287              		.cfi_def_cfa_offset 4
 1288              		.cfi_offset 14, -4
 1289 0002 85B0     		sub	sp, sp, #20
 1290              		.cfi_def_cfa_offset 24
 1291 0004 0190     		str	r0, [sp, #4]
 1292              		.loc 7 169 0
 1293 0006 0F4B     		ldr	r3, .L102
 1294 0008 1B68     		ldr	r3, [r3]
 1295 000a 0393     		str	r3, [sp, #12]
 1296              		.loc 7 170 0
 1297 000c 019B     		ldr	r3, [sp, #4]
 1298 000e 1B6D     		ldr	r3, [r3, #80]
 1299 0010 0293     		str	r3, [sp, #8]
 1300              		.loc 7 172 0
 1301 0012 029B     		ldr	r3, [sp, #8]
 1302 0014 1022     		movs	r2, #16
ARM GAS  C:\Users\PCHAUT~1\AppData\Local\Temp\ccJuO4y2.s 			page 24


 1303 0016 1A61     		str	r2, [r3, #16]
 1304              		.loc 7 173 0
 1305 0018 00BF     		nop
 1306              	.L100:
 1307              		.loc 7 173 0 is_stmt 0 discriminator 1
 1308 001a 029B     		ldr	r3, [sp, #8]
 1309 001c 1B69     		ldr	r3, [r3, #16]
 1310 001e 03F01003 		and	r3, r3, #16
 1311 0022 002B     		cmp	r3, #0
 1312 0024 F9D1     		bne	.L100
 1313              		.loc 7 176 0 is_stmt 1
 1314 0026 0C20     		movs	r0, #12
 1315 0028 FFF7FEFF 		bl	osalSysPolledDelayX
 1316              		.loc 7 177 0
 1317 002c 00BF     		nop
 1318 002e 054B     		ldr	r3, .L102
 1319 0030 039A     		ldr	r2, [sp, #12]
 1320 0032 1B68     		ldr	r3, [r3]
 1321 0034 9A42     		cmp	r2, r3
 1322 0036 01D0     		beq	.L101
 1323 0038 FFF7FEFF 		bl	__stack_chk_fail
 1324              	.L101:
 1325 003c 05B0     		add	sp, sp, #20
 1326              		.cfi_def_cfa_offset 4
 1327              		@ sp needed
 1328 003e 5DF804FB 		ldr	pc, [sp], #4
 1329              	.L103:
 1330 0042 00BF     		.align	2
 1331              	.L102:
 1332 0044 00000000 		.word	__stack_chk_guard
 1333              		.cfi_endproc
 1334              	.LFE258:
 1335              		.size	otg_rxfifo_flush, .-otg_rxfifo_flush
 1336              		.section	.text.otg_txfifo_flush,"ax",%progbits
 1337              		.align	1
 1338              		.p2align 4,,15
 1339              		.syntax unified
 1340              		.thumb
 1341              		.thumb_func
 1342              		.fpu fpv4-sp-d16
 1343              		.type	otg_txfifo_flush, %function
 1344              	otg_txfifo_flush:
 1345              	.LFB259:
 1346              		.loc 7 179 0
 1347              		.cfi_startproc
 1348              		@ args = 0, pretend = 0, frame = 16
 1349              		@ frame_needed = 0, uses_anonymous_args = 0
 1350 0000 00B5     		push	{lr}
 1351              		.cfi_def_cfa_offset 4
 1352              		.cfi_offset 14, -4
 1353 0002 85B0     		sub	sp, sp, #20
 1354              		.cfi_def_cfa_offset 24
 1355 0004 0190     		str	r0, [sp, #4]
 1356 0006 0091     		str	r1, [sp]
 1357              		.loc 7 179 0
 1358 0008 104B     		ldr	r3, .L107
 1359 000a 1B68     		ldr	r3, [r3]
ARM GAS  C:\Users\PCHAUT~1\AppData\Local\Temp\ccJuO4y2.s 			page 25


 1360 000c 0393     		str	r3, [sp, #12]
 1361              		.loc 7 180 0
 1362 000e 019B     		ldr	r3, [sp, #4]
 1363 0010 1B6D     		ldr	r3, [r3, #80]
 1364 0012 0293     		str	r3, [sp, #8]
 1365              		.loc 7 182 0
 1366 0014 009B     		ldr	r3, [sp]
 1367 0016 9B01     		lsls	r3, r3, #6
 1368 0018 43F02002 		orr	r2, r3, #32
 1369 001c 029B     		ldr	r3, [sp, #8]
 1370 001e 1A61     		str	r2, [r3, #16]
 1371              		.loc 7 183 0
 1372 0020 00BF     		nop
 1373              	.L105:
 1374              		.loc 7 183 0 is_stmt 0 discriminator 1
 1375 0022 029B     		ldr	r3, [sp, #8]
 1376 0024 1B69     		ldr	r3, [r3, #16]
 1377 0026 03F02003 		and	r3, r3, #32
 1378 002a 002B     		cmp	r3, #0
 1379 002c F9D1     		bne	.L105
 1380              		.loc 7 186 0 is_stmt 1
 1381 002e 0C20     		movs	r0, #12
 1382 0030 FFF7FEFF 		bl	osalSysPolledDelayX
 1383              		.loc 7 187 0
 1384 0034 00BF     		nop
 1385 0036 054B     		ldr	r3, .L107
 1386 0038 039A     		ldr	r2, [sp, #12]
 1387 003a 1B68     		ldr	r3, [r3]
 1388 003c 9A42     		cmp	r2, r3
 1389 003e 01D0     		beq	.L106
 1390 0040 FFF7FEFF 		bl	__stack_chk_fail
 1391              	.L106:
 1392 0044 05B0     		add	sp, sp, #20
 1393              		.cfi_def_cfa_offset 4
 1394              		@ sp needed
 1395 0046 5DF804FB 		ldr	pc, [sp], #4
 1396              	.L108:
 1397 004a 00BF     		.align	2
 1398              	.L107:
 1399 004c 00000000 		.word	__stack_chk_guard
 1400              		.cfi_endproc
 1401              	.LFE259:
 1402              		.size	otg_txfifo_flush, .-otg_txfifo_flush
 1403              		.section	.text.otg_ram_reset,"ax",%progbits
 1404              		.align	1
 1405              		.p2align 4,,15
 1406              		.syntax unified
 1407              		.thumb
 1408              		.thumb_func
 1409              		.fpu fpv4-sp-d16
 1410              		.type	otg_ram_reset, %function
 1411              	otg_ram_reset:
 1412              	.LFB260:
 1413              		.loc 7 196 0
 1414              		.cfi_startproc
 1415              		@ args = 0, pretend = 0, frame = 16
 1416              		@ frame_needed = 0, uses_anonymous_args = 0
ARM GAS  C:\Users\PCHAUT~1\AppData\Local\Temp\ccJuO4y2.s 			page 26


 1417 0000 00B5     		push	{lr}
 1418              		.cfi_def_cfa_offset 4
 1419              		.cfi_offset 14, -4
 1420 0002 85B0     		sub	sp, sp, #20
 1421              		.cfi_def_cfa_offset 24
 1422 0004 0190     		str	r0, [sp, #4]
 1423              		.loc 7 196 0
 1424 0006 094B     		ldr	r3, .L111
 1425 0008 1B68     		ldr	r3, [r3]
 1426 000a 0393     		str	r3, [sp, #12]
 1427              		.loc 7 198 0
 1428 000c 019B     		ldr	r3, [sp, #4]
 1429 000e 5B6D     		ldr	r3, [r3, #84]
 1430 0010 1A68     		ldr	r2, [r3]
 1431 0012 019B     		ldr	r3, [sp, #4]
 1432 0014 9A65     		str	r2, [r3, #88]
 1433              		.loc 7 199 0
 1434 0016 00BF     		nop
 1435 0018 044B     		ldr	r3, .L111
 1436 001a 039A     		ldr	r2, [sp, #12]
 1437 001c 1B68     		ldr	r3, [r3]
 1438 001e 9A42     		cmp	r2, r3
 1439 0020 01D0     		beq	.L110
 1440 0022 FFF7FEFF 		bl	__stack_chk_fail
 1441              	.L110:
 1442 0026 05B0     		add	sp, sp, #20
 1443              		.cfi_def_cfa_offset 4
 1444              		@ sp needed
 1445 0028 5DF804FB 		ldr	pc, [sp], #4
 1446              	.L112:
 1447              		.align	2
 1448              	.L111:
 1449 002c 00000000 		.word	__stack_chk_guard
 1450              		.cfi_endproc
 1451              	.LFE260:
 1452              		.size	otg_ram_reset, .-otg_ram_reset
 1453              		.section	.text.otg_ram_alloc,"ax",%progbits
 1454              		.align	1
 1455              		.p2align 4,,15
 1456              		.syntax unified
 1457              		.thumb
 1458              		.thumb_func
 1459              		.fpu fpv4-sp-d16
 1460              		.type	otg_ram_alloc, %function
 1461              	otg_ram_alloc:
 1462              	.LFB261:
 1463              		.loc 7 209 0
 1464              		.cfi_startproc
 1465              		@ args = 0, pretend = 0, frame = 16
 1466              		@ frame_needed = 0, uses_anonymous_args = 0
 1467 0000 00B5     		push	{lr}
 1468              		.cfi_def_cfa_offset 4
 1469              		.cfi_offset 14, -4
 1470 0002 85B0     		sub	sp, sp, #20
 1471              		.cfi_def_cfa_offset 24
 1472 0004 0190     		str	r0, [sp, #4]
 1473 0006 0091     		str	r1, [sp]
ARM GAS  C:\Users\PCHAUT~1\AppData\Local\Temp\ccJuO4y2.s 			page 27


 1474              		.loc 7 209 0
 1475 0008 104B     		ldr	r3, .L117
 1476 000a 1B68     		ldr	r3, [r3]
 1477 000c 0393     		str	r3, [sp, #12]
 1478              		.loc 7 212 0
 1479 000e 019B     		ldr	r3, [sp, #4]
 1480 0010 9B6D     		ldr	r3, [r3, #88]
 1481 0012 0293     		str	r3, [sp, #8]
 1482              		.loc 7 213 0
 1483 0014 019B     		ldr	r3, [sp, #4]
 1484 0016 9A6D     		ldr	r2, [r3, #88]
 1485 0018 009B     		ldr	r3, [sp]
 1486 001a 1A44     		add	r2, r2, r3
 1487 001c 019B     		ldr	r3, [sp, #4]
 1488 001e 9A65     		str	r2, [r3, #88]
 1489              		.loc 7 214 0
 1490 0020 019B     		ldr	r3, [sp, #4]
 1491 0022 9A6D     		ldr	r2, [r3, #88]
 1492 0024 019B     		ldr	r3, [sp, #4]
 1493 0026 5B6D     		ldr	r3, [r3, #84]
 1494 0028 5B68     		ldr	r3, [r3, #4]
 1495 002a 9A42     		cmp	r2, r3
 1496 002c 02D9     		bls	.L114
 1497              		.loc 7 214 0 is_stmt 0 discriminator 2
 1498 002e 0848     		ldr	r0, .L117+4
 1499 0030 FFF7FEFF 		bl	chSysHalt
 1500              	.L114:
 1501              		.loc 7 216 0 is_stmt 1
 1502 0034 029B     		ldr	r3, [sp, #8]
 1503              		.loc 7 217 0
 1504 0036 1846     		mov	r0, r3
 1505 0038 044B     		ldr	r3, .L117
 1506 003a 039A     		ldr	r2, [sp, #12]
 1507 003c 1B68     		ldr	r3, [r3]
 1508 003e 9A42     		cmp	r2, r3
 1509 0040 01D0     		beq	.L116
 1510 0042 FFF7FEFF 		bl	__stack_chk_fail
 1511              	.L116:
 1512 0046 05B0     		add	sp, sp, #20
 1513              		.cfi_def_cfa_offset 4
 1514              		@ sp needed
 1515 0048 5DF804FB 		ldr	pc, [sp], #4
 1516              	.L118:
 1517              		.align	2
 1518              	.L117:
 1519 004c 00000000 		.word	__stack_chk_guard
 1520 0050 00000000 		.word	__func__.10294
 1521              		.cfi_endproc
 1522              	.LFE261:
 1523              		.size	otg_ram_alloc, .-otg_ram_alloc
 1524              		.section	.text.otg_do_push,"ax",%progbits
 1525              		.align	1
 1526              		.p2align 4,,15
 1527              		.syntax unified
 1528              		.thumb
 1529              		.thumb_func
 1530              		.fpu fpv4-sp-d16
ARM GAS  C:\Users\PCHAUT~1\AppData\Local\Temp\ccJuO4y2.s 			page 28


 1531              		.type	otg_do_push, %function
 1532              	otg_do_push:
 1533              	.LFB262:
 1534              		.loc 7 231 0
 1535              		.cfi_startproc
 1536              		@ args = 0, pretend = 0, frame = 24
 1537              		@ frame_needed = 0, uses_anonymous_args = 0
 1538 0000 00B5     		push	{lr}
 1539              		.cfi_def_cfa_offset 4
 1540              		.cfi_offset 14, -4
 1541 0002 87B0     		sub	sp, sp, #28
 1542              		.cfi_def_cfa_offset 32
 1543 0004 0390     		str	r0, [sp, #12]
 1544 0006 0291     		str	r1, [sp, #8]
 1545 0008 0192     		str	r2, [sp, #4]
 1546              		.loc 7 231 0
 1547 000a 0E4B     		ldr	r3, .L124
 1548 000c 1B68     		ldr	r3, [r3]
 1549 000e 0593     		str	r3, [sp, #20]
 1550              		.loc 7 233 0
 1551 0010 09E0     		b	.L120
 1552              	.L121:
 1553              		.loc 7 236 0
 1554 0012 029B     		ldr	r3, [sp, #8]
 1555 0014 1A68     		ldr	r2, [r3]
 1556 0016 039B     		ldr	r3, [sp, #12]
 1557 0018 1A60     		str	r2, [r3]
 1558              		.loc 7 237 0
 1559 001a 029B     		ldr	r3, [sp, #8]
 1560 001c 0433     		adds	r3, r3, #4
 1561 001e 0293     		str	r3, [sp, #8]
 1562              		.loc 7 238 0
 1563 0020 019B     		ldr	r3, [sp, #4]
 1564 0022 013B     		subs	r3, r3, #1
 1565 0024 0193     		str	r3, [sp, #4]
 1566              	.L120:
 1567              		.loc 7 233 0
 1568 0026 019B     		ldr	r3, [sp, #4]
 1569 0028 002B     		cmp	r3, #0
 1570 002a F2D1     		bne	.L121
 1571              		.loc 7 240 0
 1572 002c 029B     		ldr	r3, [sp, #8]
 1573              		.loc 7 241 0
 1574 002e 1846     		mov	r0, r3
 1575 0030 044B     		ldr	r3, .L124
 1576 0032 059A     		ldr	r2, [sp, #20]
 1577 0034 1B68     		ldr	r3, [r3]
 1578 0036 9A42     		cmp	r2, r3
 1579 0038 01D0     		beq	.L123
 1580 003a FFF7FEFF 		bl	__stack_chk_fail
 1581              	.L123:
 1582 003e 07B0     		add	sp, sp, #28
 1583              		.cfi_def_cfa_offset 4
 1584              		@ sp needed
 1585 0040 5DF804FB 		ldr	pc, [sp], #4
 1586              	.L125:
 1587              		.align	2
ARM GAS  C:\Users\PCHAUT~1\AppData\Local\Temp\ccJuO4y2.s 			page 29


 1588              	.L124:
 1589 0044 00000000 		.word	__stack_chk_guard
 1590              		.cfi_endproc
 1591              	.LFE262:
 1592              		.size	otg_do_push, .-otg_do_push
 1593              		.section	.text.otg_fifo_write_from_buffer,"ax",%progbits
 1594              		.align	1
 1595              		.p2align 4,,15
 1596              		.syntax unified
 1597              		.thumb
 1598              		.thumb_func
 1599              		.fpu fpv4-sp-d16
 1600              		.type	otg_fifo_write_from_buffer, %function
 1601              	otg_fifo_write_from_buffer:
 1602              	.LFB263:
 1603              		.loc 7 254 0
 1604              		.cfi_startproc
 1605              		@ args = 0, pretend = 0, frame = 24
 1606              		@ frame_needed = 0, uses_anonymous_args = 0
 1607 0000 00B5     		push	{lr}
 1608              		.cfi_def_cfa_offset 4
 1609              		.cfi_offset 14, -4
 1610 0002 87B0     		sub	sp, sp, #28
 1611              		.cfi_def_cfa_offset 32
 1612 0004 0390     		str	r0, [sp, #12]
 1613 0006 0291     		str	r1, [sp, #8]
 1614 0008 0192     		str	r2, [sp, #4]
 1615              		.loc 7 254 0
 1616 000a 0B4B     		ldr	r3, .L128
 1617 000c 1B68     		ldr	r3, [r3]
 1618 000e 0593     		str	r3, [sp, #20]
 1619              		.loc 7 256 0
 1620 0010 019B     		ldr	r3, [sp, #4]
 1621 0012 0333     		adds	r3, r3, #3
 1622 0014 9B08     		lsrs	r3, r3, #2
 1623 0016 1A46     		mov	r2, r3
 1624 0018 0299     		ldr	r1, [sp, #8]
 1625 001a 0398     		ldr	r0, [sp, #12]
 1626 001c FFF7FEFF 		bl	otg_do_push
 1627              		.loc 7 257 0
 1628 0020 00BF     		nop
 1629 0022 054B     		ldr	r3, .L128
 1630 0024 059A     		ldr	r2, [sp, #20]
 1631 0026 1B68     		ldr	r3, [r3]
 1632 0028 9A42     		cmp	r2, r3
 1633 002a 01D0     		beq	.L127
 1634 002c FFF7FEFF 		bl	__stack_chk_fail
 1635              	.L127:
 1636 0030 07B0     		add	sp, sp, #28
 1637              		.cfi_def_cfa_offset 4
 1638              		@ sp needed
 1639 0032 5DF804FB 		ldr	pc, [sp], #4
 1640              	.L129:
 1641 0036 00BF     		.align	2
 1642              	.L128:
 1643 0038 00000000 		.word	__stack_chk_guard
 1644              		.cfi_endproc
ARM GAS  C:\Users\PCHAUT~1\AppData\Local\Temp\ccJuO4y2.s 			page 30


 1645              	.LFE263:
 1646              		.size	otg_fifo_write_from_buffer, .-otg_fifo_write_from_buffer
 1647              		.section	.text.otg_fifo_write_from_queue,"ax",%progbits
 1648              		.align	1
 1649              		.p2align 4,,15
 1650              		.syntax unified
 1651              		.thumb
 1652              		.thumb_func
 1653              		.fpu fpv4-sp-d16
 1654              		.type	otg_fifo_write_from_queue, %function
 1655              	otg_fifo_write_from_queue:
 1656              	.LFB264:
 1657              		.loc 7 270 0
 1658              		.cfi_startproc
 1659              		@ args = 0, pretend = 0, frame = 48
 1660              		@ frame_needed = 0, uses_anonymous_args = 0
 1661 0000 00B5     		push	{lr}
 1662              		.cfi_def_cfa_offset 4
 1663              		.cfi_offset 14, -4
 1664 0002 8DB0     		sub	sp, sp, #52
 1665              		.cfi_def_cfa_offset 56
 1666 0004 0390     		str	r0, [sp, #12]
 1667 0006 0291     		str	r1, [sp, #8]
 1668 0008 0192     		str	r2, [sp, #4]
 1669              		.loc 7 270 0
 1670 000a 434B     		ldr	r3, .L143
 1671 000c 1B68     		ldr	r3, [r3]
 1672 000e 0B93     		str	r3, [sp, #44]
 1673              		.loc 7 273 0
 1674 0010 019B     		ldr	r3, [sp, #4]
 1675 0012 0593     		str	r3, [sp, #20]
 1676              		.loc 7 274 0
 1677 0014 5FE0     		b	.L131
 1678              	.L140:
 1679              	.LBB10:
 1680              		.loc 7 276 0
 1681 0016 059B     		ldr	r3, [sp, #20]
 1682 0018 9B08     		lsrs	r3, r3, #2
 1683 001a 0893     		str	r3, [sp, #32]
 1684              		.loc 7 278 0
 1685 001c 089B     		ldr	r3, [sp, #32]
 1686 001e 002B     		cmp	r3, #0
 1687 0020 2AD0     		beq	.L132
 1688              	.LBB11:
 1689              		.loc 7 280 0
 1690 0022 029B     		ldr	r3, [sp, #8]
 1691 0024 1B69     		ldr	r3, [r3, #16]
 1692 0026 1A46     		mov	r2, r3
 1693 0028 029B     		ldr	r3, [sp, #8]
 1694 002a 9B69     		ldr	r3, [r3, #24]
 1695 002c D31A     		subs	r3, r2, r3
 1696 002e 002B     		cmp	r3, #0
 1697 0030 00DA     		bge	.L133
 1698 0032 0333     		adds	r3, r3, #3
 1699              	.L133:
 1700 0034 9B10     		asrs	r3, r3, #2
 1701 0036 0993     		str	r3, [sp, #36]
ARM GAS  C:\Users\PCHAUT~1\AppData\Local\Temp\ccJuO4y2.s 			page 31


 1702              		.loc 7 282 0
 1703 0038 089A     		ldr	r2, [sp, #32]
 1704 003a 099B     		ldr	r3, [sp, #36]
 1705 003c 9342     		cmp	r3, r2
 1706 003e 28BF     		it	cs
 1707 0040 1346     		movcs	r3, r2
 1708 0042 0A93     		str	r3, [sp, #40]
 1709 0044 0A9B     		ldr	r3, [sp, #40]
 1710 0046 9B00     		lsls	r3, r3, #2
 1711 0048 059A     		ldr	r2, [sp, #20]
 1712 004a D31A     		subs	r3, r2, r3
 1713 004c 0593     		str	r3, [sp, #20]
 1714              		.loc 7 283 0
 1715 004e 029B     		ldr	r3, [sp, #8]
 1716 0050 9B69     		ldr	r3, [r3, #24]
 1717 0052 0A9A     		ldr	r2, [sp, #40]
 1718 0054 1946     		mov	r1, r3
 1719 0056 0398     		ldr	r0, [sp, #12]
 1720 0058 FFF7FEFF 		bl	otg_do_push
 1721 005c 0246     		mov	r2, r0
 1722 005e 029B     		ldr	r3, [sp, #8]
 1723 0060 9A61     		str	r2, [r3, #24]
 1724              		.loc 7 284 0
 1725 0062 029B     		ldr	r3, [sp, #8]
 1726 0064 9A69     		ldr	r2, [r3, #24]
 1727 0066 029B     		ldr	r3, [sp, #8]
 1728 0068 1B69     		ldr	r3, [r3, #16]
 1729 006a 9A42     		cmp	r2, r3
 1730 006c 04D3     		bcc	.L132
 1731              		.loc 7 285 0
 1732 006e 029B     		ldr	r3, [sp, #8]
 1733 0070 DA68     		ldr	r2, [r3, #12]
 1734 0072 029B     		ldr	r3, [sp, #8]
 1735 0074 9A61     		str	r2, [r3, #24]
 1736              		.loc 7 286 0
 1737 0076 2EE0     		b	.L131
 1738              	.L132:
 1739              	.LBE11:
 1740              		.loc 7 292 0
 1741 0078 059B     		ldr	r3, [sp, #20]
 1742 007a 002B     		cmp	r3, #0
 1743 007c 2FD0     		beq	.L142
 1744              		.loc 7 296 0
 1745 007e 0023     		movs	r3, #0
 1746 0080 0693     		str	r3, [sp, #24]
 1747              		.loc 7 297 0
 1748 0082 0023     		movs	r3, #0
 1749 0084 0793     		str	r3, [sp, #28]
 1750              		.loc 7 298 0
 1751 0086 1DE0     		b	.L136
 1752              	.L139:
 1753              		.loc 7 299 0
 1754 0088 029B     		ldr	r3, [sp, #8]
 1755 008a 9B69     		ldr	r3, [r3, #24]
 1756 008c 591C     		adds	r1, r3, #1
 1757 008e 029A     		ldr	r2, [sp, #8]
 1758 0090 9161     		str	r1, [r2, #24]
ARM GAS  C:\Users\PCHAUT~1\AppData\Local\Temp\ccJuO4y2.s 			page 32


 1759 0092 1B78     		ldrb	r3, [r3]	@ zero_extendqisi2
 1760 0094 1A46     		mov	r2, r3
 1761 0096 079B     		ldr	r3, [sp, #28]
 1762 0098 DB00     		lsls	r3, r3, #3
 1763 009a 02FA03F3 		lsl	r3, r2, r3
 1764 009e 069A     		ldr	r2, [sp, #24]
 1765 00a0 1343     		orrs	r3, r3, r2
 1766 00a2 0693     		str	r3, [sp, #24]
 1767              		.loc 7 300 0
 1768 00a4 029B     		ldr	r3, [sp, #8]
 1769 00a6 9A69     		ldr	r2, [r3, #24]
 1770 00a8 029B     		ldr	r3, [sp, #8]
 1771 00aa 1B69     		ldr	r3, [r3, #16]
 1772 00ac 9A42     		cmp	r2, r3
 1773 00ae 03D3     		bcc	.L137
 1774              		.loc 7 301 0
 1775 00b0 029B     		ldr	r3, [sp, #8]
 1776 00b2 DA68     		ldr	r2, [r3, #12]
 1777 00b4 029B     		ldr	r3, [sp, #8]
 1778 00b6 9A61     		str	r2, [r3, #24]
 1779              	.L137:
 1780              		.loc 7 302 0
 1781 00b8 059B     		ldr	r3, [sp, #20]
 1782 00ba 013B     		subs	r3, r3, #1
 1783 00bc 0593     		str	r3, [sp, #20]
 1784              		.loc 7 303 0
 1785 00be 079B     		ldr	r3, [sp, #28]
 1786 00c0 0133     		adds	r3, r3, #1
 1787 00c2 0793     		str	r3, [sp, #28]
 1788              	.L136:
 1789              		.loc 7 298 0
 1790 00c4 059B     		ldr	r3, [sp, #20]
 1791 00c6 002B     		cmp	r3, #0
 1792 00c8 02D0     		beq	.L138
 1793              		.loc 7 298 0 is_stmt 0 discriminator 1
 1794 00ca 079B     		ldr	r3, [sp, #28]
 1795 00cc 032B     		cmp	r3, #3
 1796 00ce DBD9     		bls	.L139
 1797              	.L138:
 1798              		.loc 7 305 0 is_stmt 1
 1799 00d0 039B     		ldr	r3, [sp, #12]
 1800 00d2 069A     		ldr	r2, [sp, #24]
 1801 00d4 1A60     		str	r2, [r3]
 1802              	.L131:
 1803              	.LBE10:
 1804              		.loc 7 274 0
 1805 00d6 059B     		ldr	r3, [sp, #20]
 1806 00d8 002B     		cmp	r3, #0
 1807 00da 9CD1     		bne	.L140
 1808 00dc 00E0     		b	.L135
 1809              	.L142:
 1810              	.LBB12:
 1811              		.loc 7 293 0
 1812 00de 00BF     		nop
 1813              	.L135:
 1814              	.LBE12:
 1815              		.loc 7 309 0
ARM GAS  C:\Users\PCHAUT~1\AppData\Local\Temp\ccJuO4y2.s 			page 33


 1816 00e0 FFF7FEFF 		bl	osalSysLock
 1817              		.loc 7 310 0
 1818 00e4 029B     		ldr	r3, [sp, #8]
 1819 00e6 9A68     		ldr	r2, [r3, #8]
 1820 00e8 019B     		ldr	r3, [sp, #4]
 1821 00ea 1A44     		add	r2, r2, r3
 1822 00ec 029B     		ldr	r3, [sp, #8]
 1823 00ee 9A60     		str	r2, [r3, #8]
 1824              		.loc 7 311 0
 1825 00f0 029B     		ldr	r3, [sp, #8]
 1826 00f2 0021     		movs	r1, #0
 1827 00f4 1846     		mov	r0, r3
 1828 00f6 FFF7FEFF 		bl	osalThreadDequeueAllI
 1829              		.loc 7 312 0
 1830 00fa FFF7FEFF 		bl	osalOsRescheduleS
 1831              		.loc 7 313 0
 1832 00fe FFF7FEFF 		bl	osalSysUnlock
 1833              		.loc 7 314 0
 1834 0102 00BF     		nop
 1835 0104 044B     		ldr	r3, .L143
 1836 0106 0B9A     		ldr	r2, [sp, #44]
 1837 0108 1B68     		ldr	r3, [r3]
 1838 010a 9A42     		cmp	r2, r3
 1839 010c 01D0     		beq	.L141
 1840 010e FFF7FEFF 		bl	__stack_chk_fail
 1841              	.L141:
 1842 0112 0DB0     		add	sp, sp, #52
 1843              		.cfi_def_cfa_offset 4
 1844              		@ sp needed
 1845 0114 5DF804FB 		ldr	pc, [sp], #4
 1846              	.L144:
 1847              		.align	2
 1848              	.L143:
 1849 0118 00000000 		.word	__stack_chk_guard
 1850              		.cfi_endproc
 1851              	.LFE264:
 1852              		.size	otg_fifo_write_from_queue, .-otg_fifo_write_from_queue
 1853              		.section	.text.otg_do_pop,"ax",%progbits
 1854              		.align	1
 1855              		.p2align 4,,15
 1856              		.syntax unified
 1857              		.thumb
 1858              		.thumb_func
 1859              		.fpu fpv4-sp-d16
 1860              		.type	otg_do_pop, %function
 1861              	otg_do_pop:
 1862              	.LFB265:
 1863              		.loc 7 328 0
 1864              		.cfi_startproc
 1865              		@ args = 0, pretend = 0, frame = 24
 1866              		@ frame_needed = 0, uses_anonymous_args = 0
 1867 0000 00B5     		push	{lr}
 1868              		.cfi_def_cfa_offset 4
 1869              		.cfi_offset 14, -4
 1870 0002 87B0     		sub	sp, sp, #28
 1871              		.cfi_def_cfa_offset 32
 1872 0004 0390     		str	r0, [sp, #12]
ARM GAS  C:\Users\PCHAUT~1\AppData\Local\Temp\ccJuO4y2.s 			page 34


 1873 0006 0291     		str	r1, [sp, #8]
 1874 0008 0192     		str	r2, [sp, #4]
 1875              		.loc 7 328 0
 1876 000a 0F4B     		ldr	r3, .L150
 1877 000c 1B68     		ldr	r3, [r3]
 1878 000e 0593     		str	r3, [sp, #20]
 1879              		.loc 7 330 0
 1880 0010 0BE0     		b	.L146
 1881              	.L147:
 1882              	.LBB13:
 1883              		.loc 7 331 0
 1884 0012 039B     		ldr	r3, [sp, #12]
 1885 0014 1B68     		ldr	r3, [r3]
 1886 0016 0493     		str	r3, [sp, #16]
 1887              		.loc 7 334 0
 1888 0018 029B     		ldr	r3, [sp, #8]
 1889 001a 049A     		ldr	r2, [sp, #16]
 1890 001c 1A60     		str	r2, [r3]
 1891              		.loc 7 335 0
 1892 001e 029B     		ldr	r3, [sp, #8]
 1893 0020 0433     		adds	r3, r3, #4
 1894 0022 0293     		str	r3, [sp, #8]
 1895              		.loc 7 336 0
 1896 0024 019B     		ldr	r3, [sp, #4]
 1897 0026 013B     		subs	r3, r3, #1
 1898 0028 0193     		str	r3, [sp, #4]
 1899              	.L146:
 1900              	.LBE13:
 1901              		.loc 7 330 0
 1902 002a 019B     		ldr	r3, [sp, #4]
 1903 002c 002B     		cmp	r3, #0
 1904 002e F0D1     		bne	.L147
 1905              		.loc 7 338 0
 1906 0030 029B     		ldr	r3, [sp, #8]
 1907              		.loc 7 339 0
 1908 0032 1846     		mov	r0, r3
 1909 0034 044B     		ldr	r3, .L150
 1910 0036 059A     		ldr	r2, [sp, #20]
 1911 0038 1B68     		ldr	r3, [r3]
 1912 003a 9A42     		cmp	r2, r3
 1913 003c 01D0     		beq	.L149
 1914 003e FFF7FEFF 		bl	__stack_chk_fail
 1915              	.L149:
 1916 0042 07B0     		add	sp, sp, #28
 1917              		.cfi_def_cfa_offset 4
 1918              		@ sp needed
 1919 0044 5DF804FB 		ldr	pc, [sp], #4
 1920              	.L151:
 1921              		.align	2
 1922              	.L150:
 1923 0048 00000000 		.word	__stack_chk_guard
 1924              		.cfi_endproc
 1925              	.LFE265:
 1926              		.size	otg_do_pop, .-otg_do_pop
 1927              		.section	.text.otg_fifo_read_to_buffer,"ax",%progbits
 1928              		.align	1
 1929              		.p2align 4,,15
ARM GAS  C:\Users\PCHAUT~1\AppData\Local\Temp\ccJuO4y2.s 			page 35


 1930              		.syntax unified
 1931              		.thumb
 1932              		.thumb_func
 1933              		.fpu fpv4-sp-d16
 1934              		.type	otg_fifo_read_to_buffer, %function
 1935              	otg_fifo_read_to_buffer:
 1936              	.LFB266:
 1937              		.loc 7 354 0
 1938              		.cfi_startproc
 1939              		@ args = 0, pretend = 0, frame = 24
 1940              		@ frame_needed = 0, uses_anonymous_args = 0
 1941 0000 00B5     		push	{lr}
 1942              		.cfi_def_cfa_offset 4
 1943              		.cfi_offset 14, -4
 1944 0002 87B0     		sub	sp, sp, #28
 1945              		.cfi_def_cfa_offset 32
 1946 0004 0390     		str	r0, [sp, #12]
 1947 0006 0291     		str	r1, [sp, #8]
 1948 0008 0192     		str	r2, [sp, #4]
 1949 000a 0093     		str	r3, [sp]
 1950              		.loc 7 354 0
 1951 000c 154B     		ldr	r3, .L157
 1952 000e 1B68     		ldr	r3, [r3]
 1953 0010 0593     		str	r3, [sp, #20]
 1954              		.loc 7 356 0
 1955 0012 019B     		ldr	r3, [sp, #4]
 1956 0014 0333     		adds	r3, r3, #3
 1957 0016 9B08     		lsrs	r3, r3, #2
 1958 0018 0193     		str	r3, [sp, #4]
 1959              		.loc 7 357 0
 1960 001a 009B     		ldr	r3, [sp]
 1961 001c 0333     		adds	r3, r3, #3
 1962 001e 9B08     		lsrs	r3, r3, #2
 1963 0020 0093     		str	r3, [sp]
 1964              		.loc 7 358 0
 1965 0022 11E0     		b	.L153
 1966              	.L155:
 1967              	.LBB14:
 1968              		.loc 7 359 0
 1969 0024 039B     		ldr	r3, [sp, #12]
 1970 0026 1B68     		ldr	r3, [r3]
 1971 0028 0493     		str	r3, [sp, #16]
 1972              		.loc 7 360 0
 1973 002a 009B     		ldr	r3, [sp]
 1974 002c 002B     		cmp	r3, #0
 1975 002e 08D0     		beq	.L154
 1976              		.loc 7 363 0
 1977 0030 029B     		ldr	r3, [sp, #8]
 1978 0032 049A     		ldr	r2, [sp, #16]
 1979 0034 1A60     		str	r2, [r3]
 1980              		.loc 7 364 0
 1981 0036 029B     		ldr	r3, [sp, #8]
 1982 0038 0433     		adds	r3, r3, #4
 1983 003a 0293     		str	r3, [sp, #8]
 1984              		.loc 7 365 0
 1985 003c 009B     		ldr	r3, [sp]
 1986 003e 013B     		subs	r3, r3, #1
ARM GAS  C:\Users\PCHAUT~1\AppData\Local\Temp\ccJuO4y2.s 			page 36


 1987 0040 0093     		str	r3, [sp]
 1988              	.L154:
 1989              		.loc 7 367 0
 1990 0042 019B     		ldr	r3, [sp, #4]
 1991 0044 013B     		subs	r3, r3, #1
 1992 0046 0193     		str	r3, [sp, #4]
 1993              	.L153:
 1994              	.LBE14:
 1995              		.loc 7 358 0
 1996 0048 019B     		ldr	r3, [sp, #4]
 1997 004a 002B     		cmp	r3, #0
 1998 004c EAD1     		bne	.L155
 1999              		.loc 7 369 0
 2000 004e 00BF     		nop
 2001 0050 044B     		ldr	r3, .L157
 2002 0052 059A     		ldr	r2, [sp, #20]
 2003 0054 1B68     		ldr	r3, [r3]
 2004 0056 9A42     		cmp	r2, r3
 2005 0058 01D0     		beq	.L156
 2006 005a FFF7FEFF 		bl	__stack_chk_fail
 2007              	.L156:
 2008 005e 07B0     		add	sp, sp, #28
 2009              		.cfi_def_cfa_offset 4
 2010              		@ sp needed
 2011 0060 5DF804FB 		ldr	pc, [sp], #4
 2012              	.L158:
 2013              		.align	2
 2014              	.L157:
 2015 0064 00000000 		.word	__stack_chk_guard
 2016              		.cfi_endproc
 2017              	.LFE266:
 2018              		.size	otg_fifo_read_to_buffer, .-otg_fifo_read_to_buffer
 2019              		.section	.text.otg_fifo_read_to_queue,"ax",%progbits
 2020              		.align	1
 2021              		.p2align 4,,15
 2022              		.syntax unified
 2023              		.thumb
 2024              		.thumb_func
 2025              		.fpu fpv4-sp-d16
 2026              		.type	otg_fifo_read_to_queue, %function
 2027              	otg_fifo_read_to_queue:
 2028              	.LFB267:
 2029              		.loc 7 382 0
 2030              		.cfi_startproc
 2031              		@ args = 0, pretend = 0, frame = 48
 2032              		@ frame_needed = 0, uses_anonymous_args = 0
 2033 0000 00B5     		push	{lr}
 2034              		.cfi_def_cfa_offset 4
 2035              		.cfi_offset 14, -4
 2036 0002 8DB0     		sub	sp, sp, #52
 2037              		.cfi_def_cfa_offset 56
 2038 0004 0390     		str	r0, [sp, #12]
 2039 0006 0291     		str	r1, [sp, #8]
 2040 0008 0192     		str	r2, [sp, #4]
 2041              		.loc 7 382 0
 2042 000a 3D4B     		ldr	r3, .L170
 2043 000c 1B68     		ldr	r3, [r3]
ARM GAS  C:\Users\PCHAUT~1\AppData\Local\Temp\ccJuO4y2.s 			page 37


 2044 000e 0B93     		str	r3, [sp, #44]
 2045              		.loc 7 385 0
 2046 0010 019B     		ldr	r3, [sp, #4]
 2047 0012 0593     		str	r3, [sp, #20]
 2048              		.loc 7 386 0
 2049 0014 52E0     		b	.L160
 2050              	.L167:
 2051              	.LBB15:
 2052              		.loc 7 388 0
 2053 0016 059B     		ldr	r3, [sp, #20]
 2054 0018 9B08     		lsrs	r3, r3, #2
 2055 001a 0793     		str	r3, [sp, #28]
 2056              		.loc 7 390 0
 2057 001c 079B     		ldr	r3, [sp, #28]
 2058 001e 002B     		cmp	r3, #0
 2059 0020 21D0     		beq	.L161
 2060              	.LBB16:
 2061              		.loc 7 392 0
 2062 0022 0023     		movs	r3, #0
 2063 0024 0893     		str	r3, [sp, #32]
 2064              		.loc 7 394 0
 2065 0026 079A     		ldr	r2, [sp, #28]
 2066 0028 089B     		ldr	r3, [sp, #32]
 2067 002a 9342     		cmp	r3, r2
 2068 002c 28BF     		it	cs
 2069 002e 1346     		movcs	r3, r2
 2070 0030 0993     		str	r3, [sp, #36]
 2071 0032 099B     		ldr	r3, [sp, #36]
 2072 0034 9B00     		lsls	r3, r3, #2
 2073 0036 059A     		ldr	r2, [sp, #20]
 2074 0038 D31A     		subs	r3, r2, r3
 2075 003a 0593     		str	r3, [sp, #20]
 2076              		.loc 7 395 0
 2077 003c 029B     		ldr	r3, [sp, #8]
 2078 003e 5B69     		ldr	r3, [r3, #20]
 2079 0040 099A     		ldr	r2, [sp, #36]
 2080 0042 1946     		mov	r1, r3
 2081 0044 0398     		ldr	r0, [sp, #12]
 2082 0046 FFF7FEFF 		bl	otg_do_pop
 2083 004a 0246     		mov	r2, r0
 2084 004c 029B     		ldr	r3, [sp, #8]
 2085 004e 5A61     		str	r2, [r3, #20]
 2086              		.loc 7 396 0
 2087 0050 029B     		ldr	r3, [sp, #8]
 2088 0052 5A69     		ldr	r2, [r3, #20]
 2089 0054 029B     		ldr	r3, [sp, #8]
 2090 0056 1B69     		ldr	r3, [r3, #16]
 2091 0058 9A42     		cmp	r2, r3
 2092 005a 04D3     		bcc	.L161
 2093              		.loc 7 397 0
 2094 005c 029B     		ldr	r3, [sp, #8]
 2095 005e DA68     		ldr	r2, [r3, #12]
 2096 0060 029B     		ldr	r3, [sp, #8]
 2097 0062 5A61     		str	r2, [r3, #20]
 2098              		.loc 7 398 0
 2099 0064 2AE0     		b	.L160
 2100              	.L161:
ARM GAS  C:\Users\PCHAUT~1\AppData\Local\Temp\ccJuO4y2.s 			page 38


 2101              	.LBE16:
 2102              		.loc 7 404 0
 2103 0066 059B     		ldr	r3, [sp, #20]
 2104 0068 002B     		cmp	r3, #0
 2105 006a 2BD0     		beq	.L169
 2106              		.loc 7 408 0
 2107 006c 039B     		ldr	r3, [sp, #12]
 2108 006e 1B68     		ldr	r3, [r3]
 2109 0070 0A93     		str	r3, [sp, #40]
 2110              		.loc 7 409 0
 2111 0072 0023     		movs	r3, #0
 2112 0074 0693     		str	r3, [sp, #24]
 2113              		.loc 7 410 0
 2114 0076 1BE0     		b	.L164
 2115              	.L166:
 2116              		.loc 7 411 0
 2117 0078 069B     		ldr	r3, [sp, #24]
 2118 007a DB00     		lsls	r3, r3, #3
 2119 007c 0A9A     		ldr	r2, [sp, #40]
 2120 007e 22FA03F0 		lsr	r0, r2, r3
 2121 0082 029B     		ldr	r3, [sp, #8]
 2122 0084 5B69     		ldr	r3, [r3, #20]
 2123 0086 591C     		adds	r1, r3, #1
 2124 0088 029A     		ldr	r2, [sp, #8]
 2125 008a 5161     		str	r1, [r2, #20]
 2126 008c C2B2     		uxtb	r2, r0
 2127 008e 1A70     		strb	r2, [r3]
 2128              		.loc 7 412 0
 2129 0090 029B     		ldr	r3, [sp, #8]
 2130 0092 5A69     		ldr	r2, [r3, #20]
 2131 0094 029B     		ldr	r3, [sp, #8]
 2132 0096 1B69     		ldr	r3, [r3, #16]
 2133 0098 9A42     		cmp	r2, r3
 2134 009a 03D3     		bcc	.L165
 2135              		.loc 7 413 0
 2136 009c 029B     		ldr	r3, [sp, #8]
 2137 009e DA68     		ldr	r2, [r3, #12]
 2138 00a0 029B     		ldr	r3, [sp, #8]
 2139 00a2 5A61     		str	r2, [r3, #20]
 2140              	.L165:
 2141              		.loc 7 414 0
 2142 00a4 059B     		ldr	r3, [sp, #20]
 2143 00a6 013B     		subs	r3, r3, #1
 2144 00a8 0593     		str	r3, [sp, #20]
 2145              		.loc 7 415 0
 2146 00aa 069B     		ldr	r3, [sp, #24]
 2147 00ac 0133     		adds	r3, r3, #1
 2148 00ae 0693     		str	r3, [sp, #24]
 2149              	.L164:
 2150              		.loc 7 410 0
 2151 00b0 059B     		ldr	r3, [sp, #20]
 2152 00b2 002B     		cmp	r3, #0
 2153 00b4 02D0     		beq	.L160
 2154              		.loc 7 410 0 is_stmt 0 discriminator 1
 2155 00b6 069B     		ldr	r3, [sp, #24]
 2156 00b8 032B     		cmp	r3, #3
 2157 00ba DDD9     		bls	.L166
ARM GAS  C:\Users\PCHAUT~1\AppData\Local\Temp\ccJuO4y2.s 			page 39


 2158              	.L160:
 2159              	.LBE15:
 2160              		.loc 7 386 0 is_stmt 1
 2161 00bc 059B     		ldr	r3, [sp, #20]
 2162 00be 002B     		cmp	r3, #0
 2163 00c0 A9D1     		bne	.L167
 2164 00c2 00E0     		b	.L163
 2165              	.L169:
 2166              	.LBB17:
 2167              		.loc 7 405 0
 2168 00c4 00BF     		nop
 2169              	.L163:
 2170              	.LBE17:
 2171              		.loc 7 420 0
 2172 00c6 FFF7FEFF 		bl	osalSysLock
 2173              		.loc 7 421 0
 2174 00ca 029B     		ldr	r3, [sp, #8]
 2175 00cc 9A68     		ldr	r2, [r3, #8]
 2176 00ce 019B     		ldr	r3, [sp, #4]
 2177 00d0 1A44     		add	r2, r2, r3
 2178 00d2 029B     		ldr	r3, [sp, #8]
 2179 00d4 9A60     		str	r2, [r3, #8]
 2180              		.loc 7 422 0
 2181 00d6 029B     		ldr	r3, [sp, #8]
 2182 00d8 0021     		movs	r1, #0
 2183 00da 1846     		mov	r0, r3
 2184 00dc FFF7FEFF 		bl	osalThreadDequeueAllI
 2185              		.loc 7 423 0
 2186 00e0 FFF7FEFF 		bl	osalOsRescheduleS
 2187              		.loc 7 424 0
 2188 00e4 FFF7FEFF 		bl	osalSysUnlock
 2189              		.loc 7 425 0
 2190 00e8 00BF     		nop
 2191 00ea 054B     		ldr	r3, .L170
 2192 00ec 0B9A     		ldr	r2, [sp, #44]
 2193 00ee 1B68     		ldr	r3, [r3]
 2194 00f0 9A42     		cmp	r2, r3
 2195 00f2 01D0     		beq	.L168
 2196 00f4 FFF7FEFF 		bl	__stack_chk_fail
 2197              	.L168:
 2198 00f8 0DB0     		add	sp, sp, #52
 2199              		.cfi_def_cfa_offset 4
 2200              		@ sp needed
 2201 00fa 5DF804FB 		ldr	pc, [sp], #4
 2202              	.L171:
 2203 00fe 00BF     		.align	2
 2204              	.L170:
 2205 0100 00000000 		.word	__stack_chk_guard
 2206              		.cfi_endproc
 2207              	.LFE267:
 2208              		.size	otg_fifo_read_to_queue, .-otg_fifo_read_to_queue
 2209              		.section	.text.otg_rxfifo_handler,"ax",%progbits
 2210              		.align	1
 2211              		.p2align 4,,15
 2212              		.syntax unified
 2213              		.thumb
 2214              		.thumb_func
ARM GAS  C:\Users\PCHAUT~1\AppData\Local\Temp\ccJuO4y2.s 			page 40


 2215              		.fpu fpv4-sp-d16
 2216              		.type	otg_rxfifo_handler, %function
 2217              	otg_rxfifo_handler:
 2218              	.LFB268:
 2219              		.loc 7 434 0
 2220              		.cfi_startproc
 2221              		@ args = 0, pretend = 0, frame = 24
 2222              		@ frame_needed = 0, uses_anonymous_args = 0
 2223 0000 10B5     		push	{r4, lr}
 2224              		.cfi_def_cfa_offset 8
 2225              		.cfi_offset 4, -8
 2226              		.cfi_offset 14, -4
 2227 0002 86B0     		sub	sp, sp, #24
 2228              		.cfi_def_cfa_offset 32
 2229 0004 0190     		str	r0, [sp, #4]
 2230              		.loc 7 434 0
 2231 0006 514B     		ldr	r3, .L182
 2232 0008 1B68     		ldr	r3, [r3]
 2233 000a 0593     		str	r3, [sp, #20]
 2234              		.loc 7 437 0
 2235 000c 019B     		ldr	r3, [sp, #4]
 2236 000e 1B6D     		ldr	r3, [r3, #80]
 2237 0010 1B6A     		ldr	r3, [r3, #32]
 2238 0012 0293     		str	r3, [sp, #8]
 2239              		.loc 7 438 0
 2240 0014 029B     		ldr	r3, [sp, #8]
 2241 0016 03F4F013 		and	r3, r3, #1966080
 2242 001a B3F5002F 		cmp	r3, #524288
 2243 001e 00F08A80 		beq	.L180
 2244 0022 B3F5402F 		cmp	r3, #786432
 2245 0026 03D0     		beq	.L175
 2246 0028 B3F5802F 		cmp	r3, #262144
 2247 002c 19D0     		beq	.L176
 2248              		.loc 7 471 0
 2249 002e 83E0     		b	.L181
 2250              	.L175:
 2251              		.loc 7 442 0
 2252 0030 029B     		ldr	r3, [sp, #8]
 2253 0032 1B09     		lsrs	r3, r3, #4
 2254 0034 C3F30A03 		ubfx	r3, r3, #0, #11
 2255 0038 0393     		str	r3, [sp, #12]
 2256              		.loc 7 443 0
 2257 003a 029B     		ldr	r3, [sp, #8]
 2258 003c 03F00F03 		and	r3, r3, #15
 2259 0040 0493     		str	r3, [sp, #16]
 2260              		.loc 7 444 0
 2261 0042 019B     		ldr	r3, [sp, #4]
 2262 0044 1B6D     		ldr	r3, [r3, #80]
 2263 0046 03F58050 		add	r0, r3, #4096
 2264 004a 019A     		ldr	r2, [sp, #4]
 2265 004c 049B     		ldr	r3, [sp, #16]
 2266 004e 0233     		adds	r3, r3, #2
 2267 0050 9B00     		lsls	r3, r3, #2
 2268 0052 1344     		add	r3, r3, r2
 2269 0054 5B68     		ldr	r3, [r3, #4]
 2270 0056 196A     		ldr	r1, [r3, #32]
 2271 0058 0823     		movs	r3, #8
ARM GAS  C:\Users\PCHAUT~1\AppData\Local\Temp\ccJuO4y2.s 			page 41


 2272 005a 039A     		ldr	r2, [sp, #12]
 2273 005c FFF7FEFF 		bl	otg_fifo_read_to_buffer
 2274              		.loc 7 446 0
 2275 0060 6AE0     		b	.L173
 2276              	.L176:
 2277              		.loc 7 448 0
 2278 0062 029B     		ldr	r3, [sp, #8]
 2279 0064 1B09     		lsrs	r3, r3, #4
 2280 0066 C3F30A03 		ubfx	r3, r3, #0, #11
 2281 006a 0393     		str	r3, [sp, #12]
 2282              		.loc 7 449 0
 2283 006c 029B     		ldr	r3, [sp, #8]
 2284 006e 03F00F03 		and	r3, r3, #15
 2285 0072 0493     		str	r3, [sp, #16]
 2286              		.loc 7 450 0
 2287 0074 019A     		ldr	r2, [sp, #4]
 2288 0076 049B     		ldr	r3, [sp, #16]
 2289 0078 0233     		adds	r3, r3, #2
 2290 007a 9B00     		lsls	r3, r3, #2
 2291 007c 1344     		add	r3, r3, r2
 2292 007e 5B68     		ldr	r3, [r3, #4]
 2293 0080 9B69     		ldr	r3, [r3, #24]
 2294 0082 1B78     		ldrb	r3, [r3]	@ zero_extendqisi2
 2295 0084 002B     		cmp	r3, #0
 2296 0086 10D0     		beq	.L177
 2297              		.loc 7 452 0
 2298 0088 019B     		ldr	r3, [sp, #4]
 2299 008a 1B6D     		ldr	r3, [r3, #80]
 2300 008c 03F58050 		add	r0, r3, #4096
 2301              		.loc 7 453 0
 2302 0090 019A     		ldr	r2, [sp, #4]
 2303 0092 049B     		ldr	r3, [sp, #16]
 2304 0094 0233     		adds	r3, r3, #2
 2305 0096 9B00     		lsls	r3, r3, #2
 2306 0098 1344     		add	r3, r3, r2
 2307 009a 5B68     		ldr	r3, [r3, #4]
 2308 009c 9B69     		ldr	r3, [r3, #24]
 2309              		.loc 7 452 0
 2310 009e DB68     		ldr	r3, [r3, #12]
 2311 00a0 039A     		ldr	r2, [sp, #12]
 2312 00a2 1946     		mov	r1, r3
 2313 00a4 FFF7FEFF 		bl	otg_fifo_read_to_queue
 2314 00a8 32E0     		b	.L178
 2315              	.L177:
 2316              		.loc 7 457 0
 2317 00aa 019B     		ldr	r3, [sp, #4]
 2318 00ac 1B6D     		ldr	r3, [r3, #80]
 2319 00ae 03F58050 		add	r0, r3, #4096
 2320              		.loc 7 458 0
 2321 00b2 019A     		ldr	r2, [sp, #4]
 2322 00b4 049B     		ldr	r3, [sp, #16]
 2323 00b6 0233     		adds	r3, r3, #2
 2324 00b8 9B00     		lsls	r3, r3, #2
 2325 00ba 1344     		add	r3, r3, r2
 2326 00bc 5B68     		ldr	r3, [r3, #4]
 2327 00be 9B69     		ldr	r3, [r3, #24]
 2328              		.loc 7 457 0
ARM GAS  C:\Users\PCHAUT~1\AppData\Local\Temp\ccJuO4y2.s 			page 42


 2329 00c0 DC68     		ldr	r4, [r3, #12]
 2330              		.loc 7 460 0
 2331 00c2 019A     		ldr	r2, [sp, #4]
 2332 00c4 049B     		ldr	r3, [sp, #16]
 2333 00c6 0233     		adds	r3, r3, #2
 2334 00c8 9B00     		lsls	r3, r3, #2
 2335 00ca 1344     		add	r3, r3, r2
 2336 00cc 5B68     		ldr	r3, [r3, #4]
 2337 00ce 9B69     		ldr	r3, [r3, #24]
 2338 00d0 5A68     		ldr	r2, [r3, #4]
 2339              		.loc 7 461 0
 2340 00d2 0199     		ldr	r1, [sp, #4]
 2341 00d4 049B     		ldr	r3, [sp, #16]
 2342 00d6 0233     		adds	r3, r3, #2
 2343 00d8 9B00     		lsls	r3, r3, #2
 2344 00da 0B44     		add	r3, r3, r1
 2345 00dc 5B68     		ldr	r3, [r3, #4]
 2346 00de 9B69     		ldr	r3, [r3, #24]
 2347 00e0 9B68     		ldr	r3, [r3, #8]
 2348              		.loc 7 457 0
 2349 00e2 D31A     		subs	r3, r2, r3
 2350 00e4 039A     		ldr	r2, [sp, #12]
 2351 00e6 2146     		mov	r1, r4
 2352 00e8 FFF7FEFF 		bl	otg_fifo_read_to_buffer
 2353              		.loc 7 462 0
 2354 00ec 019A     		ldr	r2, [sp, #4]
 2355 00ee 049B     		ldr	r3, [sp, #16]
 2356 00f0 0233     		adds	r3, r3, #2
 2357 00f2 9B00     		lsls	r3, r3, #2
 2358 00f4 1344     		add	r3, r3, r2
 2359 00f6 5B68     		ldr	r3, [r3, #4]
 2360 00f8 9B69     		ldr	r3, [r3, #24]
 2361 00fa D968     		ldr	r1, [r3, #12]
 2362 00fc 019A     		ldr	r2, [sp, #4]
 2363 00fe 049B     		ldr	r3, [sp, #16]
 2364 0100 0233     		adds	r3, r3, #2
 2365 0102 9B00     		lsls	r3, r3, #2
 2366 0104 1344     		add	r3, r3, r2
 2367 0106 5B68     		ldr	r3, [r3, #4]
 2368 0108 9B69     		ldr	r3, [r3, #24]
 2369 010a 039A     		ldr	r2, [sp, #12]
 2370 010c 0A44     		add	r2, r2, r1
 2371 010e DA60     		str	r2, [r3, #12]
 2372              	.L178:
 2373              		.loc 7 464 0
 2374 0110 019A     		ldr	r2, [sp, #4]
 2375 0112 049B     		ldr	r3, [sp, #16]
 2376 0114 0233     		adds	r3, r3, #2
 2377 0116 9B00     		lsls	r3, r3, #2
 2378 0118 1344     		add	r3, r3, r2
 2379 011a 5B68     		ldr	r3, [r3, #4]
 2380 011c 9B69     		ldr	r3, [r3, #24]
 2381 011e 9968     		ldr	r1, [r3, #8]
 2382 0120 019A     		ldr	r2, [sp, #4]
 2383 0122 049B     		ldr	r3, [sp, #16]
 2384 0124 0233     		adds	r3, r3, #2
 2385 0126 9B00     		lsls	r3, r3, #2
ARM GAS  C:\Users\PCHAUT~1\AppData\Local\Temp\ccJuO4y2.s 			page 43


 2386 0128 1344     		add	r3, r3, r2
 2387 012a 5B68     		ldr	r3, [r3, #4]
 2388 012c 9B69     		ldr	r3, [r3, #24]
 2389 012e 039A     		ldr	r2, [sp, #12]
 2390 0130 0A44     		add	r2, r2, r1
 2391 0132 9A60     		str	r2, [r3, #8]
 2392              		.loc 7 465 0
 2393 0134 00E0     		b	.L173
 2394              	.L180:
 2395              		.loc 7 440 0
 2396 0136 00BF     		nop
 2397              	.L173:
 2398              	.L181:
 2399              		.loc 7 471 0
 2400 0138 00BF     		nop
 2401 013a 044B     		ldr	r3, .L182
 2402 013c 059A     		ldr	r2, [sp, #20]
 2403 013e 1B68     		ldr	r3, [r3]
 2404 0140 9A42     		cmp	r2, r3
 2405 0142 01D0     		beq	.L179
 2406 0144 FFF7FEFF 		bl	__stack_chk_fail
 2407              	.L179:
 2408 0148 06B0     		add	sp, sp, #24
 2409              		.cfi_def_cfa_offset 8
 2410              		@ sp needed
 2411 014a 10BD     		pop	{r4, pc}
 2412              	.L183:
 2413              		.align	2
 2414              	.L182:
 2415 014c 00000000 		.word	__stack_chk_guard
 2416              		.cfi_endproc
 2417              	.LFE268:
 2418              		.size	otg_rxfifo_handler, .-otg_rxfifo_handler
 2419              		.section	.text.otg_txfifo_handler,"ax",%progbits
 2420              		.align	1
 2421              		.p2align 4,,15
 2422              		.syntax unified
 2423              		.thumb
 2424              		.thumb_func
 2425              		.fpu fpv4-sp-d16
 2426              		.type	otg_txfifo_handler, %function
 2427              	otg_txfifo_handler:
 2428              	.LFB269:
 2429              		.loc 7 481 0
 2430              		.cfi_startproc
 2431              		@ args = 0, pretend = 0, frame = 16
 2432              		@ frame_needed = 0, uses_anonymous_args = 0
 2433 0000 00B5     		push	{lr}
 2434              		.cfi_def_cfa_offset 4
 2435              		.cfi_offset 14, -4
 2436 0002 85B0     		sub	sp, sp, #20
 2437              		.cfi_def_cfa_offset 24
 2438 0004 0190     		str	r0, [sp, #4]
 2439 0006 0B46     		mov	r3, r1
 2440 0008 8DF80330 		strb	r3, [sp, #3]
 2441              		.loc 7 481 0
 2442 000c 5C4B     		ldr	r3, .L193
ARM GAS  C:\Users\PCHAUT~1\AppData\Local\Temp\ccJuO4y2.s 			page 44


 2443 000e 1B68     		ldr	r3, [r3]
 2444 0010 0393     		str	r3, [sp, #12]
 2445              	.L191:
 2446              	.LBB18:
 2447              		.loc 7 488 0
 2448 0012 9DF80330 		ldrb	r3, [sp, #3]	@ zero_extendqisi2
 2449 0016 019A     		ldr	r2, [sp, #4]
 2450 0018 0233     		adds	r3, r3, #2
 2451 001a 9B00     		lsls	r3, r3, #2
 2452 001c 1344     		add	r3, r3, r2
 2453 001e 5B68     		ldr	r3, [r3, #4]
 2454 0020 5B69     		ldr	r3, [r3, #20]
 2455 0022 9A68     		ldr	r2, [r3, #8]
 2456 0024 9DF80330 		ldrb	r3, [sp, #3]	@ zero_extendqisi2
 2457 0028 0199     		ldr	r1, [sp, #4]
 2458 002a 0233     		adds	r3, r3, #2
 2459 002c 9B00     		lsls	r3, r3, #2
 2460 002e 0B44     		add	r3, r3, r1
 2461 0030 5B68     		ldr	r3, [r3, #4]
 2462 0032 5B69     		ldr	r3, [r3, #20]
 2463 0034 5B68     		ldr	r3, [r3, #4]
 2464 0036 9A42     		cmp	r2, r3
 2465 0038 01D3     		bcc	.L185
 2466              		.loc 7 489 0
 2467 003a 0123     		movs	r3, #1
 2468 003c 95E0     		b	.L186
 2469              	.L185:
 2470              		.loc 7 492 0
 2471 003e 9DF80330 		ldrb	r3, [sp, #3]	@ zero_extendqisi2
 2472 0042 019A     		ldr	r2, [sp, #4]
 2473 0044 0233     		adds	r3, r3, #2
 2474 0046 9B00     		lsls	r3, r3, #2
 2475 0048 1344     		add	r3, r3, r2
 2476 004a 5B68     		ldr	r3, [r3, #4]
 2477 004c 5B69     		ldr	r3, [r3, #20]
 2478 004e 5A68     		ldr	r2, [r3, #4]
 2479 0050 9DF80330 		ldrb	r3, [sp, #3]	@ zero_extendqisi2
 2480 0054 0199     		ldr	r1, [sp, #4]
 2481 0056 0233     		adds	r3, r3, #2
 2482 0058 9B00     		lsls	r3, r3, #2
 2483 005a 0B44     		add	r3, r3, r1
 2484 005c 5B68     		ldr	r3, [r3, #4]
 2485 005e 5B69     		ldr	r3, [r3, #20]
 2486 0060 9B68     		ldr	r3, [r3, #8]
 2487 0062 D31A     		subs	r3, r2, r3
 2488 0064 0293     		str	r3, [sp, #8]
 2489              		.loc 7 493 0
 2490 0066 9DF80330 		ldrb	r3, [sp, #3]	@ zero_extendqisi2
 2491 006a 019A     		ldr	r2, [sp, #4]
 2492 006c 0233     		adds	r3, r3, #2
 2493 006e 9B00     		lsls	r3, r3, #2
 2494 0070 1344     		add	r3, r3, r2
 2495 0072 5B68     		ldr	r3, [r3, #4]
 2496 0074 1B8A     		ldrh	r3, [r3, #16]
 2497 0076 1A46     		mov	r2, r3
 2498 0078 029B     		ldr	r3, [sp, #8]
 2499 007a 9342     		cmp	r3, r2
ARM GAS  C:\Users\PCHAUT~1\AppData\Local\Temp\ccJuO4y2.s 			page 45


 2500 007c 08D9     		bls	.L187
 2501              		.loc 7 494 0
 2502 007e 9DF80330 		ldrb	r3, [sp, #3]	@ zero_extendqisi2
 2503 0082 019A     		ldr	r2, [sp, #4]
 2504 0084 0233     		adds	r3, r3, #2
 2505 0086 9B00     		lsls	r3, r3, #2
 2506 0088 1344     		add	r3, r3, r2
 2507 008a 5B68     		ldr	r3, [r3, #4]
 2508 008c 1B8A     		ldrh	r3, [r3, #16]
 2509 008e 0293     		str	r3, [sp, #8]
 2510              	.L187:
 2511              		.loc 7 498 0
 2512 0090 019B     		ldr	r3, [sp, #4]
 2513 0092 1A6D     		ldr	r2, [r3, #80]
 2514 0094 9DF80330 		ldrb	r3, [sp, #3]	@ zero_extendqisi2
 2515 0098 5B01     		lsls	r3, r3, #5
 2516 009a 1344     		add	r3, r3, r2
 2517 009c 03F61813 		addw	r3, r3, #2328
 2518 00a0 1B68     		ldr	r3, [r3]
 2519 00a2 9BB2     		uxth	r3, r3
 2520 00a4 9B00     		lsls	r3, r3, #2
 2521 00a6 029A     		ldr	r2, [sp, #8]
 2522 00a8 9A42     		cmp	r2, r3
 2523 00aa 01D9     		bls	.L188
 2524              		.loc 7 499 0
 2525 00ac 0023     		movs	r3, #0
 2526 00ae 5CE0     		b	.L186
 2527              	.L188:
 2528              		.loc 7 505 0
 2529 00b0 9DF80330 		ldrb	r3, [sp, #3]	@ zero_extendqisi2
 2530 00b4 019A     		ldr	r2, [sp, #4]
 2531 00b6 0233     		adds	r3, r3, #2
 2532 00b8 9B00     		lsls	r3, r3, #2
 2533 00ba 1344     		add	r3, r3, r2
 2534 00bc 5B68     		ldr	r3, [r3, #4]
 2535 00be 5B69     		ldr	r3, [r3, #20]
 2536 00c0 1B78     		ldrb	r3, [r3]	@ zero_extendqisi2
 2537 00c2 002B     		cmp	r3, #0
 2538 00c4 14D0     		beq	.L189
 2539              		.loc 7 507 0
 2540 00c6 019B     		ldr	r3, [sp, #4]
 2541 00c8 1A6D     		ldr	r2, [r3, #80]
 2542 00ca 9DF80330 		ldrb	r3, [sp, #3]	@ zero_extendqisi2
 2543 00ce 0133     		adds	r3, r3, #1
 2544 00d0 1B03     		lsls	r3, r3, #12
 2545 00d2 D018     		adds	r0, r2, r3
 2546              		.loc 7 508 0
 2547 00d4 9DF80330 		ldrb	r3, [sp, #3]	@ zero_extendqisi2
 2548 00d8 019A     		ldr	r2, [sp, #4]
 2549 00da 0233     		adds	r3, r3, #2
 2550 00dc 9B00     		lsls	r3, r3, #2
 2551 00de 1344     		add	r3, r3, r2
 2552 00e0 5B68     		ldr	r3, [r3, #4]
 2553 00e2 5B69     		ldr	r3, [r3, #20]
 2554              		.loc 7 507 0
 2555 00e4 DB68     		ldr	r3, [r3, #12]
 2556 00e6 029A     		ldr	r2, [sp, #8]
ARM GAS  C:\Users\PCHAUT~1\AppData\Local\Temp\ccJuO4y2.s 			page 46


 2557 00e8 1946     		mov	r1, r3
 2558 00ea FFF7FEFF 		bl	otg_fifo_write_from_queue
 2559 00ee 27E0     		b	.L190
 2560              	.L189:
 2561              		.loc 7 513 0
 2562 00f0 019B     		ldr	r3, [sp, #4]
 2563 00f2 1A6D     		ldr	r2, [r3, #80]
 2564 00f4 9DF80330 		ldrb	r3, [sp, #3]	@ zero_extendqisi2
 2565 00f8 0133     		adds	r3, r3, #1
 2566 00fa 1B03     		lsls	r3, r3, #12
 2567 00fc D018     		adds	r0, r2, r3
 2568              		.loc 7 514 0
 2569 00fe 9DF80330 		ldrb	r3, [sp, #3]	@ zero_extendqisi2
 2570 0102 019A     		ldr	r2, [sp, #4]
 2571 0104 0233     		adds	r3, r3, #2
 2572 0106 9B00     		lsls	r3, r3, #2
 2573 0108 1344     		add	r3, r3, r2
 2574 010a 5B68     		ldr	r3, [r3, #4]
 2575 010c 5B69     		ldr	r3, [r3, #20]
 2576              		.loc 7 513 0
 2577 010e DB68     		ldr	r3, [r3, #12]
 2578 0110 029A     		ldr	r2, [sp, #8]
 2579 0112 1946     		mov	r1, r3
 2580 0114 FFF7FEFF 		bl	otg_fifo_write_from_buffer
 2581              		.loc 7 516 0
 2582 0118 9DF80330 		ldrb	r3, [sp, #3]	@ zero_extendqisi2
 2583 011c 019A     		ldr	r2, [sp, #4]
 2584 011e 0233     		adds	r3, r3, #2
 2585 0120 9B00     		lsls	r3, r3, #2
 2586 0122 1344     		add	r3, r3, r2
 2587 0124 5B68     		ldr	r3, [r3, #4]
 2588 0126 5B69     		ldr	r3, [r3, #20]
 2589 0128 D968     		ldr	r1, [r3, #12]
 2590 012a 9DF80330 		ldrb	r3, [sp, #3]	@ zero_extendqisi2
 2591 012e 019A     		ldr	r2, [sp, #4]
 2592 0130 0233     		adds	r3, r3, #2
 2593 0132 9B00     		lsls	r3, r3, #2
 2594 0134 1344     		add	r3, r3, r2
 2595 0136 5B68     		ldr	r3, [r3, #4]
 2596 0138 5B69     		ldr	r3, [r3, #20]
 2597 013a 029A     		ldr	r2, [sp, #8]
 2598 013c 0A44     		add	r2, r2, r1
 2599 013e DA60     		str	r2, [r3, #12]
 2600              	.L190:
 2601              		.loc 7 521 0
 2602 0140 9DF80330 		ldrb	r3, [sp, #3]	@ zero_extendqisi2
 2603 0144 019A     		ldr	r2, [sp, #4]
 2604 0146 0233     		adds	r3, r3, #2
 2605 0148 9B00     		lsls	r3, r3, #2
 2606 014a 1344     		add	r3, r3, r2
 2607 014c 5B68     		ldr	r3, [r3, #4]
 2608 014e 5B69     		ldr	r3, [r3, #20]
 2609 0150 9968     		ldr	r1, [r3, #8]
 2610 0152 9DF80330 		ldrb	r3, [sp, #3]	@ zero_extendqisi2
 2611 0156 019A     		ldr	r2, [sp, #4]
 2612 0158 0233     		adds	r3, r3, #2
 2613 015a 9B00     		lsls	r3, r3, #2
ARM GAS  C:\Users\PCHAUT~1\AppData\Local\Temp\ccJuO4y2.s 			page 47


 2614 015c 1344     		add	r3, r3, r2
 2615 015e 5B68     		ldr	r3, [r3, #4]
 2616 0160 5B69     		ldr	r3, [r3, #20]
 2617 0162 029A     		ldr	r2, [sp, #8]
 2618 0164 0A44     		add	r2, r2, r1
 2619 0166 9A60     		str	r2, [r3, #8]
 2620              	.LBE18:
 2621              		.loc 7 484 0
 2622 0168 53E7     		b	.L191
 2623              	.L186:
 2624              		.loc 7 523 0
 2625 016a 1846     		mov	r0, r3
 2626 016c 044B     		ldr	r3, .L193
 2627 016e 039A     		ldr	r2, [sp, #12]
 2628 0170 1B68     		ldr	r3, [r3]
 2629 0172 9A42     		cmp	r2, r3
 2630 0174 01D0     		beq	.L192
 2631 0176 FFF7FEFF 		bl	__stack_chk_fail
 2632              	.L192:
 2633 017a 05B0     		add	sp, sp, #20
 2634              		.cfi_def_cfa_offset 4
 2635              		@ sp needed
 2636 017c 5DF804FB 		ldr	pc, [sp], #4
 2637              	.L194:
 2638              		.align	2
 2639              	.L193:
 2640 0180 00000000 		.word	__stack_chk_guard
 2641              		.cfi_endproc
 2642              	.LFE269:
 2643              		.size	otg_txfifo_handler, .-otg_txfifo_handler
 2644              		.section	.text.otg_epin_handler,"ax",%progbits
 2645              		.align	1
 2646              		.p2align 4,,15
 2647              		.syntax unified
 2648              		.thumb
 2649              		.thumb_func
 2650              		.fpu fpv4-sp-d16
 2651              		.type	otg_epin_handler, %function
 2652              	otg_epin_handler:
 2653              	.LFB270:
 2654              		.loc 7 533 0
 2655              		.cfi_startproc
 2656              		@ args = 0, pretend = 0, frame = 24
 2657              		@ frame_needed = 0, uses_anonymous_args = 0
 2658 0000 00B5     		push	{lr}
 2659              		.cfi_def_cfa_offset 4
 2660              		.cfi_offset 14, -4
 2661 0002 87B0     		sub	sp, sp, #28
 2662              		.cfi_def_cfa_offset 32
 2663 0004 0190     		str	r0, [sp, #4]
 2664 0006 0B46     		mov	r3, r1
 2665 0008 8DF80330 		strb	r3, [sp, #3]
 2666              		.loc 7 533 0
 2667 000c 534B     		ldr	r3, .L201
 2668 000e 1B68     		ldr	r3, [r3]
 2669 0010 0593     		str	r3, [sp, #20]
 2670              		.loc 7 534 0
ARM GAS  C:\Users\PCHAUT~1\AppData\Local\Temp\ccJuO4y2.s 			page 48


 2671 0012 019B     		ldr	r3, [sp, #4]
 2672 0014 1B6D     		ldr	r3, [r3, #80]
 2673 0016 0293     		str	r3, [sp, #8]
 2674              		.loc 7 535 0
 2675 0018 9DF80330 		ldrb	r3, [sp, #3]	@ zero_extendqisi2
 2676 001c 029A     		ldr	r2, [sp, #8]
 2677 001e 5B01     		lsls	r3, r3, #5
 2678 0020 1344     		add	r3, r3, r2
 2679 0022 03F60813 		addw	r3, r3, #2312
 2680 0026 1B68     		ldr	r3, [r3]
 2681 0028 0393     		str	r3, [sp, #12]
 2682              		.loc 7 537 0
 2683 002a 9DF80330 		ldrb	r3, [sp, #3]	@ zero_extendqisi2
 2684 002e 029A     		ldr	r2, [sp, #8]
 2685 0030 5B01     		lsls	r3, r3, #5
 2686 0032 1344     		add	r3, r3, r2
 2687 0034 03F60813 		addw	r3, r3, #2312
 2688 0038 039A     		ldr	r2, [sp, #12]
 2689 003a 1A60     		str	r2, [r3]
 2690              		.loc 7 542 0
 2691 003c 039B     		ldr	r3, [sp, #12]
 2692 003e 03F00103 		and	r3, r3, #1
 2693 0042 002B     		cmp	r3, #0
 2694 0044 4DD0     		beq	.L196
 2695              		.loc 7 542 0 is_stmt 0 discriminator 1
 2696 0046 029B     		ldr	r3, [sp, #8]
 2697 0048 D3F81038 		ldr	r3, [r3, #2064]
 2698 004c 03F00103 		and	r3, r3, #1
 2699 0050 002B     		cmp	r3, #0
 2700 0052 46D0     		beq	.L196
 2701              	.LBB19:
 2702              		.loc 7 544 0 is_stmt 1
 2703 0054 9DF80330 		ldrb	r3, [sp, #3]	@ zero_extendqisi2
 2704 0058 019A     		ldr	r2, [sp, #4]
 2705 005a 0233     		adds	r3, r3, #2
 2706 005c 9B00     		lsls	r3, r3, #2
 2707 005e 1344     		add	r3, r3, r2
 2708 0060 5B68     		ldr	r3, [r3, #4]
 2709 0062 5B69     		ldr	r3, [r3, #20]
 2710 0064 0493     		str	r3, [sp, #16]
 2711              		.loc 7 546 0
 2712 0066 049B     		ldr	r3, [sp, #16]
 2713 0068 5A68     		ldr	r2, [r3, #4]
 2714 006a 049B     		ldr	r3, [sp, #16]
 2715 006c 1B69     		ldr	r3, [r3, #16]
 2716 006e 9A42     		cmp	r2, r3
 2717 0070 1AD2     		bcs	.L197
 2718              		.loc 7 550 0
 2719 0072 049B     		ldr	r3, [sp, #16]
 2720 0074 1A69     		ldr	r2, [r3, #16]
 2721 0076 049B     		ldr	r3, [sp, #16]
 2722 0078 5B68     		ldr	r3, [r3, #4]
 2723 007a D21A     		subs	r2, r2, r3
 2724 007c 049B     		ldr	r3, [sp, #16]
 2725 007e 5A60     		str	r2, [r3, #4]
 2726              		.loc 7 551 0
 2727 0080 049B     		ldr	r3, [sp, #16]
ARM GAS  C:\Users\PCHAUT~1\AppData\Local\Temp\ccJuO4y2.s 			page 49


 2728 0082 0022     		movs	r2, #0
 2729 0084 9A60     		str	r2, [r3, #8]
 2730              		.loc 7 552 0
 2731 0086 9DF80330 		ldrb	r3, [sp, #3]	@ zero_extendqisi2
 2732 008a 1946     		mov	r1, r3
 2733 008c 0198     		ldr	r0, [sp, #4]
 2734 008e FFF7FEFF 		bl	usb_lld_prepare_transmit
 2735              		.loc 7 553 0
 2736 0092 FFF7FEFF 		bl	osalSysLockFromISR
 2737              		.loc 7 554 0
 2738 0096 9DF80330 		ldrb	r3, [sp, #3]	@ zero_extendqisi2
 2739 009a 1946     		mov	r1, r3
 2740 009c 0198     		ldr	r0, [sp, #4]
 2741 009e FFF7FEFF 		bl	usb_lld_start_in
 2742              		.loc 7 555 0
 2743 00a2 FFF7FEFF 		bl	osalSysUnlockFromISR
 2744 00a6 1CE0     		b	.L196
 2745              	.L197:
 2746              		.loc 7 559 0
 2747 00a8 019B     		ldr	r3, [sp, #4]
 2748 00aa 1B89     		ldrh	r3, [r3, #8]
 2749 00ac 1AB2     		sxth	r2, r3
 2750 00ae 9DF80330 		ldrb	r3, [sp, #3]	@ zero_extendqisi2
 2751 00b2 0121     		movs	r1, #1
 2752 00b4 01FA03F3 		lsl	r3, r1, r3
 2753 00b8 1BB2     		sxth	r3, r3
 2754 00ba DB43     		mvns	r3, r3
 2755 00bc 1BB2     		sxth	r3, r3
 2756 00be 1340     		ands	r3, r3, r2
 2757 00c0 1BB2     		sxth	r3, r3
 2758 00c2 9AB2     		uxth	r2, r3
 2759 00c4 019B     		ldr	r3, [sp, #4]
 2760 00c6 1A81     		strh	r2, [r3, #8]	@ movhi
 2761 00c8 9DF80330 		ldrb	r3, [sp, #3]	@ zero_extendqisi2
 2762 00cc 019A     		ldr	r2, [sp, #4]
 2763 00ce 0233     		adds	r3, r3, #2
 2764 00d0 9B00     		lsls	r3, r3, #2
 2765 00d2 1344     		add	r3, r3, r2
 2766 00d4 5B68     		ldr	r3, [r3, #4]
 2767 00d6 9B68     		ldr	r3, [r3, #8]
 2768 00d8 9DF80320 		ldrb	r2, [sp, #3]	@ zero_extendqisi2
 2769 00dc 1146     		mov	r1, r2
 2770 00de 0198     		ldr	r0, [sp, #4]
 2771 00e0 9847     		blx	r3
 2772              	.LVL0:
 2773              	.L196:
 2774              	.LBE19:
 2775              		.loc 7 562 0
 2776 00e2 039B     		ldr	r3, [sp, #12]
 2777 00e4 03F08003 		and	r3, r3, #128
 2778 00e8 002B     		cmp	r3, #0
 2779 00ea 2BD0     		beq	.L200
 2780              		.loc 7 563 0 discriminator 1
 2781 00ec 029B     		ldr	r3, [sp, #8]
 2782 00ee D3F83428 		ldr	r2, [r3, #2100]
 2783 00f2 9DF80330 		ldrb	r3, [sp, #3]	@ zero_extendqisi2
 2784 00f6 0121     		movs	r1, #1
ARM GAS  C:\Users\PCHAUT~1\AppData\Local\Temp\ccJuO4y2.s 			page 50


 2785 00f8 01FA03F3 		lsl	r3, r1, r3
 2786 00fc 1340     		ands	r3, r3, r2
 2787              		.loc 7 562 0 discriminator 1
 2788 00fe 002B     		cmp	r3, #0
 2789 0100 20D0     		beq	.L200
 2790              		.loc 7 565 0
 2791 0102 FFF7FEFF 		bl	osalSysLockFromISR
 2792              		.loc 7 566 0
 2793 0106 019B     		ldr	r3, [sp, #4]
 2794 0108 DB6D     		ldr	r3, [r3, #92]
 2795 010a 9DF80320 		ldrb	r2, [sp, #3]	@ zero_extendqisi2
 2796 010e 0121     		movs	r1, #1
 2797 0110 01FA02F2 		lsl	r2, r1, r2
 2798 0114 1A43     		orrs	r2, r2, r3
 2799 0116 019B     		ldr	r3, [sp, #4]
 2800 0118 DA65     		str	r2, [r3, #92]
 2801              		.loc 7 567 0
 2802 011a 029B     		ldr	r3, [sp, #8]
 2803 011c D3F83438 		ldr	r3, [r3, #2100]
 2804 0120 9DF80320 		ldrb	r2, [sp, #3]	@ zero_extendqisi2
 2805 0124 0121     		movs	r1, #1
 2806 0126 01FA02F2 		lsl	r2, r1, r2
 2807 012a D243     		mvns	r2, r2
 2808 012c 1A40     		ands	r2, r2, r3
 2809 012e 029B     		ldr	r3, [sp, #8]
 2810 0130 C3F83428 		str	r2, [r3, #2100]
 2811              		.loc 7 568 0
 2812 0134 019B     		ldr	r3, [sp, #4]
 2813 0136 6033     		adds	r3, r3, #96
 2814 0138 0021     		movs	r1, #0
 2815 013a 1846     		mov	r0, r3
 2816 013c FFF7FEFF 		bl	osalThreadResumeI
 2817              		.loc 7 569 0
 2818 0140 FFF7FEFF 		bl	osalSysUnlockFromISR
 2819              	.L200:
 2820              		.loc 7 571 0
 2821 0144 00BF     		nop
 2822 0146 054B     		ldr	r3, .L201
 2823 0148 059A     		ldr	r2, [sp, #20]
 2824 014a 1B68     		ldr	r3, [r3]
 2825 014c 9A42     		cmp	r2, r3
 2826 014e 01D0     		beq	.L199
 2827 0150 FFF7FEFF 		bl	__stack_chk_fail
 2828              	.L199:
 2829 0154 07B0     		add	sp, sp, #28
 2830              		.cfi_def_cfa_offset 4
 2831              		@ sp needed
 2832 0156 5DF804FB 		ldr	pc, [sp], #4
 2833              	.L202:
 2834 015a 00BF     		.align	2
 2835              	.L201:
 2836 015c 00000000 		.word	__stack_chk_guard
 2837              		.cfi_endproc
 2838              	.LFE270:
 2839              		.size	otg_epin_handler, .-otg_epin_handler
 2840              		.section	.text.otg_epout_handler,"ax",%progbits
 2841              		.align	1
ARM GAS  C:\Users\PCHAUT~1\AppData\Local\Temp\ccJuO4y2.s 			page 51


 2842              		.p2align 4,,15
 2843              		.syntax unified
 2844              		.thumb
 2845              		.thumb_func
 2846              		.fpu fpv4-sp-d16
 2847              		.type	otg_epout_handler, %function
 2848              	otg_epout_handler:
 2849              	.LFB271:
 2850              		.loc 7 581 0
 2851              		.cfi_startproc
 2852              		@ args = 0, pretend = 0, frame = 24
 2853              		@ frame_needed = 0, uses_anonymous_args = 0
 2854 0000 00B5     		push	{lr}
 2855              		.cfi_def_cfa_offset 4
 2856              		.cfi_offset 14, -4
 2857 0002 87B0     		sub	sp, sp, #28
 2858              		.cfi_def_cfa_offset 32
 2859 0004 0190     		str	r0, [sp, #4]
 2860 0006 0B46     		mov	r3, r1
 2861 0008 8DF80330 		strb	r3, [sp, #3]
 2862              		.loc 7 581 0
 2863 000c 474B     		ldr	r3, .L209
 2864 000e 1B68     		ldr	r3, [r3]
 2865 0010 0593     		str	r3, [sp, #20]
 2866              		.loc 7 582 0
 2867 0012 019B     		ldr	r3, [sp, #4]
 2868 0014 1B6D     		ldr	r3, [r3, #80]
 2869 0016 0293     		str	r3, [sp, #8]
 2870              		.loc 7 583 0
 2871 0018 9DF80330 		ldrb	r3, [sp, #3]	@ zero_extendqisi2
 2872 001c 029A     		ldr	r2, [sp, #8]
 2873 001e 5B01     		lsls	r3, r3, #5
 2874 0020 1344     		add	r3, r3, r2
 2875 0022 03F60833 		addw	r3, r3, #2824
 2876 0026 1B68     		ldr	r3, [r3]
 2877 0028 0393     		str	r3, [sp, #12]
 2878              		.loc 7 586 0
 2879 002a 9DF80330 		ldrb	r3, [sp, #3]	@ zero_extendqisi2
 2880 002e 029A     		ldr	r2, [sp, #8]
 2881 0030 5B01     		lsls	r3, r3, #5
 2882 0032 1344     		add	r3, r3, r2
 2883 0034 03F60833 		addw	r3, r3, #2824
 2884 0038 039A     		ldr	r2, [sp, #12]
 2885 003a 1A60     		str	r2, [r3]
 2886              		.loc 7 588 0
 2887 003c 039B     		ldr	r3, [sp, #12]
 2888 003e 03F00803 		and	r3, r3, #8
 2889 0042 002B     		cmp	r3, #0
 2890 0044 13D0     		beq	.L204
 2891              		.loc 7 588 0 is_stmt 0 discriminator 1
 2892 0046 029B     		ldr	r3, [sp, #8]
 2893 0048 D3F81438 		ldr	r3, [r3, #2068]
 2894 004c 03F00803 		and	r3, r3, #8
 2895 0050 002B     		cmp	r3, #0
 2896 0052 0CD0     		beq	.L204
 2897              		.loc 7 591 0 is_stmt 1
 2898 0054 9DF80330 		ldrb	r3, [sp, #3]	@ zero_extendqisi2
ARM GAS  C:\Users\PCHAUT~1\AppData\Local\Temp\ccJuO4y2.s 			page 52


 2899 0058 019A     		ldr	r2, [sp, #4]
 2900 005a 0233     		adds	r3, r3, #2
 2901 005c 9B00     		lsls	r3, r3, #2
 2902 005e 1344     		add	r3, r3, r2
 2903 0060 5B68     		ldr	r3, [r3, #4]
 2904 0062 5B68     		ldr	r3, [r3, #4]
 2905 0064 9DF80320 		ldrb	r2, [sp, #3]	@ zero_extendqisi2
 2906 0068 1146     		mov	r1, r2
 2907 006a 0198     		ldr	r0, [sp, #4]
 2908 006c 9847     		blx	r3
 2909              	.LVL1:
 2910              	.L204:
 2911              		.loc 7 594 0
 2912 006e 039B     		ldr	r3, [sp, #12]
 2913 0070 03F00103 		and	r3, r3, #1
 2914 0074 002B     		cmp	r3, #0
 2915 0076 4DD0     		beq	.L208
 2916              		.loc 7 594 0 is_stmt 0 discriminator 1
 2917 0078 029B     		ldr	r3, [sp, #8]
 2918 007a D3F81438 		ldr	r3, [r3, #2068]
 2919 007e 03F00103 		and	r3, r3, #1
 2920 0082 002B     		cmp	r3, #0
 2921 0084 46D0     		beq	.L208
 2922              	.LBB20:
 2923              		.loc 7 596 0 is_stmt 1
 2924 0086 9DF80330 		ldrb	r3, [sp, #3]	@ zero_extendqisi2
 2925 008a 019A     		ldr	r2, [sp, #4]
 2926 008c 0233     		adds	r3, r3, #2
 2927 008e 9B00     		lsls	r3, r3, #2
 2928 0090 1344     		add	r3, r3, r2
 2929 0092 5B68     		ldr	r3, [r3, #4]
 2930 0094 9B69     		ldr	r3, [r3, #24]
 2931 0096 0493     		str	r3, [sp, #16]
 2932              		.loc 7 598 0
 2933 0098 049B     		ldr	r3, [sp, #16]
 2934 009a 5A68     		ldr	r2, [r3, #4]
 2935 009c 049B     		ldr	r3, [sp, #16]
 2936 009e 1B69     		ldr	r3, [r3, #16]
 2937 00a0 9A42     		cmp	r2, r3
 2938 00a2 1AD2     		bcs	.L206
 2939              		.loc 7 602 0
 2940 00a4 049B     		ldr	r3, [sp, #16]
 2941 00a6 1A69     		ldr	r2, [r3, #16]
 2942 00a8 049B     		ldr	r3, [sp, #16]
 2943 00aa 5B68     		ldr	r3, [r3, #4]
 2944 00ac D21A     		subs	r2, r2, r3
 2945 00ae 049B     		ldr	r3, [sp, #16]
 2946 00b0 5A60     		str	r2, [r3, #4]
 2947              		.loc 7 603 0
 2948 00b2 049B     		ldr	r3, [sp, #16]
 2949 00b4 0022     		movs	r2, #0
 2950 00b6 9A60     		str	r2, [r3, #8]
 2951              		.loc 7 604 0
 2952 00b8 9DF80330 		ldrb	r3, [sp, #3]	@ zero_extendqisi2
 2953 00bc 1946     		mov	r1, r3
 2954 00be 0198     		ldr	r0, [sp, #4]
 2955 00c0 FFF7FEFF 		bl	usb_lld_prepare_receive
ARM GAS  C:\Users\PCHAUT~1\AppData\Local\Temp\ccJuO4y2.s 			page 53


 2956              		.loc 7 605 0
 2957 00c4 FFF7FEFF 		bl	chSysLockFromISR
 2958              		.loc 7 606 0
 2959 00c8 9DF80330 		ldrb	r3, [sp, #3]	@ zero_extendqisi2
 2960 00cc 1946     		mov	r1, r3
 2961 00ce 0198     		ldr	r0, [sp, #4]
 2962 00d0 FFF7FEFF 		bl	usb_lld_start_out
 2963              		.loc 7 607 0
 2964 00d4 FFF7FEFF 		bl	chSysUnlockFromISR
 2965              	.LBE20:
 2966              		.loc 7 614 0
 2967 00d8 1CE0     		b	.L208
 2968              	.L206:
 2969              	.LBB21:
 2970              		.loc 7 611 0
 2971 00da 019B     		ldr	r3, [sp, #4]
 2972 00dc 5B89     		ldrh	r3, [r3, #10]
 2973 00de 1AB2     		sxth	r2, r3
 2974 00e0 9DF80330 		ldrb	r3, [sp, #3]	@ zero_extendqisi2
 2975 00e4 0121     		movs	r1, #1
 2976 00e6 01FA03F3 		lsl	r3, r1, r3
 2977 00ea 1BB2     		sxth	r3, r3
 2978 00ec DB43     		mvns	r3, r3
 2979 00ee 1BB2     		sxth	r3, r3
 2980 00f0 1340     		ands	r3, r3, r2
 2981 00f2 1BB2     		sxth	r3, r3
 2982 00f4 9AB2     		uxth	r2, r3
 2983 00f6 019B     		ldr	r3, [sp, #4]
 2984 00f8 5A81     		strh	r2, [r3, #10]	@ movhi
 2985 00fa 9DF80330 		ldrb	r3, [sp, #3]	@ zero_extendqisi2
 2986 00fe 019A     		ldr	r2, [sp, #4]
 2987 0100 0233     		adds	r3, r3, #2
 2988 0102 9B00     		lsls	r3, r3, #2
 2989 0104 1344     		add	r3, r3, r2
 2990 0106 5B68     		ldr	r3, [r3, #4]
 2991 0108 DB68     		ldr	r3, [r3, #12]
 2992 010a 9DF80320 		ldrb	r2, [sp, #3]	@ zero_extendqisi2
 2993 010e 1146     		mov	r1, r2
 2994 0110 0198     		ldr	r0, [sp, #4]
 2995 0112 9847     		blx	r3
 2996              	.LVL2:
 2997              	.L208:
 2998              	.LBE21:
 2999              		.loc 7 614 0
 3000 0114 00BF     		nop
 3001 0116 054B     		ldr	r3, .L209
 3002 0118 059A     		ldr	r2, [sp, #20]
 3003 011a 1B68     		ldr	r3, [r3]
 3004 011c 9A42     		cmp	r2, r3
 3005 011e 01D0     		beq	.L207
 3006 0120 FFF7FEFF 		bl	__stack_chk_fail
 3007              	.L207:
 3008 0124 07B0     		add	sp, sp, #28
 3009              		.cfi_def_cfa_offset 4
 3010              		@ sp needed
 3011 0126 5DF804FB 		ldr	pc, [sp], #4
 3012              	.L210:
ARM GAS  C:\Users\PCHAUT~1\AppData\Local\Temp\ccJuO4y2.s 			page 54


 3013 012a 00BF     		.align	2
 3014              	.L209:
 3015 012c 00000000 		.word	__stack_chk_guard
 3016              		.cfi_endproc
 3017              	.LFE271:
 3018              		.size	otg_epout_handler, .-otg_epout_handler
 3019              		.section	.text.usb_lld_serve_interrupt,"ax",%progbits
 3020              		.align	1
 3021              		.p2align 4,,15
 3022              		.syntax unified
 3023              		.thumb
 3024              		.thumb_func
 3025              		.fpu fpv4-sp-d16
 3026              		.type	usb_lld_serve_interrupt, %function
 3027              	usb_lld_serve_interrupt:
 3028              	.LFB272:
 3029              		.loc 7 623 0
 3030              		.cfi_startproc
 3031              		@ args = 0, pretend = 0, frame = 24
 3032              		@ frame_needed = 0, uses_anonymous_args = 0
 3033 0000 00B5     		push	{lr}
 3034              		.cfi_def_cfa_offset 4
 3035              		.cfi_offset 14, -4
 3036 0002 87B0     		sub	sp, sp, #28
 3037              		.cfi_def_cfa_offset 32
 3038 0004 0190     		str	r0, [sp, #4]
 3039              		.loc 7 623 0
 3040 0006 584B     		ldr	r3, .L226
 3041 0008 1B68     		ldr	r3, [r3]
 3042 000a 0593     		str	r3, [sp, #20]
 3043              		.loc 7 624 0
 3044 000c 019B     		ldr	r3, [sp, #4]
 3045 000e 1B6D     		ldr	r3, [r3, #80]
 3046 0010 0293     		str	r3, [sp, #8]
 3047              		.loc 7 627 0
 3048 0012 029B     		ldr	r3, [sp, #8]
 3049 0014 5B69     		ldr	r3, [r3, #20]
 3050 0016 0393     		str	r3, [sp, #12]
 3051              		.loc 7 628 0
 3052 0018 029B     		ldr	r3, [sp, #8]
 3053 001a 9B69     		ldr	r3, [r3, #24]
 3054 001c 039A     		ldr	r2, [sp, #12]
 3055 001e 1340     		ands	r3, r3, r2
 3056 0020 0393     		str	r3, [sp, #12]
 3057              		.loc 7 629 0
 3058 0022 029B     		ldr	r3, [sp, #8]
 3059 0024 039A     		ldr	r2, [sp, #12]
 3060 0026 5A61     		str	r2, [r3, #20]
 3061              		.loc 7 632 0
 3062 0028 039B     		ldr	r3, [sp, #12]
 3063 002a 03F48053 		and	r3, r3, #4096
 3064 002e 002B     		cmp	r3, #0
 3065 0030 0DD0     		beq	.L212
 3066              		.loc 7 633 0
 3067 0032 0198     		ldr	r0, [sp, #4]
 3068 0034 FFF7FEFF 		bl	_usb_reset
 3069              		.loc 7 634 0
ARM GAS  C:\Users\PCHAUT~1\AppData\Local\Temp\ccJuO4y2.s 			page 55


 3070 0038 019B     		ldr	r3, [sp, #4]
 3071 003a 5B68     		ldr	r3, [r3, #4]
 3072 003c 1B68     		ldr	r3, [r3]
 3073 003e 002B     		cmp	r3, #0
 3074 0040 05D0     		beq	.L212
 3075              		.loc 7 634 0 is_stmt 0 discriminator 1
 3076 0042 019B     		ldr	r3, [sp, #4]
 3077 0044 5B68     		ldr	r3, [r3, #4]
 3078 0046 1B68     		ldr	r3, [r3]
 3079 0048 0021     		movs	r1, #0
 3080 004a 0198     		ldr	r0, [sp, #4]
 3081 004c 9847     		blx	r3
 3082              	.LVL3:
 3083              	.L212:
 3084              		.loc 7 638 0 is_stmt 1
 3085 004e 039B     		ldr	r3, [sp, #12]
 3086 0050 03F40053 		and	r3, r3, #8192
 3087 0054 002B     		cmp	r3, #0
 3088 0056 02D0     		beq	.L213
 3089              		.loc 7 639 0
 3090 0058 029B     		ldr	r3, [sp, #8]
 3091 005a D3F80838 		ldr	r3, [r3, #2056]
 3092              	.L213:
 3093              		.loc 7 643 0
 3094 005e 039B     		ldr	r3, [sp, #12]
 3095 0060 03F00803 		and	r3, r3, #8
 3096 0064 002B     		cmp	r3, #0
 3097 0066 09D0     		beq	.L214
 3098              		.loc 7 644 0
 3099 0068 019B     		ldr	r3, [sp, #4]
 3100 006a 5B68     		ldr	r3, [r3, #4]
 3101 006c DB68     		ldr	r3, [r3, #12]
 3102 006e 002B     		cmp	r3, #0
 3103 0070 04D0     		beq	.L214
 3104              		.loc 7 644 0 is_stmt 0 discriminator 1
 3105 0072 019B     		ldr	r3, [sp, #4]
 3106 0074 5B68     		ldr	r3, [r3, #4]
 3107 0076 DB68     		ldr	r3, [r3, #12]
 3108 0078 0198     		ldr	r0, [sp, #4]
 3109 007a 9847     		blx	r3
 3110              	.LVL4:
 3111              	.L214:
 3112              		.loc 7 648 0 is_stmt 1
 3113 007c 039B     		ldr	r3, [sp, #12]
 3114 007e 03F01003 		and	r3, r3, #16
 3115 0082 002B     		cmp	r3, #0
 3116 0084 0FD0     		beq	.L215
 3117              		.loc 7 651 0
 3118 0086 FFF7FEFF 		bl	osalSysLockFromISR
 3119              		.loc 7 652 0
 3120 008a 029B     		ldr	r3, [sp, #8]
 3121 008c 9B69     		ldr	r3, [r3, #24]
 3122 008e 23F01002 		bic	r2, r3, #16
 3123 0092 029B     		ldr	r3, [sp, #8]
 3124 0094 9A61     		str	r2, [r3, #24]
 3125              		.loc 7 653 0
 3126 0096 019B     		ldr	r3, [sp, #4]
ARM GAS  C:\Users\PCHAUT~1\AppData\Local\Temp\ccJuO4y2.s 			page 56


 3127 0098 6033     		adds	r3, r3, #96
 3128 009a 0021     		movs	r1, #0
 3129 009c 1846     		mov	r0, r3
 3130 009e FFF7FEFF 		bl	osalThreadResumeI
 3131              		.loc 7 654 0
 3132 00a2 FFF7FEFF 		bl	osalSysUnlockFromISR
 3133              	.L215:
 3134              		.loc 7 658 0
 3135 00a6 029B     		ldr	r3, [sp, #8]
 3136 00a8 D3F81838 		ldr	r3, [r3, #2072]
 3137 00ac 0493     		str	r3, [sp, #16]
 3138              		.loc 7 659 0
 3139 00ae 039B     		ldr	r3, [sp, #12]
 3140 00b0 03F48023 		and	r3, r3, #262144
 3141 00b4 002B     		cmp	r3, #0
 3142 00b6 23D0     		beq	.L216
 3143              		.loc 7 660 0
 3144 00b8 049B     		ldr	r3, [sp, #16]
 3145 00ba 03F00103 		and	r3, r3, #1
 3146 00be 002B     		cmp	r3, #0
 3147 00c0 03D0     		beq	.L217
 3148              		.loc 7 661 0
 3149 00c2 0021     		movs	r1, #0
 3150 00c4 0198     		ldr	r0, [sp, #4]
 3151 00c6 FFF7FEFF 		bl	otg_epin_handler
 3152              	.L217:
 3153              		.loc 7 662 0
 3154 00ca 049B     		ldr	r3, [sp, #16]
 3155 00cc 03F00203 		and	r3, r3, #2
 3156 00d0 002B     		cmp	r3, #0
 3157 00d2 03D0     		beq	.L218
 3158              		.loc 7 663 0
 3159 00d4 0121     		movs	r1, #1
 3160 00d6 0198     		ldr	r0, [sp, #4]
 3161 00d8 FFF7FEFF 		bl	otg_epin_handler
 3162              	.L218:
 3163              		.loc 7 664 0
 3164 00dc 049B     		ldr	r3, [sp, #16]
 3165 00de 03F00403 		and	r3, r3, #4
 3166 00e2 002B     		cmp	r3, #0
 3167 00e4 03D0     		beq	.L219
 3168              		.loc 7 665 0
 3169 00e6 0221     		movs	r1, #2
 3170 00e8 0198     		ldr	r0, [sp, #4]
 3171 00ea FFF7FEFF 		bl	otg_epin_handler
 3172              	.L219:
 3173              		.loc 7 666 0
 3174 00ee 049B     		ldr	r3, [sp, #16]
 3175 00f0 03F00803 		and	r3, r3, #8
 3176 00f4 002B     		cmp	r3, #0
 3177 00f6 03D0     		beq	.L216
 3178              		.loc 7 667 0
 3179 00f8 0321     		movs	r1, #3
 3180 00fa 0198     		ldr	r0, [sp, #4]
 3181 00fc FFF7FEFF 		bl	otg_epin_handler
 3182              	.L216:
 3183              		.loc 7 675 0
ARM GAS  C:\Users\PCHAUT~1\AppData\Local\Temp\ccJuO4y2.s 			page 57


 3184 0100 039B     		ldr	r3, [sp, #12]
 3185 0102 03F40023 		and	r3, r3, #524288
 3186 0106 002B     		cmp	r3, #0
 3187 0108 23D0     		beq	.L225
 3188              		.loc 7 676 0
 3189 010a 049B     		ldr	r3, [sp, #16]
 3190 010c 03F48033 		and	r3, r3, #65536
 3191 0110 002B     		cmp	r3, #0
 3192 0112 03D0     		beq	.L221
 3193              		.loc 7 677 0
 3194 0114 0021     		movs	r1, #0
 3195 0116 0198     		ldr	r0, [sp, #4]
 3196 0118 FFF7FEFF 		bl	otg_epout_handler
 3197              	.L221:
 3198              		.loc 7 678 0
 3199 011c 049B     		ldr	r3, [sp, #16]
 3200 011e 03F40033 		and	r3, r3, #131072
 3201 0122 002B     		cmp	r3, #0
 3202 0124 03D0     		beq	.L222
 3203              		.loc 7 679 0
 3204 0126 0121     		movs	r1, #1
 3205 0128 0198     		ldr	r0, [sp, #4]
 3206 012a FFF7FEFF 		bl	otg_epout_handler
 3207              	.L222:
 3208              		.loc 7 680 0
 3209 012e 049B     		ldr	r3, [sp, #16]
 3210 0130 03F48023 		and	r3, r3, #262144
 3211 0134 002B     		cmp	r3, #0
 3212 0136 03D0     		beq	.L223
 3213              		.loc 7 681 0
 3214 0138 0221     		movs	r1, #2
 3215 013a 0198     		ldr	r0, [sp, #4]
 3216 013c FFF7FEFF 		bl	otg_epout_handler
 3217              	.L223:
 3218              		.loc 7 682 0
 3219 0140 049B     		ldr	r3, [sp, #16]
 3220 0142 03F40023 		and	r3, r3, #524288
 3221 0146 002B     		cmp	r3, #0
 3222 0148 03D0     		beq	.L225
 3223              		.loc 7 683 0
 3224 014a 0321     		movs	r1, #3
 3225 014c 0198     		ldr	r0, [sp, #4]
 3226 014e FFF7FEFF 		bl	otg_epout_handler
 3227              	.L225:
 3228              		.loc 7 691 0
 3229 0152 00BF     		nop
 3230 0154 044B     		ldr	r3, .L226
 3231 0156 059A     		ldr	r2, [sp, #20]
 3232 0158 1B68     		ldr	r3, [r3]
 3233 015a 9A42     		cmp	r2, r3
 3234 015c 01D0     		beq	.L224
 3235 015e FFF7FEFF 		bl	__stack_chk_fail
 3236              	.L224:
 3237 0162 07B0     		add	sp, sp, #28
 3238              		.cfi_def_cfa_offset 4
 3239              		@ sp needed
 3240 0164 5DF804FB 		ldr	pc, [sp], #4
ARM GAS  C:\Users\PCHAUT~1\AppData\Local\Temp\ccJuO4y2.s 			page 58


 3241              	.L227:
 3242              		.align	2
 3243              	.L226:
 3244 0168 00000000 		.word	__stack_chk_guard
 3245              		.cfi_endproc
 3246              	.LFE272:
 3247              		.size	usb_lld_serve_interrupt, .-usb_lld_serve_interrupt
 3248              		.section	.text.Vector14C,"ax",%progbits
 3249              		.align	1
 3250              		.p2align 4,,15
 3251              		.global	Vector14C
 3252              		.syntax unified
 3253              		.thumb
 3254              		.thumb_func
 3255              		.fpu fpv4-sp-d16
 3256              		.type	Vector14C, %function
 3257              	Vector14C:
 3258              	.LFB273:
 3259              		.loc 7 706 0
 3260              		.cfi_startproc
 3261              		@ args = 0, pretend = 0, frame = 8
 3262              		@ frame_needed = 0, uses_anonymous_args = 0
 3263 0000 00B5     		push	{lr}
 3264              		.cfi_def_cfa_offset 4
 3265              		.cfi_offset 14, -4
 3266 0002 83B0     		sub	sp, sp, #12
 3267              		.cfi_def_cfa_offset 16
 3268              		.loc 7 706 0
 3269 0004 0C4B     		ldr	r3, .L230
 3270 0006 1B68     		ldr	r3, [r3]
 3271 0008 0193     		str	r3, [sp, #4]
 3272              		.loc 7 708 0
 3273 000a FFF7FEFF 		bl	_stats_increase_irq
 3274 000e FFF7FEFF 		bl	_dbg_check_enter_isr
 3275              		.loc 7 710 0
 3276 0012 0A48     		ldr	r0, .L230+4
 3277 0014 FFF7FEFF 		bl	usb_lld_serve_interrupt
 3278              		.loc 7 712 0
 3279 0018 FFF7FEFF 		bl	_dbg_check_leave_isr
 3280 001c FFF7FEFF 		bl	_port_irq_epilogue
 3281              		.loc 7 713 0
 3282 0020 00BF     		nop
 3283 0022 054B     		ldr	r3, .L230
 3284 0024 019A     		ldr	r2, [sp, #4]
 3285 0026 1B68     		ldr	r3, [r3]
 3286 0028 9A42     		cmp	r2, r3
 3287 002a 01D0     		beq	.L229
 3288 002c FFF7FEFF 		bl	__stack_chk_fail
 3289              	.L229:
 3290 0030 03B0     		add	sp, sp, #12
 3291              		.cfi_def_cfa_offset 4
 3292              		@ sp needed
 3293 0032 5DF804FB 		ldr	pc, [sp], #4
 3294              	.L231:
 3295 0036 00BF     		.align	2
 3296              	.L230:
 3297 0038 00000000 		.word	__stack_chk_guard
ARM GAS  C:\Users\PCHAUT~1\AppData\Local\Temp\ccJuO4y2.s 			page 59


 3298 003c 00000000 		.word	USBD1
 3299              		.cfi_endproc
 3300              	.LFE273:
 3301              		.size	Vector14C, .-Vector14C
 3302              		.section	.text.usb_lld_init,"ax",%progbits
 3303              		.align	1
 3304              		.p2align 4,,15
 3305              		.global	usb_lld_init
 3306              		.syntax unified
 3307              		.thumb
 3308              		.thumb_func
 3309              		.fpu fpv4-sp-d16
 3310              		.type	usb_lld_init, %function
 3311              	usb_lld_init:
 3312              	.LFB274:
 3313              		.loc 7 744 0
 3314              		.cfi_startproc
 3315              		@ args = 0, pretend = 0, frame = 8
 3316              		@ frame_needed = 0, uses_anonymous_args = 0
 3317 0000 00B5     		push	{lr}
 3318              		.cfi_def_cfa_offset 4
 3319              		.cfi_offset 14, -4
 3320 0002 83B0     		sub	sp, sp, #12
 3321              		.cfi_def_cfa_offset 16
 3322              		.loc 7 744 0
 3323 0004 184B     		ldr	r3, .L234
 3324 0006 1B68     		ldr	r3, [r3]
 3325 0008 0193     		str	r3, [sp, #4]
 3326              		.loc 7 748 0
 3327 000a 1848     		ldr	r0, .L234+4
 3328 000c FFF7FEFF 		bl	usbObjectInit
 3329              		.loc 7 749 0
 3330 0010 164B     		ldr	r3, .L234+4
 3331 0012 0022     		movs	r2, #0
 3332 0014 1A66     		str	r2, [r3, #96]
 3333              		.loc 7 750 0
 3334 0016 154B     		ldr	r3, .L234+4
 3335 0018 4FF0A042 		mov	r2, #1342177280
 3336 001c 1A65     		str	r2, [r3, #80]
 3337              		.loc 7 751 0
 3338 001e 134B     		ldr	r3, .L234+4
 3339 0020 134A     		ldr	r2, .L234+8
 3340 0022 5A65     		str	r2, [r3, #84]
 3341              		.loc 7 754 0
 3342 0024 114B     		ldr	r3, .L234+4
 3343 0026 0022     		movs	r2, #0
 3344 0028 5A66     		str	r2, [r3, #100]
 3345              	.LBB22:
 3346              		.loc 7 759 0
 3347 002a 124B     		ldr	r3, .L234+12
 3348 002c 0093     		str	r3, [sp]
 3349              		.loc 7 760 0
 3350 002e 009B     		ldr	r3, [sp]
 3351 0030 6833     		adds	r3, r3, #104
 3352 0032 FF22     		movs	r2, #255
 3353 0034 1946     		mov	r1, r3
 3354 0036 0098     		ldr	r0, [sp]
ARM GAS  C:\Users\PCHAUT~1\AppData\Local\Temp\ccJuO4y2.s 			page 60


 3355 0038 FFF7FEFF 		bl	_thread_memfill
 3356              		.loc 7 763 0
 3357 003c 009B     		ldr	r3, [sp]
 3358 003e 03F16800 		add	r0, r3, #104
 3359 0042 009B     		ldr	r3, [sp]
 3360 0044 03F5FC73 		add	r3, r3, #504
 3361 0048 5522     		movs	r2, #85
 3362 004a 1946     		mov	r1, r3
 3363 004c FFF7FEFF 		bl	_thread_memfill
 3364              	.LBE22:
 3365              		.loc 7 794 0
 3366 0050 00BF     		nop
 3367 0052 054B     		ldr	r3, .L234
 3368 0054 019A     		ldr	r2, [sp, #4]
 3369 0056 1B68     		ldr	r3, [r3]
 3370 0058 9A42     		cmp	r2, r3
 3371 005a 01D0     		beq	.L233
 3372 005c FFF7FEFF 		bl	__stack_chk_fail
 3373              	.L233:
 3374 0060 03B0     		add	sp, sp, #12
 3375              		.cfi_def_cfa_offset 4
 3376              		@ sp needed
 3377 0062 5DF804FB 		ldr	pc, [sp], #4
 3378              	.L235:
 3379 0066 00BF     		.align	2
 3380              	.L234:
 3381 0068 00000000 		.word	__stack_chk_guard
 3382 006c 00000000 		.word	USBD1
 3383 0070 00000000 		.word	fsparams
 3384 0074 68000000 		.word	USBD1+104
 3385              		.cfi_endproc
 3386              	.LFE274:
 3387              		.size	usb_lld_init, .-usb_lld_init
 3388              		.section	.text.usb_lld_start,"ax",%progbits
 3389              		.align	1
 3390              		.p2align 4,,15
 3391              		.global	usb_lld_start
 3392              		.syntax unified
 3393              		.thumb
 3394              		.thumb_func
 3395              		.fpu fpv4-sp-d16
 3396              		.type	usb_lld_start, %function
 3397              	usb_lld_start:
 3398              	.LFB275:
 3399              		.loc 7 806 0
 3400              		.cfi_startproc
 3401              		@ args = 0, pretend = 0, frame = 16
 3402              		@ frame_needed = 0, uses_anonymous_args = 0
 3403 0000 00B5     		push	{lr}
 3404              		.cfi_def_cfa_offset 4
 3405              		.cfi_offset 14, -4
 3406 0002 87B0     		sub	sp, sp, #28
 3407              		.cfi_def_cfa_offset 32
 3408 0004 0390     		str	r0, [sp, #12]
 3409              		.loc 7 806 0
 3410 0006 424B     		ldr	r3, .L244
 3411 0008 1B68     		ldr	r3, [r3]
ARM GAS  C:\Users\PCHAUT~1\AppData\Local\Temp\ccJuO4y2.s 			page 61


 3412 000a 0593     		str	r3, [sp, #20]
 3413              		.loc 7 807 0
 3414 000c 039B     		ldr	r3, [sp, #12]
 3415 000e 1B6D     		ldr	r3, [r3, #80]
 3416 0010 0493     		str	r3, [sp, #16]
 3417              		.loc 7 809 0
 3418 0012 039B     		ldr	r3, [sp, #12]
 3419 0014 1B78     		ldrb	r3, [r3]	@ zero_extendqisi2
 3420 0016 012B     		cmp	r3, #1
 3421 0018 6ED1     		bne	.L243
 3422              		.loc 7 812 0
 3423 001a 039B     		ldr	r3, [sp, #12]
 3424 001c 3D4A     		ldr	r2, .L244+4
 3425 001e 9342     		cmp	r3, r2
 3426 0020 12D1     		bne	.L238
 3427              		.loc 7 814 0
 3428 0022 3D4B     		ldr	r3, .L244+8
 3429 0024 5B6B     		ldr	r3, [r3, #52]
 3430 0026 3C4A     		ldr	r2, .L244+8
 3431 0028 43F08003 		orr	r3, r3, #128
 3432 002c 5363     		str	r3, [r2, #52]
 3433              		.loc 7 815 0
 3434 002e 3A4B     		ldr	r3, .L244+8
 3435 0030 5B69     		ldr	r3, [r3, #20]
 3436 0032 394A     		ldr	r2, .L244+8
 3437 0034 43F08003 		orr	r3, r3, #128
 3438 0038 5361     		str	r3, [r2, #20]
 3439 003a 374B     		ldr	r3, .L244+8
 3440 003c 0022     		movs	r2, #0
 3441 003e 5A61     		str	r2, [r3, #20]
 3442              		.loc 7 818 0
 3443 0040 0E21     		movs	r1, #14
 3444 0042 4320     		movs	r0, #67
 3445 0044 FFF7FEFF 		bl	nvicEnableVector
 3446              	.L238:
 3447              		.loc 7 836 0
 3448 0048 039B     		ldr	r3, [sp, #12]
 3449 004a 0022     		movs	r2, #0
 3450 004c DA65     		str	r2, [r3, #92]
 3451              		.loc 7 841 0
 3452 004e 049B     		ldr	r3, [sp, #16]
 3453 0050 324A     		ldr	r2, .L244+12
 3454 0052 DA60     		str	r2, [r3, #12]
 3455              		.loc 7 844 0
 3456 0054 049B     		ldr	r3, [sp, #16]
 3457 0056 324A     		ldr	r2, .L244+16
 3458 0058 C3F80028 		str	r2, [r3, #2048]
 3459              		.loc 7 847 0
 3460 005c 049B     		ldr	r3, [sp, #16]
 3461 005e 0022     		movs	r2, #0
 3462 0060 C3F8002E 		str	r2, [r3, #3584]
 3463              		.loc 7 854 0
 3464 0064 049B     		ldr	r3, [sp, #16]
 3465 0066 4FF45022 		mov	r2, #851968
 3466 006a 9A63     		str	r2, [r3, #56]
 3467              		.loc 7 858 0
 3468 006c 0398     		ldr	r0, [sp, #12]
ARM GAS  C:\Users\PCHAUT~1\AppData\Local\Temp\ccJuO4y2.s 			page 62


 3469 006e FFF7FEFF 		bl	otg_core_reset
 3470              		.loc 7 861 0
 3471 0072 049B     		ldr	r3, [sp, #16]
 3472 0074 0022     		movs	r2, #0
 3473 0076 9A60     		str	r2, [r3, #8]
 3474              		.loc 7 864 0
 3475 0078 0398     		ldr	r0, [sp, #12]
 3476 007a FFF7FEFF 		bl	otg_disable_ep
 3477              		.loc 7 868 0
 3478 007e 049B     		ldr	r3, [sp, #16]
 3479 0080 0022     		movs	r2, #0
 3480 0082 C3F81028 		str	r2, [r3, #2064]
 3481              		.loc 7 869 0
 3482 0086 049B     		ldr	r3, [sp, #16]
 3483 0088 0022     		movs	r2, #0
 3484 008a C3F81428 		str	r2, [r3, #2068]
 3485              		.loc 7 870 0
 3486 008e 049B     		ldr	r3, [sp, #16]
 3487 0090 0022     		movs	r2, #0
 3488 0092 C3F81C28 		str	r2, [r3, #2076]
 3489              		.loc 7 871 0
 3490 0096 039B     		ldr	r3, [sp, #12]
 3491 0098 5B68     		ldr	r3, [r3, #4]
 3492 009a DB68     		ldr	r3, [r3, #12]
 3493 009c 002B     		cmp	r3, #0
 3494 009e 04D1     		bne	.L239
 3495              		.loc 7 872 0
 3496 00a0 049B     		ldr	r3, [sp, #16]
 3497 00a2 4FF44052 		mov	r2, #12288
 3498 00a6 9A61     		str	r2, [r3, #24]
 3499 00a8 03E0     		b	.L240
 3500              	.L239:
 3501              		.loc 7 875 0
 3502 00aa 049B     		ldr	r3, [sp, #16]
 3503 00ac 43F20802 		movw	r2, #12296
 3504 00b0 9A61     		str	r2, [r3, #24]
 3505              	.L240:
 3506              		.loc 7 877 0
 3507 00b2 049B     		ldr	r3, [sp, #16]
 3508 00b4 4FF0FF32 		mov	r2, #-1
 3509 00b8 5A61     		str	r2, [r3, #20]
 3510              		.loc 7 881 0
 3511 00ba 039B     		ldr	r3, [sp, #12]
 3512 00bc 5B6E     		ldr	r3, [r3, #100]
 3513 00be 002B     		cmp	r3, #0
 3514 00c0 14D1     		bne	.L241
 3515              		.loc 7 882 0
 3516 00c2 039B     		ldr	r3, [sp, #12]
 3517 00c4 03F16800 		add	r0, r3, #104
 3518 00c8 039B     		ldr	r3, [sp, #12]
 3519 00ca 0093     		str	r3, [sp]
 3520 00cc 154B     		ldr	r3, .L244+20
 3521 00ce 4A22     		movs	r2, #74
 3522 00d0 4FF4FC71 		mov	r1, #504
 3523 00d4 FFF7FEFF 		bl	chThdCreateI
 3524 00d8 0246     		mov	r2, r0
 3525 00da 039B     		ldr	r3, [sp, #12]
ARM GAS  C:\Users\PCHAUT~1\AppData\Local\Temp\ccJuO4y2.s 			page 63


 3526 00dc 5A66     		str	r2, [r3, #100]
 3527              		.loc 7 885 0
 3528 00de 039B     		ldr	r3, [sp, #12]
 3529 00e0 5B6E     		ldr	r3, [r3, #100]
 3530 00e2 1846     		mov	r0, r3
 3531 00e4 FFF7FEFF 		bl	chThdStartI
 3532              		.loc 7 886 0
 3533 00e8 FFF7FEFF 		bl	chSchRescheduleS
 3534              	.L241:
 3535              		.loc 7 891 0
 3536 00ec 049B     		ldr	r3, [sp, #16]
 3537 00ee 9B68     		ldr	r3, [r3, #8]
 3538 00f0 43F00102 		orr	r2, r3, #1
 3539 00f4 049B     		ldr	r3, [sp, #16]
 3540 00f6 9A60     		str	r2, [r3, #8]
 3541              	.L243:
 3542              		.loc 7 893 0
 3543 00f8 00BF     		nop
 3544 00fa 054B     		ldr	r3, .L244
 3545 00fc 059A     		ldr	r2, [sp, #20]
 3546 00fe 1B68     		ldr	r3, [r3]
 3547 0100 9A42     		cmp	r2, r3
 3548 0102 01D0     		beq	.L242
 3549 0104 FFF7FEFF 		bl	__stack_chk_fail
 3550              	.L242:
 3551 0108 07B0     		add	sp, sp, #28
 3552              		.cfi_def_cfa_offset 4
 3553              		@ sp needed
 3554 010a 5DF804FB 		ldr	pc, [sp], #4
 3555              	.L245:
 3556 010e 00BF     		.align	2
 3557              	.L244:
 3558 0110 00000000 		.word	__stack_chk_guard
 3559 0114 00000000 		.word	USBD1
 3560 0118 00380240 		.word	1073887232
 3561 011c 40140040 		.word	1073747008
 3562 0120 03002002 		.word	35651587
 3563 0124 00000000 		.word	usb_lld_pump
 3564              		.cfi_endproc
 3565              	.LFE275:
 3566              		.size	usb_lld_start, .-usb_lld_start
 3567              		.section	.text.usb_lld_stop,"ax",%progbits
 3568              		.align	1
 3569              		.p2align 4,,15
 3570              		.global	usb_lld_stop
 3571              		.syntax unified
 3572              		.thumb
 3573              		.thumb_func
 3574              		.fpu fpv4-sp-d16
 3575              		.type	usb_lld_stop, %function
 3576              	usb_lld_stop:
 3577              	.LFB276:
 3578              		.loc 7 902 0
 3579              		.cfi_startproc
 3580              		@ args = 0, pretend = 0, frame = 16
 3581              		@ frame_needed = 0, uses_anonymous_args = 0
 3582 0000 00B5     		push	{lr}
ARM GAS  C:\Users\PCHAUT~1\AppData\Local\Temp\ccJuO4y2.s 			page 64


 3583              		.cfi_def_cfa_offset 4
 3584              		.cfi_offset 14, -4
 3585 0002 85B0     		sub	sp, sp, #20
 3586              		.cfi_def_cfa_offset 24
 3587 0004 0190     		str	r0, [sp, #4]
 3588              		.loc 7 902 0
 3589 0006 194B     		ldr	r3, .L250
 3590 0008 1B68     		ldr	r3, [r3]
 3591 000a 0393     		str	r3, [sp, #12]
 3592              		.loc 7 903 0
 3593 000c 019B     		ldr	r3, [sp, #4]
 3594 000e 1B6D     		ldr	r3, [r3, #80]
 3595 0010 0293     		str	r3, [sp, #8]
 3596              		.loc 7 906 0
 3597 0012 019B     		ldr	r3, [sp, #4]
 3598 0014 1B78     		ldrb	r3, [r3]	@ zero_extendqisi2
 3599 0016 012B     		cmp	r3, #1
 3600 0018 1CD0     		beq	.L249
 3601              		.loc 7 910 0
 3602 001a 0198     		ldr	r0, [sp, #4]
 3603 001c FFF7FEFF 		bl	otg_disable_ep
 3604              		.loc 7 912 0
 3605 0020 019B     		ldr	r3, [sp, #4]
 3606 0022 0022     		movs	r2, #0
 3607 0024 DA65     		str	r2, [r3, #92]
 3608              		.loc 7 914 0
 3609 0026 029B     		ldr	r3, [sp, #8]
 3610 0028 0022     		movs	r2, #0
 3611 002a C3F81C28 		str	r2, [r3, #2076]
 3612              		.loc 7 915 0
 3613 002e 029B     		ldr	r3, [sp, #8]
 3614 0030 0022     		movs	r2, #0
 3615 0032 9A60     		str	r2, [r3, #8]
 3616              		.loc 7 916 0
 3617 0034 029B     		ldr	r3, [sp, #8]
 3618 0036 0022     		movs	r2, #0
 3619 0038 9A63     		str	r2, [r3, #56]
 3620              		.loc 7 919 0
 3621 003a 019B     		ldr	r3, [sp, #4]
 3622 003c 0C4A     		ldr	r2, .L250+4
 3623 003e 9342     		cmp	r3, r2
 3624 0040 08D1     		bne	.L249
 3625              		.loc 7 920 0
 3626 0042 4320     		movs	r0, #67
 3627 0044 FFF7FEFF 		bl	nvicDisableVector
 3628              		.loc 7 921 0
 3629 0048 0A4B     		ldr	r3, .L250+8
 3630 004a 5B6B     		ldr	r3, [r3, #52]
 3631 004c 094A     		ldr	r2, .L250+8
 3632 004e 23F08003 		bic	r3, r3, #128
 3633 0052 5363     		str	r3, [r2, #52]
 3634              	.L249:
 3635              		.loc 7 932 0
 3636 0054 00BF     		nop
 3637 0056 054B     		ldr	r3, .L250
 3638 0058 039A     		ldr	r2, [sp, #12]
 3639 005a 1B68     		ldr	r3, [r3]
ARM GAS  C:\Users\PCHAUT~1\AppData\Local\Temp\ccJuO4y2.s 			page 65


 3640 005c 9A42     		cmp	r2, r3
 3641 005e 01D0     		beq	.L248
 3642 0060 FFF7FEFF 		bl	__stack_chk_fail
 3643              	.L248:
 3644 0064 05B0     		add	sp, sp, #20
 3645              		.cfi_def_cfa_offset 4
 3646              		@ sp needed
 3647 0066 5DF804FB 		ldr	pc, [sp], #4
 3648              	.L251:
 3649 006a 00BF     		.align	2
 3650              	.L250:
 3651 006c 00000000 		.word	__stack_chk_guard
 3652 0070 00000000 		.word	USBD1
 3653 0074 00380240 		.word	1073887232
 3654              		.cfi_endproc
 3655              	.LFE276:
 3656              		.size	usb_lld_stop, .-usb_lld_stop
 3657              		.section	.text.usb_lld_reset,"ax",%progbits
 3658              		.align	1
 3659              		.p2align 4,,15
 3660              		.global	usb_lld_reset
 3661              		.syntax unified
 3662              		.thumb
 3663              		.thumb_func
 3664              		.fpu fpv4-sp-d16
 3665              		.type	usb_lld_reset, %function
 3666              	usb_lld_reset:
 3667              	.LFB277:
 3668              		.loc 7 941 0
 3669              		.cfi_startproc
 3670              		@ args = 0, pretend = 0, frame = 24
 3671              		@ frame_needed = 0, uses_anonymous_args = 0
 3672 0000 10B5     		push	{r4, lr}
 3673              		.cfi_def_cfa_offset 8
 3674              		.cfi_offset 4, -8
 3675              		.cfi_offset 14, -4
 3676 0002 86B0     		sub	sp, sp, #24
 3677              		.cfi_def_cfa_offset 32
 3678 0004 0190     		str	r0, [sp, #4]
 3679              		.loc 7 941 0
 3680 0006 4C4B     		ldr	r3, .L256
 3681 0008 1B68     		ldr	r3, [r3]
 3682 000a 0593     		str	r3, [sp, #20]
 3683              		.loc 7 943 0
 3684 000c 019B     		ldr	r3, [sp, #4]
 3685 000e 1B6D     		ldr	r3, [r3, #80]
 3686 0010 0493     		str	r3, [sp, #16]
 3687              		.loc 7 946 0
 3688 0012 0021     		movs	r1, #0
 3689 0014 0198     		ldr	r0, [sp, #4]
 3690 0016 FFF7FEFF 		bl	otg_txfifo_flush
 3691              		.loc 7 949 0
 3692 001a 0023     		movs	r3, #0
 3693 001c 0393     		str	r3, [sp, #12]
 3694 001e 22E0     		b	.L253
 3695              	.L254:
 3696              		.loc 7 950 0 discriminator 3
ARM GAS  C:\Users\PCHAUT~1\AppData\Local\Temp\ccJuO4y2.s 			page 66


 3697 0020 049A     		ldr	r2, [sp, #16]
 3698 0022 039B     		ldr	r3, [sp, #12]
 3699 0024 4833     		adds	r3, r3, #72
 3700 0026 5B01     		lsls	r3, r3, #5
 3701 0028 1344     		add	r3, r3, r2
 3702 002a 4FF00062 		mov	r2, #134217728
 3703 002e 1A60     		str	r2, [r3]
 3704              		.loc 7 951 0 discriminator 3
 3705 0030 049A     		ldr	r2, [sp, #16]
 3706 0032 039B     		ldr	r3, [sp, #12]
 3707 0034 5833     		adds	r3, r3, #88
 3708 0036 5B01     		lsls	r3, r3, #5
 3709 0038 1344     		add	r3, r3, r2
 3710 003a 4FF00062 		mov	r2, #134217728
 3711 003e 1A60     		str	r2, [r3]
 3712              		.loc 7 952 0 discriminator 3
 3713 0040 049A     		ldr	r2, [sp, #16]
 3714 0042 039B     		ldr	r3, [sp, #12]
 3715 0044 5B01     		lsls	r3, r3, #5
 3716 0046 1344     		add	r3, r3, r2
 3717 0048 03F60813 		addw	r3, r3, #2312
 3718 004c FF22     		movs	r2, #255
 3719 004e 1A60     		str	r2, [r3]
 3720              		.loc 7 953 0 discriminator 3
 3721 0050 049A     		ldr	r2, [sp, #16]
 3722 0052 039B     		ldr	r3, [sp, #12]
 3723 0054 5B01     		lsls	r3, r3, #5
 3724 0056 1344     		add	r3, r3, r2
 3725 0058 03F60833 		addw	r3, r3, #2824
 3726 005c FF22     		movs	r2, #255
 3727 005e 1A60     		str	r2, [r3]
 3728              		.loc 7 949 0 discriminator 3
 3729 0060 039B     		ldr	r3, [sp, #12]
 3730 0062 0133     		adds	r3, r3, #1
 3731 0064 0393     		str	r3, [sp, #12]
 3732              	.L253:
 3733              		.loc 7 949 0 is_stmt 0 discriminator 1
 3734 0066 019B     		ldr	r3, [sp, #4]
 3735 0068 5B6D     		ldr	r3, [r3, #84]
 3736 006a 9B68     		ldr	r3, [r3, #8]
 3737 006c 039A     		ldr	r2, [sp, #12]
 3738 006e 9A42     		cmp	r2, r3
 3739 0070 D6D9     		bls	.L254
 3740              		.loc 7 957 0 is_stmt 1
 3741 0072 049B     		ldr	r3, [sp, #16]
 3742 0074 4FF0FF32 		mov	r2, #-1
 3743 0078 C3F81828 		str	r2, [r3, #2072]
 3744              		.loc 7 958 0
 3745 007c 049B     		ldr	r3, [sp, #16]
 3746 007e 4FF00112 		mov	r2, #65537
 3747 0082 C3F81C28 		str	r2, [r3, #2076]
 3748              		.loc 7 961 0
 3749 0086 0198     		ldr	r0, [sp, #4]
 3750 0088 FFF7FEFF 		bl	otg_ram_reset
 3751              		.loc 7 964 0
 3752 008c 019B     		ldr	r3, [sp, #4]
 3753 008e 5B6D     		ldr	r3, [r3, #84]
ARM GAS  C:\Users\PCHAUT~1\AppData\Local\Temp\ccJuO4y2.s 			page 67


 3754 0090 1A68     		ldr	r2, [r3]
 3755 0092 049B     		ldr	r3, [sp, #16]
 3756 0094 5A62     		str	r2, [r3, #36]
 3757              		.loc 7 965 0
 3758 0096 0198     		ldr	r0, [sp, #4]
 3759 0098 FFF7FEFF 		bl	otg_rxfifo_flush
 3760              		.loc 7 968 0
 3761 009c 049B     		ldr	r3, [sp, #16]
 3762 009e D3F80038 		ldr	r3, [r3, #2048]
 3763 00a2 23F4FE62 		bic	r2, r3, #2032
 3764 00a6 049B     		ldr	r3, [sp, #16]
 3765 00a8 C3F80028 		str	r2, [r3, #2048]
 3766              		.loc 7 971 0
 3767 00ac 049B     		ldr	r3, [sp, #16]
 3768 00ae 9B69     		ldr	r3, [r3, #24]
 3769 00b0 43F44023 		orr	r3, r3, #786432
 3770 00b4 43F01003 		orr	r3, r3, #16
 3771 00b8 049A     		ldr	r2, [sp, #16]
 3772 00ba 9361     		str	r3, [r2, #24]
 3773              		.loc 7 972 0
 3774 00bc 049B     		ldr	r3, [sp, #16]
 3775 00be 0922     		movs	r2, #9
 3776 00c0 C3F81028 		str	r2, [r3, #2064]
 3777              		.loc 7 973 0
 3778 00c4 049B     		ldr	r3, [sp, #16]
 3779 00c6 0922     		movs	r2, #9
 3780 00c8 C3F81428 		str	r2, [r3, #2068]
 3781              		.loc 7 976 0
 3782 00cc 019B     		ldr	r3, [sp, #4]
 3783 00ce 1B4A     		ldr	r2, .L256+4
 3784 00d0 DA60     		str	r2, [r3, #12]
 3785              		.loc 7 977 0
 3786 00d2 049B     		ldr	r3, [sp, #16]
 3787 00d4 0022     		movs	r2, #0
 3788 00d6 C3F8102B 		str	r2, [r3, #2832]
 3789              		.loc 7 979 0
 3790 00da 4023     		movs	r3, #64
 3791              		.loc 7 978 0
 3792 00dc 43F08053 		orr	r3, r3, #268435456
 3793 00e0 43F40043 		orr	r3, r3, #32768
 3794 00e4 049A     		ldr	r2, [sp, #16]
 3795 00e6 C2F8003B 		str	r3, [r2, #2816]
 3796              		.loc 7 980 0
 3797 00ea 049B     		ldr	r3, [sp, #16]
 3798 00ec 0022     		movs	r2, #0
 3799 00ee C3F81029 		str	r2, [r3, #2320]
 3800              		.loc 7 982 0
 3801 00f2 4023     		movs	r3, #64
 3802 00f4 43F08053 		orr	r3, r3, #268435456
 3803 00f8 43F40043 		orr	r3, r3, #32768
 3804              		.loc 7 981 0
 3805 00fc 049A     		ldr	r2, [sp, #16]
 3806 00fe C2F80039 		str	r3, [r2, #2304]
 3807              		.loc 7 983 0
 3808 0102 4023     		movs	r3, #64
 3809 0104 9B08     		lsrs	r3, r3, #2
 3810 0106 9BB2     		uxth	r3, r3
ARM GAS  C:\Users\PCHAUT~1\AppData\Local\Temp\ccJuO4y2.s 			page 68


 3811 0108 1B04     		lsls	r3, r3, #16
 3812 010a 1C46     		mov	r4, r3
 3813              		.loc 7 984 0
 3814 010c 4023     		movs	r3, #64
 3815 010e 9B08     		lsrs	r3, r3, #2
 3816 0110 9BB2     		uxth	r3, r3
 3817 0112 1946     		mov	r1, r3
 3818 0114 0198     		ldr	r0, [sp, #4]
 3819 0116 FFF7FEFF 		bl	otg_ram_alloc
 3820 011a 0346     		mov	r3, r0
 3821              		.loc 7 983 0
 3822 011c 44EA0302 		orr	r2, r4, r3
 3823 0120 049B     		ldr	r3, [sp, #16]
 3824 0122 9A62     		str	r2, [r3, #40]
 3825              		.loc 7 986 0
 3826 0124 00BF     		nop
 3827 0126 044B     		ldr	r3, .L256
 3828 0128 059A     		ldr	r2, [sp, #20]
 3829 012a 1B68     		ldr	r3, [r3]
 3830 012c 9A42     		cmp	r2, r3
 3831 012e 01D0     		beq	.L255
 3832 0130 FFF7FEFF 		bl	__stack_chk_fail
 3833              	.L255:
 3834 0134 06B0     		add	sp, sp, #24
 3835              		.cfi_def_cfa_offset 8
 3836              		@ sp needed
 3837 0136 10BD     		pop	{r4, pc}
 3838              	.L257:
 3839              		.align	2
 3840              	.L256:
 3841 0138 00000000 		.word	__stack_chk_guard
 3842 013c 00000000 		.word	ep0config
 3843              		.cfi_endproc
 3844              	.LFE277:
 3845              		.size	usb_lld_reset, .-usb_lld_reset
 3846              		.section	.text.usb_lld_set_address,"ax",%progbits
 3847              		.align	1
 3848              		.p2align 4,,15
 3849              		.global	usb_lld_set_address
 3850              		.syntax unified
 3851              		.thumb
 3852              		.thumb_func
 3853              		.fpu fpv4-sp-d16
 3854              		.type	usb_lld_set_address, %function
 3855              	usb_lld_set_address:
 3856              	.LFB278:
 3857              		.loc 7 995 0
 3858              		.cfi_startproc
 3859              		@ args = 0, pretend = 0, frame = 16
 3860              		@ frame_needed = 0, uses_anonymous_args = 0
 3861 0000 00B5     		push	{lr}
 3862              		.cfi_def_cfa_offset 4
 3863              		.cfi_offset 14, -4
 3864 0002 85B0     		sub	sp, sp, #20
 3865              		.cfi_def_cfa_offset 24
 3866 0004 0190     		str	r0, [sp, #4]
 3867              		.loc 7 995 0
ARM GAS  C:\Users\PCHAUT~1\AppData\Local\Temp\ccJuO4y2.s 			page 69


 3868 0006 0F4B     		ldr	r3, .L260
 3869 0008 1B68     		ldr	r3, [r3]
 3870 000a 0393     		str	r3, [sp, #12]
 3871              		.loc 7 996 0
 3872 000c 019B     		ldr	r3, [sp, #4]
 3873 000e 1B6D     		ldr	r3, [r3, #80]
 3874 0010 0293     		str	r3, [sp, #8]
 3875              		.loc 7 998 0
 3876 0012 029B     		ldr	r3, [sp, #8]
 3877 0014 D3F80038 		ldr	r3, [r3, #2048]
 3878 0018 23F4FE63 		bic	r3, r3, #2032
 3879 001c 019A     		ldr	r2, [sp, #4]
 3880 001e 92F84E20 		ldrb	r2, [r2, #78]	@ zero_extendqisi2
 3881 0022 1201     		lsls	r2, r2, #4
 3882 0024 1A43     		orrs	r2, r2, r3
 3883 0026 029B     		ldr	r3, [sp, #8]
 3884 0028 C3F80028 		str	r2, [r3, #2048]
 3885              		.loc 7 999 0
 3886 002c 00BF     		nop
 3887 002e 054B     		ldr	r3, .L260
 3888 0030 039A     		ldr	r2, [sp, #12]
 3889 0032 1B68     		ldr	r3, [r3]
 3890 0034 9A42     		cmp	r2, r3
 3891 0036 01D0     		beq	.L259
 3892 0038 FFF7FEFF 		bl	__stack_chk_fail
 3893              	.L259:
 3894 003c 05B0     		add	sp, sp, #20
 3895              		.cfi_def_cfa_offset 4
 3896              		@ sp needed
 3897 003e 5DF804FB 		ldr	pc, [sp], #4
 3898              	.L261:
 3899 0042 00BF     		.align	2
 3900              	.L260:
 3901 0044 00000000 		.word	__stack_chk_guard
 3902              		.cfi_endproc
 3903              	.LFE278:
 3904              		.size	usb_lld_set_address, .-usb_lld_set_address
 3905              		.section	.text.usb_lld_init_endpoint,"ax",%progbits
 3906              		.align	1
 3907              		.p2align 4,,15
 3908              		.global	usb_lld_init_endpoint
 3909              		.syntax unified
 3910              		.thumb
 3911              		.thumb_func
 3912              		.fpu fpv4-sp-d16
 3913              		.type	usb_lld_init_endpoint, %function
 3914              	usb_lld_init_endpoint:
 3915              	.LFB279:
 3916              		.loc 7 1009 0
 3917              		.cfi_startproc
 3918              		@ args = 0, pretend = 0, frame = 24
 3919              		@ frame_needed = 0, uses_anonymous_args = 0
 3920 0000 10B5     		push	{r4, lr}
 3921              		.cfi_def_cfa_offset 8
 3922              		.cfi_offset 4, -8
 3923              		.cfi_offset 14, -4
 3924 0002 86B0     		sub	sp, sp, #24
ARM GAS  C:\Users\PCHAUT~1\AppData\Local\Temp\ccJuO4y2.s 			page 70


 3925              		.cfi_def_cfa_offset 32
 3926 0004 0190     		str	r0, [sp, #4]
 3927 0006 0B46     		mov	r3, r1
 3928 0008 8DF80330 		strb	r3, [sp, #3]
 3929              		.loc 7 1009 0
 3930 000c 904B     		ldr	r3, .L277
 3931 000e 1B68     		ldr	r3, [r3]
 3932 0010 0593     		str	r3, [sp, #20]
 3933              		.loc 7 1011 0
 3934 0012 019B     		ldr	r3, [sp, #4]
 3935 0014 1B6D     		ldr	r3, [r3, #80]
 3936 0016 0493     		str	r3, [sp, #16]
 3937              		.loc 7 1014 0
 3938 0018 9DF80330 		ldrb	r3, [sp, #3]	@ zero_extendqisi2
 3939 001c 019A     		ldr	r2, [sp, #4]
 3940 001e 0233     		adds	r3, r3, #2
 3941 0020 9B00     		lsls	r3, r3, #2
 3942 0022 1344     		add	r3, r3, r2
 3943 0024 5B68     		ldr	r3, [r3, #4]
 3944 0026 1B68     		ldr	r3, [r3]
 3945 0028 03F00303 		and	r3, r3, #3
 3946 002c 032B     		cmp	r3, #3
 3947 002e 00F20481 		bhi	.L276
 3948 0032 01A2     		adr	r2, .L265
 3949 0034 52F823F0 		ldr	pc, [r2, r3, lsl #2]
 3950              		.p2align 2
 3951              	.L265:
 3952 0038 49000000 		.word	.L264+1
 3953 003c 4F000000 		.word	.L266+1
 3954 0040 55000000 		.word	.L267+1
 3955 0044 5B000000 		.word	.L268+1
 3956              		.p2align 1
 3957              	.L264:
 3958              		.loc 7 1016 0
 3959 0048 824B     		ldr	r3, .L277+4
 3960 004a 0293     		str	r3, [sp, #8]
 3961              		.loc 7 1017 0
 3962 004c 08E0     		b	.L269
 3963              	.L266:
 3964              		.loc 7 1019 0
 3965 004e 824B     		ldr	r3, .L277+8
 3966 0050 0293     		str	r3, [sp, #8]
 3967              		.loc 7 1020 0
 3968 0052 05E0     		b	.L269
 3969              	.L267:
 3970              		.loc 7 1022 0
 3971 0054 814B     		ldr	r3, .L277+12
 3972 0056 0293     		str	r3, [sp, #8]
 3973              		.loc 7 1023 0
 3974 0058 02E0     		b	.L269
 3975              	.L268:
 3976              		.loc 7 1025 0
 3977 005a 814B     		ldr	r3, .L277+16
 3978 005c 0293     		str	r3, [sp, #8]
 3979              		.loc 7 1026 0
 3980 005e 00BF     		nop
 3981              	.L269:
ARM GAS  C:\Users\PCHAUT~1\AppData\Local\Temp\ccJuO4y2.s 			page 71


 3982              		.loc 7 1032 0
 3983 0060 9DF80330 		ldrb	r3, [sp, #3]	@ zero_extendqisi2
 3984 0064 049A     		ldr	r2, [sp, #16]
 3985 0066 5B01     		lsls	r3, r3, #5
 3986 0068 1344     		add	r3, r3, r2
 3987 006a 03F53163 		add	r3, r3, #2832
 3988 006e 0022     		movs	r2, #0
 3989 0070 1A60     		str	r2, [r3]
 3990              		.loc 7 1033 0
 3991 0072 9DF80330 		ldrb	r3, [sp, #3]	@ zero_extendqisi2
 3992 0076 019A     		ldr	r2, [sp, #4]
 3993 0078 0233     		adds	r3, r3, #2
 3994 007a 9B00     		lsls	r3, r3, #2
 3995 007c 1344     		add	r3, r3, r2
 3996 007e 5B68     		ldr	r3, [r3, #4]
 3997 0080 DB68     		ldr	r3, [r3, #12]
 3998 0082 002B     		cmp	r3, #0
 3999 0084 1FD0     		beq	.L271
 4000              		.loc 7 1034 0
 4001 0086 9DF80330 		ldrb	r3, [sp, #3]	@ zero_extendqisi2
 4002 008a 019A     		ldr	r2, [sp, #4]
 4003 008c 0233     		adds	r3, r3, #2
 4004 008e 9B00     		lsls	r3, r3, #2
 4005 0090 1344     		add	r3, r3, r2
 4006 0092 5B68     		ldr	r3, [r3, #4]
 4007 0094 5B8A     		ldrh	r3, [r3, #18]
 4008 0096 1946     		mov	r1, r3
 4009 0098 9DF80330 		ldrb	r3, [sp, #3]	@ zero_extendqisi2
 4010 009c 029A     		ldr	r2, [sp, #8]
 4011 009e 0A43     		orrs	r2, r2, r1
 4012 00a0 0499     		ldr	r1, [sp, #16]
 4013 00a2 5833     		adds	r3, r3, #88
 4014 00a4 5B01     		lsls	r3, r3, #5
 4015 00a6 0B44     		add	r3, r3, r1
 4016 00a8 1A60     		str	r2, [r3]
 4017              		.loc 7 1035 0
 4018 00aa 049B     		ldr	r3, [sp, #16]
 4019 00ac D3F81C28 		ldr	r2, [r3, #2076]
 4020 00b0 9DF80330 		ldrb	r3, [sp, #3]	@ zero_extendqisi2
 4021 00b4 1033     		adds	r3, r3, #16
 4022 00b6 0121     		movs	r1, #1
 4023 00b8 01FA03F3 		lsl	r3, r1, r3
 4024 00bc 1A43     		orrs	r2, r2, r3
 4025 00be 049B     		ldr	r3, [sp, #16]
 4026 00c0 C3F81C28 		str	r2, [r3, #2076]
 4027 00c4 1DE0     		b	.L272
 4028              	.L271:
 4029              		.loc 7 1038 0
 4030 00c6 9DF80330 		ldrb	r3, [sp, #3]	@ zero_extendqisi2
 4031 00ca 049A     		ldr	r2, [sp, #16]
 4032 00cc 5833     		adds	r3, r3, #88
 4033 00ce 5B01     		lsls	r3, r3, #5
 4034 00d0 1344     		add	r3, r3, r2
 4035 00d2 1A68     		ldr	r2, [r3]
 4036 00d4 9DF80330 		ldrb	r3, [sp, #3]	@ zero_extendqisi2
 4037 00d8 22F40042 		bic	r2, r2, #32768
 4038 00dc 0499     		ldr	r1, [sp, #16]
ARM GAS  C:\Users\PCHAUT~1\AppData\Local\Temp\ccJuO4y2.s 			page 72


 4039 00de 5833     		adds	r3, r3, #88
 4040 00e0 5B01     		lsls	r3, r3, #5
 4041 00e2 0B44     		add	r3, r3, r1
 4042 00e4 1A60     		str	r2, [r3]
 4043              		.loc 7 1039 0
 4044 00e6 049B     		ldr	r3, [sp, #16]
 4045 00e8 D3F81C28 		ldr	r2, [r3, #2076]
 4046 00ec 9DF80330 		ldrb	r3, [sp, #3]	@ zero_extendqisi2
 4047 00f0 1033     		adds	r3, r3, #16
 4048 00f2 0121     		movs	r1, #1
 4049 00f4 01FA03F3 		lsl	r3, r1, r3
 4050 00f8 DB43     		mvns	r3, r3
 4051 00fa 1A40     		ands	r2, r2, r3
 4052 00fc 049B     		ldr	r3, [sp, #16]
 4053 00fe C3F81C28 		str	r2, [r3, #2076]
 4054              	.L272:
 4055              		.loc 7 1043 0
 4056 0102 9DF80330 		ldrb	r3, [sp, #3]	@ zero_extendqisi2
 4057 0106 049A     		ldr	r2, [sp, #16]
 4058 0108 5B01     		lsls	r3, r3, #5
 4059 010a 1344     		add	r3, r3, r2
 4060 010c 03F51163 		add	r3, r3, #2320
 4061 0110 0022     		movs	r2, #0
 4062 0112 1A60     		str	r2, [r3]
 4063              		.loc 7 1044 0
 4064 0114 9DF80330 		ldrb	r3, [sp, #3]	@ zero_extendqisi2
 4065 0118 019A     		ldr	r2, [sp, #4]
 4066 011a 0233     		adds	r3, r3, #2
 4067 011c 9B00     		lsls	r3, r3, #2
 4068 011e 1344     		add	r3, r3, r2
 4069 0120 5B68     		ldr	r3, [r3, #4]
 4070 0122 9B68     		ldr	r3, [r3, #8]
 4071 0124 002B     		cmp	r3, #0
 4072 0126 5BD0     		beq	.L273
 4073              		.loc 7 1046 0
 4074 0128 9DF80330 		ldrb	r3, [sp, #3]	@ zero_extendqisi2
 4075 012c 019A     		ldr	r2, [sp, #4]
 4076 012e 0233     		adds	r3, r3, #2
 4077 0130 9B00     		lsls	r3, r3, #2
 4078 0132 1344     		add	r3, r3, r2
 4079 0134 5B68     		ldr	r3, [r3, #4]
 4080 0136 1B8A     		ldrh	r3, [r3, #16]
 4081 0138 9B08     		lsrs	r3, r3, #2
 4082 013a 9BB2     		uxth	r3, r3
 4083 013c 0393     		str	r3, [sp, #12]
 4084              		.loc 7 1047 0
 4085 013e 9DF80330 		ldrb	r3, [sp, #3]	@ zero_extendqisi2
 4086 0142 019A     		ldr	r2, [sp, #4]
 4087 0144 0233     		adds	r3, r3, #2
 4088 0146 9B00     		lsls	r3, r3, #2
 4089 0148 1344     		add	r3, r3, r2
 4090 014a 5B68     		ldr	r3, [r3, #4]
 4091 014c 9B8B     		ldrh	r3, [r3, #28]
 4092 014e 012B     		cmp	r3, #1
 4093 0150 0CD9     		bls	.L274
 4094              		.loc 7 1048 0
 4095 0152 9DF80330 		ldrb	r3, [sp, #3]	@ zero_extendqisi2
ARM GAS  C:\Users\PCHAUT~1\AppData\Local\Temp\ccJuO4y2.s 			page 73


 4096 0156 019A     		ldr	r2, [sp, #4]
 4097 0158 0233     		adds	r3, r3, #2
 4098 015a 9B00     		lsls	r3, r3, #2
 4099 015c 1344     		add	r3, r3, r2
 4100 015e 5B68     		ldr	r3, [r3, #4]
 4101 0160 9B8B     		ldrh	r3, [r3, #28]
 4102 0162 1A46     		mov	r2, r3
 4103 0164 039B     		ldr	r3, [sp, #12]
 4104 0166 02FB03F3 		mul	r3, r2, r3
 4105 016a 0393     		str	r3, [sp, #12]
 4106              	.L274:
 4107              		.loc 7 1049 0
 4108 016c 039B     		ldr	r3, [sp, #12]
 4109 016e 1C04     		lsls	r4, r3, #16
 4110              		.loc 7 1050 0
 4111 0170 0399     		ldr	r1, [sp, #12]
 4112 0172 0198     		ldr	r0, [sp, #4]
 4113 0174 FFF7FEFF 		bl	otg_ram_alloc
 4114 0178 0246     		mov	r2, r0
 4115              		.loc 7 1049 0
 4116 017a 9DF80330 		ldrb	r3, [sp, #3]	@ zero_extendqisi2
 4117 017e 013B     		subs	r3, r3, #1
 4118 0180 2243     		orrs	r2, r2, r4
 4119 0182 0499     		ldr	r1, [sp, #16]
 4120 0184 4033     		adds	r3, r3, #64
 4121 0186 9B00     		lsls	r3, r3, #2
 4122 0188 0B44     		add	r3, r3, r1
 4123 018a 5A60     		str	r2, [r3, #4]
 4124              		.loc 7 1051 0
 4125 018c 9DF80330 		ldrb	r3, [sp, #3]	@ zero_extendqisi2
 4126 0190 1946     		mov	r1, r3
 4127 0192 0198     		ldr	r0, [sp, #4]
 4128 0194 FFF7FEFF 		bl	otg_txfifo_flush
 4129              		.loc 7 1054 0
 4130 0198 9DF80330 		ldrb	r3, [sp, #3]	@ zero_extendqisi2
 4131 019c 9B05     		lsls	r3, r3, #22
 4132 019e 1A46     		mov	r2, r3
 4133              		.loc 7 1053 0
 4134 01a0 029B     		ldr	r3, [sp, #8]
 4135 01a2 1A43     		orrs	r2, r2, r3
 4136              		.loc 7 1055 0
 4137 01a4 9DF80330 		ldrb	r3, [sp, #3]	@ zero_extendqisi2
 4138 01a8 0199     		ldr	r1, [sp, #4]
 4139 01aa 0233     		adds	r3, r3, #2
 4140 01ac 9B00     		lsls	r3, r3, #2
 4141 01ae 0B44     		add	r3, r3, r1
 4142 01b0 5B68     		ldr	r3, [r3, #4]
 4143 01b2 1B8A     		ldrh	r3, [r3, #16]
 4144 01b4 1946     		mov	r1, r3
 4145              		.loc 7 1053 0
 4146 01b6 9DF80330 		ldrb	r3, [sp, #3]	@ zero_extendqisi2
 4147              		.loc 7 1054 0
 4148 01ba 0A43     		orrs	r2, r2, r1
 4149              		.loc 7 1053 0
 4150 01bc 0499     		ldr	r1, [sp, #16]
 4151 01be 4833     		adds	r3, r3, #72
 4152 01c0 5B01     		lsls	r3, r3, #5
ARM GAS  C:\Users\PCHAUT~1\AppData\Local\Temp\ccJuO4y2.s 			page 74


 4153 01c2 0B44     		add	r3, r3, r1
 4154 01c4 1A60     		str	r2, [r3]
 4155              		.loc 7 1056 0
 4156 01c6 049B     		ldr	r3, [sp, #16]
 4157 01c8 D3F81C28 		ldr	r2, [r3, #2076]
 4158 01cc 9DF80330 		ldrb	r3, [sp, #3]	@ zero_extendqisi2
 4159 01d0 0121     		movs	r1, #1
 4160 01d2 01FA03F3 		lsl	r3, r1, r3
 4161 01d6 1A43     		orrs	r2, r2, r3
 4162 01d8 049B     		ldr	r3, [sp, #16]
 4163 01da C3F81C28 		str	r2, [r3, #2076]
 4164 01de 2DE0     		b	.L262
 4165              	.L273:
 4166              		.loc 7 1059 0
 4167 01e0 9DF80330 		ldrb	r3, [sp, #3]	@ zero_extendqisi2
 4168 01e4 013B     		subs	r3, r3, #1
 4169 01e6 049A     		ldr	r2, [sp, #16]
 4170 01e8 4033     		adds	r3, r3, #64
 4171 01ea 9B00     		lsls	r3, r3, #2
 4172 01ec 1344     		add	r3, r3, r2
 4173 01ee 1D4A     		ldr	r2, .L277+20
 4174 01f0 5A60     		str	r2, [r3, #4]
 4175              		.loc 7 1060 0
 4176 01f2 9DF80330 		ldrb	r3, [sp, #3]	@ zero_extendqisi2
 4177 01f6 1946     		mov	r1, r3
 4178 01f8 0198     		ldr	r0, [sp, #4]
 4179 01fa FFF7FEFF 		bl	otg_txfifo_flush
 4180              		.loc 7 1061 0
 4181 01fe 9DF80330 		ldrb	r3, [sp, #3]	@ zero_extendqisi2
 4182 0202 049A     		ldr	r2, [sp, #16]
 4183 0204 4833     		adds	r3, r3, #72
 4184 0206 5B01     		lsls	r3, r3, #5
 4185 0208 1344     		add	r3, r3, r2
 4186 020a 1A68     		ldr	r2, [r3]
 4187 020c 9DF80330 		ldrb	r3, [sp, #3]	@ zero_extendqisi2
 4188 0210 22F40042 		bic	r2, r2, #32768
 4189 0214 0499     		ldr	r1, [sp, #16]
 4190 0216 4833     		adds	r3, r3, #72
 4191 0218 5B01     		lsls	r3, r3, #5
 4192 021a 0B44     		add	r3, r3, r1
 4193 021c 1A60     		str	r2, [r3]
 4194              		.loc 7 1062 0
 4195 021e 049B     		ldr	r3, [sp, #16]
 4196 0220 D3F81C28 		ldr	r2, [r3, #2076]
 4197 0224 9DF80330 		ldrb	r3, [sp, #3]	@ zero_extendqisi2
 4198 0228 0121     		movs	r1, #1
 4199 022a 01FA03F3 		lsl	r3, r1, r3
 4200 022e DB43     		mvns	r3, r3
 4201 0230 1A40     		ands	r2, r2, r3
 4202 0232 049B     		ldr	r3, [sp, #16]
 4203 0234 C3F81C28 		str	r2, [r3, #2076]
 4204 0238 00E0     		b	.L262
 4205              	.L276:
 4206              		.loc 7 1028 0
 4207 023a 00BF     		nop
 4208              	.L262:
 4209              		.loc 7 1064 0
ARM GAS  C:\Users\PCHAUT~1\AppData\Local\Temp\ccJuO4y2.s 			page 75


 4210 023c 044B     		ldr	r3, .L277
 4211 023e 059A     		ldr	r2, [sp, #20]
 4212 0240 1B68     		ldr	r3, [r3]
 4213 0242 9A42     		cmp	r2, r3
 4214 0244 01D0     		beq	.L275
 4215 0246 FFF7FEFF 		bl	__stack_chk_fail
 4216              	.L275:
 4217 024a 06B0     		add	sp, sp, #24
 4218              		.cfi_def_cfa_offset 8
 4219              		@ sp needed
 4220 024c 10BD     		pop	{r4, pc}
 4221              	.L278:
 4222 024e 00BF     		.align	2
 4223              	.L277:
 4224 0250 00000000 		.word	__stack_chk_guard
 4225 0254 00800010 		.word	268468224
 4226 0258 00800410 		.word	268730368
 4227 025c 00800810 		.word	268992512
 4228 0260 00800C10 		.word	269254656
 4229 0264 00040002 		.word	33555456
 4230              		.cfi_endproc
 4231              	.LFE279:
 4232              		.size	usb_lld_init_endpoint, .-usb_lld_init_endpoint
 4233              		.section	.text.usb_lld_disable_endpoints,"ax",%progbits
 4234              		.align	1
 4235              		.p2align 4,,15
 4236              		.global	usb_lld_disable_endpoints
 4237              		.syntax unified
 4238              		.thumb
 4239              		.thumb_func
 4240              		.fpu fpv4-sp-d16
 4241              		.type	usb_lld_disable_endpoints, %function
 4242              	usb_lld_disable_endpoints:
 4243              	.LFB280:
 4244              		.loc 7 1073 0
 4245              		.cfi_startproc
 4246              		@ args = 0, pretend = 0, frame = 16
 4247              		@ frame_needed = 0, uses_anonymous_args = 0
 4248 0000 00B5     		push	{lr}
 4249              		.cfi_def_cfa_offset 4
 4250              		.cfi_offset 14, -4
 4251 0002 85B0     		sub	sp, sp, #20
 4252              		.cfi_def_cfa_offset 24
 4253 0004 0190     		str	r0, [sp, #4]
 4254              		.loc 7 1073 0
 4255 0006 0A4B     		ldr	r3, .L281
 4256 0008 1B68     		ldr	r3, [r3]
 4257 000a 0393     		str	r3, [sp, #12]
 4258              		.loc 7 1076 0
 4259 000c 0198     		ldr	r0, [sp, #4]
 4260 000e FFF7FEFF 		bl	otg_ram_reset
 4261              		.loc 7 1079 0
 4262 0012 0198     		ldr	r0, [sp, #4]
 4263 0014 FFF7FEFF 		bl	otg_disable_ep
 4264              		.loc 7 1080 0
 4265 0018 00BF     		nop
 4266 001a 054B     		ldr	r3, .L281
ARM GAS  C:\Users\PCHAUT~1\AppData\Local\Temp\ccJuO4y2.s 			page 76


 4267 001c 039A     		ldr	r2, [sp, #12]
 4268 001e 1B68     		ldr	r3, [r3]
 4269 0020 9A42     		cmp	r2, r3
 4270 0022 01D0     		beq	.L280
 4271 0024 FFF7FEFF 		bl	__stack_chk_fail
 4272              	.L280:
 4273 0028 05B0     		add	sp, sp, #20
 4274              		.cfi_def_cfa_offset 4
 4275              		@ sp needed
 4276 002a 5DF804FB 		ldr	pc, [sp], #4
 4277              	.L282:
 4278 002e 00BF     		.align	2
 4279              	.L281:
 4280 0030 00000000 		.word	__stack_chk_guard
 4281              		.cfi_endproc
 4282              	.LFE280:
 4283              		.size	usb_lld_disable_endpoints, .-usb_lld_disable_endpoints
 4284              		.section	.text.usb_lld_get_status_out,"ax",%progbits
 4285              		.align	1
 4286              		.p2align 4,,15
 4287              		.global	usb_lld_get_status_out
 4288              		.syntax unified
 4289              		.thumb
 4290              		.thumb_func
 4291              		.fpu fpv4-sp-d16
 4292              		.type	usb_lld_get_status_out, %function
 4293              	usb_lld_get_status_out:
 4294              	.LFB281:
 4295              		.loc 7 1094 0
 4296              		.cfi_startproc
 4297              		@ args = 0, pretend = 0, frame = 16
 4298              		@ frame_needed = 0, uses_anonymous_args = 0
 4299 0000 00B5     		push	{lr}
 4300              		.cfi_def_cfa_offset 4
 4301              		.cfi_offset 14, -4
 4302 0002 85B0     		sub	sp, sp, #20
 4303              		.cfi_def_cfa_offset 24
 4304 0004 0190     		str	r0, [sp, #4]
 4305 0006 0B46     		mov	r3, r1
 4306 0008 8DF80330 		strb	r3, [sp, #3]
 4307              		.loc 7 1094 0
 4308 000c 124B     		ldr	r3, .L288
 4309 000e 1B68     		ldr	r3, [r3]
 4310 0010 0393     		str	r3, [sp, #12]
 4311              		.loc 7 1099 0
 4312 0012 019B     		ldr	r3, [sp, #4]
 4313 0014 1A6D     		ldr	r2, [r3, #80]
 4314 0016 9DF80330 		ldrb	r3, [sp, #3]	@ zero_extendqisi2
 4315 001a 5833     		adds	r3, r3, #88
 4316 001c 5B01     		lsls	r3, r3, #5
 4317 001e 1344     		add	r3, r3, r2
 4318 0020 1B68     		ldr	r3, [r3]
 4319 0022 0293     		str	r3, [sp, #8]
 4320              		.loc 7 1100 0
 4321 0024 029B     		ldr	r3, [sp, #8]
 4322 0026 03F40043 		and	r3, r3, #32768
 4323 002a 002B     		cmp	r3, #0
ARM GAS  C:\Users\PCHAUT~1\AppData\Local\Temp\ccJuO4y2.s 			page 77


 4324 002c 01D1     		bne	.L284
 4325              		.loc 7 1101 0
 4326 002e 0023     		movs	r3, #0
 4327 0030 07E0     		b	.L285
 4328              	.L284:
 4329              		.loc 7 1102 0
 4330 0032 029B     		ldr	r3, [sp, #8]
 4331 0034 03F40013 		and	r3, r3, #2097152
 4332 0038 002B     		cmp	r3, #0
 4333 003a 01D0     		beq	.L286
 4334              		.loc 7 1103 0
 4335 003c 0123     		movs	r3, #1
 4336 003e 00E0     		b	.L285
 4337              	.L286:
 4338              		.loc 7 1104 0
 4339 0040 0223     		movs	r3, #2
 4340              	.L285:
 4341              		.loc 7 1105 0
 4342 0042 1846     		mov	r0, r3
 4343 0044 044B     		ldr	r3, .L288
 4344 0046 039A     		ldr	r2, [sp, #12]
 4345 0048 1B68     		ldr	r3, [r3]
 4346 004a 9A42     		cmp	r2, r3
 4347 004c 01D0     		beq	.L287
 4348 004e FFF7FEFF 		bl	__stack_chk_fail
 4349              	.L287:
 4350 0052 05B0     		add	sp, sp, #20
 4351              		.cfi_def_cfa_offset 4
 4352              		@ sp needed
 4353 0054 5DF804FB 		ldr	pc, [sp], #4
 4354              	.L289:
 4355              		.align	2
 4356              	.L288:
 4357 0058 00000000 		.word	__stack_chk_guard
 4358              		.cfi_endproc
 4359              	.LFE281:
 4360              		.size	usb_lld_get_status_out, .-usb_lld_get_status_out
 4361              		.section	.text.usb_lld_get_status_in,"ax",%progbits
 4362              		.align	1
 4363              		.p2align 4,,15
 4364              		.global	usb_lld_get_status_in
 4365              		.syntax unified
 4366              		.thumb
 4367              		.thumb_func
 4368              		.fpu fpv4-sp-d16
 4369              		.type	usb_lld_get_status_in, %function
 4370              	usb_lld_get_status_in:
 4371              	.LFB282:
 4372              		.loc 7 1119 0
 4373              		.cfi_startproc
 4374              		@ args = 0, pretend = 0, frame = 16
 4375              		@ frame_needed = 0, uses_anonymous_args = 0
 4376 0000 00B5     		push	{lr}
 4377              		.cfi_def_cfa_offset 4
 4378              		.cfi_offset 14, -4
 4379 0002 85B0     		sub	sp, sp, #20
 4380              		.cfi_def_cfa_offset 24
ARM GAS  C:\Users\PCHAUT~1\AppData\Local\Temp\ccJuO4y2.s 			page 78


 4381 0004 0190     		str	r0, [sp, #4]
 4382 0006 0B46     		mov	r3, r1
 4383 0008 8DF80330 		strb	r3, [sp, #3]
 4384              		.loc 7 1119 0
 4385 000c 124B     		ldr	r3, .L295
 4386 000e 1B68     		ldr	r3, [r3]
 4387 0010 0393     		str	r3, [sp, #12]
 4388              		.loc 7 1124 0
 4389 0012 019B     		ldr	r3, [sp, #4]
 4390 0014 1A6D     		ldr	r2, [r3, #80]
 4391 0016 9DF80330 		ldrb	r3, [sp, #3]	@ zero_extendqisi2
 4392 001a 4833     		adds	r3, r3, #72
 4393 001c 5B01     		lsls	r3, r3, #5
 4394 001e 1344     		add	r3, r3, r2
 4395 0020 1B68     		ldr	r3, [r3]
 4396 0022 0293     		str	r3, [sp, #8]
 4397              		.loc 7 1125 0
 4398 0024 029B     		ldr	r3, [sp, #8]
 4399 0026 03F40043 		and	r3, r3, #32768
 4400 002a 002B     		cmp	r3, #0
 4401 002c 01D1     		bne	.L291
 4402              		.loc 7 1126 0
 4403 002e 0023     		movs	r3, #0
 4404 0030 07E0     		b	.L292
 4405              	.L291:
 4406              		.loc 7 1127 0
 4407 0032 029B     		ldr	r3, [sp, #8]
 4408 0034 03F40013 		and	r3, r3, #2097152
 4409 0038 002B     		cmp	r3, #0
 4410 003a 01D0     		beq	.L293
 4411              		.loc 7 1128 0
 4412 003c 0123     		movs	r3, #1
 4413 003e 00E0     		b	.L292
 4414              	.L293:
 4415              		.loc 7 1129 0
 4416 0040 0223     		movs	r3, #2
 4417              	.L292:
 4418              		.loc 7 1130 0
 4419 0042 1846     		mov	r0, r3
 4420 0044 044B     		ldr	r3, .L295
 4421 0046 039A     		ldr	r2, [sp, #12]
 4422 0048 1B68     		ldr	r3, [r3]
 4423 004a 9A42     		cmp	r2, r3
 4424 004c 01D0     		beq	.L294
 4425 004e FFF7FEFF 		bl	__stack_chk_fail
 4426              	.L294:
 4427 0052 05B0     		add	sp, sp, #20
 4428              		.cfi_def_cfa_offset 4
 4429              		@ sp needed
 4430 0054 5DF804FB 		ldr	pc, [sp], #4
 4431              	.L296:
 4432              		.align	2
 4433              	.L295:
 4434 0058 00000000 		.word	__stack_chk_guard
 4435              		.cfi_endproc
 4436              	.LFE282:
 4437              		.size	usb_lld_get_status_in, .-usb_lld_get_status_in
ARM GAS  C:\Users\PCHAUT~1\AppData\Local\Temp\ccJuO4y2.s 			page 79


 4438              		.section	.text.usb_lld_read_setup,"ax",%progbits
 4439              		.align	1
 4440              		.p2align 4,,15
 4441              		.global	usb_lld_read_setup
 4442              		.syntax unified
 4443              		.thumb
 4444              		.thumb_func
 4445              		.fpu fpv4-sp-d16
 4446              		.type	usb_lld_read_setup, %function
 4447              	usb_lld_read_setup:
 4448              	.LFB283:
 4449              		.loc 7 1146 0
 4450              		.cfi_startproc
 4451              		@ args = 0, pretend = 0, frame = 24
 4452              		@ frame_needed = 0, uses_anonymous_args = 0
 4453 0000 00B5     		push	{lr}
 4454              		.cfi_def_cfa_offset 4
 4455              		.cfi_offset 14, -4
 4456 0002 87B0     		sub	sp, sp, #28
 4457              		.cfi_def_cfa_offset 32
 4458 0004 0390     		str	r0, [sp, #12]
 4459 0006 0B46     		mov	r3, r1
 4460 0008 0192     		str	r2, [sp, #4]
 4461 000a 8DF80B30 		strb	r3, [sp, #11]
 4462              		.loc 7 1146 0
 4463 000e 0D4B     		ldr	r3, .L299
 4464 0010 1B68     		ldr	r3, [r3]
 4465 0012 0593     		str	r3, [sp, #20]
 4466              		.loc 7 1148 0
 4467 0014 9DF80B30 		ldrb	r3, [sp, #11]	@ zero_extendqisi2
 4468 0018 039A     		ldr	r2, [sp, #12]
 4469 001a 0233     		adds	r3, r3, #2
 4470 001c 9B00     		lsls	r3, r3, #2
 4471 001e 1344     		add	r3, r3, r2
 4472 0020 5B68     		ldr	r3, [r3, #4]
 4473 0022 1B6A     		ldr	r3, [r3, #32]
 4474 0024 0822     		movs	r2, #8
 4475 0026 1946     		mov	r1, r3
 4476 0028 0198     		ldr	r0, [sp, #4]
 4477 002a FFF7FEFF 		bl	memcpy
 4478              		.loc 7 1149 0
 4479 002e 00BF     		nop
 4480 0030 044B     		ldr	r3, .L299
 4481 0032 059A     		ldr	r2, [sp, #20]
 4482 0034 1B68     		ldr	r3, [r3]
 4483 0036 9A42     		cmp	r2, r3
 4484 0038 01D0     		beq	.L298
 4485 003a FFF7FEFF 		bl	__stack_chk_fail
 4486              	.L298:
 4487 003e 07B0     		add	sp, sp, #28
 4488              		.cfi_def_cfa_offset 4
 4489              		@ sp needed
 4490 0040 5DF804FB 		ldr	pc, [sp], #4
 4491              	.L300:
 4492              		.align	2
 4493              	.L299:
 4494 0044 00000000 		.word	__stack_chk_guard
ARM GAS  C:\Users\PCHAUT~1\AppData\Local\Temp\ccJuO4y2.s 			page 80


 4495              		.cfi_endproc
 4496              	.LFE283:
 4497              		.size	usb_lld_read_setup, .-usb_lld_read_setup
 4498              		.section	.text.usb_lld_prepare_receive,"ax",%progbits
 4499              		.align	1
 4500              		.p2align 4,,15
 4501              		.global	usb_lld_prepare_receive
 4502              		.syntax unified
 4503              		.thumb
 4504              		.thumb_func
 4505              		.fpu fpv4-sp-d16
 4506              		.type	usb_lld_prepare_receive, %function
 4507              	usb_lld_prepare_receive:
 4508              	.LFB284:
 4509              		.loc 7 1159 0
 4510              		.cfi_startproc
 4511              		@ args = 0, pretend = 0, frame = 24
 4512              		@ frame_needed = 0, uses_anonymous_args = 0
 4513 0000 00B5     		push	{lr}
 4514              		.cfi_def_cfa_offset 4
 4515              		.cfi_offset 14, -4
 4516 0002 87B0     		sub	sp, sp, #28
 4517              		.cfi_def_cfa_offset 32
 4518 0004 0190     		str	r0, [sp, #4]
 4519 0006 0B46     		mov	r3, r1
 4520 0008 8DF80330 		strb	r3, [sp, #3]
 4521              		.loc 7 1159 0
 4522 000c 264B     		ldr	r3, .L304
 4523 000e 1B68     		ldr	r3, [r3]
 4524 0010 0593     		str	r3, [sp, #20]
 4525              		.loc 7 1161 0
 4526 0012 9DF80330 		ldrb	r3, [sp, #3]	@ zero_extendqisi2
 4527 0016 019A     		ldr	r2, [sp, #4]
 4528 0018 0233     		adds	r3, r3, #2
 4529 001a 9B00     		lsls	r3, r3, #2
 4530 001c 1344     		add	r3, r3, r2
 4531 001e 5B68     		ldr	r3, [r3, #4]
 4532 0020 9B69     		ldr	r3, [r3, #24]
 4533 0022 0393     		str	r3, [sp, #12]
 4534              		.loc 7 1164 0
 4535 0024 039B     		ldr	r3, [sp, #12]
 4536 0026 5A68     		ldr	r2, [r3, #4]
 4537 0028 039B     		ldr	r3, [sp, #12]
 4538 002a 1A61     		str	r2, [r3, #16]
 4539              		.loc 7 1165 0
 4540 002c 9DF80330 		ldrb	r3, [sp, #3]	@ zero_extendqisi2
 4541 0030 002B     		cmp	r3, #0
 4542 0032 06D1     		bne	.L302
 4543              		.loc 7 1165 0 is_stmt 0 discriminator 1
 4544 0034 039B     		ldr	r3, [sp, #12]
 4545 0036 5B68     		ldr	r3, [r3, #4]
 4546 0038 402B     		cmp	r3, #64
 4547 003a 02D9     		bls	.L302
 4548              		.loc 7 1166 0 is_stmt 1
 4549 003c 039B     		ldr	r3, [sp, #12]
 4550 003e 4022     		movs	r2, #64
 4551 0040 5A60     		str	r2, [r3, #4]
ARM GAS  C:\Users\PCHAUT~1\AppData\Local\Temp\ccJuO4y2.s 			page 81


 4552              	.L302:
 4553              		.loc 7 1168 0
 4554 0042 039B     		ldr	r3, [sp, #12]
 4555 0044 5A68     		ldr	r2, [r3, #4]
 4556 0046 9DF80330 		ldrb	r3, [sp, #3]	@ zero_extendqisi2
 4557 004a 0199     		ldr	r1, [sp, #4]
 4558 004c 0233     		adds	r3, r3, #2
 4559 004e 9B00     		lsls	r3, r3, #2
 4560 0050 0B44     		add	r3, r3, r1
 4561 0052 5B68     		ldr	r3, [r3, #4]
 4562 0054 5B8A     		ldrh	r3, [r3, #18]
 4563 0056 1344     		add	r3, r3, r2
 4564 0058 5A1E     		subs	r2, r3, #1
 4565              		.loc 7 1169 0
 4566 005a 9DF80330 		ldrb	r3, [sp, #3]	@ zero_extendqisi2
 4567 005e 0199     		ldr	r1, [sp, #4]
 4568 0060 0233     		adds	r3, r3, #2
 4569 0062 9B00     		lsls	r3, r3, #2
 4570 0064 0B44     		add	r3, r3, r1
 4571 0066 5B68     		ldr	r3, [r3, #4]
 4572 0068 5B8A     		ldrh	r3, [r3, #18]
 4573              		.loc 7 1168 0
 4574 006a B2FBF3F3 		udiv	r3, r2, r3
 4575 006e 0493     		str	r3, [sp, #16]
 4576              		.loc 7 1170 0
 4577 0070 049B     		ldr	r3, [sp, #16]
 4578 0072 DA04     		lsls	r2, r3, #19
 4579              		.loc 7 1171 0
 4580 0074 039B     		ldr	r3, [sp, #12]
 4581 0076 5B68     		ldr	r3, [r3, #4]
 4582              		.loc 7 1170 0
 4583 0078 1A43     		orrs	r2, r2, r3
 4584 007a 019B     		ldr	r3, [sp, #4]
 4585 007c 196D     		ldr	r1, [r3, #80]
 4586 007e 9DF80330 		ldrb	r3, [sp, #3]	@ zero_extendqisi2
 4587 0082 42F0C042 		orr	r2, r2, #1610612736
 4588 0086 5B01     		lsls	r3, r3, #5
 4589 0088 0B44     		add	r3, r3, r1
 4590 008a 03F53163 		add	r3, r3, #2832
 4591 008e 1A60     		str	r2, [r3]
 4592              		.loc 7 1173 0
 4593 0090 00BF     		nop
 4594 0092 054B     		ldr	r3, .L304
 4595 0094 059A     		ldr	r2, [sp, #20]
 4596 0096 1B68     		ldr	r3, [r3]
 4597 0098 9A42     		cmp	r2, r3
 4598 009a 01D0     		beq	.L303
 4599 009c FFF7FEFF 		bl	__stack_chk_fail
 4600              	.L303:
 4601 00a0 07B0     		add	sp, sp, #28
 4602              		.cfi_def_cfa_offset 4
 4603              		@ sp needed
 4604 00a2 5DF804FB 		ldr	pc, [sp], #4
 4605              	.L305:
 4606 00a6 00BF     		.align	2
 4607              	.L304:
 4608 00a8 00000000 		.word	__stack_chk_guard
ARM GAS  C:\Users\PCHAUT~1\AppData\Local\Temp\ccJuO4y2.s 			page 82


 4609              		.cfi_endproc
 4610              	.LFE284:
 4611              		.size	usb_lld_prepare_receive, .-usb_lld_prepare_receive
 4612              		.section	.text.usb_lld_prepare_transmit,"ax",%progbits
 4613              		.align	1
 4614              		.p2align 4,,15
 4615              		.global	usb_lld_prepare_transmit
 4616              		.syntax unified
 4617              		.thumb
 4618              		.thumb_func
 4619              		.fpu fpv4-sp-d16
 4620              		.type	usb_lld_prepare_transmit, %function
 4621              	usb_lld_prepare_transmit:
 4622              	.LFB285:
 4623              		.loc 7 1183 0
 4624              		.cfi_startproc
 4625              		@ args = 0, pretend = 0, frame = 24
 4626              		@ frame_needed = 0, uses_anonymous_args = 0
 4627 0000 00B5     		push	{lr}
 4628              		.cfi_def_cfa_offset 4
 4629              		.cfi_offset 14, -4
 4630 0002 87B0     		sub	sp, sp, #28
 4631              		.cfi_def_cfa_offset 32
 4632 0004 0190     		str	r0, [sp, #4]
 4633 0006 0B46     		mov	r3, r1
 4634 0008 8DF80330 		strb	r3, [sp, #3]
 4635              		.loc 7 1183 0
 4636 000c 2D4B     		ldr	r3, .L312
 4637 000e 1B68     		ldr	r3, [r3]
 4638 0010 0593     		str	r3, [sp, #20]
 4639              		.loc 7 1184 0
 4640 0012 9DF80330 		ldrb	r3, [sp, #3]	@ zero_extendqisi2
 4641 0016 019A     		ldr	r2, [sp, #4]
 4642 0018 0233     		adds	r3, r3, #2
 4643 001a 9B00     		lsls	r3, r3, #2
 4644 001c 1344     		add	r3, r3, r2
 4645 001e 5B68     		ldr	r3, [r3, #4]
 4646 0020 5B69     		ldr	r3, [r3, #20]
 4647 0022 0393     		str	r3, [sp, #12]
 4648              		.loc 7 1187 0
 4649 0024 039B     		ldr	r3, [sp, #12]
 4650 0026 5A68     		ldr	r2, [r3, #4]
 4651 0028 039B     		ldr	r3, [sp, #12]
 4652 002a 1A61     		str	r2, [r3, #16]
 4653              		.loc 7 1188 0
 4654 002c 039B     		ldr	r3, [sp, #12]
 4655 002e 5B68     		ldr	r3, [r3, #4]
 4656 0030 002B     		cmp	r3, #0
 4657 0032 0BD1     		bne	.L307
 4658              		.loc 7 1190 0
 4659 0034 019B     		ldr	r3, [sp, #4]
 4660 0036 1A6D     		ldr	r2, [r3, #80]
 4661 0038 9DF80330 		ldrb	r3, [sp, #3]	@ zero_extendqisi2
 4662 003c 5B01     		lsls	r3, r3, #5
 4663 003e 1344     		add	r3, r3, r2
 4664 0040 03F51163 		add	r3, r3, #2320
 4665 0044 4FF40022 		mov	r2, #524288
ARM GAS  C:\Users\PCHAUT~1\AppData\Local\Temp\ccJuO4y2.s 			page 83


 4666 0048 1A60     		str	r2, [r3]
 4667              		.loc 7 1202 0
 4668 004a 2FE0     		b	.L311
 4669              	.L307:
 4670              	.LBB23:
 4671              		.loc 7 1193 0
 4672 004c 9DF80330 		ldrb	r3, [sp, #3]	@ zero_extendqisi2
 4673 0050 002B     		cmp	r3, #0
 4674 0052 06D1     		bne	.L309
 4675              		.loc 7 1193 0 is_stmt 0 discriminator 1
 4676 0054 039B     		ldr	r3, [sp, #12]
 4677 0056 5B68     		ldr	r3, [r3, #4]
 4678 0058 402B     		cmp	r3, #64
 4679 005a 02D9     		bls	.L309
 4680              		.loc 7 1194 0 is_stmt 1
 4681 005c 039B     		ldr	r3, [sp, #12]
 4682 005e 4022     		movs	r2, #64
 4683 0060 5A60     		str	r2, [r3, #4]
 4684              	.L309:
 4685              		.loc 7 1197 0
 4686 0062 039B     		ldr	r3, [sp, #12]
 4687 0064 5A68     		ldr	r2, [r3, #4]
 4688 0066 9DF80330 		ldrb	r3, [sp, #3]	@ zero_extendqisi2
 4689 006a 0199     		ldr	r1, [sp, #4]
 4690 006c 0233     		adds	r3, r3, #2
 4691 006e 9B00     		lsls	r3, r3, #2
 4692 0070 0B44     		add	r3, r3, r1
 4693 0072 5B68     		ldr	r3, [r3, #4]
 4694 0074 1B8A     		ldrh	r3, [r3, #16]
 4695 0076 1344     		add	r3, r3, r2
 4696 0078 5A1E     		subs	r2, r3, #1
 4697              		.loc 7 1198 0
 4698 007a 9DF80330 		ldrb	r3, [sp, #3]	@ zero_extendqisi2
 4699 007e 0199     		ldr	r1, [sp, #4]
 4700 0080 0233     		adds	r3, r3, #2
 4701 0082 9B00     		lsls	r3, r3, #2
 4702 0084 0B44     		add	r3, r3, r1
 4703 0086 5B68     		ldr	r3, [r3, #4]
 4704 0088 1B8A     		ldrh	r3, [r3, #16]
 4705              		.loc 7 1197 0
 4706 008a B2FBF3F3 		udiv	r3, r2, r3
 4707 008e 0493     		str	r3, [sp, #16]
 4708              		.loc 7 1199 0
 4709 0090 049B     		ldr	r3, [sp, #16]
 4710 0092 D804     		lsls	r0, r3, #19
 4711              		.loc 7 1200 0
 4712 0094 039B     		ldr	r3, [sp, #12]
 4713 0096 5A68     		ldr	r2, [r3, #4]
 4714              		.loc 7 1199 0
 4715 0098 019B     		ldr	r3, [sp, #4]
 4716 009a 196D     		ldr	r1, [r3, #80]
 4717 009c 9DF80330 		ldrb	r3, [sp, #3]	@ zero_extendqisi2
 4718 00a0 0243     		orrs	r2, r2, r0
 4719 00a2 5B01     		lsls	r3, r3, #5
 4720 00a4 0B44     		add	r3, r3, r1
 4721 00a6 03F51163 		add	r3, r3, #2320
 4722 00aa 1A60     		str	r2, [r3]
ARM GAS  C:\Users\PCHAUT~1\AppData\Local\Temp\ccJuO4y2.s 			page 84


 4723              	.L311:
 4724              	.LBE23:
 4725              		.loc 7 1202 0
 4726 00ac 00BF     		nop
 4727 00ae 054B     		ldr	r3, .L312
 4728 00b0 059A     		ldr	r2, [sp, #20]
 4729 00b2 1B68     		ldr	r3, [r3]
 4730 00b4 9A42     		cmp	r2, r3
 4731 00b6 01D0     		beq	.L310
 4732 00b8 FFF7FEFF 		bl	__stack_chk_fail
 4733              	.L310:
 4734 00bc 07B0     		add	sp, sp, #28
 4735              		.cfi_def_cfa_offset 4
 4736              		@ sp needed
 4737 00be 5DF804FB 		ldr	pc, [sp], #4
 4738              	.L313:
 4739 00c2 00BF     		.align	2
 4740              	.L312:
 4741 00c4 00000000 		.word	__stack_chk_guard
 4742              		.cfi_endproc
 4743              	.LFE285:
 4744              		.size	usb_lld_prepare_transmit, .-usb_lld_prepare_transmit
 4745              		.section	.text.usb_lld_start_out,"ax",%progbits
 4746              		.align	1
 4747              		.p2align 4,,15
 4748              		.global	usb_lld_start_out
 4749              		.syntax unified
 4750              		.thumb
 4751              		.thumb_func
 4752              		.fpu fpv4-sp-d16
 4753              		.type	usb_lld_start_out, %function
 4754              	usb_lld_start_out:
 4755              	.LFB286:
 4756              		.loc 7 1212 0
 4757              		.cfi_startproc
 4758              		@ args = 0, pretend = 0, frame = 16
 4759              		@ frame_needed = 0, uses_anonymous_args = 0
 4760 0000 00B5     		push	{lr}
 4761              		.cfi_def_cfa_offset 4
 4762              		.cfi_offset 14, -4
 4763 0002 85B0     		sub	sp, sp, #20
 4764              		.cfi_def_cfa_offset 24
 4765 0004 0190     		str	r0, [sp, #4]
 4766 0006 0B46     		mov	r3, r1
 4767 0008 8DF80330 		strb	r3, [sp, #3]
 4768              		.loc 7 1212 0
 4769 000c 0F4B     		ldr	r3, .L316
 4770 000e 1B68     		ldr	r3, [r3]
 4771 0010 0393     		str	r3, [sp, #12]
 4772              		.loc 7 1214 0
 4773 0012 019B     		ldr	r3, [sp, #4]
 4774 0014 1A6D     		ldr	r2, [r3, #80]
 4775 0016 9DF80330 		ldrb	r3, [sp, #3]	@ zero_extendqisi2
 4776 001a 5833     		adds	r3, r3, #88
 4777 001c 5B01     		lsls	r3, r3, #5
 4778 001e 1344     		add	r3, r3, r2
 4779 0020 1A68     		ldr	r2, [r3]
ARM GAS  C:\Users\PCHAUT~1\AppData\Local\Temp\ccJuO4y2.s 			page 85


 4780 0022 019B     		ldr	r3, [sp, #4]
 4781 0024 196D     		ldr	r1, [r3, #80]
 4782 0026 9DF80330 		ldrb	r3, [sp, #3]	@ zero_extendqisi2
 4783 002a 42F08062 		orr	r2, r2, #67108864
 4784 002e 5833     		adds	r3, r3, #88
 4785 0030 5B01     		lsls	r3, r3, #5
 4786 0032 0B44     		add	r3, r3, r1
 4787 0034 1A60     		str	r2, [r3]
 4788              		.loc 7 1215 0
 4789 0036 00BF     		nop
 4790 0038 044B     		ldr	r3, .L316
 4791 003a 039A     		ldr	r2, [sp, #12]
 4792 003c 1B68     		ldr	r3, [r3]
 4793 003e 9A42     		cmp	r2, r3
 4794 0040 01D0     		beq	.L315
 4795 0042 FFF7FEFF 		bl	__stack_chk_fail
 4796              	.L315:
 4797 0046 05B0     		add	sp, sp, #20
 4798              		.cfi_def_cfa_offset 4
 4799              		@ sp needed
 4800 0048 5DF804FB 		ldr	pc, [sp], #4
 4801              	.L317:
 4802              		.align	2
 4803              	.L316:
 4804 004c 00000000 		.word	__stack_chk_guard
 4805              		.cfi_endproc
 4806              	.LFE286:
 4807              		.size	usb_lld_start_out, .-usb_lld_start_out
 4808              		.section	.text.usb_lld_start_in,"ax",%progbits
 4809              		.align	1
 4810              		.p2align 4,,15
 4811              		.global	usb_lld_start_in
 4812              		.syntax unified
 4813              		.thumb
 4814              		.thumb_func
 4815              		.fpu fpv4-sp-d16
 4816              		.type	usb_lld_start_in, %function
 4817              	usb_lld_start_in:
 4818              	.LFB287:
 4819              		.loc 7 1225 0
 4820              		.cfi_startproc
 4821              		@ args = 0, pretend = 0, frame = 16
 4822              		@ frame_needed = 0, uses_anonymous_args = 0
 4823 0000 00B5     		push	{lr}
 4824              		.cfi_def_cfa_offset 4
 4825              		.cfi_offset 14, -4
 4826 0002 85B0     		sub	sp, sp, #20
 4827              		.cfi_def_cfa_offset 24
 4828 0004 0190     		str	r0, [sp, #4]
 4829 0006 0B46     		mov	r3, r1
 4830 0008 8DF80330 		strb	r3, [sp, #3]
 4831              		.loc 7 1225 0
 4832 000c 164B     		ldr	r3, .L320
 4833 000e 1B68     		ldr	r3, [r3]
 4834 0010 0393     		str	r3, [sp, #12]
 4835              		.loc 7 1227 0
 4836 0012 019B     		ldr	r3, [sp, #4]
ARM GAS  C:\Users\PCHAUT~1\AppData\Local\Temp\ccJuO4y2.s 			page 86


 4837 0014 1A6D     		ldr	r2, [r3, #80]
 4838 0016 9DF80330 		ldrb	r3, [sp, #3]	@ zero_extendqisi2
 4839 001a 4833     		adds	r3, r3, #72
 4840 001c 5B01     		lsls	r3, r3, #5
 4841 001e 1344     		add	r3, r3, r2
 4842 0020 1A68     		ldr	r2, [r3]
 4843 0022 019B     		ldr	r3, [sp, #4]
 4844 0024 196D     		ldr	r1, [r3, #80]
 4845 0026 9DF80330 		ldrb	r3, [sp, #3]	@ zero_extendqisi2
 4846 002a 42F00442 		orr	r2, r2, #-2080374784
 4847 002e 4833     		adds	r3, r3, #72
 4848 0030 5B01     		lsls	r3, r3, #5
 4849 0032 0B44     		add	r3, r3, r1
 4850 0034 1A60     		str	r2, [r3]
 4851              		.loc 7 1228 0
 4852 0036 019B     		ldr	r3, [sp, #4]
 4853 0038 1B6D     		ldr	r3, [r3, #80]
 4854 003a D3F83418 		ldr	r1, [r3, #2100]
 4855 003e 9DF80330 		ldrb	r3, [sp, #3]	@ zero_extendqisi2
 4856 0042 0122     		movs	r2, #1
 4857 0044 9A40     		lsls	r2, r2, r3
 4858 0046 019B     		ldr	r3, [sp, #4]
 4859 0048 1B6D     		ldr	r3, [r3, #80]
 4860 004a 0A43     		orrs	r2, r2, r1
 4861 004c C3F83428 		str	r2, [r3, #2100]
 4862              		.loc 7 1229 0
 4863 0050 00BF     		nop
 4864 0052 054B     		ldr	r3, .L320
 4865 0054 039A     		ldr	r2, [sp, #12]
 4866 0056 1B68     		ldr	r3, [r3]
 4867 0058 9A42     		cmp	r2, r3
 4868 005a 01D0     		beq	.L319
 4869 005c FFF7FEFF 		bl	__stack_chk_fail
 4870              	.L319:
 4871 0060 05B0     		add	sp, sp, #20
 4872              		.cfi_def_cfa_offset 4
 4873              		@ sp needed
 4874 0062 5DF804FB 		ldr	pc, [sp], #4
 4875              	.L321:
 4876 0066 00BF     		.align	2
 4877              	.L320:
 4878 0068 00000000 		.word	__stack_chk_guard
 4879              		.cfi_endproc
 4880              	.LFE287:
 4881              		.size	usb_lld_start_in, .-usb_lld_start_in
 4882              		.section	.text.usb_lld_stall_out,"ax",%progbits
 4883              		.align	1
 4884              		.p2align 4,,15
 4885              		.global	usb_lld_stall_out
 4886              		.syntax unified
 4887              		.thumb
 4888              		.thumb_func
 4889              		.fpu fpv4-sp-d16
 4890              		.type	usb_lld_stall_out, %function
 4891              	usb_lld_stall_out:
 4892              	.LFB288:
 4893              		.loc 7 1239 0
ARM GAS  C:\Users\PCHAUT~1\AppData\Local\Temp\ccJuO4y2.s 			page 87


 4894              		.cfi_startproc
 4895              		@ args = 0, pretend = 0, frame = 16
 4896              		@ frame_needed = 0, uses_anonymous_args = 0
 4897 0000 00B5     		push	{lr}
 4898              		.cfi_def_cfa_offset 4
 4899              		.cfi_offset 14, -4
 4900 0002 85B0     		sub	sp, sp, #20
 4901              		.cfi_def_cfa_offset 24
 4902 0004 0190     		str	r0, [sp, #4]
 4903 0006 0B46     		mov	r3, r1
 4904 0008 8DF80330 		strb	r3, [sp, #3]
 4905              		.loc 7 1239 0
 4906 000c 0F4B     		ldr	r3, .L324
 4907 000e 1B68     		ldr	r3, [r3]
 4908 0010 0393     		str	r3, [sp, #12]
 4909              		.loc 7 1241 0
 4910 0012 019B     		ldr	r3, [sp, #4]
 4911 0014 1A6D     		ldr	r2, [r3, #80]
 4912 0016 9DF80330 		ldrb	r3, [sp, #3]	@ zero_extendqisi2
 4913 001a 5833     		adds	r3, r3, #88
 4914 001c 5B01     		lsls	r3, r3, #5
 4915 001e 1344     		add	r3, r3, r2
 4916 0020 1A68     		ldr	r2, [r3]
 4917 0022 019B     		ldr	r3, [sp, #4]
 4918 0024 196D     		ldr	r1, [r3, #80]
 4919 0026 9DF80330 		ldrb	r3, [sp, #3]	@ zero_extendqisi2
 4920 002a 42F40012 		orr	r2, r2, #2097152
 4921 002e 5833     		adds	r3, r3, #88
 4922 0030 5B01     		lsls	r3, r3, #5
 4923 0032 0B44     		add	r3, r3, r1
 4924 0034 1A60     		str	r2, [r3]
 4925              		.loc 7 1242 0
 4926 0036 00BF     		nop
 4927 0038 044B     		ldr	r3, .L324
 4928 003a 039A     		ldr	r2, [sp, #12]
 4929 003c 1B68     		ldr	r3, [r3]
 4930 003e 9A42     		cmp	r2, r3
 4931 0040 01D0     		beq	.L323
 4932 0042 FFF7FEFF 		bl	__stack_chk_fail
 4933              	.L323:
 4934 0046 05B0     		add	sp, sp, #20
 4935              		.cfi_def_cfa_offset 4
 4936              		@ sp needed
 4937 0048 5DF804FB 		ldr	pc, [sp], #4
 4938              	.L325:
 4939              		.align	2
 4940              	.L324:
 4941 004c 00000000 		.word	__stack_chk_guard
 4942              		.cfi_endproc
 4943              	.LFE288:
 4944              		.size	usb_lld_stall_out, .-usb_lld_stall_out
 4945              		.section	.text.usb_lld_stall_in,"ax",%progbits
 4946              		.align	1
 4947              		.p2align 4,,15
 4948              		.global	usb_lld_stall_in
 4949              		.syntax unified
 4950              		.thumb
ARM GAS  C:\Users\PCHAUT~1\AppData\Local\Temp\ccJuO4y2.s 			page 88


 4951              		.thumb_func
 4952              		.fpu fpv4-sp-d16
 4953              		.type	usb_lld_stall_in, %function
 4954              	usb_lld_stall_in:
 4955              	.LFB289:
 4956              		.loc 7 1252 0
 4957              		.cfi_startproc
 4958              		@ args = 0, pretend = 0, frame = 16
 4959              		@ frame_needed = 0, uses_anonymous_args = 0
 4960 0000 00B5     		push	{lr}
 4961              		.cfi_def_cfa_offset 4
 4962              		.cfi_offset 14, -4
 4963 0002 85B0     		sub	sp, sp, #20
 4964              		.cfi_def_cfa_offset 24
 4965 0004 0190     		str	r0, [sp, #4]
 4966 0006 0B46     		mov	r3, r1
 4967 0008 8DF80330 		strb	r3, [sp, #3]
 4968              		.loc 7 1252 0
 4969 000c 0F4B     		ldr	r3, .L328
 4970 000e 1B68     		ldr	r3, [r3]
 4971 0010 0393     		str	r3, [sp, #12]
 4972              		.loc 7 1254 0
 4973 0012 019B     		ldr	r3, [sp, #4]
 4974 0014 1A6D     		ldr	r2, [r3, #80]
 4975 0016 9DF80330 		ldrb	r3, [sp, #3]	@ zero_extendqisi2
 4976 001a 4833     		adds	r3, r3, #72
 4977 001c 5B01     		lsls	r3, r3, #5
 4978 001e 1344     		add	r3, r3, r2
 4979 0020 1A68     		ldr	r2, [r3]
 4980 0022 019B     		ldr	r3, [sp, #4]
 4981 0024 196D     		ldr	r1, [r3, #80]
 4982 0026 9DF80330 		ldrb	r3, [sp, #3]	@ zero_extendqisi2
 4983 002a 42F40012 		orr	r2, r2, #2097152
 4984 002e 4833     		adds	r3, r3, #72
 4985 0030 5B01     		lsls	r3, r3, #5
 4986 0032 0B44     		add	r3, r3, r1
 4987 0034 1A60     		str	r2, [r3]
 4988              		.loc 7 1255 0
 4989 0036 00BF     		nop
 4990 0038 044B     		ldr	r3, .L328
 4991 003a 039A     		ldr	r2, [sp, #12]
 4992 003c 1B68     		ldr	r3, [r3]
 4993 003e 9A42     		cmp	r2, r3
 4994 0040 01D0     		beq	.L327
 4995 0042 FFF7FEFF 		bl	__stack_chk_fail
 4996              	.L327:
 4997 0046 05B0     		add	sp, sp, #20
 4998              		.cfi_def_cfa_offset 4
 4999              		@ sp needed
 5000 0048 5DF804FB 		ldr	pc, [sp], #4
 5001              	.L329:
 5002              		.align	2
 5003              	.L328:
 5004 004c 00000000 		.word	__stack_chk_guard
 5005              		.cfi_endproc
 5006              	.LFE289:
 5007              		.size	usb_lld_stall_in, .-usb_lld_stall_in
ARM GAS  C:\Users\PCHAUT~1\AppData\Local\Temp\ccJuO4y2.s 			page 89


 5008              		.section	.text.usb_lld_clear_out,"ax",%progbits
 5009              		.align	1
 5010              		.p2align 4,,15
 5011              		.global	usb_lld_clear_out
 5012              		.syntax unified
 5013              		.thumb
 5014              		.thumb_func
 5015              		.fpu fpv4-sp-d16
 5016              		.type	usb_lld_clear_out, %function
 5017              	usb_lld_clear_out:
 5018              	.LFB290:
 5019              		.loc 7 1265 0
 5020              		.cfi_startproc
 5021              		@ args = 0, pretend = 0, frame = 16
 5022              		@ frame_needed = 0, uses_anonymous_args = 0
 5023 0000 00B5     		push	{lr}
 5024              		.cfi_def_cfa_offset 4
 5025              		.cfi_offset 14, -4
 5026 0002 85B0     		sub	sp, sp, #20
 5027              		.cfi_def_cfa_offset 24
 5028 0004 0190     		str	r0, [sp, #4]
 5029 0006 0B46     		mov	r3, r1
 5030 0008 8DF80330 		strb	r3, [sp, #3]
 5031              		.loc 7 1265 0
 5032 000c 0F4B     		ldr	r3, .L332
 5033 000e 1B68     		ldr	r3, [r3]
 5034 0010 0393     		str	r3, [sp, #12]
 5035              		.loc 7 1267 0
 5036 0012 019B     		ldr	r3, [sp, #4]
 5037 0014 1A6D     		ldr	r2, [r3, #80]
 5038 0016 9DF80330 		ldrb	r3, [sp, #3]	@ zero_extendqisi2
 5039 001a 5833     		adds	r3, r3, #88
 5040 001c 5B01     		lsls	r3, r3, #5
 5041 001e 1344     		add	r3, r3, r2
 5042 0020 1A68     		ldr	r2, [r3]
 5043 0022 019B     		ldr	r3, [sp, #4]
 5044 0024 196D     		ldr	r1, [r3, #80]
 5045 0026 9DF80330 		ldrb	r3, [sp, #3]	@ zero_extendqisi2
 5046 002a 22F40012 		bic	r2, r2, #2097152
 5047 002e 5833     		adds	r3, r3, #88
 5048 0030 5B01     		lsls	r3, r3, #5
 5049 0032 0B44     		add	r3, r3, r1
 5050 0034 1A60     		str	r2, [r3]
 5051              		.loc 7 1268 0
 5052 0036 00BF     		nop
 5053 0038 044B     		ldr	r3, .L332
 5054 003a 039A     		ldr	r2, [sp, #12]
 5055 003c 1B68     		ldr	r3, [r3]
 5056 003e 9A42     		cmp	r2, r3
 5057 0040 01D0     		beq	.L331
 5058 0042 FFF7FEFF 		bl	__stack_chk_fail
 5059              	.L331:
 5060 0046 05B0     		add	sp, sp, #20
 5061              		.cfi_def_cfa_offset 4
 5062              		@ sp needed
 5063 0048 5DF804FB 		ldr	pc, [sp], #4
 5064              	.L333:
ARM GAS  C:\Users\PCHAUT~1\AppData\Local\Temp\ccJuO4y2.s 			page 90


 5065              		.align	2
 5066              	.L332:
 5067 004c 00000000 		.word	__stack_chk_guard
 5068              		.cfi_endproc
 5069              	.LFE290:
 5070              		.size	usb_lld_clear_out, .-usb_lld_clear_out
 5071              		.section	.text.usb_lld_clear_in,"ax",%progbits
 5072              		.align	1
 5073              		.p2align 4,,15
 5074              		.global	usb_lld_clear_in
 5075              		.syntax unified
 5076              		.thumb
 5077              		.thumb_func
 5078              		.fpu fpv4-sp-d16
 5079              		.type	usb_lld_clear_in, %function
 5080              	usb_lld_clear_in:
 5081              	.LFB291:
 5082              		.loc 7 1278 0
 5083              		.cfi_startproc
 5084              		@ args = 0, pretend = 0, frame = 16
 5085              		@ frame_needed = 0, uses_anonymous_args = 0
 5086 0000 00B5     		push	{lr}
 5087              		.cfi_def_cfa_offset 4
 5088              		.cfi_offset 14, -4
 5089 0002 85B0     		sub	sp, sp, #20
 5090              		.cfi_def_cfa_offset 24
 5091 0004 0190     		str	r0, [sp, #4]
 5092 0006 0B46     		mov	r3, r1
 5093 0008 8DF80330 		strb	r3, [sp, #3]
 5094              		.loc 7 1278 0
 5095 000c 0F4B     		ldr	r3, .L336
 5096 000e 1B68     		ldr	r3, [r3]
 5097 0010 0393     		str	r3, [sp, #12]
 5098              		.loc 7 1280 0
 5099 0012 019B     		ldr	r3, [sp, #4]
 5100 0014 1A6D     		ldr	r2, [r3, #80]
 5101 0016 9DF80330 		ldrb	r3, [sp, #3]	@ zero_extendqisi2
 5102 001a 4833     		adds	r3, r3, #72
 5103 001c 5B01     		lsls	r3, r3, #5
 5104 001e 1344     		add	r3, r3, r2
 5105 0020 1A68     		ldr	r2, [r3]
 5106 0022 019B     		ldr	r3, [sp, #4]
 5107 0024 196D     		ldr	r1, [r3, #80]
 5108 0026 9DF80330 		ldrb	r3, [sp, #3]	@ zero_extendqisi2
 5109 002a 22F40012 		bic	r2, r2, #2097152
 5110 002e 4833     		adds	r3, r3, #72
 5111 0030 5B01     		lsls	r3, r3, #5
 5112 0032 0B44     		add	r3, r3, r1
 5113 0034 1A60     		str	r2, [r3]
 5114              		.loc 7 1281 0
 5115 0036 00BF     		nop
 5116 0038 044B     		ldr	r3, .L336
 5117 003a 039A     		ldr	r2, [sp, #12]
 5118 003c 1B68     		ldr	r3, [r3]
 5119 003e 9A42     		cmp	r2, r3
 5120 0040 01D0     		beq	.L335
 5121 0042 FFF7FEFF 		bl	__stack_chk_fail
ARM GAS  C:\Users\PCHAUT~1\AppData\Local\Temp\ccJuO4y2.s 			page 91


 5122              	.L335:
 5123 0046 05B0     		add	sp, sp, #20
 5124              		.cfi_def_cfa_offset 4
 5125              		@ sp needed
 5126 0048 5DF804FB 		ldr	pc, [sp], #4
 5127              	.L337:
 5128              		.align	2
 5129              	.L336:
 5130 004c 00000000 		.word	__stack_chk_guard
 5131              		.cfi_endproc
 5132              	.LFE291:
 5133              		.size	usb_lld_clear_in, .-usb_lld_clear_in
 5134              		.section	.rodata
 5135              		.align	2
 5136              	.LC0:
 5137 0000 7573625F 		.ascii	"usb_lld_pump\000"
 5137      6C6C645F 
 5137      70756D70 
 5137      00
 5138              		.section	.text.usb_lld_pump,"ax",%progbits
 5139              		.align	1
 5140              		.p2align 4,,15
 5141              		.global	usb_lld_pump
 5142              		.syntax unified
 5143              		.thumb
 5144              		.thumb_func
 5145              		.fpu fpv4-sp-d16
 5146              		.type	usb_lld_pump, %function
 5147              	usb_lld_pump:
 5148              	.LFB292:
 5149              		.loc 7 1294 0
 5150              		.cfi_startproc
 5151              		@ args = 0, pretend = 0, frame = 32
 5152              		@ frame_needed = 0, uses_anonymous_args = 0
 5153 0000 00B5     		push	{lr}
 5154              		.cfi_def_cfa_offset 4
 5155              		.cfi_offset 14, -4
 5156 0002 89B0     		sub	sp, sp, #36
 5157              		.cfi_def_cfa_offset 40
 5158 0004 0190     		str	r0, [sp, #4]
 5159              		.loc 7 1294 0
 5160 0006 414B     		ldr	r3, .L349
 5161 0008 1B68     		ldr	r3, [r3]
 5162 000a 0793     		str	r3, [sp, #28]
 5163              		.loc 7 1295 0
 5164 000c 019B     		ldr	r3, [sp, #4]
 5165 000e 0493     		str	r3, [sp, #16]
 5166              		.loc 7 1296 0
 5167 0010 049B     		ldr	r3, [sp, #16]
 5168 0012 1B6D     		ldr	r3, [r3, #80]
 5169 0014 0593     		str	r3, [sp, #20]
 5170              		.loc 7 1299 0
 5171 0016 3E48     		ldr	r0, .L349+4
 5172 0018 FFF7FEFF 		bl	chRegSetThreadName
 5173              		.loc 7 1301 0
 5174 001c FFF7FEFF 		bl	osalSysLock
 5175              	.L347:
ARM GAS  C:\Users\PCHAUT~1\AppData\Local\Temp\ccJuO4y2.s 			page 92


 5176              	.LBB24:
 5177              		.loc 7 1307 0
 5178 0020 049B     		ldr	r3, [sp, #16]
 5179 0022 1B78     		ldrb	r3, [r3]	@ zero_extendqisi2
 5180 0024 012B     		cmp	r3, #1
 5181 0026 09D0     		beq	.L339
 5182              		.loc 7 1308 0 discriminator 1
 5183 0028 049B     		ldr	r3, [sp, #16]
 5184 002a DB6D     		ldr	r3, [r3, #92]
 5185              		.loc 7 1307 0 discriminator 1
 5186 002c 002B     		cmp	r3, #0
 5187 002e 10D1     		bne	.L340
 5188              		.loc 7 1308 0
 5189 0030 059B     		ldr	r3, [sp, #20]
 5190 0032 5B69     		ldr	r3, [r3, #20]
 5191 0034 03F01003 		and	r3, r3, #16
 5192 0038 002B     		cmp	r3, #0
 5193 003a 0AD1     		bne	.L340
 5194              	.L339:
 5195              		.loc 7 1309 0
 5196 003c 059B     		ldr	r3, [sp, #20]
 5197 003e 9B69     		ldr	r3, [r3, #24]
 5198 0040 43F01002 		orr	r2, r3, #16
 5199 0044 059B     		ldr	r3, [sp, #20]
 5200 0046 9A61     		str	r2, [r3, #24]
 5201              		.loc 7 1310 0
 5202 0048 049B     		ldr	r3, [sp, #16]
 5203 004a 6033     		adds	r3, r3, #96
 5204 004c 1846     		mov	r0, r3
 5205 004e FFF7FEFF 		bl	osalThreadSuspendS
 5206              	.L340:
 5207              		.loc 7 1312 0
 5208 0052 FFF7FEFF 		bl	osalSysUnlock
 5209              		.loc 7 1315 0
 5210 0056 0023     		movs	r3, #0
 5211 0058 8DF80E30 		strb	r3, [sp, #14]
 5212 005c 4CE0     		b	.L341
 5213              	.L343:
 5214              		.loc 7 1319 0
 5215 005e 0498     		ldr	r0, [sp, #16]
 5216 0060 FFF7FEFF 		bl	otg_rxfifo_handler
 5217              	.L342:
 5218              		.loc 7 1318 0
 5219 0064 059B     		ldr	r3, [sp, #20]
 5220 0066 5B69     		ldr	r3, [r3, #20]
 5221 0068 03F01003 		and	r3, r3, #16
 5222 006c 002B     		cmp	r3, #0
 5223 006e F6D1     		bne	.L343
 5224              		.loc 7 1322 0
 5225 0070 9DF80E30 		ldrb	r3, [sp, #14]	@ zero_extendqisi2
 5226 0074 0122     		movs	r2, #1
 5227 0076 02FA03F3 		lsl	r3, r2, r3
 5228 007a 0693     		str	r3, [sp, #24]
 5229              		.loc 7 1323 0
 5230 007c 049B     		ldr	r3, [sp, #16]
 5231 007e DA6D     		ldr	r2, [r3, #92]
 5232 0080 069B     		ldr	r3, [sp, #24]
ARM GAS  C:\Users\PCHAUT~1\AppData\Local\Temp\ccJuO4y2.s 			page 93


 5233 0082 1340     		ands	r3, r3, r2
 5234 0084 002B     		cmp	r3, #0
 5235 0086 32D0     		beq	.L344
 5236              	.LBB25:
 5237              		.loc 7 1326 0
 5238 0088 FFF7FEFF 		bl	osalSysLock
 5239              		.loc 7 1334 0
 5240 008c 059B     		ldr	r3, [sp, #20]
 5241 008e 9B68     		ldr	r3, [r3, #8]
 5242 0090 23F00102 		bic	r2, r3, #1
 5243 0094 059B     		ldr	r3, [sp, #20]
 5244 0096 9A60     		str	r2, [r3, #8]
 5245              		.loc 7 1335 0
 5246 0098 049B     		ldr	r3, [sp, #16]
 5247 009a DA6D     		ldr	r2, [r3, #92]
 5248 009c 069B     		ldr	r3, [sp, #24]
 5249 009e DB43     		mvns	r3, r3
 5250 00a0 1A40     		ands	r2, r2, r3
 5251 00a2 049B     		ldr	r3, [sp, #16]
 5252 00a4 DA65     		str	r2, [r3, #92]
 5253              		.loc 7 1336 0
 5254 00a6 FFF7FEFF 		bl	osalSysUnlock
 5255              		.loc 7 1338 0
 5256 00aa 9DF80E30 		ldrb	r3, [sp, #14]	@ zero_extendqisi2
 5257 00ae 1946     		mov	r1, r3
 5258 00b0 0498     		ldr	r0, [sp, #16]
 5259 00b2 FFF7FEFF 		bl	otg_txfifo_handler
 5260 00b6 0346     		mov	r3, r0
 5261 00b8 8DF80F30 		strb	r3, [sp, #15]
 5262              		.loc 7 1340 0
 5263 00bc FFF7FEFF 		bl	osalSysLock
 5264              		.loc 7 1341 0
 5265 00c0 059B     		ldr	r3, [sp, #20]
 5266 00c2 9B68     		ldr	r3, [r3, #8]
 5267 00c4 43F00102 		orr	r2, r3, #1
 5268 00c8 059B     		ldr	r3, [sp, #20]
 5269 00ca 9A60     		str	r2, [r3, #8]
 5270              		.loc 7 1342 0
 5271 00cc 9DF80F30 		ldrb	r3, [sp, #15]
 5272 00d0 83F00103 		eor	r3, r3, #1
 5273 00d4 DBB2     		uxtb	r3, r3
 5274 00d6 002B     		cmp	r3, #0
 5275 00d8 07D0     		beq	.L345
 5276              		.loc 7 1343 0
 5277 00da 059B     		ldr	r3, [sp, #20]
 5278 00dc D3F83428 		ldr	r2, [r3, #2100]
 5279 00e0 069B     		ldr	r3, [sp, #24]
 5280 00e2 1A43     		orrs	r2, r2, r3
 5281 00e4 059B     		ldr	r3, [sp, #20]
 5282 00e6 C3F83428 		str	r2, [r3, #2100]
 5283              	.L345:
 5284              		.loc 7 1344 0
 5285 00ea FFF7FEFF 		bl	osalSysUnlock
 5286              	.L344:
 5287              	.LBE25:
 5288              		.loc 7 1315 0 discriminator 2
 5289 00ee 9DF80E30 		ldrb	r3, [sp, #14]	@ zero_extendqisi2
ARM GAS  C:\Users\PCHAUT~1\AppData\Local\Temp\ccJuO4y2.s 			page 94


 5290 00f2 0133     		adds	r3, r3, #1
 5291 00f4 8DF80E30 		strb	r3, [sp, #14]
 5292              	.L341:
 5293              		.loc 7 1315 0 is_stmt 0 discriminator 1
 5294 00f8 9DF80E20 		ldrb	r2, [sp, #14]	@ zero_extendqisi2
 5295 00fc 049B     		ldr	r3, [sp, #16]
 5296 00fe 5B6D     		ldr	r3, [r3, #84]
 5297 0100 9B68     		ldr	r3, [r3, #8]
 5298 0102 9A42     		cmp	r2, r3
 5299 0104 AED9     		bls	.L342
 5300              		.loc 7 1347 0 is_stmt 1
 5301 0106 FFF7FEFF 		bl	osalSysLock
 5302              	.LBE24:
 5303              		.loc 7 1302 0
 5304 010a 89E7     		b	.L347
 5305              	.L350:
 5306              		.align	2
 5307              	.L349:
 5308 010c 00000000 		.word	__stack_chk_guard
 5309 0110 00000000 		.word	.LC0
 5310              		.cfi_endproc
 5311              	.LFE292:
 5312              		.size	usb_lld_pump, .-usb_lld_pump
 5313              		.section	.rodata.__func__.10294,"a",%progbits
 5314              		.align	2
 5315              		.type	__func__.10294, %object
 5316              		.size	__func__.10294, 14
 5317              	__func__.10294:
 5318 0000 6F74675F 		.ascii	"otg_ram_alloc\000"
 5318      72616D5F 
 5318      616C6C6F 
 5318      6300
 5319              		.section	.rodata.__func__.7554,"a",%progbits
 5320              		.align	2
 5321              		.type	__func__.7554, %object
 5322              		.size	__func__.7554, 12
 5323              	__func__.7554:
 5324 0000 63685379 		.ascii	"chSysUnlock\000"
 5324      73556E6C 
 5324      6F636B00 
 5325              		.section	.rodata.__func__.7721,"a",%progbits
 5326              		.align	2
 5327              		.type	__func__.7721, %object
 5328              		.size	__func__.7721, 12
 5329              	__func__.7721:
 5330 0000 63685468 		.ascii	"chThdStartI\000"
 5330      64537461 
 5330      72744900 
 5331              		.text
 5332              	.Letext0:
 5333              		.file 8 "c:\\users\\pchautems\\documents\\robotiquetp\\eclipse_e-puck2\\tools\\gcc-arm-none-eabi-7
 5334              		.file 9 "c:\\users\\pchautems\\documents\\robotiquetp\\eclipse_e-puck2\\tools\\gcc-arm-none-eabi-7
 5335              		.file 10 "c:\\users\\pchautems\\documents\\robotiquetp\\eclipse_e-puck2\\tools\\gcc-arm-none-eabi-
 5336              		.file 11 "c:\\users\\pchautems\\documents\\robotiquetp\\eclipse_e-puck2\\tools\\gcc-arm-none-eabi-
 5337              		.file 12 "c:\\users\\pchautems\\documents\\robotiquetp\\eclipse_e-puck2\\tools\\gcc-arm-none-eabi-
 5338              		.file 13 "c:\\users\\pchautems\\documents\\robotiquetp\\eclipse_e-puck2\\tools\\gcc-arm-none-eabi-
 5339              		.file 14 "../lib/e-puck2_main-processor/ChibiOS//os/rt/ports/ARMCMx/compilers/GCC/chtypes.h"
ARM GAS  C:\Users\PCHAUT~1\AppData\Local\Temp\ccJuO4y2.s 			page 95


 5340              		.file 15 "../lib/e-puck2_main-processor/ChibiOS//os/rt/include/chsystypes.h"
 5341              		.file 16 "../lib/e-puck2_main-processor/ChibiOS//os/rt/include/chschd.h"
 5342              		.file 17 "../lib/e-puck2_main-processor/ChibiOS//os/ext/CMSIS/include/core_cm4.h"
 5343              		.file 18 "../lib/e-puck2_main-processor/ChibiOS//os/ext/CMSIS/ST/system_stm32f4xx.h"
 5344              		.file 19 "../lib/e-puck2_main-processor/ChibiOS//os/ext/CMSIS/ST/stm32f407xx.h"
 5345              		.file 20 "../lib/e-puck2_main-processor/ChibiOS//os/rt/ports/ARMCMx/chcore.h"
 5346              		.file 21 "../lib/e-puck2_main-processor/ChibiOS//os/rt/include/chdebug.h"
 5347              		.file 22 "../lib/e-puck2_main-processor/ChibiOS//os/rt/include/chtm.h"
 5348              		.file 23 "../lib/e-puck2_main-processor/ChibiOS//os/rt/include/chstats.h"
 5349              		.file 24 "../lib/e-puck2_main-processor/ChibiOS//os/rt/include/chsem.h"
 5350              		.file 25 "../lib/e-puck2_main-processor/ChibiOS//os/rt/include/chmtx.h"
 5351              		.file 26 "../lib/e-puck2_main-processor/ChibiOS//os/rt/include/chevents.h"
 5352              		.file 27 "../lib/e-puck2_main-processor/ChibiOS//os/rt/include/chqueues.h"
 5353              		.file 28 "../lib/e-puck2_main-processor/ChibiOS//os/hal/ports/STM32/STM32F4xx/stm32_dma.h"
 5354              		.file 29 "../lib/e-puck2_main-processor/ChibiOS//os/hal/include/hal_ioblock.h"
 5355              		.file 30 "../lib/e-puck2_main-processor/ChibiOS//os/hal/ports/STM32/LLD/GPIOv2/pal_lld.h"
 5356              		.file 31 "../lib/e-puck2_main-processor/ChibiOS//os/hal/include/adc.h"
 5357              		.file 32 "../lib/e-puck2_main-processor/ChibiOS//os/hal/ports/STM32/STM32F4xx/adc_lld.h"
 5358              		.file 33 "../lib/e-puck2_main-processor/ChibiOS//os/hal/include/can.h"
 5359              		.file 34 "../lib/e-puck2_main-processor/ChibiOS//os/hal/ports/STM32/LLD/can_lld.h"
 5360              		.file 35 "../lib/e-puck2_main-processor/ChibiOS//os/hal/include/dac.h"
 5361              		.file 36 "../lib/e-puck2_main-processor/ChibiOS//os/hal/ports/STM32/LLD/DACv1/dac_lld.h"
 5362              		.file 37 "../lib/e-puck2_main-processor/ChibiOS//os/hal/include/ext.h"
 5363              		.file 38 "../lib/e-puck2_main-processor/ChibiOS//os/hal/ports/STM32/LLD/ext_lld.h"
 5364              		.file 39 "../lib/e-puck2_main-processor/ChibiOS//os/hal/include/gpt.h"
 5365              		.file 40 "../lib/e-puck2_main-processor/ChibiOS//os/hal/ports/STM32/LLD/TIMv1/gpt_lld.h"
 5366              		.file 41 "../lib/e-puck2_main-processor/ChibiOS//os/hal/ports/STM32/LLD/TIMv1/stm32_tim.h"
 5367              		.file 42 "../lib/e-puck2_main-processor/ChibiOS//os/hal/include/i2c.h"
 5368              		.file 43 "../lib/e-puck2_main-processor/ChibiOS//os/hal/ports/STM32/LLD/I2Cv1/i2c_lld.h"
 5369              		.file 44 "../lib/e-puck2_main-processor/ChibiOS//os/hal/include/i2s.h"
 5370              		.file 45 "../lib/e-puck2_main-processor/ChibiOS//os/hal/ports/STM32/LLD/SPIv1/i2s_lld.h"
 5371              		.file 46 "../lib/e-puck2_main-processor/ChibiOS//os/hal/include/pwm.h"
 5372              		.file 47 "../lib/e-puck2_main-processor/ChibiOS//os/hal/ports/STM32/LLD/TIMv1/pwm_lld.h"
 5373              		.file 48 "../lib/e-puck2_main-processor/ChibiOS//os/hal/include/serial.h"
 5374              		.file 49 "../lib/e-puck2_main-processor/ChibiOS//os/hal/ports/STM32/LLD/USARTv1/serial_lld.h"
 5375              		.file 50 "../lib/e-puck2_main-processor/ChibiOS//os/hal/include/sdc.h"
 5376              		.file 51 "../lib/e-puck2_main-processor/ChibiOS//os/hal/ports/STM32/LLD/sdc_lld.h"
 5377              		.file 52 "../lib/e-puck2_main-processor/ChibiOS//os/hal/include/spi.h"
 5378              		.file 53 "../lib/e-puck2_main-processor/ChibiOS//os/hal/ports/STM32/LLD/SPIv1/spi_lld.h"
 5379              		.file 54 "../lib/e-puck2_main-processor/ChibiOS//os/hal/include/usb.h"
 5380              		.file 55 "../lib/e-puck2_main-processor/ChibiOS//os/hal/ports/STM32/LLD/OTGv1/usb_lld.h"
 5381              		.file 56 "../lib/e-puck2_main-processor/ChibiOS//os/hal/ports/STM32/LLD/OTGv1/stm32_otg.h"