ARM GAS  C:\Users\PCHAUT~1\AppData\Local\Temp\ccYI24w2.s 			page 1


   1              		.cpu cortex-m4
   2              		.eabi_attribute 27, 1
   3              		.eabi_attribute 28, 1
   4              		.eabi_attribute 20, 1
   5              		.eabi_attribute 21, 1
   6              		.eabi_attribute 23, 3
   7              		.eabi_attribute 24, 1
   8              		.eabi_attribute 25, 1
   9              		.eabi_attribute 26, 1
  10              		.eabi_attribute 30, 6
  11              		.eabi_attribute 34, 1
  12              		.eabi_attribute 18, 4
  13              		.file	"utility.c"
  14              		.text
  15              	.Ltext0:
  16              		.cfi_sections	.debug_frame
  17              		.section	.text.port_rt_get_counter_value,"ax",%progbits
  18              		.align	1
  19              		.p2align 4,,15
  20              		.syntax unified
  21              		.thumb
  22              		.thumb_func
  23              		.fpu fpv4-sp-d16
  24              		.type	port_rt_get_counter_value, %function
  25              	port_rt_get_counter_value:
  26              	.LFB124:
  27              		.file 1 "../lib/e-puck2_main-processor/ChibiOS//os/rt/ports/ARMCMx/chcore_v7m.h"
  28              		.loc 1 546 0
  29              		.cfi_startproc
  30              		@ args = 0, pretend = 0, frame = 8
  31              		@ frame_needed = 0, uses_anonymous_args = 0
  32 0000 00B5     		push	{lr}
  33              		.cfi_def_cfa_offset 4
  34              		.cfi_offset 14, -4
  35 0002 83B0     		sub	sp, sp, #12
  36              		.cfi_def_cfa_offset 16
  37              		.loc 1 546 0
  38 0004 074B     		ldr	r3, .L4
  39 0006 1B68     		ldr	r3, [r3]
  40 0008 0193     		str	r3, [sp, #4]
  41              		.loc 1 548 0
  42 000a 074B     		ldr	r3, .L4+4
  43 000c 5B68     		ldr	r3, [r3, #4]
  44              		.loc 1 549 0
  45 000e 1846     		mov	r0, r3
  46 0010 044B     		ldr	r3, .L4
  47 0012 019A     		ldr	r2, [sp, #4]
  48 0014 1B68     		ldr	r3, [r3]
  49 0016 9A42     		cmp	r2, r3
  50 0018 01D0     		beq	.L3
  51 001a FFF7FEFF 		bl	__stack_chk_fail
  52              	.L3:
  53 001e 03B0     		add	sp, sp, #12
  54              		.cfi_def_cfa_offset 4
  55              		@ sp needed
  56 0020 5DF804FB 		ldr	pc, [sp], #4
  57              	.L5:
ARM GAS  C:\Users\PCHAUT~1\AppData\Local\Temp\ccYI24w2.s 			page 2


  58              		.align	2
  59              	.L4:
  60 0024 00000000 		.word	__stack_chk_guard
  61 0028 001000E0 		.word	-536866816
  62              		.cfi_endproc
  63              	.LFE124:
  64              		.size	port_rt_get_counter_value, .-port_rt_get_counter_value
  65              		.global	tickAdcIsr
  66              		.section	.bss.tickAdcIsr,"aw",%nobits
  67              		.align	2
  68              		.type	tickAdcIsr, %object
  69              		.size	tickAdcIsr, 4
  70              	tickAdcIsr:
  71 0000 00000000 		.space	4
  72              		.section	.text.wait,"ax",%progbits
  73              		.align	1
  74              		.p2align 4,,15
  75              		.global	wait
  76              		.syntax unified
  77              		.thumb
  78              		.thumb_func
  79              		.fpu fpv4-sp-d16
  80              		.type	wait, %function
  81              	wait:
  82              	.LFB256:
  83              		.file 2 "../lib/e-puck2_main-processor/src/epuck1x/utility/utility.c"
  84              		.loc 2 12 0
  85              		.cfi_startproc
  86              		@ args = 0, pretend = 0, frame = 16
  87              		@ frame_needed = 0, uses_anonymous_args = 0
  88 0000 00B5     		push	{lr}
  89              		.cfi_def_cfa_offset 4
  90              		.cfi_offset 14, -4
  91 0002 85B0     		sub	sp, sp, #20
  92              		.cfi_def_cfa_offset 24
  93 0004 0190     		str	r0, [sp, #4]
  94              		.loc 2 12 0
  95 0006 0C4B     		ldr	r3, .L10
  96 0008 1B68     		ldr	r3, [r3]
  97 000a 0393     		str	r3, [sp, #12]
  98              		.loc 2 14 0
  99 000c 0023     		movs	r3, #0
 100 000e 0293     		str	r3, [sp, #8]
 101 0010 02E0     		b	.L7
 102              	.L8:
 103              		.loc 2 14 0 is_stmt 0 discriminator 3
 104 0012 029B     		ldr	r3, [sp, #8]
 105 0014 0133     		adds	r3, r3, #1
 106 0016 0293     		str	r3, [sp, #8]
 107              	.L7:
 108              		.loc 2 14 0 discriminator 1
 109 0018 029B     		ldr	r3, [sp, #8]
 110 001a 019A     		ldr	r2, [sp, #4]
 111 001c 9A42     		cmp	r2, r3
 112 001e F8DC     		bgt	.L8
 113              		.loc 2 15 0 is_stmt 1
 114 0020 00BF     		nop
ARM GAS  C:\Users\PCHAUT~1\AppData\Local\Temp\ccYI24w2.s 			page 3


 115 0022 054B     		ldr	r3, .L10
 116 0024 039A     		ldr	r2, [sp, #12]
 117 0026 1B68     		ldr	r3, [r3]
 118 0028 9A42     		cmp	r2, r3
 119 002a 01D0     		beq	.L9
 120 002c FFF7FEFF 		bl	__stack_chk_fail
 121              	.L9:
 122 0030 05B0     		add	sp, sp, #20
 123              		.cfi_def_cfa_offset 4
 124              		@ sp needed
 125 0032 5DF804FB 		ldr	pc, [sp], #4
 126              	.L11:
 127 0036 00BF     		.align	2
 128              	.L10:
 129 0038 00000000 		.word	__stack_chk_guard
 130              		.cfi_endproc
 131              	.LFE256:
 132              		.size	wait, .-wait
 133              		.section	.text.getselector,"ax",%progbits
 134              		.align	1
 135              		.p2align 4,,15
 136              		.global	getselector
 137              		.syntax unified
 138              		.thumb
 139              		.thumb_func
 140              		.fpu fpv4-sp-d16
 141              		.type	getselector, %function
 142              	getselector:
 143              	.LFB257:
 144              		.loc 2 17 0
 145              		.cfi_startproc
 146              		@ args = 0, pretend = 0, frame = 8
 147              		@ frame_needed = 0, uses_anonymous_args = 0
 148 0000 00B5     		push	{lr}
 149              		.cfi_def_cfa_offset 4
 150              		.cfi_offset 14, -4
 151 0002 83B0     		sub	sp, sp, #12
 152              		.cfi_def_cfa_offset 16
 153              		.loc 2 17 0
 154 0004 084B     		ldr	r3, .L15
 155 0006 1B68     		ldr	r3, [r3]
 156 0008 0193     		str	r3, [sp, #4]
 157              		.loc 2 18 0
 158 000a FFF7FEFF 		bl	get_selector
 159 000e 0346     		mov	r3, r0
 160              		.loc 2 19 0
 161 0010 1846     		mov	r0, r3
 162 0012 054B     		ldr	r3, .L15
 163 0014 019A     		ldr	r2, [sp, #4]
 164 0016 1B68     		ldr	r3, [r3]
 165 0018 9A42     		cmp	r2, r3
 166 001a 01D0     		beq	.L14
 167 001c FFF7FEFF 		bl	__stack_chk_fail
 168              	.L14:
 169 0020 03B0     		add	sp, sp, #12
 170              		.cfi_def_cfa_offset 4
 171              		@ sp needed
ARM GAS  C:\Users\PCHAUT~1\AppData\Local\Temp\ccYI24w2.s 			page 4


 172 0022 5DF804FB 		ldr	pc, [sp], #4
 173              	.L16:
 174 0026 00BF     		.align	2
 175              	.L15:
 176 0028 00000000 		.word	__stack_chk_guard
 177              		.cfi_endproc
 178              	.LFE257:
 179              		.size	getselector, .-getselector
 180              		.section	.text.getBatteryValueRaw,"ax",%progbits
 181              		.align	1
 182              		.p2align 4,,15
 183              		.global	getBatteryValueRaw
 184              		.syntax unified
 185              		.thumb
 186              		.thumb_func
 187              		.fpu fpv4-sp-d16
 188              		.type	getBatteryValueRaw, %function
 189              	getBatteryValueRaw:
 190              	.LFB258:
 191              		.loc 2 21 0
 192              		.cfi_startproc
 193              		@ args = 0, pretend = 0, frame = 8
 194              		@ frame_needed = 0, uses_anonymous_args = 0
 195 0000 00B5     		push	{lr}
 196              		.cfi_def_cfa_offset 4
 197              		.cfi_offset 14, -4
 198 0002 83B0     		sub	sp, sp, #12
 199              		.cfi_def_cfa_offset 16
 200              		.loc 2 21 0
 201 0004 084B     		ldr	r3, .L20
 202 0006 1B68     		ldr	r3, [r3]
 203 0008 0193     		str	r3, [sp, #4]
 204              		.loc 2 22 0
 205 000a FFF7FEFF 		bl	get_battery_raw
 206 000e 0346     		mov	r3, r0
 207              		.loc 2 23 0
 208 0010 1846     		mov	r0, r3
 209 0012 054B     		ldr	r3, .L20
 210 0014 019A     		ldr	r2, [sp, #4]
 211 0016 1B68     		ldr	r3, [r3]
 212 0018 9A42     		cmp	r2, r3
 213 001a 01D0     		beq	.L19
 214 001c FFF7FEFF 		bl	__stack_chk_fail
 215              	.L19:
 216 0020 03B0     		add	sp, sp, #12
 217              		.cfi_def_cfa_offset 4
 218              		@ sp needed
 219 0022 5DF804FB 		ldr	pc, [sp], #4
 220              	.L21:
 221 0026 00BF     		.align	2
 222              	.L20:
 223 0028 00000000 		.word	__stack_chk_guard
 224              		.cfi_endproc
 225              	.LFE258:
 226              		.size	getBatteryValueRaw, .-getBatteryValueRaw
 227              		.section	.text.getBatteryValueVoltage,"ax",%progbits
 228              		.align	1
ARM GAS  C:\Users\PCHAUT~1\AppData\Local\Temp\ccYI24w2.s 			page 5


 229              		.p2align 4,,15
 230              		.global	getBatteryValueVoltage
 231              		.syntax unified
 232              		.thumb
 233              		.thumb_func
 234              		.fpu fpv4-sp-d16
 235              		.type	getBatteryValueVoltage, %function
 236              	getBatteryValueVoltage:
 237              	.LFB259:
 238              		.loc 2 25 0
 239              		.cfi_startproc
 240              		@ args = 0, pretend = 0, frame = 8
 241              		@ frame_needed = 0, uses_anonymous_args = 0
 242 0000 00B5     		push	{lr}
 243              		.cfi_def_cfa_offset 4
 244              		.cfi_offset 14, -4
 245 0002 83B0     		sub	sp, sp, #12
 246              		.cfi_def_cfa_offset 16
 247              		.loc 2 25 0
 248 0004 094B     		ldr	r3, .L25
 249 0006 1B68     		ldr	r3, [r3]
 250 0008 0193     		str	r3, [sp, #4]
 251              		.loc 2 26 0
 252 000a FFF7FEFF 		bl	get_battery_voltage
 253 000e F0EE407A 		vmov.f32	s15, s0
 254              		.loc 2 27 0
 255 0012 B0EE670A 		vmov.f32	s0, s15
 256 0016 054B     		ldr	r3, .L25
 257 0018 019A     		ldr	r2, [sp, #4]
 258 001a 1B68     		ldr	r3, [r3]
 259 001c 9A42     		cmp	r2, r3
 260 001e 01D0     		beq	.L24
 261 0020 FFF7FEFF 		bl	__stack_chk_fail
 262              	.L24:
 263 0024 03B0     		add	sp, sp, #12
 264              		.cfi_def_cfa_offset 4
 265              		@ sp needed
 266 0026 5DF804FB 		ldr	pc, [sp], #4
 267              	.L26:
 268 002a 00BF     		.align	2
 269              	.L25:
 270 002c 00000000 		.word	__stack_chk_guard
 271              		.cfi_endproc
 272              	.LFE259:
 273              		.size	getBatteryValueVoltage, .-getBatteryValueVoltage
 274              		.section	.text.getBatteryValuePercentage,"ax",%progbits
 275              		.align	1
 276              		.p2align 4,,15
 277              		.global	getBatteryValuePercentage
 278              		.syntax unified
 279              		.thumb
 280              		.thumb_func
 281              		.fpu fpv4-sp-d16
 282              		.type	getBatteryValuePercentage, %function
 283              	getBatteryValuePercentage:
 284              	.LFB260:
 285              		.loc 2 29 0
ARM GAS  C:\Users\PCHAUT~1\AppData\Local\Temp\ccYI24w2.s 			page 6


 286              		.cfi_startproc
 287              		@ args = 0, pretend = 0, frame = 8
 288              		@ frame_needed = 0, uses_anonymous_args = 0
 289 0000 00B5     		push	{lr}
 290              		.cfi_def_cfa_offset 4
 291              		.cfi_offset 14, -4
 292 0002 83B0     		sub	sp, sp, #12
 293              		.cfi_def_cfa_offset 16
 294              		.loc 2 29 0
 295 0004 0A4B     		ldr	r3, .L30
 296 0006 1B68     		ldr	r3, [r3]
 297 0008 0193     		str	r3, [sp, #4]
 298              		.loc 2 30 0
 299 000a FFF7FEFF 		bl	get_battery_percentage
 300 000e F0EE407A 		vmov.f32	s15, s0
 301 0012 FCEEE77A 		vcvt.u32.f32	s15, s15
 302 0016 17EE903A 		vmov	r3, s15	@ int
 303              		.loc 2 31 0
 304 001a 1846     		mov	r0, r3
 305 001c 044B     		ldr	r3, .L30
 306 001e 019A     		ldr	r2, [sp, #4]
 307 0020 1B68     		ldr	r3, [r3]
 308 0022 9A42     		cmp	r2, r3
 309 0024 01D0     		beq	.L29
 310 0026 FFF7FEFF 		bl	__stack_chk_fail
 311              	.L29:
 312 002a 03B0     		add	sp, sp, #12
 313              		.cfi_def_cfa_offset 4
 314              		@ sp needed
 315 002c 5DF804FB 		ldr	pc, [sp], #4
 316              	.L31:
 317              		.align	2
 318              	.L30:
 319 0030 00000000 		.word	__stack_chk_guard
 320              		.cfi_endproc
 321              	.LFE260:
 322              		.size	getBatteryValuePercentage, .-getBatteryValuePercentage
 323              		.section	.text.resetTime,"ax",%progbits
 324              		.align	1
 325              		.p2align 4,,15
 326              		.global	resetTime
 327              		.syntax unified
 328              		.thumb
 329              		.thumb_func
 330              		.fpu fpv4-sp-d16
 331              		.type	resetTime, %function
 332              	resetTime:
 333              	.LFB261:
 334              		.loc 2 33 0
 335              		.cfi_startproc
 336              		@ args = 0, pretend = 0, frame = 8
 337              		@ frame_needed = 0, uses_anonymous_args = 0
 338 0000 00B5     		push	{lr}
 339              		.cfi_def_cfa_offset 4
 340              		.cfi_offset 14, -4
 341 0002 83B0     		sub	sp, sp, #12
 342              		.cfi_def_cfa_offset 16
ARM GAS  C:\Users\PCHAUT~1\AppData\Local\Temp\ccYI24w2.s 			page 7


 343              		.loc 2 33 0
 344 0004 094B     		ldr	r3, .L34
 345 0006 1B68     		ldr	r3, [r3]
 346 0008 0193     		str	r3, [sp, #4]
 347              		.loc 2 34 0
 348 000a FFF7FEFF 		bl	port_rt_get_counter_value
 349 000e 0246     		mov	r2, r0
 350 0010 074B     		ldr	r3, .L34+4
 351 0012 1A60     		str	r2, [r3]
 352              		.loc 2 35 0
 353 0014 00BF     		nop
 354 0016 054B     		ldr	r3, .L34
 355 0018 019A     		ldr	r2, [sp, #4]
 356 001a 1B68     		ldr	r3, [r3]
 357 001c 9A42     		cmp	r2, r3
 358 001e 01D0     		beq	.L33
 359 0020 FFF7FEFF 		bl	__stack_chk_fail
 360              	.L33:
 361 0024 03B0     		add	sp, sp, #12
 362              		.cfi_def_cfa_offset 4
 363              		@ sp needed
 364 0026 5DF804FB 		ldr	pc, [sp], #4
 365              	.L35:
 366 002a 00BF     		.align	2
 367              	.L34:
 368 002c 00000000 		.word	__stack_chk_guard
 369 0030 00000000 		.word	tickAdcIsr
 370              		.cfi_endproc
 371              	.LFE261:
 372              		.size	resetTime, .-resetTime
 373              		.section	.text.getDiffTimeMs,"ax",%progbits
 374              		.align	1
 375              		.p2align 4,,15
 376              		.global	getDiffTimeMs
 377              		.syntax unified
 378              		.thumb
 379              		.thumb_func
 380              		.fpu fpv4-sp-d16
 381              		.type	getDiffTimeMs, %function
 382              	getDiffTimeMs:
 383              	.LFB262:
 384              		.loc 2 38 0
 385              		.cfi_startproc
 386              		@ args = 0, pretend = 0, frame = 8
 387              		@ frame_needed = 0, uses_anonymous_args = 0
 388 0000 00B5     		push	{lr}
 389              		.cfi_def_cfa_offset 4
 390              		.cfi_offset 14, -4
 391 0002 83B0     		sub	sp, sp, #12
 392              		.cfi_def_cfa_offset 16
 393              		.loc 2 38 0
 394 0004 124B     		ldr	r3, .L39
 395 0006 1B68     		ldr	r3, [r3]
 396 0008 0193     		str	r3, [sp, #4]
 397              		.loc 2 39 0
 398 000a FFF7FEFF 		bl	port_rt_get_counter_value
 399 000e 0246     		mov	r2, r0
ARM GAS  C:\Users\PCHAUT~1\AppData\Local\Temp\ccYI24w2.s 			page 8


 400 0010 104B     		ldr	r3, .L39+4
 401 0012 1B68     		ldr	r3, [r3]
 402 0014 D31A     		subs	r3, r2, r3
 403 0016 013B     		subs	r3, r3, #1
 404 0018 DB08     		lsrs	r3, r3, #3
 405 001a 0F4A     		ldr	r2, .L39+8
 406 001c A2FB0323 		umull	r2, r3, r2, r3
 407 0020 5B08     		lsrs	r3, r3, #1
 408 0022 0133     		adds	r3, r3, #1
 409 0024 07EE903A 		vmov	s15, r3	@ int
 410 0028 F8EE677A 		vcvt.f32.u32	s15, s15
 411 002c 9FED0B7A 		vldr.32	s14, .L39+12
 412 0030 C7EE876A 		vdiv.f32	s13, s15, s14
 413 0034 F0EE667A 		vmov.f32	s15, s13
 414              		.loc 2 40 0
 415 0038 B0EE670A 		vmov.f32	s0, s15
 416 003c 044B     		ldr	r3, .L39
 417 003e 019A     		ldr	r2, [sp, #4]
 418 0040 1B68     		ldr	r3, [r3]
 419 0042 9A42     		cmp	r2, r3
 420 0044 01D0     		beq	.L38
 421 0046 FFF7FEFF 		bl	__stack_chk_fail
 422              	.L38:
 423 004a 03B0     		add	sp, sp, #12
 424              		.cfi_def_cfa_offset 4
 425              		@ sp needed
 426 004c 5DF804FB 		ldr	pc, [sp], #4
 427              	.L40:
 428              		.align	2
 429              	.L39:
 430 0050 00000000 		.word	__stack_chk_guard
 431 0054 00000000 		.word	tickAdcIsr
 432 0058 19866118 		.word	409044505
 433 005c 00007A44 		.word	1148846080
 434              		.cfi_endproc
 435              	.LFE262:
 436              		.size	getDiffTimeMs, .-getDiffTimeMs
 437              		.section	.text.getDiffTimeMsAndReset,"ax",%progbits
 438              		.align	1
 439              		.p2align 4,,15
 440              		.global	getDiffTimeMsAndReset
 441              		.syntax unified
 442              		.thumb
 443              		.thumb_func
 444              		.fpu fpv4-sp-d16
 445              		.type	getDiffTimeMsAndReset, %function
 446              	getDiffTimeMsAndReset:
 447              	.LFB263:
 448              		.loc 2 42 0
 449              		.cfi_startproc
 450              		@ args = 0, pretend = 0, frame = 8
 451              		@ frame_needed = 0, uses_anonymous_args = 0
 452 0000 00B5     		push	{lr}
 453              		.cfi_def_cfa_offset 4
 454              		.cfi_offset 14, -4
 455 0002 83B0     		sub	sp, sp, #12
 456              		.cfi_def_cfa_offset 16
ARM GAS  C:\Users\PCHAUT~1\AppData\Local\Temp\ccYI24w2.s 			page 9


 457              		.loc 2 42 0
 458 0004 164B     		ldr	r3, .L44
 459 0006 1B68     		ldr	r3, [r3]
 460 0008 0193     		str	r3, [sp, #4]
 461              		.loc 2 43 0
 462 000a FFF7FEFF 		bl	port_rt_get_counter_value
 463 000e 0246     		mov	r2, r0
 464 0010 144B     		ldr	r3, .L44+4
 465 0012 1B68     		ldr	r3, [r3]
 466 0014 D31A     		subs	r3, r2, r3
 467 0016 013B     		subs	r3, r3, #1
 468 0018 DB08     		lsrs	r3, r3, #3
 469 001a 134A     		ldr	r2, .L44+8
 470 001c A2FB0323 		umull	r2, r3, r2, r3
 471 0020 5B08     		lsrs	r3, r3, #1
 472 0022 0133     		adds	r3, r3, #1
 473 0024 07EE903A 		vmov	s15, r3	@ int
 474 0028 B8EE677A 		vcvt.f32.u32	s14, s15
 475 002c DFED0F6A 		vldr.32	s13, .L44+12
 476 0030 C7EE267A 		vdiv.f32	s15, s14, s13
 477 0034 CDED007A 		vstr.32	s15, [sp]
 478              		.loc 2 44 0
 479 0038 FFF7FEFF 		bl	port_rt_get_counter_value
 480 003c 0246     		mov	r2, r0
 481 003e 094B     		ldr	r3, .L44+4
 482 0040 1A60     		str	r2, [r3]
 483              		.loc 2 45 0
 484 0042 009B     		ldr	r3, [sp]	@ float
 485 0044 07EE903A 		vmov	s15, r3
 486              		.loc 2 46 0
 487 0048 B0EE670A 		vmov.f32	s0, s15
 488 004c 044B     		ldr	r3, .L44
 489 004e 019A     		ldr	r2, [sp, #4]
 490 0050 1B68     		ldr	r3, [r3]
 491 0052 9A42     		cmp	r2, r3
 492 0054 01D0     		beq	.L43
 493 0056 FFF7FEFF 		bl	__stack_chk_fail
 494              	.L43:
 495 005a 03B0     		add	sp, sp, #12
 496              		.cfi_def_cfa_offset 4
 497              		@ sp needed
 498 005c 5DF804FB 		ldr	pc, [sp], #4
 499              	.L45:
 500              		.align	2
 501              	.L44:
 502 0060 00000000 		.word	__stack_chk_guard
 503 0064 00000000 		.word	tickAdcIsr
 504 0068 19866118 		.word	409044505
 505 006c 00007A44 		.word	1148846080
 506              		.cfi_endproc
 507              	.LFE263:
 508              		.size	getDiffTimeMsAndReset, .-getDiffTimeMsAndReset
 509              		.text
 510              	.Letext0:
 511              		.file 3 "c:\\users\\pchautems\\documents\\robotiquetp\\eclipse_e-puck2\\tools\\gcc-arm-none-eabi-7
 512              		.file 4 "c:\\users\\pchautems\\documents\\robotiquetp\\eclipse_e-puck2\\tools\\gcc-arm-none-eabi-7
 513              		.file 5 "c:\\users\\pchautems\\documents\\robotiquetp\\eclipse_e-puck2\\tools\\gcc-arm-none-eabi-7
ARM GAS  C:\Users\PCHAUT~1\AppData\Local\Temp\ccYI24w2.s 			page 10


 514              		.file 6 "../lib/e-puck2_main-processor/ChibiOS//os/rt/ports/ARMCMx/compilers/GCC/chtypes.h"
 515              		.file 7 "../lib/e-puck2_main-processor/ChibiOS//os/rt/include/chsystypes.h"
 516              		.file 8 "../lib/e-puck2_main-processor/ChibiOS//os/rt/include/chschd.h"
 517              		.file 9 "../lib/e-puck2_main-processor/ChibiOS//os/ext/CMSIS/include/core_cm4.h"
 518              		.file 10 "../lib/e-puck2_main-processor/ChibiOS//os/ext/CMSIS/ST/system_stm32f4xx.h"
 519              		.file 11 "../lib/e-puck2_main-processor/ChibiOS//os/ext/CMSIS/ST/stm32f407xx.h"
 520              		.file 12 "../lib/e-puck2_main-processor/ChibiOS//os/rt/ports/ARMCMx/chcore.h"
 521              		.file 13 "../lib/e-puck2_main-processor/ChibiOS//os/rt/include/chdebug.h"
 522              		.file 14 "../lib/e-puck2_main-processor/ChibiOS//os/rt/include/chtm.h"
 523              		.file 15 "../lib/e-puck2_main-processor/ChibiOS//os/rt/include/chstats.h"
 524              		.file 16 "../lib/e-puck2_main-processor/ChibiOS//os/rt/include/chsem.h"
 525              		.file 17 "../lib/e-puck2_main-processor/ChibiOS//os/rt/include/chmtx.h"
 526              		.file 18 "../lib/e-puck2_main-processor/ChibiOS//os/rt/include/chregistry.h"
 527              		.file 19 "../lib/e-puck2_main-processor/ChibiOS//os/rt/include/chevents.h"
 528              		.file 20 "../lib/e-puck2_main-processor/ChibiOS//os/rt/include/chqueues.h"
 529              		.file 21 "../lib/e-puck2_main-processor/ChibiOS//os/hal/ports/STM32/STM32F4xx/stm32_dma.h"
 530              		.file 22 "../lib/e-puck2_main-processor/ChibiOS//os/hal/include/hal_ioblock.h"
 531              		.file 23 "../lib/e-puck2_main-processor/ChibiOS//os/hal/ports/STM32/LLD/GPIOv2/pal_lld.h"
 532              		.file 24 "../lib/e-puck2_main-processor/ChibiOS//os/hal/include/adc.h"
 533              		.file 25 "../lib/e-puck2_main-processor/ChibiOS//os/hal/ports/STM32/STM32F4xx/adc_lld.h"
 534              		.file 26 "../lib/e-puck2_main-processor/ChibiOS//os/hal/include/can.h"
 535              		.file 27 "../lib/e-puck2_main-processor/ChibiOS//os/hal/ports/STM32/LLD/can_lld.h"
 536              		.file 28 "../lib/e-puck2_main-processor/ChibiOS//os/hal/include/dac.h"
 537              		.file 29 "../lib/e-puck2_main-processor/ChibiOS//os/hal/ports/STM32/LLD/DACv1/dac_lld.h"
 538              		.file 30 "../lib/e-puck2_main-processor/ChibiOS//os/hal/include/ext.h"
 539              		.file 31 "../lib/e-puck2_main-processor/ChibiOS//os/hal/ports/STM32/LLD/ext_lld.h"
 540              		.file 32 "../lib/e-puck2_main-processor/ChibiOS//os/hal/include/gpt.h"
 541              		.file 33 "../lib/e-puck2_main-processor/ChibiOS//os/hal/ports/STM32/LLD/TIMv1/gpt_lld.h"
 542              		.file 34 "../lib/e-puck2_main-processor/ChibiOS//os/hal/ports/STM32/LLD/TIMv1/stm32_tim.h"
 543              		.file 35 "../lib/e-puck2_main-processor/ChibiOS//os/hal/include/i2c.h"
 544              		.file 36 "../lib/e-puck2_main-processor/ChibiOS//os/hal/ports/STM32/LLD/I2Cv1/i2c_lld.h"
 545              		.file 37 "../lib/e-puck2_main-processor/ChibiOS//os/hal/include/i2s.h"
 546              		.file 38 "../lib/e-puck2_main-processor/ChibiOS//os/hal/ports/STM32/LLD/SPIv1/i2s_lld.h"
 547              		.file 39 "../lib/e-puck2_main-processor/ChibiOS//os/hal/include/pwm.h"
 548              		.file 40 "../lib/e-puck2_main-processor/ChibiOS//os/hal/ports/STM32/LLD/TIMv1/pwm_lld.h"
 549              		.file 41 "../lib/e-puck2_main-processor/ChibiOS//os/hal/include/serial.h"
 550              		.file 42 "../lib/e-puck2_main-processor/ChibiOS//os/hal/ports/STM32/LLD/USARTv1/serial_lld.h"
 551              		.file 43 "../lib/e-puck2_main-processor/ChibiOS//os/hal/include/sdc.h"
 552              		.file 44 "../lib/e-puck2_main-processor/ChibiOS//os/hal/ports/STM32/LLD/sdc_lld.h"
 553              		.file 45 "../lib/e-puck2_main-processor/ChibiOS//os/hal/include/spi.h"
 554              		.file 46 "../lib/e-puck2_main-processor/ChibiOS//os/hal/ports/STM32/LLD/SPIv1/spi_lld.h"
 555              		.file 47 "../lib/e-puck2_main-processor/ChibiOS//os/hal/include/usb.h"
 556              		.file 48 "../lib/e-puck2_main-processor/ChibiOS//os/hal/ports/STM32/LLD/OTGv1/usb_lld.h"
 557              		.file 49 "../lib/e-puck2_main-processor/ChibiOS//os/hal/ports/STM32/LLD/OTGv1/stm32_otg.h"