ARM GAS  C:\Users\PCHAUT~1\AppData\Local\Temp\ccZvjaUR.s 			page 1


   1              		.cpu cortex-m4
   2              		.eabi_attribute 27, 1
   3              		.eabi_attribute 28, 1
   4              		.eabi_attribute 20, 1
   5              		.eabi_attribute 21, 1
   6              		.eabi_attribute 23, 3
   7              		.eabi_attribute 24, 1
   8              		.eabi_attribute 25, 1
   9              		.eabi_attribute 26, 1
  10              		.eabi_attribute 30, 6
  11              		.eabi_attribute 34, 1
  12              		.eabi_attribute 18, 4
  13              		.file	"vl53l0x_api.c"
  14              		.text
  15              	.Ltext0:
  16              		.cfi_sections	.debug_frame
  17              		.global	DefaultTuningSettings
  18              		.section	.data.DefaultTuningSettings,"aw",%progbits
  19              		.align	2
  20              		.type	DefaultTuningSettings, %object
  21              		.size	DefaultTuningSettings, 243
  22              	DefaultTuningSettings:
  23 0000 01       		.byte	1
  24 0001 FF       		.byte	-1
  25 0002 01       		.byte	1
  26 0003 01       		.byte	1
  27 0004 00       		.byte	0
  28 0005 00       		.byte	0
  29 0006 01       		.byte	1
  30 0007 FF       		.byte	-1
  31 0008 00       		.byte	0
  32 0009 01       		.byte	1
  33 000a 09       		.byte	9
  34 000b 00       		.byte	0
  35 000c 01       		.byte	1
  36 000d 10       		.byte	16
  37 000e 00       		.byte	0
  38 000f 01       		.byte	1
  39 0010 11       		.byte	17
  40 0011 00       		.byte	0
  41 0012 01       		.byte	1
  42 0013 24       		.byte	36
  43 0014 01       		.byte	1
  44 0015 01       		.byte	1
  45 0016 25       		.byte	37
  46 0017 FF       		.byte	-1
  47 0018 01       		.byte	1
  48 0019 75       		.byte	117
  49 001a 00       		.byte	0
  50 001b 01       		.byte	1
  51 001c FF       		.byte	-1
  52 001d 01       		.byte	1
  53 001e 01       		.byte	1
  54 001f 4E       		.byte	78
  55 0020 2C       		.byte	44
  56 0021 01       		.byte	1
  57 0022 48       		.byte	72
ARM GAS  C:\Users\PCHAUT~1\AppData\Local\Temp\ccZvjaUR.s 			page 2


  58 0023 00       		.byte	0
  59 0024 01       		.byte	1
  60 0025 30       		.byte	48
  61 0026 20       		.byte	32
  62 0027 01       		.byte	1
  63 0028 FF       		.byte	-1
  64 0029 00       		.byte	0
  65 002a 01       		.byte	1
  66 002b 30       		.byte	48
  67 002c 09       		.byte	9
  68 002d 01       		.byte	1
  69 002e 54       		.byte	84
  70 002f 00       		.byte	0
  71 0030 01       		.byte	1
  72 0031 31       		.byte	49
  73 0032 04       		.byte	4
  74 0033 01       		.byte	1
  75 0034 32       		.byte	50
  76 0035 03       		.byte	3
  77 0036 01       		.byte	1
  78 0037 40       		.byte	64
  79 0038 83       		.byte	-125
  80 0039 01       		.byte	1
  81 003a 46       		.byte	70
  82 003b 25       		.byte	37
  83 003c 01       		.byte	1
  84 003d 60       		.byte	96
  85 003e 00       		.byte	0
  86 003f 01       		.byte	1
  87 0040 27       		.byte	39
  88 0041 00       		.byte	0
  89 0042 01       		.byte	1
  90 0043 50       		.byte	80
  91 0044 06       		.byte	6
  92 0045 01       		.byte	1
  93 0046 51       		.byte	81
  94 0047 00       		.byte	0
  95 0048 01       		.byte	1
  96 0049 52       		.byte	82
  97 004a 96       		.byte	-106
  98 004b 01       		.byte	1
  99 004c 56       		.byte	86
 100 004d 08       		.byte	8
 101 004e 01       		.byte	1
 102 004f 57       		.byte	87
 103 0050 30       		.byte	48
 104 0051 01       		.byte	1
 105 0052 61       		.byte	97
 106 0053 00       		.byte	0
 107 0054 01       		.byte	1
 108 0055 62       		.byte	98
 109 0056 00       		.byte	0
 110 0057 01       		.byte	1
 111 0058 64       		.byte	100
 112 0059 00       		.byte	0
 113 005a 01       		.byte	1
 114 005b 65       		.byte	101
ARM GAS  C:\Users\PCHAUT~1\AppData\Local\Temp\ccZvjaUR.s 			page 3


 115 005c 00       		.byte	0
 116 005d 01       		.byte	1
 117 005e 66       		.byte	102
 118 005f A0       		.byte	-96
 119 0060 01       		.byte	1
 120 0061 FF       		.byte	-1
 121 0062 01       		.byte	1
 122 0063 01       		.byte	1
 123 0064 22       		.byte	34
 124 0065 32       		.byte	50
 125 0066 01       		.byte	1
 126 0067 47       		.byte	71
 127 0068 14       		.byte	20
 128 0069 01       		.byte	1
 129 006a 49       		.byte	73
 130 006b FF       		.byte	-1
 131 006c 01       		.byte	1
 132 006d 4A       		.byte	74
 133 006e 00       		.byte	0
 134 006f 01       		.byte	1
 135 0070 FF       		.byte	-1
 136 0071 00       		.byte	0
 137 0072 01       		.byte	1
 138 0073 7A       		.byte	122
 139 0074 0A       		.byte	10
 140 0075 01       		.byte	1
 141 0076 7B       		.byte	123
 142 0077 00       		.byte	0
 143 0078 01       		.byte	1
 144 0079 78       		.byte	120
 145 007a 21       		.byte	33
 146 007b 01       		.byte	1
 147 007c FF       		.byte	-1
 148 007d 01       		.byte	1
 149 007e 01       		.byte	1
 150 007f 23       		.byte	35
 151 0080 34       		.byte	52
 152 0081 01       		.byte	1
 153 0082 42       		.byte	66
 154 0083 00       		.byte	0
 155 0084 01       		.byte	1
 156 0085 44       		.byte	68
 157 0086 FF       		.byte	-1
 158 0087 01       		.byte	1
 159 0088 45       		.byte	69
 160 0089 26       		.byte	38
 161 008a 01       		.byte	1
 162 008b 46       		.byte	70
 163 008c 05       		.byte	5
 164 008d 01       		.byte	1
 165 008e 40       		.byte	64
 166 008f 40       		.byte	64
 167 0090 01       		.byte	1
 168 0091 0E       		.byte	14
 169 0092 06       		.byte	6
 170 0093 01       		.byte	1
 171 0094 20       		.byte	32
ARM GAS  C:\Users\PCHAUT~1\AppData\Local\Temp\ccZvjaUR.s 			page 4


 172 0095 1A       		.byte	26
 173 0096 01       		.byte	1
 174 0097 43       		.byte	67
 175 0098 40       		.byte	64
 176 0099 01       		.byte	1
 177 009a FF       		.byte	-1
 178 009b 00       		.byte	0
 179 009c 01       		.byte	1
 180 009d 34       		.byte	52
 181 009e 03       		.byte	3
 182 009f 01       		.byte	1
 183 00a0 35       		.byte	53
 184 00a1 44       		.byte	68
 185 00a2 01       		.byte	1
 186 00a3 FF       		.byte	-1
 187 00a4 01       		.byte	1
 188 00a5 01       		.byte	1
 189 00a6 31       		.byte	49
 190 00a7 04       		.byte	4
 191 00a8 01       		.byte	1
 192 00a9 4B       		.byte	75
 193 00aa 09       		.byte	9
 194 00ab 01       		.byte	1
 195 00ac 4C       		.byte	76
 196 00ad 05       		.byte	5
 197 00ae 01       		.byte	1
 198 00af 4D       		.byte	77
 199 00b0 04       		.byte	4
 200 00b1 01       		.byte	1
 201 00b2 FF       		.byte	-1
 202 00b3 00       		.byte	0
 203 00b4 01       		.byte	1
 204 00b5 44       		.byte	68
 205 00b6 00       		.byte	0
 206 00b7 01       		.byte	1
 207 00b8 45       		.byte	69
 208 00b9 20       		.byte	32
 209 00ba 01       		.byte	1
 210 00bb 47       		.byte	71
 211 00bc 08       		.byte	8
 212 00bd 01       		.byte	1
 213 00be 48       		.byte	72
 214 00bf 28       		.byte	40
 215 00c0 01       		.byte	1
 216 00c1 67       		.byte	103
 217 00c2 00       		.byte	0
 218 00c3 01       		.byte	1
 219 00c4 70       		.byte	112
 220 00c5 04       		.byte	4
 221 00c6 01       		.byte	1
 222 00c7 71       		.byte	113
 223 00c8 01       		.byte	1
 224 00c9 01       		.byte	1
 225 00ca 72       		.byte	114
 226 00cb FE       		.byte	-2
 227 00cc 01       		.byte	1
 228 00cd 76       		.byte	118
ARM GAS  C:\Users\PCHAUT~1\AppData\Local\Temp\ccZvjaUR.s 			page 5


 229 00ce 00       		.byte	0
 230 00cf 01       		.byte	1
 231 00d0 77       		.byte	119
 232 00d1 00       		.byte	0
 233 00d2 01       		.byte	1
 234 00d3 FF       		.byte	-1
 235 00d4 01       		.byte	1
 236 00d5 01       		.byte	1
 237 00d6 0D       		.byte	13
 238 00d7 01       		.byte	1
 239 00d8 01       		.byte	1
 240 00d9 FF       		.byte	-1
 241 00da 00       		.byte	0
 242 00db 01       		.byte	1
 243 00dc 80       		.byte	-128
 244 00dd 01       		.byte	1
 245 00de 01       		.byte	1
 246 00df 01       		.byte	1
 247 00e0 F8       		.byte	-8
 248 00e1 01       		.byte	1
 249 00e2 FF       		.byte	-1
 250 00e3 01       		.byte	1
 251 00e4 01       		.byte	1
 252 00e5 8E       		.byte	-114
 253 00e6 01       		.byte	1
 254 00e7 01       		.byte	1
 255 00e8 00       		.byte	0
 256 00e9 01       		.byte	1
 257 00ea 01       		.byte	1
 258 00eb FF       		.byte	-1
 259 00ec 00       		.byte	0
 260 00ed 01       		.byte	1
 261 00ee 80       		.byte	-128
 262 00ef 00       		.byte	0
 263 00f0 00       		.byte	0
 264 00f1 00       		.byte	0
 265 00f2 00       		.byte	0
 266              		.global	InterruptThresholdSettings
 267              		.section	.data.InterruptThresholdSettings,"aw",%progbits
 268              		.align	2
 269              		.type	InterruptThresholdSettings, %object
 270              		.size	InterruptThresholdSettings, 438
 271              	InterruptThresholdSettings:
 272 0000 01       		.byte	1
 273 0001 FF       		.byte	-1
 274 0002 00       		.byte	0
 275 0003 01       		.byte	1
 276 0004 80       		.byte	-128
 277 0005 01       		.byte	1
 278 0006 01       		.byte	1
 279 0007 FF       		.byte	-1
 280 0008 01       		.byte	1
 281 0009 01       		.byte	1
 282 000a 00       		.byte	0
 283 000b 00       		.byte	0
 284 000c 01       		.byte	1
 285 000d FF       		.byte	-1
ARM GAS  C:\Users\PCHAUT~1\AppData\Local\Temp\ccZvjaUR.s 			page 6


 286 000e 01       		.byte	1
 287 000f 01       		.byte	1
 288 0010 4F       		.byte	79
 289 0011 02       		.byte	2
 290 0012 01       		.byte	1
 291 0013 FF       		.byte	-1
 292 0014 0E       		.byte	14
 293 0015 01       		.byte	1
 294 0016 00       		.byte	0
 295 0017 03       		.byte	3
 296 0018 01       		.byte	1
 297 0019 01       		.byte	1
 298 001a 84       		.byte	-124
 299 001b 01       		.byte	1
 300 001c 02       		.byte	2
 301 001d 0A       		.byte	10
 302 001e 01       		.byte	1
 303 001f 03       		.byte	3
 304 0020 03       		.byte	3
 305 0021 01       		.byte	1
 306 0022 04       		.byte	4
 307 0023 08       		.byte	8
 308 0024 01       		.byte	1
 309 0025 05       		.byte	5
 310 0026 C8       		.byte	-56
 311 0027 01       		.byte	1
 312 0028 06       		.byte	6
 313 0029 03       		.byte	3
 314 002a 01       		.byte	1
 315 002b 07       		.byte	7
 316 002c 8D       		.byte	-115
 317 002d 01       		.byte	1
 318 002e 08       		.byte	8
 319 002f 08       		.byte	8
 320 0030 01       		.byte	1
 321 0031 09       		.byte	9
 322 0032 C6       		.byte	-58
 323 0033 01       		.byte	1
 324 0034 0A       		.byte	10
 325 0035 01       		.byte	1
 326 0036 01       		.byte	1
 327 0037 0B       		.byte	11
 328 0038 02       		.byte	2
 329 0039 01       		.byte	1
 330 003a 0C       		.byte	12
 331 003b 00       		.byte	0
 332 003c 01       		.byte	1
 333 003d 0D       		.byte	13
 334 003e D5       		.byte	-43
 335 003f 01       		.byte	1
 336 0040 0E       		.byte	14
 337 0041 18       		.byte	24
 338 0042 01       		.byte	1
 339 0043 0F       		.byte	15
 340 0044 12       		.byte	18
 341 0045 01       		.byte	1
 342 0046 10       		.byte	16
ARM GAS  C:\Users\PCHAUT~1\AppData\Local\Temp\ccZvjaUR.s 			page 7


 343 0047 01       		.byte	1
 344 0048 01       		.byte	1
 345 0049 11       		.byte	17
 346 004a 82       		.byte	-126
 347 004b 01       		.byte	1
 348 004c 12       		.byte	18
 349 004d 00       		.byte	0
 350 004e 01       		.byte	1
 351 004f 13       		.byte	19
 352 0050 D5       		.byte	-43
 353 0051 01       		.byte	1
 354 0052 14       		.byte	20
 355 0053 18       		.byte	24
 356 0054 01       		.byte	1
 357 0055 15       		.byte	21
 358 0056 13       		.byte	19
 359 0057 01       		.byte	1
 360 0058 16       		.byte	22
 361 0059 03       		.byte	3
 362 005a 01       		.byte	1
 363 005b 17       		.byte	23
 364 005c 86       		.byte	-122
 365 005d 01       		.byte	1
 366 005e 18       		.byte	24
 367 005f 0A       		.byte	10
 368 0060 01       		.byte	1
 369 0061 19       		.byte	25
 370 0062 09       		.byte	9
 371 0063 01       		.byte	1
 372 0064 1A       		.byte	26
 373 0065 08       		.byte	8
 374 0066 01       		.byte	1
 375 0067 1B       		.byte	27
 376 0068 C2       		.byte	-62
 377 0069 01       		.byte	1
 378 006a 1C       		.byte	28
 379 006b 03       		.byte	3
 380 006c 01       		.byte	1
 381 006d 1D       		.byte	29
 382 006e 8F       		.byte	-113
 383 006f 01       		.byte	1
 384 0070 1E       		.byte	30
 385 0071 0A       		.byte	10
 386 0072 01       		.byte	1
 387 0073 1F       		.byte	31
 388 0074 06       		.byte	6
 389 0075 01       		.byte	1
 390 0076 20       		.byte	32
 391 0077 01       		.byte	1
 392 0078 01       		.byte	1
 393 0079 21       		.byte	33
 394 007a 02       		.byte	2
 395 007b 01       		.byte	1
 396 007c 22       		.byte	34
 397 007d 00       		.byte	0
 398 007e 01       		.byte	1
 399 007f 23       		.byte	35
ARM GAS  C:\Users\PCHAUT~1\AppData\Local\Temp\ccZvjaUR.s 			page 8


 400 0080 D5       		.byte	-43
 401 0081 01       		.byte	1
 402 0082 24       		.byte	36
 403 0083 18       		.byte	24
 404 0084 01       		.byte	1
 405 0085 25       		.byte	37
 406 0086 22       		.byte	34
 407 0087 01       		.byte	1
 408 0088 26       		.byte	38
 409 0089 01       		.byte	1
 410 008a 01       		.byte	1
 411 008b 27       		.byte	39
 412 008c 82       		.byte	-126
 413 008d 01       		.byte	1
 414 008e 28       		.byte	40
 415 008f 00       		.byte	0
 416 0090 01       		.byte	1
 417 0091 29       		.byte	41
 418 0092 D5       		.byte	-43
 419 0093 01       		.byte	1
 420 0094 2A       		.byte	42
 421 0095 18       		.byte	24
 422 0096 01       		.byte	1
 423 0097 2B       		.byte	43
 424 0098 0B       		.byte	11
 425 0099 01       		.byte	1
 426 009a 2C       		.byte	44
 427 009b 28       		.byte	40
 428 009c 01       		.byte	1
 429 009d 2D       		.byte	45
 430 009e 78       		.byte	120
 431 009f 01       		.byte	1
 432 00a0 2E       		.byte	46
 433 00a1 28       		.byte	40
 434 00a2 01       		.byte	1
 435 00a3 2F       		.byte	47
 436 00a4 91       		.byte	-111
 437 00a5 01       		.byte	1
 438 00a6 30       		.byte	48
 439 00a7 00       		.byte	0
 440 00a8 01       		.byte	1
 441 00a9 31       		.byte	49
 442 00aa 0B       		.byte	11
 443 00ab 01       		.byte	1
 444 00ac 32       		.byte	50
 445 00ad 00       		.byte	0
 446 00ae 01       		.byte	1
 447 00af 33       		.byte	51
 448 00b0 0B       		.byte	11
 449 00b1 01       		.byte	1
 450 00b2 34       		.byte	52
 451 00b3 00       		.byte	0
 452 00b4 01       		.byte	1
 453 00b5 35       		.byte	53
 454 00b6 A1       		.byte	-95
 455 00b7 01       		.byte	1
 456 00b8 36       		.byte	54
ARM GAS  C:\Users\PCHAUT~1\AppData\Local\Temp\ccZvjaUR.s 			page 9


 457 00b9 00       		.byte	0
 458 00ba 01       		.byte	1
 459 00bb 37       		.byte	55
 460 00bc A0       		.byte	-96
 461 00bd 01       		.byte	1
 462 00be 38       		.byte	56
 463 00bf 00       		.byte	0
 464 00c0 01       		.byte	1
 465 00c1 39       		.byte	57
 466 00c2 04       		.byte	4
 467 00c3 01       		.byte	1
 468 00c4 3A       		.byte	58
 469 00c5 28       		.byte	40
 470 00c6 01       		.byte	1
 471 00c7 3B       		.byte	59
 472 00c8 30       		.byte	48
 473 00c9 01       		.byte	1
 474 00ca 3C       		.byte	60
 475 00cb 0C       		.byte	12
 476 00cc 01       		.byte	1
 477 00cd 3D       		.byte	61
 478 00ce 04       		.byte	4
 479 00cf 01       		.byte	1
 480 00d0 3E       		.byte	62
 481 00d1 0F       		.byte	15
 482 00d2 01       		.byte	1
 483 00d3 3F       		.byte	63
 484 00d4 79       		.byte	121
 485 00d5 01       		.byte	1
 486 00d6 40       		.byte	64
 487 00d7 28       		.byte	40
 488 00d8 01       		.byte	1
 489 00d9 41       		.byte	65
 490 00da 1E       		.byte	30
 491 00db 01       		.byte	1
 492 00dc 42       		.byte	66
 493 00dd 2F       		.byte	47
 494 00de 01       		.byte	1
 495 00df 43       		.byte	67
 496 00e0 87       		.byte	-121
 497 00e1 01       		.byte	1
 498 00e2 44       		.byte	68
 499 00e3 00       		.byte	0
 500 00e4 01       		.byte	1
 501 00e5 45       		.byte	69
 502 00e6 0B       		.byte	11
 503 00e7 01       		.byte	1
 504 00e8 46       		.byte	70
 505 00e9 00       		.byte	0
 506 00ea 01       		.byte	1
 507 00eb 47       		.byte	71
 508 00ec 0B       		.byte	11
 509 00ed 01       		.byte	1
 510 00ee 48       		.byte	72
 511 00ef 00       		.byte	0
 512 00f0 01       		.byte	1
 513 00f1 49       		.byte	73
ARM GAS  C:\Users\PCHAUT~1\AppData\Local\Temp\ccZvjaUR.s 			page 10


 514 00f2 A7       		.byte	-89
 515 00f3 01       		.byte	1
 516 00f4 4A       		.byte	74
 517 00f5 00       		.byte	0
 518 00f6 01       		.byte	1
 519 00f7 4B       		.byte	75
 520 00f8 A6       		.byte	-90
 521 00f9 01       		.byte	1
 522 00fa 4C       		.byte	76
 523 00fb 00       		.byte	0
 524 00fc 01       		.byte	1
 525 00fd 4D       		.byte	77
 526 00fe 04       		.byte	4
 527 00ff 01       		.byte	1
 528 0100 4E       		.byte	78
 529 0101 01       		.byte	1
 530 0102 01       		.byte	1
 531 0103 4F       		.byte	79
 532 0104 00       		.byte	0
 533 0105 01       		.byte	1
 534 0106 50       		.byte	80
 535 0107 00       		.byte	0
 536 0108 01       		.byte	1
 537 0109 51       		.byte	81
 538 010a 80       		.byte	-128
 539 010b 01       		.byte	1
 540 010c 52       		.byte	82
 541 010d 09       		.byte	9
 542 010e 01       		.byte	1
 543 010f 53       		.byte	83
 544 0110 08       		.byte	8
 545 0111 01       		.byte	1
 546 0112 54       		.byte	84
 547 0113 01       		.byte	1
 548 0114 01       		.byte	1
 549 0115 55       		.byte	85
 550 0116 00       		.byte	0
 551 0117 01       		.byte	1
 552 0118 56       		.byte	86
 553 0119 0F       		.byte	15
 554 011a 01       		.byte	1
 555 011b 57       		.byte	87
 556 011c 79       		.byte	121
 557 011d 01       		.byte	1
 558 011e 58       		.byte	88
 559 011f 09       		.byte	9
 560 0120 01       		.byte	1
 561 0121 59       		.byte	89
 562 0122 05       		.byte	5
 563 0123 01       		.byte	1
 564 0124 5A       		.byte	90
 565 0125 00       		.byte	0
 566 0126 01       		.byte	1
 567 0127 5B       		.byte	91
 568 0128 60       		.byte	96
 569 0129 01       		.byte	1
 570 012a 5C       		.byte	92
ARM GAS  C:\Users\PCHAUT~1\AppData\Local\Temp\ccZvjaUR.s 			page 11


 571 012b 05       		.byte	5
 572 012c 01       		.byte	1
 573 012d 5D       		.byte	93
 574 012e D1       		.byte	-47
 575 012f 01       		.byte	1
 576 0130 5E       		.byte	94
 577 0131 0C       		.byte	12
 578 0132 01       		.byte	1
 579 0133 5F       		.byte	95
 580 0134 3C       		.byte	60
 581 0135 01       		.byte	1
 582 0136 60       		.byte	96
 583 0137 00       		.byte	0
 584 0138 01       		.byte	1
 585 0139 61       		.byte	97
 586 013a D0       		.byte	-48
 587 013b 01       		.byte	1
 588 013c 62       		.byte	98
 589 013d 0B       		.byte	11
 590 013e 01       		.byte	1
 591 013f 63       		.byte	99
 592 0140 03       		.byte	3
 593 0141 01       		.byte	1
 594 0142 64       		.byte	100
 595 0143 28       		.byte	40
 596 0144 01       		.byte	1
 597 0145 65       		.byte	101
 598 0146 10       		.byte	16
 599 0147 01       		.byte	1
 600 0148 66       		.byte	102
 601 0149 2A       		.byte	42
 602 014a 01       		.byte	1
 603 014b 67       		.byte	103
 604 014c 39       		.byte	57
 605 014d 01       		.byte	1
 606 014e 68       		.byte	104
 607 014f 0B       		.byte	11
 608 0150 01       		.byte	1
 609 0151 69       		.byte	105
 610 0152 02       		.byte	2
 611 0153 01       		.byte	1
 612 0154 6A       		.byte	106
 613 0155 28       		.byte	40
 614 0156 01       		.byte	1
 615 0157 6B       		.byte	107
 616 0158 10       		.byte	16
 617 0159 01       		.byte	1
 618 015a 6C       		.byte	108
 619 015b 2A       		.byte	42
 620 015c 01       		.byte	1
 621 015d 6D       		.byte	109
 622 015e 61       		.byte	97
 623 015f 01       		.byte	1
 624 0160 6E       		.byte	110
 625 0161 0C       		.byte	12
 626 0162 01       		.byte	1
 627 0163 6F       		.byte	111
ARM GAS  C:\Users\PCHAUT~1\AppData\Local\Temp\ccZvjaUR.s 			page 12


 628 0164 00       		.byte	0
 629 0165 01       		.byte	1
 630 0166 70       		.byte	112
 631 0167 0F       		.byte	15
 632 0168 01       		.byte	1
 633 0169 71       		.byte	113
 634 016a 79       		.byte	121
 635 016b 01       		.byte	1
 636 016c 72       		.byte	114
 637 016d 00       		.byte	0
 638 016e 01       		.byte	1
 639 016f 73       		.byte	115
 640 0170 0B       		.byte	11
 641 0171 01       		.byte	1
 642 0172 74       		.byte	116
 643 0173 00       		.byte	0
 644 0174 01       		.byte	1
 645 0175 75       		.byte	117
 646 0176 0B       		.byte	11
 647 0177 01       		.byte	1
 648 0178 76       		.byte	118
 649 0179 00       		.byte	0
 650 017a 01       		.byte	1
 651 017b 77       		.byte	119
 652 017c A1       		.byte	-95
 653 017d 01       		.byte	1
 654 017e 78       		.byte	120
 655 017f 00       		.byte	0
 656 0180 01       		.byte	1
 657 0181 79       		.byte	121
 658 0182 A0       		.byte	-96
 659 0183 01       		.byte	1
 660 0184 7A       		.byte	122
 661 0185 00       		.byte	0
 662 0186 01       		.byte	1
 663 0187 7B       		.byte	123
 664 0188 04       		.byte	4
 665 0189 01       		.byte	1
 666 018a FF       		.byte	-1
 667 018b 04       		.byte	4
 668 018c 01       		.byte	1
 669 018d 79       		.byte	121
 670 018e 1D       		.byte	29
 671 018f 01       		.byte	1
 672 0190 7B       		.byte	123
 673 0191 27       		.byte	39
 674 0192 01       		.byte	1
 675 0193 96       		.byte	-106
 676 0194 0E       		.byte	14
 677 0195 01       		.byte	1
 678 0196 97       		.byte	-105
 679 0197 FE       		.byte	-2
 680 0198 01       		.byte	1
 681 0199 98       		.byte	-104
 682 019a 03       		.byte	3
 683 019b 01       		.byte	1
 684 019c 99       		.byte	-103
ARM GAS  C:\Users\PCHAUT~1\AppData\Local\Temp\ccZvjaUR.s 			page 13


 685 019d EF       		.byte	-17
 686 019e 01       		.byte	1
 687 019f 9A       		.byte	-102
 688 01a0 02       		.byte	2
 689 01a1 01       		.byte	1
 690 01a2 9B       		.byte	-101
 691 01a3 44       		.byte	68
 692 01a4 01       		.byte	1
 693 01a5 73       		.byte	115
 694 01a6 07       		.byte	7
 695 01a7 01       		.byte	1
 696 01a8 70       		.byte	112
 697 01a9 01       		.byte	1
 698 01aa 01       		.byte	1
 699 01ab FF       		.byte	-1
 700 01ac 01       		.byte	1
 701 01ad 01       		.byte	1
 702 01ae 00       		.byte	0
 703 01af 01       		.byte	1
 704 01b0 01       		.byte	1
 705 01b1 FF       		.byte	-1
 706 01b2 00       		.byte	0
 707 01b3 00       		.byte	0
 708 01b4 00       		.byte	0
 709 01b5 00       		.byte	0
 710              		.section	.text.VL53L0X_GetVersion,"ax",%progbits
 711              		.align	1
 712              		.p2align 4,,15
 713              		.global	VL53L0X_GetVersion
 714              		.syntax unified
 715              		.thumb
 716              		.thumb_func
 717              		.fpu fpv4-sp-d16
 718              		.type	VL53L0X_GetVersion, %function
 719              	VL53L0X_GetVersion:
 720              	.LFB3:
 721              		.file 1 "../lib/e-puck2_main-processor/src/sensors/VL53L0X/Api/core/src/vl53l0x_api.c"
 722              		.loc 1 54 0
 723              		.cfi_startproc
 724              		@ args = 0, pretend = 0, frame = 16
 725              		@ frame_needed = 0, uses_anonymous_args = 0
 726 0000 00B5     		push	{lr}
 727              		.cfi_def_cfa_offset 4
 728              		.cfi_offset 14, -4
 729 0002 85B0     		sub	sp, sp, #20
 730              		.cfi_def_cfa_offset 24
 731 0004 0190     		str	r0, [sp, #4]
 732              		.loc 1 54 0
 733 0006 104B     		ldr	r3, .L4
 734 0008 1B68     		ldr	r3, [r3]
 735 000a 0393     		str	r3, [sp, #12]
 736              		.loc 1 55 0
 737 000c 0023     		movs	r3, #0
 738 000e 8DF80B30 		strb	r3, [sp, #11]
 739              		.loc 1 58 0
 740 0012 019B     		ldr	r3, [sp, #4]
 741 0014 0122     		movs	r2, #1
ARM GAS  C:\Users\PCHAUT~1\AppData\Local\Temp\ccZvjaUR.s 			page 14


 742 0016 1A71     		strb	r2, [r3, #4]
 743              		.loc 1 59 0
 744 0018 019B     		ldr	r3, [sp, #4]
 745 001a 0022     		movs	r2, #0
 746 001c 5A71     		strb	r2, [r3, #5]
 747              		.loc 1 60 0
 748 001e 019B     		ldr	r3, [sp, #4]
 749 0020 0222     		movs	r2, #2
 750 0022 9A71     		strb	r2, [r3, #6]
 751              		.loc 1 62 0
 752 0024 019B     		ldr	r3, [sp, #4]
 753 0026 41F2D722 		movw	r2, #4823
 754 002a 1A60     		str	r2, [r3]
 755              		.loc 1 65 0
 756 002c 9DF90B30 		ldrsb	r3, [sp, #11]
 757              		.loc 1 66 0
 758 0030 1846     		mov	r0, r3
 759 0032 054B     		ldr	r3, .L4
 760 0034 039A     		ldr	r2, [sp, #12]
 761 0036 1B68     		ldr	r3, [r3]
 762 0038 9A42     		cmp	r2, r3
 763 003a 01D0     		beq	.L3
 764 003c FFF7FEFF 		bl	__stack_chk_fail
 765              	.L3:
 766 0040 05B0     		add	sp, sp, #20
 767              		.cfi_def_cfa_offset 4
 768              		@ sp needed
 769 0042 5DF804FB 		ldr	pc, [sp], #4
 770              	.L5:
 771 0046 00BF     		.align	2
 772              	.L4:
 773 0048 00000000 		.word	__stack_chk_guard
 774              		.cfi_endproc
 775              	.LFE3:
 776              		.size	VL53L0X_GetVersion, .-VL53L0X_GetVersion
 777              		.section	.text.VL53L0X_GetPalSpecVersion,"ax",%progbits
 778              		.align	1
 779              		.p2align 4,,15
 780              		.global	VL53L0X_GetPalSpecVersion
 781              		.syntax unified
 782              		.thumb
 783              		.thumb_func
 784              		.fpu fpv4-sp-d16
 785              		.type	VL53L0X_GetPalSpecVersion, %function
 786              	VL53L0X_GetPalSpecVersion:
 787              	.LFB4:
 788              		.loc 1 69 0
 789              		.cfi_startproc
 790              		@ args = 0, pretend = 0, frame = 16
 791              		@ frame_needed = 0, uses_anonymous_args = 0
 792 0000 00B5     		push	{lr}
 793              		.cfi_def_cfa_offset 4
 794              		.cfi_offset 14, -4
 795 0002 85B0     		sub	sp, sp, #20
 796              		.cfi_def_cfa_offset 24
 797 0004 0190     		str	r0, [sp, #4]
 798              		.loc 1 69 0
ARM GAS  C:\Users\PCHAUT~1\AppData\Local\Temp\ccZvjaUR.s 			page 15


 799 0006 104B     		ldr	r3, .L9
 800 0008 1B68     		ldr	r3, [r3]
 801 000a 0393     		str	r3, [sp, #12]
 802              		.loc 1 70 0
 803 000c 0023     		movs	r3, #0
 804 000e 8DF80B30 		strb	r3, [sp, #11]
 805              		.loc 1 74 0
 806 0012 019B     		ldr	r3, [sp, #4]
 807 0014 0122     		movs	r2, #1
 808 0016 1A71     		strb	r2, [r3, #4]
 809              		.loc 1 75 0
 810 0018 019B     		ldr	r3, [sp, #4]
 811 001a 0222     		movs	r2, #2
 812 001c 5A71     		strb	r2, [r3, #5]
 813              		.loc 1 76 0
 814 001e 019B     		ldr	r3, [sp, #4]
 815 0020 0722     		movs	r2, #7
 816 0022 9A71     		strb	r2, [r3, #6]
 817              		.loc 1 78 0
 818 0024 019B     		ldr	r3, [sp, #4]
 819 0026 4FF4B462 		mov	r2, #1440
 820 002a 1A60     		str	r2, [r3]
 821              		.loc 1 81 0
 822 002c 9DF90B30 		ldrsb	r3, [sp, #11]
 823              		.loc 1 82 0
 824 0030 1846     		mov	r0, r3
 825 0032 054B     		ldr	r3, .L9
 826 0034 039A     		ldr	r2, [sp, #12]
 827 0036 1B68     		ldr	r3, [r3]
 828 0038 9A42     		cmp	r2, r3
 829 003a 01D0     		beq	.L8
 830 003c FFF7FEFF 		bl	__stack_chk_fail
 831              	.L8:
 832 0040 05B0     		add	sp, sp, #20
 833              		.cfi_def_cfa_offset 4
 834              		@ sp needed
 835 0042 5DF804FB 		ldr	pc, [sp], #4
 836              	.L10:
 837 0046 00BF     		.align	2
 838              	.L9:
 839 0048 00000000 		.word	__stack_chk_guard
 840              		.cfi_endproc
 841              	.LFE4:
 842              		.size	VL53L0X_GetPalSpecVersion, .-VL53L0X_GetPalSpecVersion
 843              		.section	.text.VL53L0X_GetProductRevision,"ax",%progbits
 844              		.align	1
 845              		.p2align 4,,15
 846              		.global	VL53L0X_GetProductRevision
 847              		.syntax unified
 848              		.thumb
 849              		.thumb_func
 850              		.fpu fpv4-sp-d16
 851              		.type	VL53L0X_GetProductRevision, %function
 852              	VL53L0X_GetProductRevision:
 853              	.LFB5:
 854              		.loc 1 86 0
 855              		.cfi_startproc
ARM GAS  C:\Users\PCHAUT~1\AppData\Local\Temp\ccZvjaUR.s 			page 16


 856              		@ args = 0, pretend = 0, frame = 24
 857              		@ frame_needed = 0, uses_anonymous_args = 0
 858 0000 00B5     		push	{lr}
 859              		.cfi_def_cfa_offset 4
 860              		.cfi_offset 14, -4
 861 0002 87B0     		sub	sp, sp, #28
 862              		.cfi_def_cfa_offset 32
 863 0004 0390     		str	r0, [sp, #12]
 864 0006 0291     		str	r1, [sp, #8]
 865 0008 0192     		str	r2, [sp, #4]
 866              		.loc 1 86 0
 867 000a 134B     		ldr	r3, .L14
 868 000c 1B68     		ldr	r3, [r3]
 869 000e 0593     		str	r3, [sp, #20]
 870              		.loc 1 87 0
 871 0010 0023     		movs	r3, #0
 872 0012 8DF81330 		strb	r3, [sp, #19]
 873              		.loc 1 92 0
 874 0016 0DF11203 		add	r3, sp, #18
 875 001a 1A46     		mov	r2, r3
 876 001c C221     		movs	r1, #194
 877 001e 0398     		ldr	r0, [sp, #12]
 878 0020 FFF7FEFF 		bl	VL53L0X_RdByte
 879 0024 0346     		mov	r3, r0
 880 0026 8DF81330 		strb	r3, [sp, #19]
 881              		.loc 1 94 0
 882 002a 029B     		ldr	r3, [sp, #8]
 883 002c 0122     		movs	r2, #1
 884 002e 1A70     		strb	r2, [r3]
 885              		.loc 1 95 0
 886 0030 9DF81230 		ldrb	r3, [sp, #18]	@ zero_extendqisi2
 887 0034 1B09     		lsrs	r3, r3, #4
 888 0036 DAB2     		uxtb	r2, r3
 889 0038 019B     		ldr	r3, [sp, #4]
 890 003a 1A70     		strb	r2, [r3]
 891              		.loc 1 98 0
 892 003c 9DF91330 		ldrsb	r3, [sp, #19]
 893              		.loc 1 100 0
 894 0040 1846     		mov	r0, r3
 895 0042 054B     		ldr	r3, .L14
 896 0044 059A     		ldr	r2, [sp, #20]
 897 0046 1B68     		ldr	r3, [r3]
 898 0048 9A42     		cmp	r2, r3
 899 004a 01D0     		beq	.L13
 900 004c FFF7FEFF 		bl	__stack_chk_fail
 901              	.L13:
 902 0050 07B0     		add	sp, sp, #28
 903              		.cfi_def_cfa_offset 4
 904              		@ sp needed
 905 0052 5DF804FB 		ldr	pc, [sp], #4
 906              	.L15:
 907 0056 00BF     		.align	2
 908              	.L14:
 909 0058 00000000 		.word	__stack_chk_guard
 910              		.cfi_endproc
 911              	.LFE5:
 912              		.size	VL53L0X_GetProductRevision, .-VL53L0X_GetProductRevision
ARM GAS  C:\Users\PCHAUT~1\AppData\Local\Temp\ccZvjaUR.s 			page 17


 913              		.section	.text.VL53L0X_GetDeviceInfo,"ax",%progbits
 914              		.align	1
 915              		.p2align 4,,15
 916              		.global	VL53L0X_GetDeviceInfo
 917              		.syntax unified
 918              		.thumb
 919              		.thumb_func
 920              		.fpu fpv4-sp-d16
 921              		.type	VL53L0X_GetDeviceInfo, %function
 922              	VL53L0X_GetDeviceInfo:
 923              	.LFB6:
 924              		.loc 1 104 0
 925              		.cfi_startproc
 926              		@ args = 0, pretend = 0, frame = 16
 927              		@ frame_needed = 0, uses_anonymous_args = 0
 928 0000 00B5     		push	{lr}
 929              		.cfi_def_cfa_offset 4
 930              		.cfi_offset 14, -4
 931 0002 85B0     		sub	sp, sp, #20
 932              		.cfi_def_cfa_offset 24
 933 0004 0190     		str	r0, [sp, #4]
 934 0006 0091     		str	r1, [sp]
 935              		.loc 1 104 0
 936 0008 0C4B     		ldr	r3, .L19
 937 000a 1B68     		ldr	r3, [r3]
 938 000c 0393     		str	r3, [sp, #12]
 939              		.loc 1 105 0
 940 000e 0023     		movs	r3, #0
 941 0010 8DF80B30 		strb	r3, [sp, #11]
 942              		.loc 1 108 0
 943 0014 0099     		ldr	r1, [sp]
 944 0016 0198     		ldr	r0, [sp, #4]
 945 0018 FFF7FEFF 		bl	VL53L0X_get_device_info
 946 001c 0346     		mov	r3, r0
 947 001e 8DF80B30 		strb	r3, [sp, #11]
 948              		.loc 1 111 0
 949 0022 9DF90B30 		ldrsb	r3, [sp, #11]
 950              		.loc 1 112 0
 951 0026 1846     		mov	r0, r3
 952 0028 044B     		ldr	r3, .L19
 953 002a 039A     		ldr	r2, [sp, #12]
 954 002c 1B68     		ldr	r3, [r3]
 955 002e 9A42     		cmp	r2, r3
 956 0030 01D0     		beq	.L18
 957 0032 FFF7FEFF 		bl	__stack_chk_fail
 958              	.L18:
 959 0036 05B0     		add	sp, sp, #20
 960              		.cfi_def_cfa_offset 4
 961              		@ sp needed
 962 0038 5DF804FB 		ldr	pc, [sp], #4
 963              	.L20:
 964              		.align	2
 965              	.L19:
 966 003c 00000000 		.word	__stack_chk_guard
 967              		.cfi_endproc
 968              	.LFE6:
 969              		.size	VL53L0X_GetDeviceInfo, .-VL53L0X_GetDeviceInfo
ARM GAS  C:\Users\PCHAUT~1\AppData\Local\Temp\ccZvjaUR.s 			page 18


 970              		.section	.text.VL53L0X_GetDeviceErrorStatus,"ax",%progbits
 971              		.align	1
 972              		.p2align 4,,15
 973              		.global	VL53L0X_GetDeviceErrorStatus
 974              		.syntax unified
 975              		.thumb
 976              		.thumb_func
 977              		.fpu fpv4-sp-d16
 978              		.type	VL53L0X_GetDeviceErrorStatus, %function
 979              	VL53L0X_GetDeviceErrorStatus:
 980              	.LFB7:
 981              		.loc 1 116 0
 982              		.cfi_startproc
 983              		@ args = 0, pretend = 0, frame = 16
 984              		@ frame_needed = 0, uses_anonymous_args = 0
 985 0000 00B5     		push	{lr}
 986              		.cfi_def_cfa_offset 4
 987              		.cfi_offset 14, -4
 988 0002 85B0     		sub	sp, sp, #20
 989              		.cfi_def_cfa_offset 24
 990 0004 0190     		str	r0, [sp, #4]
 991 0006 0091     		str	r1, [sp]
 992              		.loc 1 116 0
 993 0008 124B     		ldr	r3, .L24
 994 000a 1B68     		ldr	r3, [r3]
 995 000c 0393     		str	r3, [sp, #12]
 996              		.loc 1 117 0
 997 000e 0023     		movs	r3, #0
 998 0010 8DF80B30 		strb	r3, [sp, #11]
 999              		.loc 1 122 0
 1000 0014 0DF10A03 		add	r3, sp, #10
 1001 0018 1A46     		mov	r2, r3
 1002 001a 1421     		movs	r1, #20
 1003 001c 0198     		ldr	r0, [sp, #4]
 1004 001e FFF7FEFF 		bl	VL53L0X_RdByte
 1005 0022 0346     		mov	r3, r0
 1006 0024 8DF80B30 		strb	r3, [sp, #11]
 1007              		.loc 1 125 0
 1008 0028 9DF80A30 		ldrb	r3, [sp, #10]	@ zero_extendqisi2
 1009 002c DB10     		asrs	r3, r3, #3
 1010 002e DBB2     		uxtb	r3, r3
 1011 0030 03F00F03 		and	r3, r3, #15
 1012 0034 DAB2     		uxtb	r2, r3
 1013 0036 009B     		ldr	r3, [sp]
 1014 0038 1A70     		strb	r2, [r3]
 1015              		.loc 1 128 0
 1016 003a 9DF90B30 		ldrsb	r3, [sp, #11]
 1017              		.loc 1 129 0
 1018 003e 1846     		mov	r0, r3
 1019 0040 044B     		ldr	r3, .L24
 1020 0042 039A     		ldr	r2, [sp, #12]
 1021 0044 1B68     		ldr	r3, [r3]
 1022 0046 9A42     		cmp	r2, r3
 1023 0048 01D0     		beq	.L23
 1024 004a FFF7FEFF 		bl	__stack_chk_fail
 1025              	.L23:
 1026 004e 05B0     		add	sp, sp, #20
ARM GAS  C:\Users\PCHAUT~1\AppData\Local\Temp\ccZvjaUR.s 			page 19


 1027              		.cfi_def_cfa_offset 4
 1028              		@ sp needed
 1029 0050 5DF804FB 		ldr	pc, [sp], #4
 1030              	.L25:
 1031              		.align	2
 1032              	.L24:
 1033 0054 00000000 		.word	__stack_chk_guard
 1034              		.cfi_endproc
 1035              	.LFE7:
 1036              		.size	VL53L0X_GetDeviceErrorStatus, .-VL53L0X_GetDeviceErrorStatus
 1037              		.section	.text.VL53L0X_GetDeviceErrorString,"ax",%progbits
 1038              		.align	1
 1039              		.p2align 4,,15
 1040              		.global	VL53L0X_GetDeviceErrorString
 1041              		.syntax unified
 1042              		.thumb
 1043              		.thumb_func
 1044              		.fpu fpv4-sp-d16
 1045              		.type	VL53L0X_GetDeviceErrorString, %function
 1046              	VL53L0X_GetDeviceErrorString:
 1047              	.LFB8:
 1048              		.loc 1 134 0
 1049              		.cfi_startproc
 1050              		@ args = 0, pretend = 0, frame = 16
 1051              		@ frame_needed = 0, uses_anonymous_args = 0
 1052 0000 00B5     		push	{lr}
 1053              		.cfi_def_cfa_offset 4
 1054              		.cfi_offset 14, -4
 1055 0002 85B0     		sub	sp, sp, #20
 1056              		.cfi_def_cfa_offset 24
 1057 0004 0346     		mov	r3, r0
 1058 0006 0091     		str	r1, [sp]
 1059 0008 8DF80730 		strb	r3, [sp, #7]
 1060              		.loc 1 134 0
 1061 000c 0D4B     		ldr	r3, .L29
 1062 000e 1B68     		ldr	r3, [r3]
 1063 0010 0393     		str	r3, [sp, #12]
 1064              		.loc 1 135 0
 1065 0012 0023     		movs	r3, #0
 1066 0014 8DF80B30 		strb	r3, [sp, #11]
 1067              		.loc 1 139 0
 1068 0018 9DF80730 		ldrb	r3, [sp, #7]	@ zero_extendqisi2
 1069 001c 0099     		ldr	r1, [sp]
 1070 001e 1846     		mov	r0, r3
 1071 0020 FFF7FEFF 		bl	VL53L0X_get_device_error_string
 1072 0024 0346     		mov	r3, r0
 1073 0026 8DF80B30 		strb	r3, [sp, #11]
 1074              		.loc 1 142 0
 1075 002a 9DF90B30 		ldrsb	r3, [sp, #11]
 1076              		.loc 1 143 0
 1077 002e 1846     		mov	r0, r3
 1078 0030 044B     		ldr	r3, .L29
 1079 0032 039A     		ldr	r2, [sp, #12]
 1080 0034 1B68     		ldr	r3, [r3]
 1081 0036 9A42     		cmp	r2, r3
 1082 0038 01D0     		beq	.L28
 1083 003a FFF7FEFF 		bl	__stack_chk_fail
ARM GAS  C:\Users\PCHAUT~1\AppData\Local\Temp\ccZvjaUR.s 			page 20


 1084              	.L28:
 1085 003e 05B0     		add	sp, sp, #20
 1086              		.cfi_def_cfa_offset 4
 1087              		@ sp needed
 1088 0040 5DF804FB 		ldr	pc, [sp], #4
 1089              	.L30:
 1090              		.align	2
 1091              	.L29:
 1092 0044 00000000 		.word	__stack_chk_guard
 1093              		.cfi_endproc
 1094              	.LFE8:
 1095              		.size	VL53L0X_GetDeviceErrorString, .-VL53L0X_GetDeviceErrorString
 1096              		.section	.text.VL53L0X_GetRangeStatusString,"ax",%progbits
 1097              		.align	1
 1098              		.p2align 4,,15
 1099              		.global	VL53L0X_GetRangeStatusString
 1100              		.syntax unified
 1101              		.thumb
 1102              		.thumb_func
 1103              		.fpu fpv4-sp-d16
 1104              		.type	VL53L0X_GetRangeStatusString, %function
 1105              	VL53L0X_GetRangeStatusString:
 1106              	.LFB9:
 1107              		.loc 1 147 0
 1108              		.cfi_startproc
 1109              		@ args = 0, pretend = 0, frame = 16
 1110              		@ frame_needed = 0, uses_anonymous_args = 0
 1111 0000 00B5     		push	{lr}
 1112              		.cfi_def_cfa_offset 4
 1113              		.cfi_offset 14, -4
 1114 0002 85B0     		sub	sp, sp, #20
 1115              		.cfi_def_cfa_offset 24
 1116 0004 0346     		mov	r3, r0
 1117 0006 0091     		str	r1, [sp]
 1118 0008 8DF80730 		strb	r3, [sp, #7]
 1119              		.loc 1 147 0
 1120 000c 0D4B     		ldr	r3, .L34
 1121 000e 1B68     		ldr	r3, [r3]
 1122 0010 0393     		str	r3, [sp, #12]
 1123              		.loc 1 148 0
 1124 0012 0023     		movs	r3, #0
 1125 0014 8DF80B30 		strb	r3, [sp, #11]
 1126              		.loc 1 151 0
 1127 0018 9DF80730 		ldrb	r3, [sp, #7]	@ zero_extendqisi2
 1128 001c 0099     		ldr	r1, [sp]
 1129 001e 1846     		mov	r0, r3
 1130 0020 FFF7FEFF 		bl	VL53L0X_get_range_status_string
 1131 0024 0346     		mov	r3, r0
 1132 0026 8DF80B30 		strb	r3, [sp, #11]
 1133              		.loc 1 155 0
 1134 002a 9DF90B30 		ldrsb	r3, [sp, #11]
 1135              		.loc 1 156 0
 1136 002e 1846     		mov	r0, r3
 1137 0030 044B     		ldr	r3, .L34
 1138 0032 039A     		ldr	r2, [sp, #12]
 1139 0034 1B68     		ldr	r3, [r3]
 1140 0036 9A42     		cmp	r2, r3
ARM GAS  C:\Users\PCHAUT~1\AppData\Local\Temp\ccZvjaUR.s 			page 21


 1141 0038 01D0     		beq	.L33
 1142 003a FFF7FEFF 		bl	__stack_chk_fail
 1143              	.L33:
 1144 003e 05B0     		add	sp, sp, #20
 1145              		.cfi_def_cfa_offset 4
 1146              		@ sp needed
 1147 0040 5DF804FB 		ldr	pc, [sp], #4
 1148              	.L35:
 1149              		.align	2
 1150              	.L34:
 1151 0044 00000000 		.word	__stack_chk_guard
 1152              		.cfi_endproc
 1153              	.LFE9:
 1154              		.size	VL53L0X_GetRangeStatusString, .-VL53L0X_GetRangeStatusString
 1155              		.section	.text.VL53L0X_GetPalErrorString,"ax",%progbits
 1156              		.align	1
 1157              		.p2align 4,,15
 1158              		.global	VL53L0X_GetPalErrorString
 1159              		.syntax unified
 1160              		.thumb
 1161              		.thumb_func
 1162              		.fpu fpv4-sp-d16
 1163              		.type	VL53L0X_GetPalErrorString, %function
 1164              	VL53L0X_GetPalErrorString:
 1165              	.LFB10:
 1166              		.loc 1 160 0
 1167              		.cfi_startproc
 1168              		@ args = 0, pretend = 0, frame = 16
 1169              		@ frame_needed = 0, uses_anonymous_args = 0
 1170 0000 00B5     		push	{lr}
 1171              		.cfi_def_cfa_offset 4
 1172              		.cfi_offset 14, -4
 1173 0002 85B0     		sub	sp, sp, #20
 1174              		.cfi_def_cfa_offset 24
 1175 0004 0346     		mov	r3, r0
 1176 0006 0091     		str	r1, [sp]
 1177 0008 8DF80730 		strb	r3, [sp, #7]
 1178              		.loc 1 160 0
 1179 000c 0D4B     		ldr	r3, .L39
 1180 000e 1B68     		ldr	r3, [r3]
 1181 0010 0393     		str	r3, [sp, #12]
 1182              		.loc 1 161 0
 1183 0012 0023     		movs	r3, #0
 1184 0014 8DF80B30 		strb	r3, [sp, #11]
 1185              		.loc 1 164 0
 1186 0018 9DF90730 		ldrsb	r3, [sp, #7]
 1187 001c 0099     		ldr	r1, [sp]
 1188 001e 1846     		mov	r0, r3
 1189 0020 FFF7FEFF 		bl	VL53L0X_get_pal_error_string
 1190 0024 0346     		mov	r3, r0
 1191 0026 8DF80B30 		strb	r3, [sp, #11]
 1192              		.loc 1 167 0
 1193 002a 9DF90B30 		ldrsb	r3, [sp, #11]
 1194              		.loc 1 168 0
 1195 002e 1846     		mov	r0, r3
 1196 0030 044B     		ldr	r3, .L39
 1197 0032 039A     		ldr	r2, [sp, #12]
ARM GAS  C:\Users\PCHAUT~1\AppData\Local\Temp\ccZvjaUR.s 			page 22


 1198 0034 1B68     		ldr	r3, [r3]
 1199 0036 9A42     		cmp	r2, r3
 1200 0038 01D0     		beq	.L38
 1201 003a FFF7FEFF 		bl	__stack_chk_fail
 1202              	.L38:
 1203 003e 05B0     		add	sp, sp, #20
 1204              		.cfi_def_cfa_offset 4
 1205              		@ sp needed
 1206 0040 5DF804FB 		ldr	pc, [sp], #4
 1207              	.L40:
 1208              		.align	2
 1209              	.L39:
 1210 0044 00000000 		.word	__stack_chk_guard
 1211              		.cfi_endproc
 1212              	.LFE10:
 1213              		.size	VL53L0X_GetPalErrorString, .-VL53L0X_GetPalErrorString
 1214              		.section	.text.VL53L0X_GetPalStateString,"ax",%progbits
 1215              		.align	1
 1216              		.p2align 4,,15
 1217              		.global	VL53L0X_GetPalStateString
 1218              		.syntax unified
 1219              		.thumb
 1220              		.thumb_func
 1221              		.fpu fpv4-sp-d16
 1222              		.type	VL53L0X_GetPalStateString, %function
 1223              	VL53L0X_GetPalStateString:
 1224              	.LFB11:
 1225              		.loc 1 172 0
 1226              		.cfi_startproc
 1227              		@ args = 0, pretend = 0, frame = 16
 1228              		@ frame_needed = 0, uses_anonymous_args = 0
 1229 0000 00B5     		push	{lr}
 1230              		.cfi_def_cfa_offset 4
 1231              		.cfi_offset 14, -4
 1232 0002 85B0     		sub	sp, sp, #20
 1233              		.cfi_def_cfa_offset 24
 1234 0004 0346     		mov	r3, r0
 1235 0006 0091     		str	r1, [sp]
 1236 0008 8DF80730 		strb	r3, [sp, #7]
 1237              		.loc 1 172 0
 1238 000c 0D4B     		ldr	r3, .L44
 1239 000e 1B68     		ldr	r3, [r3]
 1240 0010 0393     		str	r3, [sp, #12]
 1241              		.loc 1 173 0
 1242 0012 0023     		movs	r3, #0
 1243 0014 8DF80B30 		strb	r3, [sp, #11]
 1244              		.loc 1 176 0
 1245 0018 9DF80730 		ldrb	r3, [sp, #7]	@ zero_extendqisi2
 1246 001c 0099     		ldr	r1, [sp]
 1247 001e 1846     		mov	r0, r3
 1248 0020 FFF7FEFF 		bl	VL53L0X_get_pal_state_string
 1249 0024 0346     		mov	r3, r0
 1250 0026 8DF80B30 		strb	r3, [sp, #11]
 1251              		.loc 1 179 0
 1252 002a 9DF90B30 		ldrsb	r3, [sp, #11]
 1253              		.loc 1 180 0
 1254 002e 1846     		mov	r0, r3
ARM GAS  C:\Users\PCHAUT~1\AppData\Local\Temp\ccZvjaUR.s 			page 23


 1255 0030 044B     		ldr	r3, .L44
 1256 0032 039A     		ldr	r2, [sp, #12]
 1257 0034 1B68     		ldr	r3, [r3]
 1258 0036 9A42     		cmp	r2, r3
 1259 0038 01D0     		beq	.L43
 1260 003a FFF7FEFF 		bl	__stack_chk_fail
 1261              	.L43:
 1262 003e 05B0     		add	sp, sp, #20
 1263              		.cfi_def_cfa_offset 4
 1264              		@ sp needed
 1265 0040 5DF804FB 		ldr	pc, [sp], #4
 1266              	.L45:
 1267              		.align	2
 1268              	.L44:
 1269 0044 00000000 		.word	__stack_chk_guard
 1270              		.cfi_endproc
 1271              	.LFE11:
 1272              		.size	VL53L0X_GetPalStateString, .-VL53L0X_GetPalStateString
 1273              		.section	.text.VL53L0X_GetPalState,"ax",%progbits
 1274              		.align	1
 1275              		.p2align 4,,15
 1276              		.global	VL53L0X_GetPalState
 1277              		.syntax unified
 1278              		.thumb
 1279              		.thumb_func
 1280              		.fpu fpv4-sp-d16
 1281              		.type	VL53L0X_GetPalState, %function
 1282              	VL53L0X_GetPalState:
 1283              	.LFB12:
 1284              		.loc 1 183 0
 1285              		.cfi_startproc
 1286              		@ args = 0, pretend = 0, frame = 16
 1287              		@ frame_needed = 0, uses_anonymous_args = 0
 1288 0000 00B5     		push	{lr}
 1289              		.cfi_def_cfa_offset 4
 1290              		.cfi_offset 14, -4
 1291 0002 85B0     		sub	sp, sp, #20
 1292              		.cfi_def_cfa_offset 24
 1293 0004 0190     		str	r0, [sp, #4]
 1294 0006 0091     		str	r1, [sp]
 1295              		.loc 1 183 0
 1296 0008 0B4B     		ldr	r3, .L49
 1297 000a 1B68     		ldr	r3, [r3]
 1298 000c 0393     		str	r3, [sp, #12]
 1299              		.loc 1 184 0
 1300 000e 0023     		movs	r3, #0
 1301 0010 8DF80B30 		strb	r3, [sp, #11]
 1302              		.loc 1 187 0
 1303 0014 019B     		ldr	r3, [sp, #4]
 1304 0016 93F83221 		ldrb	r2, [r3, #306]	@ zero_extendqisi2
 1305 001a 009B     		ldr	r3, [sp]
 1306 001c 1A70     		strb	r2, [r3]
 1307              		.loc 1 190 0
 1308 001e 9DF90B30 		ldrsb	r3, [sp, #11]
 1309              		.loc 1 191 0
 1310 0022 1846     		mov	r0, r3
 1311 0024 044B     		ldr	r3, .L49
ARM GAS  C:\Users\PCHAUT~1\AppData\Local\Temp\ccZvjaUR.s 			page 24


 1312 0026 039A     		ldr	r2, [sp, #12]
 1313 0028 1B68     		ldr	r3, [r3]
 1314 002a 9A42     		cmp	r2, r3
 1315 002c 01D0     		beq	.L48
 1316 002e FFF7FEFF 		bl	__stack_chk_fail
 1317              	.L48:
 1318 0032 05B0     		add	sp, sp, #20
 1319              		.cfi_def_cfa_offset 4
 1320              		@ sp needed
 1321 0034 5DF804FB 		ldr	pc, [sp], #4
 1322              	.L50:
 1323              		.align	2
 1324              	.L49:
 1325 0038 00000000 		.word	__stack_chk_guard
 1326              		.cfi_endproc
 1327              	.LFE12:
 1328              		.size	VL53L0X_GetPalState, .-VL53L0X_GetPalState
 1329              		.section	.text.VL53L0X_SetPowerMode,"ax",%progbits
 1330              		.align	1
 1331              		.p2align 4,,15
 1332              		.global	VL53L0X_SetPowerMode
 1333              		.syntax unified
 1334              		.thumb
 1335              		.thumb_func
 1336              		.fpu fpv4-sp-d16
 1337              		.type	VL53L0X_SetPowerMode, %function
 1338              	VL53L0X_SetPowerMode:
 1339              	.LFB13:
 1340              		.loc 1 194 0
 1341              		.cfi_startproc
 1342              		@ args = 0, pretend = 0, frame = 16
 1343              		@ frame_needed = 0, uses_anonymous_args = 0
 1344 0000 00B5     		push	{lr}
 1345              		.cfi_def_cfa_offset 4
 1346              		.cfi_offset 14, -4
 1347 0002 85B0     		sub	sp, sp, #20
 1348              		.cfi_def_cfa_offset 24
 1349 0004 0190     		str	r0, [sp, #4]
 1350 0006 0B46     		mov	r3, r1
 1351 0008 8DF80330 		strb	r3, [sp, #3]
 1352              		.loc 1 194 0
 1353 000c 284B     		ldr	r3, .L59
 1354 000e 1B68     		ldr	r3, [r3]
 1355 0010 0393     		str	r3, [sp, #12]
 1356              		.loc 1 196 0
 1357 0012 0023     		movs	r3, #0
 1358 0014 8DF80B30 		strb	r3, [sp, #11]
 1359              		.loc 1 200 0
 1360 0018 9DF80330 		ldrb	r3, [sp, #3]	@ zero_extendqisi2
 1361 001c 002B     		cmp	r3, #0
 1362 001e 07D0     		beq	.L52
 1363              		.loc 1 201 0
 1364 0020 9DF80330 		ldrb	r3, [sp, #3]	@ zero_extendqisi2
 1365 0024 022B     		cmp	r3, #2
 1366 0026 03D0     		beq	.L52
 1367              		.loc 1 202 0
 1368 0028 F823     		movs	r3, #248
ARM GAS  C:\Users\PCHAUT~1\AppData\Local\Temp\ccZvjaUR.s 			page 25


 1369 002a 8DF80B30 		strb	r3, [sp, #11]
 1370 002e 32E0     		b	.L53
 1371              	.L52:
 1372              		.loc 1 203 0
 1373 0030 9DF80330 		ldrb	r3, [sp, #3]	@ zero_extendqisi2
 1374 0034 002B     		cmp	r3, #0
 1375 0036 14D1     		bne	.L54
 1376              		.loc 1 205 0
 1377 0038 0022     		movs	r2, #0
 1378 003a 8021     		movs	r1, #128
 1379 003c 0198     		ldr	r0, [sp, #4]
 1380 003e FFF7FEFF 		bl	VL53L0X_WrByte
 1381 0042 0346     		mov	r3, r0
 1382 0044 8DF80B30 		strb	r3, [sp, #11]
 1383              		.loc 1 206 0
 1384 0048 9DF90B30 		ldrsb	r3, [sp, #11]
 1385 004c 002B     		cmp	r3, #0
 1386 004e 22D1     		bne	.L53
 1387              		.loc 1 208 0
 1388 0050 019B     		ldr	r3, [sp, #4]
 1389 0052 0222     		movs	r2, #2
 1390 0054 83F83221 		strb	r2, [r3, #306]
 1391              		.loc 1 209 0
 1392 0058 019B     		ldr	r3, [sp, #4]
 1393 005a 0022     		movs	r2, #0
 1394 005c 83F83321 		strb	r2, [r3, #307]
 1395 0060 19E0     		b	.L53
 1396              	.L54:
 1397              		.loc 1 215 0
 1398 0062 0022     		movs	r2, #0
 1399 0064 8021     		movs	r1, #128
 1400 0066 0198     		ldr	r0, [sp, #4]
 1401 0068 FFF7FEFF 		bl	VL53L0X_WrByte
 1402 006c 0346     		mov	r3, r0
 1403 006e 8DF80B30 		strb	r3, [sp, #11]
 1404              		.loc 1 216 0
 1405 0072 9DF90B30 		ldrsb	r3, [sp, #11]
 1406 0076 002B     		cmp	r3, #0
 1407 0078 05D1     		bne	.L56
 1408              		.loc 1 217 0
 1409 007a 0198     		ldr	r0, [sp, #4]
 1410 007c FFF7FEFF 		bl	VL53L0X_StaticInit
 1411 0080 0346     		mov	r3, r0
 1412 0082 8DF80B30 		strb	r3, [sp, #11]
 1413              	.L56:
 1414              		.loc 1 219 0
 1415 0086 9DF90B30 		ldrsb	r3, [sp, #11]
 1416 008a 002B     		cmp	r3, #0
 1417 008c 03D1     		bne	.L53
 1418              		.loc 1 220 0
 1419 008e 019B     		ldr	r3, [sp, #4]
 1420 0090 0222     		movs	r2, #2
 1421 0092 83F83321 		strb	r2, [r3, #307]
 1422              	.L53:
 1423              		.loc 1 226 0
 1424 0096 9DF90B30 		ldrsb	r3, [sp, #11]
 1425              		.loc 1 227 0
ARM GAS  C:\Users\PCHAUT~1\AppData\Local\Temp\ccZvjaUR.s 			page 26


 1426 009a 1846     		mov	r0, r3
 1427 009c 044B     		ldr	r3, .L59
 1428 009e 039A     		ldr	r2, [sp, #12]
 1429 00a0 1B68     		ldr	r3, [r3]
 1430 00a2 9A42     		cmp	r2, r3
 1431 00a4 01D0     		beq	.L58
 1432 00a6 FFF7FEFF 		bl	__stack_chk_fail
 1433              	.L58:
 1434 00aa 05B0     		add	sp, sp, #20
 1435              		.cfi_def_cfa_offset 4
 1436              		@ sp needed
 1437 00ac 5DF804FB 		ldr	pc, [sp], #4
 1438              	.L60:
 1439              		.align	2
 1440              	.L59:
 1441 00b0 00000000 		.word	__stack_chk_guard
 1442              		.cfi_endproc
 1443              	.LFE13:
 1444              		.size	VL53L0X_SetPowerMode, .-VL53L0X_SetPowerMode
 1445              		.section	.text.VL53L0X_GetPowerMode,"ax",%progbits
 1446              		.align	1
 1447              		.p2align 4,,15
 1448              		.global	VL53L0X_GetPowerMode
 1449              		.syntax unified
 1450              		.thumb
 1451              		.thumb_func
 1452              		.fpu fpv4-sp-d16
 1453              		.type	VL53L0X_GetPowerMode, %function
 1454              	VL53L0X_GetPowerMode:
 1455              	.LFB14:
 1456              		.loc 1 230 0
 1457              		.cfi_startproc
 1458              		@ args = 0, pretend = 0, frame = 16
 1459              		@ frame_needed = 0, uses_anonymous_args = 0
 1460 0000 00B5     		push	{lr}
 1461              		.cfi_def_cfa_offset 4
 1462              		.cfi_offset 14, -4
 1463 0002 85B0     		sub	sp, sp, #20
 1464              		.cfi_def_cfa_offset 24
 1465 0004 0190     		str	r0, [sp, #4]
 1466 0006 0091     		str	r1, [sp]
 1467              		.loc 1 230 0
 1468 0008 164B     		ldr	r3, .L66
 1469 000a 1B68     		ldr	r3, [r3]
 1470 000c 0393     		str	r3, [sp, #12]
 1471              		.loc 1 232 0
 1472 000e 0023     		movs	r3, #0
 1473 0010 8DF80B30 		strb	r3, [sp, #11]
 1474              		.loc 1 237 0
 1475 0014 0DF10A03 		add	r3, sp, #10
 1476 0018 1A46     		mov	r2, r3
 1477 001a 8021     		movs	r1, #128
 1478 001c 0198     		ldr	r0, [sp, #4]
 1479 001e FFF7FEFF 		bl	VL53L0X_RdByte
 1480 0022 0346     		mov	r3, r0
 1481 0024 8DF80B30 		strb	r3, [sp, #11]
 1482              		.loc 1 239 0
ARM GAS  C:\Users\PCHAUT~1\AppData\Local\Temp\ccZvjaUR.s 			page 27


 1483 0028 9DF90B30 		ldrsb	r3, [sp, #11]
 1484 002c 002B     		cmp	r3, #0
 1485 002e 0CD1     		bne	.L62
 1486              		.loc 1 240 0
 1487 0030 9DF80A30 		ldrb	r3, [sp, #10]	@ zero_extendqisi2
 1488 0034 012B     		cmp	r3, #1
 1489 0036 04D1     		bne	.L63
 1490              		.loc 1 241 0
 1491 0038 019B     		ldr	r3, [sp, #4]
 1492 003a 0222     		movs	r2, #2
 1493 003c 83F83321 		strb	r2, [r3, #307]
 1494 0040 03E0     		b	.L62
 1495              	.L63:
 1496              		.loc 1 244 0
 1497 0042 019B     		ldr	r3, [sp, #4]
 1498 0044 0022     		movs	r2, #0
 1499 0046 83F83321 		strb	r2, [r3, #307]
 1500              	.L62:
 1501              		.loc 1 250 0
 1502 004a 9DF90B30 		ldrsb	r3, [sp, #11]
 1503              		.loc 1 251 0
 1504 004e 1846     		mov	r0, r3
 1505 0050 044B     		ldr	r3, .L66
 1506 0052 039A     		ldr	r2, [sp, #12]
 1507 0054 1B68     		ldr	r3, [r3]
 1508 0056 9A42     		cmp	r2, r3
 1509 0058 01D0     		beq	.L65
 1510 005a FFF7FEFF 		bl	__stack_chk_fail
 1511              	.L65:
 1512 005e 05B0     		add	sp, sp, #20
 1513              		.cfi_def_cfa_offset 4
 1514              		@ sp needed
 1515 0060 5DF804FB 		ldr	pc, [sp], #4
 1516              	.L67:
 1517              		.align	2
 1518              	.L66:
 1519 0064 00000000 		.word	__stack_chk_guard
 1520              		.cfi_endproc
 1521              	.LFE14:
 1522              		.size	VL53L0X_GetPowerMode, .-VL53L0X_GetPowerMode
 1523              		.section	.text.VL53L0X_SetOffsetCalibrationDataMicroMeter,"ax",%progbits
 1524              		.align	1
 1525              		.p2align 4,,15
 1526              		.global	VL53L0X_SetOffsetCalibrationDataMicroMeter
 1527              		.syntax unified
 1528              		.thumb
 1529              		.thumb_func
 1530              		.fpu fpv4-sp-d16
 1531              		.type	VL53L0X_SetOffsetCalibrationDataMicroMeter, %function
 1532              	VL53L0X_SetOffsetCalibrationDataMicroMeter:
 1533              	.LFB15:
 1534              		.loc 1 255 0
 1535              		.cfi_startproc
 1536              		@ args = 0, pretend = 0, frame = 16
 1537              		@ frame_needed = 0, uses_anonymous_args = 0
 1538 0000 00B5     		push	{lr}
 1539              		.cfi_def_cfa_offset 4
ARM GAS  C:\Users\PCHAUT~1\AppData\Local\Temp\ccZvjaUR.s 			page 28


 1540              		.cfi_offset 14, -4
 1541 0002 85B0     		sub	sp, sp, #20
 1542              		.cfi_def_cfa_offset 24
 1543 0004 0190     		str	r0, [sp, #4]
 1544 0006 0091     		str	r1, [sp]
 1545              		.loc 1 255 0
 1546 0008 0C4B     		ldr	r3, .L71
 1547 000a 1B68     		ldr	r3, [r3]
 1548 000c 0393     		str	r3, [sp, #12]
 1549              		.loc 1 256 0
 1550 000e 0023     		movs	r3, #0
 1551 0010 8DF80B30 		strb	r3, [sp, #11]
 1552              		.loc 1 259 0
 1553 0014 0099     		ldr	r1, [sp]
 1554 0016 0198     		ldr	r0, [sp, #4]
 1555 0018 FFF7FEFF 		bl	VL53L0X_set_offset_calibration_data_micro_meter
 1556 001c 0346     		mov	r3, r0
 1557 001e 8DF80B30 		strb	r3, [sp, #11]
 1558              		.loc 1 263 0
 1559 0022 9DF90B30 		ldrsb	r3, [sp, #11]
 1560              		.loc 1 264 0
 1561 0026 1846     		mov	r0, r3
 1562 0028 044B     		ldr	r3, .L71
 1563 002a 039A     		ldr	r2, [sp, #12]
 1564 002c 1B68     		ldr	r3, [r3]
 1565 002e 9A42     		cmp	r2, r3
 1566 0030 01D0     		beq	.L70
 1567 0032 FFF7FEFF 		bl	__stack_chk_fail
 1568              	.L70:
 1569 0036 05B0     		add	sp, sp, #20
 1570              		.cfi_def_cfa_offset 4
 1571              		@ sp needed
 1572 0038 5DF804FB 		ldr	pc, [sp], #4
 1573              	.L72:
 1574              		.align	2
 1575              	.L71:
 1576 003c 00000000 		.word	__stack_chk_guard
 1577              		.cfi_endproc
 1578              	.LFE15:
 1579              		.size	VL53L0X_SetOffsetCalibrationDataMicroMeter, .-VL53L0X_SetOffsetCalibrationDataMicroMeter
 1580              		.section	.text.VL53L0X_GetOffsetCalibrationDataMicroMeter,"ax",%progbits
 1581              		.align	1
 1582              		.p2align 4,,15
 1583              		.global	VL53L0X_GetOffsetCalibrationDataMicroMeter
 1584              		.syntax unified
 1585              		.thumb
 1586              		.thumb_func
 1587              		.fpu fpv4-sp-d16
 1588              		.type	VL53L0X_GetOffsetCalibrationDataMicroMeter, %function
 1589              	VL53L0X_GetOffsetCalibrationDataMicroMeter:
 1590              	.LFB16:
 1591              		.loc 1 268 0
 1592              		.cfi_startproc
 1593              		@ args = 0, pretend = 0, frame = 16
 1594              		@ frame_needed = 0, uses_anonymous_args = 0
 1595 0000 00B5     		push	{lr}
 1596              		.cfi_def_cfa_offset 4
ARM GAS  C:\Users\PCHAUT~1\AppData\Local\Temp\ccZvjaUR.s 			page 29


 1597              		.cfi_offset 14, -4
 1598 0002 85B0     		sub	sp, sp, #20
 1599              		.cfi_def_cfa_offset 24
 1600 0004 0190     		str	r0, [sp, #4]
 1601 0006 0091     		str	r1, [sp]
 1602              		.loc 1 268 0
 1603 0008 0C4B     		ldr	r3, .L76
 1604 000a 1B68     		ldr	r3, [r3]
 1605 000c 0393     		str	r3, [sp, #12]
 1606              		.loc 1 269 0
 1607 000e 0023     		movs	r3, #0
 1608 0010 8DF80B30 		strb	r3, [sp, #11]
 1609              		.loc 1 272 0
 1610 0014 0099     		ldr	r1, [sp]
 1611 0016 0198     		ldr	r0, [sp, #4]
 1612 0018 FFF7FEFF 		bl	VL53L0X_get_offset_calibration_data_micro_meter
 1613 001c 0346     		mov	r3, r0
 1614 001e 8DF80B30 		strb	r3, [sp, #11]
 1615              		.loc 1 276 0
 1616 0022 9DF90B30 		ldrsb	r3, [sp, #11]
 1617              		.loc 1 277 0
 1618 0026 1846     		mov	r0, r3
 1619 0028 044B     		ldr	r3, .L76
 1620 002a 039A     		ldr	r2, [sp, #12]
 1621 002c 1B68     		ldr	r3, [r3]
 1622 002e 9A42     		cmp	r2, r3
 1623 0030 01D0     		beq	.L75
 1624 0032 FFF7FEFF 		bl	__stack_chk_fail
 1625              	.L75:
 1626 0036 05B0     		add	sp, sp, #20
 1627              		.cfi_def_cfa_offset 4
 1628              		@ sp needed
 1629 0038 5DF804FB 		ldr	pc, [sp], #4
 1630              	.L77:
 1631              		.align	2
 1632              	.L76:
 1633 003c 00000000 		.word	__stack_chk_guard
 1634              		.cfi_endproc
 1635              	.LFE16:
 1636              		.size	VL53L0X_GetOffsetCalibrationDataMicroMeter, .-VL53L0X_GetOffsetCalibrationDataMicroMeter
 1637              		.section	.text.VL53L0X_SetLinearityCorrectiveGain,"ax",%progbits
 1638              		.align	1
 1639              		.p2align 4,,15
 1640              		.global	VL53L0X_SetLinearityCorrectiveGain
 1641              		.syntax unified
 1642              		.thumb
 1643              		.thumb_func
 1644              		.fpu fpv4-sp-d16
 1645              		.type	VL53L0X_SetLinearityCorrectiveGain, %function
 1646              	VL53L0X_SetLinearityCorrectiveGain:
 1647              	.LFB17:
 1648              		.loc 1 281 0
 1649              		.cfi_startproc
 1650              		@ args = 0, pretend = 0, frame = 16
 1651              		@ frame_needed = 0, uses_anonymous_args = 0
 1652 0000 00B5     		push	{lr}
 1653              		.cfi_def_cfa_offset 4
ARM GAS  C:\Users\PCHAUT~1\AppData\Local\Temp\ccZvjaUR.s 			page 30


 1654              		.cfi_offset 14, -4
 1655 0002 85B0     		sub	sp, sp, #20
 1656              		.cfi_def_cfa_offset 24
 1657 0004 0190     		str	r0, [sp, #4]
 1658 0006 0B46     		mov	r3, r1
 1659 0008 ADF80230 		strh	r3, [sp, #2]	@ movhi
 1660              		.loc 1 281 0
 1661 000c 184B     		ldr	r3, .L84
 1662 000e 1B68     		ldr	r3, [r3]
 1663 0010 0393     		str	r3, [sp, #12]
 1664              		.loc 1 282 0
 1665 0012 0023     		movs	r3, #0
 1666 0014 8DF80B30 		strb	r3, [sp, #11]
 1667              		.loc 1 285 0
 1668 0018 BDF90230 		ldrsh	r3, [sp, #2]
 1669 001c 002B     		cmp	r3, #0
 1670 001e 04DB     		blt	.L79
 1671              		.loc 1 285 0 is_stmt 0 discriminator 1
 1672 0020 BDF90230 		ldrsh	r3, [sp, #2]
 1673 0024 B3F57A7F 		cmp	r3, #1000
 1674 0028 03DD     		ble	.L80
 1675              	.L79:
 1676              		.loc 1 286 0 is_stmt 1
 1677 002a FC23     		movs	r3, #252
 1678 002c 8DF80B30 		strb	r3, [sp, #11]
 1679 0030 11E0     		b	.L81
 1680              	.L80:
 1681              		.loc 1 288 0
 1682 0032 BDF80220 		ldrh	r2, [sp, #2]
 1683 0036 019B     		ldr	r3, [sp, #4]
 1684 0038 A3F85221 		strh	r2, [r3, #338]	@ movhi
 1685              		.loc 1 291 0
 1686 003c BDF90230 		ldrsh	r3, [sp, #2]
 1687 0040 B3F57A7F 		cmp	r3, #1000
 1688 0044 07D0     		beq	.L81
 1689              		.loc 1 293 0
 1690 0046 0022     		movs	r2, #0
 1691 0048 2021     		movs	r1, #32
 1692 004a 0198     		ldr	r0, [sp, #4]
 1693 004c FFF7FEFF 		bl	VL53L0X_WrWord
 1694 0050 0346     		mov	r3, r0
 1695 0052 8DF80B30 		strb	r3, [sp, #11]
 1696              	.L81:
 1697              		.loc 1 299 0
 1698 0056 9DF90B30 		ldrsb	r3, [sp, #11]
 1699              		.loc 1 300 0
 1700 005a 1846     		mov	r0, r3
 1701 005c 044B     		ldr	r3, .L84
 1702 005e 039A     		ldr	r2, [sp, #12]
 1703 0060 1B68     		ldr	r3, [r3]
 1704 0062 9A42     		cmp	r2, r3
 1705 0064 01D0     		beq	.L83
 1706 0066 FFF7FEFF 		bl	__stack_chk_fail
 1707              	.L83:
 1708 006a 05B0     		add	sp, sp, #20
 1709              		.cfi_def_cfa_offset 4
 1710              		@ sp needed
ARM GAS  C:\Users\PCHAUT~1\AppData\Local\Temp\ccZvjaUR.s 			page 31


 1711 006c 5DF804FB 		ldr	pc, [sp], #4
 1712              	.L85:
 1713              		.align	2
 1714              	.L84:
 1715 0070 00000000 		.word	__stack_chk_guard
 1716              		.cfi_endproc
 1717              	.LFE17:
 1718              		.size	VL53L0X_SetLinearityCorrectiveGain, .-VL53L0X_SetLinearityCorrectiveGain
 1719              		.section	.text.VL53L0X_GetLinearityCorrectiveGain,"ax",%progbits
 1720              		.align	1
 1721              		.p2align 4,,15
 1722              		.global	VL53L0X_GetLinearityCorrectiveGain
 1723              		.syntax unified
 1724              		.thumb
 1725              		.thumb_func
 1726              		.fpu fpv4-sp-d16
 1727              		.type	VL53L0X_GetLinearityCorrectiveGain, %function
 1728              	VL53L0X_GetLinearityCorrectiveGain:
 1729              	.LFB18:
 1730              		.loc 1 304 0
 1731              		.cfi_startproc
 1732              		@ args = 0, pretend = 0, frame = 16
 1733              		@ frame_needed = 0, uses_anonymous_args = 0
 1734 0000 00B5     		push	{lr}
 1735              		.cfi_def_cfa_offset 4
 1736              		.cfi_offset 14, -4
 1737 0002 85B0     		sub	sp, sp, #20
 1738              		.cfi_def_cfa_offset 24
 1739 0004 0190     		str	r0, [sp, #4]
 1740 0006 0091     		str	r1, [sp]
 1741              		.loc 1 304 0
 1742 0008 0B4B     		ldr	r3, .L89
 1743 000a 1B68     		ldr	r3, [r3]
 1744 000c 0393     		str	r3, [sp, #12]
 1745              		.loc 1 305 0
 1746 000e 0023     		movs	r3, #0
 1747 0010 8DF80B30 		strb	r3, [sp, #11]
 1748              		.loc 1 308 0
 1749 0014 019B     		ldr	r3, [sp, #4]
 1750 0016 B3F85221 		ldrh	r2, [r3, #338]
 1751 001a 009B     		ldr	r3, [sp]
 1752 001c 1A80     		strh	r2, [r3]	@ movhi
 1753              		.loc 1 311 0
 1754 001e 9DF90B30 		ldrsb	r3, [sp, #11]
 1755              		.loc 1 312 0
 1756 0022 1846     		mov	r0, r3
 1757 0024 044B     		ldr	r3, .L89
 1758 0026 039A     		ldr	r2, [sp, #12]
 1759 0028 1B68     		ldr	r3, [r3]
 1760 002a 9A42     		cmp	r2, r3
 1761 002c 01D0     		beq	.L88
 1762 002e FFF7FEFF 		bl	__stack_chk_fail
 1763              	.L88:
 1764 0032 05B0     		add	sp, sp, #20
 1765              		.cfi_def_cfa_offset 4
 1766              		@ sp needed
 1767 0034 5DF804FB 		ldr	pc, [sp], #4
ARM GAS  C:\Users\PCHAUT~1\AppData\Local\Temp\ccZvjaUR.s 			page 32


 1768              	.L90:
 1769              		.align	2
 1770              	.L89:
 1771 0038 00000000 		.word	__stack_chk_guard
 1772              		.cfi_endproc
 1773              	.LFE18:
 1774              		.size	VL53L0X_GetLinearityCorrectiveGain, .-VL53L0X_GetLinearityCorrectiveGain
 1775              		.section	.text.VL53L0X_SetGroupParamHold,"ax",%progbits
 1776              		.align	1
 1777              		.p2align 4,,15
 1778              		.global	VL53L0X_SetGroupParamHold
 1779              		.syntax unified
 1780              		.thumb
 1781              		.thumb_func
 1782              		.fpu fpv4-sp-d16
 1783              		.type	VL53L0X_SetGroupParamHold, %function
 1784              	VL53L0X_SetGroupParamHold:
 1785              	.LFB19:
 1786              		.loc 1 315 0
 1787              		.cfi_startproc
 1788              		@ args = 0, pretend = 0, frame = 16
 1789              		@ frame_needed = 0, uses_anonymous_args = 0
 1790 0000 00B5     		push	{lr}
 1791              		.cfi_def_cfa_offset 4
 1792              		.cfi_offset 14, -4
 1793 0002 85B0     		sub	sp, sp, #20
 1794              		.cfi_def_cfa_offset 24
 1795 0004 0190     		str	r0, [sp, #4]
 1796 0006 0B46     		mov	r3, r1
 1797 0008 8DF80330 		strb	r3, [sp, #3]
 1798              		.loc 1 315 0
 1799 000c 094B     		ldr	r3, .L94
 1800 000e 1B68     		ldr	r3, [r3]
 1801 0010 0393     		str	r3, [sp, #12]
 1802              		.loc 1 316 0
 1803 0012 9D23     		movs	r3, #157
 1804 0014 8DF80B30 		strb	r3, [sp, #11]
 1805              		.loc 1 324 0
 1806 0018 9DF90B30 		ldrsb	r3, [sp, #11]
 1807              		.loc 1 325 0
 1808 001c 1846     		mov	r0, r3
 1809 001e 054B     		ldr	r3, .L94
 1810 0020 039A     		ldr	r2, [sp, #12]
 1811 0022 1B68     		ldr	r3, [r3]
 1812 0024 9A42     		cmp	r2, r3
 1813 0026 01D0     		beq	.L93
 1814 0028 FFF7FEFF 		bl	__stack_chk_fail
 1815              	.L93:
 1816 002c 05B0     		add	sp, sp, #20
 1817              		.cfi_def_cfa_offset 4
 1818              		@ sp needed
 1819 002e 5DF804FB 		ldr	pc, [sp], #4
 1820              	.L95:
 1821 0032 00BF     		.align	2
 1822              	.L94:
 1823 0034 00000000 		.word	__stack_chk_guard
 1824              		.cfi_endproc
ARM GAS  C:\Users\PCHAUT~1\AppData\Local\Temp\ccZvjaUR.s 			page 33


 1825              	.LFE19:
 1826              		.size	VL53L0X_SetGroupParamHold, .-VL53L0X_SetGroupParamHold
 1827              		.section	.text.VL53L0X_GetUpperLimitMilliMeter,"ax",%progbits
 1828              		.align	1
 1829              		.p2align 4,,15
 1830              		.global	VL53L0X_GetUpperLimitMilliMeter
 1831              		.syntax unified
 1832              		.thumb
 1833              		.thumb_func
 1834              		.fpu fpv4-sp-d16
 1835              		.type	VL53L0X_GetUpperLimitMilliMeter, %function
 1836              	VL53L0X_GetUpperLimitMilliMeter:
 1837              	.LFB20:
 1838              		.loc 1 329 0
 1839              		.cfi_startproc
 1840              		@ args = 0, pretend = 0, frame = 16
 1841              		@ frame_needed = 0, uses_anonymous_args = 0
 1842 0000 00B5     		push	{lr}
 1843              		.cfi_def_cfa_offset 4
 1844              		.cfi_offset 14, -4
 1845 0002 85B0     		sub	sp, sp, #20
 1846              		.cfi_def_cfa_offset 24
 1847 0004 0190     		str	r0, [sp, #4]
 1848 0006 0091     		str	r1, [sp]
 1849              		.loc 1 329 0
 1850 0008 094B     		ldr	r3, .L99
 1851 000a 1B68     		ldr	r3, [r3]
 1852 000c 0393     		str	r3, [sp, #12]
 1853              		.loc 1 330 0
 1854 000e 9D23     		movs	r3, #157
 1855 0010 8DF80B30 		strb	r3, [sp, #11]
 1856              		.loc 1 338 0
 1857 0014 9DF90B30 		ldrsb	r3, [sp, #11]
 1858              		.loc 1 339 0
 1859 0018 1846     		mov	r0, r3
 1860 001a 054B     		ldr	r3, .L99
 1861 001c 039A     		ldr	r2, [sp, #12]
 1862 001e 1B68     		ldr	r3, [r3]
 1863 0020 9A42     		cmp	r2, r3
 1864 0022 01D0     		beq	.L98
 1865 0024 FFF7FEFF 		bl	__stack_chk_fail
 1866              	.L98:
 1867 0028 05B0     		add	sp, sp, #20
 1868              		.cfi_def_cfa_offset 4
 1869              		@ sp needed
 1870 002a 5DF804FB 		ldr	pc, [sp], #4
 1871              	.L100:
 1872 002e 00BF     		.align	2
 1873              	.L99:
 1874 0030 00000000 		.word	__stack_chk_guard
 1875              		.cfi_endproc
 1876              	.LFE20:
 1877              		.size	VL53L0X_GetUpperLimitMilliMeter, .-VL53L0X_GetUpperLimitMilliMeter
 1878              		.section	.text.VL53L0X_GetTotalSignalRate,"ax",%progbits
 1879              		.align	1
 1880              		.p2align 4,,15
 1881              		.global	VL53L0X_GetTotalSignalRate
ARM GAS  C:\Users\PCHAUT~1\AppData\Local\Temp\ccZvjaUR.s 			page 34


 1882              		.syntax unified
 1883              		.thumb
 1884              		.thumb_func
 1885              		.fpu fpv4-sp-d16
 1886              		.type	VL53L0X_GetTotalSignalRate, %function
 1887              	VL53L0X_GetTotalSignalRate:
 1888              	.LFB21:
 1889              		.loc 1 343 0
 1890              		.cfi_startproc
 1891              		@ args = 0, pretend = 0, frame = 48
 1892              		@ frame_needed = 0, uses_anonymous_args = 0
 1893 0000 30B5     		push	{r4, r5, lr}
 1894              		.cfi_def_cfa_offset 12
 1895              		.cfi_offset 4, -12
 1896              		.cfi_offset 5, -8
 1897              		.cfi_offset 14, -4
 1898 0002 8DB0     		sub	sp, sp, #52
 1899              		.cfi_def_cfa_offset 64
 1900 0004 0190     		str	r0, [sp, #4]
 1901 0006 0091     		str	r1, [sp]
 1902              		.loc 1 343 0
 1903 0008 124B     		ldr	r3, .L104
 1904 000a 1B68     		ldr	r3, [r3]
 1905 000c 0B93     		str	r3, [sp, #44]
 1906              		.loc 1 344 0
 1907 000e 0023     		movs	r3, #0
 1908 0010 8DF80F30 		strb	r3, [sp, #15]
 1909              		.loc 1 349 0
 1910 0014 019B     		ldr	r3, [sp, #4]
 1911 0016 04AC     		add	r4, sp, #16
 1912 0018 03F15005 		add	r5, r3, #80
 1913 001c 0FCD     		ldmia	r5!, {r0, r1, r2, r3}
 1914 001e 0FC4     		stmia	r4!, {r0, r1, r2, r3}
 1915 0020 95E80700 		ldm	r5, {r0, r1, r2}
 1916 0024 84E80700 		stm	r4, {r0, r1, r2}
 1917              		.loc 1 351 0
 1918 0028 04AB     		add	r3, sp, #16
 1919 002a 009A     		ldr	r2, [sp]
 1920 002c 1946     		mov	r1, r3
 1921 002e 0198     		ldr	r0, [sp, #4]
 1922 0030 FFF7FEFF 		bl	VL53L0X_get_total_signal_rate
 1923 0034 0346     		mov	r3, r0
 1924 0036 8DF80F30 		strb	r3, [sp, #15]
 1925              		.loc 1 355 0
 1926 003a 9DF90F30 		ldrsb	r3, [sp, #15]
 1927              		.loc 1 356 0
 1928 003e 1846     		mov	r0, r3
 1929 0040 044B     		ldr	r3, .L104
 1930 0042 0B9A     		ldr	r2, [sp, #44]
 1931 0044 1B68     		ldr	r3, [r3]
 1932 0046 9A42     		cmp	r2, r3
 1933 0048 01D0     		beq	.L103
 1934 004a FFF7FEFF 		bl	__stack_chk_fail
 1935              	.L103:
 1936 004e 0DB0     		add	sp, sp, #52
 1937              		.cfi_def_cfa_offset 12
 1938              		@ sp needed
ARM GAS  C:\Users\PCHAUT~1\AppData\Local\Temp\ccZvjaUR.s 			page 35


 1939 0050 30BD     		pop	{r4, r5, pc}
 1940              	.L105:
 1941 0052 00BF     		.align	2
 1942              	.L104:
 1943 0054 00000000 		.word	__stack_chk_guard
 1944              		.cfi_endproc
 1945              	.LFE21:
 1946              		.size	VL53L0X_GetTotalSignalRate, .-VL53L0X_GetTotalSignalRate
 1947              		.section	.text.VL53L0X_SetDeviceAddress,"ax",%progbits
 1948              		.align	1
 1949              		.p2align 4,,15
 1950              		.global	VL53L0X_SetDeviceAddress
 1951              		.syntax unified
 1952              		.thumb
 1953              		.thumb_func
 1954              		.fpu fpv4-sp-d16
 1955              		.type	VL53L0X_SetDeviceAddress, %function
 1956              	VL53L0X_SetDeviceAddress:
 1957              	.LFB22:
 1958              		.loc 1 362 0
 1959              		.cfi_startproc
 1960              		@ args = 0, pretend = 0, frame = 16
 1961              		@ frame_needed = 0, uses_anonymous_args = 0
 1962 0000 00B5     		push	{lr}
 1963              		.cfi_def_cfa_offset 4
 1964              		.cfi_offset 14, -4
 1965 0002 85B0     		sub	sp, sp, #20
 1966              		.cfi_def_cfa_offset 24
 1967 0004 0190     		str	r0, [sp, #4]
 1968 0006 0B46     		mov	r3, r1
 1969 0008 8DF80330 		strb	r3, [sp, #3]
 1970              		.loc 1 362 0
 1971 000c 0F4B     		ldr	r3, .L109
 1972 000e 1B68     		ldr	r3, [r3]
 1973 0010 0393     		str	r3, [sp, #12]
 1974              		.loc 1 363 0
 1975 0012 0023     		movs	r3, #0
 1976 0014 8DF80B30 		strb	r3, [sp, #11]
 1977              		.loc 1 366 0
 1978 0018 9DF80330 		ldrb	r3, [sp, #3]	@ zero_extendqisi2
 1979 001c 5B08     		lsrs	r3, r3, #1
 1980 001e DBB2     		uxtb	r3, r3
 1981 0020 1A46     		mov	r2, r3
 1982 0022 8A21     		movs	r1, #138
 1983 0024 0198     		ldr	r0, [sp, #4]
 1984 0026 FFF7FEFF 		bl	VL53L0X_WrByte
 1985 002a 0346     		mov	r3, r0
 1986 002c 8DF80B30 		strb	r3, [sp, #11]
 1987              		.loc 1 370 0
 1988 0030 9DF90B30 		ldrsb	r3, [sp, #11]
 1989              		.loc 1 371 0
 1990 0034 1846     		mov	r0, r3
 1991 0036 054B     		ldr	r3, .L109
 1992 0038 039A     		ldr	r2, [sp, #12]
 1993 003a 1B68     		ldr	r3, [r3]
 1994 003c 9A42     		cmp	r2, r3
 1995 003e 01D0     		beq	.L108
ARM GAS  C:\Users\PCHAUT~1\AppData\Local\Temp\ccZvjaUR.s 			page 36


 1996 0040 FFF7FEFF 		bl	__stack_chk_fail
 1997              	.L108:
 1998 0044 05B0     		add	sp, sp, #20
 1999              		.cfi_def_cfa_offset 4
 2000              		@ sp needed
 2001 0046 5DF804FB 		ldr	pc, [sp], #4
 2002              	.L110:
 2003 004a 00BF     		.align	2
 2004              	.L109:
 2005 004c 00000000 		.word	__stack_chk_guard
 2006              		.cfi_endproc
 2007              	.LFE22:
 2008              		.size	VL53L0X_SetDeviceAddress, .-VL53L0X_SetDeviceAddress
 2009              		.section	.text.VL53L0X_DataInit,"ax",%progbits
 2010              		.align	1
 2011              		.p2align 4,,15
 2012              		.global	VL53L0X_DataInit
 2013              		.syntax unified
 2014              		.thumb
 2015              		.thumb_func
 2016              		.fpu fpv4-sp-d16
 2017              		.type	VL53L0X_DataInit, %function
 2018              	VL53L0X_DataInit:
 2019              	.LFB23:
 2020              		.loc 1 374 0
 2021              		.cfi_startproc
 2022              		@ args = 0, pretend = 0, frame = 88
 2023              		@ frame_needed = 0, uses_anonymous_args = 0
 2024 0000 30B5     		push	{r4, r5, lr}
 2025              		.cfi_def_cfa_offset 12
 2026              		.cfi_offset 4, -12
 2027              		.cfi_offset 5, -8
 2028              		.cfi_offset 14, -4
 2029 0002 97B0     		sub	sp, sp, #92
 2030              		.cfi_def_cfa_offset 104
 2031 0004 0190     		str	r0, [sp, #4]
 2032              		.loc 1 374 0
 2033 0006 B24B     		ldr	r3, .L132
 2034 0008 1B68     		ldr	r3, [r3]
 2035 000a 1593     		str	r3, [sp, #84]
 2036              		.loc 1 375 0
 2037 000c 0023     		movs	r3, #0
 2038 000e 8DF80F30 		strb	r3, [sp, #15]
 2039              		.loc 1 392 0
 2040 0012 9DF90F30 		ldrsb	r3, [sp, #15]
 2041 0016 002B     		cmp	r3, #0
 2042 0018 07D1     		bne	.L112
 2043              		.loc 1 393 0
 2044 001a 0022     		movs	r2, #0
 2045 001c 8821     		movs	r1, #136
 2046 001e 0198     		ldr	r0, [sp, #4]
 2047 0020 FFF7FEFF 		bl	VL53L0X_WrByte
 2048 0024 0346     		mov	r3, r0
 2049 0026 8DF80F30 		strb	r3, [sp, #15]
 2050              	.L112:
 2051              		.loc 1 395 0
 2052 002a 019B     		ldr	r3, [sp, #4]
ARM GAS  C:\Users\PCHAUT~1\AppData\Local\Temp\ccZvjaUR.s 			page 37


 2053 002c 0022     		movs	r2, #0
 2054 002e 83F8F020 		strb	r2, [r3, #240]
 2055              		.loc 1 403 0
 2056 0032 019B     		ldr	r3, [sp, #4]
 2057 0034 4FF47A72 		mov	r2, #1000
 2058 0038 A3F85221 		strh	r2, [r3, #338]	@ movhi
 2059              		.loc 1 406 0
 2060 003c 019B     		ldr	r3, [sp, #4]
 2061 003e 4FF4C872 		mov	r2, #400
 2062 0042 A3F85421 		strh	r2, [r3, #340]	@ movhi
 2063              		.loc 1 407 0
 2064 0046 019B     		ldr	r3, [sp, #4]
 2065 0048 A24A     		ldr	r2, .L132+4
 2066 004a C3F85821 		str	r2, [r3, #344]
 2067              		.loc 1 412 0
 2068 004e 019B     		ldr	r3, [sp, #4]
 2069 0050 A14A     		ldr	r2, .L132+8
 2070 0052 C3F8D420 		str	r2, [r3, #212]
 2071              		.loc 1 415 0
 2072 0056 019B     		ldr	r3, [sp, #4]
 2073 0058 0022     		movs	r2, #0
 2074 005a 1A62     		str	r2, [r3, #32]
 2075              		.loc 1 418 0
 2076 005c 05AB     		add	r3, sp, #20
 2077 005e 1946     		mov	r1, r3
 2078 0060 0198     		ldr	r0, [sp, #4]
 2079 0062 FFF7FEFF 		bl	VL53L0X_GetDeviceParameters
 2080 0066 0346     		mov	r3, r0
 2081 0068 8DF80F30 		strb	r3, [sp, #15]
 2082              		.loc 1 419 0
 2083 006c 9DF90F30 		ldrsb	r3, [sp, #15]
 2084 0070 002B     		cmp	r3, #0
 2085 0072 13D1     		bne	.L113
 2086              		.loc 1 421 0
 2087 0074 0023     		movs	r3, #0
 2088 0076 8DF81430 		strb	r3, [sp, #20]
 2089              		.loc 1 422 0
 2090 007a 0023     		movs	r3, #0
 2091 007c 8DF81530 		strb	r3, [sp, #21]
 2092              		.loc 1 423 0
 2093 0080 019B     		ldr	r3, [sp, #4]
 2094 0082 03F11004 		add	r4, r3, #16
 2095 0086 05AD     		add	r5, sp, #20
 2096 0088 0FCD     		ldmia	r5!, {r0, r1, r2, r3}
 2097 008a 0FC4     		stmia	r4!, {r0, r1, r2, r3}
 2098 008c 0FCD     		ldmia	r5!, {r0, r1, r2, r3}
 2099 008e 0FC4     		stmia	r4!, {r0, r1, r2, r3}
 2100 0090 0FCD     		ldmia	r5!, {r0, r1, r2, r3}
 2101 0092 0FC4     		stmia	r4!, {r0, r1, r2, r3}
 2102 0094 95E80F00 		ldm	r5, {r0, r1, r2, r3}
 2103 0098 84E80F00 		stm	r4, {r0, r1, r2, r3}
 2104              	.L113:
 2105              		.loc 1 427 0
 2106 009c 019B     		ldr	r3, [sp, #4]
 2107 009e 6422     		movs	r2, #100
 2108 00a0 A3F83421 		strh	r2, [r3, #308]	@ movhi
 2109              		.loc 1 428 0
ARM GAS  C:\Users\PCHAUT~1\AppData\Local\Temp\ccZvjaUR.s 			page 38


 2110 00a4 019B     		ldr	r3, [sp, #4]
 2111 00a6 4FF46172 		mov	r2, #900
 2112 00aa A3F83621 		strh	r2, [r3, #310]	@ movhi
 2113              		.loc 1 429 0
 2114 00ae 019B     		ldr	r3, [sp, #4]
 2115 00b0 4FF4FA72 		mov	r2, #500
 2116 00b4 A3F83821 		strh	r2, [r3, #312]	@ movhi
 2117              		.loc 1 430 0
 2118 00b8 019B     		ldr	r3, [sp, #4]
 2119 00ba 4FF42062 		mov	r2, #2560
 2120 00be A3F83C21 		strh	r2, [r3, #316]	@ movhi
 2121              		.loc 1 433 0
 2122 00c2 019B     		ldr	r3, [sp, #4]
 2123 00c4 0122     		movs	r2, #1
 2124 00c6 83F85021 		strb	r2, [r3, #336]
 2125              		.loc 1 435 0
 2126 00ca 0122     		movs	r2, #1
 2127 00cc 8021     		movs	r1, #128
 2128 00ce 0198     		ldr	r0, [sp, #4]
 2129 00d0 FFF7FEFF 		bl	VL53L0X_WrByte
 2130 00d4 0346     		mov	r3, r0
 2131 00d6 1A46     		mov	r2, r3
 2132 00d8 9DF80F30 		ldrb	r3, [sp, #15]
 2133 00dc 1343     		orrs	r3, r3, r2
 2134 00de 8DF80F30 		strb	r3, [sp, #15]
 2135              		.loc 1 436 0
 2136 00e2 0122     		movs	r2, #1
 2137 00e4 FF21     		movs	r1, #255
 2138 00e6 0198     		ldr	r0, [sp, #4]
 2139 00e8 FFF7FEFF 		bl	VL53L0X_WrByte
 2140 00ec 0346     		mov	r3, r0
 2141 00ee 1A46     		mov	r2, r3
 2142 00f0 9DF80F30 		ldrb	r3, [sp, #15]
 2143 00f4 1343     		orrs	r3, r3, r2
 2144 00f6 8DF80F30 		strb	r3, [sp, #15]
 2145              		.loc 1 437 0
 2146 00fa 0022     		movs	r2, #0
 2147 00fc 0021     		movs	r1, #0
 2148 00fe 0198     		ldr	r0, [sp, #4]
 2149 0100 FFF7FEFF 		bl	VL53L0X_WrByte
 2150 0104 0346     		mov	r3, r0
 2151 0106 1A46     		mov	r2, r3
 2152 0108 9DF80F30 		ldrb	r3, [sp, #15]
 2153 010c 1343     		orrs	r3, r3, r2
 2154 010e 8DF80F30 		strb	r3, [sp, #15]
 2155              		.loc 1 438 0
 2156 0112 0DF10E03 		add	r3, sp, #14
 2157 0116 1A46     		mov	r2, r3
 2158 0118 9121     		movs	r1, #145
 2159 011a 0198     		ldr	r0, [sp, #4]
 2160 011c FFF7FEFF 		bl	VL53L0X_RdByte
 2161 0120 0346     		mov	r3, r0
 2162 0122 1A46     		mov	r2, r3
 2163 0124 9DF80F30 		ldrb	r3, [sp, #15]
 2164 0128 1343     		orrs	r3, r3, r2
 2165 012a 8DF80F30 		strb	r3, [sp, #15]
 2166              		.loc 1 439 0
ARM GAS  C:\Users\PCHAUT~1\AppData\Local\Temp\ccZvjaUR.s 			page 39


 2167 012e 9DF80E20 		ldrb	r2, [sp, #14]	@ zero_extendqisi2
 2168 0132 019B     		ldr	r3, [sp, #4]
 2169 0134 83F83A21 		strb	r2, [r3, #314]
 2170              		.loc 1 440 0
 2171 0138 0122     		movs	r2, #1
 2172 013a 0021     		movs	r1, #0
 2173 013c 0198     		ldr	r0, [sp, #4]
 2174 013e FFF7FEFF 		bl	VL53L0X_WrByte
 2175 0142 0346     		mov	r3, r0
 2176 0144 1A46     		mov	r2, r3
 2177 0146 9DF80F30 		ldrb	r3, [sp, #15]
 2178 014a 1343     		orrs	r3, r3, r2
 2179 014c 8DF80F30 		strb	r3, [sp, #15]
 2180              		.loc 1 441 0
 2181 0150 0022     		movs	r2, #0
 2182 0152 FF21     		movs	r1, #255
 2183 0154 0198     		ldr	r0, [sp, #4]
 2184 0156 FFF7FEFF 		bl	VL53L0X_WrByte
 2185 015a 0346     		mov	r3, r0
 2186 015c 1A46     		mov	r2, r3
 2187 015e 9DF80F30 		ldrb	r3, [sp, #15]
 2188 0162 1343     		orrs	r3, r3, r2
 2189 0164 8DF80F30 		strb	r3, [sp, #15]
 2190              		.loc 1 442 0
 2191 0168 0022     		movs	r2, #0
 2192 016a 8021     		movs	r1, #128
 2193 016c 0198     		ldr	r0, [sp, #4]
 2194 016e FFF7FEFF 		bl	VL53L0X_WrByte
 2195 0172 0346     		mov	r3, r0
 2196 0174 1A46     		mov	r2, r3
 2197 0176 9DF80F30 		ldrb	r3, [sp, #15]
 2198 017a 1343     		orrs	r3, r3, r2
 2199 017c 8DF80F30 		strb	r3, [sp, #15]
 2200              		.loc 1 445 0
 2201 0180 0023     		movs	r3, #0
 2202 0182 0493     		str	r3, [sp, #16]
 2203 0184 14E0     		b	.L114
 2204              	.L118:
 2205              		.loc 1 446 0
 2206 0186 9DF90F30 		ldrsb	r3, [sp, #15]
 2207 018a 002B     		cmp	r3, #0
 2208 018c 14D1     		bne	.L131
 2209              		.loc 1 447 0
 2210 018e 049B     		ldr	r3, [sp, #16]
 2211 0190 9BB2     		uxth	r3, r3
 2212 0192 0122     		movs	r2, #1
 2213 0194 1946     		mov	r1, r3
 2214 0196 0198     		ldr	r0, [sp, #4]
 2215 0198 FFF7FEFF 		bl	VL53L0X_SetLimitCheckEnable
 2216 019c 0346     		mov	r3, r0
 2217 019e 1A46     		mov	r2, r3
 2218 01a0 9DF80F30 		ldrb	r3, [sp, #15]
 2219 01a4 1343     		orrs	r3, r3, r2
 2220 01a6 8DF80F30 		strb	r3, [sp, #15]
 2221              		.loc 1 445 0
 2222 01aa 049B     		ldr	r3, [sp, #16]
 2223 01ac 0133     		adds	r3, r3, #1
ARM GAS  C:\Users\PCHAUT~1\AppData\Local\Temp\ccZvjaUR.s 			page 40


 2224 01ae 0493     		str	r3, [sp, #16]
 2225              	.L114:
 2226              		.loc 1 445 0 is_stmt 0 discriminator 1
 2227 01b0 049B     		ldr	r3, [sp, #16]
 2228 01b2 052B     		cmp	r3, #5
 2229 01b4 E7DD     		ble	.L118
 2230 01b6 00E0     		b	.L117
 2231              	.L131:
 2232              		.loc 1 449 0 is_stmt 1
 2233 01b8 00BF     		nop
 2234              	.L117:
 2235              		.loc 1 454 0
 2236 01ba 9DF90F30 		ldrsb	r3, [sp, #15]
 2237 01be 002B     		cmp	r3, #0
 2238 01c0 07D1     		bne	.L119
 2239              		.loc 1 455 0
 2240 01c2 0022     		movs	r2, #0
 2241 01c4 0221     		movs	r1, #2
 2242 01c6 0198     		ldr	r0, [sp, #4]
 2243 01c8 FFF7FEFF 		bl	VL53L0X_SetLimitCheckEnable
 2244 01cc 0346     		mov	r3, r0
 2245 01ce 8DF80F30 		strb	r3, [sp, #15]
 2246              	.L119:
 2247              		.loc 1 458 0
 2248 01d2 9DF90F30 		ldrsb	r3, [sp, #15]
 2249 01d6 002B     		cmp	r3, #0
 2250 01d8 07D1     		bne	.L120
 2251              		.loc 1 459 0
 2252 01da 0022     		movs	r2, #0
 2253 01dc 0321     		movs	r1, #3
 2254 01de 0198     		ldr	r0, [sp, #4]
 2255 01e0 FFF7FEFF 		bl	VL53L0X_SetLimitCheckEnable
 2256 01e4 0346     		mov	r3, r0
 2257 01e6 8DF80F30 		strb	r3, [sp, #15]
 2258              	.L120:
 2259              		.loc 1 462 0
 2260 01ea 9DF90F30 		ldrsb	r3, [sp, #15]
 2261 01ee 002B     		cmp	r3, #0
 2262 01f0 07D1     		bne	.L121
 2263              		.loc 1 463 0
 2264 01f2 0022     		movs	r2, #0
 2265 01f4 0421     		movs	r1, #4
 2266 01f6 0198     		ldr	r0, [sp, #4]
 2267 01f8 FFF7FEFF 		bl	VL53L0X_SetLimitCheckEnable
 2268 01fc 0346     		mov	r3, r0
 2269 01fe 8DF80F30 		strb	r3, [sp, #15]
 2270              	.L121:
 2271              		.loc 1 466 0
 2272 0202 9DF90F30 		ldrsb	r3, [sp, #15]
 2273 0206 002B     		cmp	r3, #0
 2274 0208 07D1     		bne	.L122
 2275              		.loc 1 467 0
 2276 020a 0022     		movs	r2, #0
 2277 020c 0521     		movs	r1, #5
 2278 020e 0198     		ldr	r0, [sp, #4]
 2279 0210 FFF7FEFF 		bl	VL53L0X_SetLimitCheckEnable
 2280 0214 0346     		mov	r3, r0
ARM GAS  C:\Users\PCHAUT~1\AppData\Local\Temp\ccZvjaUR.s 			page 41


 2281 0216 8DF80F30 		strb	r3, [sp, #15]
 2282              	.L122:
 2283              		.loc 1 471 0
 2284 021a 9DF90F30 		ldrsb	r3, [sp, #15]
 2285 021e 002B     		cmp	r3, #0
 2286 0220 08D1     		bne	.L123
 2287              		.loc 1 472 0
 2288 0222 4FF49012 		mov	r2, #1179648
 2289 0226 0021     		movs	r1, #0
 2290 0228 0198     		ldr	r0, [sp, #4]
 2291 022a FFF7FEFF 		bl	VL53L0X_SetLimitCheckValue
 2292 022e 0346     		mov	r3, r0
 2293 0230 8DF80F30 		strb	r3, [sp, #15]
 2294              	.L123:
 2295              		.loc 1 476 0
 2296 0234 9DF90F30 		ldrsb	r3, [sp, #15]
 2297 0238 002B     		cmp	r3, #0
 2298 023a 08D1     		bne	.L124
 2299              		.loc 1 477 0
 2300 023c 4FF48042 		mov	r2, #16384
 2301 0240 0121     		movs	r1, #1
 2302 0242 0198     		ldr	r0, [sp, #4]
 2303 0244 FFF7FEFF 		bl	VL53L0X_SetLimitCheckValue
 2304 0248 0346     		mov	r3, r0
 2305 024a 8DF80F30 		strb	r3, [sp, #15]
 2306              	.L124:
 2307              		.loc 1 483 0
 2308 024e 9DF90F30 		ldrsb	r3, [sp, #15]
 2309 0252 002B     		cmp	r3, #0
 2310 0254 08D1     		bne	.L125
 2311              		.loc 1 484 0
 2312 0256 4FF40C12 		mov	r2, #2293760
 2313 025a 0221     		movs	r1, #2
 2314 025c 0198     		ldr	r0, [sp, #4]
 2315 025e FFF7FEFF 		bl	VL53L0X_SetLimitCheckValue
 2316 0262 0346     		mov	r3, r0
 2317 0264 8DF80F30 		strb	r3, [sp, #15]
 2318              	.L125:
 2319              		.loc 1 489 0
 2320 0268 9DF90F30 		ldrsb	r3, [sp, #15]
 2321 026c 002B     		cmp	r3, #0
 2322 026e 07D1     		bne	.L126
 2323              		.loc 1 490 0
 2324 0270 0022     		movs	r2, #0
 2325 0272 0321     		movs	r1, #3
 2326 0274 0198     		ldr	r0, [sp, #4]
 2327 0276 FFF7FEFF 		bl	VL53L0X_SetLimitCheckValue
 2328 027a 0346     		mov	r3, r0
 2329 027c 8DF80F30 		strb	r3, [sp, #15]
 2330              	.L126:
 2331              		.loc 1 495 0
 2332 0280 9DF90F30 		ldrsb	r3, [sp, #15]
 2333 0284 002B     		cmp	r3, #0
 2334 0286 0FD1     		bne	.L127
 2335              		.loc 1 497 0
 2336 0288 019B     		ldr	r3, [sp, #4]
 2337 028a FF22     		movs	r2, #255
ARM GAS  C:\Users\PCHAUT~1\AppData\Local\Temp\ccZvjaUR.s 			page 42


 2338 028c 83F83021 		strb	r2, [r3, #304]
 2339              		.loc 1 498 0
 2340 0290 FF22     		movs	r2, #255
 2341 0292 0121     		movs	r1, #1
 2342 0294 0198     		ldr	r0, [sp, #4]
 2343 0296 FFF7FEFF 		bl	VL53L0X_WrByte
 2344 029a 0346     		mov	r3, r0
 2345 029c 8DF80F30 		strb	r3, [sp, #15]
 2346              		.loc 1 503 0
 2347 02a0 019B     		ldr	r3, [sp, #4]
 2348 02a2 0122     		movs	r2, #1
 2349 02a4 83F83221 		strb	r2, [r3, #306]
 2350              	.L127:
 2351              		.loc 1 506 0
 2352 02a8 9DF90F30 		ldrsb	r3, [sp, #15]
 2353 02ac 002B     		cmp	r3, #0
 2354 02ae 03D1     		bne	.L128
 2355              		.loc 1 507 0
 2356 02b0 019B     		ldr	r3, [sp, #4]
 2357 02b2 0022     		movs	r2, #0
 2358 02b4 83F81521 		strb	r2, [r3, #277]
 2359              	.L128:
 2360              		.loc 1 511 0
 2361 02b8 9DF90F30 		ldrsb	r3, [sp, #15]
 2362              		.loc 1 512 0
 2363 02bc 1846     		mov	r0, r3
 2364 02be 044B     		ldr	r3, .L132
 2365 02c0 159A     		ldr	r2, [sp, #84]
 2366 02c2 1B68     		ldr	r3, [r3]
 2367 02c4 9A42     		cmp	r2, r3
 2368 02c6 01D0     		beq	.L130
 2369 02c8 FFF7FEFF 		bl	__stack_chk_fail
 2370              	.L130:
 2371 02cc 17B0     		add	sp, sp, #92
 2372              		.cfi_def_cfa_offset 12
 2373              		@ sp needed
 2374 02ce 30BD     		pop	{r4, r5, pc}
 2375              	.L133:
 2376              		.align	2
 2377              	.L132:
 2378 02d0 00000000 		.word	__stack_chk_guard
 2379 02d4 856B0100 		.word	93061
 2380 02d8 A4700900 		.word	618660
 2381              		.cfi_endproc
 2382              	.LFE23:
 2383              		.size	VL53L0X_DataInit, .-VL53L0X_DataInit
 2384              		.section	.text.VL53L0X_SetTuningSettingBuffer,"ax",%progbits
 2385              		.align	1
 2386              		.p2align 4,,15
 2387              		.global	VL53L0X_SetTuningSettingBuffer
 2388              		.syntax unified
 2389              		.thumb
 2390              		.thumb_func
 2391              		.fpu fpv4-sp-d16
 2392              		.type	VL53L0X_SetTuningSettingBuffer, %function
 2393              	VL53L0X_SetTuningSettingBuffer:
 2394              	.LFB24:
ARM GAS  C:\Users\PCHAUT~1\AppData\Local\Temp\ccZvjaUR.s 			page 43


 2395              		.loc 1 516 0
 2396              		.cfi_startproc
 2397              		@ args = 0, pretend = 0, frame = 24
 2398              		@ frame_needed = 0, uses_anonymous_args = 0
 2399 0000 00B5     		push	{lr}
 2400              		.cfi_def_cfa_offset 4
 2401              		.cfi_offset 14, -4
 2402 0002 87B0     		sub	sp, sp, #28
 2403              		.cfi_def_cfa_offset 32
 2404 0004 0390     		str	r0, [sp, #12]
 2405 0006 0291     		str	r1, [sp, #8]
 2406 0008 1346     		mov	r3, r2
 2407 000a 8DF80730 		strb	r3, [sp, #7]
 2408              		.loc 1 516 0
 2409 000e 164B     		ldr	r3, .L140
 2410 0010 1B68     		ldr	r3, [r3]
 2411 0012 0593     		str	r3, [sp, #20]
 2412              		.loc 1 517 0
 2413 0014 0023     		movs	r3, #0
 2414 0016 8DF81330 		strb	r3, [sp, #19]
 2415              		.loc 1 521 0
 2416 001a 9DF80730 		ldrb	r3, [sp, #7]	@ zero_extendqisi2
 2417 001e 012B     		cmp	r3, #1
 2418 0020 04D1     		bne	.L135
 2419              		.loc 1 523 0
 2420 0022 039B     		ldr	r3, [sp, #12]
 2421 0024 0122     		movs	r2, #1
 2422 0026 83F85021 		strb	r2, [r3, #336]
 2423 002a 0FE0     		b	.L136
 2424              	.L135:
 2425              		.loc 1 527 0
 2426 002c 029B     		ldr	r3, [sp, #8]
 2427 002e 1B78     		ldrb	r3, [r3]	@ zero_extendqisi2
 2428 0030 002B     		cmp	r3, #0
 2429 0032 08D0     		beq	.L137
 2430              		.loc 1 528 0
 2431 0034 039B     		ldr	r3, [sp, #12]
 2432 0036 029A     		ldr	r2, [sp, #8]
 2433 0038 C3F84C21 		str	r2, [r3, #332]
 2434              		.loc 1 530 0
 2435 003c 039B     		ldr	r3, [sp, #12]
 2436 003e 0022     		movs	r2, #0
 2437 0040 83F85021 		strb	r2, [r3, #336]
 2438 0044 02E0     		b	.L136
 2439              	.L137:
 2440              		.loc 1 533 0
 2441 0046 FC23     		movs	r3, #252
 2442 0048 8DF81330 		strb	r3, [sp, #19]
 2443              	.L136:
 2444              		.loc 1 538 0
 2445 004c 9DF91330 		ldrsb	r3, [sp, #19]
 2446              		.loc 1 539 0
 2447 0050 1846     		mov	r0, r3
 2448 0052 054B     		ldr	r3, .L140
 2449 0054 059A     		ldr	r2, [sp, #20]
 2450 0056 1B68     		ldr	r3, [r3]
 2451 0058 9A42     		cmp	r2, r3
ARM GAS  C:\Users\PCHAUT~1\AppData\Local\Temp\ccZvjaUR.s 			page 44


 2452 005a 01D0     		beq	.L139
 2453 005c FFF7FEFF 		bl	__stack_chk_fail
 2454              	.L139:
 2455 0060 07B0     		add	sp, sp, #28
 2456              		.cfi_def_cfa_offset 4
 2457              		@ sp needed
 2458 0062 5DF804FB 		ldr	pc, [sp], #4
 2459              	.L141:
 2460 0066 00BF     		.align	2
 2461              	.L140:
 2462 0068 00000000 		.word	__stack_chk_guard
 2463              		.cfi_endproc
 2464              	.LFE24:
 2465              		.size	VL53L0X_SetTuningSettingBuffer, .-VL53L0X_SetTuningSettingBuffer
 2466              		.section	.text.VL53L0X_GetTuningSettingBuffer,"ax",%progbits
 2467              		.align	1
 2468              		.p2align 4,,15
 2469              		.global	VL53L0X_GetTuningSettingBuffer
 2470              		.syntax unified
 2471              		.thumb
 2472              		.thumb_func
 2473              		.fpu fpv4-sp-d16
 2474              		.type	VL53L0X_GetTuningSettingBuffer, %function
 2475              	VL53L0X_GetTuningSettingBuffer:
 2476              	.LFB25:
 2477              		.loc 1 543 0
 2478              		.cfi_startproc
 2479              		@ args = 0, pretend = 0, frame = 24
 2480              		@ frame_needed = 0, uses_anonymous_args = 0
 2481 0000 00B5     		push	{lr}
 2482              		.cfi_def_cfa_offset 4
 2483              		.cfi_offset 14, -4
 2484 0002 87B0     		sub	sp, sp, #28
 2485              		.cfi_def_cfa_offset 32
 2486 0004 0390     		str	r0, [sp, #12]
 2487 0006 0291     		str	r1, [sp, #8]
 2488 0008 0192     		str	r2, [sp, #4]
 2489              		.loc 1 543 0
 2490 000a 0E4B     		ldr	r3, .L145
 2491 000c 1B68     		ldr	r3, [r3]
 2492 000e 0593     		str	r3, [sp, #20]
 2493              		.loc 1 544 0
 2494 0010 0023     		movs	r3, #0
 2495 0012 8DF81330 		strb	r3, [sp, #19]
 2496              		.loc 1 548 0
 2497 0016 039B     		ldr	r3, [sp, #12]
 2498 0018 D3F84C21 		ldr	r2, [r3, #332]
 2499 001c 029B     		ldr	r3, [sp, #8]
 2500 001e 1A60     		str	r2, [r3]
 2501              		.loc 1 549 0
 2502 0020 039B     		ldr	r3, [sp, #12]
 2503 0022 93F85021 		ldrb	r2, [r3, #336]	@ zero_extendqisi2
 2504 0026 019B     		ldr	r3, [sp, #4]
 2505 0028 1A70     		strb	r2, [r3]
 2506              		.loc 1 553 0
 2507 002a 9DF91330 		ldrsb	r3, [sp, #19]
 2508              		.loc 1 554 0
ARM GAS  C:\Users\PCHAUT~1\AppData\Local\Temp\ccZvjaUR.s 			page 45


 2509 002e 1846     		mov	r0, r3
 2510 0030 044B     		ldr	r3, .L145
 2511 0032 059A     		ldr	r2, [sp, #20]
 2512 0034 1B68     		ldr	r3, [r3]
 2513 0036 9A42     		cmp	r2, r3
 2514 0038 01D0     		beq	.L144
 2515 003a FFF7FEFF 		bl	__stack_chk_fail
 2516              	.L144:
 2517 003e 07B0     		add	sp, sp, #28
 2518              		.cfi_def_cfa_offset 4
 2519              		@ sp needed
 2520 0040 5DF804FB 		ldr	pc, [sp], #4
 2521              	.L146:
 2522              		.align	2
 2523              	.L145:
 2524 0044 00000000 		.word	__stack_chk_guard
 2525              		.cfi_endproc
 2526              	.LFE25:
 2527              		.size	VL53L0X_GetTuningSettingBuffer, .-VL53L0X_GetTuningSettingBuffer
 2528              		.section	.text.VL53L0X_StaticInit,"ax",%progbits
 2529              		.align	1
 2530              		.p2align 4,,15
 2531              		.global	VL53L0X_StaticInit
 2532              		.syntax unified
 2533              		.thumb
 2534              		.thumb_func
 2535              		.fpu fpv4-sp-d16
 2536              		.type	VL53L0X_StaticInit, %function
 2537              	VL53L0X_StaticInit:
 2538              	.LFB26:
 2539              		.loc 1 557 0
 2540              		.cfi_startproc
 2541              		@ args = 0, pretend = 0, frame = 104
 2542              		@ frame_needed = 0, uses_anonymous_args = 0
 2543 0000 30B5     		push	{r4, r5, lr}
 2544              		.cfi_def_cfa_offset 12
 2545              		.cfi_offset 4, -12
 2546              		.cfi_offset 5, -8
 2547              		.cfi_offset 14, -4
 2548 0002 9DB0     		sub	sp, sp, #116
 2549              		.cfi_def_cfa_offset 128
 2550 0004 0390     		str	r0, [sp, #12]
 2551              		.loc 1 557 0
 2552 0006 C24B     		ldr	r3, .L175
 2553 0008 1B68     		ldr	r3, [r3]
 2554 000a 1B93     		str	r3, [sp, #108]
 2555              		.loc 1 558 0
 2556 000c 0023     		movs	r3, #0
 2557 000e 8DF81730 		strb	r3, [sp, #23]
 2558              		.loc 1 559 0
 2559 0012 0BAB     		add	r3, sp, #44
 2560 0014 4022     		movs	r2, #64
 2561 0016 0021     		movs	r1, #0
 2562 0018 1846     		mov	r0, r3
 2563 001a FFF7FEFF 		bl	memset
 2564              		.loc 1 561 0
 2565 001e 0023     		movs	r3, #0
ARM GAS  C:\Users\PCHAUT~1\AppData\Local\Temp\ccZvjaUR.s 			page 46


 2566 0020 ADF81A30 		strh	r3, [sp, #26]	@ movhi
 2567              		.loc 1 562 0
 2568 0024 0023     		movs	r3, #0
 2569 0026 8DF81430 		strb	r3, [sp, #20]
 2570              		.loc 1 563 0
 2571 002a 0023     		movs	r3, #0
 2572 002c 8DF81830 		strb	r3, [sp, #24]
 2573              		.loc 1 564 0
 2574 0030 0023     		movs	r3, #0
 2575 0032 0A93     		str	r3, [sp, #40]
 2576              		.loc 1 565 0
 2577 0034 0023     		movs	r3, #0
 2578 0036 8DF81530 		strb	r3, [sp, #21]
 2579              		.loc 1 566 0
 2580 003a 0023     		movs	r3, #0
 2581 003c 0793     		str	r3, [sp, #28]
 2582              		.loc 1 567 0
 2583 003e 0023     		movs	r3, #0
 2584 0040 8DF81930 		strb	r3, [sp, #25]
 2585              		.loc 1 573 0
 2586 0044 0121     		movs	r1, #1
 2587 0046 0398     		ldr	r0, [sp, #12]
 2588 0048 FFF7FEFF 		bl	VL53L0X_get_info_from_device
 2589 004c 0346     		mov	r3, r0
 2590 004e 8DF81730 		strb	r3, [sp, #23]
 2591              		.loc 1 576 0
 2592 0052 039B     		ldr	r3, [sp, #12]
 2593 0054 93F81331 		ldrb	r3, [r3, #275]	@ zero_extendqisi2
 2594 0058 0A93     		str	r3, [sp, #40]
 2595              		.loc 1 578 0
 2596 005a 039B     		ldr	r3, [sp, #12]
 2597 005c 93F81431 		ldrb	r3, [r3, #276]
 2598 0060 8DF81930 		strb	r3, [sp, #25]
 2599              		.loc 1 582 0
 2600 0064 9DF81930 		ldrb	r3, [sp, #25]	@ zero_extendqisi2
 2601 0068 012B     		cmp	r3, #1
 2602 006a 0DD8     		bhi	.L148
 2603              		.loc 1 582 0 is_stmt 0 discriminator 1
 2604 006c 9DF81930 		ldrb	r3, [sp, #25]	@ zero_extendqisi2
 2605 0070 012B     		cmp	r3, #1
 2606 0072 02D1     		bne	.L149
 2607              		.loc 1 583 0 is_stmt 1
 2608 0074 0A9B     		ldr	r3, [sp, #40]
 2609 0076 202B     		cmp	r3, #32
 2610 0078 06D8     		bhi	.L148
 2611              	.L149:
 2612              		.loc 1 583 0 is_stmt 0 discriminator 1
 2613 007a 9DF81930 		ldrb	r3, [sp, #25]	@ zero_extendqisi2
 2614 007e 002B     		cmp	r3, #0
 2615 0080 0DD1     		bne	.L150
 2616              		.loc 1 584 0 is_stmt 1
 2617 0082 0A9B     		ldr	r3, [sp, #40]
 2618 0084 0C2B     		cmp	r3, #12
 2619 0086 0AD9     		bls	.L150
 2620              	.L148:
 2621              		.loc 1 585 0
 2622 0088 0DF11502 		add	r2, sp, #21
ARM GAS  C:\Users\PCHAUT~1\AppData\Local\Temp\ccZvjaUR.s 			page 47


 2623 008c 07AB     		add	r3, sp, #28
 2624 008e 1946     		mov	r1, r3
 2625 0090 0398     		ldr	r0, [sp, #12]
 2626 0092 FFF7FEFF 		bl	VL53L0X_perform_ref_spad_management
 2627 0096 0346     		mov	r3, r0
 2628 0098 8DF81730 		strb	r3, [sp, #23]
 2629 009c 09E0     		b	.L151
 2630              	.L150:
 2631              		.loc 1 588 0
 2632 009e 9DF81930 		ldrb	r3, [sp, #25]	@ zero_extendqisi2
 2633 00a2 1A46     		mov	r2, r3
 2634 00a4 0A99     		ldr	r1, [sp, #40]
 2635 00a6 0398     		ldr	r0, [sp, #12]
 2636 00a8 FFF7FEFF 		bl	VL53L0X_set_reference_spads
 2637 00ac 0346     		mov	r3, r0
 2638 00ae 8DF81730 		strb	r3, [sp, #23]
 2639              	.L151:
 2640              		.loc 1 592 0
 2641 00b2 984B     		ldr	r3, .L175+4
 2642 00b4 0993     		str	r3, [sp, #36]
 2643              		.loc 1 594 0
 2644 00b6 9DF91730 		ldrsb	r3, [sp, #23]
 2645 00ba 002B     		cmp	r3, #0
 2646 00bc 0FD1     		bne	.L152
 2647              		.loc 1 595 0
 2648 00be 039B     		ldr	r3, [sp, #12]
 2649 00c0 93F85031 		ldrb	r3, [r3, #336]
 2650 00c4 8DF81830 		strb	r3, [sp, #24]
 2651              		.loc 1 598 0
 2652 00c8 9DF81830 		ldrb	r3, [sp, #24]	@ zero_extendqisi2
 2653 00cc 002B     		cmp	r3, #0
 2654 00ce 04D1     		bne	.L153
 2655              		.loc 1 599 0
 2656 00d0 039B     		ldr	r3, [sp, #12]
 2657 00d2 D3F84C31 		ldr	r3, [r3, #332]
 2658 00d6 0993     		str	r3, [sp, #36]
 2659 00d8 01E0     		b	.L152
 2660              	.L153:
 2661              		.loc 1 602 0
 2662 00da 8E4B     		ldr	r3, .L175+4
 2663 00dc 0993     		str	r3, [sp, #36]
 2664              	.L152:
 2665              		.loc 1 606 0
 2666 00de 9DF91730 		ldrsb	r3, [sp, #23]
 2667 00e2 002B     		cmp	r3, #0
 2668 00e4 06D1     		bne	.L154
 2669              		.loc 1 607 0
 2670 00e6 0999     		ldr	r1, [sp, #36]
 2671 00e8 0398     		ldr	r0, [sp, #12]
 2672 00ea FFF7FEFF 		bl	VL53L0X_load_tuning_settings
 2673 00ee 0346     		mov	r3, r0
 2674 00f0 8DF81730 		strb	r3, [sp, #23]
 2675              	.L154:
 2676              		.loc 1 611 0
 2677 00f4 9DF91730 		ldrsb	r3, [sp, #23]
 2678 00f8 002B     		cmp	r3, #0
 2679 00fa 0AD1     		bne	.L155
ARM GAS  C:\Users\PCHAUT~1\AppData\Local\Temp\ccZvjaUR.s 			page 48


 2680              		.loc 1 612 0
 2681 00fc 0023     		movs	r3, #0
 2682 00fe 0093     		str	r3, [sp]
 2683 0100 0423     		movs	r3, #4
 2684 0102 0022     		movs	r2, #0
 2685 0104 0021     		movs	r1, #0
 2686 0106 0398     		ldr	r0, [sp, #12]
 2687 0108 FFF7FEFF 		bl	VL53L0X_SetGpioConfig
 2688 010c 0346     		mov	r3, r0
 2689 010e 8DF81730 		strb	r3, [sp, #23]
 2690              	.L155:
 2691              		.loc 1 617 0
 2692 0112 9DF91730 		ldrsb	r3, [sp, #23]
 2693 0116 002B     		cmp	r3, #0
 2694 0118 21D1     		bne	.L156
 2695              		.loc 1 618 0
 2696 011a 0122     		movs	r2, #1
 2697 011c FF21     		movs	r1, #255
 2698 011e 0398     		ldr	r0, [sp, #12]
 2699 0120 FFF7FEFF 		bl	VL53L0X_WrByte
 2700 0124 0346     		mov	r3, r0
 2701 0126 8DF81730 		strb	r3, [sp, #23]
 2702              		.loc 1 619 0
 2703 012a 0DF11A03 		add	r3, sp, #26
 2704 012e 1A46     		mov	r2, r3
 2705 0130 8421     		movs	r1, #132
 2706 0132 0398     		ldr	r0, [sp, #12]
 2707 0134 FFF7FEFF 		bl	VL53L0X_RdWord
 2708 0138 0346     		mov	r3, r0
 2709 013a 1A46     		mov	r2, r3
 2710 013c 9DF81730 		ldrb	r3, [sp, #23]
 2711 0140 1343     		orrs	r3, r3, r2
 2712 0142 8DF81730 		strb	r3, [sp, #23]
 2713              		.loc 1 620 0
 2714 0146 0022     		movs	r2, #0
 2715 0148 FF21     		movs	r1, #255
 2716 014a 0398     		ldr	r0, [sp, #12]
 2717 014c FFF7FEFF 		bl	VL53L0X_WrByte
 2718 0150 0346     		mov	r3, r0
 2719 0152 1A46     		mov	r2, r3
 2720 0154 9DF81730 		ldrb	r3, [sp, #23]
 2721 0158 1343     		orrs	r3, r3, r2
 2722 015a 8DF81730 		strb	r3, [sp, #23]
 2723              	.L156:
 2724              		.loc 1 623 0
 2725 015e 9DF91730 		ldrsb	r3, [sp, #23]
 2726 0162 002B     		cmp	r3, #0
 2727 0164 06D1     		bne	.L157
 2728              		.loc 1 624 0
 2729 0166 BDF81A30 		ldrh	r3, [sp, #26]
 2730 016a 1B01     		lsls	r3, r3, #4
 2731 016c 1A46     		mov	r2, r3
 2732 016e 039B     		ldr	r3, [sp, #12]
 2733 0170 C3F8D420 		str	r2, [r3, #212]
 2734              	.L157:
 2735              		.loc 1 630 0
 2736 0174 9DF91730 		ldrsb	r3, [sp, #23]
ARM GAS  C:\Users\PCHAUT~1\AppData\Local\Temp\ccZvjaUR.s 			page 49


 2737 0178 002B     		cmp	r3, #0
 2738 017a 07D1     		bne	.L158
 2739              		.loc 1 631 0
 2740 017c 0BAB     		add	r3, sp, #44
 2741 017e 1946     		mov	r1, r3
 2742 0180 0398     		ldr	r0, [sp, #12]
 2743 0182 FFF7FEFF 		bl	VL53L0X_GetDeviceParameters
 2744 0186 0346     		mov	r3, r0
 2745 0188 8DF81730 		strb	r3, [sp, #23]
 2746              	.L158:
 2747              		.loc 1 634 0
 2748 018c 9DF91730 		ldrsb	r3, [sp, #23]
 2749 0190 002B     		cmp	r3, #0
 2750 0192 10D1     		bne	.L159
 2751              		.loc 1 635 0
 2752 0194 05AB     		add	r3, sp, #20
 2753 0196 1946     		mov	r1, r3
 2754 0198 0398     		ldr	r0, [sp, #12]
 2755 019a FFF7FEFF 		bl	VL53L0X_GetFractionEnable
 2756 019e 0346     		mov	r3, r0
 2757 01a0 8DF81730 		strb	r3, [sp, #23]
 2758              		.loc 1 636 0
 2759 01a4 9DF91730 		ldrsb	r3, [sp, #23]
 2760 01a8 002B     		cmp	r3, #0
 2761 01aa 04D1     		bne	.L159
 2762              		.loc 1 637 0
 2763 01ac 9DF81420 		ldrb	r2, [sp, #20]	@ zero_extendqisi2
 2764 01b0 039B     		ldr	r3, [sp, #12]
 2765 01b2 83F83121 		strb	r2, [r3, #305]
 2766              	.L159:
 2767              		.loc 1 641 0
 2768 01b6 9DF91730 		ldrsb	r3, [sp, #23]
 2769 01ba 002B     		cmp	r3, #0
 2770 01bc 0DD1     		bne	.L160
 2771              		.loc 1 642 0
 2772 01be 039B     		ldr	r3, [sp, #12]
 2773 01c0 03F11004 		add	r4, r3, #16
 2774 01c4 0BAD     		add	r5, sp, #44
 2775 01c6 0FCD     		ldmia	r5!, {r0, r1, r2, r3}
 2776 01c8 0FC4     		stmia	r4!, {r0, r1, r2, r3}
 2777 01ca 0FCD     		ldmia	r5!, {r0, r1, r2, r3}
 2778 01cc 0FC4     		stmia	r4!, {r0, r1, r2, r3}
 2779 01ce 0FCD     		ldmia	r5!, {r0, r1, r2, r3}
 2780 01d0 0FC4     		stmia	r4!, {r0, r1, r2, r3}
 2781 01d2 95E80F00 		ldm	r5, {r0, r1, r2, r3}
 2782 01d6 84E80F00 		stm	r4, {r0, r1, r2, r3}
 2783              	.L160:
 2784              		.loc 1 646 0
 2785 01da 9DF91730 		ldrsb	r3, [sp, #23]
 2786 01de 002B     		cmp	r3, #0
 2787 01e0 11D1     		bne	.L161
 2788              		.loc 1 647 0
 2789 01e2 05AB     		add	r3, sp, #20
 2790 01e4 1A46     		mov	r2, r3
 2791 01e6 0121     		movs	r1, #1
 2792 01e8 0398     		ldr	r0, [sp, #12]
 2793 01ea FFF7FEFF 		bl	VL53L0X_RdByte
ARM GAS  C:\Users\PCHAUT~1\AppData\Local\Temp\ccZvjaUR.s 			page 50


 2794 01ee 0346     		mov	r3, r0
 2795 01f0 8DF81730 		strb	r3, [sp, #23]
 2796              		.loc 1 649 0
 2797 01f4 9DF91730 		ldrsb	r3, [sp, #23]
 2798 01f8 002B     		cmp	r3, #0
 2799 01fa 04D1     		bne	.L161
 2800              		.loc 1 650 0
 2801 01fc 9DF81420 		ldrb	r2, [sp, #20]	@ zero_extendqisi2
 2802 0200 039B     		ldr	r3, [sp, #12]
 2803 0202 83F83021 		strb	r2, [r3, #304]
 2804              	.L161:
 2805              		.loc 1 655 0
 2806 0206 9DF91730 		ldrsb	r3, [sp, #23]
 2807 020a 002B     		cmp	r3, #0
 2808 020c 07D1     		bne	.L162
 2809              		.loc 1 656 0
 2810 020e 0022     		movs	r2, #0
 2811 0210 0021     		movs	r1, #0
 2812 0212 0398     		ldr	r0, [sp, #12]
 2813 0214 FFF7FEFF 		bl	VL53L0X_SetSequenceStepEnable
 2814 0218 0346     		mov	r3, r0
 2815 021a 8DF81730 		strb	r3, [sp, #23]
 2816              	.L162:
 2817              		.loc 1 660 0
 2818 021e 9DF91730 		ldrsb	r3, [sp, #23]
 2819 0222 002B     		cmp	r3, #0
 2820 0224 07D1     		bne	.L163
 2821              		.loc 1 661 0
 2822 0226 0022     		movs	r2, #0
 2823 0228 0221     		movs	r1, #2
 2824 022a 0398     		ldr	r0, [sp, #12]
 2825 022c FFF7FEFF 		bl	VL53L0X_SetSequenceStepEnable
 2826 0230 0346     		mov	r3, r0
 2827 0232 8DF81730 		strb	r3, [sp, #23]
 2828              	.L163:
 2829              		.loc 1 666 0
 2830 0236 9DF91730 		ldrsb	r3, [sp, #23]
 2831 023a 002B     		cmp	r3, #0
 2832 023c 03D1     		bne	.L164
 2833              		.loc 1 667 0
 2834 023e 039B     		ldr	r3, [sp, #12]
 2835 0240 0322     		movs	r2, #3
 2836 0242 83F83221 		strb	r2, [r3, #306]
 2837              	.L164:
 2838              		.loc 1 672 0
 2839 0246 9DF91730 		ldrsb	r3, [sp, #23]
 2840 024a 002B     		cmp	r3, #0
 2841 024c 09D1     		bne	.L165
 2842              		.loc 1 673 0
 2843 024e 0DF11603 		add	r3, sp, #22
 2844 0252 1A46     		mov	r2, r3
 2845 0254 0021     		movs	r1, #0
 2846 0256 0398     		ldr	r0, [sp, #12]
 2847 0258 FFF7FEFF 		bl	VL53L0X_GetVcselPulsePeriod
 2848 025c 0346     		mov	r3, r0
 2849 025e 8DF81730 		strb	r3, [sp, #23]
 2850              	.L165:
ARM GAS  C:\Users\PCHAUT~1\AppData\Local\Temp\ccZvjaUR.s 			page 51


 2851              		.loc 1 679 0
 2852 0262 9DF91730 		ldrsb	r3, [sp, #23]
 2853 0266 002B     		cmp	r3, #0
 2854 0268 04D1     		bne	.L166
 2855              		.loc 1 680 0
 2856 026a 9DF81620 		ldrb	r2, [sp, #22]	@ zero_extendqisi2
 2857 026e 039B     		ldr	r3, [sp, #12]
 2858 0270 83F8E820 		strb	r2, [r3, #232]
 2859              	.L166:
 2860              		.loc 1 687 0
 2861 0274 9DF91730 		ldrsb	r3, [sp, #23]
 2862 0278 002B     		cmp	r3, #0
 2863 027a 09D1     		bne	.L167
 2864              		.loc 1 688 0
 2865 027c 0DF11603 		add	r3, sp, #22
 2866 0280 1A46     		mov	r2, r3
 2867 0282 0121     		movs	r1, #1
 2868 0284 0398     		ldr	r0, [sp, #12]
 2869 0286 FFF7FEFF 		bl	VL53L0X_GetVcselPulsePeriod
 2870 028a 0346     		mov	r3, r0
 2871 028c 8DF81730 		strb	r3, [sp, #23]
 2872              	.L167:
 2873              		.loc 1 694 0
 2874 0290 9DF91730 		ldrsb	r3, [sp, #23]
 2875 0294 002B     		cmp	r3, #0
 2876 0296 04D1     		bne	.L168
 2877              		.loc 1 695 0
 2878 0298 9DF81620 		ldrb	r2, [sp, #22]	@ zero_extendqisi2
 2879 029c 039B     		ldr	r3, [sp, #12]
 2880 029e 83F8E020 		strb	r2, [r3, #224]
 2881              	.L168:
 2882              		.loc 1 702 0
 2883 02a2 9DF91730 		ldrsb	r3, [sp, #23]
 2884 02a6 002B     		cmp	r3, #0
 2885 02a8 08D1     		bne	.L169
 2886              		.loc 1 703 0
 2887 02aa 08AB     		add	r3, sp, #32
 2888 02ac 1A46     		mov	r2, r3
 2889 02ae 0321     		movs	r1, #3
 2890 02b0 0398     		ldr	r0, [sp, #12]
 2891 02b2 FFF7FEFF 		bl	get_sequence_step_timeout
 2892 02b6 0346     		mov	r3, r0
 2893 02b8 8DF81730 		strb	r3, [sp, #23]
 2894              	.L169:
 2895              		.loc 1 709 0
 2896 02bc 9DF91730 		ldrsb	r3, [sp, #23]
 2897 02c0 002B     		cmp	r3, #0
 2898 02c2 03D1     		bne	.L170
 2899              		.loc 1 710 0
 2900 02c4 089A     		ldr	r2, [sp, #32]
 2901 02c6 039B     		ldr	r3, [sp, #12]
 2902 02c8 C3F8E420 		str	r2, [r3, #228]
 2903              	.L170:
 2904              		.loc 1 717 0
 2905 02cc 9DF91730 		ldrsb	r3, [sp, #23]
 2906 02d0 002B     		cmp	r3, #0
 2907 02d2 08D1     		bne	.L171
ARM GAS  C:\Users\PCHAUT~1\AppData\Local\Temp\ccZvjaUR.s 			page 52


 2908              		.loc 1 718 0
 2909 02d4 08AB     		add	r3, sp, #32
 2910 02d6 1A46     		mov	r2, r3
 2911 02d8 0421     		movs	r1, #4
 2912 02da 0398     		ldr	r0, [sp, #12]
 2913 02dc FFF7FEFF 		bl	get_sequence_step_timeout
 2914 02e0 0346     		mov	r3, r0
 2915 02e2 8DF81730 		strb	r3, [sp, #23]
 2916              	.L171:
 2917              		.loc 1 724 0
 2918 02e6 9DF91730 		ldrsb	r3, [sp, #23]
 2919 02ea 002B     		cmp	r3, #0
 2920 02ec 03D1     		bne	.L172
 2921              		.loc 1 725 0
 2922 02ee 089A     		ldr	r2, [sp, #32]
 2923 02f0 039B     		ldr	r3, [sp, #12]
 2924 02f2 C3F8DC20 		str	r2, [r3, #220]
 2925              	.L172:
 2926              		.loc 1 732 0
 2927 02f6 9DF91730 		ldrsb	r3, [sp, #23]
 2928              		.loc 1 733 0
 2929 02fa 1846     		mov	r0, r3
 2930 02fc 044B     		ldr	r3, .L175
 2931 02fe 1B9A     		ldr	r2, [sp, #108]
 2932 0300 1B68     		ldr	r3, [r3]
 2933 0302 9A42     		cmp	r2, r3
 2934 0304 01D0     		beq	.L174
 2935 0306 FFF7FEFF 		bl	__stack_chk_fail
 2936              	.L174:
 2937 030a 1DB0     		add	sp, sp, #116
 2938              		.cfi_def_cfa_offset 12
 2939              		@ sp needed
 2940 030c 30BD     		pop	{r4, r5, pc}
 2941              	.L176:
 2942 030e 00BF     		.align	2
 2943              	.L175:
 2944 0310 00000000 		.word	__stack_chk_guard
 2945 0314 00000000 		.word	DefaultTuningSettings
 2946              		.cfi_endproc
 2947              	.LFE26:
 2948              		.size	VL53L0X_StaticInit, .-VL53L0X_StaticInit
 2949              		.section	.text.VL53L0X_WaitDeviceBooted,"ax",%progbits
 2950              		.align	1
 2951              		.p2align 4,,15
 2952              		.global	VL53L0X_WaitDeviceBooted
 2953              		.syntax unified
 2954              		.thumb
 2955              		.thumb_func
 2956              		.fpu fpv4-sp-d16
 2957              		.type	VL53L0X_WaitDeviceBooted, %function
 2958              	VL53L0X_WaitDeviceBooted:
 2959              	.LFB27:
 2960              		.loc 1 736 0
 2961              		.cfi_startproc
 2962              		@ args = 0, pretend = 0, frame = 16
 2963              		@ frame_needed = 0, uses_anonymous_args = 0
 2964 0000 00B5     		push	{lr}
ARM GAS  C:\Users\PCHAUT~1\AppData\Local\Temp\ccZvjaUR.s 			page 53


 2965              		.cfi_def_cfa_offset 4
 2966              		.cfi_offset 14, -4
 2967 0002 85B0     		sub	sp, sp, #20
 2968              		.cfi_def_cfa_offset 24
 2969 0004 0190     		str	r0, [sp, #4]
 2970              		.loc 1 736 0
 2971 0006 094B     		ldr	r3, .L180
 2972 0008 1B68     		ldr	r3, [r3]
 2973 000a 0393     		str	r3, [sp, #12]
 2974              		.loc 1 737 0
 2975 000c 9D23     		movs	r3, #157
 2976 000e 8DF80B30 		strb	r3, [sp, #11]
 2977              		.loc 1 744 0
 2978 0012 9DF90B30 		ldrsb	r3, [sp, #11]
 2979              		.loc 1 745 0
 2980 0016 1846     		mov	r0, r3
 2981 0018 044B     		ldr	r3, .L180
 2982 001a 039A     		ldr	r2, [sp, #12]
 2983 001c 1B68     		ldr	r3, [r3]
 2984 001e 9A42     		cmp	r2, r3
 2985 0020 01D0     		beq	.L179
 2986 0022 FFF7FEFF 		bl	__stack_chk_fail
 2987              	.L179:
 2988 0026 05B0     		add	sp, sp, #20
 2989              		.cfi_def_cfa_offset 4
 2990              		@ sp needed
 2991 0028 5DF804FB 		ldr	pc, [sp], #4
 2992              	.L181:
 2993              		.align	2
 2994              	.L180:
 2995 002c 00000000 		.word	__stack_chk_guard
 2996              		.cfi_endproc
 2997              	.LFE27:
 2998              		.size	VL53L0X_WaitDeviceBooted, .-VL53L0X_WaitDeviceBooted
 2999              		.section	.text.VL53L0X_ResetDevice,"ax",%progbits
 3000              		.align	1
 3001              		.p2align 4,,15
 3002              		.global	VL53L0X_ResetDevice
 3003              		.syntax unified
 3004              		.thumb
 3005              		.thumb_func
 3006              		.fpu fpv4-sp-d16
 3007              		.type	VL53L0X_ResetDevice, %function
 3008              	VL53L0X_ResetDevice:
 3009              	.LFB28:
 3010              		.loc 1 748 0
 3011              		.cfi_startproc
 3012              		@ args = 0, pretend = 0, frame = 16
 3013              		@ frame_needed = 0, uses_anonymous_args = 0
 3014 0000 00B5     		push	{lr}
 3015              		.cfi_def_cfa_offset 4
 3016              		.cfi_offset 14, -4
 3017 0002 85B0     		sub	sp, sp, #20
 3018              		.cfi_def_cfa_offset 24
 3019 0004 0190     		str	r0, [sp, #4]
 3020              		.loc 1 748 0
 3021 0006 2A4B     		ldr	r3, .L190
ARM GAS  C:\Users\PCHAUT~1\AppData\Local\Temp\ccZvjaUR.s 			page 54


 3022 0008 1B68     		ldr	r3, [r3]
 3023 000a 0393     		str	r3, [sp, #12]
 3024              		.loc 1 749 0
 3025 000c 0023     		movs	r3, #0
 3026 000e 8DF80B30 		strb	r3, [sp, #11]
 3027              		.loc 1 754 0
 3028 0012 0022     		movs	r2, #0
 3029 0014 BF21     		movs	r1, #191
 3030 0016 0198     		ldr	r0, [sp, #4]
 3031 0018 FFF7FEFF 		bl	VL53L0X_WrByte
 3032 001c 0346     		mov	r3, r0
 3033 001e 8DF80B30 		strb	r3, [sp, #11]
 3034              		.loc 1 758 0
 3035 0022 9DF90B30 		ldrsb	r3, [sp, #11]
 3036 0026 002B     		cmp	r3, #0
 3037 0028 0DD1     		bne	.L183
 3038              	.L184:
 3039              		.loc 1 760 0 discriminator 1
 3040 002a 0DF10A03 		add	r3, sp, #10
 3041 002e 1A46     		mov	r2, r3
 3042 0030 C021     		movs	r1, #192
 3043 0032 0198     		ldr	r0, [sp, #4]
 3044 0034 FFF7FEFF 		bl	VL53L0X_RdByte
 3045 0038 0346     		mov	r3, r0
 3046 003a 8DF80B30 		strb	r3, [sp, #11]
 3047              		.loc 1 762 0 discriminator 1
 3048 003e 9DF80A30 		ldrb	r3, [sp, #10]	@ zero_extendqisi2
 3049 0042 002B     		cmp	r3, #0
 3050 0044 F1D1     		bne	.L184
 3051              	.L183:
 3052              		.loc 1 765 0
 3053 0046 0198     		ldr	r0, [sp, #4]
 3054 0048 FFF7FEFF 		bl	VL53L0X_PollingDelay
 3055              		.loc 1 768 0
 3056 004c 0122     		movs	r2, #1
 3057 004e BF21     		movs	r1, #191
 3058 0050 0198     		ldr	r0, [sp, #4]
 3059 0052 FFF7FEFF 		bl	VL53L0X_WrByte
 3060 0056 0346     		mov	r3, r0
 3061 0058 8DF80B30 		strb	r3, [sp, #11]
 3062              		.loc 1 772 0
 3063 005c 9DF90B30 		ldrsb	r3, [sp, #11]
 3064 0060 002B     		cmp	r3, #0
 3065 0062 0DD1     		bne	.L185
 3066              	.L186:
 3067              		.loc 1 774 0 discriminator 1
 3068 0064 0DF10A03 		add	r3, sp, #10
 3069 0068 1A46     		mov	r2, r3
 3070 006a C021     		movs	r1, #192
 3071 006c 0198     		ldr	r0, [sp, #4]
 3072 006e FFF7FEFF 		bl	VL53L0X_RdByte
 3073 0072 0346     		mov	r3, r0
 3074 0074 8DF80B30 		strb	r3, [sp, #11]
 3075              		.loc 1 776 0 discriminator 1
 3076 0078 9DF80A30 		ldrb	r3, [sp, #10]	@ zero_extendqisi2
 3077 007c 002B     		cmp	r3, #0
 3078 007e F1D0     		beq	.L186
ARM GAS  C:\Users\PCHAUT~1\AppData\Local\Temp\ccZvjaUR.s 			page 55


 3079              	.L185:
 3080              		.loc 1 779 0
 3081 0080 0198     		ldr	r0, [sp, #4]
 3082 0082 FFF7FEFF 		bl	VL53L0X_PollingDelay
 3083              		.loc 1 782 0
 3084 0086 9DF90B30 		ldrsb	r3, [sp, #11]
 3085 008a 002B     		cmp	r3, #0
 3086 008c 03D1     		bne	.L187
 3087              		.loc 1 783 0
 3088 008e 019B     		ldr	r3, [sp, #4]
 3089 0090 0022     		movs	r2, #0
 3090 0092 83F83221 		strb	r2, [r3, #306]
 3091              	.L187:
 3092              		.loc 1 787 0
 3093 0096 9DF90B30 		ldrsb	r3, [sp, #11]
 3094              		.loc 1 788 0
 3095 009a 1846     		mov	r0, r3
 3096 009c 044B     		ldr	r3, .L190
 3097 009e 039A     		ldr	r2, [sp, #12]
 3098 00a0 1B68     		ldr	r3, [r3]
 3099 00a2 9A42     		cmp	r2, r3
 3100 00a4 01D0     		beq	.L189
 3101 00a6 FFF7FEFF 		bl	__stack_chk_fail
 3102              	.L189:
 3103 00aa 05B0     		add	sp, sp, #20
 3104              		.cfi_def_cfa_offset 4
 3105              		@ sp needed
 3106 00ac 5DF804FB 		ldr	pc, [sp], #4
 3107              	.L191:
 3108              		.align	2
 3109              	.L190:
 3110 00b0 00000000 		.word	__stack_chk_guard
 3111              		.cfi_endproc
 3112              	.LFE28:
 3113              		.size	VL53L0X_ResetDevice, .-VL53L0X_ResetDevice
 3114              		.section	.text.VL53L0X_SetDeviceParameters,"ax",%progbits
 3115              		.align	1
 3116              		.p2align 4,,15
 3117              		.global	VL53L0X_SetDeviceParameters
 3118              		.syntax unified
 3119              		.thumb
 3120              		.thumb_func
 3121              		.fpu fpv4-sp-d16
 3122              		.type	VL53L0X_SetDeviceParameters, %function
 3123              	VL53L0X_SetDeviceParameters:
 3124              	.LFB29:
 3125              		.loc 1 794 0
 3126              		.cfi_startproc
 3127              		@ args = 0, pretend = 0, frame = 24
 3128              		@ frame_needed = 0, uses_anonymous_args = 0
 3129 0000 00B5     		push	{lr}
 3130              		.cfi_def_cfa_offset 4
 3131              		.cfi_offset 14, -4
 3132 0002 87B0     		sub	sp, sp, #28
 3133              		.cfi_def_cfa_offset 32
 3134 0004 0190     		str	r0, [sp, #4]
 3135 0006 0091     		str	r1, [sp]
ARM GAS  C:\Users\PCHAUT~1\AppData\Local\Temp\ccZvjaUR.s 			page 56


 3136              		.loc 1 794 0
 3137 0008 4B4B     		ldr	r3, .L209
 3138 000a 1B68     		ldr	r3, [r3]
 3139 000c 0593     		str	r3, [sp, #20]
 3140              		.loc 1 795 0
 3141 000e 0023     		movs	r3, #0
 3142 0010 8DF80F30 		strb	r3, [sp, #15]
 3143              		.loc 1 798 0
 3144 0014 009B     		ldr	r3, [sp]
 3145 0016 1B78     		ldrb	r3, [r3]	@ zero_extendqisi2
 3146 0018 1946     		mov	r1, r3
 3147 001a 0198     		ldr	r0, [sp, #4]
 3148 001c FFF7FEFF 		bl	VL53L0X_SetDeviceMode
 3149 0020 0346     		mov	r3, r0
 3150 0022 8DF80F30 		strb	r3, [sp, #15]
 3151              		.loc 1 800 0
 3152 0026 9DF90F30 		ldrsb	r3, [sp, #15]
 3153 002a 002B     		cmp	r3, #0
 3154 002c 08D1     		bne	.L193
 3155              		.loc 1 801 0
 3156 002e 009B     		ldr	r3, [sp]
 3157 0030 9B68     		ldr	r3, [r3, #8]
 3158 0032 1946     		mov	r1, r3
 3159 0034 0198     		ldr	r0, [sp, #4]
 3160 0036 FFF7FEFF 		bl	VL53L0X_SetInterMeasurementPeriodMilliSeconds
 3161 003a 0346     		mov	r3, r0
 3162 003c 8DF80F30 		strb	r3, [sp, #15]
 3163              	.L193:
 3164              		.loc 1 805 0
 3165 0040 9DF90F30 		ldrsb	r3, [sp, #15]
 3166 0044 002B     		cmp	r3, #0
 3167 0046 08D1     		bne	.L194
 3168              		.loc 1 806 0
 3169 0048 009B     		ldr	r3, [sp]
 3170 004a 1B69     		ldr	r3, [r3, #16]
 3171 004c 1946     		mov	r1, r3
 3172 004e 0198     		ldr	r0, [sp, #4]
 3173 0050 FFF7FEFF 		bl	VL53L0X_SetXTalkCompensationRateMegaCps
 3174 0054 0346     		mov	r3, r0
 3175 0056 8DF80F30 		strb	r3, [sp, #15]
 3176              	.L194:
 3177              		.loc 1 810 0
 3178 005a 9DF90F30 		ldrsb	r3, [sp, #15]
 3179 005e 002B     		cmp	r3, #0
 3180 0060 08D1     		bne	.L195
 3181              		.loc 1 811 0
 3182 0062 009B     		ldr	r3, [sp]
 3183 0064 5B69     		ldr	r3, [r3, #20]
 3184 0066 1946     		mov	r1, r3
 3185 0068 0198     		ldr	r0, [sp, #4]
 3186 006a FFF7FEFF 		bl	VL53L0X_SetOffsetCalibrationDataMicroMeter
 3187 006e 0346     		mov	r3, r0
 3188 0070 8DF80F30 		strb	r3, [sp, #15]
 3189              	.L195:
 3190              		.loc 1 815 0
 3191 0074 0023     		movs	r3, #0
 3192 0076 0493     		str	r3, [sp, #16]
ARM GAS  C:\Users\PCHAUT~1\AppData\Local\Temp\ccZvjaUR.s 			page 57


 3193 0078 2FE0     		b	.L196
 3194              	.L202:
 3195              		.loc 1 816 0
 3196 007a 9DF90F30 		ldrsb	r3, [sp, #15]
 3197 007e 002B     		cmp	r3, #0
 3198 0080 2FD1     		bne	.L207
 3199              		.loc 1 817 0
 3200 0082 049B     		ldr	r3, [sp, #16]
 3201 0084 99B2     		uxth	r1, r3
 3202 0086 009A     		ldr	r2, [sp]
 3203 0088 049B     		ldr	r3, [sp, #16]
 3204 008a 1344     		add	r3, r3, r2
 3205 008c 1833     		adds	r3, r3, #24
 3206 008e 1B78     		ldrb	r3, [r3]	@ zero_extendqisi2
 3207 0090 1A46     		mov	r2, r3
 3208 0092 0198     		ldr	r0, [sp, #4]
 3209 0094 FFF7FEFF 		bl	VL53L0X_SetLimitCheckEnable
 3210 0098 0346     		mov	r3, r0
 3211 009a 1A46     		mov	r2, r3
 3212 009c 9DF80F30 		ldrb	r3, [sp, #15]
 3213 00a0 1343     		orrs	r3, r3, r2
 3214 00a2 8DF80F30 		strb	r3, [sp, #15]
 3215              		.loc 1 822 0
 3216 00a6 9DF90F30 		ldrsb	r3, [sp, #15]
 3217 00aa 002B     		cmp	r3, #0
 3218 00ac 1BD1     		bne	.L208
 3219              		.loc 1 823 0
 3220 00ae 049B     		ldr	r3, [sp, #16]
 3221 00b0 99B2     		uxth	r1, r3
 3222 00b2 009A     		ldr	r2, [sp]
 3223 00b4 049B     		ldr	r3, [sp, #16]
 3224 00b6 0833     		adds	r3, r3, #8
 3225 00b8 9B00     		lsls	r3, r3, #2
 3226 00ba 1344     		add	r3, r3, r2
 3227 00bc 5B68     		ldr	r3, [r3, #4]
 3228 00be 1A46     		mov	r2, r3
 3229 00c0 0198     		ldr	r0, [sp, #4]
 3230 00c2 FFF7FEFF 		bl	VL53L0X_SetLimitCheckValue
 3231 00c6 0346     		mov	r3, r0
 3232 00c8 1A46     		mov	r2, r3
 3233 00ca 9DF80F30 		ldrb	r3, [sp, #15]
 3234 00ce 1343     		orrs	r3, r3, r2
 3235 00d0 8DF80F30 		strb	r3, [sp, #15]
 3236              		.loc 1 815 0
 3237 00d4 049B     		ldr	r3, [sp, #16]
 3238 00d6 0133     		adds	r3, r3, #1
 3239 00d8 0493     		str	r3, [sp, #16]
 3240              	.L196:
 3241              		.loc 1 815 0 is_stmt 0 discriminator 1
 3242 00da 049B     		ldr	r3, [sp, #16]
 3243 00dc 052B     		cmp	r3, #5
 3244 00de CCDD     		ble	.L202
 3245 00e0 02E0     		b	.L199
 3246              	.L207:
 3247              		.loc 1 820 0 is_stmt 1
 3248 00e2 00BF     		nop
 3249 00e4 00E0     		b	.L199
ARM GAS  C:\Users\PCHAUT~1\AppData\Local\Temp\ccZvjaUR.s 			page 58


 3250              	.L208:
 3251              		.loc 1 826 0
 3252 00e6 00BF     		nop
 3253              	.L199:
 3254              		.loc 1 830 0
 3255 00e8 9DF90F30 		ldrsb	r3, [sp, #15]
 3256 00ec 002B     		cmp	r3, #0
 3257 00ee 09D1     		bne	.L203
 3258              		.loc 1 831 0
 3259 00f0 009B     		ldr	r3, [sp]
 3260 00f2 93F83C30 		ldrb	r3, [r3, #60]	@ zero_extendqisi2
 3261 00f6 1946     		mov	r1, r3
 3262 00f8 0198     		ldr	r0, [sp, #4]
 3263 00fa FFF7FEFF 		bl	VL53L0X_SetWrapAroundCheckEnable
 3264 00fe 0346     		mov	r3, r0
 3265 0100 8DF80F30 		strb	r3, [sp, #15]
 3266              	.L203:
 3267              		.loc 1 834 0
 3268 0104 9DF90F30 		ldrsb	r3, [sp, #15]
 3269 0108 002B     		cmp	r3, #0
 3270 010a 08D1     		bne	.L204
 3271              		.loc 1 835 0
 3272 010c 009B     		ldr	r3, [sp]
 3273 010e 5B68     		ldr	r3, [r3, #4]
 3274 0110 1946     		mov	r1, r3
 3275 0112 0198     		ldr	r0, [sp, #4]
 3276 0114 FFF7FEFF 		bl	VL53L0X_SetMeasurementTimingBudgetMicroSeconds
 3277 0118 0346     		mov	r3, r0
 3278 011a 8DF80F30 		strb	r3, [sp, #15]
 3279              	.L204:
 3280              		.loc 1 840 0
 3281 011e 9DF90F30 		ldrsb	r3, [sp, #15]
 3282              		.loc 1 841 0
 3283 0122 1846     		mov	r0, r3
 3284 0124 044B     		ldr	r3, .L209
 3285 0126 059A     		ldr	r2, [sp, #20]
 3286 0128 1B68     		ldr	r3, [r3]
 3287 012a 9A42     		cmp	r2, r3
 3288 012c 01D0     		beq	.L206
 3289 012e FFF7FEFF 		bl	__stack_chk_fail
 3290              	.L206:
 3291 0132 07B0     		add	sp, sp, #28
 3292              		.cfi_def_cfa_offset 4
 3293              		@ sp needed
 3294 0134 5DF804FB 		ldr	pc, [sp], #4
 3295              	.L210:
 3296              		.align	2
 3297              	.L209:
 3298 0138 00000000 		.word	__stack_chk_guard
 3299              		.cfi_endproc
 3300              	.LFE29:
 3301              		.size	VL53L0X_SetDeviceParameters, .-VL53L0X_SetDeviceParameters
 3302              		.section	.text.VL53L0X_GetDeviceParameters,"ax",%progbits
 3303              		.align	1
 3304              		.p2align 4,,15
 3305              		.global	VL53L0X_GetDeviceParameters
 3306              		.syntax unified
ARM GAS  C:\Users\PCHAUT~1\AppData\Local\Temp\ccZvjaUR.s 			page 59


 3307              		.thumb
 3308              		.thumb_func
 3309              		.fpu fpv4-sp-d16
 3310              		.type	VL53L0X_GetDeviceParameters, %function
 3311              	VL53L0X_GetDeviceParameters:
 3312              	.LFB30:
 3313              		.loc 1 845 0
 3314              		.cfi_startproc
 3315              		@ args = 0, pretend = 0, frame = 24
 3316              		@ frame_needed = 0, uses_anonymous_args = 0
 3317 0000 00B5     		push	{lr}
 3318              		.cfi_def_cfa_offset 4
 3319              		.cfi_offset 14, -4
 3320 0002 87B0     		sub	sp, sp, #28
 3321              		.cfi_def_cfa_offset 32
 3322 0004 0190     		str	r0, [sp, #4]
 3323 0006 0091     		str	r1, [sp]
 3324              		.loc 1 845 0
 3325 0008 4F4B     		ldr	r3, .L229
 3326 000a 1B68     		ldr	r3, [r3]
 3327 000c 0593     		str	r3, [sp, #20]
 3328              		.loc 1 846 0
 3329 000e 0023     		movs	r3, #0
 3330 0010 8DF80F30 		strb	r3, [sp, #15]
 3331              		.loc 1 851 0
 3332 0014 009B     		ldr	r3, [sp]
 3333 0016 1946     		mov	r1, r3
 3334 0018 0198     		ldr	r0, [sp, #4]
 3335 001a FFF7FEFF 		bl	VL53L0X_GetDeviceMode
 3336 001e 0346     		mov	r3, r0
 3337 0020 8DF80F30 		strb	r3, [sp, #15]
 3338              		.loc 1 853 0
 3339 0024 9DF90F30 		ldrsb	r3, [sp, #15]
 3340 0028 002B     		cmp	r3, #0
 3341 002a 08D1     		bne	.L212
 3342              		.loc 1 854 0
 3343 002c 009B     		ldr	r3, [sp]
 3344 002e 0833     		adds	r3, r3, #8
 3345 0030 1946     		mov	r1, r3
 3346 0032 0198     		ldr	r0, [sp, #4]
 3347 0034 FFF7FEFF 		bl	VL53L0X_GetInterMeasurementPeriodMilliSeconds
 3348 0038 0346     		mov	r3, r0
 3349 003a 8DF80F30 		strb	r3, [sp, #15]
 3350              	.L212:
 3351              		.loc 1 858 0
 3352 003e 9DF90F30 		ldrsb	r3, [sp, #15]
 3353 0042 002B     		cmp	r3, #0
 3354 0044 02D1     		bne	.L213
 3355              		.loc 1 859 0
 3356 0046 009B     		ldr	r3, [sp]
 3357 0048 0022     		movs	r2, #0
 3358 004a 1A73     		strb	r2, [r3, #12]
 3359              	.L213:
 3360              		.loc 1 861 0
 3361 004c 9DF90F30 		ldrsb	r3, [sp, #15]
 3362 0050 002B     		cmp	r3, #0
 3363 0052 08D1     		bne	.L214
ARM GAS  C:\Users\PCHAUT~1\AppData\Local\Temp\ccZvjaUR.s 			page 60


 3364              		.loc 1 862 0
 3365 0054 009B     		ldr	r3, [sp]
 3366 0056 1033     		adds	r3, r3, #16
 3367 0058 1946     		mov	r1, r3
 3368 005a 0198     		ldr	r0, [sp, #4]
 3369 005c FFF7FEFF 		bl	VL53L0X_GetXTalkCompensationRateMegaCps
 3370 0060 0346     		mov	r3, r0
 3371 0062 8DF80F30 		strb	r3, [sp, #15]
 3372              	.L214:
 3373              		.loc 1 866 0
 3374 0066 9DF90F30 		ldrsb	r3, [sp, #15]
 3375 006a 002B     		cmp	r3, #0
 3376 006c 08D1     		bne	.L215
 3377              		.loc 1 867 0
 3378 006e 009B     		ldr	r3, [sp]
 3379 0070 1433     		adds	r3, r3, #20
 3380 0072 1946     		mov	r1, r3
 3381 0074 0198     		ldr	r0, [sp, #4]
 3382 0076 FFF7FEFF 		bl	VL53L0X_GetOffsetCalibrationDataMicroMeter
 3383 007a 0346     		mov	r3, r0
 3384 007c 8DF80F30 		strb	r3, [sp, #15]
 3385              	.L215:
 3386              		.loc 1 871 0
 3387 0080 9DF90F30 		ldrsb	r3, [sp, #15]
 3388 0084 002B     		cmp	r3, #0
 3389 0086 38D1     		bne	.L216
 3390              		.loc 1 872 0
 3391 0088 0023     		movs	r3, #0
 3392 008a 0493     		str	r3, [sp, #16]
 3393 008c 2EE0     		b	.L217
 3394              	.L222:
 3395              		.loc 1 877 0
 3396 008e 9DF90F30 		ldrsb	r3, [sp, #15]
 3397 0092 002B     		cmp	r3, #0
 3398 0094 2ED1     		bne	.L227
 3399              		.loc 1 878 0
 3400 0096 049B     		ldr	r3, [sp, #16]
 3401 0098 99B2     		uxth	r1, r3
 3402 009a 049B     		ldr	r3, [sp, #16]
 3403 009c 0833     		adds	r3, r3, #8
 3404 009e 9B00     		lsls	r3, r3, #2
 3405 00a0 009A     		ldr	r2, [sp]
 3406 00a2 1344     		add	r3, r3, r2
 3407 00a4 0433     		adds	r3, r3, #4
 3408 00a6 1A46     		mov	r2, r3
 3409 00a8 0198     		ldr	r0, [sp, #4]
 3410 00aa FFF7FEFF 		bl	VL53L0X_GetLimitCheckValue
 3411 00ae 0346     		mov	r3, r0
 3412 00b0 1A46     		mov	r2, r3
 3413 00b2 9DF80F30 		ldrb	r3, [sp, #15]
 3414 00b6 1343     		orrs	r3, r3, r2
 3415 00b8 8DF80F30 		strb	r3, [sp, #15]
 3416              		.loc 1 883 0
 3417 00bc 9DF90F30 		ldrsb	r3, [sp, #15]
 3418 00c0 002B     		cmp	r3, #0
 3419 00c2 19D1     		bne	.L228
 3420              		.loc 1 884 0
ARM GAS  C:\Users\PCHAUT~1\AppData\Local\Temp\ccZvjaUR.s 			page 61


 3421 00c4 049B     		ldr	r3, [sp, #16]
 3422 00c6 99B2     		uxth	r1, r3
 3423 00c8 049B     		ldr	r3, [sp, #16]
 3424 00ca 1833     		adds	r3, r3, #24
 3425 00cc 009A     		ldr	r2, [sp]
 3426 00ce 1344     		add	r3, r3, r2
 3427 00d0 1A46     		mov	r2, r3
 3428 00d2 0198     		ldr	r0, [sp, #4]
 3429 00d4 FFF7FEFF 		bl	VL53L0X_GetLimitCheckEnable
 3430 00d8 0346     		mov	r3, r0
 3431 00da 1A46     		mov	r2, r3
 3432 00dc 9DF80F30 		ldrb	r3, [sp, #15]
 3433 00e0 1343     		orrs	r3, r3, r2
 3434 00e2 8DF80F30 		strb	r3, [sp, #15]
 3435              		.loc 1 872 0
 3436 00e6 049B     		ldr	r3, [sp, #16]
 3437 00e8 0133     		adds	r3, r3, #1
 3438 00ea 0493     		str	r3, [sp, #16]
 3439              	.L217:
 3440              		.loc 1 872 0 is_stmt 0 discriminator 1
 3441 00ec 049B     		ldr	r3, [sp, #16]
 3442 00ee 052B     		cmp	r3, #5
 3443 00f0 CDDD     		ble	.L222
 3444 00f2 02E0     		b	.L216
 3445              	.L227:
 3446              		.loc 1 881 0 is_stmt 1
 3447 00f4 00BF     		nop
 3448 00f6 00E0     		b	.L216
 3449              	.L228:
 3450              		.loc 1 887 0
 3451 00f8 00BF     		nop
 3452              	.L216:
 3453              		.loc 1 892 0
 3454 00fa 9DF90F30 		ldrsb	r3, [sp, #15]
 3455 00fe 002B     		cmp	r3, #0
 3456 0100 08D1     		bne	.L223
 3457              		.loc 1 893 0
 3458 0102 009B     		ldr	r3, [sp]
 3459 0104 3C33     		adds	r3, r3, #60
 3460 0106 1946     		mov	r1, r3
 3461 0108 0198     		ldr	r0, [sp, #4]
 3462 010a FFF7FEFF 		bl	VL53L0X_GetWrapAroundCheckEnable
 3463 010e 0346     		mov	r3, r0
 3464 0110 8DF80F30 		strb	r3, [sp, #15]
 3465              	.L223:
 3466              		.loc 1 898 0
 3467 0114 9DF90F30 		ldrsb	r3, [sp, #15]
 3468 0118 002B     		cmp	r3, #0
 3469 011a 08D1     		bne	.L224
 3470              		.loc 1 899 0
 3471 011c 009B     		ldr	r3, [sp]
 3472 011e 0433     		adds	r3, r3, #4
 3473 0120 1946     		mov	r1, r3
 3474 0122 0198     		ldr	r0, [sp, #4]
 3475 0124 FFF7FEFF 		bl	VL53L0X_GetMeasurementTimingBudgetMicroSeconds
 3476 0128 0346     		mov	r3, r0
 3477 012a 8DF80F30 		strb	r3, [sp, #15]
ARM GAS  C:\Users\PCHAUT~1\AppData\Local\Temp\ccZvjaUR.s 			page 62


 3478              	.L224:
 3479              		.loc 1 904 0
 3480 012e 9DF90F30 		ldrsb	r3, [sp, #15]
 3481              		.loc 1 905 0
 3482 0132 1846     		mov	r0, r3
 3483 0134 044B     		ldr	r3, .L229
 3484 0136 059A     		ldr	r2, [sp, #20]
 3485 0138 1B68     		ldr	r3, [r3]
 3486 013a 9A42     		cmp	r2, r3
 3487 013c 01D0     		beq	.L226
 3488 013e FFF7FEFF 		bl	__stack_chk_fail
 3489              	.L226:
 3490 0142 07B0     		add	sp, sp, #28
 3491              		.cfi_def_cfa_offset 4
 3492              		@ sp needed
 3493 0144 5DF804FB 		ldr	pc, [sp], #4
 3494              	.L230:
 3495              		.align	2
 3496              	.L229:
 3497 0148 00000000 		.word	__stack_chk_guard
 3498              		.cfi_endproc
 3499              	.LFE30:
 3500              		.size	VL53L0X_GetDeviceParameters, .-VL53L0X_GetDeviceParameters
 3501              		.section	.text.VL53L0X_SetDeviceMode,"ax",%progbits
 3502              		.align	1
 3503              		.p2align 4,,15
 3504              		.global	VL53L0X_SetDeviceMode
 3505              		.syntax unified
 3506              		.thumb
 3507              		.thumb_func
 3508              		.fpu fpv4-sp-d16
 3509              		.type	VL53L0X_SetDeviceMode, %function
 3510              	VL53L0X_SetDeviceMode:
 3511              	.LFB31:
 3512              		.loc 1 908 0
 3513              		.cfi_startproc
 3514              		@ args = 0, pretend = 0, frame = 16
 3515              		@ frame_needed = 0, uses_anonymous_args = 0
 3516 0000 00B5     		push	{lr}
 3517              		.cfi_def_cfa_offset 4
 3518              		.cfi_offset 14, -4
 3519 0002 85B0     		sub	sp, sp, #20
 3520              		.cfi_def_cfa_offset 24
 3521 0004 0190     		str	r0, [sp, #4]
 3522 0006 0B46     		mov	r3, r1
 3523 0008 8DF80330 		strb	r3, [sp, #3]
 3524              		.loc 1 908 0
 3525 000c 274B     		ldr	r3, .L238
 3526 000e 1B68     		ldr	r3, [r3]
 3527 0010 0393     		str	r3, [sp, #12]
 3528              		.loc 1 909 0
 3529 0012 0023     		movs	r3, #0
 3530 0014 8DF80B30 		strb	r3, [sp, #11]
 3531              		.loc 1 913 0
 3532 0018 9DF80330 		ldrb	r3, [sp, #3]	@ zero_extendqisi2
 3533 001c 152B     		cmp	r3, #21
 3534 001e 34D8     		bhi	.L232
ARM GAS  C:\Users\PCHAUT~1\AppData\Local\Temp\ccZvjaUR.s 			page 63


 3535 0020 01A2     		adr	r2, .L234
 3536 0022 52F823F0 		ldr	pc, [r2, r3, lsl #2]
 3537 0026 00BF     		.p2align 2
 3538              	.L234:
 3539 0028 81000000 		.word	.L233+1
 3540 002c 81000000 		.word	.L233+1
 3541 0030 8B000000 		.word	.L232+1
 3542 0034 81000000 		.word	.L233+1
 3543 0038 8B000000 		.word	.L232+1
 3544 003c 8B000000 		.word	.L232+1
 3545 0040 8B000000 		.word	.L232+1
 3546 0044 8B000000 		.word	.L232+1
 3547 0048 8B000000 		.word	.L232+1
 3548 004c 8B000000 		.word	.L232+1
 3549 0050 8B000000 		.word	.L232+1
 3550 0054 8B000000 		.word	.L232+1
 3551 0058 8B000000 		.word	.L232+1
 3552 005c 8B000000 		.word	.L232+1
 3553 0060 8B000000 		.word	.L232+1
 3554 0064 8B000000 		.word	.L232+1
 3555 0068 8B000000 		.word	.L232+1
 3556 006c 8B000000 		.word	.L232+1
 3557 0070 8B000000 		.word	.L232+1
 3558 0074 8B000000 		.word	.L232+1
 3559 0078 81000000 		.word	.L233+1
 3560 007c 81000000 		.word	.L233+1
 3561              		.p2align 1
 3562              	.L233:
 3563              		.loc 1 920 0
 3564 0080 019B     		ldr	r3, [sp, #4]
 3565 0082 9DF80320 		ldrb	r2, [sp, #3]
 3566 0086 1A74     		strb	r2, [r3, #16]
 3567              		.loc 1 921 0
 3568 0088 02E0     		b	.L235
 3569              	.L232:
 3570              		.loc 1 924 0
 3571 008a F823     		movs	r3, #248
 3572 008c 8DF80B30 		strb	r3, [sp, #11]
 3573              	.L235:
 3574              		.loc 1 928 0
 3575 0090 9DF90B30 		ldrsb	r3, [sp, #11]
 3576              		.loc 1 929 0
 3577 0094 1846     		mov	r0, r3
 3578 0096 054B     		ldr	r3, .L238
 3579 0098 039A     		ldr	r2, [sp, #12]
 3580 009a 1B68     		ldr	r3, [r3]
 3581 009c 9A42     		cmp	r2, r3
 3582 009e 01D0     		beq	.L237
 3583 00a0 FFF7FEFF 		bl	__stack_chk_fail
 3584              	.L237:
 3585 00a4 05B0     		add	sp, sp, #20
 3586              		.cfi_def_cfa_offset 4
 3587              		@ sp needed
 3588 00a6 5DF804FB 		ldr	pc, [sp], #4
 3589              	.L239:
 3590 00aa 00BF     		.align	2
 3591              	.L238:
ARM GAS  C:\Users\PCHAUT~1\AppData\Local\Temp\ccZvjaUR.s 			page 64


 3592 00ac 00000000 		.word	__stack_chk_guard
 3593              		.cfi_endproc
 3594              	.LFE31:
 3595              		.size	VL53L0X_SetDeviceMode, .-VL53L0X_SetDeviceMode
 3596              		.section	.text.VL53L0X_GetDeviceMode,"ax",%progbits
 3597              		.align	1
 3598              		.p2align 4,,15
 3599              		.global	VL53L0X_GetDeviceMode
 3600              		.syntax unified
 3601              		.thumb
 3602              		.thumb_func
 3603              		.fpu fpv4-sp-d16
 3604              		.type	VL53L0X_GetDeviceMode, %function
 3605              	VL53L0X_GetDeviceMode:
 3606              	.LFB32:
 3607              		.loc 1 933 0
 3608              		.cfi_startproc
 3609              		@ args = 0, pretend = 0, frame = 16
 3610              		@ frame_needed = 0, uses_anonymous_args = 0
 3611 0000 00B5     		push	{lr}
 3612              		.cfi_def_cfa_offset 4
 3613              		.cfi_offset 14, -4
 3614 0002 85B0     		sub	sp, sp, #20
 3615              		.cfi_def_cfa_offset 24
 3616 0004 0190     		str	r0, [sp, #4]
 3617 0006 0091     		str	r1, [sp]
 3618              		.loc 1 933 0
 3619 0008 0B4B     		ldr	r3, .L243
 3620 000a 1B68     		ldr	r3, [r3]
 3621 000c 0393     		str	r3, [sp, #12]
 3622              		.loc 1 934 0
 3623 000e 0023     		movs	r3, #0
 3624 0010 8DF80B30 		strb	r3, [sp, #11]
 3625              		.loc 1 937 0
 3626 0014 019B     		ldr	r3, [sp, #4]
 3627 0016 1A7C     		ldrb	r2, [r3, #16]	@ zero_extendqisi2
 3628 0018 009B     		ldr	r3, [sp]
 3629 001a 1A70     		strb	r2, [r3]
 3630              		.loc 1 940 0
 3631 001c 9DF90B30 		ldrsb	r3, [sp, #11]
 3632              		.loc 1 941 0
 3633 0020 1846     		mov	r0, r3
 3634 0022 054B     		ldr	r3, .L243
 3635 0024 039A     		ldr	r2, [sp, #12]
 3636 0026 1B68     		ldr	r3, [r3]
 3637 0028 9A42     		cmp	r2, r3
 3638 002a 01D0     		beq	.L242
 3639 002c FFF7FEFF 		bl	__stack_chk_fail
 3640              	.L242:
 3641 0030 05B0     		add	sp, sp, #20
 3642              		.cfi_def_cfa_offset 4
 3643              		@ sp needed
 3644 0032 5DF804FB 		ldr	pc, [sp], #4
 3645              	.L244:
 3646 0036 00BF     		.align	2
 3647              	.L243:
 3648 0038 00000000 		.word	__stack_chk_guard
ARM GAS  C:\Users\PCHAUT~1\AppData\Local\Temp\ccZvjaUR.s 			page 65


 3649              		.cfi_endproc
 3650              	.LFE32:
 3651              		.size	VL53L0X_GetDeviceMode, .-VL53L0X_GetDeviceMode
 3652              		.section	.text.VL53L0X_SetRangeFractionEnable,"ax",%progbits
 3653              		.align	1
 3654              		.p2align 4,,15
 3655              		.global	VL53L0X_SetRangeFractionEnable
 3656              		.syntax unified
 3657              		.thumb
 3658              		.thumb_func
 3659              		.fpu fpv4-sp-d16
 3660              		.type	VL53L0X_SetRangeFractionEnable, %function
 3661              	VL53L0X_SetRangeFractionEnable:
 3662              	.LFB33:
 3663              		.loc 1 944 0
 3664              		.cfi_startproc
 3665              		@ args = 0, pretend = 0, frame = 16
 3666              		@ frame_needed = 0, uses_anonymous_args = 0
 3667 0000 00B5     		push	{lr}
 3668              		.cfi_def_cfa_offset 4
 3669              		.cfi_offset 14, -4
 3670 0002 85B0     		sub	sp, sp, #20
 3671              		.cfi_def_cfa_offset 24
 3672 0004 0190     		str	r0, [sp, #4]
 3673 0006 0B46     		mov	r3, r1
 3674 0008 8DF80330 		strb	r3, [sp, #3]
 3675              		.loc 1 944 0
 3676 000c 124B     		ldr	r3, .L249
 3677 000e 1B68     		ldr	r3, [r3]
 3678 0010 0393     		str	r3, [sp, #12]
 3679              		.loc 1 945 0
 3680 0012 0023     		movs	r3, #0
 3681 0014 8DF80B30 		strb	r3, [sp, #11]
 3682              		.loc 1 949 0
 3683 0018 9DF80330 		ldrb	r3, [sp, #3]	@ zero_extendqisi2
 3684 001c 1A46     		mov	r2, r3
 3685 001e 0921     		movs	r1, #9
 3686 0020 0198     		ldr	r0, [sp, #4]
 3687 0022 FFF7FEFF 		bl	VL53L0X_WrByte
 3688 0026 0346     		mov	r3, r0
 3689 0028 8DF80B30 		strb	r3, [sp, #11]
 3690              		.loc 1 951 0
 3691 002c 9DF90B30 		ldrsb	r3, [sp, #11]
 3692 0030 002B     		cmp	r3, #0
 3693 0032 04D1     		bne	.L246
 3694              		.loc 1 952 0
 3695 0034 019B     		ldr	r3, [sp, #4]
 3696 0036 9DF80320 		ldrb	r2, [sp, #3]
 3697 003a 83F83121 		strb	r2, [r3, #305]
 3698              	.L246:
 3699              		.loc 1 955 0
 3700 003e 9DF90B30 		ldrsb	r3, [sp, #11]
 3701              		.loc 1 956 0
 3702 0042 1846     		mov	r0, r3
 3703 0044 044B     		ldr	r3, .L249
 3704 0046 039A     		ldr	r2, [sp, #12]
 3705 0048 1B68     		ldr	r3, [r3]
ARM GAS  C:\Users\PCHAUT~1\AppData\Local\Temp\ccZvjaUR.s 			page 66


 3706 004a 9A42     		cmp	r2, r3
 3707 004c 01D0     		beq	.L248
 3708 004e FFF7FEFF 		bl	__stack_chk_fail
 3709              	.L248:
 3710 0052 05B0     		add	sp, sp, #20
 3711              		.cfi_def_cfa_offset 4
 3712              		@ sp needed
 3713 0054 5DF804FB 		ldr	pc, [sp], #4
 3714              	.L250:
 3715              		.align	2
 3716              	.L249:
 3717 0058 00000000 		.word	__stack_chk_guard
 3718              		.cfi_endproc
 3719              	.LFE33:
 3720              		.size	VL53L0X_SetRangeFractionEnable, .-VL53L0X_SetRangeFractionEnable
 3721              		.section	.text.VL53L0X_GetFractionEnable,"ax",%progbits
 3722              		.align	1
 3723              		.p2align 4,,15
 3724              		.global	VL53L0X_GetFractionEnable
 3725              		.syntax unified
 3726              		.thumb
 3727              		.thumb_func
 3728              		.fpu fpv4-sp-d16
 3729              		.type	VL53L0X_GetFractionEnable, %function
 3730              	VL53L0X_GetFractionEnable:
 3731              	.LFB34:
 3732              		.loc 1 959 0
 3733              		.cfi_startproc
 3734              		@ args = 0, pretend = 0, frame = 16
 3735              		@ frame_needed = 0, uses_anonymous_args = 0
 3736 0000 00B5     		push	{lr}
 3737              		.cfi_def_cfa_offset 4
 3738              		.cfi_offset 14, -4
 3739 0002 85B0     		sub	sp, sp, #20
 3740              		.cfi_def_cfa_offset 24
 3741 0004 0190     		str	r0, [sp, #4]
 3742 0006 0091     		str	r1, [sp]
 3743              		.loc 1 959 0
 3744 0008 124B     		ldr	r3, .L255
 3745 000a 1B68     		ldr	r3, [r3]
 3746 000c 0393     		str	r3, [sp, #12]
 3747              		.loc 1 960 0
 3748 000e 0023     		movs	r3, #0
 3749 0010 8DF80B30 		strb	r3, [sp, #11]
 3750              		.loc 1 963 0
 3751 0014 009A     		ldr	r2, [sp]
 3752 0016 0921     		movs	r1, #9
 3753 0018 0198     		ldr	r0, [sp, #4]
 3754 001a FFF7FEFF 		bl	VL53L0X_RdByte
 3755 001e 0346     		mov	r3, r0
 3756 0020 8DF80B30 		strb	r3, [sp, #11]
 3757              		.loc 1 965 0
 3758 0024 9DF90B30 		ldrsb	r3, [sp, #11]
 3759 0028 002B     		cmp	r3, #0
 3760 002a 06D1     		bne	.L252
 3761              		.loc 1 966 0
 3762 002c 009B     		ldr	r3, [sp]
ARM GAS  C:\Users\PCHAUT~1\AppData\Local\Temp\ccZvjaUR.s 			page 67


 3763 002e 1B78     		ldrb	r3, [r3]	@ zero_extendqisi2
 3764 0030 03F00103 		and	r3, r3, #1
 3765 0034 DAB2     		uxtb	r2, r3
 3766 0036 009B     		ldr	r3, [sp]
 3767 0038 1A70     		strb	r2, [r3]
 3768              	.L252:
 3769              		.loc 1 969 0
 3770 003a 9DF90B30 		ldrsb	r3, [sp, #11]
 3771              		.loc 1 970 0
 3772 003e 1846     		mov	r0, r3
 3773 0040 044B     		ldr	r3, .L255
 3774 0042 039A     		ldr	r2, [sp, #12]
 3775 0044 1B68     		ldr	r3, [r3]
 3776 0046 9A42     		cmp	r2, r3
 3777 0048 01D0     		beq	.L254
 3778 004a FFF7FEFF 		bl	__stack_chk_fail
 3779              	.L254:
 3780 004e 05B0     		add	sp, sp, #20
 3781              		.cfi_def_cfa_offset 4
 3782              		@ sp needed
 3783 0050 5DF804FB 		ldr	pc, [sp], #4
 3784              	.L256:
 3785              		.align	2
 3786              	.L255:
 3787 0054 00000000 		.word	__stack_chk_guard
 3788              		.cfi_endproc
 3789              	.LFE34:
 3790              		.size	VL53L0X_GetFractionEnable, .-VL53L0X_GetFractionEnable
 3791              		.section	.text.VL53L0X_SetHistogramMode,"ax",%progbits
 3792              		.align	1
 3793              		.p2align 4,,15
 3794              		.global	VL53L0X_SetHistogramMode
 3795              		.syntax unified
 3796              		.thumb
 3797              		.thumb_func
 3798              		.fpu fpv4-sp-d16
 3799              		.type	VL53L0X_SetHistogramMode, %function
 3800              	VL53L0X_SetHistogramMode:
 3801              	.LFB35:
 3802              		.loc 1 974 0
 3803              		.cfi_startproc
 3804              		@ args = 0, pretend = 0, frame = 16
 3805              		@ frame_needed = 0, uses_anonymous_args = 0
 3806 0000 00B5     		push	{lr}
 3807              		.cfi_def_cfa_offset 4
 3808              		.cfi_offset 14, -4
 3809 0002 85B0     		sub	sp, sp, #20
 3810              		.cfi_def_cfa_offset 24
 3811 0004 0190     		str	r0, [sp, #4]
 3812 0006 0B46     		mov	r3, r1
 3813 0008 8DF80330 		strb	r3, [sp, #3]
 3814              		.loc 1 974 0
 3815 000c 094B     		ldr	r3, .L260
 3816 000e 1B68     		ldr	r3, [r3]
 3817 0010 0393     		str	r3, [sp, #12]
 3818              		.loc 1 975 0
 3819 0012 9D23     		movs	r3, #157
ARM GAS  C:\Users\PCHAUT~1\AppData\Local\Temp\ccZvjaUR.s 			page 68


 3820 0014 8DF80B30 		strb	r3, [sp, #11]
 3821              		.loc 1 983 0
 3822 0018 9DF90B30 		ldrsb	r3, [sp, #11]
 3823              		.loc 1 984 0
 3824 001c 1846     		mov	r0, r3
 3825 001e 054B     		ldr	r3, .L260
 3826 0020 039A     		ldr	r2, [sp, #12]
 3827 0022 1B68     		ldr	r3, [r3]
 3828 0024 9A42     		cmp	r2, r3
 3829 0026 01D0     		beq	.L259
 3830 0028 FFF7FEFF 		bl	__stack_chk_fail
 3831              	.L259:
 3832 002c 05B0     		add	sp, sp, #20
 3833              		.cfi_def_cfa_offset 4
 3834              		@ sp needed
 3835 002e 5DF804FB 		ldr	pc, [sp], #4
 3836              	.L261:
 3837 0032 00BF     		.align	2
 3838              	.L260:
 3839 0034 00000000 		.word	__stack_chk_guard
 3840              		.cfi_endproc
 3841              	.LFE35:
 3842              		.size	VL53L0X_SetHistogramMode, .-VL53L0X_SetHistogramMode
 3843              		.section	.text.VL53L0X_GetHistogramMode,"ax",%progbits
 3844              		.align	1
 3845              		.p2align 4,,15
 3846              		.global	VL53L0X_GetHistogramMode
 3847              		.syntax unified
 3848              		.thumb
 3849              		.thumb_func
 3850              		.fpu fpv4-sp-d16
 3851              		.type	VL53L0X_GetHistogramMode, %function
 3852              	VL53L0X_GetHistogramMode:
 3853              	.LFB36:
 3854              		.loc 1 988 0
 3855              		.cfi_startproc
 3856              		@ args = 0, pretend = 0, frame = 16
 3857              		@ frame_needed = 0, uses_anonymous_args = 0
 3858 0000 00B5     		push	{lr}
 3859              		.cfi_def_cfa_offset 4
 3860              		.cfi_offset 14, -4
 3861 0002 85B0     		sub	sp, sp, #20
 3862              		.cfi_def_cfa_offset 24
 3863 0004 0190     		str	r0, [sp, #4]
 3864 0006 0091     		str	r1, [sp]
 3865              		.loc 1 988 0
 3866 0008 094B     		ldr	r3, .L265
 3867 000a 1B68     		ldr	r3, [r3]
 3868 000c 0393     		str	r3, [sp, #12]
 3869              		.loc 1 989 0
 3870 000e 9D23     		movs	r3, #157
 3871 0010 8DF80B30 		strb	r3, [sp, #11]
 3872              		.loc 1 997 0
 3873 0014 9DF90B30 		ldrsb	r3, [sp, #11]
 3874              		.loc 1 998 0
 3875 0018 1846     		mov	r0, r3
 3876 001a 054B     		ldr	r3, .L265
ARM GAS  C:\Users\PCHAUT~1\AppData\Local\Temp\ccZvjaUR.s 			page 69


 3877 001c 039A     		ldr	r2, [sp, #12]
 3878 001e 1B68     		ldr	r3, [r3]
 3879 0020 9A42     		cmp	r2, r3
 3880 0022 01D0     		beq	.L264
 3881 0024 FFF7FEFF 		bl	__stack_chk_fail
 3882              	.L264:
 3883 0028 05B0     		add	sp, sp, #20
 3884              		.cfi_def_cfa_offset 4
 3885              		@ sp needed
 3886 002a 5DF804FB 		ldr	pc, [sp], #4
 3887              	.L266:
 3888 002e 00BF     		.align	2
 3889              	.L265:
 3890 0030 00000000 		.word	__stack_chk_guard
 3891              		.cfi_endproc
 3892              	.LFE36:
 3893              		.size	VL53L0X_GetHistogramMode, .-VL53L0X_GetHistogramMode
 3894              		.section	.text.VL53L0X_SetMeasurementTimingBudgetMicroSeconds,"ax",%progbits
 3895              		.align	1
 3896              		.p2align 4,,15
 3897              		.global	VL53L0X_SetMeasurementTimingBudgetMicroSeconds
 3898              		.syntax unified
 3899              		.thumb
 3900              		.thumb_func
 3901              		.fpu fpv4-sp-d16
 3902              		.type	VL53L0X_SetMeasurementTimingBudgetMicroSeconds, %function
 3903              	VL53L0X_SetMeasurementTimingBudgetMicroSeconds:
 3904              	.LFB37:
 3905              		.loc 1 1002 0
 3906              		.cfi_startproc
 3907              		@ args = 0, pretend = 0, frame = 16
 3908              		@ frame_needed = 0, uses_anonymous_args = 0
 3909 0000 00B5     		push	{lr}
 3910              		.cfi_def_cfa_offset 4
 3911              		.cfi_offset 14, -4
 3912 0002 85B0     		sub	sp, sp, #20
 3913              		.cfi_def_cfa_offset 24
 3914 0004 0190     		str	r0, [sp, #4]
 3915 0006 0091     		str	r1, [sp]
 3916              		.loc 1 1002 0
 3917 0008 0C4B     		ldr	r3, .L270
 3918 000a 1B68     		ldr	r3, [r3]
 3919 000c 0393     		str	r3, [sp, #12]
 3920              		.loc 1 1003 0
 3921 000e 0023     		movs	r3, #0
 3922 0010 8DF80B30 		strb	r3, [sp, #11]
 3923              		.loc 1 1006 0
 3924 0014 0099     		ldr	r1, [sp]
 3925 0016 0198     		ldr	r0, [sp, #4]
 3926 0018 FFF7FEFF 		bl	VL53L0X_set_measurement_timing_budget_micro_seconds
 3927 001c 0346     		mov	r3, r0
 3928 001e 8DF80B30 		strb	r3, [sp, #11]
 3929              		.loc 1 1011 0
 3930 0022 9DF90B30 		ldrsb	r3, [sp, #11]
 3931              		.loc 1 1012 0
 3932 0026 1846     		mov	r0, r3
 3933 0028 044B     		ldr	r3, .L270
ARM GAS  C:\Users\PCHAUT~1\AppData\Local\Temp\ccZvjaUR.s 			page 70


 3934 002a 039A     		ldr	r2, [sp, #12]
 3935 002c 1B68     		ldr	r3, [r3]
 3936 002e 9A42     		cmp	r2, r3
 3937 0030 01D0     		beq	.L269
 3938 0032 FFF7FEFF 		bl	__stack_chk_fail
 3939              	.L269:
 3940 0036 05B0     		add	sp, sp, #20
 3941              		.cfi_def_cfa_offset 4
 3942              		@ sp needed
 3943 0038 5DF804FB 		ldr	pc, [sp], #4
 3944              	.L271:
 3945              		.align	2
 3946              	.L270:
 3947 003c 00000000 		.word	__stack_chk_guard
 3948              		.cfi_endproc
 3949              	.LFE37:
 3950              		.size	VL53L0X_SetMeasurementTimingBudgetMicroSeconds, .-VL53L0X_SetMeasurementTimingBudgetMicroSec
 3951              		.section	.text.VL53L0X_GetMeasurementTimingBudgetMicroSeconds,"ax",%progbits
 3952              		.align	1
 3953              		.p2align 4,,15
 3954              		.global	VL53L0X_GetMeasurementTimingBudgetMicroSeconds
 3955              		.syntax unified
 3956              		.thumb
 3957              		.thumb_func
 3958              		.fpu fpv4-sp-d16
 3959              		.type	VL53L0X_GetMeasurementTimingBudgetMicroSeconds, %function
 3960              	VL53L0X_GetMeasurementTimingBudgetMicroSeconds:
 3961              	.LFB38:
 3962              		.loc 1 1016 0
 3963              		.cfi_startproc
 3964              		@ args = 0, pretend = 0, frame = 16
 3965              		@ frame_needed = 0, uses_anonymous_args = 0
 3966 0000 00B5     		push	{lr}
 3967              		.cfi_def_cfa_offset 4
 3968              		.cfi_offset 14, -4
 3969 0002 85B0     		sub	sp, sp, #20
 3970              		.cfi_def_cfa_offset 24
 3971 0004 0190     		str	r0, [sp, #4]
 3972 0006 0091     		str	r1, [sp]
 3973              		.loc 1 1016 0
 3974 0008 0C4B     		ldr	r3, .L275
 3975 000a 1B68     		ldr	r3, [r3]
 3976 000c 0393     		str	r3, [sp, #12]
 3977              		.loc 1 1017 0
 3978 000e 0023     		movs	r3, #0
 3979 0010 8DF80B30 		strb	r3, [sp, #11]
 3980              		.loc 1 1020 0
 3981 0014 0099     		ldr	r1, [sp]
 3982 0016 0198     		ldr	r0, [sp, #4]
 3983 0018 FFF7FEFF 		bl	VL53L0X_get_measurement_timing_budget_micro_seconds
 3984 001c 0346     		mov	r3, r0
 3985 001e 8DF80B30 		strb	r3, [sp, #11]
 3986              		.loc 1 1024 0
 3987 0022 9DF90B30 		ldrsb	r3, [sp, #11]
 3988              		.loc 1 1025 0
 3989 0026 1846     		mov	r0, r3
 3990 0028 044B     		ldr	r3, .L275
ARM GAS  C:\Users\PCHAUT~1\AppData\Local\Temp\ccZvjaUR.s 			page 71


 3991 002a 039A     		ldr	r2, [sp, #12]
 3992 002c 1B68     		ldr	r3, [r3]
 3993 002e 9A42     		cmp	r2, r3
 3994 0030 01D0     		beq	.L274
 3995 0032 FFF7FEFF 		bl	__stack_chk_fail
 3996              	.L274:
 3997 0036 05B0     		add	sp, sp, #20
 3998              		.cfi_def_cfa_offset 4
 3999              		@ sp needed
 4000 0038 5DF804FB 		ldr	pc, [sp], #4
 4001              	.L276:
 4002              		.align	2
 4003              	.L275:
 4004 003c 00000000 		.word	__stack_chk_guard
 4005              		.cfi_endproc
 4006              	.LFE38:
 4007              		.size	VL53L0X_GetMeasurementTimingBudgetMicroSeconds, .-VL53L0X_GetMeasurementTimingBudgetMicroSec
 4008              		.section	.text.VL53L0X_SetVcselPulsePeriod,"ax",%progbits
 4009              		.align	1
 4010              		.p2align 4,,15
 4011              		.global	VL53L0X_SetVcselPulsePeriod
 4012              		.syntax unified
 4013              		.thumb
 4014              		.thumb_func
 4015              		.fpu fpv4-sp-d16
 4016              		.type	VL53L0X_SetVcselPulsePeriod, %function
 4017              	VL53L0X_SetVcselPulsePeriod:
 4018              	.LFB39:
 4019              		.loc 1 1029 0
 4020              		.cfi_startproc
 4021              		@ args = 0, pretend = 0, frame = 16
 4022              		@ frame_needed = 0, uses_anonymous_args = 0
 4023 0000 00B5     		push	{lr}
 4024              		.cfi_def_cfa_offset 4
 4025              		.cfi_offset 14, -4
 4026 0002 85B0     		sub	sp, sp, #20
 4027              		.cfi_def_cfa_offset 24
 4028 0004 0190     		str	r0, [sp, #4]
 4029 0006 0B46     		mov	r3, r1
 4030 0008 8DF80330 		strb	r3, [sp, #3]
 4031 000c 1346     		mov	r3, r2
 4032 000e 8DF80230 		strb	r3, [sp, #2]
 4033              		.loc 1 1029 0
 4034 0012 0F4B     		ldr	r3, .L280
 4035 0014 1B68     		ldr	r3, [r3]
 4036 0016 0393     		str	r3, [sp, #12]
 4037              		.loc 1 1030 0
 4038 0018 0023     		movs	r3, #0
 4039 001a 8DF80B30 		strb	r3, [sp, #11]
 4040              		.loc 1 1033 0
 4041 001e 9DF80220 		ldrb	r2, [sp, #2]	@ zero_extendqisi2
 4042 0022 9DF80330 		ldrb	r3, [sp, #3]	@ zero_extendqisi2
 4043 0026 1946     		mov	r1, r3
 4044 0028 0198     		ldr	r0, [sp, #4]
 4045 002a FFF7FEFF 		bl	VL53L0X_set_vcsel_pulse_period
 4046 002e 0346     		mov	r3, r0
 4047 0030 8DF80B30 		strb	r3, [sp, #11]
ARM GAS  C:\Users\PCHAUT~1\AppData\Local\Temp\ccZvjaUR.s 			page 72


 4048              		.loc 1 1037 0
 4049 0034 9DF90B30 		ldrsb	r3, [sp, #11]
 4050              		.loc 1 1038 0
 4051 0038 1846     		mov	r0, r3
 4052 003a 054B     		ldr	r3, .L280
 4053 003c 039A     		ldr	r2, [sp, #12]
 4054 003e 1B68     		ldr	r3, [r3]
 4055 0040 9A42     		cmp	r2, r3
 4056 0042 01D0     		beq	.L279
 4057 0044 FFF7FEFF 		bl	__stack_chk_fail
 4058              	.L279:
 4059 0048 05B0     		add	sp, sp, #20
 4060              		.cfi_def_cfa_offset 4
 4061              		@ sp needed
 4062 004a 5DF804FB 		ldr	pc, [sp], #4
 4063              	.L281:
 4064 004e 00BF     		.align	2
 4065              	.L280:
 4066 0050 00000000 		.word	__stack_chk_guard
 4067              		.cfi_endproc
 4068              	.LFE39:
 4069              		.size	VL53L0X_SetVcselPulsePeriod, .-VL53L0X_SetVcselPulsePeriod
 4070              		.section	.text.VL53L0X_GetVcselPulsePeriod,"ax",%progbits
 4071              		.align	1
 4072              		.p2align 4,,15
 4073              		.global	VL53L0X_GetVcselPulsePeriod
 4074              		.syntax unified
 4075              		.thumb
 4076              		.thumb_func
 4077              		.fpu fpv4-sp-d16
 4078              		.type	VL53L0X_GetVcselPulsePeriod, %function
 4079              	VL53L0X_GetVcselPulsePeriod:
 4080              	.LFB40:
 4081              		.loc 1 1042 0
 4082              		.cfi_startproc
 4083              		@ args = 0, pretend = 0, frame = 24
 4084              		@ frame_needed = 0, uses_anonymous_args = 0
 4085 0000 00B5     		push	{lr}
 4086              		.cfi_def_cfa_offset 4
 4087              		.cfi_offset 14, -4
 4088 0002 87B0     		sub	sp, sp, #28
 4089              		.cfi_def_cfa_offset 32
 4090 0004 0390     		str	r0, [sp, #12]
 4091 0006 0B46     		mov	r3, r1
 4092 0008 0192     		str	r2, [sp, #4]
 4093 000a 8DF80B30 		strb	r3, [sp, #11]
 4094              		.loc 1 1042 0
 4095 000e 0E4B     		ldr	r3, .L285
 4096 0010 1B68     		ldr	r3, [r3]
 4097 0012 0593     		str	r3, [sp, #20]
 4098              		.loc 1 1043 0
 4099 0014 0023     		movs	r3, #0
 4100 0016 8DF81330 		strb	r3, [sp, #19]
 4101              		.loc 1 1046 0
 4102 001a 9DF80B30 		ldrb	r3, [sp, #11]	@ zero_extendqisi2
 4103 001e 019A     		ldr	r2, [sp, #4]
 4104 0020 1946     		mov	r1, r3
ARM GAS  C:\Users\PCHAUT~1\AppData\Local\Temp\ccZvjaUR.s 			page 73


 4105 0022 0398     		ldr	r0, [sp, #12]
 4106 0024 FFF7FEFF 		bl	VL53L0X_get_vcsel_pulse_period
 4107 0028 0346     		mov	r3, r0
 4108 002a 8DF81330 		strb	r3, [sp, #19]
 4109              		.loc 1 1050 0
 4110 002e 9DF91330 		ldrsb	r3, [sp, #19]
 4111              		.loc 1 1051 0
 4112 0032 1846     		mov	r0, r3
 4113 0034 044B     		ldr	r3, .L285
 4114 0036 059A     		ldr	r2, [sp, #20]
 4115 0038 1B68     		ldr	r3, [r3]
 4116 003a 9A42     		cmp	r2, r3
 4117 003c 01D0     		beq	.L284
 4118 003e FFF7FEFF 		bl	__stack_chk_fail
 4119              	.L284:
 4120 0042 07B0     		add	sp, sp, #28
 4121              		.cfi_def_cfa_offset 4
 4122              		@ sp needed
 4123 0044 5DF804FB 		ldr	pc, [sp], #4
 4124              	.L286:
 4125              		.align	2
 4126              	.L285:
 4127 0048 00000000 		.word	__stack_chk_guard
 4128              		.cfi_endproc
 4129              	.LFE40:
 4130              		.size	VL53L0X_GetVcselPulsePeriod, .-VL53L0X_GetVcselPulsePeriod
 4131              		.section	.text.VL53L0X_SetSequenceStepEnable,"ax",%progbits
 4132              		.align	1
 4133              		.p2align 4,,15
 4134              		.global	VL53L0X_SetSequenceStepEnable
 4135              		.syntax unified
 4136              		.thumb
 4137              		.thumb_func
 4138              		.fpu fpv4-sp-d16
 4139              		.type	VL53L0X_SetSequenceStepEnable, %function
 4140              	VL53L0X_SetSequenceStepEnable:
 4141              	.LFB41:
 4142              		.loc 1 1055 0
 4143              		.cfi_startproc
 4144              		@ args = 0, pretend = 0, frame = 24
 4145              		@ frame_needed = 0, uses_anonymous_args = 0
 4146 0000 00B5     		push	{lr}
 4147              		.cfi_def_cfa_offset 4
 4148              		.cfi_offset 14, -4
 4149 0002 87B0     		sub	sp, sp, #28
 4150              		.cfi_def_cfa_offset 32
 4151 0004 0190     		str	r0, [sp, #4]
 4152 0006 0B46     		mov	r3, r1
 4153 0008 8DF80330 		strb	r3, [sp, #3]
 4154 000c 1346     		mov	r3, r2
 4155 000e 8DF80230 		strb	r3, [sp, #2]
 4156              		.loc 1 1055 0
 4157 0012 644B     		ldr	r3, .L311
 4158 0014 1B68     		ldr	r3, [r3]
 4159 0016 0593     		str	r3, [sp, #20]
 4160              		.loc 1 1056 0
 4161 0018 0023     		movs	r3, #0
ARM GAS  C:\Users\PCHAUT~1\AppData\Local\Temp\ccZvjaUR.s 			page 74


 4162 001a 8DF80E30 		strb	r3, [sp, #14]
 4163              		.loc 1 1057 0
 4164 001e 0023     		movs	r3, #0
 4165 0020 8DF80D30 		strb	r3, [sp, #13]
 4166              		.loc 1 1058 0
 4167 0024 0023     		movs	r3, #0
 4168 0026 8DF80F30 		strb	r3, [sp, #15]
 4169              		.loc 1 1062 0
 4170 002a 0DF10D03 		add	r3, sp, #13
 4171 002e 1A46     		mov	r2, r3
 4172 0030 0121     		movs	r1, #1
 4173 0032 0198     		ldr	r0, [sp, #4]
 4174 0034 FFF7FEFF 		bl	VL53L0X_RdByte
 4175 0038 0346     		mov	r3, r0
 4176 003a 8DF80E30 		strb	r3, [sp, #14]
 4177              		.loc 1 1065 0
 4178 003e 9DF80D30 		ldrb	r3, [sp, #13]
 4179 0042 8DF80F30 		strb	r3, [sp, #15]
 4180              		.loc 1 1067 0
 4181 0046 9DF90E30 		ldrsb	r3, [sp, #14]
 4182 004a 002B     		cmp	r3, #0
 4183 004c 73D1     		bne	.L310
 4184              		.loc 1 1068 0
 4185 004e 9DF80230 		ldrb	r3, [sp, #2]	@ zero_extendqisi2
 4186 0052 012B     		cmp	r3, #1
 4187 0054 37D1     		bne	.L289
 4188              		.loc 1 1072 0
 4189 0056 9DF80330 		ldrb	r3, [sp, #3]	@ zero_extendqisi2
 4190 005a 042B     		cmp	r3, #4
 4191 005c 2FD8     		bhi	.L290
 4192 005e 01A2     		adr	r2, .L292
 4193 0060 52F823F0 		ldr	pc, [r2, r3, lsl #2]
 4194              		.p2align 2
 4195              	.L292:
 4196 0064 79000000 		.word	.L291+1
 4197 0068 87000000 		.word	.L293+1
 4198 006c 95000000 		.word	.L294+1
 4199 0070 A3000000 		.word	.L295+1
 4200 0074 B1000000 		.word	.L296+1
 4201              		.p2align 1
 4202              	.L291:
 4203              		.loc 1 1074 0
 4204 0078 9DF80F30 		ldrb	r3, [sp, #15]
 4205 007c 43F01003 		orr	r3, r3, #16
 4206 0080 8DF80F30 		strb	r3, [sp, #15]
 4207              		.loc 1 1075 0
 4208 0084 58E0     		b	.L288
 4209              	.L293:
 4210              		.loc 1 1077 0
 4211 0086 9DF80F30 		ldrb	r3, [sp, #15]
 4212 008a 43F02803 		orr	r3, r3, #40
 4213 008e 8DF80F30 		strb	r3, [sp, #15]
 4214              		.loc 1 1078 0
 4215 0092 51E0     		b	.L288
 4216              	.L294:
 4217              		.loc 1 1080 0
 4218 0094 9DF80F30 		ldrb	r3, [sp, #15]
ARM GAS  C:\Users\PCHAUT~1\AppData\Local\Temp\ccZvjaUR.s 			page 75


 4219 0098 43F00403 		orr	r3, r3, #4
 4220 009c 8DF80F30 		strb	r3, [sp, #15]
 4221              		.loc 1 1081 0
 4222 00a0 4AE0     		b	.L288
 4223              	.L295:
 4224              		.loc 1 1083 0
 4225 00a2 9DF80F30 		ldrb	r3, [sp, #15]
 4226 00a6 43F04003 		orr	r3, r3, #64
 4227 00aa 8DF80F30 		strb	r3, [sp, #15]
 4228              		.loc 1 1084 0
 4229 00ae 43E0     		b	.L288
 4230              	.L296:
 4231              		.loc 1 1086 0
 4232 00b0 9DF80F30 		ldrb	r3, [sp, #15]
 4233 00b4 63F07F03 		orn	r3, r3, #127
 4234 00b8 8DF80F30 		strb	r3, [sp, #15]
 4235              		.loc 1 1087 0
 4236 00bc 3CE0     		b	.L288
 4237              	.L290:
 4238              		.loc 1 1089 0
 4239 00be FC23     		movs	r3, #252
 4240 00c0 8DF80E30 		strb	r3, [sp, #14]
 4241 00c4 38E0     		b	.L288
 4242              	.L289:
 4243              		.loc 1 1094 0
 4244 00c6 9DF80330 		ldrb	r3, [sp, #3]	@ zero_extendqisi2
 4245 00ca 042B     		cmp	r3, #4
 4246 00cc 2FD8     		bhi	.L298
 4247 00ce 01A2     		adr	r2, .L300
 4248 00d0 52F823F0 		ldr	pc, [r2, r3, lsl #2]
 4249              		.p2align 2
 4250              	.L300:
 4251 00d4 E9000000 		.word	.L299+1
 4252 00d8 F7000000 		.word	.L301+1
 4253 00dc 05010000 		.word	.L302+1
 4254 00e0 13010000 		.word	.L303+1
 4255 00e4 21010000 		.word	.L304+1
 4256              		.p2align 1
 4257              	.L299:
 4258              		.loc 1 1096 0
 4259 00e8 9DF80F30 		ldrb	r3, [sp, #15]
 4260 00ec 23F01003 		bic	r3, r3, #16
 4261 00f0 8DF80F30 		strb	r3, [sp, #15]
 4262              		.loc 1 1097 0
 4263 00f4 20E0     		b	.L288
 4264              	.L301:
 4265              		.loc 1 1099 0
 4266 00f6 9DF80F30 		ldrb	r3, [sp, #15]
 4267 00fa 23F02803 		bic	r3, r3, #40
 4268 00fe 8DF80F30 		strb	r3, [sp, #15]
 4269              		.loc 1 1100 0
 4270 0102 19E0     		b	.L288
 4271              	.L302:
 4272              		.loc 1 1102 0
 4273 0104 9DF80F30 		ldrb	r3, [sp, #15]
 4274 0108 23F00403 		bic	r3, r3, #4
 4275 010c 8DF80F30 		strb	r3, [sp, #15]
ARM GAS  C:\Users\PCHAUT~1\AppData\Local\Temp\ccZvjaUR.s 			page 76


 4276              		.loc 1 1103 0
 4277 0110 12E0     		b	.L288
 4278              	.L303:
 4279              		.loc 1 1105 0
 4280 0112 9DF80F30 		ldrb	r3, [sp, #15]
 4281 0116 23F04003 		bic	r3, r3, #64
 4282 011a 8DF80F30 		strb	r3, [sp, #15]
 4283              		.loc 1 1106 0
 4284 011e 0BE0     		b	.L288
 4285              	.L304:
 4286              		.loc 1 1108 0
 4287 0120 9DF80F30 		ldrb	r3, [sp, #15]
 4288 0124 03F07F03 		and	r3, r3, #127
 4289 0128 8DF80F30 		strb	r3, [sp, #15]
 4290              		.loc 1 1109 0
 4291 012c 04E0     		b	.L288
 4292              	.L298:
 4293              		.loc 1 1111 0
 4294 012e FC23     		movs	r3, #252
 4295 0130 8DF80E30 		strb	r3, [sp, #14]
 4296 0134 00E0     		b	.L288
 4297              	.L310:
 4298              		.loc 1 1113 0
 4299 0136 00BF     		nop
 4300              	.L288:
 4301              		.loc 1 1116 0
 4302 0138 9DF80D30 		ldrb	r3, [sp, #13]	@ zero_extendqisi2
 4303 013c 9DF80F20 		ldrb	r2, [sp, #15]	@ zero_extendqisi2
 4304 0140 9A42     		cmp	r2, r3
 4305 0142 21D0     		beq	.L305
 4306              		.loc 1 1118 0
 4307 0144 9DF90E30 		ldrsb	r3, [sp, #14]
 4308 0148 002B     		cmp	r3, #0
 4309 014a 09D1     		bne	.L306
 4310              		.loc 1 1119 0
 4311 014c 9DF80F30 		ldrb	r3, [sp, #15]	@ zero_extendqisi2
 4312 0150 1A46     		mov	r2, r3
 4313 0152 0121     		movs	r1, #1
 4314 0154 0198     		ldr	r0, [sp, #4]
 4315 0156 FFF7FEFF 		bl	VL53L0X_WrByte
 4316 015a 0346     		mov	r3, r0
 4317 015c 8DF80E30 		strb	r3, [sp, #14]
 4318              	.L306:
 4319              		.loc 1 1122 0
 4320 0160 9DF90E30 		ldrsb	r3, [sp, #14]
 4321 0164 002B     		cmp	r3, #0
 4322 0166 04D1     		bne	.L307
 4323              		.loc 1 1123 0
 4324 0168 019B     		ldr	r3, [sp, #4]
 4325 016a 9DF80F20 		ldrb	r2, [sp, #15]
 4326 016e 83F83021 		strb	r2, [r3, #304]
 4327              	.L307:
 4328              		.loc 1 1127 0
 4329 0172 9DF90E30 		ldrsb	r3, [sp, #14]
 4330 0176 002B     		cmp	r3, #0
 4331 0178 06D1     		bne	.L305
 4332              		.loc 1 1128 0
ARM GAS  C:\Users\PCHAUT~1\AppData\Local\Temp\ccZvjaUR.s 			page 77


 4333 017a 019B     		ldr	r3, [sp, #4]
 4334 017c 5B69     		ldr	r3, [r3, #20]
 4335 017e 0493     		str	r3, [sp, #16]
 4336              		.loc 1 1132 0
 4337 0180 0499     		ldr	r1, [sp, #16]
 4338 0182 0198     		ldr	r0, [sp, #4]
 4339 0184 FFF7FEFF 		bl	VL53L0X_SetMeasurementTimingBudgetMicroSeconds
 4340              	.L305:
 4341              		.loc 1 1139 0
 4342 0188 9DF90E30 		ldrsb	r3, [sp, #14]
 4343              		.loc 1 1140 0
 4344 018c 1846     		mov	r0, r3
 4345 018e 054B     		ldr	r3, .L311
 4346 0190 059A     		ldr	r2, [sp, #20]
 4347 0192 1B68     		ldr	r3, [r3]
 4348 0194 9A42     		cmp	r2, r3
 4349 0196 01D0     		beq	.L309
 4350 0198 FFF7FEFF 		bl	__stack_chk_fail
 4351              	.L309:
 4352 019c 07B0     		add	sp, sp, #28
 4353              		.cfi_def_cfa_offset 4
 4354              		@ sp needed
 4355 019e 5DF804FB 		ldr	pc, [sp], #4
 4356              	.L312:
 4357 01a2 00BF     		.align	2
 4358              	.L311:
 4359 01a4 00000000 		.word	__stack_chk_guard
 4360              		.cfi_endproc
 4361              	.LFE41:
 4362              		.size	VL53L0X_SetSequenceStepEnable, .-VL53L0X_SetSequenceStepEnable
 4363              		.section	.text.sequence_step_enabled,"ax",%progbits
 4364              		.align	1
 4365              		.p2align 4,,15
 4366              		.global	sequence_step_enabled
 4367              		.syntax unified
 4368              		.thumb
 4369              		.thumb_func
 4370              		.fpu fpv4-sp-d16
 4371              		.type	sequence_step_enabled, %function
 4372              	sequence_step_enabled:
 4373              	.LFB42:
 4374              		.loc 1 1145 0
 4375              		.cfi_startproc
 4376              		@ args = 0, pretend = 0, frame = 24
 4377              		@ frame_needed = 0, uses_anonymous_args = 0
 4378 0000 00B5     		push	{lr}
 4379              		.cfi_def_cfa_offset 4
 4380              		.cfi_offset 14, -4
 4381 0002 87B0     		sub	sp, sp, #28
 4382              		.cfi_def_cfa_offset 32
 4383 0004 0390     		str	r0, [sp, #12]
 4384 0006 0193     		str	r3, [sp, #4]
 4385 0008 0B46     		mov	r3, r1
 4386 000a 8DF80B30 		strb	r3, [sp, #11]
 4387 000e 1346     		mov	r3, r2
 4388 0010 8DF80A30 		strb	r3, [sp, #10]
 4389              		.loc 1 1145 0
ARM GAS  C:\Users\PCHAUT~1\AppData\Local\Temp\ccZvjaUR.s 			page 78


 4390 0014 2C4B     		ldr	r3, .L324
 4391 0016 1B68     		ldr	r3, [r3]
 4392 0018 0593     		str	r3, [sp, #20]
 4393              		.loc 1 1147 0
 4394 001a 0023     		movs	r3, #0
 4395 001c 8DF81330 		strb	r3, [sp, #19]
 4396              		.loc 1 1148 0
 4397 0020 019B     		ldr	r3, [sp, #4]
 4398 0022 0022     		movs	r2, #0
 4399 0024 1A70     		strb	r2, [r3]
 4400              		.loc 1 1151 0
 4401 0026 9DF80B30 		ldrb	r3, [sp, #11]	@ zero_extendqisi2
 4402 002a 042B     		cmp	r3, #4
 4403 002c 3BD8     		bhi	.L314
 4404 002e 01A2     		adr	r2, .L316
 4405 0030 52F823F0 		ldr	pc, [r2, r3, lsl #2]
 4406              		.p2align 2
 4407              	.L316:
 4408 0034 49000000 		.word	.L315+1
 4409 0038 5D000000 		.word	.L317+1
 4410 003c 71000000 		.word	.L318+1
 4411 0040 85000000 		.word	.L319+1
 4412 0044 99000000 		.word	.L320+1
 4413              		.p2align 1
 4414              	.L315:
 4415              		.loc 1 1153 0
 4416 0048 9DF80A30 		ldrb	r3, [sp, #10]	@ zero_extendqisi2
 4417 004c 1B11     		asrs	r3, r3, #4
 4418 004e DBB2     		uxtb	r3, r3
 4419 0050 03F00103 		and	r3, r3, #1
 4420 0054 DAB2     		uxtb	r2, r3
 4421 0056 019B     		ldr	r3, [sp, #4]
 4422 0058 1A70     		strb	r2, [r3]
 4423              		.loc 1 1154 0
 4424 005a 27E0     		b	.L321
 4425              	.L317:
 4426              		.loc 1 1156 0
 4427 005c 9DF80A30 		ldrb	r3, [sp, #10]	@ zero_extendqisi2
 4428 0060 DB10     		asrs	r3, r3, #3
 4429 0062 DBB2     		uxtb	r3, r3
 4430 0064 03F00103 		and	r3, r3, #1
 4431 0068 DAB2     		uxtb	r2, r3
 4432 006a 019B     		ldr	r3, [sp, #4]
 4433 006c 1A70     		strb	r2, [r3]
 4434              		.loc 1 1157 0
 4435 006e 1DE0     		b	.L321
 4436              	.L318:
 4437              		.loc 1 1159 0
 4438 0070 9DF80A30 		ldrb	r3, [sp, #10]	@ zero_extendqisi2
 4439 0074 9B10     		asrs	r3, r3, #2
 4440 0076 DBB2     		uxtb	r3, r3
 4441 0078 03F00103 		and	r3, r3, #1
 4442 007c DAB2     		uxtb	r2, r3
 4443 007e 019B     		ldr	r3, [sp, #4]
 4444 0080 1A70     		strb	r2, [r3]
 4445              		.loc 1 1160 0
 4446 0082 13E0     		b	.L321
ARM GAS  C:\Users\PCHAUT~1\AppData\Local\Temp\ccZvjaUR.s 			page 79


 4447              	.L319:
 4448              		.loc 1 1162 0
 4449 0084 9DF80A30 		ldrb	r3, [sp, #10]	@ zero_extendqisi2
 4450 0088 9B11     		asrs	r3, r3, #6
 4451 008a DBB2     		uxtb	r3, r3
 4452 008c 03F00103 		and	r3, r3, #1
 4453 0090 DAB2     		uxtb	r2, r3
 4454 0092 019B     		ldr	r3, [sp, #4]
 4455 0094 1A70     		strb	r2, [r3]
 4456              		.loc 1 1163 0
 4457 0096 09E0     		b	.L321
 4458              	.L320:
 4459              		.loc 1 1165 0
 4460 0098 9DF80A30 		ldrb	r3, [sp, #10]	@ zero_extendqisi2
 4461 009c DB09     		lsrs	r3, r3, #7
 4462 009e DAB2     		uxtb	r2, r3
 4463 00a0 019B     		ldr	r3, [sp, #4]
 4464 00a2 1A70     		strb	r2, [r3]
 4465              		.loc 1 1166 0
 4466 00a4 02E0     		b	.L321
 4467              	.L314:
 4468              		.loc 1 1168 0
 4469 00a6 FC23     		movs	r3, #252
 4470 00a8 8DF81330 		strb	r3, [sp, #19]
 4471              	.L321:
 4472              		.loc 1 1172 0
 4473 00ac 9DF91330 		ldrsb	r3, [sp, #19]
 4474              		.loc 1 1173 0
 4475 00b0 1846     		mov	r0, r3
 4476 00b2 054B     		ldr	r3, .L324
 4477 00b4 059A     		ldr	r2, [sp, #20]
 4478 00b6 1B68     		ldr	r3, [r3]
 4479 00b8 9A42     		cmp	r2, r3
 4480 00ba 01D0     		beq	.L323
 4481 00bc FFF7FEFF 		bl	__stack_chk_fail
 4482              	.L323:
 4483 00c0 07B0     		add	sp, sp, #28
 4484              		.cfi_def_cfa_offset 4
 4485              		@ sp needed
 4486 00c2 5DF804FB 		ldr	pc, [sp], #4
 4487              	.L325:
 4488 00c6 00BF     		.align	2
 4489              	.L324:
 4490 00c8 00000000 		.word	__stack_chk_guard
 4491              		.cfi_endproc
 4492              	.LFE42:
 4493              		.size	sequence_step_enabled, .-sequence_step_enabled
 4494              		.section	.text.VL53L0X_GetSequenceStepEnable,"ax",%progbits
 4495              		.align	1
 4496              		.p2align 4,,15
 4497              		.global	VL53L0X_GetSequenceStepEnable
 4498              		.syntax unified
 4499              		.thumb
 4500              		.thumb_func
 4501              		.fpu fpv4-sp-d16
 4502              		.type	VL53L0X_GetSequenceStepEnable, %function
 4503              	VL53L0X_GetSequenceStepEnable:
ARM GAS  C:\Users\PCHAUT~1\AppData\Local\Temp\ccZvjaUR.s 			page 80


 4504              	.LFB43:
 4505              		.loc 1 1177 0
 4506              		.cfi_startproc
 4507              		@ args = 0, pretend = 0, frame = 24
 4508              		@ frame_needed = 0, uses_anonymous_args = 0
 4509 0000 00B5     		push	{lr}
 4510              		.cfi_def_cfa_offset 4
 4511              		.cfi_offset 14, -4
 4512 0002 87B0     		sub	sp, sp, #28
 4513              		.cfi_def_cfa_offset 32
 4514 0004 0390     		str	r0, [sp, #12]
 4515 0006 0B46     		mov	r3, r1
 4516 0008 0192     		str	r2, [sp, #4]
 4517 000a 8DF80B30 		strb	r3, [sp, #11]
 4518              		.loc 1 1177 0
 4519 000e 174B     		ldr	r3, .L330
 4520 0010 1B68     		ldr	r3, [r3]
 4521 0012 0593     		str	r3, [sp, #20]
 4522              		.loc 1 1178 0
 4523 0014 0023     		movs	r3, #0
 4524 0016 8DF81330 		strb	r3, [sp, #19]
 4525              		.loc 1 1179 0
 4526 001a 0023     		movs	r3, #0
 4527 001c 8DF81230 		strb	r3, [sp, #18]
 4528              		.loc 1 1182 0
 4529 0020 0DF11203 		add	r3, sp, #18
 4530 0024 1A46     		mov	r2, r3
 4531 0026 0121     		movs	r1, #1
 4532 0028 0398     		ldr	r0, [sp, #12]
 4533 002a FFF7FEFF 		bl	VL53L0X_RdByte
 4534 002e 0346     		mov	r3, r0
 4535 0030 8DF81330 		strb	r3, [sp, #19]
 4536              		.loc 1 1185 0
 4537 0034 9DF91330 		ldrsb	r3, [sp, #19]
 4538 0038 002B     		cmp	r3, #0
 4539 003a 0AD1     		bne	.L327
 4540              		.loc 1 1186 0
 4541 003c 9DF81220 		ldrb	r2, [sp, #18]	@ zero_extendqisi2
 4542 0040 9DF80B10 		ldrb	r1, [sp, #11]	@ zero_extendqisi2
 4543 0044 019B     		ldr	r3, [sp, #4]
 4544 0046 0398     		ldr	r0, [sp, #12]
 4545 0048 FFF7FEFF 		bl	sequence_step_enabled
 4546 004c 0346     		mov	r3, r0
 4547 004e 8DF81330 		strb	r3, [sp, #19]
 4548              	.L327:
 4549              		.loc 1 1191 0
 4550 0052 9DF91330 		ldrsb	r3, [sp, #19]
 4551              		.loc 1 1192 0
 4552 0056 1846     		mov	r0, r3
 4553 0058 044B     		ldr	r3, .L330
 4554 005a 059A     		ldr	r2, [sp, #20]
 4555 005c 1B68     		ldr	r3, [r3]
 4556 005e 9A42     		cmp	r2, r3
 4557 0060 01D0     		beq	.L329
 4558 0062 FFF7FEFF 		bl	__stack_chk_fail
 4559              	.L329:
 4560 0066 07B0     		add	sp, sp, #28
ARM GAS  C:\Users\PCHAUT~1\AppData\Local\Temp\ccZvjaUR.s 			page 81


 4561              		.cfi_def_cfa_offset 4
 4562              		@ sp needed
 4563 0068 5DF804FB 		ldr	pc, [sp], #4
 4564              	.L331:
 4565              		.align	2
 4566              	.L330:
 4567 006c 00000000 		.word	__stack_chk_guard
 4568              		.cfi_endproc
 4569              	.LFE43:
 4570              		.size	VL53L0X_GetSequenceStepEnable, .-VL53L0X_GetSequenceStepEnable
 4571              		.section	.text.VL53L0X_GetSequenceStepEnables,"ax",%progbits
 4572              		.align	1
 4573              		.p2align 4,,15
 4574              		.global	VL53L0X_GetSequenceStepEnables
 4575              		.syntax unified
 4576              		.thumb
 4577              		.thumb_func
 4578              		.fpu fpv4-sp-d16
 4579              		.type	VL53L0X_GetSequenceStepEnables, %function
 4580              	VL53L0X_GetSequenceStepEnables:
 4581              	.LFB44:
 4582              		.loc 1 1196 0
 4583              		.cfi_startproc
 4584              		@ args = 0, pretend = 0, frame = 16
 4585              		@ frame_needed = 0, uses_anonymous_args = 0
 4586 0000 00B5     		push	{lr}
 4587              		.cfi_def_cfa_offset 4
 4588              		.cfi_offset 14, -4
 4589 0002 85B0     		sub	sp, sp, #20
 4590              		.cfi_def_cfa_offset 24
 4591 0004 0190     		str	r0, [sp, #4]
 4592 0006 0091     		str	r1, [sp]
 4593              		.loc 1 1196 0
 4594 0008 344B     		ldr	r3, .L340
 4595 000a 1B68     		ldr	r3, [r3]
 4596 000c 0393     		str	r3, [sp, #12]
 4597              		.loc 1 1197 0
 4598 000e 0023     		movs	r3, #0
 4599 0010 8DF80B30 		strb	r3, [sp, #11]
 4600              		.loc 1 1198 0
 4601 0014 0023     		movs	r3, #0
 4602 0016 8DF80A30 		strb	r3, [sp, #10]
 4603              		.loc 1 1201 0
 4604 001a 0DF10A03 		add	r3, sp, #10
 4605 001e 1A46     		mov	r2, r3
 4606 0020 0121     		movs	r1, #1
 4607 0022 0198     		ldr	r0, [sp, #4]
 4608 0024 FFF7FEFF 		bl	VL53L0X_RdByte
 4609 0028 0346     		mov	r3, r0
 4610 002a 8DF80B30 		strb	r3, [sp, #11]
 4611              		.loc 1 1204 0
 4612 002e 9DF90B30 		ldrsb	r3, [sp, #11]
 4613 0032 002B     		cmp	r3, #0
 4614 0034 09D1     		bne	.L333
 4615              		.loc 1 1205 0
 4616 0036 9DF80A20 		ldrb	r2, [sp, #10]	@ zero_extendqisi2
 4617 003a 009B     		ldr	r3, [sp]
ARM GAS  C:\Users\PCHAUT~1\AppData\Local\Temp\ccZvjaUR.s 			page 82


 4618 003c 0021     		movs	r1, #0
 4619 003e 0198     		ldr	r0, [sp, #4]
 4620 0040 FFF7FEFF 		bl	sequence_step_enabled
 4621 0044 0346     		mov	r3, r0
 4622 0046 8DF80B30 		strb	r3, [sp, #11]
 4623              	.L333:
 4624              		.loc 1 1209 0
 4625 004a 9DF90B30 		ldrsb	r3, [sp, #11]
 4626 004e 002B     		cmp	r3, #0
 4627 0050 0AD1     		bne	.L334
 4628              		.loc 1 1210 0
 4629 0052 9DF80A20 		ldrb	r2, [sp, #10]	@ zero_extendqisi2
 4630 0056 009B     		ldr	r3, [sp]
 4631 0058 0233     		adds	r3, r3, #2
 4632 005a 0121     		movs	r1, #1
 4633 005c 0198     		ldr	r0, [sp, #4]
 4634 005e FFF7FEFF 		bl	sequence_step_enabled
 4635 0062 0346     		mov	r3, r0
 4636 0064 8DF80B30 		strb	r3, [sp, #11]
 4637              	.L334:
 4638              		.loc 1 1214 0
 4639 0068 9DF90B30 		ldrsb	r3, [sp, #11]
 4640 006c 002B     		cmp	r3, #0
 4641 006e 0AD1     		bne	.L335
 4642              		.loc 1 1215 0
 4643 0070 9DF80A20 		ldrb	r2, [sp, #10]	@ zero_extendqisi2
 4644 0074 009B     		ldr	r3, [sp]
 4645 0076 0133     		adds	r3, r3, #1
 4646 0078 0221     		movs	r1, #2
 4647 007a 0198     		ldr	r0, [sp, #4]
 4648 007c FFF7FEFF 		bl	sequence_step_enabled
 4649 0080 0346     		mov	r3, r0
 4650 0082 8DF80B30 		strb	r3, [sp, #11]
 4651              	.L335:
 4652              		.loc 1 1219 0
 4653 0086 9DF90B30 		ldrsb	r3, [sp, #11]
 4654 008a 002B     		cmp	r3, #0
 4655 008c 0AD1     		bne	.L336
 4656              		.loc 1 1220 0
 4657 008e 9DF80A20 		ldrb	r2, [sp, #10]	@ zero_extendqisi2
 4658 0092 009B     		ldr	r3, [sp]
 4659 0094 0333     		adds	r3, r3, #3
 4660 0096 0321     		movs	r1, #3
 4661 0098 0198     		ldr	r0, [sp, #4]
 4662 009a FFF7FEFF 		bl	sequence_step_enabled
 4663 009e 0346     		mov	r3, r0
 4664 00a0 8DF80B30 		strb	r3, [sp, #11]
 4665              	.L336:
 4666              		.loc 1 1224 0
 4667 00a4 9DF90B30 		ldrsb	r3, [sp, #11]
 4668 00a8 002B     		cmp	r3, #0
 4669 00aa 0AD1     		bne	.L337
 4670              		.loc 1 1225 0
 4671 00ac 9DF80A20 		ldrb	r2, [sp, #10]	@ zero_extendqisi2
 4672 00b0 009B     		ldr	r3, [sp]
 4673 00b2 0433     		adds	r3, r3, #4
 4674 00b4 0421     		movs	r1, #4
ARM GAS  C:\Users\PCHAUT~1\AppData\Local\Temp\ccZvjaUR.s 			page 83


 4675 00b6 0198     		ldr	r0, [sp, #4]
 4676 00b8 FFF7FEFF 		bl	sequence_step_enabled
 4677 00bc 0346     		mov	r3, r0
 4678 00be 8DF80B30 		strb	r3, [sp, #11]
 4679              	.L337:
 4680              		.loc 1 1231 0
 4681 00c2 9DF90B30 		ldrsb	r3, [sp, #11]
 4682              		.loc 1 1232 0
 4683 00c6 1846     		mov	r0, r3
 4684 00c8 044B     		ldr	r3, .L340
 4685 00ca 039A     		ldr	r2, [sp, #12]
 4686 00cc 1B68     		ldr	r3, [r3]
 4687 00ce 9A42     		cmp	r2, r3
 4688 00d0 01D0     		beq	.L339
 4689 00d2 FFF7FEFF 		bl	__stack_chk_fail
 4690              	.L339:
 4691 00d6 05B0     		add	sp, sp, #20
 4692              		.cfi_def_cfa_offset 4
 4693              		@ sp needed
 4694 00d8 5DF804FB 		ldr	pc, [sp], #4
 4695              	.L341:
 4696              		.align	2
 4697              	.L340:
 4698 00dc 00000000 		.word	__stack_chk_guard
 4699              		.cfi_endproc
 4700              	.LFE44:
 4701              		.size	VL53L0X_GetSequenceStepEnables, .-VL53L0X_GetSequenceStepEnables
 4702              		.section	.text.VL53L0X_GetNumberOfSequenceSteps,"ax",%progbits
 4703              		.align	1
 4704              		.p2align 4,,15
 4705              		.global	VL53L0X_GetNumberOfSequenceSteps
 4706              		.syntax unified
 4707              		.thumb
 4708              		.thumb_func
 4709              		.fpu fpv4-sp-d16
 4710              		.type	VL53L0X_GetNumberOfSequenceSteps, %function
 4711              	VL53L0X_GetNumberOfSequenceSteps:
 4712              	.LFB45:
 4713              		.loc 1 1236 0
 4714              		.cfi_startproc
 4715              		@ args = 0, pretend = 0, frame = 16
 4716              		@ frame_needed = 0, uses_anonymous_args = 0
 4717 0000 00B5     		push	{lr}
 4718              		.cfi_def_cfa_offset 4
 4719              		.cfi_offset 14, -4
 4720 0002 85B0     		sub	sp, sp, #20
 4721              		.cfi_def_cfa_offset 24
 4722 0004 0190     		str	r0, [sp, #4]
 4723 0006 0091     		str	r1, [sp]
 4724              		.loc 1 1236 0
 4725 0008 0A4B     		ldr	r3, .L345
 4726 000a 1B68     		ldr	r3, [r3]
 4727 000c 0393     		str	r3, [sp, #12]
 4728              		.loc 1 1238 0
 4729 000e 0023     		movs	r3, #0
 4730 0010 8DF80B30 		strb	r3, [sp, #11]
 4731              		.loc 1 1241 0
ARM GAS  C:\Users\PCHAUT~1\AppData\Local\Temp\ccZvjaUR.s 			page 84


 4732 0014 009B     		ldr	r3, [sp]
 4733 0016 0522     		movs	r2, #5
 4734 0018 1A70     		strb	r2, [r3]
 4735              		.loc 1 1244 0
 4736 001a 9DF90B30 		ldrsb	r3, [sp, #11]
 4737              		.loc 1 1245 0
 4738 001e 1846     		mov	r0, r3
 4739 0020 044B     		ldr	r3, .L345
 4740 0022 039A     		ldr	r2, [sp, #12]
 4741 0024 1B68     		ldr	r3, [r3]
 4742 0026 9A42     		cmp	r2, r3
 4743 0028 01D0     		beq	.L344
 4744 002a FFF7FEFF 		bl	__stack_chk_fail
 4745              	.L344:
 4746 002e 05B0     		add	sp, sp, #20
 4747              		.cfi_def_cfa_offset 4
 4748              		@ sp needed
 4749 0030 5DF804FB 		ldr	pc, [sp], #4
 4750              	.L346:
 4751              		.align	2
 4752              	.L345:
 4753 0034 00000000 		.word	__stack_chk_guard
 4754              		.cfi_endproc
 4755              	.LFE45:
 4756              		.size	VL53L0X_GetNumberOfSequenceSteps, .-VL53L0X_GetNumberOfSequenceSteps
 4757              		.section	.text.VL53L0X_GetSequenceStepsInfo,"ax",%progbits
 4758              		.align	1
 4759              		.p2align 4,,15
 4760              		.global	VL53L0X_GetSequenceStepsInfo
 4761              		.syntax unified
 4762              		.thumb
 4763              		.thumb_func
 4764              		.fpu fpv4-sp-d16
 4765              		.type	VL53L0X_GetSequenceStepsInfo, %function
 4766              	VL53L0X_GetSequenceStepsInfo:
 4767              	.LFB46:
 4768              		.loc 1 1249 0
 4769              		.cfi_startproc
 4770              		@ args = 0, pretend = 0, frame = 16
 4771              		@ frame_needed = 0, uses_anonymous_args = 0
 4772 0000 00B5     		push	{lr}
 4773              		.cfi_def_cfa_offset 4
 4774              		.cfi_offset 14, -4
 4775 0002 85B0     		sub	sp, sp, #20
 4776              		.cfi_def_cfa_offset 24
 4777 0004 0346     		mov	r3, r0
 4778 0006 0091     		str	r1, [sp]
 4779 0008 8DF80730 		strb	r3, [sp, #7]
 4780              		.loc 1 1249 0
 4781 000c 0D4B     		ldr	r3, .L350
 4782 000e 1B68     		ldr	r3, [r3]
 4783 0010 0393     		str	r3, [sp, #12]
 4784              		.loc 1 1250 0
 4785 0012 0023     		movs	r3, #0
 4786 0014 8DF80B30 		strb	r3, [sp, #11]
 4787              		.loc 1 1253 0
 4788 0018 9DF80730 		ldrb	r3, [sp, #7]	@ zero_extendqisi2
ARM GAS  C:\Users\PCHAUT~1\AppData\Local\Temp\ccZvjaUR.s 			page 85


 4789 001c 0099     		ldr	r1, [sp]
 4790 001e 1846     		mov	r0, r3
 4791 0020 FFF7FEFF 		bl	VL53L0X_get_sequence_steps_info
 4792 0024 0346     		mov	r3, r0
 4793 0026 8DF80B30 		strb	r3, [sp, #11]
 4794              		.loc 1 1259 0
 4795 002a 9DF90B30 		ldrsb	r3, [sp, #11]
 4796              		.loc 1 1260 0
 4797 002e 1846     		mov	r0, r3
 4798 0030 044B     		ldr	r3, .L350
 4799 0032 039A     		ldr	r2, [sp, #12]
 4800 0034 1B68     		ldr	r3, [r3]
 4801 0036 9A42     		cmp	r2, r3
 4802 0038 01D0     		beq	.L349
 4803 003a FFF7FEFF 		bl	__stack_chk_fail
 4804              	.L349:
 4805 003e 05B0     		add	sp, sp, #20
 4806              		.cfi_def_cfa_offset 4
 4807              		@ sp needed
 4808 0040 5DF804FB 		ldr	pc, [sp], #4
 4809              	.L351:
 4810              		.align	2
 4811              	.L350:
 4812 0044 00000000 		.word	__stack_chk_guard
 4813              		.cfi_endproc
 4814              	.LFE46:
 4815              		.size	VL53L0X_GetSequenceStepsInfo, .-VL53L0X_GetSequenceStepsInfo
 4816              		.section	.text.VL53L0X_SetSequenceStepTimeout,"ax",%progbits
 4817              		.align	1
 4818              		.p2align 4,,15
 4819              		.global	VL53L0X_SetSequenceStepTimeout
 4820              		.syntax unified
 4821              		.thumb
 4822              		.thumb_func
 4823              		.fpu fpv4-sp-d16
 4824              		.type	VL53L0X_SetSequenceStepTimeout, %function
 4825              	VL53L0X_SetSequenceStepTimeout:
 4826              	.LFB47:
 4827              		.loc 1 1264 0
 4828              		.cfi_startproc
 4829              		@ args = 0, pretend = 0, frame = 40
 4830              		@ frame_needed = 0, uses_anonymous_args = 0
 4831 0000 00B5     		push	{lr}
 4832              		.cfi_def_cfa_offset 4
 4833              		.cfi_offset 14, -4
 4834 0002 8BB0     		sub	sp, sp, #44
 4835              		.cfi_def_cfa_offset 48
 4836 0004 0390     		str	r0, [sp, #12]
 4837 0006 0B46     		mov	r3, r1
 4838 0008 0192     		str	r2, [sp, #4]
 4839 000a 8DF80B30 		strb	r3, [sp, #11]
 4840              		.loc 1 1264 0
 4841 000e 314B     		ldr	r3, .L358
 4842 0010 1B68     		ldr	r3, [r3]
 4843 0012 0993     		str	r3, [sp, #36]
 4844              		.loc 1 1265 0
 4845 0014 0023     		movs	r3, #0
ARM GAS  C:\Users\PCHAUT~1\AppData\Local\Temp\ccZvjaUR.s 			page 86


 4846 0016 8DF81630 		strb	r3, [sp, #22]
 4847              		.loc 1 1266 0
 4848 001a 0023     		movs	r3, #0
 4849 001c 8DF81730 		strb	r3, [sp, #23]
 4850              		.loc 1 1267 0
 4851 0020 019B     		ldr	r3, [sp, #4]
 4852 0022 4FF47A72 		mov	r2, #1000
 4853 0026 02FB03F3 		mul	r3, r2, r3
 4854 002a 03F50043 		add	r3, r3, #32768
 4855 002e 1B0C     		lsrs	r3, r3, #16
 4856 0030 0793     		str	r3, [sp, #28]
 4857              		.loc 1 1276 0
 4858 0032 06AA     		add	r2, sp, #24
 4859 0034 9DF80B30 		ldrb	r3, [sp, #11]	@ zero_extendqisi2
 4860 0038 1946     		mov	r1, r3
 4861 003a 0398     		ldr	r0, [sp, #12]
 4862 003c FFF7FEFF 		bl	get_sequence_step_timeout
 4863 0040 0346     		mov	r3, r0
 4864 0042 8DF81630 		strb	r3, [sp, #22]
 4865              		.loc 1 1279 0
 4866 0046 9DF91630 		ldrsb	r3, [sp, #22]
 4867 004a 002B     		cmp	r3, #0
 4868 004c 09D1     		bne	.L353
 4869              		.loc 1 1280 0
 4870 004e 9DF80B30 		ldrb	r3, [sp, #11]	@ zero_extendqisi2
 4871 0052 079A     		ldr	r2, [sp, #28]
 4872 0054 1946     		mov	r1, r3
 4873 0056 0398     		ldr	r0, [sp, #12]
 4874 0058 FFF7FEFF 		bl	set_sequence_step_timeout
 4875 005c 0346     		mov	r3, r0
 4876 005e 8DF81630 		strb	r3, [sp, #22]
 4877              	.L353:
 4878              		.loc 1 1284 0
 4879 0062 9DF91630 		ldrsb	r3, [sp, #22]
 4880 0066 002B     		cmp	r3, #0
 4881 0068 26D1     		bne	.L354
 4882              		.loc 1 1285 0
 4883 006a 039B     		ldr	r3, [sp, #12]
 4884 006c 5B69     		ldr	r3, [r3, #20]
 4885 006e 0893     		str	r3, [sp, #32]
 4886              		.loc 1 1293 0
 4887 0070 0899     		ldr	r1, [sp, #32]
 4888 0072 0398     		ldr	r0, [sp, #12]
 4889 0074 FFF7FEFF 		bl	VL53L0X_SetMeasurementTimingBudgetMicroSeconds
 4890 0078 0346     		mov	r3, r0
 4891 007a 8DF81630 		strb	r3, [sp, #22]
 4892              		.loc 1 1296 0
 4893 007e 9DF91630 		ldrsb	r3, [sp, #22]
 4894 0082 002B     		cmp	r3, #0
 4895 0084 18D0     		beq	.L354
 4896              		.loc 1 1297 0
 4897 0086 069A     		ldr	r2, [sp, #24]
 4898 0088 9DF80B30 		ldrb	r3, [sp, #11]	@ zero_extendqisi2
 4899 008c 1946     		mov	r1, r3
 4900 008e 0398     		ldr	r0, [sp, #12]
 4901 0090 FFF7FEFF 		bl	set_sequence_step_timeout
 4902 0094 0346     		mov	r3, r0
ARM GAS  C:\Users\PCHAUT~1\AppData\Local\Temp\ccZvjaUR.s 			page 87


 4903 0096 8DF81730 		strb	r3, [sp, #23]
 4904              		.loc 1 1300 0
 4905 009a 9DF91730 		ldrsb	r3, [sp, #23]
 4906 009e 002B     		cmp	r3, #0
 4907 00a0 06D1     		bne	.L355
 4908              		.loc 1 1301 0
 4909 00a2 0899     		ldr	r1, [sp, #32]
 4910 00a4 0398     		ldr	r0, [sp, #12]
 4911 00a6 FFF7FEFF 		bl	VL53L0X_SetMeasurementTimingBudgetMicroSeconds
 4912 00aa 0346     		mov	r3, r0
 4913 00ac 8DF81730 		strb	r3, [sp, #23]
 4914              	.L355:
 4915              		.loc 1 1307 0
 4916 00b0 9DF81730 		ldrb	r3, [sp, #23]
 4917 00b4 8DF81630 		strb	r3, [sp, #22]
 4918              	.L354:
 4919              		.loc 1 1313 0
 4920 00b8 9DF91630 		ldrsb	r3, [sp, #22]
 4921              		.loc 1 1314 0
 4922 00bc 1846     		mov	r0, r3
 4923 00be 054B     		ldr	r3, .L358
 4924 00c0 099A     		ldr	r2, [sp, #36]
 4925 00c2 1B68     		ldr	r3, [r3]
 4926 00c4 9A42     		cmp	r2, r3
 4927 00c6 01D0     		beq	.L357
 4928 00c8 FFF7FEFF 		bl	__stack_chk_fail
 4929              	.L357:
 4930 00cc 0BB0     		add	sp, sp, #44
 4931              		.cfi_def_cfa_offset 4
 4932              		@ sp needed
 4933 00ce 5DF804FB 		ldr	pc, [sp], #4
 4934              	.L359:
 4935 00d2 00BF     		.align	2
 4936              	.L358:
 4937 00d4 00000000 		.word	__stack_chk_guard
 4938              		.cfi_endproc
 4939              	.LFE47:
 4940              		.size	VL53L0X_SetSequenceStepTimeout, .-VL53L0X_SetSequenceStepTimeout
 4941              		.section	.text.VL53L0X_GetSequenceStepTimeout,"ax",%progbits
 4942              		.align	1
 4943              		.p2align 4,,15
 4944              		.global	VL53L0X_GetSequenceStepTimeout
 4945              		.syntax unified
 4946              		.thumb
 4947              		.thumb_func
 4948              		.fpu fpv4-sp-d16
 4949              		.type	VL53L0X_GetSequenceStepTimeout, %function
 4950              	VL53L0X_GetSequenceStepTimeout:
 4951              	.LFB48:
 4952              		.loc 1 1318 0
 4953              		.cfi_startproc
 4954              		@ args = 0, pretend = 0, frame = 32
 4955              		@ frame_needed = 0, uses_anonymous_args = 0
 4956 0000 00B5     		push	{lr}
 4957              		.cfi_def_cfa_offset 4
 4958              		.cfi_offset 14, -4
 4959 0002 89B0     		sub	sp, sp, #36
ARM GAS  C:\Users\PCHAUT~1\AppData\Local\Temp\ccZvjaUR.s 			page 88


 4960              		.cfi_def_cfa_offset 40
 4961 0004 0390     		str	r0, [sp, #12]
 4962 0006 0B46     		mov	r3, r1
 4963 0008 0192     		str	r2, [sp, #4]
 4964 000a 8DF80B30 		strb	r3, [sp, #11]
 4965              		.loc 1 1318 0
 4966 000e 194B     		ldr	r3, .L364
 4967 0010 1B68     		ldr	r3, [r3]
 4968 0012 0793     		str	r3, [sp, #28]
 4969              		.loc 1 1319 0
 4970 0014 0023     		movs	r3, #0
 4971 0016 8DF81730 		strb	r3, [sp, #23]
 4972              		.loc 1 1323 0
 4973 001a 06AA     		add	r2, sp, #24
 4974 001c 9DF80B30 		ldrb	r3, [sp, #11]	@ zero_extendqisi2
 4975 0020 1946     		mov	r1, r3
 4976 0022 0398     		ldr	r0, [sp, #12]
 4977 0024 FFF7FEFF 		bl	get_sequence_step_timeout
 4978 0028 0346     		mov	r3, r0
 4979 002a 8DF81730 		strb	r3, [sp, #23]
 4980              		.loc 1 1325 0
 4981 002e 9DF91730 		ldrsb	r3, [sp, #23]
 4982 0032 002B     		cmp	r3, #0
 4983 0034 10D1     		bne	.L361
 4984              		.loc 1 1326 0
 4985 0036 069B     		ldr	r3, [sp, #24]
 4986 0038 1B02     		lsls	r3, r3, #8
 4987 003a 0693     		str	r3, [sp, #24]
 4988              		.loc 1 1327 0
 4989 003c 069B     		ldr	r3, [sp, #24]
 4990 003e 03F5FA73 		add	r3, r3, #500
 4991 0042 0D4A     		ldr	r2, .L364+4
 4992 0044 A2FB0323 		umull	r2, r3, r2, r3
 4993 0048 9A09     		lsrs	r2, r3, #6
 4994 004a 019B     		ldr	r3, [sp, #4]
 4995 004c 1A60     		str	r2, [r3]
 4996              		.loc 1 1328 0
 4997 004e 019B     		ldr	r3, [sp, #4]
 4998 0050 1B68     		ldr	r3, [r3]
 4999 0052 1A02     		lsls	r2, r3, #8
 5000 0054 019B     		ldr	r3, [sp, #4]
 5001 0056 1A60     		str	r2, [r3]
 5002              	.L361:
 5003              		.loc 1 1332 0
 5004 0058 9DF91730 		ldrsb	r3, [sp, #23]
 5005              		.loc 1 1333 0
 5006 005c 1846     		mov	r0, r3
 5007 005e 054B     		ldr	r3, .L364
 5008 0060 079A     		ldr	r2, [sp, #28]
 5009 0062 1B68     		ldr	r3, [r3]
 5010 0064 9A42     		cmp	r2, r3
 5011 0066 01D0     		beq	.L363
 5012 0068 FFF7FEFF 		bl	__stack_chk_fail
 5013              	.L363:
 5014 006c 09B0     		add	sp, sp, #36
 5015              		.cfi_def_cfa_offset 4
 5016              		@ sp needed
ARM GAS  C:\Users\PCHAUT~1\AppData\Local\Temp\ccZvjaUR.s 			page 89


 5017 006e 5DF804FB 		ldr	pc, [sp], #4
 5018              	.L365:
 5019 0072 00BF     		.align	2
 5020              	.L364:
 5021 0074 00000000 		.word	__stack_chk_guard
 5022 0078 D34D6210 		.word	274877907
 5023              		.cfi_endproc
 5024              	.LFE48:
 5025              		.size	VL53L0X_GetSequenceStepTimeout, .-VL53L0X_GetSequenceStepTimeout
 5026              		.section	.text.VL53L0X_SetInterMeasurementPeriodMilliSeconds,"ax",%progbits
 5027              		.align	1
 5028              		.p2align 4,,15
 5029              		.global	VL53L0X_SetInterMeasurementPeriodMilliSeconds
 5030              		.syntax unified
 5031              		.thumb
 5032              		.thumb_func
 5033              		.fpu fpv4-sp-d16
 5034              		.type	VL53L0X_SetInterMeasurementPeriodMilliSeconds, %function
 5035              	VL53L0X_SetInterMeasurementPeriodMilliSeconds:
 5036              	.LFB49:
 5037              		.loc 1 1337 0
 5038              		.cfi_startproc
 5039              		@ args = 0, pretend = 0, frame = 24
 5040              		@ frame_needed = 0, uses_anonymous_args = 0
 5041 0000 00B5     		push	{lr}
 5042              		.cfi_def_cfa_offset 4
 5043              		.cfi_offset 14, -4
 5044 0002 87B0     		sub	sp, sp, #28
 5045              		.cfi_def_cfa_offset 32
 5046 0004 0190     		str	r0, [sp, #4]
 5047 0006 0091     		str	r1, [sp]
 5048              		.loc 1 1337 0
 5049 0008 1E4B     		ldr	r3, .L373
 5050 000a 1B68     		ldr	r3, [r3]
 5051 000c 0593     		str	r3, [sp, #20]
 5052              		.loc 1 1338 0
 5053 000e 0023     		movs	r3, #0
 5054 0010 8DF80D30 		strb	r3, [sp, #13]
 5055              		.loc 1 1344 0
 5056 0014 0DF10E03 		add	r3, sp, #14
 5057 0018 1A46     		mov	r2, r3
 5058 001a F821     		movs	r1, #248
 5059 001c 0198     		ldr	r0, [sp, #4]
 5060 001e FFF7FEFF 		bl	VL53L0X_RdWord
 5061 0022 0346     		mov	r3, r0
 5062 0024 8DF80D30 		strb	r3, [sp, #13]
 5063              		.loc 1 1347 0
 5064 0028 9DF90D30 		ldrsb	r3, [sp, #13]
 5065 002c 002B     		cmp	r3, #0
 5066 002e 15D1     		bne	.L367
 5067              		.loc 1 1348 0
 5068 0030 BDF80E30 		ldrh	r3, [sp, #14]
 5069 0034 002B     		cmp	r3, #0
 5070 0036 07D0     		beq	.L368
 5071              		.loc 1 1351 0
 5072 0038 BDF80E30 		ldrh	r3, [sp, #14]
 5073 003c 1A46     		mov	r2, r3
ARM GAS  C:\Users\PCHAUT~1\AppData\Local\Temp\ccZvjaUR.s 			page 90


 5074              		.loc 1 1349 0
 5075 003e 009B     		ldr	r3, [sp]
 5076 0040 02FB03F3 		mul	r3, r2, r3
 5077 0044 0493     		str	r3, [sp, #16]
 5078 0046 01E0     		b	.L369
 5079              	.L368:
 5080              		.loc 1 1353 0
 5081 0048 009B     		ldr	r3, [sp]
 5082 004a 0493     		str	r3, [sp, #16]
 5083              	.L369:
 5084              		.loc 1 1356 0
 5085 004c 049A     		ldr	r2, [sp, #16]
 5086 004e 0421     		movs	r1, #4
 5087 0050 0198     		ldr	r0, [sp, #4]
 5088 0052 FFF7FEFF 		bl	VL53L0X_WrDWord
 5089 0056 0346     		mov	r3, r0
 5090 0058 8DF80D30 		strb	r3, [sp, #13]
 5091              	.L367:
 5092              		.loc 1 1361 0
 5093 005c 9DF90D30 		ldrsb	r3, [sp, #13]
 5094 0060 002B     		cmp	r3, #0
 5095 0062 02D1     		bne	.L370
 5096              		.loc 1 1362 0
 5097 0064 019B     		ldr	r3, [sp, #4]
 5098 0066 009A     		ldr	r2, [sp]
 5099 0068 9A61     		str	r2, [r3, #24]
 5100              	.L370:
 5101              		.loc 1 1368 0
 5102 006a 9DF90D30 		ldrsb	r3, [sp, #13]
 5103              		.loc 1 1369 0
 5104 006e 1846     		mov	r0, r3
 5105 0070 044B     		ldr	r3, .L373
 5106 0072 059A     		ldr	r2, [sp, #20]
 5107 0074 1B68     		ldr	r3, [r3]
 5108 0076 9A42     		cmp	r2, r3
 5109 0078 01D0     		beq	.L372
 5110 007a FFF7FEFF 		bl	__stack_chk_fail
 5111              	.L372:
 5112 007e 07B0     		add	sp, sp, #28
 5113              		.cfi_def_cfa_offset 4
 5114              		@ sp needed
 5115 0080 5DF804FB 		ldr	pc, [sp], #4
 5116              	.L374:
 5117              		.align	2
 5118              	.L373:
 5119 0084 00000000 		.word	__stack_chk_guard
 5120              		.cfi_endproc
 5121              	.LFE49:
 5122              		.size	VL53L0X_SetInterMeasurementPeriodMilliSeconds, .-VL53L0X_SetInterMeasurementPeriodMilliSecon
 5123              		.section	.text.VL53L0X_GetInterMeasurementPeriodMilliSeconds,"ax",%progbits
 5124              		.align	1
 5125              		.p2align 4,,15
 5126              		.global	VL53L0X_GetInterMeasurementPeriodMilliSeconds
 5127              		.syntax unified
 5128              		.thumb
 5129              		.thumb_func
 5130              		.fpu fpv4-sp-d16
ARM GAS  C:\Users\PCHAUT~1\AppData\Local\Temp\ccZvjaUR.s 			page 91


 5131              		.type	VL53L0X_GetInterMeasurementPeriodMilliSeconds, %function
 5132              	VL53L0X_GetInterMeasurementPeriodMilliSeconds:
 5133              	.LFB50:
 5134              		.loc 1 1373 0
 5135              		.cfi_startproc
 5136              		@ args = 0, pretend = 0, frame = 24
 5137              		@ frame_needed = 0, uses_anonymous_args = 0
 5138 0000 00B5     		push	{lr}
 5139              		.cfi_def_cfa_offset 4
 5140              		.cfi_offset 14, -4
 5141 0002 87B0     		sub	sp, sp, #28
 5142              		.cfi_def_cfa_offset 32
 5143 0004 0190     		str	r0, [sp, #4]
 5144 0006 0091     		str	r1, [sp]
 5145              		.loc 1 1373 0
 5146 0008 1E4B     		ldr	r3, .L381
 5147 000a 1B68     		ldr	r3, [r3]
 5148 000c 0593     		str	r3, [sp, #20]
 5149              		.loc 1 1374 0
 5150 000e 0023     		movs	r3, #0
 5151 0010 8DF80D30 		strb	r3, [sp, #13]
 5152              		.loc 1 1380 0
 5153 0014 0DF10E03 		add	r3, sp, #14
 5154 0018 1A46     		mov	r2, r3
 5155 001a F821     		movs	r1, #248
 5156 001c 0198     		ldr	r0, [sp, #4]
 5157 001e FFF7FEFF 		bl	VL53L0X_RdWord
 5158 0022 0346     		mov	r3, r0
 5159 0024 8DF80D30 		strb	r3, [sp, #13]
 5160              		.loc 1 1383 0
 5161 0028 9DF90D30 		ldrsb	r3, [sp, #13]
 5162 002c 002B     		cmp	r3, #0
 5163 002e 08D1     		bne	.L376
 5164              		.loc 1 1384 0
 5165 0030 04AB     		add	r3, sp, #16
 5166 0032 1A46     		mov	r2, r3
 5167 0034 0421     		movs	r1, #4
 5168 0036 0198     		ldr	r0, [sp, #4]
 5169 0038 FFF7FEFF 		bl	VL53L0X_RdDWord
 5170 003c 0346     		mov	r3, r0
 5171 003e 8DF80D30 		strb	r3, [sp, #13]
 5172              	.L376:
 5173              		.loc 1 1389 0
 5174 0042 9DF90D30 		ldrsb	r3, [sp, #13]
 5175 0046 002B     		cmp	r3, #0
 5176 0048 0ED1     		bne	.L377
 5177              		.loc 1 1390 0
 5178 004a BDF80E30 		ldrh	r3, [sp, #14]
 5179 004e 002B     		cmp	r3, #0
 5180 0050 06D0     		beq	.L378
 5181              		.loc 1 1392 0
 5182 0052 049B     		ldr	r3, [sp, #16]
 5183 0054 BDF80E20 		ldrh	r2, [sp, #14]
 5184 0058 B3FBF2F2 		udiv	r2, r3, r2
 5185              		.loc 1 1391 0
 5186 005c 009B     		ldr	r3, [sp]
 5187 005e 1A60     		str	r2, [r3]
ARM GAS  C:\Users\PCHAUT~1\AppData\Local\Temp\ccZvjaUR.s 			page 92


 5188              	.L378:
 5189              		.loc 1 1394 0
 5190 0060 009B     		ldr	r3, [sp]
 5191 0062 1A68     		ldr	r2, [r3]
 5192 0064 019B     		ldr	r3, [sp, #4]
 5193 0066 9A61     		str	r2, [r3, #24]
 5194              	.L377:
 5195              		.loc 1 1400 0
 5196 0068 9DF90D30 		ldrsb	r3, [sp, #13]
 5197              		.loc 1 1401 0
 5198 006c 1846     		mov	r0, r3
 5199 006e 054B     		ldr	r3, .L381
 5200 0070 059A     		ldr	r2, [sp, #20]
 5201 0072 1B68     		ldr	r3, [r3]
 5202 0074 9A42     		cmp	r2, r3
 5203 0076 01D0     		beq	.L380
 5204 0078 FFF7FEFF 		bl	__stack_chk_fail
 5205              	.L380:
 5206 007c 07B0     		add	sp, sp, #28
 5207              		.cfi_def_cfa_offset 4
 5208              		@ sp needed
 5209 007e 5DF804FB 		ldr	pc, [sp], #4
 5210              	.L382:
 5211 0082 00BF     		.align	2
 5212              	.L381:
 5213 0084 00000000 		.word	__stack_chk_guard
 5214              		.cfi_endproc
 5215              	.LFE50:
 5216              		.size	VL53L0X_GetInterMeasurementPeriodMilliSeconds, .-VL53L0X_GetInterMeasurementPeriodMilliSecon
 5217              		.section	.text.VL53L0X_SetXTalkCompensationEnable,"ax",%progbits
 5218              		.align	1
 5219              		.p2align 4,,15
 5220              		.global	VL53L0X_SetXTalkCompensationEnable
 5221              		.syntax unified
 5222              		.thumb
 5223              		.thumb_func
 5224              		.fpu fpv4-sp-d16
 5225              		.type	VL53L0X_SetXTalkCompensationEnable, %function
 5226              	VL53L0X_SetXTalkCompensationEnable:
 5227              	.LFB51:
 5228              		.loc 1 1405 0
 5229              		.cfi_startproc
 5230              		@ args = 0, pretend = 0, frame = 24
 5231              		@ frame_needed = 0, uses_anonymous_args = 0
 5232 0000 00B5     		push	{lr}
 5233              		.cfi_def_cfa_offset 4
 5234              		.cfi_offset 14, -4
 5235 0002 87B0     		sub	sp, sp, #28
 5236              		.cfi_def_cfa_offset 32
 5237 0004 0190     		str	r0, [sp, #4]
 5238 0006 0B46     		mov	r3, r1
 5239 0008 8DF80330 		strb	r3, [sp, #3]
 5240              		.loc 1 1405 0
 5241 000c 204B     		ldr	r3, .L391
 5242 000e 1B68     		ldr	r3, [r3]
 5243 0010 0593     		str	r3, [sp, #20]
 5244              		.loc 1 1406 0
ARM GAS  C:\Users\PCHAUT~1\AppData\Local\Temp\ccZvjaUR.s 			page 93


 5245 0012 0023     		movs	r3, #0
 5246 0014 8DF80D30 		strb	r3, [sp, #13]
 5247              		.loc 1 1412 0
 5248 0018 019B     		ldr	r3, [sp, #4]
 5249 001a B3F85231 		ldrh	r3, [r3, #338]	@ movhi
 5250 001e ADF80E30 		strh	r3, [sp, #14]	@ movhi
 5251              		.loc 1 1414 0
 5252 0022 9DF80330 		ldrb	r3, [sp, #3]	@ zero_extendqisi2
 5253 0026 002B     		cmp	r3, #0
 5254 0028 04D0     		beq	.L384
 5255              		.loc 1 1415 0
 5256 002a BDF80E30 		ldrh	r3, [sp, #14]
 5257 002e B3F57A7F 		cmp	r3, #1000
 5258 0032 02D0     		beq	.L385
 5259              	.L384:
 5260              		.loc 1 1416 0
 5261 0034 0023     		movs	r3, #0
 5262 0036 0493     		str	r3, [sp, #16]
 5263 0038 02E0     		b	.L386
 5264              	.L385:
 5265              		.loc 1 1418 0
 5266 003a 019B     		ldr	r3, [sp, #4]
 5267 003c 1B6A     		ldr	r3, [r3, #32]
 5268 003e 0493     		str	r3, [sp, #16]
 5269              	.L386:
 5270              		.loc 1 1425 0
 5271 0040 049B     		ldr	r3, [sp, #16]
 5272 0042 DB08     		lsrs	r3, r3, #3
 5273              		.loc 1 1423 0
 5274 0044 9BB2     		uxth	r3, r3
 5275 0046 1A46     		mov	r2, r3
 5276 0048 2021     		movs	r1, #32
 5277 004a 0198     		ldr	r0, [sp, #4]
 5278 004c FFF7FEFF 		bl	VL53L0X_WrWord
 5279 0050 0346     		mov	r3, r0
 5280 0052 8DF80D30 		strb	r3, [sp, #13]
 5281              		.loc 1 1427 0
 5282 0056 9DF90D30 		ldrsb	r3, [sp, #13]
 5283 005a 002B     		cmp	r3, #0
 5284 005c 0AD1     		bne	.L387
 5285              		.loc 1 1428 0
 5286 005e 9DF80330 		ldrb	r3, [sp, #3]	@ zero_extendqisi2
 5287 0062 002B     		cmp	r3, #0
 5288 0064 03D1     		bne	.L388
 5289              		.loc 1 1429 0
 5290 0066 019B     		ldr	r3, [sp, #4]
 5291 0068 0022     		movs	r2, #0
 5292 006a 1A77     		strb	r2, [r3, #28]
 5293 006c 02E0     		b	.L387
 5294              	.L388:
 5295              		.loc 1 1432 0
 5296 006e 019B     		ldr	r3, [sp, #4]
 5297 0070 0122     		movs	r2, #1
 5298 0072 1A77     		strb	r2, [r3, #28]
 5299              	.L387:
 5300              		.loc 1 1438 0
 5301 0074 9DF90D30 		ldrsb	r3, [sp, #13]
ARM GAS  C:\Users\PCHAUT~1\AppData\Local\Temp\ccZvjaUR.s 			page 94


 5302              		.loc 1 1439 0
 5303 0078 1846     		mov	r0, r3
 5304 007a 054B     		ldr	r3, .L391
 5305 007c 059A     		ldr	r2, [sp, #20]
 5306 007e 1B68     		ldr	r3, [r3]
 5307 0080 9A42     		cmp	r2, r3
 5308 0082 01D0     		beq	.L390
 5309 0084 FFF7FEFF 		bl	__stack_chk_fail
 5310              	.L390:
 5311 0088 07B0     		add	sp, sp, #28
 5312              		.cfi_def_cfa_offset 4
 5313              		@ sp needed
 5314 008a 5DF804FB 		ldr	pc, [sp], #4
 5315              	.L392:
 5316 008e 00BF     		.align	2
 5317              	.L391:
 5318 0090 00000000 		.word	__stack_chk_guard
 5319              		.cfi_endproc
 5320              	.LFE51:
 5321              		.size	VL53L0X_SetXTalkCompensationEnable, .-VL53L0X_SetXTalkCompensationEnable
 5322              		.section	.text.VL53L0X_GetXTalkCompensationEnable,"ax",%progbits
 5323              		.align	1
 5324              		.p2align 4,,15
 5325              		.global	VL53L0X_GetXTalkCompensationEnable
 5326              		.syntax unified
 5327              		.thumb
 5328              		.thumb_func
 5329              		.fpu fpv4-sp-d16
 5330              		.type	VL53L0X_GetXTalkCompensationEnable, %function
 5331              	VL53L0X_GetXTalkCompensationEnable:
 5332              	.LFB52:
 5333              		.loc 1 1443 0
 5334              		.cfi_startproc
 5335              		@ args = 0, pretend = 0, frame = 16
 5336              		@ frame_needed = 0, uses_anonymous_args = 0
 5337 0000 00B5     		push	{lr}
 5338              		.cfi_def_cfa_offset 4
 5339              		.cfi_offset 14, -4
 5340 0002 85B0     		sub	sp, sp, #20
 5341              		.cfi_def_cfa_offset 24
 5342 0004 0190     		str	r0, [sp, #4]
 5343 0006 0091     		str	r1, [sp]
 5344              		.loc 1 1443 0
 5345 0008 0D4B     		ldr	r3, .L396
 5346 000a 1B68     		ldr	r3, [r3]
 5347 000c 0393     		str	r3, [sp, #12]
 5348              		.loc 1 1444 0
 5349 000e 0023     		movs	r3, #0
 5350 0010 8DF80A30 		strb	r3, [sp, #10]
 5351              		.loc 1 1448 0
 5352 0014 019B     		ldr	r3, [sp, #4]
 5353 0016 1B7F     		ldrb	r3, [r3, #28]
 5354 0018 8DF80B30 		strb	r3, [sp, #11]
 5355              		.loc 1 1449 0
 5356 001c 009B     		ldr	r3, [sp]
 5357 001e 9DF80B20 		ldrb	r2, [sp, #11]
 5358 0022 1A70     		strb	r2, [r3]
ARM GAS  C:\Users\PCHAUT~1\AppData\Local\Temp\ccZvjaUR.s 			page 95


 5359              		.loc 1 1452 0
 5360 0024 9DF90A30 		ldrsb	r3, [sp, #10]
 5361              		.loc 1 1453 0
 5362 0028 1846     		mov	r0, r3
 5363 002a 054B     		ldr	r3, .L396
 5364 002c 039A     		ldr	r2, [sp, #12]
 5365 002e 1B68     		ldr	r3, [r3]
 5366 0030 9A42     		cmp	r2, r3
 5367 0032 01D0     		beq	.L395
 5368 0034 FFF7FEFF 		bl	__stack_chk_fail
 5369              	.L395:
 5370 0038 05B0     		add	sp, sp, #20
 5371              		.cfi_def_cfa_offset 4
 5372              		@ sp needed
 5373 003a 5DF804FB 		ldr	pc, [sp], #4
 5374              	.L397:
 5375 003e 00BF     		.align	2
 5376              	.L396:
 5377 0040 00000000 		.word	__stack_chk_guard
 5378              		.cfi_endproc
 5379              	.LFE52:
 5380              		.size	VL53L0X_GetXTalkCompensationEnable, .-VL53L0X_GetXTalkCompensationEnable
 5381              		.section	.text.VL53L0X_SetXTalkCompensationRateMegaCps,"ax",%progbits
 5382              		.align	1
 5383              		.p2align 4,,15
 5384              		.global	VL53L0X_SetXTalkCompensationRateMegaCps
 5385              		.syntax unified
 5386              		.thumb
 5387              		.thumb_func
 5388              		.fpu fpv4-sp-d16
 5389              		.type	VL53L0X_SetXTalkCompensationRateMegaCps, %function
 5390              	VL53L0X_SetXTalkCompensationRateMegaCps:
 5391              	.LFB53:
 5392              		.loc 1 1457 0
 5393              		.cfi_startproc
 5394              		@ args = 0, pretend = 0, frame = 24
 5395              		@ frame_needed = 0, uses_anonymous_args = 0
 5396 0000 00B5     		push	{lr}
 5397              		.cfi_def_cfa_offset 4
 5398              		.cfi_offset 14, -4
 5399 0002 87B0     		sub	sp, sp, #28
 5400              		.cfi_def_cfa_offset 32
 5401 0004 0190     		str	r0, [sp, #4]
 5402 0006 0091     		str	r1, [sp]
 5403              		.loc 1 1457 0
 5404 0008 204B     		ldr	r3, .L405
 5405 000a 1B68     		ldr	r3, [r3]
 5406 000c 0593     		str	r3, [sp, #20]
 5407              		.loc 1 1458 0
 5408 000e 0023     		movs	r3, #0
 5409 0010 8DF80E30 		strb	r3, [sp, #14]
 5410              		.loc 1 1464 0
 5411 0014 019B     		ldr	r3, [sp, #4]
 5412 0016 1B7F     		ldrb	r3, [r3, #28]
 5413 0018 8DF80F30 		strb	r3, [sp, #15]
 5414              		.loc 1 1465 0
 5415 001c 019B     		ldr	r3, [sp, #4]
ARM GAS  C:\Users\PCHAUT~1\AppData\Local\Temp\ccZvjaUR.s 			page 96


 5416 001e B3F85231 		ldrh	r3, [r3, #338]	@ movhi
 5417 0022 ADF81230 		strh	r3, [sp, #18]	@ movhi
 5418              		.loc 1 1467 0
 5419 0026 9DF80F30 		ldrb	r3, [sp, #15]	@ zero_extendqisi2
 5420 002a 002B     		cmp	r3, #0
 5421 002c 03D1     		bne	.L399
 5422              		.loc 1 1468 0
 5423 002e 019B     		ldr	r3, [sp, #4]
 5424 0030 009A     		ldr	r2, [sp]
 5425 0032 1A62     		str	r2, [r3, #32]
 5426 0034 1DE0     		b	.L400
 5427              	.L399:
 5428              		.loc 1 1472 0
 5429 0036 BDF81230 		ldrh	r3, [sp, #18]
 5430 003a B3F57A7F 		cmp	r3, #1000
 5431 003e 04D1     		bne	.L401
 5432              		.loc 1 1473 0
 5433 0040 009B     		ldr	r3, [sp]
 5434 0042 DB08     		lsrs	r3, r3, #3
 5435 0044 ADF81030 		strh	r3, [sp, #16]	@ movhi
 5436 0048 02E0     		b	.L402
 5437              	.L401:
 5438              		.loc 1 1476 0
 5439 004a 0023     		movs	r3, #0
 5440 004c ADF81030 		strh	r3, [sp, #16]	@ movhi
 5441              	.L402:
 5442              		.loc 1 1479 0
 5443 0050 BDF81030 		ldrh	r3, [sp, #16]
 5444 0054 1A46     		mov	r2, r3
 5445 0056 2021     		movs	r1, #32
 5446 0058 0198     		ldr	r0, [sp, #4]
 5447 005a FFF7FEFF 		bl	VL53L0X_WrWord
 5448 005e 0346     		mov	r3, r0
 5449 0060 8DF80E30 		strb	r3, [sp, #14]
 5450              		.loc 1 1482 0
 5451 0064 9DF90E30 		ldrsb	r3, [sp, #14]
 5452 0068 002B     		cmp	r3, #0
 5453 006a 02D1     		bne	.L400
 5454              		.loc 1 1483 0
 5455 006c 019B     		ldr	r3, [sp, #4]
 5456 006e 009A     		ldr	r2, [sp]
 5457 0070 1A62     		str	r2, [r3, #32]
 5458              	.L400:
 5459              		.loc 1 1490 0
 5460 0072 9DF90E30 		ldrsb	r3, [sp, #14]
 5461              		.loc 1 1491 0
 5462 0076 1846     		mov	r0, r3
 5463 0078 044B     		ldr	r3, .L405
 5464 007a 059A     		ldr	r2, [sp, #20]
 5465 007c 1B68     		ldr	r3, [r3]
 5466 007e 9A42     		cmp	r2, r3
 5467 0080 01D0     		beq	.L404
 5468 0082 FFF7FEFF 		bl	__stack_chk_fail
 5469              	.L404:
 5470 0086 07B0     		add	sp, sp, #28
 5471              		.cfi_def_cfa_offset 4
 5472              		@ sp needed
ARM GAS  C:\Users\PCHAUT~1\AppData\Local\Temp\ccZvjaUR.s 			page 97


 5473 0088 5DF804FB 		ldr	pc, [sp], #4
 5474              	.L406:
 5475              		.align	2
 5476              	.L405:
 5477 008c 00000000 		.word	__stack_chk_guard
 5478              		.cfi_endproc
 5479              	.LFE53:
 5480              		.size	VL53L0X_SetXTalkCompensationRateMegaCps, .-VL53L0X_SetXTalkCompensationRateMegaCps
 5481              		.section	.text.VL53L0X_GetXTalkCompensationRateMegaCps,"ax",%progbits
 5482              		.align	1
 5483              		.p2align 4,,15
 5484              		.global	VL53L0X_GetXTalkCompensationRateMegaCps
 5485              		.syntax unified
 5486              		.thumb
 5487              		.thumb_func
 5488              		.fpu fpv4-sp-d16
 5489              		.type	VL53L0X_GetXTalkCompensationRateMegaCps, %function
 5490              	VL53L0X_GetXTalkCompensationRateMegaCps:
 5491              	.LFB54:
 5492              		.loc 1 1495 0
 5493              		.cfi_startproc
 5494              		@ args = 0, pretend = 0, frame = 24
 5495              		@ frame_needed = 0, uses_anonymous_args = 0
 5496 0000 00B5     		push	{lr}
 5497              		.cfi_def_cfa_offset 4
 5498              		.cfi_offset 14, -4
 5499 0002 87B0     		sub	sp, sp, #28
 5500              		.cfi_def_cfa_offset 32
 5501 0004 0190     		str	r0, [sp, #4]
 5502 0006 0091     		str	r1, [sp]
 5503              		.loc 1 1495 0
 5504 0008 1D4B     		ldr	r3, .L412
 5505 000a 1B68     		ldr	r3, [r3]
 5506 000c 0593     		str	r3, [sp, #20]
 5507              		.loc 1 1496 0
 5508 000e 0023     		movs	r3, #0
 5509 0010 8DF80D30 		strb	r3, [sp, #13]
 5510              		.loc 1 1502 0
 5511 0014 0DF10E03 		add	r3, sp, #14
 5512 0018 1A46     		mov	r2, r3
 5513 001a 2021     		movs	r1, #32
 5514 001c 0198     		ldr	r0, [sp, #4]
 5515 001e FFF7FEFF 		bl	VL53L0X_RdWord
 5516 0022 0346     		mov	r3, r0
 5517 0024 8DF80D30 		strb	r3, [sp, #13]
 5518              		.loc 1 1504 0
 5519 0028 9DF90D30 		ldrsb	r3, [sp, #13]
 5520 002c 002B     		cmp	r3, #0
 5521 002e 1AD1     		bne	.L408
 5522              		.loc 1 1505 0
 5523 0030 BDF80E30 		ldrh	r3, [sp, #14]
 5524 0034 002B     		cmp	r3, #0
 5525 0036 09D1     		bne	.L409
 5526              		.loc 1 1507 0
 5527 0038 019B     		ldr	r3, [sp, #4]
 5528 003a 1B6A     		ldr	r3, [r3, #32]
 5529 003c 0493     		str	r3, [sp, #16]
ARM GAS  C:\Users\PCHAUT~1\AppData\Local\Temp\ccZvjaUR.s 			page 98


 5530              		.loc 1 1509 0
 5531 003e 009B     		ldr	r3, [sp]
 5532 0040 049A     		ldr	r2, [sp, #16]
 5533 0042 1A60     		str	r2, [r3]
 5534              		.loc 1 1510 0
 5535 0044 019B     		ldr	r3, [sp, #4]
 5536 0046 0022     		movs	r2, #0
 5537 0048 1A77     		strb	r2, [r3, #28]
 5538 004a 0CE0     		b	.L408
 5539              	.L409:
 5540              		.loc 1 1513 0
 5541 004c BDF80E30 		ldrh	r3, [sp, #14]
 5542 0050 DB00     		lsls	r3, r3, #3
 5543 0052 0493     		str	r3, [sp, #16]
 5544              		.loc 1 1514 0
 5545 0054 009B     		ldr	r3, [sp]
 5546 0056 049A     		ldr	r2, [sp, #16]
 5547 0058 1A60     		str	r2, [r3]
 5548              		.loc 1 1515 0
 5549 005a 019B     		ldr	r3, [sp, #4]
 5550 005c 049A     		ldr	r2, [sp, #16]
 5551 005e 1A62     		str	r2, [r3, #32]
 5552              		.loc 1 1517 0
 5553 0060 019B     		ldr	r3, [sp, #4]
 5554 0062 0122     		movs	r2, #1
 5555 0064 1A77     		strb	r2, [r3, #28]
 5556              	.L408:
 5557              		.loc 1 1523 0
 5558 0066 9DF90D30 		ldrsb	r3, [sp, #13]
 5559              		.loc 1 1524 0
 5560 006a 1846     		mov	r0, r3
 5561 006c 044B     		ldr	r3, .L412
 5562 006e 059A     		ldr	r2, [sp, #20]
 5563 0070 1B68     		ldr	r3, [r3]
 5564 0072 9A42     		cmp	r2, r3
 5565 0074 01D0     		beq	.L411
 5566 0076 FFF7FEFF 		bl	__stack_chk_fail
 5567              	.L411:
 5568 007a 07B0     		add	sp, sp, #28
 5569              		.cfi_def_cfa_offset 4
 5570              		@ sp needed
 5571 007c 5DF804FB 		ldr	pc, [sp], #4
 5572              	.L413:
 5573              		.align	2
 5574              	.L412:
 5575 0080 00000000 		.word	__stack_chk_guard
 5576              		.cfi_endproc
 5577              	.LFE54:
 5578              		.size	VL53L0X_GetXTalkCompensationRateMegaCps, .-VL53L0X_GetXTalkCompensationRateMegaCps
 5579              		.section	.text.VL53L0X_SetRefCalibration,"ax",%progbits
 5580              		.align	1
 5581              		.p2align 4,,15
 5582              		.global	VL53L0X_SetRefCalibration
 5583              		.syntax unified
 5584              		.thumb
 5585              		.thumb_func
 5586              		.fpu fpv4-sp-d16
ARM GAS  C:\Users\PCHAUT~1\AppData\Local\Temp\ccZvjaUR.s 			page 99


 5587              		.type	VL53L0X_SetRefCalibration, %function
 5588              	VL53L0X_SetRefCalibration:
 5589              	.LFB55:
 5590              		.loc 1 1528 0
 5591              		.cfi_startproc
 5592              		@ args = 0, pretend = 0, frame = 16
 5593              		@ frame_needed = 0, uses_anonymous_args = 0
 5594 0000 00B5     		push	{lr}
 5595              		.cfi_def_cfa_offset 4
 5596              		.cfi_offset 14, -4
 5597 0002 85B0     		sub	sp, sp, #20
 5598              		.cfi_def_cfa_offset 24
 5599 0004 0190     		str	r0, [sp, #4]
 5600 0006 0B46     		mov	r3, r1
 5601 0008 8DF80330 		strb	r3, [sp, #3]
 5602 000c 1346     		mov	r3, r2
 5603 000e 8DF80230 		strb	r3, [sp, #2]
 5604              		.loc 1 1528 0
 5605 0012 0F4B     		ldr	r3, .L417
 5606 0014 1B68     		ldr	r3, [r3]
 5607 0016 0393     		str	r3, [sp, #12]
 5608              		.loc 1 1529 0
 5609 0018 0023     		movs	r3, #0
 5610 001a 8DF80B30 		strb	r3, [sp, #11]
 5611              		.loc 1 1532 0
 5612 001e 9DF80220 		ldrb	r2, [sp, #2]	@ zero_extendqisi2
 5613 0022 9DF80330 		ldrb	r3, [sp, #3]	@ zero_extendqisi2
 5614 0026 1946     		mov	r1, r3
 5615 0028 0198     		ldr	r0, [sp, #4]
 5616 002a FFF7FEFF 		bl	VL53L0X_set_ref_calibration
 5617 002e 0346     		mov	r3, r0
 5618 0030 8DF80B30 		strb	r3, [sp, #11]
 5619              		.loc 1 1535 0
 5620 0034 9DF90B30 		ldrsb	r3, [sp, #11]
 5621              		.loc 1 1536 0
 5622 0038 1846     		mov	r0, r3
 5623 003a 054B     		ldr	r3, .L417
 5624 003c 039A     		ldr	r2, [sp, #12]
 5625 003e 1B68     		ldr	r3, [r3]
 5626 0040 9A42     		cmp	r2, r3
 5627 0042 01D0     		beq	.L416
 5628 0044 FFF7FEFF 		bl	__stack_chk_fail
 5629              	.L416:
 5630 0048 05B0     		add	sp, sp, #20
 5631              		.cfi_def_cfa_offset 4
 5632              		@ sp needed
 5633 004a 5DF804FB 		ldr	pc, [sp], #4
 5634              	.L418:
 5635 004e 00BF     		.align	2
 5636              	.L417:
 5637 0050 00000000 		.word	__stack_chk_guard
 5638              		.cfi_endproc
 5639              	.LFE55:
 5640              		.size	VL53L0X_SetRefCalibration, .-VL53L0X_SetRefCalibration
 5641              		.section	.text.VL53L0X_GetRefCalibration,"ax",%progbits
 5642              		.align	1
 5643              		.p2align 4,,15
ARM GAS  C:\Users\PCHAUT~1\AppData\Local\Temp\ccZvjaUR.s 			page 100


 5644              		.global	VL53L0X_GetRefCalibration
 5645              		.syntax unified
 5646              		.thumb
 5647              		.thumb_func
 5648              		.fpu fpv4-sp-d16
 5649              		.type	VL53L0X_GetRefCalibration, %function
 5650              	VL53L0X_GetRefCalibration:
 5651              	.LFB56:
 5652              		.loc 1 1540 0
 5653              		.cfi_startproc
 5654              		@ args = 0, pretend = 0, frame = 24
 5655              		@ frame_needed = 0, uses_anonymous_args = 0
 5656 0000 00B5     		push	{lr}
 5657              		.cfi_def_cfa_offset 4
 5658              		.cfi_offset 14, -4
 5659 0002 87B0     		sub	sp, sp, #28
 5660              		.cfi_def_cfa_offset 32
 5661 0004 0390     		str	r0, [sp, #12]
 5662 0006 0291     		str	r1, [sp, #8]
 5663 0008 0192     		str	r2, [sp, #4]
 5664              		.loc 1 1540 0
 5665 000a 0D4B     		ldr	r3, .L422
 5666 000c 1B68     		ldr	r3, [r3]
 5667 000e 0593     		str	r3, [sp, #20]
 5668              		.loc 1 1541 0
 5669 0010 0023     		movs	r3, #0
 5670 0012 8DF81330 		strb	r3, [sp, #19]
 5671              		.loc 1 1544 0
 5672 0016 019A     		ldr	r2, [sp, #4]
 5673 0018 0299     		ldr	r1, [sp, #8]
 5674 001a 0398     		ldr	r0, [sp, #12]
 5675 001c FFF7FEFF 		bl	VL53L0X_get_ref_calibration
 5676 0020 0346     		mov	r3, r0
 5677 0022 8DF81330 		strb	r3, [sp, #19]
 5678              		.loc 1 1547 0
 5679 0026 9DF91330 		ldrsb	r3, [sp, #19]
 5680              		.loc 1 1548 0
 5681 002a 1846     		mov	r0, r3
 5682 002c 044B     		ldr	r3, .L422
 5683 002e 059A     		ldr	r2, [sp, #20]
 5684 0030 1B68     		ldr	r3, [r3]
 5685 0032 9A42     		cmp	r2, r3
 5686 0034 01D0     		beq	.L421
 5687 0036 FFF7FEFF 		bl	__stack_chk_fail
 5688              	.L421:
 5689 003a 07B0     		add	sp, sp, #28
 5690              		.cfi_def_cfa_offset 4
 5691              		@ sp needed
 5692 003c 5DF804FB 		ldr	pc, [sp], #4
 5693              	.L423:
 5694              		.align	2
 5695              	.L422:
 5696 0040 00000000 		.word	__stack_chk_guard
 5697              		.cfi_endproc
 5698              	.LFE56:
 5699              		.size	VL53L0X_GetRefCalibration, .-VL53L0X_GetRefCalibration
 5700              		.section	.text.VL53L0X_GetNumberOfLimitCheck,"ax",%progbits
ARM GAS  C:\Users\PCHAUT~1\AppData\Local\Temp\ccZvjaUR.s 			page 101


 5701              		.align	1
 5702              		.p2align 4,,15
 5703              		.global	VL53L0X_GetNumberOfLimitCheck
 5704              		.syntax unified
 5705              		.thumb
 5706              		.thumb_func
 5707              		.fpu fpv4-sp-d16
 5708              		.type	VL53L0X_GetNumberOfLimitCheck, %function
 5709              	VL53L0X_GetNumberOfLimitCheck:
 5710              	.LFB57:
 5711              		.loc 1 1555 0
 5712              		.cfi_startproc
 5713              		@ args = 0, pretend = 0, frame = 16
 5714              		@ frame_needed = 0, uses_anonymous_args = 0
 5715 0000 00B5     		push	{lr}
 5716              		.cfi_def_cfa_offset 4
 5717              		.cfi_offset 14, -4
 5718 0002 85B0     		sub	sp, sp, #20
 5719              		.cfi_def_cfa_offset 24
 5720 0004 0190     		str	r0, [sp, #4]
 5721              		.loc 1 1555 0
 5722 0006 0B4B     		ldr	r3, .L427
 5723 0008 1B68     		ldr	r3, [r3]
 5724 000a 0393     		str	r3, [sp, #12]
 5725              		.loc 1 1556 0
 5726 000c 0023     		movs	r3, #0
 5727 000e 8DF80B30 		strb	r3, [sp, #11]
 5728              		.loc 1 1559 0
 5729 0012 019B     		ldr	r3, [sp, #4]
 5730 0014 0622     		movs	r2, #6
 5731 0016 1A80     		strh	r2, [r3]	@ movhi
 5732              		.loc 1 1562 0
 5733 0018 9DF90B30 		ldrsb	r3, [sp, #11]
 5734              		.loc 1 1563 0
 5735 001c 1846     		mov	r0, r3
 5736 001e 054B     		ldr	r3, .L427
 5737 0020 039A     		ldr	r2, [sp, #12]
 5738 0022 1B68     		ldr	r3, [r3]
 5739 0024 9A42     		cmp	r2, r3
 5740 0026 01D0     		beq	.L426
 5741 0028 FFF7FEFF 		bl	__stack_chk_fail
 5742              	.L426:
 5743 002c 05B0     		add	sp, sp, #20
 5744              		.cfi_def_cfa_offset 4
 5745              		@ sp needed
 5746 002e 5DF804FB 		ldr	pc, [sp], #4
 5747              	.L428:
 5748 0032 00BF     		.align	2
 5749              	.L427:
 5750 0034 00000000 		.word	__stack_chk_guard
 5751              		.cfi_endproc
 5752              	.LFE57:
 5753              		.size	VL53L0X_GetNumberOfLimitCheck, .-VL53L0X_GetNumberOfLimitCheck
 5754              		.section	.text.VL53L0X_GetLimitCheckInfo,"ax",%progbits
 5755              		.align	1
 5756              		.p2align 4,,15
 5757              		.global	VL53L0X_GetLimitCheckInfo
ARM GAS  C:\Users\PCHAUT~1\AppData\Local\Temp\ccZvjaUR.s 			page 102


 5758              		.syntax unified
 5759              		.thumb
 5760              		.thumb_func
 5761              		.fpu fpv4-sp-d16
 5762              		.type	VL53L0X_GetLimitCheckInfo, %function
 5763              	VL53L0X_GetLimitCheckInfo:
 5764              	.LFB58:
 5765              		.loc 1 1567 0
 5766              		.cfi_startproc
 5767              		@ args = 0, pretend = 0, frame = 24
 5768              		@ frame_needed = 0, uses_anonymous_args = 0
 5769 0000 00B5     		push	{lr}
 5770              		.cfi_def_cfa_offset 4
 5771              		.cfi_offset 14, -4
 5772 0002 87B0     		sub	sp, sp, #28
 5773              		.cfi_def_cfa_offset 32
 5774 0004 0390     		str	r0, [sp, #12]
 5775 0006 0B46     		mov	r3, r1
 5776 0008 0192     		str	r2, [sp, #4]
 5777 000a ADF80A30 		strh	r3, [sp, #10]	@ movhi
 5778              		.loc 1 1567 0
 5779 000e 0E4B     		ldr	r3, .L432
 5780 0010 1B68     		ldr	r3, [r3]
 5781 0012 0593     		str	r3, [sp, #20]
 5782              		.loc 1 1568 0
 5783 0014 0023     		movs	r3, #0
 5784 0016 8DF81330 		strb	r3, [sp, #19]
 5785              		.loc 1 1572 0
 5786 001a BDF80A30 		ldrh	r3, [sp, #10]
 5787 001e 019A     		ldr	r2, [sp, #4]
 5788 0020 1946     		mov	r1, r3
 5789 0022 0398     		ldr	r0, [sp, #12]
 5790 0024 FFF7FEFF 		bl	VL53L0X_get_limit_check_info
 5791 0028 0346     		mov	r3, r0
 5792 002a 8DF81330 		strb	r3, [sp, #19]
 5793              		.loc 1 1576 0
 5794 002e 9DF91330 		ldrsb	r3, [sp, #19]
 5795              		.loc 1 1577 0
 5796 0032 1846     		mov	r0, r3
 5797 0034 044B     		ldr	r3, .L432
 5798 0036 059A     		ldr	r2, [sp, #20]
 5799 0038 1B68     		ldr	r3, [r3]
 5800 003a 9A42     		cmp	r2, r3
 5801 003c 01D0     		beq	.L431
 5802 003e FFF7FEFF 		bl	__stack_chk_fail
 5803              	.L431:
 5804 0042 07B0     		add	sp, sp, #28
 5805              		.cfi_def_cfa_offset 4
 5806              		@ sp needed
 5807 0044 5DF804FB 		ldr	pc, [sp], #4
 5808              	.L433:
 5809              		.align	2
 5810              	.L432:
 5811 0048 00000000 		.word	__stack_chk_guard
 5812              		.cfi_endproc
 5813              	.LFE58:
 5814              		.size	VL53L0X_GetLimitCheckInfo, .-VL53L0X_GetLimitCheckInfo
ARM GAS  C:\Users\PCHAUT~1\AppData\Local\Temp\ccZvjaUR.s 			page 103


 5815              		.section	.text.VL53L0X_GetLimitCheckStatus,"ax",%progbits
 5816              		.align	1
 5817              		.p2align 4,,15
 5818              		.global	VL53L0X_GetLimitCheckStatus
 5819              		.syntax unified
 5820              		.thumb
 5821              		.thumb_func
 5822              		.fpu fpv4-sp-d16
 5823              		.type	VL53L0X_GetLimitCheckStatus, %function
 5824              	VL53L0X_GetLimitCheckStatus:
 5825              	.LFB59:
 5826              		.loc 1 1581 0
 5827              		.cfi_startproc
 5828              		@ args = 0, pretend = 0, frame = 24
 5829              		@ frame_needed = 0, uses_anonymous_args = 0
 5830 0000 00B5     		push	{lr}
 5831              		.cfi_def_cfa_offset 4
 5832              		.cfi_offset 14, -4
 5833 0002 87B0     		sub	sp, sp, #28
 5834              		.cfi_def_cfa_offset 32
 5835 0004 0390     		str	r0, [sp, #12]
 5836 0006 0B46     		mov	r3, r1
 5837 0008 0192     		str	r2, [sp, #4]
 5838 000a ADF80A30 		strh	r3, [sp, #10]	@ movhi
 5839              		.loc 1 1581 0
 5840 000e 134B     		ldr	r3, .L439
 5841 0010 1B68     		ldr	r3, [r3]
 5842 0012 0593     		str	r3, [sp, #20]
 5843              		.loc 1 1582 0
 5844 0014 0023     		movs	r3, #0
 5845 0016 8DF81230 		strb	r3, [sp, #18]
 5846              		.loc 1 1587 0
 5847 001a BDF80A30 		ldrh	r3, [sp, #10]
 5848 001e 052B     		cmp	r3, #5
 5849 0020 03D9     		bls	.L435
 5850              		.loc 1 1588 0
 5851 0022 FC23     		movs	r3, #252
 5852 0024 8DF81230 		strb	r3, [sp, #18]
 5853 0028 0BE0     		b	.L436
 5854              	.L435:
 5855              		.loc 1 1591 0
 5856 002a BDF80A30 		ldrh	r3, [sp, #10]
 5857 002e 039A     		ldr	r2, [sp, #12]
 5858 0030 1344     		add	r3, r3, r2
 5859 0032 93F82E30 		ldrb	r3, [r3, #46]
 5860 0036 8DF81330 		strb	r3, [sp, #19]
 5861              		.loc 1 1594 0
 5862 003a 019B     		ldr	r3, [sp, #4]
 5863 003c 9DF81320 		ldrb	r2, [sp, #19]
 5864 0040 1A70     		strb	r2, [r3]
 5865              	.L436:
 5866              		.loc 1 1599 0
 5867 0042 9DF91230 		ldrsb	r3, [sp, #18]
 5868              		.loc 1 1600 0
 5869 0046 1846     		mov	r0, r3
 5870 0048 044B     		ldr	r3, .L439
 5871 004a 059A     		ldr	r2, [sp, #20]
ARM GAS  C:\Users\PCHAUT~1\AppData\Local\Temp\ccZvjaUR.s 			page 104


 5872 004c 1B68     		ldr	r3, [r3]
 5873 004e 9A42     		cmp	r2, r3
 5874 0050 01D0     		beq	.L438
 5875 0052 FFF7FEFF 		bl	__stack_chk_fail
 5876              	.L438:
 5877 0056 07B0     		add	sp, sp, #28
 5878              		.cfi_def_cfa_offset 4
 5879              		@ sp needed
 5880 0058 5DF804FB 		ldr	pc, [sp], #4
 5881              	.L440:
 5882              		.align	2
 5883              	.L439:
 5884 005c 00000000 		.word	__stack_chk_guard
 5885              		.cfi_endproc
 5886              	.LFE59:
 5887              		.size	VL53L0X_GetLimitCheckStatus, .-VL53L0X_GetLimitCheckStatus
 5888              		.section	.text.VL53L0X_SetLimitCheckEnable,"ax",%progbits
 5889              		.align	1
 5890              		.p2align 4,,15
 5891              		.global	VL53L0X_SetLimitCheckEnable
 5892              		.syntax unified
 5893              		.thumb
 5894              		.thumb_func
 5895              		.fpu fpv4-sp-d16
 5896              		.type	VL53L0X_SetLimitCheckEnable, %function
 5897              	VL53L0X_SetLimitCheckEnable:
 5898              	.LFB60:
 5899              		.loc 1 1604 0
 5900              		.cfi_startproc
 5901              		@ args = 0, pretend = 0, frame = 24
 5902              		@ frame_needed = 0, uses_anonymous_args = 0
 5903 0000 00B5     		push	{lr}
 5904              		.cfi_def_cfa_offset 4
 5905              		.cfi_offset 14, -4
 5906 0002 87B0     		sub	sp, sp, #28
 5907              		.cfi_def_cfa_offset 32
 5908 0004 0190     		str	r0, [sp, #4]
 5909 0006 0B46     		mov	r3, r1
 5910 0008 ADF80230 		strh	r3, [sp, #2]	@ movhi
 5911 000c 1346     		mov	r3, r2
 5912 000e 8DF80130 		strb	r3, [sp, #1]
 5913              		.loc 1 1604 0
 5914 0012 554B     		ldr	r3, .L458
 5915 0014 1B68     		ldr	r3, [r3]
 5916 0016 0593     		str	r3, [sp, #20]
 5917              		.loc 1 1605 0
 5918 0018 0023     		movs	r3, #0
 5919 001a 8DF80C30 		strb	r3, [sp, #12]
 5920              		.loc 1 1606 0
 5921 001e 0023     		movs	r3, #0
 5922 0020 0493     		str	r3, [sp, #16]
 5923              		.loc 1 1607 0
 5924 0022 0023     		movs	r3, #0
 5925 0024 8DF80D30 		strb	r3, [sp, #13]
 5926              		.loc 1 1608 0
 5927 0028 0023     		movs	r3, #0
 5928 002a 8DF80E30 		strb	r3, [sp, #14]
ARM GAS  C:\Users\PCHAUT~1\AppData\Local\Temp\ccZvjaUR.s 			page 105


 5929              		.loc 1 1613 0
 5930 002e BDF80230 		ldrh	r3, [sp, #2]
 5931 0032 052B     		cmp	r3, #5
 5932 0034 03D9     		bls	.L442
 5933              		.loc 1 1614 0
 5934 0036 FC23     		movs	r3, #252
 5935 0038 8DF80C30 		strb	r3, [sp, #12]
 5936 003c 6FE0     		b	.L443
 5937              	.L442:
 5938              		.loc 1 1616 0
 5939 003e 9DF80130 		ldrb	r3, [sp, #1]	@ zero_extendqisi2
 5940 0042 002B     		cmp	r3, #0
 5941 0044 08D1     		bne	.L444
 5942              		.loc 1 1617 0
 5943 0046 0023     		movs	r3, #0
 5944 0048 0493     		str	r3, [sp, #16]
 5945              		.loc 1 1618 0
 5946 004a 0023     		movs	r3, #0
 5947 004c 8DF80D30 		strb	r3, [sp, #13]
 5948              		.loc 1 1619 0
 5949 0050 0123     		movs	r3, #1
 5950 0052 8DF80E30 		strb	r3, [sp, #14]
 5951 0056 0DE0     		b	.L445
 5952              	.L444:
 5953              		.loc 1 1622 0
 5954 0058 BDF80230 		ldrh	r3, [sp, #2]
 5955 005c 019A     		ldr	r2, [sp, #4]
 5956 005e 0C33     		adds	r3, r3, #12
 5957 0060 9B00     		lsls	r3, r3, #2
 5958 0062 1344     		add	r3, r3, r2
 5959 0064 5B68     		ldr	r3, [r3, #4]
 5960 0066 0493     		str	r3, [sp, #16]
 5961              		.loc 1 1624 0
 5962 0068 0023     		movs	r3, #0
 5963 006a 8DF80E30 		strb	r3, [sp, #14]
 5964              		.loc 1 1626 0
 5965 006e 0123     		movs	r3, #1
 5966 0070 8DF80D30 		strb	r3, [sp, #13]
 5967              	.L445:
 5968              		.loc 1 1629 0
 5969 0074 BDF80230 		ldrh	r3, [sp, #2]
 5970 0078 052B     		cmp	r3, #5
 5971 007a 4DD8     		bhi	.L446
 5972 007c 01A2     		adr	r2, .L448
 5973 007e 52F823F0 		ldr	pc, [r2, r3, lsl #2]
 5974 0082 00BF     		.p2align 2
 5975              	.L448:
 5976 0084 9D000000 		.word	.L447+1
 5977 0088 A9000000 		.word	.L449+1
 5978 008c C1000000 		.word	.L450+1
 5979 0090 CD000000 		.word	.L451+1
 5980 0094 D9000000 		.word	.L452+1
 5981 0098 F9000000 		.word	.L453+1
 5982              		.p2align 1
 5983              	.L447:
 5984              		.loc 1 1633 0
 5985 009c 019B     		ldr	r3, [sp, #4]
ARM GAS  C:\Users\PCHAUT~1\AppData\Local\Temp\ccZvjaUR.s 			page 106


 5986 009e 9DF80D20 		ldrb	r2, [sp, #13]
 5987 00a2 83F82820 		strb	r2, [r3, #40]
 5988              		.loc 1 1637 0
 5989 00a6 3AE0     		b	.L443
 5990              	.L449:
 5991              		.loc 1 1643 0
 5992 00a8 049B     		ldr	r3, [sp, #16]
 5993 00aa 5B0A     		lsrs	r3, r3, #9
 5994              		.loc 1 1641 0
 5995 00ac 9BB2     		uxth	r3, r3
 5996 00ae 1A46     		mov	r2, r3
 5997 00b0 4421     		movs	r1, #68
 5998 00b2 0198     		ldr	r0, [sp, #4]
 5999 00b4 FFF7FEFF 		bl	VL53L0X_WrWord
 6000 00b8 0346     		mov	r3, r0
 6001 00ba 8DF80C30 		strb	r3, [sp, #12]
 6002              		.loc 1 1645 0
 6003 00be 2EE0     		b	.L443
 6004              	.L450:
 6005              		.loc 1 1650 0
 6006 00c0 019B     		ldr	r3, [sp, #4]
 6007 00c2 9DF80D20 		ldrb	r2, [sp, #13]
 6008 00c6 83F82A20 		strb	r2, [r3, #42]
 6009              		.loc 1 1654 0
 6010 00ca 28E0     		b	.L443
 6011              	.L451:
 6012              		.loc 1 1659 0
 6013 00cc 019B     		ldr	r3, [sp, #4]
 6014 00ce 9DF80D20 		ldrb	r2, [sp, #13]
 6015 00d2 83F82B20 		strb	r2, [r3, #43]
 6016              		.loc 1 1663 0
 6017 00d6 22E0     		b	.L443
 6018              	.L452:
 6019              		.loc 1 1667 0
 6020 00d8 9DF80E30 		ldrb	r3, [sp, #14]
 6021 00dc 5B00     		lsls	r3, r3, #1
 6022 00de 8DF80F30 		strb	r3, [sp, #15]
 6023              		.loc 1 1668 0
 6024 00e2 9DF80F30 		ldrb	r3, [sp, #15]	@ zero_extendqisi2
 6025 00e6 FE22     		movs	r2, #254
 6026 00e8 6021     		movs	r1, #96
 6027 00ea 0198     		ldr	r0, [sp, #4]
 6028 00ec FFF7FEFF 		bl	VL53L0X_UpdateByte
 6029 00f0 0346     		mov	r3, r0
 6030 00f2 8DF80C30 		strb	r3, [sp, #12]
 6031              		.loc 1 1672 0
 6032 00f6 12E0     		b	.L443
 6033              	.L453:
 6034              		.loc 1 1676 0
 6035 00f8 9DF80E30 		ldrb	r3, [sp, #14]
 6036 00fc 1B01     		lsls	r3, r3, #4
 6037 00fe 8DF80F30 		strb	r3, [sp, #15]
 6038              		.loc 1 1677 0
 6039 0102 9DF80F30 		ldrb	r3, [sp, #15]	@ zero_extendqisi2
 6040 0106 EF22     		movs	r2, #239
 6041 0108 6021     		movs	r1, #96
 6042 010a 0198     		ldr	r0, [sp, #4]
ARM GAS  C:\Users\PCHAUT~1\AppData\Local\Temp\ccZvjaUR.s 			page 107


 6043 010c FFF7FEFF 		bl	VL53L0X_UpdateByte
 6044 0110 0346     		mov	r3, r0
 6045 0112 8DF80C30 		strb	r3, [sp, #12]
 6046              		.loc 1 1681 0
 6047 0116 02E0     		b	.L443
 6048              	.L446:
 6049              		.loc 1 1685 0
 6050 0118 FC23     		movs	r3, #252
 6051 011a 8DF80C30 		strb	r3, [sp, #12]
 6052              	.L443:
 6053              		.loc 1 1691 0
 6054 011e 9DF90C30 		ldrsb	r3, [sp, #12]
 6055 0122 002B     		cmp	r3, #0
 6056 0124 12D1     		bne	.L454
 6057              		.loc 1 1692 0
 6058 0126 9DF80130 		ldrb	r3, [sp, #1]	@ zero_extendqisi2
 6059 012a 002B     		cmp	r3, #0
 6060 012c 07D1     		bne	.L455
 6061              		.loc 1 1693 0
 6062 012e BDF80230 		ldrh	r3, [sp, #2]
 6063 0132 019A     		ldr	r2, [sp, #4]
 6064 0134 1344     		add	r3, r3, r2
 6065 0136 0022     		movs	r2, #0
 6066 0138 83F82820 		strb	r2, [r3, #40]
 6067 013c 06E0     		b	.L454
 6068              	.L455:
 6069              		.loc 1 1696 0
 6070 013e BDF80230 		ldrh	r3, [sp, #2]
 6071 0142 019A     		ldr	r2, [sp, #4]
 6072 0144 1344     		add	r3, r3, r2
 6073 0146 0122     		movs	r2, #1
 6074 0148 83F82820 		strb	r2, [r3, #40]
 6075              	.L454:
 6076              		.loc 1 1702 0
 6077 014c 9DF90C30 		ldrsb	r3, [sp, #12]
 6078              		.loc 1 1703 0
 6079 0150 1846     		mov	r0, r3
 6080 0152 054B     		ldr	r3, .L458
 6081 0154 059A     		ldr	r2, [sp, #20]
 6082 0156 1B68     		ldr	r3, [r3]
 6083 0158 9A42     		cmp	r2, r3
 6084 015a 01D0     		beq	.L457
 6085 015c FFF7FEFF 		bl	__stack_chk_fail
 6086              	.L457:
 6087 0160 07B0     		add	sp, sp, #28
 6088              		.cfi_def_cfa_offset 4
 6089              		@ sp needed
 6090 0162 5DF804FB 		ldr	pc, [sp], #4
 6091              	.L459:
 6092 0166 00BF     		.align	2
 6093              	.L458:
 6094 0168 00000000 		.word	__stack_chk_guard
 6095              		.cfi_endproc
 6096              	.LFE60:
 6097              		.size	VL53L0X_SetLimitCheckEnable, .-VL53L0X_SetLimitCheckEnable
 6098              		.section	.text.VL53L0X_GetLimitCheckEnable,"ax",%progbits
 6099              		.align	1
ARM GAS  C:\Users\PCHAUT~1\AppData\Local\Temp\ccZvjaUR.s 			page 108


 6100              		.p2align 4,,15
 6101              		.global	VL53L0X_GetLimitCheckEnable
 6102              		.syntax unified
 6103              		.thumb
 6104              		.thumb_func
 6105              		.fpu fpv4-sp-d16
 6106              		.type	VL53L0X_GetLimitCheckEnable, %function
 6107              	VL53L0X_GetLimitCheckEnable:
 6108              	.LFB61:
 6109              		.loc 1 1707 0
 6110              		.cfi_startproc
 6111              		@ args = 0, pretend = 0, frame = 24
 6112              		@ frame_needed = 0, uses_anonymous_args = 0
 6113 0000 00B5     		push	{lr}
 6114              		.cfi_def_cfa_offset 4
 6115              		.cfi_offset 14, -4
 6116 0002 87B0     		sub	sp, sp, #28
 6117              		.cfi_def_cfa_offset 32
 6118 0004 0390     		str	r0, [sp, #12]
 6119 0006 0B46     		mov	r3, r1
 6120 0008 0192     		str	r2, [sp, #4]
 6121 000a ADF80A30 		strh	r3, [sp, #10]	@ movhi
 6122              		.loc 1 1707 0
 6123 000e 154B     		ldr	r3, .L465
 6124 0010 1B68     		ldr	r3, [r3]
 6125 0012 0593     		str	r3, [sp, #20]
 6126              		.loc 1 1708 0
 6127 0014 0023     		movs	r3, #0
 6128 0016 8DF81230 		strb	r3, [sp, #18]
 6129              		.loc 1 1713 0
 6130 001a BDF80A30 		ldrh	r3, [sp, #10]
 6131 001e 052B     		cmp	r3, #5
 6132 0020 06D9     		bls	.L461
 6133              		.loc 1 1714 0
 6134 0022 FC23     		movs	r3, #252
 6135 0024 8DF81230 		strb	r3, [sp, #18]
 6136              		.loc 1 1715 0
 6137 0028 019B     		ldr	r3, [sp, #4]
 6138 002a 0022     		movs	r2, #0
 6139 002c 1A70     		strb	r2, [r3]
 6140 002e 0BE0     		b	.L462
 6141              	.L461:
 6142              		.loc 1 1717 0
 6143 0030 BDF80A30 		ldrh	r3, [sp, #10]
 6144 0034 039A     		ldr	r2, [sp, #12]
 6145 0036 1344     		add	r3, r3, r2
 6146 0038 93F82830 		ldrb	r3, [r3, #40]
 6147 003c 8DF81330 		strb	r3, [sp, #19]
 6148              		.loc 1 1719 0
 6149 0040 019B     		ldr	r3, [sp, #4]
 6150 0042 9DF81320 		ldrb	r2, [sp, #19]
 6151 0046 1A70     		strb	r2, [r3]
 6152              	.L462:
 6153              		.loc 1 1723 0
 6154 0048 9DF91230 		ldrsb	r3, [sp, #18]
 6155              		.loc 1 1724 0
 6156 004c 1846     		mov	r0, r3
ARM GAS  C:\Users\PCHAUT~1\AppData\Local\Temp\ccZvjaUR.s 			page 109


 6157 004e 054B     		ldr	r3, .L465
 6158 0050 059A     		ldr	r2, [sp, #20]
 6159 0052 1B68     		ldr	r3, [r3]
 6160 0054 9A42     		cmp	r2, r3
 6161 0056 01D0     		beq	.L464
 6162 0058 FFF7FEFF 		bl	__stack_chk_fail
 6163              	.L464:
 6164 005c 07B0     		add	sp, sp, #28
 6165              		.cfi_def_cfa_offset 4
 6166              		@ sp needed
 6167 005e 5DF804FB 		ldr	pc, [sp], #4
 6168              	.L466:
 6169 0062 00BF     		.align	2
 6170              	.L465:
 6171 0064 00000000 		.word	__stack_chk_guard
 6172              		.cfi_endproc
 6173              	.LFE61:
 6174              		.size	VL53L0X_GetLimitCheckEnable, .-VL53L0X_GetLimitCheckEnable
 6175              		.section	.text.VL53L0X_SetLimitCheckValue,"ax",%progbits
 6176              		.align	1
 6177              		.p2align 4,,15
 6178              		.global	VL53L0X_SetLimitCheckValue
 6179              		.syntax unified
 6180              		.thumb
 6181              		.thumb_func
 6182              		.fpu fpv4-sp-d16
 6183              		.type	VL53L0X_SetLimitCheckValue, %function
 6184              	VL53L0X_SetLimitCheckValue:
 6185              	.LFB62:
 6186              		.loc 1 1728 0
 6187              		.cfi_startproc
 6188              		@ args = 0, pretend = 0, frame = 24
 6189              		@ frame_needed = 0, uses_anonymous_args = 0
 6190 0000 00B5     		push	{lr}
 6191              		.cfi_def_cfa_offset 4
 6192              		.cfi_offset 14, -4
 6193 0002 87B0     		sub	sp, sp, #28
 6194              		.cfi_def_cfa_offset 32
 6195 0004 0390     		str	r0, [sp, #12]
 6196 0006 0B46     		mov	r3, r1
 6197 0008 0192     		str	r2, [sp, #4]
 6198 000a ADF80A30 		strh	r3, [sp, #10]	@ movhi
 6199              		.loc 1 1728 0
 6200 000e 374B     		ldr	r3, .L480
 6201 0010 1B68     		ldr	r3, [r3]
 6202 0012 0593     		str	r3, [sp, #20]
 6203              		.loc 1 1729 0
 6204 0014 0023     		movs	r3, #0
 6205 0016 8DF81230 		strb	r3, [sp, #18]
 6206              		.loc 1 1734 0
 6207 001a BDF80A30 		ldrh	r3, [sp, #10]
 6208 001e 039A     		ldr	r2, [sp, #12]
 6209 0020 1344     		add	r3, r3, r2
 6210 0022 93F82830 		ldrb	r3, [r3, #40]
 6211 0026 8DF81330 		strb	r3, [sp, #19]
 6212              		.loc 1 1737 0
 6213 002a 9DF81330 		ldrb	r3, [sp, #19]	@ zero_extendqisi2
ARM GAS  C:\Users\PCHAUT~1\AppData\Local\Temp\ccZvjaUR.s 			page 110


 6214 002e 002B     		cmp	r3, #0
 6215 0030 08D1     		bne	.L468
 6216              		.loc 1 1738 0
 6217 0032 BDF80A30 		ldrh	r3, [sp, #10]
 6218 0036 039A     		ldr	r2, [sp, #12]
 6219 0038 0C33     		adds	r3, r3, #12
 6220 003a 9B00     		lsls	r3, r3, #2
 6221 003c 1344     		add	r3, r3, r2
 6222 003e 019A     		ldr	r2, [sp, #4]
 6223 0040 5A60     		str	r2, [r3, #4]
 6224 0042 46E0     		b	.L469
 6225              	.L468:
 6226              		.loc 1 1742 0
 6227 0044 BDF80A30 		ldrh	r3, [sp, #10]
 6228 0048 052B     		cmp	r3, #5
 6229 004a 33D8     		bhi	.L470
 6230 004c 01A2     		adr	r2, .L472
 6231 004e 52F823F0 		ldr	pc, [r2, r3, lsl #2]
 6232 0052 00BF     		.p2align 2
 6233              	.L472:
 6234 0054 6D000000 		.word	.L471+1
 6235 0058 75000000 		.word	.L473+1
 6236 005c 8D000000 		.word	.L474+1
 6237 0060 95000000 		.word	.L475+1
 6238 0064 9D000000 		.word	.L476+1
 6239 0068 9D000000 		.word	.L476+1
 6240              		.p2align 1
 6241              	.L471:
 6242              		.loc 1 1746 0
 6243 006c 039B     		ldr	r3, [sp, #12]
 6244 006e 019A     		ldr	r2, [sp, #4]
 6245 0070 5A63     		str	r2, [r3, #52]
 6246              		.loc 1 1749 0
 6247 0072 22E0     		b	.L477
 6248              	.L473:
 6249              		.loc 1 1755 0
 6250 0074 019B     		ldr	r3, [sp, #4]
 6251 0076 5B0A     		lsrs	r3, r3, #9
 6252              		.loc 1 1753 0
 6253 0078 9BB2     		uxth	r3, r3
 6254 007a 1A46     		mov	r2, r3
 6255 007c 4421     		movs	r1, #68
 6256 007e 0398     		ldr	r0, [sp, #12]
 6257 0080 FFF7FEFF 		bl	VL53L0X_WrWord
 6258 0084 0346     		mov	r3, r0
 6259 0086 8DF81230 		strb	r3, [sp, #18]
 6260              		.loc 1 1758 0
 6261 008a 16E0     		b	.L477
 6262              	.L474:
 6263              		.loc 1 1763 0
 6264 008c 039B     		ldr	r3, [sp, #12]
 6265 008e 019A     		ldr	r2, [sp, #4]
 6266 0090 DA63     		str	r2, [r3, #60]
 6267              		.loc 1 1767 0
 6268 0092 12E0     		b	.L477
 6269              	.L475:
 6270              		.loc 1 1772 0
ARM GAS  C:\Users\PCHAUT~1\AppData\Local\Temp\ccZvjaUR.s 			page 111


 6271 0094 039B     		ldr	r3, [sp, #12]
 6272 0096 019A     		ldr	r2, [sp, #4]
 6273 0098 1A64     		str	r2, [r3, #64]
 6274              		.loc 1 1776 0
 6275 009a 0EE0     		b	.L477
 6276              	.L476:
 6277              		.loc 1 1783 0
 6278 009c 019B     		ldr	r3, [sp, #4]
 6279 009e 5B0A     		lsrs	r3, r3, #9
 6280              		.loc 1 1781 0
 6281 00a0 9BB2     		uxth	r3, r3
 6282 00a2 1A46     		mov	r2, r3
 6283 00a4 6421     		movs	r1, #100
 6284 00a6 0398     		ldr	r0, [sp, #12]
 6285 00a8 FFF7FEFF 		bl	VL53L0X_WrWord
 6286 00ac 0346     		mov	r3, r0
 6287 00ae 8DF81230 		strb	r3, [sp, #18]
 6288              		.loc 1 1786 0
 6289 00b2 02E0     		b	.L477
 6290              	.L470:
 6291              		.loc 1 1789 0
 6292 00b4 FC23     		movs	r3, #252
 6293 00b6 8DF81230 		strb	r3, [sp, #18]
 6294              	.L477:
 6295              		.loc 1 1793 0
 6296 00ba 9DF91230 		ldrsb	r3, [sp, #18]
 6297 00be 002B     		cmp	r3, #0
 6298 00c0 07D1     		bne	.L469
 6299              		.loc 1 1794 0
 6300 00c2 BDF80A30 		ldrh	r3, [sp, #10]
 6301 00c6 039A     		ldr	r2, [sp, #12]
 6302 00c8 0C33     		adds	r3, r3, #12
 6303 00ca 9B00     		lsls	r3, r3, #2
 6304 00cc 1344     		add	r3, r3, r2
 6305 00ce 019A     		ldr	r2, [sp, #4]
 6306 00d0 5A60     		str	r2, [r3, #4]
 6307              	.L469:
 6308              		.loc 1 1800 0
 6309 00d2 9DF91230 		ldrsb	r3, [sp, #18]
 6310              		.loc 1 1801 0
 6311 00d6 1846     		mov	r0, r3
 6312 00d8 044B     		ldr	r3, .L480
 6313 00da 059A     		ldr	r2, [sp, #20]
 6314 00dc 1B68     		ldr	r3, [r3]
 6315 00de 9A42     		cmp	r2, r3
 6316 00e0 01D0     		beq	.L479
 6317 00e2 FFF7FEFF 		bl	__stack_chk_fail
 6318              	.L479:
 6319 00e6 07B0     		add	sp, sp, #28
 6320              		.cfi_def_cfa_offset 4
 6321              		@ sp needed
 6322 00e8 5DF804FB 		ldr	pc, [sp], #4
 6323              	.L481:
 6324              		.align	2
 6325              	.L480:
 6326 00ec 00000000 		.word	__stack_chk_guard
 6327              		.cfi_endproc
ARM GAS  C:\Users\PCHAUT~1\AppData\Local\Temp\ccZvjaUR.s 			page 112


 6328              	.LFE62:
 6329              		.size	VL53L0X_SetLimitCheckValue, .-VL53L0X_SetLimitCheckValue
 6330              		.section	.text.VL53L0X_GetLimitCheckValue,"ax",%progbits
 6331              		.align	1
 6332              		.p2align 4,,15
 6333              		.global	VL53L0X_GetLimitCheckValue
 6334              		.syntax unified
 6335              		.thumb
 6336              		.thumb_func
 6337              		.fpu fpv4-sp-d16
 6338              		.type	VL53L0X_GetLimitCheckValue, %function
 6339              	VL53L0X_GetLimitCheckValue:
 6340              	.LFB63:
 6341              		.loc 1 1805 0
 6342              		.cfi_startproc
 6343              		@ args = 0, pretend = 0, frame = 32
 6344              		@ frame_needed = 0, uses_anonymous_args = 0
 6345 0000 00B5     		push	{lr}
 6346              		.cfi_def_cfa_offset 4
 6347              		.cfi_offset 14, -4
 6348 0002 89B0     		sub	sp, sp, #36
 6349              		.cfi_def_cfa_offset 40
 6350 0004 0390     		str	r0, [sp, #12]
 6351 0006 0B46     		mov	r3, r1
 6352 0008 0192     		str	r2, [sp, #4]
 6353 000a ADF80A30 		strh	r3, [sp, #10]	@ movhi
 6354              		.loc 1 1805 0
 6355 000e 514B     		ldr	r3, .L499
 6356 0010 1B68     		ldr	r3, [r3]
 6357 0012 0793     		str	r3, [sp, #28]
 6358              		.loc 1 1806 0
 6359 0014 0023     		movs	r3, #0
 6360 0016 8DF81430 		strb	r3, [sp, #20]
 6361              		.loc 1 1807 0
 6362 001a 0023     		movs	r3, #0
 6363 001c 8DF81530 		strb	r3, [sp, #21]
 6364              		.loc 1 1813 0
 6365 0020 BDF80A30 		ldrh	r3, [sp, #10]
 6366 0024 052B     		cmp	r3, #5
 6367 0026 50D8     		bhi	.L483
 6368 0028 01A2     		adr	r2, .L485
 6369 002a 52F823F0 		ldr	pc, [r2, r3, lsl #2]
 6370 002e 00BF     		.p2align 2
 6371              	.L485:
 6372 0030 49000000 		.word	.L484+1
 6373 0034 57000000 		.word	.L486+1
 6374 0038 83000000 		.word	.L487+1
 6375 003c 91000000 		.word	.L488+1
 6376 0040 9F000000 		.word	.L489+1
 6377 0044 9F000000 		.word	.L489+1
 6378              		.p2align 1
 6379              	.L484:
 6380              		.loc 1 1817 0
 6381 0048 039B     		ldr	r3, [sp, #12]
 6382 004a 5B6B     		ldr	r3, [r3, #52]
 6383 004c 0693     		str	r3, [sp, #24]
 6384              		.loc 1 1819 0
ARM GAS  C:\Users\PCHAUT~1\AppData\Local\Temp\ccZvjaUR.s 			page 113


 6385 004e 0023     		movs	r3, #0
 6386 0050 8DF81530 		strb	r3, [sp, #21]
 6387              		.loc 1 1820 0
 6388 0054 3CE0     		b	.L490
 6389              	.L486:
 6390              		.loc 1 1823 0
 6391 0056 0DF11603 		add	r3, sp, #22
 6392 005a 1A46     		mov	r2, r3
 6393 005c 4421     		movs	r1, #68
 6394 005e 0398     		ldr	r0, [sp, #12]
 6395 0060 FFF7FEFF 		bl	VL53L0X_RdWord
 6396 0064 0346     		mov	r3, r0
 6397 0066 8DF81430 		strb	r3, [sp, #20]
 6398              		.loc 1 1826 0
 6399 006a 9DF91430 		ldrsb	r3, [sp, #20]
 6400 006e 002B     		cmp	r3, #0
 6401 0070 03D1     		bne	.L491
 6402              		.loc 1 1827 0
 6403 0072 BDF81630 		ldrh	r3, [sp, #22]
 6404 0076 5B02     		lsls	r3, r3, #9
 6405 0078 0693     		str	r3, [sp, #24]
 6406              	.L491:
 6407              		.loc 1 1830 0
 6408 007a 0123     		movs	r3, #1
 6409 007c 8DF81530 		strb	r3, [sp, #21]
 6410              		.loc 1 1831 0
 6411 0080 26E0     		b	.L490
 6412              	.L487:
 6413              		.loc 1 1835 0
 6414 0082 039B     		ldr	r3, [sp, #12]
 6415 0084 DB6B     		ldr	r3, [r3, #60]
 6416 0086 0693     		str	r3, [sp, #24]
 6417              		.loc 1 1837 0
 6418 0088 0023     		movs	r3, #0
 6419 008a 8DF81530 		strb	r3, [sp, #21]
 6420              		.loc 1 1838 0
 6421 008e 1FE0     		b	.L490
 6422              	.L488:
 6423              		.loc 1 1842 0
 6424 0090 039B     		ldr	r3, [sp, #12]
 6425 0092 1B6C     		ldr	r3, [r3, #64]
 6426 0094 0693     		str	r3, [sp, #24]
 6427              		.loc 1 1844 0
 6428 0096 0023     		movs	r3, #0
 6429 0098 8DF81530 		strb	r3, [sp, #21]
 6430              		.loc 1 1845 0
 6431 009c 18E0     		b	.L490
 6432              	.L489:
 6433              		.loc 1 1849 0
 6434 009e 0DF11603 		add	r3, sp, #22
 6435 00a2 1A46     		mov	r2, r3
 6436 00a4 6421     		movs	r1, #100
 6437 00a6 0398     		ldr	r0, [sp, #12]
