ARM GAS  C:\Users\PCHAUT~1\AppData\Local\Temp\cct0c6Vd.s 			page 1


   1              		.cpu cortex-m4
   2              		.eabi_attribute 27, 1
   3              		.eabi_attribute 28, 1
   4              		.eabi_attribute 20, 1
   5              		.eabi_attribute 21, 1
   6              		.eabi_attribute 23, 3
   7              		.eabi_attribute 24, 1
   8              		.eabi_attribute 25, 1
   9              		.eabi_attribute 26, 1
  10              		.eabi_attribute 30, 6
  11              		.eabi_attribute 34, 1
  12              		.eabi_attribute 18, 4
  13              		.file	"vl53l0x_api_strings.c"
  14              		.text
  15              	.Ltext0:
  16              		.cfi_sections	.debug_frame
  17              		.section	.text.VL53L0X_check_part_used,"ax",%progbits
  18              		.align	1
  19              		.p2align 4,,15
  20              		.global	VL53L0X_check_part_used
  21              		.syntax unified
  22              		.thumb
  23              		.thumb_func
  24              		.fpu fpv4-sp-d16
  25              		.type	VL53L0X_check_part_used, %function
  26              	VL53L0X_check_part_used:
  27              	.LFB3:
  28              		.file 1 "../lib/e-puck2_main-processor/src/sensors/VL53L0X/Api/core/src/vl53l0x_api_strings.c"
  29              		.loc 1 48 0
  30              		.cfi_startproc
  31              		@ args = 0, pretend = 0, frame = 32
  32              		@ frame_needed = 0, uses_anonymous_args = 0
  33 0000 00B5     		push	{lr}
  34              		.cfi_def_cfa_offset 4
  35              		.cfi_offset 14, -4
  36 0002 89B0     		sub	sp, sp, #36
  37              		.cfi_def_cfa_offset 40
  38 0004 0390     		str	r0, [sp, #12]
  39 0006 0291     		str	r1, [sp, #8]
  40 0008 0192     		str	r2, [sp, #4]
  41              		.loc 1 48 0
  42 000a 1E4B     		ldr	r3, .L6
  43 000c 1B68     		ldr	r3, [r3]
  44 000e 0793     		str	r3, [sp, #28]
  45              		.loc 1 49 0
  46 0010 0023     		movs	r3, #0
  47 0012 8DF81630 		strb	r3, [sp, #22]
  48              		.loc 1 55 0
  49 0016 0221     		movs	r1, #2
  50 0018 0398     		ldr	r0, [sp, #12]
  51 001a FFF7FEFF 		bl	VL53L0X_get_info_from_device
  52 001e 0346     		mov	r3, r0
  53 0020 8DF81630 		strb	r3, [sp, #22]
  54              		.loc 1 57 0
  55 0024 9DF91630 		ldrsb	r3, [sp, #22]
  56 0028 002B     		cmp	r3, #0
  57 002a 1ED1     		bne	.L2
ARM GAS  C:\Users\PCHAUT~1\AppData\Local\Temp\cct0c6Vd.s 			page 2


  58              		.loc 1 58 0
  59 002c 039B     		ldr	r3, [sp, #12]
  60 002e 93F8F130 		ldrb	r3, [r3, #241]
  61 0032 8DF81730 		strb	r3, [sp, #23]
  62              		.loc 1 60 0
  63 0036 9DF81730 		ldrb	r3, [sp, #23]	@ zero_extendqisi2
  64 003a 002B     		cmp	r3, #0
  65 003c 07D1     		bne	.L3
  66              		.loc 1 61 0
  67 003e 029B     		ldr	r3, [sp, #8]
  68 0040 0022     		movs	r2, #0
  69 0042 1A70     		strb	r2, [r3]
  70              		.loc 1 62 0
  71 0044 019B     		ldr	r3, [sp, #4]
  72 0046 4033     		adds	r3, r3, #64
  73 0048 0022     		movs	r2, #0
  74 004a 1A70     		strb	r2, [r3]
  75 004c 0DE0     		b	.L2
  76              	.L3:
  77              		.loc 1 64 0
  78 004e 039B     		ldr	r3, [sp, #12]
  79 0050 93F8F220 		ldrb	r2, [r3, #242]	@ zero_extendqisi2
  80 0054 029B     		ldr	r3, [sp, #8]
  81 0056 1A70     		strb	r2, [r3]
  82              		.loc 1 65 0
  83 0058 039B     		ldr	r3, [sp, #12]
  84 005a F333     		adds	r3, r3, #243
  85 005c 0693     		str	r3, [sp, #24]
  86              		.loc 1 67 0
  87 005e 019B     		ldr	r3, [sp, #4]
  88 0060 4033     		adds	r3, r3, #64
  89 0062 0699     		ldr	r1, [sp, #24]
  90 0064 1846     		mov	r0, r3
  91 0066 FFF7FEFF 		bl	strcpy
  92              	.L2:
  93              		.loc 1 72 0
  94 006a 9DF91630 		ldrsb	r3, [sp, #22]
  95              		.loc 1 73 0
  96 006e 1846     		mov	r0, r3
  97 0070 044B     		ldr	r3, .L6
  98 0072 079A     		ldr	r2, [sp, #28]
  99 0074 1B68     		ldr	r3, [r3]
 100 0076 9A42     		cmp	r2, r3
 101 0078 01D0     		beq	.L5
 102 007a FFF7FEFF 		bl	__stack_chk_fail
 103              	.L5:
 104 007e 09B0     		add	sp, sp, #36
 105              		.cfi_def_cfa_offset 4
 106              		@ sp needed
 107 0080 5DF804FB 		ldr	pc, [sp], #4
 108              	.L7:
 109              		.align	2
 110              	.L6:
 111 0084 00000000 		.word	__stack_chk_guard
 112              		.cfi_endproc
 113              	.LFE3:
 114              		.size	VL53L0X_check_part_used, .-VL53L0X_check_part_used
ARM GAS  C:\Users\PCHAUT~1\AppData\Local\Temp\cct0c6Vd.s 			page 3


 115              		.section	.rodata
 116              		.align	2
 117              	.LC0:
 118 0000 564C3533 		.ascii	"VL53L0X TS0\000"
 118      4C305820 
 118      54533000 
 119              		.align	2
 120              	.LC1:
 121 000c 564C3533 		.ascii	"VL53L0X TS1\000"
 121      4C305820 
 121      54533100 
 122              		.align	2
 123              	.LC2:
 124 0018 564C3533 		.ascii	"VL53L0X TS2\000"
 124      4C305820 
 124      54533200 
 125              		.align	2
 126              	.LC3:
 127 0024 564C3533 		.ascii	"VL53L0X ES1 or later\000"
 127      4C305820 
 127      45533120 
 127      6F72206C 
 127      61746572 
 128 0039 000000   		.align	2
 129              	.LC4:
 130 003c 564C3533 		.ascii	"VL53L0X\000"
 130      4C305800 
 131              		.section	.text.VL53L0X_get_device_info,"ax",%progbits
 132              		.align	1
 133              		.p2align 4,,15
 134              		.global	VL53L0X_get_device_info
 135              		.syntax unified
 136              		.thumb
 137              		.thumb_func
 138              		.fpu fpv4-sp-d16
 139              		.type	VL53L0X_get_device_info, %function
 140              	VL53L0X_get_device_info:
 141              	.LFB4:
 142              		.loc 1 78 0
 143              		.cfi_startproc
 144              		@ args = 0, pretend = 0, frame = 16
 145              		@ frame_needed = 0, uses_anonymous_args = 0
 146 0000 30B5     		push	{r4, r5, lr}
 147              		.cfi_def_cfa_offset 12
 148              		.cfi_offset 4, -12
 149              		.cfi_offset 5, -8
 150              		.cfi_offset 14, -4
 151 0002 85B0     		sub	sp, sp, #20
 152              		.cfi_def_cfa_offset 32
 153 0004 0190     		str	r0, [sp, #4]
 154 0006 0091     		str	r1, [sp]
 155              		.loc 1 78 0
 156 0008 434B     		ldr	r3, .L18
 157 000a 1B68     		ldr	r3, [r3]
 158 000c 0393     		str	r3, [sp, #12]
 159              		.loc 1 79 0
 160 000e 0023     		movs	r3, #0
ARM GAS  C:\Users\PCHAUT~1\AppData\Local\Temp\cct0c6Vd.s 			page 4


 161 0010 8DF80B30 		strb	r3, [sp, #11]
 162              		.loc 1 83 0
 163 0014 0DF10A03 		add	r3, sp, #10
 164 0018 009A     		ldr	r2, [sp]
 165 001a 1946     		mov	r1, r3
 166 001c 0198     		ldr	r0, [sp, #4]
 167 001e FFF7FEFF 		bl	VL53L0X_check_part_used
 168 0022 0346     		mov	r3, r0
 169 0024 8DF80B30 		strb	r3, [sp, #11]
 170              		.loc 1 85 0
 171 0028 9DF90B30 		ldrsb	r3, [sp, #11]
 172 002c 002B     		cmp	r3, #0
 173 002e 3FD1     		bne	.L9
 174              		.loc 1 86 0
 175 0030 9DF80A30 		ldrb	r3, [sp, #10]	@ zero_extendqisi2
 176 0034 002B     		cmp	r3, #0
 177 0036 08D1     		bne	.L10
 178              		.loc 1 87 0
 179 0038 009B     		ldr	r3, [sp]
 180 003a 384A     		ldr	r2, .L18+4
 181 003c 1C46     		mov	r4, r3
 182 003e 1346     		mov	r3, r2
 183 0040 07CB     		ldmia	r3!, {r0, r1, r2}
 184 0042 2060     		str	r0, [r4]	@ unaligned
 185 0044 6160     		str	r1, [r4, #4]	@ unaligned
 186 0046 A260     		str	r2, [r4, #8]	@ unaligned
 187 0048 2AE0     		b	.L11
 188              	.L10:
 189              		.loc 1 89 0
 190 004a 9DF80A30 		ldrb	r3, [sp, #10]	@ zero_extendqisi2
 191 004e 222B     		cmp	r3, #34
 192 0050 0CD8     		bhi	.L12
 193              		.loc 1 89 0 is_stmt 0 discriminator 1
 194 0052 9DF80A30 		ldrb	r3, [sp, #10]	@ zero_extendqisi2
 195 0056 202B     		cmp	r3, #32
 196 0058 08D0     		beq	.L12
 197              		.loc 1 90 0 is_stmt 1
 198 005a 009B     		ldr	r3, [sp]
 199 005c 304A     		ldr	r2, .L18+8
 200 005e 1C46     		mov	r4, r3
 201 0060 1346     		mov	r3, r2
 202 0062 07CB     		ldmia	r3!, {r0, r1, r2}
 203 0064 2060     		str	r0, [r4]	@ unaligned
 204 0066 6160     		str	r1, [r4, #4]	@ unaligned
 205 0068 A260     		str	r2, [r4, #8]	@ unaligned
 206 006a 19E0     		b	.L11
 207              	.L12:
 208              		.loc 1 92 0
 209 006c 9DF80A30 		ldrb	r3, [sp, #10]	@ zero_extendqisi2
 210 0070 262B     		cmp	r3, #38
 211 0072 08D8     		bhi	.L13
 212              		.loc 1 93 0
 213 0074 009B     		ldr	r3, [sp]
 214 0076 2B4A     		ldr	r2, .L18+12
 215 0078 1C46     		mov	r4, r3
 216 007a 1346     		mov	r3, r2
 217 007c 07CB     		ldmia	r3!, {r0, r1, r2}
ARM GAS  C:\Users\PCHAUT~1\AppData\Local\Temp\cct0c6Vd.s 			page 5


 218 007e 2060     		str	r0, [r4]	@ unaligned
 219 0080 6160     		str	r1, [r4, #4]	@ unaligned
 220 0082 A260     		str	r2, [r4, #8]	@ unaligned
 221 0084 0CE0     		b	.L11
 222              	.L13:
 223              		.loc 1 96 0
 224 0086 009B     		ldr	r3, [sp]
 225 0088 274A     		ldr	r2, .L18+16
 226 008a 1D46     		mov	r5, r3
 227 008c 1446     		mov	r4, r2
 228 008e 0FCC     		ldmia	r4!, {r0, r1, r2, r3}
 229 0090 2860     		str	r0, [r5]	@ unaligned
 230 0092 6960     		str	r1, [r5, #4]	@ unaligned
 231 0094 AA60     		str	r2, [r5, #8]	@ unaligned
 232 0096 EB60     		str	r3, [r5, #12]	@ unaligned
 233 0098 2068     		ldr	r0, [r4]
 234 009a 2861     		str	r0, [r5, #16]	@ unaligned
 235 009c 2379     		ldrb	r3, [r4, #4]
 236 009e 2B75     		strb	r3, [r5, #20]
 237              	.L11:
 238              		.loc 1 100 0
 239 00a0 009B     		ldr	r3, [sp]
 240 00a2 2033     		adds	r3, r3, #32
 241 00a4 2149     		ldr	r1, .L18+20
 242 00a6 1A46     		mov	r2, r3
 243 00a8 0B46     		mov	r3, r1
 244 00aa 03CB     		ldmia	r3!, {r0, r1}
 245 00ac 1060     		str	r0, [r2]	@ unaligned
 246 00ae 5160     		str	r1, [r2, #4]	@ unaligned
 247              	.L9:
 248              		.loc 1 105 0
 249 00b0 9DF90B30 		ldrsb	r3, [sp, #11]
 250 00b4 002B     		cmp	r3, #0
 251 00b6 09D1     		bne	.L14
 252              		.loc 1 106 0
 253 00b8 009B     		ldr	r3, [sp]
 254 00ba 6033     		adds	r3, r3, #96
 255 00bc 1A46     		mov	r2, r3
 256 00be C021     		movs	r1, #192
 257 00c0 0198     		ldr	r0, [sp, #4]
 258 00c2 FFF7FEFF 		bl	VL53L0X_RdByte
 259 00c6 0346     		mov	r3, r0
 260 00c8 8DF80B30 		strb	r3, [sp, #11]
 261              	.L14:
 262              		.loc 1 110 0
 263 00cc 9DF90B30 		ldrsb	r3, [sp, #11]
 264 00d0 002B     		cmp	r3, #0
 265 00d2 14D1     		bne	.L15
 266              		.loc 1 111 0
 267 00d4 0DF10903 		add	r3, sp, #9
 268 00d8 1A46     		mov	r2, r3
 269 00da C221     		movs	r1, #194
 270 00dc 0198     		ldr	r0, [sp, #4]
 271 00de FFF7FEFF 		bl	VL53L0X_RdByte
 272 00e2 0346     		mov	r3, r0
 273 00e4 8DF80B30 		strb	r3, [sp, #11]
 274              		.loc 1 114 0
ARM GAS  C:\Users\PCHAUT~1\AppData\Local\Temp\cct0c6Vd.s 			page 6


 275 00e8 009B     		ldr	r3, [sp]
 276 00ea 0122     		movs	r2, #1
 277 00ec 83F86120 		strb	r2, [r3, #97]
 278              		.loc 1 116 0
 279 00f0 9DF80930 		ldrb	r3, [sp, #9]	@ zero_extendqisi2
 280 00f4 1B09     		lsrs	r3, r3, #4
 281 00f6 DAB2     		uxtb	r2, r3
 282              		.loc 1 115 0
 283 00f8 009B     		ldr	r3, [sp]
 284 00fa 83F86220 		strb	r2, [r3, #98]
 285              	.L15:
 286              		.loc 1 119 0
 287 00fe 9DF90B30 		ldrsb	r3, [sp, #11]
 288              		.loc 1 120 0
 289 0102 1846     		mov	r0, r3
 290 0104 044B     		ldr	r3, .L18
 291 0106 039A     		ldr	r2, [sp, #12]
 292 0108 1B68     		ldr	r3, [r3]
 293 010a 9A42     		cmp	r2, r3
 294 010c 01D0     		beq	.L17
 295 010e FFF7FEFF 		bl	__stack_chk_fail
 296              	.L17:
 297 0112 05B0     		add	sp, sp, #20
 298              		.cfi_def_cfa_offset 12
 299              		@ sp needed
 300 0114 30BD     		pop	{r4, r5, pc}
 301              	.L19:
 302 0116 00BF     		.align	2
 303              	.L18:
 304 0118 00000000 		.word	__stack_chk_guard
 305 011c 00000000 		.word	.LC0
 306 0120 0C000000 		.word	.LC1
 307 0124 18000000 		.word	.LC2
 308 0128 24000000 		.word	.LC3
 309 012c 3C000000 		.word	.LC4
 310              		.cfi_endproc
 311              	.LFE4:
 312              		.size	VL53L0X_get_device_info, .-VL53L0X_get_device_info
 313              		.section	.rodata
 314              		.align	2
 315              	.LC5:
 316 0044 4E6F2055 		.ascii	"No Update\000"
 316      70646174 
 316      6500
 317 004e 0000     		.align	2
 318              	.LC6:
 319 0050 56435345 		.ascii	"VCSEL Continuity Test Failure\000"
 319      4C20436F 
 319      6E74696E 
 319      75697479 
 319      20546573 
 320 006e 0000     		.align	2
 321              	.LC7:
 322 0070 56435345 		.ascii	"VCSEL Watchdog Test Failure\000"
 322      4C205761 
 322      74636864 
 322      6F672054 
ARM GAS  C:\Users\PCHAUT~1\AppData\Local\Temp\cct0c6Vd.s 			page 7


 322      65737420 
 323              		.align	2
 324              	.LC8:
 325 008c 4E6F2056 		.ascii	"No VHV Value found\000"
 325      48562056 
 325      616C7565 
 325      20666F75 
 325      6E6400
 326 009f 00       		.align	2
 327              	.LC9:
 328 00a0 4D535243 		.ascii	"MSRC No Target Error\000"
 328      204E6F20 
 328      54617267 
 328      65742045 
 328      72726F72 
 329 00b5 000000   		.align	2
 330              	.LC10:
 331 00b8 534E5220 		.ascii	"SNR Check Exit\000"
 331      43686563 
 331      6B204578 
 331      697400
 332 00c7 00       		.align	2
 333              	.LC11:
 334 00c8 52616E67 		.ascii	"Range Phase Check Error\000"
 334      65205068 
 334      61736520 
 334      43686563 
 334      6B204572 
 335              		.align	2
 336              	.LC12:
 337 00e0 5369676D 		.ascii	"Sigma Threshold Check Error\000"
 337      61205468 
 337      72657368 
 337      6F6C6420 
 337      43686563 
 338              		.align	2
 339              	.LC13:
 340 00fc 54434320 		.ascii	"TCC Error\000"
 340      4572726F 
 340      7200
 341 0106 0000     		.align	2
 342              	.LC14:
 343 0108 50686173 		.ascii	"Phase Consistency Error\000"
 343      6520436F 
 343      6E736973 
 343      74656E63 
 343      79204572 
 344              		.align	2
 345              	.LC15:
 346 0120 4D696E20 		.ascii	"Min Clip Error\000"
 346      436C6970 
 346      20457272 
 346      6F7200
 347 012f 00       		.align	2
 348              	.LC16:
 349 0130 52616E67 		.ascii	"Range Complete\000"
 349      6520436F 
ARM GAS  C:\Users\PCHAUT~1\AppData\Local\Temp\cct0c6Vd.s 			page 8


 349      6D706C65 
 349      746500
 350 013f 00       		.align	2
 351              	.LC17:
 352 0140 52616E67 		.ascii	"Range Algo Underflow Error\000"
 352      6520416C 
 352      676F2055 
 352      6E646572 
 352      666C6F77 
 353 015b 00       		.align	2
 354              	.LC18:
 355 015c 52616E67 		.ascii	"Range Algo Overlow Error\000"
 355      6520416C 
 355      676F204F 
 355      7665726C 
 355      6F772045 
 356 0175 000000   		.align	2
 357              	.LC19:
 358 0178 52616E67 		.ascii	"Range Ignore Threshold Error\000"
 358      65204967 
 358      6E6F7265 
 358      20546872 
 358      6573686F 
 359 0195 000000   		.align	2
 360              	.LC20:
 361 0198 556E6B6E 		.ascii	"Unknown Error Code\000"
 361      6F776E20 
 361      4572726F 
 361      7220436F 
 361      646500
 362              		.section	.text.VL53L0X_get_device_error_string,"ax",%progbits
 363              		.align	1
 364              		.p2align 4,,15
 365              		.global	VL53L0X_get_device_error_string
 366              		.syntax unified
 367              		.thumb
 368              		.thumb_func
 369              		.fpu fpv4-sp-d16
 370              		.type	VL53L0X_get_device_error_string, %function
 371              	VL53L0X_get_device_error_string:
 372              	.LFB5:
 373              		.loc 1 125 0
 374              		.cfi_startproc
 375              		@ args = 0, pretend = 0, frame = 16
 376              		@ frame_needed = 0, uses_anonymous_args = 0
 377 0000 30B5     		push	{r4, r5, lr}
 378              		.cfi_def_cfa_offset 12
 379              		.cfi_offset 4, -12
 380              		.cfi_offset 5, -8
 381              		.cfi_offset 14, -4
 382 0002 85B0     		sub	sp, sp, #20
 383              		.cfi_def_cfa_offset 32
 384 0004 0346     		mov	r3, r0
 385 0006 0091     		str	r1, [sp]
 386 0008 8DF80730 		strb	r3, [sp, #7]
 387              		.loc 1 125 0
 388 000c 8A4B     		ldr	r3, .L41
ARM GAS  C:\Users\PCHAUT~1\AppData\Local\Temp\cct0c6Vd.s 			page 9


 389 000e 1B68     		ldr	r3, [r3]
 390 0010 0393     		str	r3, [sp, #12]
 391              		.loc 1 126 0
 392 0012 0023     		movs	r3, #0
 393 0014 8DF80B30 		strb	r3, [sp, #11]
 394              		.loc 1 130 0
 395 0018 9DF80730 		ldrb	r3, [sp, #7]	@ zero_extendqisi2
 396 001c 0E2B     		cmp	r3, #14
 397 001e 00F2F080 		bhi	.L21
 398 0022 01A2     		adr	r2, .L23
 399 0024 52F823F0 		ldr	pc, [r2, r3, lsl #2]
 400              		.p2align 2
 401              	.L23:
 402 0028 65000000 		.word	.L22+1
 403 002c 79000000 		.word	.L24+1
 404 0030 99000000 		.word	.L25+1
 405 0034 B5000000 		.word	.L26+1
 406 0038 D3000000 		.word	.L27+1
 407 003c EF000000 		.word	.L28+1
 408 0040 09010000 		.word	.L29+1
 409 0044 23010000 		.word	.L30+1
 410 0048 3F010000 		.word	.L31+1
 411 004c 53010000 		.word	.L32+1
 412 0050 6D010000 		.word	.L33+1
 413 0054 87010000 		.word	.L34+1
 414 0058 A1010000 		.word	.L35+1
 415 005c C5010000 		.word	.L36+1
 416 0060 E3010000 		.word	.L37+1
 417              		.p2align 1
 418              	.L22:
 419              		.loc 1 132 0
 420 0064 009B     		ldr	r3, [sp]
 421 0066 7549     		ldr	r1, .L41+4
 422 0068 1A46     		mov	r2, r3
 423 006a 0B46     		mov	r3, r1
 424 006c 03CB     		ldmia	r3!, {r0, r1}
 425 006e 1060     		str	r0, [r2]	@ unaligned
 426 0070 5160     		str	r1, [r2, #4]	@ unaligned
 427 0072 1B88     		ldrh	r3, [r3]	@ unaligned
 428 0074 1381     		strh	r3, [r2, #8]	@ unaligned
 429              		.loc 1 134 0
 430 0076 D2E0     		b	.L38
 431              	.L24:
 432              		.loc 1 136 0
 433 0078 009B     		ldr	r3, [sp]
 434 007a 714A     		ldr	r2, .L41+8
 435 007c 1D46     		mov	r5, r3
 436 007e 1446     		mov	r4, r2
 437 0080 0FCC     		ldmia	r4!, {r0, r1, r2, r3}
 438 0082 2860     		str	r0, [r5]	@ unaligned
 439 0084 6960     		str	r1, [r5, #4]	@ unaligned
 440 0086 AA60     		str	r2, [r5, #8]	@ unaligned
 441 0088 EB60     		str	r3, [r5, #12]	@ unaligned
 442 008a 07CC     		ldmia	r4!, {r0, r1, r2}
 443 008c 2861     		str	r0, [r5, #16]	@ unaligned
 444 008e 6961     		str	r1, [r5, #20]	@ unaligned
 445 0090 AA61     		str	r2, [r5, #24]	@ unaligned
ARM GAS  C:\Users\PCHAUT~1\AppData\Local\Temp\cct0c6Vd.s 			page 10


 446 0092 2388     		ldrh	r3, [r4]	@ unaligned
 447 0094 AB83     		strh	r3, [r5, #28]	@ unaligned
 448              		.loc 1 138 0
 449 0096 C2E0     		b	.L38
 450              	.L25:
 451              		.loc 1 140 0
 452 0098 009B     		ldr	r3, [sp]
 453 009a 6A4A     		ldr	r2, .L41+12
 454 009c 1D46     		mov	r5, r3
 455 009e 1446     		mov	r4, r2
 456 00a0 0FCC     		ldmia	r4!, {r0, r1, r2, r3}
 457 00a2 2860     		str	r0, [r5]	@ unaligned
 458 00a4 6960     		str	r1, [r5, #4]	@ unaligned
 459 00a6 AA60     		str	r2, [r5, #8]	@ unaligned
 460 00a8 EB60     		str	r3, [r5, #12]	@ unaligned
 461 00aa 07CC     		ldmia	r4!, {r0, r1, r2}
 462 00ac 2861     		str	r0, [r5, #16]	@ unaligned
 463 00ae 6961     		str	r1, [r5, #20]	@ unaligned
 464 00b0 AA61     		str	r2, [r5, #24]	@ unaligned
 465              		.loc 1 142 0
 466 00b2 B4E0     		b	.L38
 467              	.L26:
 468              		.loc 1 144 0
 469 00b4 009B     		ldr	r3, [sp]
 470 00b6 644A     		ldr	r2, .L41+16
 471 00b8 1D46     		mov	r5, r3
 472 00ba 1446     		mov	r4, r2
 473 00bc 0FCC     		ldmia	r4!, {r0, r1, r2, r3}
 474 00be 2860     		str	r0, [r5]	@ unaligned
 475 00c0 6960     		str	r1, [r5, #4]	@ unaligned
 476 00c2 AA60     		str	r2, [r5, #8]	@ unaligned
 477 00c4 EB60     		str	r3, [r5, #12]	@ unaligned
 478 00c6 2388     		ldrh	r3, [r4]	@ unaligned
 479 00c8 A278     		ldrb	r2, [r4, #2]
 480 00ca 2B82     		strh	r3, [r5, #16]	@ unaligned
 481 00cc 1346     		mov	r3, r2
 482 00ce AB74     		strb	r3, [r5, #18]
 483              		.loc 1 146 0
 484 00d0 A5E0     		b	.L38
 485              	.L27:
 486              		.loc 1 148 0
 487 00d2 009B     		ldr	r3, [sp]
 488 00d4 5D4A     		ldr	r2, .L41+20
 489 00d6 1D46     		mov	r5, r3
 490 00d8 1446     		mov	r4, r2
 491 00da 0FCC     		ldmia	r4!, {r0, r1, r2, r3}
 492 00dc 2860     		str	r0, [r5]	@ unaligned
 493 00de 6960     		str	r1, [r5, #4]	@ unaligned
 494 00e0 AA60     		str	r2, [r5, #8]	@ unaligned
 495 00e2 EB60     		str	r3, [r5, #12]	@ unaligned
 496 00e4 2068     		ldr	r0, [r4]
 497 00e6 2861     		str	r0, [r5, #16]	@ unaligned
 498 00e8 2379     		ldrb	r3, [r4, #4]
 499 00ea 2B75     		strb	r3, [r5, #20]
 500              		.loc 1 150 0
 501 00ec 97E0     		b	.L38
 502              	.L28:
ARM GAS  C:\Users\PCHAUT~1\AppData\Local\Temp\cct0c6Vd.s 			page 11


 503              		.loc 1 152 0
 504 00ee 009B     		ldr	r3, [sp]
 505 00f0 574A     		ldr	r2, .L41+24
 506 00f2 1C46     		mov	r4, r3
 507 00f4 1346     		mov	r3, r2
 508 00f6 07CB     		ldmia	r3!, {r0, r1, r2}
 509 00f8 2060     		str	r0, [r4]	@ unaligned
 510 00fa 6160     		str	r1, [r4, #4]	@ unaligned
 511 00fc A260     		str	r2, [r4, #8]	@ unaligned
 512 00fe 1A88     		ldrh	r2, [r3]	@ unaligned
 513 0100 9B78     		ldrb	r3, [r3, #2]
 514 0102 A281     		strh	r2, [r4, #12]	@ unaligned
 515 0104 A373     		strb	r3, [r4, #14]
 516              		.loc 1 154 0
 517 0106 8AE0     		b	.L38
 518              	.L29:
 519              		.loc 1 156 0
 520 0108 009B     		ldr	r3, [sp]
 521 010a 524A     		ldr	r2, .L41+28
 522 010c 1D46     		mov	r5, r3
 523 010e 1446     		mov	r4, r2
 524 0110 0FCC     		ldmia	r4!, {r0, r1, r2, r3}
 525 0112 2860     		str	r0, [r5]	@ unaligned
 526 0114 6960     		str	r1, [r5, #4]	@ unaligned
 527 0116 AA60     		str	r2, [r5, #8]	@ unaligned
 528 0118 EB60     		str	r3, [r5, #12]	@ unaligned
 529 011a 03CC     		ldmia	r4!, {r0, r1}
 530 011c 2861     		str	r0, [r5, #16]	@ unaligned
 531 011e 6961     		str	r1, [r5, #20]	@ unaligned
 532              		.loc 1 158 0
 533 0120 7DE0     		b	.L38
 534              	.L30:
 535              		.loc 1 160 0
 536 0122 009B     		ldr	r3, [sp]
 537 0124 4C4A     		ldr	r2, .L41+32
 538 0126 1D46     		mov	r5, r3
 539 0128 1446     		mov	r4, r2
 540 012a 0FCC     		ldmia	r4!, {r0, r1, r2, r3}
 541 012c 2860     		str	r0, [r5]	@ unaligned
 542 012e 6960     		str	r1, [r5, #4]	@ unaligned
 543 0130 AA60     		str	r2, [r5, #8]	@ unaligned
 544 0132 EB60     		str	r3, [r5, #12]	@ unaligned
 545 0134 07CC     		ldmia	r4!, {r0, r1, r2}
 546 0136 2861     		str	r0, [r5, #16]	@ unaligned
 547 0138 6961     		str	r1, [r5, #20]	@ unaligned
 548 013a AA61     		str	r2, [r5, #24]	@ unaligned
 549              		.loc 1 162 0
 550 013c 6FE0     		b	.L38
 551              	.L31:
 552              		.loc 1 164 0
 553 013e 009B     		ldr	r3, [sp]
 554 0140 4649     		ldr	r1, .L41+36
 555 0142 1A46     		mov	r2, r3
 556 0144 0B46     		mov	r3, r1
 557 0146 03CB     		ldmia	r3!, {r0, r1}
 558 0148 1060     		str	r0, [r2]	@ unaligned
 559 014a 5160     		str	r1, [r2, #4]	@ unaligned
ARM GAS  C:\Users\PCHAUT~1\AppData\Local\Temp\cct0c6Vd.s 			page 12


 560 014c 1B88     		ldrh	r3, [r3]	@ unaligned
 561 014e 1381     		strh	r3, [r2, #8]	@ unaligned
 562              		.loc 1 166 0
 563 0150 65E0     		b	.L38
 564              	.L32:
 565              		.loc 1 168 0
 566 0152 009B     		ldr	r3, [sp]
 567 0154 424A     		ldr	r2, .L41+40
 568 0156 1D46     		mov	r5, r3
 569 0158 1446     		mov	r4, r2
 570 015a 0FCC     		ldmia	r4!, {r0, r1, r2, r3}
 571 015c 2860     		str	r0, [r5]	@ unaligned
 572 015e 6960     		str	r1, [r5, #4]	@ unaligned
 573 0160 AA60     		str	r2, [r5, #8]	@ unaligned
 574 0162 EB60     		str	r3, [r5, #12]	@ unaligned
 575 0164 03CC     		ldmia	r4!, {r0, r1}
 576 0166 2861     		str	r0, [r5, #16]	@ unaligned
 577 0168 6961     		str	r1, [r5, #20]	@ unaligned
 578              		.loc 1 170 0
 579 016a 58E0     		b	.L38
 580              	.L33:
 581              		.loc 1 172 0
 582 016c 009B     		ldr	r3, [sp]
 583 016e 3D4A     		ldr	r2, .L41+44
 584 0170 1C46     		mov	r4, r3
 585 0172 1346     		mov	r3, r2
 586 0174 07CB     		ldmia	r3!, {r0, r1, r2}
 587 0176 2060     		str	r0, [r4]	@ unaligned
 588 0178 6160     		str	r1, [r4, #4]	@ unaligned
 589 017a A260     		str	r2, [r4, #8]	@ unaligned
 590 017c 1A88     		ldrh	r2, [r3]	@ unaligned
 591 017e 9B78     		ldrb	r3, [r3, #2]
 592 0180 A281     		strh	r2, [r4, #12]	@ unaligned
 593 0182 A373     		strb	r3, [r4, #14]
 594              		.loc 1 174 0
 595 0184 4BE0     		b	.L38
 596              	.L34:
 597              		.loc 1 176 0
 598 0186 009B     		ldr	r3, [sp]
 599 0188 374A     		ldr	r2, .L41+48
 600 018a 1C46     		mov	r4, r3
 601 018c 1346     		mov	r3, r2
 602 018e 07CB     		ldmia	r3!, {r0, r1, r2}
 603 0190 2060     		str	r0, [r4]	@ unaligned
 604 0192 6160     		str	r1, [r4, #4]	@ unaligned
 605 0194 A260     		str	r2, [r4, #8]	@ unaligned
 606 0196 1A88     		ldrh	r2, [r3]	@ unaligned
 607 0198 9B78     		ldrb	r3, [r3, #2]
 608 019a A281     		strh	r2, [r4, #12]	@ unaligned
 609 019c A373     		strb	r3, [r4, #14]
 610              		.loc 1 178 0
 611 019e 3EE0     		b	.L38
 612              	.L35:
 613              		.loc 1 180 0
 614 01a0 009B     		ldr	r3, [sp]
 615 01a2 324A     		ldr	r2, .L41+52
 616 01a4 1D46     		mov	r5, r3
ARM GAS  C:\Users\PCHAUT~1\AppData\Local\Temp\cct0c6Vd.s 			page 13


 617 01a6 1446     		mov	r4, r2
 618 01a8 0FCC     		ldmia	r4!, {r0, r1, r2, r3}
 619 01aa 2860     		str	r0, [r5]	@ unaligned
 620 01ac 6960     		str	r1, [r5, #4]	@ unaligned
 621 01ae AA60     		str	r2, [r5, #8]	@ unaligned
 622 01b0 EB60     		str	r3, [r5, #12]	@ unaligned
 623 01b2 03CC     		ldmia	r4!, {r0, r1}
 624 01b4 2861     		str	r0, [r5, #16]	@ unaligned
 625 01b6 6961     		str	r1, [r5, #20]	@ unaligned
 626 01b8 2388     		ldrh	r3, [r4]	@ unaligned
 627 01ba A278     		ldrb	r2, [r4, #2]
 628 01bc 2B83     		strh	r3, [r5, #24]	@ unaligned
 629 01be 1346     		mov	r3, r2
 630 01c0 AB76     		strb	r3, [r5, #26]
 631              		.loc 1 182 0
 632 01c2 2CE0     		b	.L38
 633              	.L36:
 634              		.loc 1 184 0
 635 01c4 009B     		ldr	r3, [sp]
 636 01c6 2A4A     		ldr	r2, .L41+56
 637 01c8 1D46     		mov	r5, r3
 638 01ca 1446     		mov	r4, r2
 639 01cc 0FCC     		ldmia	r4!, {r0, r1, r2, r3}
 640 01ce 2860     		str	r0, [r5]	@ unaligned
 641 01d0 6960     		str	r1, [r5, #4]	@ unaligned
 642 01d2 AA60     		str	r2, [r5, #8]	@ unaligned
 643 01d4 EB60     		str	r3, [r5, #12]	@ unaligned
 644 01d6 03CC     		ldmia	r4!, {r0, r1}
 645 01d8 2861     		str	r0, [r5, #16]	@ unaligned
 646 01da 6961     		str	r1, [r5, #20]	@ unaligned
 647 01dc 2378     		ldrb	r3, [r4]
 648 01de 2B76     		strb	r3, [r5, #24]
 649              		.loc 1 186 0
 650 01e0 1DE0     		b	.L38
 651              	.L37:
 652              		.loc 1 188 0
 653 01e2 009B     		ldr	r3, [sp]
 654 01e4 234A     		ldr	r2, .L41+60
 655 01e6 1D46     		mov	r5, r3
 656 01e8 1446     		mov	r4, r2
 657 01ea 0FCC     		ldmia	r4!, {r0, r1, r2, r3}
 658 01ec 2860     		str	r0, [r5]	@ unaligned
 659 01ee 6960     		str	r1, [r5, #4]	@ unaligned
 660 01f0 AA60     		str	r2, [r5, #8]	@ unaligned
 661 01f2 EB60     		str	r3, [r5, #12]	@ unaligned
 662 01f4 07CC     		ldmia	r4!, {r0, r1, r2}
 663 01f6 2861     		str	r0, [r5, #16]	@ unaligned
 664 01f8 6961     		str	r1, [r5, #20]	@ unaligned
 665 01fa AA61     		str	r2, [r5, #24]	@ unaligned
 666 01fc 2378     		ldrb	r3, [r4]
 667 01fe 2B77     		strb	r3, [r5, #28]
 668              		.loc 1 190 0
 669 0200 0DE0     		b	.L38
 670              	.L21:
 671              		.loc 1 193 0
 672 0202 009B     		ldr	r3, [sp]
 673 0204 1C4A     		ldr	r2, .L41+64
ARM GAS  C:\Users\PCHAUT~1\AppData\Local\Temp\cct0c6Vd.s 			page 14


 674 0206 1D46     		mov	r5, r3
 675 0208 1446     		mov	r4, r2
 676 020a 0FCC     		ldmia	r4!, {r0, r1, r2, r3}
 677 020c 2860     		str	r0, [r5]	@ unaligned
 678 020e 6960     		str	r1, [r5, #4]	@ unaligned
 679 0210 AA60     		str	r2, [r5, #8]	@ unaligned
 680 0212 EB60     		str	r3, [r5, #12]	@ unaligned
 681 0214 2388     		ldrh	r3, [r4]	@ unaligned
 682 0216 A278     		ldrb	r2, [r4, #2]
 683 0218 2B82     		strh	r3, [r5, #16]	@ unaligned
 684 021a 1346     		mov	r3, r2
 685 021c AB74     		strb	r3, [r5, #18]
 686              	.L38:
 687              		.loc 1 199 0
 688 021e 9DF90B30 		ldrsb	r3, [sp, #11]
 689              		.loc 1 200 0
 690 0222 1846     		mov	r0, r3
 691 0224 044B     		ldr	r3, .L41
 692 0226 039A     		ldr	r2, [sp, #12]
 693 0228 1B68     		ldr	r3, [r3]
 694 022a 9A42     		cmp	r2, r3
 695 022c 01D0     		beq	.L40
 696 022e FFF7FEFF 		bl	__stack_chk_fail
 697              	.L40:
 698 0232 05B0     		add	sp, sp, #20
 699              		.cfi_def_cfa_offset 12
 700              		@ sp needed
 701 0234 30BD     		pop	{r4, r5, pc}
 702              	.L42:
 703 0236 00BF     		.align	2
 704              	.L41:
 705 0238 00000000 		.word	__stack_chk_guard
 706 023c 44000000 		.word	.LC5
 707 0240 50000000 		.word	.LC6
 708 0244 70000000 		.word	.LC7
 709 0248 8C000000 		.word	.LC8
 710 024c A0000000 		.word	.LC9
 711 0250 B8000000 		.word	.LC10
 712 0254 C8000000 		.word	.LC11
 713 0258 E0000000 		.word	.LC12
 714 025c FC000000 		.word	.LC13
 715 0260 08010000 		.word	.LC14
 716 0264 20010000 		.word	.LC15
 717 0268 30010000 		.word	.LC16
 718 026c 40010000 		.word	.LC17
 719 0270 5C010000 		.word	.LC18
 720 0274 78010000 		.word	.LC19
 721 0278 98010000 		.word	.LC20
 722              		.cfi_endproc
 723              	.LFE5:
 724              		.size	VL53L0X_get_device_error_string, .-VL53L0X_get_device_error_string
 725              		.section	.rodata
 726 01ab 00       		.align	2
 727              	.LC21:
 728 01ac 52616E67 		.ascii	"Range Valid\000"
 728      65205661 
 728      6C696400 
ARM GAS  C:\Users\PCHAUT~1\AppData\Local\Temp\cct0c6Vd.s 			page 15


 729              		.align	2
 730              	.LC22:
 731 01b8 5369676D 		.ascii	"Sigma Fail\000"
 731      61204661 
 731      696C00
 732 01c3 00       		.align	2
 733              	.LC23:
 734 01c4 5369676E 		.ascii	"Signal Fail\000"
 734      616C2046 
 734      61696C00 
 735              		.align	2
 736              	.LC24:
 737 01d0 4D696E20 		.ascii	"Min Range Fail\000"
 737      52616E67 
 737      65204661 
 737      696C00
 738 01df 00       		.align	2
 739              	.LC25:
 740 01e0 50686173 		.ascii	"Phase Fail\000"
 740      65204661 
 740      696C00
 741 01eb 00       		.align	2
 742              	.LC26:
 743 01ec 48617264 		.ascii	"Hardware Fail\000"
 743      77617265 
 743      20466169 
 743      6C00
 744              		.section	.text.VL53L0X_get_range_status_string,"ax",%progbits
 745              		.align	1
 746              		.p2align 4,,15
 747              		.global	VL53L0X_get_range_status_string
 748              		.syntax unified
 749              		.thumb
 750              		.thumb_func
 751              		.fpu fpv4-sp-d16
 752              		.type	VL53L0X_get_range_status_string, %function
 753              	VL53L0X_get_range_status_string:
 754              	.LFB6:
 755              		.loc 1 204 0
 756              		.cfi_startproc
 757              		@ args = 0, pretend = 0, frame = 16
 758              		@ frame_needed = 0, uses_anonymous_args = 0
 759 0000 10B5     		push	{r4, lr}
 760              		.cfi_def_cfa_offset 8
 761              		.cfi_offset 4, -8
 762              		.cfi_offset 14, -4
 763 0002 84B0     		sub	sp, sp, #16
 764              		.cfi_def_cfa_offset 24
 765 0004 0346     		mov	r3, r0
 766 0006 0091     		str	r1, [sp]
 767 0008 8DF80730 		strb	r3, [sp, #7]
 768              		.loc 1 204 0
 769 000c 384B     		ldr	r3, .L55
 770 000e 1B68     		ldr	r3, [r3]
 771 0010 0393     		str	r3, [sp, #12]
 772              		.loc 1 205 0
 773 0012 0023     		movs	r3, #0
ARM GAS  C:\Users\PCHAUT~1\AppData\Local\Temp\cct0c6Vd.s 			page 16


 774 0014 8DF80B30 		strb	r3, [sp, #11]
 775              		.loc 1 209 0
 776 0018 9DF80730 		ldrb	r3, [sp, #7]	@ zero_extendqisi2
 777 001c 052B     		cmp	r3, #5
 778 001e 51D8     		bhi	.L44
 779 0020 01A2     		adr	r2, .L46
 780 0022 52F823F0 		ldr	pc, [r2, r3, lsl #2]
 781 0026 00BF     		.p2align 2
 782              	.L46:
 783 0028 41000000 		.word	.L45+1
 784 002c 53000000 		.word	.L47+1
 785 0030 6B000000 		.word	.L48+1
 786 0034 7D000000 		.word	.L49+1
 787 0038 97000000 		.word	.L50+1
 788 003c AF000000 		.word	.L51+1
 789              		.p2align 1
 790              	.L45:
 791              		.loc 1 211 0
 792 0040 009B     		ldr	r3, [sp]
 793 0042 2C4A     		ldr	r2, .L55+4
 794 0044 1C46     		mov	r4, r3
 795 0046 1346     		mov	r3, r2
 796 0048 07CB     		ldmia	r3!, {r0, r1, r2}
 797 004a 2060     		str	r0, [r4]	@ unaligned
 798 004c 6160     		str	r1, [r4, #4]	@ unaligned
 799 004e A260     		str	r2, [r4, #8]	@ unaligned
 800              		.loc 1 213 0
 801 0050 41E0     		b	.L52
 802              	.L47:
 803              		.loc 1 215 0
 804 0052 009B     		ldr	r3, [sp]
 805 0054 2849     		ldr	r1, .L55+8
 806 0056 1A46     		mov	r2, r3
 807 0058 0B46     		mov	r3, r1
 808 005a 03CB     		ldmia	r3!, {r0, r1}
 809 005c 1060     		str	r0, [r2]	@ unaligned
 810 005e 5160     		str	r1, [r2, #4]	@ unaligned
 811 0060 1988     		ldrh	r1, [r3]	@ unaligned
 812 0062 9B78     		ldrb	r3, [r3, #2]
 813 0064 1181     		strh	r1, [r2, #8]	@ unaligned
 814 0066 9372     		strb	r3, [r2, #10]
 815              		.loc 1 217 0
 816 0068 35E0     		b	.L52
 817              	.L48:
 818              		.loc 1 219 0
 819 006a 009B     		ldr	r3, [sp]
 820 006c 234A     		ldr	r2, .L55+12
 821 006e 1C46     		mov	r4, r3
 822 0070 1346     		mov	r3, r2
 823 0072 07CB     		ldmia	r3!, {r0, r1, r2}
 824 0074 2060     		str	r0, [r4]	@ unaligned
 825 0076 6160     		str	r1, [r4, #4]	@ unaligned
 826 0078 A260     		str	r2, [r4, #8]	@ unaligned
 827              		.loc 1 221 0
 828 007a 2CE0     		b	.L52
 829              	.L49:
 830              		.loc 1 223 0
ARM GAS  C:\Users\PCHAUT~1\AppData\Local\Temp\cct0c6Vd.s 			page 17


 831 007c 009B     		ldr	r3, [sp]
 832 007e 204A     		ldr	r2, .L55+16
 833 0080 1C46     		mov	r4, r3
 834 0082 1346     		mov	r3, r2
 835 0084 07CB     		ldmia	r3!, {r0, r1, r2}
 836 0086 2060     		str	r0, [r4]	@ unaligned
 837 0088 6160     		str	r1, [r4, #4]	@ unaligned
 838 008a A260     		str	r2, [r4, #8]	@ unaligned
 839 008c 1A88     		ldrh	r2, [r3]	@ unaligned
 840 008e 9B78     		ldrb	r3, [r3, #2]
 841 0090 A281     		strh	r2, [r4, #12]	@ unaligned
 842 0092 A373     		strb	r3, [r4, #14]
 843              		.loc 1 225 0
 844 0094 1FE0     		b	.L52
 845              	.L50:
 846              		.loc 1 227 0
 847 0096 009B     		ldr	r3, [sp]
 848 0098 1A49     		ldr	r1, .L55+20
 849 009a 1A46     		mov	r2, r3
 850 009c 0B46     		mov	r3, r1
 851 009e 03CB     		ldmia	r3!, {r0, r1}
 852 00a0 1060     		str	r0, [r2]	@ unaligned
 853 00a2 5160     		str	r1, [r2, #4]	@ unaligned
 854 00a4 1988     		ldrh	r1, [r3]	@ unaligned
 855 00a6 9B78     		ldrb	r3, [r3, #2]
 856 00a8 1181     		strh	r1, [r2, #8]	@ unaligned
 857 00aa 9372     		strb	r3, [r2, #10]
 858              		.loc 1 229 0
 859 00ac 13E0     		b	.L52
 860              	.L51:
 861              		.loc 1 231 0
 862 00ae 009B     		ldr	r3, [sp]
 863 00b0 154A     		ldr	r2, .L55+24
 864 00b2 1C46     		mov	r4, r3
 865 00b4 1346     		mov	r3, r2
 866 00b6 07CB     		ldmia	r3!, {r0, r1, r2}
 867 00b8 2060     		str	r0, [r4]	@ unaligned
 868 00ba 6160     		str	r1, [r4, #4]	@ unaligned
 869 00bc A260     		str	r2, [r4, #8]	@ unaligned
 870 00be 1B88     		ldrh	r3, [r3]	@ unaligned
 871 00c0 A381     		strh	r3, [r4, #12]	@ unaligned
 872              		.loc 1 233 0
 873 00c2 08E0     		b	.L52
 874              	.L44:
 875              		.loc 1 236 0
 876 00c4 009B     		ldr	r3, [sp]
 877 00c6 1149     		ldr	r1, .L55+28
 878 00c8 1A46     		mov	r2, r3
 879 00ca 0B46     		mov	r3, r1
 880 00cc 03CB     		ldmia	r3!, {r0, r1}
 881 00ce 1060     		str	r0, [r2]	@ unaligned
 882 00d0 5160     		str	r1, [r2, #4]	@ unaligned
 883 00d2 1B88     		ldrh	r3, [r3]	@ unaligned
 884 00d4 1381     		strh	r3, [r2, #8]	@ unaligned
 885              	.L52:
 886              		.loc 1 241 0
 887 00d6 9DF90B30 		ldrsb	r3, [sp, #11]
ARM GAS  C:\Users\PCHAUT~1\AppData\Local\Temp\cct0c6Vd.s 			page 18


 888              		.loc 1 242 0
 889 00da 1846     		mov	r0, r3
 890 00dc 044B     		ldr	r3, .L55
 891 00de 039A     		ldr	r2, [sp, #12]
 892 00e0 1B68     		ldr	r3, [r3]
 893 00e2 9A42     		cmp	r2, r3
 894 00e4 01D0     		beq	.L54
 895 00e6 FFF7FEFF 		bl	__stack_chk_fail
 896              	.L54:
 897 00ea 04B0     		add	sp, sp, #16
 898              		.cfi_def_cfa_offset 8
 899              		@ sp needed
 900 00ec 10BD     		pop	{r4, pc}
 901              	.L56:
 902 00ee 00BF     		.align	2
 903              	.L55:
 904 00f0 00000000 		.word	__stack_chk_guard
 905 00f4 AC010000 		.word	.LC21
 906 00f8 B8010000 		.word	.LC22
 907 00fc C4010000 		.word	.LC23
 908 0100 D0010000 		.word	.LC24
 909 0104 E0010000 		.word	.LC25
 910 0108 EC010000 		.word	.LC26
 911 010c 44000000 		.word	.LC5
 912              		.cfi_endproc
 913              	.LFE6:
 914              		.size	VL53L0X_get_range_status_string, .-VL53L0X_get_range_status_string
 915              		.section	.rodata
 916 01fa 0000     		.align	2
 917              	.LC27:
 918 01fc 4E6F2045 		.ascii	"No Error\000"
 918      72726F72 
 918      00
 919 0205 000000   		.align	2
 920              	.LC28:
 921 0208 43616C69 		.ascii	"Calibration Warning Error\000"
 921      62726174 
 921      696F6E20 
 921      5761726E 
 921      696E6720 
 922 0222 0000     		.align	2
 923              	.LC29:
 924 0224 4D696E20 		.ascii	"Min clipped error\000"
 924      636C6970 
 924      70656420 
 924      6572726F 
 924      7200
 925 0236 0000     		.align	2
 926              	.LC30:
 927 0238 556E6465 		.ascii	"Undefined error\000"
 927      66696E65 
 927      64206572 
 927      726F7200 
 928              		.align	2
 929              	.LC31:
 930 0248 496E7661 		.ascii	"Invalid parameters error\000"
 930      6C696420 
ARM GAS  C:\Users\PCHAUT~1\AppData\Local\Temp\cct0c6Vd.s 			page 19


 930      70617261 
 930      6D657465 
 930      72732065 
 931 0261 000000   		.align	2
 932              	.LC32:
 933 0264 4E6F7420 		.ascii	"Not supported error\000"
 933      73757070 
 933      6F727465 
 933      64206572 
 933      726F7200 
 934              		.align	2
 935              	.LC33:
 936 0278 496E7465 		.ascii	"Interrupt not Cleared\000"
 936      72727570 
 936      74206E6F 
 936      7420436C 
 936      65617265 
 937 028e 0000     		.align	2
 938              	.LC34:
 939 0290 52616E67 		.ascii	"Range error\000"
 939      65206572 
 939      726F7200 
 940              		.align	2
 941              	.LC35:
 942 029c 54696D65 		.ascii	"Time out error\000"
 942      206F7574 
 942      20657272 
 942      6F7200
 943 02ab 00       		.align	2
 944              	.LC36:
 945 02ac 4D6F6465 		.ascii	"Mode not supported error\000"
 945      206E6F74 
 945      20737570 
 945      706F7274 
 945      65642065 
 946 02c5 000000   		.align	2
 947              	.LC37:
 948 02c8 42756666 		.ascii	"Buffer too small\000"
 948      65722074 
 948      6F6F2073 
 948      6D616C6C 
 948      00
 949 02d9 000000   		.align	2
 950              	.LC38:
 951 02dc 4750494F 		.ascii	"GPIO not existing\000"
 951      206E6F74 
 951      20657869 
 951      7374696E 
 951      6700
 952 02ee 0000     		.align	2
 953              	.LC39:
 954 02f0 4750494F 		.ascii	"GPIO funct not supported\000"
 954      2066756E 
 954      6374206E 
 954      6F742073 
 954      7570706F 
 955 0309 000000   		.align	2
ARM GAS  C:\Users\PCHAUT~1\AppData\Local\Temp\cct0c6Vd.s 			page 20


 956              	.LC40:
 957 030c 436F6E74 		.ascii	"Control Interface Error\000"
 957      726F6C20 
 957      496E7465 
 957      72666163 
 957      65204572 
 958              		.align	2
 959              	.LC41:
 960 0324 496E7661 		.ascii	"Invalid Command Error\000"
 960      6C696420 
 960      436F6D6D 
 960      616E6420 
 960      4572726F 
 961 033a 0000     		.align	2
 962              	.LC42:
 963 033c 44697669 		.ascii	"Division by zero Error\000"
 963      73696F6E 
 963      20627920 
 963      7A65726F 
 963      20457272 
 964 0353 00       		.align	2
 965              	.LC43:
 966 0354 52656665 		.ascii	"Reference Spad Init Error\000"
 966      72656E63 
 966      65205370 
 966      61642049 
 966      6E697420 
 967 036e 0000     		.align	2
 968              	.LC44:
 969 0370 4E6F7420 		.ascii	"Not implemented error\000"
 969      696D706C 
 969      656D656E 
 969      74656420 
 969      6572726F 
 970              		.section	.text.VL53L0X_get_pal_error_string,"ax",%progbits
 971              		.align	1
 972              		.p2align 4,,15
 973              		.global	VL53L0X_get_pal_error_string
 974              		.syntax unified
 975              		.thumb
 976              		.thumb_func
 977              		.fpu fpv4-sp-d16
 978              		.type	VL53L0X_get_pal_error_string, %function
 979              	VL53L0X_get_pal_error_string:
 980              	.LFB7:
 981              		.loc 1 246 0
 982              		.cfi_startproc
 983              		@ args = 0, pretend = 0, frame = 16
 984              		@ frame_needed = 0, uses_anonymous_args = 0
 985 0000 30B5     		push	{r4, r5, lr}
 986              		.cfi_def_cfa_offset 12
 987              		.cfi_offset 4, -12
 988              		.cfi_offset 5, -8
 989              		.cfi_offset 14, -4
 990 0002 85B0     		sub	sp, sp, #20
 991              		.cfi_def_cfa_offset 32
 992 0004 0346     		mov	r3, r0
ARM GAS  C:\Users\PCHAUT~1\AppData\Local\Temp\cct0c6Vd.s 			page 21


 993 0006 0091     		str	r1, [sp]
 994 0008 8DF80730 		strb	r3, [sp, #7]
 995              		.loc 1 246 0
 996 000c D34B     		ldr	r3, .L81
 997 000e 1B68     		ldr	r3, [r3]
 998 0010 0393     		str	r3, [sp, #12]
 999              		.loc 1 247 0
 1000 0012 0023     		movs	r3, #0
 1001 0014 8DF80B30 		strb	r3, [sp, #11]
 1002              		.loc 1 251 0
 1003 0018 9DF90730 		ldrsb	r3, [sp, #7]
 1004 001c 6333     		adds	r3, r3, #99
 1005 001e 632B     		cmp	r3, #99
 1006 0020 00F2DB81 		bhi	.L58
 1007 0024 01A2     		adr	r2, .L60
 1008 0026 52F823F0 		ldr	pc, [r2, r3, lsl #2]
 1009 002a 00BF     		.p2align 2
 1010              	.L60:
 1011 002c BF030000 		.word	.L59+1
 1012 0030 DB030000 		.word	.L58+1
 1013 0034 DB030000 		.word	.L58+1
 1014 0038 DB030000 		.word	.L58+1
 1015 003c DB030000 		.word	.L58+1
 1016 0040 DB030000 		.word	.L58+1
 1017 0044 DB030000 		.word	.L58+1
 1018 0048 DB030000 		.word	.L58+1
 1019 004c DB030000 		.word	.L58+1
 1020 0050 DB030000 		.word	.L58+1
 1021 0054 DB030000 		.word	.L58+1
 1022 0058 DB030000 		.word	.L58+1
 1023 005c DB030000 		.word	.L58+1
 1024 0060 DB030000 		.word	.L58+1
 1025 0064 DB030000 		.word	.L58+1
 1026 0068 DB030000 		.word	.L58+1
 1027 006c DB030000 		.word	.L58+1
 1028 0070 DB030000 		.word	.L58+1
 1029 0074 DB030000 		.word	.L58+1
 1030 0078 DB030000 		.word	.L58+1
 1031 007c DB030000 		.word	.L58+1
 1032 0080 DB030000 		.word	.L58+1
 1033 0084 DB030000 		.word	.L58+1
 1034 0088 DB030000 		.word	.L58+1
 1035 008c DB030000 		.word	.L58+1
 1036 0090 DB030000 		.word	.L58+1
 1037 0094 DB030000 		.word	.L58+1
 1038 0098 DB030000 		.word	.L58+1
 1039 009c DB030000 		.word	.L58+1
 1040 00a0 DB030000 		.word	.L58+1
 1041 00a4 DB030000 		.word	.L58+1
 1042 00a8 DB030000 		.word	.L58+1
 1043 00ac DB030000 		.word	.L58+1
 1044 00b0 DB030000 		.word	.L58+1
 1045 00b4 DB030000 		.word	.L58+1
 1046 00b8 DB030000 		.word	.L58+1
 1047 00bc DB030000 		.word	.L58+1
 1048 00c0 DB030000 		.word	.L58+1
 1049 00c4 DB030000 		.word	.L58+1
ARM GAS  C:\Users\PCHAUT~1\AppData\Local\Temp\cct0c6Vd.s 			page 22


 1050 00c8 DB030000 		.word	.L58+1
 1051 00cc DB030000 		.word	.L58+1
 1052 00d0 DB030000 		.word	.L58+1
 1053 00d4 DB030000 		.word	.L58+1
 1054 00d8 DB030000 		.word	.L58+1
 1055 00dc DB030000 		.word	.L58+1
 1056 00e0 DB030000 		.word	.L58+1
 1057 00e4 DB030000 		.word	.L58+1
 1058 00e8 DB030000 		.word	.L58+1
 1059 00ec DB030000 		.word	.L58+1
 1060 00f0 A1030000 		.word	.L61+1
 1061 00f4 DB030000 		.word	.L58+1
 1062 00f8 DB030000 		.word	.L58+1
 1063 00fc DB030000 		.word	.L58+1
 1064 0100 DB030000 		.word	.L58+1
 1065 0104 DB030000 		.word	.L58+1
 1066 0108 DB030000 		.word	.L58+1
 1067 010c DB030000 		.word	.L58+1
 1068 0110 DB030000 		.word	.L58+1
 1069 0114 DB030000 		.word	.L58+1
 1070 0118 3B030000 		.word	.L62+1
 1071 011c DB030000 		.word	.L58+1
 1072 0120 DB030000 		.word	.L58+1
 1073 0124 DB030000 		.word	.L58+1
 1074 0128 DB030000 		.word	.L58+1
 1075 012c DB030000 		.word	.L58+1
 1076 0130 DB030000 		.word	.L58+1
 1077 0134 DB030000 		.word	.L58+1
 1078 0138 DB030000 		.word	.L58+1
 1079 013c DB030000 		.word	.L58+1
 1080 0140 1F030000 		.word	.L63+1
 1081 0144 DB030000 		.word	.L58+1
 1082 0148 DB030000 		.word	.L58+1
 1083 014c DB030000 		.word	.L58+1
 1084 0150 DB030000 		.word	.L58+1
 1085 0154 DB030000 		.word	.L58+1
 1086 0158 DB030000 		.word	.L58+1
 1087 015c DB030000 		.word	.L58+1
 1088 0160 DB030000 		.word	.L58+1
 1089 0164 DB030000 		.word	.L58+1
 1090 0168 05030000 		.word	.L64+1
 1091 016c DB030000 		.word	.L58+1
 1092 0170 DB030000 		.word	.L58+1
 1093 0174 DB030000 		.word	.L58+1
 1094 0178 DB030000 		.word	.L58+1
 1095 017c DB030000 		.word	.L58+1
 1096 0180 DB030000 		.word	.L58+1
 1097 0184 DB030000 		.word	.L58+1
 1098 0188 51020000 		.word	.L65+1
 1099 018c E7020000 		.word	.L66+1
 1100 0190 CF020000 		.word	.L67+1
 1101 0194 B7020000 		.word	.L68+1
 1102 0198 99020000 		.word	.L69+1
 1103 019c 7F020000 		.word	.L70+1
 1104 01a0 6D020000 		.word	.L71+1
 1105 01a4 39020000 		.word	.L72+1
 1106 01a8 1B020000 		.word	.L73+1
ARM GAS  C:\Users\PCHAUT~1\AppData\Local\Temp\cct0c6Vd.s 			page 23


 1107 01ac 07020000 		.word	.L74+1
 1108 01b0 EF010000 		.word	.L75+1
 1109 01b4 D1010000 		.word	.L76+1
 1110 01b8 BD010000 		.word	.L77+1
 1111              		.p2align 1
 1112              	.L77:
 1113              		.loc 1 253 0
 1114 01bc 009B     		ldr	r3, [sp]
 1115 01be 6849     		ldr	r1, .L81+4
 1116 01c0 1A46     		mov	r2, r3
 1117 01c2 0B46     		mov	r3, r1
 1118 01c4 03CB     		ldmia	r3!, {r0, r1}
 1119 01c6 1060     		str	r0, [r2]	@ unaligned
 1120 01c8 5160     		str	r1, [r2, #4]	@ unaligned
 1121 01ca 1B78     		ldrb	r3, [r3]
 1122 01cc 1372     		strb	r3, [r2, #8]
 1123              		.loc 1 255 0
 1124 01ce 12E1     		b	.L78
 1125              	.L76:
 1126              		.loc 1 257 0
 1127 01d0 009B     		ldr	r3, [sp]
 1128 01d2 644A     		ldr	r2, .L81+8
 1129 01d4 1D46     		mov	r5, r3
 1130 01d6 1446     		mov	r4, r2
 1131 01d8 0FCC     		ldmia	r4!, {r0, r1, r2, r3}
 1132 01da 2860     		str	r0, [r5]	@ unaligned
 1133 01dc 6960     		str	r1, [r5, #4]	@ unaligned
 1134 01de AA60     		str	r2, [r5, #8]	@ unaligned
 1135 01e0 EB60     		str	r3, [r5, #12]	@ unaligned
 1136 01e2 03CC     		ldmia	r4!, {r0, r1}
 1137 01e4 2861     		str	r0, [r5, #16]	@ unaligned
 1138 01e6 6961     		str	r1, [r5, #20]	@ unaligned
 1139 01e8 2388     		ldrh	r3, [r4]	@ unaligned
 1140 01ea 2B83     		strh	r3, [r5, #24]	@ unaligned
 1141              		.loc 1 259 0
 1142 01ec 03E1     		b	.L78
 1143              	.L75:
 1144              		.loc 1 261 0
 1145 01ee 009B     		ldr	r3, [sp]
 1146 01f0 5D4A     		ldr	r2, .L81+12
 1147 01f2 1D46     		mov	r5, r3
 1148 01f4 1446     		mov	r4, r2
 1149 01f6 0FCC     		ldmia	r4!, {r0, r1, r2, r3}
 1150 01f8 2860     		str	r0, [r5]	@ unaligned
 1151 01fa 6960     		str	r1, [r5, #4]	@ unaligned
 1152 01fc AA60     		str	r2, [r5, #8]	@ unaligned
 1153 01fe EB60     		str	r3, [r5, #12]	@ unaligned
 1154 0200 2388     		ldrh	r3, [r4]	@ unaligned
 1155 0202 2B82     		strh	r3, [r5, #16]	@ unaligned
 1156              		.loc 1 263 0
 1157 0204 F7E0     		b	.L78
 1158              	.L74:
 1159              		.loc 1 265 0
 1160 0206 009B     		ldr	r3, [sp]
 1161 0208 584A     		ldr	r2, .L81+16
 1162 020a 1C46     		mov	r4, r3
 1163 020c 1546     		mov	r5, r2
ARM GAS  C:\Users\PCHAUT~1\AppData\Local\Temp\cct0c6Vd.s 			page 24


 1164 020e 0FCD     		ldmia	r5!, {r0, r1, r2, r3}
 1165 0210 2060     		str	r0, [r4]	@ unaligned
 1166 0212 6160     		str	r1, [r4, #4]	@ unaligned
 1167 0214 A260     		str	r2, [r4, #8]	@ unaligned
 1168 0216 E360     		str	r3, [r4, #12]	@ unaligned
 1169              		.loc 1 267 0
 1170 0218 EDE0     		b	.L78
 1171              	.L73:
 1172              		.loc 1 269 0
 1173 021a 009B     		ldr	r3, [sp]
 1174 021c 544A     		ldr	r2, .L81+20
 1175 021e 1D46     		mov	r5, r3
 1176 0220 1446     		mov	r4, r2
 1177 0222 0FCC     		ldmia	r4!, {r0, r1, r2, r3}
 1178 0224 2860     		str	r0, [r5]	@ unaligned
 1179 0226 6960     		str	r1, [r5, #4]	@ unaligned
 1180 0228 AA60     		str	r2, [r5, #8]	@ unaligned
 1181 022a EB60     		str	r3, [r5, #12]	@ unaligned
 1182 022c 03CC     		ldmia	r4!, {r0, r1}
 1183 022e 2861     		str	r0, [r5, #16]	@ unaligned
 1184 0230 6961     		str	r1, [r5, #20]	@ unaligned
 1185 0232 2378     		ldrb	r3, [r4]
 1186 0234 2B76     		strb	r3, [r5, #24]
 1187              		.loc 1 271 0
 1188 0236 DEE0     		b	.L78
 1189              	.L72:
 1190              		.loc 1 273 0
 1191 0238 009B     		ldr	r3, [sp]
 1192 023a 4E4A     		ldr	r2, .L81+24
 1193 023c 1D46     		mov	r5, r3
 1194 023e 1446     		mov	r4, r2
 1195 0240 0FCC     		ldmia	r4!, {r0, r1, r2, r3}
 1196 0242 2860     		str	r0, [r5]	@ unaligned
 1197 0244 6960     		str	r1, [r5, #4]	@ unaligned
 1198 0246 AA60     		str	r2, [r5, #8]	@ unaligned
 1199 0248 EB60     		str	r3, [r5, #12]	@ unaligned
 1200 024a 2068     		ldr	r0, [r4]
 1201 024c 2861     		str	r0, [r5, #16]	@ unaligned
 1202              		.loc 1 275 0
 1203 024e D2E0     		b	.L78
 1204              	.L65:
 1205              		.loc 1 277 0
 1206 0250 009B     		ldr	r3, [sp]
 1207 0252 494A     		ldr	r2, .L81+28
 1208 0254 1D46     		mov	r5, r3
 1209 0256 1446     		mov	r4, r2
 1210 0258 0FCC     		ldmia	r4!, {r0, r1, r2, r3}
 1211 025a 2860     		str	r0, [r5]	@ unaligned
 1212 025c 6960     		str	r1, [r5, #4]	@ unaligned
 1213 025e AA60     		str	r2, [r5, #8]	@ unaligned
 1214 0260 EB60     		str	r3, [r5, #12]	@ unaligned
 1215 0262 2068     		ldr	r0, [r4]
 1216 0264 2861     		str	r0, [r5, #16]	@ unaligned
 1217 0266 A388     		ldrh	r3, [r4, #4]	@ unaligned
 1218 0268 AB82     		strh	r3, [r5, #20]	@ unaligned
 1219              		.loc 1 279 0
 1220 026a C4E0     		b	.L78
ARM GAS  C:\Users\PCHAUT~1\AppData\Local\Temp\cct0c6Vd.s 			page 25


 1221              	.L71:
 1222              		.loc 1 281 0
 1223 026c 009B     		ldr	r3, [sp]
 1224 026e 434A     		ldr	r2, .L81+32
 1225 0270 1C46     		mov	r4, r3
 1226 0272 1346     		mov	r3, r2
 1227 0274 07CB     		ldmia	r3!, {r0, r1, r2}
 1228 0276 2060     		str	r0, [r4]	@ unaligned
 1229 0278 6160     		str	r1, [r4, #4]	@ unaligned
 1230 027a A260     		str	r2, [r4, #8]	@ unaligned
 1231              		.loc 1 283 0
 1232 027c BBE0     		b	.L78
 1233              	.L70:
 1234              		.loc 1 285 0
 1235 027e 009B     		ldr	r3, [sp]
 1236 0280 3F4A     		ldr	r2, .L81+36
 1237 0282 1C46     		mov	r4, r3
 1238 0284 1346     		mov	r3, r2
 1239 0286 07CB     		ldmia	r3!, {r0, r1, r2}
 1240 0288 2060     		str	r0, [r4]	@ unaligned
 1241 028a 6160     		str	r1, [r4, #4]	@ unaligned
 1242 028c A260     		str	r2, [r4, #8]	@ unaligned
 1243 028e 1A88     		ldrh	r2, [r3]	@ unaligned
 1244 0290 9B78     		ldrb	r3, [r3, #2]
 1245 0292 A281     		strh	r2, [r4, #12]	@ unaligned
 1246 0294 A373     		strb	r3, [r4, #14]
 1247              		.loc 1 287 0
 1248 0296 AEE0     		b	.L78
 1249              	.L69:
 1250              		.loc 1 289 0
 1251 0298 009B     		ldr	r3, [sp]
 1252 029a 3A4A     		ldr	r2, .L81+40
 1253 029c 1D46     		mov	r5, r3
 1254 029e 1446     		mov	r4, r2
 1255 02a0 0FCC     		ldmia	r4!, {r0, r1, r2, r3}
 1256 02a2 2860     		str	r0, [r5]	@ unaligned
 1257 02a4 6960     		str	r1, [r5, #4]	@ unaligned
 1258 02a6 AA60     		str	r2, [r5, #8]	@ unaligned
 1259 02a8 EB60     		str	r3, [r5, #12]	@ unaligned
 1260 02aa 03CC     		ldmia	r4!, {r0, r1}
 1261 02ac 2861     		str	r0, [r5, #16]	@ unaligned
 1262 02ae 6961     		str	r1, [r5, #20]	@ unaligned
 1263 02b0 2378     		ldrb	r3, [r4]
 1264 02b2 2B76     		strb	r3, [r5, #24]
 1265              		.loc 1 291 0
 1266 02b4 9FE0     		b	.L78
 1267              	.L68:
 1268              		.loc 1 293 0
 1269 02b6 009B     		ldr	r3, [sp]
 1270 02b8 334A     		ldr	r2, .L81+44
 1271 02ba 1D46     		mov	r5, r3
 1272 02bc 1446     		mov	r4, r2
 1273 02be 0FCC     		ldmia	r4!, {r0, r1, r2, r3}
 1274 02c0 2860     		str	r0, [r5]	@ unaligned
 1275 02c2 6960     		str	r1, [r5, #4]	@ unaligned
 1276 02c4 AA60     		str	r2, [r5, #8]	@ unaligned
 1277 02c6 EB60     		str	r3, [r5, #12]	@ unaligned
ARM GAS  C:\Users\PCHAUT~1\AppData\Local\Temp\cct0c6Vd.s 			page 26


 1278 02c8 2378     		ldrb	r3, [r4]
 1279 02ca 2B74     		strb	r3, [r5, #16]
 1280              		.loc 1 295 0
 1281 02cc 93E0     		b	.L78
 1282              	.L67:
 1283              		.loc 1 297 0
 1284 02ce 009B     		ldr	r3, [sp]
 1285 02d0 2E4A     		ldr	r2, .L81+48
 1286 02d2 1D46     		mov	r5, r3
 1287 02d4 1446     		mov	r4, r2
 1288 02d6 0FCC     		ldmia	r4!, {r0, r1, r2, r3}
 1289 02d8 2860     		str	r0, [r5]	@ unaligned
 1290 02da 6960     		str	r1, [r5, #4]	@ unaligned
 1291 02dc AA60     		str	r2, [r5, #8]	@ unaligned
 1292 02de EB60     		str	r3, [r5, #12]	@ unaligned
 1293 02e0 2388     		ldrh	r3, [r4]	@ unaligned
 1294 02e2 2B82     		strh	r3, [r5, #16]	@ unaligned
 1295              		.loc 1 299 0
 1296 02e4 87E0     		b	.L78
 1297              	.L66:
 1298              		.loc 1 301 0
 1299 02e6 009B     		ldr	r3, [sp]
 1300 02e8 294A     		ldr	r2, .L81+52
 1301 02ea 1D46     		mov	r5, r3
 1302 02ec 1446     		mov	r4, r2
 1303 02ee 0FCC     		ldmia	r4!, {r0, r1, r2, r3}
 1304 02f0 2860     		str	r0, [r5]	@ unaligned
 1305 02f2 6960     		str	r1, [r5, #4]	@ unaligned
 1306 02f4 AA60     		str	r2, [r5, #8]	@ unaligned
 1307 02f6 EB60     		str	r3, [r5, #12]	@ unaligned
 1308 02f8 03CC     		ldmia	r4!, {r0, r1}
 1309 02fa 2861     		str	r0, [r5, #16]	@ unaligned
 1310 02fc 6961     		str	r1, [r5, #20]	@ unaligned
 1311 02fe 2378     		ldrb	r3, [r4]
 1312 0300 2B76     		strb	r3, [r5, #24]
 1313              		.loc 1 303 0
 1314 0302 78E0     		b	.L78
 1315              	.L64:
 1316              		.loc 1 305 0
 1317 0304 009B     		ldr	r3, [sp]
 1318 0306 234A     		ldr	r2, .L81+56
 1319 0308 1D46     		mov	r5, r3
 1320 030a 1446     		mov	r4, r2
 1321 030c 0FCC     		ldmia	r4!, {r0, r1, r2, r3}
 1322 030e 2860     		str	r0, [r5]	@ unaligned
 1323 0310 6960     		str	r1, [r5, #4]	@ unaligned
 1324 0312 AA60     		str	r2, [r5, #8]	@ unaligned
 1325 0314 EB60     		str	r3, [r5, #12]	@ unaligned
 1326 0316 03CC     		ldmia	r4!, {r0, r1}
 1327 0318 2861     		str	r0, [r5, #16]	@ unaligned
 1328 031a 6961     		str	r1, [r5, #20]	@ unaligned
 1329              		.loc 1 307 0
 1330 031c 6BE0     		b	.L78
 1331              	.L63:
 1332              		.loc 1 309 0
 1333 031e 009B     		ldr	r3, [sp]
 1334 0320 1D4A     		ldr	r2, .L81+60
ARM GAS  C:\Users\PCHAUT~1\AppData\Local\Temp\cct0c6Vd.s 			page 27


 1335 0322 1D46     		mov	r5, r3
 1336 0324 1446     		mov	r4, r2
 1337 0326 0FCC     		ldmia	r4!, {r0, r1, r2, r3}
 1338 0328 2860     		str	r0, [r5]	@ unaligned
 1339 032a 6960     		str	r1, [r5, #4]	@ unaligned
 1340 032c AA60     		str	r2, [r5, #8]	@ unaligned
 1341 032e EB60     		str	r3, [r5, #12]	@ unaligned
 1342 0330 2068     		ldr	r0, [r4]
 1343 0332 2861     		str	r0, [r5, #16]	@ unaligned
 1344 0334 A388     		ldrh	r3, [r4, #4]	@ unaligned
 1345 0336 AB82     		strh	r3, [r5, #20]	@ unaligned
 1346              		.loc 1 311 0
 1347 0338 5DE0     		b	.L78
 1348              	.L62:
 1349              		.loc 1 313 0
 1350 033a 009B     		ldr	r3, [sp]
 1351 033c 174A     		ldr	r2, .L81+64
 1352 033e 1C46     		mov	r4, r3
 1353 0340 1546     		mov	r5, r2
 1354 0342 0FCD     		ldmia	r5!, {r0, r1, r2, r3}
 1355 0344 2060     		str	r0, [r4]	@ unaligned
 1356 0346 6160     		str	r1, [r4, #4]	@ unaligned
 1357 0348 A260     		str	r2, [r4, #8]	@ unaligned
 1358 034a E360     		str	r3, [r4, #12]	@ unaligned
 1359 034c 2868     		ldr	r0, [r5]
 1360 034e 2061     		str	r0, [r4, #16]	@ unaligned
 1361 0350 AB88     		ldrh	r3, [r5, #4]	@ unaligned
 1362 0352 AA79     		ldrb	r2, [r5, #6]
 1363 0354 A382     		strh	r3, [r4, #20]	@ unaligned
 1364 0356 1346     		mov	r3, r2
 1365 0358 A375     		strb	r3, [r4, #22]
 1366              		.loc 1 315 0
 1367 035a 4CE0     		b	.L78
 1368              	.L82:
 1369              		.align	2
 1370              	.L81:
 1371 035c 00000000 		.word	__stack_chk_guard
 1372 0360 FC010000 		.word	.LC27
 1373 0364 08020000 		.word	.LC28
 1374 0368 24020000 		.word	.LC29
 1375 036c 38020000 		.word	.LC30
 1376 0370 48020000 		.word	.LC31
 1377 0374 64020000 		.word	.LC32
 1378 0378 78020000 		.word	.LC33
 1379 037c 90020000 		.word	.LC34
 1380 0380 9C020000 		.word	.LC35
 1381 0384 AC020000 		.word	.LC36
 1382 0388 C8020000 		.word	.LC37
 1383 038c DC020000 		.word	.LC38
 1384 0390 F0020000 		.word	.LC39
 1385 0394 0C030000 		.word	.LC40
 1386 0398 24030000 		.word	.LC41
 1387 039c 3C030000 		.word	.LC42
 1388              	.L61:
 1389              		.loc 1 317 0
 1390 03a0 009B     		ldr	r3, [sp]
 1391 03a2 1B4A     		ldr	r2, .L83
ARM GAS  C:\Users\PCHAUT~1\AppData\Local\Temp\cct0c6Vd.s 			page 28


 1392 03a4 1D46     		mov	r5, r3
 1393 03a6 1446     		mov	r4, r2
 1394 03a8 0FCC     		ldmia	r4!, {r0, r1, r2, r3}
 1395 03aa 2860     		str	r0, [r5]	@ unaligned
 1396 03ac 6960     		str	r1, [r5, #4]	@ unaligned
 1397 03ae AA60     		str	r2, [r5, #8]	@ unaligned
 1398 03b0 EB60     		str	r3, [r5, #12]	@ unaligned
 1399 03b2 03CC     		ldmia	r4!, {r0, r1}
 1400 03b4 2861     		str	r0, [r5, #16]	@ unaligned
 1401 03b6 6961     		str	r1, [r5, #20]	@ unaligned
 1402 03b8 2388     		ldrh	r3, [r4]	@ unaligned
 1403 03ba 2B83     		strh	r3, [r5, #24]	@ unaligned
 1404              		.loc 1 319 0
 1405 03bc 1BE0     		b	.L78
 1406              	.L59:
 1407              		.loc 1 321 0
 1408 03be 009B     		ldr	r3, [sp]
 1409 03c0 144A     		ldr	r2, .L83+4
 1410 03c2 1D46     		mov	r5, r3
 1411 03c4 1446     		mov	r4, r2
 1412 03c6 0FCC     		ldmia	r4!, {r0, r1, r2, r3}
 1413 03c8 2860     		str	r0, [r5]	@ unaligned
 1414 03ca 6960     		str	r1, [r5, #4]	@ unaligned
 1415 03cc AA60     		str	r2, [r5, #8]	@ unaligned
 1416 03ce EB60     		str	r3, [r5, #12]	@ unaligned
 1417 03d0 2068     		ldr	r0, [r4]
 1418 03d2 2861     		str	r0, [r5, #16]	@ unaligned
 1419 03d4 A388     		ldrh	r3, [r4, #4]	@ unaligned
 1420 03d6 AB82     		strh	r3, [r5, #20]	@ unaligned
 1421              		.loc 1 323 0
 1422 03d8 0DE0     		b	.L78
 1423              	.L58:
 1424              		.loc 1 326 0
 1425 03da 009B     		ldr	r3, [sp]
 1426 03dc 0E4A     		ldr	r2, .L83+8
 1427 03de 1D46     		mov	r5, r3
 1428 03e0 1446     		mov	r4, r2
 1429 03e2 0FCC     		ldmia	r4!, {r0, r1, r2, r3}
 1430 03e4 2860     		str	r0, [r5]	@ unaligned
 1431 03e6 6960     		str	r1, [r5, #4]	@ unaligned
 1432 03e8 AA60     		str	r2, [r5, #8]	@ unaligned
 1433 03ea EB60     		str	r3, [r5, #12]	@ unaligned
 1434 03ec 2388     		ldrh	r3, [r4]	@ unaligned
 1435 03ee A278     		ldrb	r2, [r4, #2]
 1436 03f0 2B82     		strh	r3, [r5, #16]	@ unaligned
 1437 03f2 1346     		mov	r3, r2
 1438 03f4 AB74     		strb	r3, [r5, #18]
 1439              	.L78:
 1440              		.loc 1 331 0
 1441 03f6 9DF90B30 		ldrsb	r3, [sp, #11]
 1442              		.loc 1 332 0
 1443 03fa 1846     		mov	r0, r3
 1444 03fc 074B     		ldr	r3, .L83+12
 1445 03fe 039A     		ldr	r2, [sp, #12]
 1446 0400 1B68     		ldr	r3, [r3]
 1447 0402 9A42     		cmp	r2, r3
 1448 0404 01D0     		beq	.L80
ARM GAS  C:\Users\PCHAUT~1\AppData\Local\Temp\cct0c6Vd.s 			page 29


 1449 0406 FFF7FEFF 		bl	__stack_chk_fail
 1450              	.L80:
 1451 040a 05B0     		add	sp, sp, #20
 1452              		.cfi_def_cfa_offset 12
 1453              		@ sp needed
 1454 040c 30BD     		pop	{r4, r5, pc}
 1455              	.L84:
 1456 040e 00BF     		.align	2
 1457              	.L83:
 1458 0410 54030000 		.word	.LC43
 1459 0414 70030000 		.word	.LC44
 1460 0418 98010000 		.word	.LC20
 1461 041c 00000000 		.word	__stack_chk_guard
 1462              		.cfi_endproc
 1463              	.LFE7:
 1464              		.size	VL53L0X_get_pal_error_string, .-VL53L0X_get_pal_error_string
 1465              		.section	.rodata
 1466 0386 0000     		.align	2
 1467              	.LC45:
 1468 0388 504F5745 		.ascii	"POWERDOWN State\000"
 1468      52444F57 
 1468      4E205374 
 1468      61746500 
 1469              		.align	2
 1470              	.LC46:
 1471 0398 57616974 		.ascii	"Wait for staticinit State\000"
 1471      20666F72 
 1471      20737461 
 1471      74696369 
 1471      6E697420 
 1472 03b2 0000     		.align	2
 1473              	.LC47:
 1474 03b4 5354414E 		.ascii	"STANDBY State\000"
 1474      44425920 
 1474      53746174 
 1474      6500
 1475 03c2 0000     		.align	2
 1476              	.LC48:
 1477 03c4 49444C45 		.ascii	"IDLE State\000"
 1477      20537461 
 1477      746500
 1478 03cf 00       		.align	2
 1479              	.LC49:
 1480 03d0 52554E4E 		.ascii	"RUNNING State\000"
 1480      494E4720 
 1480      53746174 
 1480      6500
 1481 03de 0000     		.align	2
 1482              	.LC50:
 1483 03e0 554E4B4E 		.ascii	"UNKNOWN State\000"
 1483      4F574E20 
 1483      53746174 
 1483      6500
 1484 03ee 0000     		.align	2
 1485              	.LC51:
 1486 03f0 4552524F 		.ascii	"ERROR State\000"
 1486      52205374 
ARM GAS  C:\Users\PCHAUT~1\AppData\Local\Temp\cct0c6Vd.s 			page 30


 1486      61746500 
 1487              		.section	.text.VL53L0X_get_pal_state_string,"ax",%progbits
 1488              		.align	1
 1489              		.p2align 4,,15
 1490              		.global	VL53L0X_get_pal_state_string
 1491              		.syntax unified
 1492              		.thumb
 1493              		.thumb_func
 1494              		.fpu fpv4-sp-d16
 1495              		.type	VL53L0X_get_pal_state_string, %function
 1496              	VL53L0X_get_pal_state_string:
 1497              	.LFB8:
 1498              		.loc 1 336 0
 1499              		.cfi_startproc
 1500              		@ args = 0, pretend = 0, frame = 16
 1501              		@ frame_needed = 0, uses_anonymous_args = 0
 1502 0000 30B5     		push	{r4, r5, lr}
 1503              		.cfi_def_cfa_offset 12
 1504              		.cfi_offset 4, -12
 1505              		.cfi_offset 5, -8
 1506              		.cfi_offset 14, -4
 1507 0002 85B0     		sub	sp, sp, #20
 1508              		.cfi_def_cfa_offset 32
 1509 0004 0346     		mov	r3, r0
 1510 0006 0091     		str	r1, [sp]
 1511 0008 8DF80730 		strb	r3, [sp, #7]
 1512              		.loc 1 336 0
 1513 000c 3F4B     		ldr	r3, .L98
 1514 000e 1B68     		ldr	r3, [r3]
 1515 0010 0393     		str	r3, [sp, #12]
 1516              		.loc 1 337 0
 1517 0012 0023     		movs	r3, #0
 1518 0014 8DF80B30 		strb	r3, [sp, #11]
 1519              		.loc 1 341 0
 1520 0018 9DF80730 		ldrb	r3, [sp, #7]	@ zero_extendqisi2
 1521 001c 032B     		cmp	r3, #3
 1522 001e 33D0     		beq	.L87
 1523 0020 032B     		cmp	r3, #3
 1524 0022 06DC     		bgt	.L88
 1525 0024 012B     		cmp	r3, #1
 1526 0026 15D0     		beq	.L89
 1527 0028 012B     		cmp	r3, #1
 1528 002a 22DC     		bgt	.L90
 1529 002c 002B     		cmp	r3, #0
 1530 002e 07D0     		beq	.L91
 1531 0030 55E0     		b	.L86
 1532              	.L88:
 1533 0032 622B     		cmp	r3, #98
 1534 0034 3FD0     		beq	.L92
 1535 0036 632B     		cmp	r3, #99
 1536 0038 48D0     		beq	.L93
 1537 003a 042B     		cmp	r3, #4
 1538 003c 30D0     		beq	.L94
 1539 003e 4EE0     		b	.L86
 1540              	.L91:
 1541              		.loc 1 343 0
 1542 0040 009B     		ldr	r3, [sp]
ARM GAS  C:\Users\PCHAUT~1\AppData\Local\Temp\cct0c6Vd.s 			page 31


 1543 0042 334A     		ldr	r2, .L98+4
 1544 0044 1C46     		mov	r4, r3
 1545 0046 1546     		mov	r5, r2
 1546 0048 0FCD     		ldmia	r5!, {r0, r1, r2, r3}
 1547 004a 2060     		str	r0, [r4]	@ unaligned
 1548 004c 6160     		str	r1, [r4, #4]	@ unaligned
 1549 004e A260     		str	r2, [r4, #8]	@ unaligned
 1550 0050 E360     		str	r3, [r4, #12]	@ unaligned
 1551              		.loc 1 345 0
 1552 0052 4EE0     		b	.L95
 1553              	.L89:
 1554              		.loc 1 347 0
 1555 0054 009B     		ldr	r3, [sp]
 1556 0056 2F4A     		ldr	r2, .L98+8
 1557 0058 1D46     		mov	r5, r3
 1558 005a 1446     		mov	r4, r2
 1559 005c 0FCC     		ldmia	r4!, {r0, r1, r2, r3}
 1560 005e 2860     		str	r0, [r5]	@ unaligned
 1561 0060 6960     		str	r1, [r5, #4]	@ unaligned
 1562 0062 AA60     		str	r2, [r5, #8]	@ unaligned
 1563 0064 EB60     		str	r3, [r5, #12]	@ unaligned
 1564 0066 03CC     		ldmia	r4!, {r0, r1}
 1565 0068 2861     		str	r0, [r5, #16]	@ unaligned
 1566 006a 6961     		str	r1, [r5, #20]	@ unaligned
 1567 006c 2388     		ldrh	r3, [r4]	@ unaligned
 1568 006e 2B83     		strh	r3, [r5, #24]	@ unaligned
 1569              		.loc 1 349 0
 1570 0070 3FE0     		b	.L95
 1571              	.L90:
 1572              		.loc 1 351 0
 1573 0072 009B     		ldr	r3, [sp]
 1574 0074 284A     		ldr	r2, .L98+12
 1575 0076 1C46     		mov	r4, r3
 1576 0078 1346     		mov	r3, r2
 1577 007a 07CB     		ldmia	r3!, {r0, r1, r2}
 1578 007c 2060     		str	r0, [r4]	@ unaligned
 1579 007e 6160     		str	r1, [r4, #4]	@ unaligned
 1580 0080 A260     		str	r2, [r4, #8]	@ unaligned
 1581 0082 1B88     		ldrh	r3, [r3]	@ unaligned
 1582 0084 A381     		strh	r3, [r4, #12]	@ unaligned
 1583              		.loc 1 353 0
 1584 0086 34E0     		b	.L95
 1585              	.L87:
 1586              		.loc 1 355 0
 1587 0088 009B     		ldr	r3, [sp]
 1588 008a 2449     		ldr	r1, .L98+16
 1589 008c 1A46     		mov	r2, r3
 1590 008e 0B46     		mov	r3, r1
 1591 0090 03CB     		ldmia	r3!, {r0, r1}
 1592 0092 1060     		str	r0, [r2]	@ unaligned
 1593 0094 5160     		str	r1, [r2, #4]	@ unaligned
 1594 0096 1988     		ldrh	r1, [r3]	@ unaligned
 1595 0098 9B78     		ldrb	r3, [r3, #2]
 1596 009a 1181     		strh	r1, [r2, #8]	@ unaligned
 1597 009c 9372     		strb	r3, [r2, #10]
 1598              		.loc 1 357 0
 1599 009e 28E0     		b	.L95
ARM GAS  C:\Users\PCHAUT~1\AppData\Local\Temp\cct0c6Vd.s 			page 32


 1600              	.L94:
 1601              		.loc 1 359 0
 1602 00a0 009B     		ldr	r3, [sp]
 1603 00a2 1F4A     		ldr	r2, .L98+20
 1604 00a4 1C46     		mov	r4, r3
 1605 00a6 1346     		mov	r3, r2
 1606 00a8 07CB     		ldmia	r3!, {r0, r1, r2}
 1607 00aa 2060     		str	r0, [r4]	@ unaligned
 1608 00ac 6160     		str	r1, [r4, #4]	@ unaligned
 1609 00ae A260     		str	r2, [r4, #8]	@ unaligned
 1610 00b0 1B88     		ldrh	r3, [r3]	@ unaligned
 1611 00b2 A381     		strh	r3, [r4, #12]	@ unaligned
 1612              		.loc 1 361 0
 1613 00b4 1DE0     		b	.L95
 1614              	.L92:
 1615              		.loc 1 363 0
 1616 00b6 009B     		ldr	r3, [sp]
 1617 00b8 1A4A     		ldr	r2, .L98+24
 1618 00ba 1C46     		mov	r4, r3
 1619 00bc 1346     		mov	r3, r2
 1620 00be 07CB     		ldmia	r3!, {r0, r1, r2}
 1621 00c0 2060     		str	r0, [r4]	@ unaligned
 1622 00c2 6160     		str	r1, [r4, #4]	@ unaligned
 1623 00c4 A260     		str	r2, [r4, #8]	@ unaligned
 1624 00c6 1B88     		ldrh	r3, [r3]	@ unaligned
 1625 00c8 A381     		strh	r3, [r4, #12]	@ unaligned
 1626              		.loc 1 365 0
 1627 00ca 12E0     		b	.L95
 1628              	.L93:
 1629              		.loc 1 367 0
 1630 00cc 009B     		ldr	r3, [sp]
 1631 00ce 164A     		ldr	r2, .L98+28
 1632 00d0 1C46     		mov	r4, r3
 1633 00d2 1346     		mov	r3, r2
 1634 00d4 07CB     		ldmia	r3!, {r0, r1, r2}
 1635 00d6 2060     		str	r0, [r4]	@ unaligned
 1636 00d8 6160     		str	r1, [r4, #4]	@ unaligned
 1637 00da A260     		str	r2, [r4, #8]	@ unaligned
 1638              		.loc 1 369 0
 1639 00dc 09E0     		b	.L95
 1640              	.L86:
 1641              		.loc 1 372 0
 1642 00de 009B     		ldr	r3, [sp]
 1643 00e0 104A     		ldr	r2, .L98+24
 1644 00e2 1C46     		mov	r4, r3
 1645 00e4 1346     		mov	r3, r2
 1646 00e6 07CB     		ldmia	r3!, {r0, r1, r2}
 1647 00e8 2060     		str	r0, [r4]	@ unaligned
 1648 00ea 6160     		str	r1, [r4, #4]	@ unaligned
 1649 00ec A260     		str	r2, [r4, #8]	@ unaligned
 1650 00ee 1B88     		ldrh	r3, [r3]	@ unaligned
 1651 00f0 A381     		strh	r3, [r4, #12]	@ unaligned
 1652              	.L95:
 1653              		.loc 1 377 0
 1654 00f2 9DF90B30 		ldrsb	r3, [sp, #11]
 1655              		.loc 1 378 0
 1656 00f6 1846     		mov	r0, r3
ARM GAS  C:\Users\PCHAUT~1\AppData\Local\Temp\cct0c6Vd.s 			page 33


 1657 00f8 044B     		ldr	r3, .L98
 1658 00fa 039A     		ldr	r2, [sp, #12]
 1659 00fc 1B68     		ldr	r3, [r3]
 1660 00fe 9A42     		cmp	r2, r3
 1661 0100 01D0     		beq	.L97
 1662 0102 FFF7FEFF 		bl	__stack_chk_fail
 1663              	.L97:
 1664 0106 05B0     		add	sp, sp, #20
 1665              		.cfi_def_cfa_offset 12
 1666              		@ sp needed
 1667 0108 30BD     		pop	{r4, r5, pc}
 1668              	.L99:
 1669 010a 00BF     		.align	2
 1670              	.L98:
 1671 010c 00000000 		.word	__stack_chk_guard
 1672 0110 88030000 		.word	.LC45
 1673 0114 98030000 		.word	.LC46
 1674 0118 B4030000 		.word	.LC47
 1675 011c C4030000 		.word	.LC48
 1676 0120 D0030000 		.word	.LC49
 1677 0124 E0030000 		.word	.LC50
 1678 0128 F0030000 		.word	.LC51
 1679              		.cfi_endproc
 1680              	.LFE8:
 1681              		.size	VL53L0X_get_pal_state_string, .-VL53L0X_get_pal_state_string
 1682              		.section	.rodata
 1683              		.align	2
 1684              	.LC52:
 1685 03fc 54434300 		.ascii	"TCC\000"
 1686              		.align	2
 1687              	.LC53:
 1688 0400 44535300 		.ascii	"DSS\000"
 1689              		.align	2
 1690              	.LC54:
 1691 0404 4D535243 		.ascii	"MSRC\000"
 1691      00
 1692 0409 000000   		.align	2
 1693              	.LC55:
 1694 040c 50524520 		.ascii	"PRE RANGE\000"
 1694      52414E47 
 1694      4500
 1695 0416 0000     		.align	2
 1696              	.LC56:
 1697 0418 46494E41 		.ascii	"FINAL RANGE\000"
 1697      4C205241 
 1697      4E474500 
 1698              		.section	.text.VL53L0X_get_sequence_steps_info,"ax",%progbits
 1699              		.align	1
 1700              		.p2align 4,,15
 1701              		.global	VL53L0X_get_sequence_steps_info
 1702              		.syntax unified
 1703              		.thumb
 1704              		.thumb_func
 1705              		.fpu fpv4-sp-d16
 1706              		.type	VL53L0X_get_sequence_steps_info, %function
 1707              	VL53L0X_get_sequence_steps_info:
 1708              	.LFB9:
ARM GAS  C:\Users\PCHAUT~1\AppData\Local\Temp\cct0c6Vd.s 			page 34


 1709              		.loc 1 383 0
 1710              		.cfi_startproc
 1711              		@ args = 0, pretend = 0, frame = 16
 1712              		@ frame_needed = 0, uses_anonymous_args = 0
 1713 0000 10B5     		push	{r4, lr}
 1714              		.cfi_def_cfa_offset 8
 1715              		.cfi_offset 4, -8
 1716              		.cfi_offset 14, -4
 1717 0002 84B0     		sub	sp, sp, #16
 1718              		.cfi_def_cfa_offset 24
 1719 0004 0346     		mov	r3, r0
 1720 0006 0091     		str	r1, [sp]
 1721 0008 8DF80730 		strb	r3, [sp, #7]
 1722              		.loc 1 383 0
 1723 000c 254B     		ldr	r3, .L111
 1724 000e 1B68     		ldr	r3, [r3]
 1725 0010 0393     		str	r3, [sp, #12]
 1726              		.loc 1 384 0
 1727 0012 0023     		movs	r3, #0
 1728 0014 8DF80B30 		strb	r3, [sp, #11]
 1729              		.loc 1 387 0
 1730 0018 9DF80730 		ldrb	r3, [sp, #7]	@ zero_extendqisi2
 1731 001c 042B     		cmp	r3, #4
 1732 001e 31D8     		bhi	.L101
 1733 0020 01A2     		adr	r2, .L103
 1734 0022 52F823F0 		ldr	pc, [r2, r3, lsl #2]
 1735 0026 00BF     		.p2align 2
 1736              	.L103:
 1737 0028 3D000000 		.word	.L102+1
 1738 002c 47000000 		.word	.L104+1
 1739 0030 51000000 		.word	.L105+1
 1740 0034 5F000000 		.word	.L106+1
 1741 0038 73000000 		.word	.L107+1
 1742              		.p2align 1
 1743              	.L102:
 1744              		.loc 1 389 0
 1745 003c 009B     		ldr	r3, [sp]
 1746 003e 1A4A     		ldr	r2, .L111+4
 1747 0040 1068     		ldr	r0, [r2]
 1748 0042 1860     		str	r0, [r3]	@ unaligned
 1749              		.loc 1 391 0
 1750 0044 21E0     		b	.L108
 1751              	.L104:
 1752              		.loc 1 393 0
 1753 0046 009B     		ldr	r3, [sp]
 1754 0048 184A     		ldr	r2, .L111+8
 1755 004a 1068     		ldr	r0, [r2]
 1756 004c 1860     		str	r0, [r3]	@ unaligned
 1757              		.loc 1 395 0
 1758 004e 1CE0     		b	.L108
 1759              	.L105:
 1760              		.loc 1 397 0
 1761 0050 009B     		ldr	r3, [sp]
 1762 0052 174A     		ldr	r2, .L111+12
 1763 0054 1068     		ldr	r0, [r2]
 1764 0056 1860     		str	r0, [r3]	@ unaligned
 1765 0058 1279     		ldrb	r2, [r2, #4]
ARM GAS  C:\Users\PCHAUT~1\AppData\Local\Temp\cct0c6Vd.s 			page 35


 1766 005a 1A71     		strb	r2, [r3, #4]
 1767              		.loc 1 399 0
 1768 005c 15E0     		b	.L108
 1769              	.L106:
 1770              		.loc 1 401 0
 1771 005e 009B     		ldr	r3, [sp]
 1772 0060 1449     		ldr	r1, .L111+16
 1773 0062 1A46     		mov	r2, r3
 1774 0064 0B46     		mov	r3, r1
 1775 0066 03CB     		ldmia	r3!, {r0, r1}
 1776 0068 1060     		str	r0, [r2]	@ unaligned
 1777 006a 5160     		str	r1, [r2, #4]	@ unaligned
 1778 006c 1B88     		ldrh	r3, [r3]	@ unaligned
 1779 006e 1381     		strh	r3, [r2, #8]	@ unaligned
 1780              		.loc 1 403 0
 1781 0070 0BE0     		b	.L108
 1782              	.L107:
 1783              		.loc 1 405 0
 1784 0072 009B     		ldr	r3, [sp]
 1785 0074 104A     		ldr	r2, .L111+20
 1786 0076 1C46     		mov	r4, r3
 1787 0078 1346     		mov	r3, r2
 1788 007a 07CB     		ldmia	r3!, {r0, r1, r2}
 1789 007c 2060     		str	r0, [r4]	@ unaligned
 1790 007e 6160     		str	r1, [r4, #4]	@ unaligned
 1791 0080 A260     		str	r2, [r4, #8]	@ unaligned
 1792              		.loc 1 407 0
 1793 0082 02E0     		b	.L108
 1794              	.L101:
 1795              		.loc 1 410 0
 1796 0084 FC23     		movs	r3, #252
 1797 0086 8DF80B30 		strb	r3, [sp, #11]
 1798              	.L108:
 1799              		.loc 1 415 0
 1800 008a 9DF90B30 		ldrsb	r3, [sp, #11]
 1801              		.loc 1 416 0
 1802 008e 1846     		mov	r0, r3
 1803 0090 044B     		ldr	r3, .L111
 1804 0092 039A     		ldr	r2, [sp, #12]
 1805 0094 1B68     		ldr	r3, [r3]
 1806 0096 9A42     		cmp	r2, r3
 1807 0098 01D0     		beq	.L110
 1808 009a FFF7FEFF 		bl	__stack_chk_fail
 1809              	.L110:
 1810 009e 04B0     		add	sp, sp, #16
 1811              		.cfi_def_cfa_offset 8
 1812              		@ sp needed
 1813 00a0 10BD     		pop	{r4, pc}
 1814              	.L112:
 1815 00a2 00BF     		.align	2
 1816              	.L111:
 1817 00a4 00000000 		.word	__stack_chk_guard
 1818 00a8 FC030000 		.word	.LC52
 1819 00ac 00040000 		.word	.LC53
 1820 00b0 04040000 		.word	.LC54
 1821 00b4 0C040000 		.word	.LC55
 1822 00b8 18040000 		.word	.LC56
ARM GAS  C:\Users\PCHAUT~1\AppData\Local\Temp\cct0c6Vd.s 			page 36


 1823              		.cfi_endproc
 1824              	.LFE9:
 1825              		.size	VL53L0X_get_sequence_steps_info, .-VL53L0X_get_sequence_steps_info
 1826              		.section	.rodata
 1827              		.align	2
 1828              	.LC57:
 1829 0424 5349474D 		.ascii	"SIGMA FINAL RANGE\000"
 1829      41204649 
 1829      4E414C20 
 1829      52414E47 
 1829      4500
 1830 0436 0000     		.align	2
 1831              	.LC58:
 1832 0438 5349474E 		.ascii	"SIGNAL RATE FINAL RANGE\000"
 1832      414C2052 
 1832      41544520 
 1832      46494E41 
 1832      4C205241 
 1833              		.align	2
 1834              	.LC59:
 1835 0450 5349474E 		.ascii	"SIGNAL REF CLIP\000"
 1835      414C2052 
 1835      45462043 
 1835      4C495000 
 1836              		.align	2
 1837              	.LC60:
 1838 0460 52414E47 		.ascii	"RANGE IGNORE THRESHOLD\000"
 1838      45204947 
 1838      4E4F5245 
 1838      20544852 
 1838      4553484F 
 1839 0477 00       		.align	2
 1840              	.LC61:
 1841 0478 5349474E 		.ascii	"SIGNAL RATE MSRC\000"
 1841      414C2052 
 1841      41544520 
 1841      4D535243 
 1841      00
 1842 0489 000000   		.align	2
 1843              	.LC62:
 1844 048c 5349474E 		.ascii	"SIGNAL RATE PRE RANGE\000"
 1844      414C2052 
 1844      41544520 
 1844      50524520 
 1844      52414E47 
 1845              		.section	.text.VL53L0X_get_limit_check_info,"ax",%progbits
 1846              		.align	1
 1847              		.p2align 4,,15
 1848              		.global	VL53L0X_get_limit_check_info
 1849              		.syntax unified
 1850              		.thumb
 1851              		.thumb_func
 1852              		.fpu fpv4-sp-d16
 1853              		.type	VL53L0X_get_limit_check_info, %function
 1854              	VL53L0X_get_limit_check_info:
 1855              	.LFB10:
 1856              		.loc 1 421 0
ARM GAS  C:\Users\PCHAUT~1\AppData\Local\Temp\cct0c6Vd.s 			page 37


 1857              		.cfi_startproc
 1858              		@ args = 0, pretend = 0, frame = 24
 1859              		@ frame_needed = 0, uses_anonymous_args = 0
 1860 0000 30B5     		push	{r4, r5, lr}
 1861              		.cfi_def_cfa_offset 12
 1862              		.cfi_offset 4, -12
 1863              		.cfi_offset 5, -8
 1864              		.cfi_offset 14, -4
 1865 0002 87B0     		sub	sp, sp, #28
 1866              		.cfi_def_cfa_offset 40
 1867 0004 0390     		str	r0, [sp, #12]
 1868 0006 0B46     		mov	r3, r1
 1869 0008 0192     		str	r2, [sp, #4]
 1870 000a ADF80A30 		strh	r3, [sp, #10]	@ movhi
 1871              		.loc 1 421 0
 1872 000e 404B     		ldr	r3, .L125
 1873 0010 1B68     		ldr	r3, [r3]
 1874 0012 0593     		str	r3, [sp, #20]
 1875              		.loc 1 423 0
 1876 0014 0023     		movs	r3, #0
 1877 0016 8DF81330 		strb	r3, [sp, #19]
 1878              		.loc 1 427 0
 1879 001a BDF80A30 		ldrh	r3, [sp, #10]
 1880 001e 052B     		cmp	r3, #5
 1881 0020 5CD8     		bhi	.L114
 1882 0022 01A2     		adr	r2, .L116
 1883 0024 52F823F0 		ldr	pc, [r2, r3, lsl #2]
 1884              		.p2align 2
 1885              	.L116:
 1886 0028 41000000 		.word	.L115+1
 1887 002c 59000000 		.word	.L117+1
 1888 0030 73000000 		.word	.L118+1
 1889 0034 87000000 		.word	.L119+1
 1890 0038 A9000000 		.word	.L120+1
 1891 003c C1000000 		.word	.L121+1
 1892              		.p2align 1
 1893              	.L115:
 1894              		.loc 1 429 0
 1895 0040 019B     		ldr	r3, [sp, #4]
 1896 0042 344A     		ldr	r2, .L125+4
 1897 0044 1D46     		mov	r5, r3
 1898 0046 1446     		mov	r4, r2
 1899 0048 0FCC     		ldmia	r4!, {r0, r1, r2, r3}
 1900 004a 2860     		str	r0, [r5]	@ unaligned
 1901 004c 6960     		str	r1, [r5, #4]	@ unaligned
 1902 004e AA60     		str	r2, [r5, #8]	@ unaligned
 1903 0050 EB60     		str	r3, [r5, #12]	@ unaligned
 1904 0052 2388     		ldrh	r3, [r4]	@ unaligned
 1905 0054 2B82     		strh	r3, [r5, #16]	@ unaligned
 1906              		.loc 1 431 0
 1907 0056 4FE0     		b	.L122
 1908              	.L117:
 1909              		.loc 1 433 0
 1910 0058 019B     		ldr	r3, [sp, #4]
 1911 005a 2F4A     		ldr	r2, .L125+8
 1912 005c 1D46     		mov	r5, r3
 1913 005e 1446     		mov	r4, r2
ARM GAS  C:\Users\PCHAUT~1\AppData\Local\Temp\cct0c6Vd.s 			page 38


 1914 0060 0FCC     		ldmia	r4!, {r0, r1, r2, r3}
 1915 0062 2860     		str	r0, [r5]	@ unaligned
 1916 0064 6960     		str	r1, [r5, #4]	@ unaligned
 1917 0066 AA60     		str	r2, [r5, #8]	@ unaligned
 1918 0068 EB60     		str	r3, [r5, #12]	@ unaligned
 1919 006a 03CC     		ldmia	r4!, {r0, r1}
 1920 006c 2861     		str	r0, [r5, #16]	@ unaligned
 1921 006e 6961     		str	r1, [r5, #20]	@ unaligned
 1922              		.loc 1 435 0
 1923 0070 42E0     		b	.L122
 1924              	.L118:
 1925              		.loc 1 437 0
 1926 0072 019B     		ldr	r3, [sp, #4]
 1927 0074 294A     		ldr	r2, .L125+12
 1928 0076 1C46     		mov	r4, r3
 1929 0078 1546     		mov	r5, r2
 1930 007a 0FCD     		ldmia	r5!, {r0, r1, r2, r3}
 1931 007c 2060     		str	r0, [r4]	@ unaligned
 1932 007e 6160     		str	r1, [r4, #4]	@ unaligned
 1933 0080 A260     		str	r2, [r4, #8]	@ unaligned
 1934 0082 E360     		str	r3, [r4, #12]	@ unaligned
 1935              		.loc 1 439 0
 1936 0084 38E0     		b	.L122
 1937              	.L119:
 1938              		.loc 1 441 0
 1939 0086 019B     		ldr	r3, [sp, #4]
 1940 0088 254A     		ldr	r2, .L125+16
 1941 008a 1C46     		mov	r4, r3
 1942 008c 1546     		mov	r5, r2
 1943 008e 0FCD     		ldmia	r5!, {r0, r1, r2, r3}
 1944 0090 2060     		str	r0, [r4]	@ unaligned
 1945 0092 6160     		str	r1, [r4, #4]	@ unaligned
 1946 0094 A260     		str	r2, [r4, #8]	@ unaligned
 1947 0096 E360     		str	r3, [r4, #12]	@ unaligned
 1948 0098 2868     		ldr	r0, [r5]
 1949 009a 2061     		str	r0, [r4, #16]	@ unaligned
 1950 009c AB88     		ldrh	r3, [r5, #4]	@ unaligned
 1951 009e AA79     		ldrb	r2, [r5, #6]
 1952 00a0 A382     		strh	r3, [r4, #20]	@ unaligned
 1953 00a2 1346     		mov	r3, r2
 1954 00a4 A375     		strb	r3, [r4, #22]
 1955              		.loc 1 443 0
 1956 00a6 27E0     		b	.L122
 1957              	.L120:
 1958              		.loc 1 446 0
 1959 00a8 019B     		ldr	r3, [sp, #4]
 1960 00aa 1E4A     		ldr	r2, .L125+20
 1961 00ac 1D46     		mov	r5, r3
 1962 00ae 1446     		mov	r4, r2
 1963 00b0 0FCC     		ldmia	r4!, {r0, r1, r2, r3}
 1964 00b2 2860     		str	r0, [r5]	@ unaligned
 1965 00b4 6960     		str	r1, [r5, #4]	@ unaligned
 1966 00b6 AA60     		str	r2, [r5, #8]	@ unaligned
 1967 00b8 EB60     		str	r3, [r5, #12]	@ unaligned
 1968 00ba 2378     		ldrb	r3, [r4]
 1969 00bc 2B74     		strb	r3, [r5, #16]
 1970              		.loc 1 448 0
ARM GAS  C:\Users\PCHAUT~1\AppData\Local\Temp\cct0c6Vd.s 			page 39


 1971 00be 1BE0     		b	.L122
 1972              	.L121:
 1973              		.loc 1 451 0
 1974 00c0 019B     		ldr	r3, [sp, #4]
 1975 00c2 194A     		ldr	r2, .L125+24
 1976 00c4 1D46     		mov	r5, r3
 1977 00c6 1446     		mov	r4, r2
 1978 00c8 0FCC     		ldmia	r4!, {r0, r1, r2, r3}
 1979 00ca 2860     		str	r0, [r5]	@ unaligned
 1980 00cc 6960     		str	r1, [r5, #4]	@ unaligned
 1981 00ce AA60     		str	r2, [r5, #8]	@ unaligned
 1982 00d0 EB60     		str	r3, [r5, #12]	@ unaligned
 1983 00d2 2068     		ldr	r0, [r4]
 1984 00d4 2861     		str	r0, [r5, #16]	@ unaligned
 1985 00d6 A388     		ldrh	r3, [r4, #4]	@ unaligned
 1986 00d8 AB82     		strh	r3, [r5, #20]	@ unaligned
 1987              		.loc 1 453 0
 1988 00da 0DE0     		b	.L122
 1989              	.L114:
 1990              		.loc 1 456 0
 1991 00dc 019B     		ldr	r3, [sp, #4]
 1992 00de 134A     		ldr	r2, .L125+28
 1993 00e0 1D46     		mov	r5, r3
 1994 00e2 1446     		mov	r4, r2
 1995 00e4 0FCC     		ldmia	r4!, {r0, r1, r2, r3}
 1996 00e6 2860     		str	r0, [r5]	@ unaligned
 1997 00e8 6960     		str	r1, [r5, #4]	@ unaligned
 1998 00ea AA60     		str	r2, [r5, #8]	@ unaligned
 1999 00ec EB60     		str	r3, [r5, #12]	@ unaligned
 2000 00ee 2388     		ldrh	r3, [r4]	@ unaligned
 2001 00f0 A278     		ldrb	r2, [r4, #2]
 2002 00f2 2B82     		strh	r3, [r5, #16]	@ unaligned
 2003 00f4 1346     		mov	r3, r2
 2004 00f6 AB74     		strb	r3, [r5, #18]
 2005              	.L122:
 2006              		.loc 1 462 0
 2007 00f8 9DF91330 		ldrsb	r3, [sp, #19]
 2008              		.loc 1 463 0
 2009 00fc 1846     		mov	r0, r3
 2010 00fe 044B     		ldr	r3, .L125
 2011 0100 059A     		ldr	r2, [sp, #20]
 2012 0102 1B68     		ldr	r3, [r3]
 2013 0104 9A42     		cmp	r2, r3
 2014 0106 01D0     		beq	.L124
 2015 0108 FFF7FEFF 		bl	__stack_chk_fail
 2016              	.L124:
 2017 010c 07B0     		add	sp, sp, #28
 2018              		.cfi_def_cfa_offset 12
 2019              		@ sp needed
 2020 010e 30BD     		pop	{r4, r5, pc}
 2021              	.L126:
 2022              		.align	2
 2023              	.L125:
 2024 0110 00000000 		.word	__stack_chk_guard
 2025 0114 24040000 		.word	.LC57
 2026 0118 38040000 		.word	.LC58
 2027 011c 50040000 		.word	.LC59
ARM GAS  C:\Users\PCHAUT~1\AppData\Local\Temp\cct0c6Vd.s 			page 40


 2028 0120 60040000 		.word	.LC60
 2029 0124 78040000 		.word	.LC61
 2030 0128 8C040000 		.word	.LC62
 2031 012c 98010000 		.word	.LC20
 2032              		.cfi_endproc
 2033              	.LFE10:
 2034              		.size	VL53L0X_get_limit_check_info, .-VL53L0X_get_limit_check_info
 2035              		.text
 2036              	.Letext0:
 2037              		.file 2 "c:\\users\\pchautems\\documents\\robotiquetp\\eclipse_e-puck2\\tools\\gcc-arm-none-eabi-7
 2038              		.file 3 "c:\\users\\pchautems\\documents\\robotiquetp\\eclipse_e-puck2\\tools\\gcc-arm-none-eabi-7
 2039              		.file 4 "../lib/e-puck2_main-processor/src/sensors/VL53L0X/Api/core/src/../inc/vl53l0x_types.h"
 2040              		.file 5 "../lib/e-puck2_main-processor/src/sensors/VL53L0X/Api/core/src/../inc/vl53l0x_device.h"
 2041              		.file 6 "../lib/e-puck2_main-processor/src/sensors/VL53L0X/Api/core/src/../inc/vl53l0x_def.h"
 2042              		.file 7 "c:\\users\\pchautems\\documents\\robotiquetp\\eclipse_e-puck2\\tools\\gcc-arm-none-eabi-7
 2043              		.file 8 "c:\\users\\pchautems\\documents\\robotiquetp\\eclipse_e-puck2\\tools\\gcc-arm-none-eabi-7
 2044              		.file 9 "c:\\users\\pchautems\\documents\\robotiquetp\\eclipse_e-puck2\\tools\\gcc-arm-none-eabi-7
 2045              		.file 10 "c:\\users\\pchautems\\documents\\robotiquetp\\eclipse_e-puck2\\tools\\gcc-arm-none-eabi-
 2046              		.file 11 "../lib/e-puck2_main-processor/src/sensors/VL53L0X/Api/core/src/../inc/../../platform/inc
 2047              		.file 12 "c:\\users\\pchautems\\documents\\robotiquetp\\eclipse_e-puck2\\tools\\gcc-arm-none-eabi-
 2048              		.section	.debug_info,"",%progbits
 2049              	.Ldebug_info0:
 2050 0000 78110000 		.4byte	0x1178
 2051 0004 0400     		.2byte	0x4
 2052 0006 00000000 		.4byte	.Ldebug_abbrev0
 2053 000a 04       		.byte	0x4
 2054 000b 01       		.uleb128 0x1
 2055 000c 4C0B0000 		.4byte	.LASF257
 2056 0010 0C       		.byte	0xc
 2057 0011 C3050000 		.4byte	.LASF258
 2058 0015 35020000 		.4byte	.LASF259
 2059 0019 00000000 		.4byte	.Ldebug_ranges0+0
 2060 001d 00000000 		.4byte	0
 2061 0021 00000000 		.4byte	.Ldebug_line0
 2062 0025 02       		.uleb128 0x2
 2063 0026 F2080000 		.4byte	.LASF0
 2064 002a 02       		.byte	0x2
 2065 002b 29       		.byte	0x29
 2066 002c 30000000 		.4byte	0x30
 2067 0030 03       		.uleb128 0x3
 2068 0031 01       		.byte	0x1
 2069 0032 06       		.byte	0x6
 2070 0033 6E0E0000 		.4byte	.LASF2
 2071 0037 02       		.uleb128 0x2
 2072 0038 D60A0000 		.4byte	.LASF1
 2073 003c 02       		.byte	0x2
 2074 003d 2B       		.byte	0x2b
 2075 003e 42000000 		.4byte	0x42
 2076 0042 03       		.uleb128 0x3
 2077 0043 01       		.byte	0x1
 2078 0044 08       		.byte	0x8
 2079 0045 0D0D0000 		.4byte	.LASF3
 2080 0049 03       		.uleb128 0x3
 2081 004a 02       		.byte	0x2
 2082 004b 05       		.byte	0x5
 2083 004c D3090000 		.4byte	.LASF4
 2084 0050 02       		.uleb128 0x2
ARM GAS  C:\Users\PCHAUT~1\AppData\Local\Temp\cct0c6Vd.s 			page 41


 2085 0051 47040000 		.4byte	.LASF5
 2086 0055 02       		.byte	0x2
 2087 0056 39       		.byte	0x39
 2088 0057 5B000000 		.4byte	0x5b
 2089 005b 03       		.uleb128 0x3
 2090 005c 02       		.byte	0x2
 2091 005d 07       		.byte	0x7
 2092 005e 8F0E0000 		.4byte	.LASF6
 2093 0062 02       		.uleb128 0x2
 2094 0063 72010000 		.4byte	.LASF7
 2095 0067 02       		.byte	0x2
 2096 0068 4D       		.byte	0x4d
 2097 0069 6D000000 		.4byte	0x6d
 2098 006d 03       		.uleb128 0x3
 2099 006e 04       		.byte	0x4
 2100 006f 05       		.byte	0x5
 2101 0070 DD090000 		.4byte	.LASF8
 2102 0074 02       		.uleb128 0x2
 2103 0075 410D0000 		.4byte	.LASF9
 2104 0079 02       		.byte	0x2
 2105 007a 4F       		.byte	0x4f
 2106 007b 7F000000 		.4byte	0x7f
 2107 007f 03       		.uleb128 0x3
 2108 0080 04       		.byte	0x4
 2109 0081 07       		.byte	0x7
 2110 0082 3A0B0000 		.4byte	.LASF10
 2111 0086 03       		.uleb128 0x3
 2112 0087 08       		.byte	0x8
 2113 0088 05       		.byte	0x5
 2114 0089 EB070000 		.4byte	.LASF11
 2115 008d 03       		.uleb128 0x3
 2116 008e 08       		.byte	0x8
 2117 008f 07       		.byte	0x7
 2118 0090 E1030000 		.4byte	.LASF12
 2119 0094 04       		.uleb128 0x4
 2120 0095 04       		.byte	0x4
 2121 0096 05       		.byte	0x5
 2122 0097 696E7400 		.ascii	"int\000"
 2123 009b 03       		.uleb128 0x3
 2124 009c 04       		.byte	0x4
 2125 009d 07       		.byte	0x7
 2126 009e E5000000 		.4byte	.LASF13
 2127 00a2 02       		.uleb128 0x2
 2128 00a3 0A030000 		.4byte	.LASF14
 2129 00a7 03       		.byte	0x3
 2130 00a8 14       		.byte	0x14
 2131 00a9 25000000 		.4byte	0x25
 2132 00ad 02       		.uleb128 0x2
 2133 00ae 5E070000 		.4byte	.LASF15
 2134 00b2 03       		.byte	0x3
 2135 00b3 18       		.byte	0x18
 2136 00b4 37000000 		.4byte	0x37
 2137 00b8 02       		.uleb128 0x2
 2138 00b9 57090000 		.4byte	.LASF16
 2139 00bd 03       		.byte	0x3
 2140 00be 24       		.byte	0x24
 2141 00bf 50000000 		.4byte	0x50
ARM GAS  C:\Users\PCHAUT~1\AppData\Local\Temp\cct0c6Vd.s 			page 42


 2142 00c3 02       		.uleb128 0x2
 2143 00c4 CE0C0000 		.4byte	.LASF17
 2144 00c8 03       		.byte	0x3
 2145 00c9 2C       		.byte	0x2c
 2146 00ca 62000000 		.4byte	0x62
 2147 00ce 02       		.uleb128 0x2
 2148 00cf 01030000 		.4byte	.LASF18
 2149 00d3 03       		.byte	0x3
 2150 00d4 30       		.byte	0x30
 2151 00d5 74000000 		.4byte	0x74
 2152 00d9 03       		.uleb128 0x3
 2153 00da 08       		.byte	0x8
 2154 00db 04       		.byte	0x4
 2155 00dc 43090000 		.4byte	.LASF19
 2156 00e0 02       		.uleb128 0x2
 2157 00e1 CF020000 		.4byte	.LASF20
 2158 00e5 04       		.byte	0x4
 2159 00e6 6D       		.byte	0x6d
 2160 00e7 CE000000 		.4byte	0xce
 2161 00eb 02       		.uleb128 0x2
 2162 00ec 5C030000 		.4byte	.LASF21
 2163 00f0 05       		.byte	0x5
 2164 00f1 36       		.byte	0x36
 2165 00f2 AD000000 		.4byte	0xad
 2166 00f6 02       		.uleb128 0x2
 2167 00f7 66070000 		.4byte	.LASF22
 2168 00fb 05       		.byte	0x5
 2169 00fc 64       		.byte	0x64
 2170 00fd AD000000 		.4byte	0xad
 2171 0101 05       		.uleb128 0x5
 2172 0102 63       		.byte	0x63
 2173 0103 06       		.byte	0x6
 2174 0104 6E       		.byte	0x6e
 2175 0105 52010000 		.4byte	0x152
 2176 0109 06       		.uleb128 0x6
 2177 010a 9F040000 		.4byte	.LASF23
 2178 010e 06       		.byte	0x6
 2179 010f 6F       		.byte	0x6f
 2180 0110 52010000 		.4byte	0x152
 2181 0114 00       		.byte	0
 2182 0115 06       		.uleb128 0x6
 2183 0116 A4070000 		.4byte	.LASF24
 2184 011a 06       		.byte	0x6
 2185 011b 71       		.byte	0x71
 2186 011c 52010000 		.4byte	0x152
 2187 0120 20       		.byte	0x20
 2188 0121 06       		.uleb128 0x6
 2189 0122 2D010000 		.4byte	.LASF25
 2190 0126 06       		.byte	0x6
 2191 0127 73       		.byte	0x73
 2192 0128 52010000 		.4byte	0x152
 2193 012c 40       		.byte	0x40
 2194 012d 06       		.uleb128 0x6
 2195 012e CC0D0000 		.4byte	.LASF26
 2196 0132 06       		.byte	0x6
 2197 0133 75       		.byte	0x75
 2198 0134 AD000000 		.4byte	0xad
ARM GAS  C:\Users\PCHAUT~1\AppData\Local\Temp\cct0c6Vd.s 			page 43


 2199 0138 60       		.byte	0x60
 2200 0139 06       		.uleb128 0x6
 2201 013a 44000000 		.4byte	.LASF27
 2202 013e 06       		.byte	0x6
 2203 013f 77       		.byte	0x77
 2204 0140 AD000000 		.4byte	0xad
 2205 0144 61       		.byte	0x61
 2206 0145 06       		.uleb128 0x6
 2207 0146 9B030000 		.4byte	.LASF28
 2208 014a 06       		.byte	0x6
 2209 014b 79       		.byte	0x79
 2210 014c AD000000 		.4byte	0xad
 2211 0150 62       		.byte	0x62
 2212 0151 00       		.byte	0
 2213 0152 07       		.uleb128 0x7
 2214 0153 62010000 		.4byte	0x162
 2215 0157 62010000 		.4byte	0x162
 2216 015b 08       		.uleb128 0x8
 2217 015c 9B000000 		.4byte	0x9b
 2218 0160 1F       		.byte	0x1f
 2219 0161 00       		.byte	0
 2220 0162 03       		.uleb128 0x3
 2221 0163 01       		.byte	0x1
 2222 0164 08       		.byte	0x8
 2223 0165 A0060000 		.4byte	.LASF29
 2224 0169 09       		.uleb128 0x9
 2225 016a 62010000 		.4byte	0x162
 2226 016e 02       		.uleb128 0x2
 2227 016f 70020000 		.4byte	.LASF30
 2228 0173 06       		.byte	0x6
 2229 0174 7B       		.byte	0x7b
 2230 0175 01010000 		.4byte	0x101
 2231 0179 02       		.uleb128 0x2
 2232 017a 060B0000 		.4byte	.LASF31
 2233 017e 06       		.byte	0x6
 2234 017f 83       		.byte	0x83
 2235 0180 A2000000 		.4byte	0xa2
 2236 0184 02       		.uleb128 0x2
 2237 0185 16080000 		.4byte	.LASF32
 2238 0189 06       		.byte	0x6
 2239 018a B5       		.byte	0xb5
 2240 018b AD000000 		.4byte	0xad
 2241 018f 02       		.uleb128 0x2
 2242 0190 A9070000 		.4byte	.LASF33
 2243 0194 06       		.byte	0x6
 2244 0195 C7       		.byte	0xc7
 2245 0196 AD000000 		.4byte	0xad
 2246 019a 02       		.uleb128 0x2
 2247 019b 1A010000 		.4byte	.LASF34
 2248 019f 06       		.byte	0x6
 2249 01a0 DA       		.byte	0xda
 2250 01a1 AD000000 		.4byte	0xad
 2251 01a5 05       		.uleb128 0x5
 2252 01a6 40       		.byte	0x40
 2253 01a7 06       		.byte	0x6
 2254 01a8 EA       		.byte	0xea
 2255 01a9 41020000 		.4byte	0x241
ARM GAS  C:\Users\PCHAUT~1\AppData\Local\Temp\cct0c6Vd.s 			page 44


 2256 01ad 06       		.uleb128 0x6
 2257 01ae 04090000 		.4byte	.LASF35
 2258 01b2 06       		.byte	0x6
 2259 01b3 EB       		.byte	0xeb
 2260 01b4 84010000 		.4byte	0x184
 2261 01b8 00       		.byte	0
 2262 01b9 06       		.uleb128 0x6
 2263 01ba 73000000 		.4byte	.LASF36
 2264 01be 06       		.byte	0x6
 2265 01bf ED       		.byte	0xed
 2266 01c0 8F010000 		.4byte	0x18f
 2267 01c4 01       		.byte	0x1
 2268 01c5 06       		.uleb128 0x6
 2269 01c6 E8060000 		.4byte	.LASF37
 2270 01ca 06       		.byte	0x6
 2271 01cb F0       		.byte	0xf0
 2272 01cc CE000000 		.4byte	0xce
 2273 01d0 04       		.byte	0x4
 2274 01d1 06       		.uleb128 0x6
 2275 01d2 30050000 		.4byte	.LASF38
 2276 01d6 06       		.byte	0x6
 2277 01d7 F2       		.byte	0xf2
 2278 01d8 CE000000 		.4byte	0xce
 2279 01dc 08       		.byte	0x8
 2280 01dd 06       		.uleb128 0x6
 2281 01de 9A000000 		.4byte	.LASF39
 2282 01e2 06       		.byte	0x6
 2283 01e3 F5       		.byte	0xf5
 2284 01e4 AD000000 		.4byte	0xad
 2285 01e8 0C       		.byte	0xc
 2286 01e9 06       		.uleb128 0x6
 2287 01ea F2000000 		.4byte	.LASF40
 2288 01ee 06       		.byte	0x6
 2289 01ef F7       		.byte	0xf7
 2290 01f0 B8000000 		.4byte	0xb8
 2291 01f4 0E       		.byte	0xe
 2292 01f5 06       		.uleb128 0x6
 2293 01f6 0F090000 		.4byte	.LASF41
 2294 01fa 06       		.byte	0x6
 2295 01fb F9       		.byte	0xf9
 2296 01fc E0000000 		.4byte	0xe0
 2297 0200 10       		.byte	0x10
 2298 0201 06       		.uleb128 0x6
 2299 0202 18060000 		.4byte	.LASF42
 2300 0206 06       		.byte	0x6
 2301 0207 FC       		.byte	0xfc
 2302 0208 C3000000 		.4byte	0xc3
 2303 020c 14       		.byte	0x14
 2304 020d 06       		.uleb128 0x6
 2305 020e 37010000 		.4byte	.LASF43
 2306 0212 06       		.byte	0x6
 2307 0213 FF       		.byte	0xff
 2308 0214 41020000 		.4byte	0x241
 2309 0218 18       		.byte	0x18
 2310 0219 0A       		.uleb128 0xa
 2311 021a ED010000 		.4byte	.LASF44
 2312 021e 06       		.byte	0x6
ARM GAS  C:\Users\PCHAUT~1\AppData\Local\Temp\cct0c6Vd.s 			page 45


 2313 021f 0101     		.2byte	0x101
 2314 0221 41020000 		.4byte	0x241
 2315 0225 1E       		.byte	0x1e
 2316 0226 0A       		.uleb128 0xa
 2317 0227 9B050000 		.4byte	.LASF45
 2318 022b 06       		.byte	0x6
 2319 022c 0401     		.2byte	0x104
 2320 022e 51020000 		.4byte	0x251
 2321 0232 24       		.byte	0x24
 2322 0233 0A       		.uleb128 0xa
 2323 0234 CD010000 		.4byte	.LASF46
 2324 0238 06       		.byte	0x6
 2325 0239 0701     		.2byte	0x107
 2326 023b AD000000 		.4byte	0xad
 2327 023f 3C       		.byte	0x3c
 2328 0240 00       		.byte	0
 2329 0241 07       		.uleb128 0x7
 2330 0242 AD000000 		.4byte	0xad
 2331 0246 51020000 		.4byte	0x251
 2332 024a 08       		.uleb128 0x8
 2333 024b 9B000000 		.4byte	0x9b
 2334 024f 05       		.byte	0x5
 2335 0250 00       		.byte	0
 2336 0251 07       		.uleb128 0x7
 2337 0252 E0000000 		.4byte	0xe0
 2338 0256 61020000 		.4byte	0x261
 2339 025a 08       		.uleb128 0x8
 2340 025b 9B000000 		.4byte	0x9b
 2341 025f 05       		.byte	0x5
 2342 0260 00       		.byte	0
 2343 0261 0B       		.uleb128 0xb
 2344 0262 3A030000 		.4byte	.LASF47
 2345 0266 06       		.byte	0x6
 2346 0267 0901     		.2byte	0x109
 2347 0269 A5010000 		.4byte	0x1a5
 2348 026d 0B       		.uleb128 0xb
 2349 026e D1080000 		.4byte	.LASF48
 2350 0272 06       		.byte	0x6
 2351 0273 1101     		.2byte	0x111
 2352 0275 AD000000 		.4byte	0xad
 2353 0279 0C       		.uleb128 0xc
 2354 027a 08       		.byte	0x8
 2355 027b 06       		.byte	0x6
 2356 027c 2701     		.2byte	0x127
 2357 027e 9D020000 		.4byte	0x29d
 2358 0282 0A       		.uleb128 0xa
 2359 0283 F8030000 		.4byte	.LASF49
 2360 0287 06       		.byte	0x6
 2361 0288 2801     		.2byte	0x128
 2362 028a C3000000 		.4byte	0xc3
 2363 028e 00       		.byte	0
 2364 028f 0A       		.uleb128 0xa
 2365 0290 93080000 		.4byte	.LASF50
 2366 0294 06       		.byte	0x6
 2367 0295 2A01     		.2byte	0x12a
 2368 0297 C3000000 		.4byte	0xc3
 2369 029b 04       		.byte	0x4
ARM GAS  C:\Users\PCHAUT~1\AppData\Local\Temp\cct0c6Vd.s 			page 46


 2370 029c 00       		.byte	0
 2371 029d 0B       		.uleb128 0xb
 2372 029e DF080000 		.4byte	.LASF51
 2373 02a2 06       		.byte	0x6
 2374 02a3 2C01     		.2byte	0x12c
 2375 02a5 79020000 		.4byte	0x279
 2376 02a9 0C       		.uleb128 0xc
 2377 02aa 1C       		.byte	0x1c
 2378 02ab 06       		.byte	0x6
 2379 02ac 3201     		.2byte	0x132
 2380 02ae 35030000 		.4byte	0x335
 2381 02b2 0A       		.uleb128 0xa
 2382 02b3 600F0000 		.4byte	.LASF52
 2383 02b7 06       		.byte	0x6
 2384 02b8 3301     		.2byte	0x133
 2385 02ba CE000000 		.4byte	0xce
 2386 02be 00       		.byte	0
 2387 02bf 0A       		.uleb128 0xa
 2388 02c0 7F060000 		.4byte	.LASF53
 2389 02c4 06       		.byte	0x6
 2390 02c5 3401     		.2byte	0x134
 2391 02c7 CE000000 		.4byte	0xce
 2392 02cb 04       		.byte	0x4
 2393 02cc 0A       		.uleb128 0xa
 2394 02cd B80E0000 		.4byte	.LASF54
 2395 02d1 06       		.byte	0x6
 2396 02d2 3901     		.2byte	0x139
 2397 02d4 B8000000 		.4byte	0xb8
 2398 02d8 08       		.byte	0x8
 2399 02d9 0A       		.uleb128 0xa
 2400 02da FF010000 		.4byte	.LASF55
 2401 02de 06       		.byte	0x6
 2402 02df 3B01     		.2byte	0x13b
 2403 02e1 B8000000 		.4byte	0xb8
 2404 02e5 0A       		.byte	0xa
 2405 02e6 0A       		.uleb128 0xa
 2406 02e7 12000000 		.4byte	.LASF56
 2407 02eb 06       		.byte	0x6
 2408 02ec 4001     		.2byte	0x140
 2409 02ee E0000000 		.4byte	0xe0
 2410 02f2 0C       		.byte	0xc
 2411 02f3 0A       		.uleb128 0xa
 2412 02f4 5C010000 		.4byte	.LASF57
 2413 02f8 06       		.byte	0x6
 2414 02f9 4401     		.2byte	0x144
 2415 02fb E0000000 		.4byte	0xe0
 2416 02ff 10       		.byte	0x10
 2417 0300 0A       		.uleb128 0xa
 2418 0301 11050000 		.4byte	.LASF58
 2419 0305 06       		.byte	0x6
 2420 0306 4901     		.2byte	0x149
 2421 0308 B8000000 		.4byte	0xb8
 2422 030c 14       		.byte	0x14
 2423 030d 0A       		.uleb128 0xa
 2424 030e 8F0A0000 		.4byte	.LASF59
 2425 0312 06       		.byte	0x6
 2426 0313 4D01     		.2byte	0x14d
ARM GAS  C:\Users\PCHAUT~1\AppData\Local\Temp\cct0c6Vd.s 			page 47


 2427 0315 AD000000 		.4byte	0xad
 2428 0319 16       		.byte	0x16
 2429 031a 0A       		.uleb128 0xa
 2430 031b ED0E0000 		.4byte	.LASF60
 2431 031f 06       		.byte	0x6
 2432 0320 5001     		.2byte	0x150
 2433 0322 AD000000 		.4byte	0xad
 2434 0326 17       		.byte	0x17
 2435 0327 0A       		.uleb128 0xa
 2436 0328 D6070000 		.4byte	.LASF61
 2437 032c 06       		.byte	0x6
 2438 032d 5301     		.2byte	0x153
 2439 032f AD000000 		.4byte	0xad
 2440 0333 18       		.byte	0x18
 2441 0334 00       		.byte	0
 2442 0335 0B       		.uleb128 0xb
 2443 0336 60090000 		.4byte	.LASF62
 2444 033a 06       		.byte	0x6
 2445 033b 5701     		.2byte	0x157
 2446 033d A9020000 		.4byte	0x2a9
 2447 0341 0C       		.uleb128 0xc
 2448 0342 68       		.byte	0x68
 2449 0343 06       		.byte	0x6
 2450 0344 6001     		.2byte	0x160
 2451 0346 99030000 		.4byte	0x399
 2452 034a 0A       		.uleb128 0xa
 2453 034b 8D050000 		.4byte	.LASF63
 2454 034f 06       		.byte	0x6
 2455 0350 6201     		.2byte	0x162
 2456 0352 99030000 		.4byte	0x399
 2457 0356 00       		.byte	0
 2458 0357 0A       		.uleb128 0xa
 2459 0358 23030000 		.4byte	.LASF64
 2460 035c 06       		.byte	0x6
 2461 035d 6401     		.2byte	0x164
 2462 035f AD000000 		.4byte	0xad
 2463 0363 60       		.byte	0x60
 2464 0364 0A       		.uleb128 0xa
 2465 0365 E2070000 		.4byte	.LASF65
 2466 0369 06       		.byte	0x6
 2467 036a 6601     		.2byte	0x166
 2468 036c AD000000 		.4byte	0xad
 2469 0370 61       		.byte	0x61
 2470 0371 0A       		.uleb128 0xa
 2471 0372 1D070000 		.4byte	.LASF66
 2472 0376 06       		.byte	0x6
 2473 0377 6701     		.2byte	0x167
 2474 0379 AD000000 		.4byte	0xad
 2475 037d 62       		.byte	0x62
 2476 037e 0A       		.uleb128 0xa
 2477 037f 1B0D0000 		.4byte	.LASF67
 2478 0383 06       		.byte	0x6
 2479 0384 6801     		.2byte	0x168
 2480 0386 AD000000 		.4byte	0xad
 2481 038a 63       		.byte	0x63
 2482 038b 0A       		.uleb128 0xa
 2483 038c 50010000 		.4byte	.LASF68
ARM GAS  C:\Users\PCHAUT~1\AppData\Local\Temp\cct0c6Vd.s 			page 48


 2484 0390 06       		.byte	0x6
 2485 0391 6B01     		.2byte	0x16b
 2486 0393 EB000000 		.4byte	0xeb
 2487 0397 64       		.byte	0x64
 2488 0398 00       		.byte	0
 2489 0399 07       		.uleb128 0x7
 2490 039a CE000000 		.4byte	0xce
 2491 039e A9030000 		.4byte	0x3a9
 2492 03a2 08       		.uleb128 0x8
 2493 03a3 9B000000 		.4byte	0x9b
 2494 03a7 17       		.byte	0x17
 2495 03a8 00       		.byte	0
 2496 03a9 0B       		.uleb128 0xb
 2497 03aa 980F0000 		.4byte	.LASF69
 2498 03ae 06       		.byte	0x6
 2499 03af 6E01     		.2byte	0x16e
 2500 03b1 41030000 		.4byte	0x341
 2501 03b5 0C       		.uleb128 0xc
 2502 03b6 0C       		.byte	0xc
 2503 03b7 06       		.byte	0x6
 2504 03b8 7601     		.2byte	0x176
 2505 03ba D9030000 		.4byte	0x3d9
 2506 03be 0A       		.uleb128 0xa
 2507 03bf 90040000 		.4byte	.LASF70
 2508 03c3 06       		.byte	0x6
 2509 03c4 7701     		.2byte	0x177
 2510 03c6 41020000 		.4byte	0x241
 2511 03ca 00       		.byte	0
 2512 03cb 0A       		.uleb128 0xa
 2513 03cc ED0A0000 		.4byte	.LASF71
 2514 03d0 06       		.byte	0x6
 2515 03d1 7901     		.2byte	0x179
 2516 03d3 41020000 		.4byte	0x241
 2517 03d7 06       		.byte	0x6
 2518 03d8 00       		.byte	0
 2519 03d9 0B       		.uleb128 0xb
 2520 03da 3F070000 		.4byte	.LASF72
 2521 03de 06       		.byte	0x6
 2522 03df 7B01     		.2byte	0x17b
 2523 03e1 B5030000 		.4byte	0x3b5
 2524 03e5 0C       		.uleb128 0xc
 2525 03e6 50       		.byte	0x50
 2526 03e7 06       		.byte	0x6
 2527 03e8 7D01     		.2byte	0x17d
 2528 03ea F3040000 		.4byte	0x4f3
 2529 03ee 0A       		.uleb128 0xa
 2530 03ef 37040000 		.4byte	.LASF73
 2531 03f3 06       		.byte	0x6
 2532 03f4 7E01     		.2byte	0x17e
 2533 03f6 E0000000 		.4byte	0xe0
 2534 03fa 00       		.byte	0
 2535 03fb 0A       		.uleb128 0xa
 2536 03fc 080F0000 		.4byte	.LASF74
 2537 0400 06       		.byte	0x6
 2538 0401 8001     		.2byte	0x180
 2539 0403 B8000000 		.4byte	0xb8
 2540 0407 04       		.byte	0x4
ARM GAS  C:\Users\PCHAUT~1\AppData\Local\Temp\cct0c6Vd.s 			page 49


 2541 0408 0A       		.uleb128 0xa
 2542 0409 EF0D0000 		.4byte	.LASF75
 2543 040d 06       		.byte	0x6
 2544 040e 8301     		.2byte	0x183
 2545 0410 F6000000 		.4byte	0xf6
 2546 0414 06       		.byte	0x6
 2547 0415 0A       		.uleb128 0xa
 2548 0416 6A0A0000 		.4byte	.LASF76
 2549 041a 06       		.byte	0x6
 2550 041b 8601     		.2byte	0x186
 2551 041d CE000000 		.4byte	0xce
 2552 0421 08       		.byte	0x8
 2553 0422 0A       		.uleb128 0xa
 2554 0423 7B0D0000 		.4byte	.LASF77
 2555 0427 06       		.byte	0x6
 2556 0428 8801     		.2byte	0x188
 2557 042a AD000000 		.4byte	0xad
 2558 042e 0C       		.byte	0xc
 2559 042f 0A       		.uleb128 0xa
 2560 0430 280D0000 		.4byte	.LASF78
 2561 0434 06       		.byte	0x6
 2562 0435 8A01     		.2byte	0x18a
 2563 0437 CE000000 		.4byte	0xce
 2564 043b 10       		.byte	0x10
 2565 043c 0A       		.uleb128 0xa
 2566 043d B2000000 		.4byte	.LASF79
 2567 0441 06       		.byte	0x6
 2568 0442 8C01     		.2byte	0x18c
 2569 0444 AD000000 		.4byte	0xad
 2570 0448 14       		.byte	0x14
 2571 0449 0A       		.uleb128 0xa
 2572 044a D60E0000 		.4byte	.LASF80
 2573 044e 06       		.byte	0x6
 2574 044f 8F01     		.2byte	0x18f
 2575 0451 B8000000 		.4byte	0xb8
 2576 0455 16       		.byte	0x16
 2577 0456 0A       		.uleb128 0xa
 2578 0457 4E060000 		.4byte	.LASF81
 2579 045b 06       		.byte	0x6
 2580 045c 9101     		.2byte	0x191
 2581 045e B8000000 		.4byte	0xb8
 2582 0462 18       		.byte	0x18
 2583 0463 0A       		.uleb128 0xa
 2584 0464 E90C0000 		.4byte	.LASF82
 2585 0468 06       		.byte	0x6
 2586 0469 9401     		.2byte	0x194
 2587 046b B8000000 		.4byte	0xb8
 2588 046f 1A       		.byte	0x1a
 2589 0470 0A       		.uleb128 0xa
 2590 0471 D1060000 		.4byte	.LASF83
 2591 0475 06       		.byte	0x6
 2592 0476 9901     		.2byte	0x199
 2593 0478 AD000000 		.4byte	0xad
 2594 047c 1C       		.byte	0x1c
 2595 047d 0A       		.uleb128 0xa
 2596 047e 84050000 		.4byte	.LASF84
 2597 0482 06       		.byte	0x6
ARM GAS  C:\Users\PCHAUT~1\AppData\Local\Temp\cct0c6Vd.s 			page 50


 2598 0483 9B01     		.2byte	0x19b
 2599 0485 AD000000 		.4byte	0xad
 2600 0489 1D       		.byte	0x1d
 2601 048a 0A       		.uleb128 0xa
 2602 048b 2C020000 		.4byte	.LASF85
 2603 048f 06       		.byte	0x6
 2604 0490 9C01     		.2byte	0x19c
 2605 0492 AD000000 		.4byte	0xad
 2606 0496 1E       		.byte	0x1e
 2607 0497 0A       		.uleb128 0xa
 2608 0498 2D010000 		.4byte	.LASF25
 2609 049c 06       		.byte	0x6
 2610 049d 9D01     		.2byte	0x19d
 2611 049f 52010000 		.4byte	0x152
 2612 04a3 1F       		.byte	0x1f
 2613 04a4 0A       		.uleb128 0xa
 2614 04a5 53050000 		.4byte	.LASF86
 2615 04a9 06       		.byte	0x6
 2616 04aa 9F01     		.2byte	0x19f
 2617 04ac AD000000 		.4byte	0xad
 2618 04b0 3F       		.byte	0x3f
 2619 04b1 0A       		.uleb128 0xa
 2620 04b2 00000000 		.4byte	.LASF87
 2621 04b6 06       		.byte	0x6
 2622 04b7 A001     		.2byte	0x1a0
 2623 04b9 AD000000 		.4byte	0xad
 2624 04bd 40       		.byte	0x40
 2625 04be 0A       		.uleb128 0xa
 2626 04bf 48080000 		.4byte	.LASF88
 2627 04c3 06       		.byte	0x6
 2628 04c4 A101     		.2byte	0x1a1
 2629 04c6 AD000000 		.4byte	0xad
 2630 04ca 41       		.byte	0x41
 2631 04cb 0A       		.uleb128 0xa
 2632 04cc E6090000 		.4byte	.LASF89
 2633 04d0 06       		.byte	0x6
 2634 04d1 A201     		.2byte	0x1a2
 2635 04d3 CE000000 		.4byte	0xce
 2636 04d7 44       		.byte	0x44
 2637 04d8 0A       		.uleb128 0xa
 2638 04d9 2F000000 		.4byte	.LASF90
 2639 04dd 06       		.byte	0x6
 2640 04de A301     		.2byte	0x1a3
 2641 04e0 CE000000 		.4byte	0xce
 2642 04e4 48       		.byte	0x48
 2643 04e5 0A       		.uleb128 0xa
 2644 04e6 DD0F0000 		.4byte	.LASF91
 2645 04ea 06       		.byte	0x6
 2646 04eb A401     		.2byte	0x1a4
 2647 04ed E0000000 		.4byte	0xe0
 2648 04f1 4C       		.byte	0x4c
 2649 04f2 00       		.byte	0
 2650 04f3 0B       		.uleb128 0xb
 2651 04f4 DE020000 		.4byte	.LASF92
 2652 04f8 06       		.byte	0x6
 2653 04f9 A701     		.2byte	0x1a7
 2654 04fb E5030000 		.4byte	0x3e5
ARM GAS  C:\Users\PCHAUT~1\AppData\Local\Temp\cct0c6Vd.s 			page 51


 2655 04ff 0D       		.uleb128 0xd
 2656 0500 5C01     		.2byte	0x15c
 2657 0502 06       		.byte	0x6
 2658 0503 B101     		.2byte	0x1b1
 2659 0505 61060000 		.4byte	0x661
 2660 0509 0A       		.uleb128 0xa
 2661 050a 76060000 		.4byte	.LASF93
 2662 050e 06       		.byte	0x6
 2663 050f B201     		.2byte	0x1b2
 2664 0511 9D020000 		.4byte	0x29d
 2665 0515 00       		.byte	0
 2666 0516 0A       		.uleb128 0xa
 2667 0517 85020000 		.4byte	.LASF94
 2668 051b 06       		.byte	0x6
 2669 051c B401     		.2byte	0x1b4
 2670 051e C3000000 		.4byte	0xc3
 2671 0522 08       		.byte	0x8
 2672 0523 0A       		.uleb128 0xa
 2673 0524 BA030000 		.4byte	.LASF95
 2674 0528 06       		.byte	0x6
 2675 0529 B601     		.2byte	0x1b6
 2676 052b C3000000 		.4byte	0xc3
 2677 052f 0C       		.byte	0xc
 2678 0530 0A       		.uleb128 0xa
 2679 0531 280B0000 		.4byte	.LASF96
 2680 0535 06       		.byte	0x6
 2681 0536 B801     		.2byte	0x1b8
 2682 0538 61020000 		.4byte	0x261
 2683 053c 10       		.byte	0x10
 2684 053d 0A       		.uleb128 0xa
 2685 053e 0C070000 		.4byte	.LASF97
 2686 0542 06       		.byte	0x6
 2687 0543 BA01     		.2byte	0x1ba
 2688 0545 35030000 		.4byte	0x335
 2689 0549 50       		.byte	0x50
 2690 054a 0A       		.uleb128 0xa
 2691 054b 7A0E0000 		.4byte	.LASF98
 2692 054f 06       		.byte	0x6
 2693 0550 BC01     		.2byte	0x1bc
 2694 0552 A9030000 		.4byte	0x3a9
 2695 0556 6C       		.byte	0x6c
 2696 0557 0A       		.uleb128 0xa
 2697 0558 900C0000 		.4byte	.LASF99
 2698 055c 06       		.byte	0x6
 2699 055d BE01     		.2byte	0x1be
 2700 055f F3040000 		.4byte	0x4f3
 2701 0563 D4       		.byte	0xd4
 2702 0564 0E       		.uleb128 0xe
 2703 0565 27050000 		.4byte	.LASF100
 2704 0569 06       		.byte	0x6
 2705 056a C001     		.2byte	0x1c0
 2706 056c D9030000 		.4byte	0x3d9
 2707 0570 2401     		.2byte	0x124
 2708 0572 0E       		.uleb128 0xe
 2709 0573 95090000 		.4byte	.LASF101
 2710 0577 06       		.byte	0x6
 2711 0578 C201     		.2byte	0x1c2
ARM GAS  C:\Users\PCHAUT~1\AppData\Local\Temp\cct0c6Vd.s 			page 52


 2712 057a AD000000 		.4byte	0xad
 2713 057e 3001     		.2byte	0x130
 2714 0580 0E       		.uleb128 0xe
 2715 0581 A20E0000 		.4byte	.LASF102
 2716 0585 06       		.byte	0x6
 2717 0586 C401     		.2byte	0x1c4
 2718 0588 AD000000 		.4byte	0xad
 2719 058c 3101     		.2byte	0x131
 2720 058e 0E       		.uleb128 0xe
 2721 058f 570F0000 		.4byte	.LASF103
 2722 0593 06       		.byte	0x6
 2723 0594 C601     		.2byte	0x1c6
 2724 0596 6D020000 		.4byte	0x26d
 2725 059a 3201     		.2byte	0x132
 2726 059c 0E       		.uleb128 0xe
 2727 059d E3010000 		.4byte	.LASF104
 2728 05a1 06       		.byte	0x6
 2729 05a2 C801     		.2byte	0x1c8
 2730 05a4 9A010000 		.4byte	0x19a
 2731 05a8 3301     		.2byte	0x133
 2732 05aa 0E       		.uleb128 0xe
 2733 05ab D60E0000 		.4byte	.LASF80
 2734 05af 06       		.byte	0x6
 2735 05b0 CA01     		.2byte	0x1ca
 2736 05b2 B8000000 		.4byte	0xb8
 2737 05b6 3401     		.2byte	0x134
 2738 05b8 0E       		.uleb128 0xe
 2739 05b9 4E060000 		.4byte	.LASF81
 2740 05bd 06       		.byte	0x6
 2741 05be CC01     		.2byte	0x1cc
 2742 05c0 B8000000 		.4byte	0xb8
 2743 05c4 3601     		.2byte	0x136
 2744 05c6 0E       		.uleb128 0xe
 2745 05c7 E90C0000 		.4byte	.LASF82
 2746 05cb 06       		.byte	0x6
 2747 05cc CF01     		.2byte	0x1cf
 2748 05ce B8000000 		.4byte	0xb8
 2749 05d2 3801     		.2byte	0x138
 2750 05d4 0E       		.uleb128 0xe
 2751 05d5 69060000 		.4byte	.LASF105
 2752 05d9 06       		.byte	0x6
 2753 05da D201     		.2byte	0x1d2
 2754 05dc AD000000 		.4byte	0xad
 2755 05e0 3A01     		.2byte	0x13a
 2756 05e2 0E       		.uleb128 0xe
 2757 05e3 70030000 		.4byte	.LASF106
 2758 05e7 06       		.byte	0x6
 2759 05e8 D401     		.2byte	0x1d4
 2760 05ea B8000000 		.4byte	0xb8
 2761 05ee 3C01     		.2byte	0x13c
 2762 05f0 0E       		.uleb128 0xe
 2763 05f1 C80E0000 		.4byte	.LASF107
 2764 05f5 06       		.byte	0x6
 2765 05f6 D601     		.2byte	0x1d6
 2766 05f8 E0000000 		.4byte	0xe0
 2767 05fc 4001     		.2byte	0x140
 2768 05fe 0E       		.uleb128 0xe
ARM GAS  C:\Users\PCHAUT~1\AppData\Local\Temp\cct0c6Vd.s 			page 53


 2769 05ff F3090000 		.4byte	.LASF108
 2770 0603 06       		.byte	0x6
 2771 0604 D901     		.2byte	0x1d9
 2772 0606 E0000000 		.4byte	0xe0
 2773 060a 4401     		.2byte	0x144
 2774 060c 0E       		.uleb128 0xe
 2775 060d 3E0A0000 		.4byte	.LASF109
 2776 0611 06       		.byte	0x6
 2777 0612 DB01     		.2byte	0x1db
 2778 0614 E0000000 		.4byte	0xe0
 2779 0618 4801     		.2byte	0x148
 2780 061a 0E       		.uleb128 0xe
 2781 061b B70C0000 		.4byte	.LASF110
 2782 061f 06       		.byte	0x6
 2783 0620 DD01     		.2byte	0x1dd
 2784 0622 61060000 		.4byte	0x661
 2785 0626 4C01     		.2byte	0x14c
 2786 0628 0E       		.uleb128 0xe
 2787 0629 A4040000 		.4byte	.LASF111
 2788 062d 06       		.byte	0x6
 2789 062e DF01     		.2byte	0x1df
 2790 0630 AD000000 		.4byte	0xad
 2791 0634 5001     		.2byte	0x150
 2792 0636 0E       		.uleb128 0xe
 2793 0637 F9040000 		.4byte	.LASF112
 2794 063b 06       		.byte	0x6
 2795 063c E101     		.2byte	0x1e1
 2796 063e B8000000 		.4byte	0xb8
 2797 0642 5201     		.2byte	0x152
 2798 0644 0E       		.uleb128 0xe
 2799 0645 2F060000 		.4byte	.LASF113
 2800 0649 06       		.byte	0x6
 2801 064a E301     		.2byte	0x1e3
 2802 064c B8000000 		.4byte	0xb8
 2803 0650 5401     		.2byte	0x154
 2804 0652 0E       		.uleb128 0xe
 2805 0653 4C0D0000 		.4byte	.LASF114
 2806 0657 06       		.byte	0x6
 2807 0658 E501     		.2byte	0x1e5
 2808 065a E0000000 		.4byte	0xe0
 2809 065e 5801     		.2byte	0x158
 2810 0660 00       		.byte	0
 2811 0661 0F       		.uleb128 0xf
 2812 0662 04       		.byte	0x4
 2813 0663 AD000000 		.4byte	0xad
 2814 0667 0B       		.uleb128 0xb
 2815 0668 AC0D0000 		.4byte	.LASF115
 2816 066c 06       		.byte	0x6
 2817 066d E801     		.2byte	0x1e8
 2818 066f FF040000 		.4byte	0x4ff
 2819 0673 0B       		.uleb128 0xb
 2820 0674 520E0000 		.4byte	.LASF116
 2821 0678 06       		.byte	0x6
 2822 0679 FE01     		.2byte	0x1fe
 2823 067b AD000000 		.4byte	0xad
 2824 067f 0B       		.uleb128 0xb
 2825 0680 2C090000 		.4byte	.LASF117
ARM GAS  C:\Users\PCHAUT~1\AppData\Local\Temp\cct0c6Vd.s 			page 54


 2826 0684 06       		.byte	0x6
 2827 0685 1C02     		.2byte	0x21c
 2828 0687 AD000000 		.4byte	0xad
 2829 068b 10       		.uleb128 0x10
 2830 068c 04       		.byte	0x4
 2831 068d 02       		.uleb128 0x2
 2832 068e 4F090000 		.4byte	.LASF118
 2833 0692 07       		.byte	0x7
 2834 0693 22       		.byte	0x22
 2835 0694 98060000 		.4byte	0x698
 2836 0698 0F       		.uleb128 0xf
 2837 0699 04       		.byte	0x4
 2838 069a 9E060000 		.4byte	0x69e
 2839 069e 11       		.uleb128 0x11
 2840 069f E20C0000 		.4byte	.LASF224
 2841 06a3 02       		.uleb128 0x2
 2842 06a4 010F0000 		.4byte	.LASF119
 2843 06a8 08       		.byte	0x8
 2844 06a9 2C       		.byte	0x2c
 2845 06aa 6D000000 		.4byte	0x6d
 2846 06ae 02       		.uleb128 0x2
 2847 06af 13020000 		.4byte	.LASF120
 2848 06b3 08       		.byte	0x8
 2849 06b4 72       		.byte	0x72
 2850 06b5 6D000000 		.4byte	0x6d
 2851 06b9 0B       		.uleb128 0xb
 2852 06ba B00C0000 		.4byte	.LASF121
 2853 06be 09       		.byte	0x9
 2854 06bf 6501     		.2byte	0x165
 2855 06c1 9B000000 		.4byte	0x9b
 2856 06c5 12       		.uleb128 0x12
 2857 06c6 04       		.byte	0x4
 2858 06c7 08       		.byte	0x8
 2859 06c8 A6       		.byte	0xa6
 2860 06c9 E4060000 		.4byte	0x6e4
 2861 06cd 13       		.uleb128 0x13
 2862 06ce 52070000 		.4byte	.LASF122
 2863 06d2 08       		.byte	0x8
 2864 06d3 A8       		.byte	0xa8
 2865 06d4 B9060000 		.4byte	0x6b9
 2866 06d8 13       		.uleb128 0x13
 2867 06d9 500A0000 		.4byte	.LASF123
 2868 06dd 08       		.byte	0x8
 2869 06de A9       		.byte	0xa9
 2870 06df E4060000 		.4byte	0x6e4
 2871 06e3 00       		.byte	0
 2872 06e4 07       		.uleb128 0x7
 2873 06e5 42000000 		.4byte	0x42
 2874 06e9 F4060000 		.4byte	0x6f4
 2875 06ed 08       		.uleb128 0x8
 2876 06ee 9B000000 		.4byte	0x9b
 2877 06f2 03       		.byte	0x3
 2878 06f3 00       		.byte	0
 2879 06f4 05       		.uleb128 0x5
 2880 06f5 08       		.byte	0x8
 2881 06f6 08       		.byte	0x8
 2882 06f7 A3       		.byte	0xa3
ARM GAS  C:\Users\PCHAUT~1\AppData\Local\Temp\cct0c6Vd.s 			page 55


 2883 06f8 15070000 		.4byte	0x715
 2884 06fc 06       		.uleb128 0x6
 2885 06fd 1B030000 		.4byte	.LASF124
 2886 0701 08       		.byte	0x8
 2887 0702 A5       		.byte	0xa5
 2888 0703 94000000 		.4byte	0x94
 2889 0707 00       		.byte	0
 2890 0708 06       		.uleb128 0x6
 2891 0709 46060000 		.4byte	.LASF125
 2892 070d 08       		.byte	0x8
 2893 070e AA       		.byte	0xaa
 2894 070f C5060000 		.4byte	0x6c5
 2895 0713 04       		.byte	0x4
 2896 0714 00       		.byte	0
 2897 0715 02       		.uleb128 0x2
 2898 0716 88080000 		.4byte	.LASF126
 2899 071a 08       		.byte	0x8
 2900 071b AB       		.byte	0xab
 2901 071c F4060000 		.4byte	0x6f4
 2902 0720 02       		.uleb128 0x2
 2903 0721 28070000 		.4byte	.LASF127
 2904 0725 08       		.byte	0x8
 2905 0726 AF       		.byte	0xaf
 2906 0727 8D060000 		.4byte	0x68d
 2907 072b 02       		.uleb128 0x2
 2908 072c 40080000 		.4byte	.LASF128
 2909 0730 0A       		.byte	0xa
 2910 0731 16       		.byte	0x16
 2911 0732 7F000000 		.4byte	0x7f
 2912 0736 14       		.uleb128 0x14
 2913 0737 B5020000 		.4byte	.LASF133
 2914 073b 18       		.byte	0x18
 2915 073c 0A       		.byte	0xa
 2916 073d 2F       		.byte	0x2f
 2917 073e 89070000 		.4byte	0x789
 2918 0742 06       		.uleb128 0x6
 2919 0743 AC050000 		.4byte	.LASF129
 2920 0747 0A       		.byte	0xa
 2921 0748 31       		.byte	0x31
 2922 0749 89070000 		.4byte	0x789
 2923 074d 00       		.byte	0
 2924 074e 15       		.uleb128 0x15
 2925 074f 5F6B00   		.ascii	"_k\000"
 2926 0752 0A       		.byte	0xa
 2927 0753 32       		.byte	0x32
 2928 0754 94000000 		.4byte	0x94
 2929 0758 04       		.byte	0x4
 2930 0759 06       		.uleb128 0x6
 2931 075a 27000000 		.4byte	.LASF130
 2932 075e 0A       		.byte	0xa
 2933 075f 32       		.byte	0x32
 2934 0760 94000000 		.4byte	0x94
 2935 0764 08       		.byte	0x8
 2936 0765 06       		.uleb128 0x6
 2937 0766 120A0000 		.4byte	.LASF131
 2938 076a 0A       		.byte	0xa
 2939 076b 32       		.byte	0x32
ARM GAS  C:\Users\PCHAUT~1\AppData\Local\Temp\cct0c6Vd.s 			page 56


 2940 076c 94000000 		.4byte	0x94
 2941 0770 0C       		.byte	0xc
 2942 0771 06       		.uleb128 0x6
 2943 0772 25040000 		.4byte	.LASF132
 2944 0776 0A       		.byte	0xa
 2945 0777 32       		.byte	0x32
 2946 0778 94000000 		.4byte	0x94
 2947 077c 10       		.byte	0x10
 2948 077d 15       		.uleb128 0x15
 2949 077e 5F7800   		.ascii	"_x\000"
 2950 0781 0A       		.byte	0xa
 2951 0782 33       		.byte	0x33
 2952 0783 8F070000 		.4byte	0x78f
 2953 0787 14       		.byte	0x14
 2954 0788 00       		.byte	0
 2955 0789 0F       		.uleb128 0xf
 2956 078a 04       		.byte	0x4
 2957 078b 36070000 		.4byte	0x736
 2958 078f 07       		.uleb128 0x7
 2959 0790 2B070000 		.4byte	0x72b
 2960 0794 9F070000 		.4byte	0x79f
 2961 0798 08       		.uleb128 0x8
 2962 0799 9B000000 		.4byte	0x9b
 2963 079d 00       		.byte	0
 2964 079e 00       		.byte	0
 2965 079f 14       		.uleb128 0x14
 2966 07a0 1D0B0000 		.4byte	.LASF134
 2967 07a4 24       		.byte	0x24
 2968 07a5 0A       		.byte	0xa
 2969 07a6 37       		.byte	0x37
 2970 07a7 18080000 		.4byte	0x818
 2971 07ab 06       		.uleb128 0x6
 2972 07ac D0000000 		.4byte	.LASF135
 2973 07b0 0A       		.byte	0xa
 2974 07b1 39       		.byte	0x39
 2975 07b2 94000000 		.4byte	0x94
 2976 07b6 00       		.byte	0
 2977 07b7 06       		.uleb128 0x6
 2978 07b8 31030000 		.4byte	.LASF136
 2979 07bc 0A       		.byte	0xa
 2980 07bd 3A       		.byte	0x3a
 2981 07be 94000000 		.4byte	0x94
 2982 07c2 04       		.byte	0x4
 2983 07c3 06       		.uleb128 0x6
 2984 07c4 11030000 		.4byte	.LASF137
 2985 07c8 0A       		.byte	0xa
 2986 07c9 3B       		.byte	0x3b
 2987 07ca 94000000 		.4byte	0x94
 2988 07ce 08       		.byte	0x8
 2989 07cf 06       		.uleb128 0x6
 2990 07d0 A5060000 		.4byte	.LASF138
 2991 07d4 0A       		.byte	0xa
 2992 07d5 3C       		.byte	0x3c
 2993 07d6 94000000 		.4byte	0x94
 2994 07da 0C       		.byte	0xc
 2995 07db 06       		.uleb128 0x6
 2996 07dc FB080000 		.4byte	.LASF139
ARM GAS  C:\Users\PCHAUT~1\AppData\Local\Temp\cct0c6Vd.s 			page 57


 2997 07e0 0A       		.byte	0xa
 2998 07e1 3D       		.byte	0x3d
 2999 07e2 94000000 		.4byte	0x94
 3000 07e6 10       		.byte	0x10
 3001 07e7 06       		.uleb128 0x6
 3002 07e8 850A0000 		.4byte	.LASF140
 3003 07ec 0A       		.byte	0xa
 3004 07ed 3E       		.byte	0x3e
 3005 07ee 94000000 		.4byte	0x94
 3006 07f2 14       		.byte	0x14
 3007 07f3 06       		.uleb128 0x6
 3008 07f4 BD020000 		.4byte	.LASF141
 3009 07f8 0A       		.byte	0xa
 3010 07f9 3F       		.byte	0x3f
 3011 07fa 94000000 		.4byte	0x94
 3012 07fe 18       		.byte	0x18
 3013 07ff 06       		.uleb128 0x6
 3014 0800 70050000 		.4byte	.LASF142
 3015 0804 0A       		.byte	0xa
 3016 0805 40       		.byte	0x40
 3017 0806 94000000 		.4byte	0x94
 3018 080a 1C       		.byte	0x1c
 3019 080b 06       		.uleb128 0x6
 3020 080c A2080000 		.4byte	.LASF143
 3021 0810 0A       		.byte	0xa
 3022 0811 41       		.byte	0x41
 3023 0812 94000000 		.4byte	0x94
 3024 0816 20       		.byte	0x20
 3025 0817 00       		.byte	0
 3026 0818 16       		.uleb128 0x16
 3027 0819 65000000 		.4byte	.LASF144
 3028 081d 0801     		.2byte	0x108
 3029 081f 0A       		.byte	0xa
 3030 0820 4A       		.byte	0x4a
 3031 0821 58080000 		.4byte	0x858
 3032 0825 06       		.uleb128 0x6
 3033 0826 660E0000 		.4byte	.LASF145
 3034 082a 0A       		.byte	0xa
 3035 082b 4B       		.byte	0x4b
 3036 082c 58080000 		.4byte	0x858
 3037 0830 00       		.byte	0
 3038 0831 06       		.uleb128 0x6
 3039 0832 D60C0000 		.4byte	.LASF146
 3040 0836 0A       		.byte	0xa
 3041 0837 4C       		.byte	0x4c
 3042 0838 58080000 		.4byte	0x858
 3043 083c 80       		.byte	0x80
 3044 083d 17       		.uleb128 0x17
 3045 083e BE0D0000 		.4byte	.LASF147
 3046 0842 0A       		.byte	0xa
 3047 0843 4E       		.byte	0x4e
 3048 0844 2B070000 		.4byte	0x72b
 3049 0848 0001     		.2byte	0x100
 3050 084a 17       		.uleb128 0x17
 3051 084b 4F0F0000 		.4byte	.LASF148
 3052 084f 0A       		.byte	0xa
 3053 0850 51       		.byte	0x51
ARM GAS  C:\Users\PCHAUT~1\AppData\Local\Temp\cct0c6Vd.s 			page 58


 3054 0851 2B070000 		.4byte	0x72b
 3055 0855 0401     		.2byte	0x104
 3056 0857 00       		.byte	0
 3057 0858 07       		.uleb128 0x7
 3058 0859 8B060000 		.4byte	0x68b
 3059 085d 68080000 		.4byte	0x868
 3060 0861 08       		.uleb128 0x8
 3061 0862 9B000000 		.4byte	0x9b
 3062 0866 1F       		.byte	0x1f
 3063 0867 00       		.byte	0
 3064 0868 16       		.uleb128 0x16
 3065 0869 A4090000 		.4byte	.LASF149
 3066 086d 9001     		.2byte	0x190
 3067 086f 0A       		.byte	0xa
 3068 0870 5D       		.byte	0x5d
 3069 0871 A6080000 		.4byte	0x8a6
 3070 0875 06       		.uleb128 0x6
 3071 0876 AC050000 		.4byte	.LASF129
 3072 087a 0A       		.byte	0xa
 3073 087b 5E       		.byte	0x5e
 3074 087c A6080000 		.4byte	0x8a6
 3075 0880 00       		.byte	0
 3076 0881 06       		.uleb128 0x6
 3077 0882 7F050000 		.4byte	.LASF150
 3078 0886 0A       		.byte	0xa
 3079 0887 5F       		.byte	0x5f
 3080 0888 94000000 		.4byte	0x94
 3081 088c 04       		.byte	0x4
 3082 088d 06       		.uleb128 0x6
 3083 088e 27020000 		.4byte	.LASF151
 3084 0892 0A       		.byte	0xa
 3085 0893 61       		.byte	0x61
 3086 0894 AC080000 		.4byte	0x8ac
 3087 0898 08       		.byte	0x8
 3088 0899 06       		.uleb128 0x6
 3089 089a 65000000 		.4byte	.LASF144
 3090 089e 0A       		.byte	0xa
 3091 089f 62       		.byte	0x62
 3092 08a0 18080000 		.4byte	0x818
 3093 08a4 88       		.byte	0x88
 3094 08a5 00       		.byte	0
 3095 08a6 0F       		.uleb128 0xf
 3096 08a7 04       		.byte	0x4
 3097 08a8 68080000 		.4byte	0x868
 3098 08ac 07       		.uleb128 0x7
 3099 08ad BC080000 		.4byte	0x8bc
 3100 08b1 BC080000 		.4byte	0x8bc
 3101 08b5 08       		.uleb128 0x8
 3102 08b6 9B000000 		.4byte	0x9b
 3103 08ba 1F       		.byte	0x1f
 3104 08bb 00       		.byte	0
 3105 08bc 0F       		.uleb128 0xf
 3106 08bd 04       		.byte	0x4
 3107 08be C2080000 		.4byte	0x8c2
 3108 08c2 18       		.uleb128 0x18
 3109 08c3 14       		.uleb128 0x14
 3110 08c4 E80D0000 		.4byte	.LASF152
ARM GAS  C:\Users\PCHAUT~1\AppData\Local\Temp\cct0c6Vd.s 			page 59


 3111 08c8 08       		.byte	0x8
 3112 08c9 0A       		.byte	0xa
 3113 08ca 75       		.byte	0x75
 3114 08cb E8080000 		.4byte	0x8e8
 3115 08cf 06       		.uleb128 0x6
 3116 08d0 2A080000 		.4byte	.LASF153
 3117 08d4 0A       		.byte	0xa
 3118 08d5 76       		.byte	0x76
 3119 08d6 E8080000 		.4byte	0x8e8
 3120 08da 00       		.byte	0
 3121 08db 06       		.uleb128 0x6
 3122 08dc E70E0000 		.4byte	.LASF154
 3123 08e0 0A       		.byte	0xa
 3124 08e1 77       		.byte	0x77
 3125 08e2 94000000 		.4byte	0x94
 3126 08e6 04       		.byte	0x4
 3127 08e7 00       		.byte	0
 3128 08e8 0F       		.uleb128 0xf
 3129 08e9 04       		.byte	0x4
 3130 08ea 42000000 		.4byte	0x42
 3131 08ee 14       		.uleb128 0x14
 3132 08ef 1D040000 		.4byte	.LASF155
 3133 08f3 68       		.byte	0x68
 3134 08f4 0A       		.byte	0xa
 3135 08f5 B5       		.byte	0xb5
 3136 08f6 180A0000 		.4byte	0xa18
 3137 08fa 15       		.uleb128 0x15
 3138 08fb 5F7000   		.ascii	"_p\000"
 3139 08fe 0A       		.byte	0xa
 3140 08ff B6       		.byte	0xb6
 3141 0900 E8080000 		.4byte	0x8e8
 3142 0904 00       		.byte	0
 3143 0905 15       		.uleb128 0x15
 3144 0906 5F7200   		.ascii	"_r\000"
 3145 0909 0A       		.byte	0xa
 3146 090a B7       		.byte	0xb7
 3147 090b 94000000 		.4byte	0x94
 3148 090f 04       		.byte	0x4
 3149 0910 15       		.uleb128 0x15
 3150 0911 5F7700   		.ascii	"_w\000"
 3151 0914 0A       		.byte	0xa
 3152 0915 B8       		.byte	0xb8
 3153 0916 94000000 		.4byte	0x94
 3154 091a 08       		.byte	0x8
 3155 091b 06       		.uleb128 0x6
 3156 091c 49010000 		.4byte	.LASF156
 3157 0920 0A       		.byte	0xa
 3158 0921 B9       		.byte	0xb9
 3159 0922 49000000 		.4byte	0x49
 3160 0926 0C       		.byte	0xc
 3161 0927 06       		.uleb128 0x6
 3162 0928 6B080000 		.4byte	.LASF157
 3163 092c 0A       		.byte	0xa
 3164 092d BA       		.byte	0xba
 3165 092e 49000000 		.4byte	0x49
 3166 0932 0E       		.byte	0xe
 3167 0933 15       		.uleb128 0x15
ARM GAS  C:\Users\PCHAUT~1\AppData\Local\Temp\cct0c6Vd.s 			page 60


 3168 0934 5F626600 		.ascii	"_bf\000"
 3169 0938 0A       		.byte	0xa
 3170 0939 BB       		.byte	0xbb
 3171 093a C3080000 		.4byte	0x8c3
 3172 093e 10       		.byte	0x10
 3173 093f 06       		.uleb128 0x6
 3174 0940 A30D0000 		.4byte	.LASF158
 3175 0944 0A       		.byte	0xa
 3176 0945 BC       		.byte	0xbc
 3177 0946 94000000 		.4byte	0x94
 3178 094a 18       		.byte	0x18
 3179 094b 06       		.uleb128 0x6
 3180 094c 3C000000 		.4byte	.LASF159
 3181 0950 0A       		.byte	0xa
 3182 0951 C3       		.byte	0xc3
 3183 0952 8B060000 		.4byte	0x68b
 3184 0956 1C       		.byte	0x1c
 3185 0957 06       		.uleb128 0x6
 3186 0958 AB010000 		.4byte	.LASF160
 3187 095c 0A       		.byte	0xa
 3188 095d C5       		.byte	0xc5
 3189 095e 790B0000 		.4byte	0xb79
 3190 0962 20       		.byte	0x20
 3191 0963 06       		.uleb128 0x6
 3192 0964 81090000 		.4byte	.LASF161
 3193 0968 0A       		.byte	0xa
 3194 0969 C7       		.byte	0xc7
 3195 096a A30B0000 		.4byte	0xba3
 3196 096e 24       		.byte	0x24
 3197 096f 06       		.uleb128 0x6
 3198 0970 C00F0000 		.4byte	.LASF162
 3199 0974 0A       		.byte	0xa
 3200 0975 CA       		.byte	0xca
 3201 0976 C70B0000 		.4byte	0xbc7
 3202 097a 28       		.byte	0x28
 3203 097b 06       		.uleb128 0x6
 3204 097c 92070000 		.4byte	.LASF163
 3205 0980 0A       		.byte	0xa
 3206 0981 CB       		.byte	0xcb
 3207 0982 E10B0000 		.4byte	0xbe1
 3208 0986 2C       		.byte	0x2c
 3209 0987 15       		.uleb128 0x15
 3210 0988 5F756200 		.ascii	"_ub\000"
 3211 098c 0A       		.byte	0xa
 3212 098d CE       		.byte	0xce
 3213 098e C3080000 		.4byte	0x8c3
 3214 0992 30       		.byte	0x30
 3215 0993 15       		.uleb128 0x15
 3216 0994 5F757000 		.ascii	"_up\000"
 3217 0998 0A       		.byte	0xa
 3218 0999 CF       		.byte	0xcf
 3219 099a E8080000 		.4byte	0x8e8
 3220 099e 38       		.byte	0x38
 3221 099f 15       		.uleb128 0x15
 3222 09a0 5F757200 		.ascii	"_ur\000"
 3223 09a4 0A       		.byte	0xa
 3224 09a5 D0       		.byte	0xd0
ARM GAS  C:\Users\PCHAUT~1\AppData\Local\Temp\cct0c6Vd.s 			page 61


 3225 09a6 94000000 		.4byte	0x94
 3226 09aa 3C       		.byte	0x3c
 3227 09ab 06       		.uleb128 0x6
 3228 09ac D70F0000 		.4byte	.LASF164
 3229 09b0 0A       		.byte	0xa
 3230 09b1 D3       		.byte	0xd3
 3231 09b2 E70B0000 		.4byte	0xbe7
 3232 09b6 40       		.byte	0x40
 3233 09b7 06       		.uleb128 0x6
 3234 09b8 1B0F0000 		.4byte	.LASF165
 3235 09bc 0A       		.byte	0xa
 3236 09bd D4       		.byte	0xd4
 3237 09be F70B0000 		.4byte	0xbf7
 3238 09c2 43       		.byte	0x43
 3239 09c3 15       		.uleb128 0x15
 3240 09c4 5F6C6200 		.ascii	"_lb\000"
 3241 09c8 0A       		.byte	0xa
 3242 09c9 D7       		.byte	0xd7
 3243 09ca C3080000 		.4byte	0x8c3
 3244 09ce 44       		.byte	0x44
 3245 09cf 06       		.uleb128 0x6
 3246 09d0 140B0000 		.4byte	.LASF166
 3247 09d4 0A       		.byte	0xa
 3248 09d5 DA       		.byte	0xda
 3249 09d6 94000000 		.4byte	0x94
 3250 09da 4C       		.byte	0x4c
 3251 09db 06       		.uleb128 0x6
 3252 09dc 88040000 		.4byte	.LASF167
 3253 09e0 0A       		.byte	0xa
 3254 09e1 DB       		.byte	0xdb
 3255 09e2 A3060000 		.4byte	0x6a3
 3256 09e6 50       		.byte	0x50
 3257 09e7 06       		.uleb128 0x6
 3258 09e8 380A0000 		.4byte	.LASF168
 3259 09ec 0A       		.byte	0xa
 3260 09ed DE       		.byte	0xde
 3261 09ee 360A0000 		.4byte	0xa36
 3262 09f2 54       		.byte	0x54
 3263 09f3 06       		.uleb128 0x6
 3264 09f4 220B0000 		.4byte	.LASF169
 3265 09f8 0A       		.byte	0xa
 3266 09f9 E2       		.byte	0xe2
 3267 09fa 20070000 		.4byte	0x720
 3268 09fe 58       		.byte	0x58
 3269 09ff 06       		.uleb128 0x6
 3270 0a00 A2010000 		.4byte	.LASF170
 3271 0a04 0A       		.byte	0xa
 3272 0a05 E4       		.byte	0xe4
 3273 0a06 15070000 		.4byte	0x715
 3274 0a0a 5C       		.byte	0x5c
 3275 0a0b 06       		.uleb128 0x6
 3276 0a0c 470F0000 		.4byte	.LASF171
 3277 0a10 0A       		.byte	0xa
 3278 0a11 E5       		.byte	0xe5
 3279 0a12 94000000 		.4byte	0x94
 3280 0a16 64       		.byte	0x64
 3281 0a17 00       		.byte	0
ARM GAS  C:\Users\PCHAUT~1\AppData\Local\Temp\cct0c6Vd.s 			page 62


 3282 0a18 19       		.uleb128 0x19
 3283 0a19 94000000 		.4byte	0x94
 3284 0a1d 360A0000 		.4byte	0xa36
 3285 0a21 1A       		.uleb128 0x1a
 3286 0a22 360A0000 		.4byte	0xa36
 3287 0a26 1A       		.uleb128 0x1a
 3288 0a27 8B060000 		.4byte	0x68b
 3289 0a2b 1A       		.uleb128 0x1a
 3290 0a2c 730B0000 		.4byte	0xb73
 3291 0a30 1A       		.uleb128 0x1a
 3292 0a31 94000000 		.4byte	0x94
 3293 0a35 00       		.byte	0
 3294 0a36 0F       		.uleb128 0xf
 3295 0a37 04       		.byte	0x4
 3296 0a38 410A0000 		.4byte	0xa41
 3297 0a3c 09       		.uleb128 0x9
 3298 0a3d 360A0000 		.4byte	0xa36
 3299 0a41 1B       		.uleb128 0x1b
 3300 0a42 AC090000 		.4byte	.LASF172
 3301 0a46 2804     		.2byte	0x428
 3302 0a48 0A       		.byte	0xa
 3303 0a49 3902     		.2byte	0x239
 3304 0a4b 730B0000 		.4byte	0xb73
 3305 0a4f 0A       		.uleb128 0xa
 3306 0a50 7C010000 		.4byte	.LASF173
 3307 0a54 0A       		.byte	0xa
 3308 0a55 3B02     		.2byte	0x23b
 3309 0a57 94000000 		.4byte	0x94
 3310 0a5b 00       		.byte	0
 3311 0a5c 0A       		.uleb128 0xa
 3312 0a5d C0070000 		.4byte	.LASF174
 3313 0a61 0A       		.byte	0xa
 3314 0a62 4002     		.2byte	0x240
 3315 0a64 4E0C0000 		.4byte	0xc4e
 3316 0a68 04       		.byte	0x4
 3317 0a69 0A       		.uleb128 0xa
 3318 0a6a FD0C0000 		.4byte	.LASF175
 3319 0a6e 0A       		.byte	0xa
 3320 0a6f 4002     		.2byte	0x240
 3321 0a71 4E0C0000 		.4byte	0xc4e
 3322 0a75 08       		.byte	0x8
 3323 0a76 0A       		.uleb128 0xa
 3324 0a77 C60F0000 		.4byte	.LASF176
 3325 0a7b 0A       		.byte	0xa
 3326 0a7c 4002     		.2byte	0x240
 3327 0a7e 4E0C0000 		.4byte	0xc4e
 3328 0a82 0C       		.byte	0xc
 3329 0a83 0A       		.uleb128 0xa
 3330 0a84 7A050000 		.4byte	.LASF177
 3331 0a88 0A       		.byte	0xa
 3332 0a89 4202     		.2byte	0x242
 3333 0a8b 94000000 		.4byte	0x94
 3334 0a8f 10       		.byte	0x10
 3335 0a90 0A       		.uleb128 0xa
 3336 0a91 D6040000 		.4byte	.LASF178
 3337 0a95 0A       		.byte	0xa
 3338 0a96 4302     		.2byte	0x243
ARM GAS  C:\Users\PCHAUT~1\AppData\Local\Temp\cct0c6Vd.s 			page 63


 3339 0a98 300E0000 		.4byte	0xe30
 3340 0a9c 14       		.byte	0x14
 3341 0a9d 0A       		.uleb128 0xa
 3342 0a9e 2E0F0000 		.4byte	.LASF179
 3343 0aa2 0A       		.byte	0xa
 3344 0aa3 4602     		.2byte	0x246
 3345 0aa5 94000000 		.4byte	0x94
 3346 0aa9 30       		.byte	0x30
 3347 0aaa 0A       		.uleb128 0xa
 3348 0aab 4A0E0000 		.4byte	.LASF180
 3349 0aaf 0A       		.byte	0xa
 3350 0ab0 4702     		.2byte	0x247
 3351 0ab2 450E0000 		.4byte	0xe45
 3352 0ab6 34       		.byte	0x34
 3353 0ab7 0A       		.uleb128 0xa
 3354 0ab8 99070000 		.4byte	.LASF181
 3355 0abc 0A       		.byte	0xa
 3356 0abd 4902     		.2byte	0x249
 3357 0abf 94000000 		.4byte	0x94
 3358 0ac3 38       		.byte	0x38
 3359 0ac4 0A       		.uleb128 0xa
 3360 0ac5 7E080000 		.4byte	.LASF182
 3361 0ac9 0A       		.byte	0xa
 3362 0aca 4B02     		.2byte	0x24b
 3363 0acc 560E0000 		.4byte	0xe56
 3364 0ad0 3C       		.byte	0x3c
 3365 0ad1 0A       		.uleb128 0xa
 3366 0ad2 C7020000 		.4byte	.LASF183
 3367 0ad6 0A       		.byte	0xa
 3368 0ad7 4E02     		.2byte	0x24e
 3369 0ad9 89070000 		.4byte	0x789
 3370 0add 40       		.byte	0x40
 3371 0ade 0A       		.uleb128 0xa
 3372 0adf B0030000 		.4byte	.LASF184
 3373 0ae3 0A       		.byte	0xa
 3374 0ae4 4F02     		.2byte	0x24f
 3375 0ae6 94000000 		.4byte	0x94
 3376 0aea 44       		.byte	0x44
 3377 0aeb 0A       		.uleb128 0xa
 3378 0aec 64060000 		.4byte	.LASF185
 3379 0af0 0A       		.byte	0xa
 3380 0af1 5002     		.2byte	0x250
 3381 0af3 89070000 		.4byte	0x789
 3382 0af7 48       		.byte	0x48
 3383 0af8 0A       		.uleb128 0xa
 3384 0af9 30080000 		.4byte	.LASF186
 3385 0afd 0A       		.byte	0xa
 3386 0afe 5102     		.2byte	0x251
 3387 0b00 5C0E0000 		.4byte	0xe5c
 3388 0b04 4C       		.byte	0x4c
 3389 0b05 0A       		.uleb128 0xa
 3390 0b06 E50A0000 		.4byte	.LASF187
 3391 0b0a 0A       		.byte	0xa
 3392 0b0b 5402     		.2byte	0x254
 3393 0b0d 94000000 		.4byte	0x94
 3394 0b11 50       		.byte	0x50
 3395 0b12 0A       		.uleb128 0xa
ARM GAS  C:\Users\PCHAUT~1\AppData\Local\Temp\cct0c6Vd.s 			page 64


 3396 0b13 050D0000 		.4byte	.LASF188
 3397 0b17 0A       		.byte	0xa
 3398 0b18 5502     		.2byte	0x255
 3399 0b1a 730B0000 		.4byte	0xb73
 3400 0b1e 54       		.byte	0x54
 3401 0b1f 0A       		.uleb128 0xa
 3402 0b20 E00A0000 		.4byte	.LASF189
 3403 0b24 0A       		.byte	0xa
 3404 0b25 7802     		.2byte	0x278
 3405 0b27 0E0E0000 		.4byte	0xe0e
 3406 0b2b 58       		.byte	0x58
 3407 0b2c 0E       		.uleb128 0xe
 3408 0b2d A4090000 		.4byte	.LASF149
 3409 0b31 0A       		.byte	0xa
 3410 0b32 7C02     		.2byte	0x27c
 3411 0b34 A6080000 		.4byte	0x8a6
 3412 0b38 4801     		.2byte	0x148
 3413 0b3a 0E       		.uleb128 0xe
 3414 0b3b C8060000 		.4byte	.LASF190
 3415 0b3f 0A       		.byte	0xa
 3416 0b40 7D02     		.2byte	0x27d
 3417 0b42 68080000 		.4byte	0x868
 3418 0b46 4C01     		.2byte	0x14c
 3419 0b48 0E       		.uleb128 0xe
 3420 0b49 AF060000 		.4byte	.LASF191
 3421 0b4d 0A       		.byte	0xa
 3422 0b4e 8102     		.2byte	0x281
 3423 0b50 6D0E0000 		.4byte	0xe6d
 3424 0b54 DC02     		.2byte	0x2dc
 3425 0b56 0E       		.uleb128 0xe
 3426 0b57 270E0000 		.4byte	.LASF192
 3427 0b5b 0A       		.byte	0xa
 3428 0b5c 8602     		.2byte	0x286
 3429 0b5e 130C0000 		.4byte	0xc13
 3430 0b62 E002     		.2byte	0x2e0
 3431 0b64 0E       		.uleb128 0xe
 3432 0b65 0D0A0000 		.4byte	.LASF193
 3433 0b69 0A       		.byte	0xa
 3434 0b6a 8802     		.2byte	0x288
 3435 0b6c 790E0000 		.4byte	0xe79
 3436 0b70 EC02     		.2byte	0x2ec
 3437 0b72 00       		.byte	0
 3438 0b73 0F       		.uleb128 0xf
 3439 0b74 04       		.byte	0x4
 3440 0b75 62010000 		.4byte	0x162
 3441 0b79 0F       		.uleb128 0xf
 3442 0b7a 04       		.byte	0x4
 3443 0b7b 180A0000 		.4byte	0xa18
 3444 0b7f 19       		.uleb128 0x19
 3445 0b80 94000000 		.4byte	0x94
 3446 0b84 9D0B0000 		.4byte	0xb9d
 3447 0b88 1A       		.uleb128 0x1a
 3448 0b89 360A0000 		.4byte	0xa36
 3449 0b8d 1A       		.uleb128 0x1a
 3450 0b8e 8B060000 		.4byte	0x68b
 3451 0b92 1A       		.uleb128 0x1a
 3452 0b93 9D0B0000 		.4byte	0xb9d
ARM GAS  C:\Users\PCHAUT~1\AppData\Local\Temp\cct0c6Vd.s 			page 65


 3453 0b97 1A       		.uleb128 0x1a
 3454 0b98 94000000 		.4byte	0x94
 3455 0b9c 00       		.byte	0
 3456 0b9d 0F       		.uleb128 0xf
 3457 0b9e 04       		.byte	0x4
 3458 0b9f 69010000 		.4byte	0x169
 3459 0ba3 0F       		.uleb128 0xf
 3460 0ba4 04       		.byte	0x4
 3461 0ba5 7F0B0000 		.4byte	0xb7f
 3462 0ba9 19       		.uleb128 0x19
 3463 0baa AE060000 		.4byte	0x6ae
 3464 0bae C70B0000 		.4byte	0xbc7
 3465 0bb2 1A       		.uleb128 0x1a
 3466 0bb3 360A0000 		.4byte	0xa36
 3467 0bb7 1A       		.uleb128 0x1a
 3468 0bb8 8B060000 		.4byte	0x68b
 3469 0bbc 1A       		.uleb128 0x1a
 3470 0bbd AE060000 		.4byte	0x6ae
 3471 0bc1 1A       		.uleb128 0x1a
 3472 0bc2 94000000 		.4byte	0x94
 3473 0bc6 00       		.byte	0
 3474 0bc7 0F       		.uleb128 0xf
 3475 0bc8 04       		.byte	0x4
 3476 0bc9 A90B0000 		.4byte	0xba9
 3477 0bcd 19       		.uleb128 0x19
 3478 0bce 94000000 		.4byte	0x94
 3479 0bd2 E10B0000 		.4byte	0xbe1
 3480 0bd6 1A       		.uleb128 0x1a
 3481 0bd7 360A0000 		.4byte	0xa36
 3482 0bdb 1A       		.uleb128 0x1a
 3483 0bdc 8B060000 		.4byte	0x68b
 3484 0be0 00       		.byte	0
 3485 0be1 0F       		.uleb128 0xf
 3486 0be2 04       		.byte	0x4
 3487 0be3 CD0B0000 		.4byte	0xbcd
 3488 0be7 07       		.uleb128 0x7
 3489 0be8 42000000 		.4byte	0x42
 3490 0bec F70B0000 		.4byte	0xbf7
 3491 0bf0 08       		.uleb128 0x8
 3492 0bf1 9B000000 		.4byte	0x9b
 3493 0bf5 02       		.byte	0x2
 3494 0bf6 00       		.byte	0
 3495 0bf7 07       		.uleb128 0x7
 3496 0bf8 42000000 		.4byte	0x42
 3497 0bfc 070C0000 		.4byte	0xc07
 3498 0c00 08       		.uleb128 0x8
 3499 0c01 9B000000 		.4byte	0x9b
 3500 0c05 00       		.byte	0
 3501 0c06 00       		.byte	0
 3502 0c07 0B       		.uleb128 0xb
 3503 0c08 61040000 		.4byte	.LASF194
 3504 0c0c 0A       		.byte	0xa
 3505 0c0d 1F01     		.2byte	0x11f
 3506 0c0f EE080000 		.4byte	0x8ee
 3507 0c13 1C       		.uleb128 0x1c
 3508 0c14 050E0000 		.4byte	.LASF195
 3509 0c18 0C       		.byte	0xc
ARM GAS  C:\Users\PCHAUT~1\AppData\Local\Temp\cct0c6Vd.s 			page 66


 3510 0c19 0A       		.byte	0xa
 3511 0c1a 2301     		.2byte	0x123
 3512 0c1c 480C0000 		.4byte	0xc48
 3513 0c20 0A       		.uleb128 0xa
 3514 0c21 AC050000 		.4byte	.LASF129
 3515 0c25 0A       		.byte	0xa
 3516 0c26 2501     		.2byte	0x125
 3517 0c28 480C0000 		.4byte	0xc48
 3518 0c2c 00       		.byte	0
 3519 0c2d 0A       		.uleb128 0xa
 3520 0c2e A90C0000 		.4byte	.LASF196
 3521 0c32 0A       		.byte	0xa
 3522 0c33 2601     		.2byte	0x126
 3523 0c35 94000000 		.4byte	0x94
 3524 0c39 04       		.byte	0x4
 3525 0c3a 0A       		.uleb128 0xa
 3526 0c3b 58070000 		.4byte	.LASF197
 3527 0c3f 0A       		.byte	0xa
 3528 0c40 2701     		.2byte	0x127
 3529 0c42 4E0C0000 		.4byte	0xc4e
 3530 0c46 08       		.byte	0x8
 3531 0c47 00       		.byte	0
 3532 0c48 0F       		.uleb128 0xf
 3533 0c49 04       		.byte	0x4
 3534 0c4a 130C0000 		.4byte	0xc13
 3535 0c4e 0F       		.uleb128 0xf
 3536 0c4f 04       		.byte	0x4
 3537 0c50 070C0000 		.4byte	0xc07
 3538 0c54 1C       		.uleb128 0x1c
 3539 0c55 93030000 		.4byte	.LASF198
 3540 0c59 0E       		.byte	0xe
 3541 0c5a 0A       		.byte	0xa
 3542 0c5b 3F01     		.2byte	0x13f
 3543 0c5d 890C0000 		.4byte	0xc89
 3544 0c61 0A       		.uleb128 0xa
 3545 0c62 870F0000 		.4byte	.LASF199
 3546 0c66 0A       		.byte	0xa
 3547 0c67 4001     		.2byte	0x140
 3548 0c69 890C0000 		.4byte	0xc89
 3549 0c6d 00       		.byte	0
 3550 0c6e 0A       		.uleb128 0xa
 3551 0c6f 3A080000 		.4byte	.LASF200
 3552 0c73 0A       		.byte	0xa
 3553 0c74 4101     		.2byte	0x141
 3554 0c76 890C0000 		.4byte	0xc89
 3555 0c7a 06       		.byte	0x6
 3556 0c7b 0A       		.uleb128 0xa
 3557 0c7c C70D0000 		.4byte	.LASF201
 3558 0c80 0A       		.byte	0xa
 3559 0c81 4201     		.2byte	0x142
 3560 0c83 5B000000 		.4byte	0x5b
 3561 0c87 0C       		.byte	0xc
 3562 0c88 00       		.byte	0
 3563 0c89 07       		.uleb128 0x7
 3564 0c8a 5B000000 		.4byte	0x5b
 3565 0c8e 990C0000 		.4byte	0xc99
 3566 0c92 08       		.uleb128 0x8
ARM GAS  C:\Users\PCHAUT~1\AppData\Local\Temp\cct0c6Vd.s 			page 67


 3567 0c93 9B000000 		.4byte	0x9b
 3568 0c97 02       		.byte	0x2
 3569 0c98 00       		.byte	0
 3570 0c99 0C       		.uleb128 0xc
 3571 0c9a D0       		.byte	0xd0
 3572 0c9b 0A       		.byte	0xa
 3573 0c9c 5902     		.2byte	0x259
 3574 0c9e 9A0D0000 		.4byte	0xd9a
 3575 0ca2 0A       		.uleb128 0xa
 3576 0ca3 210F0000 		.4byte	.LASF202
 3577 0ca7 0A       		.byte	0xa
 3578 0ca8 5B02     		.2byte	0x25b
 3579 0caa 9B000000 		.4byte	0x9b
 3580 0cae 00       		.byte	0
 3581 0caf 0A       		.uleb128 0xa
 3582 0cb0 2F0E0000 		.4byte	.LASF203
 3583 0cb4 0A       		.byte	0xa
 3584 0cb5 5C02     		.2byte	0x25c
 3585 0cb7 730B0000 		.4byte	0xb73
 3586 0cbb 04       		.byte	0x4
 3587 0cbc 0A       		.uleb128 0xa
 3588 0cbd 10040000 		.4byte	.LASF204
 3589 0cc1 0A       		.byte	0xa
 3590 0cc2 5D02     		.2byte	0x25d
 3591 0cc4 9A0D0000 		.4byte	0xd9a
 3592 0cc8 08       		.byte	0x8
 3593 0cc9 0A       		.uleb128 0xa
 3594 0cca BF0A0000 		.4byte	.LASF205
 3595 0cce 0A       		.byte	0xa
 3596 0ccf 5E02     		.2byte	0x25e
 3597 0cd1 9F070000 		.4byte	0x79f
 3598 0cd5 24       		.byte	0x24
 3599 0cd6 0A       		.uleb128 0xa
 3600 0cd7 C7070000 		.4byte	.LASF206
 3601 0cdb 0A       		.byte	0xa
 3602 0cdc 5F02     		.2byte	0x25f
 3603 0cde 94000000 		.4byte	0x94
 3604 0ce2 48       		.byte	0x48
 3605 0ce3 0A       		.uleb128 0xa
 3606 0ce4 8D0F0000 		.4byte	.LASF207
 3607 0ce8 0A       		.byte	0xa
 3608 0ce9 6002     		.2byte	0x260
 3609 0ceb 8D000000 		.4byte	0x8d
 3610 0cef 50       		.byte	0x50
 3611 0cf0 0A       		.uleb128 0xa
 3612 0cf1 CB000000 		.4byte	.LASF208
 3613 0cf5 0A       		.byte	0xa
 3614 0cf6 6102     		.2byte	0x261
 3615 0cf8 540C0000 		.4byte	0xc54
 3616 0cfc 58       		.byte	0x58
 3617 0cfd 0A       		.uleb128 0xa
 3618 0cfe 93060000 		.4byte	.LASF209
 3619 0d02 0A       		.byte	0xa
 3620 0d03 6202     		.2byte	0x262
 3621 0d05 15070000 		.4byte	0x715
 3622 0d09 68       		.byte	0x68
 3623 0d0a 0A       		.uleb128 0xa
ARM GAS  C:\Users\PCHAUT~1\AppData\Local\Temp\cct0c6Vd.s 			page 68


 3624 0d0b 3C0E0000 		.4byte	.LASF210
 3625 0d0f 0A       		.byte	0xa
 3626 0d10 6302     		.2byte	0x263
 3627 0d12 15070000 		.4byte	0x715
 3628 0d16 70       		.byte	0x70
 3629 0d17 0A       		.uleb128 0xa
 3630 0d18 81000000 		.4byte	.LASF211
 3631 0d1c 0A       		.byte	0xa
 3632 0d1d 6402     		.2byte	0x264
 3633 0d1f 15070000 		.4byte	0x715
 3634 0d23 78       		.byte	0x78
 3635 0d24 0A       		.uleb128 0xa
 3636 0d25 FC0A0000 		.4byte	.LASF212
 3637 0d29 0A       		.byte	0xa
 3638 0d2a 6502     		.2byte	0x265
 3639 0d2c AA0D0000 		.4byte	0xdaa
 3640 0d30 80       		.byte	0x80
 3641 0d31 0A       		.uleb128 0xa
 3642 0d32 D9000000 		.4byte	.LASF213
 3643 0d36 0A       		.byte	0xa
 3644 0d37 6602     		.2byte	0x266
 3645 0d39 BA0D0000 		.4byte	0xdba
 3646 0d3d 88       		.byte	0x88
 3647 0d3e 0A       		.uleb128 0xa
 3648 0d3f 960D0000 		.4byte	.LASF214
 3649 0d43 0A       		.byte	0xa
 3650 0d44 6702     		.2byte	0x267
 3651 0d46 94000000 		.4byte	0x94
 3652 0d4a A0       		.byte	0xa0
 3653 0d4b 0A       		.uleb128 0xa
 3654 0d4c B1010000 		.4byte	.LASF215
 3655 0d50 0A       		.byte	0xa
 3656 0d51 6802     		.2byte	0x268
 3657 0d53 15070000 		.4byte	0x715
 3658 0d57 A4       		.byte	0xa4
 3659 0d58 0A       		.uleb128 0xa
 3660 0d59 B9060000 		.4byte	.LASF216
 3661 0d5d 0A       		.byte	0xa
 3662 0d5e 6902     		.2byte	0x269
 3663 0d60 15070000 		.4byte	0x715
 3664 0d64 AC       		.byte	0xac
 3665 0d65 0A       		.uleb128 0xa
 3666 0d66 B2050000 		.4byte	.LASF217
 3667 0d6a 0A       		.byte	0xa
 3668 0d6b 6A02     		.2byte	0x26a
 3669 0d6d 15070000 		.4byte	0x715
 3670 0d71 B4       		.byte	0xb4
 3671 0d72 0A       		.uleb128 0xa
 3672 0d73 5C080000 		.4byte	.LASF218
 3673 0d77 0A       		.byte	0xa
 3674 0d78 6B02     		.2byte	0x26b
 3675 0d7a 15070000 		.4byte	0x715
 3676 0d7e BC       		.byte	0xbc
 3677 0d7f 0A       		.uleb128 0xa
 3678 0d80 AD080000 		.4byte	.LASF219
 3679 0d84 0A       		.byte	0xa
 3680 0d85 6C02     		.2byte	0x26c
ARM GAS  C:\Users\PCHAUT~1\AppData\Local\Temp\cct0c6Vd.s 			page 69


 3681 0d87 15070000 		.4byte	0x715
 3682 0d8b C4       		.byte	0xc4
 3683 0d8c 0A       		.uleb128 0xa
 3684 0d8d BE080000 		.4byte	.LASF220
 3685 0d91 0A       		.byte	0xa
 3686 0d92 6D02     		.2byte	0x26d
 3687 0d94 94000000 		.4byte	0x94
 3688 0d98 CC       		.byte	0xcc
 3689 0d99 00       		.byte	0
 3690 0d9a 07       		.uleb128 0x7
 3691 0d9b 62010000 		.4byte	0x162
 3692 0d9f AA0D0000 		.4byte	0xdaa
 3693 0da3 08       		.uleb128 0x8
 3694 0da4 9B000000 		.4byte	0x9b
 3695 0da8 19       		.byte	0x19
 3696 0da9 00       		.byte	0
 3697 0daa 07       		.uleb128 0x7
 3698 0dab 62010000 		.4byte	0x162
 3699 0daf BA0D0000 		.4byte	0xdba
 3700 0db3 08       		.uleb128 0x8
 3701 0db4 9B000000 		.4byte	0x9b
 3702 0db8 07       		.byte	0x7
 3703 0db9 00       		.byte	0
 3704 0dba 07       		.uleb128 0x7
 3705 0dbb 62010000 		.4byte	0x162
 3706 0dbf CA0D0000 		.4byte	0xdca
 3707 0dc3 08       		.uleb128 0x8
 3708 0dc4 9B000000 		.4byte	0x9b
 3709 0dc8 17       		.byte	0x17
 3710 0dc9 00       		.byte	0
 3711 0dca 0C       		.uleb128 0xc
 3712 0dcb F0       		.byte	0xf0
 3713 0dcc 0A       		.byte	0xa
 3714 0dcd 7202     		.2byte	0x272
 3715 0dcf EE0D0000 		.4byte	0xdee
 3716 0dd3 0A       		.uleb128 0xa
 3717 0dd4 55030000 		.4byte	.LASF221
 3718 0dd8 0A       		.byte	0xa
 3719 0dd9 7502     		.2byte	0x275
 3720 0ddb EE0D0000 		.4byte	0xdee
 3721 0ddf 00       		.byte	0
 3722 0de0 0A       		.uleb128 0xa
 3723 0de1 CE0F0000 		.4byte	.LASF222
 3724 0de5 0A       		.byte	0xa
 3725 0de6 7602     		.2byte	0x276
 3726 0de8 FE0D0000 		.4byte	0xdfe
 3727 0dec 78       		.byte	0x78
 3728 0ded 00       		.byte	0
 3729 0dee 07       		.uleb128 0x7
 3730 0def E8080000 		.4byte	0x8e8
 3731 0df3 FE0D0000 		.4byte	0xdfe
 3732 0df7 08       		.uleb128 0x8
 3733 0df8 9B000000 		.4byte	0x9b
 3734 0dfc 1D       		.byte	0x1d
 3735 0dfd 00       		.byte	0
 3736 0dfe 07       		.uleb128 0x7
 3737 0dff 9B000000 		.4byte	0x9b
ARM GAS  C:\Users\PCHAUT~1\AppData\Local\Temp\cct0c6Vd.s 			page 70


 3738 0e03 0E0E0000 		.4byte	0xe0e
 3739 0e07 08       		.uleb128 0x8
 3740 0e08 9B000000 		.4byte	0x9b
 3741 0e0c 1D       		.byte	0x1d
 3742 0e0d 00       		.byte	0
 3743 0e0e 1D       		.uleb128 0x1d
 3744 0e0f F0       		.byte	0xf0
 3745 0e10 0A       		.byte	0xa
 3746 0e11 5702     		.2byte	0x257
 3747 0e13 300E0000 		.4byte	0xe30
 3748 0e17 1E       		.uleb128 0x1e
 3749 0e18 AC090000 		.4byte	.LASF172
 3750 0e1c 0A       		.byte	0xa
 3751 0e1d 6E02     		.2byte	0x26e
 3752 0e1f 990C0000 		.4byte	0xc99
 3753 0e23 1E       		.uleb128 0x1e
 3754 0e24 CE0A0000 		.4byte	.LASF223
 3755 0e28 0A       		.byte	0xa
 3756 0e29 7702     		.2byte	0x277
 3757 0e2b CA0D0000 		.4byte	0xdca
 3758 0e2f 00       		.byte	0
 3759 0e30 07       		.uleb128 0x7
 3760 0e31 62010000 		.4byte	0x162
 3761 0e35 400E0000 		.4byte	0xe40
 3762 0e39 08       		.uleb128 0x8
 3763 0e3a 9B000000 		.4byte	0x9b
 3764 0e3e 18       		.byte	0x18
 3765 0e3f 00       		.byte	0
 3766 0e40 11       		.uleb128 0x11
 3767 0e41 97010000 		.4byte	.LASF225
 3768 0e45 0F       		.uleb128 0xf
 3769 0e46 04       		.byte	0x4
 3770 0e47 400E0000 		.4byte	0xe40
 3771 0e4b 1F       		.uleb128 0x1f
 3772 0e4c 560E0000 		.4byte	0xe56
 3773 0e50 1A       		.uleb128 0x1a
 3774 0e51 360A0000 		.4byte	0xa36
 3775 0e55 00       		.byte	0
 3776 0e56 0F       		.uleb128 0xf
 3777 0e57 04       		.byte	0x4
 3778 0e58 4B0E0000 		.4byte	0xe4b
 3779 0e5c 0F       		.uleb128 0xf
 3780 0e5d 04       		.byte	0x4
 3781 0e5e 89070000 		.4byte	0x789
 3782 0e62 1F       		.uleb128 0x1f
 3783 0e63 6D0E0000 		.4byte	0xe6d
 3784 0e67 1A       		.uleb128 0x1a
 3785 0e68 94000000 		.4byte	0x94
 3786 0e6c 00       		.byte	0
 3787 0e6d 0F       		.uleb128 0xf
 3788 0e6e 04       		.byte	0x4
 3789 0e6f 730E0000 		.4byte	0xe73
 3790 0e73 0F       		.uleb128 0xf
 3791 0e74 04       		.byte	0x4
 3792 0e75 620E0000 		.4byte	0xe62
 3793 0e79 07       		.uleb128 0x7
 3794 0e7a 070C0000 		.4byte	0xc07
ARM GAS  C:\Users\PCHAUT~1\AppData\Local\Temp\cct0c6Vd.s 			page 71


 3795 0e7e 890E0000 		.4byte	0xe89
 3796 0e82 08       		.uleb128 0x8
 3797 0e83 9B000000 		.4byte	0x9b
 3798 0e87 02       		.byte	0x2
 3799 0e88 00       		.byte	0
 3800 0e89 20       		.uleb128 0x20
 3801 0e8a 1B020000 		.4byte	.LASF226
 3802 0e8e 0A       		.byte	0xa
 3803 0e8f 0703     		.2byte	0x307
 3804 0e91 360A0000 		.4byte	0xa36
 3805 0e95 20       		.uleb128 0x20
 3806 0e96 570A0000 		.4byte	.LASF227
 3807 0e9a 0A       		.byte	0xa
 3808 0e9b 0803     		.2byte	0x308
 3809 0e9d 3C0A0000 		.4byte	0xa3c
 3810 0ea1 21       		.uleb128 0x21
 3811 0ea2 C001     		.2byte	0x1c0
 3812 0ea4 0B       		.byte	0xb
 3813 0ea5 44       		.byte	0x44
 3814 0ea6 D10E0000 		.4byte	0xed1
 3815 0eaa 06       		.uleb128 0x6
 3816 0eab BB0F0000 		.4byte	.LASF228
 3817 0eaf 0B       		.byte	0xb
 3818 0eb0 45       		.byte	0x45
 3819 0eb1 67060000 		.4byte	0x667
 3820 0eb5 00       		.byte	0
 3821 0eb6 17       		.uleb128 0x17
 3822 0eb7 8F000000 		.4byte	.LASF229
 3823 0ebb 0B       		.byte	0xb
 3824 0ebc 48       		.byte	0x48
 3825 0ebd 6E010000 		.4byte	0x16e
 3826 0ec1 5C01     		.2byte	0x15c
 3827 0ec3 17       		.uleb128 0x17
 3828 0ec4 020A0000 		.4byte	.LASF230
 3829 0ec8 0B       		.byte	0xb
 3830 0ec9 49       		.byte	0x49
 3831 0eca AD000000 		.4byte	0xad
 3832 0ece BF01     		.2byte	0x1bf
 3833 0ed0 00       		.byte	0
 3834 0ed1 02       		.uleb128 0x2
 3835 0ed2 BF010000 		.4byte	.LASF231
 3836 0ed6 0B       		.byte	0xb
 3837 0ed7 4B       		.byte	0x4b
 3838 0ed8 A10E0000 		.4byte	0xea1
 3839 0edc 02       		.uleb128 0x2
 3840 0edd 59000000 		.4byte	.LASF232
 3841 0ee1 0B       		.byte	0xb
 3842 0ee2 52       		.byte	0x52
 3843 0ee3 E70E0000 		.4byte	0xee7
 3844 0ee7 0F       		.uleb128 0xf
 3845 0ee8 04       		.byte	0x4
 3846 0ee9 D10E0000 		.4byte	0xed1
 3847 0eed 22       		.uleb128 0x22
 3848 0eee 66050000 		.4byte	.LASF233
 3849 0ef2 0C       		.byte	0xc
 3850 0ef3 63       		.byte	0x63
 3851 0ef4 730B0000 		.4byte	0xb73
ARM GAS  C:\Users\PCHAUT~1\AppData\Local\Temp\cct0c6Vd.s 			page 72


 3852 0ef8 23       		.uleb128 0x23
 3853 0ef9 6A0F0000 		.4byte	.LASF236
 3854 0efd 01       		.byte	0x1
 3855 0efe A301     		.2byte	0x1a3
 3856 0f00 79010000 		.4byte	0x179
 3857 0f04 00000000 		.4byte	.LFB10
 3858 0f08 30010000 		.4byte	.LFE10-.LFB10
 3859 0f0c 01       		.uleb128 0x1
 3860 0f0d 9C       		.byte	0x9c
 3861 0f0e 4F0F0000 		.4byte	0xf4f
 3862 0f12 24       		.uleb128 0x24
 3863 0f13 44657600 		.ascii	"Dev\000"
 3864 0f17 01       		.byte	0x1
 3865 0f18 A301     		.2byte	0x1a3
 3866 0f1a DC0E0000 		.4byte	0xedc
 3867 0f1e 02       		.uleb128 0x2
 3868 0f1f 91       		.byte	0x91
 3869 0f20 64       		.sleb128 -28
 3870 0f21 25       		.uleb128 0x25
 3871 0f22 2A040000 		.4byte	.LASF234
 3872 0f26 01       		.byte	0x1
 3873 0f27 A301     		.2byte	0x1a3
 3874 0f29 B8000000 		.4byte	0xb8
 3875 0f2d 02       		.uleb128 0x2
 3876 0f2e 91       		.byte	0x91
 3877 0f2f 62       		.sleb128 -30
 3878 0f30 25       		.uleb128 0x25
 3879 0f31 80070000 		.4byte	.LASF235
 3880 0f35 01       		.byte	0x1
 3881 0f36 A401     		.2byte	0x1a4
 3882 0f38 730B0000 		.4byte	0xb73
 3883 0f3c 02       		.uleb128 0x2
 3884 0f3d 91       		.byte	0x91
 3885 0f3e 5C       		.sleb128 -36
 3886 0f3f 26       		.uleb128 0x26
 3887 0f40 13010000 		.4byte	.LASF240
 3888 0f44 01       		.byte	0x1
 3889 0f45 A701     		.2byte	0x1a7
 3890 0f47 79010000 		.4byte	0x179
 3891 0f4b 02       		.uleb128 0x2
 3892 0f4c 91       		.byte	0x91
 3893 0f4d 6B       		.sleb128 -21
 3894 0f4e 00       		.byte	0
 3895 0f4f 23       		.uleb128 0x23
 3896 0f50 68040000 		.4byte	.LASF237
 3897 0f54 01       		.byte	0x1
 3898 0f55 7C01     		.2byte	0x17c
 3899 0f57 79010000 		.4byte	0x179
 3900 0f5b 00000000 		.4byte	.LFB9
 3901 0f5f BC000000 		.4byte	.LFE9-.LFB9
 3902 0f63 01       		.uleb128 0x1
 3903 0f64 9C       		.byte	0x9c
 3904 0f65 970F0000 		.4byte	0xf97
 3905 0f69 25       		.uleb128 0x25
 3906 0f6a 52040000 		.4byte	.LASF238
 3907 0f6e 01       		.byte	0x1
 3908 0f6f 7D01     		.2byte	0x17d
ARM GAS  C:\Users\PCHAUT~1\AppData\Local\Temp\cct0c6Vd.s 			page 73


 3909 0f71 7F060000 		.4byte	0x67f
 3910 0f75 02       		.uleb128 0x2
 3911 0f76 91       		.byte	0x91
 3912 0f77 6F       		.sleb128 -17
 3913 0f78 25       		.uleb128 0x25
 3914 0f79 7E030000 		.4byte	.LASF239
 3915 0f7d 01       		.byte	0x1
 3916 0f7e 7E01     		.2byte	0x17e
 3917 0f80 730B0000 		.4byte	0xb73
 3918 0f84 02       		.uleb128 0x2
 3919 0f85 91       		.byte	0x91
 3920 0f86 68       		.sleb128 -24
 3921 0f87 26       		.uleb128 0x26
 3922 0f88 13010000 		.4byte	.LASF240
 3923 0f8c 01       		.byte	0x1
 3924 0f8d 8001     		.2byte	0x180
 3925 0f8f 79010000 		.4byte	0x179
 3926 0f93 02       		.uleb128 0x2
 3927 0f94 91       		.byte	0x91
 3928 0f95 73       		.sleb128 -13
 3929 0f96 00       		.byte	0
 3930 0f97 23       		.uleb128 0x23
 3931 0f98 F9070000 		.4byte	.LASF241
 3932 0f9c 01       		.byte	0x1
 3933 0f9d 4E01     		.2byte	0x14e
 3934 0f9f 79010000 		.4byte	0x179
 3935 0fa3 00000000 		.4byte	.LFB8
 3936 0fa7 2C010000 		.4byte	.LFE8-.LFB8
 3937 0fab 01       		.uleb128 0x1
 3938 0fac 9C       		.byte	0x9c
 3939 0fad DF0F0000 		.4byte	0xfdf
 3940 0fb1 25       		.uleb128 0x25
 3941 0fb2 71080000 		.4byte	.LASF242
 3942 0fb6 01       		.byte	0x1
 3943 0fb7 4E01     		.2byte	0x14e
 3944 0fb9 6D020000 		.4byte	0x26d
 3945 0fbd 02       		.uleb128 0x2
 3946 0fbe 91       		.byte	0x91
 3947 0fbf 67       		.sleb128 -25
 3948 0fc0 25       		.uleb128 0x25
 3949 0fc1 D80D0000 		.4byte	.LASF243
 3950 0fc5 01       		.byte	0x1
 3951 0fc6 4F01     		.2byte	0x14f
 3952 0fc8 730B0000 		.4byte	0xb73
 3953 0fcc 02       		.uleb128 0x2
 3954 0fcd 91       		.byte	0x91
 3955 0fce 60       		.sleb128 -32
 3956 0fcf 26       		.uleb128 0x26
 3957 0fd0 13010000 		.4byte	.LASF240
 3958 0fd4 01       		.byte	0x1
 3959 0fd5 5101     		.2byte	0x151
 3960 0fd7 79010000 		.4byte	0x179
 3961 0fdb 02       		.uleb128 0x2
 3962 0fdc 91       		.byte	0x91
 3963 0fdd 6B       		.sleb128 -21
 3964 0fde 00       		.byte	0
 3965 0fdf 27       		.uleb128 0x27
ARM GAS  C:\Users\PCHAUT~1\AppData\Local\Temp\cct0c6Vd.s 			page 74


 3966 0fe0 960A0000 		.4byte	.LASF244
 3967 0fe4 01       		.byte	0x1
 3968 0fe5 F4       		.byte	0xf4
 3969 0fe6 79010000 		.4byte	0x179
 3970 0fea 00000000 		.4byte	.LFB7
 3971 0fee 20040000 		.4byte	.LFE7-.LFB7
 3972 0ff2 01       		.uleb128 0x1
 3973 0ff3 9C       		.byte	0x9c
 3974 0ff4 23100000 		.4byte	0x1023
 3975 0ff8 28       		.uleb128 0x28
 3976 0ff9 88090000 		.4byte	.LASF245
 3977 0ffd 01       		.byte	0x1
 3978 0ffe F4       		.byte	0xf4
 3979 0fff 79010000 		.4byte	0x179
 3980 1003 02       		.uleb128 0x2
 3981 1004 91       		.byte	0x91
 3982 1005 67       		.sleb128 -25
 3983 1006 28       		.uleb128 0x28
 3984 1007 170E0000 		.4byte	.LASF246
 3985 100b 01       		.byte	0x1
 3986 100c F5       		.byte	0xf5
 3987 100d 730B0000 		.4byte	0xb73
 3988 1011 02       		.uleb128 0x2
 3989 1012 91       		.byte	0x91
 3990 1013 60       		.sleb128 -32
 3991 1014 29       		.uleb128 0x29
 3992 1015 13010000 		.4byte	.LASF240
 3993 1019 01       		.byte	0x1
 3994 101a F7       		.byte	0xf7
 3995 101b 79010000 		.4byte	0x179
 3996 101f 02       		.uleb128 0x2
 3997 1020 91       		.byte	0x91
 3998 1021 6B       		.sleb128 -21
 3999 1022 00       		.byte	0
 4000 1023 27       		.uleb128 0x27
 4001 1024 B3090000 		.4byte	.LASF247
 4002 1028 01       		.byte	0x1
 4003 1029 CA       		.byte	0xca
 4004 102a 79010000 		.4byte	0x179
 4005 102e 00000000 		.4byte	.LFB6
 4006 1032 10010000 		.4byte	.LFE6-.LFB6
 4007 1036 01       		.uleb128 0x1
 4008 1037 9C       		.byte	0x9c
 4009 1038 67100000 		.4byte	0x1067
 4010 103c 28       		.uleb128 0x28
 4011 103d D6070000 		.4byte	.LASF61
 4012 1041 01       		.byte	0x1
 4013 1042 CA       		.byte	0xca
 4014 1043 AD000000 		.4byte	0xad
 4015 1047 02       		.uleb128 0x2
 4016 1048 91       		.byte	0x91
 4017 1049 6F       		.sleb128 -17
 4018 104a 28       		.uleb128 0x28
 4019 104b A2020000 		.4byte	.LASF248
 4020 104f 01       		.byte	0x1
 4021 1050 CB       		.byte	0xcb
 4022 1051 730B0000 		.4byte	0xb73
ARM GAS  C:\Users\PCHAUT~1\AppData\Local\Temp\cct0c6Vd.s 			page 75


 4023 1055 02       		.uleb128 0x2
 4024 1056 91       		.byte	0x91
 4025 1057 68       		.sleb128 -24
 4026 1058 29       		.uleb128 0x29
 4027 1059 13010000 		.4byte	.LASF240
 4028 105d 01       		.byte	0x1
 4029 105e CD       		.byte	0xcd
 4030 105f 79010000 		.4byte	0x179
 4031 1063 02       		.uleb128 0x2
 4032 1064 91       		.byte	0x91
 4033 1065 73       		.sleb128 -13
 4034 1066 00       		.byte	0
 4035 1067 27       		.uleb128 0x27
 4036 1068 180A0000 		.4byte	.LASF249
 4037 106c 01       		.byte	0x1
 4038 106d 7B       		.byte	0x7b
 4039 106e 79010000 		.4byte	0x179
 4040 1072 00000000 		.4byte	.LFB5
 4041 1076 7C020000 		.4byte	.LFE5-.LFB5
 4042 107a 01       		.uleb128 0x1
 4043 107b 9C       		.byte	0x9c
 4044 107c AB100000 		.4byte	0x10ab
 4045 1080 28       		.uleb128 0x28
 4046 1081 C7080000 		.4byte	.LASF250
 4047 1085 01       		.byte	0x1
 4048 1086 7B       		.byte	0x7b
 4049 1087 EB000000 		.4byte	0xeb
 4050 108b 02       		.uleb128 0x2
 4051 108c 91       		.byte	0x91
 4052 108d 67       		.sleb128 -25
 4053 108e 28       		.uleb128 0x28
 4054 108f 680D0000 		.4byte	.LASF251
 4055 1093 01       		.byte	0x1
 4056 1094 7C       		.byte	0x7c
 4057 1095 730B0000 		.4byte	0xb73
 4058 1099 02       		.uleb128 0x2
 4059 109a 91       		.byte	0x91
 4060 109b 60       		.sleb128 -32
 4061 109c 29       		.uleb128 0x29
 4062 109d 13010000 		.4byte	.LASF240
 4063 10a1 01       		.byte	0x1
 4064 10a2 7E       		.byte	0x7e
 4065 10a3 79010000 		.4byte	0x179
 4066 10a7 02       		.uleb128 0x2
 4067 10a8 91       		.byte	0x91
 4068 10a9 6B       		.sleb128 -21
 4069 10aa 00       		.byte	0
 4070 10ab 27       		.uleb128 0x27
 4071 10ac BE040000 		.4byte	.LASF252
 4072 10b0 01       		.byte	0x1
 4073 10b1 4C       		.byte	0x4c
 4074 10b2 79010000 		.4byte	0x179
 4075 10b6 00000000 		.4byte	.LFB4
 4076 10ba 30010000 		.4byte	.LFE4-.LFB4
 4077 10be 01       		.uleb128 0x1
 4078 10bf 9C       		.byte	0x9c
 4079 10c0 0B110000 		.4byte	0x110b
ARM GAS  C:\Users\PCHAUT~1\AppData\Local\Temp\cct0c6Vd.s 			page 76


 4080 10c4 2A       		.uleb128 0x2a
 4081 10c5 44657600 		.ascii	"Dev\000"
 4082 10c9 01       		.byte	0x1
 4083 10ca 4C       		.byte	0x4c
 4084 10cb DC0E0000 		.4byte	0xedc
 4085 10cf 02       		.uleb128 0x2
 4086 10d0 91       		.byte	0x91
 4087 10d1 64       		.sleb128 -28
 4088 10d2 28       		.uleb128 0x28
 4089 10d3 83010000 		.4byte	.LASF253
 4090 10d7 01       		.byte	0x1
 4091 10d8 4D       		.byte	0x4d
 4092 10d9 0B110000 		.4byte	0x110b
 4093 10dd 02       		.uleb128 0x2
 4094 10de 91       		.byte	0x91
 4095 10df 60       		.sleb128 -32
 4096 10e0 29       		.uleb128 0x29
 4097 10e1 13010000 		.4byte	.LASF240
 4098 10e5 01       		.byte	0x1
 4099 10e6 4F       		.byte	0x4f
 4100 10e7 79010000 		.4byte	0x179
 4101 10eb 02       		.uleb128 0x2
 4102 10ec 91       		.byte	0x91
 4103 10ed 6B       		.sleb128 -21
 4104 10ee 29       		.uleb128 0x29
 4105 10ef B30A0000 		.4byte	.LASF254
 4106 10f3 01       		.byte	0x1
 4107 10f4 50       		.byte	0x50
 4108 10f5 AD000000 		.4byte	0xad
 4109 10f9 02       		.uleb128 0x2
 4110 10fa 91       		.byte	0x91
 4111 10fb 69       		.sleb128 -23
 4112 10fc 29       		.uleb128 0x29
 4113 10fd 2C020000 		.4byte	.LASF85
 4114 1101 01       		.byte	0x1
 4115 1102 51       		.byte	0x51
 4116 1103 AD000000 		.4byte	0xad
 4117 1107 02       		.uleb128 0x2
 4118 1108 91       		.byte	0x91
 4119 1109 6A       		.sleb128 -22
 4120 110a 00       		.byte	0
 4121 110b 0F       		.uleb128 0xf
 4122 110c 04       		.byte	0x4
 4123 110d 6E010000 		.4byte	0x16e
 4124 1111 2B       		.uleb128 0x2b
 4125 1112 E1040000 		.4byte	.LASF260
 4126 1116 01       		.byte	0x1
 4127 1117 2D       		.byte	0x2d
 4128 1118 79010000 		.4byte	0x179
 4129 111c 00000000 		.4byte	.LFB3
 4130 1120 88000000 		.4byte	.LFE3-.LFB3
 4131 1124 01       		.uleb128 0x1
 4132 1125 9C       		.byte	0x9c
 4133 1126 2A       		.uleb128 0x2a
 4134 1127 44657600 		.ascii	"Dev\000"
 4135 112b 01       		.byte	0x1
 4136 112c 2D       		.byte	0x2d
ARM GAS  C:\Users\PCHAUT~1\AppData\Local\Temp\cct0c6Vd.s 			page 77


 4137 112d DC0E0000 		.4byte	0xedc
 4138 1131 02       		.uleb128 0x2
 4139 1132 91       		.byte	0x91
 4140 1133 64       		.sleb128 -28
 4141 1134 28       		.uleb128 0x28
 4142 1135 2C020000 		.4byte	.LASF85
 4143 1139 01       		.byte	0x1
 4144 113a 2E       		.byte	0x2e
 4145 113b 61060000 		.4byte	0x661
 4146 113f 02       		.uleb128 0x2
 4147 1140 91       		.byte	0x91
 4148 1141 60       		.sleb128 -32
 4149 1142 28       		.uleb128 0x28
 4150 1143 83010000 		.4byte	.LASF253
 4151 1147 01       		.byte	0x1
 4152 1148 2F       		.byte	0x2f
 4153 1149 0B110000 		.4byte	0x110b
 4154 114d 02       		.uleb128 0x2
 4155 114e 91       		.byte	0x91
 4156 114f 5C       		.sleb128 -36
 4157 1150 29       		.uleb128 0x29
 4158 1151 13010000 		.4byte	.LASF240
 4159 1155 01       		.byte	0x1
 4160 1156 31       		.byte	0x31
 4161 1157 79010000 		.4byte	0x179
 4162 115b 02       		.uleb128 0x2
 4163 115c 91       		.byte	0x91
 4164 115d 6E       		.sleb128 -18
 4165 115e 29       		.uleb128 0x29
 4166 115f 0B0E0000 		.4byte	.LASF255
 4167 1163 01       		.byte	0x1
 4168 1164 32       		.byte	0x32
 4169 1165 AD000000 		.4byte	0xad
 4170 1169 02       		.uleb128 0x2
 4171 116a 91       		.byte	0x91
 4172 116b 6F       		.sleb128 -17
 4173 116c 29       		.uleb128 0x29
 4174 116d 31070000 		.4byte	.LASF256
 4175 1171 01       		.byte	0x1
 4176 1172 33       		.byte	0x33
 4177 1173 730B0000 		.4byte	0xb73
 4178 1177 02       		.uleb128 0x2
 4179 1178 91       		.byte	0x91
 4180 1179 70       		.sleb128 -16
 4181 117a 00       		.byte	0
 4182 117b 00       		.byte	0
 4183              		.section	.debug_abbrev,"",%progbits
 4184              	.Ldebug_abbrev0:
 4185 0000 01       		.uleb128 0x1
 4186 0001 11       		.uleb128 0x11
 4187 0002 01       		.byte	0x1
 4188 0003 25       		.uleb128 0x25
 4189 0004 0E       		.uleb128 0xe
 4190 0005 13       		.uleb128 0x13
 4191 0006 0B       		.uleb128 0xb
 4192 0007 03       		.uleb128 0x3
 4193 0008 0E       		.uleb128 0xe
ARM GAS  C:\Users\PCHAUT~1\AppData\Local\Temp\cct0c6Vd.s 			page 78


 4194 0009 1B       		.uleb128 0x1b
 4195 000a 0E       		.uleb128 0xe
 4196 000b 55       		.uleb128 0x55
 4197 000c 17       		.uleb128 0x17
 4198 000d 11       		.uleb128 0x11
 4199 000e 01       		.uleb128 0x1
 4200 000f 10       		.uleb128 0x10
 4201 0010 17       		.uleb128 0x17
 4202 0011 00       		.byte	0
 4203 0012 00       		.byte	0
 4204 0013 02       		.uleb128 0x2
 4205 0014 16       		.uleb128 0x16
 4206 0015 00       		.byte	0
 4207 0016 03       		.uleb128 0x3
 4208 0017 0E       		.uleb128 0xe
 4209 0018 3A       		.uleb128 0x3a
 4210 0019 0B       		.uleb128 0xb
 4211 001a 3B       		.uleb128 0x3b
 4212 001b 0B       		.uleb128 0xb
 4213 001c 49       		.uleb128 0x49
 4214 001d 13       		.uleb128 0x13
 4215 001e 00       		.byte	0
 4216 001f 00       		.byte	0
 4217 0020 03       		.uleb128 0x3
 4218 0021 24       		.uleb128 0x24
 4219 0022 00       		.byte	0
 4220 0023 0B       		.uleb128 0xb
 4221 0024 0B       		.uleb128 0xb
 4222 0025 3E       		.uleb128 0x3e
 4223 0026 0B       		.uleb128 0xb
 4224 0027 03       		.uleb128 0x3
 4225 0028 0E       		.uleb128 0xe
 4226 0029 00       		.byte	0
 4227 002a 00       		.byte	0
 4228 002b 04       		.uleb128 0x4
 4229 002c 24       		.uleb128 0x24
 4230 002d 00       		.byte	0
 4231 002e 0B       		.uleb128 0xb
 4232 002f 0B       		.uleb128 0xb
 4233 0030 3E       		.uleb128 0x3e
 4234 0031 0B       		.uleb128 0xb
 4235 0032 03       		.uleb128 0x3
 4236 0033 08       		.uleb128 0x8
 4237 0034 00       		.byte	0
 4238 0035 00       		.byte	0
 4239 0036 05       		.uleb128 0x5
 4240 0037 13       		.uleb128 0x13
 4241 0038 01       		.byte	0x1
 4242 0039 0B       		.uleb128 0xb
 4243 003a 0B       		.uleb128 0xb
 4244 003b 3A       		.uleb128 0x3a
 4245 003c 0B       		.uleb128 0xb
 4246 003d 3B       		.uleb128 0x3b
 4247 003e 0B       		.uleb128 0xb
 4248 003f 01       		.uleb128 0x1
 4249 0040 13       		.uleb128 0x13
 4250 0041 00       		.byte	0
ARM GAS  C:\Users\PCHAUT~1\AppData\Local\Temp\cct0c6Vd.s 			page 79


 4251 0042 00       		.byte	0
 4252 0043 06       		.uleb128 0x6
 4253 0044 0D       		.uleb128 0xd
 4254 0045 00       		.byte	0
 4255 0046 03       		.uleb128 0x3
 4256 0047 0E       		.uleb128 0xe
 4257 0048 3A       		.uleb128 0x3a
 4258 0049 0B       		.uleb128 0xb
 4259 004a 3B       		.uleb128 0x3b
 4260 004b 0B       		.uleb128 0xb
 4261 004c 49       		.uleb128 0x49
 4262 004d 13       		.uleb128 0x13
 4263 004e 38       		.uleb128 0x38
 4264 004f 0B       		.uleb128 0xb
 4265 0050 00       		.byte	0
 4266 0051 00       		.byte	0
 4267 0052 07       		.uleb128 0x7
 4268 0053 01       		.uleb128 0x1
 4269 0054 01       		.byte	0x1
 4270 0055 49       		.uleb128 0x49
 4271 0056 13       		.uleb128 0x13
 4272 0057 01       		.uleb128 0x1
 4273 0058 13       		.uleb128 0x13
 4274 0059 00       		.byte	0
 4275 005a 00       		.byte	0
 4276 005b 08       		.uleb128 0x8
 4277 005c 21       		.uleb128 0x21
 4278 005d 00       		.byte	0
 4279 005e 49       		.uleb128 0x49
 4280 005f 13       		.uleb128 0x13
 4281 0060 2F       		.uleb128 0x2f
 4282 0061 0B       		.uleb128 0xb
 4283 0062 00       		.byte	0
 4284 0063 00       		.byte	0
 4285 0064 09       		.uleb128 0x9
 4286 0065 26       		.uleb128 0x26
 4287 0066 00       		.byte	0
 4288 0067 49       		.uleb128 0x49
 4289 0068 13       		.uleb128 0x13
 4290 0069 00       		.byte	0
 4291 006a 00       		.byte	0
 4292 006b 0A       		.uleb128 0xa
 4293 006c 0D       		.uleb128 0xd
 4294 006d 00       		.byte	0
 4295 006e 03       		.uleb128 0x3
 4296 006f 0E       		.uleb128 0xe
 4297 0070 3A       		.uleb128 0x3a
 4298 0071 0B       		.uleb128 0xb
 4299 0072 3B       		.uleb128 0x3b
 4300 0073 05       		.uleb128 0x5
 4301 0074 49       		.uleb128 0x49
 4302 0075 13       		.uleb128 0x13
 4303 0076 38       		.uleb128 0x38
 4304 0077 0B       		.uleb128 0xb
 4305 0078 00       		.byte	0
 4306 0079 00       		.byte	0
 4307 007a 0B       		.uleb128 0xb
ARM GAS  C:\Users\PCHAUT~1\AppData\Local\Temp\cct0c6Vd.s 			page 80


 4308 007b 16       		.uleb128 0x16
 4309 007c 00       		.byte	0
 4310 007d 03       		.uleb128 0x3
 4311 007e 0E       		.uleb128 0xe
 4312 007f 3A       		.uleb128 0x3a
 4313 0080 0B       		.uleb128 0xb
 4314 0081 3B       		.uleb128 0x3b
 4315 0082 05       		.uleb128 0x5
 4316 0083 49       		.uleb128 0x49
 4317 0084 13       		.uleb128 0x13
 4318 0085 00       		.byte	0
 4319 0086 00       		.byte	0
 4320 0087 0C       		.uleb128 0xc
 4321 0088 13       		.uleb128 0x13
 4322 0089 01       		.byte	0x1
 4323 008a 0B       		.uleb128 0xb
 4324 008b 0B       		.uleb128 0xb
 4325 008c 3A       		.uleb128 0x3a
 4326 008d 0B       		.uleb128 0xb
 4327 008e 3B       		.uleb128 0x3b
 4328 008f 05       		.uleb128 0x5
 4329 0090 01       		.uleb128 0x1
 4330 0091 13       		.uleb128 0x13
 4331 0092 00       		.byte	0
 4332 0093 00       		.byte	0
 4333 0094 0D       		.uleb128 0xd
 4334 0095 13       		.uleb128 0x13
 4335 0096 01       		.byte	0x1
 4336 0097 0B       		.uleb128 0xb
 4337 0098 05       		.uleb128 0x5
 4338 0099 3A       		.uleb128 0x3a
 4339 009a 0B       		.uleb128 0xb
 4340 009b 3B       		.uleb128 0x3b
 4341 009c 05       		.uleb128 0x5
 4342 009d 01       		.uleb128 0x1
 4343 009e 13       		.uleb128 0x13
 4344 009f 00       		.byte	0
 4345 00a0 00       		.byte	0
 4346 00a1 0E       		.uleb128 0xe
 4347 00a2 0D       		.uleb128 0xd
 4348 00a3 00       		.byte	0
 4349 00a4 03       		.uleb128 0x3
 4350 00a5 0E       		.uleb128 0xe
 4351 00a6 3A       		.uleb128 0x3a
 4352 00a7 0B       		.uleb128 0xb
 4353 00a8 3B       		.uleb128 0x3b
 4354 00a9 05       		.uleb128 0x5
 4355 00aa 49       		.uleb128 0x49
 4356 00ab 13       		.uleb128 0x13
 4357 00ac 38       		.uleb128 0x38
 4358 00ad 05       		.uleb128 0x5
 4359 00ae 00       		.byte	0
 4360 00af 00       		.byte	0
 4361 00b0 0F       		.uleb128 0xf
 4362 00b1 0F       		.uleb128 0xf
 4363 00b2 00       		.byte	0
 4364 00b3 0B       		.uleb128 0xb
ARM GAS  C:\Users\PCHAUT~1\AppData\Local\Temp\cct0c6Vd.s 			page 81


 4365 00b4 0B       		.uleb128 0xb
 4366 00b5 49       		.uleb128 0x49
 4367 00b6 13       		.uleb128 0x13
 4368 00b7 00       		.byte	0
 4369 00b8 00       		.byte	0
 4370 00b9 10       		.uleb128 0x10
 4371 00ba 0F       		.uleb128 0xf
 4372 00bb 00       		.byte	0
 4373 00bc 0B       		.uleb128 0xb
 4374 00bd 0B       		.uleb128 0xb
 4375 00be 00       		.byte	0
 4376 00bf 00       		.byte	0
 4377 00c0 11       		.uleb128 0x11
 4378 00c1 13       		.uleb128 0x13
 4379 00c2 00       		.byte	0
 4380 00c3 03       		.uleb128 0x3
 4381 00c4 0E       		.uleb128 0xe
 4382 00c5 3C       		.uleb128 0x3c
 4383 00c6 19       		.uleb128 0x19
 4384 00c7 00       		.byte	0
 4385 00c8 00       		.byte	0
 4386 00c9 12       		.uleb128 0x12
 4387 00ca 17       		.uleb128 0x17
 4388 00cb 01       		.byte	0x1
 4389 00cc 0B       		.uleb128 0xb
 4390 00cd 0B       		.uleb128 0xb
 4391 00ce 3A       		.uleb128 0x3a
 4392 00cf 0B       		.uleb128 0xb
 4393 00d0 3B       		.uleb128 0x3b
 4394 00d1 0B       		.uleb128 0xb
 4395 00d2 01       		.uleb128 0x1
 4396 00d3 13       		.uleb128 0x13
 4397 00d4 00       		.byte	0
 4398 00d5 00       		.byte	0
 4399 00d6 13       		.uleb128 0x13
 4400 00d7 0D       		.uleb128 0xd
 4401 00d8 00       		.byte	0
 4402 00d9 03       		.uleb128 0x3
 4403 00da 0E       		.uleb128 0xe
 4404 00db 3A       		.uleb128 0x3a
 4405 00dc 0B       		.uleb128 0xb
 4406 00dd 3B       		.uleb128 0x3b
 4407 00de 0B       		.uleb128 0xb
 4408 00df 49       		.uleb128 0x49
 4409 00e0 13       		.uleb128 0x13
 4410 00e1 00       		.byte	0
 4411 00e2 00       		.byte	0
 4412 00e3 14       		.uleb128 0x14
 4413 00e4 13       		.uleb128 0x13
 4414 00e5 01       		.byte	0x1
 4415 00e6 03       		.uleb128 0x3
 4416 00e7 0E       		.uleb128 0xe
 4417 00e8 0B       		.uleb128 0xb
 4418 00e9 0B       		.uleb128 0xb
 4419 00ea 3A       		.uleb128 0x3a
 4420 00eb 0B       		.uleb128 0xb
 4421 00ec 3B       		.uleb128 0x3b
ARM GAS  C:\Users\PCHAUT~1\AppData\Local\Temp\cct0c6Vd.s 			page 82


 4422 00ed 0B       		.uleb128 0xb
 4423 00ee 01       		.uleb128 0x1
 4424 00ef 13       		.uleb128 0x13
 4425 00f0 00       		.byte	0
 4426 00f1 00       		.byte	0
 4427 00f2 15       		.uleb128 0x15
 4428 00f3 0D       		.uleb128 0xd
 4429 00f4 00       		.byte	0
 4430 00f5 03       		.uleb128 0x3
 4431 00f6 08       		.uleb128 0x8
 4432 00f7 3A       		.uleb128 0x3a
 4433 00f8 0B       		.uleb128 0xb
 4434 00f9 3B       		.uleb128 0x3b
 4435 00fa 0B       		.uleb128 0xb
 4436 00fb 49       		.uleb128 0x49
 4437 00fc 13       		.uleb128 0x13
 4438 00fd 38       		.uleb128 0x38
 4439 00fe 0B       		.uleb128 0xb
 4440 00ff 00       		.byte	0
 4441 0100 00       		.byte	0
 4442 0101 16       		.uleb128 0x16
 4443 0102 13       		.uleb128 0x13
 4444 0103 01       		.byte	0x1
 4445 0104 03       		.uleb128 0x3
 4446 0105 0E       		.uleb128 0xe
 4447 0106 0B       		.uleb128 0xb
 4448 0107 05       		.uleb128 0x5
 4449 0108 3A       		.uleb128 0x3a
 4450 0109 0B       		.uleb128 0xb
 4451 010a 3B       		.uleb128 0x3b
 4452 010b 0B       		.uleb128 0xb
 4453 010c 01       		.uleb128 0x1
 4454 010d 13       		.uleb128 0x13
 4455 010e 00       		.byte	0
 4456 010f 00       		.byte	0
 4457 0110 17       		.uleb128 0x17
 4458 0111 0D       		.uleb128 0xd
 4459 0112 00       		.byte	0
 4460 0113 03       		.uleb128 0x3
 4461 0114 0E       		.uleb128 0xe
 4462 0115 3A       		.uleb128 0x3a
 4463 0116 0B       		.uleb128 0xb
 4464 0117 3B       		.uleb128 0x3b
 4465 0118 0B       		.uleb128 0xb
 4466 0119 49       		.uleb128 0x49
 4467 011a 13       		.uleb128 0x13
 4468 011b 38       		.uleb128 0x38
 4469 011c 05       		.uleb128 0x5
 4470 011d 00       		.byte	0
 4471 011e 00       		.byte	0
 4472 011f 18       		.uleb128 0x18
 4473 0120 15       		.uleb128 0x15
 4474 0121 00       		.byte	0
 4475 0122 27       		.uleb128 0x27
 4476 0123 19       		.uleb128 0x19
 4477 0124 00       		.byte	0
 4478 0125 00       		.byte	0
ARM GAS  C:\Users\PCHAUT~1\AppData\Local\Temp\cct0c6Vd.s 			page 83


 4479 0126 19       		.uleb128 0x19
 4480 0127 15       		.uleb128 0x15
 4481 0128 01       		.byte	0x1
 4482 0129 27       		.uleb128 0x27
 4483 012a 19       		.uleb128 0x19
 4484 012b 49       		.uleb128 0x49
 4485 012c 13       		.uleb128 0x13
 4486 012d 01       		.uleb128 0x1
 4487 012e 13       		.uleb128 0x13
 4488 012f 00       		.byte	0
 4489 0130 00       		.byte	0
 4490 0131 1A       		.uleb128 0x1a
 4491 0132 05       		.uleb128 0x5
 4492 0133 00       		.byte	0
 4493 0134 49       		.uleb128 0x49
 4494 0135 13       		.uleb128 0x13
 4495 0136 00       		.byte	0
 4496 0137 00       		.byte	0
 4497 0138 1B       		.uleb128 0x1b
 4498 0139 13       		.uleb128 0x13
 4499 013a 01       		.byte	0x1
 4500 013b 03       		.uleb128 0x3
 4501 013c 0E       		.uleb128 0xe
 4502 013d 0B       		.uleb128 0xb
 4503 013e 05       		.uleb128 0x5
 4504 013f 3A       		.uleb128 0x3a
 4505 0140 0B       		.uleb128 0xb
 4506 0141 3B       		.uleb128 0x3b
 4507 0142 05       		.uleb128 0x5
 4508 0143 01       		.uleb128 0x1
 4509 0144 13       		.uleb128 0x13
 4510 0145 00       		.byte	0
 4511 0146 00       		.byte	0
 4512 0147 1C       		.uleb128 0x1c
 4513 0148 13       		.uleb128 0x13
 4514 0149 01       		.byte	0x1
 4515 014a 03       		.uleb128 0x3
 4516 014b 0E       		.uleb128 0xe
 4517 014c 0B       		.uleb128 0xb
 4518 014d 0B       		.uleb128 0xb
 4519 014e 3A       		.uleb128 0x3a
 4520 014f 0B       		.uleb128 0xb
 4521 0150 3B       		.uleb128 0x3b
 4522 0151 05       		.uleb128 0x5
 4523 0152 01       		.uleb128 0x1
 4524 0153 13       		.uleb128 0x13
 4525 0154 00       		.byte	0
 4526 0155 00       		.byte	0
 4527 0156 1D       		.uleb128 0x1d
 4528 0157 17       		.uleb128 0x17
 4529 0158 01       		.byte	0x1
 4530 0159 0B       		.uleb128 0xb
 4531 015a 0B       		.uleb128 0xb
 4532 015b 3A       		.uleb128 0x3a
 4533 015c 0B       		.uleb128 0xb
 4534 015d 3B       		.uleb128 0x3b
 4535 015e 05       		.uleb128 0x5
ARM GAS  C:\Users\PCHAUT~1\AppData\Local\Temp\cct0c6Vd.s 			page 84


 4536 015f 01       		.uleb128 0x1
 4537 0160 13       		.uleb128 0x13
 4538 0161 00       		.byte	0
 4539 0162 00       		.byte	0
 4540 0163 1E       		.uleb128 0x1e
 4541 0164 0D       		.uleb128 0xd
 4542 0165 00       		.byte	0
 4543 0166 03       		.uleb128 0x3
 4544 0167 0E       		.uleb128 0xe
 4545 0168 3A       		.uleb128 0x3a
 4546 0169 0B       		.uleb128 0xb
 4547 016a 3B       		.uleb128 0x3b
 4548 016b 05       		.uleb128 0x5
 4549 016c 49       		.uleb128 0x49
 4550 016d 13       		.uleb128 0x13
 4551 016e 00       		.byte	0
 4552 016f 00       		.byte	0
 4553 0170 1F       		.uleb128 0x1f
 4554 0171 15       		.uleb128 0x15
 4555 0172 01       		.byte	0x1
 4556 0173 27       		.uleb128 0x27
 4557 0174 19       		.uleb128 0x19
 4558 0175 01       		.uleb128 0x1
 4559 0176 13       		.uleb128 0x13
 4560 0177 00       		.byte	0
 4561 0178 00       		.byte	0
 4562 0179 20       		.uleb128 0x20
 4563 017a 34       		.uleb128 0x34
 4564 017b 00       		.byte	0
 4565 017c 03       		.uleb128 0x3
 4566 017d 0E       		.uleb128 0xe
 4567 017e 3A       		.uleb128 0x3a
 4568 017f 0B       		.uleb128 0xb
 4569 0180 3B       		.uleb128 0x3b
 4570 0181 05       		.uleb128 0x5
 4571 0182 49       		.uleb128 0x49
 4572 0183 13       		.uleb128 0x13
 4573 0184 3F       		.uleb128 0x3f
 4574 0185 19       		.uleb128 0x19
 4575 0186 3C       		.uleb128 0x3c
 4576 0187 19       		.uleb128 0x19
 4577 0188 00       		.byte	0
 4578 0189 00       		.byte	0
 4579 018a 21       		.uleb128 0x21
 4580 018b 13       		.uleb128 0x13
 4581 018c 01       		.byte	0x1
 4582 018d 0B       		.uleb128 0xb
 4583 018e 05       		.uleb128 0x5
 4584 018f 3A       		.uleb128 0x3a
 4585 0190 0B       		.uleb128 0xb
 4586 0191 3B       		.uleb128 0x3b
 4587 0192 0B       		.uleb128 0xb
 4588 0193 01       		.uleb128 0x1
 4589 0194 13       		.uleb128 0x13
 4590 0195 00       		.byte	0
 4591 0196 00       		.byte	0
 4592 0197 22       		.uleb128 0x22
ARM GAS  C:\Users\PCHAUT~1\AppData\Local\Temp\cct0c6Vd.s 			page 85


 4593 0198 34       		.uleb128 0x34
 4594 0199 00       		.byte	0
 4595 019a 03       		.uleb128 0x3
 4596 019b 0E       		.uleb128 0xe
 4597 019c 3A       		.uleb128 0x3a
 4598 019d 0B       		.uleb128 0xb
 4599 019e 3B       		.uleb128 0x3b
 4600 019f 0B       		.uleb128 0xb
 4601 01a0 49       		.uleb128 0x49
 4602 01a1 13       		.uleb128 0x13
 4603 01a2 3F       		.uleb128 0x3f
 4604 01a3 19       		.uleb128 0x19
 4605 01a4 3C       		.uleb128 0x3c
 4606 01a5 19       		.uleb128 0x19
 4607 01a6 00       		.byte	0
 4608 01a7 00       		.byte	0
 4609 01a8 23       		.uleb128 0x23
 4610 01a9 2E       		.uleb128 0x2e
 4611 01aa 01       		.byte	0x1
 4612 01ab 3F       		.uleb128 0x3f
 4613 01ac 19       		.uleb128 0x19
 4614 01ad 03       		.uleb128 0x3
 4615 01ae 0E       		.uleb128 0xe
 4616 01af 3A       		.uleb128 0x3a
 4617 01b0 0B       		.uleb128 0xb
 4618 01b1 3B       		.uleb128 0x3b
 4619 01b2 05       		.uleb128 0x5
 4620 01b3 27       		.uleb128 0x27
 4621 01b4 19       		.uleb128 0x19
 4622 01b5 49       		.uleb128 0x49
 4623 01b6 13       		.uleb128 0x13
 4624 01b7 11       		.uleb128 0x11
 4625 01b8 01       		.uleb128 0x1
 4626 01b9 12       		.uleb128 0x12
 4627 01ba 06       		.uleb128 0x6
 4628 01bb 40       		.uleb128 0x40
 4629 01bc 18       		.uleb128 0x18
 4630 01bd 9642     		.uleb128 0x2116
 4631 01bf 19       		.uleb128 0x19
 4632 01c0 01       		.uleb128 0x1
 4633 01c1 13       		.uleb128 0x13
 4634 01c2 00       		.byte	0
 4635 01c3 00       		.byte	0
 4636 01c4 24       		.uleb128 0x24
 4637 01c5 05       		.uleb128 0x5
 4638 01c6 00       		.byte	0
 4639 01c7 03       		.uleb128 0x3
 4640 01c8 08       		.uleb128 0x8
 4641 01c9 3A       		.uleb128 0x3a
 4642 01ca 0B       		.uleb128 0xb
 4643 01cb 3B       		.uleb128 0x3b
 4644 01cc 05       		.uleb128 0x5
 4645 01cd 49       		.uleb128 0x49
 4646 01ce 13       		.uleb128 0x13
 4647 01cf 02       		.uleb128 0x2
 4648 01d0 18       		.uleb128 0x18
 4649 01d1 00       		.byte	0
ARM GAS  C:\Users\PCHAUT~1\AppData\Local\Temp\cct0c6Vd.s 			page 86


 4650 01d2 00       		.byte	0
 4651 01d3 25       		.uleb128 0x25
 4652 01d4 05       		.uleb128 0x5
 4653 01d5 00       		.byte	0
 4654 01d6 03       		.uleb128 0x3
 4655 01d7 0E       		.uleb128 0xe
 4656 01d8 3A       		.uleb128 0x3a
 4657 01d9 0B       		.uleb128 0xb
 4658 01da 3B       		.uleb128 0x3b
 4659 01db 05       		.uleb128 0x5
 4660 01dc 49       		.uleb128 0x49
 4661 01dd 13       		.uleb128 0x13
 4662 01de 02       		.uleb128 0x2
 4663 01df 18       		.uleb128 0x18
 4664 01e0 00       		.byte	0
 4665 01e1 00       		.byte	0
 4666 01e2 26       		.uleb128 0x26
 4667 01e3 34       		.uleb128 0x34
 4668 01e4 00       		.byte	0
 4669 01e5 03       		.uleb128 0x3
 4670 01e6 0E       		.uleb128 0xe
 4671 01e7 3A       		.uleb128 0x3a
 4672 01e8 0B       		.uleb128 0xb
 4673 01e9 3B       		.uleb128 0x3b
 4674 01ea 05       		.uleb128 0x5
 4675 01eb 49       		.uleb128 0x49
 4676 01ec 13       		.uleb128 0x13
 4677 01ed 02       		.uleb128 0x2
 4678 01ee 18       		.uleb128 0x18
 4679 01ef 00       		.byte	0
 4680 01f0 00       		.byte	0
 4681 01f1 27       		.uleb128 0x27
 4682 01f2 2E       		.uleb128 0x2e
 4683 01f3 01       		.byte	0x1
 4684 01f4 3F       		.uleb128 0x3f
 4685 01f5 19       		.uleb128 0x19
 4686 01f6 03       		.uleb128 0x3
 4687 01f7 0E       		.uleb128 0xe
 4688 01f8 3A       		.uleb128 0x3a
 4689 01f9 0B       		.uleb128 0xb
 4690 01fa 3B       		.uleb128 0x3b
 4691 01fb 0B       		.uleb128 0xb
 4692 01fc 27       		.uleb128 0x27
 4693 01fd 19       		.uleb128 0x19
 4694 01fe 49       		.uleb128 0x49
 4695 01ff 13       		.uleb128 0x13
 4696 0200 11       		.uleb128 0x11
 4697 0201 01       		.uleb128 0x1
 4698 0202 12       		.uleb128 0x12
 4699 0203 06       		.uleb128 0x6
 4700 0204 40       		.uleb128 0x40
 4701 0205 18       		.uleb128 0x18
 4702 0206 9642     		.uleb128 0x2116
 4703 0208 19       		.uleb128 0x19
 4704 0209 01       		.uleb128 0x1
 4705 020a 13       		.uleb128 0x13
 4706 020b 00       		.byte	0
ARM GAS  C:\Users\PCHAUT~1\AppData\Local\Temp\cct0c6Vd.s 			page 87


 4707 020c 00       		.byte	0
 4708 020d 28       		.uleb128 0x28
 4709 020e 05       		.uleb128 0x5
 4710 020f 00       		.byte	0
 4711 0210 03       		.uleb128 0x3
 4712 0211 0E       		.uleb128 0xe
 4713 0212 3A       		.uleb128 0x3a
 4714 0213 0B       		.uleb128 0xb
 4715 0214 3B       		.uleb128 0x3b
 4716 0215 0B       		.uleb128 0xb
 4717 0216 49       		.uleb128 0x49
 4718 0217 13       		.uleb128 0x13
 4719 0218 02       		.uleb128 0x2
 4720 0219 18       		.uleb128 0x18
 4721 021a 00       		.byte	0
 4722 021b 00       		.byte	0
 4723 021c 29       		.uleb128 0x29
 4724 021d 34       		.uleb128 0x34
 4725 021e 00       		.byte	0
 4726 021f 03       		.uleb128 0x3
 4727 0220 0E       		.uleb128 0xe
 4728 0221 3A       		.uleb128 0x3a
 4729 0222 0B       		.uleb128 0xb
 4730 0223 3B       		.uleb128 0x3b
 4731 0224 0B       		.uleb128 0xb
 4732 0225 49       		.uleb128 0x49
 4733 0226 13       		.uleb128 0x13
 4734 0227 02       		.uleb128 0x2
 4735 0228 18       		.uleb128 0x18
 4736 0229 00       		.byte	0
 4737 022a 00       		.byte	0
 4738 022b 2A       		.uleb128 0x2a
 4739 022c 05       		.uleb128 0x5
 4740 022d 00       		.byte	0
 4741 022e 03       		.uleb128 0x3
 4742 022f 08       		.uleb128 0x8
 4743 0230 3A       		.uleb128 0x3a
 4744 0231 0B       		.uleb128 0xb
 4745 0232 3B       		.uleb128 0x3b
 4746 0233 0B       		.uleb128 0xb
 4747 0234 49       		.uleb128 0x49
 4748 0235 13       		.uleb128 0x13
 4749 0236 02       		.uleb128 0x2
 4750 0237 18       		.uleb128 0x18
 4751 0238 00       		.byte	0
 4752 0239 00       		.byte	0
 4753 023a 2B       		.uleb128 0x2b
 4754 023b 2E       		.uleb128 0x2e
 4755 023c 01       		.byte	0x1
 4756 023d 3F       		.uleb128 0x3f
 4757 023e 19       		.uleb128 0x19
 4758 023f 03       		.uleb128 0x3
 4759 0240 0E       		.uleb128 0xe
 4760 0241 3A       		.uleb128 0x3a
 4761 0242 0B       		.uleb128 0xb
 4762 0243 3B       		.uleb128 0x3b
 4763 0244 0B       		.uleb128 0xb
ARM GAS  C:\Users\PCHAUT~1\AppData\Local\Temp\cct0c6Vd.s 			page 88


 4764 0245 27       		.uleb128 0x27
 4765 0246 19       		.uleb128 0x19
 4766 0247 49       		.uleb128 0x49
 4767 0248 13       		.uleb128 0x13
 4768 0249 11       		.uleb128 0x11
 4769 024a 01       		.uleb128 0x1
 4770 024b 12       		.uleb128 0x12
 4771 024c 06       		.uleb128 0x6
 4772 024d 40       		.uleb128 0x40
 4773 024e 18       		.uleb128 0x18
 4774 024f 9642     		.uleb128 0x2116
 4775 0251 19       		.uleb128 0x19
 4776 0252 00       		.byte	0
 4777 0253 00       		.byte	0
 4778 0254 00       		.byte	0
 4779              		.section	.debug_aranges,"",%progbits
 4780 0000 54000000 		.4byte	0x54
 4781 0004 0200     		.2byte	0x2
 4782 0006 00000000 		.4byte	.Ldebug_info0
 4783 000a 04       		.byte	0x4
 4784 000b 00       		.byte	0
 4785 000c 0000     		.2byte	0
 4786 000e 0000     		.2byte	0
 4787 0010 00000000 		.4byte	.LFB3
 4788 0014 88000000 		.4byte	.LFE3-.LFB3
 4789 0018 00000000 		.4byte	.LFB4
 4790 001c 30010000 		.4byte	.LFE4-.LFB4
 4791 0020 00000000 		.4byte	.LFB5
 4792 0024 7C020000 		.4byte	.LFE5-.LFB5
 4793 0028 00000000 		.4byte	.LFB6
 4794 002c 10010000 		.4byte	.LFE6-.LFB6
 4795 0030 00000000 		.4byte	.LFB7
 4796 0034 20040000 		.4byte	.LFE7-.LFB7
 4797 0038 00000000 		.4byte	.LFB8
 4798 003c 2C010000 		.4byte	.LFE8-.LFB8
 4799 0040 00000000 		.4byte	.LFB9
 4800 0044 BC000000 		.4byte	.LFE9-.LFB9
 4801 0048 00000000 		.4byte	.LFB10
 4802 004c 30010000 		.4byte	.LFE10-.LFB10
 4803 0050 00000000 		.4byte	0
 4804 0054 00000000 		.4byte	0
 4805              		.section	.debug_ranges,"",%progbits
 4806              	.Ldebug_ranges0:
 4807 0000 00000000 		.4byte	.LFB3
 4808 0004 88000000 		.4byte	.LFE3
 4809 0008 00000000 		.4byte	.LFB4
 4810 000c 30010000 		.4byte	.LFE4
 4811 0010 00000000 		.4byte	.LFB5
 4812 0014 7C020000 		.4byte	.LFE5
 4813 0018 00000000 		.4byte	.LFB6
 4814 001c 10010000 		.4byte	.LFE6
 4815 0020 00000000 		.4byte	.LFB7
 4816 0024 20040000 		.4byte	.LFE7
 4817 0028 00000000 		.4byte	.LFB8
 4818 002c 2C010000 		.4byte	.LFE8
 4819 0030 00000000 		.4byte	.LFB9
 4820 0034 BC000000 		.4byte	.LFE9
ARM GAS  C:\Users\PCHAUT~1\AppData\Local\Temp\cct0c6Vd.s 			page 89


 4821 0038 00000000 		.4byte	.LFB10
 4822 003c 30010000 		.4byte	.LFE10
 4823 0040 00000000 		.4byte	0
 4824 0044 00000000 		.4byte	0
 4825              		.section	.debug_line,"",%progbits
 4826              	.Ldebug_line0:
 4827 0000 10050000 		.section	.debug_str,"MS",%progbits,1
 4827      0200C003 
 4827      00000201 
 4827      FB0E0D00 
 4827      01010101 
 4828              	.LASF87:
 4829 0000 52656665 		.ascii	"ReferenceSpadType\000"
 4829      72656E63 
 4829      65537061 
 4829      64547970 
 4829      6500
 4830              	.LASF56:
 4831 0012 5369676E 		.ascii	"SignalRateRtnMegaCps\000"
 4831      616C5261 
 4831      74655274 
 4831      6E4D6567 
 4831      61437073 
 4832              	.LASF130:
 4833 0027 5F6D6178 		.ascii	"_maxwds\000"
 4833      77647300 
 4834              	.LASF90:
 4835 002f 50617274 		.ascii	"PartUIDLower\000"
 4835      5549444C 
 4835      6F776572 
 4835      00
 4836              	.LASF159:
 4837 003c 5F636F6F 		.ascii	"_cookie\000"
 4837      6B696500 
 4838              	.LASF27:
 4839 0044 50726F64 		.ascii	"ProductRevisionMajor\000"
 4839      75637452 
 4839      65766973 
 4839      696F6E4D 
 4839      616A6F72 
 4840              	.LASF232:
 4841 0059 564C3533 		.ascii	"VL53L0X_DEV\000"
 4841      4C30585F 
 4841      44455600 
 4842              	.LASF144:
 4843 0065 5F6F6E5F 		.ascii	"_on_exit_args\000"
 4843      65786974 
 4843      5F617267 
 4843      7300
 4844              	.LASF36:
 4845 0073 48697374 		.ascii	"HistogramMode\000"
 4845      6F677261 
 4845      6D4D6F64 
 4845      6500
 4846              	.LASF211:
 4847 0081 5F776374 		.ascii	"_wctomb_state\000"
 4847      6F6D625F 
ARM GAS  C:\Users\PCHAUT~1\AppData\Local\Temp\cct0c6Vd.s 			page 90


 4847      73746174 
 4847      6500
 4848              	.LASF229:
 4849 008f 44657669 		.ascii	"DeviceInfo\000"
 4849      6365496E 
 4849      666F00
 4850              	.LASF39:
 4851 009a 5854616C 		.ascii	"XTalkCompensationEnable\000"
 4851      6B436F6D 
 4851      70656E73 
 4851      6174696F 
 4851      6E456E61 
 4852              	.LASF79:
 4853 00b2 50726552 		.ascii	"PreRangeVcselPulsePeriod\000"
 4853      616E6765 
 4853      56637365 
 4853      6C50756C 
 4853      73655065 
 4854              	.LASF208:
 4855 00cb 5F723438 		.ascii	"_r48\000"
 4855      00
 4856              	.LASF135:
 4857 00d0 5F5F746D 		.ascii	"__tm_sec\000"
 4857      5F736563 
 4857      00
 4858              	.LASF213:
 4859 00d9 5F736967 		.ascii	"_signal_buf\000"
 4859      6E616C5F 
 4859      62756600 
 4860              	.LASF13:
 4861 00e5 756E7369 		.ascii	"unsigned int\000"
 4861      676E6564 
 4861      20696E74 
 4861      00
 4862              	.LASF40:
 4863 00f2 5854616C 		.ascii	"XTalkCompensationRangeMilliMeter\000"
 4863      6B436F6D 
 4863      70656E73 
 4863      6174696F 
 4863      6E52616E 
 4864              	.LASF240:
 4865 0113 53746174 		.ascii	"Status\000"
 4865      757300
 4866              	.LASF34:
 4867 011a 564C3533 		.ascii	"VL53L0X_PowerModes\000"
 4867      4C30585F 
 4867      506F7765 
 4867      724D6F64 
 4867      657300
 4868              	.LASF25:
 4869 012d 50726F64 		.ascii	"ProductId\000"
 4869      75637449 
 4869      6400
 4870              	.LASF43:
 4871 0137 4C696D69 		.ascii	"LimitChecksEnable\000"
 4871      74436865 
 4871      636B7345 
ARM GAS  C:\Users\PCHAUT~1\AppData\Local\Temp\cct0c6Vd.s 			page 91


 4871      6E61626C 
 4871      6500
 4872              	.LASF156:
 4873 0149 5F666C61 		.ascii	"_flags\000"
 4873      677300
 4874              	.LASF68:
 4875 0150 4572726F 		.ascii	"ErrorStatus\000"
 4875      72537461 
 4875      74757300 
 4876              	.LASF57:
 4877 015c 416D6269 		.ascii	"AmbientRateRtnMegaCps\000"
 4877      656E7452 
 4877      61746552 
 4877      746E4D65 
 4877      67614370 
 4878              	.LASF7:
 4879 0172 5F5F696E 		.ascii	"__int32_t\000"
 4879      7433325F 
 4879      7400
 4880              	.LASF173:
 4881 017c 5F657272 		.ascii	"_errno\000"
 4881      6E6F00
 4882              	.LASF253:
 4883 0183 70564C35 		.ascii	"pVL53L0X_DeviceInfo\000"
 4883      334C3058 
 4883      5F446576 
 4883      69636549 
 4883      6E666F00 
 4884              	.LASF225:
 4885 0197 5F5F6C6F 		.ascii	"__locale_t\000"
 4885      63616C65 
 4885      5F7400
 4886              	.LASF170:
 4887 01a2 5F6D6273 		.ascii	"_mbstate\000"
 4887      74617465 
 4887      00
 4888              	.LASF160:
 4889 01ab 5F726561 		.ascii	"_read\000"
 4889      6400
 4890              	.LASF215:
 4891 01b1 5F6D6272 		.ascii	"_mbrlen_state\000"
 4891      6C656E5F 
 4891      73746174 
 4891      6500
 4892              	.LASF231:
 4893 01bf 564C3533 		.ascii	"VL53L0X_Dev_t\000"
 4893      4C30585F 
 4893      4465765F 
 4893      7400
 4894              	.LASF46:
 4895 01cd 57726170 		.ascii	"WrapAroundCheckEnable\000"
 4895      41726F75 
 4895      6E644368 
 4895      65636B45 
 4895      6E61626C 
 4896              	.LASF104:
 4897 01e3 506F7765 		.ascii	"PowerMode\000"
ARM GAS  C:\Users\PCHAUT~1\AppData\Local\Temp\cct0c6Vd.s 			page 92


 4897      724D6F64 
 4897      6500
 4898              	.LASF44:
 4899 01ed 4C696D69 		.ascii	"LimitChecksStatus\000"
 4899      74436865 
 4899      636B7353 
 4899      74617475 
 4899      7300
 4900              	.LASF55:
 4901 01ff 52616E67 		.ascii	"RangeDMaxMilliMeter\000"
 4901      65444D61 
 4901      784D696C 
 4901      6C694D65 
 4901      74657200 
 4902              	.LASF120:
 4903 0213 5F66706F 		.ascii	"_fpos_t\000"
 4903      735F7400 
 4904              	.LASF226:
 4905 021b 5F696D70 		.ascii	"_impure_ptr\000"
 4905      7572655F 
 4905      70747200 
 4906              	.LASF151:
 4907 0227 5F666E73 		.ascii	"_fns\000"
 4907      00
 4908              	.LASF85:
 4909 022c 52657669 		.ascii	"Revision\000"
 4909      73696F6E 
 4909      00
 4910              	.LASF259:
 4911 0235 433A5C55 		.ascii	"C:\\Users\\Pchautems\\Documents\\RobotiqueTP\\Proje"
 4911      73657273 
 4911      5C506368 
 4911      61757465 
 4911      6D735C44 
 4912 0263 745C6D69 		.ascii	"t\\miniprojet\000"
 4912      6E697072 
 4912      6F6A6574 
 4912      00
 4913              	.LASF30:
 4914 0270 564C3533 		.ascii	"VL53L0X_DeviceInfo_t\000"
 4914      4C30585F 
 4914      44657669 
 4914      6365496E 
 4914      666F5F74 
 4915              	.LASF94:
 4916 0285 50617274 		.ascii	"Part2PartOffsetNVMMicroMeter\000"
 4916      32506172 
 4916      744F6666 
 4916      7365744E 
 4916      564D4D69 
 4917              	.LASF248:
 4918 02a2 7052616E 		.ascii	"pRangeStatusString\000"
 4918      67655374 
 4918      61747573 
 4918      53747269 
 4918      6E6700
 4919              	.LASF133:
ARM GAS  C:\Users\PCHAUT~1\AppData\Local\Temp\cct0c6Vd.s 			page 93


 4920 02b5 5F426967 		.ascii	"_Bigint\000"
 4920      696E7400 
 4921              	.LASF141:
 4922 02bd 5F5F746D 		.ascii	"__tm_wday\000"
 4922      5F776461 
 4922      7900
 4923              	.LASF183:
 4924 02c7 5F726573 		.ascii	"_result\000"
 4924      756C7400 
 4925              	.LASF20:
 4926 02cf 46697850 		.ascii	"FixPoint1616_t\000"
 4926      6F696E74 
 4926      31363136 
 4926      5F7400
 4927              	.LASF92:
 4928 02de 564C3533 		.ascii	"VL53L0X_DeviceSpecificParameters_t\000"
 4928      4C30585F 
 4928      44657669 
 4928      63655370 
 4928      65636966 
 4929              	.LASF18:
 4930 0301 75696E74 		.ascii	"uint32_t\000"
 4930      33325F74 
 4930      00
 4931              	.LASF14:
 4932 030a 696E7438 		.ascii	"int8_t\000"
 4932      5F7400
 4933              	.LASF137:
 4934 0311 5F5F746D 		.ascii	"__tm_hour\000"
 4934      5F686F75 
 4934      7200
 4935              	.LASF124:
 4936 031b 5F5F636F 		.ascii	"__count\000"
 4936      756E7400 
 4937              	.LASF64:
 4938 0323 48697374 		.ascii	"HistogramType\000"
 4938      6F677261 
 4938      6D547970 
 4938      6500
 4939              	.LASF136:
 4940 0331 5F5F746D 		.ascii	"__tm_min\000"
 4940      5F6D696E 
 4940      00
 4941              	.LASF47:
 4942 033a 564C3533 		.ascii	"VL53L0X_DeviceParameters_t\000"
 4942      4C30585F 
 4942      44657669 
 4942      63655061 
 4942      72616D65 
 4943              	.LASF221:
 4944 0355 5F6E6578 		.ascii	"_nextf\000"
 4944      746600
 4945              	.LASF21:
 4946 035c 564C3533 		.ascii	"VL53L0X_DeviceError\000"
 4946      4C30585F 
 4946      44657669 
 4946      63654572 
ARM GAS  C:\Users\PCHAUT~1\AppData\Local\Temp\cct0c6Vd.s 			page 94


 4946      726F7200 
 4947              	.LASF106:
 4948 0370 74617267 		.ascii	"targetRefRate\000"
 4948      65745265 
 4948      66526174 
 4948      6500
 4949              	.LASF239:
 4950 037e 70536571 		.ascii	"pSequenceStepsString\000"
 4950      75656E63 
 4950      65537465 
 4950      70735374 
 4950      72696E67 
 4951              	.LASF198:
 4952 0393 5F72616E 		.ascii	"_rand48\000"
 4952      64343800 
 4953              	.LASF28:
 4954 039b 50726F64 		.ascii	"ProductRevisionMinor\000"
 4954      75637452 
 4954      65766973 
 4954      696F6E4D 
 4954      696E6F72 
 4955              	.LASF184:
 4956 03b0 5F726573 		.ascii	"_result_k\000"
 4956      756C745F 
 4956      6B00
 4957              	.LASF95:
 4958 03ba 50617274 		.ascii	"Part2PartOffsetAdjustmentNVMMicroMeter\000"
 4958      32506172 
 4958      744F6666 
 4958      73657441 
 4958      646A7573 
 4959              	.LASF12:
 4960 03e1 6C6F6E67 		.ascii	"long long unsigned int\000"
 4960      206C6F6E 
 4960      6720756E 
 4960      7369676E 
 4960      65642069 
 4961              	.LASF49:
 4962 03f8 416D6254 		.ascii	"AmbTuningWindowFactor_K\000"
 4962      756E696E 
 4962      6757696E 
 4962      646F7746 
 4962      6163746F 
 4963              	.LASF204:
 4964 0410 5F617363 		.ascii	"_asctime_buf\000"
 4964      74696D65 
 4964      5F627566 
 4964      00
 4965              	.LASF155:
 4966 041d 5F5F7346 		.ascii	"__sFILE\000"
 4966      494C4500 
 4967              	.LASF132:
 4968 0425 5F776473 		.ascii	"_wds\000"
 4968      00
 4969              	.LASF234:
 4970 042a 4C696D69 		.ascii	"LimitCheckId\000"
 4970      74436865 
ARM GAS  C:\Users\PCHAUT~1\AppData\Local\Temp\cct0c6Vd.s 			page 95


 4970      636B4964 
 4970      00
 4971              	.LASF73:
 4972 0437 4F736346 		.ascii	"OscFrequencyMHz\000"
 4972      72657175 
 4972      656E6379 
 4972      4D487A00 
 4973              	.LASF5:
 4974 0447 5F5F7569 		.ascii	"__uint16_t\000"
 4974      6E743136 
 4974      5F7400
 4975              	.LASF238:
 4976 0452 53657175 		.ascii	"SequenceStepId\000"
 4976      656E6365 
 4976      53746570 
 4976      496400
 4977              	.LASF194:
 4978 0461 5F5F4649 		.ascii	"__FILE\000"
 4978      4C4500
 4979              	.LASF237:
 4980 0468 564C3533 		.ascii	"VL53L0X_get_sequence_steps_info\000"
 4980      4C30585F 
 4980      6765745F 
 4980      73657175 
 4980      656E6365 
 4981              	.LASF167:
 4982 0488 5F6F6666 		.ascii	"_offset\000"
 4982      73657400 
 4983              	.LASF70:
 4984 0490 52656653 		.ascii	"RefSpadEnables\000"
 4984      70616445 
 4984      6E61626C 
 4984      657300
 4985              	.LASF23:
 4986 049f 4E616D65 		.ascii	"Name\000"
 4986      00
 4987              	.LASF111:
 4988 04a4 55736549 		.ascii	"UseInternalTuningSettings\000"
 4988      6E746572 
 4988      6E616C54 
 4988      756E696E 
 4988      67536574 
 4989              	.LASF252:
 4990 04be 564C3533 		.ascii	"VL53L0X_get_device_info\000"
 4990      4C30585F 
 4990      6765745F 
 4990      64657669 
 4990      63655F69 
 4991              	.LASF178:
 4992 04d6 5F656D65 		.ascii	"_emergency\000"
 4992      7267656E 
 4992      637900
 4993              	.LASF260:
 4994 04e1 564C3533 		.ascii	"VL53L0X_check_part_used\000"
 4994      4C30585F 
 4994      63686563 
 4994      6B5F7061 
ARM GAS  C:\Users\PCHAUT~1\AppData\Local\Temp\cct0c6Vd.s 			page 96


 4994      72745F75 
 4995              	.LASF112:
 4996 04f9 4C696E65 		.ascii	"LinearityCorrectiveGain\000"
 4996      61726974 
 4996      79436F72 
 4996      72656374 
 4996      69766547 
 4997              	.LASF58:
 4998 0511 45666665 		.ascii	"EffectiveSpadRtnCount\000"
 4998      63746976 
 4998      65537061 
 4998      6452746E 
 4998      436F756E 
 4999              	.LASF100:
 5000 0527 53706164 		.ascii	"SpadData\000"
 5000      44617461 
 5000      00
 5001              	.LASF38:
 5002 0530 496E7465 		.ascii	"InterMeasurementPeriodMilliSeconds\000"
 5002      724D6561 
 5002      73757265 
 5002      6D656E74 
 5002      50657269 
 5003              	.LASF86:
 5004 0553 52656665 		.ascii	"ReferenceSpadCount\000"
 5004      72656E63 
 5004      65537061 
 5004      64436F75 
 5004      6E7400
 5005              	.LASF233:
 5006 0566 7375626F 		.ascii	"suboptarg\000"
 5006      70746172 
 5006      6700
 5007              	.LASF142:
 5008 0570 5F5F746D 		.ascii	"__tm_yday\000"
 5008      5F796461 
 5008      7900
 5009              	.LASF177:
 5010 057a 5F696E63 		.ascii	"_inc\000"
 5010      00
 5011              	.LASF150:
 5012 057f 5F696E64 		.ascii	"_ind\000"
 5012      00
 5013              	.LASF84:
 5014 0584 4D6F6475 		.ascii	"ModuleId\000"
 5014      6C654964 
 5014      00
 5015              	.LASF63:
 5016 058d 48697374 		.ascii	"HistogramData\000"
 5016      6F677261 
 5016      6D446174 
 5016      6100
 5017              	.LASF45:
 5018 059b 4C696D69 		.ascii	"LimitChecksValue\000"
 5018      74436865 
 5018      636B7356 
 5018      616C7565 
ARM GAS  C:\Users\PCHAUT~1\AppData\Local\Temp\cct0c6Vd.s 			page 97


 5018      00
 5019              	.LASF129:
 5020 05ac 5F6E6578 		.ascii	"_next\000"
 5020      7400
 5021              	.LASF217:
 5022 05b2 5F6D6273 		.ascii	"_mbsrtowcs_state\000"
 5022      72746F77 
 5022      63735F73 
 5022      74617465 
 5022      00
 5023              	.LASF258:
 5024 05c3 2E2E2F6C 		.ascii	"../lib/e-puck2_main-processor/src/sensors/VL53L0X/A"
 5024      69622F65 
 5024      2D707563 
 5024      6B325F6D 
 5024      61696E2D 
 5025 05f6 70692F63 		.ascii	"pi/core/src/vl53l0x_api_strings.c\000"
 5025      6F72652F 
 5025      7372632F 
 5025      766C3533 
 5025      6C30785F 
 5026              	.LASF42:
 5027 0618 52616E67 		.ascii	"RangeOffsetMicroMeters\000"
 5027      654F6666 
 5027      7365744D 
 5027      6963726F 
 5027      4D657465 
 5028              	.LASF113:
 5029 062f 446D6178 		.ascii	"DmaxCalRangeMilliMeter\000"
 5029      43616C52 
 5029      616E6765 
 5029      4D696C6C 
 5029      694D6574 
 5030              	.LASF125:
 5031 0646 5F5F7661 		.ascii	"__value\000"
 5031      6C756500 
 5032              	.LASF81:
 5033 064e 5369676D 		.ascii	"SigmaEstEffPulseWidth\000"
 5033      61457374 
 5033      45666650 
 5033      756C7365 
 5033      57696474 
 5034              	.LASF185:
 5035 0664 5F703573 		.ascii	"_p5s\000"
 5035      00
 5036              	.LASF105:
 5037 0669 53746F70 		.ascii	"StopVariable\000"
 5037      56617269 
 5037      61626C65 
 5037      00
 5038              	.LASF93:
 5039 0676 444D6178 		.ascii	"DMaxData\000"
 5039      44617461 
 5039      00
 5040              	.LASF53:
 5041 067f 4D656173 		.ascii	"MeasurementTimeUsec\000"
 5041      7572656D 
ARM GAS  C:\Users\PCHAUT~1\AppData\Local\Temp\cct0c6Vd.s 			page 98


 5041      656E7454 
 5041      696D6555 
 5041      73656300 
 5042              	.LASF209:
 5043 0693 5F6D626C 		.ascii	"_mblen_state\000"
 5043      656E5F73 
 5043      74617465 
 5043      00
 5044              	.LASF29:
 5045 06a0 63686172 		.ascii	"char\000"
 5045      00
 5046              	.LASF138:
 5047 06a5 5F5F746D 		.ascii	"__tm_mday\000"
 5047      5F6D6461 
 5047      7900
 5048              	.LASF191:
 5049 06af 5F736967 		.ascii	"_sig_func\000"
 5049      5F66756E 
 5049      6300
 5050              	.LASF216:
 5051 06b9 5F6D6272 		.ascii	"_mbrtowc_state\000"
 5051      746F7763 
 5051      5F737461 
 5051      746500
 5052              	.LASF190:
 5053 06c8 5F617465 		.ascii	"_atexit0\000"
 5053      78697430 
 5053      00
 5054              	.LASF83:
 5055 06d1 52656164 		.ascii	"ReadDataFromDeviceDone\000"
 5055      44617461 
 5055      46726F6D 
 5055      44657669 
 5055      6365446F 
 5056              	.LASF37:
 5057 06e8 4D656173 		.ascii	"MeasurementTimingBudgetMicroSeconds\000"
 5057      7572656D 
 5057      656E7454 
 5057      696D696E 
 5057      67427564 
 5058              	.LASF97:
 5059 070c 4C617374 		.ascii	"LastRangeMeasure\000"
 5059      52616E67 
 5059      654D6561 
 5059      73757265 
 5059      00
 5060              	.LASF66:
 5061 071d 42756666 		.ascii	"BufferSize\000"
 5061      65725369 
 5061      7A6500
 5062              	.LASF127:
 5063 0728 5F666C6F 		.ascii	"_flock_t\000"
 5063      636B5F74 
 5063      00
 5064              	.LASF256:
 5065 0731 50726F64 		.ascii	"ProductId_tmp\000"
 5065      75637449 
ARM GAS  C:\Users\PCHAUT~1\AppData\Local\Temp\cct0c6Vd.s 			page 99


 5065      645F746D 
 5065      7000
 5066              	.LASF72:
 5067 073f 564C3533 		.ascii	"VL53L0X_SpadData_t\000"
 5067      4C30585F 
 5067      53706164 
 5067      44617461 
 5067      5F7400
 5068              	.LASF122:
 5069 0752 5F5F7763 		.ascii	"__wch\000"
 5069      6800
 5070              	.LASF197:
 5071 0758 5F696F62 		.ascii	"_iobs\000"
 5071      7300
 5072              	.LASF15:
 5073 075e 75696E74 		.ascii	"uint8_t\000"
 5073      385F7400 
 5074              	.LASF22:
 5075 0766 564C3533 		.ascii	"VL53L0X_GpioFunctionality\000"
 5075      4C30585F 
 5075      4770696F 
 5075      46756E63 
 5075      74696F6E 
 5076              	.LASF235:
 5077 0780 704C696D 		.ascii	"pLimitCheckString\000"
 5077      69744368 
 5077      65636B53 
 5077      7472696E 
 5077      6700
 5078              	.LASF163:
 5079 0792 5F636C6F 		.ascii	"_close\000"
 5079      736500
 5080              	.LASF181:
 5081 0799 5F5F7364 		.ascii	"__sdidinit\000"
 5081      6964696E 
 5081      697400
 5082              	.LASF24:
 5083 07a4 54797065 		.ascii	"Type\000"
 5083      00
 5084              	.LASF33:
 5085 07a9 564C3533 		.ascii	"VL53L0X_HistogramModes\000"
 5085      4C30585F 
 5085      48697374 
 5085      6F677261 
 5085      6D4D6F64 
 5086              	.LASF174:
 5087 07c0 5F737464 		.ascii	"_stdin\000"
 5087      696E00
 5088              	.LASF206:
 5089 07c7 5F67616D 		.ascii	"_gamma_signgam\000"
 5089      6D615F73 
 5089      69676E67 
 5089      616D00
 5090              	.LASF61:
 5091 07d6 52616E67 		.ascii	"RangeStatus\000"
 5091      65537461 
 5091      74757300 
ARM GAS  C:\Users\PCHAUT~1\AppData\Local\Temp\cct0c6Vd.s 			page 100


 5092              	.LASF65:
 5093 07e2 46697273 		.ascii	"FirstBin\000"
 5093      7442696E 
 5093      00
 5094              	.LASF11:
 5095 07eb 6C6F6E67 		.ascii	"long long int\000"
 5095      206C6F6E 
 5095      6720696E 
 5095      7400
 5096              	.LASF241:
 5097 07f9 564C3533 		.ascii	"VL53L0X_get_pal_state_string\000"
 5097      4C30585F 
 5097      6765745F 
 5097      70616C5F 
 5097      73746174 
 5098              	.LASF32:
 5099 0816 564C3533 		.ascii	"VL53L0X_DeviceModes\000"
 5099      4C30585F 
 5099      44657669 
 5099      63654D6F 
 5099      64657300 
 5100              	.LASF153:
 5101 082a 5F626173 		.ascii	"_base\000"
 5101      6500
 5102              	.LASF186:
 5103 0830 5F667265 		.ascii	"_freelist\000"
 5103      656C6973 
 5103      7400
 5104              	.LASF200:
 5105 083a 5F6D756C 		.ascii	"_mult\000"
 5105      7400
 5106              	.LASF128:
 5107 0840 5F5F554C 		.ascii	"__ULong\000"
 5107      6F6E6700 
 5108              	.LASF88:
 5109 0848 52656653 		.ascii	"RefSpadsInitialised\000"
 5109      70616473 
 5109      496E6974 
 5109      69616C69 
 5109      73656400 
 5110              	.LASF218:
 5111 085c 5F776372 		.ascii	"_wcrtomb_state\000"
 5111      746F6D62 
 5111      5F737461 
 5111      746500
 5112              	.LASF157:
 5113 086b 5F66696C 		.ascii	"_file\000"
 5113      6500
 5114              	.LASF242:
 5115 0871 50616C53 		.ascii	"PalStateCode\000"
 5115      74617465 
 5115      436F6465 
 5115      00
 5116              	.LASF182:
 5117 087e 5F5F636C 		.ascii	"__cleanup\000"
 5117      65616E75 
 5117      7000
ARM GAS  C:\Users\PCHAUT~1\AppData\Local\Temp\cct0c6Vd.s 			page 101


 5118              	.LASF126:
 5119 0888 5F6D6273 		.ascii	"_mbstate_t\000"
 5119      74617465 
 5119      5F7400
 5120              	.LASF50:
 5121 0893 52657453 		.ascii	"RetSignalAt0mm\000"
 5121      69676E61 
 5121      6C417430 
 5121      6D6D00
 5122              	.LASF143:
 5123 08a2 5F5F746D 		.ascii	"__tm_isdst\000"
 5123      5F697364 
 5123      737400
 5124              	.LASF219:
 5125 08ad 5F776373 		.ascii	"_wcsrtombs_state\000"
 5125      72746F6D 
 5125      62735F73 
 5125      74617465 
 5125      00
 5126              	.LASF220:
 5127 08be 5F685F65 		.ascii	"_h_errno\000"
 5127      72726E6F 
 5127      00
 5128              	.LASF250:
 5129 08c7 4572726F 		.ascii	"ErrorCode\000"
 5129      72436F64 
 5129      6500
 5130              	.LASF48:
 5131 08d1 564C3533 		.ascii	"VL53L0X_State\000"
 5131      4C30585F 
 5131      53746174 
 5131      6500
 5132              	.LASF51:
 5133 08df 564C3533 		.ascii	"VL53L0X_DMaxData_t\000"
 5133      4C30585F 
 5133      444D6178 
 5133      44617461 
 5133      5F7400
 5134              	.LASF0:
 5135 08f2 5F5F696E 		.ascii	"__int8_t\000"
 5135      74385F74 
 5135      00
 5136              	.LASF139:
 5137 08fb 5F5F746D 		.ascii	"__tm_mon\000"
 5137      5F6D6F6E 
 5137      00
 5138              	.LASF35:
 5139 0904 44657669 		.ascii	"DeviceMode\000"
 5139      63654D6F 
 5139      646500
 5140              	.LASF41:
 5141 090f 5854616C 		.ascii	"XTalkCompensationRateMegaCps\000"
 5141      6B436F6D 
 5141      70656E73 
 5141      6174696F 
 5141      6E526174 
 5142              	.LASF117:
ARM GAS  C:\Users\PCHAUT~1\AppData\Local\Temp\cct0c6Vd.s 			page 102


 5143 092c 564C3533 		.ascii	"VL53L0X_SequenceStepId\000"
 5143      4C30585F 
 5143      53657175 
 5143      656E6365 
 5143      53746570 
 5144              	.LASF19:
 5145 0943 6C6F6E67 		.ascii	"long double\000"
 5145      20646F75 
 5145      626C6500 
 5146              	.LASF118:
 5147 094f 5F4C4F43 		.ascii	"_LOCK_T\000"
 5147      4B5F5400 
 5148              	.LASF16:
 5149 0957 75696E74 		.ascii	"uint16_t\000"
 5149      31365F74 
 5149      00
 5150              	.LASF62:
 5151 0960 564C3533 		.ascii	"VL53L0X_RangingMeasurementData_t\000"
 5151      4C30585F 
 5151      52616E67 
 5151      696E674D 
 5151      65617375 
 5152              	.LASF161:
 5153 0981 5F777269 		.ascii	"_write\000"
 5153      746500
 5154              	.LASF245:
 5155 0988 50616C45 		.ascii	"PalErrorCode\000"
 5155      72726F72 
 5155      436F6465 
 5155      00
 5156              	.LASF101:
 5157 0995 53657175 		.ascii	"SequenceConfig\000"
 5157      656E6365 
 5157      436F6E66 
 5157      696700
 5158              	.LASF149:
 5159 09a4 5F617465 		.ascii	"_atexit\000"
 5159      78697400 
 5160              	.LASF172:
 5161 09ac 5F726565 		.ascii	"_reent\000"
 5161      6E7400
 5162              	.LASF247:
 5163 09b3 564C3533 		.ascii	"VL53L0X_get_range_status_string\000"
 5163      4C30585F 
 5163      6765745F 
 5163      72616E67 
 5163      655F7374 
 5164              	.LASF4:
 5165 09d3 73686F72 		.ascii	"short int\000"
 5165      7420696E 
 5165      7400
 5166              	.LASF8:
 5167 09dd 6C6F6E67 		.ascii	"long int\000"
 5167      20696E74 
 5167      00
 5168              	.LASF89:
 5169 09e6 50617274 		.ascii	"PartUIDUpper\000"
ARM GAS  C:\Users\PCHAUT~1\AppData\Local\Temp\cct0c6Vd.s 			page 103


 5169      55494455 
 5169      70706572 
 5169      00
 5170              	.LASF108:
 5171 09f3 5369676E 		.ascii	"SignalEstimate\000"
 5171      616C4573 
 5171      74696D61 
 5171      746500
 5172              	.LASF230:
 5173 0a02 49326344 		.ascii	"I2cDevAddr\000"
 5173      65764164 
 5173      647200
 5174              	.LASF193:
 5175 0a0d 5F5F7366 		.ascii	"__sf\000"
 5175      00
 5176              	.LASF131:
 5177 0a12 5F736967 		.ascii	"_sign\000"
 5177      6E00
 5178              	.LASF249:
 5179 0a18 564C3533 		.ascii	"VL53L0X_get_device_error_string\000"
 5179      4C30585F 
 5179      6765745F 
 5179      64657669 
 5179      63655F65 
 5180              	.LASF168:
 5181 0a38 5F646174 		.ascii	"_data\000"
 5181      6100
 5182              	.LASF109:
 5183 0a3e 4C617374 		.ascii	"LastSignalRefMcps\000"
 5183      5369676E 
 5183      616C5265 
 5183      664D6370 
 5183      7300
 5184              	.LASF123:
 5185 0a50 5F5F7763 		.ascii	"__wchb\000"
 5185      686200
 5186              	.LASF227:
 5187 0a57 5F676C6F 		.ascii	"_global_impure_ptr\000"
 5187      62616C5F 
 5187      696D7075 
 5187      72655F70 
 5187      747200
 5188              	.LASF76:
 5189 0a6a 46696E61 		.ascii	"FinalRangeTimeoutMicroSecs\000"
 5189      6C52616E 
 5189      67655469 
 5189      6D656F75 
 5189      744D6963 
 5190              	.LASF140:
 5191 0a85 5F5F746D 		.ascii	"__tm_year\000"
 5191      5F796561 
 5191      7200
 5192              	.LASF59:
 5193 0a8f 5A6F6E65 		.ascii	"ZoneId\000"
 5193      496400
 5194              	.LASF244:
 5195 0a96 564C3533 		.ascii	"VL53L0X_get_pal_error_string\000"
ARM GAS  C:\Users\PCHAUT~1\AppData\Local\Temp\cct0c6Vd.s 			page 104


 5195      4C30585F 
 5195      6765745F 
 5195      70616C5F 
 5195      6572726F 
 5196              	.LASF254:
 5197 0ab3 72657669 		.ascii	"revision_id\000"
 5197      73696F6E 
 5197      5F696400 
 5198              	.LASF205:
 5199 0abf 5F6C6F63 		.ascii	"_localtime_buf\000"
 5199      616C7469 
 5199      6D655F62 
 5199      756600
 5200              	.LASF223:
 5201 0ace 5F756E75 		.ascii	"_unused\000"
 5201      73656400 
 5202              	.LASF1:
 5203 0ad6 5F5F7569 		.ascii	"__uint8_t\000"
 5203      6E74385F 
 5203      7400
 5204              	.LASF189:
 5205 0ae0 5F6E6577 		.ascii	"_new\000"
 5205      00
 5206              	.LASF187:
 5207 0ae5 5F637674 		.ascii	"_cvtlen\000"
 5207      6C656E00 
 5208              	.LASF71:
 5209 0aed 52656647 		.ascii	"RefGoodSpadMap\000"
 5209      6F6F6453 
 5209      7061644D 
 5209      617000
 5210              	.LASF212:
 5211 0afc 5F6C3634 		.ascii	"_l64a_buf\000"
 5211      615F6275 
 5211      6600
 5212              	.LASF31:
 5213 0b06 564C3533 		.ascii	"VL53L0X_Error\000"
 5213      4C30585F 
 5213      4572726F 
 5213      7200
 5214              	.LASF166:
 5215 0b14 5F626C6B 		.ascii	"_blksize\000"
 5215      73697A65 
 5215      00
 5216              	.LASF134:
 5217 0b1d 5F5F746D 		.ascii	"__tm\000"
 5217      00
 5218              	.LASF169:
 5219 0b22 5F6C6F63 		.ascii	"_lock\000"
 5219      6B00
 5220              	.LASF96:
 5221 0b28 43757272 		.ascii	"CurrentParameters\000"
 5221      656E7450 
 5221      6172616D 
 5221      65746572 
 5221      7300
 5222              	.LASF10:
ARM GAS  C:\Users\PCHAUT~1\AppData\Local\Temp\cct0c6Vd.s 			page 105


 5223 0b3a 6C6F6E67 		.ascii	"long unsigned int\000"
 5223      20756E73 
 5223      69676E65 
 5223      6420696E 
 5223      7400
 5224              	.LASF257:
 5225 0b4c 474E5520 		.ascii	"GNU C11 7.2.1 20170904 (release) [ARM/embedded-7-br"
 5225      43313120 
 5225      372E322E 
 5225      31203230 
 5225      31373039 
 5226 0b7f 616E6368 		.ascii	"anch revision 255204] -mcpu=cortex-m4 -mfloat-abi=h"
 5226      20726576 
 5226      6973696F 
 5226      6E203235 
 5226      35323034 
 5227 0bb2 61726420 		.ascii	"ard -mfpu=fpv4-sp-d16 -mno-thumb-interwork -mthumb "
 5227      2D6D6670 
 5227      753D6670 
 5227      76342D73 
 5227      702D6431 
 5228 0be5 2D676764 		.ascii	"-ggdb -O0 -fomit-frame-pointer -falign-functions=16"
 5228      62202D4F 
 5228      30202D66 
 5228      6F6D6974 
 5228      2D667261 
 5229 0c18 202D666E 		.ascii	" -fno-strict-aliasing -fstack-protector-all -ffunct"
 5229      6F2D7374 
 5229      72696374 
 5229      2D616C69 
 5229      6173696E 
 5230 0c4b 696F6E2D 		.ascii	"ion-sections -fdata-sections -fno-common -fsingle-p"
 5230      73656374 
 5230      696F6E73 
 5230      202D6664 
 5230      6174612D 
 5231 0c7e 72656369 		.ascii	"recision-constant\000"
 5231      73696F6E 
 5231      2D636F6E 
 5231      7374616E 
 5231      7400
 5232              	.LASF99:
 5233 0c90 44657669 		.ascii	"DeviceSpecificParameters\000"
 5233      63655370 
 5233      65636966 
 5233      69635061 
 5233      72616D65 
 5234              	.LASF196:
 5235 0ca9 5F6E696F 		.ascii	"_niobs\000"
 5235      627300
 5236              	.LASF121:
 5237 0cb0 77696E74 		.ascii	"wint_t\000"
 5237      5F7400
 5238              	.LASF110:
 5239 0cb7 7054756E 		.ascii	"pTuningSettingsPointer\000"
 5239      696E6753 
 5239      65747469 
ARM GAS  C:\Users\PCHAUT~1\AppData\Local\Temp\cct0c6Vd.s 			page 106


 5239      6E677350 
 5239      6F696E74 
 5240              	.LASF17:
 5241 0cce 696E7433 		.ascii	"int32_t\000"
 5241      325F7400 
 5242              	.LASF146:
 5243 0cd6 5F64736F 		.ascii	"_dso_handle\000"
 5243      5F68616E 
 5243      646C6500 
 5244              	.LASF224:
 5245 0ce2 5F5F6C6F 		.ascii	"__lock\000"
 5245      636B00
 5246              	.LASF82:
 5247 0ce9 5369676D 		.ascii	"SigmaEstEffAmbWidth\000"
 5247      61457374 
 5247      45666641 
 5247      6D625769 
 5247      64746800 
 5248              	.LASF175:
 5249 0cfd 5F737464 		.ascii	"_stdout\000"
 5249      6F757400 
 5250              	.LASF188:
 5251 0d05 5F637674 		.ascii	"_cvtbuf\000"
 5251      62756600 
 5252              	.LASF3:
 5253 0d0d 756E7369 		.ascii	"unsigned char\000"
 5253      676E6564 
 5253      20636861 
 5253      7200
 5254              	.LASF67:
 5255 0d1b 4E756D62 		.ascii	"NumberOfBins\000"
 5255      65724F66 
 5255      42696E73 
 5255      00
 5256              	.LASF78:
 5257 0d28 50726552 		.ascii	"PreRangeTimeoutMicroSecs\000"
 5257      616E6765 
 5257      54696D65 
 5257      6F75744D 
 5257      6963726F 
 5258              	.LASF9:
 5259 0d41 5F5F7569 		.ascii	"__uint32_t\000"
 5259      6E743332 
 5259      5F7400
 5260              	.LASF114:
 5261 0d4c 446D6178 		.ascii	"DmaxCalSignalRateRtnMegaCps\000"
 5261      43616C53 
 5261      69676E61 
 5261      6C526174 
 5261      6552746E 
 5262              	.LASF251:
 5263 0d68 70446576 		.ascii	"pDeviceErrorString\000"
 5263      69636545 
 5263      72726F72 
 5263      53747269 
 5263      6E6700
 5264              	.LASF77:
ARM GAS  C:\Users\PCHAUT~1\AppData\Local\Temp\cct0c6Vd.s 			page 107


 5265 0d7b 46696E61 		.ascii	"FinalRangeVcselPulsePeriod\000"
 5265      6C52616E 
 5265      67655663 
 5265      73656C50 
 5265      756C7365 
 5266              	.LASF214:
 5267 0d96 5F676574 		.ascii	"_getdate_err\000"
 5267      64617465 
 5267      5F657272 
 5267      00
 5268              	.LASF158:
 5269 0da3 5F6C6266 		.ascii	"_lbfsize\000"
 5269      73697A65 
 5269      00
 5270              	.LASF115:
 5271 0dac 564C3533 		.ascii	"VL53L0X_DevData_t\000"
 5271      4C30585F 
 5271      44657644 
 5271      6174615F 
 5271      7400
 5272              	.LASF147:
 5273 0dbe 5F666E74 		.ascii	"_fntypes\000"
 5273      79706573 
 5273      00
 5274              	.LASF201:
 5275 0dc7 5F616464 		.ascii	"_add\000"
 5275      00
 5276              	.LASF26:
 5277 0dcc 50726F64 		.ascii	"ProductType\000"
 5277      75637454 
 5277      79706500 
 5278              	.LASF243:
 5279 0dd8 7050616C 		.ascii	"pPalStateString\000"
 5279      53746174 
 5279      65537472 
 5279      696E6700 
 5280              	.LASF152:
 5281 0de8 5F5F7362 		.ascii	"__sbuf\000"
 5281      756600
 5282              	.LASF75:
 5283 0def 50696E30 		.ascii	"Pin0GpioFunctionality\000"
 5283      4770696F 
 5283      46756E63 
 5283      74696F6E 
 5283      616C6974 
 5284              	.LASF195:
 5285 0e05 5F676C75 		.ascii	"_glue\000"
 5285      6500
 5286              	.LASF255:
 5287 0e0b 4D6F6475 		.ascii	"ModuleIdInt\000"
 5287      6C654964 
 5287      496E7400 
 5288              	.LASF246:
 5289 0e17 7050616C 		.ascii	"pPalErrorString\000"
 5289      4572726F 
 5289      72537472 
 5289      696E6700 
ARM GAS  C:\Users\PCHAUT~1\AppData\Local\Temp\cct0c6Vd.s 			page 108


 5290              	.LASF192:
 5291 0e27 5F5F7367 		.ascii	"__sglue\000"
 5291      6C756500 
 5292              	.LASF203:
 5293 0e2f 5F737472 		.ascii	"_strtok_last\000"
 5293      746F6B5F 
 5293      6C617374 
 5293      00
 5294              	.LASF210:
 5295 0e3c 5F6D6274 		.ascii	"_mbtowc_state\000"
 5295      6F77635F 
 5295      73746174 
 5295      6500
 5296              	.LASF180:
 5297 0e4a 5F6C6F63 		.ascii	"_locale\000"
 5297      616C6500 
 5298              	.LASF116:
 5299 0e52 564C3533 		.ascii	"VL53L0X_VcselPeriod\000"
 5299      4C30585F 
 5299      56637365 
 5299      6C506572 
 5299      696F6400 
 5300              	.LASF145:
 5301 0e66 5F666E61 		.ascii	"_fnargs\000"
 5301      72677300 
 5302              	.LASF2:
 5303 0e6e 7369676E 		.ascii	"signed char\000"
 5303      65642063 
 5303      68617200 
 5304              	.LASF98:
 5305 0e7a 4C617374 		.ascii	"LastHistogramMeasure\000"
 5305      48697374 
 5305      6F677261 
 5305      6D4D6561 
 5305      73757265 
 5306              	.LASF6:
 5307 0e8f 73686F72 		.ascii	"short unsigned int\000"
 5307      7420756E 
 5307      7369676E 
 5307      65642069 
 5307      6E7400
 5308              	.LASF102:
 5309 0ea2 52616E67 		.ascii	"RangeFractionalEnable\000"
 5309      65467261 
 5309      6374696F 
 5309      6E616C45 
 5309      6E61626C 
 5310              	.LASF54:
 5311 0eb8 52616E67 		.ascii	"RangeMilliMeter\000"
 5311      654D696C 
 5311      6C694D65 
 5311      74657200 
 5312              	.LASF107:
 5313 0ec8 5369676D 		.ascii	"SigmaEstimate\000"
 5313      61457374 
 5313      696D6174 
 5313      6500
ARM GAS  C:\Users\PCHAUT~1\AppData\Local\Temp\cct0c6Vd.s 			page 109


 5314              	.LASF80:
 5315 0ed6 5369676D 		.ascii	"SigmaEstRefArray\000"
 5315      61457374 
 5315      52656641 
 5315      72726179 
 5315      00
 5316              	.LASF154:
 5317 0ee7 5F73697A 		.ascii	"_size\000"
 5317      6500
 5318              	.LASF60:
 5319 0eed 52616E67 		.ascii	"RangeFractionalPart\000"
 5319      65467261 
 5319      6374696F 
 5319      6E616C50 
 5319      61727400 
 5320              	.LASF119:
 5321 0f01 5F6F6666 		.ascii	"_off_t\000"
 5321      5F7400
 5322              	.LASF74:
 5323 0f08 4C617374 		.ascii	"LastEncodedTimeout\000"
 5323      456E636F 
 5323      64656454 
 5323      696D656F 
 5323      757400
 5324              	.LASF165:
 5325 0f1b 5F6E6275 		.ascii	"_nbuf\000"
 5325      6600
 5326              	.LASF202:
 5327 0f21 5F756E75 		.ascii	"_unused_rand\000"
 5327      7365645F 
 5327      72616E64 
 5327      00
 5328              	.LASF179:
 5329 0f2e 5F756E73 		.ascii	"_unspecified_locale_info\000"
 5329      70656369 
 5329      66696564 
 5329      5F6C6F63 
 5329      616C655F 
 5330              	.LASF171:
 5331 0f47 5F666C61 		.ascii	"_flags2\000"
 5331      67733200 
 5332              	.LASF148:
 5333 0f4f 5F69735F 		.ascii	"_is_cxa\000"
 5333      63786100 
 5334              	.LASF103:
 5335 0f57 50616C53 		.ascii	"PalState\000"
 5335      74617465 
 5335      00
 5336              	.LASF52:
 5337 0f60 54696D65 		.ascii	"TimeStamp\000"
 5337      5374616D 
 5337      7000
 5338              	.LASF236:
 5339 0f6a 564C3533 		.ascii	"VL53L0X_get_limit_check_info\000"
 5339      4C30585F 
 5339      6765745F 
 5339      6C696D69 
ARM GAS  C:\Users\PCHAUT~1\AppData\Local\Temp\cct0c6Vd.s 			page 110


 5339      745F6368 
 5340              	.LASF199:
 5341 0f87 5F736565 		.ascii	"_seed\000"
 5341      6400
 5342              	.LASF207:
 5343 0f8d 5F72616E 		.ascii	"_rand_next\000"
 5343      645F6E65 
 5343      787400
 5344              	.LASF69:
 5345 0f98 564C3533 		.ascii	"VL53L0X_HistogramMeasurementData_t\000"
 5345      4C30585F 
 5345      48697374 
 5345      6F677261 
 5345      6D4D6561 
 5346              	.LASF228:
 5347 0fbb 44617461 		.ascii	"Data\000"
 5347      00
 5348              	.LASF162:
 5349 0fc0 5F736565 		.ascii	"_seek\000"
 5349      6B00
 5350              	.LASF176:
 5351 0fc6 5F737464 		.ascii	"_stderr\000"
 5351      65727200 
 5352              	.LASF222:
 5353 0fce 5F6E6D61 		.ascii	"_nmalloc\000"
 5353      6C6C6F63 
 5353      00
 5354              	.LASF164:
 5355 0fd7 5F756275 		.ascii	"_ubuf\000"
 5355      6600
 5356              	.LASF91:
 5357 0fdd 5369676E 		.ascii	"SignalRateMeasFixed400mm\000"
 5357      616C5261 
 5357      74654D65 
 5357      61734669 
 5357      78656434 
 5358              		.ident	"GCC: (GNU Tools for Arm Embedded Processors 7-2017-q4-major) 7.2.1 20170904 (release) [ARM
ARM GAS  C:\Users\PCHAUT~1\AppData\Local\Temp\cct0c6Vd.s 			page 111


DEFINED SYMBOLS
                            *ABS*:00000000 vl53l0x_api_strings.c
C:\Users\PCHAUT~1\AppData\Local\Temp\cct0c6Vd.s:18     .text.VL53L0X_check_part_used:00000000 $t
C:\Users\PCHAUT~1\AppData\Local\Temp\cct0c6Vd.s:26     .text.VL53L0X_check_part_used:00000000 VL53L0X_check_part_used
C:\Users\PCHAUT~1\AppData\Local\Temp\cct0c6Vd.s:111    .text.VL53L0X_check_part_used:00000084 $d
C:\Users\PCHAUT~1\AppData\Local\Temp\cct0c6Vd.s:116    .rodata:00000000 $d
C:\Users\PCHAUT~1\AppData\Local\Temp\cct0c6Vd.s:132    .text.VL53L0X_get_device_info:00000000 $t
C:\Users\PCHAUT~1\AppData\Local\Temp\cct0c6Vd.s:140    .text.VL53L0X_get_device_info:00000000 VL53L0X_get_device_info
C:\Users\PCHAUT~1\AppData\Local\Temp\cct0c6Vd.s:304    .text.VL53L0X_get_device_info:00000118 $d
C:\Users\PCHAUT~1\AppData\Local\Temp\cct0c6Vd.s:363    .text.VL53L0X_get_device_error_string:00000000 $t
C:\Users\PCHAUT~1\AppData\Local\Temp\cct0c6Vd.s:371    .text.VL53L0X_get_device_error_string:00000000 VL53L0X_get_device_error_string
C:\Users\PCHAUT~1\AppData\Local\Temp\cct0c6Vd.s:402    .text.VL53L0X_get_device_error_string:00000028 $d
C:\Users\PCHAUT~1\AppData\Local\Temp\cct0c6Vd.s:417    .text.VL53L0X_get_device_error_string:00000064 $t
C:\Users\PCHAUT~1\AppData\Local\Temp\cct0c6Vd.s:705    .text.VL53L0X_get_device_error_string:00000238 $d
C:\Users\PCHAUT~1\AppData\Local\Temp\cct0c6Vd.s:745    .text.VL53L0X_get_range_status_string:00000000 $t
C:\Users\PCHAUT~1\AppData\Local\Temp\cct0c6Vd.s:753    .text.VL53L0X_get_range_status_string:00000000 VL53L0X_get_range_status_string
C:\Users\PCHAUT~1\AppData\Local\Temp\cct0c6Vd.s:783    .text.VL53L0X_get_range_status_string:00000028 $d
C:\Users\PCHAUT~1\AppData\Local\Temp\cct0c6Vd.s:789    .text.VL53L0X_get_range_status_string:00000040 $t
C:\Users\PCHAUT~1\AppData\Local\Temp\cct0c6Vd.s:904    .text.VL53L0X_get_range_status_string:000000f0 $d
C:\Users\PCHAUT~1\AppData\Local\Temp\cct0c6Vd.s:971    .text.VL53L0X_get_pal_error_string:00000000 $t
C:\Users\PCHAUT~1\AppData\Local\Temp\cct0c6Vd.s:979    .text.VL53L0X_get_pal_error_string:00000000 VL53L0X_get_pal_error_string
C:\Users\PCHAUT~1\AppData\Local\Temp\cct0c6Vd.s:1011   .text.VL53L0X_get_pal_error_string:0000002c $d
C:\Users\PCHAUT~1\AppData\Local\Temp\cct0c6Vd.s:1111   .text.VL53L0X_get_pal_error_string:000001bc $t
C:\Users\PCHAUT~1\AppData\Local\Temp\cct0c6Vd.s:1371   .text.VL53L0X_get_pal_error_string:0000035c $d
C:\Users\PCHAUT~1\AppData\Local\Temp\cct0c6Vd.s:1390   .text.VL53L0X_get_pal_error_string:000003a0 $t
C:\Users\PCHAUT~1\AppData\Local\Temp\cct0c6Vd.s:1458   .text.VL53L0X_get_pal_error_string:00000410 $d
C:\Users\PCHAUT~1\AppData\Local\Temp\cct0c6Vd.s:1488   .text.VL53L0X_get_pal_state_string:00000000 $t
C:\Users\PCHAUT~1\AppData\Local\Temp\cct0c6Vd.s:1496   .text.VL53L0X_get_pal_state_string:00000000 VL53L0X_get_pal_state_string
C:\Users\PCHAUT~1\AppData\Local\Temp\cct0c6Vd.s:1671   .text.VL53L0X_get_pal_state_string:0000010c $d
C:\Users\PCHAUT~1\AppData\Local\Temp\cct0c6Vd.s:1699   .text.VL53L0X_get_sequence_steps_info:00000000 $t
C:\Users\PCHAUT~1\AppData\Local\Temp\cct0c6Vd.s:1707   .text.VL53L0X_get_sequence_steps_info:00000000 VL53L0X_get_sequence_steps_info
C:\Users\PCHAUT~1\AppData\Local\Temp\cct0c6Vd.s:1737   .text.VL53L0X_get_sequence_steps_info:00000028 $d
C:\Users\PCHAUT~1\AppData\Local\Temp\cct0c6Vd.s:1742   .text.VL53L0X_get_sequence_steps_info:0000003c $t
C:\Users\PCHAUT~1\AppData\Local\Temp\cct0c6Vd.s:1817   .text.VL53L0X_get_sequence_steps_info:000000a4 $d
C:\Users\PCHAUT~1\AppData\Local\Temp\cct0c6Vd.s:1846   .text.VL53L0X_get_limit_check_info:00000000 $t
C:\Users\PCHAUT~1\AppData\Local\Temp\cct0c6Vd.s:1854   .text.VL53L0X_get_limit_check_info:00000000 VL53L0X_get_limit_check_info
C:\Users\PCHAUT~1\AppData\Local\Temp\cct0c6Vd.s:1886   .text.VL53L0X_get_limit_check_info:00000028 $d
C:\Users\PCHAUT~1\AppData\Local\Temp\cct0c6Vd.s:1892   .text.VL53L0X_get_limit_check_info:00000040 $t
C:\Users\PCHAUT~1\AppData\Local\Temp\cct0c6Vd.s:2024   .text.VL53L0X_get_limit_check_info:00000110 $d

UNDEFINED SYMBOLS
VL53L0X_get_info_from_device
strcpy
__stack_chk_fail
__stack_chk_guard
VL53L0X_RdByte
