ARM GAS  C:\Users\PCHAUT~1\AppData\Local\Temp\ccZ6OxUy.s 			page 1


   1              		.cpu cortex-m4
   2              		.eabi_attribute 27, 1
   3              		.eabi_attribute 28, 1
   4              		.eabi_attribute 20, 1
   5              		.eabi_attribute 21, 1
   6              		.eabi_attribute 23, 3
   7              		.eabi_attribute 24, 1
   8              		.eabi_attribute 25, 1
   9              		.eabi_attribute 26, 1
  10              		.eabi_attribute 30, 6
  11              		.eabi_attribute 34, 1
  12              		.eabi_attribute 18, 4
  13              		.file	"vl53l0x_i2c_platform.c"
  14              		.text
  15              	.Ltext0:
  16              		.cfi_sections	.debug_frame
  17              		.section	.text.VL53L0X_write_multi,"ax",%progbits
  18              		.align	1
  19              		.p2align 4,,15
  20              		.global	VL53L0X_write_multi
  21              		.syntax unified
  22              		.thumb
  23              		.thumb_func
  24              		.fpu fpv4-sp-d16
  25              		.type	VL53L0X_write_multi, %function
  26              	VL53L0X_write_multi:
  27              	.LFB256:
  28              		.file 1 "../lib/e-puck2_main-processor/src/sensors/VL53L0X/Api/platform/src/vl53l0x_i2c_platform.c
  29              		.loc 1 8 0
  30              		.cfi_startproc
  31              		@ args = 0, pretend = 0, frame = 72
  32              		@ frame_needed = 0, uses_anonymous_args = 0
  33 0000 00B5     		push	{lr}
  34              		.cfi_def_cfa_offset 4
  35              		.cfi_offset 14, -4
  36 0002 97B0     		sub	sp, sp, #92
  37              		.cfi_def_cfa_offset 96
  38 0004 0692     		str	r2, [sp, #24]
  39 0006 0593     		str	r3, [sp, #20]
  40 0008 0346     		mov	r3, r0
  41 000a 8DF81F30 		strb	r3, [sp, #31]
  42 000e 0B46     		mov	r3, r1
  43 0010 8DF81E30 		strb	r3, [sp, #30]
  44              		.loc 1 8 0
  45 0014 2B4B     		ldr	r3, .L9
  46 0016 1B68     		ldr	r3, [r3]
  47 0018 1593     		str	r3, [sp, #84]
  48              		.loc 1 10 0
  49 001a 3223     		movs	r3, #50
  50 001c 0A93     		str	r3, [sp, #40]
  51              		.loc 1 11 0
  52 001e 0023     		movs	r3, #0
  53 0020 0B93     		str	r3, [sp, #44]
  54              		.loc 1 15 0
  55 0022 059B     		ldr	r3, [sp, #20]
  56 0024 DBB2     		uxtb	r3, r3
  57 0026 0133     		adds	r3, r3, #1
ARM GAS  C:\Users\PCHAUT~1\AppData\Local\Temp\ccZ6OxUy.s 			page 2


  58 0028 8DF82730 		strb	r3, [sp, #39]
  59              		.loc 1 17 0
  60 002c 9DF81E30 		ldrb	r3, [sp, #30]
  61 0030 8DF83430 		strb	r3, [sp, #52]
  62              		.loc 1 19 0
  63 0034 0CE0     		b	.L2
  64              	.L3:
  65              		.loc 1 20 0
  66 0036 059B     		ldr	r3, [sp, #20]
  67 0038 013B     		subs	r3, r3, #1
  68 003a 069A     		ldr	r2, [sp, #24]
  69 003c 1344     		add	r3, r3, r2
  70 003e 1978     		ldrb	r1, [r3]	@ zero_extendqisi2
  71 0040 0DAA     		add	r2, sp, #52
  72 0042 059B     		ldr	r3, [sp, #20]
  73 0044 1344     		add	r3, r3, r2
  74 0046 0A46     		mov	r2, r1
  75 0048 1A70     		strb	r2, [r3]
  76              		.loc 1 21 0
  77 004a 059B     		ldr	r3, [sp, #20]
  78 004c 013B     		subs	r3, r3, #1
  79 004e 0593     		str	r3, [sp, #20]
  80              	.L2:
  81              		.loc 1 19 0
  82 0050 059B     		ldr	r3, [sp, #20]
  83 0052 002B     		cmp	r3, #0
  84 0054 EFD1     		bne	.L3
  85              		.loc 1 23 0
  86 0056 1C48     		ldr	r0, .L9+4
  87 0058 FFF7FEFF 		bl	i2cAcquireBus
  88              		.loc 1 24 0
  89 005c 9DF81F30 		ldrb	r3, [sp, #31]	@ zero_extendqisi2
  90 0060 5B08     		lsrs	r3, r3, #1
  91 0062 DBB2     		uxtb	r3, r3
  92 0064 99B2     		uxth	r1, r3
  93 0066 9DF82700 		ldrb	r0, [sp, #39]	@ zero_extendqisi2
  94 006a 0DAA     		add	r2, sp, #52
  95 006c 0A9B     		ldr	r3, [sp, #40]
  96 006e 0293     		str	r3, [sp, #8]
  97 0070 0023     		movs	r3, #0
  98 0072 0193     		str	r3, [sp, #4]
  99 0074 0CAB     		add	r3, sp, #48
 100 0076 0093     		str	r3, [sp]
 101 0078 0346     		mov	r3, r0
 102 007a 1348     		ldr	r0, .L9+4
 103 007c FFF7FEFF 		bl	i2cMasterTransmitTimeout
 104 0080 0B90     		str	r0, [sp, #44]
 105              		.loc 1 26 0
 106 0082 0B9B     		ldr	r3, [sp, #44]
 107 0084 002B     		cmp	r3, #0
 108 0086 0DD0     		beq	.L4
 109              		.loc 1 27 0
 110 0088 0F4B     		ldr	r3, .L9+4
 111 008a 1B78     		ldrb	r3, [r3]	@ zero_extendqisi2
 112 008c 052B     		cmp	r3, #5
 113 008e 03D1     		bne	.L5
 114              		.loc 1 28 0
ARM GAS  C:\Users\PCHAUT~1\AppData\Local\Temp\ccZ6OxUy.s 			page 3


 115 0090 FFF7FEFF 		bl	i2c_stop
 116              		.loc 1 29 0
 117 0094 FFF7FEFF 		bl	i2c_start
 118              	.L5:
 119              		.loc 1 31 0
 120 0098 0B48     		ldr	r0, .L9+4
 121 009a FFF7FEFF 		bl	i2cReleaseBus
 122              		.loc 1 32 0
 123 009e 6FF01303 		mvn	r3, #19
 124 00a2 03E0     		b	.L7
 125              	.L4:
 126              		.loc 1 34 0
 127 00a4 0848     		ldr	r0, .L9+4
 128 00a6 FFF7FEFF 		bl	i2cReleaseBus
 129              		.loc 1 35 0
 130 00aa 0023     		movs	r3, #0
 131              	.L7:
 132              		.loc 1 36 0 discriminator 1
 133 00ac 1846     		mov	r0, r3
 134 00ae 054B     		ldr	r3, .L9
 135 00b0 159A     		ldr	r2, [sp, #84]
 136 00b2 1B68     		ldr	r3, [r3]
 137 00b4 9A42     		cmp	r2, r3
 138 00b6 01D0     		beq	.L8
 139              		.loc 1 36 0 is_stmt 0
 140 00b8 FFF7FEFF 		bl	__stack_chk_fail
 141              	.L8:
 142 00bc 17B0     		add	sp, sp, #92
 143              		.cfi_def_cfa_offset 4
 144              		@ sp needed
 145 00be 5DF804FB 		ldr	pc, [sp], #4
 146              	.L10:
 147 00c2 00BF     		.align	2
 148              	.L9:
 149 00c4 00000000 		.word	__stack_chk_guard
 150 00c8 00000000 		.word	I2CD1
 151              		.cfi_endproc
 152              	.LFE256:
 153              		.size	VL53L0X_write_multi, .-VL53L0X_write_multi
 154              		.section	.text.VL53L0X_read_multi,"ax",%progbits
 155              		.align	1
 156              		.p2align 4,,15
 157              		.global	VL53L0X_read_multi
 158              		.syntax unified
 159              		.thumb
 160              		.thumb_func
 161              		.fpu fpv4-sp-d16
 162              		.type	VL53L0X_read_multi, %function
 163              	VL53L0X_read_multi:
 164              	.LFB257:
 165              		.loc 1 38 0 is_stmt 1
 166              		.cfi_startproc
 167              		@ args = 0, pretend = 0, frame = 32
 168              		@ frame_needed = 0, uses_anonymous_args = 0
 169 0000 00B5     		push	{lr}
 170              		.cfi_def_cfa_offset 4
 171              		.cfi_offset 14, -4
ARM GAS  C:\Users\PCHAUT~1\AppData\Local\Temp\ccZ6OxUy.s 			page 4


 172 0002 8DB0     		sub	sp, sp, #52
 173              		.cfi_def_cfa_offset 56
 174 0004 0692     		str	r2, [sp, #24]
 175 0006 0593     		str	r3, [sp, #20]
 176 0008 0346     		mov	r3, r0
 177 000a 8DF81F30 		strb	r3, [sp, #31]
 178 000e 0B46     		mov	r3, r1
 179 0010 8DF81E30 		strb	r3, [sp, #30]
 180              		.loc 1 38 0
 181 0014 1F4B     		ldr	r3, .L17
 182 0016 1B68     		ldr	r3, [r3]
 183 0018 0B93     		str	r3, [sp, #44]
 184              		.loc 1 40 0
 185 001a 3223     		movs	r3, #50
 186 001c 0893     		str	r3, [sp, #32]
 187              		.loc 1 41 0
 188 001e 0023     		movs	r3, #0
 189 0020 0993     		str	r3, [sp, #36]
 190              		.loc 1 43 0
 191 0022 9DF81E30 		ldrb	r3, [sp, #30]
 192 0026 8DF82830 		strb	r3, [sp, #40]
 193              		.loc 1 45 0
 194 002a 1B48     		ldr	r0, .L17+4
 195 002c FFF7FEFF 		bl	i2cAcquireBus
 196              		.loc 1 46 0
 197 0030 9DF81F30 		ldrb	r3, [sp, #31]	@ zero_extendqisi2
 198 0034 5B08     		lsrs	r3, r3, #1
 199 0036 DBB2     		uxtb	r3, r3
 200 0038 99B2     		uxth	r1, r3
 201 003a 0AAA     		add	r2, sp, #40
 202 003c 089B     		ldr	r3, [sp, #32]
 203 003e 0293     		str	r3, [sp, #8]
 204 0040 059B     		ldr	r3, [sp, #20]
 205 0042 0193     		str	r3, [sp, #4]
 206 0044 069B     		ldr	r3, [sp, #24]
 207 0046 0093     		str	r3, [sp]
 208 0048 0123     		movs	r3, #1
 209 004a 1348     		ldr	r0, .L17+4
 210 004c FFF7FEFF 		bl	i2cMasterTransmitTimeout
 211 0050 0990     		str	r0, [sp, #36]
 212              		.loc 1 48 0
 213 0052 099B     		ldr	r3, [sp, #36]
 214 0054 002B     		cmp	r3, #0
 215 0056 0DD0     		beq	.L12
 216              		.loc 1 49 0
 217 0058 0F4B     		ldr	r3, .L17+4
 218 005a 1B78     		ldrb	r3, [r3]	@ zero_extendqisi2
 219 005c 052B     		cmp	r3, #5
 220 005e 03D1     		bne	.L13
 221              		.loc 1 50 0
 222 0060 FFF7FEFF 		bl	i2c_stop
 223              		.loc 1 51 0
 224 0064 FFF7FEFF 		bl	i2c_start
 225              	.L13:
 226              		.loc 1 53 0
 227 0068 0B48     		ldr	r0, .L17+4
 228 006a FFF7FEFF 		bl	i2cReleaseBus
ARM GAS  C:\Users\PCHAUT~1\AppData\Local\Temp\ccZ6OxUy.s 			page 5


 229              		.loc 1 54 0
 230 006e 6FF01303 		mvn	r3, #19
 231 0072 03E0     		b	.L15
 232              	.L12:
 233              		.loc 1 56 0
 234 0074 0848     		ldr	r0, .L17+4
 235 0076 FFF7FEFF 		bl	i2cReleaseBus
 236              		.loc 1 57 0
 237 007a 0023     		movs	r3, #0
 238              	.L15:
 239              		.loc 1 58 0 discriminator 1
 240 007c 1846     		mov	r0, r3
 241 007e 054B     		ldr	r3, .L17
 242 0080 0B9A     		ldr	r2, [sp, #44]
 243 0082 1B68     		ldr	r3, [r3]
 244 0084 9A42     		cmp	r2, r3
 245 0086 01D0     		beq	.L16
 246              		.loc 1 58 0 is_stmt 0
 247 0088 FFF7FEFF 		bl	__stack_chk_fail
 248              	.L16:
 249 008c 0DB0     		add	sp, sp, #52
 250              		.cfi_def_cfa_offset 4
 251              		@ sp needed
 252 008e 5DF804FB 		ldr	pc, [sp], #4
 253              	.L18:
 254 0092 00BF     		.align	2
 255              	.L17:
 256 0094 00000000 		.word	__stack_chk_guard
 257 0098 00000000 		.word	I2CD1
 258              		.cfi_endproc
 259              	.LFE257:
 260              		.size	VL53L0X_read_multi, .-VL53L0X_read_multi
 261              		.section	.text.VL53L0X_write_byte,"ax",%progbits
 262              		.align	1
 263              		.p2align 4,,15
 264              		.global	VL53L0X_write_byte
 265              		.syntax unified
 266              		.thumb
 267              		.thumb_func
 268              		.fpu fpv4-sp-d16
 269              		.type	VL53L0X_write_byte, %function
 270              	VL53L0X_write_byte:
 271              	.LFB258:
 272              		.loc 1 60 0 is_stmt 1
 273              		.cfi_startproc
 274              		@ args = 0, pretend = 0, frame = 16
 275              		@ frame_needed = 0, uses_anonymous_args = 0
 276 0000 00B5     		push	{lr}
 277              		.cfi_def_cfa_offset 4
 278              		.cfi_offset 14, -4
 279 0002 85B0     		sub	sp, sp, #20
 280              		.cfi_def_cfa_offset 24
 281 0004 0346     		mov	r3, r0
 282 0006 8DF80730 		strb	r3, [sp, #7]
 283 000a 0B46     		mov	r3, r1
 284 000c 8DF80630 		strb	r3, [sp, #6]
 285 0010 1346     		mov	r3, r2
ARM GAS  C:\Users\PCHAUT~1\AppData\Local\Temp\ccZ6OxUy.s 			page 6


 286 0012 8DF80530 		strb	r3, [sp, #5]
 287              		.loc 1 60 0
 288 0016 0C4B     		ldr	r3, .L22
 289 0018 1B68     		ldr	r3, [r3]
 290 001a 0393     		str	r3, [sp, #12]
 291              		.loc 1 61 0
 292 001c 0DF10502 		add	r2, sp, #5
 293 0020 9DF80610 		ldrb	r1, [sp, #6]	@ zero_extendqisi2
 294 0024 9DF80700 		ldrb	r0, [sp, #7]	@ zero_extendqisi2
 295 0028 0123     		movs	r3, #1
 296 002a FFF7FEFF 		bl	VL53L0X_write_multi
 297 002e 0346     		mov	r3, r0
 298              		.loc 1 62 0
 299 0030 1846     		mov	r0, r3
 300 0032 054B     		ldr	r3, .L22
 301 0034 039A     		ldr	r2, [sp, #12]
 302 0036 1B68     		ldr	r3, [r3]
 303 0038 9A42     		cmp	r2, r3
 304 003a 01D0     		beq	.L21
 305 003c FFF7FEFF 		bl	__stack_chk_fail
 306              	.L21:
 307 0040 05B0     		add	sp, sp, #20
 308              		.cfi_def_cfa_offset 4
 309              		@ sp needed
 310 0042 5DF804FB 		ldr	pc, [sp], #4
 311              	.L23:
 312 0046 00BF     		.align	2
 313              	.L22:
 314 0048 00000000 		.word	__stack_chk_guard
 315              		.cfi_endproc
 316              	.LFE258:
 317              		.size	VL53L0X_write_byte, .-VL53L0X_write_byte
 318              		.section	.text.VL53L0X_write_word,"ax",%progbits
 319              		.align	1
 320              		.p2align 4,,15
 321              		.global	VL53L0X_write_word
 322              		.syntax unified
 323              		.thumb
 324              		.thumb_func
 325              		.fpu fpv4-sp-d16
 326              		.type	VL53L0X_write_word, %function
 327              	VL53L0X_write_word:
 328              	.LFB259:
 329              		.loc 1 64 0
 330              		.cfi_startproc
 331              		@ args = 0, pretend = 0, frame = 16
 332              		@ frame_needed = 0, uses_anonymous_args = 0
 333 0000 00B5     		push	{lr}
 334              		.cfi_def_cfa_offset 4
 335              		.cfi_offset 14, -4
 336 0002 85B0     		sub	sp, sp, #20
 337              		.cfi_def_cfa_offset 24
 338 0004 0346     		mov	r3, r0
 339 0006 8DF80730 		strb	r3, [sp, #7]
 340 000a 0B46     		mov	r3, r1
 341 000c 8DF80630 		strb	r3, [sp, #6]
 342 0010 1346     		mov	r3, r2	@ movhi
ARM GAS  C:\Users\PCHAUT~1\AppData\Local\Temp\ccZ6OxUy.s 			page 7


 343 0012 ADF80430 		strh	r3, [sp, #4]	@ movhi
 344              		.loc 1 64 0
 345 0016 114B     		ldr	r3, .L27
 346 0018 1B68     		ldr	r3, [r3]
 347 001a 0393     		str	r3, [sp, #12]
 348              		.loc 1 66 0
 349 001c BDF80430 		ldrh	r3, [sp, #4]	@ movhi
 350 0020 DBB2     		uxtb	r3, r3
 351 0022 8DF80930 		strb	r3, [sp, #9]
 352              		.loc 1 67 0
 353 0026 BDF80430 		ldrh	r3, [sp, #4]
 354 002a 1B0A     		lsrs	r3, r3, #8
 355 002c 9BB2     		uxth	r3, r3
 356 002e DBB2     		uxtb	r3, r3
 357 0030 8DF80830 		strb	r3, [sp, #8]
 358              		.loc 1 68 0
 359 0034 02AA     		add	r2, sp, #8
 360 0036 9DF80610 		ldrb	r1, [sp, #6]	@ zero_extendqisi2
 361 003a 9DF80700 		ldrb	r0, [sp, #7]	@ zero_extendqisi2
 362 003e 0223     		movs	r3, #2
 363 0040 FFF7FEFF 		bl	VL53L0X_write_multi
 364 0044 0346     		mov	r3, r0
 365              		.loc 1 69 0
 366 0046 1846     		mov	r0, r3
 367 0048 044B     		ldr	r3, .L27
 368 004a 039A     		ldr	r2, [sp, #12]
 369 004c 1B68     		ldr	r3, [r3]
 370 004e 9A42     		cmp	r2, r3
 371 0050 01D0     		beq	.L26
 372 0052 FFF7FEFF 		bl	__stack_chk_fail
 373              	.L26:
 374 0056 05B0     		add	sp, sp, #20
 375              		.cfi_def_cfa_offset 4
 376              		@ sp needed
 377 0058 5DF804FB 		ldr	pc, [sp], #4
 378              	.L28:
 379              		.align	2
 380              	.L27:
 381 005c 00000000 		.word	__stack_chk_guard
 382              		.cfi_endproc
 383              	.LFE259:
 384              		.size	VL53L0X_write_word, .-VL53L0X_write_word
 385              		.section	.text.VL53L0X_write_dword,"ax",%progbits
 386              		.align	1
 387              		.p2align 4,,15
 388              		.global	VL53L0X_write_dword
 389              		.syntax unified
 390              		.thumb
 391              		.thumb_func
 392              		.fpu fpv4-sp-d16
 393              		.type	VL53L0X_write_dword, %function
 394              	VL53L0X_write_dword:
 395              	.LFB260:
 396              		.loc 1 71 0
 397              		.cfi_startproc
 398              		@ args = 0, pretend = 0, frame = 16
 399              		@ frame_needed = 0, uses_anonymous_args = 0
ARM GAS  C:\Users\PCHAUT~1\AppData\Local\Temp\ccZ6OxUy.s 			page 8


 400 0000 00B5     		push	{lr}
 401              		.cfi_def_cfa_offset 4
 402              		.cfi_offset 14, -4
 403 0002 85B0     		sub	sp, sp, #20
 404              		.cfi_def_cfa_offset 24
 405 0004 0346     		mov	r3, r0
 406 0006 0092     		str	r2, [sp]
 407 0008 8DF80730 		strb	r3, [sp, #7]
 408 000c 0B46     		mov	r3, r1
 409 000e 8DF80630 		strb	r3, [sp, #6]
 410              		.loc 1 71 0
 411 0012 154B     		ldr	r3, .L32
 412 0014 1B68     		ldr	r3, [r3]
 413 0016 0393     		str	r3, [sp, #12]
 414              		.loc 1 74 0
 415 0018 009B     		ldr	r3, [sp]
 416 001a DBB2     		uxtb	r3, r3
 417 001c 8DF80B30 		strb	r3, [sp, #11]
 418              		.loc 1 75 0
 419 0020 009B     		ldr	r3, [sp]
 420 0022 1B0A     		lsrs	r3, r3, #8
 421 0024 DBB2     		uxtb	r3, r3
 422 0026 8DF80A30 		strb	r3, [sp, #10]
 423              		.loc 1 76 0
 424 002a 009B     		ldr	r3, [sp]
 425 002c 1B0C     		lsrs	r3, r3, #16
 426 002e DBB2     		uxtb	r3, r3
 427 0030 8DF80930 		strb	r3, [sp, #9]
 428              		.loc 1 77 0
 429 0034 009B     		ldr	r3, [sp]
 430 0036 1B0E     		lsrs	r3, r3, #24
 431 0038 DBB2     		uxtb	r3, r3
 432 003a 8DF80830 		strb	r3, [sp, #8]
 433              		.loc 1 79 0
 434 003e 02AA     		add	r2, sp, #8
 435 0040 9DF80610 		ldrb	r1, [sp, #6]	@ zero_extendqisi2
 436 0044 9DF80700 		ldrb	r0, [sp, #7]	@ zero_extendqisi2
 437 0048 0423     		movs	r3, #4
 438 004a FFF7FEFF 		bl	VL53L0X_write_multi
 439 004e 0346     		mov	r3, r0
 440              		.loc 1 80 0
 441 0050 1846     		mov	r0, r3
 442 0052 054B     		ldr	r3, .L32
 443 0054 039A     		ldr	r2, [sp, #12]
 444 0056 1B68     		ldr	r3, [r3]
 445 0058 9A42     		cmp	r2, r3
 446 005a 01D0     		beq	.L31
 447 005c FFF7FEFF 		bl	__stack_chk_fail
 448              	.L31:
 449 0060 05B0     		add	sp, sp, #20
 450              		.cfi_def_cfa_offset 4
 451              		@ sp needed
 452 0062 5DF804FB 		ldr	pc, [sp], #4
 453              	.L33:
 454 0066 00BF     		.align	2
 455              	.L32:
 456 0068 00000000 		.word	__stack_chk_guard
ARM GAS  C:\Users\PCHAUT~1\AppData\Local\Temp\ccZ6OxUy.s 			page 9


 457              		.cfi_endproc
 458              	.LFE260:
 459              		.size	VL53L0X_write_dword, .-VL53L0X_write_dword
 460              		.section	.text.VL53L0X_read_byte,"ax",%progbits
 461              		.align	1
 462              		.p2align 4,,15
 463              		.global	VL53L0X_read_byte
 464              		.syntax unified
 465              		.thumb
 466              		.thumb_func
 467              		.fpu fpv4-sp-d16
 468              		.type	VL53L0X_read_byte, %function
 469              	VL53L0X_read_byte:
 470              	.LFB261:
 471              		.loc 1 82 0
 472              		.cfi_startproc
 473              		@ args = 0, pretend = 0, frame = 16
 474              		@ frame_needed = 0, uses_anonymous_args = 0
 475 0000 00B5     		push	{lr}
 476              		.cfi_def_cfa_offset 4
 477              		.cfi_offset 14, -4
 478 0002 85B0     		sub	sp, sp, #20
 479              		.cfi_def_cfa_offset 24
 480 0004 0346     		mov	r3, r0
 481 0006 0092     		str	r2, [sp]
 482 0008 8DF80730 		strb	r3, [sp, #7]
 483 000c 0B46     		mov	r3, r1
 484 000e 8DF80630 		strb	r3, [sp, #6]
 485              		.loc 1 82 0
 486 0012 0B4B     		ldr	r3, .L37
 487 0014 1B68     		ldr	r3, [r3]
 488 0016 0393     		str	r3, [sp, #12]
 489              		.loc 1 83 0
 490 0018 9DF80610 		ldrb	r1, [sp, #6]	@ zero_extendqisi2
 491 001c 9DF80700 		ldrb	r0, [sp, #7]	@ zero_extendqisi2
 492 0020 0123     		movs	r3, #1
 493 0022 009A     		ldr	r2, [sp]
 494 0024 FFF7FEFF 		bl	VL53L0X_read_multi
 495 0028 0346     		mov	r3, r0
 496              		.loc 1 84 0
 497 002a 1846     		mov	r0, r3
 498 002c 044B     		ldr	r3, .L37
 499 002e 039A     		ldr	r2, [sp, #12]
 500 0030 1B68     		ldr	r3, [r3]
 501 0032 9A42     		cmp	r2, r3
 502 0034 01D0     		beq	.L36
 503 0036 FFF7FEFF 		bl	__stack_chk_fail
 504              	.L36:
 505 003a 05B0     		add	sp, sp, #20
 506              		.cfi_def_cfa_offset 4
 507              		@ sp needed
 508 003c 5DF804FB 		ldr	pc, [sp], #4
 509              	.L38:
 510              		.align	2
 511              	.L37:
 512 0040 00000000 		.word	__stack_chk_guard
 513              		.cfi_endproc
ARM GAS  C:\Users\PCHAUT~1\AppData\Local\Temp\ccZ6OxUy.s 			page 10


 514              	.LFE261:
 515              		.size	VL53L0X_read_byte, .-VL53L0X_read_byte
 516              		.section	.text.VL53L0X_read_word,"ax",%progbits
 517              		.align	1
 518              		.p2align 4,,15
 519              		.global	VL53L0X_read_word
 520              		.syntax unified
 521              		.thumb
 522              		.thumb_func
 523              		.fpu fpv4-sp-d16
 524              		.type	VL53L0X_read_word, %function
 525              	VL53L0X_read_word:
 526              	.LFB262:
 527              		.loc 1 86 0
 528              		.cfi_startproc
 529              		@ args = 0, pretend = 0, frame = 24
 530              		@ frame_needed = 0, uses_anonymous_args = 0
 531 0000 00B5     		push	{lr}
 532              		.cfi_def_cfa_offset 4
 533              		.cfi_offset 14, -4
 534 0002 87B0     		sub	sp, sp, #28
 535              		.cfi_def_cfa_offset 32
 536 0004 0346     		mov	r3, r0
 537 0006 0092     		str	r2, [sp]
 538 0008 8DF80730 		strb	r3, [sp, #7]
 539 000c 0B46     		mov	r3, r1
 540 000e 8DF80630 		strb	r3, [sp, #6]
 541              		.loc 1 86 0
 542 0012 164B     		ldr	r3, .L42
 543 0014 1B68     		ldr	r3, [r3]
 544 0016 0593     		str	r3, [sp, #20]
 545              		.loc 1 88 0
 546 0018 04AA     		add	r2, sp, #16
 547 001a 9DF80610 		ldrb	r1, [sp, #6]	@ zero_extendqisi2
 548 001e 9DF80700 		ldrb	r0, [sp, #7]	@ zero_extendqisi2
 549 0022 0223     		movs	r3, #2
 550 0024 FFF7FEFF 		bl	VL53L0X_read_multi
 551 0028 0390     		str	r0, [sp, #12]
 552              		.loc 1 91 0
 553 002a 9DF81030 		ldrb	r3, [sp, #16]	@ zero_extendqisi2
 554 002e ADF80A30 		strh	r3, [sp, #10]	@ movhi
 555              		.loc 1 92 0
 556 0032 BDF80A30 		ldrh	r3, [sp, #10]	@ movhi
 557 0036 1B02     		lsls	r3, r3, #8
 558 0038 ADF80A30 		strh	r3, [sp, #10]	@ movhi
 559              		.loc 1 93 0
 560 003c 9DF81130 		ldrb	r3, [sp, #17]	@ zero_extendqisi2
 561 0040 9AB2     		uxth	r2, r3
 562 0042 BDF80A30 		ldrh	r3, [sp, #10]	@ movhi
 563 0046 1343     		orrs	r3, r3, r2
 564 0048 ADF80A30 		strh	r3, [sp, #10]	@ movhi
 565              		.loc 1 94 0
 566 004c 009B     		ldr	r3, [sp]
 567 004e BDF80A20 		ldrh	r2, [sp, #10]	@ movhi
 568 0052 1A80     		strh	r2, [r3]	@ movhi
 569              		.loc 1 96 0
 570 0054 039B     		ldr	r3, [sp, #12]
ARM GAS  C:\Users\PCHAUT~1\AppData\Local\Temp\ccZ6OxUy.s 			page 11


 571              		.loc 1 97 0
 572 0056 1846     		mov	r0, r3
 573 0058 044B     		ldr	r3, .L42
 574 005a 059A     		ldr	r2, [sp, #20]
 575 005c 1B68     		ldr	r3, [r3]
 576 005e 9A42     		cmp	r2, r3
 577 0060 01D0     		beq	.L41
 578 0062 FFF7FEFF 		bl	__stack_chk_fail
 579              	.L41:
 580 0066 07B0     		add	sp, sp, #28
 581              		.cfi_def_cfa_offset 4
 582              		@ sp needed
 583 0068 5DF804FB 		ldr	pc, [sp], #4
 584              	.L43:
 585              		.align	2
 586              	.L42:
 587 006c 00000000 		.word	__stack_chk_guard
 588              		.cfi_endproc
 589              	.LFE262:
 590              		.size	VL53L0X_read_word, .-VL53L0X_read_word
 591              		.section	.text.VL53L0X_read_dword,"ax",%progbits
 592              		.align	1
 593              		.p2align 4,,15
 594              		.global	VL53L0X_read_dword
 595              		.syntax unified
 596              		.thumb
 597              		.thumb_func
 598              		.fpu fpv4-sp-d16
 599              		.type	VL53L0X_read_dword, %function
 600              	VL53L0X_read_dword:
 601              	.LFB263:
 602              		.loc 1 99 0
 603              		.cfi_startproc
 604              		@ args = 0, pretend = 0, frame = 24
 605              		@ frame_needed = 0, uses_anonymous_args = 0
 606 0000 00B5     		push	{lr}
 607              		.cfi_def_cfa_offset 4
 608              		.cfi_offset 14, -4
 609 0002 87B0     		sub	sp, sp, #28
 610              		.cfi_def_cfa_offset 32
 611 0004 0346     		mov	r3, r0
 612 0006 0092     		str	r2, [sp]
 613 0008 8DF80730 		strb	r3, [sp, #7]
 614 000c 0B46     		mov	r3, r1
 615 000e 8DF80630 		strb	r3, [sp, #6]
 616              		.loc 1 99 0
 617 0012 1C4B     		ldr	r3, .L47
 618 0014 1B68     		ldr	r3, [r3]
 619 0016 0593     		str	r3, [sp, #20]
 620              		.loc 1 101 0
 621 0018 04AA     		add	r2, sp, #16
 622 001a 9DF80610 		ldrb	r1, [sp, #6]	@ zero_extendqisi2
 623 001e 9DF80700 		ldrb	r0, [sp, #7]	@ zero_extendqisi2
 624 0022 0423     		movs	r3, #4
 625 0024 FFF7FEFF 		bl	VL53L0X_read_multi
 626 0028 0290     		str	r0, [sp, #8]
 627              		.loc 1 104 0
ARM GAS  C:\Users\PCHAUT~1\AppData\Local\Temp\ccZ6OxUy.s 			page 12


 628 002a 9DF81030 		ldrb	r3, [sp, #16]	@ zero_extendqisi2
 629 002e 0393     		str	r3, [sp, #12]
 630              		.loc 1 105 0
 631 0030 039B     		ldr	r3, [sp, #12]
 632 0032 1B02     		lsls	r3, r3, #8
 633 0034 0393     		str	r3, [sp, #12]
 634              		.loc 1 106 0
 635 0036 9DF81130 		ldrb	r3, [sp, #17]	@ zero_extendqisi2
 636 003a 1A46     		mov	r2, r3
 637 003c 039B     		ldr	r3, [sp, #12]
 638 003e 1343     		orrs	r3, r3, r2
 639 0040 0393     		str	r3, [sp, #12]
 640              		.loc 1 107 0
 641 0042 039B     		ldr	r3, [sp, #12]
 642 0044 1B02     		lsls	r3, r3, #8
 643 0046 0393     		str	r3, [sp, #12]
 644              		.loc 1 108 0
 645 0048 9DF81230 		ldrb	r3, [sp, #18]	@ zero_extendqisi2
 646 004c 1A46     		mov	r2, r3
 647 004e 039B     		ldr	r3, [sp, #12]
 648 0050 1343     		orrs	r3, r3, r2
 649 0052 0393     		str	r3, [sp, #12]
 650              		.loc 1 109 0
 651 0054 039B     		ldr	r3, [sp, #12]
 652 0056 1B02     		lsls	r3, r3, #8
 653 0058 0393     		str	r3, [sp, #12]
 654              		.loc 1 110 0
 655 005a 9DF81330 		ldrb	r3, [sp, #19]	@ zero_extendqisi2
 656 005e 1A46     		mov	r2, r3
 657 0060 039B     		ldr	r3, [sp, #12]
 658 0062 1343     		orrs	r3, r3, r2
 659 0064 0393     		str	r3, [sp, #12]
 660              		.loc 1 112 0
 661 0066 009B     		ldr	r3, [sp]
 662 0068 039A     		ldr	r2, [sp, #12]
 663 006a 1A60     		str	r2, [r3]
 664              		.loc 1 114 0
 665 006c 029B     		ldr	r3, [sp, #8]
 666              		.loc 1 115 0
 667 006e 1846     		mov	r0, r3
 668 0070 044B     		ldr	r3, .L47
 669 0072 059A     		ldr	r2, [sp, #20]
 670 0074 1B68     		ldr	r3, [r3]
 671 0076 9A42     		cmp	r2, r3
 672 0078 01D0     		beq	.L46
 673 007a FFF7FEFF 		bl	__stack_chk_fail
 674              	.L46:
 675 007e 07B0     		add	sp, sp, #28
 676              		.cfi_def_cfa_offset 4
 677              		@ sp needed
 678 0080 5DF804FB 		ldr	pc, [sp], #4
 679              	.L48:
 680              		.align	2
 681              	.L47:
 682 0084 00000000 		.word	__stack_chk_guard
 683              		.cfi_endproc
 684              	.LFE263:
ARM GAS  C:\Users\PCHAUT~1\AppData\Local\Temp\ccZ6OxUy.s 			page 13


 685              		.size	VL53L0X_read_dword, .-VL53L0X_read_dword
 686              		.text
 687              	.Letext0:
 688              		.file 2 "c:\\users\\pchautems\\documents\\robotiquetp\\eclipse_e-puck2\\tools\\gcc-arm-none-eabi-7
 689              		.file 3 "c:\\users\\pchautems\\documents\\robotiquetp\\eclipse_e-puck2\\tools\\gcc-arm-none-eabi-7
 690              		.file 4 "c:\\users\\pchautems\\documents\\robotiquetp\\eclipse_e-puck2\\tools\\gcc-arm-none-eabi-7
 691              		.file 5 "../lib/e-puck2_main-processor/src/sensors/VL53L0X/Api/platform/src/../inc/../../core/inc/
 692              		.file 6 "../lib/e-puck2_main-processor/ChibiOS//os/rt/ports/ARMCMx/compilers/GCC/chtypes.h"
 693              		.file 7 "../lib/e-puck2_main-processor/ChibiOS//os/rt/include/chsystypes.h"
 694              		.file 8 "../lib/e-puck2_main-processor/ChibiOS//os/rt/include/chschd.h"
 695              		.file 9 "../lib/e-puck2_main-processor/ChibiOS//os/ext/CMSIS/include/core_cm4.h"
 696              		.file 10 "../lib/e-puck2_main-processor/ChibiOS//os/ext/CMSIS/ST/system_stm32f4xx.h"
 697              		.file 11 "../lib/e-puck2_main-processor/ChibiOS//os/ext/CMSIS/ST/stm32f407xx.h"
 698              		.file 12 "../lib/e-puck2_main-processor/ChibiOS//os/rt/ports/ARMCMx/chcore.h"
 699              		.file 13 "../lib/e-puck2_main-processor/ChibiOS//os/rt/ports/ARMCMx/chcore_v7m.h"
 700              		.file 14 "../lib/e-puck2_main-processor/ChibiOS//os/rt/include/chdebug.h"
 701              		.file 15 "../lib/e-puck2_main-processor/ChibiOS//os/rt/include/chtm.h"
 702              		.file 16 "../lib/e-puck2_main-processor/ChibiOS//os/rt/include/chstats.h"
 703              		.file 17 "../lib/e-puck2_main-processor/ChibiOS//os/rt/include/chsem.h"
 704              		.file 18 "../lib/e-puck2_main-processor/ChibiOS//os/rt/include/chmtx.h"
 705              		.file 19 "../lib/e-puck2_main-processor/ChibiOS//os/rt/include/chregistry.h"
 706              		.file 20 "../lib/e-puck2_main-processor/ChibiOS//os/rt/include/chevents.h"
 707              		.file 21 "../lib/e-puck2_main-processor/ChibiOS//os/rt/include/chqueues.h"
 708              		.file 22 "../lib/e-puck2_main-processor/ChibiOS//os/hal/ports/STM32/STM32F4xx/stm32_dma.h"
 709              		.file 23 "../lib/e-puck2_main-processor/ChibiOS//os/hal/include/hal_ioblock.h"
 710              		.file 24 "../lib/e-puck2_main-processor/ChibiOS//os/hal/ports/STM32/LLD/GPIOv2/pal_lld.h"
 711              		.file 25 "../lib/e-puck2_main-processor/ChibiOS//os/hal/include/adc.h"
 712              		.file 26 "../lib/e-puck2_main-processor/ChibiOS//os/hal/ports/STM32/STM32F4xx/adc_lld.h"
 713              		.file 27 "../lib/e-puck2_main-processor/ChibiOS//os/hal/include/can.h"
 714              		.file 28 "../lib/e-puck2_main-processor/ChibiOS//os/hal/ports/STM32/LLD/can_lld.h"
 715              		.file 29 "../lib/e-puck2_main-processor/ChibiOS//os/hal/include/dac.h"
 716              		.file 30 "../lib/e-puck2_main-processor/ChibiOS//os/hal/ports/STM32/LLD/DACv1/dac_lld.h"
 717              		.file 31 "../lib/e-puck2_main-processor/ChibiOS//os/hal/include/ext.h"
 718              		.file 32 "../lib/e-puck2_main-processor/ChibiOS//os/hal/ports/STM32/LLD/ext_lld.h"
 719              		.file 33 "../lib/e-puck2_main-processor/ChibiOS//os/hal/include/gpt.h"
 720              		.file 34 "../lib/e-puck2_main-processor/ChibiOS//os/hal/ports/STM32/LLD/TIMv1/gpt_lld.h"
 721              		.file 35 "../lib/e-puck2_main-processor/ChibiOS//os/hal/ports/STM32/LLD/TIMv1/stm32_tim.h"
 722              		.file 36 "../lib/e-puck2_main-processor/ChibiOS//os/hal/include/i2c.h"
 723              		.file 37 "../lib/e-puck2_main-processor/ChibiOS//os/hal/ports/STM32/LLD/I2Cv1/i2c_lld.h"
 724              		.file 38 "../lib/e-puck2_main-processor/ChibiOS//os/hal/include/i2s.h"
 725              		.file 39 "../lib/e-puck2_main-processor/ChibiOS//os/hal/ports/STM32/LLD/SPIv1/i2s_lld.h"
 726              		.file 40 "../lib/e-puck2_main-processor/ChibiOS//os/hal/include/pwm.h"
 727              		.file 41 "../lib/e-puck2_main-processor/ChibiOS//os/hal/ports/STM32/LLD/TIMv1/pwm_lld.h"
 728              		.file 42 "../lib/e-puck2_main-processor/ChibiOS//os/hal/include/serial.h"
 729              		.file 43 "../lib/e-puck2_main-processor/ChibiOS//os/hal/ports/STM32/LLD/USARTv1/serial_lld.h"
 730              		.file 44 "../lib/e-puck2_main-processor/ChibiOS//os/hal/include/sdc.h"
 731              		.file 45 "../lib/e-puck2_main-processor/ChibiOS//os/hal/ports/STM32/LLD/sdc_lld.h"
 732              		.file 46 "../lib/e-puck2_main-processor/ChibiOS//os/hal/include/spi.h"
 733              		.file 47 "../lib/e-puck2_main-processor/ChibiOS//os/hal/ports/STM32/LLD/SPIv1/spi_lld.h"
 734              		.file 48 "../lib/e-puck2_main-processor/ChibiOS//os/hal/include/usb.h"
 735              		.file 49 "../lib/e-puck2_main-processor/ChibiOS//os/hal/ports/STM32/LLD/OTGv1/usb_lld.h"
 736              		.file 50 "../lib/e-puck2_main-processor/ChibiOS//os/hal/ports/STM32/LLD/OTGv1/stm32_otg.h"