ARM GAS  C:\Users\PCHAUT~1\AppData\Local\Temp\ccxsUwnU.s 			page 1


   1              		.cpu cortex-m4
   2              		.eabi_attribute 27, 1
   3              		.eabi_attribute 28, 1
   4              		.eabi_attribute 20, 1
   5              		.eabi_attribute 21, 1
   6              		.eabi_attribute 23, 3
   7              		.eabi_attribute 24, 1
   8              		.eabi_attribute 25, 1
   9              		.eabi_attribute 26, 1
  10              		.eabi_attribute 30, 6
  11              		.eabi_attribute 34, 1
  12              		.eabi_attribute 18, 4
  13              		.file	"vl53l0x_platform.c"
  14              		.text
  15              	.Ltext0:
  16              		.cfi_sections	.debug_frame
  17              		.section	.text.VL53L0X_WriteMulti,"ax",%progbits
  18              		.align	1
  19              		.p2align 4,,15
  20              		.global	VL53L0X_WriteMulti
  21              		.syntax unified
  22              		.thumb
  23              		.thumb_func
  24              		.fpu fpv4-sp-d16
  25              		.type	VL53L0X_WriteMulti, %function
  26              	VL53L0X_WriteMulti:
  27              	.LFB3:
  28              		.file 1 "../lib/e-puck2_main-processor/src/sensors/VL53L0X/Api/platform/src/vl53l0x_platform.c"
  29              		.loc 1 93 0
  30              		.cfi_startproc
  31              		@ args = 0, pretend = 0, frame = 32
  32              		@ frame_needed = 0, uses_anonymous_args = 0
  33 0000 00B5     		push	{lr}
  34              		.cfi_def_cfa_offset 4
  35              		.cfi_offset 14, -4
  36 0002 89B0     		sub	sp, sp, #36
  37              		.cfi_def_cfa_offset 40
  38 0004 0390     		str	r0, [sp, #12]
  39 0006 0192     		str	r2, [sp, #4]
  40 0008 0093     		str	r3, [sp]
  41 000a 0B46     		mov	r3, r1
  42 000c 8DF80B30 		strb	r3, [sp, #11]
  43              		.loc 1 93 0
  44 0010 174B     		ldr	r3, .L6
  45 0012 1B68     		ldr	r3, [r3]
  46 0014 0793     		str	r3, [sp, #28]
  47              		.loc 1 95 0
  48 0016 0023     		movs	r3, #0
  49 0018 8DF81630 		strb	r3, [sp, #22]
  50              		.loc 1 96 0
  51 001c 0023     		movs	r3, #0
  52 001e 0693     		str	r3, [sp, #24]
  53              		.loc 1 99 0
  54 0020 009B     		ldr	r3, [sp]
  55 0022 3F2B     		cmp	r3, #63
  56 0024 02D9     		bls	.L2
  57              		.loc 1 100 0
ARM GAS  C:\Users\PCHAUT~1\AppData\Local\Temp\ccxsUwnU.s 			page 2


  58 0026 FC23     		movs	r3, #252
  59 0028 8DF81630 		strb	r3, [sp, #22]
  60              	.L2:
  61              		.loc 1 103 0
  62 002c 039B     		ldr	r3, [sp, #12]
  63 002e 93F8BF31 		ldrb	r3, [r3, #447]
  64 0032 8DF81730 		strb	r3, [sp, #23]
  65              		.loc 1 105 0
  66 0036 9DF80B10 		ldrb	r1, [sp, #11]	@ zero_extendqisi2
  67 003a 9DF81700 		ldrb	r0, [sp, #23]	@ zero_extendqisi2
  68 003e 009B     		ldr	r3, [sp]
  69 0040 019A     		ldr	r2, [sp, #4]
  70 0042 FFF7FEFF 		bl	VL53L0X_write_multi
  71 0046 0690     		str	r0, [sp, #24]
  72              		.loc 1 107 0
  73 0048 069B     		ldr	r3, [sp, #24]
  74 004a 002B     		cmp	r3, #0
  75 004c 02D0     		beq	.L3
  76              		.loc 1 108 0
  77 004e EC23     		movs	r3, #236
  78 0050 8DF81630 		strb	r3, [sp, #22]
  79              	.L3:
  80              		.loc 1 110 0
  81 0054 9DF91630 		ldrsb	r3, [sp, #22]
  82              		.loc 1 111 0
  83 0058 1846     		mov	r0, r3
  84 005a 054B     		ldr	r3, .L6
  85 005c 079A     		ldr	r2, [sp, #28]
  86 005e 1B68     		ldr	r3, [r3]
  87 0060 9A42     		cmp	r2, r3
  88 0062 01D0     		beq	.L5
  89 0064 FFF7FEFF 		bl	__stack_chk_fail
  90              	.L5:
  91 0068 09B0     		add	sp, sp, #36
  92              		.cfi_def_cfa_offset 4
  93              		@ sp needed
  94 006a 5DF804FB 		ldr	pc, [sp], #4
  95              	.L7:
  96 006e 00BF     		.align	2
  97              	.L6:
  98 0070 00000000 		.word	__stack_chk_guard
  99              		.cfi_endproc
 100              	.LFE3:
 101              		.size	VL53L0X_WriteMulti, .-VL53L0X_WriteMulti
 102              		.section	.text.VL53L0X_ReadMulti,"ax",%progbits
 103              		.align	1
 104              		.p2align 4,,15
 105              		.global	VL53L0X_ReadMulti
 106              		.syntax unified
 107              		.thumb
 108              		.thumb_func
 109              		.fpu fpv4-sp-d16
 110              		.type	VL53L0X_ReadMulti, %function
 111              	VL53L0X_ReadMulti:
 112              	.LFB4:
 113              		.loc 1 114 0
 114              		.cfi_startproc
ARM GAS  C:\Users\PCHAUT~1\AppData\Local\Temp\ccxsUwnU.s 			page 3


 115              		@ args = 0, pretend = 0, frame = 32
 116              		@ frame_needed = 0, uses_anonymous_args = 0
 117 0000 00B5     		push	{lr}
 118              		.cfi_def_cfa_offset 4
 119              		.cfi_offset 14, -4
 120 0002 89B0     		sub	sp, sp, #36
 121              		.cfi_def_cfa_offset 40
 122 0004 0390     		str	r0, [sp, #12]
 123 0006 0192     		str	r2, [sp, #4]
 124 0008 0093     		str	r3, [sp]
 125 000a 0B46     		mov	r3, r1
 126 000c 8DF80B30 		strb	r3, [sp, #11]
 127              		.loc 1 114 0
 128 0010 164B     		ldr	r3, .L13
 129 0012 1B68     		ldr	r3, [r3]
 130 0014 0793     		str	r3, [sp, #28]
 131              		.loc 1 116 0
 132 0016 0023     		movs	r3, #0
 133 0018 8DF81630 		strb	r3, [sp, #22]
 134              		.loc 1 120 0
 135 001c 009B     		ldr	r3, [sp]
 136 001e 3F2B     		cmp	r3, #63
 137 0020 02D9     		bls	.L9
 138              		.loc 1 121 0
 139 0022 FC23     		movs	r3, #252
 140 0024 8DF81630 		strb	r3, [sp, #22]
 141              	.L9:
 142              		.loc 1 124 0
 143 0028 039B     		ldr	r3, [sp, #12]
 144 002a 93F8BF31 		ldrb	r3, [r3, #447]
 145 002e 8DF81730 		strb	r3, [sp, #23]
 146              		.loc 1 126 0
 147 0032 9DF80B10 		ldrb	r1, [sp, #11]	@ zero_extendqisi2
 148 0036 9DF81700 		ldrb	r0, [sp, #23]	@ zero_extendqisi2
 149 003a 009B     		ldr	r3, [sp]
 150 003c 019A     		ldr	r2, [sp, #4]
 151 003e FFF7FEFF 		bl	VL53L0X_read_multi
 152 0042 0690     		str	r0, [sp, #24]
 153              		.loc 1 128 0
 154 0044 069B     		ldr	r3, [sp, #24]
 155 0046 002B     		cmp	r3, #0
 156 0048 02D0     		beq	.L10
 157              		.loc 1 129 0
 158 004a EC23     		movs	r3, #236
 159 004c 8DF81630 		strb	r3, [sp, #22]
 160              	.L10:
 161              		.loc 1 131 0
 162 0050 9DF91630 		ldrsb	r3, [sp, #22]
 163              		.loc 1 132 0
 164 0054 1846     		mov	r0, r3
 165 0056 054B     		ldr	r3, .L13
 166 0058 079A     		ldr	r2, [sp, #28]
 167 005a 1B68     		ldr	r3, [r3]
 168 005c 9A42     		cmp	r2, r3
 169 005e 01D0     		beq	.L12
 170 0060 FFF7FEFF 		bl	__stack_chk_fail
 171              	.L12:
ARM GAS  C:\Users\PCHAUT~1\AppData\Local\Temp\ccxsUwnU.s 			page 4


 172 0064 09B0     		add	sp, sp, #36
 173              		.cfi_def_cfa_offset 4
 174              		@ sp needed
 175 0066 5DF804FB 		ldr	pc, [sp], #4
 176              	.L14:
 177 006a 00BF     		.align	2
 178              	.L13:
 179 006c 00000000 		.word	__stack_chk_guard
 180              		.cfi_endproc
 181              	.LFE4:
 182              		.size	VL53L0X_ReadMulti, .-VL53L0X_ReadMulti
 183              		.section	.text.VL53L0X_WrByte,"ax",%progbits
 184              		.align	1
 185              		.p2align 4,,15
 186              		.global	VL53L0X_WrByte
 187              		.syntax unified
 188              		.thumb
 189              		.thumb_func
 190              		.fpu fpv4-sp-d16
 191              		.type	VL53L0X_WrByte, %function
 192              	VL53L0X_WrByte:
 193              	.LFB5:
 194              		.loc 1 135 0
 195              		.cfi_startproc
 196              		@ args = 0, pretend = 0, frame = 24
 197              		@ frame_needed = 0, uses_anonymous_args = 0
 198 0000 00B5     		push	{lr}
 199              		.cfi_def_cfa_offset 4
 200              		.cfi_offset 14, -4
 201 0002 87B0     		sub	sp, sp, #28
 202              		.cfi_def_cfa_offset 32
 203 0004 0190     		str	r0, [sp, #4]
 204 0006 0B46     		mov	r3, r1
 205 0008 8DF80330 		strb	r3, [sp, #3]
 206 000c 1346     		mov	r3, r2
 207 000e 8DF80230 		strb	r3, [sp, #2]
 208              		.loc 1 135 0
 209 0012 144B     		ldr	r3, .L19
 210 0014 1B68     		ldr	r3, [r3]
 211 0016 0593     		str	r3, [sp, #20]
 212              		.loc 1 136 0
 213 0018 0023     		movs	r3, #0
 214 001a 8DF80E30 		strb	r3, [sp, #14]
 215              		.loc 1 140 0
 216 001e 019B     		ldr	r3, [sp, #4]
 217 0020 93F8BF31 		ldrb	r3, [r3, #447]
 218 0024 8DF80F30 		strb	r3, [sp, #15]
 219              		.loc 1 142 0
 220 0028 9DF80220 		ldrb	r2, [sp, #2]	@ zero_extendqisi2
 221 002c 9DF80310 		ldrb	r1, [sp, #3]	@ zero_extendqisi2
 222 0030 9DF80F30 		ldrb	r3, [sp, #15]	@ zero_extendqisi2
 223 0034 1846     		mov	r0, r3
 224 0036 FFF7FEFF 		bl	VL53L0X_write_byte
 225 003a 0490     		str	r0, [sp, #16]
 226              		.loc 1 144 0
 227 003c 049B     		ldr	r3, [sp, #16]
 228 003e 002B     		cmp	r3, #0
ARM GAS  C:\Users\PCHAUT~1\AppData\Local\Temp\ccxsUwnU.s 			page 5


 229 0040 02D0     		beq	.L16
 230              		.loc 1 145 0
 231 0042 EC23     		movs	r3, #236
 232 0044 8DF80E30 		strb	r3, [sp, #14]
 233              	.L16:
 234              		.loc 1 147 0
 235 0048 9DF90E30 		ldrsb	r3, [sp, #14]
 236              		.loc 1 148 0
 237 004c 1846     		mov	r0, r3
 238 004e 054B     		ldr	r3, .L19
 239 0050 059A     		ldr	r2, [sp, #20]
 240 0052 1B68     		ldr	r3, [r3]
 241 0054 9A42     		cmp	r2, r3
 242 0056 01D0     		beq	.L18
 243 0058 FFF7FEFF 		bl	__stack_chk_fail
 244              	.L18:
 245 005c 07B0     		add	sp, sp, #28
 246              		.cfi_def_cfa_offset 4
 247              		@ sp needed
 248 005e 5DF804FB 		ldr	pc, [sp], #4
 249              	.L20:
 250 0062 00BF     		.align	2
 251              	.L19:
 252 0064 00000000 		.word	__stack_chk_guard
 253              		.cfi_endproc
 254              	.LFE5:
 255              		.size	VL53L0X_WrByte, .-VL53L0X_WrByte
 256              		.section	.text.VL53L0X_WrWord,"ax",%progbits
 257              		.align	1
 258              		.p2align 4,,15
 259              		.global	VL53L0X_WrWord
 260              		.syntax unified
 261              		.thumb
 262              		.thumb_func
 263              		.fpu fpv4-sp-d16
 264              		.type	VL53L0X_WrWord, %function
 265              	VL53L0X_WrWord:
 266              	.LFB6:
 267              		.loc 1 150 0
 268              		.cfi_startproc
 269              		@ args = 0, pretend = 0, frame = 24
 270              		@ frame_needed = 0, uses_anonymous_args = 0
 271 0000 00B5     		push	{lr}
 272              		.cfi_def_cfa_offset 4
 273              		.cfi_offset 14, -4
 274 0002 87B0     		sub	sp, sp, #28
 275              		.cfi_def_cfa_offset 32
 276 0004 0190     		str	r0, [sp, #4]
 277 0006 0B46     		mov	r3, r1
 278 0008 8DF80330 		strb	r3, [sp, #3]
 279 000c 1346     		mov	r3, r2	@ movhi
 280 000e ADF80030 		strh	r3, [sp]	@ movhi
 281              		.loc 1 150 0
 282 0012 144B     		ldr	r3, .L25
 283 0014 1B68     		ldr	r3, [r3]
 284 0016 0593     		str	r3, [sp, #20]
 285              		.loc 1 151 0
ARM GAS  C:\Users\PCHAUT~1\AppData\Local\Temp\ccxsUwnU.s 			page 6


 286 0018 0023     		movs	r3, #0
 287 001a 8DF80E30 		strb	r3, [sp, #14]
 288              		.loc 1 155 0
 289 001e 019B     		ldr	r3, [sp, #4]
 290 0020 93F8BF31 		ldrb	r3, [r3, #447]
 291 0024 8DF80F30 		strb	r3, [sp, #15]
 292              		.loc 1 157 0
 293 0028 BDF80020 		ldrh	r2, [sp]
 294 002c 9DF80310 		ldrb	r1, [sp, #3]	@ zero_extendqisi2
 295 0030 9DF80F30 		ldrb	r3, [sp, #15]	@ zero_extendqisi2
 296 0034 1846     		mov	r0, r3
 297 0036 FFF7FEFF 		bl	VL53L0X_write_word
 298 003a 0490     		str	r0, [sp, #16]
 299              		.loc 1 159 0
 300 003c 049B     		ldr	r3, [sp, #16]
 301 003e 002B     		cmp	r3, #0
 302 0040 02D0     		beq	.L22
 303              		.loc 1 160 0
 304 0042 EC23     		movs	r3, #236
 305 0044 8DF80E30 		strb	r3, [sp, #14]
 306              	.L22:
 307              		.loc 1 162 0
 308 0048 9DF90E30 		ldrsb	r3, [sp, #14]
 309              		.loc 1 163 0
 310 004c 1846     		mov	r0, r3
 311 004e 054B     		ldr	r3, .L25
 312 0050 059A     		ldr	r2, [sp, #20]
 313 0052 1B68     		ldr	r3, [r3]
 314 0054 9A42     		cmp	r2, r3
 315 0056 01D0     		beq	.L24
 316 0058 FFF7FEFF 		bl	__stack_chk_fail
 317              	.L24:
 318 005c 07B0     		add	sp, sp, #28
 319              		.cfi_def_cfa_offset 4
 320              		@ sp needed
 321 005e 5DF804FB 		ldr	pc, [sp], #4
 322              	.L26:
 323 0062 00BF     		.align	2
 324              	.L25:
 325 0064 00000000 		.word	__stack_chk_guard
 326              		.cfi_endproc
 327              	.LFE6:
 328              		.size	VL53L0X_WrWord, .-VL53L0X_WrWord
 329              		.section	.text.VL53L0X_WrDWord,"ax",%progbits
 330              		.align	1
 331              		.p2align 4,,15
 332              		.global	VL53L0X_WrDWord
 333              		.syntax unified
 334              		.thumb
 335              		.thumb_func
 336              		.fpu fpv4-sp-d16
 337              		.type	VL53L0X_WrDWord, %function
 338              	VL53L0X_WrDWord:
 339              	.LFB7:
 340              		.loc 1 165 0
 341              		.cfi_startproc
 342              		@ args = 0, pretend = 0, frame = 32
ARM GAS  C:\Users\PCHAUT~1\AppData\Local\Temp\ccxsUwnU.s 			page 7


 343              		@ frame_needed = 0, uses_anonymous_args = 0
 344 0000 00B5     		push	{lr}
 345              		.cfi_def_cfa_offset 4
 346              		.cfi_offset 14, -4
 347 0002 89B0     		sub	sp, sp, #36
 348              		.cfi_def_cfa_offset 40
 349 0004 0390     		str	r0, [sp, #12]
 350 0006 0B46     		mov	r3, r1
 351 0008 0192     		str	r2, [sp, #4]
 352 000a 8DF80B30 		strb	r3, [sp, #11]
 353              		.loc 1 165 0
 354 000e 134B     		ldr	r3, .L31
 355 0010 1B68     		ldr	r3, [r3]
 356 0012 0793     		str	r3, [sp, #28]
 357              		.loc 1 166 0
 358 0014 0023     		movs	r3, #0
 359 0016 8DF81630 		strb	r3, [sp, #22]
 360              		.loc 1 170 0
 361 001a 039B     		ldr	r3, [sp, #12]
 362 001c 93F8BF31 		ldrb	r3, [r3, #447]
 363 0020 8DF81730 		strb	r3, [sp, #23]
 364              		.loc 1 172 0
 365 0024 9DF80B10 		ldrb	r1, [sp, #11]	@ zero_extendqisi2
 366 0028 9DF81730 		ldrb	r3, [sp, #23]	@ zero_extendqisi2
 367 002c 019A     		ldr	r2, [sp, #4]
 368 002e 1846     		mov	r0, r3
 369 0030 FFF7FEFF 		bl	VL53L0X_write_dword
 370 0034 0690     		str	r0, [sp, #24]
 371              		.loc 1 174 0
 372 0036 069B     		ldr	r3, [sp, #24]
 373 0038 002B     		cmp	r3, #0
 374 003a 02D0     		beq	.L28
 375              		.loc 1 175 0
 376 003c EC23     		movs	r3, #236
 377 003e 8DF81630 		strb	r3, [sp, #22]
 378              	.L28:
 379              		.loc 1 177 0
 380 0042 9DF91630 		ldrsb	r3, [sp, #22]
 381              		.loc 1 178 0
 382 0046 1846     		mov	r0, r3
 383 0048 044B     		ldr	r3, .L31
 384 004a 079A     		ldr	r2, [sp, #28]
 385 004c 1B68     		ldr	r3, [r3]
 386 004e 9A42     		cmp	r2, r3
 387 0050 01D0     		beq	.L30
 388 0052 FFF7FEFF 		bl	__stack_chk_fail
 389              	.L30:
 390 0056 09B0     		add	sp, sp, #36
 391              		.cfi_def_cfa_offset 4
 392              		@ sp needed
 393 0058 5DF804FB 		ldr	pc, [sp], #4
 394              	.L32:
 395              		.align	2
 396              	.L31:
 397 005c 00000000 		.word	__stack_chk_guard
 398              		.cfi_endproc
 399              	.LFE7:
ARM GAS  C:\Users\PCHAUT~1\AppData\Local\Temp\ccxsUwnU.s 			page 8


 400              		.size	VL53L0X_WrDWord, .-VL53L0X_WrDWord
 401              		.section	.text.VL53L0X_UpdateByte,"ax",%progbits
 402              		.align	1
 403              		.p2align 4,,15
 404              		.global	VL53L0X_UpdateByte
 405              		.syntax unified
 406              		.thumb
 407              		.thumb_func
 408              		.fpu fpv4-sp-d16
 409              		.type	VL53L0X_UpdateByte, %function
 410              	VL53L0X_UpdateByte:
 411              	.LFB8:
 412              		.loc 1 180 0
 413              		.cfi_startproc
 414              		@ args = 0, pretend = 0, frame = 24
 415              		@ frame_needed = 0, uses_anonymous_args = 0
 416 0000 00B5     		push	{lr}
 417              		.cfi_def_cfa_offset 4
 418              		.cfi_offset 14, -4
 419 0002 87B0     		sub	sp, sp, #28
 420              		.cfi_def_cfa_offset 32
 421 0004 0190     		str	r0, [sp, #4]
 422 0006 0846     		mov	r0, r1
 423 0008 1146     		mov	r1, r2
 424 000a 1A46     		mov	r2, r3
 425 000c 0346     		mov	r3, r0
 426 000e 8DF80330 		strb	r3, [sp, #3]
 427 0012 0B46     		mov	r3, r1
 428 0014 8DF80230 		strb	r3, [sp, #2]
 429 0018 1346     		mov	r3, r2
 430 001a 8DF80130 		strb	r3, [sp, #1]
 431              		.loc 1 180 0
 432 001e 244B     		ldr	r3, .L38
 433 0020 1B68     		ldr	r3, [r3]
 434 0022 0593     		str	r3, [sp, #20]
 435              		.loc 1 181 0
 436 0024 0023     		movs	r3, #0
 437 0026 8DF80E30 		strb	r3, [sp, #14]
 438              		.loc 1 186 0
 439 002a 019B     		ldr	r3, [sp, #4]
 440 002c 93F8BF31 		ldrb	r3, [r3, #447]
 441 0030 8DF80F30 		strb	r3, [sp, #15]
 442              		.loc 1 188 0
 443 0034 0DF10D02 		add	r2, sp, #13
 444 0038 9DF80310 		ldrb	r1, [sp, #3]	@ zero_extendqisi2
 445 003c 9DF80F30 		ldrb	r3, [sp, #15]	@ zero_extendqisi2
 446 0040 1846     		mov	r0, r3
 447 0042 FFF7FEFF 		bl	VL53L0X_read_byte
 448 0046 0490     		str	r0, [sp, #16]
 449              		.loc 1 190 0
 450 0048 049B     		ldr	r3, [sp, #16]
 451 004a 002B     		cmp	r3, #0
 452 004c 02D0     		beq	.L34
 453              		.loc 1 191 0
 454 004e EC23     		movs	r3, #236
 455 0050 8DF80E30 		strb	r3, [sp, #14]
 456              	.L34:
ARM GAS  C:\Users\PCHAUT~1\AppData\Local\Temp\ccxsUwnU.s 			page 9


 457              		.loc 1 193 0
 458 0054 9DF90E30 		ldrsb	r3, [sp, #14]
 459 0058 002B     		cmp	r3, #0
 460 005a 1BD1     		bne	.L35
 461              		.loc 1 194 0
 462 005c 9DF80D20 		ldrb	r2, [sp, #13]	@ zero_extendqisi2
 463 0060 9DF80230 		ldrb	r3, [sp, #2]
 464 0064 1340     		ands	r3, r3, r2
 465 0066 DAB2     		uxtb	r2, r3
 466 0068 9DF80130 		ldrb	r3, [sp, #1]
 467 006c 1343     		orrs	r3, r3, r2
 468 006e DBB2     		uxtb	r3, r3
 469 0070 8DF80D30 		strb	r3, [sp, #13]
 470              		.loc 1 195 0
 471 0074 9DF80D20 		ldrb	r2, [sp, #13]	@ zero_extendqisi2
 472 0078 9DF80310 		ldrb	r1, [sp, #3]	@ zero_extendqisi2
 473 007c 9DF80F30 		ldrb	r3, [sp, #15]	@ zero_extendqisi2
 474 0080 1846     		mov	r0, r3
 475 0082 FFF7FEFF 		bl	VL53L0X_write_byte
 476 0086 0490     		str	r0, [sp, #16]
 477              		.loc 1 197 0
 478 0088 049B     		ldr	r3, [sp, #16]
 479 008a 002B     		cmp	r3, #0
 480 008c 02D0     		beq	.L35
 481              		.loc 1 198 0
 482 008e EC23     		movs	r3, #236
 483 0090 8DF80E30 		strb	r3, [sp, #14]
 484              	.L35:
 485              		.loc 1 201 0
 486 0094 9DF90E30 		ldrsb	r3, [sp, #14]
 487              		.loc 1 202 0
 488 0098 1846     		mov	r0, r3
 489 009a 054B     		ldr	r3, .L38
 490 009c 059A     		ldr	r2, [sp, #20]
 491 009e 1B68     		ldr	r3, [r3]
 492 00a0 9A42     		cmp	r2, r3
 493 00a2 01D0     		beq	.L37
 494 00a4 FFF7FEFF 		bl	__stack_chk_fail
 495              	.L37:
 496 00a8 07B0     		add	sp, sp, #28
 497              		.cfi_def_cfa_offset 4
 498              		@ sp needed
 499 00aa 5DF804FB 		ldr	pc, [sp], #4
 500              	.L39:
 501 00ae 00BF     		.align	2
 502              	.L38:
 503 00b0 00000000 		.word	__stack_chk_guard
 504              		.cfi_endproc
 505              	.LFE8:
 506              		.size	VL53L0X_UpdateByte, .-VL53L0X_UpdateByte
 507              		.section	.text.VL53L0X_RdByte,"ax",%progbits
 508              		.align	1
 509              		.p2align 4,,15
 510              		.global	VL53L0X_RdByte
 511              		.syntax unified
 512              		.thumb
 513              		.thumb_func
ARM GAS  C:\Users\PCHAUT~1\AppData\Local\Temp\ccxsUwnU.s 			page 10


 514              		.fpu fpv4-sp-d16
 515              		.type	VL53L0X_RdByte, %function
 516              	VL53L0X_RdByte:
 517              	.LFB9:
 518              		.loc 1 204 0
 519              		.cfi_startproc
 520              		@ args = 0, pretend = 0, frame = 32
 521              		@ frame_needed = 0, uses_anonymous_args = 0
 522 0000 00B5     		push	{lr}
 523              		.cfi_def_cfa_offset 4
 524              		.cfi_offset 14, -4
 525 0002 89B0     		sub	sp, sp, #36
 526              		.cfi_def_cfa_offset 40
 527 0004 0390     		str	r0, [sp, #12]
 528 0006 0B46     		mov	r3, r1
 529 0008 0192     		str	r2, [sp, #4]
 530 000a 8DF80B30 		strb	r3, [sp, #11]
 531              		.loc 1 204 0
 532 000e 134B     		ldr	r3, .L44
 533 0010 1B68     		ldr	r3, [r3]
 534 0012 0793     		str	r3, [sp, #28]
 535              		.loc 1 205 0
 536 0014 0023     		movs	r3, #0
 537 0016 8DF81630 		strb	r3, [sp, #22]
 538              		.loc 1 209 0
 539 001a 039B     		ldr	r3, [sp, #12]
 540 001c 93F8BF31 		ldrb	r3, [r3, #447]
 541 0020 8DF81730 		strb	r3, [sp, #23]
 542              		.loc 1 211 0
 543 0024 9DF80B10 		ldrb	r1, [sp, #11]	@ zero_extendqisi2
 544 0028 9DF81730 		ldrb	r3, [sp, #23]	@ zero_extendqisi2
 545 002c 019A     		ldr	r2, [sp, #4]
 546 002e 1846     		mov	r0, r3
 547 0030 FFF7FEFF 		bl	VL53L0X_read_byte
 548 0034 0690     		str	r0, [sp, #24]
 549              		.loc 1 213 0
 550 0036 069B     		ldr	r3, [sp, #24]
 551 0038 002B     		cmp	r3, #0
 552 003a 02D0     		beq	.L41
 553              		.loc 1 214 0
 554 003c EC23     		movs	r3, #236
 555 003e 8DF81630 		strb	r3, [sp, #22]
 556              	.L41:
 557              		.loc 1 216 0
 558 0042 9DF91630 		ldrsb	r3, [sp, #22]
 559              		.loc 1 217 0
 560 0046 1846     		mov	r0, r3
 561 0048 044B     		ldr	r3, .L44
 562 004a 079A     		ldr	r2, [sp, #28]
 563 004c 1B68     		ldr	r3, [r3]
 564 004e 9A42     		cmp	r2, r3
 565 0050 01D0     		beq	.L43
 566 0052 FFF7FEFF 		bl	__stack_chk_fail
 567              	.L43:
 568 0056 09B0     		add	sp, sp, #36
 569              		.cfi_def_cfa_offset 4
 570              		@ sp needed
ARM GAS  C:\Users\PCHAUT~1\AppData\Local\Temp\ccxsUwnU.s 			page 11


 571 0058 5DF804FB 		ldr	pc, [sp], #4
 572              	.L45:
 573              		.align	2
 574              	.L44:
 575 005c 00000000 		.word	__stack_chk_guard
 576              		.cfi_endproc
 577              	.LFE9:
 578              		.size	VL53L0X_RdByte, .-VL53L0X_RdByte
 579              		.section	.text.VL53L0X_RdWord,"ax",%progbits
 580              		.align	1
 581              		.p2align 4,,15
 582              		.global	VL53L0X_RdWord
 583              		.syntax unified
 584              		.thumb
 585              		.thumb_func
 586              		.fpu fpv4-sp-d16
 587              		.type	VL53L0X_RdWord, %function
 588              	VL53L0X_RdWord:
 589              	.LFB10:
 590              		.loc 1 219 0
 591              		.cfi_startproc
 592              		@ args = 0, pretend = 0, frame = 32
 593              		@ frame_needed = 0, uses_anonymous_args = 0
 594 0000 00B5     		push	{lr}
 595              		.cfi_def_cfa_offset 4
 596              		.cfi_offset 14, -4
 597 0002 89B0     		sub	sp, sp, #36
 598              		.cfi_def_cfa_offset 40
 599 0004 0390     		str	r0, [sp, #12]
 600 0006 0B46     		mov	r3, r1
 601 0008 0192     		str	r2, [sp, #4]
 602 000a 8DF80B30 		strb	r3, [sp, #11]
 603              		.loc 1 219 0
 604 000e 134B     		ldr	r3, .L50
 605 0010 1B68     		ldr	r3, [r3]
 606 0012 0793     		str	r3, [sp, #28]
 607              		.loc 1 220 0
 608 0014 0023     		movs	r3, #0
 609 0016 8DF81630 		strb	r3, [sp, #22]
 610              		.loc 1 224 0
 611 001a 039B     		ldr	r3, [sp, #12]
 612 001c 93F8BF31 		ldrb	r3, [r3, #447]
 613 0020 8DF81730 		strb	r3, [sp, #23]
 614              		.loc 1 226 0
 615 0024 9DF80B10 		ldrb	r1, [sp, #11]	@ zero_extendqisi2
 616 0028 9DF81730 		ldrb	r3, [sp, #23]	@ zero_extendqisi2
 617 002c 019A     		ldr	r2, [sp, #4]
 618 002e 1846     		mov	r0, r3
 619 0030 FFF7FEFF 		bl	VL53L0X_read_word
 620 0034 0690     		str	r0, [sp, #24]
 621              		.loc 1 228 0
 622 0036 069B     		ldr	r3, [sp, #24]
 623 0038 002B     		cmp	r3, #0
 624 003a 02D0     		beq	.L47
 625              		.loc 1 229 0
 626 003c EC23     		movs	r3, #236
 627 003e 8DF81630 		strb	r3, [sp, #22]
ARM GAS  C:\Users\PCHAUT~1\AppData\Local\Temp\ccxsUwnU.s 			page 12


 628              	.L47:
 629              		.loc 1 231 0
 630 0042 9DF91630 		ldrsb	r3, [sp, #22]
 631              		.loc 1 232 0
 632 0046 1846     		mov	r0, r3
 633 0048 044B     		ldr	r3, .L50
 634 004a 079A     		ldr	r2, [sp, #28]
 635 004c 1B68     		ldr	r3, [r3]
 636 004e 9A42     		cmp	r2, r3
 637 0050 01D0     		beq	.L49
 638 0052 FFF7FEFF 		bl	__stack_chk_fail
 639              	.L49:
 640 0056 09B0     		add	sp, sp, #36
 641              		.cfi_def_cfa_offset 4
 642              		@ sp needed
 643 0058 5DF804FB 		ldr	pc, [sp], #4
 644              	.L51:
 645              		.align	2
 646              	.L50:
 647 005c 00000000 		.word	__stack_chk_guard
 648              		.cfi_endproc
 649              	.LFE10:
 650              		.size	VL53L0X_RdWord, .-VL53L0X_RdWord
 651              		.section	.text.VL53L0X_RdDWord,"ax",%progbits
 652              		.align	1
 653              		.p2align 4,,15
 654              		.global	VL53L0X_RdDWord
 655              		.syntax unified
 656              		.thumb
 657              		.thumb_func
 658              		.fpu fpv4-sp-d16
 659              		.type	VL53L0X_RdDWord, %function
 660              	VL53L0X_RdDWord:
 661              	.LFB11:
 662              		.loc 1 234 0
 663              		.cfi_startproc
 664              		@ args = 0, pretend = 0, frame = 32
 665              		@ frame_needed = 0, uses_anonymous_args = 0
 666 0000 00B5     		push	{lr}
 667              		.cfi_def_cfa_offset 4
 668              		.cfi_offset 14, -4
 669 0002 89B0     		sub	sp, sp, #36
 670              		.cfi_def_cfa_offset 40
 671 0004 0390     		str	r0, [sp, #12]
 672 0006 0B46     		mov	r3, r1
 673 0008 0192     		str	r2, [sp, #4]
 674 000a 8DF80B30 		strb	r3, [sp, #11]
 675              		.loc 1 234 0
 676 000e 134B     		ldr	r3, .L56
 677 0010 1B68     		ldr	r3, [r3]
 678 0012 0793     		str	r3, [sp, #28]
 679              		.loc 1 235 0
 680 0014 0023     		movs	r3, #0
 681 0016 8DF81630 		strb	r3, [sp, #22]
 682              		.loc 1 239 0
 683 001a 039B     		ldr	r3, [sp, #12]
 684 001c 93F8BF31 		ldrb	r3, [r3, #447]
ARM GAS  C:\Users\PCHAUT~1\AppData\Local\Temp\ccxsUwnU.s 			page 13


 685 0020 8DF81730 		strb	r3, [sp, #23]
 686              		.loc 1 241 0
 687 0024 9DF80B10 		ldrb	r1, [sp, #11]	@ zero_extendqisi2
 688 0028 9DF81730 		ldrb	r3, [sp, #23]	@ zero_extendqisi2
 689 002c 019A     		ldr	r2, [sp, #4]
 690 002e 1846     		mov	r0, r3
 691 0030 FFF7FEFF 		bl	VL53L0X_read_dword
 692 0034 0690     		str	r0, [sp, #24]
 693              		.loc 1 243 0
 694 0036 069B     		ldr	r3, [sp, #24]
 695 0038 002B     		cmp	r3, #0
 696 003a 02D0     		beq	.L53
 697              		.loc 1 244 0
 698 003c EC23     		movs	r3, #236
 699 003e 8DF81630 		strb	r3, [sp, #22]
 700              	.L53:
 701              		.loc 1 246 0
 702 0042 9DF91630 		ldrsb	r3, [sp, #22]
 703              		.loc 1 247 0
 704 0046 1846     		mov	r0, r3
 705 0048 044B     		ldr	r3, .L56
 706 004a 079A     		ldr	r2, [sp, #28]
 707 004c 1B68     		ldr	r3, [r3]
 708 004e 9A42     		cmp	r2, r3
 709 0050 01D0     		beq	.L55
 710 0052 FFF7FEFF 		bl	__stack_chk_fail
 711              	.L55:
 712 0056 09B0     		add	sp, sp, #36
 713              		.cfi_def_cfa_offset 4
 714              		@ sp needed
 715 0058 5DF804FB 		ldr	pc, [sp], #4
 716              	.L57:
 717              		.align	2
 718              	.L56:
 719 005c 00000000 		.word	__stack_chk_guard
 720              		.cfi_endproc
 721              	.LFE11:
 722              		.size	VL53L0X_RdDWord, .-VL53L0X_RdDWord
 723              		.section	.text.VL53L0X_PollingDelay,"ax",%progbits
 724              		.align	1
 725              		.p2align 4,,15
 726              		.global	VL53L0X_PollingDelay
 727              		.syntax unified
 728              		.thumb
 729              		.thumb_func
 730              		.fpu fpv4-sp-d16
 731              		.type	VL53L0X_PollingDelay, %function
 732              	VL53L0X_PollingDelay:
 733              	.LFB12:
 734              		.loc 1 250 0
 735              		.cfi_startproc
 736              		@ args = 0, pretend = 0, frame = 24
 737              		@ frame_needed = 0, uses_anonymous_args = 0
 738 0000 00B5     		push	{lr}
 739              		.cfi_def_cfa_offset 4
 740              		.cfi_offset 14, -4
 741 0002 87B0     		sub	sp, sp, #28
ARM GAS  C:\Users\PCHAUT~1\AppData\Local\Temp\ccxsUwnU.s 			page 14


 742              		.cfi_def_cfa_offset 32
 743 0004 0190     		str	r0, [sp, #4]
 744              		.loc 1 250 0
 745 0006 0E4B     		ldr	r3, .L63
 746 0008 1B68     		ldr	r3, [r3]
 747 000a 0593     		str	r3, [sp, #20]
 748              		.loc 1 252 0
 749 000c 0023     		movs	r3, #0
 750 000e 8DF80F30 		strb	r3, [sp, #15]
 751              		.loc 1 256 0
 752 0012 0023     		movs	r3, #0
 753 0014 0493     		str	r3, [sp, #16]
 754 0016 03E0     		b	.L59
 755              	.L60:
 756              		.loc 1 258 0 discriminator 3
 757              		.syntax unified
 758              	@ 258 "../lib/e-puck2_main-processor/src/sensors/VL53L0X/Api/platform/src/vl53l0x_platform.c" 1
 759 0018 00BF     		nop
 760              	@ 0 "" 2
 761              		.loc 1 256 0 discriminator 3
 762              		.thumb
 763              		.syntax unified
 764 001a 049B     		ldr	r3, [sp, #16]
 765 001c 0133     		adds	r3, r3, #1
 766 001e 0493     		str	r3, [sp, #16]
 767              	.L59:
 768              		.loc 1 256 0 is_stmt 0 discriminator 1
 769 0020 049B     		ldr	r3, [sp, #16]
 770 0022 F92B     		cmp	r3, #249
 771 0024 F8D9     		bls	.L60
 772              		.loc 1 262 0 is_stmt 1
 773 0026 9DF90F30 		ldrsb	r3, [sp, #15]
 774              		.loc 1 263 0
 775 002a 1846     		mov	r0, r3
 776 002c 044B     		ldr	r3, .L63
 777 002e 059A     		ldr	r2, [sp, #20]
 778 0030 1B68     		ldr	r3, [r3]
 779 0032 9A42     		cmp	r2, r3
 780 0034 01D0     		beq	.L62
 781 0036 FFF7FEFF 		bl	__stack_chk_fail
 782              	.L62:
 783 003a 07B0     		add	sp, sp, #28
 784              		.cfi_def_cfa_offset 4
 785              		@ sp needed
 786 003c 5DF804FB 		ldr	pc, [sp], #4
 787              	.L64:
 788              		.align	2
 789              	.L63:
 790 0040 00000000 		.word	__stack_chk_guard
 791              		.cfi_endproc
 792              	.LFE12:
 793              		.size	VL53L0X_PollingDelay, .-VL53L0X_PollingDelay
 794              		.text
 795              	.Letext0:
 796              		.file 2 "c:\\users\\pchautems\\documents\\robotiquetp\\eclipse_e-puck2\\tools\\gcc-arm-none-eabi-7
 797              		.file 3 "c:\\users\\pchautems\\documents\\robotiquetp\\eclipse_e-puck2\\tools\\gcc-arm-none-eabi-7
 798              		.file 4 "../lib/e-puck2_main-processor/src/sensors/VL53L0X/Api/platform/src/../inc/../../core/inc/
ARM GAS  C:\Users\PCHAUT~1\AppData\Local\Temp\ccxsUwnU.s 			page 15


 799              		.file 5 "../lib/e-puck2_main-processor/src/sensors/VL53L0X/Api/platform/src/../inc/../../core/inc/
 800              		.file 6 "../lib/e-puck2_main-processor/src/sensors/VL53L0X/Api/platform/src/../inc/../../core/inc/
 801              		.file 7 "c:\\users\\pchautems\\documents\\robotiquetp\\eclipse_e-puck2\\tools\\gcc-arm-none-eabi-7
 802              		.file 8 "c:\\users\\pchautems\\documents\\robotiquetp\\eclipse_e-puck2\\tools\\gcc-arm-none-eabi-7
 803              		.file 9 "c:\\users\\pchautems\\documents\\robotiquetp\\eclipse_e-puck2\\tools\\gcc-arm-none-eabi-7
 804              		.file 10 "c:\\users\\pchautems\\documents\\robotiquetp\\eclipse_e-puck2\\tools\\gcc-arm-none-eabi-
 805              		.file 11 "../lib/e-puck2_main-processor/src/sensors/VL53L0X/Api/platform/src/../inc/vl53l0x_platfo