ARM GAS  C:\Users\PCHAUT~1\AppData\Local\Temp\ccYc6BCi.s 			page 1


   1              		.cpu cortex-m4
   2              		.eabi_attribute 27, 1
   3              		.eabi_attribute 28, 1
   4              		.eabi_attribute 20, 1
   5              		.eabi_attribute 21, 1
   6              		.eabi_attribute 23, 3
   7              		.eabi_attribute 24, 1
   8              		.eabi_attribute 25, 1
   9              		.eabi_attribute 26, 1
  10              		.eabi_attribute 30, 6
  11              		.eabi_attribute 34, 1
  12              		.eabi_attribute 18, 4
  13              		.file	"vl53l0x_api_calibration.c"
  14              		.text
  15              	.Ltext0:
  16              		.cfi_sections	.debug_frame
  17              		.global	refArrayQuadrants
  18              		.section	.data.refArrayQuadrants,"aw",%progbits
  19              		.align	2
  20              		.type	refArrayQuadrants, %object
  21              		.size	refArrayQuadrants, 16
  22              	refArrayQuadrants:
  23 0000 0A000000 		.word	10
  24 0004 05000000 		.word	5
  25 0008 00000000 		.word	0
  26 000c 05000000 		.word	5
  27              		.section	.text.VL53L0X_perform_xtalk_calibration,"ax",%progbits
  28              		.align	1
  29              		.p2align 4,,15
  30              		.global	VL53L0X_perform_xtalk_calibration
  31              		.syntax unified
  32              		.thumb
  33              		.thumb_func
  34              		.fpu fpv4-sp-d16
  35              		.type	VL53L0X_perform_xtalk_calibration, %function
  36              	VL53L0X_perform_xtalk_calibration:
  37              	.LFB3:
  38              		.file 1 "../lib/e-puck2_main-processor/src/sensors/VL53L0X/Api/core/src/vl53l0x_api_calibration.c"
  39              		.loc 1 54 0
  40              		.cfi_startproc
  41              		@ args = 0, pretend = 0, frame = 96
  42              		@ frame_needed = 0, uses_anonymous_args = 0
  43 0000 00B5     		push	{lr}
  44              		.cfi_def_cfa_offset 4
  45              		.cfi_offset 14, -4
  46 0002 99B0     		sub	sp, sp, #100
  47              		.cfi_def_cfa_offset 104
  48 0004 0390     		str	r0, [sp, #12]
  49 0006 0291     		str	r1, [sp, #8]
  50 0008 0192     		str	r2, [sp, #4]
  51              		.loc 1 54 0
  52 000a 744B     		ldr	r3, .L19
  53 000c 1B68     		ldr	r3, [r3]
  54 000e 1793     		str	r3, [sp, #92]
  55              		.loc 1 55 0
  56 0010 0023     		movs	r3, #0
  57 0012 8DF81630 		strb	r3, [sp, #22]
ARM GAS  C:\Users\PCHAUT~1\AppData\Local\Temp\ccYc6BCi.s 			page 2


  58              		.loc 1 56 0
  59 0016 0023     		movs	r3, #0
  60 0018 ADF81830 		strh	r3, [sp, #24]	@ movhi
  61              		.loc 1 57 0
  62 001c 0023     		movs	r3, #0
  63 001e ADF81A30 		strh	r3, [sp, #26]	@ movhi
  64              		.loc 1 58 0
  65 0022 0023     		movs	r3, #0
  66 0024 0793     		str	r3, [sp, #28]
  67              		.loc 1 59 0
  68 0026 0023     		movs	r3, #0
  69 0028 0893     		str	r3, [sp, #32]
  70              		.loc 1 60 0
  71 002a 0023     		movs	r3, #0
  72 002c 8DF81730 		strb	r3, [sp, #23]
  73              		.loc 1 70 0
  74 0030 029B     		ldr	r3, [sp, #8]
  75 0032 002B     		cmp	r3, #0
  76 0034 02D1     		bne	.L2
  77              		.loc 1 71 0
  78 0036 FC23     		movs	r3, #252
  79 0038 8DF81630 		strb	r3, [sp, #22]
  80              	.L2:
  81              		.loc 1 74 0
  82 003c 9DF91630 		ldrsb	r3, [sp, #22]
  83 0040 002B     		cmp	r3, #0
  84 0042 06D1     		bne	.L3
  85              		.loc 1 75 0
  86 0044 0021     		movs	r1, #0
  87 0046 0398     		ldr	r0, [sp, #12]
  88 0048 FFF7FEFF 		bl	VL53L0X_SetXTalkCompensationEnable
  89 004c 0346     		mov	r3, r0
  90 004e 8DF81630 		strb	r3, [sp, #22]
  91              	.L3:
  92              		.loc 1 78 0
  93 0052 9DF91630 		ldrsb	r3, [sp, #22]
  94 0056 002B     		cmp	r3, #0
  95 0058 07D1     		bne	.L4
  96              		.loc 1 79 0
  97 005a 0022     		movs	r2, #0
  98 005c 0321     		movs	r1, #3
  99 005e 0398     		ldr	r0, [sp, #12]
 100 0060 FFF7FEFF 		bl	VL53L0X_SetLimitCheckEnable
 101 0064 0346     		mov	r3, r0
 102 0066 8DF81630 		strb	r3, [sp, #22]
 103              	.L4:
 104              		.loc 1 84 0
 105 006a 9DF91630 		ldrsb	r3, [sp, #22]
 106 006e 002B     		cmp	r3, #0
 107 0070 45D1     		bne	.L5
 108              		.loc 1 85 0
 109 0072 0023     		movs	r3, #0
 110 0074 ADF81830 		strh	r3, [sp, #24]	@ movhi
 111              		.loc 1 86 0
 112 0078 0023     		movs	r3, #0
 113 007a ADF81A30 		strh	r3, [sp, #26]	@ movhi
 114              		.loc 1 87 0
ARM GAS  C:\Users\PCHAUT~1\AppData\Local\Temp\ccYc6BCi.s 			page 3


 115 007e 0023     		movs	r3, #0
 116 0080 0793     		str	r3, [sp, #28]
 117              		.loc 1 88 0
 118 0082 0023     		movs	r3, #0
 119 0084 0893     		str	r3, [sp, #32]
 120              		.loc 1 89 0
 121 0086 0023     		movs	r3, #0
 122 0088 8DF81730 		strb	r3, [sp, #23]
 123 008c 2BE0     		b	.L6
 124              	.L10:
 125              		.loc 1 90 0
 126 008e 10AB     		add	r3, sp, #64
 127 0090 1946     		mov	r1, r3
 128 0092 0398     		ldr	r0, [sp, #12]
 129 0094 FFF7FEFF 		bl	VL53L0X_PerformSingleRangingMeasurement
 130 0098 0346     		mov	r3, r0
 131 009a 8DF81630 		strb	r3, [sp, #22]
 132              		.loc 1 93 0
 133 009e 9DF91630 		ldrsb	r3, [sp, #22]
 134 00a2 002B     		cmp	r3, #0
 135 00a4 24D1     		bne	.L18
 136              		.loc 1 97 0
 137 00a6 9DF85830 		ldrb	r3, [sp, #88]	@ zero_extendqisi2
 138 00aa 002B     		cmp	r3, #0
 139 00ac 16D1     		bne	.L9
 140              		.loc 1 99 0
 141 00ae BDF84820 		ldrh	r2, [sp, #72]
 142              		.loc 1 98 0
 143 00b2 BDF81830 		ldrh	r3, [sp, #24]	@ movhi
 144 00b6 1344     		add	r3, r3, r2
 145 00b8 ADF81830 		strh	r3, [sp, #24]	@ movhi
 146              		.loc 1 101 0
 147 00bc 139B     		ldr	r3, [sp, #76]
 148              		.loc 1 100 0
 149 00be 079A     		ldr	r2, [sp, #28]
 150 00c0 1344     		add	r3, r3, r2
 151 00c2 0793     		str	r3, [sp, #28]
 152              		.loc 1 103 0
 153 00c4 BDF85430 		ldrh	r3, [sp, #84]
 154              		.loc 1 102 0
 155 00c8 1B0A     		lsrs	r3, r3, #8
 156 00ca 9AB2     		uxth	r2, r3
 157 00cc BDF81A30 		ldrh	r3, [sp, #26]	@ movhi
 158 00d0 1344     		add	r3, r3, r2
 159 00d2 ADF81A30 		strh	r3, [sp, #26]	@ movhi
 160              		.loc 1 105 0
 161 00d6 089B     		ldr	r3, [sp, #32]
 162 00d8 0133     		adds	r3, r3, #1
 163 00da 0893     		str	r3, [sp, #32]
 164              	.L9:
 165              		.loc 1 89 0 discriminator 2
 166 00dc 9DF81730 		ldrb	r3, [sp, #23]	@ zero_extendqisi2
 167 00e0 0133     		adds	r3, r3, #1
 168 00e2 8DF81730 		strb	r3, [sp, #23]
 169              	.L6:
 170              		.loc 1 89 0 is_stmt 0 discriminator 1
 171 00e6 9DF81730 		ldrb	r3, [sp, #23]	@ zero_extendqisi2
ARM GAS  C:\Users\PCHAUT~1\AppData\Local\Temp\ccYc6BCi.s 			page 4


 172 00ea 312B     		cmp	r3, #49
 173 00ec CFD9     		bls	.L10
 174 00ee 00E0     		b	.L8
 175              	.L18:
 176              		.loc 1 94 0 is_stmt 1
 177 00f0 00BF     		nop
 178              	.L8:
 179              		.loc 1 110 0
 180 00f2 089B     		ldr	r3, [sp, #32]
 181 00f4 002B     		cmp	r3, #0
 182 00f6 02D1     		bne	.L5
 183              		.loc 1 111 0
 184 00f8 FA23     		movs	r3, #250
 185 00fa 8DF81630 		strb	r3, [sp, #22]
 186              	.L5:
 187              		.loc 1 116 0
 188 00fe 9DF91630 		ldrsb	r3, [sp, #22]
 189 0102 002B     		cmp	r3, #0
 190 0104 5DD1     		bne	.L11
 191              		.loc 1 118 0
 192 0106 079A     		ldr	r2, [sp, #28]
 193 0108 089B     		ldr	r3, [sp, #32]
 194 010a B2FBF3F3 		udiv	r3, r2, r3
 195 010e 0A93     		str	r3, [sp, #40]
 196              		.loc 1 120 0
 197 0110 BDF81830 		ldrh	r3, [sp, #24]
 198 0114 1B04     		lsls	r3, r3, #16
 199              		.loc 1 119 0
 200 0116 1A46     		mov	r2, r3
 201 0118 089B     		ldr	r3, [sp, #32]
 202 011a B2FBF3F3 		udiv	r3, r2, r3
 203 011e 0B93     		str	r3, [sp, #44]
 204              		.loc 1 122 0
 205 0120 BDF81A30 		ldrh	r3, [sp, #26]
 206 0124 1B04     		lsls	r3, r3, #16
 207              		.loc 1 121 0
 208 0126 1A46     		mov	r2, r3
 209 0128 089B     		ldr	r3, [sp, #32]
 210 012a B2FBF3F3 		udiv	r3, r2, r3
 211 012e 0C93     		str	r3, [sp, #48]
 212              		.loc 1 135 0
 213 0130 0C9B     		ldr	r3, [sp, #48]
 214 0132 03F50043 		add	r3, r3, #32768
 215 0136 1B0C     		lsrs	r3, r3, #16
 216 0138 0D93     		str	r3, [sp, #52]
 217              		.loc 1 141 0
 218 013a 029B     		ldr	r3, [sp, #8]
 219 013c 03F50043 		add	r3, r3, #32768
 220 0140 1B0C     		lsrs	r3, r3, #16
 221 0142 0E93     		str	r3, [sp, #56]
 222              		.loc 1 143 0
 223 0144 0D9B     		ldr	r3, [sp, #52]
 224 0146 002B     		cmp	r3, #0
 225 0148 06D0     		beq	.L12
 226              		.loc 1 143 0 is_stmt 0 discriminator 1
 227 014a 0E9B     		ldr	r3, [sp, #56]
 228 014c 002B     		cmp	r3, #0
ARM GAS  C:\Users\PCHAUT~1\AppData\Local\Temp\ccYc6BCi.s 			page 5


 229 014e 03D0     		beq	.L12
 230              		.loc 1 144 0 is_stmt 1
 231 0150 0B9A     		ldr	r2, [sp, #44]
 232 0152 029B     		ldr	r3, [sp, #8]
 233 0154 9A42     		cmp	r2, r3
 234 0156 02D3     		bcc	.L13
 235              	.L12:
 236              		.loc 1 146 0
 237 0158 0023     		movs	r3, #0
 238 015a 0993     		str	r3, [sp, #36]
 239 015c 18E0     		b	.L14
 240              	.L13:
 241              		.loc 1 151 0
 242 015e 029B     		ldr	r3, [sp, #8]
 243 0160 03F50043 		add	r3, r3, #32768
 244 0164 1B0C     		lsrs	r3, r3, #16
 245 0166 0E93     		str	r3, [sp, #56]
 246              		.loc 1 158 0
 247 0168 0A9A     		ldr	r2, [sp, #40]
 248 016a 0D9B     		ldr	r3, [sp, #52]
 249 016c B2FBF3F3 		udiv	r3, r2, r3
 250 0170 0F93     		str	r3, [sp, #60]
 251              		.loc 1 167 0
 252 0172 0B9A     		ldr	r2, [sp, #44]
 253 0174 0E9B     		ldr	r3, [sp, #56]
 254 0176 B2FBF3F3 		udiv	r3, r2, r3
 255              		.loc 1 166 0
 256 017a C3F58032 		rsb	r2, r3, #65536
 257 017e 0F9B     		ldr	r3, [sp, #60]
 258 0180 02FB03F3 		mul	r3, r2, r3
 259 0184 0F93     		str	r3, [sp, #60]
 260              		.loc 1 171 0
 261 0186 0F9B     		ldr	r3, [sp, #60]
 262 0188 03F50043 		add	r3, r3, #32768
 263              		.loc 1 170 0
 264 018c 1B0C     		lsrs	r3, r3, #16
 265 018e 0993     		str	r3, [sp, #36]
 266              	.L14:
 267              		.loc 1 174 0
 268 0190 019B     		ldr	r3, [sp, #4]
 269 0192 099A     		ldr	r2, [sp, #36]
 270 0194 1A60     		str	r2, [r3]
 271              		.loc 1 177 0
 272 0196 9DF91630 		ldrsb	r3, [sp, #22]
 273 019a 002B     		cmp	r3, #0
 274 019c 06D1     		bne	.L15
 275              		.loc 1 178 0
 276 019e 0121     		movs	r1, #1
 277 01a0 0398     		ldr	r0, [sp, #12]
 278 01a2 FFF7FEFF 		bl	VL53L0X_SetXTalkCompensationEnable
 279 01a6 0346     		mov	r3, r0
 280 01a8 8DF81630 		strb	r3, [sp, #22]
 281              	.L15:
 282              		.loc 1 181 0
 283 01ac 9DF91630 		ldrsb	r3, [sp, #22]
 284 01b0 002B     		cmp	r3, #0
 285 01b2 06D1     		bne	.L11
ARM GAS  C:\Users\PCHAUT~1\AppData\Local\Temp\ccYc6BCi.s 			page 6


 286              		.loc 1 182 0
 287 01b4 0999     		ldr	r1, [sp, #36]
 288 01b6 0398     		ldr	r0, [sp, #12]
 289 01b8 FFF7FEFF 		bl	VL53L0X_SetXTalkCompensationRateMegaCps
 290 01bc 0346     		mov	r3, r0
 291 01be 8DF81630 		strb	r3, [sp, #22]
 292              	.L11:
 293              		.loc 1 187 0
 294 01c2 9DF91630 		ldrsb	r3, [sp, #22]
 295              		.loc 1 188 0
 296 01c6 1846     		mov	r0, r3
 297 01c8 044B     		ldr	r3, .L19
 298 01ca 179A     		ldr	r2, [sp, #92]
 299 01cc 1B68     		ldr	r3, [r3]
 300 01ce 9A42     		cmp	r2, r3
 301 01d0 01D0     		beq	.L17
 302 01d2 FFF7FEFF 		bl	__stack_chk_fail
 303              	.L17:
 304 01d6 19B0     		add	sp, sp, #100
 305              		.cfi_def_cfa_offset 4
 306              		@ sp needed
 307 01d8 5DF804FB 		ldr	pc, [sp], #4
 308              	.L20:
 309              		.align	2
 310              	.L19:
 311 01dc 00000000 		.word	__stack_chk_guard
 312              		.cfi_endproc
 313              	.LFE3:
 314              		.size	VL53L0X_perform_xtalk_calibration, .-VL53L0X_perform_xtalk_calibration
 315              		.section	.text.VL53L0X_perform_offset_calibration,"ax",%progbits
 316              		.align	1
 317              		.p2align 4,,15
 318              		.global	VL53L0X_perform_offset_calibration
 319              		.syntax unified
 320              		.thumb
 321              		.thumb_func
 322              		.fpu fpv4-sp-d16
 323              		.type	VL53L0X_perform_offset_calibration, %function
 324              	VL53L0X_perform_offset_calibration:
 325              	.LFB4:
 326              		.loc 1 193 0
 327              		.cfi_startproc
 328              		@ args = 0, pretend = 0, frame = 72
 329              		@ frame_needed = 0, uses_anonymous_args = 0
 330 0000 00B5     		push	{lr}
 331              		.cfi_def_cfa_offset 4
 332              		.cfi_offset 14, -4
 333 0002 93B0     		sub	sp, sp, #76
 334              		.cfi_def_cfa_offset 80
 335 0004 0390     		str	r0, [sp, #12]
 336 0006 0291     		str	r1, [sp, #8]
 337 0008 0192     		str	r2, [sp, #4]
 338              		.loc 1 193 0
 339 000a 624B     		ldr	r3, .L38
 340 000c 1B68     		ldr	r3, [r3]
 341 000e 1193     		str	r3, [sp, #68]
 342              		.loc 1 194 0
ARM GAS  C:\Users\PCHAUT~1\AppData\Local\Temp\ccYc6BCi.s 			page 7


 343 0010 0023     		movs	r3, #0
 344 0012 8DF81130 		strb	r3, [sp, #17]
 345              		.loc 1 195 0
 346 0016 0023     		movs	r3, #0
 347 0018 ADF81230 		strh	r3, [sp, #18]	@ movhi
 348              		.loc 1 196 0
 349 001c 0023     		movs	r3, #0
 350 001e 0593     		str	r3, [sp, #20]
 351              		.loc 1 202 0
 352 0020 0023     		movs	r3, #0
 353 0022 0693     		str	r3, [sp, #24]
 354              		.loc 1 204 0
 355 0024 029B     		ldr	r3, [sp, #8]
 356 0026 002B     		cmp	r3, #0
 357 0028 02D1     		bne	.L22
 358              		.loc 1 205 0
 359 002a FC23     		movs	r3, #252
 360 002c 8DF81130 		strb	r3, [sp, #17]
 361              	.L22:
 362              		.loc 1 207 0
 363 0030 9DF91130 		ldrsb	r3, [sp, #17]
 364 0034 002B     		cmp	r3, #0
 365 0036 06D1     		bne	.L23
 366              		.loc 1 208 0
 367 0038 0021     		movs	r1, #0
 368 003a 0398     		ldr	r0, [sp, #12]
 369 003c FFF7FEFF 		bl	VL53L0X_SetOffsetCalibrationDataMicroMeter
 370 0040 0346     		mov	r3, r0
 371 0042 8DF81130 		strb	r3, [sp, #17]
 372              	.L23:
 373              		.loc 1 212 0
 374 0046 9DF91130 		ldrsb	r3, [sp, #17]
 375 004a 002B     		cmp	r3, #0
 376 004c 08D1     		bne	.L24
 377              		.loc 1 213 0
 378 004e 04AB     		add	r3, sp, #16
 379 0050 1A46     		mov	r2, r3
 380 0052 0021     		movs	r1, #0
 381 0054 0398     		ldr	r0, [sp, #12]
 382 0056 FFF7FEFF 		bl	VL53L0X_GetSequenceStepEnable
 383 005a 0346     		mov	r3, r0
 384 005c 8DF81130 		strb	r3, [sp, #17]
 385              	.L24:
 386              		.loc 1 218 0
 387 0060 9DF91130 		ldrsb	r3, [sp, #17]
 388 0064 002B     		cmp	r3, #0
 389 0066 07D1     		bne	.L25
 390              		.loc 1 219 0
 391 0068 0022     		movs	r2, #0
 392 006a 0021     		movs	r1, #0
 393 006c 0398     		ldr	r0, [sp, #12]
 394 006e FFF7FEFF 		bl	VL53L0X_SetSequenceStepEnable
 395 0072 0346     		mov	r3, r0
 396 0074 8DF81130 		strb	r3, [sp, #17]
 397              	.L25:
 398              		.loc 1 224 0
 399 0078 9DF91130 		ldrsb	r3, [sp, #17]
ARM GAS  C:\Users\PCHAUT~1\AppData\Local\Temp\ccYc6BCi.s 			page 8


 400 007c 002B     		cmp	r3, #0
 401 007e 07D1     		bne	.L26
 402              		.loc 1 225 0
 403 0080 0022     		movs	r2, #0
 404 0082 0321     		movs	r1, #3
 405 0084 0398     		ldr	r0, [sp, #12]
 406 0086 FFF7FEFF 		bl	VL53L0X_SetLimitCheckEnable
 407 008a 0346     		mov	r3, r0
 408 008c 8DF81130 		strb	r3, [sp, #17]
 409              	.L26:
 410              		.loc 1 229 0
 411 0090 9DF91130 		ldrsb	r3, [sp, #17]
 412 0094 002B     		cmp	r3, #0
 413 0096 2FD1     		bne	.L27
 414              		.loc 1 230 0
 415 0098 0023     		movs	r3, #0
 416 009a ADF81230 		strh	r3, [sp, #18]	@ movhi
 417              		.loc 1 231 0
 418 009e 0023     		movs	r3, #0
 419 00a0 0593     		str	r3, [sp, #20]
 420              		.loc 1 232 0
 421 00a2 0023     		movs	r3, #0
 422 00a4 0693     		str	r3, [sp, #24]
 423 00a6 1CE0     		b	.L28
 424              	.L32:
 425              		.loc 1 233 0
 426 00a8 0AAB     		add	r3, sp, #40
 427 00aa 1946     		mov	r1, r3
 428 00ac 0398     		ldr	r0, [sp, #12]
 429 00ae FFF7FEFF 		bl	VL53L0X_PerformSingleRangingMeasurement
 430 00b2 0346     		mov	r3, r0
 431 00b4 8DF81130 		strb	r3, [sp, #17]
 432              		.loc 1 236 0
 433 00b8 9DF91130 		ldrsb	r3, [sp, #17]
 434 00bc 002B     		cmp	r3, #0
 435 00be 14D1     		bne	.L37
 436              		.loc 1 240 0
 437 00c0 9DF84030 		ldrb	r3, [sp, #64]	@ zero_extendqisi2
 438 00c4 002B     		cmp	r3, #0
 439 00c6 09D1     		bne	.L31
 440              		.loc 1 242 0
 441 00c8 BDF83020 		ldrh	r2, [sp, #48]
 442              		.loc 1 241 0
 443 00cc BDF81230 		ldrh	r3, [sp, #18]	@ movhi
 444 00d0 1344     		add	r3, r3, r2
 445 00d2 ADF81230 		strh	r3, [sp, #18]	@ movhi
 446              		.loc 1 243 0
 447 00d6 059B     		ldr	r3, [sp, #20]
 448 00d8 0133     		adds	r3, r3, #1
 449 00da 0593     		str	r3, [sp, #20]
 450              	.L31:
 451              		.loc 1 232 0 discriminator 2
 452 00dc 069B     		ldr	r3, [sp, #24]
 453 00de 0133     		adds	r3, r3, #1
 454 00e0 0693     		str	r3, [sp, #24]
 455              	.L28:
 456              		.loc 1 232 0 is_stmt 0 discriminator 1
ARM GAS  C:\Users\PCHAUT~1\AppData\Local\Temp\ccYc6BCi.s 			page 9


 457 00e2 069B     		ldr	r3, [sp, #24]
 458 00e4 312B     		cmp	r3, #49
 459 00e6 DFDD     		ble	.L32
 460 00e8 00E0     		b	.L30
 461              	.L37:
 462              		.loc 1 237 0 is_stmt 1
 463 00ea 00BF     		nop
 464              	.L30:
 465              		.loc 1 248 0
 466 00ec 059B     		ldr	r3, [sp, #20]
 467 00ee 002B     		cmp	r3, #0
 468 00f0 02D1     		bne	.L27
 469              		.loc 1 249 0
 470 00f2 FA23     		movs	r3, #250
 471 00f4 8DF81130 		strb	r3, [sp, #17]
 472              	.L27:
 473              		.loc 1 253 0
 474 00f8 9DF91130 		ldrsb	r3, [sp, #17]
 475 00fc 002B     		cmp	r3, #0
 476 00fe 2CD1     		bne	.L33
 477              		.loc 1 255 0
 478 0100 BDF81230 		ldrh	r3, [sp, #18]
 479 0104 1B04     		lsls	r3, r3, #16
 480 0106 1A46     		mov	r2, r3
 481 0108 059B     		ldr	r3, [sp, #20]
 482 010a B2FBF3F3 		udiv	r3, r2, r3
 483 010e 0793     		str	r3, [sp, #28]
 484              		.loc 1 258 0
 485 0110 079B     		ldr	r3, [sp, #28]
 486 0112 03F50043 		add	r3, r3, #32768
 487 0116 1B0C     		lsrs	r3, r3, #16
 488 0118 0893     		str	r3, [sp, #32]
 489              		.loc 1 263 0
 490 011a 029B     		ldr	r3, [sp, #8]
 491 011c 03F50043 		add	r3, r3, #32768
 492 0120 1B0C     		lsrs	r3, r3, #16
 493 0122 0993     		str	r3, [sp, #36]
 494              		.loc 1 265 0
 495 0124 099A     		ldr	r2, [sp, #36]
 496 0126 089B     		ldr	r3, [sp, #32]
 497 0128 D31A     		subs	r3, r2, r3
 498              		.loc 1 266 0
 499 012a 4FF47A72 		mov	r2, #1000
 500 012e 02FB03F3 		mul	r3, r2, r3
 501 0132 1A46     		mov	r2, r3
 502              		.loc 1 265 0
 503 0134 019B     		ldr	r3, [sp, #4]
 504 0136 1A60     		str	r2, [r3]
 505              		.loc 1 269 0
 506 0138 9DF91130 		ldrsb	r3, [sp, #17]
 507 013c 002B     		cmp	r3, #0
 508 013e 0CD1     		bne	.L33
 509              		.loc 1 270 0
 510 0140 019B     		ldr	r3, [sp, #4]
 511 0142 1A68     		ldr	r2, [r3]
 512 0144 039B     		ldr	r3, [sp, #12]
 513 0146 5A62     		str	r2, [r3, #36]
ARM GAS  C:\Users\PCHAUT~1\AppData\Local\Temp\ccYc6BCi.s 			page 10


 514              		.loc 1 272 0
 515 0148 019B     		ldr	r3, [sp, #4]
 516 014a 1B68     		ldr	r3, [r3]
 517 014c 1946     		mov	r1, r3
 518 014e 0398     		ldr	r0, [sp, #12]
 519 0150 FFF7FEFF 		bl	VL53L0X_SetOffsetCalibrationDataMicroMeter
 520 0154 0346     		mov	r3, r0
 521 0156 8DF81130 		strb	r3, [sp, #17]
 522              	.L33:
 523              		.loc 1 279 0
 524 015a 9DF91130 		ldrsb	r3, [sp, #17]
 525 015e 002B     		cmp	r3, #0
 526 0160 0BD1     		bne	.L34
 527              		.loc 1 280 0
 528 0162 9DF81030 		ldrb	r3, [sp, #16]	@ zero_extendqisi2
 529 0166 002B     		cmp	r3, #0
 530 0168 07D0     		beq	.L34
 531              		.loc 1 281 0
 532 016a 0122     		movs	r2, #1
 533 016c 0021     		movs	r1, #0
 534 016e 0398     		ldr	r0, [sp, #12]
 535 0170 FFF7FEFF 		bl	VL53L0X_SetSequenceStepEnable
 536 0174 0346     		mov	r3, r0
 537 0176 8DF81130 		strb	r3, [sp, #17]
 538              	.L34:
 539              		.loc 1 285 0
 540 017a 9DF91130 		ldrsb	r3, [sp, #17]
 541              		.loc 1 286 0
 542 017e 1846     		mov	r0, r3
 543 0180 044B     		ldr	r3, .L38
 544 0182 119A     		ldr	r2, [sp, #68]
 545 0184 1B68     		ldr	r3, [r3]
 546 0186 9A42     		cmp	r2, r3
 547 0188 01D0     		beq	.L36
 548 018a FFF7FEFF 		bl	__stack_chk_fail
 549              	.L36:
 550 018e 13B0     		add	sp, sp, #76
 551              		.cfi_def_cfa_offset 4
 552              		@ sp needed
 553 0190 5DF804FB 		ldr	pc, [sp], #4
 554              	.L39:
 555              		.align	2
 556              	.L38:
 557 0194 00000000 		.word	__stack_chk_guard
 558              		.cfi_endproc
 559              	.LFE4:
 560              		.size	VL53L0X_perform_offset_calibration, .-VL53L0X_perform_offset_calibration
 561              		.section	.text.VL53L0X_set_offset_calibration_data_micro_meter,"ax",%progbits
 562              		.align	1
 563              		.p2align 4,,15
 564              		.global	VL53L0X_set_offset_calibration_data_micro_meter
 565              		.syntax unified
 566              		.thumb
 567              		.thumb_func
 568              		.fpu fpv4-sp-d16
 569              		.type	VL53L0X_set_offset_calibration_data_micro_meter, %function
 570              	VL53L0X_set_offset_calibration_data_micro_meter:
ARM GAS  C:\Users\PCHAUT~1\AppData\Local\Temp\ccYc6BCi.s 			page 11


 571              	.LFB5:
 572              		.loc 1 291 0
 573              		.cfi_startproc
 574              		@ args = 0, pretend = 0, frame = 32
 575              		@ frame_needed = 0, uses_anonymous_args = 0
 576 0000 00B5     		push	{lr}
 577              		.cfi_def_cfa_offset 4
 578              		.cfi_offset 14, -4
 579 0002 89B0     		sub	sp, sp, #36
 580              		.cfi_def_cfa_offset 40
 581 0004 0190     		str	r0, [sp, #4]
 582 0006 0091     		str	r1, [sp]
 583              		.loc 1 291 0
 584 0008 244B     		ldr	r3, .L47
 585 000a 1B68     		ldr	r3, [r3]
 586 000c 0793     		str	r3, [sp, #28]
 587              		.loc 1 292 0
 588 000e 0023     		movs	r3, #0
 589 0010 8DF80D30 		strb	r3, [sp, #13]
 590              		.loc 1 293 0
 591 0014 224B     		ldr	r3, .L47+4
 592 0016 0593     		str	r3, [sp, #20]
 593              		.loc 1 294 0
 594 0018 224B     		ldr	r3, .L47+8
 595 001a 0693     		str	r3, [sp, #24]
 596              		.loc 1 295 0
 597 001c 4FF48053 		mov	r3, #4096
 598 0020 ADF80E30 		strh	r3, [sp, #14]	@ movhi
 599              		.loc 1 300 0
 600 0024 009A     		ldr	r2, [sp]
 601 0026 059B     		ldr	r3, [sp, #20]
 602 0028 9A42     		cmp	r2, r3
 603 002a 02DD     		ble	.L41
 604              		.loc 1 301 0
 605 002c 059B     		ldr	r3, [sp, #20]
 606 002e 0093     		str	r3, [sp]
 607 0030 05E0     		b	.L42
 608              	.L41:
 609              		.loc 1 302 0
 610 0032 009A     		ldr	r2, [sp]
 611 0034 069B     		ldr	r3, [sp, #24]
 612 0036 9A42     		cmp	r2, r3
 613 0038 01DA     		bge	.L42
 614              		.loc 1 303 0
 615 003a 069B     		ldr	r3, [sp, #24]
 616 003c 0093     		str	r3, [sp]
 617              	.L42:
 618              		.loc 1 309 0
 619 003e 009B     		ldr	r3, [sp]
 620 0040 002B     		cmp	r3, #0
 621 0042 08DB     		blt	.L43
 622              		.loc 1 311 0
 623 0044 009B     		ldr	r3, [sp]
 624 0046 184A     		ldr	r2, .L47+12
 625 0048 82FB0312 		smull	r1, r2, r2, r3
 626 004c 1211     		asrs	r2, r2, #4
 627 004e DB17     		asrs	r3, r3, #31
ARM GAS  C:\Users\PCHAUT~1\AppData\Local\Temp\ccYc6BCi.s 			page 12


 628 0050 D31A     		subs	r3, r2, r3
 629              		.loc 1 310 0
 630 0052 0493     		str	r3, [sp, #16]
 631 0054 0AE0     		b	.L44
 632              	.L43:
 633              		.loc 1 314 0
 634 0056 BDF90E20 		ldrsh	r2, [sp, #14]
 635              		.loc 1 315 0
 636 005a 009B     		ldr	r3, [sp]
 637 005c 1249     		ldr	r1, .L47+12
 638 005e 81FB0301 		smull	r0, r1, r1, r3
 639 0062 0911     		asrs	r1, r1, #4
 640 0064 DB17     		asrs	r3, r3, #31
 641 0066 CB1A     		subs	r3, r1, r3
 642              		.loc 1 314 0
 643 0068 1344     		add	r3, r3, r2
 644              		.loc 1 313 0
 645 006a 0493     		str	r3, [sp, #16]
 646              	.L44:
 647              		.loc 1 318 0
 648 006c 049B     		ldr	r3, [sp, #16]
 649 006e 9BB2     		uxth	r3, r3
 650 0070 1A46     		mov	r2, r3
 651 0072 2821     		movs	r1, #40
 652 0074 0198     		ldr	r0, [sp, #4]
 653 0076 FFF7FEFF 		bl	VL53L0X_WrWord
 654 007a 0346     		mov	r3, r0
 655 007c 8DF80D30 		strb	r3, [sp, #13]
 656              		.loc 1 323 0
 657 0080 9DF90D30 		ldrsb	r3, [sp, #13]
 658              		.loc 1 324 0
 659 0084 1846     		mov	r0, r3
 660 0086 054B     		ldr	r3, .L47
 661 0088 079A     		ldr	r2, [sp, #28]
 662 008a 1B68     		ldr	r3, [r3]
 663 008c 9A42     		cmp	r2, r3
 664 008e 01D0     		beq	.L46
 665 0090 FFF7FEFF 		bl	__stack_chk_fail
 666              	.L46:
 667 0094 09B0     		add	sp, sp, #36
 668              		.cfi_def_cfa_offset 4
 669              		@ sp needed
 670 0096 5DF804FB 		ldr	pc, [sp], #4
 671              	.L48:
 672 009a 00BF     		.align	2
 673              	.L47:
 674 009c 00000000 		.word	__stack_chk_guard
 675 00a0 18CC0700 		.word	511000
 676 00a4 0030F8FF 		.word	-512000
 677 00a8 D34D6210 		.word	274877907
 678              		.cfi_endproc
 679              	.LFE5:
 680              		.size	VL53L0X_set_offset_calibration_data_micro_meter, .-VL53L0X_set_offset_calibration_data_micro
 681              		.section	.text.VL53L0X_get_offset_calibration_data_micro_meter,"ax",%progbits
 682              		.align	1
 683              		.p2align 4,,15
 684              		.global	VL53L0X_get_offset_calibration_data_micro_meter
ARM GAS  C:\Users\PCHAUT~1\AppData\Local\Temp\ccYc6BCi.s 			page 13


 685              		.syntax unified
 686              		.thumb
 687              		.thumb_func
 688              		.fpu fpv4-sp-d16
 689              		.type	VL53L0X_get_offset_calibration_data_micro_meter, %function
 690              	VL53L0X_get_offset_calibration_data_micro_meter:
 691              	.LFB6:
 692              		.loc 1 328 0
 693              		.cfi_startproc
 694              		@ args = 0, pretend = 0, frame = 24
 695              		@ frame_needed = 0, uses_anonymous_args = 0
 696 0000 00B5     		push	{lr}
 697              		.cfi_def_cfa_offset 4
 698              		.cfi_offset 14, -4
 699 0002 87B0     		sub	sp, sp, #28
 700              		.cfi_def_cfa_offset 32
 701 0004 0190     		str	r0, [sp, #4]
 702 0006 0091     		str	r1, [sp]
 703              		.loc 1 328 0
 704 0008 264B     		ldr	r3, .L54
 705 000a 1B68     		ldr	r3, [r3]
 706 000c 0593     		str	r3, [sp, #20]
 707              		.loc 1 329 0
 708 000e 0023     		movs	r3, #0
 709 0010 8DF80D30 		strb	r3, [sp, #13]
 710              		.loc 1 331 0
 711 0014 40F2FF73 		movw	r3, #2047
 712 0018 ADF81030 		strh	r3, [sp, #16]	@ movhi
 713              		.loc 1 332 0
 714 001c 4FF48053 		mov	r3, #4096
 715 0020 ADF81230 		strh	r3, [sp, #18]	@ movhi
 716              		.loc 1 336 0
 717 0024 0DF10E03 		add	r3, sp, #14
 718 0028 1A46     		mov	r2, r3
 719 002a 2821     		movs	r1, #40
 720 002c 0198     		ldr	r0, [sp, #4]
 721 002e FFF7FEFF 		bl	VL53L0X_RdWord
 722 0032 0346     		mov	r3, r0
 723 0034 8DF80D30 		strb	r3, [sp, #13]
 724              		.loc 1 340 0
 725 0038 9DF90D30 		ldrsb	r3, [sp, #13]
 726 003c 002B     		cmp	r3, #0
 727 003e 24D1     		bne	.L50
 728              		.loc 1 341 0
 729 0040 BDF80E30 		ldrh	r3, [sp, #14]
 730 0044 C3F30B03 		ubfx	r3, r3, #0, #12
 731 0048 9BB2     		uxth	r3, r3
 732 004a ADF80E30 		strh	r3, [sp, #14]	@ movhi
 733              		.loc 1 344 0
 734 004e BDF80E30 		ldrh	r3, [sp, #14]
 735 0052 1A46     		mov	r2, r3
 736 0054 BDF91030 		ldrsh	r3, [sp, #16]
 737 0058 9A42     		cmp	r2, r3
 738 005a 0DDD     		ble	.L51
 739              		.loc 1 346 0
 740 005c BDF80E20 		ldrh	r2, [sp, #14]
 741 0060 BDF81230 		ldrh	r3, [sp, #18]
ARM GAS  C:\Users\PCHAUT~1\AppData\Local\Temp\ccYc6BCi.s 			page 14


 742 0064 D31A     		subs	r3, r2, r3
 743 0066 9BB2     		uxth	r3, r3
 744 0068 1BB2     		sxth	r3, r3
 745 006a 1A46     		mov	r2, r3
 746              		.loc 1 347 0
 747 006c FA23     		movs	r3, #250
 748 006e 03FB02F2 		mul	r2, r3, r2
 749              		.loc 1 345 0
 750 0072 009B     		ldr	r3, [sp]
 751 0074 1A60     		str	r2, [r3]
 752 0076 08E0     		b	.L50
 753              	.L51:
 754              		.loc 1 350 0
 755 0078 BDF80E30 		ldrh	r3, [sp, #14]
 756 007c 1BB2     		sxth	r3, r3
 757 007e 1A46     		mov	r2, r3
 758 0080 FA23     		movs	r3, #250
 759 0082 03FB02F2 		mul	r2, r3, r2
 760              		.loc 1 349 0
 761 0086 009B     		ldr	r3, [sp]
 762 0088 1A60     		str	r2, [r3]
 763              	.L50:
 764              		.loc 1 354 0
 765 008a 9DF90D30 		ldrsb	r3, [sp, #13]
 766              		.loc 1 355 0
 767 008e 1846     		mov	r0, r3
 768 0090 044B     		ldr	r3, .L54
 769 0092 059A     		ldr	r2, [sp, #20]
 770 0094 1B68     		ldr	r3, [r3]
 771 0096 9A42     		cmp	r2, r3
 772 0098 01D0     		beq	.L53
 773 009a FFF7FEFF 		bl	__stack_chk_fail
 774              	.L53:
 775 009e 07B0     		add	sp, sp, #28
 776              		.cfi_def_cfa_offset 4
 777              		@ sp needed
 778 00a0 5DF804FB 		ldr	pc, [sp], #4
 779              	.L55:
 780              		.align	2
 781              	.L54:
 782 00a4 00000000 		.word	__stack_chk_guard
 783              		.cfi_endproc
 784              	.LFE6:
 785              		.size	VL53L0X_get_offset_calibration_data_micro_meter, .-VL53L0X_get_offset_calibration_data_micro
 786              		.section	.text.VL53L0X_apply_offset_adjustment,"ax",%progbits
 787              		.align	1
 788              		.p2align 4,,15
 789              		.global	VL53L0X_apply_offset_adjustment
 790              		.syntax unified
 791              		.thumb
 792              		.thumb_func
 793              		.fpu fpv4-sp-d16
 794              		.type	VL53L0X_apply_offset_adjustment, %function
 795              	VL53L0X_apply_offset_adjustment:
 796              	.LFB7:
 797              		.loc 1 359 0
 798              		.cfi_startproc
ARM GAS  C:\Users\PCHAUT~1\AppData\Local\Temp\ccYc6BCi.s 			page 15


 799              		@ args = 0, pretend = 0, frame = 24
 800              		@ frame_needed = 0, uses_anonymous_args = 0
 801 0000 00B5     		push	{lr}
 802              		.cfi_def_cfa_offset 4
 803              		.cfi_offset 14, -4
 804 0002 87B0     		sub	sp, sp, #28
 805              		.cfi_def_cfa_offset 32
 806 0004 0190     		str	r0, [sp, #4]
 807              		.loc 1 359 0
 808 0006 204B     		ldr	r3, .L61
 809 0008 1B68     		ldr	r3, [r3]
 810 000a 0593     		str	r3, [sp, #20]
 811              		.loc 1 360 0
 812 000c 0023     		movs	r3, #0
 813 000e 8DF80B30 		strb	r3, [sp, #11]
 814              		.loc 1 366 0
 815 0012 0721     		movs	r1, #7
 816 0014 0198     		ldr	r0, [sp, #4]
 817 0016 FFF7FEFF 		bl	VL53L0X_get_info_from_device
 818 001a 0346     		mov	r3, r0
 819 001c 8DF80B30 		strb	r3, [sp, #11]
 820              		.loc 1 369 0
 821 0020 9DF90B30 		ldrsb	r3, [sp, #11]
 822 0024 002B     		cmp	r3, #0
 823 0026 07D1     		bne	.L57
 824              		.loc 1 370 0
 825 0028 03AB     		add	r3, sp, #12
 826 002a 1946     		mov	r1, r3
 827 002c 0198     		ldr	r0, [sp, #4]
 828 002e FFF7FEFF 		bl	VL53L0X_GetOffsetCalibrationDataMicroMeter
 829 0032 0346     		mov	r3, r0
 830 0034 8DF80B30 		strb	r3, [sp, #11]
 831              	.L57:
 832              		.loc 1 375 0
 833 0038 9DF90B30 		ldrsb	r3, [sp, #11]
 834 003c 002B     		cmp	r3, #0
 835 003e 15D1     		bne	.L58
 836              		.loc 1 378 0
 837 0040 039A     		ldr	r2, [sp, #12]
 838 0042 019B     		ldr	r3, [sp, #4]
 839 0044 9A60     		str	r2, [r3, #8]
 840              		.loc 1 382 0
 841 0046 019B     		ldr	r3, [sp, #4]
 842 0048 DA68     		ldr	r2, [r3, #12]
 843              		.loc 1 381 0
 844 004a 039B     		ldr	r3, [sp, #12]
 845 004c 1344     		add	r3, r3, r2
 846 004e 0493     		str	r3, [sp, #16]
 847              		.loc 1 385 0
 848 0050 0499     		ldr	r1, [sp, #16]
 849 0052 0198     		ldr	r0, [sp, #4]
 850 0054 FFF7FEFF 		bl	VL53L0X_SetOffsetCalibrationDataMicroMeter
 851 0058 0346     		mov	r3, r0
 852 005a 8DF80B30 		strb	r3, [sp, #11]
 853              		.loc 1 389 0
 854 005e 9DF90B30 		ldrsb	r3, [sp, #11]
 855 0062 002B     		cmp	r3, #0
ARM GAS  C:\Users\PCHAUT~1\AppData\Local\Temp\ccYc6BCi.s 			page 16


 856 0064 02D1     		bne	.L58
 857              		.loc 1 390 0
 858 0066 019B     		ldr	r3, [sp, #4]
 859 0068 049A     		ldr	r2, [sp, #16]
 860 006a 5A62     		str	r2, [r3, #36]
 861              	.L58:
 862              		.loc 1 395 0
 863 006c 9DF90B30 		ldrsb	r3, [sp, #11]
 864              		.loc 1 396 0
 865 0070 1846     		mov	r0, r3
 866 0072 054B     		ldr	r3, .L61
 867 0074 059A     		ldr	r2, [sp, #20]
 868 0076 1B68     		ldr	r3, [r3]
 869 0078 9A42     		cmp	r2, r3
 870 007a 01D0     		beq	.L60
 871 007c FFF7FEFF 		bl	__stack_chk_fail
 872              	.L60:
 873 0080 07B0     		add	sp, sp, #28
 874              		.cfi_def_cfa_offset 4
 875              		@ sp needed
 876 0082 5DF804FB 		ldr	pc, [sp], #4
 877              	.L62:
 878 0086 00BF     		.align	2
 879              	.L61:
 880 0088 00000000 		.word	__stack_chk_guard
 881              		.cfi_endproc
 882              	.LFE7:
 883              		.size	VL53L0X_apply_offset_adjustment, .-VL53L0X_apply_offset_adjustment
 884              		.section	.text.get_next_good_spad,"ax",%progbits
 885              		.align	1
 886              		.p2align 4,,15
 887              		.global	get_next_good_spad
 888              		.syntax unified
 889              		.thumb
 890              		.thumb_func
 891              		.fpu fpv4-sp-d16
 892              		.type	get_next_good_spad, %function
 893              	get_next_good_spad:
 894              	.LFB8:
 895              		.loc 1 400 0
 896              		.cfi_startproc
 897              		@ args = 0, pretend = 0, frame = 48
 898              		@ frame_needed = 0, uses_anonymous_args = 0
 899 0000 00B5     		push	{lr}
 900              		.cfi_def_cfa_offset 4
 901              		.cfi_offset 14, -4
 902 0002 8DB0     		sub	sp, sp, #52
 903              		.cfi_def_cfa_offset 56
 904 0004 0390     		str	r0, [sp, #12]
 905 0006 0291     		str	r1, [sp, #8]
 906 0008 0192     		str	r2, [sp, #4]
 907 000a 0093     		str	r3, [sp]
 908              		.loc 1 400 0
 909 000c 334B     		ldr	r3, .L74
 910 000e 1B68     		ldr	r3, [r3]
 911 0010 0B93     		str	r3, [sp, #44]
 912              		.loc 1 403 0
ARM GAS  C:\Users\PCHAUT~1\AppData\Local\Temp\ccYc6BCi.s 			page 17


 913 0012 0823     		movs	r3, #8
 914 0014 0893     		str	r3, [sp, #32]
 915              		.loc 1 407 0
 916 0016 0023     		movs	r3, #0
 917 0018 8DF81730 		strb	r3, [sp, #23]
 918              		.loc 1 417 0
 919 001c 009B     		ldr	r3, [sp]
 920 001e 4FF0FF32 		mov	r2, #-1
 921 0022 1A60     		str	r2, [r3]
 922              		.loc 1 419 0
 923 0024 019A     		ldr	r2, [sp, #4]
 924 0026 089B     		ldr	r3, [sp, #32]
 925 0028 B2FBF3F3 		udiv	r3, r2, r3
 926 002c 0993     		str	r3, [sp, #36]
 927              		.loc 1 420 0
 928 002e 019B     		ldr	r3, [sp, #4]
 929 0030 089A     		ldr	r2, [sp, #32]
 930 0032 B3FBF2F2 		udiv	r2, r3, r2
 931 0036 0899     		ldr	r1, [sp, #32]
 932 0038 01FB02F2 		mul	r2, r1, r2
 933 003c 9B1A     		subs	r3, r3, r2
 934 003e 0A93     		str	r3, [sp, #40]
 935              		.loc 1 422 0
 936 0040 099B     		ldr	r3, [sp, #36]
 937 0042 0693     		str	r3, [sp, #24]
 938 0044 37E0     		b	.L64
 939              	.L71:
 940              		.loc 1 424 0
 941 0046 0023     		movs	r3, #0
 942 0048 0793     		str	r3, [sp, #28]
 943              		.loc 1 425 0
 944 004a 039A     		ldr	r2, [sp, #12]
 945 004c 069B     		ldr	r3, [sp, #24]
 946 004e 1344     		add	r3, r3, r2
 947 0050 1B78     		ldrb	r3, [r3]
 948 0052 8DF81630 		strb	r3, [sp, #22]
 949              		.loc 1 427 0
 950 0056 069A     		ldr	r2, [sp, #24]
 951 0058 099B     		ldr	r3, [sp, #36]
 952 005a 9A42     		cmp	r2, r3
 953 005c 24D1     		bne	.L66
 954              		.loc 1 430 0
 955 005e 9DF81620 		ldrb	r2, [sp, #22]	@ zero_extendqisi2
 956 0062 0A9B     		ldr	r3, [sp, #40]
 957 0064 42FA03F3 		asr	r3, r2, r3
 958 0068 8DF81630 		strb	r3, [sp, #22]
 959              		.loc 1 431 0
 960 006c 0A9B     		ldr	r3, [sp, #40]
 961 006e 0793     		str	r3, [sp, #28]
 962              		.loc 1 434 0
 963 0070 1AE0     		b	.L66
 964              	.L69:
 965              		.loc 1 435 0
 966 0072 9DF81630 		ldrb	r3, [sp, #22]	@ zero_extendqisi2
 967 0076 03F00103 		and	r3, r3, #1
 968 007a 002B     		cmp	r3, #0
 969 007c 0CD0     		beq	.L67
ARM GAS  C:\Users\PCHAUT~1\AppData\Local\Temp\ccYc6BCi.s 			page 18


 970              		.loc 1 436 0
 971 007e 0123     		movs	r3, #1
 972 0080 8DF81730 		strb	r3, [sp, #23]
 973              		.loc 1 437 0
 974 0084 069B     		ldr	r3, [sp, #24]
 975 0086 089A     		ldr	r2, [sp, #32]
 976 0088 02FB03F2 		mul	r2, r2, r3
 977 008c 079B     		ldr	r3, [sp, #28]
 978 008e 1344     		add	r3, r3, r2
 979 0090 1A46     		mov	r2, r3
 980 0092 009B     		ldr	r3, [sp]
 981 0094 1A60     		str	r2, [r3]
 982              		.loc 1 438 0
 983 0096 0BE0     		b	.L68
 984              	.L67:
 985              		.loc 1 440 0
 986 0098 9DF81630 		ldrb	r3, [sp, #22]	@ zero_extendqisi2
 987 009c 5B08     		lsrs	r3, r3, #1
 988 009e 8DF81630 		strb	r3, [sp, #22]
 989              		.loc 1 441 0
 990 00a2 079B     		ldr	r3, [sp, #28]
 991 00a4 0133     		adds	r3, r3, #1
 992 00a6 0793     		str	r3, [sp, #28]
 993              	.L66:
 994              		.loc 1 434 0
 995 00a8 079A     		ldr	r2, [sp, #28]
 996 00aa 089B     		ldr	r3, [sp, #32]
 997 00ac 9A42     		cmp	r2, r3
 998 00ae E0D3     		bcc	.L69
 999              	.L68:
 1000              		.loc 1 423 0
 1001 00b0 069B     		ldr	r3, [sp, #24]
 1002 00b2 0133     		adds	r3, r3, #1
 1003 00b4 0693     		str	r3, [sp, #24]
 1004              	.L64:
 1005              		.loc 1 422 0 discriminator 1
 1006 00b6 069A     		ldr	r2, [sp, #24]
 1007 00b8 029B     		ldr	r3, [sp, #8]
 1008 00ba 9A42     		cmp	r2, r3
 1009 00bc 03D2     		bcs	.L73
 1010              		.loc 1 422 0 is_stmt 0 discriminator 2
 1011 00be 9DF81730 		ldrb	r3, [sp, #23]	@ zero_extendqisi2
 1012 00c2 002B     		cmp	r3, #0
 1013 00c4 BFD0     		beq	.L71
 1014              	.L73:
 1015              		.loc 1 444 0 is_stmt 1
 1016 00c6 00BF     		nop
 1017 00c8 044B     		ldr	r3, .L74
 1018 00ca 0B9A     		ldr	r2, [sp, #44]
 1019 00cc 1B68     		ldr	r3, [r3]
 1020 00ce 9A42     		cmp	r2, r3
 1021 00d0 01D0     		beq	.L72
 1022 00d2 FFF7FEFF 		bl	__stack_chk_fail
 1023              	.L72:
 1024 00d6 0DB0     		add	sp, sp, #52
 1025              		.cfi_def_cfa_offset 4
 1026              		@ sp needed
ARM GAS  C:\Users\PCHAUT~1\AppData\Local\Temp\ccYc6BCi.s 			page 19


 1027 00d8 5DF804FB 		ldr	pc, [sp], #4
 1028              	.L75:
 1029              		.align	2
 1030              	.L74:
 1031 00dc 00000000 		.word	__stack_chk_guard
 1032              		.cfi_endproc
 1033              	.LFE8:
 1034              		.size	get_next_good_spad, .-get_next_good_spad
 1035              		.section	.text.is_aperture,"ax",%progbits
 1036              		.align	1
 1037              		.p2align 4,,15
 1038              		.global	is_aperture
 1039              		.syntax unified
 1040              		.thumb
 1041              		.thumb_func
 1042              		.fpu fpv4-sp-d16
 1043              		.type	is_aperture, %function
 1044              	is_aperture:
 1045              	.LFB9:
 1046              		.loc 1 448 0
 1047              		.cfi_startproc
 1048              		@ args = 0, pretend = 0, frame = 24
 1049              		@ frame_needed = 0, uses_anonymous_args = 0
 1050 0000 00B5     		push	{lr}
 1051              		.cfi_def_cfa_offset 4
 1052              		.cfi_offset 14, -4
 1053 0002 87B0     		sub	sp, sp, #28
 1054              		.cfi_def_cfa_offset 32
 1055 0004 0190     		str	r0, [sp, #4]
 1056              		.loc 1 448 0
 1057 0006 0F4B     		ldr	r3, .L80
 1058 0008 1B68     		ldr	r3, [r3]
 1059 000a 0593     		str	r3, [sp, #20]
 1060              		.loc 1 454 0
 1061 000c 0123     		movs	r3, #1
 1062 000e 8DF80F30 		strb	r3, [sp, #15]
 1063              		.loc 1 455 0
 1064 0012 019B     		ldr	r3, [sp, #4]
 1065 0014 9B09     		lsrs	r3, r3, #6
 1066 0016 0493     		str	r3, [sp, #16]
 1067              		.loc 1 456 0
 1068 0018 0B4A     		ldr	r2, .L80+4
 1069 001a 049B     		ldr	r3, [sp, #16]
 1070 001c 52F82330 		ldr	r3, [r2, r3, lsl #2]
 1071 0020 002B     		cmp	r3, #0
 1072 0022 02D1     		bne	.L77
 1073              		.loc 1 457 0
 1074 0024 0023     		movs	r3, #0
 1075 0026 8DF80F30 		strb	r3, [sp, #15]
 1076              	.L77:
 1077              		.loc 1 459 0
 1078 002a 9DF80F30 		ldrb	r3, [sp, #15]	@ zero_extendqisi2
 1079              		.loc 1 460 0
 1080 002e 1846     		mov	r0, r3
 1081 0030 044B     		ldr	r3, .L80
 1082 0032 059A     		ldr	r2, [sp, #20]
 1083 0034 1B68     		ldr	r3, [r3]
ARM GAS  C:\Users\PCHAUT~1\AppData\Local\Temp\ccYc6BCi.s 			page 20


 1084 0036 9A42     		cmp	r2, r3
 1085 0038 01D0     		beq	.L79
 1086 003a FFF7FEFF 		bl	__stack_chk_fail
 1087              	.L79:
 1088 003e 07B0     		add	sp, sp, #28
 1089              		.cfi_def_cfa_offset 4
 1090              		@ sp needed
 1091 0040 5DF804FB 		ldr	pc, [sp], #4
 1092              	.L81:
 1093              		.align	2
 1094              	.L80:
 1095 0044 00000000 		.word	__stack_chk_guard
 1096 0048 00000000 		.word	refArrayQuadrants
 1097              		.cfi_endproc
 1098              	.LFE9:
 1099              		.size	is_aperture, .-is_aperture
 1100              		.section	.text.enable_spad_bit,"ax",%progbits
 1101              		.align	1
 1102              		.p2align 4,,15
 1103              		.global	enable_spad_bit
 1104              		.syntax unified
 1105              		.thumb
 1106              		.thumb_func
 1107              		.fpu fpv4-sp-d16
 1108              		.type	enable_spad_bit, %function
 1109              	enable_spad_bit:
 1110              	.LFB10:
 1111              		.loc 1 465 0
 1112              		.cfi_startproc
 1113              		@ args = 0, pretend = 0, frame = 40
 1114              		@ frame_needed = 0, uses_anonymous_args = 0
 1115 0000 00B5     		push	{lr}
 1116              		.cfi_def_cfa_offset 4
 1117              		.cfi_offset 14, -4
 1118 0002 8BB0     		sub	sp, sp, #44
 1119              		.cfi_def_cfa_offset 48
 1120 0004 0390     		str	r0, [sp, #12]
 1121 0006 0291     		str	r1, [sp, #8]
 1122 0008 0192     		str	r2, [sp, #4]
 1123              		.loc 1 465 0
 1124 000a 1E4B     		ldr	r3, .L87
 1125 000c 1B68     		ldr	r3, [r3]
 1126 000e 0993     		str	r3, [sp, #36]
 1127              		.loc 1 466 0
 1128 0010 0023     		movs	r3, #0
 1129 0012 8DF81730 		strb	r3, [sp, #23]
 1130              		.loc 1 467 0
 1131 0016 0823     		movs	r3, #8
 1132 0018 0693     		str	r3, [sp, #24]
 1133              		.loc 1 471 0
 1134 001a 019A     		ldr	r2, [sp, #4]
 1135 001c 069B     		ldr	r3, [sp, #24]
 1136 001e B2FBF3F3 		udiv	r3, r2, r3
 1137 0022 0793     		str	r3, [sp, #28]
 1138              		.loc 1 472 0
 1139 0024 019B     		ldr	r3, [sp, #4]
 1140 0026 069A     		ldr	r2, [sp, #24]
ARM GAS  C:\Users\PCHAUT~1\AppData\Local\Temp\ccYc6BCi.s 			page 21


 1141 0028 B3FBF2F2 		udiv	r2, r3, r2
 1142 002c 0699     		ldr	r1, [sp, #24]
 1143 002e 01FB02F2 		mul	r2, r1, r2
 1144 0032 9B1A     		subs	r3, r3, r2
 1145 0034 0893     		str	r3, [sp, #32]
 1146              		.loc 1 473 0
 1147 0036 079A     		ldr	r2, [sp, #28]
 1148 0038 029B     		ldr	r3, [sp, #8]
 1149 003a 9A42     		cmp	r2, r3
 1150 003c 03D3     		bcc	.L83
 1151              		.loc 1 474 0
 1152 003e CE23     		movs	r3, #206
 1153 0040 8DF81730 		strb	r3, [sp, #23]
 1154 0044 10E0     		b	.L84
 1155              	.L83:
 1156              		.loc 1 476 0
 1157 0046 039A     		ldr	r2, [sp, #12]
 1158 0048 079B     		ldr	r3, [sp, #28]
 1159 004a 1344     		add	r3, r3, r2
 1160 004c 1B78     		ldrb	r3, [r3]	@ zero_extendqisi2
 1161 004e 5AB2     		sxtb	r2, r3
 1162 0050 0121     		movs	r1, #1
 1163 0052 089B     		ldr	r3, [sp, #32]
 1164 0054 01FA03F3 		lsl	r3, r1, r3
 1165 0058 5BB2     		sxtb	r3, r3
 1166 005a 1343     		orrs	r3, r3, r2
 1167 005c 59B2     		sxtb	r1, r3
 1168 005e 039A     		ldr	r2, [sp, #12]
 1169 0060 079B     		ldr	r3, [sp, #28]
 1170 0062 1344     		add	r3, r3, r2
 1171 0064 CAB2     		uxtb	r2, r1
 1172 0066 1A70     		strb	r2, [r3]
 1173              	.L84:
 1174              		.loc 1 478 0
 1175 0068 9DF91730 		ldrsb	r3, [sp, #23]
 1176              		.loc 1 479 0
 1177 006c 1846     		mov	r0, r3
 1178 006e 054B     		ldr	r3, .L87
 1179 0070 099A     		ldr	r2, [sp, #36]
 1180 0072 1B68     		ldr	r3, [r3]
 1181 0074 9A42     		cmp	r2, r3
 1182 0076 01D0     		beq	.L86
 1183 0078 FFF7FEFF 		bl	__stack_chk_fail
 1184              	.L86:
 1185 007c 0BB0     		add	sp, sp, #44
 1186              		.cfi_def_cfa_offset 4
 1187              		@ sp needed
 1188 007e 5DF804FB 		ldr	pc, [sp], #4
 1189              	.L88:
 1190 0082 00BF     		.align	2
 1191              	.L87:
 1192 0084 00000000 		.word	__stack_chk_guard
 1193              		.cfi_endproc
 1194              	.LFE10:
 1195              		.size	enable_spad_bit, .-enable_spad_bit
 1196              		.section	.text.count_enabled_spads,"ax",%progbits
 1197              		.align	1
ARM GAS  C:\Users\PCHAUT~1\AppData\Local\Temp\ccYc6BCi.s 			page 22


 1198              		.p2align 4,,15
 1199              		.global	count_enabled_spads
 1200              		.syntax unified
 1201              		.thumb
 1202              		.thumb_func
 1203              		.fpu fpv4-sp-d16
 1204              		.type	count_enabled_spads, %function
 1205              	count_enabled_spads:
 1206              	.LFB11:
 1207              		.loc 1 484 0
 1208              		.cfi_startproc
 1209              		@ args = 4, pretend = 0, frame = 56
 1210              		@ frame_needed = 0, uses_anonymous_args = 0
 1211 0000 00B5     		push	{lr}
 1212              		.cfi_def_cfa_offset 4
 1213              		.cfi_offset 14, -4
 1214 0002 8FB0     		sub	sp, sp, #60
 1215              		.cfi_def_cfa_offset 64
 1216 0004 0590     		str	r0, [sp, #20]
 1217 0006 0491     		str	r1, [sp, #16]
 1218 0008 0392     		str	r2, [sp, #12]
 1219 000a 0293     		str	r3, [sp, #8]
 1220 000c 109B     		ldr	r3, [sp, #64]
 1221 000e 0193     		str	r3, [sp, #4]
 1222              		.loc 1 484 0
 1223 0010 464B     		ldr	r3, .L102
 1224 0012 1B68     		ldr	r3, [r3]
 1225 0014 0D93     		str	r3, [sp, #52]
 1226              		.loc 1 485 0
 1227 0016 0023     		movs	r3, #0
 1228 0018 8DF81D30 		strb	r3, [sp, #29]
 1229              		.loc 1 486 0
 1230 001c 0823     		movs	r3, #8
 1231 001e 0A93     		str	r3, [sp, #40]
 1232              		.loc 1 489 0
 1233 0020 0023     		movs	r3, #0
 1234 0022 0893     		str	r3, [sp, #32]
 1235              		.loc 1 490 0
 1236 0024 0023     		movs	r3, #0
 1237 0026 0993     		str	r3, [sp, #36]
 1238              		.loc 1 492 0
 1239 0028 0023     		movs	r3, #0
 1240 002a 8DF81F30 		strb	r3, [sp, #31]
 1241              		.loc 1 498 0
 1242 002e 039A     		ldr	r2, [sp, #12]
 1243 0030 0A9B     		ldr	r3, [sp, #40]
 1244 0032 B2FBF3F3 		udiv	r3, r2, r3
 1245 0036 0B93     		str	r3, [sp, #44]
 1246              		.loc 1 499 0
 1247 0038 039B     		ldr	r3, [sp, #12]
 1248 003a 0A9A     		ldr	r2, [sp, #40]
 1249 003c B3FBF2F2 		udiv	r2, r3, r2
 1250 0040 0A99     		ldr	r1, [sp, #40]
 1251 0042 01FB02F2 		mul	r2, r1, r2
 1252 0046 9B1A     		subs	r3, r3, r2
 1253 0048 0C93     		str	r3, [sp, #48]
 1254              		.loc 1 502 0
ARM GAS  C:\Users\PCHAUT~1\AppData\Local\Temp\ccYc6BCi.s 			page 23


 1255 004a 0B9A     		ldr	r2, [sp, #44]
 1256 004c 049B     		ldr	r3, [sp, #16]
 1257 004e 9A42     		cmp	r2, r3
 1258 0050 02D3     		bcc	.L90
 1259              		.loc 1 503 0
 1260 0052 CE23     		movs	r3, #206
 1261 0054 8DF81D30 		strb	r3, [sp, #29]
 1262              	.L90:
 1263              		.loc 1 505 0
 1264 0058 029B     		ldr	r3, [sp, #8]
 1265 005a 0022     		movs	r2, #0
 1266 005c 1A60     		str	r2, [r3]
 1267              		.loc 1 508 0
 1268 005e 0023     		movs	r3, #0
 1269 0060 0893     		str	r3, [sp, #32]
 1270 0062 35E0     		b	.L91
 1271              	.L96:
 1272              		.loc 1 509 0
 1273 0064 059A     		ldr	r2, [sp, #20]
 1274 0066 089B     		ldr	r3, [sp, #32]
 1275 0068 1344     		add	r3, r3, r2
 1276 006a 1B78     		ldrb	r3, [r3]
 1277 006c 8DF81E30 		strb	r3, [sp, #30]
 1278              		.loc 1 511 0
 1279 0070 0023     		movs	r3, #0
 1280 0072 0993     		str	r3, [sp, #36]
 1281 0074 25E0     		b	.L92
 1282              	.L95:
 1283              		.loc 1 512 0
 1284 0076 9DF81E30 		ldrb	r3, [sp, #30]	@ zero_extendqisi2
 1285 007a 03F00103 		and	r3, r3, #1
 1286 007e 002B     		cmp	r3, #0
 1287 0080 17D0     		beq	.L93
 1288              		.loc 1 513 0
 1289 0082 029B     		ldr	r3, [sp, #8]
 1290 0084 1B68     		ldr	r3, [r3]
 1291 0086 5A1C     		adds	r2, r3, #1
 1292 0088 029B     		ldr	r3, [sp, #8]
 1293 008a 1A60     		str	r2, [r3]
 1294              		.loc 1 515 0
 1295 008c 9DF81F30 		ldrb	r3, [sp, #31]	@ zero_extendqisi2
 1296 0090 002B     		cmp	r3, #0
 1297 0092 0ED1     		bne	.L93
 1298              		.loc 1 516 0
 1299 0094 019B     		ldr	r3, [sp, #4]
 1300 0096 0122     		movs	r2, #1
 1301 0098 1A70     		strb	r2, [r3]
 1302              		.loc 1 517 0
 1303 009a 089B     		ldr	r3, [sp, #32]
 1304 009c 012B     		cmp	r3, #1
 1305 009e 05D8     		bhi	.L94
 1306              		.loc 1 517 0 is_stmt 0 discriminator 1
 1307 00a0 099B     		ldr	r3, [sp, #36]
 1308 00a2 032B     		cmp	r3, #3
 1309 00a4 02D8     		bhi	.L94
 1310              		.loc 1 518 0 is_stmt 1
 1311 00a6 019B     		ldr	r3, [sp, #4]
ARM GAS  C:\Users\PCHAUT~1\AppData\Local\Temp\ccYc6BCi.s 			page 24


 1312 00a8 0022     		movs	r2, #0
 1313 00aa 1A70     		strb	r2, [r3]
 1314              	.L94:
 1315              		.loc 1 519 0
 1316 00ac 0123     		movs	r3, #1
 1317 00ae 8DF81F30 		strb	r3, [sp, #31]
 1318              	.L93:
 1319              		.loc 1 522 0 discriminator 2
 1320 00b2 9DF81E30 		ldrb	r3, [sp, #30]	@ zero_extendqisi2
 1321 00b6 5B08     		lsrs	r3, r3, #1
 1322 00b8 8DF81E30 		strb	r3, [sp, #30]
 1323              		.loc 1 511 0 discriminator 2
 1324 00bc 099B     		ldr	r3, [sp, #36]
 1325 00be 0133     		adds	r3, r3, #1
 1326 00c0 0993     		str	r3, [sp, #36]
 1327              	.L92:
 1328              		.loc 1 511 0 is_stmt 0 discriminator 1
 1329 00c2 099A     		ldr	r2, [sp, #36]
 1330 00c4 0A9B     		ldr	r3, [sp, #40]
 1331 00c6 9A42     		cmp	r2, r3
 1332 00c8 D5D9     		bls	.L95
 1333              		.loc 1 508 0 is_stmt 1 discriminator 2
 1334 00ca 089B     		ldr	r3, [sp, #32]
 1335 00cc 0133     		adds	r3, r3, #1
 1336 00ce 0893     		str	r3, [sp, #32]
 1337              	.L91:
 1338              		.loc 1 508 0 is_stmt 0 discriminator 1
 1339 00d0 0B9B     		ldr	r3, [sp, #44]
 1340 00d2 013B     		subs	r3, r3, #1
 1341 00d4 089A     		ldr	r2, [sp, #32]
 1342 00d6 9A42     		cmp	r2, r3
 1343 00d8 C4D9     		bls	.L96
 1344              		.loc 1 529 0 is_stmt 1
 1345 00da 059A     		ldr	r2, [sp, #20]
 1346 00dc 0B9B     		ldr	r3, [sp, #44]
 1347 00de 1344     		add	r3, r3, r2
 1348 00e0 1B78     		ldrb	r3, [r3]
 1349 00e2 8DF81E30 		strb	r3, [sp, #30]
 1350              		.loc 1 531 0
 1351 00e6 0023     		movs	r3, #0
 1352 00e8 0993     		str	r3, [sp, #36]
 1353 00ea 0DE0     		b	.L97
 1354              	.L99:
 1355              		.loc 1 532 0
 1356 00ec 9DF81E30 		ldrb	r3, [sp, #30]	@ zero_extendqisi2
 1357 00f0 03F00103 		and	r3, r3, #1
 1358 00f4 002B     		cmp	r3, #0
 1359 00f6 04D0     		beq	.L98
 1360              		.loc 1 533 0
 1361 00f8 029B     		ldr	r3, [sp, #8]
 1362 00fa 1B68     		ldr	r3, [r3]
 1363 00fc 5A1C     		adds	r2, r3, #1
 1364 00fe 029B     		ldr	r3, [sp, #8]
 1365 0100 1A60     		str	r2, [r3]
 1366              	.L98:
 1367              		.loc 1 531 0 discriminator 2
 1368 0102 099B     		ldr	r3, [sp, #36]
ARM GAS  C:\Users\PCHAUT~1\AppData\Local\Temp\ccYc6BCi.s 			page 25


 1369 0104 0133     		adds	r3, r3, #1
 1370 0106 0993     		str	r3, [sp, #36]
 1371              	.L97:
 1372              		.loc 1 531 0 is_stmt 0 discriminator 1
 1373 0108 099A     		ldr	r2, [sp, #36]
 1374 010a 0C9B     		ldr	r3, [sp, #48]
 1375 010c 9A42     		cmp	r2, r3
 1376 010e EDD9     		bls	.L99
 1377              		.loc 1 536 0 is_stmt 1
 1378 0110 9DF91D30 		ldrsb	r3, [sp, #29]
 1379              		.loc 1 537 0
 1380 0114 1846     		mov	r0, r3
 1381 0116 054B     		ldr	r3, .L102
 1382 0118 0D9A     		ldr	r2, [sp, #52]
 1383 011a 1B68     		ldr	r3, [r3]
 1384 011c 9A42     		cmp	r2, r3
 1385 011e 01D0     		beq	.L101
 1386 0120 FFF7FEFF 		bl	__stack_chk_fail
 1387              	.L101:
 1388 0124 0FB0     		add	sp, sp, #60
 1389              		.cfi_def_cfa_offset 4
 1390              		@ sp needed
 1391 0126 5DF804FB 		ldr	pc, [sp], #4
 1392              	.L103:
 1393 012a 00BF     		.align	2
 1394              	.L102:
 1395 012c 00000000 		.word	__stack_chk_guard
 1396              		.cfi_endproc
 1397              	.LFE11:
 1398              		.size	count_enabled_spads, .-count_enabled_spads
 1399              		.section	.text.set_ref_spad_map,"ax",%progbits
 1400              		.align	1
 1401              		.p2align 4,,15
 1402              		.global	set_ref_spad_map
 1403              		.syntax unified
 1404              		.thumb
 1405              		.thumb_func
 1406              		.fpu fpv4-sp-d16
 1407              		.type	set_ref_spad_map, %function
 1408              	set_ref_spad_map:
 1409              	.LFB12:
 1410              		.loc 1 540 0
 1411              		.cfi_startproc
 1412              		@ args = 0, pretend = 0, frame = 16
 1413              		@ frame_needed = 0, uses_anonymous_args = 0
 1414 0000 00B5     		push	{lr}
 1415              		.cfi_def_cfa_offset 4
 1416              		.cfi_offset 14, -4
 1417 0002 85B0     		sub	sp, sp, #20
 1418              		.cfi_def_cfa_offset 24
 1419 0004 0190     		str	r0, [sp, #4]
 1420 0006 0091     		str	r1, [sp]
 1421              		.loc 1 540 0
 1422 0008 0C4B     		ldr	r3, .L107
 1423 000a 1B68     		ldr	r3, [r3]
 1424 000c 0393     		str	r3, [sp, #12]
 1425              		.loc 1 541 0
ARM GAS  C:\Users\PCHAUT~1\AppData\Local\Temp\ccYc6BCi.s 			page 26


 1426 000e 0623     		movs	r3, #6
 1427 0010 009A     		ldr	r2, [sp]
 1428 0012 B021     		movs	r1, #176
 1429 0014 0198     		ldr	r0, [sp, #4]
 1430 0016 FFF7FEFF 		bl	VL53L0X_WriteMulti
 1431 001a 0346     		mov	r3, r0
 1432 001c 8DF80B30 		strb	r3, [sp, #11]
 1433              		.loc 1 544 0
 1434 0020 9DF90B30 		ldrsb	r3, [sp, #11]
 1435              		.loc 1 545 0
 1436 0024 1846     		mov	r0, r3
 1437 0026 054B     		ldr	r3, .L107
 1438 0028 039A     		ldr	r2, [sp, #12]
 1439 002a 1B68     		ldr	r3, [r3]
 1440 002c 9A42     		cmp	r2, r3
 1441 002e 01D0     		beq	.L106
 1442 0030 FFF7FEFF 		bl	__stack_chk_fail
 1443              	.L106:
 1444 0034 05B0     		add	sp, sp, #20
 1445              		.cfi_def_cfa_offset 4
 1446              		@ sp needed
 1447 0036 5DF804FB 		ldr	pc, [sp], #4
 1448              	.L108:
 1449 003a 00BF     		.align	2
 1450              	.L107:
 1451 003c 00000000 		.word	__stack_chk_guard
 1452              		.cfi_endproc
 1453              	.LFE12:
 1454              		.size	set_ref_spad_map, .-set_ref_spad_map
 1455              		.section	.text.get_ref_spad_map,"ax",%progbits
 1456              		.align	1
 1457              		.p2align 4,,15
 1458              		.global	get_ref_spad_map
 1459              		.syntax unified
 1460              		.thumb
 1461              		.thumb_func
 1462              		.fpu fpv4-sp-d16
 1463              		.type	get_ref_spad_map, %function
 1464              	get_ref_spad_map:
 1465              	.LFB13:
 1466              		.loc 1 548 0
 1467              		.cfi_startproc
 1468              		@ args = 0, pretend = 0, frame = 16
 1469              		@ frame_needed = 0, uses_anonymous_args = 0
 1470 0000 00B5     		push	{lr}
 1471              		.cfi_def_cfa_offset 4
 1472              		.cfi_offset 14, -4
 1473 0002 85B0     		sub	sp, sp, #20
 1474              		.cfi_def_cfa_offset 24
 1475 0004 0190     		str	r0, [sp, #4]
 1476 0006 0091     		str	r1, [sp]
 1477              		.loc 1 548 0
 1478 0008 0C4B     		ldr	r3, .L112
 1479 000a 1B68     		ldr	r3, [r3]
 1480 000c 0393     		str	r3, [sp, #12]
 1481              		.loc 1 549 0
 1482 000e 0623     		movs	r3, #6
ARM GAS  C:\Users\PCHAUT~1\AppData\Local\Temp\ccYc6BCi.s 			page 27


 1483 0010 009A     		ldr	r2, [sp]
 1484 0012 B021     		movs	r1, #176
 1485 0014 0198     		ldr	r0, [sp, #4]
 1486 0016 FFF7FEFF 		bl	VL53L0X_ReadMulti
 1487 001a 0346     		mov	r3, r0
 1488 001c 8DF80B30 		strb	r3, [sp, #11]
 1489              		.loc 1 553 0
 1490 0020 9DF90B30 		ldrsb	r3, [sp, #11]
 1491              		.loc 1 554 0
 1492 0024 1846     		mov	r0, r3
 1493 0026 054B     		ldr	r3, .L112
 1494 0028 039A     		ldr	r2, [sp, #12]
 1495 002a 1B68     		ldr	r3, [r3]
 1496 002c 9A42     		cmp	r2, r3
 1497 002e 01D0     		beq	.L111
 1498 0030 FFF7FEFF 		bl	__stack_chk_fail
 1499              	.L111:
 1500 0034 05B0     		add	sp, sp, #20
 1501              		.cfi_def_cfa_offset 4
 1502              		@ sp needed
 1503 0036 5DF804FB 		ldr	pc, [sp], #4
 1504              	.L113:
 1505 003a 00BF     		.align	2
 1506              	.L112:
 1507 003c 00000000 		.word	__stack_chk_guard
 1508              		.cfi_endproc
 1509              	.LFE13:
 1510              		.size	get_ref_spad_map, .-get_ref_spad_map
 1511              		.section	.text.enable_ref_spads,"ax",%progbits
 1512              		.align	1
 1513              		.p2align 4,,15
 1514              		.global	enable_ref_spads
 1515              		.syntax unified
 1516              		.thumb
 1517              		.thumb_func
 1518              		.fpu fpv4-sp-d16
 1519              		.type	enable_ref_spads, %function
 1520              	enable_ref_spads:
 1521              	.LFB14:
 1522              		.loc 1 565 0
 1523              		.cfi_startproc
 1524              		@ args = 20, pretend = 0, frame = 72
 1525              		@ frame_needed = 0, uses_anonymous_args = 0
 1526 0000 00B5     		push	{lr}
 1527              		.cfi_def_cfa_offset 4
 1528              		.cfi_offset 14, -4
 1529 0002 93B0     		sub	sp, sp, #76
 1530              		.cfi_def_cfa_offset 80
 1531 0004 0990     		str	r0, [sp, #36]
 1532 0006 0792     		str	r2, [sp, #28]
 1533 0008 0693     		str	r3, [sp, #24]
 1534 000a 0B46     		mov	r3, r1
 1535 000c 8DF82330 		strb	r3, [sp, #35]
 1536 0010 149B     		ldr	r3, [sp, #80]
 1537 0012 0593     		str	r3, [sp, #20]
 1538 0014 159B     		ldr	r3, [sp, #84]
 1539 0016 0493     		str	r3, [sp, #16]
ARM GAS  C:\Users\PCHAUT~1\AppData\Local\Temp\ccYc6BCi.s 			page 28


 1540 0018 169B     		ldr	r3, [sp, #88]
 1541 001a 0393     		str	r3, [sp, #12]
 1542 001c 179B     		ldr	r3, [sp, #92]
 1543 001e 0293     		str	r3, [sp, #8]
 1544 0020 189B     		ldr	r3, [sp, #96]
 1545 0022 0193     		str	r3, [sp, #4]
 1546              		.loc 1 565 0
 1547 0024 3D4B     		ldr	r3, .L127
 1548 0026 1B68     		ldr	r3, [r3]
 1549 0028 1193     		str	r3, [sp, #68]
 1550              		.loc 1 566 0
 1551 002a 0023     		movs	r3, #0
 1552 002c 8DF82B30 		strb	r3, [sp, #43]
 1553              		.loc 1 569 0
 1554 0030 039B     		ldr	r3, [sp, #12]
 1555 0032 0B93     		str	r3, [sp, #44]
 1556              		.loc 1 583 0
 1557 0034 039B     		ldr	r3, [sp, #12]
 1558 0036 0E93     		str	r3, [sp, #56]
 1559              		.loc 1 584 0
 1560 0038 0023     		movs	r3, #0
 1561 003a 0C93     		str	r3, [sp, #48]
 1562 003c 2BE0     		b	.L115
 1563              	.L119:
 1564              		.loc 1 585 0
 1565 003e 0BAB     		add	r3, sp, #44
 1566 0040 0E9A     		ldr	r2, [sp, #56]
 1567 0042 0599     		ldr	r1, [sp, #20]
 1568 0044 0798     		ldr	r0, [sp, #28]
 1569 0046 FFF7FEFF 		bl	get_next_good_spad
 1570              		.loc 1 588 0
 1571 004a 0B9B     		ldr	r3, [sp, #44]
 1572 004c B3F1FF3F 		cmp	r3, #-1
 1573 0050 03D1     		bne	.L116
 1574              		.loc 1 589 0
 1575 0052 CE23     		movs	r3, #206
 1576 0054 8DF82B30 		strb	r3, [sp, #43]
 1577              		.loc 1 590 0
 1578 0058 21E0     		b	.L117
 1579              	.L116:
 1580              		.loc 1 594 0
 1581 005a 0B9B     		ldr	r3, [sp, #44]
 1582 005c 1A46     		mov	r2, r3
 1583 005e 049B     		ldr	r3, [sp, #16]
 1584 0060 1344     		add	r3, r3, r2
 1585 0062 1846     		mov	r0, r3
 1586 0064 FFF7FEFF 		bl	is_aperture
 1587 0068 0346     		mov	r3, r0
 1588 006a 1A46     		mov	r2, r3
 1589 006c 9DF82330 		ldrb	r3, [sp, #35]	@ zero_extendqisi2
 1590 0070 9342     		cmp	r3, r2
 1591 0072 03D0     		beq	.L118
 1592              		.loc 1 598 0
 1593 0074 CE23     		movs	r3, #206
 1594 0076 8DF82B30 		strb	r3, [sp, #43]
 1595              		.loc 1 599 0
 1596 007a 10E0     		b	.L117
ARM GAS  C:\Users\PCHAUT~1\AppData\Local\Temp\ccYc6BCi.s 			page 29


 1597              	.L118:
 1598              		.loc 1 601 0 discriminator 2
 1599 007c 0B9B     		ldr	r3, [sp, #44]
 1600 007e 0E93     		str	r3, [sp, #56]
 1601              		.loc 1 602 0 discriminator 2
 1602 0080 0E9A     		ldr	r2, [sp, #56]
 1603 0082 0599     		ldr	r1, [sp, #20]
 1604 0084 0698     		ldr	r0, [sp, #24]
 1605 0086 FFF7FEFF 		bl	enable_spad_bit
 1606              		.loc 1 603 0 discriminator 2
 1607 008a 0E9B     		ldr	r3, [sp, #56]
 1608 008c 0133     		adds	r3, r3, #1
 1609 008e 0E93     		str	r3, [sp, #56]
 1610              		.loc 1 584 0 discriminator 2
 1611 0090 0C9B     		ldr	r3, [sp, #48]
 1612 0092 0133     		adds	r3, r3, #1
 1613 0094 0C93     		str	r3, [sp, #48]
 1614              	.L115:
 1615              		.loc 1 584 0 is_stmt 0 discriminator 1
 1616 0096 0C9A     		ldr	r2, [sp, #48]
 1617 0098 029B     		ldr	r3, [sp, #8]
 1618 009a 9A42     		cmp	r2, r3
 1619 009c CFD3     		bcc	.L119
 1620              	.L117:
 1621              		.loc 1 605 0 is_stmt 1
 1622 009e 019B     		ldr	r3, [sp, #4]
 1623 00a0 0E9A     		ldr	r2, [sp, #56]
 1624 00a2 1A60     		str	r2, [r3]
 1625              		.loc 1 607 0
 1626 00a4 9DF92B30 		ldrsb	r3, [sp, #43]
 1627 00a8 002B     		cmp	r3, #0
 1628 00aa 06D1     		bne	.L120
 1629              		.loc 1 608 0
 1630 00ac 0699     		ldr	r1, [sp, #24]
 1631 00ae 0998     		ldr	r0, [sp, #36]
 1632 00b0 FFF7FEFF 		bl	set_ref_spad_map
 1633 00b4 0346     		mov	r3, r0
 1634 00b6 8DF82B30 		strb	r3, [sp, #43]
 1635              	.L120:
 1636              		.loc 1 611 0
 1637 00ba 9DF92B30 		ldrsb	r3, [sp, #43]
 1638 00be 002B     		cmp	r3, #0
 1639 00c0 1FD1     		bne	.L121
 1640              		.loc 1 612 0
 1641 00c2 0FAB     		add	r3, sp, #60
 1642 00c4 1946     		mov	r1, r3
 1643 00c6 0998     		ldr	r0, [sp, #36]
 1644 00c8 FFF7FEFF 		bl	get_ref_spad_map
 1645 00cc 0346     		mov	r3, r0
 1646 00ce 8DF82B30 		strb	r3, [sp, #43]
 1647              		.loc 1 614 0
 1648 00d2 0023     		movs	r3, #0
 1649 00d4 0D93     		str	r3, [sp, #52]
 1650              		.loc 1 617 0
 1651 00d6 10E0     		b	.L122
 1652              	.L124:
 1653              		.loc 1 618 0
ARM GAS  C:\Users\PCHAUT~1\AppData\Local\Temp\ccYc6BCi.s 			page 30


 1654 00d8 069A     		ldr	r2, [sp, #24]
 1655 00da 0D9B     		ldr	r3, [sp, #52]
 1656 00dc 1344     		add	r3, r3, r2
 1657 00de 1A78     		ldrb	r2, [r3]	@ zero_extendqisi2
 1658 00e0 0FA9     		add	r1, sp, #60
 1659 00e2 0D9B     		ldr	r3, [sp, #52]
 1660 00e4 0B44     		add	r3, r3, r1
 1661 00e6 1B78     		ldrb	r3, [r3]	@ zero_extendqisi2
 1662 00e8 9A42     		cmp	r2, r3
 1663 00ea 03D0     		beq	.L123
 1664              		.loc 1 619 0
 1665 00ec CE23     		movs	r3, #206
 1666 00ee 8DF82B30 		strb	r3, [sp, #43]
 1667              		.loc 1 620 0
 1668 00f2 06E0     		b	.L121
 1669              	.L123:
 1670              		.loc 1 622 0
 1671 00f4 0D9B     		ldr	r3, [sp, #52]
 1672 00f6 0133     		adds	r3, r3, #1
 1673 00f8 0D93     		str	r3, [sp, #52]
 1674              	.L122:
 1675              		.loc 1 617 0
 1676 00fa 0D9A     		ldr	r2, [sp, #52]
 1677 00fc 059B     		ldr	r3, [sp, #20]
 1678 00fe 9A42     		cmp	r2, r3
 1679 0100 EAD3     		bcc	.L124
 1680              	.L121:
 1681              		.loc 1 625 0
 1682 0102 9DF92B30 		ldrsb	r3, [sp, #43]
 1683              		.loc 1 626 0
 1684 0106 1846     		mov	r0, r3
 1685 0108 044B     		ldr	r3, .L127
 1686 010a 119A     		ldr	r2, [sp, #68]
 1687 010c 1B68     		ldr	r3, [r3]
 1688 010e 9A42     		cmp	r2, r3
 1689 0110 01D0     		beq	.L126
 1690 0112 FFF7FEFF 		bl	__stack_chk_fail
 1691              	.L126:
 1692 0116 13B0     		add	sp, sp, #76
 1693              		.cfi_def_cfa_offset 4
 1694              		@ sp needed
 1695 0118 5DF804FB 		ldr	pc, [sp], #4
 1696              	.L128:
 1697              		.align	2
 1698              	.L127:
 1699 011c 00000000 		.word	__stack_chk_guard
 1700              		.cfi_endproc
 1701              	.LFE14:
 1702              		.size	enable_ref_spads, .-enable_ref_spads
 1703              		.section	.text.perform_ref_signal_measurement,"ax",%progbits
 1704              		.align	1
 1705              		.p2align 4,,15
 1706              		.global	perform_ref_signal_measurement
 1707              		.syntax unified
 1708              		.thumb
 1709              		.thumb_func
 1710              		.fpu fpv4-sp-d16
ARM GAS  C:\Users\PCHAUT~1\AppData\Local\Temp\ccYc6BCi.s 			page 31


 1711              		.type	perform_ref_signal_measurement, %function
 1712              	perform_ref_signal_measurement:
 1713              	.LFB15:
 1714              		.loc 1 631 0
 1715              		.cfi_startproc
 1716              		@ args = 0, pretend = 0, frame = 48
 1717              		@ frame_needed = 0, uses_anonymous_args = 0
 1718 0000 00B5     		push	{lr}
 1719              		.cfi_def_cfa_offset 4
 1720              		.cfi_offset 14, -4
 1721 0002 8DB0     		sub	sp, sp, #52
 1722              		.cfi_def_cfa_offset 56
 1723 0004 0190     		str	r0, [sp, #4]
 1724 0006 0091     		str	r1, [sp]
 1725              		.loc 1 631 0
 1726 0008 364B     		ldr	r3, .L138
 1727 000a 1B68     		ldr	r3, [r3]
 1728 000c 0B93     		str	r3, [sp, #44]
 1729              		.loc 1 632 0
 1730 000e 0023     		movs	r3, #0
 1731 0010 8DF80E30 		strb	r3, [sp, #14]
 1732              		.loc 1 635 0
 1733 0014 0023     		movs	r3, #0
 1734 0016 8DF80F30 		strb	r3, [sp, #15]
 1735              		.loc 1 641 0
 1736 001a 019B     		ldr	r3, [sp, #4]
 1737 001c 93F83031 		ldrb	r3, [r3, #304]
 1738 0020 8DF80F30 		strb	r3, [sp, #15]
 1739              		.loc 1 646 0
 1740 0024 9DF90E30 		ldrsb	r3, [sp, #14]
 1741 0028 002B     		cmp	r3, #0
 1742 002a 07D1     		bne	.L130
 1743              		.loc 1 647 0
 1744 002c C022     		movs	r2, #192
 1745 002e 0121     		movs	r1, #1
 1746 0030 0198     		ldr	r0, [sp, #4]
 1747 0032 FFF7FEFF 		bl	VL53L0X_WrByte
 1748 0036 0346     		mov	r3, r0
 1749 0038 8DF80E30 		strb	r3, [sp, #14]
 1750              	.L130:
 1751              		.loc 1 650 0
 1752 003c 9DF90E30 		ldrsb	r3, [sp, #14]
 1753 0040 002B     		cmp	r3, #0
 1754 0042 07D1     		bne	.L131
 1755              		.loc 1 651 0
 1756 0044 04AB     		add	r3, sp, #16
 1757 0046 1946     		mov	r1, r3
 1758 0048 0198     		ldr	r0, [sp, #4]
 1759 004a FFF7FEFF 		bl	VL53L0X_PerformSingleRangingMeasurement
 1760 004e 0346     		mov	r3, r0
 1761 0050 8DF80E30 		strb	r3, [sp, #14]
 1762              	.L131:
 1763              		.loc 1 654 0
 1764 0054 9DF90E30 		ldrsb	r3, [sp, #14]
 1765 0058 002B     		cmp	r3, #0
 1766 005a 07D1     		bne	.L132
 1767              		.loc 1 655 0
ARM GAS  C:\Users\PCHAUT~1\AppData\Local\Temp\ccYc6BCi.s 			page 32


 1768 005c 0122     		movs	r2, #1
 1769 005e FF21     		movs	r1, #255
 1770 0060 0198     		ldr	r0, [sp, #4]
 1771 0062 FFF7FEFF 		bl	VL53L0X_WrByte
 1772 0066 0346     		mov	r3, r0
 1773 0068 8DF80E30 		strb	r3, [sp, #14]
 1774              	.L132:
 1775              		.loc 1 657 0
 1776 006c 9DF90E30 		ldrsb	r3, [sp, #14]
 1777 0070 002B     		cmp	r3, #0
 1778 0072 07D1     		bne	.L133
 1779              		.loc 1 658 0
 1780 0074 009A     		ldr	r2, [sp]
 1781 0076 B621     		movs	r1, #182
 1782 0078 0198     		ldr	r0, [sp, #4]
 1783 007a FFF7FEFF 		bl	VL53L0X_RdWord
 1784 007e 0346     		mov	r3, r0
 1785 0080 8DF80E30 		strb	r3, [sp, #14]
 1786              	.L133:
 1787              		.loc 1 662 0
 1788 0084 9DF90E30 		ldrsb	r3, [sp, #14]
 1789 0088 002B     		cmp	r3, #0
 1790 008a 07D1     		bne	.L134
 1791              		.loc 1 663 0
 1792 008c 0022     		movs	r2, #0
 1793 008e FF21     		movs	r1, #255
 1794 0090 0198     		ldr	r0, [sp, #4]
 1795 0092 FFF7FEFF 		bl	VL53L0X_WrByte
 1796 0096 0346     		mov	r3, r0
 1797 0098 8DF80E30 		strb	r3, [sp, #14]
 1798              	.L134:
 1799              		.loc 1 665 0
 1800 009c 9DF90E30 		ldrsb	r3, [sp, #14]
 1801 00a0 002B     		cmp	r3, #0
 1802 00a2 12D1     		bne	.L135
 1803              		.loc 1 667 0
 1804 00a4 9DF80F30 		ldrb	r3, [sp, #15]	@ zero_extendqisi2
 1805 00a8 1A46     		mov	r2, r3
 1806 00aa 0121     		movs	r1, #1
 1807 00ac 0198     		ldr	r0, [sp, #4]
 1808 00ae FFF7FEFF 		bl	VL53L0X_WrByte
 1809 00b2 0346     		mov	r3, r0
 1810 00b4 8DF80E30 		strb	r3, [sp, #14]
 1811              		.loc 1 669 0
 1812 00b8 9DF90E30 		ldrsb	r3, [sp, #14]
 1813 00bc 002B     		cmp	r3, #0
 1814 00be 04D1     		bne	.L135
 1815              		.loc 1 670 0
 1816 00c0 019B     		ldr	r3, [sp, #4]
 1817 00c2 9DF80F20 		ldrb	r2, [sp, #15]
 1818 00c6 83F83021 		strb	r2, [r3, #304]
 1819              	.L135:
 1820              		.loc 1 673 0
 1821 00ca 9DF90E30 		ldrsb	r3, [sp, #14]
 1822              		.loc 1 674 0
 1823 00ce 1846     		mov	r0, r3
 1824 00d0 044B     		ldr	r3, .L138
ARM GAS  C:\Users\PCHAUT~1\AppData\Local\Temp\ccYc6BCi.s 			page 33


 1825 00d2 0B9A     		ldr	r2, [sp, #44]
 1826 00d4 1B68     		ldr	r3, [r3]
 1827 00d6 9A42     		cmp	r2, r3
 1828 00d8 01D0     		beq	.L137
 1829 00da FFF7FEFF 		bl	__stack_chk_fail
 1830              	.L137:
 1831 00de 0DB0     		add	sp, sp, #52
 1832              		.cfi_def_cfa_offset 4
 1833              		@ sp needed
 1834 00e0 5DF804FB 		ldr	pc, [sp], #4
 1835              	.L139:
 1836              		.align	2
 1837              	.L138:
 1838 00e4 00000000 		.word	__stack_chk_guard
 1839              		.cfi_endproc
 1840              	.LFE15:
 1841              		.size	perform_ref_signal_measurement, .-perform_ref_signal_measurement
 1842              		.section	.text.VL53L0X_perform_ref_spad_management,"ax",%progbits
 1843              		.align	1
 1844              		.p2align 4,,15
 1845              		.global	VL53L0X_perform_ref_spad_management
 1846              		.syntax unified
 1847              		.thumb
 1848              		.thumb_func
 1849              		.fpu fpv4-sp-d16
 1850              		.type	VL53L0X_perform_ref_spad_management, %function
 1851              	VL53L0X_perform_ref_spad_management:
 1852              	.LFB16:
 1853              		.loc 1 679 0
 1854              		.cfi_startproc
 1855              		@ args = 0, pretend = 0, frame = 88
 1856              		@ frame_needed = 0, uses_anonymous_args = 0
 1857 0000 10B5     		push	{r4, lr}
 1858              		.cfi_def_cfa_offset 8
 1859              		.cfi_offset 4, -8
 1860              		.cfi_offset 14, -4
 1861 0002 9CB0     		sub	sp, sp, #112
 1862              		.cfi_def_cfa_offset 120
 1863 0004 0990     		str	r0, [sp, #36]
 1864 0006 0891     		str	r1, [sp, #32]
 1865 0008 0792     		str	r2, [sp, #28]
 1866              		.loc 1 679 0
 1867 000a B84B     		ldr	r3, .L174
 1868 000c 1B68     		ldr	r3, [r3]
 1869 000e 1B93     		str	r3, [sp, #108]
 1870              		.loc 1 680 0
 1871 0010 0023     		movs	r3, #0
 1872 0012 8DF83030 		strb	r3, [sp, #48]
 1873              		.loc 1 682 0
 1874 0016 B423     		movs	r3, #180
 1875 0018 8DF83330 		strb	r3, [sp, #51]
 1876              		.loc 1 683 0
 1877 001c 0323     		movs	r3, #3
 1878 001e 1593     		str	r3, [sp, #84]
 1879              		.loc 1 684 0
 1880 0020 2C23     		movs	r3, #44
 1881 0022 1693     		str	r3, [sp, #88]
ARM GAS  C:\Users\PCHAUT~1\AppData\Local\Temp\ccYc6BCi.s 			page 34


 1882              		.loc 1 685 0
 1883 0024 0023     		movs	r3, #0
 1884 0026 1093     		str	r3, [sp, #64]
 1885              		.loc 1 686 0
 1886 0028 0023     		movs	r3, #0
 1887 002a 0E93     		str	r3, [sp, #56]
 1888              		.loc 1 687 0
 1889 002c 0023     		movs	r3, #0
 1890 002e 0F93     		str	r3, [sp, #60]
 1891              		.loc 1 688 0
 1892 0030 4FF42063 		mov	r3, #2560
 1893 0034 ADF83630 		strh	r3, [sp, #54]	@ movhi
 1894              		.loc 1 690 0
 1895 0038 0023     		movs	r3, #0
 1896 003a 1193     		str	r3, [sp, #68]
 1897              		.loc 1 691 0
 1898 003c 0023     		movs	r3, #0
 1899 003e 1293     		str	r3, [sp, #72]
 1900              		.loc 1 692 0
 1901 0040 0623     		movs	r3, #6
 1902 0042 1793     		str	r3, [sp, #92]
 1903              		.loc 1 693 0
 1904 0044 0023     		movs	r3, #0
 1905 0046 1893     		str	r3, [sp, #96]
 1906              		.loc 1 694 0
 1907 0048 0023     		movs	r3, #0
 1908 004a 1393     		str	r3, [sp, #76]
 1909              		.loc 1 695 0
 1910 004c 0023     		movs	r3, #0
 1911 004e 8DF83130 		strb	r3, [sp, #49]
 1912              		.loc 1 696 0
 1913 0052 0023     		movs	r3, #0
 1914 0054 8DF82E30 		strb	r3, [sp, #46]
 1915              		.loc 1 697 0
 1916 0058 0023     		movs	r3, #0
 1917 005a 8DF82F30 		strb	r3, [sp, #47]
 1918              		.loc 1 698 0
 1919 005e 0023     		movs	r3, #0
 1920 0060 1493     		str	r3, [sp, #80]
 1921              		.loc 1 699 0
 1922 0062 0023     		movs	r3, #0
 1923 0064 8DF83230 		strb	r3, [sp, #50]
 1924              		.loc 1 724 0
 1925 0068 099B     		ldr	r3, [sp, #36]
 1926 006a B3F83C31 		ldrh	r3, [r3, #316]	@ movhi
 1927 006e ADF83630 		strh	r3, [sp, #54]	@ movhi
 1928              		.loc 1 734 0
 1929 0072 0023     		movs	r3, #0
 1930 0074 1293     		str	r3, [sp, #72]
 1931 0076 09E0     		b	.L141
 1932              	.L142:
 1933              		.loc 1 735 0 discriminator 3
 1934 0078 099A     		ldr	r2, [sp, #36]
 1935 007a 129B     		ldr	r3, [sp, #72]
 1936 007c 1344     		add	r3, r3, r2
 1937 007e 03F59273 		add	r3, r3, #292
 1938 0082 0022     		movs	r2, #0
ARM GAS  C:\Users\PCHAUT~1\AppData\Local\Temp\ccYc6BCi.s 			page 35


 1939 0084 1A70     		strb	r2, [r3]
 1940              		.loc 1 734 0 discriminator 3
 1941 0086 129B     		ldr	r3, [sp, #72]
 1942 0088 0133     		adds	r3, r3, #1
 1943 008a 1293     		str	r3, [sp, #72]
 1944              	.L141:
 1945              		.loc 1 734 0 is_stmt 0 discriminator 1
 1946 008c 129A     		ldr	r2, [sp, #72]
 1947 008e 179B     		ldr	r3, [sp, #92]
 1948 0090 9A42     		cmp	r2, r3
 1949 0092 F1D3     		bcc	.L142
 1950              		.loc 1 738 0 is_stmt 1
 1951 0094 0122     		movs	r2, #1
 1952 0096 FF21     		movs	r1, #255
 1953 0098 0998     		ldr	r0, [sp, #36]
 1954 009a FFF7FEFF 		bl	VL53L0X_WrByte
 1955 009e 0346     		mov	r3, r0
 1956 00a0 8DF83030 		strb	r3, [sp, #48]
 1957              		.loc 1 740 0
 1958 00a4 9DF93030 		ldrsb	r3, [sp, #48]
 1959 00a8 002B     		cmp	r3, #0
 1960 00aa 07D1     		bne	.L143
 1961              		.loc 1 741 0
 1962 00ac 0022     		movs	r2, #0
 1963 00ae 4F21     		movs	r1, #79
 1964 00b0 0998     		ldr	r0, [sp, #36]
 1965 00b2 FFF7FEFF 		bl	VL53L0X_WrByte
 1966 00b6 0346     		mov	r3, r0
 1967 00b8 8DF83030 		strb	r3, [sp, #48]
 1968              	.L143:
 1969              		.loc 1 744 0
 1970 00bc 9DF93030 		ldrsb	r3, [sp, #48]
 1971 00c0 002B     		cmp	r3, #0
 1972 00c2 07D1     		bne	.L144
 1973              		.loc 1 745 0
 1974 00c4 2C22     		movs	r2, #44
 1975 00c6 4E21     		movs	r1, #78
 1976 00c8 0998     		ldr	r0, [sp, #36]
 1977 00ca FFF7FEFF 		bl	VL53L0X_WrByte
 1978 00ce 0346     		mov	r3, r0
 1979 00d0 8DF83030 		strb	r3, [sp, #48]
 1980              	.L144:
 1981              		.loc 1 748 0
 1982 00d4 9DF93030 		ldrsb	r3, [sp, #48]
 1983 00d8 002B     		cmp	r3, #0
 1984 00da 07D1     		bne	.L145
 1985              		.loc 1 749 0
 1986 00dc 0022     		movs	r2, #0
 1987 00de FF21     		movs	r1, #255
 1988 00e0 0998     		ldr	r0, [sp, #36]
 1989 00e2 FFF7FEFF 		bl	VL53L0X_WrByte
 1990 00e6 0346     		mov	r3, r0
 1991 00e8 8DF83030 		strb	r3, [sp, #48]
 1992              	.L145:
 1993              		.loc 1 751 0
 1994 00ec 9DF93030 		ldrsb	r3, [sp, #48]
 1995 00f0 002B     		cmp	r3, #0
ARM GAS  C:\Users\PCHAUT~1\AppData\Local\Temp\ccYc6BCi.s 			page 36


 1996 00f2 09D1     		bne	.L146
 1997              		.loc 1 752 0
 1998 00f4 9DF83330 		ldrb	r3, [sp, #51]	@ zero_extendqisi2
 1999 00f8 1A46     		mov	r2, r3
 2000 00fa B621     		movs	r1, #182
 2001 00fc 0998     		ldr	r0, [sp, #36]
 2002 00fe FFF7FEFF 		bl	VL53L0X_WrByte
 2003 0102 0346     		mov	r3, r0
 2004 0104 8DF83030 		strb	r3, [sp, #48]
 2005              	.L146:
 2006              		.loc 1 757 0
 2007 0108 9DF93030 		ldrsb	r3, [sp, #48]
 2008 010c 002B     		cmp	r3, #0
 2009 010e 07D1     		bne	.L147
 2010              		.loc 1 758 0
 2011 0110 0022     		movs	r2, #0
 2012 0112 8021     		movs	r1, #128
 2013 0114 0998     		ldr	r0, [sp, #36]
 2014 0116 FFF7FEFF 		bl	VL53L0X_WrByte
 2015 011a 0346     		mov	r3, r0
 2016 011c 8DF83030 		strb	r3, [sp, #48]
 2017              	.L147:
 2018              		.loc 1 762 0
 2019 0120 9DF93030 		ldrsb	r3, [sp, #48]
 2020 0124 002B     		cmp	r3, #0
 2021 0126 0AD1     		bne	.L148
 2022              		.loc 1 763 0
 2023 0128 0DF12F02 		add	r2, sp, #47
 2024 012c 0DF12E01 		add	r1, sp, #46
 2025 0130 0023     		movs	r3, #0
 2026 0132 0998     		ldr	r0, [sp, #36]
 2027 0134 FFF7FEFF 		bl	VL53L0X_perform_ref_calibration
 2028 0138 0346     		mov	r3, r0
 2029 013a 8DF83030 		strb	r3, [sp, #48]
 2030              	.L148:
 2031              		.loc 1 766 0
 2032 013e 9DF93030 		ldrsb	r3, [sp, #48]
 2033 0142 002B     		cmp	r3, #0
 2034 0144 20D1     		bne	.L149
 2035              		.loc 1 768 0
 2036 0146 0023     		movs	r3, #0
 2037 0148 1093     		str	r3, [sp, #64]
 2038              		.loc 1 769 0
 2039 014a 109B     		ldr	r3, [sp, #64]
 2040 014c 0E93     		str	r3, [sp, #56]
 2041              		.loc 1 770 0
 2042 014e 0023     		movs	r3, #0
 2043 0150 1193     		str	r3, [sp, #68]
 2044              		.loc 1 771 0
 2045 0152 119B     		ldr	r3, [sp, #68]
 2046 0154 D9B2     		uxtb	r1, r3
 2047              		.loc 1 773 0
 2048 0156 099B     		ldr	r3, [sp, #36]
 2049 0158 03F59570 		add	r0, r3, #298
 2050              		.loc 1 774 0
 2051 015c 099B     		ldr	r3, [sp, #36]
 2052 015e 03F59274 		add	r4, r3, #292
ARM GAS  C:\Users\PCHAUT~1\AppData\Local\Temp\ccYc6BCi.s 			page 37


 2053              		.loc 1 771 0
 2054 0162 9DF83330 		ldrb	r3, [sp, #51]	@ zero_extendqisi2
 2055 0166 0EAA     		add	r2, sp, #56
 2056 0168 0492     		str	r2, [sp, #16]
 2057 016a 159A     		ldr	r2, [sp, #84]
 2058 016c 0392     		str	r2, [sp, #12]
 2059 016e 109A     		ldr	r2, [sp, #64]
 2060 0170 0292     		str	r2, [sp, #8]
 2061 0172 0193     		str	r3, [sp, #4]
 2062 0174 179B     		ldr	r3, [sp, #92]
 2063 0176 0093     		str	r3, [sp]
 2064 0178 2346     		mov	r3, r4
 2065 017a 0246     		mov	r2, r0
 2066 017c 0998     		ldr	r0, [sp, #36]
 2067 017e FFF7FEFF 		bl	enable_ref_spads
 2068 0182 0346     		mov	r3, r0
 2069 0184 8DF83030 		strb	r3, [sp, #48]
 2070              	.L149:
 2071              		.loc 1 782 0
 2072 0188 9DF93030 		ldrsb	r3, [sp, #48]
 2073 018c 002B     		cmp	r3, #0
 2074 018e 75D1     		bne	.L150
 2075              		.loc 1 783 0
 2076 0190 0E9B     		ldr	r3, [sp, #56]
 2077 0192 1093     		str	r3, [sp, #64]
 2078              		.loc 1 785 0
 2079 0194 0DAB     		add	r3, sp, #52
 2080 0196 1946     		mov	r1, r3
 2081 0198 0998     		ldr	r0, [sp, #36]
 2082 019a FFF7FEFF 		bl	perform_ref_signal_measurement
 2083 019e 0346     		mov	r3, r0
 2084 01a0 8DF83030 		strb	r3, [sp, #48]
 2085              		.loc 1 787 0
 2086 01a4 9DF93030 		ldrsb	r3, [sp, #48]
 2087 01a8 002B     		cmp	r3, #0
 2088 01aa 63D1     		bne	.L151
 2089              		.loc 1 788 0 discriminator 1
 2090 01ac BDF83430 		ldrh	r3, [sp, #52]
 2091              		.loc 1 787 0 discriminator 1
 2092 01b0 BDF83620 		ldrh	r2, [sp, #54]
 2093 01b4 9A42     		cmp	r2, r3
 2094 01b6 5DD2     		bcs	.L151
 2095              		.loc 1 792 0
 2096 01b8 0023     		movs	r3, #0
 2097 01ba 1293     		str	r3, [sp, #72]
 2098 01bc 09E0     		b	.L152
 2099              	.L153:
 2100              		.loc 1 793 0 discriminator 3
 2101 01be 099A     		ldr	r2, [sp, #36]
 2102 01c0 129B     		ldr	r3, [sp, #72]
 2103 01c2 1344     		add	r3, r3, r2
 2104 01c4 03F59273 		add	r3, r3, #292
 2105 01c8 0022     		movs	r2, #0
 2106 01ca 1A70     		strb	r2, [r3]
 2107              		.loc 1 792 0 discriminator 3
 2108 01cc 129B     		ldr	r3, [sp, #72]
 2109 01ce 0133     		adds	r3, r3, #1
ARM GAS  C:\Users\PCHAUT~1\AppData\Local\Temp\ccYc6BCi.s 			page 38


 2110 01d0 1293     		str	r3, [sp, #72]
 2111              	.L152:
 2112              		.loc 1 792 0 is_stmt 0 discriminator 1
 2113 01d2 129A     		ldr	r2, [sp, #72]
 2114 01d4 179B     		ldr	r3, [sp, #92]
 2115 01d6 9A42     		cmp	r2, r3
 2116 01d8 F1D3     		bcc	.L153
 2117              		.loc 1 797 0 is_stmt 1
 2118 01da 02E0     		b	.L154
 2119              	.L156:
 2120              		.loc 1 799 0
 2121 01dc 109B     		ldr	r3, [sp, #64]
 2122 01de 0133     		adds	r3, r3, #1
 2123 01e0 1093     		str	r3, [sp, #64]
 2124              	.L154:
 2125              		.loc 1 797 0
 2126 01e2 9DF83320 		ldrb	r2, [sp, #51]	@ zero_extendqisi2
 2127 01e6 109B     		ldr	r3, [sp, #64]
 2128 01e8 1344     		add	r3, r3, r2
 2129 01ea 1846     		mov	r0, r3
 2130 01ec FFF7FEFF 		bl	is_aperture
 2131 01f0 0346     		mov	r3, r0
 2132 01f2 002B     		cmp	r3, #0
 2133 01f4 03D1     		bne	.L155
 2134              		.loc 1 798 0
 2135 01f6 109A     		ldr	r2, [sp, #64]
 2136 01f8 169B     		ldr	r3, [sp, #88]
 2137 01fa 9A42     		cmp	r2, r3
 2138 01fc EED3     		bcc	.L156
 2139              	.L155:
 2140              		.loc 1 802 0
 2141 01fe 0123     		movs	r3, #1
 2142 0200 1193     		str	r3, [sp, #68]
 2143              		.loc 1 804 0
 2144 0202 119B     		ldr	r3, [sp, #68]
 2145 0204 D9B2     		uxtb	r1, r3
 2146              		.loc 1 806 0
 2147 0206 099B     		ldr	r3, [sp, #36]
 2148 0208 03F59570 		add	r0, r3, #298
 2149              		.loc 1 807 0
 2150 020c 099B     		ldr	r3, [sp, #36]
 2151 020e 03F59274 		add	r4, r3, #292
 2152              		.loc 1 804 0
 2153 0212 9DF83330 		ldrb	r3, [sp, #51]	@ zero_extendqisi2
 2154 0216 0EAA     		add	r2, sp, #56
 2155 0218 0492     		str	r2, [sp, #16]
 2156 021a 159A     		ldr	r2, [sp, #84]
 2157 021c 0392     		str	r2, [sp, #12]
 2158 021e 109A     		ldr	r2, [sp, #64]
 2159 0220 0292     		str	r2, [sp, #8]
 2160 0222 0193     		str	r3, [sp, #4]
 2161 0224 179B     		ldr	r3, [sp, #92]
 2162 0226 0093     		str	r3, [sp]
 2163 0228 2346     		mov	r3, r4
 2164 022a 0246     		mov	r2, r0
 2165 022c 0998     		ldr	r0, [sp, #36]
 2166 022e FFF7FEFF 		bl	enable_ref_spads
ARM GAS  C:\Users\PCHAUT~1\AppData\Local\Temp\ccYc6BCi.s 			page 39


 2167 0232 0346     		mov	r3, r0
 2168 0234 8DF83030 		strb	r3, [sp, #48]
 2169              		.loc 1 814 0
 2170 0238 9DF93030 		ldrsb	r3, [sp, #48]
 2171 023c 002B     		cmp	r3, #0
 2172 023e 1CD1     		bne	.L171
 2173              		.loc 1 815 0
 2174 0240 0E9B     		ldr	r3, [sp, #56]
 2175 0242 1093     		str	r3, [sp, #64]
 2176              		.loc 1 816 0
 2177 0244 0DAB     		add	r3, sp, #52
 2178 0246 1946     		mov	r1, r3
 2179 0248 0998     		ldr	r0, [sp, #36]
 2180 024a FFF7FEFF 		bl	perform_ref_signal_measurement
 2181 024e 0346     		mov	r3, r0
 2182 0250 8DF83030 		strb	r3, [sp, #48]
 2183              		.loc 1 819 0
 2184 0254 9DF93030 		ldrsb	r3, [sp, #48]
 2185 0258 002B     		cmp	r3, #0
 2186 025a 0ED1     		bne	.L171
 2187              		.loc 1 820 0 discriminator 1
 2188 025c BDF83430 		ldrh	r3, [sp, #52]
 2189              		.loc 1 819 0 discriminator 1
 2190 0260 BDF83620 		ldrh	r2, [sp, #54]
 2191 0264 9A42     		cmp	r2, r3
 2192 0266 08D2     		bcs	.L171
 2193              		.loc 1 827 0
 2194 0268 0123     		movs	r3, #1
 2195 026a 8DF83230 		strb	r3, [sp, #50]
 2196              		.loc 1 828 0
 2197 026e 159B     		ldr	r3, [sp, #84]
 2198 0270 1493     		str	r3, [sp, #80]
 2199              		.loc 1 814 0
 2200 0272 02E0     		b	.L171
 2201              	.L151:
 2202              		.loc 1 832 0
 2203 0274 0023     		movs	r3, #0
 2204 0276 1193     		str	r3, [sp, #68]
 2205 0278 00E0     		b	.L150
 2206              	.L171:
 2207              		.loc 1 814 0
 2208 027a 00BF     		nop
 2209              	.L150:
 2210              		.loc 1 836 0
 2211 027c 9DF93030 		ldrsb	r3, [sp, #48]
 2212 0280 002B     		cmp	r3, #0
 2213 0282 40F0B480 		bne	.L158
 2214              		.loc 1 837 0 discriminator 1
 2215 0286 BDF83430 		ldrh	r3, [sp, #52]
 2216              		.loc 1 836 0 discriminator 1
 2217 028a BDF83620 		ldrh	r2, [sp, #54]
 2218 028e 9A42     		cmp	r2, r3
 2219 0290 40F2AD80 		bls	.L158
 2220              		.loc 1 843 0
 2221 0294 119B     		ldr	r3, [sp, #68]
 2222 0296 8DF83230 		strb	r3, [sp, #50]
 2223              		.loc 1 844 0
ARM GAS  C:\Users\PCHAUT~1\AppData\Local\Temp\ccYc6BCi.s 			page 40


 2224 029a 159B     		ldr	r3, [sp, #84]
 2225 029c 1493     		str	r3, [sp, #80]
 2226              		.loc 1 846 0
 2227 029e 099B     		ldr	r3, [sp, #36]
 2228 02a0 03F59271 		add	r1, r3, #292
 2229 02a4 19AB     		add	r3, sp, #100
 2230 02a6 179A     		ldr	r2, [sp, #92]
 2231 02a8 1846     		mov	r0, r3
 2232 02aa FFF7FEFF 		bl	memcpy
 2233              		.loc 1 848 0
 2234 02ae BDF83430 		ldrh	r3, [sp, #52]
 2235 02b2 1A46     		mov	r2, r3
 2236 02b4 BDF83630 		ldrh	r3, [sp, #54]
 2237 02b8 D31A     		subs	r3, r2, r3
 2238 02ba 002B     		cmp	r3, #0
 2239 02bc B8BF     		it	lt
 2240 02be 5B42     		rsblt	r3, r3, #0
 2241 02c0 1393     		str	r3, [sp, #76]
 2242              		.loc 1 850 0
 2243 02c2 0023     		movs	r3, #0
 2244 02c4 8DF83130 		strb	r3, [sp, #49]
 2245              		.loc 1 852 0
 2246 02c8 88E0     		b	.L159
 2247              	.L167:
 2248              		.loc 1 854 0
 2249 02ca 099B     		ldr	r3, [sp, #36]
 2250 02cc 03F59570 		add	r0, r3, #298
 2251              		.loc 1 853 0
 2252 02d0 0FAB     		add	r3, sp, #60
 2253 02d2 109A     		ldr	r2, [sp, #64]
 2254 02d4 1799     		ldr	r1, [sp, #92]
 2255 02d6 FFF7FEFF 		bl	get_next_good_spad
 2256              		.loc 1 858 0
 2257 02da 0F9B     		ldr	r3, [sp, #60]
 2258 02dc B3F1FF3F 		cmp	r3, #-1
 2259 02e0 06D1     		bne	.L160
 2260              		.loc 1 859 0
 2261 02e2 CE23     		movs	r3, #206
 2262 02e4 8DF83030 		strb	r3, [sp, #48]
 2263              		.loc 1 860 0
 2264 02e8 81E0     		b	.L158
 2265              	.L175:
 2266 02ea 00BF     		.align	2
 2267              	.L174:
 2268 02ec 00000000 		.word	__stack_chk_guard
 2269              	.L160:
 2270              		.loc 1 866 0
 2271 02f0 9DF83330 		ldrb	r3, [sp, #51]	@ zero_extendqisi2
 2272 02f4 0F9A     		ldr	r2, [sp, #60]
 2273 02f6 1344     		add	r3, r3, r2
 2274 02f8 1846     		mov	r0, r3
 2275 02fa FFF7FEFF 		bl	is_aperture
 2276 02fe 0346     		mov	r3, r0
 2277 0300 1A46     		mov	r2, r3
 2278 0302 119B     		ldr	r3, [sp, #68]
 2279 0304 9342     		cmp	r3, r2
 2280 0306 03D0     		beq	.L161
ARM GAS  C:\Users\PCHAUT~1\AppData\Local\Temp\ccYc6BCi.s 			page 41


 2281              		.loc 1 871 0
 2282 0308 0123     		movs	r3, #1
 2283 030a 8DF83130 		strb	r3, [sp, #49]
 2284              		.loc 1 872 0
 2285 030e 6EE0     		b	.L158
 2286              	.L161:
 2287              		.loc 1 875 0
 2288 0310 149B     		ldr	r3, [sp, #80]
 2289 0312 0133     		adds	r3, r3, #1
 2290 0314 1493     		str	r3, [sp, #80]
 2291              		.loc 1 877 0
 2292 0316 0F9B     		ldr	r3, [sp, #60]
 2293 0318 1093     		str	r3, [sp, #64]
 2294              		.loc 1 879 0
 2295 031a 099B     		ldr	r3, [sp, #36]
 2296 031c 03F59273 		add	r3, r3, #292
 2297              		.loc 1 878 0
 2298 0320 109A     		ldr	r2, [sp, #64]
 2299 0322 1799     		ldr	r1, [sp, #92]
 2300 0324 1846     		mov	r0, r3
 2301 0326 FFF7FEFF 		bl	enable_spad_bit
 2302 032a 0346     		mov	r3, r0
 2303 032c 8DF83030 		strb	r3, [sp, #48]
 2304              		.loc 1 882 0
 2305 0330 9DF93030 		ldrsb	r3, [sp, #48]
 2306 0334 002B     		cmp	r3, #0
 2307 0336 0CD1     		bne	.L162
 2308              		.loc 1 883 0
 2309 0338 109B     		ldr	r3, [sp, #64]
 2310 033a 0133     		adds	r3, r3, #1
 2311 033c 1093     		str	r3, [sp, #64]
 2312              		.loc 1 887 0
 2313 033e 099B     		ldr	r3, [sp, #36]
 2314 0340 03F59273 		add	r3, r3, #292
 2315              		.loc 1 886 0
 2316 0344 1946     		mov	r1, r3
 2317 0346 0998     		ldr	r0, [sp, #36]
 2318 0348 FFF7FEFF 		bl	set_ref_spad_map
 2319 034c 0346     		mov	r3, r0
 2320 034e 8DF83030 		strb	r3, [sp, #48]
 2321              	.L162:
 2322              		.loc 1 890 0
 2323 0352 9DF93030 		ldrsb	r3, [sp, #48]
 2324 0356 002B     		cmp	r3, #0
 2325 0358 46D1     		bne	.L172
 2326              		.loc 1 893 0
 2327 035a 0DAB     		add	r3, sp, #52
 2328 035c 1946     		mov	r1, r3
 2329 035e 0998     		ldr	r0, [sp, #36]
 2330 0360 FFF7FEFF 		bl	perform_ref_signal_measurement
 2331 0364 0346     		mov	r3, r0
 2332 0366 8DF83030 		strb	r3, [sp, #48]
 2333              		.loc 1 896 0
 2334 036a 9DF93030 		ldrsb	r3, [sp, #48]
 2335 036e 002B     		cmp	r3, #0
 2336 0370 3CD1     		bne	.L173
 2337              		.loc 1 899 0
ARM GAS  C:\Users\PCHAUT~1\AppData\Local\Temp\ccYc6BCi.s 			page 42


 2338 0372 BDF83430 		ldrh	r3, [sp, #52]
 2339 0376 1A46     		mov	r2, r3
 2340 0378 BDF83630 		ldrh	r3, [sp, #54]
 2341 037c D31A     		subs	r3, r2, r3
 2342 037e 002B     		cmp	r3, #0
 2343 0380 B8BF     		it	lt
 2344 0382 5B42     		rsblt	r3, r3, #0
 2345 0384 1893     		str	r3, [sp, #96]
 2346              		.loc 1 901 0
 2347 0386 BDF83430 		ldrh	r3, [sp, #52]
 2348 038a BDF83620 		ldrh	r2, [sp, #54]
 2349 038e 9A42     		cmp	r2, r3
 2350 0390 1AD2     		bcs	.L165
 2351              		.loc 1 906 0
 2352 0392 189A     		ldr	r2, [sp, #96]
 2353 0394 139B     		ldr	r3, [sp, #76]
 2354 0396 9A42     		cmp	r2, r3
 2355 0398 12D9     		bls	.L166
 2356              		.loc 1 909 0
 2357 039a 19AB     		add	r3, sp, #100
 2358 039c 1946     		mov	r1, r3
 2359 039e 0998     		ldr	r0, [sp, #36]
 2360 03a0 FFF7FEFF 		bl	set_ref_spad_map
 2361 03a4 0346     		mov	r3, r0
 2362 03a6 8DF83030 		strb	r3, [sp, #48]
 2363              		.loc 1 912 0
 2364 03aa 099B     		ldr	r3, [sp, #36]
 2365 03ac 03F59273 		add	r3, r3, #292
 2366              		.loc 1 911 0
 2367 03b0 19A9     		add	r1, sp, #100
 2368 03b2 179A     		ldr	r2, [sp, #92]
 2369 03b4 1846     		mov	r0, r3
 2370 03b6 FFF7FEFF 		bl	memcpy
 2371              		.loc 1 915 0
 2372 03ba 149B     		ldr	r3, [sp, #80]
 2373 03bc 013B     		subs	r3, r3, #1
 2374 03be 1493     		str	r3, [sp, #80]
 2375              	.L166:
 2376              		.loc 1 917 0
 2377 03c0 0123     		movs	r3, #1
 2378 03c2 8DF83130 		strb	r3, [sp, #49]
 2379 03c6 09E0     		b	.L159
 2380              	.L165:
 2381              		.loc 1 920 0
 2382 03c8 189B     		ldr	r3, [sp, #96]
 2383 03ca 1393     		str	r3, [sp, #76]
 2384              		.loc 1 922 0
 2385 03cc 099B     		ldr	r3, [sp, #36]
 2386 03ce 03F59271 		add	r1, r3, #292
 2387              		.loc 1 921 0
 2388 03d2 19AB     		add	r3, sp, #100
 2389 03d4 179A     		ldr	r2, [sp, #92]
 2390 03d6 1846     		mov	r0, r3
 2391 03d8 FFF7FEFF 		bl	memcpy
 2392              	.L159:
 2393              		.loc 1 852 0
 2394 03dc 9DF83130 		ldrb	r3, [sp, #49]	@ zero_extendqisi2
ARM GAS  C:\Users\PCHAUT~1\AppData\Local\Temp\ccYc6BCi.s 			page 43


 2395 03e0 002B     		cmp	r3, #0
 2396 03e2 3FF472AF 		beq	.L167
 2397 03e6 02E0     		b	.L158
 2398              	.L172:
 2399              		.loc 1 891 0
 2400 03e8 00BF     		nop
 2401 03ea 00E0     		b	.L158
 2402              	.L173:
 2403              		.loc 1 897 0
 2404 03ec 00BF     		nop
 2405              	.L158:
 2406              		.loc 1 929 0
 2407 03ee 9DF93030 		ldrsb	r3, [sp, #48]
 2408 03f2 002B     		cmp	r3, #0
 2409 03f4 15D1     		bne	.L168
 2410              		.loc 1 930 0
 2411 03f6 089B     		ldr	r3, [sp, #32]
 2412 03f8 149A     		ldr	r2, [sp, #80]
 2413 03fa 1A60     		str	r2, [r3]
 2414              		.loc 1 931 0
 2415 03fc 079B     		ldr	r3, [sp, #28]
 2416 03fe 9DF83220 		ldrb	r2, [sp, #50]
 2417 0402 1A70     		strb	r2, [r3]
 2418              		.loc 1 933 0
 2419 0404 099B     		ldr	r3, [sp, #36]
 2420 0406 0122     		movs	r2, #1
 2421 0408 83F81521 		strb	r2, [r3, #277]
 2422              		.loc 1 934 0
 2423 040c 089B     		ldr	r3, [sp, #32]
 2424 040e 1B68     		ldr	r3, [r3]
 2425 0410 DAB2     		uxtb	r2, r3
 2426 0412 099B     		ldr	r3, [sp, #36]
 2427 0414 83F81321 		strb	r2, [r3, #275]
 2428              		.loc 1 936 0
 2429 0418 079B     		ldr	r3, [sp, #28]
 2430 041a 1A78     		ldrb	r2, [r3]	@ zero_extendqisi2
 2431 041c 099B     		ldr	r3, [sp, #36]
 2432 041e 83F81421 		strb	r2, [r3, #276]
 2433              	.L168:
 2434              		.loc 1 940 0
 2435 0422 9DF93030 		ldrsb	r3, [sp, #48]
 2436              		.loc 1 941 0
 2437 0426 1846     		mov	r0, r3
 2438 0428 044B     		ldr	r3, .L176
 2439 042a 1B9A     		ldr	r2, [sp, #108]
 2440 042c 1B68     		ldr	r3, [r3]
 2441 042e 9A42     		cmp	r2, r3
 2442 0430 01D0     		beq	.L170
 2443 0432 FFF7FEFF 		bl	__stack_chk_fail
 2444              	.L170:
 2445 0436 1CB0     		add	sp, sp, #112
 2446              		.cfi_def_cfa_offset 8
 2447              		@ sp needed
 2448 0438 10BD     		pop	{r4, pc}
 2449              	.L177:
 2450 043a 00BF     		.align	2
 2451              	.L176:
ARM GAS  C:\Users\PCHAUT~1\AppData\Local\Temp\ccYc6BCi.s 			page 44


 2452 043c 00000000 		.word	__stack_chk_guard
 2453              		.cfi_endproc
 2454              	.LFE16:
 2455              		.size	VL53L0X_perform_ref_spad_management, .-VL53L0X_perform_ref_spad_management
 2456              		.section	.text.VL53L0X_set_reference_spads,"ax",%progbits
 2457              		.align	1
 2458              		.p2align 4,,15
 2459              		.global	VL53L0X_set_reference_spads
 2460              		.syntax unified
 2461              		.thumb
 2462              		.thumb_func
 2463              		.fpu fpv4-sp-d16
 2464              		.type	VL53L0X_set_reference_spads, %function
 2465              	VL53L0X_set_reference_spads:
 2466              	.LFB17:
 2467              		.loc 1 945 0
 2468              		.cfi_startproc
 2469              		@ args = 0, pretend = 0, frame = 48
 2470              		@ frame_needed = 0, uses_anonymous_args = 0
 2471 0000 10B5     		push	{r4, lr}
 2472              		.cfi_def_cfa_offset 8
 2473              		.cfi_offset 4, -8
 2474              		.cfi_offset 14, -4
 2475 0002 92B0     		sub	sp, sp, #72
 2476              		.cfi_def_cfa_offset 80
 2477 0004 0990     		str	r0, [sp, #36]
 2478 0006 0891     		str	r1, [sp, #32]
 2479 0008 1346     		mov	r3, r2
 2480 000a 8DF81F30 		strb	r3, [sp, #31]
 2481              		.loc 1 945 0
 2482 000e 544B     		ldr	r3, .L191
 2483 0010 1B68     		ldr	r3, [r3]
 2484 0012 1193     		str	r3, [sp, #68]
 2485              		.loc 1 946 0
 2486 0014 0023     		movs	r3, #0
 2487 0016 8DF82E30 		strb	r3, [sp, #46]
 2488              		.loc 1 947 0
 2489 001a 0023     		movs	r3, #0
 2490 001c 0D93     		str	r3, [sp, #52]
 2491              		.loc 1 948 0
 2492 001e B423     		movs	r3, #180
 2493 0020 8DF82F30 		strb	r3, [sp, #47]
 2494              		.loc 1 949 0
 2495 0024 0623     		movs	r3, #6
 2496 0026 0F93     		str	r3, [sp, #60]
 2497              		.loc 1 950 0
 2498 0028 2C23     		movs	r3, #44
 2499 002a 1093     		str	r3, [sp, #64]
 2500              		.loc 1 961 0
 2501 002c 0122     		movs	r2, #1
 2502 002e FF21     		movs	r1, #255
 2503 0030 0998     		ldr	r0, [sp, #36]
 2504 0032 FFF7FEFF 		bl	VL53L0X_WrByte
 2505 0036 0346     		mov	r3, r0
 2506 0038 8DF82E30 		strb	r3, [sp, #46]
 2507              		.loc 1 963 0
 2508 003c 9DF92E30 		ldrsb	r3, [sp, #46]
ARM GAS  C:\Users\PCHAUT~1\AppData\Local\Temp\ccYc6BCi.s 			page 45


 2509 0040 002B     		cmp	r3, #0
 2510 0042 07D1     		bne	.L179
 2511              		.loc 1 964 0
 2512 0044 0022     		movs	r2, #0
 2513 0046 4F21     		movs	r1, #79
 2514 0048 0998     		ldr	r0, [sp, #36]
 2515 004a FFF7FEFF 		bl	VL53L0X_WrByte
 2516 004e 0346     		mov	r3, r0
 2517 0050 8DF82E30 		strb	r3, [sp, #46]
 2518              	.L179:
 2519              		.loc 1 967 0
 2520 0054 9DF92E30 		ldrsb	r3, [sp, #46]
 2521 0058 002B     		cmp	r3, #0
 2522 005a 07D1     		bne	.L180
 2523              		.loc 1 968 0
 2524 005c 2C22     		movs	r2, #44
 2525 005e 4E21     		movs	r1, #78
 2526 0060 0998     		ldr	r0, [sp, #36]
 2527 0062 FFF7FEFF 		bl	VL53L0X_WrByte
 2528 0066 0346     		mov	r3, r0
 2529 0068 8DF82E30 		strb	r3, [sp, #46]
 2530              	.L180:
 2531              		.loc 1 971 0
 2532 006c 9DF92E30 		ldrsb	r3, [sp, #46]
 2533 0070 002B     		cmp	r3, #0
 2534 0072 07D1     		bne	.L181
 2535              		.loc 1 972 0
 2536 0074 0022     		movs	r2, #0
 2537 0076 FF21     		movs	r1, #255
 2538 0078 0998     		ldr	r0, [sp, #36]
 2539 007a FFF7FEFF 		bl	VL53L0X_WrByte
 2540 007e 0346     		mov	r3, r0
 2541 0080 8DF82E30 		strb	r3, [sp, #46]
 2542              	.L181:
 2543              		.loc 1 974 0
 2544 0084 9DF92E30 		ldrsb	r3, [sp, #46]
 2545 0088 002B     		cmp	r3, #0
 2546 008a 09D1     		bne	.L182
 2547              		.loc 1 975 0
 2548 008c 9DF82F30 		ldrb	r3, [sp, #47]	@ zero_extendqisi2
 2549 0090 1A46     		mov	r2, r3
 2550 0092 B621     		movs	r1, #182
 2551 0094 0998     		ldr	r0, [sp, #36]
 2552 0096 FFF7FEFF 		bl	VL53L0X_WrByte
 2553 009a 0346     		mov	r3, r0
 2554 009c 8DF82E30 		strb	r3, [sp, #46]
 2555              	.L182:
 2556              		.loc 1 979 0
 2557 00a0 0023     		movs	r3, #0
 2558 00a2 0E93     		str	r3, [sp, #56]
 2559 00a4 09E0     		b	.L183
 2560              	.L184:
 2561              		.loc 1 980 0 discriminator 3
 2562 00a6 099A     		ldr	r2, [sp, #36]
 2563 00a8 0E9B     		ldr	r3, [sp, #56]
 2564 00aa 1344     		add	r3, r3, r2
 2565 00ac 03F59273 		add	r3, r3, #292
ARM GAS  C:\Users\PCHAUT~1\AppData\Local\Temp\ccYc6BCi.s 			page 46


 2566 00b0 0022     		movs	r2, #0
 2567 00b2 1A70     		strb	r2, [r3]
 2568              		.loc 1 979 0 discriminator 3
 2569 00b4 0E9B     		ldr	r3, [sp, #56]
 2570 00b6 0133     		adds	r3, r3, #1
 2571 00b8 0E93     		str	r3, [sp, #56]
 2572              	.L183:
 2573              		.loc 1 979 0 is_stmt 0 discriminator 1
 2574 00ba 0E9A     		ldr	r2, [sp, #56]
 2575 00bc 0F9B     		ldr	r3, [sp, #60]
 2576 00be 9A42     		cmp	r2, r3
 2577 00c0 F1D3     		bcc	.L184
 2578              		.loc 1 982 0 is_stmt 1
 2579 00c2 9DF81F30 		ldrb	r3, [sp, #31]	@ zero_extendqisi2
 2580 00c6 002B     		cmp	r3, #0
 2581 00c8 11D0     		beq	.L185
 2582              		.loc 1 984 0
 2583 00ca 02E0     		b	.L186
 2584              	.L187:
 2585              		.loc 1 986 0
 2586 00cc 0D9B     		ldr	r3, [sp, #52]
 2587 00ce 0133     		adds	r3, r3, #1
 2588 00d0 0D93     		str	r3, [sp, #52]
 2589              	.L186:
 2590              		.loc 1 984 0
 2591 00d2 9DF82F20 		ldrb	r2, [sp, #47]	@ zero_extendqisi2
 2592 00d6 0D9B     		ldr	r3, [sp, #52]
 2593 00d8 1344     		add	r3, r3, r2
 2594 00da 1846     		mov	r0, r3
 2595 00dc FFF7FEFF 		bl	is_aperture
 2596 00e0 0346     		mov	r3, r0
 2597 00e2 002B     		cmp	r3, #0
 2598 00e4 03D1     		bne	.L185
 2599              		.loc 1 984 0 is_stmt 0 discriminator 1
 2600 00e6 0D9A     		ldr	r2, [sp, #52]
 2601 00e8 109B     		ldr	r3, [sp, #64]
 2602 00ea 9A42     		cmp	r2, r3
 2603 00ec EED3     		bcc	.L187
 2604              	.L185:
 2605              		.loc 1 991 0 is_stmt 1
 2606 00ee 099B     		ldr	r3, [sp, #36]
 2607 00f0 03F59570 		add	r0, r3, #298
 2608              		.loc 1 992 0
 2609 00f4 099B     		ldr	r3, [sp, #36]
 2610 00f6 03F59274 		add	r4, r3, #292
 2611              		.loc 1 989 0
 2612 00fa 9DF82F30 		ldrb	r3, [sp, #47]	@ zero_extendqisi2
 2613 00fe 9DF81F10 		ldrb	r1, [sp, #31]	@ zero_extendqisi2
 2614 0102 0CAA     		add	r2, sp, #48
 2615 0104 0492     		str	r2, [sp, #16]
 2616 0106 089A     		ldr	r2, [sp, #32]
 2617 0108 0392     		str	r2, [sp, #12]
 2618 010a 0D9A     		ldr	r2, [sp, #52]
 2619 010c 0292     		str	r2, [sp, #8]
 2620 010e 0193     		str	r3, [sp, #4]
 2621 0110 0F9B     		ldr	r3, [sp, #60]
 2622 0112 0093     		str	r3, [sp]
ARM GAS  C:\Users\PCHAUT~1\AppData\Local\Temp\ccYc6BCi.s 			page 47


 2623 0114 2346     		mov	r3, r4
 2624 0116 0246     		mov	r2, r0
 2625 0118 0998     		ldr	r0, [sp, #36]
 2626 011a FFF7FEFF 		bl	enable_ref_spads
 2627 011e 0346     		mov	r3, r0
 2628 0120 8DF82E30 		strb	r3, [sp, #46]
 2629              		.loc 1 999 0
 2630 0124 9DF92E30 		ldrsb	r3, [sp, #46]
 2631 0128 002B     		cmp	r3, #0
 2632 012a 0DD1     		bne	.L188
 2633              		.loc 1 1000 0
 2634 012c 099B     		ldr	r3, [sp, #36]
 2635 012e 0122     		movs	r2, #1
 2636 0130 83F81521 		strb	r2, [r3, #277]
 2637              		.loc 1 1001 0
 2638 0134 089B     		ldr	r3, [sp, #32]
 2639 0136 DAB2     		uxtb	r2, r3
 2640 0138 099B     		ldr	r3, [sp, #36]
 2641 013a 83F81321 		strb	r2, [r3, #275]
 2642              		.loc 1 1003 0
 2643 013e 099B     		ldr	r3, [sp, #36]
 2644 0140 9DF81F20 		ldrb	r2, [sp, #31]
 2645 0144 83F81421 		strb	r2, [r3, #276]
 2646              	.L188:
 2647              		.loc 1 1007 0
 2648 0148 9DF92E30 		ldrsb	r3, [sp, #46]
 2649              		.loc 1 1008 0
 2650 014c 1846     		mov	r0, r3
 2651 014e 044B     		ldr	r3, .L191
 2652 0150 119A     		ldr	r2, [sp, #68]
 2653 0152 1B68     		ldr	r3, [r3]
 2654 0154 9A42     		cmp	r2, r3
 2655 0156 01D0     		beq	.L190
 2656 0158 FFF7FEFF 		bl	__stack_chk_fail
 2657              	.L190:
 2658 015c 12B0     		add	sp, sp, #72
 2659              		.cfi_def_cfa_offset 8
 2660              		@ sp needed
 2661 015e 10BD     		pop	{r4, pc}
 2662              	.L192:
 2663              		.align	2
 2664              	.L191:
 2665 0160 00000000 		.word	__stack_chk_guard
 2666              		.cfi_endproc
 2667              	.LFE17:
 2668              		.size	VL53L0X_set_reference_spads, .-VL53L0X_set_reference_spads
 2669              		.section	.text.VL53L0X_get_reference_spads,"ax",%progbits
 2670              		.align	1
 2671              		.p2align 4,,15
 2672              		.global	VL53L0X_get_reference_spads
 2673              		.syntax unified
 2674              		.thumb
 2675              		.thumb_func
 2676              		.fpu fpv4-sp-d16
 2677              		.type	VL53L0X_get_reference_spads, %function
 2678              	VL53L0X_get_reference_spads:
 2679              	.LFB18:
ARM GAS  C:\Users\PCHAUT~1\AppData\Local\Temp\ccYc6BCi.s 			page 48


 2680              		.loc 1 1012 0
 2681              		.cfi_startproc
 2682              		@ args = 0, pretend = 0, frame = 48
 2683              		@ frame_needed = 0, uses_anonymous_args = 0
 2684 0000 00B5     		push	{lr}
 2685              		.cfi_def_cfa_offset 4
 2686              		.cfi_offset 14, -4
 2687 0002 8FB0     		sub	sp, sp, #60
 2688              		.cfi_def_cfa_offset 64
 2689 0004 0590     		str	r0, [sp, #20]
 2690 0006 0491     		str	r1, [sp, #16]
 2691 0008 0392     		str	r2, [sp, #12]
 2692              		.loc 1 1012 0
 2693 000a 304B     		ldr	r3, .L198
 2694 000c 1B68     		ldr	r3, [r3]
 2695 000e 0D93     		str	r3, [sp, #52]
 2696              		.loc 1 1013 0
 2697 0010 0023     		movs	r3, #0
 2698 0012 8DF81E30 		strb	r3, [sp, #30]
 2699              		.loc 1 1016 0
 2700 0016 2C23     		movs	r3, #44
 2701 0018 0993     		str	r3, [sp, #36]
 2702              		.loc 1 1017 0
 2703 001a 0623     		movs	r3, #6
 2704 001c 0A93     		str	r3, [sp, #40]
 2705              		.loc 1 1019 0
 2706 001e 0023     		movs	r3, #0
 2707 0020 8DF81D30 		strb	r3, [sp, #29]
 2708              		.loc 1 1021 0
 2709 0024 059B     		ldr	r3, [sp, #20]
 2710 0026 93F81531 		ldrb	r3, [r3, #277]
 2711 002a 8DF81F30 		strb	r3, [sp, #31]
 2712              		.loc 1 1024 0
 2713 002e 9DF81F30 		ldrb	r3, [sp, #31]	@ zero_extendqisi2
 2714 0032 012B     		cmp	r3, #1
 2715 0034 0BD1     		bne	.L194
 2716              		.loc 1 1026 0
 2717 0036 059B     		ldr	r3, [sp, #20]
 2718 0038 93F81331 		ldrb	r3, [r3, #275]	@ zero_extendqisi2
 2719 003c 1A46     		mov	r2, r3
 2720 003e 049B     		ldr	r3, [sp, #16]
 2721 0040 1A60     		str	r2, [r3]
 2722              		.loc 1 1028 0
 2723 0042 059B     		ldr	r3, [sp, #20]
 2724 0044 93F81421 		ldrb	r2, [r3, #276]	@ zero_extendqisi2
 2725 0048 039B     		ldr	r3, [sp, #12]
 2726 004a 1A70     		strb	r2, [r3]
 2727 004c 31E0     		b	.L195
 2728              	.L194:
 2729              		.loc 1 1033 0
 2730 004e 0BAB     		add	r3, sp, #44
 2731 0050 1946     		mov	r1, r3
 2732 0052 0598     		ldr	r0, [sp, #20]
 2733 0054 FFF7FEFF 		bl	get_ref_spad_map
 2734 0058 0346     		mov	r3, r0
 2735 005a 8DF81E30 		strb	r3, [sp, #30]
 2736              		.loc 1 1035 0
ARM GAS  C:\Users\PCHAUT~1\AppData\Local\Temp\ccYc6BCi.s 			page 49


 2737 005e 9DF91E30 		ldrsb	r3, [sp, #30]
 2738 0062 002B     		cmp	r3, #0
 2739 0064 25D1     		bne	.L195
 2740              		.loc 1 1039 0
 2741 0066 08AA     		add	r2, sp, #32
 2742 0068 0BA8     		add	r0, sp, #44
 2743 006a 0DF11D03 		add	r3, sp, #29
 2744 006e 0093     		str	r3, [sp]
 2745 0070 1346     		mov	r3, r2
 2746 0072 099A     		ldr	r2, [sp, #36]
 2747 0074 0A99     		ldr	r1, [sp, #40]
 2748 0076 FFF7FEFF 		bl	count_enabled_spads
 2749 007a 0346     		mov	r3, r0
 2750 007c 8DF81E30 		strb	r3, [sp, #30]
 2751              		.loc 1 1045 0
 2752 0080 9DF91E30 		ldrsb	r3, [sp, #30]
 2753 0084 002B     		cmp	r3, #0
 2754 0086 14D1     		bne	.L195
 2755              		.loc 1 1047 0
 2756 0088 089A     		ldr	r2, [sp, #32]
 2757 008a 049B     		ldr	r3, [sp, #16]
 2758 008c 1A60     		str	r2, [r3]
 2759              		.loc 1 1048 0
 2760 008e 9DF81D20 		ldrb	r2, [sp, #29]	@ zero_extendqisi2
 2761 0092 039B     		ldr	r3, [sp, #12]
 2762 0094 1A70     		strb	r2, [r3]
 2763              		.loc 1 1050 0
 2764 0096 059B     		ldr	r3, [sp, #20]
 2765 0098 0122     		movs	r2, #1
 2766 009a 83F81521 		strb	r2, [r3, #277]
 2767              		.loc 1 1052 0
 2768 009e 089B     		ldr	r3, [sp, #32]
 2769 00a0 DAB2     		uxtb	r2, r3
 2770 00a2 059B     		ldr	r3, [sp, #20]
 2771 00a4 83F81321 		strb	r2, [r3, #275]
 2772              		.loc 1 1055 0
 2773 00a8 9DF81D20 		ldrb	r2, [sp, #29]	@ zero_extendqisi2
 2774 00ac 059B     		ldr	r3, [sp, #20]
 2775 00ae 83F81421 		strb	r2, [r3, #276]
 2776              	.L195:
 2777              		.loc 1 1061 0
 2778 00b2 9DF91E30 		ldrsb	r3, [sp, #30]
 2779              		.loc 1 1062 0
 2780 00b6 1846     		mov	r0, r3
 2781 00b8 044B     		ldr	r3, .L198
 2782 00ba 0D9A     		ldr	r2, [sp, #52]
 2783 00bc 1B68     		ldr	r3, [r3]
 2784 00be 9A42     		cmp	r2, r3
 2785 00c0 01D0     		beq	.L197
 2786 00c2 FFF7FEFF 		bl	__stack_chk_fail
 2787              	.L197:
 2788 00c6 0FB0     		add	sp, sp, #60
 2789              		.cfi_def_cfa_offset 4
 2790              		@ sp needed
 2791 00c8 5DF804FB 		ldr	pc, [sp], #4
 2792              	.L199:
 2793              		.align	2
ARM GAS  C:\Users\PCHAUT~1\AppData\Local\Temp\ccYc6BCi.s 			page 50


 2794              	.L198:
 2795 00cc 00000000 		.word	__stack_chk_guard
 2796              		.cfi_endproc
 2797              	.LFE18:
 2798              		.size	VL53L0X_get_reference_spads, .-VL53L0X_get_reference_spads
 2799              		.section	.text.VL53L0X_perform_single_ref_calibration,"ax",%progbits
 2800              		.align	1
 2801              		.p2align 4,,15
 2802              		.global	VL53L0X_perform_single_ref_calibration
 2803              		.syntax unified
 2804              		.thumb
 2805              		.thumb_func
 2806              		.fpu fpv4-sp-d16
 2807              		.type	VL53L0X_perform_single_ref_calibration, %function
 2808              	VL53L0X_perform_single_ref_calibration:
 2809              	.LFB19:
 2810              		.loc 1 1067 0
 2811              		.cfi_startproc
 2812              		@ args = 0, pretend = 0, frame = 16
 2813              		@ frame_needed = 0, uses_anonymous_args = 0
 2814 0000 00B5     		push	{lr}
 2815              		.cfi_def_cfa_offset 4
 2816              		.cfi_offset 14, -4
 2817 0002 85B0     		sub	sp, sp, #20
 2818              		.cfi_def_cfa_offset 24
 2819 0004 0190     		str	r0, [sp, #4]
 2820 0006 0B46     		mov	r3, r1
 2821 0008 8DF80330 		strb	r3, [sp, #3]
 2822              		.loc 1 1067 0
 2823 000c 224B     		ldr	r3, .L207
 2824 000e 1B68     		ldr	r3, [r3]
 2825 0010 0393     		str	r3, [sp, #12]
 2826              		.loc 1 1068 0
 2827 0012 0023     		movs	r3, #0
 2828 0014 8DF80B30 		strb	r3, [sp, #11]
 2829              		.loc 1 1070 0
 2830 0018 9DF90B30 		ldrsb	r3, [sp, #11]
 2831 001c 002B     		cmp	r3, #0
 2832 001e 0CD1     		bne	.L201
 2833              		.loc 1 1071 0
 2834 0020 9DF80330 		ldrb	r3, [sp, #3]
 2835 0024 43F00103 		orr	r3, r3, #1
 2836 0028 DBB2     		uxtb	r3, r3
 2837 002a 1A46     		mov	r2, r3
 2838 002c 0021     		movs	r1, #0
 2839 002e 0198     		ldr	r0, [sp, #4]
 2840 0030 FFF7FEFF 		bl	VL53L0X_WrByte
 2841 0034 0346     		mov	r3, r0
 2842 0036 8DF80B30 		strb	r3, [sp, #11]
 2843              	.L201:
 2844              		.loc 1 1075 0
 2845 003a 9DF90B30 		ldrsb	r3, [sp, #11]
 2846 003e 002B     		cmp	r3, #0
 2847 0040 05D1     		bne	.L202
 2848              		.loc 1 1076 0
 2849 0042 0198     		ldr	r0, [sp, #4]
 2850 0044 FFF7FEFF 		bl	VL53L0X_measurement_poll_for_completion
ARM GAS  C:\Users\PCHAUT~1\AppData\Local\Temp\ccYc6BCi.s 			page 51


 2851 0048 0346     		mov	r3, r0
 2852 004a 8DF80B30 		strb	r3, [sp, #11]
 2853              	.L202:
 2854              		.loc 1 1078 0
 2855 004e 9DF90B30 		ldrsb	r3, [sp, #11]
 2856 0052 002B     		cmp	r3, #0
 2857 0054 06D1     		bne	.L203
 2858              		.loc 1 1079 0
 2859 0056 0021     		movs	r1, #0
 2860 0058 0198     		ldr	r0, [sp, #4]
 2861 005a FFF7FEFF 		bl	VL53L0X_ClearInterruptMask
 2862 005e 0346     		mov	r3, r0
 2863 0060 8DF80B30 		strb	r3, [sp, #11]
 2864              	.L203:
 2865              		.loc 1 1081 0
 2866 0064 9DF90B30 		ldrsb	r3, [sp, #11]
 2867 0068 002B     		cmp	r3, #0
 2868 006a 07D1     		bne	.L204
 2869              		.loc 1 1082 0
 2870 006c 0022     		movs	r2, #0
 2871 006e 0021     		movs	r1, #0
 2872 0070 0198     		ldr	r0, [sp, #4]
 2873 0072 FFF7FEFF 		bl	VL53L0X_WrByte
 2874 0076 0346     		mov	r3, r0
 2875 0078 8DF80B30 		strb	r3, [sp, #11]
 2876              	.L204:
 2877              		.loc 1 1084 0
 2878 007c 9DF90B30 		ldrsb	r3, [sp, #11]
 2879              		.loc 1 1085 0
 2880 0080 1846     		mov	r0, r3
 2881 0082 054B     		ldr	r3, .L207
 2882 0084 039A     		ldr	r2, [sp, #12]
 2883 0086 1B68     		ldr	r3, [r3]
 2884 0088 9A42     		cmp	r2, r3
 2885 008a 01D0     		beq	.L206
 2886 008c FFF7FEFF 		bl	__stack_chk_fail
 2887              	.L206:
 2888 0090 05B0     		add	sp, sp, #20
 2889              		.cfi_def_cfa_offset 4
 2890              		@ sp needed
 2891 0092 5DF804FB 		ldr	pc, [sp], #4
 2892              	.L208:
 2893 0096 00BF     		.align	2
 2894              	.L207:
 2895 0098 00000000 		.word	__stack_chk_guard
 2896              		.cfi_endproc
 2897              	.LFE19:
 2898              		.size	VL53L0X_perform_single_ref_calibration, .-VL53L0X_perform_single_ref_calibration
 2899              		.section	.text.VL53L0X_ref_calibration_io,"ax",%progbits
 2900              		.align	1
 2901              		.p2align 4,,15
 2902              		.global	VL53L0X_ref_calibration_io
 2903              		.syntax unified
 2904              		.thumb
 2905              		.thumb_func
 2906              		.fpu fpv4-sp-d16
 2907              		.type	VL53L0X_ref_calibration_io, %function
ARM GAS  C:\Users\PCHAUT~1\AppData\Local\Temp\ccYc6BCi.s 			page 52


 2908              	VL53L0X_ref_calibration_io:
 2909              	.LFB20:
 2910              		.loc 1 1092 0
 2911              		.cfi_startproc
 2912              		@ args = 16, pretend = 0, frame = 32
 2913              		@ frame_needed = 0, uses_anonymous_args = 0
 2914 0000 00B5     		push	{lr}
 2915              		.cfi_def_cfa_offset 4
 2916              		.cfi_offset 14, -4
 2917 0002 89B0     		sub	sp, sp, #36
 2918              		.cfi_def_cfa_offset 40
 2919 0004 0590     		str	r0, [sp, #20]
 2920 0006 0846     		mov	r0, r1
 2921 0008 1146     		mov	r1, r2
 2922 000a 1A46     		mov	r2, r3
 2923 000c 0346     		mov	r3, r0
 2924 000e 8DF81330 		strb	r3, [sp, #19]
 2925 0012 0B46     		mov	r3, r1
 2926 0014 8DF81230 		strb	r3, [sp, #18]
 2927 0018 1346     		mov	r3, r2
 2928 001a 8DF81130 		strb	r3, [sp, #17]
 2929 001e 0A9B     		ldr	r3, [sp, #40]
 2930 0020 0393     		str	r3, [sp, #12]
 2931 0022 0B9B     		ldr	r3, [sp, #44]
 2932 0024 0293     		str	r3, [sp, #8]
 2933 0026 9DF83030 		ldrb	r3, [sp, #48]
 2934 002a 8DF81030 		strb	r3, [sp, #16]
 2935 002e 9DF83430 		ldrb	r3, [sp, #52]
 2936 0032 8DF80730 		strb	r3, [sp, #7]
 2937              		.loc 1 1092 0
 2938 0036 584B     		ldr	r3, .L217
 2939 0038 1B68     		ldr	r3, [r3]
 2940 003a 0793     		str	r3, [sp, #28]
 2941              		.loc 1 1093 0
 2942 003c 0023     		movs	r3, #0
 2943 003e 8DF81B30 		strb	r3, [sp, #27]
 2944              		.loc 1 1094 0
 2945 0042 0023     		movs	r3, #0
 2946 0044 8DF81A30 		strb	r3, [sp, #26]
 2947              		.loc 1 1097 0
 2948 0048 0122     		movs	r2, #1
 2949 004a FF21     		movs	r1, #255
 2950 004c 0598     		ldr	r0, [sp, #20]
 2951 004e FFF7FEFF 		bl	VL53L0X_WrByte
 2952 0052 0346     		mov	r3, r0
 2953 0054 1A46     		mov	r2, r3
 2954 0056 9DF81B30 		ldrb	r3, [sp, #27]
 2955 005a 1343     		orrs	r3, r3, r2
 2956 005c 8DF81B30 		strb	r3, [sp, #27]
 2957              		.loc 1 1098 0
 2958 0060 0022     		movs	r2, #0
 2959 0062 0021     		movs	r1, #0
 2960 0064 0598     		ldr	r0, [sp, #20]
 2961 0066 FFF7FEFF 		bl	VL53L0X_WrByte
 2962 006a 0346     		mov	r3, r0
 2963 006c 1A46     		mov	r2, r3
 2964 006e 9DF81B30 		ldrb	r3, [sp, #27]
ARM GAS  C:\Users\PCHAUT~1\AppData\Local\Temp\ccYc6BCi.s 			page 53


 2965 0072 1343     		orrs	r3, r3, r2
 2966 0074 8DF81B30 		strb	r3, [sp, #27]
 2967              		.loc 1 1099 0
 2968 0078 0022     		movs	r2, #0
 2969 007a FF21     		movs	r1, #255
 2970 007c 0598     		ldr	r0, [sp, #20]
 2971 007e FFF7FEFF 		bl	VL53L0X_WrByte
 2972 0082 0346     		mov	r3, r0
 2973 0084 1A46     		mov	r2, r3
 2974 0086 9DF81B30 		ldrb	r3, [sp, #27]
 2975 008a 1343     		orrs	r3, r3, r2
 2976 008c 8DF81B30 		strb	r3, [sp, #27]
 2977              		.loc 1 1101 0
 2978 0090 9DF81330 		ldrb	r3, [sp, #19]	@ zero_extendqisi2
 2979 0094 002B     		cmp	r3, #0
 2980 0096 22D0     		beq	.L210
 2981              		.loc 1 1102 0
 2982 0098 9DF81030 		ldrb	r3, [sp, #16]	@ zero_extendqisi2
 2983 009c 002B     		cmp	r3, #0
 2984 009e 0BD0     		beq	.L211
 2985              		.loc 1 1103 0
 2986 00a0 039A     		ldr	r2, [sp, #12]
 2987 00a2 CB21     		movs	r1, #203
 2988 00a4 0598     		ldr	r0, [sp, #20]
 2989 00a6 FFF7FEFF 		bl	VL53L0X_RdByte
 2990 00aa 0346     		mov	r3, r0
 2991 00ac 1A46     		mov	r2, r3
 2992 00ae 9DF81B30 		ldrb	r3, [sp, #27]
 2993 00b2 1343     		orrs	r3, r3, r2
 2994 00b4 8DF81B30 		strb	r3, [sp, #27]
 2995              	.L211:
 2996              		.loc 1 1104 0
 2997 00b8 9DF80730 		ldrb	r3, [sp, #7]	@ zero_extendqisi2
 2998 00bc 002B     		cmp	r3, #0
 2999 00be 32D0     		beq	.L213
 3000              		.loc 1 1105 0
 3001 00c0 0DF11A03 		add	r3, sp, #26
 3002 00c4 1A46     		mov	r2, r3
 3003 00c6 EE21     		movs	r1, #238
 3004 00c8 0598     		ldr	r0, [sp, #20]
 3005 00ca FFF7FEFF 		bl	VL53L0X_RdByte
 3006 00ce 0346     		mov	r3, r0
 3007 00d0 1A46     		mov	r2, r3
 3008 00d2 9DF81B30 		ldrb	r3, [sp, #27]
 3009 00d6 1343     		orrs	r3, r3, r2
 3010 00d8 8DF81B30 		strb	r3, [sp, #27]
 3011 00dc 23E0     		b	.L213
 3012              	.L210:
 3013              		.loc 1 1107 0
 3014 00de 9DF81030 		ldrb	r3, [sp, #16]	@ zero_extendqisi2
 3015 00e2 002B     		cmp	r3, #0
 3016 00e4 0DD0     		beq	.L214
 3017              		.loc 1 1108 0
 3018 00e6 9DF81230 		ldrb	r3, [sp, #18]	@ zero_extendqisi2
 3019 00ea 1A46     		mov	r2, r3
 3020 00ec CB21     		movs	r1, #203
 3021 00ee 0598     		ldr	r0, [sp, #20]
ARM GAS  C:\Users\PCHAUT~1\AppData\Local\Temp\ccYc6BCi.s 			page 54


 3022 00f0 FFF7FEFF 		bl	VL53L0X_WrByte
 3023 00f4 0346     		mov	r3, r0
 3024 00f6 1A46     		mov	r2, r3
 3025 00f8 9DF81B30 		ldrb	r3, [sp, #27]
 3026 00fc 1343     		orrs	r3, r3, r2
 3027 00fe 8DF81B30 		strb	r3, [sp, #27]
 3028              	.L214:
 3029              		.loc 1 1109 0
 3030 0102 9DF80730 		ldrb	r3, [sp, #7]	@ zero_extendqisi2
 3031 0106 002B     		cmp	r3, #0
 3032 0108 0DD0     		beq	.L213
 3033              		.loc 1 1110 0
 3034 010a 9DF81130 		ldrb	r3, [sp, #17]	@ zero_extendqisi2
 3035 010e 8022     		movs	r2, #128
 3036 0110 EE21     		movs	r1, #238
 3037 0112 0598     		ldr	r0, [sp, #20]
 3038 0114 FFF7FEFF 		bl	VL53L0X_UpdateByte
 3039 0118 0346     		mov	r3, r0
 3040 011a 1A46     		mov	r2, r3
 3041 011c 9DF81B30 		ldrb	r3, [sp, #27]
 3042 0120 1343     		orrs	r3, r3, r2
 3043 0122 8DF81B30 		strb	r3, [sp, #27]
 3044              	.L213:
 3045              		.loc 1 1113 0
 3046 0126 0122     		movs	r2, #1
 3047 0128 FF21     		movs	r1, #255
 3048 012a 0598     		ldr	r0, [sp, #20]
 3049 012c FFF7FEFF 		bl	VL53L0X_WrByte
 3050 0130 0346     		mov	r3, r0
 3051 0132 1A46     		mov	r2, r3
 3052 0134 9DF81B30 		ldrb	r3, [sp, #27]
 3053 0138 1343     		orrs	r3, r3, r2
 3054 013a 8DF81B30 		strb	r3, [sp, #27]
 3055              		.loc 1 1114 0
 3056 013e 0122     		movs	r2, #1
 3057 0140 0021     		movs	r1, #0
 3058 0142 0598     		ldr	r0, [sp, #20]
 3059 0144 FFF7FEFF 		bl	VL53L0X_WrByte
 3060 0148 0346     		mov	r3, r0
 3061 014a 1A46     		mov	r2, r3
 3062 014c 9DF81B30 		ldrb	r3, [sp, #27]
 3063 0150 1343     		orrs	r3, r3, r2
 3064 0152 8DF81B30 		strb	r3, [sp, #27]
 3065              		.loc 1 1115 0
 3066 0156 0022     		movs	r2, #0
 3067 0158 FF21     		movs	r1, #255
 3068 015a 0598     		ldr	r0, [sp, #20]
 3069 015c FFF7FEFF 		bl	VL53L0X_WrByte
 3070 0160 0346     		mov	r3, r0
 3071 0162 1A46     		mov	r2, r3
 3072 0164 9DF81B30 		ldrb	r3, [sp, #27]
 3073 0168 1343     		orrs	r3, r3, r2
 3074 016a 8DF81B30 		strb	r3, [sp, #27]
 3075              		.loc 1 1117 0
 3076 016e 9DF81A30 		ldrb	r3, [sp, #26]	@ zero_extendqisi2
 3077 0172 23F01003 		bic	r3, r3, #16
 3078 0176 DAB2     		uxtb	r2, r3
ARM GAS  C:\Users\PCHAUT~1\AppData\Local\Temp\ccYc6BCi.s 			page 55


 3079 0178 029B     		ldr	r3, [sp, #8]
 3080 017a 1A70     		strb	r2, [r3]
 3081              		.loc 1 1119 0
 3082 017c 9DF91B30 		ldrsb	r3, [sp, #27]
 3083              		.loc 1 1120 0
 3084 0180 1846     		mov	r0, r3
 3085 0182 054B     		ldr	r3, .L217
 3086 0184 079A     		ldr	r2, [sp, #28]
 3087 0186 1B68     		ldr	r3, [r3]
 3088 0188 9A42     		cmp	r2, r3
 3089 018a 01D0     		beq	.L216
 3090 018c FFF7FEFF 		bl	__stack_chk_fail
 3091              	.L216:
 3092 0190 09B0     		add	sp, sp, #36
 3093              		.cfi_def_cfa_offset 4
 3094              		@ sp needed
 3095 0192 5DF804FB 		ldr	pc, [sp], #4
 3096              	.L218:
 3097 0196 00BF     		.align	2
 3098              	.L217:
 3099 0198 00000000 		.word	__stack_chk_guard
 3100              		.cfi_endproc
 3101              	.LFE20:
 3102              		.size	VL53L0X_ref_calibration_io, .-VL53L0X_ref_calibration_io
 3103              		.section	.text.VL53L0X_perform_vhv_calibration,"ax",%progbits
 3104              		.align	1
 3105              		.p2align 4,,15
 3106              		.global	VL53L0X_perform_vhv_calibration
 3107              		.syntax unified
 3108              		.thumb
 3109              		.thumb_func
 3110              		.fpu fpv4-sp-d16
 3111              		.type	VL53L0X_perform_vhv_calibration, %function
 3112              	VL53L0X_perform_vhv_calibration:
 3113              	.LFB21:
 3114              		.loc 1 1126 0
 3115              		.cfi_startproc
 3116              		@ args = 0, pretend = 0, frame = 32
 3117              		@ frame_needed = 0, uses_anonymous_args = 0
 3118 0000 00B5     		push	{lr}
 3119              		.cfi_def_cfa_offset 4
 3120              		.cfi_offset 14, -4
 3121 0002 8DB0     		sub	sp, sp, #52
 3122              		.cfi_def_cfa_offset 56
 3123 0004 0790     		str	r0, [sp, #28]
 3124 0006 0691     		str	r1, [sp, #24]
 3125 0008 1146     		mov	r1, r2
 3126 000a 1A46     		mov	r2, r3
 3127 000c 0B46     		mov	r3, r1
 3128 000e 8DF81730 		strb	r3, [sp, #23]
 3129 0012 1346     		mov	r3, r2
 3130 0014 8DF81630 		strb	r3, [sp, #22]
 3131              		.loc 1 1126 0
 3132 0018 3B4B     		ldr	r3, .L227
 3133 001a 1B68     		ldr	r3, [r3]
 3134 001c 0B93     		str	r3, [sp, #44]
 3135              		.loc 1 1127 0
ARM GAS  C:\Users\PCHAUT~1\AppData\Local\Temp\ccYc6BCi.s 			page 56


 3136 001e 0023     		movs	r3, #0
 3137 0020 8DF82830 		strb	r3, [sp, #40]
 3138              		.loc 1 1128 0
 3139 0024 0023     		movs	r3, #0
 3140 0026 8DF82930 		strb	r3, [sp, #41]
 3141              		.loc 1 1129 0
 3142 002a 0023     		movs	r3, #0
 3143 002c 8DF82A30 		strb	r3, [sp, #42]
 3144              		.loc 1 1130 0
 3145 0030 0023     		movs	r3, #0
 3146 0032 8DF82B30 		strb	r3, [sp, #43]
 3147              		.loc 1 1131 0
 3148 0036 0023     		movs	r3, #0
 3149 0038 8DF82730 		strb	r3, [sp, #39]
 3150              		.loc 1 1137 0
 3151 003c 9DF81630 		ldrb	r3, [sp, #22]	@ zero_extendqisi2
 3152 0040 002B     		cmp	r3, #0
 3153 0042 04D0     		beq	.L220
 3154              		.loc 1 1138 0
 3155 0044 079B     		ldr	r3, [sp, #28]
 3156 0046 93F83031 		ldrb	r3, [r3, #304]
 3157 004a 8DF82930 		strb	r3, [sp, #41]
 3158              	.L220:
 3159              		.loc 1 1141 0
 3160 004e 0122     		movs	r2, #1
 3161 0050 0121     		movs	r1, #1
 3162 0052 0798     		ldr	r0, [sp, #28]
 3163 0054 FFF7FEFF 		bl	VL53L0X_WrByte
 3164 0058 0346     		mov	r3, r0
 3165 005a 8DF82830 		strb	r3, [sp, #40]
 3166              		.loc 1 1143 0
 3167 005e 9DF92830 		ldrsb	r3, [sp, #40]
 3168 0062 002B     		cmp	r3, #0
 3169 0064 06D1     		bne	.L221
 3170              		.loc 1 1144 0
 3171 0066 4021     		movs	r1, #64
 3172 0068 0798     		ldr	r0, [sp, #28]
 3173 006a FFF7FEFF 		bl	VL53L0X_perform_single_ref_calibration
 3174 006e 0346     		mov	r3, r0
 3175 0070 8DF82830 		strb	r3, [sp, #40]
 3176              	.L221:
 3177              		.loc 1 1147 0
 3178 0074 9DF92830 		ldrsb	r3, [sp, #40]
 3179 0078 002B     		cmp	r3, #0
 3180 007a 19D1     		bne	.L222
 3181              		.loc 1 1147 0 is_stmt 0 discriminator 1
 3182 007c 9DF81730 		ldrb	r3, [sp, #23]	@ zero_extendqisi2
 3183 0080 012B     		cmp	r3, #1
 3184 0082 15D1     		bne	.L222
 3185              		.loc 1 1148 0 is_stmt 1
 3186 0084 9DF82B10 		ldrb	r1, [sp, #43]	@ zero_extendqisi2
 3187 0088 9DF82A20 		ldrb	r2, [sp, #42]	@ zero_extendqisi2
 3188 008c 0023     		movs	r3, #0
 3189 008e 0393     		str	r3, [sp, #12]
 3190 0090 0123     		movs	r3, #1
 3191 0092 0293     		str	r3, [sp, #8]
 3192 0094 0DF12703 		add	r3, sp, #39
ARM GAS  C:\Users\PCHAUT~1\AppData\Local\Temp\ccYc6BCi.s 			page 57


 3193 0098 0193     		str	r3, [sp, #4]
 3194 009a 069B     		ldr	r3, [sp, #24]
 3195 009c 0093     		str	r3, [sp]
 3196 009e 0B46     		mov	r3, r1
 3197 00a0 0121     		movs	r1, #1
 3198 00a2 0798     		ldr	r0, [sp, #28]
 3199 00a4 FFF7FEFF 		bl	VL53L0X_ref_calibration_io
 3200 00a8 0346     		mov	r3, r0
 3201 00aa 8DF82830 		strb	r3, [sp, #40]
 3202 00ae 02E0     		b	.L223
 3203              	.L222:
 3204              		.loc 1 1153 0
 3205 00b0 069B     		ldr	r3, [sp, #24]
 3206 00b2 0022     		movs	r2, #0
 3207 00b4 1A70     		strb	r2, [r3]
 3208              	.L223:
 3209              		.loc 1 1156 0
 3210 00b6 9DF92830 		ldrsb	r3, [sp, #40]
 3211 00ba 002B     		cmp	r3, #0
 3212 00bc 16D1     		bne	.L224
 3213              		.loc 1 1156 0 is_stmt 0 discriminator 1
 3214 00be 9DF81630 		ldrb	r3, [sp, #22]	@ zero_extendqisi2
 3215 00c2 002B     		cmp	r3, #0
 3216 00c4 12D0     		beq	.L224
 3217              		.loc 1 1158 0 is_stmt 1
 3218 00c6 9DF82930 		ldrb	r3, [sp, #41]	@ zero_extendqisi2
 3219 00ca 1A46     		mov	r2, r3
 3220 00cc 0121     		movs	r1, #1
 3221 00ce 0798     		ldr	r0, [sp, #28]
 3222 00d0 FFF7FEFF 		bl	VL53L0X_WrByte
 3223 00d4 0346     		mov	r3, r0
 3224 00d6 8DF82830 		strb	r3, [sp, #40]
 3225              		.loc 1 1160 0
 3226 00da 9DF92830 		ldrsb	r3, [sp, #40]
 3227 00de 002B     		cmp	r3, #0
 3228 00e0 04D1     		bne	.L224
 3229              		.loc 1 1161 0
 3230 00e2 079B     		ldr	r3, [sp, #28]
 3231 00e4 9DF82920 		ldrb	r2, [sp, #41]
 3232 00e8 83F83021 		strb	r2, [r3, #304]
 3233              	.L224:
 3234              		.loc 1 1165 0
 3235 00ec 9DF92830 		ldrsb	r3, [sp, #40]
 3236              		.loc 1 1166 0
 3237 00f0 1846     		mov	r0, r3
 3238 00f2 054B     		ldr	r3, .L227
 3239 00f4 0B9A     		ldr	r2, [sp, #44]
 3240 00f6 1B68     		ldr	r3, [r3]
 3241 00f8 9A42     		cmp	r2, r3
 3242 00fa 01D0     		beq	.L226
 3243 00fc FFF7FEFF 		bl	__stack_chk_fail
 3244              	.L226:
 3245 0100 0DB0     		add	sp, sp, #52
 3246              		.cfi_def_cfa_offset 4
 3247              		@ sp needed
 3248 0102 5DF804FB 		ldr	pc, [sp], #4
 3249              	.L228:
ARM GAS  C:\Users\PCHAUT~1\AppData\Local\Temp\ccYc6BCi.s 			page 58


 3250 0106 00BF     		.align	2
 3251              	.L227:
 3252 0108 00000000 		.word	__stack_chk_guard
 3253              		.cfi_endproc
 3254              	.LFE21:
 3255              		.size	VL53L0X_perform_vhv_calibration, .-VL53L0X_perform_vhv_calibration
 3256              		.section	.text.VL53L0X_perform_phase_calibration,"ax",%progbits
 3257              		.align	1
 3258              		.p2align 4,,15
 3259              		.global	VL53L0X_perform_phase_calibration
 3260              		.syntax unified
 3261              		.thumb
 3262              		.thumb_func
 3263              		.fpu fpv4-sp-d16
 3264              		.type	VL53L0X_perform_phase_calibration, %function
 3265              	VL53L0X_perform_phase_calibration:
 3266              	.LFB22:
 3267              		.loc 1 1171 0
 3268              		.cfi_startproc
 3269              		@ args = 0, pretend = 0, frame = 32
 3270              		@ frame_needed = 0, uses_anonymous_args = 0
 3271 0000 00B5     		push	{lr}
 3272              		.cfi_def_cfa_offset 4
 3273              		.cfi_offset 14, -4
 3274 0002 8DB0     		sub	sp, sp, #52
 3275              		.cfi_def_cfa_offset 56
 3276 0004 0790     		str	r0, [sp, #28]
 3277 0006 0691     		str	r1, [sp, #24]
 3278 0008 1146     		mov	r1, r2
 3279 000a 1A46     		mov	r2, r3
 3280 000c 0B46     		mov	r3, r1
 3281 000e 8DF81730 		strb	r3, [sp, #23]
 3282 0012 1346     		mov	r3, r2
 3283 0014 8DF81630 		strb	r3, [sp, #22]
 3284              		.loc 1 1171 0
 3285 0018 394B     		ldr	r3, .L237
 3286 001a 1B68     		ldr	r3, [r3]
 3287 001c 0B93     		str	r3, [sp, #44]
 3288              		.loc 1 1172 0
 3289 001e 0023     		movs	r3, #0
 3290 0020 8DF82830 		strb	r3, [sp, #40]
 3291              		.loc 1 1173 0
 3292 0024 0023     		movs	r3, #0
 3293 0026 8DF82930 		strb	r3, [sp, #41]
 3294              		.loc 1 1174 0
 3295 002a 0023     		movs	r3, #0
 3296 002c 8DF82A30 		strb	r3, [sp, #42]
 3297              		.loc 1 1175 0
 3298 0030 0023     		movs	r3, #0
 3299 0032 8DF82B30 		strb	r3, [sp, #43]
 3300              		.loc 1 1182 0
 3301 0036 9DF81630 		ldrb	r3, [sp, #22]	@ zero_extendqisi2
 3302 003a 002B     		cmp	r3, #0
 3303 003c 04D0     		beq	.L230
 3304              		.loc 1 1183 0
 3305 003e 079B     		ldr	r3, [sp, #28]
 3306 0040 93F83031 		ldrb	r3, [r3, #304]
ARM GAS  C:\Users\PCHAUT~1\AppData\Local\Temp\ccYc6BCi.s 			page 59


 3307 0044 8DF82930 		strb	r3, [sp, #41]
 3308              	.L230:
 3309              		.loc 1 1186 0
 3310 0048 0222     		movs	r2, #2
 3311 004a 0121     		movs	r1, #1
 3312 004c 0798     		ldr	r0, [sp, #28]
 3313 004e FFF7FEFF 		bl	VL53L0X_WrByte
 3314 0052 0346     		mov	r3, r0
 3315 0054 8DF82830 		strb	r3, [sp, #40]
 3316              		.loc 1 1188 0
 3317 0058 9DF92830 		ldrsb	r3, [sp, #40]
 3318 005c 002B     		cmp	r3, #0
 3319 005e 06D1     		bne	.L231
 3320              		.loc 1 1189 0
 3321 0060 0021     		movs	r1, #0
 3322 0062 0798     		ldr	r0, [sp, #28]
 3323 0064 FFF7FEFF 		bl	VL53L0X_perform_single_ref_calibration
 3324 0068 0346     		mov	r3, r0
 3325 006a 8DF82830 		strb	r3, [sp, #40]
 3326              	.L231:
 3327              		.loc 1 1192 0
 3328 006e 9DF92830 		ldrsb	r3, [sp, #40]
 3329 0072 002B     		cmp	r3, #0
 3330 0074 19D1     		bne	.L232
 3331              		.loc 1 1192 0 is_stmt 0 discriminator 1
 3332 0076 9DF81730 		ldrb	r3, [sp, #23]	@ zero_extendqisi2
 3333 007a 012B     		cmp	r3, #1
 3334 007c 15D1     		bne	.L232
 3335              		.loc 1 1193 0 is_stmt 1
 3336 007e 9DF82B10 		ldrb	r1, [sp, #43]	@ zero_extendqisi2
 3337 0082 9DF82A20 		ldrb	r2, [sp, #42]	@ zero_extendqisi2
 3338 0086 0123     		movs	r3, #1
 3339 0088 0393     		str	r3, [sp, #12]
 3340 008a 0023     		movs	r3, #0
 3341 008c 0293     		str	r3, [sp, #8]
 3342 008e 069B     		ldr	r3, [sp, #24]
 3343 0090 0193     		str	r3, [sp, #4]
 3344 0092 0DF12703 		add	r3, sp, #39
 3345 0096 0093     		str	r3, [sp]
 3346 0098 0B46     		mov	r3, r1
 3347 009a 0121     		movs	r1, #1
 3348 009c 0798     		ldr	r0, [sp, #28]
 3349 009e FFF7FEFF 		bl	VL53L0X_ref_calibration_io
 3350 00a2 0346     		mov	r3, r0
 3351 00a4 8DF82830 		strb	r3, [sp, #40]
 3352 00a8 02E0     		b	.L233
 3353              	.L232:
 3354              		.loc 1 1198 0
 3355 00aa 069B     		ldr	r3, [sp, #24]
 3356 00ac 0022     		movs	r2, #0
 3357 00ae 1A70     		strb	r2, [r3]
 3358              	.L233:
 3359              		.loc 1 1201 0
 3360 00b0 9DF92830 		ldrsb	r3, [sp, #40]
 3361 00b4 002B     		cmp	r3, #0
 3362 00b6 16D1     		bne	.L234
 3363              		.loc 1 1201 0 is_stmt 0 discriminator 1
ARM GAS  C:\Users\PCHAUT~1\AppData\Local\Temp\ccYc6BCi.s 			page 60


 3364 00b8 9DF81630 		ldrb	r3, [sp, #22]	@ zero_extendqisi2
 3365 00bc 002B     		cmp	r3, #0
 3366 00be 12D0     		beq	.L234
 3367              		.loc 1 1203 0 is_stmt 1
 3368 00c0 9DF82930 		ldrb	r3, [sp, #41]	@ zero_extendqisi2
 3369 00c4 1A46     		mov	r2, r3
 3370 00c6 0121     		movs	r1, #1
 3371 00c8 0798     		ldr	r0, [sp, #28]
 3372 00ca FFF7FEFF 		bl	VL53L0X_WrByte
 3373 00ce 0346     		mov	r3, r0
 3374 00d0 8DF82830 		strb	r3, [sp, #40]
 3375              		.loc 1 1205 0
 3376 00d4 9DF92830 		ldrsb	r3, [sp, #40]
 3377 00d8 002B     		cmp	r3, #0
 3378 00da 04D1     		bne	.L234
 3379              		.loc 1 1206 0
 3380 00dc 079B     		ldr	r3, [sp, #28]
 3381 00de 9DF82920 		ldrb	r2, [sp, #41]
 3382 00e2 83F83021 		strb	r2, [r3, #304]
 3383              	.L234:
 3384              		.loc 1 1210 0
 3385 00e6 9DF92830 		ldrsb	r3, [sp, #40]
 3386              		.loc 1 1211 0
 3387 00ea 1846     		mov	r0, r3
 3388 00ec 044B     		ldr	r3, .L237
 3389 00ee 0B9A     		ldr	r2, [sp, #44]
 3390 00f0 1B68     		ldr	r3, [r3]
 3391 00f2 9A42     		cmp	r2, r3
 3392 00f4 01D0     		beq	.L236
 3393 00f6 FFF7FEFF 		bl	__stack_chk_fail
 3394              	.L236:
 3395 00fa 0DB0     		add	sp, sp, #52
 3396              		.cfi_def_cfa_offset 4
 3397              		@ sp needed
 3398 00fc 5DF804FB 		ldr	pc, [sp], #4
 3399              	.L238:
 3400              		.align	2
 3401              	.L237:
 3402 0100 00000000 		.word	__stack_chk_guard
 3403              		.cfi_endproc
 3404              	.LFE22:
 3405              		.size	VL53L0X_perform_phase_calibration, .-VL53L0X_perform_phase_calibration
 3406              		.section	.text.VL53L0X_perform_ref_calibration,"ax",%progbits
 3407              		.align	1
 3408              		.p2align 4,,15
 3409              		.global	VL53L0X_perform_ref_calibration
 3410              		.syntax unified
 3411              		.thumb
 3412              		.thumb_func
 3413              		.fpu fpv4-sp-d16
 3414              		.type	VL53L0X_perform_ref_calibration, %function
 3415              	VL53L0X_perform_ref_calibration:
 3416              	.LFB23:
 3417              		.loc 1 1215 0
 3418              		.cfi_startproc
 3419              		@ args = 0, pretend = 0, frame = 24
 3420              		@ frame_needed = 0, uses_anonymous_args = 0
ARM GAS  C:\Users\PCHAUT~1\AppData\Local\Temp\ccYc6BCi.s 			page 61


 3421 0000 00B5     		push	{lr}
 3422              		.cfi_def_cfa_offset 4
 3423              		.cfi_offset 14, -4
 3424 0002 87B0     		sub	sp, sp, #28
 3425              		.cfi_def_cfa_offset 32
 3426 0004 0390     		str	r0, [sp, #12]
 3427 0006 0291     		str	r1, [sp, #8]
 3428 0008 0192     		str	r2, [sp, #4]
 3429 000a 8DF80330 		strb	r3, [sp, #3]
 3430              		.loc 1 1215 0
 3431 000e 254B     		ldr	r3, .L244
 3432 0010 1B68     		ldr	r3, [r3]
 3433 0012 0593     		str	r3, [sp, #20]
 3434              		.loc 1 1216 0
 3435 0014 0023     		movs	r3, #0
 3436 0016 8DF81230 		strb	r3, [sp, #18]
 3437              		.loc 1 1217 0
 3438 001a 0023     		movs	r3, #0
 3439 001c 8DF81330 		strb	r3, [sp, #19]
 3440              		.loc 1 1223 0
 3441 0020 039B     		ldr	r3, [sp, #12]
 3442 0022 93F83031 		ldrb	r3, [r3, #304]
 3443 0026 8DF81330 		strb	r3, [sp, #19]
 3444              		.loc 1 1227 0
 3445 002a 9DF80320 		ldrb	r2, [sp, #3]	@ zero_extendqisi2
 3446 002e 0023     		movs	r3, #0
 3447 0030 0299     		ldr	r1, [sp, #8]
 3448 0032 0398     		ldr	r0, [sp, #12]
 3449 0034 FFF7FEFF 		bl	VL53L0X_perform_vhv_calibration
 3450 0038 0346     		mov	r3, r0
 3451 003a 8DF81230 		strb	r3, [sp, #18]
 3452              		.loc 1 1231 0
 3453 003e 9DF91230 		ldrsb	r3, [sp, #18]
 3454 0042 002B     		cmp	r3, #0
 3455 0044 09D1     		bne	.L240
 3456              		.loc 1 1232 0
 3457 0046 9DF80320 		ldrb	r2, [sp, #3]	@ zero_extendqisi2
 3458 004a 0023     		movs	r3, #0
 3459 004c 0199     		ldr	r1, [sp, #4]
 3460 004e 0398     		ldr	r0, [sp, #12]
 3461 0050 FFF7FEFF 		bl	VL53L0X_perform_phase_calibration
 3462 0054 0346     		mov	r3, r0
 3463 0056 8DF81230 		strb	r3, [sp, #18]
 3464              	.L240:
 3465              		.loc 1 1236 0
 3466 005a 9DF91230 		ldrsb	r3, [sp, #18]
 3467 005e 002B     		cmp	r3, #0
 3468 0060 12D1     		bne	.L241
 3469              		.loc 1 1238 0
 3470 0062 9DF81330 		ldrb	r3, [sp, #19]	@ zero_extendqisi2
 3471 0066 1A46     		mov	r2, r3
 3472 0068 0121     		movs	r1, #1
 3473 006a 0398     		ldr	r0, [sp, #12]
 3474 006c FFF7FEFF 		bl	VL53L0X_WrByte
 3475 0070 0346     		mov	r3, r0
 3476 0072 8DF81230 		strb	r3, [sp, #18]
 3477              		.loc 1 1240 0
ARM GAS  C:\Users\PCHAUT~1\AppData\Local\Temp\ccYc6BCi.s 			page 62


 3478 0076 9DF91230 		ldrsb	r3, [sp, #18]
 3479 007a 002B     		cmp	r3, #0
 3480 007c 04D1     		bne	.L241
 3481              		.loc 1 1241 0
 3482 007e 039B     		ldr	r3, [sp, #12]
 3483 0080 9DF81320 		ldrb	r2, [sp, #19]
 3484 0084 83F83021 		strb	r2, [r3, #304]
 3485              	.L241:
 3486              		.loc 1 1245 0
 3487 0088 9DF91230 		ldrsb	r3, [sp, #18]
 3488              		.loc 1 1246 0
 3489 008c 1846     		mov	r0, r3
 3490 008e 054B     		ldr	r3, .L244
 3491 0090 059A     		ldr	r2, [sp, #20]
 3492 0092 1B68     		ldr	r3, [r3]
 3493 0094 9A42     		cmp	r2, r3
 3494 0096 01D0     		beq	.L243
 3495 0098 FFF7FEFF 		bl	__stack_chk_fail
 3496              	.L243:
 3497 009c 07B0     		add	sp, sp, #28
 3498              		.cfi_def_cfa_offset 4
 3499              		@ sp needed
 3500 009e 5DF804FB 		ldr	pc, [sp], #4
 3501              	.L245:
 3502 00a2 00BF     		.align	2
 3503              	.L244:
 3504 00a4 00000000 		.word	__stack_chk_guard
 3505              		.cfi_endproc
 3506              	.LFE23:
 3507              		.size	VL53L0X_perform_ref_calibration, .-VL53L0X_perform_ref_calibration
 3508              		.section	.text.VL53L0X_set_ref_calibration,"ax",%progbits
 3509              		.align	1
 3510              		.p2align 4,,15
 3511              		.global	VL53L0X_set_ref_calibration
 3512              		.syntax unified
 3513              		.thumb
 3514              		.thumb_func
 3515              		.fpu fpv4-sp-d16
 3516              		.type	VL53L0X_set_ref_calibration, %function
 3517              	VL53L0X_set_ref_calibration:
 3518              	.LFB24:
 3519              		.loc 1 1250 0
 3520              		.cfi_startproc
 3521              		@ args = 0, pretend = 0, frame = 16
 3522              		@ frame_needed = 0, uses_anonymous_args = 0
 3523 0000 00B5     		push	{lr}
 3524              		.cfi_def_cfa_offset 4
 3525              		.cfi_offset 14, -4
 3526 0002 89B0     		sub	sp, sp, #36
 3527              		.cfi_def_cfa_offset 40
 3528 0004 0590     		str	r0, [sp, #20]
 3529 0006 0B46     		mov	r3, r1
 3530 0008 8DF81330 		strb	r3, [sp, #19]
 3531 000c 1346     		mov	r3, r2
 3532 000e 8DF81230 		strb	r3, [sp, #18]
 3533              		.loc 1 1250 0
 3534 0012 144B     		ldr	r3, .L249
ARM GAS  C:\Users\PCHAUT~1\AppData\Local\Temp\ccYc6BCi.s 			page 63


 3535 0014 1B68     		ldr	r3, [r3]
 3536 0016 0793     		str	r3, [sp, #28]
 3537              		.loc 1 1251 0
 3538 0018 0023     		movs	r3, #0
 3539 001a 8DF81B30 		strb	r3, [sp, #27]
 3540              		.loc 1 1255 0
 3541 001e 9DF81210 		ldrb	r1, [sp, #18]	@ zero_extendqisi2
 3542 0022 9DF81320 		ldrb	r2, [sp, #19]	@ zero_extendqisi2
 3543 0026 0123     		movs	r3, #1
 3544 0028 0393     		str	r3, [sp, #12]
 3545 002a 0123     		movs	r3, #1
 3546 002c 0293     		str	r3, [sp, #8]
 3547 002e 0DF11A03 		add	r3, sp, #26
 3548 0032 0193     		str	r3, [sp, #4]
 3549 0034 0DF11903 		add	r3, sp, #25
 3550 0038 0093     		str	r3, [sp]
 3551 003a 0B46     		mov	r3, r1
 3552 003c 0021     		movs	r1, #0
 3553 003e 0598     		ldr	r0, [sp, #20]
 3554 0040 FFF7FEFF 		bl	VL53L0X_ref_calibration_io
 3555 0044 0346     		mov	r3, r0
 3556 0046 8DF81B30 		strb	r3, [sp, #27]
 3557              		.loc 1 1260 0
 3558 004a 9DF91B30 		ldrsb	r3, [sp, #27]
 3559              		.loc 1 1261 0
 3560 004e 1846     		mov	r0, r3
 3561 0050 044B     		ldr	r3, .L249
 3562 0052 079A     		ldr	r2, [sp, #28]
 3563 0054 1B68     		ldr	r3, [r3]
 3564 0056 9A42     		cmp	r2, r3
 3565 0058 01D0     		beq	.L248
 3566 005a FFF7FEFF 		bl	__stack_chk_fail
 3567              	.L248:
 3568 005e 09B0     		add	sp, sp, #36
 3569              		.cfi_def_cfa_offset 4
 3570              		@ sp needed
 3571 0060 5DF804FB 		ldr	pc, [sp], #4
 3572              	.L250:
 3573              		.align	2
 3574              	.L249:
 3575 0064 00000000 		.word	__stack_chk_guard
 3576              		.cfi_endproc
 3577              	.LFE24:
 3578              		.size	VL53L0X_set_ref_calibration, .-VL53L0X_set_ref_calibration
 3579              		.section	.text.VL53L0X_get_ref_calibration,"ax",%progbits
 3580              		.align	1
 3581              		.p2align 4,,15
 3582              		.global	VL53L0X_get_ref_calibration
 3583              		.syntax unified
 3584              		.thumb
 3585              		.thumb_func
 3586              		.fpu fpv4-sp-d16
 3587              		.type	VL53L0X_get_ref_calibration, %function
 3588              	VL53L0X_get_ref_calibration:
 3589              	.LFB25:
 3590              		.loc 1 1265 0
 3591              		.cfi_startproc
ARM GAS  C:\Users\PCHAUT~1\AppData\Local\Temp\ccYc6BCi.s 			page 64


 3592              		@ args = 0, pretend = 0, frame = 24
 3593              		@ frame_needed = 0, uses_anonymous_args = 0
 3594 0000 00B5     		push	{lr}
 3595              		.cfi_def_cfa_offset 4
 3596              		.cfi_offset 14, -4
 3597 0002 8BB0     		sub	sp, sp, #44
 3598              		.cfi_def_cfa_offset 48
 3599 0004 0790     		str	r0, [sp, #28]
 3600 0006 0691     		str	r1, [sp, #24]
 3601 0008 0592     		str	r2, [sp, #20]
 3602              		.loc 1 1265 0
 3603 000a 164B     		ldr	r3, .L254
 3604 000c 1B68     		ldr	r3, [r3]
 3605 000e 0993     		str	r3, [sp, #36]
 3606              		.loc 1 1266 0
 3607 0010 0023     		movs	r3, #0
 3608 0012 8DF82130 		strb	r3, [sp, #33]
 3609              		.loc 1 1267 0
 3610 0016 0023     		movs	r3, #0
 3611 0018 8DF82230 		strb	r3, [sp, #34]
 3612              		.loc 1 1268 0
 3613 001c 0023     		movs	r3, #0
 3614 001e 8DF82330 		strb	r3, [sp, #35]
 3615              		.loc 1 1270 0
 3616 0022 9DF82310 		ldrb	r1, [sp, #35]	@ zero_extendqisi2
 3617 0026 9DF82220 		ldrb	r2, [sp, #34]	@ zero_extendqisi2
 3618 002a 0123     		movs	r3, #1
 3619 002c 0393     		str	r3, [sp, #12]
 3620 002e 0123     		movs	r3, #1
 3621 0030 0293     		str	r3, [sp, #8]
 3622 0032 059B     		ldr	r3, [sp, #20]
 3623 0034 0193     		str	r3, [sp, #4]
 3624 0036 069B     		ldr	r3, [sp, #24]
 3625 0038 0093     		str	r3, [sp]
 3626 003a 0B46     		mov	r3, r1
 3627 003c 0121     		movs	r1, #1
 3628 003e 0798     		ldr	r0, [sp, #28]
 3629 0040 FFF7FEFF 		bl	VL53L0X_ref_calibration_io
 3630 0044 0346     		mov	r3, r0
 3631 0046 8DF82130 		strb	r3, [sp, #33]
 3632              		.loc 1 1275 0
 3633 004a 9DF92130 		ldrsb	r3, [sp, #33]
 3634              		.loc 1 1276 0
 3635 004e 1846     		mov	r0, r3
 3636 0050 044B     		ldr	r3, .L254
 3637 0052 099A     		ldr	r2, [sp, #36]
 3638 0054 1B68     		ldr	r3, [r3]
 3639 0056 9A42     		cmp	r2, r3
 3640 0058 01D0     		beq	.L253
 3641 005a FFF7FEFF 		bl	__stack_chk_fail
 3642              	.L253:
 3643 005e 0BB0     		add	sp, sp, #44
 3644              		.cfi_def_cfa_offset 4
 3645              		@ sp needed
 3646 0060 5DF804FB 		ldr	pc, [sp], #4
 3647              	.L255:
 3648              		.align	2
ARM GAS  C:\Users\PCHAUT~1\AppData\Local\Temp\ccYc6BCi.s 			page 65


 3649              	.L254:
 3650 0064 00000000 		.word	__stack_chk_guard
 3651              		.cfi_endproc
 3652              	.LFE25:
 3653              		.size	VL53L0X_get_ref_calibration, .-VL53L0X_get_ref_calibration
 3654              		.text
 3655              	.Letext0:
 3656              		.file 2 "c:\\users\\pchautems\\documents\\robotiquetp\\eclipse_e-puck2\\tools\\gcc-arm-none-eabi-7
 3657              		.file 3 "c:\\users\\pchautems\\documents\\robotiquetp\\eclipse_e-puck2\\tools\\gcc-arm-none-eabi-7
 3658              		.file 4 "../lib/e-puck2_main-processor/src/sensors/VL53L0X/Api/core/src/../inc/vl53l0x_types.h"
 3659              		.file 5 "../lib/e-puck2_main-processor/src/sensors/VL53L0X/Api/core/src/../inc/vl53l0x_device.h"
 3660              		.file 6 "../lib/e-puck2_main-processor/src/sensors/VL53L0X/Api/core/src/../inc/vl53l0x_def.h"
 3661              		.file 7 "c:\\users\\pchautems\\documents\\robotiquetp\\eclipse_e-puck2\\tools\\gcc-arm-none-eabi-7
 3662              		.file 8 "c:\\users\\pchautems\\documents\\robotiquetp\\eclipse_e-puck2\\tools\\gcc-arm-none-eabi-7
 3663              		.file 9 "c:\\users\\pchautems\\documents\\robotiquetp\\eclipse_e-puck2\\tools\\gcc-arm-none-eabi-7
 3664              		.file 10 "c:\\users\\pchautems\\documents\\robotiquetp\\eclipse_e-puck2\\tools\\gcc-arm-none-eabi-
 3665              		.file 11 "../lib/e-puck2_main-processor/src/sensors/VL53L0X/Api/core/src/../inc/../../platform/inc
 3666              		.file 12 "c:\\users\\pchautems\\documents\\robotiquetp\\eclipse_e-puck2\\tools\\gcc-arm-none-eabi-
 3667              		.section	.debug_info,"",%progbits
 3668              	.Ldebug_info0:
 3669 0000 3A1D0000 		.4byte	0x1d3a
 3670 0004 0400     		.2byte	0x4
 3671 0006 00000000 		.4byte	.Ldebug_abbrev0
 3672 000a 04       		.byte	0x4
 3673 000b 01       		.uleb128 0x1
 3674 000c E1100000 		.4byte	.LASF364
 3675 0010 0C       		.byte	0xc
 3676 0011 A50C0000 		.4byte	.LASF365
 3677 0015 B8030000 		.4byte	.LASF366
 3678 0019 00000000 		.4byte	.Ldebug_ranges0+0
 3679 001d 00000000 		.4byte	0
 3680 0021 00000000 		.4byte	.Ldebug_line0
 3681 0025 02       		.uleb128 0x2
 3682 0026 A60D0000 		.4byte	.LASF0
 3683 002a 02       		.byte	0x2
 3684 002b 29       		.byte	0x29
 3685 002c 30000000 		.4byte	0x30
 3686 0030 03       		.uleb128 0x3
 3687 0031 01       		.byte	0x1
 3688 0032 06       		.byte	0x6
 3689 0033 A6140000 		.4byte	.LASF2
 3690 0037 02       		.uleb128 0x2
 3691 0038 EC0F0000 		.4byte	.LASF1
 3692 003c 02       		.byte	0x2
 3693 003d 2B       		.byte	0x2b
 3694 003e 42000000 		.4byte	0x42
 3695 0042 03       		.uleb128 0x3
 3696 0043 01       		.byte	0x1
 3697 0044 08       		.byte	0x8
 3698 0045 DA120000 		.4byte	.LASF3
 3699 0049 02       		.uleb128 0x2
 3700 004a DC0B0000 		.4byte	.LASF4
 3701 004e 02       		.byte	0x2
 3702 004f 37       		.byte	0x37
 3703 0050 54000000 		.4byte	0x54
 3704 0054 03       		.uleb128 0x3
 3705 0055 02       		.byte	0x2
ARM GAS  C:\Users\PCHAUT~1\AppData\Local\Temp\ccYc6BCi.s 			page 66


 3706 0056 05       		.byte	0x5
 3707 0057 D00E0000 		.4byte	.LASF5
 3708 005b 02       		.uleb128 0x2
 3709 005c 21060000 		.4byte	.LASF6
 3710 0060 02       		.byte	0x2
 3711 0061 39       		.byte	0x39
 3712 0062 66000000 		.4byte	0x66
 3713 0066 03       		.uleb128 0x3
 3714 0067 02       		.byte	0x2
 3715 0068 07       		.byte	0x7
 3716 0069 C7140000 		.4byte	.LASF7
 3717 006d 02       		.uleb128 0x2
 3718 006e 41020000 		.4byte	.LASF8
 3719 0072 02       		.byte	0x2
 3720 0073 4D       		.byte	0x4d
 3721 0074 78000000 		.4byte	0x78
 3722 0078 03       		.uleb128 0x3
 3723 0079 04       		.byte	0x4
 3724 007a 05       		.byte	0x5
 3725 007b 070F0000 		.4byte	.LASF9
 3726 007f 02       		.uleb128 0x2
 3727 0080 0E130000 		.4byte	.LASF10
 3728 0084 02       		.byte	0x2
 3729 0085 4F       		.byte	0x4f
 3730 0086 8A000000 		.4byte	0x8a
 3731 008a 03       		.uleb128 0x3
 3732 008b 04       		.byte	0x4
 3733 008c 07       		.byte	0x7
 3734 008d C3100000 		.4byte	.LASF11
 3735 0091 03       		.uleb128 0x3
 3736 0092 08       		.byte	0x8
 3737 0093 05       		.byte	0x5
 3738 0094 D90A0000 		.4byte	.LASF12
 3739 0098 03       		.uleb128 0x3
 3740 0099 08       		.byte	0x8
 3741 009a 07       		.byte	0x7
 3742 009b 96050000 		.4byte	.LASF13
 3743 009f 04       		.uleb128 0x4
 3744 00a0 04       		.byte	0x4
 3745 00a1 05       		.byte	0x5
 3746 00a2 696E7400 		.ascii	"int\000"
 3747 00a6 03       		.uleb128 0x3
 3748 00a7 04       		.byte	0x4
 3749 00a8 07       		.byte	0x7
 3750 00a9 8D010000 		.4byte	.LASF14
 3751 00ad 02       		.uleb128 0x2
 3752 00ae 8E040000 		.4byte	.LASF15
 3753 00b2 03       		.byte	0x3
 3754 00b3 14       		.byte	0x14
 3755 00b4 25000000 		.4byte	0x25
 3756 00b8 02       		.uleb128 0x2
 3757 00b9 F4090000 		.4byte	.LASF16
 3758 00bd 03       		.byte	0x3
 3759 00be 18       		.byte	0x18
 3760 00bf 37000000 		.4byte	0x37
 3761 00c3 05       		.uleb128 0x5
 3762 00c4 B8000000 		.4byte	0xb8
ARM GAS  C:\Users\PCHAUT~1\AppData\Local\Temp\ccYc6BCi.s 			page 67


 3763 00c8 02       		.uleb128 0x2
 3764 00c9 10050000 		.4byte	.LASF17
 3765 00cd 03       		.byte	0x3
 3766 00ce 20       		.byte	0x20
 3767 00cf 49000000 		.4byte	0x49
 3768 00d3 02       		.uleb128 0x2
 3769 00d4 220E0000 		.4byte	.LASF18
 3770 00d8 03       		.byte	0x3
 3771 00d9 24       		.byte	0x24
 3772 00da 5B000000 		.4byte	0x5b
 3773 00de 02       		.uleb128 0x2
 3774 00df 63120000 		.4byte	.LASF19
 3775 00e3 03       		.byte	0x3
 3776 00e4 2C       		.byte	0x2c
 3777 00e5 6D000000 		.4byte	0x6d
 3778 00e9 02       		.uleb128 0x2
 3779 00ea 85040000 		.4byte	.LASF20
 3780 00ee 03       		.byte	0x3
 3781 00ef 30       		.byte	0x30
 3782 00f0 7F000000 		.4byte	0x7f
 3783 00f4 03       		.uleb128 0x3
 3784 00f5 08       		.byte	0x8
 3785 00f6 04       		.byte	0x4
 3786 00f7 FF0D0000 		.4byte	.LASF21
 3787 00fb 02       		.uleb128 0x2
 3788 00fc 53040000 		.4byte	.LASF22
 3789 0100 04       		.byte	0x4
 3790 0101 6D       		.byte	0x6d
 3791 0102 E9000000 		.4byte	0xe9
 3792 0106 02       		.uleb128 0x2
 3793 0107 EE040000 		.4byte	.LASF23
 3794 010b 05       		.byte	0x5
 3795 010c 36       		.byte	0x36
 3796 010d B8000000 		.4byte	0xb8
 3797 0111 02       		.uleb128 0x2
 3798 0112 030A0000 		.4byte	.LASF24
 3799 0116 05       		.byte	0x5
 3800 0117 64       		.byte	0x64
 3801 0118 B8000000 		.4byte	0xb8
 3802 011c 06       		.uleb128 0x6
 3803 011d 63       		.byte	0x63
 3804 011e 06       		.byte	0x6
 3805 011f 6E       		.byte	0x6e
 3806 0120 6D010000 		.4byte	0x16d
 3807 0124 07       		.uleb128 0x7
 3808 0125 6F060000 		.4byte	.LASF25
 3809 0129 06       		.byte	0x6
 3810 012a 6F       		.byte	0x6f
 3811 012b 6D010000 		.4byte	0x16d
 3812 012f 00       		.byte	0
 3813 0130 07       		.uleb128 0x7
 3814 0131 480A0000 		.4byte	.LASF26
 3815 0135 06       		.byte	0x6
 3816 0136 71       		.byte	0x71
 3817 0137 6D010000 		.4byte	0x16d
 3818 013b 20       		.byte	0x20
 3819 013c 07       		.uleb128 0x7
ARM GAS  C:\Users\PCHAUT~1\AppData\Local\Temp\ccYc6BCi.s 			page 68


 3820 013d E9010000 		.4byte	.LASF27
 3821 0141 06       		.byte	0x6
 3822 0142 73       		.byte	0x73
 3823 0143 6D010000 		.4byte	0x16d
 3824 0147 40       		.byte	0x40
 3825 0148 07       		.uleb128 0x7
 3826 0149 BF130000 		.4byte	.LASF28
 3827 014d 06       		.byte	0x6
 3828 014e 75       		.byte	0x75
 3829 014f B8000000 		.4byte	0xb8
 3830 0153 60       		.byte	0x60
 3831 0154 07       		.uleb128 0x7
 3832 0155 9A000000 		.4byte	.LASF29
 3833 0159 06       		.byte	0x6
 3834 015a 77       		.byte	0x77
 3835 015b B8000000 		.4byte	0xb8
 3836 015f 61       		.byte	0x61
 3837 0160 07       		.uleb128 0x7
 3838 0161 20050000 		.4byte	.LASF30
 3839 0165 06       		.byte	0x6
 3840 0166 79       		.byte	0x79
 3841 0167 B8000000 		.4byte	0xb8
 3842 016b 62       		.byte	0x62
 3843 016c 00       		.byte	0
 3844 016d 08       		.uleb128 0x8
 3845 016e 7D010000 		.4byte	0x17d
 3846 0172 7D010000 		.4byte	0x17d
 3847 0176 09       		.uleb128 0x9
 3848 0177 A6000000 		.4byte	0xa6
 3849 017b 1F       		.byte	0x1f
 3850 017c 00       		.byte	0
 3851 017d 03       		.uleb128 0x3
 3852 017e 01       		.byte	0x1
 3853 017f 08       		.byte	0x8
 3854 0180 F1080000 		.4byte	.LASF31
 3855 0184 05       		.uleb128 0x5
 3856 0185 7D010000 		.4byte	0x17d
 3857 0189 02       		.uleb128 0x2
 3858 018a F3030000 		.4byte	.LASF32
 3859 018e 06       		.byte	0x6
 3860 018f 7B       		.byte	0x7b
 3861 0190 1C010000 		.4byte	0x11c
 3862 0194 02       		.uleb128 0x2
 3863 0195 43100000 		.4byte	.LASF33
 3864 0199 06       		.byte	0x6
 3865 019a 83       		.byte	0x83
 3866 019b AD000000 		.4byte	0xad
 3867 019f 02       		.uleb128 0x2
 3868 01a0 190B0000 		.4byte	.LASF34
 3869 01a4 06       		.byte	0x6
 3870 01a5 B5       		.byte	0xb5
 3871 01a6 B8000000 		.4byte	0xb8
 3872 01aa 02       		.uleb128 0x2
 3873 01ab 820A0000 		.4byte	.LASF35
 3874 01af 06       		.byte	0x6
 3875 01b0 C7       		.byte	0xc7
 3876 01b1 B8000000 		.4byte	0xb8
ARM GAS  C:\Users\PCHAUT~1\AppData\Local\Temp\ccYc6BCi.s 			page 69


 3877 01b5 02       		.uleb128 0x2
 3878 01b6 D6010000 		.4byte	.LASF36
 3879 01ba 06       		.byte	0x6
 3880 01bb DA       		.byte	0xda
 3881 01bc B8000000 		.4byte	0xb8
 3882 01c0 06       		.uleb128 0x6
 3883 01c1 40       		.byte	0x40
 3884 01c2 06       		.byte	0x6
 3885 01c3 EA       		.byte	0xea
 3886 01c4 5C020000 		.4byte	0x25c
 3887 01c8 07       		.uleb128 0x7
 3888 01c9 D70D0000 		.4byte	.LASF37
 3889 01cd 06       		.byte	0x6
 3890 01ce EB       		.byte	0xeb
 3891 01cf 9F010000 		.4byte	0x19f
 3892 01d3 00       		.byte	0
 3893 01d4 07       		.uleb128 0x7
 3894 01d5 C9000000 		.4byte	.LASF38
 3895 01d9 06       		.byte	0x6
 3896 01da ED       		.byte	0xed
 3897 01db AA010000 		.4byte	0x1aa
 3898 01df 01       		.byte	0x1
 3899 01e0 07       		.uleb128 0x7
 3900 01e1 46090000 		.4byte	.LASF39
 3901 01e5 06       		.byte	0x6
 3902 01e6 F0       		.byte	0xf0
 3903 01e7 E9000000 		.4byte	0xe9
 3904 01eb 04       		.byte	0x4
 3905 01ec 07       		.uleb128 0x7
 3906 01ed 22070000 		.4byte	.LASF40
 3907 01f1 06       		.byte	0x6
 3908 01f2 F2       		.byte	0xf2
 3909 01f3 E9000000 		.4byte	0xe9
 3910 01f7 08       		.byte	0x8
 3911 01f8 07       		.uleb128 0x7
 3912 01f9 0E010000 		.4byte	.LASF41
 3913 01fd 06       		.byte	0x6
 3914 01fe F5       		.byte	0xf5
 3915 01ff B8000000 		.4byte	0xb8
 3916 0203 0C       		.byte	0xc
 3917 0204 07       		.uleb128 0x7
 3918 0205 9A010000 		.4byte	.LASF42
 3919 0209 06       		.byte	0x6
 3920 020a F7       		.byte	0xf7
 3921 020b D3000000 		.4byte	0xd3
 3922 020f 0E       		.byte	0xe
 3923 0210 07       		.uleb128 0x7
 3924 0211 E20D0000 		.4byte	.LASF43
 3925 0215 06       		.byte	0x6
 3926 0216 F9       		.byte	0xf9
 3927 0217 FB000000 		.4byte	0xfb
 3928 021b 10       		.byte	0x10
 3929 021c 07       		.uleb128 0x7
 3930 021d 0B080000 		.4byte	.LASF44
 3931 0221 06       		.byte	0x6
 3932 0222 FC       		.byte	0xfc
 3933 0223 DE000000 		.4byte	0xde
ARM GAS  C:\Users\PCHAUT~1\AppData\Local\Temp\ccYc6BCi.s 			page 70


 3934 0227 14       		.byte	0x14
 3935 0228 07       		.uleb128 0x7
 3936 0229 00020000 		.4byte	.LASF45
 3937 022d 06       		.byte	0x6
 3938 022e FF       		.byte	0xff
 3939 022f 5C020000 		.4byte	0x25c
 3940 0233 18       		.byte	0x18
 3941 0234 0A       		.uleb128 0xa
 3942 0235 64030000 		.4byte	.LASF46
 3943 0239 06       		.byte	0x6
 3944 023a 0101     		.2byte	0x101
 3945 023c 5C020000 		.4byte	0x25c
 3946 0240 1E       		.byte	0x1e
 3947 0241 0A       		.uleb128 0xa
 3948 0242 9D070000 		.4byte	.LASF47
 3949 0246 06       		.byte	0x6
 3950 0247 0401     		.2byte	0x104
 3951 0249 6C020000 		.4byte	0x26c
 3952 024d 24       		.byte	0x24
 3953 024e 0A       		.uleb128 0xa
 3954 024f 1D030000 		.4byte	.LASF48
 3955 0253 06       		.byte	0x6
 3956 0254 0701     		.2byte	0x107
 3957 0256 B8000000 		.4byte	0xb8
 3958 025a 3C       		.byte	0x3c
 3959 025b 00       		.byte	0
 3960 025c 08       		.uleb128 0x8
 3961 025d B8000000 		.4byte	0xb8
 3962 0261 6C020000 		.4byte	0x26c
 3963 0265 09       		.uleb128 0x9
 3964 0266 A6000000 		.4byte	0xa6
 3965 026a 05       		.byte	0x5
 3966 026b 00       		.byte	0
 3967 026c 08       		.uleb128 0x8
 3968 026d FB000000 		.4byte	0xfb
 3969 0271 7C020000 		.4byte	0x27c
 3970 0275 09       		.uleb128 0x9
 3971 0276 A6000000 		.4byte	0xa6
 3972 027a 05       		.byte	0x5
 3973 027b 00       		.byte	0
 3974 027c 0B       		.uleb128 0xb
 3975 027d CC040000 		.4byte	.LASF49
 3976 0281 06       		.byte	0x6
 3977 0282 0901     		.2byte	0x109
 3978 0284 C0010000 		.4byte	0x1c0
 3979 0288 0B       		.uleb128 0xb
 3980 0289 850D0000 		.4byte	.LASF50
 3981 028d 06       		.byte	0x6
 3982 028e 1101     		.2byte	0x111
 3983 0290 B8000000 		.4byte	0xb8
 3984 0294 0C       		.uleb128 0xc
 3985 0295 08       		.byte	0x8
 3986 0296 06       		.byte	0x6
 3987 0297 2701     		.2byte	0x127
 3988 0299 B8020000 		.4byte	0x2b8
 3989 029d 0A       		.uleb128 0xa
 3990 029e AD050000 		.4byte	.LASF51
ARM GAS  C:\Users\PCHAUT~1\AppData\Local\Temp\ccYc6BCi.s 			page 71


 3991 02a2 06       		.byte	0x6
 3992 02a3 2801     		.2byte	0x128
 3993 02a5 DE000000 		.4byte	0xde
 3994 02a9 00       		.byte	0
 3995 02aa 0A       		.uleb128 0xa
 3996 02ab 140C0000 		.4byte	.LASF52
 3997 02af 06       		.byte	0x6
 3998 02b0 2A01     		.2byte	0x12a
 3999 02b2 DE000000 		.4byte	0xde
 4000 02b6 04       		.byte	0x4
 4001 02b7 00       		.byte	0
 4002 02b8 0B       		.uleb128 0xb
 4003 02b9 930D0000 		.4byte	.LASF53
 4004 02bd 06       		.byte	0x6
 4005 02be 2C01     		.2byte	0x12c
 4006 02c0 94020000 		.4byte	0x294
 4007 02c4 0C       		.uleb128 0xc
 4008 02c5 1C       		.byte	0x1c
 4009 02c6 06       		.byte	0x6
 4010 02c7 3201     		.2byte	0x132
 4011 02c9 50030000 		.4byte	0x350
 4012 02cd 0A       		.uleb128 0xa
 4013 02ce FB150000 		.4byte	.LASF54
 4014 02d2 06       		.byte	0x6
 4015 02d3 3301     		.2byte	0x133
 4016 02d5 E9000000 		.4byte	0xe9
 4017 02d9 00       		.byte	0
 4018 02da 0A       		.uleb128 0xa
 4019 02db C7080000 		.4byte	.LASF55
 4020 02df 06       		.byte	0x6
 4021 02e0 3401     		.2byte	0x134
 4022 02e2 E9000000 		.4byte	0xe9
 4023 02e6 04       		.byte	0x4
 4024 02e7 0A       		.uleb128 0xa
 4025 02e8 0D150000 		.4byte	.LASF56
 4026 02ec 06       		.byte	0x6
 4027 02ed 3901     		.2byte	0x139
 4028 02ef D3000000 		.4byte	0xd3
 4029 02f3 08       		.byte	0x8
 4030 02f4 0A       		.uleb128 0xa
 4031 02f5 76030000 		.4byte	.LASF57
 4032 02f9 06       		.byte	0x6
 4033 02fa 3B01     		.2byte	0x13b
 4034 02fc D3000000 		.4byte	0xd3
 4035 0300 0A       		.byte	0xa
 4036 0301 0A       		.uleb128 0xa
 4037 0302 5D000000 		.4byte	.LASF58
 4038 0306 06       		.byte	0x6
 4039 0307 4001     		.2byte	0x140
 4040 0309 FB000000 		.4byte	0xfb
 4041 030d 0C       		.byte	0xc
 4042 030e 0A       		.uleb128 0xa
 4043 030f 2B020000 		.4byte	.LASF59
 4044 0313 06       		.byte	0x6
 4045 0314 4401     		.2byte	0x144
 4046 0316 FB000000 		.4byte	0xfb
 4047 031a 10       		.byte	0x10
ARM GAS  C:\Users\PCHAUT~1\AppData\Local\Temp\ccYc6BCi.s 			page 72


 4048 031b 0A       		.uleb128 0xa
 4049 031c DC060000 		.4byte	.LASF60
 4050 0320 06       		.byte	0x6
 4051 0321 4901     		.2byte	0x149
 4052 0323 D3000000 		.4byte	0xd3
 4053 0327 14       		.byte	0x14
 4054 0328 0A       		.uleb128 0xa
 4055 0329 BE0F0000 		.4byte	.LASF61
 4056 032d 06       		.byte	0x6
 4057 032e 4D01     		.2byte	0x14d
 4058 0330 B8000000 		.4byte	0xb8
 4059 0334 16       		.byte	0x16
 4060 0335 0A       		.uleb128 0xa
 4061 0336 42150000 		.4byte	.LASF62
 4062 033a 06       		.byte	0x6
 4063 033b 5001     		.2byte	0x150
 4064 033d B8000000 		.4byte	0xb8
 4065 0341 17       		.byte	0x17
 4066 0342 0A       		.uleb128 0xa
 4067 0343 C40A0000 		.4byte	.LASF63
 4068 0347 06       		.byte	0x6
 4069 0348 5301     		.2byte	0x153
 4070 034a B8000000 		.4byte	0xb8
 4071 034e 18       		.byte	0x18
 4072 034f 00       		.byte	0
 4073 0350 0B       		.uleb128 0xb
 4074 0351 2B0E0000 		.4byte	.LASF64
 4075 0355 06       		.byte	0x6
 4076 0356 5701     		.2byte	0x157
 4077 0358 C4020000 		.4byte	0x2c4
 4078 035c 0C       		.uleb128 0xc
 4079 035d 68       		.byte	0x68
 4080 035e 06       		.byte	0x6
 4081 035f 6001     		.2byte	0x160
 4082 0361 B4030000 		.4byte	0x3b4
 4083 0365 0A       		.uleb128 0xa
 4084 0366 8F070000 		.4byte	.LASF65
 4085 036a 06       		.byte	0x6
 4086 036b 6201     		.2byte	0x162
 4087 036d B4030000 		.4byte	0x3b4
 4088 0371 00       		.byte	0
 4089 0372 0A       		.uleb128 0xa
 4090 0373 A7040000 		.4byte	.LASF66
 4091 0377 06       		.byte	0x6
 4092 0378 6401     		.2byte	0x164
 4093 037a B8000000 		.4byte	0xb8
 4094 037e 60       		.byte	0x60
 4095 037f 0A       		.uleb128 0xa
 4096 0380 D00A0000 		.4byte	.LASF67
 4097 0384 06       		.byte	0x6
 4098 0385 6601     		.2byte	0x166
 4099 0387 B8000000 		.4byte	0xb8
 4100 038b 61       		.byte	0x61
 4101 038c 0A       		.uleb128 0xa
 4102 038d 8C090000 		.4byte	.LASF68
 4103 0391 06       		.byte	0x6
 4104 0392 6701     		.2byte	0x167
ARM GAS  C:\Users\PCHAUT~1\AppData\Local\Temp\ccYc6BCi.s 			page 73


 4105 0394 B8000000 		.4byte	0xb8
 4106 0398 62       		.byte	0x62
 4107 0399 0A       		.uleb128 0xa
 4108 039a E8120000 		.4byte	.LASF69
 4109 039e 06       		.byte	0x6
 4110 039f 6801     		.2byte	0x168
 4111 03a1 B8000000 		.4byte	0xb8
 4112 03a5 63       		.byte	0x63
 4113 03a6 0A       		.uleb128 0xa
 4114 03a7 1F020000 		.4byte	.LASF70
 4115 03ab 06       		.byte	0x6
 4116 03ac 6B01     		.2byte	0x16b
 4117 03ae 06010000 		.4byte	0x106
 4118 03b2 64       		.byte	0x64
 4119 03b3 00       		.byte	0
 4120 03b4 08       		.uleb128 0x8
 4121 03b5 E9000000 		.4byte	0xe9
 4122 03b9 C4030000 		.4byte	0x3c4
 4123 03bd 09       		.uleb128 0x9
 4124 03be A6000000 		.4byte	0xa6
 4125 03c2 17       		.byte	0x17
 4126 03c3 00       		.byte	0
 4127 03c4 0B       		.uleb128 0xb
 4128 03c5 16160000 		.4byte	.LASF71
 4129 03c9 06       		.byte	0x6
 4130 03ca 6E01     		.2byte	0x16e
 4131 03cc 5C030000 		.4byte	0x35c
 4132 03d0 0C       		.uleb128 0xc
 4133 03d1 0C       		.byte	0xc
 4134 03d2 06       		.byte	0x6
 4135 03d3 7601     		.2byte	0x176
 4136 03d5 F4030000 		.4byte	0x3f4
 4137 03d9 0A       		.uleb128 0xa
 4138 03da 60060000 		.4byte	.LASF72
 4139 03de 06       		.byte	0x6
 4140 03df 7701     		.2byte	0x177
 4141 03e1 5C020000 		.4byte	0x25c
 4142 03e5 00       		.byte	0
 4143 03e6 0A       		.uleb128 0xa
 4144 03e7 2A100000 		.4byte	.LASF73
 4145 03eb 06       		.byte	0x6
 4146 03ec 7901     		.2byte	0x179
 4147 03ee 5C020000 		.4byte	0x25c
 4148 03f2 06       		.byte	0x6
 4149 03f3 00       		.byte	0
 4150 03f4 0B       		.uleb128 0xb
 4151 03f5 CC090000 		.4byte	.LASF74
 4152 03f9 06       		.byte	0x6
 4153 03fa 7B01     		.2byte	0x17b
 4154 03fc D0030000 		.4byte	0x3d0
 4155 0400 0C       		.uleb128 0xc
 4156 0401 50       		.byte	0x50
 4157 0402 06       		.byte	0x6
 4158 0403 7D01     		.2byte	0x17d
 4159 0405 0E050000 		.4byte	0x50e
 4160 0409 0A       		.uleb128 0xa
 4161 040a 08060000 		.4byte	.LASF75
ARM GAS  C:\Users\PCHAUT~1\AppData\Local\Temp\ccYc6BCi.s 			page 74


 4162 040e 06       		.byte	0x6
 4163 040f 7E01     		.2byte	0x17e
 4164 0411 FB000000 		.4byte	0xfb
 4165 0415 00       		.byte	0
 4166 0416 0A       		.uleb128 0xa
 4167 0417 79150000 		.4byte	.LASF76
 4168 041b 06       		.byte	0x6
 4169 041c 8001     		.2byte	0x180
 4170 041e D3000000 		.4byte	0xd3
 4171 0422 04       		.byte	0x4
 4172 0423 0A       		.uleb128 0xa
 4173 0424 15140000 		.4byte	.LASF77
 4174 0428 06       		.byte	0x6
 4175 0429 8301     		.2byte	0x183
 4176 042b 11010000 		.4byte	0x111
 4177 042f 06       		.byte	0x6
 4178 0430 0A       		.uleb128 0xa
 4179 0431 990F0000 		.4byte	.LASF78
 4180 0435 06       		.byte	0x6
 4181 0436 8601     		.2byte	0x186
 4182 0438 E9000000 		.4byte	0xe9
 4183 043c 08       		.byte	0x8
 4184 043d 0A       		.uleb128 0xa
 4185 043e 35130000 		.4byte	.LASF79
 4186 0442 06       		.byte	0x6
 4187 0443 8801     		.2byte	0x188
 4188 0445 B8000000 		.4byte	0xb8
 4189 0449 0C       		.byte	0xc
 4190 044a 0A       		.uleb128 0xa
 4191 044b F5120000 		.4byte	.LASF80
 4192 044f 06       		.byte	0x6
 4193 0450 8A01     		.2byte	0x18a
 4194 0452 E9000000 		.4byte	0xe9
 4195 0456 10       		.byte	0x10
 4196 0457 0A       		.uleb128 0xa
 4197 0458 26010000 		.4byte	.LASF81
 4198 045c 06       		.byte	0x6
 4199 045d 8C01     		.2byte	0x18c
 4200 045f B8000000 		.4byte	0xb8
 4201 0463 14       		.byte	0x14
 4202 0464 0A       		.uleb128 0xa
 4203 0465 2B150000 		.4byte	.LASF82
 4204 0469 06       		.byte	0x6
 4205 046a 8F01     		.2byte	0x18f
 4206 046c D3000000 		.4byte	0xd3
 4207 0470 16       		.byte	0x16
 4208 0471 0A       		.uleb128 0xa
 4209 0472 75080000 		.4byte	.LASF83
 4210 0476 06       		.byte	0x6
 4211 0477 9101     		.2byte	0x191
 4212 0479 D3000000 		.4byte	0xd3
 4213 047d 18       		.byte	0x18
 4214 047e 0A       		.uleb128 0xa
 4215 047f 8D120000 		.4byte	.LASF84
 4216 0483 06       		.byte	0x6
 4217 0484 9401     		.2byte	0x194
 4218 0486 D3000000 		.4byte	0xd3
ARM GAS  C:\Users\PCHAUT~1\AppData\Local\Temp\ccYc6BCi.s 			page 75


 4219 048a 1A       		.byte	0x1a
 4220 048b 0A       		.uleb128 0xa
 4221 048c 2F090000 		.4byte	.LASF85
 4222 0490 06       		.byte	0x6
 4223 0491 9901     		.2byte	0x199
 4224 0493 B8000000 		.4byte	0xb8
 4225 0497 1C       		.byte	0x1c
 4226 0498 0A       		.uleb128 0xa
 4227 0499 86070000 		.4byte	.LASF86
 4228 049d 06       		.byte	0x6
 4229 049e 9B01     		.2byte	0x19b
 4230 04a0 B8000000 		.4byte	0xb8
 4231 04a4 1D       		.byte	0x1d
 4232 04a5 0A       		.uleb128 0xa
 4233 04a6 AF030000 		.4byte	.LASF87
 4234 04aa 06       		.byte	0x6
 4235 04ab 9C01     		.2byte	0x19c
 4236 04ad B8000000 		.4byte	0xb8
 4237 04b1 1E       		.byte	0x1e
 4238 04b2 0A       		.uleb128 0xa
 4239 04b3 E9010000 		.4byte	.LASF27
 4240 04b7 06       		.byte	0x6
 4241 04b8 9D01     		.2byte	0x19d
 4242 04ba 6D010000 		.4byte	0x16d
 4243 04be 1F       		.byte	0x1f
 4244 04bf 0A       		.uleb128 0xa
 4245 04c0 45070000 		.4byte	.LASF88
 4246 04c4 06       		.byte	0x6
 4247 04c5 9F01     		.2byte	0x19f
 4248 04c7 B8000000 		.4byte	0xb8
 4249 04cb 3F       		.byte	0x3f
 4250 04cc 0A       		.uleb128 0xa
 4251 04cd 4B000000 		.4byte	.LASF89
 4252 04d1 06       		.byte	0x6
 4253 04d2 A001     		.2byte	0x1a0
 4254 04d4 B8000000 		.4byte	0xb8
 4255 04d8 40       		.byte	0x40
 4256 04d9 0A       		.uleb128 0xa
 4257 04da 7F0B0000 		.4byte	.LASF90
 4258 04de 06       		.byte	0x6
 4259 04df A101     		.2byte	0x1a1
 4260 04e1 B8000000 		.4byte	0xb8
 4261 04e5 41       		.byte	0x41
 4262 04e6 0A       		.uleb128 0xa
 4263 04e7 100F0000 		.4byte	.LASF91
 4264 04eb 06       		.byte	0x6
 4265 04ec A201     		.2byte	0x1a2
 4266 04ee E9000000 		.4byte	0xe9
 4267 04f2 44       		.byte	0x44
 4268 04f3 0A       		.uleb128 0xa
 4269 04f4 7A000000 		.4byte	.LASF92
 4270 04f8 06       		.byte	0x6
 4271 04f9 A301     		.2byte	0x1a3
 4272 04fb E9000000 		.4byte	0xe9
 4273 04ff 48       		.byte	0x48
 4274 0500 0A       		.uleb128 0xa
 4275 0501 8B160000 		.4byte	.LASF93
ARM GAS  C:\Users\PCHAUT~1\AppData\Local\Temp\ccYc6BCi.s 			page 76


 4276 0505 06       		.byte	0x6
 4277 0506 A401     		.2byte	0x1a4
 4278 0508 FB000000 		.4byte	0xfb
 4279 050c 4C       		.byte	0x4c
 4280 050d 00       		.byte	0
 4281 050e 0B       		.uleb128 0xb
 4282 050f 62040000 		.4byte	.LASF94
 4283 0513 06       		.byte	0x6
 4284 0514 A701     		.2byte	0x1a7
 4285 0516 00040000 		.4byte	0x400
 4286 051a 0D       		.uleb128 0xd
 4287 051b 5C01     		.2byte	0x15c
 4288 051d 06       		.byte	0x6
 4289 051e B101     		.2byte	0x1b1
 4290 0520 7C060000 		.4byte	0x67c
 4291 0524 0A       		.uleb128 0xa
 4292 0525 BE080000 		.4byte	.LASF95
 4293 0529 06       		.byte	0x6
 4294 052a B201     		.2byte	0x1b2
 4295 052c B8020000 		.4byte	0x2b8
 4296 0530 00       		.byte	0
 4297 0531 0A       		.uleb128 0xa
 4298 0532 08040000 		.4byte	.LASF96
 4299 0536 06       		.byte	0x6
 4300 0537 B401     		.2byte	0x1b4
 4301 0539 DE000000 		.4byte	0xde
 4302 053d 08       		.byte	0x8
 4303 053e 0A       		.uleb128 0xa
 4304 053f 6F050000 		.4byte	.LASF97
 4305 0543 06       		.byte	0x6
 4306 0544 B601     		.2byte	0x1b6
 4307 0546 DE000000 		.4byte	0xde
 4308 054a 0C       		.byte	0xc
 4309 054b 0A       		.uleb128 0xa
 4310 054c B1100000 		.4byte	.LASF98
 4311 0550 06       		.byte	0x6
 4312 0551 B801     		.2byte	0x1b8
 4313 0553 7C020000 		.4byte	0x27c
 4314 0557 10       		.byte	0x10
 4315 0558 0A       		.uleb128 0xa
 4316 0559 6A090000 		.4byte	.LASF99
 4317 055d 06       		.byte	0x6
 4318 055e BA01     		.2byte	0x1ba
 4319 0560 50030000 		.4byte	0x350
 4320 0564 50       		.byte	0x50
 4321 0565 0A       		.uleb128 0xa
 4322 0566 B2140000 		.4byte	.LASF100
 4323 056a 06       		.byte	0x6
 4324 056b BC01     		.2byte	0x1bc
 4325 056d C4030000 		.4byte	0x3c4
 4326 0571 6C       		.byte	0x6c
 4327 0572 0A       		.uleb128 0xa
 4328 0573 25120000 		.4byte	.LASF101
 4329 0577 06       		.byte	0x6
 4330 0578 BE01     		.2byte	0x1be
 4331 057a 0E050000 		.4byte	0x50e
 4332 057e D4       		.byte	0xd4
ARM GAS  C:\Users\PCHAUT~1\AppData\Local\Temp\ccYc6BCi.s 			page 77


 4333 057f 0E       		.uleb128 0xe
 4334 0580 12070000 		.4byte	.LASF102
 4335 0584 06       		.byte	0x6
 4336 0585 C001     		.2byte	0x1c0
 4337 0587 F4030000 		.4byte	0x3f4
 4338 058b 2401     		.2byte	0x124
 4339 058d 0E       		.uleb128 0xe
 4340 058e 6F0E0000 		.4byte	.LASF103
 4341 0592 06       		.byte	0x6
 4342 0593 C201     		.2byte	0x1c2
 4343 0595 B8000000 		.4byte	0xb8
 4344 0599 3001     		.2byte	0x130
 4345 059b 0E       		.uleb128 0xe
 4346 059c DA140000 		.4byte	.LASF104
 4347 05a0 06       		.byte	0x6
 4348 05a1 C401     		.2byte	0x1c4
 4349 05a3 B8000000 		.4byte	0xb8
 4350 05a7 3101     		.2byte	0x131
 4351 05a9 0E       		.uleb128 0xe
 4352 05aa F2150000 		.4byte	.LASF105
 4353 05ae 06       		.byte	0x6
 4354 05af C601     		.2byte	0x1c6
 4355 05b1 88020000 		.4byte	0x288
 4356 05b5 3201     		.2byte	0x132
 4357 05b7 0E       		.uleb128 0xe
 4358 05b8 33030000 		.4byte	.LASF106
 4359 05bc 06       		.byte	0x6
 4360 05bd C801     		.2byte	0x1c8
 4361 05bf B5010000 		.4byte	0x1b5
 4362 05c3 3301     		.2byte	0x133
 4363 05c5 0E       		.uleb128 0xe
 4364 05c6 2B150000 		.4byte	.LASF82
 4365 05ca 06       		.byte	0x6
 4366 05cb CA01     		.2byte	0x1ca
 4367 05cd D3000000 		.4byte	0xd3
 4368 05d1 3401     		.2byte	0x134
 4369 05d3 0E       		.uleb128 0xe
 4370 05d4 75080000 		.4byte	.LASF83
 4371 05d8 06       		.byte	0x6
 4372 05d9 CC01     		.2byte	0x1cc
 4373 05db D3000000 		.4byte	0xd3
 4374 05df 3601     		.2byte	0x136
 4375 05e1 0E       		.uleb128 0xe
 4376 05e2 8D120000 		.4byte	.LASF84
 4377 05e6 06       		.byte	0x6
 4378 05e7 CF01     		.2byte	0x1cf
 4379 05e9 D3000000 		.4byte	0xd3
 4380 05ed 3801     		.2byte	0x138
 4381 05ef 0E       		.uleb128 0xe
 4382 05f0 A7080000 		.4byte	.LASF107
 4383 05f4 06       		.byte	0x6
 4384 05f5 D201     		.2byte	0x1d2
 4385 05f7 B8000000 		.4byte	0xb8
 4386 05fb 3A01     		.2byte	0x13a
 4387 05fd 0E       		.uleb128 0xe
 4388 05fe 02050000 		.4byte	.LASF108
 4389 0602 06       		.byte	0x6
ARM GAS  C:\Users\PCHAUT~1\AppData\Local\Temp\ccYc6BCi.s 			page 78


 4390 0603 D401     		.2byte	0x1d4
 4391 0605 D3000000 		.4byte	0xd3
 4392 0609 3C01     		.2byte	0x13c
 4393 060b 0E       		.uleb128 0xe
 4394 060c 1D150000 		.4byte	.LASF109
 4395 0610 06       		.byte	0x6
 4396 0611 D601     		.2byte	0x1d6
 4397 0613 FB000000 		.4byte	0xfb
 4398 0617 4001     		.2byte	0x140
 4399 0619 0E       		.uleb128 0xe
 4400 061a 1D0F0000 		.4byte	.LASF110
 4401 061e 06       		.byte	0x6
 4402 061f D901     		.2byte	0x1d9
 4403 0621 FB000000 		.4byte	0xfb
 4404 0625 4401     		.2byte	0x144
 4405 0627 0E       		.uleb128 0xe
 4406 0628 6D0F0000 		.4byte	.LASF111
 4407 062c 06       		.byte	0x6
 4408 062d DB01     		.2byte	0x1db
 4409 062f FB000000 		.4byte	0xfb
 4410 0633 4801     		.2byte	0x148
 4411 0635 0E       		.uleb128 0xe
 4412 0636 4C120000 		.4byte	.LASF112
 4413 063a 06       		.byte	0x6
 4414 063b DD01     		.2byte	0x1dd
 4415 063d 7C060000 		.4byte	0x67c
 4416 0641 4C01     		.2byte	0x14c
 4417 0643 0E       		.uleb128 0xe
 4418 0644 74060000 		.4byte	.LASF113
 4419 0648 06       		.byte	0x6
 4420 0649 DF01     		.2byte	0x1df
 4421 064b B8000000 		.4byte	0xb8
 4422 064f 5001     		.2byte	0x150
 4423 0651 0E       		.uleb128 0xe
 4424 0652 C4060000 		.4byte	.LASF114
 4425 0656 06       		.byte	0x6
 4426 0657 E101     		.2byte	0x1e1
 4427 0659 D3000000 		.4byte	0xd3
 4428 065d 5201     		.2byte	0x152
 4429 065f 0E       		.uleb128 0xe
 4430 0660 4D080000 		.4byte	.LASF115
 4431 0664 06       		.byte	0x6
 4432 0665 E301     		.2byte	0x1e3
 4433 0667 D3000000 		.4byte	0xd3
 4434 066b 5401     		.2byte	0x154
 4435 066d 0E       		.uleb128 0xe
 4436 066e 19130000 		.4byte	.LASF116
 4437 0672 06       		.byte	0x6
 4438 0673 E501     		.2byte	0x1e5
 4439 0675 FB000000 		.4byte	0xfb
 4440 0679 5801     		.2byte	0x158
 4441 067b 00       		.byte	0
 4442 067c 0F       		.uleb128 0xf
 4443 067d 04       		.byte	0x4
 4444 067e B8000000 		.4byte	0xb8
 4445 0682 0B       		.uleb128 0xb
 4446 0683 79130000 		.4byte	.LASF117
ARM GAS  C:\Users\PCHAUT~1\AppData\Local\Temp\ccYc6BCi.s 			page 79


 4447 0687 06       		.byte	0x6
 4448 0688 E801     		.2byte	0x1e8
 4449 068a 1A050000 		.4byte	0x51a
 4450 068e 0B       		.uleb128 0xb
 4451 068f 8A140000 		.4byte	.LASF118
 4452 0693 06       		.byte	0x6
 4453 0694 FE01     		.2byte	0x1fe
 4454 0696 B8000000 		.4byte	0xb8
 4455 069a 10       		.uleb128 0x10
 4456 069b 04       		.byte	0x4
 4457 069c 02       		.uleb128 0x2
 4458 069d 1A0E0000 		.4byte	.LASF119
 4459 06a1 07       		.byte	0x7
 4460 06a2 22       		.byte	0x22
 4461 06a3 A7060000 		.4byte	0x6a7
 4462 06a7 0F       		.uleb128 0xf
 4463 06a8 04       		.byte	0x4
 4464 06a9 AD060000 		.4byte	0x6ad
 4465 06ad 11       		.uleb128 0x11
 4466 06ae 86120000 		.4byte	.LASF225
 4467 06b2 02       		.uleb128 0x2
 4468 06b3 72150000 		.4byte	.LASF120
 4469 06b7 08       		.byte	0x8
 4470 06b8 2C       		.byte	0x2c
 4471 06b9 78000000 		.4byte	0x78
 4472 06bd 02       		.uleb128 0x2
 4473 06be 96030000 		.4byte	.LASF121
 4474 06c2 08       		.byte	0x8
 4475 06c3 72       		.byte	0x72
 4476 06c4 78000000 		.4byte	0x78
 4477 06c8 0B       		.uleb128 0xb
 4478 06c9 45120000 		.4byte	.LASF122
 4479 06cd 09       		.byte	0x9
 4480 06ce 6501     		.2byte	0x165
 4481 06d0 A6000000 		.4byte	0xa6
 4482 06d4 12       		.uleb128 0x12
 4483 06d5 04       		.byte	0x4
 4484 06d6 08       		.byte	0x8
 4485 06d7 A6       		.byte	0xa6
 4486 06d8 F3060000 		.4byte	0x6f3
 4487 06dc 13       		.uleb128 0x13
 4488 06dd E8090000 		.4byte	.LASF123
 4489 06e1 08       		.byte	0x8
 4490 06e2 A8       		.byte	0xa8
 4491 06e3 C8060000 		.4byte	0x6c8
 4492 06e7 13       		.uleb128 0x13
 4493 06e8 7F0F0000 		.4byte	.LASF124
 4494 06ec 08       		.byte	0x8
 4495 06ed A9       		.byte	0xa9
 4496 06ee F3060000 		.4byte	0x6f3
 4497 06f2 00       		.byte	0
 4498 06f3 08       		.uleb128 0x8
 4499 06f4 42000000 		.4byte	0x42
 4500 06f8 03070000 		.4byte	0x703
 4501 06fc 09       		.uleb128 0x9
 4502 06fd A6000000 		.4byte	0xa6
 4503 0701 03       		.byte	0x3
ARM GAS  C:\Users\PCHAUT~1\AppData\Local\Temp\ccYc6BCi.s 			page 80


 4504 0702 00       		.byte	0
 4505 0703 06       		.uleb128 0x6
 4506 0704 08       		.byte	0x8
 4507 0705 08       		.byte	0x8
 4508 0706 A3       		.byte	0xa3
 4509 0707 24070000 		.4byte	0x724
 4510 070b 07       		.uleb128 0x7
 4511 070c 9F040000 		.4byte	.LASF125
 4512 0710 08       		.byte	0x8
 4513 0711 A5       		.byte	0xa5
 4514 0712 9F000000 		.4byte	0x9f
 4515 0716 00       		.byte	0
 4516 0717 07       		.uleb128 0x7
 4517 0718 6D080000 		.4byte	.LASF126
 4518 071c 08       		.byte	0x8
 4519 071d AA       		.byte	0xaa
 4520 071e D4060000 		.4byte	0x6d4
 4521 0722 04       		.byte	0x4
 4522 0723 00       		.byte	0
 4523 0724 02       		.uleb128 0x2
 4524 0725 040C0000 		.4byte	.LASF127
 4525 0729 08       		.byte	0x8
 4526 072a AB       		.byte	0xab
 4527 072b 03070000 		.4byte	0x703
 4528 072f 02       		.uleb128 0x2
 4529 0730 B2090000 		.4byte	.LASF128
 4530 0734 08       		.byte	0x8
 4531 0735 AF       		.byte	0xaf
 4532 0736 9C060000 		.4byte	0x69c
 4533 073a 02       		.uleb128 0x2
 4534 073b 770B0000 		.4byte	.LASF129
 4535 073f 0A       		.byte	0xa
 4536 0740 16       		.byte	0x16
 4537 0741 8A000000 		.4byte	0x8a
 4538 0745 14       		.uleb128 0x14
 4539 0746 39040000 		.4byte	.LASF134
 4540 074a 18       		.byte	0x18
 4541 074b 0A       		.byte	0xa
 4542 074c 2F       		.byte	0x2f
 4543 074d 98070000 		.4byte	0x798
 4544 0751 07       		.uleb128 0x7
 4545 0752 D6070000 		.4byte	.LASF130
 4546 0756 0A       		.byte	0xa
 4547 0757 31       		.byte	0x31
 4548 0758 98070000 		.4byte	0x798
 4549 075c 00       		.byte	0
 4550 075d 15       		.uleb128 0x15
 4551 075e 5F6B00   		.ascii	"_k\000"
 4552 0761 0A       		.byte	0xa
 4553 0762 32       		.byte	0x32
 4554 0763 9F000000 		.4byte	0x9f
 4555 0767 04       		.byte	0x4
 4556 0768 07       		.uleb128 0x7
 4557 0769 72000000 		.4byte	.LASF131
 4558 076d 0A       		.byte	0xa
 4559 076e 32       		.byte	0x32
 4560 076f 9F000000 		.4byte	0x9f
ARM GAS  C:\Users\PCHAUT~1\AppData\Local\Temp\ccYc6BCi.s 			page 81


 4561 0773 08       		.byte	0x8
 4562 0774 07       		.uleb128 0x7
 4563 0775 3C0F0000 		.4byte	.LASF132
 4564 0779 0A       		.byte	0xa
 4565 077a 32       		.byte	0x32
 4566 077b 9F000000 		.4byte	0x9f
 4567 077f 0C       		.byte	0xc
 4568 0780 07       		.uleb128 0x7
 4569 0781 DA050000 		.4byte	.LASF133
 4570 0785 0A       		.byte	0xa
 4571 0786 32       		.byte	0x32
 4572 0787 9F000000 		.4byte	0x9f
 4573 078b 10       		.byte	0x10
 4574 078c 15       		.uleb128 0x15
 4575 078d 5F7800   		.ascii	"_x\000"
 4576 0790 0A       		.byte	0xa
 4577 0791 33       		.byte	0x33
 4578 0792 9E070000 		.4byte	0x79e
 4579 0796 14       		.byte	0x14
 4580 0797 00       		.byte	0
 4581 0798 0F       		.uleb128 0xf
 4582 0799 04       		.byte	0x4
 4583 079a 45070000 		.4byte	0x745
 4584 079e 08       		.uleb128 0x8
 4585 079f 3A070000 		.4byte	0x73a
 4586 07a3 AE070000 		.4byte	0x7ae
 4587 07a7 09       		.uleb128 0x9
 4588 07a8 A6000000 		.4byte	0xa6
 4589 07ac 00       		.byte	0
 4590 07ad 00       		.byte	0
 4591 07ae 14       		.uleb128 0x14
 4592 07af 85100000 		.4byte	.LASF135
 4593 07b3 24       		.byte	0x24
 4594 07b4 0A       		.byte	0xa
 4595 07b5 37       		.byte	0x37
 4596 07b6 27080000 		.4byte	0x827
 4597 07ba 07       		.uleb128 0x7
 4598 07bb 78010000 		.4byte	.LASF136
 4599 07bf 0A       		.byte	0xa
 4600 07c0 39       		.byte	0x39
 4601 07c1 9F000000 		.4byte	0x9f
 4602 07c5 00       		.byte	0
 4603 07c6 07       		.uleb128 0x7
 4604 07c7 C3040000 		.4byte	.LASF137
 4605 07cb 0A       		.byte	0xa
 4606 07cc 3A       		.byte	0x3a
 4607 07cd 9F000000 		.4byte	0x9f
 4608 07d1 04       		.byte	0x4
 4609 07d2 07       		.uleb128 0x7
 4610 07d3 95040000 		.4byte	.LASF138
 4611 07d7 0A       		.byte	0xa
 4612 07d8 3B       		.byte	0x3b
 4613 07d9 9F000000 		.4byte	0x9f
 4614 07dd 08       		.byte	0x8
 4615 07de 07       		.uleb128 0x7
 4616 07df F6080000 		.4byte	.LASF139
 4617 07e3 0A       		.byte	0xa
ARM GAS  C:\Users\PCHAUT~1\AppData\Local\Temp\ccYc6BCi.s 			page 82


 4618 07e4 3C       		.byte	0x3c
 4619 07e5 9F000000 		.4byte	0x9f
 4620 07e9 0C       		.byte	0xc
 4621 07ea 07       		.uleb128 0x7
 4622 07eb CE0D0000 		.4byte	.LASF140
 4623 07ef 0A       		.byte	0xa
 4624 07f0 3D       		.byte	0x3d
 4625 07f1 9F000000 		.4byte	0x9f
 4626 07f5 10       		.byte	0x10
 4627 07f6 07       		.uleb128 0x7
 4628 07f7 B40F0000 		.4byte	.LASF141
 4629 07fb 0A       		.byte	0xa
 4630 07fc 3E       		.byte	0x3e
 4631 07fd 9F000000 		.4byte	0x9f
 4632 0801 14       		.byte	0x14
 4633 0802 07       		.uleb128 0x7
 4634 0803 41040000 		.4byte	.LASF142
 4635 0807 0A       		.byte	0xa
 4636 0808 3F       		.byte	0x3f
 4637 0809 9F000000 		.4byte	0x9f
 4638 080d 18       		.byte	0x18
 4639 080e 07       		.uleb128 0x7
 4640 080f 62070000 		.4byte	.LASF143
 4641 0813 0A       		.byte	0xa
 4642 0814 40       		.byte	0x40
 4643 0815 9F000000 		.4byte	0x9f
 4644 0819 1C       		.byte	0x1c
 4645 081a 07       		.uleb128 0x7
 4646 081b 380C0000 		.4byte	.LASF144
 4647 081f 0A       		.byte	0xa
 4648 0820 41       		.byte	0x41
 4649 0821 9F000000 		.4byte	0x9f
 4650 0825 20       		.byte	0x20
 4651 0826 00       		.byte	0
 4652 0827 16       		.uleb128 0x16
 4653 0828 BB000000 		.4byte	.LASF145
 4654 082c 0801     		.2byte	0x108
 4655 082e 0A       		.byte	0xa
 4656 082f 4A       		.byte	0x4a
 4657 0830 67080000 		.4byte	0x867
 4658 0834 07       		.uleb128 0x7
 4659 0835 9E140000 		.4byte	.LASF146
 4660 0839 0A       		.byte	0xa
 4661 083a 4B       		.byte	0x4b
 4662 083b 67080000 		.4byte	0x867
 4663 083f 00       		.byte	0
 4664 0840 07       		.uleb128 0x7
 4665 0841 6B120000 		.4byte	.LASF147
 4666 0845 0A       		.byte	0xa
 4667 0846 4C       		.byte	0x4c
 4668 0847 67080000 		.4byte	0x867
 4669 084b 80       		.byte	0x80
 4670 084c 17       		.uleb128 0x17
 4671 084d 8B130000 		.4byte	.LASF148
 4672 0851 0A       		.byte	0xa
 4673 0852 4E       		.byte	0x4e
 4674 0853 3A070000 		.4byte	0x73a
ARM GAS  C:\Users\PCHAUT~1\AppData\Local\Temp\ccYc6BCi.s 			page 83


 4675 0857 0001     		.2byte	0x100
 4676 0859 17       		.uleb128 0x17
 4677 085a EA150000 		.4byte	.LASF149
 4678 085e 0A       		.byte	0xa
 4679 085f 51       		.byte	0x51
 4680 0860 3A070000 		.4byte	0x73a
 4681 0864 0401     		.2byte	0x104
 4682 0866 00       		.byte	0
 4683 0867 08       		.uleb128 0x8
 4684 0868 9A060000 		.4byte	0x69a
 4685 086c 77080000 		.4byte	0x877
 4686 0870 09       		.uleb128 0x9
 4687 0871 A6000000 		.4byte	0xa6
 4688 0875 1F       		.byte	0x1f
 4689 0876 00       		.byte	0
 4690 0877 16       		.uleb128 0x16
 4691 0878 7E0E0000 		.4byte	.LASF150
 4692 087c 9001     		.2byte	0x190
 4693 087e 0A       		.byte	0xa
 4694 087f 5D       		.byte	0x5d
 4695 0880 B5080000 		.4byte	0x8b5
 4696 0884 07       		.uleb128 0x7
 4697 0885 D6070000 		.4byte	.LASF130
 4698 0889 0A       		.byte	0xa
 4699 088a 5E       		.byte	0x5e
 4700 088b B5080000 		.4byte	0x8b5
 4701 088f 00       		.byte	0
 4702 0890 07       		.uleb128 0x7
 4703 0891 71070000 		.4byte	.LASF151
 4704 0895 0A       		.byte	0xa
 4705 0896 5F       		.byte	0x5f
 4706 0897 9F000000 		.4byte	0x9f
 4707 089b 04       		.byte	0x4
 4708 089c 07       		.uleb128 0x7
 4709 089d AA030000 		.4byte	.LASF152
 4710 08a1 0A       		.byte	0xa
 4711 08a2 61       		.byte	0x61
 4712 08a3 BB080000 		.4byte	0x8bb
 4713 08a7 08       		.byte	0x8
 4714 08a8 07       		.uleb128 0x7
 4715 08a9 BB000000 		.4byte	.LASF145
 4716 08ad 0A       		.byte	0xa
 4717 08ae 62       		.byte	0x62
 4718 08af 27080000 		.4byte	0x827
 4719 08b3 88       		.byte	0x88
 4720 08b4 00       		.byte	0
 4721 08b5 0F       		.uleb128 0xf
 4722 08b6 04       		.byte	0x4
 4723 08b7 77080000 		.4byte	0x877
 4724 08bb 08       		.uleb128 0x8
 4725 08bc CB080000 		.4byte	0x8cb
 4726 08c0 CB080000 		.4byte	0x8cb
 4727 08c4 09       		.uleb128 0x9
 4728 08c5 A6000000 		.4byte	0xa6
 4729 08c9 1F       		.byte	0x1f
 4730 08ca 00       		.byte	0
 4731 08cb 0F       		.uleb128 0xf
ARM GAS  C:\Users\PCHAUT~1\AppData\Local\Temp\ccYc6BCi.s 			page 84


 4732 08cc 04       		.byte	0x4
 4733 08cd D1080000 		.4byte	0x8d1
 4734 08d1 18       		.uleb128 0x18
 4735 08d2 14       		.uleb128 0x14
 4736 08d3 DF130000 		.4byte	.LASF153
 4737 08d7 08       		.byte	0x8
 4738 08d8 0A       		.byte	0xa
 4739 08d9 75       		.byte	0x75
 4740 08da F7080000 		.4byte	0x8f7
 4741 08de 07       		.uleb128 0x7
 4742 08df 2D0B0000 		.4byte	.LASF154
 4743 08e3 0A       		.byte	0xa
 4744 08e4 76       		.byte	0x76
 4745 08e5 F7080000 		.4byte	0x8f7
 4746 08e9 00       		.byte	0
 4747 08ea 07       		.uleb128 0x7
 4748 08eb 3C150000 		.4byte	.LASF155
 4749 08ef 0A       		.byte	0xa
 4750 08f0 77       		.byte	0x77
 4751 08f1 9F000000 		.4byte	0x9f
 4752 08f5 04       		.byte	0x4
 4753 08f6 00       		.byte	0
 4754 08f7 0F       		.uleb128 0xf
 4755 08f8 04       		.byte	0x4
 4756 08f9 42000000 		.4byte	0x42
 4757 08fd 14       		.uleb128 0x14
 4758 08fe D2050000 		.4byte	.LASF156
 4759 0902 68       		.byte	0x68
 4760 0903 0A       		.byte	0xa
 4761 0904 B5       		.byte	0xb5
 4762 0905 270A0000 		.4byte	0xa27
 4763 0909 15       		.uleb128 0x15
 4764 090a 5F7000   		.ascii	"_p\000"
 4765 090d 0A       		.byte	0xa
 4766 090e B6       		.byte	0xb6
 4767 090f F7080000 		.4byte	0x8f7
 4768 0913 00       		.byte	0
 4769 0914 15       		.uleb128 0x15
 4770 0915 5F7200   		.ascii	"_r\000"
 4771 0918 0A       		.byte	0xa
 4772 0919 B7       		.byte	0xb7
 4773 091a 9F000000 		.4byte	0x9f
 4774 091e 04       		.byte	0x4
 4775 091f 15       		.uleb128 0x15
 4776 0920 5F7700   		.ascii	"_w\000"
 4777 0923 0A       		.byte	0xa
 4778 0924 B8       		.byte	0xb8
 4779 0925 9F000000 		.4byte	0x9f
 4780 0929 08       		.byte	0x8
 4781 092a 07       		.uleb128 0x7
 4782 092b 12020000 		.4byte	.LASF157
 4783 092f 0A       		.byte	0xa
 4784 0930 B9       		.byte	0xb9
 4785 0931 54000000 		.4byte	0x54
 4786 0935 0C       		.byte	0xc
 4787 0936 07       		.uleb128 0x7
 4788 0937 CA0B0000 		.4byte	.LASF158
ARM GAS  C:\Users\PCHAUT~1\AppData\Local\Temp\ccYc6BCi.s 			page 85


 4789 093b 0A       		.byte	0xa
 4790 093c BA       		.byte	0xba
 4791 093d 54000000 		.4byte	0x54
 4792 0941 0E       		.byte	0xe
 4793 0942 15       		.uleb128 0x15
 4794 0943 5F626600 		.ascii	"_bf\000"
 4795 0947 0A       		.byte	0xa
 4796 0948 BB       		.byte	0xbb
 4797 0949 D2080000 		.4byte	0x8d2
 4798 094d 10       		.byte	0x10
 4799 094e 07       		.uleb128 0x7
 4800 094f 5D130000 		.4byte	.LASF159
 4801 0953 0A       		.byte	0xa
 4802 0954 BC       		.byte	0xbc
 4803 0955 9F000000 		.4byte	0x9f
 4804 0959 18       		.byte	0x18
 4805 095a 07       		.uleb128 0x7
 4806 095b 92000000 		.4byte	.LASF160
 4807 095f 0A       		.byte	0xa
 4808 0960 C3       		.byte	0xc3
 4809 0961 9A060000 		.4byte	0x69a
 4810 0965 1C       		.byte	0x1c
 4811 0966 07       		.uleb128 0x7
 4812 0967 F2020000 		.4byte	.LASF161
 4813 096b 0A       		.byte	0xa
 4814 096c C5       		.byte	0xc5
 4815 096d 880B0000 		.4byte	0xb88
 4816 0971 20       		.byte	0x20
 4817 0972 07       		.uleb128 0x7
 4818 0973 4C0E0000 		.4byte	.LASF162
 4819 0977 0A       		.byte	0xa
 4820 0978 C7       		.byte	0xc7
 4821 0979 B20B0000 		.4byte	0xbb2
 4822 097d 24       		.byte	0x24
 4823 097e 07       		.uleb128 0x7
 4824 097f 3E160000 		.4byte	.LASF163
 4825 0983 0A       		.byte	0xa
 4826 0984 CA       		.byte	0xca
 4827 0985 D60B0000 		.4byte	0xbd6
 4828 0989 28       		.byte	0x28
 4829 098a 07       		.uleb128 0x7
 4830 098b 2E0A0000 		.4byte	.LASF164
 4831 098f 0A       		.byte	0xa
 4832 0990 CB       		.byte	0xcb
 4833 0991 F00B0000 		.4byte	0xbf0
 4834 0995 2C       		.byte	0x2c
 4835 0996 15       		.uleb128 0x15
 4836 0997 5F756200 		.ascii	"_ub\000"
 4837 099b 0A       		.byte	0xa
 4838 099c CE       		.byte	0xce
 4839 099d D2080000 		.4byte	0x8d2
 4840 09a1 30       		.byte	0x30
 4841 09a2 15       		.uleb128 0x15
 4842 09a3 5F757000 		.ascii	"_up\000"
 4843 09a7 0A       		.byte	0xa
 4844 09a8 CF       		.byte	0xcf
 4845 09a9 F7080000 		.4byte	0x8f7
ARM GAS  C:\Users\PCHAUT~1\AppData\Local\Temp\ccYc6BCi.s 			page 86


 4846 09ad 38       		.byte	0x38
 4847 09ae 15       		.uleb128 0x15
 4848 09af 5F757200 		.ascii	"_ur\000"
 4849 09b3 0A       		.byte	0xa
 4850 09b4 D0       		.byte	0xd0
 4851 09b5 9F000000 		.4byte	0x9f
 4852 09b9 3C       		.byte	0x3c
 4853 09ba 07       		.uleb128 0x7
 4854 09bb 63160000 		.4byte	.LASF165
 4855 09bf 0A       		.byte	0xa
 4856 09c0 D3       		.byte	0xd3
 4857 09c1 F60B0000 		.4byte	0xbf6
 4858 09c5 40       		.byte	0x40
 4859 09c6 07       		.uleb128 0x7
 4860 09c7 8C150000 		.4byte	.LASF166
 4861 09cb 0A       		.byte	0xa
 4862 09cc D4       		.byte	0xd4
 4863 09cd 060C0000 		.4byte	0xc06
 4864 09d1 43       		.byte	0x43
 4865 09d2 15       		.uleb128 0x15
 4866 09d3 5F6C6200 		.ascii	"_lb\000"
 4867 09d7 0A       		.byte	0xa
 4868 09d8 D7       		.byte	0xd7
 4869 09d9 D2080000 		.4byte	0x8d2
 4870 09dd 44       		.byte	0x44
 4871 09de 07       		.uleb128 0x7
 4872 09df 7C100000 		.4byte	.LASF167
 4873 09e3 0A       		.byte	0xa
 4874 09e4 DA       		.byte	0xda
 4875 09e5 9F000000 		.4byte	0x9f
 4876 09e9 4C       		.byte	0x4c
 4877 09ea 07       		.uleb128 0x7
 4878 09eb 41060000 		.4byte	.LASF168
 4879 09ef 0A       		.byte	0xa
 4880 09f0 DB       		.byte	0xdb
 4881 09f1 B2060000 		.4byte	0x6b2
 4882 09f5 50       		.byte	0x50
 4883 09f6 07       		.uleb128 0x7
 4884 09f7 670F0000 		.4byte	.LASF169
 4885 09fb 0A       		.byte	0xa
 4886 09fc DE       		.byte	0xde
 4887 09fd 450A0000 		.4byte	0xa45
 4888 0a01 54       		.byte	0x54
 4889 0a02 07       		.uleb128 0x7
 4890 0a03 8A100000 		.4byte	.LASF170
 4891 0a07 0A       		.byte	0xa
 4892 0a08 E2       		.byte	0xe2
 4893 0a09 2F070000 		.4byte	0x72f
 4894 0a0d 58       		.byte	0x58
 4895 0a0e 07       		.uleb128 0x7
 4896 0a0f E9020000 		.4byte	.LASF171
 4897 0a13 0A       		.byte	0xa
 4898 0a14 E4       		.byte	0xe4
 4899 0a15 24070000 		.4byte	0x724
 4900 0a19 5C       		.byte	0x5c
 4901 0a1a 07       		.uleb128 0x7
 4902 0a1b E2150000 		.4byte	.LASF172
ARM GAS  C:\Users\PCHAUT~1\AppData\Local\Temp\ccYc6BCi.s 			page 87


 4903 0a1f 0A       		.byte	0xa
 4904 0a20 E5       		.byte	0xe5
 4905 0a21 9F000000 		.4byte	0x9f
 4906 0a25 64       		.byte	0x64
 4907 0a26 00       		.byte	0
 4908 0a27 19       		.uleb128 0x19
 4909 0a28 9F000000 		.4byte	0x9f
 4910 0a2c 450A0000 		.4byte	0xa45
 4911 0a30 1A       		.uleb128 0x1a
 4912 0a31 450A0000 		.4byte	0xa45
 4913 0a35 1A       		.uleb128 0x1a
 4914 0a36 9A060000 		.4byte	0x69a
 4915 0a3a 1A       		.uleb128 0x1a
 4916 0a3b 820B0000 		.4byte	0xb82
 4917 0a3f 1A       		.uleb128 0x1a
 4918 0a40 9F000000 		.4byte	0x9f
 4919 0a44 00       		.byte	0
 4920 0a45 0F       		.uleb128 0xf
 4921 0a46 04       		.byte	0x4
 4922 0a47 500A0000 		.4byte	0xa50
 4923 0a4b 05       		.uleb128 0x5
 4924 0a4c 450A0000 		.4byte	0xa45
 4925 0a50 1B       		.uleb128 0x1b
 4926 0a51 860E0000 		.4byte	.LASF173
 4927 0a55 2804     		.2byte	0x428
 4928 0a57 0A       		.byte	0xa
 4929 0a58 3902     		.2byte	0x239
 4930 0a5a 820B0000 		.4byte	0xb82
 4931 0a5e 0A       		.uleb128 0xa
 4932 0a5f 4B020000 		.4byte	.LASF174
 4933 0a63 0A       		.byte	0xa
 4934 0a64 3B02     		.2byte	0x23b
 4935 0a66 9F000000 		.4byte	0x9f
 4936 0a6a 00       		.byte	0
 4937 0a6b 0A       		.uleb128 0xa
 4938 0a6c AE0A0000 		.4byte	.LASF175
 4939 0a70 0A       		.byte	0xa
 4940 0a71 4002     		.2byte	0x240
 4941 0a73 5D0C0000 		.4byte	0xc5d
 4942 0a77 04       		.byte	0x4
 4943 0a78 0A       		.uleb128 0xa
 4944 0a79 BD120000 		.4byte	.LASF176
 4945 0a7d 0A       		.byte	0xa
 4946 0a7e 4002     		.2byte	0x240
 4947 0a80 5D0C0000 		.4byte	0xc5d
 4948 0a84 08       		.byte	0x8
 4949 0a85 0A       		.uleb128 0xa
 4950 0a86 52160000 		.4byte	.LASF177
 4951 0a8a 0A       		.byte	0xa
 4952 0a8b 4002     		.2byte	0x240
 4953 0a8d 5D0C0000 		.4byte	0xc5d
 4954 0a91 0C       		.byte	0xc
 4955 0a92 0A       		.uleb128 0xa
 4956 0a93 6C070000 		.4byte	.LASF178
 4957 0a97 0A       		.byte	0xa
 4958 0a98 4202     		.2byte	0x242
 4959 0a9a 9F000000 		.4byte	0x9f
ARM GAS  C:\Users\PCHAUT~1\AppData\Local\Temp\ccYc6BCi.s 			page 88


 4960 0a9e 10       		.byte	0x10
 4961 0a9f 0A       		.uleb128 0xa
 4962 0aa0 8E060000 		.4byte	.LASF179
 4963 0aa4 0A       		.byte	0xa
 4964 0aa5 4302     		.2byte	0x243
 4965 0aa7 3F0E0000 		.4byte	0xe3f
 4966 0aab 14       		.byte	0x14
 4967 0aac 0A       		.uleb128 0xa
 4968 0aad C9150000 		.4byte	.LASF180
 4969 0ab1 0A       		.byte	0xa
 4970 0ab2 4602     		.2byte	0x246
 4971 0ab4 9F000000 		.4byte	0x9f
 4972 0ab8 30       		.byte	0x30
 4973 0ab9 0A       		.uleb128 0xa
 4974 0aba 82140000 		.4byte	.LASF181
 4975 0abe 0A       		.byte	0xa
 4976 0abf 4702     		.2byte	0x247
 4977 0ac1 540E0000 		.4byte	0xe54
 4978 0ac5 34       		.byte	0x34
 4979 0ac6 0A       		.uleb128 0xa
 4980 0ac7 3D0A0000 		.4byte	.LASF182
 4981 0acb 0A       		.byte	0xa
 4982 0acc 4902     		.2byte	0x249
 4983 0ace 9F000000 		.4byte	0x9f
 4984 0ad2 38       		.byte	0x38
 4985 0ad3 0A       		.uleb128 0xa
 4986 0ad4 FA0B0000 		.4byte	.LASF183
 4987 0ad8 0A       		.byte	0xa
 4988 0ad9 4B02     		.2byte	0x24b
 4989 0adb 650E0000 		.4byte	0xe65
 4990 0adf 3C       		.byte	0x3c
 4991 0ae0 0A       		.uleb128 0xa
 4992 0ae1 4B040000 		.4byte	.LASF184
 4993 0ae5 0A       		.byte	0xa
 4994 0ae6 4E02     		.2byte	0x24e
 4995 0ae8 98070000 		.4byte	0x798
 4996 0aec 40       		.byte	0x40
 4997 0aed 0A       		.uleb128 0xa
 4998 0aee 65050000 		.4byte	.LASF185
 4999 0af2 0A       		.byte	0xa
 5000 0af3 4F02     		.2byte	0x24f
 5001 0af5 9F000000 		.4byte	0x9f
 5002 0af9 44       		.byte	0x44
 5003 0afa 0A       		.uleb128 0xa
 5004 0afb 9C080000 		.4byte	.LASF186
 5005 0aff 0A       		.byte	0xa
 5006 0b00 5002     		.2byte	0x250
 5007 0b02 98070000 		.4byte	0x798
 5008 0b06 48       		.byte	0x48
 5009 0b07 0A       		.uleb128 0xa
 5010 0b08 330B0000 		.4byte	.LASF187
 5011 0b0c 0A       		.byte	0xa
 5012 0b0d 5102     		.2byte	0x251
 5013 0b0f 6B0E0000 		.4byte	0xe6b
 5014 0b13 4C       		.byte	0x4c
 5015 0b14 0A       		.uleb128 0xa
 5016 0b15 22100000 		.4byte	.LASF188
ARM GAS  C:\Users\PCHAUT~1\AppData\Local\Temp\ccYc6BCi.s 			page 89


 5017 0b19 0A       		.byte	0xa
 5018 0b1a 5402     		.2byte	0x254
 5019 0b1c 9F000000 		.4byte	0x9f
 5020 0b20 50       		.byte	0x50
 5021 0b21 0A       		.uleb128 0xa
 5022 0b22 C5120000 		.4byte	.LASF189
 5023 0b26 0A       		.byte	0xa
 5024 0b27 5502     		.2byte	0x255
 5025 0b29 820B0000 		.4byte	0xb82
 5026 0b2d 54       		.byte	0x54
 5027 0b2e 0A       		.uleb128 0xa
 5028 0b2f 1D100000 		.4byte	.LASF190
 5029 0b33 0A       		.byte	0xa
 5030 0b34 7802     		.2byte	0x278
 5031 0b36 1D0E0000 		.4byte	0xe1d
 5032 0b3a 58       		.byte	0x58
 5033 0b3b 0E       		.uleb128 0xe
 5034 0b3c 7E0E0000 		.4byte	.LASF150
 5035 0b40 0A       		.byte	0xa
 5036 0b41 7C02     		.2byte	0x27c
 5037 0b43 B5080000 		.4byte	0x8b5
 5038 0b47 4801     		.2byte	0x148
 5039 0b49 0E       		.uleb128 0xe
 5040 0b4a 19090000 		.4byte	.LASF191
 5041 0b4e 0A       		.byte	0xa
 5042 0b4f 7D02     		.2byte	0x27d
 5043 0b51 77080000 		.4byte	0x877
 5044 0b55 4C01     		.2byte	0x14c
 5045 0b57 0E       		.uleb128 0xe
 5046 0b58 00090000 		.4byte	.LASF192
 5047 0b5c 0A       		.byte	0xa
 5048 0b5d 8102     		.2byte	0x281
 5049 0b5f 7C0E0000 		.4byte	0xe7c
 5050 0b63 DC02     		.2byte	0x2dc
 5051 0b65 0E       		.uleb128 0xe
 5052 0b66 47140000 		.4byte	.LASF193
 5053 0b6a 0A       		.byte	0xa
 5054 0b6b 8602     		.2byte	0x286
 5055 0b6d 220C0000 		.4byte	0xc22
 5056 0b71 E002     		.2byte	0x2e0
 5057 0b73 0E       		.uleb128 0xe
 5058 0b74 370F0000 		.4byte	.LASF194
 5059 0b78 0A       		.byte	0xa
 5060 0b79 8802     		.2byte	0x288
 5061 0b7b 880E0000 		.4byte	0xe88
 5062 0b7f EC02     		.2byte	0x2ec
 5063 0b81 00       		.byte	0
 5064 0b82 0F       		.uleb128 0xf
 5065 0b83 04       		.byte	0x4
 5066 0b84 7D010000 		.4byte	0x17d
 5067 0b88 0F       		.uleb128 0xf
 5068 0b89 04       		.byte	0x4
 5069 0b8a 270A0000 		.4byte	0xa27
 5070 0b8e 19       		.uleb128 0x19
 5071 0b8f 9F000000 		.4byte	0x9f
 5072 0b93 AC0B0000 		.4byte	0xbac
 5073 0b97 1A       		.uleb128 0x1a
ARM GAS  C:\Users\PCHAUT~1\AppData\Local\Temp\ccYc6BCi.s 			page 90


 5074 0b98 450A0000 		.4byte	0xa45
 5075 0b9c 1A       		.uleb128 0x1a
 5076 0b9d 9A060000 		.4byte	0x69a
 5077 0ba1 1A       		.uleb128 0x1a
 5078 0ba2 AC0B0000 		.4byte	0xbac
 5079 0ba6 1A       		.uleb128 0x1a
 5080 0ba7 9F000000 		.4byte	0x9f
 5081 0bab 00       		.byte	0
 5082 0bac 0F       		.uleb128 0xf
 5083 0bad 04       		.byte	0x4
 5084 0bae 84010000 		.4byte	0x184
 5085 0bb2 0F       		.uleb128 0xf
 5086 0bb3 04       		.byte	0x4
 5087 0bb4 8E0B0000 		.4byte	0xb8e
 5088 0bb8 19       		.uleb128 0x19
 5089 0bb9 BD060000 		.4byte	0x6bd
 5090 0bbd D60B0000 		.4byte	0xbd6
 5091 0bc1 1A       		.uleb128 0x1a
 5092 0bc2 450A0000 		.4byte	0xa45
 5093 0bc6 1A       		.uleb128 0x1a
 5094 0bc7 9A060000 		.4byte	0x69a
 5095 0bcb 1A       		.uleb128 0x1a
 5096 0bcc BD060000 		.4byte	0x6bd
 5097 0bd0 1A       		.uleb128 0x1a
 5098 0bd1 9F000000 		.4byte	0x9f
 5099 0bd5 00       		.byte	0
 5100 0bd6 0F       		.uleb128 0xf
 5101 0bd7 04       		.byte	0x4
 5102 0bd8 B80B0000 		.4byte	0xbb8
 5103 0bdc 19       		.uleb128 0x19
 5104 0bdd 9F000000 		.4byte	0x9f
 5105 0be1 F00B0000 		.4byte	0xbf0
 5106 0be5 1A       		.uleb128 0x1a
 5107 0be6 450A0000 		.4byte	0xa45
 5108 0bea 1A       		.uleb128 0x1a
 5109 0beb 9A060000 		.4byte	0x69a
 5110 0bef 00       		.byte	0
 5111 0bf0 0F       		.uleb128 0xf
 5112 0bf1 04       		.byte	0x4
 5113 0bf2 DC0B0000 		.4byte	0xbdc
 5114 0bf6 08       		.uleb128 0x8
 5115 0bf7 42000000 		.4byte	0x42
 5116 0bfb 060C0000 		.4byte	0xc06
 5117 0bff 09       		.uleb128 0x9
 5118 0c00 A6000000 		.4byte	0xa6
 5119 0c04 02       		.byte	0x2
 5120 0c05 00       		.byte	0
 5121 0c06 08       		.uleb128 0x8
 5122 0c07 42000000 		.4byte	0x42
 5123 0c0b 160C0000 		.4byte	0xc16
 5124 0c0f 09       		.uleb128 0x9
 5125 0c10 A6000000 		.4byte	0xa6
 5126 0c14 00       		.byte	0
 5127 0c15 00       		.byte	0
 5128 0c16 0B       		.uleb128 0xb
 5129 0c17 2C060000 		.4byte	.LASF195
 5130 0c1b 0A       		.byte	0xa
ARM GAS  C:\Users\PCHAUT~1\AppData\Local\Temp\ccYc6BCi.s 			page 91


 5131 0c1c 1F01     		.2byte	0x11f
 5132 0c1e FD080000 		.4byte	0x8fd
 5133 0c22 1C       		.uleb128 0x1c
 5134 0c23 2B140000 		.4byte	.LASF196
 5135 0c27 0C       		.byte	0xc
 5136 0c28 0A       		.byte	0xa
 5137 0c29 2301     		.2byte	0x123
 5138 0c2b 570C0000 		.4byte	0xc57
 5139 0c2f 0A       		.uleb128 0xa
 5140 0c30 D6070000 		.4byte	.LASF130
 5141 0c34 0A       		.byte	0xa
 5142 0c35 2501     		.2byte	0x125
 5143 0c37 570C0000 		.4byte	0xc57
 5144 0c3b 00       		.byte	0
 5145 0c3c 0A       		.uleb128 0xa
 5146 0c3d 3E120000 		.4byte	.LASF197
 5147 0c41 0A       		.byte	0xa
 5148 0c42 2601     		.2byte	0x126
 5149 0c44 9F000000 		.4byte	0x9f
 5150 0c48 04       		.byte	0x4
 5151 0c49 0A       		.uleb128 0xa
 5152 0c4a EE090000 		.4byte	.LASF198
 5153 0c4e 0A       		.byte	0xa
 5154 0c4f 2701     		.2byte	0x127
 5155 0c51 5D0C0000 		.4byte	0xc5d
 5156 0c55 08       		.byte	0x8
 5157 0c56 00       		.byte	0
 5158 0c57 0F       		.uleb128 0xf
 5159 0c58 04       		.byte	0x4
 5160 0c59 220C0000 		.4byte	0xc22
 5161 0c5d 0F       		.uleb128 0xf
 5162 0c5e 04       		.byte	0x4
 5163 0c5f 160C0000 		.4byte	0xc16
 5164 0c63 1C       		.uleb128 0x1c
 5165 0c64 18050000 		.4byte	.LASF199
 5166 0c68 0E       		.byte	0xe
 5167 0c69 0A       		.byte	0xa
 5168 0c6a 3F01     		.2byte	0x13f
 5169 0c6c 980C0000 		.4byte	0xc98
 5170 0c70 0A       		.uleb128 0xa
 5171 0c71 05160000 		.4byte	.LASF200
 5172 0c75 0A       		.byte	0xa
 5173 0c76 4001     		.2byte	0x140
 5174 0c78 980C0000 		.4byte	0xc98
 5175 0c7c 00       		.byte	0
 5176 0c7d 0A       		.uleb128 0xa
 5177 0c7e 530B0000 		.4byte	.LASF201
 5178 0c82 0A       		.byte	0xa
 5179 0c83 4101     		.2byte	0x141
 5180 0c85 980C0000 		.4byte	0xc98
 5181 0c89 06       		.byte	0x6
 5182 0c8a 0A       		.uleb128 0xa
 5183 0c8b 94130000 		.4byte	.LASF202
 5184 0c8f 0A       		.byte	0xa
 5185 0c90 4201     		.2byte	0x142
 5186 0c92 66000000 		.4byte	0x66
 5187 0c96 0C       		.byte	0xc
ARM GAS  C:\Users\PCHAUT~1\AppData\Local\Temp\ccYc6BCi.s 			page 92


 5188 0c97 00       		.byte	0
 5189 0c98 08       		.uleb128 0x8
 5190 0c99 66000000 		.4byte	0x66
 5191 0c9d A80C0000 		.4byte	0xca8
 5192 0ca1 09       		.uleb128 0x9
 5193 0ca2 A6000000 		.4byte	0xa6
 5194 0ca6 02       		.byte	0x2
 5195 0ca7 00       		.byte	0
 5196 0ca8 0C       		.uleb128 0xc
 5197 0ca9 D0       		.byte	0xd0
 5198 0caa 0A       		.byte	0xa
 5199 0cab 5902     		.2byte	0x259
 5200 0cad A90D0000 		.4byte	0xda9
 5201 0cb1 0A       		.uleb128 0xa
 5202 0cb2 92150000 		.4byte	.LASF203
 5203 0cb6 0A       		.byte	0xa
 5204 0cb7 5B02     		.2byte	0x25b
 5205 0cb9 A6000000 		.4byte	0xa6
 5206 0cbd 00       		.byte	0
 5207 0cbe 0A       		.uleb128 0xa
 5208 0cbf 5B140000 		.4byte	.LASF204
 5209 0cc3 0A       		.byte	0xa
 5210 0cc4 5C02     		.2byte	0x25c
 5211 0cc6 820B0000 		.4byte	0xb82
 5212 0cca 04       		.byte	0x4
 5213 0ccb 0A       		.uleb128 0xa
 5214 0ccc C5050000 		.4byte	.LASF205
 5215 0cd0 0A       		.byte	0xa
 5216 0cd1 5D02     		.2byte	0x25d
 5217 0cd3 A90D0000 		.4byte	0xda9
 5218 0cd7 08       		.byte	0x8
 5219 0cd8 0A       		.uleb128 0xa
 5220 0cd9 C50F0000 		.4byte	.LASF206
 5221 0cdd 0A       		.byte	0xa
 5222 0cde 5E02     		.2byte	0x25e
 5223 0ce0 AE070000 		.4byte	0x7ae
 5224 0ce4 24       		.byte	0x24
 5225 0ce5 0A       		.uleb128 0xa
 5226 0ce6 B50A0000 		.4byte	.LASF207
 5227 0cea 0A       		.byte	0xa
 5228 0ceb 5F02     		.2byte	0x25f
 5229 0ced 9F000000 		.4byte	0x9f
 5230 0cf1 48       		.byte	0x48
 5231 0cf2 0A       		.uleb128 0xa
 5232 0cf3 0B160000 		.4byte	.LASF208
 5233 0cf7 0A       		.byte	0xa
 5234 0cf8 6002     		.2byte	0x260
 5235 0cfa 98000000 		.4byte	0x98
 5236 0cfe 50       		.byte	0x50
 5237 0cff 0A       		.uleb128 0xa
 5238 0d00 3F010000 		.4byte	.LASF209
 5239 0d04 0A       		.byte	0xa
 5240 0d05 6102     		.2byte	0x261
 5241 0d07 630C0000 		.4byte	0xc63
 5242 0d0b 58       		.byte	0x58
 5243 0d0c 0A       		.uleb128 0xa
 5244 0d0d DB080000 		.4byte	.LASF210
ARM GAS  C:\Users\PCHAUT~1\AppData\Local\Temp\ccYc6BCi.s 			page 93


 5245 0d11 0A       		.byte	0xa
 5246 0d12 6202     		.2byte	0x262
 5247 0d14 24070000 		.4byte	0x724
 5248 0d18 68       		.byte	0x68
 5249 0d19 0A       		.uleb128 0xa
 5250 0d1a 68140000 		.4byte	.LASF211
 5251 0d1e 0A       		.byte	0xa
 5252 0d1f 6302     		.2byte	0x263
 5253 0d21 24070000 		.4byte	0x724
 5254 0d25 70       		.byte	0x70
 5255 0d26 0A       		.uleb128 0xa
 5256 0d27 F5000000 		.4byte	.LASF212
 5257 0d2b 0A       		.byte	0xa
 5258 0d2c 6402     		.2byte	0x264
 5259 0d2e 24070000 		.4byte	0x724
 5260 0d32 78       		.byte	0x78
 5261 0d33 0A       		.uleb128 0xa
 5262 0d34 39100000 		.4byte	.LASF213
 5263 0d38 0A       		.byte	0xa
 5264 0d39 6502     		.2byte	0x265
 5265 0d3b B90D0000 		.4byte	0xdb9
 5266 0d3f 80       		.byte	0x80
 5267 0d40 0A       		.uleb128 0xa
 5268 0d41 81010000 		.4byte	.LASF214
 5269 0d45 0A       		.byte	0xa
 5270 0d46 6602     		.2byte	0x266
 5271 0d48 C90D0000 		.4byte	0xdc9
 5272 0d4c 88       		.byte	0x88
 5273 0d4d 0A       		.uleb128 0xa
 5274 0d4e 50130000 		.4byte	.LASF215
 5275 0d52 0A       		.byte	0xa
 5276 0d53 6702     		.2byte	0x267
 5277 0d55 9F000000 		.4byte	0x9f
 5278 0d59 A0       		.byte	0xa0
 5279 0d5a 0A       		.uleb128 0xa
 5280 0d5b 01030000 		.4byte	.LASF216
 5281 0d5f 0A       		.byte	0xa
 5282 0d60 6802     		.2byte	0x268
 5283 0d62 24070000 		.4byte	0x724
 5284 0d66 A4       		.byte	0xa4
 5285 0d67 0A       		.uleb128 0xa
 5286 0d68 0A090000 		.4byte	.LASF217
 5287 0d6c 0A       		.byte	0xa
 5288 0d6d 6902     		.2byte	0x269
 5289 0d6f 24070000 		.4byte	0x724
 5290 0d73 AC       		.byte	0xac
 5291 0d74 0A       		.uleb128 0xa
 5292 0d75 ED070000 		.4byte	.LASF218
 5293 0d79 0A       		.byte	0xa
 5294 0d7a 6A02     		.2byte	0x26a
 5295 0d7c 24070000 		.4byte	0x724
 5296 0d80 B4       		.byte	0xb4
 5297 0d81 0A       		.uleb128 0xa
 5298 0d82 AA0B0000 		.4byte	.LASF219
 5299 0d86 0A       		.byte	0xa
 5300 0d87 6B02     		.2byte	0x26b
 5301 0d89 24070000 		.4byte	0x724
ARM GAS  C:\Users\PCHAUT~1\AppData\Local\Temp\ccYc6BCi.s 			page 94


 5302 0d8d BC       		.byte	0xbc
 5303 0d8e 0A       		.uleb128 0xa
 5304 0d8f FE0C0000 		.4byte	.LASF220
 5305 0d93 0A       		.byte	0xa
 5306 0d94 6C02     		.2byte	0x26c
 5307 0d96 24070000 		.4byte	0x724
 5308 0d9a C4       		.byte	0xc4
 5309 0d9b 0A       		.uleb128 0xa
 5310 0d9c 3E0D0000 		.4byte	.LASF221
 5311 0da0 0A       		.byte	0xa
 5312 0da1 6D02     		.2byte	0x26d
 5313 0da3 9F000000 		.4byte	0x9f
 5314 0da7 CC       		.byte	0xcc
 5315 0da8 00       		.byte	0
 5316 0da9 08       		.uleb128 0x8
 5317 0daa 7D010000 		.4byte	0x17d
 5318 0dae B90D0000 		.4byte	0xdb9
 5319 0db2 09       		.uleb128 0x9
 5320 0db3 A6000000 		.4byte	0xa6
 5321 0db7 19       		.byte	0x19
 5322 0db8 00       		.byte	0
 5323 0db9 08       		.uleb128 0x8
 5324 0dba 7D010000 		.4byte	0x17d
 5325 0dbe C90D0000 		.4byte	0xdc9
 5326 0dc2 09       		.uleb128 0x9
 5327 0dc3 A6000000 		.4byte	0xa6
 5328 0dc7 07       		.byte	0x7
 5329 0dc8 00       		.byte	0
 5330 0dc9 08       		.uleb128 0x8
 5331 0dca 7D010000 		.4byte	0x17d
 5332 0dce D90D0000 		.4byte	0xdd9
 5333 0dd2 09       		.uleb128 0x9
 5334 0dd3 A6000000 		.4byte	0xa6
 5335 0dd7 17       		.byte	0x17
 5336 0dd8 00       		.byte	0
 5337 0dd9 0C       		.uleb128 0xc
 5338 0dda F0       		.byte	0xf0
 5339 0ddb 0A       		.byte	0xa
 5340 0ddc 7202     		.2byte	0x272
 5341 0dde FD0D0000 		.4byte	0xdfd
 5342 0de2 0A       		.uleb128 0xa
 5343 0de3 E7040000 		.4byte	.LASF222
 5344 0de7 0A       		.byte	0xa
 5345 0de8 7502     		.2byte	0x275
 5346 0dea FD0D0000 		.4byte	0xdfd
 5347 0dee 00       		.byte	0
 5348 0def 0A       		.uleb128 0xa
 5349 0df0 5A160000 		.4byte	.LASF223
 5350 0df4 0A       		.byte	0xa
 5351 0df5 7602     		.2byte	0x276
 5352 0df7 0D0E0000 		.4byte	0xe0d
 5353 0dfb 78       		.byte	0x78
 5354 0dfc 00       		.byte	0
 5355 0dfd 08       		.uleb128 0x8
 5356 0dfe F7080000 		.4byte	0x8f7
 5357 0e02 0D0E0000 		.4byte	0xe0d
 5358 0e06 09       		.uleb128 0x9
ARM GAS  C:\Users\PCHAUT~1\AppData\Local\Temp\ccYc6BCi.s 			page 95


 5359 0e07 A6000000 		.4byte	0xa6
 5360 0e0b 1D       		.byte	0x1d
 5361 0e0c 00       		.byte	0
 5362 0e0d 08       		.uleb128 0x8
 5363 0e0e A6000000 		.4byte	0xa6
 5364 0e12 1D0E0000 		.4byte	0xe1d
 5365 0e16 09       		.uleb128 0x9
 5366 0e17 A6000000 		.4byte	0xa6
 5367 0e1b 1D       		.byte	0x1d
 5368 0e1c 00       		.byte	0
 5369 0e1d 1D       		.uleb128 0x1d
 5370 0e1e F0       		.byte	0xf0
 5371 0e1f 0A       		.byte	0xa
 5372 0e20 5702     		.2byte	0x257
 5373 0e22 3F0E0000 		.4byte	0xe3f
 5374 0e26 1E       		.uleb128 0x1e
 5375 0e27 860E0000 		.4byte	.LASF173
 5376 0e2b 0A       		.byte	0xa
 5377 0e2c 6E02     		.2byte	0x26e
 5378 0e2e A80C0000 		.4byte	0xca8
 5379 0e32 1E       		.uleb128 0x1e
 5380 0e33 E40F0000 		.4byte	.LASF224
 5381 0e37 0A       		.byte	0xa
 5382 0e38 7702     		.2byte	0x277
 5383 0e3a D90D0000 		.4byte	0xdd9
 5384 0e3e 00       		.byte	0
 5385 0e3f 08       		.uleb128 0x8
 5386 0e40 7D010000 		.4byte	0x17d
 5387 0e44 4F0E0000 		.4byte	0xe4f
 5388 0e48 09       		.uleb128 0x9
 5389 0e49 A6000000 		.4byte	0xa6
 5390 0e4d 18       		.byte	0x18
 5391 0e4e 00       		.byte	0
 5392 0e4f 11       		.uleb128 0x11
 5393 0e50 DE020000 		.4byte	.LASF226
 5394 0e54 0F       		.uleb128 0xf
 5395 0e55 04       		.byte	0x4
 5396 0e56 4F0E0000 		.4byte	0xe4f
 5397 0e5a 1F       		.uleb128 0x1f
 5398 0e5b 650E0000 		.4byte	0xe65
 5399 0e5f 1A       		.uleb128 0x1a
 5400 0e60 450A0000 		.4byte	0xa45
 5401 0e64 00       		.byte	0
 5402 0e65 0F       		.uleb128 0xf
 5403 0e66 04       		.byte	0x4
 5404 0e67 5A0E0000 		.4byte	0xe5a
 5405 0e6b 0F       		.uleb128 0xf
 5406 0e6c 04       		.byte	0x4
 5407 0e6d 98070000 		.4byte	0x798
 5408 0e71 1F       		.uleb128 0x1f
 5409 0e72 7C0E0000 		.4byte	0xe7c
 5410 0e76 1A       		.uleb128 0x1a
 5411 0e77 9F000000 		.4byte	0x9f
 5412 0e7b 00       		.byte	0
 5413 0e7c 0F       		.uleb128 0xf
 5414 0e7d 04       		.byte	0x4
 5415 0e7e 820E0000 		.4byte	0xe82
ARM GAS  C:\Users\PCHAUT~1\AppData\Local\Temp\ccYc6BCi.s 			page 96


 5416 0e82 0F       		.uleb128 0xf
 5417 0e83 04       		.byte	0x4
 5418 0e84 710E0000 		.4byte	0xe71
 5419 0e88 08       		.uleb128 0x8
 5420 0e89 160C0000 		.4byte	0xc16
 5421 0e8d 980E0000 		.4byte	0xe98
 5422 0e91 09       		.uleb128 0x9
 5423 0e92 A6000000 		.4byte	0xa6
 5424 0e96 02       		.byte	0x2
 5425 0e97 00       		.byte	0
 5426 0e98 20       		.uleb128 0x20
 5427 0e99 9E030000 		.4byte	.LASF227
 5428 0e9d 0A       		.byte	0xa
 5429 0e9e 0703     		.2byte	0x307
 5430 0ea0 450A0000 		.4byte	0xa45
 5431 0ea4 20       		.uleb128 0x20
 5432 0ea5 860F0000 		.4byte	.LASF228
 5433 0ea9 0A       		.byte	0xa
 5434 0eaa 0803     		.2byte	0x308
 5435 0eac 4B0A0000 		.4byte	0xa4b
 5436 0eb0 21       		.uleb128 0x21
 5437 0eb1 C001     		.2byte	0x1c0
 5438 0eb3 0B       		.byte	0xb
 5439 0eb4 44       		.byte	0x44
 5440 0eb5 E00E0000 		.4byte	0xee0
 5441 0eb9 07       		.uleb128 0x7
 5442 0eba 39160000 		.4byte	.LASF229
 5443 0ebe 0B       		.byte	0xb
 5444 0ebf 45       		.byte	0x45
 5445 0ec0 82060000 		.4byte	0x682
 5446 0ec4 00       		.byte	0
 5447 0ec5 17       		.uleb128 0x17
 5448 0ec6 03010000 		.4byte	.LASF230
 5449 0eca 0B       		.byte	0xb
 5450 0ecb 48       		.byte	0x48
 5451 0ecc 89010000 		.4byte	0x189
 5452 0ed0 5C01     		.2byte	0x15c
 5453 0ed2 17       		.uleb128 0x17
 5454 0ed3 2C0F0000 		.4byte	.LASF231
 5455 0ed7 0B       		.byte	0xb
 5456 0ed8 49       		.byte	0x49
 5457 0ed9 B8000000 		.4byte	0xb8
 5458 0edd BF01     		.2byte	0x1bf
 5459 0edf 00       		.byte	0
 5460 0ee0 02       		.uleb128 0x2
 5461 0ee1 0F030000 		.4byte	.LASF232
 5462 0ee5 0B       		.byte	0xb
 5463 0ee6 4B       		.byte	0x4b
 5464 0ee7 B00E0000 		.4byte	0xeb0
 5465 0eeb 02       		.uleb128 0x2
 5466 0eec AF000000 		.4byte	.LASF233
 5467 0ef0 0B       		.byte	0xb
 5468 0ef1 52       		.byte	0x52
 5469 0ef2 F60E0000 		.4byte	0xef6
 5470 0ef6 0F       		.uleb128 0xf
 5471 0ef7 04       		.byte	0x4
 5472 0ef8 E00E0000 		.4byte	0xee0
ARM GAS  C:\Users\PCHAUT~1\AppData\Local\Temp\ccYc6BCi.s 			page 97


 5473 0efc 22       		.uleb128 0x22
 5474 0efd 58070000 		.4byte	.LASF234
 5475 0f01 0C       		.byte	0xc
 5476 0f02 63       		.byte	0x63
 5477 0f03 820B0000 		.4byte	0xb82
 5478 0f07 08       		.uleb128 0x8
 5479 0f08 E9000000 		.4byte	0xe9
 5480 0f0c 170F0000 		.4byte	0xf17
 5481 0f10 09       		.uleb128 0x9
 5482 0f11 A6000000 		.4byte	0xa6
 5483 0f15 03       		.byte	0x3
 5484 0f16 00       		.byte	0
 5485 0f17 23       		.uleb128 0x23
 5486 0f18 430C0000 		.4byte	.LASF235
 5487 0f1c 01       		.byte	0x1
 5488 0f1d 30       		.byte	0x30
 5489 0f1e 070F0000 		.4byte	0xf07
 5490 0f22 05       		.uleb128 0x5
 5491 0f23 03       		.byte	0x3
 5492 0f24 00000000 		.4byte	refArrayQuadrants
 5493 0f28 24       		.uleb128 0x24
 5494 0f29 99060000 		.4byte	.LASF241
 5495 0f2d 01       		.byte	0x1
 5496 0f2e EF04     		.2byte	0x4ef
 5497 0f30 94010000 		.4byte	0x194
 5498 0f34 00000000 		.4byte	.LFB25
 5499 0f38 68000000 		.4byte	.LFE25-.LFB25
 5500 0f3c 01       		.uleb128 0x1
 5501 0f3d 9C       		.byte	0x9c
 5502 0f3e 9D0F0000 		.4byte	0xf9d
 5503 0f42 25       		.uleb128 0x25
 5504 0f43 44657600 		.ascii	"Dev\000"
 5505 0f47 01       		.byte	0x1
 5506 0f48 EF04     		.2byte	0x4ef
 5507 0f4a EB0E0000 		.4byte	0xeeb
 5508 0f4e 02       		.uleb128 0x2
 5509 0f4f 91       		.byte	0x91
 5510 0f50 6C       		.sleb128 -20
 5511 0f51 26       		.uleb128 0x26
 5512 0f52 22090000 		.4byte	.LASF236
 5513 0f56 01       		.byte	0x1
 5514 0f57 F004     		.2byte	0x4f0
 5515 0f59 7C060000 		.4byte	0x67c
 5516 0f5d 02       		.uleb128 0x2
 5517 0f5e 91       		.byte	0x91
 5518 0f5f 68       		.sleb128 -24
 5519 0f60 26       		.uleb128 0x26
 5520 0f61 2F040000 		.4byte	.LASF237
 5521 0f65 01       		.byte	0x1
 5522 0f66 F004     		.2byte	0x4f0
 5523 0f68 7C060000 		.4byte	0x67c
 5524 0f6c 02       		.uleb128 0x2
 5525 0f6d 91       		.byte	0x91
 5526 0f6e 64       		.sleb128 -28
 5527 0f6f 27       		.uleb128 0x27
 5528 0f70 C0010000 		.4byte	.LASF238
 5529 0f74 01       		.byte	0x1
ARM GAS  C:\Users\PCHAUT~1\AppData\Local\Temp\ccYc6BCi.s 			page 98


 5530 0f75 F204     		.2byte	0x4f2
 5531 0f77 94010000 		.4byte	0x194
 5532 0f7b 02       		.uleb128 0x2
 5533 0f7c 91       		.byte	0x91
 5534 0f7d 71       		.sleb128 -15
 5535 0f7e 27       		.uleb128 0x27
 5536 0f7f F60F0000 		.4byte	.LASF239
 5537 0f83 01       		.byte	0x1
 5538 0f84 F304     		.2byte	0x4f3
 5539 0f86 B8000000 		.4byte	0xb8
 5540 0f8a 02       		.uleb128 0x2
 5541 0f8b 91       		.byte	0x91
 5542 0f8c 72       		.sleb128 -14
 5543 0f8d 27       		.uleb128 0x27
 5544 0f8e 250A0000 		.4byte	.LASF240
 5545 0f92 01       		.byte	0x1
 5546 0f93 F404     		.2byte	0x4f4
 5547 0f95 B8000000 		.4byte	0xb8
 5548 0f99 02       		.uleb128 0x2
 5549 0f9a 91       		.byte	0x91
 5550 0f9b 73       		.sleb128 -13
 5551 0f9c 00       		.byte	0
 5552 0f9d 24       		.uleb128 0x24
 5553 0f9e 530E0000 		.4byte	.LASF242
 5554 0fa2 01       		.byte	0x1
 5555 0fa3 E004     		.2byte	0x4e0
 5556 0fa5 94010000 		.4byte	0x194
 5557 0fa9 00000000 		.4byte	.LFB24
 5558 0fad 68000000 		.4byte	.LFE24-.LFB24
 5559 0fb1 01       		.uleb128 0x1
 5560 0fb2 9C       		.byte	0x9c
 5561 0fb3 12100000 		.4byte	0x1012
 5562 0fb7 25       		.uleb128 0x25
 5563 0fb8 44657600 		.ascii	"Dev\000"
 5564 0fbc 01       		.byte	0x1
 5565 0fbd E004     		.2byte	0x4e0
 5566 0fbf EB0E0000 		.4byte	0xeeb
 5567 0fc3 02       		.uleb128 0x2
 5568 0fc4 91       		.byte	0x91
 5569 0fc5 6C       		.sleb128 -20
 5570 0fc6 26       		.uleb128 0x26
 5571 0fc7 F60F0000 		.4byte	.LASF239
 5572 0fcb 01       		.byte	0x1
 5573 0fcc E104     		.2byte	0x4e1
 5574 0fce B8000000 		.4byte	0xb8
 5575 0fd2 02       		.uleb128 0x2
 5576 0fd3 91       		.byte	0x91
 5577 0fd4 6B       		.sleb128 -21
 5578 0fd5 26       		.uleb128 0x26
 5579 0fd6 250A0000 		.4byte	.LASF240
 5580 0fda 01       		.byte	0x1
 5581 0fdb E104     		.2byte	0x4e1
 5582 0fdd B8000000 		.4byte	0xb8
 5583 0fe1 02       		.uleb128 0x2
 5584 0fe2 91       		.byte	0x91
 5585 0fe3 6A       		.sleb128 -22
 5586 0fe4 27       		.uleb128 0x27
ARM GAS  C:\Users\PCHAUT~1\AppData\Local\Temp\ccYc6BCi.s 			page 99


 5587 0fe5 C0010000 		.4byte	.LASF238
 5588 0fe9 01       		.byte	0x1
 5589 0fea E304     		.2byte	0x4e3
 5590 0fec 94010000 		.4byte	0x194
 5591 0ff0 02       		.uleb128 0x2
 5592 0ff1 91       		.byte	0x91
 5593 0ff2 73       		.sleb128 -13
 5594 0ff3 27       		.uleb128 0x27
 5595 0ff4 22090000 		.4byte	.LASF236
 5596 0ff8 01       		.byte	0x1
 5597 0ff9 E404     		.2byte	0x4e4
 5598 0ffb B8000000 		.4byte	0xb8
 5599 0fff 02       		.uleb128 0x2
 5600 1000 91       		.byte	0x91
 5601 1001 71       		.sleb128 -15
 5602 1002 27       		.uleb128 0x27
 5603 1003 2F040000 		.4byte	.LASF237
 5604 1007 01       		.byte	0x1
 5605 1008 E504     		.2byte	0x4e5
 5606 100a B8000000 		.4byte	0xb8
 5607 100e 02       		.uleb128 0x2
 5608 100f 91       		.byte	0x91
 5609 1010 72       		.sleb128 -14
 5610 1011 00       		.byte	0
 5611 1012 24       		.uleb128 0x24
 5612 1013 A4160000 		.4byte	.LASF243
 5613 1017 01       		.byte	0x1
 5614 1018 BD04     		.2byte	0x4bd
 5615 101a 94010000 		.4byte	0x194
 5616 101e 00000000 		.4byte	.LFB23
 5617 1022 A8000000 		.4byte	.LFE23-.LFB23
 5618 1026 01       		.uleb128 0x1
 5619 1027 9C       		.byte	0x9c
 5620 1028 87100000 		.4byte	0x1087
 5621 102c 25       		.uleb128 0x25
 5622 102d 44657600 		.ascii	"Dev\000"
 5623 1031 01       		.byte	0x1
 5624 1032 BD04     		.2byte	0x4bd
 5625 1034 EB0E0000 		.4byte	0xeeb
 5626 1038 02       		.uleb128 0x2
 5627 1039 91       		.byte	0x91
 5628 103a 6C       		.sleb128 -20
 5629 103b 26       		.uleb128 0x26
 5630 103c 22090000 		.4byte	.LASF236
 5631 1040 01       		.byte	0x1
 5632 1041 BE04     		.2byte	0x4be
 5633 1043 7C060000 		.4byte	0x67c
 5634 1047 02       		.uleb128 0x2
 5635 1048 91       		.byte	0x91
 5636 1049 68       		.sleb128 -24
 5637 104a 26       		.uleb128 0x26
 5638 104b 2F040000 		.4byte	.LASF237
 5639 104f 01       		.byte	0x1
 5640 1050 BE04     		.2byte	0x4be
 5641 1052 7C060000 		.4byte	0x67c
 5642 1056 02       		.uleb128 0x2
 5643 1057 91       		.byte	0x91
ARM GAS  C:\Users\PCHAUT~1\AppData\Local\Temp\ccYc6BCi.s 			page 100


 5644 1058 64       		.sleb128 -28
 5645 1059 26       		.uleb128 0x26
 5646 105a D40F0000 		.4byte	.LASF244
 5647 105e 01       		.byte	0x1
 5648 105f BE04     		.2byte	0x4be
 5649 1061 B8000000 		.4byte	0xb8
 5650 1065 02       		.uleb128 0x2
 5651 1066 91       		.byte	0x91
 5652 1067 63       		.sleb128 -29
 5653 1068 27       		.uleb128 0x27
 5654 1069 C0010000 		.4byte	.LASF238
 5655 106d 01       		.byte	0x1
 5656 106e C004     		.2byte	0x4c0
 5657 1070 94010000 		.4byte	0x194
 5658 1074 02       		.uleb128 0x2
 5659 1075 91       		.byte	0x91
 5660 1076 72       		.sleb128 -14
 5661 1077 27       		.uleb128 0x27
 5662 1078 6F0E0000 		.4byte	.LASF103
 5663 107c 01       		.byte	0x1
 5664 107d C104     		.2byte	0x4c1
 5665 107f B8000000 		.4byte	0xb8
 5666 1083 02       		.uleb128 0x2
 5667 1084 91       		.byte	0x91
 5668 1085 73       		.sleb128 -13
 5669 1086 00       		.byte	0
 5670 1087 24       		.uleb128 0x24
 5671 1088 11000000 		.4byte	.LASF245
 5672 108c 01       		.byte	0x1
 5673 108d 9004     		.2byte	0x490
 5674 108f 94010000 		.4byte	0x194
 5675 1093 00000000 		.4byte	.LFB22
 5676 1097 04010000 		.4byte	.LFE22-.LFB22
 5677 109b 01       		.uleb128 0x1
 5678 109c 9C       		.byte	0x9c
 5679 109d 29110000 		.4byte	0x1129
 5680 10a1 25       		.uleb128 0x25
 5681 10a2 44657600 		.ascii	"Dev\000"
 5682 10a6 01       		.byte	0x1
 5683 10a7 9004     		.2byte	0x490
 5684 10a9 EB0E0000 		.4byte	0xeeb
 5685 10ad 02       		.uleb128 0x2
 5686 10ae 91       		.byte	0x91
 5687 10af 64       		.sleb128 -28
 5688 10b0 26       		.uleb128 0x26
 5689 10b1 2F040000 		.4byte	.LASF237
 5690 10b5 01       		.byte	0x1
 5691 10b6 9104     		.2byte	0x491
 5692 10b8 7C060000 		.4byte	0x67c
 5693 10bc 02       		.uleb128 0x2
 5694 10bd 91       		.byte	0x91
 5695 10be 60       		.sleb128 -32
 5696 10bf 26       		.uleb128 0x26
 5697 10c0 D40F0000 		.4byte	.LASF244
 5698 10c4 01       		.byte	0x1
 5699 10c5 9104     		.2byte	0x491
 5700 10c7 C3000000 		.4byte	0xc3
ARM GAS  C:\Users\PCHAUT~1\AppData\Local\Temp\ccYc6BCi.s 			page 101


 5701 10cb 02       		.uleb128 0x2
 5702 10cc 91       		.byte	0x91
 5703 10cd 5F       		.sleb128 -33
 5704 10ce 26       		.uleb128 0x26
 5705 10cf B5060000 		.4byte	.LASF246
 5706 10d3 01       		.byte	0x1
 5707 10d4 9204     		.2byte	0x492
 5708 10d6 C3000000 		.4byte	0xc3
 5709 10da 02       		.uleb128 0x2
 5710 10db 91       		.byte	0x91
 5711 10dc 5E       		.sleb128 -34
 5712 10dd 27       		.uleb128 0x27
 5713 10de C0010000 		.4byte	.LASF238
 5714 10e2 01       		.byte	0x1
 5715 10e3 9404     		.2byte	0x494
 5716 10e5 94010000 		.4byte	0x194
 5717 10e9 02       		.uleb128 0x2
 5718 10ea 91       		.byte	0x91
 5719 10eb 70       		.sleb128 -16
 5720 10ec 27       		.uleb128 0x27
 5721 10ed 6F0E0000 		.4byte	.LASF103
 5722 10f1 01       		.byte	0x1
 5723 10f2 9504     		.2byte	0x495
 5724 10f4 B8000000 		.4byte	0xb8
 5725 10f8 02       		.uleb128 0x2
 5726 10f9 91       		.byte	0x91
 5727 10fa 71       		.sleb128 -15
 5728 10fb 27       		.uleb128 0x27
 5729 10fc F60F0000 		.4byte	.LASF239
 5730 1100 01       		.byte	0x1
 5731 1101 9604     		.2byte	0x496
 5732 1103 B8000000 		.4byte	0xb8
 5733 1107 02       		.uleb128 0x2
 5734 1108 91       		.byte	0x91
 5735 1109 72       		.sleb128 -14
 5736 110a 27       		.uleb128 0x27
 5737 110b 250A0000 		.4byte	.LASF240
 5738 110f 01       		.byte	0x1
 5739 1110 9704     		.2byte	0x497
 5740 1112 B8000000 		.4byte	0xb8
 5741 1116 02       		.uleb128 0x2
 5742 1117 91       		.byte	0x91
 5743 1118 73       		.sleb128 -13
 5744 1119 27       		.uleb128 0x27
 5745 111a 7E020000 		.4byte	.LASF247
 5746 111e 01       		.byte	0x1
 5747 111f 9804     		.2byte	0x498
 5748 1121 B8000000 		.4byte	0xb8
 5749 1125 02       		.uleb128 0x2
 5750 1126 91       		.byte	0x91
 5751 1127 6F       		.sleb128 -17
 5752 1128 00       		.byte	0
 5753 1129 24       		.uleb128 0x24
 5754 112a 850C0000 		.4byte	.LASF248
 5755 112e 01       		.byte	0x1
 5756 112f 6304     		.2byte	0x463
 5757 1131 94010000 		.4byte	0x194
ARM GAS  C:\Users\PCHAUT~1\AppData\Local\Temp\ccYc6BCi.s 			page 102


 5758 1135 00000000 		.4byte	.LFB21
 5759 1139 0C010000 		.4byte	.LFE21-.LFB21
 5760 113d 01       		.uleb128 0x1
 5761 113e 9C       		.byte	0x9c
 5762 113f CB110000 		.4byte	0x11cb
 5763 1143 25       		.uleb128 0x25
 5764 1144 44657600 		.ascii	"Dev\000"
 5765 1148 01       		.byte	0x1
 5766 1149 6304     		.2byte	0x463
 5767 114b EB0E0000 		.4byte	0xeeb
 5768 114f 02       		.uleb128 0x2
 5769 1150 91       		.byte	0x91
 5770 1151 64       		.sleb128 -28
 5771 1152 26       		.uleb128 0x26
 5772 1153 22090000 		.4byte	.LASF236
 5773 1157 01       		.byte	0x1
 5774 1158 6404     		.2byte	0x464
 5775 115a 7C060000 		.4byte	0x67c
 5776 115e 02       		.uleb128 0x2
 5777 115f 91       		.byte	0x91
 5778 1160 60       		.sleb128 -32
 5779 1161 26       		.uleb128 0x26
 5780 1162 D40F0000 		.4byte	.LASF244
 5781 1166 01       		.byte	0x1
 5782 1167 6404     		.2byte	0x464
 5783 1169 C3000000 		.4byte	0xc3
 5784 116d 02       		.uleb128 0x2
 5785 116e 91       		.byte	0x91
 5786 116f 5F       		.sleb128 -33
 5787 1170 26       		.uleb128 0x26
 5788 1171 B5060000 		.4byte	.LASF246
 5789 1175 01       		.byte	0x1
 5790 1176 6504     		.2byte	0x465
 5791 1178 C3000000 		.4byte	0xc3
 5792 117c 02       		.uleb128 0x2
 5793 117d 91       		.byte	0x91
 5794 117e 5E       		.sleb128 -34
 5795 117f 27       		.uleb128 0x27
 5796 1180 C0010000 		.4byte	.LASF238
 5797 1184 01       		.byte	0x1
 5798 1185 6704     		.2byte	0x467
 5799 1187 94010000 		.4byte	0x194
 5800 118b 02       		.uleb128 0x2
 5801 118c 91       		.byte	0x91
 5802 118d 70       		.sleb128 -16
 5803 118e 27       		.uleb128 0x27
 5804 118f 6F0E0000 		.4byte	.LASF103
 5805 1193 01       		.byte	0x1
 5806 1194 6804     		.2byte	0x468
 5807 1196 B8000000 		.4byte	0xb8
 5808 119a 02       		.uleb128 0x2
 5809 119b 91       		.byte	0x91
 5810 119c 71       		.sleb128 -15
 5811 119d 27       		.uleb128 0x27
 5812 119e F60F0000 		.4byte	.LASF239
 5813 11a2 01       		.byte	0x1
 5814 11a3 6904     		.2byte	0x469
ARM GAS  C:\Users\PCHAUT~1\AppData\Local\Temp\ccYc6BCi.s 			page 103


 5815 11a5 B8000000 		.4byte	0xb8
 5816 11a9 02       		.uleb128 0x2
 5817 11aa 91       		.byte	0x91
 5818 11ab 72       		.sleb128 -14
 5819 11ac 27       		.uleb128 0x27
 5820 11ad 250A0000 		.4byte	.LASF240
 5821 11b1 01       		.byte	0x1
 5822 11b2 6A04     		.2byte	0x46a
 5823 11b4 B8000000 		.4byte	0xb8
 5824 11b8 02       		.uleb128 0x2
 5825 11b9 91       		.byte	0x91
 5826 11ba 73       		.sleb128 -13
 5827 11bb 27       		.uleb128 0x27
 5828 11bc 76140000 		.4byte	.LASF249
 5829 11c0 01       		.byte	0x1
 5830 11c1 6B04     		.2byte	0x46b
 5831 11c3 B8000000 		.4byte	0xb8
 5832 11c7 02       		.uleb128 0x2
 5833 11c8 91       		.byte	0x91
 5834 11c9 6F       		.sleb128 -17
 5835 11ca 00       		.byte	0
 5836 11cb 24       		.uleb128 0x24
 5837 11cc 02100000 		.4byte	.LASF250
 5838 11d0 01       		.byte	0x1
 5839 11d1 4004     		.2byte	0x440
 5840 11d3 94010000 		.4byte	0x194
 5841 11d7 00000000 		.4byte	.LFB20
 5842 11db 9C010000 		.4byte	.LFE20-.LFB20
 5843 11df 01       		.uleb128 0x1
 5844 11e0 9C       		.byte	0x9c
 5845 11e1 7C120000 		.4byte	0x127c
 5846 11e5 25       		.uleb128 0x25
 5847 11e6 44657600 		.ascii	"Dev\000"
 5848 11ea 01       		.byte	0x1
 5849 11eb 4004     		.2byte	0x440
 5850 11ed EB0E0000 		.4byte	0xeeb
 5851 11f1 02       		.uleb128 0x2
 5852 11f2 91       		.byte	0x91
 5853 11f3 6C       		.sleb128 -20
 5854 11f4 26       		.uleb128 0x26
 5855 11f5 C7010000 		.4byte	.LASF251
 5856 11f9 01       		.byte	0x1
 5857 11fa 4004     		.2byte	0x440
 5858 11fc B8000000 		.4byte	0xb8
 5859 1200 02       		.uleb128 0x2
 5860 1201 91       		.byte	0x91
 5861 1202 6B       		.sleb128 -21
 5862 1203 26       		.uleb128 0x26
 5863 1204 F60F0000 		.4byte	.LASF239
 5864 1208 01       		.byte	0x1
 5865 1209 4104     		.2byte	0x441
 5866 120b B8000000 		.4byte	0xb8
 5867 120f 02       		.uleb128 0x2
 5868 1210 91       		.byte	0x91
 5869 1211 6A       		.sleb128 -22
 5870 1212 26       		.uleb128 0x26
 5871 1213 250A0000 		.4byte	.LASF240
ARM GAS  C:\Users\PCHAUT~1\AppData\Local\Temp\ccYc6BCi.s 			page 104


 5872 1217 01       		.byte	0x1
 5873 1218 4104     		.2byte	0x441
 5874 121a B8000000 		.4byte	0xb8
 5875 121e 02       		.uleb128 0x2
 5876 121f 91       		.byte	0x91
 5877 1220 69       		.sleb128 -23
 5878 1221 26       		.uleb128 0x26
 5879 1222 22090000 		.4byte	.LASF236
 5880 1226 01       		.byte	0x1
 5881 1227 4204     		.2byte	0x442
 5882 1229 7C060000 		.4byte	0x67c
 5883 122d 02       		.uleb128 0x2
 5884 122e 91       		.byte	0x91
 5885 122f 64       		.sleb128 -28
 5886 1230 26       		.uleb128 0x26
 5887 1231 2F040000 		.4byte	.LASF237
 5888 1235 01       		.byte	0x1
 5889 1236 4204     		.2byte	0x442
 5890 1238 7C060000 		.4byte	0x67c
 5891 123c 02       		.uleb128 0x2
 5892 123d 91       		.byte	0x91
 5893 123e 60       		.sleb128 -32
 5894 123f 26       		.uleb128 0x26
 5895 1240 B40E0000 		.4byte	.LASF252
 5896 1244 01       		.byte	0x1
 5897 1245 4304     		.2byte	0x443
 5898 1247 C3000000 		.4byte	0xc3
 5899 124b 02       		.uleb128 0x2
 5900 124c 91       		.byte	0x91
 5901 124d 68       		.sleb128 -24
 5902 124e 26       		.uleb128 0x26
 5903 124f F3010000 		.4byte	.LASF253
 5904 1253 01       		.byte	0x1
 5905 1254 4304     		.2byte	0x443
 5906 1256 C3000000 		.4byte	0xc3
 5907 125a 02       		.uleb128 0x2
 5908 125b 91       		.byte	0x91
 5909 125c 5F       		.sleb128 -33
 5910 125d 27       		.uleb128 0x27
 5911 125e C0010000 		.4byte	.LASF238
 5912 1262 01       		.byte	0x1
 5913 1263 4504     		.2byte	0x445
 5914 1265 94010000 		.4byte	0x194
 5915 1269 02       		.uleb128 0x2
 5916 126a 91       		.byte	0x91
 5917 126b 73       		.sleb128 -13
 5918 126c 27       		.uleb128 0x27
 5919 126d 6B0D0000 		.4byte	.LASF254
 5920 1271 01       		.byte	0x1
 5921 1272 4604     		.2byte	0x446
 5922 1274 B8000000 		.4byte	0xb8
 5923 1278 02       		.uleb128 0x2
 5924 1279 91       		.byte	0x91
 5925 127a 72       		.sleb128 -14
 5926 127b 00       		.byte	0
 5927 127c 24       		.uleb128 0x24
 5928 127d 8D0E0000 		.4byte	.LASF255
ARM GAS  C:\Users\PCHAUT~1\AppData\Local\Temp\ccYc6BCi.s 			page 105


 5929 1281 01       		.byte	0x1
 5930 1282 2904     		.2byte	0x429
 5931 1284 94010000 		.4byte	0x194
 5932 1288 00000000 		.4byte	.LFB19
 5933 128c 9C000000 		.4byte	.LFE19-.LFB19
 5934 1290 01       		.uleb128 0x1
 5935 1291 9C       		.byte	0x9c
 5936 1292 C4120000 		.4byte	0x12c4
 5937 1296 25       		.uleb128 0x25
 5938 1297 44657600 		.ascii	"Dev\000"
 5939 129b 01       		.byte	0x1
 5940 129c 2904     		.2byte	0x429
 5941 129e EB0E0000 		.4byte	0xeeb
 5942 12a2 02       		.uleb128 0x2
 5943 12a3 91       		.byte	0x91
 5944 12a4 6C       		.sleb128 -20
 5945 12a5 26       		.uleb128 0x26
 5946 12a6 B5040000 		.4byte	.LASF256
 5947 12aa 01       		.byte	0x1
 5948 12ab 2A04     		.2byte	0x42a
 5949 12ad B8000000 		.4byte	0xb8
 5950 12b1 02       		.uleb128 0x2
 5951 12b2 91       		.byte	0x91
 5952 12b3 6B       		.sleb128 -21
 5953 12b4 27       		.uleb128 0x27
 5954 12b5 C0010000 		.4byte	.LASF238
 5955 12b9 01       		.byte	0x1
 5956 12ba 2C04     		.2byte	0x42c
 5957 12bc 94010000 		.4byte	0x194
 5958 12c0 02       		.uleb128 0x2
 5959 12c1 91       		.byte	0x91
 5960 12c2 73       		.sleb128 -13
 5961 12c3 00       		.byte	0
 5962 12c4 24       		.uleb128 0x24
 5963 12c5 9F150000 		.4byte	.LASF257
 5964 12c9 01       		.byte	0x1
 5965 12ca F203     		.2byte	0x3f2
 5966 12cc 94010000 		.4byte	0x194
 5967 12d0 00000000 		.4byte	.LFB18
 5968 12d4 D0000000 		.4byte	.LFE18-.LFB18
 5969 12d8 01       		.uleb128 0x1
 5970 12d9 9C       		.byte	0x9c
 5971 12da 75130000 		.4byte	0x1375
 5972 12de 25       		.uleb128 0x25
 5973 12df 44657600 		.ascii	"Dev\000"
 5974 12e3 01       		.byte	0x1
 5975 12e4 F203     		.2byte	0x3f2
 5976 12e6 EB0E0000 		.4byte	0xeeb
 5977 12ea 02       		.uleb128 0x2
 5978 12eb 91       		.byte	0x91
 5979 12ec 54       		.sleb128 -44
 5980 12ed 26       		.uleb128 0x26
 5981 12ee 22080000 		.4byte	.LASF258
 5982 12f2 01       		.byte	0x1
 5983 12f3 F303     		.2byte	0x3f3
 5984 12f5 75130000 		.4byte	0x1375
 5985 12f9 02       		.uleb128 0x2
ARM GAS  C:\Users\PCHAUT~1\AppData\Local\Temp\ccYc6BCi.s 			page 106


 5986 12fa 91       		.byte	0x91
 5987 12fb 50       		.sleb128 -48
 5988 12fc 26       		.uleb128 0x26
 5989 12fd 8B080000 		.4byte	.LASF259
 5990 1301 01       		.byte	0x1
 5991 1302 F303     		.2byte	0x3f3
 5992 1304 7C060000 		.4byte	0x67c
 5993 1308 02       		.uleb128 0x2
 5994 1309 91       		.byte	0x91
 5995 130a 4C       		.sleb128 -52
 5996 130b 27       		.uleb128 0x27
 5997 130c C0010000 		.4byte	.LASF238
 5998 1310 01       		.byte	0x1
 5999 1311 F503     		.2byte	0x3f5
 6000 1313 94010000 		.4byte	0x194
 6001 1317 02       		.uleb128 0x2
 6002 1318 91       		.byte	0x91
 6003 1319 5E       		.sleb128 -34
 6004 131a 27       		.uleb128 0x27
 6005 131b AB130000 		.4byte	.LASF260
 6006 131f 01       		.byte	0x1
 6007 1320 F603     		.2byte	0x3f6
 6008 1322 B8000000 		.4byte	0xb8
 6009 1326 02       		.uleb128 0x2
 6010 1327 91       		.byte	0x91
 6011 1328 5F       		.sleb128 -33
 6012 1329 27       		.uleb128 0x27
 6013 132a CD120000 		.4byte	.LASF261
 6014 132e 01       		.byte	0x1
 6015 132f F703     		.2byte	0x3f7
 6016 1331 5C020000 		.4byte	0x25c
 6017 1335 02       		.uleb128 0x2
 6018 1336 91       		.byte	0x91
 6019 1337 6C       		.sleb128 -20
 6020 1338 27       		.uleb128 0x27
 6021 1339 44160000 		.4byte	.LASF262
 6022 133d 01       		.byte	0x1
 6023 133e F803     		.2byte	0x3f8
 6024 1340 E9000000 		.4byte	0xe9
 6025 1344 02       		.uleb128 0x2
 6026 1345 91       		.byte	0x91
 6027 1346 64       		.sleb128 -28
 6028 1347 27       		.uleb128 0x27
 6029 1348 AF0D0000 		.4byte	.LASF263
 6030 134c 01       		.byte	0x1
 6031 134d F903     		.2byte	0x3f9
 6032 134f E9000000 		.4byte	0xe9
 6033 1353 02       		.uleb128 0x2
 6034 1354 91       		.byte	0x91
 6035 1355 68       		.sleb128 -24
 6036 1356 27       		.uleb128 0x27
 6037 1357 FE070000 		.4byte	.LASF264
 6038 135b 01       		.byte	0x1
 6039 135c FA03     		.2byte	0x3fa
 6040 135e E9000000 		.4byte	0xe9
 6041 1362 02       		.uleb128 0x2
 6042 1363 91       		.byte	0x91
ARM GAS  C:\Users\PCHAUT~1\AppData\Local\Temp\ccYc6BCi.s 			page 107


 6043 1364 60       		.sleb128 -32
 6044 1365 27       		.uleb128 0x27
 6045 1366 BE0D0000 		.4byte	.LASF265
 6046 136a 01       		.byte	0x1
 6047 136b FB03     		.2byte	0x3fb
 6048 136d B8000000 		.4byte	0xb8
 6049 1371 02       		.uleb128 0x2
 6050 1372 91       		.byte	0x91
 6051 1373 5D       		.sleb128 -35
 6052 1374 00       		.byte	0
 6053 1375 0F       		.uleb128 0xf
 6054 1376 04       		.byte	0x4
 6055 1377 E9000000 		.4byte	0xe9
 6056 137b 24       		.uleb128 0x24
 6057 137c 49050000 		.4byte	.LASF266
 6058 1380 01       		.byte	0x1
 6059 1381 AF03     		.2byte	0x3af
 6060 1383 94010000 		.4byte	0x194
 6061 1387 00000000 		.4byte	.LFB17
 6062 138b 64010000 		.4byte	.LFE17-.LFB17
 6063 138f 01       		.uleb128 0x1
 6064 1390 9C       		.byte	0x9c
 6065 1391 2C140000 		.4byte	0x142c
 6066 1395 25       		.uleb128 0x25
 6067 1396 44657600 		.ascii	"Dev\000"
 6068 139a 01       		.byte	0x1
 6069 139b AF03     		.2byte	0x3af
 6070 139d EB0E0000 		.4byte	0xeeb
 6071 13a1 02       		.uleb128 0x2
 6072 13a2 91       		.byte	0x91
 6073 13a3 54       		.sleb128 -44
 6074 13a4 26       		.uleb128 0x26
 6075 13a5 A1080000 		.4byte	.LASF267
 6076 13a9 01       		.byte	0x1
 6077 13aa B003     		.2byte	0x3b0
 6078 13ac E9000000 		.4byte	0xe9
 6079 13b0 02       		.uleb128 0x2
 6080 13b1 91       		.byte	0x91
 6081 13b2 50       		.sleb128 -48
 6082 13b3 26       		.uleb128 0x26
 6083 13b4 BE0D0000 		.4byte	.LASF265
 6084 13b8 01       		.byte	0x1
 6085 13b9 B003     		.2byte	0x3b0
 6086 13bb B8000000 		.4byte	0xb8
 6087 13bf 02       		.uleb128 0x2
 6088 13c0 91       		.byte	0x91
 6089 13c1 4F       		.sleb128 -49
 6090 13c2 27       		.uleb128 0x27
 6091 13c3 C0010000 		.4byte	.LASF238
 6092 13c7 01       		.byte	0x1
 6093 13c8 B203     		.2byte	0x3b2
 6094 13ca 94010000 		.4byte	0x194
 6095 13ce 02       		.uleb128 0x2
 6096 13cf 91       		.byte	0x91
 6097 13d0 5E       		.sleb128 -34
 6098 13d1 27       		.uleb128 0x27
 6099 13d2 67010000 		.4byte	.LASF268
ARM GAS  C:\Users\PCHAUT~1\AppData\Local\Temp\ccYc6BCi.s 			page 108


 6100 13d6 01       		.byte	0x1
 6101 13d7 B303     		.2byte	0x3b3
 6102 13d9 E9000000 		.4byte	0xe9
 6103 13dd 02       		.uleb128 0x2
 6104 13de 91       		.byte	0x91
 6105 13df 64       		.sleb128 -28
 6106 13e0 27       		.uleb128 0x27
 6107 13e1 F2060000 		.4byte	.LASF269
 6108 13e5 01       		.byte	0x1
 6109 13e6 B403     		.2byte	0x3b4
 6110 13e8 B8000000 		.4byte	0xb8
 6111 13ec 02       		.uleb128 0x2
 6112 13ed 91       		.byte	0x91
 6113 13ee 5F       		.sleb128 -33
 6114 13ef 27       		.uleb128 0x27
 6115 13f0 770D0000 		.4byte	.LASF270
 6116 13f4 01       		.byte	0x1
 6117 13f5 B503     		.2byte	0x3b5
 6118 13f7 E9000000 		.4byte	0xe9
 6119 13fb 02       		.uleb128 0x2
 6120 13fc 91       		.byte	0x91
 6121 13fd 6C       		.sleb128 -20
 6122 13fe 27       		.uleb128 0x27
 6123 13ff 90100000 		.4byte	.LASF271
 6124 1403 01       		.byte	0x1
 6125 1404 B603     		.2byte	0x3b6
 6126 1406 E9000000 		.4byte	0xe9
 6127 140a 02       		.uleb128 0x2
 6128 140b 91       		.byte	0x91
 6129 140c 70       		.sleb128 -16
 6130 140d 27       		.uleb128 0x27
 6131 140e E6130000 		.4byte	.LASF272
 6132 1412 01       		.byte	0x1
 6133 1413 B703     		.2byte	0x3b7
 6134 1415 E9000000 		.4byte	0xe9
 6135 1419 02       		.uleb128 0x2
 6136 141a 91       		.byte	0x91
 6137 141b 60       		.sleb128 -32
 6138 141c 27       		.uleb128 0x27
 6139 141d 19020000 		.4byte	.LASF273
 6140 1421 01       		.byte	0x1
 6141 1422 B803     		.2byte	0x3b8
 6142 1424 E9000000 		.4byte	0xe9
 6143 1428 02       		.uleb128 0x2
 6144 1429 91       		.byte	0x91
 6145 142a 68       		.sleb128 -24
 6146 142b 00       		.byte	0
 6147 142c 24       		.uleb128 0x24
 6148 142d 470D0000 		.4byte	.LASF274
 6149 1431 01       		.byte	0x1
 6150 1432 A402     		.2byte	0x2a4
 6151 1434 94010000 		.4byte	0x194
 6152 1438 00000000 		.4byte	.LFB16
 6153 143c 40040000 		.4byte	.LFE16-.LFB16
 6154 1440 01       		.uleb128 0x1
 6155 1441 9C       		.byte	0x9c
 6156 1442 AB150000 		.4byte	0x15ab
ARM GAS  C:\Users\PCHAUT~1\AppData\Local\Temp\ccYc6BCi.s 			page 109


 6157 1446 25       		.uleb128 0x25
 6158 1447 44657600 		.ascii	"Dev\000"
 6159 144b 01       		.byte	0x1
 6160 144c A402     		.2byte	0x2a4
 6161 144e EB0E0000 		.4byte	0xeeb
 6162 1452 03       		.uleb128 0x3
 6163 1453 91       		.byte	0x91
 6164 1454 AC7F     		.sleb128 -84
 6165 1456 26       		.uleb128 0x26
 6166 1457 A5090000 		.4byte	.LASF275
 6167 145b 01       		.byte	0x1
 6168 145c A502     		.2byte	0x2a5
 6169 145e 75130000 		.4byte	0x1375
 6170 1462 03       		.uleb128 0x3
 6171 1463 91       		.byte	0x91
 6172 1464 A87F     		.sleb128 -88
 6173 1466 26       		.uleb128 0x26
 6174 1467 BE0D0000 		.4byte	.LASF265
 6175 146b 01       		.byte	0x1
 6176 146c A602     		.2byte	0x2a6
 6177 146e 7C060000 		.4byte	0x67c
 6178 1472 03       		.uleb128 0x3
 6179 1473 91       		.byte	0x91
 6180 1474 A47F     		.sleb128 -92
 6181 1476 27       		.uleb128 0x27
 6182 1477 C0010000 		.4byte	.LASF238
 6183 147b 01       		.byte	0x1
 6184 147c A802     		.2byte	0x2a8
 6185 147e 94010000 		.4byte	0x194
 6186 1482 03       		.uleb128 0x3
 6187 1483 91       		.byte	0x91
 6188 1484 B87F     		.sleb128 -72
 6189 1486 27       		.uleb128 0x27
 6190 1487 FA050000 		.4byte	.LASF276
 6191 148b 01       		.byte	0x1
 6192 148c A902     		.2byte	0x2a9
 6193 148e 5C020000 		.4byte	0x25c
 6194 1492 02       		.uleb128 0x2
 6195 1493 91       		.byte	0x91
 6196 1494 6C       		.sleb128 -20
 6197 1495 27       		.uleb128 0x27
 6198 1496 F2060000 		.4byte	.LASF269
 6199 149a 01       		.byte	0x1
 6200 149b AA02     		.2byte	0x2aa
 6201 149d B8000000 		.4byte	0xb8
 6202 14a1 03       		.uleb128 0x3
 6203 14a2 91       		.byte	0x91
 6204 14a3 BB7F     		.sleb128 -69
 6205 14a5 27       		.uleb128 0x27
 6206 14a6 3D030000 		.4byte	.LASF277
 6207 14aa 01       		.byte	0x1
 6208 14ab AB02     		.2byte	0x2ab
 6209 14ad E9000000 		.4byte	0xe9
 6210 14b1 02       		.uleb128 0x2
 6211 14b2 91       		.byte	0x91
 6212 14b3 5C       		.sleb128 -36
 6213 14b4 27       		.uleb128 0x27
ARM GAS  C:\Users\PCHAUT~1\AppData\Local\Temp\ccYc6BCi.s 			page 110


 6214 14b5 90100000 		.4byte	.LASF271
 6215 14b9 01       		.byte	0x1
 6216 14ba AC02     		.2byte	0x2ac
 6217 14bc E9000000 		.4byte	0xe9
 6218 14c0 02       		.uleb128 0x2
 6219 14c1 91       		.byte	0x91
 6220 14c2 60       		.sleb128 -32
 6221 14c3 27       		.uleb128 0x27
 6222 14c4 67010000 		.4byte	.LASF268
 6223 14c8 01       		.byte	0x1
 6224 14c9 AD02     		.2byte	0x2ad
 6225 14cb E9000000 		.4byte	0xe9
 6226 14cf 02       		.uleb128 0x2
 6227 14d0 91       		.byte	0x91
 6228 14d1 48       		.sleb128 -56
 6229 14d2 27       		.uleb128 0x27
 6230 14d3 E6130000 		.4byte	.LASF272
 6231 14d7 01       		.byte	0x1
 6232 14d8 AE02     		.2byte	0x2ae
 6233 14da E9000000 		.4byte	0xe9
 6234 14de 02       		.uleb128 0x2
 6235 14df 91       		.byte	0x91
 6236 14e0 40       		.sleb128 -64
 6237 14e1 27       		.uleb128 0x27
 6238 14e2 B0120000 		.4byte	.LASF278
 6239 14e6 01       		.byte	0x1
 6240 14e7 AF02     		.2byte	0x2af
 6241 14e9 DE000000 		.4byte	0xde
 6242 14ed 02       		.uleb128 0x2
 6243 14ee 91       		.byte	0x91
 6244 14ef 44       		.sleb128 -60
 6245 14f0 27       		.uleb128 0x27
 6246 14f1 02050000 		.4byte	.LASF108
 6247 14f5 01       		.byte	0x1
 6248 14f6 B002     		.2byte	0x2b0
 6249 14f8 D3000000 		.4byte	0xd3
 6250 14fc 03       		.uleb128 0x3
 6251 14fd 91       		.byte	0x91
 6252 14fe BE7F     		.sleb128 -66
 6253 1500 27       		.uleb128 0x27
 6254 1501 99130000 		.4byte	.LASF279
 6255 1505 01       		.byte	0x1
 6256 1506 B102     		.2byte	0x2b1
 6257 1508 D3000000 		.4byte	0xd3
 6258 150c 03       		.uleb128 0x3
 6259 150d 91       		.byte	0x91
 6260 150e BC7F     		.sleb128 -68
 6261 1510 27       		.uleb128 0x27
 6262 1511 A1020000 		.4byte	.LASF280
 6263 1515 01       		.byte	0x1
 6264 1516 B202     		.2byte	0x2b2
 6265 1518 E9000000 		.4byte	0xe9
 6266 151c 02       		.uleb128 0x2
 6267 151d 91       		.byte	0x91
 6268 151e 4C       		.sleb128 -52
 6269 151f 27       		.uleb128 0x27
 6270 1520 19020000 		.4byte	.LASF273
ARM GAS  C:\Users\PCHAUT~1\AppData\Local\Temp\ccYc6BCi.s 			page 111


 6271 1524 01       		.byte	0x1
 6272 1525 B302     		.2byte	0x2b3
 6273 1527 E9000000 		.4byte	0xe9
 6274 152b 02       		.uleb128 0x2
 6275 152c 91       		.byte	0x91
 6276 152d 50       		.sleb128 -48
 6277 152e 27       		.uleb128 0x27
 6278 152f 770D0000 		.4byte	.LASF270
 6279 1533 01       		.byte	0x1
 6280 1534 B402     		.2byte	0x2b4
 6281 1536 E9000000 		.4byte	0xe9
 6282 153a 02       		.uleb128 0x2
 6283 153b 91       		.byte	0x91
 6284 153c 64       		.sleb128 -28
 6285 153d 27       		.uleb128 0x27
 6286 153e 77120000 		.4byte	.LASF281
 6287 1542 01       		.byte	0x1
 6288 1543 B502     		.2byte	0x2b5
 6289 1545 E9000000 		.4byte	0xe9
 6290 1549 02       		.uleb128 0x2
 6291 154a 91       		.byte	0x91
 6292 154b 68       		.sleb128 -24
 6293 154c 27       		.uleb128 0x27
 6294 154d 66130000 		.4byte	.LASF282
 6295 1551 01       		.byte	0x1
 6296 1552 B602     		.2byte	0x2b6
 6297 1554 E9000000 		.4byte	0xe9
 6298 1558 02       		.uleb128 0x2
 6299 1559 91       		.byte	0x91
 6300 155a 54       		.sleb128 -44
 6301 155b 27       		.uleb128 0x27
 6302 155c 64080000 		.4byte	.LASF283
 6303 1560 01       		.byte	0x1
 6304 1561 B702     		.2byte	0x2b7
 6305 1563 B8000000 		.4byte	0xb8
 6306 1567 03       		.uleb128 0x3
 6307 1568 91       		.byte	0x91
 6308 1569 B97F     		.sleb128 -71
 6309 156b 27       		.uleb128 0x27
 6310 156c F60F0000 		.4byte	.LASF239
 6311 1570 01       		.byte	0x1
 6312 1571 B802     		.2byte	0x2b8
 6313 1573 B8000000 		.4byte	0xb8
 6314 1577 03       		.uleb128 0x3
 6315 1578 91       		.byte	0x91
 6316 1579 B67F     		.sleb128 -74
 6317 157b 27       		.uleb128 0x27
 6318 157c 250A0000 		.4byte	.LASF240
 6319 1580 01       		.byte	0x1
 6320 1581 B902     		.2byte	0x2b9
 6321 1583 B8000000 		.4byte	0xb8
 6322 1587 03       		.uleb128 0x3
 6323 1588 91       		.byte	0x91
 6324 1589 B77F     		.sleb128 -73
 6325 158b 27       		.uleb128 0x27
 6326 158c 7B090000 		.4byte	.LASF284
 6327 1590 01       		.byte	0x1
ARM GAS  C:\Users\PCHAUT~1\AppData\Local\Temp\ccYc6BCi.s 			page 112


 6328 1591 BA02     		.2byte	0x2ba
 6329 1593 E9000000 		.4byte	0xe9
 6330 1597 02       		.uleb128 0x2
 6331 1598 91       		.byte	0x91
 6332 1599 58       		.sleb128 -40
 6333 159a 27       		.uleb128 0x27
 6334 159b CB130000 		.4byte	.LASF285
 6335 159f 01       		.byte	0x1
 6336 15a0 BB02     		.2byte	0x2bb
 6337 15a2 B8000000 		.4byte	0xb8
 6338 15a6 03       		.uleb128 0x3
 6339 15a7 91       		.byte	0x91
 6340 15a8 BA7F     		.sleb128 -70
 6341 15aa 00       		.byte	0
 6342 15ab 24       		.uleb128 0x24
 6343 15ac DA0E0000 		.4byte	.LASF286
 6344 15b0 01       		.byte	0x1
 6345 15b1 7502     		.2byte	0x275
 6346 15b3 94010000 		.4byte	0x194
 6347 15b7 00000000 		.4byte	.LFB15
 6348 15bb E8000000 		.4byte	.LFE15-.LFB15
 6349 15bf 01       		.uleb128 0x1
 6350 15c0 9C       		.byte	0x9c
 6351 15c1 11160000 		.4byte	0x1611
 6352 15c5 25       		.uleb128 0x25
 6353 15c6 44657600 		.ascii	"Dev\000"
 6354 15ca 01       		.byte	0x1
 6355 15cb 7502     		.2byte	0x275
 6356 15cd EB0E0000 		.4byte	0xeeb
 6357 15d1 02       		.uleb128 0x2
 6358 15d2 91       		.byte	0x91
 6359 15d3 4C       		.sleb128 -52
 6360 15d4 26       		.uleb128 0x26
 6361 15d5 300D0000 		.4byte	.LASF287
 6362 15d9 01       		.byte	0x1
 6363 15da 7602     		.2byte	0x276
 6364 15dc 11160000 		.4byte	0x1611
 6365 15e0 02       		.uleb128 0x2
 6366 15e1 91       		.byte	0x91
 6367 15e2 48       		.sleb128 -56
 6368 15e3 27       		.uleb128 0x27
 6369 15e4 FC090000 		.4byte	.LASF288
 6370 15e8 01       		.byte	0x1
 6371 15e9 7802     		.2byte	0x278
 6372 15eb 94010000 		.4byte	0x194
 6373 15ef 02       		.uleb128 0x2
 6374 15f0 91       		.byte	0x91
 6375 15f1 56       		.sleb128 -42
 6376 15f2 27       		.uleb128 0x27
 6377 15f3 56150000 		.4byte	.LASF289
 6378 15f7 01       		.byte	0x1
 6379 15f8 7902     		.2byte	0x279
 6380 15fa 50030000 		.4byte	0x350
 6381 15fe 02       		.uleb128 0x2
 6382 15ff 91       		.byte	0x91
 6383 1600 58       		.sleb128 -40
 6384 1601 27       		.uleb128 0x27
ARM GAS  C:\Users\PCHAUT~1\AppData\Local\Temp\ccYc6BCi.s 			page 113


 6385 1602 6F0E0000 		.4byte	.LASF103
 6386 1606 01       		.byte	0x1
 6387 1607 7B02     		.2byte	0x27b
 6388 1609 B8000000 		.4byte	0xb8
 6389 160d 02       		.uleb128 0x2
 6390 160e 91       		.byte	0x91
 6391 160f 57       		.sleb128 -41
 6392 1610 00       		.byte	0
 6393 1611 0F       		.uleb128 0xf
 6394 1612 04       		.byte	0x4
 6395 1613 D3000000 		.4byte	0xd3
 6396 1617 24       		.uleb128 0x24
 6397 1618 BF0E0000 		.4byte	.LASF290
 6398 161c 01       		.byte	0x1
 6399 161d 2C02     		.2byte	0x22c
 6400 161f 94010000 		.4byte	0x194
 6401 1623 00000000 		.4byte	.LFB14
 6402 1627 20010000 		.4byte	.LFE14-.LFB14
 6403 162b 01       		.uleb128 0x1
 6404 162c 9C       		.byte	0x9c
 6405 162d 14170000 		.4byte	0x1714
 6406 1631 25       		.uleb128 0x25
 6407 1632 44657600 		.ascii	"Dev\000"
 6408 1636 01       		.byte	0x1
 6409 1637 2C02     		.2byte	0x22c
 6410 1639 EB0E0000 		.4byte	0xeeb
 6411 163d 02       		.uleb128 0x2
 6412 163e 91       		.byte	0x91
 6413 163f 54       		.sleb128 -44
 6414 1640 26       		.uleb128 0x26
 6415 1641 97090000 		.4byte	.LASF291
 6416 1645 01       		.byte	0x1
 6417 1646 2D02     		.2byte	0x22d
 6418 1648 B8000000 		.4byte	0xb8
 6419 164c 02       		.uleb128 0x2
 6420 164d 91       		.byte	0x91
 6421 164e 53       		.sleb128 -45
 6422 164f 26       		.uleb128 0x26
 6423 1650 BB150000 		.4byte	.LASF292
 6424 1654 01       		.byte	0x1
 6425 1655 2E02     		.2byte	0x22e
 6426 1657 7C060000 		.4byte	0x67c
 6427 165b 02       		.uleb128 0x2
 6428 165c 91       		.byte	0x91
 6429 165d 4C       		.sleb128 -52
 6430 165e 26       		.uleb128 0x26
 6431 165f 25040000 		.4byte	.LASF293
 6432 1663 01       		.byte	0x1
 6433 1664 2F02     		.2byte	0x22f
 6434 1666 7C060000 		.4byte	0x67c
 6435 166a 02       		.uleb128 0x2
 6436 166b 91       		.byte	0x91
 6437 166c 48       		.sleb128 -56
 6438 166d 26       		.uleb128 0x26
 6439 166e 0F0C0000 		.4byte	.LASF294
 6440 1672 01       		.byte	0x1
 6441 1673 3002     		.2byte	0x230
ARM GAS  C:\Users\PCHAUT~1\AppData\Local\Temp\ccYc6BCi.s 			page 114


 6442 1675 E9000000 		.4byte	0xe9
 6443 1679 02       		.uleb128 0x2
 6444 167a 91       		.byte	0x91
 6445 167b 44       		.sleb128 -60
 6446 167c 26       		.uleb128 0x26
 6447 167d 0F0D0000 		.4byte	.LASF295
 6448 1681 01       		.byte	0x1
 6449 1682 3102     		.2byte	0x231
 6450 1684 E9000000 		.4byte	0xe9
 6451 1688 02       		.uleb128 0x2
 6452 1689 91       		.byte	0x91
 6453 168a 40       		.sleb128 -64
 6454 168b 26       		.uleb128 0x26
 6455 168c 1B070000 		.4byte	.LASF296
 6456 1690 01       		.byte	0x1
 6457 1691 3202     		.2byte	0x232
 6458 1693 E9000000 		.4byte	0xe9
 6459 1697 03       		.uleb128 0x3
 6460 1698 91       		.byte	0x91
 6461 1699 BC7F     		.sleb128 -68
 6462 169b 26       		.uleb128 0x26
 6463 169c 9D100000 		.4byte	.LASF297
 6464 16a0 01       		.byte	0x1
 6465 16a1 3302     		.2byte	0x233
 6466 16a3 E9000000 		.4byte	0xe9
 6467 16a7 03       		.uleb128 0x3
 6468 16a8 91       		.byte	0x91
 6469 16a9 B87F     		.sleb128 -72
 6470 16ab 26       		.uleb128 0x26
 6471 16ac 3E140000 		.4byte	.LASF298
 6472 16b0 01       		.byte	0x1
 6473 16b1 3402     		.2byte	0x234
 6474 16b3 75130000 		.4byte	0x1375
 6475 16b7 03       		.uleb128 0x3
 6476 16b8 91       		.byte	0x91
 6477 16b9 B47F     		.sleb128 -76
 6478 16bb 27       		.uleb128 0x27
 6479 16bc FC090000 		.4byte	.LASF288
 6480 16c0 01       		.byte	0x1
 6481 16c1 3602     		.2byte	0x236
 6482 16c3 94010000 		.4byte	0x194
 6483 16c7 02       		.uleb128 0x2
 6484 16c8 91       		.byte	0x91
 6485 16c9 5B       		.sleb128 -37
 6486 16ca 27       		.uleb128 0x27
 6487 16cb 19020000 		.4byte	.LASF273
 6488 16cf 01       		.byte	0x1
 6489 16d0 3702     		.2byte	0x237
 6490 16d2 E9000000 		.4byte	0xe9
 6491 16d6 02       		.uleb128 0x2
 6492 16d7 91       		.byte	0x91
 6493 16d8 60       		.sleb128 -32
 6494 16d9 28       		.uleb128 0x28
 6495 16da 6900     		.ascii	"i\000"
 6496 16dc 01       		.byte	0x1
 6497 16dd 3802     		.2byte	0x238
 6498 16df E9000000 		.4byte	0xe9
ARM GAS  C:\Users\PCHAUT~1\AppData\Local\Temp\ccYc6BCi.s 			page 115


 6499 16e3 02       		.uleb128 0x2
 6500 16e4 91       		.byte	0x91
 6501 16e5 64       		.sleb128 -28
 6502 16e6 27       		.uleb128 0x27
 6503 16e7 B0120000 		.4byte	.LASF278
 6504 16eb 01       		.byte	0x1
 6505 16ec 3902     		.2byte	0x239
 6506 16ee DE000000 		.4byte	0xde
 6507 16f2 02       		.uleb128 0x2
 6508 16f3 91       		.byte	0x91
 6509 16f4 5C       		.sleb128 -36
 6510 16f5 27       		.uleb128 0x27
 6511 16f6 D5100000 		.4byte	.LASF299
 6512 16fa 01       		.byte	0x1
 6513 16fb 3A02     		.2byte	0x23a
 6514 16fd E9000000 		.4byte	0xe9
 6515 1701 02       		.uleb128 0x2
 6516 1702 91       		.byte	0x91
 6517 1703 68       		.sleb128 -24
 6518 1704 27       		.uleb128 0x27
 6519 1705 A1120000 		.4byte	.LASF300
 6520 1709 01       		.byte	0x1
 6521 170a 3B02     		.2byte	0x23b
 6522 170c 5C020000 		.4byte	0x25c
 6523 1710 02       		.uleb128 0x2
 6524 1711 91       		.byte	0x91
 6525 1712 6C       		.sleb128 -20
 6526 1713 00       		.byte	0
 6527 1714 24       		.uleb128 0x24
 6528 1715 B90B0000 		.4byte	.LASF301
 6529 1719 01       		.byte	0x1
 6530 171a 2302     		.2byte	0x223
 6531 171c 94010000 		.4byte	0x194
 6532 1720 00000000 		.4byte	.LFB13
 6533 1724 40000000 		.4byte	.LFE13-.LFB13
 6534 1728 01       		.uleb128 0x1
 6535 1729 9C       		.byte	0x9c
 6536 172a 5C170000 		.4byte	0x175c
 6537 172e 25       		.uleb128 0x25
 6538 172f 44657600 		.ascii	"Dev\000"
 6539 1733 01       		.byte	0x1
 6540 1734 2302     		.2byte	0x223
 6541 1736 EB0E0000 		.4byte	0xeeb
 6542 173a 02       		.uleb128 0x2
 6543 173b 91       		.byte	0x91
 6544 173c 6C       		.sleb128 -20
 6545 173d 26       		.uleb128 0x26
 6546 173e CD120000 		.4byte	.LASF261
 6547 1742 01       		.byte	0x1
 6548 1743 2302     		.2byte	0x223
 6549 1745 7C060000 		.4byte	0x67c
 6550 1749 02       		.uleb128 0x2
 6551 174a 91       		.byte	0x91
 6552 174b 68       		.sleb128 -24
 6553 174c 27       		.uleb128 0x27
 6554 174d FC090000 		.4byte	.LASF288
 6555 1751 01       		.byte	0x1
ARM GAS  C:\Users\PCHAUT~1\AppData\Local\Temp\ccYc6BCi.s 			page 116


 6556 1752 2502     		.2byte	0x225
 6557 1754 94010000 		.4byte	0x194
 6558 1758 02       		.uleb128 0x2
 6559 1759 91       		.byte	0x91
 6560 175a 73       		.sleb128 -13
 6561 175b 00       		.byte	0
 6562 175c 24       		.uleb128 0x24
 6563 175d 00000000 		.4byte	.LASF302
 6564 1761 01       		.byte	0x1
 6565 1762 1B02     		.2byte	0x21b
 6566 1764 94010000 		.4byte	0x194
 6567 1768 00000000 		.4byte	.LFB12
 6568 176c 40000000 		.4byte	.LFE12-.LFB12
 6569 1770 01       		.uleb128 0x1
 6570 1771 9C       		.byte	0x9c
 6571 1772 A4170000 		.4byte	0x17a4
 6572 1776 25       		.uleb128 0x25
 6573 1777 44657600 		.ascii	"Dev\000"
 6574 177b 01       		.byte	0x1
 6575 177c 1B02     		.2byte	0x21b
 6576 177e EB0E0000 		.4byte	0xeeb
 6577 1782 02       		.uleb128 0x2
 6578 1783 91       		.byte	0x91
 6579 1784 6C       		.sleb128 -20
 6580 1785 26       		.uleb128 0x26
 6581 1786 CD120000 		.4byte	.LASF261
 6582 178a 01       		.byte	0x1
 6583 178b 1B02     		.2byte	0x21b
 6584 178d 7C060000 		.4byte	0x67c
 6585 1791 02       		.uleb128 0x2
 6586 1792 91       		.byte	0x91
 6587 1793 68       		.sleb128 -24
 6588 1794 27       		.uleb128 0x27
 6589 1795 FC090000 		.4byte	.LASF288
 6590 1799 01       		.byte	0x1
 6591 179a 1D02     		.2byte	0x21d
 6592 179c 94010000 		.4byte	0x194
 6593 17a0 02       		.uleb128 0x2
 6594 17a1 91       		.byte	0x91
 6595 17a2 73       		.sleb128 -13
 6596 17a3 00       		.byte	0
 6597 17a4 24       		.uleb128 0x24
 6598 17a5 8D020000 		.4byte	.LASF303
 6599 17a9 01       		.byte	0x1
 6600 17aa E101     		.2byte	0x1e1
 6601 17ac 94010000 		.4byte	0x194
 6602 17b0 00000000 		.4byte	.LFB11
 6603 17b4 30010000 		.4byte	.LFE11-.LFB11
 6604 17b8 01       		.uleb128 0x1
 6605 17b9 9C       		.byte	0x9c
 6606 17ba 82180000 		.4byte	0x1882
 6607 17be 26       		.uleb128 0x26
 6608 17bf 25040000 		.4byte	.LASF293
 6609 17c3 01       		.byte	0x1
 6610 17c4 E101     		.2byte	0x1e1
 6611 17c6 7C060000 		.4byte	0x67c
 6612 17ca 02       		.uleb128 0x2
ARM GAS  C:\Users\PCHAUT~1\AppData\Local\Temp\ccYc6BCi.s 			page 117


 6613 17cb 91       		.byte	0x91
 6614 17cc 54       		.sleb128 -44
 6615 17cd 26       		.uleb128 0x26
 6616 17ce FE060000 		.4byte	.LASF304
 6617 17d2 01       		.byte	0x1
 6618 17d3 E201     		.2byte	0x1e2
 6619 17d5 E9000000 		.4byte	0xe9
 6620 17d9 02       		.uleb128 0x2
 6621 17da 91       		.byte	0x91
 6622 17db 50       		.sleb128 -48
 6623 17dc 26       		.uleb128 0x26
 6624 17dd E8080000 		.4byte	.LASF305
 6625 17e1 01       		.byte	0x1
 6626 17e2 E201     		.2byte	0x1e2
 6627 17e4 E9000000 		.4byte	0xe9
 6628 17e8 02       		.uleb128 0x2
 6629 17e9 91       		.byte	0x91
 6630 17ea 4C       		.sleb128 -52
 6631 17eb 26       		.uleb128 0x26
 6632 17ec 69100000 		.4byte	.LASF306
 6633 17f0 01       		.byte	0x1
 6634 17f1 E301     		.2byte	0x1e3
 6635 17f3 75130000 		.4byte	0x1375
 6636 17f7 02       		.uleb128 0x2
 6637 17f8 91       		.byte	0x91
 6638 17f9 48       		.sleb128 -56
 6639 17fa 26       		.uleb128 0x26
 6640 17fb 8A030000 		.4byte	.LASF307
 6641 17ff 01       		.byte	0x1
 6642 1800 E301     		.2byte	0x1e3
 6643 1802 7C060000 		.4byte	0x67c
 6644 1806 02       		.uleb128 0x2
 6645 1807 91       		.byte	0x91
 6646 1808 44       		.sleb128 -60
 6647 1809 27       		.uleb128 0x27
 6648 180a FC090000 		.4byte	.LASF288
 6649 180e 01       		.byte	0x1
 6650 180f E501     		.2byte	0x1e5
 6651 1811 94010000 		.4byte	0x194
 6652 1815 02       		.uleb128 0x2
 6653 1816 91       		.byte	0x91
 6654 1817 5D       		.sleb128 -35
 6655 1818 27       		.uleb128 0x27
 6656 1819 33060000 		.4byte	.LASF308
 6657 181d 01       		.byte	0x1
 6658 181e E601     		.2byte	0x1e6
 6659 1820 E9000000 		.4byte	0xe9
 6660 1824 02       		.uleb128 0x2
 6661 1825 91       		.byte	0x91
 6662 1826 68       		.sleb128 -24
 6663 1827 27       		.uleb128 0x27
 6664 1828 F90E0000 		.4byte	.LASF309
 6665 182c 01       		.byte	0x1
 6666 182d E701     		.2byte	0x1e7
 6667 182f E9000000 		.4byte	0xe9
 6668 1833 02       		.uleb128 0x2
 6669 1834 91       		.byte	0x91
ARM GAS  C:\Users\PCHAUT~1\AppData\Local\Temp\ccYc6BCi.s 			page 118


 6670 1835 6C       		.sleb128 -20
 6671 1836 27       		.uleb128 0x27
 6672 1837 350A0000 		.4byte	.LASF310
 6673 183b 01       		.byte	0x1
 6674 183c E801     		.2byte	0x1e8
 6675 183e E9000000 		.4byte	0xe9
 6676 1842 02       		.uleb128 0x2
 6677 1843 91       		.byte	0x91
 6678 1844 70       		.sleb128 -16
 6679 1845 27       		.uleb128 0x27
 6680 1846 08070000 		.4byte	.LASF311
 6681 184a 01       		.byte	0x1
 6682 184b E901     		.2byte	0x1e9
 6683 184d E9000000 		.4byte	0xe9
 6684 1851 02       		.uleb128 0x2
 6685 1852 91       		.byte	0x91
 6686 1853 60       		.sleb128 -32
 6687 1854 27       		.uleb128 0x27
 6688 1855 18060000 		.4byte	.LASF312
 6689 1859 01       		.byte	0x1
 6690 185a EA01     		.2byte	0x1ea
 6691 185c E9000000 		.4byte	0xe9
 6692 1860 02       		.uleb128 0x2
 6693 1861 91       		.byte	0x91
 6694 1862 64       		.sleb128 -28
 6695 1863 27       		.uleb128 0x27
 6696 1864 DF090000 		.4byte	.LASF313
 6697 1868 01       		.byte	0x1
 6698 1869 EB01     		.2byte	0x1eb
 6699 186b B8000000 		.4byte	0xb8
 6700 186f 02       		.uleb128 0x2
 6701 1870 91       		.byte	0x91
 6702 1871 5E       		.sleb128 -34
 6703 1872 27       		.uleb128 0x27
 6704 1873 E70A0000 		.4byte	.LASF314
 6705 1877 01       		.byte	0x1
 6706 1878 EC01     		.2byte	0x1ec
 6707 187a B8000000 		.4byte	0xb8
 6708 187e 02       		.uleb128 0x2
 6709 187f 91       		.byte	0x91
 6710 1880 5F       		.sleb128 -33
 6711 1881 00       		.byte	0
 6712 1882 24       		.uleb128 0x24
 6713 1883 DF050000 		.4byte	.LASF315
 6714 1887 01       		.byte	0x1
 6715 1888 CF01     		.2byte	0x1cf
 6716 188a 94010000 		.4byte	0x194
 6717 188e 00000000 		.4byte	.LFB10
 6718 1892 88000000 		.4byte	.LFE10-.LFB10
 6719 1896 01       		.uleb128 0x1
 6720 1897 9C       		.byte	0x9c
 6721 1898 06190000 		.4byte	0x1906
 6722 189c 26       		.uleb128 0x26
 6723 189d 25040000 		.4byte	.LASF293
 6724 18a1 01       		.byte	0x1
 6725 18a2 CF01     		.2byte	0x1cf
 6726 18a4 7C060000 		.4byte	0x67c
ARM GAS  C:\Users\PCHAUT~1\AppData\Local\Temp\ccYc6BCi.s 			page 119


 6727 18a8 02       		.uleb128 0x2
 6728 18a9 91       		.byte	0x91
 6729 18aa 5C       		.sleb128 -36
 6730 18ab 26       		.uleb128 0x26
 6731 18ac 0F0C0000 		.4byte	.LASF294
 6732 18b0 01       		.byte	0x1
 6733 18b1 CF01     		.2byte	0x1cf
 6734 18b3 E9000000 		.4byte	0xe9
 6735 18b7 02       		.uleb128 0x2
 6736 18b8 91       		.byte	0x91
 6737 18b9 58       		.sleb128 -40
 6738 18ba 26       		.uleb128 0x26
 6739 18bb A7100000 		.4byte	.LASF316
 6740 18bf 01       		.byte	0x1
 6741 18c0 D001     		.2byte	0x1d0
 6742 18c2 E9000000 		.4byte	0xe9
 6743 18c6 02       		.uleb128 0x2
 6744 18c7 91       		.byte	0x91
 6745 18c8 54       		.sleb128 -44
 6746 18c9 27       		.uleb128 0x27
 6747 18ca FC090000 		.4byte	.LASF288
 6748 18ce 01       		.byte	0x1
 6749 18cf D201     		.2byte	0x1d2
 6750 18d1 94010000 		.4byte	0x194
 6751 18d5 02       		.uleb128 0x2
 6752 18d6 91       		.byte	0x91
 6753 18d7 67       		.sleb128 -25
 6754 18d8 27       		.uleb128 0x27
 6755 18d9 33060000 		.4byte	.LASF308
 6756 18dd 01       		.byte	0x1
 6757 18de D301     		.2byte	0x1d3
 6758 18e0 E9000000 		.4byte	0xe9
 6759 18e4 02       		.uleb128 0x2
 6760 18e5 91       		.byte	0x91
 6761 18e6 68       		.sleb128 -24
 6762 18e7 27       		.uleb128 0x27
 6763 18e8 4F140000 		.4byte	.LASF317
 6764 18ec 01       		.byte	0x1
 6765 18ed D401     		.2byte	0x1d4
 6766 18ef E9000000 		.4byte	0xe9
 6767 18f3 02       		.uleb128 0x2
 6768 18f4 91       		.byte	0x91
 6769 18f5 6C       		.sleb128 -20
 6770 18f6 27       		.uleb128 0x27
 6771 18f7 B4080000 		.4byte	.LASF318
 6772 18fb 01       		.byte	0x1
 6773 18fc D501     		.2byte	0x1d5
 6774 18fe E9000000 		.4byte	0xe9
 6775 1902 02       		.uleb128 0x2
 6776 1903 91       		.byte	0x91
 6777 1904 70       		.sleb128 -16
 6778 1905 00       		.byte	0
 6779 1906 24       		.uleb128 0x24
 6780 1907 54060000 		.4byte	.LASF319
 6781 190b 01       		.byte	0x1
 6782 190c BF01     		.2byte	0x1bf
 6783 190e B8000000 		.4byte	0xb8
ARM GAS  C:\Users\PCHAUT~1\AppData\Local\Temp\ccYc6BCi.s 			page 120


 6784 1912 00000000 		.4byte	.LFB9
 6785 1916 4C000000 		.4byte	.LFE9-.LFB9
 6786 191a 01       		.uleb128 0x1
 6787 191b 9C       		.byte	0x9c
 6788 191c 4E190000 		.4byte	0x194e
 6789 1920 26       		.uleb128 0x26
 6790 1921 A7100000 		.4byte	.LASF316
 6791 1925 01       		.byte	0x1
 6792 1926 BF01     		.2byte	0x1bf
 6793 1928 E9000000 		.4byte	0xe9
 6794 192c 02       		.uleb128 0x2
 6795 192d 91       		.byte	0x91
 6796 192e 64       		.sleb128 -28
 6797 192f 27       		.uleb128 0x27
 6798 1930 F8020000 		.4byte	.LASF320
 6799 1934 01       		.byte	0x1
 6800 1935 C501     		.2byte	0x1c5
 6801 1937 E9000000 		.4byte	0xe9
 6802 193b 02       		.uleb128 0x2
 6803 193c 91       		.byte	0x91
 6804 193d 70       		.sleb128 -16
 6805 193e 27       		.uleb128 0x27
 6806 193f FA0A0000 		.4byte	.LASF321
 6807 1943 01       		.byte	0x1
 6808 1944 C601     		.2byte	0x1c6
 6809 1946 B8000000 		.4byte	0xb8
 6810 194a 02       		.uleb128 0x2
 6811 194b 91       		.byte	0x91
 6812 194c 6F       		.sleb128 -17
 6813 194d 00       		.byte	0
 6814 194e 29       		.uleb128 0x29
 6815 194f AE070000 		.4byte	.LASF367
 6816 1953 01       		.byte	0x1
 6817 1954 8E01     		.2byte	0x18e
 6818 1956 00000000 		.4byte	.LFB8
 6819 195a E0000000 		.4byte	.LFE8-.LFB8
 6820 195e 01       		.uleb128 0x1
 6821 195f 9C       		.byte	0x9c
 6822 1960 0A1A0000 		.4byte	0x1a0a
 6823 1964 26       		.uleb128 0x26
 6824 1965 BB150000 		.4byte	.LASF292
 6825 1969 01       		.byte	0x1
 6826 196a 8E01     		.2byte	0x18e
 6827 196c 7C060000 		.4byte	0x67c
 6828 1970 02       		.uleb128 0x2
 6829 1971 91       		.byte	0x91
 6830 1972 54       		.sleb128 -44
 6831 1973 26       		.uleb128 0x26
 6832 1974 0F0C0000 		.4byte	.LASF294
 6833 1978 01       		.byte	0x1
 6834 1979 8E01     		.2byte	0x18e
 6835 197b E9000000 		.4byte	0xe9
 6836 197f 02       		.uleb128 0x2
 6837 1980 91       		.byte	0x91
 6838 1981 50       		.sleb128 -48
 6839 1982 26       		.uleb128 0x26
 6840 1983 020F0000 		.4byte	.LASF322
ARM GAS  C:\Users\PCHAUT~1\AppData\Local\Temp\ccYc6BCi.s 			page 121


 6841 1987 01       		.byte	0x1
 6842 1988 8F01     		.2byte	0x18f
 6843 198a E9000000 		.4byte	0xe9
 6844 198e 02       		.uleb128 0x2
 6845 198f 91       		.byte	0x91
 6846 1990 4C       		.sleb128 -52
 6847 1991 26       		.uleb128 0x26
 6848 1992 BB010000 		.4byte	.LASF323
 6849 1996 01       		.byte	0x1
 6850 1997 8F01     		.2byte	0x18f
 6851 1999 0A1A0000 		.4byte	0x1a0a
 6852 199d 02       		.uleb128 0x2
 6853 199e 91       		.byte	0x91
 6854 199f 48       		.sleb128 -56
 6855 19a0 27       		.uleb128 0x27
 6856 19a1 49060000 		.4byte	.LASF324
 6857 19a5 01       		.byte	0x1
 6858 19a6 9101     		.2byte	0x191
 6859 19a8 E9000000 		.4byte	0xe9
 6860 19ac 02       		.uleb128 0x2
 6861 19ad 91       		.byte	0x91
 6862 19ae 6C       		.sleb128 -20
 6863 19af 27       		.uleb128 0x27
 6864 19b0 EF050000 		.4byte	.LASF325
 6865 19b4 01       		.byte	0x1
 6866 19b5 9201     		.2byte	0x192
 6867 19b7 E9000000 		.4byte	0xe9
 6868 19bb 02       		.uleb128 0x2
 6869 19bc 91       		.byte	0x91
 6870 19bd 70       		.sleb128 -16
 6871 19be 27       		.uleb128 0x27
 6872 19bf 33060000 		.4byte	.LASF308
 6873 19c3 01       		.byte	0x1
 6874 19c4 9301     		.2byte	0x193
 6875 19c6 E9000000 		.4byte	0xe9
 6876 19ca 02       		.uleb128 0x2
 6877 19cb 91       		.byte	0x91
 6878 19cc 68       		.sleb128 -24
 6879 19cd 27       		.uleb128 0x27
 6880 19ce 4F140000 		.4byte	.LASF317
 6881 19d2 01       		.byte	0x1
 6882 19d3 9401     		.2byte	0x194
 6883 19d5 E9000000 		.4byte	0xe9
 6884 19d9 02       		.uleb128 0x2
 6885 19da 91       		.byte	0x91
 6886 19db 60       		.sleb128 -32
 6887 19dc 27       		.uleb128 0x27
 6888 19dd B4080000 		.4byte	.LASF318
 6889 19e1 01       		.byte	0x1
 6890 19e2 9501     		.2byte	0x195
 6891 19e4 E9000000 		.4byte	0xe9
 6892 19e8 02       		.uleb128 0x2
 6893 19e9 91       		.byte	0x91
 6894 19ea 64       		.sleb128 -28
 6895 19eb 27       		.uleb128 0x27
 6896 19ec EC000000 		.4byte	.LASF326
 6897 19f0 01       		.byte	0x1
ARM GAS  C:\Users\PCHAUT~1\AppData\Local\Temp\ccYc6BCi.s 			page 122


 6898 19f1 9601     		.2byte	0x196
 6899 19f3 B8000000 		.4byte	0xb8
 6900 19f7 02       		.uleb128 0x2
 6901 19f8 91       		.byte	0x91
 6902 19f9 5E       		.sleb128 -34
 6903 19fa 27       		.uleb128 0x27
 6904 19fb 1D0A0000 		.4byte	.LASF327
 6905 19ff 01       		.byte	0x1
 6906 1a00 9701     		.2byte	0x197
 6907 1a02 B8000000 		.4byte	0xb8
 6908 1a06 02       		.uleb128 0x2
 6909 1a07 91       		.byte	0x91
 6910 1a08 5F       		.sleb128 -33
 6911 1a09 00       		.byte	0
 6912 1a0a 0F       		.uleb128 0xf
 6913 1a0b 04       		.byte	0x4
 6914 1a0c DE000000 		.4byte	0xde
 6915 1a10 24       		.uleb128 0x24
 6916 1a11 2D080000 		.4byte	.LASF328
 6917 1a15 01       		.byte	0x1
 6918 1a16 6601     		.2byte	0x166
 6919 1a18 94010000 		.4byte	0x194
 6920 1a1c 00000000 		.4byte	.LFB7
 6921 1a20 8C000000 		.4byte	.LFE7-.LFB7
 6922 1a24 01       		.uleb128 0x1
 6923 1a25 9C       		.byte	0x9c
 6924 1a26 671A0000 		.4byte	0x1a67
 6925 1a2a 25       		.uleb128 0x25
 6926 1a2b 44657600 		.ascii	"Dev\000"
 6927 1a2f 01       		.byte	0x1
 6928 1a30 6601     		.2byte	0x166
 6929 1a32 EB0E0000 		.4byte	0xeeb
 6930 1a36 02       		.uleb128 0x2
 6931 1a37 91       		.byte	0x91
 6932 1a38 64       		.sleb128 -28
 6933 1a39 27       		.uleb128 0x27
 6934 1a3a C0010000 		.4byte	.LASF238
 6935 1a3e 01       		.byte	0x1
 6936 1a3f 6801     		.2byte	0x168
 6937 1a41 94010000 		.4byte	0x194
 6938 1a45 02       		.uleb128 0x2
 6939 1a46 91       		.byte	0x91
 6940 1a47 6B       		.sleb128 -21
 6941 1a48 27       		.uleb128 0x27
 6942 1a49 150D0000 		.4byte	.LASF329
 6943 1a4d 01       		.byte	0x1
 6944 1a4e 6901     		.2byte	0x169
 6945 1a50 DE000000 		.4byte	0xde
 6946 1a54 02       		.uleb128 0x2
 6947 1a55 91       		.byte	0x91
 6948 1a56 70       		.sleb128 -16
 6949 1a57 27       		.uleb128 0x27
 6950 1a58 420F0000 		.4byte	.LASF330
 6951 1a5c 01       		.byte	0x1
 6952 1a5d 6A01     		.2byte	0x16a
 6953 1a5f DE000000 		.4byte	0xde
 6954 1a63 02       		.uleb128 0x2
ARM GAS  C:\Users\PCHAUT~1\AppData\Local\Temp\ccYc6BCi.s 			page 123


 6955 1a64 91       		.byte	0x91
 6956 1a65 6C       		.sleb128 -20
 6957 1a66 00       		.byte	0
 6958 1a67 24       		.uleb128 0x24
 6959 1a68 550C0000 		.4byte	.LASF331
 6960 1a6c 01       		.byte	0x1
 6961 1a6d 4601     		.2byte	0x146
 6962 1a6f 94010000 		.4byte	0x194
 6963 1a73 00000000 		.4byte	.LFB6
 6964 1a77 A8000000 		.4byte	.LFE6-.LFB6
 6965 1a7b 01       		.uleb128 0x1
 6966 1a7c 9C       		.byte	0x9c
 6967 1a7d DC1A0000 		.4byte	0x1adc
 6968 1a81 25       		.uleb128 0x25
 6969 1a82 44657600 		.ascii	"Dev\000"
 6970 1a86 01       		.byte	0x1
 6971 1a87 4601     		.2byte	0x146
 6972 1a89 EB0E0000 		.4byte	0xeeb
 6973 1a8d 02       		.uleb128 0x2
 6974 1a8e 91       		.byte	0x91
 6975 1a8f 64       		.sleb128 -28
 6976 1a90 26       		.uleb128 0x26
 6977 1a91 F4130000 		.4byte	.LASF332
 6978 1a95 01       		.byte	0x1
 6979 1a96 4701     		.2byte	0x147
 6980 1a98 0A1A0000 		.4byte	0x1a0a
 6981 1a9c 02       		.uleb128 0x2
 6982 1a9d 91       		.byte	0x91
 6983 1a9e 60       		.sleb128 -32
 6984 1a9f 27       		.uleb128 0x27
 6985 1aa0 C0010000 		.4byte	.LASF238
 6986 1aa4 01       		.byte	0x1
 6987 1aa5 4901     		.2byte	0x149
 6988 1aa7 94010000 		.4byte	0x194
 6989 1aab 02       		.uleb128 0x2
 6990 1aac 91       		.byte	0x91
 6991 1aad 6D       		.sleb128 -19
 6992 1aae 27       		.uleb128 0x27
 6993 1aaf 050B0000 		.4byte	.LASF333
 6994 1ab3 01       		.byte	0x1
 6995 1ab4 4A01     		.2byte	0x14a
 6996 1ab6 D3000000 		.4byte	0xd3
 6997 1aba 02       		.uleb128 0x2
 6998 1abb 91       		.byte	0x91
 6999 1abc 6E       		.sleb128 -18
 7000 1abd 27       		.uleb128 0x27
 7001 1abe 87000000 		.4byte	.LASF334
 7002 1ac2 01       		.byte	0x1
 7003 1ac3 4B01     		.2byte	0x14b
 7004 1ac5 C8000000 		.4byte	0xc8
 7005 1ac9 02       		.uleb128 0x2
 7006 1aca 91       		.byte	0x91
 7007 1acb 70       		.sleb128 -16
 7008 1acc 27       		.uleb128 0x27
 7009 1acd 31140000 		.4byte	.LASF335
 7010 1ad1 01       		.byte	0x1
 7011 1ad2 4C01     		.2byte	0x14c
ARM GAS  C:\Users\PCHAUT~1\AppData\Local\Temp\ccYc6BCi.s 			page 124


 7012 1ad4 C8000000 		.4byte	0xc8
 7013 1ad8 02       		.uleb128 0x2
 7014 1ad9 91       		.byte	0x91
 7015 1ada 72       		.sleb128 -14
 7016 1adb 00       		.byte	0
 7017 1adc 24       		.uleb128 0x24
 7018 1add AE020000 		.4byte	.LASF336
 7019 1ae1 01       		.byte	0x1
 7020 1ae2 2101     		.2byte	0x121
 7021 1ae4 94010000 		.4byte	0x194
 7022 1ae8 00000000 		.4byte	.LFB5
 7023 1aec AC000000 		.4byte	.LFE5-.LFB5
 7024 1af0 01       		.uleb128 0x1
 7025 1af1 9C       		.byte	0x9c
 7026 1af2 601B0000 		.4byte	0x1b60
 7027 1af6 25       		.uleb128 0x25
 7028 1af7 44657600 		.ascii	"Dev\000"
 7029 1afb 01       		.byte	0x1
 7030 1afc 2101     		.2byte	0x121
 7031 1afe EB0E0000 		.4byte	0xeeb
 7032 1b02 02       		.uleb128 0x2
 7033 1b03 91       		.byte	0x91
 7034 1b04 5C       		.sleb128 -36
 7035 1b05 26       		.uleb128 0x26
 7036 1b06 4D0A0000 		.4byte	.LASF337
 7037 1b0a 01       		.byte	0x1
 7038 1b0b 2201     		.2byte	0x122
 7039 1b0d DE000000 		.4byte	0xde
 7040 1b11 02       		.uleb128 0x2
 7041 1b12 91       		.byte	0x91
 7042 1b13 58       		.sleb128 -40
 7043 1b14 27       		.uleb128 0x27
 7044 1b15 C0010000 		.4byte	.LASF238
 7045 1b19 01       		.byte	0x1
 7046 1b1a 2401     		.2byte	0x124
 7047 1b1c 94010000 		.4byte	0x194
 7048 1b20 02       		.uleb128 0x2
 7049 1b21 91       		.byte	0x91
 7050 1b22 65       		.sleb128 -27
 7051 1b23 27       		.uleb128 0x27
 7052 1b24 230C0000 		.4byte	.LASF338
 7053 1b28 01       		.byte	0x1
 7054 1b29 2501     		.2byte	0x125
 7055 1b2b DE000000 		.4byte	0xde
 7056 1b2f 02       		.uleb128 0x2
 7057 1b30 91       		.byte	0x91
 7058 1b31 6C       		.sleb128 -20
 7059 1b32 27       		.uleb128 0x27
 7060 1b33 6D0A0000 		.4byte	.LASF339
 7061 1b37 01       		.byte	0x1
 7062 1b38 2601     		.2byte	0x126
 7063 1b3a DE000000 		.4byte	0xde
 7064 1b3e 02       		.uleb128 0x2
 7065 1b3f 91       		.byte	0x91
 7066 1b40 70       		.sleb128 -16
 7067 1b41 27       		.uleb128 0x27
 7068 1b42 31140000 		.4byte	.LASF335
ARM GAS  C:\Users\PCHAUT~1\AppData\Local\Temp\ccYc6BCi.s 			page 125


 7069 1b46 01       		.byte	0x1
 7070 1b47 2701     		.2byte	0x127
 7071 1b49 C8000000 		.4byte	0xc8
 7072 1b4d 02       		.uleb128 0x2
 7073 1b4e 91       		.byte	0x91
 7074 1b4f 66       		.sleb128 -26
 7075 1b50 27       		.uleb128 0x27
 7076 1b51 BB090000 		.4byte	.LASF340
 7077 1b55 01       		.byte	0x1
 7078 1b56 2801     		.2byte	0x128
 7079 1b58 E9000000 		.4byte	0xe9
 7080 1b5c 02       		.uleb128 0x2
 7081 1b5d 91       		.byte	0x91
 7082 1b5e 68       		.sleb128 -24
 7083 1b5f 00       		.byte	0
 7084 1b60 2A       		.uleb128 0x2a
 7085 1b61 44010000 		.4byte	.LASF341
 7086 1b65 01       		.byte	0x1
 7087 1b66 BE       		.byte	0xbe
 7088 1b67 94010000 		.4byte	0x194
 7089 1b6b 00000000 		.4byte	.LFB4
 7090 1b6f 98010000 		.4byte	.LFE4-.LFB4
 7091 1b73 01       		.uleb128 0x1
 7092 1b74 9C       		.byte	0x9c
 7093 1b75 251C0000 		.4byte	0x1c25
 7094 1b79 2B       		.uleb128 0x2b
 7095 1b7a 44657600 		.ascii	"Dev\000"
 7096 1b7e 01       		.byte	0x1
 7097 1b7f BE       		.byte	0xbe
 7098 1b80 EB0E0000 		.4byte	0xeeb
 7099 1b84 03       		.uleb128 0x3
 7100 1b85 91       		.byte	0x91
 7101 1b86 BC7F     		.sleb128 -68
 7102 1b88 2C       		.uleb128 0x2c
 7103 1b89 4E030000 		.4byte	.LASF342
 7104 1b8d 01       		.byte	0x1
 7105 1b8e BF       		.byte	0xbf
 7106 1b8f FB000000 		.4byte	0xfb
 7107 1b93 03       		.uleb128 0x3
 7108 1b94 91       		.byte	0x91
 7109 1b95 B87F     		.sleb128 -72
 7110 1b97 2C       		.uleb128 0x2c
 7111 1b98 52020000 		.4byte	.LASF343
 7112 1b9c 01       		.byte	0x1
 7113 1b9d C0       		.byte	0xc0
 7114 1b9e 0A1A0000 		.4byte	0x1a0a
 7115 1ba2 03       		.uleb128 0x3
 7116 1ba3 91       		.byte	0x91
 7117 1ba4 B47F     		.sleb128 -76
 7118 1ba6 2D       		.uleb128 0x2d
 7119 1ba7 C0010000 		.4byte	.LASF238
 7120 1bab 01       		.byte	0x1
 7121 1bac C2       		.byte	0xc2
 7122 1bad 94010000 		.4byte	0x194
 7123 1bb1 02       		.uleb128 0x2
 7124 1bb2 91       		.byte	0x91
 7125 1bb3 41       		.sleb128 -63
ARM GAS  C:\Users\PCHAUT~1\AppData\Local\Temp\ccYc6BCi.s 			page 126


 7126 1bb4 2D       		.uleb128 0x2d
 7127 1bb5 5B0F0000 		.4byte	.LASF344
 7128 1bb9 01       		.byte	0x1
 7129 1bba C3       		.byte	0xc3
 7130 1bbb D3000000 		.4byte	0xd3
 7131 1bbf 02       		.uleb128 0x2
 7132 1bc0 91       		.byte	0x91
 7133 1bc1 42       		.sleb128 -62
 7134 1bc2 2D       		.uleb128 0x2d
 7135 1bc3 D00B0000 		.4byte	.LASF345
 7136 1bc7 01       		.byte	0x1
 7137 1bc8 C4       		.byte	0xc4
 7138 1bc9 FB000000 		.4byte	0xfb
 7139 1bcd 02       		.uleb128 0x2
 7140 1bce 91       		.byte	0x91
 7141 1bcf 44       		.sleb128 -60
 7142 1bd0 2D       		.uleb128 0x2d
 7143 1bd1 930B0000 		.4byte	.LASF346
 7144 1bd5 01       		.byte	0x1
 7145 1bd6 C5       		.byte	0xc5
 7146 1bd7 50030000 		.4byte	0x350
 7147 1bdb 02       		.uleb128 0x2
 7148 1bdc 91       		.byte	0x91
 7149 1bdd 58       		.sleb128 -40
 7150 1bde 2D       		.uleb128 0x2d
 7151 1bdf 76070000 		.4byte	.LASF347
 7152 1be3 01       		.byte	0x1
 7153 1be4 C6       		.byte	0xc6
 7154 1be5 FB000000 		.4byte	0xfb
 7155 1be9 02       		.uleb128 0x2
 7156 1bea 91       		.byte	0x91
 7157 1beb 4C       		.sleb128 -52
 7158 1bec 2D       		.uleb128 0x2d
 7159 1bed C1070000 		.4byte	.LASF348
 7160 1bf1 01       		.byte	0x1
 7161 1bf2 C7       		.byte	0xc7
 7162 1bf3 E9000000 		.4byte	0xe9
 7163 1bf7 02       		.uleb128 0x2
 7164 1bf8 91       		.byte	0x91
 7165 1bf9 50       		.sleb128 -48
 7166 1bfa 2D       		.uleb128 0x2d
 7167 1bfb E60B0000 		.4byte	.LASF349
 7168 1bff 01       		.byte	0x1
 7169 1c00 C8       		.byte	0xc8
 7170 1c01 E9000000 		.4byte	0xe9
 7171 1c05 02       		.uleb128 0x2
 7172 1c06 91       		.byte	0x91
 7173 1c07 54       		.sleb128 -44
 7174 1c08 2D       		.uleb128 0x2d
 7175 1c09 35050000 		.4byte	.LASF350
 7176 1c0d 01       		.byte	0x1
 7177 1c0e C9       		.byte	0xc9
 7178 1c0f B8000000 		.4byte	0xb8
 7179 1c13 02       		.uleb128 0x2
 7180 1c14 91       		.byte	0x91
 7181 1c15 40       		.sleb128 -64
 7182 1c16 2D       		.uleb128 0x2d
ARM GAS  C:\Users\PCHAUT~1\AppData\Local\Temp\ccYc6BCi.s 			page 127


 7183 1c17 6D150000 		.4byte	.LASF351
 7184 1c1b 01       		.byte	0x1
 7185 1c1c CA       		.byte	0xca
 7186 1c1d 9F000000 		.4byte	0x9f
 7187 1c21 02       		.uleb128 0x2
 7188 1c22 91       		.byte	0x91
 7189 1c23 48       		.sleb128 -56
 7190 1c24 00       		.byte	0
 7191 1c25 2A       		.uleb128 0x2a
 7192 1c26 69160000 		.4byte	.LASF352
 7193 1c2a 01       		.byte	0x1
 7194 1c2b 33       		.byte	0x33
 7195 1c2c 94010000 		.4byte	0x194
 7196 1c30 00000000 		.4byte	.LFB3
 7197 1c34 E0010000 		.4byte	.LFE3-.LFB3
 7198 1c38 01       		.uleb128 0x1
 7199 1c39 9C       		.byte	0x9c
 7200 1c3a 371D0000 		.4byte	0x1d37
 7201 1c3e 2B       		.uleb128 0x2b
 7202 1c3f 44657600 		.ascii	"Dev\000"
 7203 1c43 01       		.byte	0x1
 7204 1c44 33       		.byte	0x33
 7205 1c45 EB0E0000 		.4byte	0xeeb
 7206 1c49 03       		.uleb128 0x3
 7207 1c4a 91       		.byte	0x91
 7208 1c4b A47F     		.sleb128 -92
 7209 1c4d 2C       		.uleb128 0x2c
 7210 1c4e DC070000 		.4byte	.LASF353
 7211 1c52 01       		.byte	0x1
 7212 1c53 34       		.byte	0x34
 7213 1c54 FB000000 		.4byte	0xfb
 7214 1c58 03       		.uleb128 0x3
 7215 1c59 91       		.byte	0x91
 7216 1c5a A07F     		.sleb128 -96
 7217 1c5c 2C       		.uleb128 0x2c
 7218 1c5d 590B0000 		.4byte	.LASF354
 7219 1c61 01       		.byte	0x1
 7220 1c62 35       		.byte	0x35
 7221 1c63 371D0000 		.4byte	0x1d37
 7222 1c67 03       		.uleb128 0x3
 7223 1c68 91       		.byte	0x91
 7224 1c69 9C7F     		.sleb128 -100
 7225 1c6b 2D       		.uleb128 0x2d
 7226 1c6c C0010000 		.4byte	.LASF238
 7227 1c70 01       		.byte	0x1
 7228 1c71 37       		.byte	0x37
 7229 1c72 94010000 		.4byte	0x194
 7230 1c76 03       		.uleb128 0x3
 7231 1c77 91       		.byte	0x91
 7232 1c78 AE7F     		.sleb128 -82
 7233 1c7a 2D       		.uleb128 0x2d
 7234 1c7b 5B0F0000 		.4byte	.LASF344
 7235 1c7f 01       		.byte	0x1
 7236 1c80 38       		.byte	0x38
 7237 1c81 D3000000 		.4byte	0xd3
 7238 1c85 03       		.uleb128 0x3
 7239 1c86 91       		.byte	0x91
ARM GAS  C:\Users\PCHAUT~1\AppData\Local\Temp\ccYc6BCi.s 			page 128


 7240 1c87 B07F     		.sleb128 -80
 7241 1c89 2D       		.uleb128 0x2d
 7242 1c8a 990A0000 		.4byte	.LASF355
 7243 1c8e 01       		.byte	0x1
 7244 1c8f 39       		.byte	0x39
 7245 1c90 D3000000 		.4byte	0xd3
 7246 1c94 03       		.uleb128 0x3
 7247 1c95 91       		.byte	0x91
 7248 1c96 B27F     		.sleb128 -78
 7249 1c98 2D       		.uleb128 0x2d
 7250 1c99 0B0E0000 		.4byte	.LASF356
 7251 1c9d 01       		.byte	0x1
 7252 1c9e 3A       		.byte	0x3a
 7253 1c9f FB000000 		.4byte	0xfb
 7254 1ca3 03       		.uleb128 0x3
 7255 1ca4 91       		.byte	0x91
 7256 1ca5 B47F     		.sleb128 -76
 7257 1ca7 2D       		.uleb128 0x2d
 7258 1ca8 D00B0000 		.4byte	.LASF345
 7259 1cac 01       		.byte	0x1
 7260 1cad 3B       		.byte	0x3b
 7261 1cae FB000000 		.4byte	0xfb
 7262 1cb2 03       		.uleb128 0x3
 7263 1cb3 91       		.byte	0x91
 7264 1cb4 B87F     		.sleb128 -72
 7265 1cb6 2D       		.uleb128 0x2d
 7266 1cb7 A30A0000 		.4byte	.LASF357
 7267 1cbb 01       		.byte	0x1
 7268 1cbc 3C       		.byte	0x3c
 7269 1cbd B8000000 		.4byte	0xb8
 7270 1cc1 03       		.uleb128 0x3
 7271 1cc2 91       		.byte	0x91
 7272 1cc3 AF7F     		.sleb128 -81
 7273 1cc5 2D       		.uleb128 0x2d
 7274 1cc6 930B0000 		.4byte	.LASF346
 7275 1cca 01       		.byte	0x1
 7276 1ccb 3D       		.byte	0x3d
 7277 1ccc 50030000 		.4byte	0x350
 7278 1cd0 02       		.uleb128 0x2
 7279 1cd1 91       		.byte	0x91
 7280 1cd2 58       		.sleb128 -40
 7281 1cd3 2D       		.uleb128 0x2d
 7282 1cd4 64020000 		.4byte	.LASF358
 7283 1cd8 01       		.byte	0x1
 7284 1cd9 3E       		.byte	0x3e
 7285 1cda FB000000 		.4byte	0xfb
 7286 1cde 02       		.uleb128 0x2
 7287 1cdf 91       		.byte	0x91
 7288 1ce0 40       		.sleb128 -64
 7289 1ce1 2D       		.uleb128 0x2d
 7290 1ce2 D7000000 		.4byte	.LASF359
 7291 1ce6 01       		.byte	0x1
 7292 1ce7 3F       		.byte	0x3f
 7293 1ce8 FB000000 		.4byte	0xfb
 7294 1cec 02       		.uleb128 0x2
 7295 1ced 91       		.byte	0x91
 7296 1cee 44       		.sleb128 -60
ARM GAS  C:\Users\PCHAUT~1\AppData\Local\Temp\ccYc6BCi.s 			page 129


 7297 1cef 2D       		.uleb128 0x2d
 7298 1cf0 51100000 		.4byte	.LASF360
 7299 1cf4 01       		.byte	0x1
 7300 1cf5 40       		.byte	0x40
 7301 1cf6 FB000000 		.4byte	0xfb
 7302 1cfa 02       		.uleb128 0x2
 7303 1cfb 91       		.byte	0x91
 7304 1cfc 48       		.sleb128 -56
 7305 1cfd 2D       		.uleb128 0x2d
 7306 1cfe 33000000 		.4byte	.LASF361
 7307 1d02 01       		.byte	0x1
 7308 1d03 41       		.byte	0x41
 7309 1d04 E9000000 		.4byte	0xe9
 7310 1d08 02       		.uleb128 0x2
 7311 1d09 91       		.byte	0x91
 7312 1d0a 54       		.sleb128 -44
 7313 1d0b 2D       		.uleb128 0x2d
 7314 1d0c F0140000 		.4byte	.LASF362
 7315 1d10 01       		.byte	0x1
 7316 1d11 42       		.byte	0x42
 7317 1d12 E9000000 		.4byte	0xe9
 7318 1d16 02       		.uleb128 0x2
 7319 1d17 91       		.byte	0x91
 7320 1d18 4C       		.sleb128 -52
 7321 1d19 2D       		.uleb128 0x2d
 7322 1d1a 3D0B0000 		.4byte	.LASF363
 7323 1d1e 01       		.byte	0x1
 7324 1d1f 43       		.byte	0x43
 7325 1d20 E9000000 		.4byte	0xe9
 7326 1d24 02       		.uleb128 0x2
 7327 1d25 91       		.byte	0x91
 7328 1d26 50       		.sleb128 -48
 7329 1d27 2D       		.uleb128 0x2d
 7330 1d28 E20D0000 		.4byte	.LASF43
 7331 1d2c 01       		.byte	0x1
 7332 1d2d 44       		.byte	0x44
 7333 1d2e FB000000 		.4byte	0xfb
 7334 1d32 03       		.uleb128 0x3
 7335 1d33 91       		.byte	0x91
 7336 1d34 BC7F     		.sleb128 -68
 7337 1d36 00       		.byte	0
 7338 1d37 0F       		.uleb128 0xf
 7339 1d38 04       		.byte	0x4
 7340 1d39 FB000000 		.4byte	0xfb
 7341 1d3d 00       		.byte	0
 7342              		.section	.debug_abbrev,"",%progbits
 7343              	.Ldebug_abbrev0:
 7344 0000 01       		.uleb128 0x1
 7345 0001 11       		.uleb128 0x11
 7346 0002 01       		.byte	0x1
 7347 0003 25       		.uleb128 0x25
 7348 0004 0E       		.uleb128 0xe
 7349 0005 13       		.uleb128 0x13
 7350 0006 0B       		.uleb128 0xb
 7351 0007 03       		.uleb128 0x3
 7352 0008 0E       		.uleb128 0xe
 7353 0009 1B       		.uleb128 0x1b
ARM GAS  C:\Users\PCHAUT~1\AppData\Local\Temp\ccYc6BCi.s 			page 130


 7354 000a 0E       		.uleb128 0xe
 7355 000b 55       		.uleb128 0x55
 7356 000c 17       		.uleb128 0x17
 7357 000d 11       		.uleb128 0x11
 7358 000e 01       		.uleb128 0x1
 7359 000f 10       		.uleb128 0x10
 7360 0010 17       		.uleb128 0x17
 7361 0011 00       		.byte	0
 7362 0012 00       		.byte	0
 7363 0013 02       		.uleb128 0x2
 7364 0014 16       		.uleb128 0x16
 7365 0015 00       		.byte	0
 7366 0016 03       		.uleb128 0x3
 7367 0017 0E       		.uleb128 0xe
 7368 0018 3A       		.uleb128 0x3a
 7369 0019 0B       		.uleb128 0xb
 7370 001a 3B       		.uleb128 0x3b
 7371 001b 0B       		.uleb128 0xb
 7372 001c 49       		.uleb128 0x49
 7373 001d 13       		.uleb128 0x13
 7374 001e 00       		.byte	0
 7375 001f 00       		.byte	0
 7376 0020 03       		.uleb128 0x3
 7377 0021 24       		.uleb128 0x24
 7378 0022 00       		.byte	0
 7379 0023 0B       		.uleb128 0xb
 7380 0024 0B       		.uleb128 0xb
 7381 0025 3E       		.uleb128 0x3e
 7382 0026 0B       		.uleb128 0xb
 7383 0027 03       		.uleb128 0x3
 7384 0028 0E       		.uleb128 0xe
 7385 0029 00       		.byte	0
 7386 002a 00       		.byte	0
 7387 002b 04       		.uleb128 0x4
 7388 002c 24       		.uleb128 0x24
 7389 002d 00       		.byte	0
 7390 002e 0B       		.uleb128 0xb
 7391 002f 0B       		.uleb128 0xb
 7392 0030 3E       		.uleb128 0x3e
 7393 0031 0B       		.uleb128 0xb
 7394 0032 03       		.uleb128 0x3
 7395 0033 08       		.uleb128 0x8
 7396 0034 00       		.byte	0
 7397 0035 00       		.byte	0
 7398 0036 05       		.uleb128 0x5
 7399 0037 26       		.uleb128 0x26
 7400 0038 00       		.byte	0
 7401 0039 49       		.uleb128 0x49
 7402 003a 13       		.uleb128 0x13
 7403 003b 00       		.byte	0
 7404 003c 00       		.byte	0
 7405 003d 06       		.uleb128 0x6
 7406 003e 13       		.uleb128 0x13
 7407 003f 01       		.byte	0x1
 7408 0040 0B       		.uleb128 0xb
 7409 0041 0B       		.uleb128 0xb
 7410 0042 3A       		.uleb128 0x3a
ARM GAS  C:\Users\PCHAUT~1\AppData\Local\Temp\ccYc6BCi.s 			page 131


 7411 0043 0B       		.uleb128 0xb
 7412 0044 3B       		.uleb128 0x3b
 7413 0045 0B       		.uleb128 0xb
 7414 0046 01       		.uleb128 0x1
 7415 0047 13       		.uleb128 0x13
 7416 0048 00       		.byte	0
 7417 0049 00       		.byte	0
 7418 004a 07       		.uleb128 0x7
 7419 004b 0D       		.uleb128 0xd
 7420 004c 00       		.byte	0
 7421 004d 03       		.uleb128 0x3
 7422 004e 0E       		.uleb128 0xe
 7423 004f 3A       		.uleb128 0x3a
 7424 0050 0B       		.uleb128 0xb
 7425 0051 3B       		.uleb128 0x3b
 7426 0052 0B       		.uleb128 0xb
 7427 0053 49       		.uleb128 0x49
 7428 0054 13       		.uleb128 0x13
 7429 0055 38       		.uleb128 0x38
 7430 0056 0B       		.uleb128 0xb
 7431 0057 00       		.byte	0
 7432 0058 00       		.byte	0
 7433 0059 08       		.uleb128 0x8
 7434 005a 01       		.uleb128 0x1
 7435 005b 01       		.byte	0x1
 7436 005c 49       		.uleb128 0x49
 7437 005d 13       		.uleb128 0x13
 7438 005e 01       		.uleb128 0x1
 7439 005f 13       		.uleb128 0x13
 7440 0060 00       		.byte	0
 7441 0061 00       		.byte	0
 7442 0062 09       		.uleb128 0x9
 7443 0063 21       		.uleb128 0x21
 7444 0064 00       		.byte	0
 7445 0065 49       		.uleb128 0x49
 7446 0066 13       		.uleb128 0x13
 7447 0067 2F       		.uleb128 0x2f
 7448 0068 0B       		.uleb128 0xb
 7449 0069 00       		.byte	0
 7450 006a 00       		.byte	0
 7451 006b 0A       		.uleb128 0xa
 7452 006c 0D       		.uleb128 0xd
 7453 006d 00       		.byte	0
 7454 006e 03       		.uleb128 0x3
 7455 006f 0E       		.uleb128 0xe
 7456 0070 3A       		.uleb128 0x3a
 7457 0071 0B       		.uleb128 0xb
 7458 0072 3B       		.uleb128 0x3b
 7459 0073 05       		.uleb128 0x5
 7460 0074 49       		.uleb128 0x49
 7461 0075 13       		.uleb128 0x13
 7462 0076 38       		.uleb128 0x38
 7463 0077 0B       		.uleb128 0xb
 7464 0078 00       		.byte	0
 7465 0079 00       		.byte	0
 7466 007a 0B       		.uleb128 0xb
 7467 007b 16       		.uleb128 0x16
ARM GAS  C:\Users\PCHAUT~1\AppData\Local\Temp\ccYc6BCi.s 			page 132


 7468 007c 00       		.byte	0
 7469 007d 03       		.uleb128 0x3
 7470 007e 0E       		.uleb128 0xe
 7471 007f 3A       		.uleb128 0x3a
 7472 0080 0B       		.uleb128 0xb
 7473 0081 3B       		.uleb128 0x3b
 7474 0082 05       		.uleb128 0x5
 7475 0083 49       		.uleb128 0x49
 7476 0084 13       		.uleb128 0x13
 7477 0085 00       		.byte	0
 7478 0086 00       		.byte	0
 7479 0087 0C       		.uleb128 0xc
 7480 0088 13       		.uleb128 0x13
 7481 0089 01       		.byte	0x1
 7482 008a 0B       		.uleb128 0xb
 7483 008b 0B       		.uleb128 0xb
 7484 008c 3A       		.uleb128 0x3a
 7485 008d 0B       		.uleb128 0xb
 7486 008e 3B       		.uleb128 0x3b
 7487 008f 05       		.uleb128 0x5
 7488 0090 01       		.uleb128 0x1
 7489 0091 13       		.uleb128 0x13
 7490 0092 00       		.byte	0
 7491 0093 00       		.byte	0
 7492 0094 0D       		.uleb128 0xd
 7493 0095 13       		.uleb128 0x13
 7494 0096 01       		.byte	0x1
 7495 0097 0B       		.uleb128 0xb
 7496 0098 05       		.uleb128 0x5
 7497 0099 3A       		.uleb128 0x3a
 7498 009a 0B       		.uleb128 0xb
 7499 009b 3B       		.uleb128 0x3b
 7500 009c 05       		.uleb128 0x5
 7501 009d 01       		.uleb128 0x1
 7502 009e 13       		.uleb128 0x13
 7503 009f 00       		.byte	0
 7504 00a0 00       		.byte	0
 7505 00a1 0E       		.uleb128 0xe
 7506 00a2 0D       		.uleb128 0xd
 7507 00a3 00       		.byte	0
 7508 00a4 03       		.uleb128 0x3
 7509 00a5 0E       		.uleb128 0xe
 7510 00a6 3A       		.uleb128 0x3a
 7511 00a7 0B       		.uleb128 0xb
 7512 00a8 3B       		.uleb128 0x3b
 7513 00a9 05       		.uleb128 0x5
 7514 00aa 49       		.uleb128 0x49
 7515 00ab 13       		.uleb128 0x13
 7516 00ac 38       		.uleb128 0x38
 7517 00ad 05       		.uleb128 0x5
 7518 00ae 00       		.byte	0
 7519 00af 00       		.byte	0
 7520 00b0 0F       		.uleb128 0xf
 7521 00b1 0F       		.uleb128 0xf
 7522 00b2 00       		.byte	0
 7523 00b3 0B       		.uleb128 0xb
 7524 00b4 0B       		.uleb128 0xb
ARM GAS  C:\Users\PCHAUT~1\AppData\Local\Temp\ccYc6BCi.s 			page 133


 7525 00b5 49       		.uleb128 0x49
 7526 00b6 13       		.uleb128 0x13
 7527 00b7 00       		.byte	0
 7528 00b8 00       		.byte	0
 7529 00b9 10       		.uleb128 0x10
 7530 00ba 0F       		.uleb128 0xf
 7531 00bb 00       		.byte	0
 7532 00bc 0B       		.uleb128 0xb
 7533 00bd 0B       		.uleb128 0xb
 7534 00be 00       		.byte	0
 7535 00bf 00       		.byte	0
 7536 00c0 11       		.uleb128 0x11
 7537 00c1 13       		.uleb128 0x13
 7538 00c2 00       		.byte	0
 7539 00c3 03       		.uleb128 0x3
 7540 00c4 0E       		.uleb128 0xe
 7541 00c5 3C       		.uleb128 0x3c
 7542 00c6 19       		.uleb128 0x19
 7543 00c7 00       		.byte	0
 7544 00c8 00       		.byte	0
 7545 00c9 12       		.uleb128 0x12
 7546 00ca 17       		.uleb128 0x17
 7547 00cb 01       		.byte	0x1
 7548 00cc 0B       		.uleb128 0xb
 7549 00cd 0B       		.uleb128 0xb
 7550 00ce 3A       		.uleb128 0x3a
 7551 00cf 0B       		.uleb128 0xb
 7552 00d0 3B       		.uleb128 0x3b
 7553 00d1 0B       		.uleb128 0xb
 7554 00d2 01       		.uleb128 0x1
 7555 00d3 13       		.uleb128 0x13
 7556 00d4 00       		.byte	0
 7557 00d5 00       		.byte	0
 7558 00d6 13       		.uleb128 0x13
 7559 00d7 0D       		.uleb128 0xd
 7560 00d8 00       		.byte	0
 7561 00d9 03       		.uleb128 0x3
 7562 00da 0E       		.uleb128 0xe
 7563 00db 3A       		.uleb128 0x3a
 7564 00dc 0B       		.uleb128 0xb
 7565 00dd 3B       		.uleb128 0x3b
 7566 00de 0B       		.uleb128 0xb
 7567 00df 49       		.uleb128 0x49
 7568 00e0 13       		.uleb128 0x13
 7569 00e1 00       		.byte	0
 7570 00e2 00       		.byte	0
 7571 00e3 14       		.uleb128 0x14
 7572 00e4 13       		.uleb128 0x13
 7573 00e5 01       		.byte	0x1
 7574 00e6 03       		.uleb128 0x3
 7575 00e7 0E       		.uleb128 0xe
 7576 00e8 0B       		.uleb128 0xb
 7577 00e9 0B       		.uleb128 0xb
 7578 00ea 3A       		.uleb128 0x3a
 7579 00eb 0B       		.uleb128 0xb
 7580 00ec 3B       		.uleb128 0x3b
 7581 00ed 0B       		.uleb128 0xb
ARM GAS  C:\Users\PCHAUT~1\AppData\Local\Temp\ccYc6BCi.s 			page 134


 7582 00ee 01       		.uleb128 0x1
 7583 00ef 13       		.uleb128 0x13
 7584 00f0 00       		.byte	0
 7585 00f1 00       		.byte	0
 7586 00f2 15       		.uleb128 0x15
 7587 00f3 0D       		.uleb128 0xd
 7588 00f4 00       		.byte	0
 7589 00f5 03       		.uleb128 0x3
 7590 00f6 08       		.uleb128 0x8
 7591 00f7 3A       		.uleb128 0x3a
 7592 00f8 0B       		.uleb128 0xb
 7593 00f9 3B       		.uleb128 0x3b
 7594 00fa 0B       		.uleb128 0xb
 7595 00fb 49       		.uleb128 0x49
 7596 00fc 13       		.uleb128 0x13
 7597 00fd 38       		.uleb128 0x38
 7598 00fe 0B       		.uleb128 0xb
 7599 00ff 00       		.byte	0
 7600 0100 00       		.byte	0
 7601 0101 16       		.uleb128 0x16
 7602 0102 13       		.uleb128 0x13
 7603 0103 01       		.byte	0x1
 7604 0104 03       		.uleb128 0x3
 7605 0105 0E       		.uleb128 0xe
 7606 0106 0B       		.uleb128 0xb
 7607 0107 05       		.uleb128 0x5
 7608 0108 3A       		.uleb128 0x3a
 7609 0109 0B       		.uleb128 0xb
 7610 010a 3B       		.uleb128 0x3b
 7611 010b 0B       		.uleb128 0xb
 7612 010c 01       		.uleb128 0x1
 7613 010d 13       		.uleb128 0x13
 7614 010e 00       		.byte	0
 7615 010f 00       		.byte	0
 7616 0110 17       		.uleb128 0x17
 7617 0111 0D       		.uleb128 0xd
 7618 0112 00       		.byte	0
 7619 0113 03       		.uleb128 0x3
 7620 0114 0E       		.uleb128 0xe
 7621 0115 3A       		.uleb128 0x3a
 7622 0116 0B       		.uleb128 0xb
 7623 0117 3B       		.uleb128 0x3b
 7624 0118 0B       		.uleb128 0xb
 7625 0119 49       		.uleb128 0x49
 7626 011a 13       		.uleb128 0x13
 7627 011b 38       		.uleb128 0x38
 7628 011c 05       		.uleb128 0x5
 7629 011d 00       		.byte	0
 7630 011e 00       		.byte	0
 7631 011f 18       		.uleb128 0x18
 7632 0120 15       		.uleb128 0x15
 7633 0121 00       		.byte	0
 7634 0122 27       		.uleb128 0x27
 7635 0123 19       		.uleb128 0x19
 7636 0124 00       		.byte	0
 7637 0125 00       		.byte	0
 7638 0126 19       		.uleb128 0x19
ARM GAS  C:\Users\PCHAUT~1\AppData\Local\Temp\ccYc6BCi.s 			page 135


 7639 0127 15       		.uleb128 0x15
 7640 0128 01       		.byte	0x1
 7641 0129 27       		.uleb128 0x27
 7642 012a 19       		.uleb128 0x19
 7643 012b 49       		.uleb128 0x49
 7644 012c 13       		.uleb128 0x13
 7645 012d 01       		.uleb128 0x1
 7646 012e 13       		.uleb128 0x13
 7647 012f 00       		.byte	0
 7648 0130 00       		.byte	0
 7649 0131 1A       		.uleb128 0x1a
 7650 0132 05       		.uleb128 0x5
 7651 0133 00       		.byte	0
 7652 0134 49       		.uleb128 0x49
 7653 0135 13       		.uleb128 0x13
 7654 0136 00       		.byte	0
 7655 0137 00       		.byte	0
 7656 0138 1B       		.uleb128 0x1b
 7657 0139 13       		.uleb128 0x13
 7658 013a 01       		.byte	0x1
 7659 013b 03       		.uleb128 0x3
 7660 013c 0E       		.uleb128 0xe
 7661 013d 0B       		.uleb128 0xb
 7662 013e 05       		.uleb128 0x5
 7663 013f 3A       		.uleb128 0x3a
 7664 0140 0B       		.uleb128 0xb
 7665 0141 3B       		.uleb128 0x3b
 7666 0142 05       		.uleb128 0x5
 7667 0143 01       		.uleb128 0x1
 7668 0144 13       		.uleb128 0x13
 7669 0145 00       		.byte	0
 7670 0146 00       		.byte	0
 7671 0147 1C       		.uleb128 0x1c
 7672 0148 13       		.uleb128 0x13
 7673 0149 01       		.byte	0x1
 7674 014a 03       		.uleb128 0x3
 7675 014b 0E       		.uleb128 0xe
 7676 014c 0B       		.uleb128 0xb
 7677 014d 0B       		.uleb128 0xb
 7678 014e 3A       		.uleb128 0x3a
 7679 014f 0B       		.uleb128 0xb
 7680 0150 3B       		.uleb128 0x3b
 7681 0151 05       		.uleb128 0x5
 7682 0152 01       		.uleb128 0x1
 7683 0153 13       		.uleb128 0x13
 7684 0154 00       		.byte	0
 7685 0155 00       		.byte	0
 7686 0156 1D       		.uleb128 0x1d
 7687 0157 17       		.uleb128 0x17
 7688 0158 01       		.byte	0x1
 7689 0159 0B       		.uleb128 0xb
 7690 015a 0B       		.uleb128 0xb
 7691 015b 3A       		.uleb128 0x3a
 7692 015c 0B       		.uleb128 0xb
 7693 015d 3B       		.uleb128 0x3b
 7694 015e 05       		.uleb128 0x5
 7695 015f 01       		.uleb128 0x1
ARM GAS  C:\Users\PCHAUT~1\AppData\Local\Temp\ccYc6BCi.s 			page 136


 7696 0160 13       		.uleb128 0x13
 7697 0161 00       		.byte	0
 7698 0162 00       		.byte	0
 7699 0163 1E       		.uleb128 0x1e
 7700 0164 0D       		.uleb128 0xd
 7701 0165 00       		.byte	0
 7702 0166 03       		.uleb128 0x3
 7703 0167 0E       		.uleb128 0xe
 7704 0168 3A       		.uleb128 0x3a
 7705 0169 0B       		.uleb128 0xb
 7706 016a 3B       		.uleb128 0x3b
 7707 016b 05       		.uleb128 0x5
 7708 016c 49       		.uleb128 0x49
 7709 016d 13       		.uleb128 0x13
 7710 016e 00       		.byte	0
 7711 016f 00       		.byte	0
 7712 0170 1F       		.uleb128 0x1f
 7713 0171 15       		.uleb128 0x15
 7714 0172 01       		.byte	0x1
 7715 0173 27       		.uleb128 0x27
 7716 0174 19       		.uleb128 0x19
 7717 0175 01       		.uleb128 0x1
 7718 0176 13       		.uleb128 0x13
 7719 0177 00       		.byte	0
 7720 0178 00       		.byte	0
 7721 0179 20       		.uleb128 0x20
 7722 017a 34       		.uleb128 0x34
 7723 017b 00       		.byte	0
 7724 017c 03       		.uleb128 0x3
 7725 017d 0E       		.uleb128 0xe
 7726 017e 3A       		.uleb128 0x3a
 7727 017f 0B       		.uleb128 0xb
 7728 0180 3B       		.uleb128 0x3b
 7729 0181 05       		.uleb128 0x5
 7730 0182 49       		.uleb128 0x49
 7731 0183 13       		.uleb128 0x13
 7732 0184 3F       		.uleb128 0x3f
 7733 0185 19       		.uleb128 0x19
 7734 0186 3C       		.uleb128 0x3c
 7735 0187 19       		.uleb128 0x19
 7736 0188 00       		.byte	0
 7737 0189 00       		.byte	0
 7738 018a 21       		.uleb128 0x21
 7739 018b 13       		.uleb128 0x13
 7740 018c 01       		.byte	0x1
 7741 018d 0B       		.uleb128 0xb
 7742 018e 05       		.uleb128 0x5
 7743 018f 3A       		.uleb128 0x3a
 7744 0190 0B       		.uleb128 0xb
 7745 0191 3B       		.uleb128 0x3b
 7746 0192 0B       		.uleb128 0xb
 7747 0193 01       		.uleb128 0x1
 7748 0194 13       		.uleb128 0x13
 7749 0195 00       		.byte	0
 7750 0196 00       		.byte	0
 7751 0197 22       		.uleb128 0x22
 7752 0198 34       		.uleb128 0x34
ARM GAS  C:\Users\PCHAUT~1\AppData\Local\Temp\ccYc6BCi.s 			page 137


 7753 0199 00       		.byte	0
 7754 019a 03       		.uleb128 0x3
 7755 019b 0E       		.uleb128 0xe
 7756 019c 3A       		.uleb128 0x3a
 7757 019d 0B       		.uleb128 0xb
 7758 019e 3B       		.uleb128 0x3b
 7759 019f 0B       		.uleb128 0xb
 7760 01a0 49       		.uleb128 0x49
 7761 01a1 13       		.uleb128 0x13
 7762 01a2 3F       		.uleb128 0x3f
 7763 01a3 19       		.uleb128 0x19
 7764 01a4 3C       		.uleb128 0x3c
 7765 01a5 19       		.uleb128 0x19
 7766 01a6 00       		.byte	0
 7767 01a7 00       		.byte	0
 7768 01a8 23       		.uleb128 0x23
 7769 01a9 34       		.uleb128 0x34
 7770 01aa 00       		.byte	0
 7771 01ab 03       		.uleb128 0x3
 7772 01ac 0E       		.uleb128 0xe
 7773 01ad 3A       		.uleb128 0x3a
 7774 01ae 0B       		.uleb128 0xb
 7775 01af 3B       		.uleb128 0x3b
 7776 01b0 0B       		.uleb128 0xb
 7777 01b1 49       		.uleb128 0x49
 7778 01b2 13       		.uleb128 0x13
 7779 01b3 3F       		.uleb128 0x3f
 7780 01b4 19       		.uleb128 0x19
 7781 01b5 02       		.uleb128 0x2
 7782 01b6 18       		.uleb128 0x18
 7783 01b7 00       		.byte	0
 7784 01b8 00       		.byte	0
 7785 01b9 24       		.uleb128 0x24
 7786 01ba 2E       		.uleb128 0x2e
 7787 01bb 01       		.byte	0x1
 7788 01bc 3F       		.uleb128 0x3f
 7789 01bd 19       		.uleb128 0x19
 7790 01be 03       		.uleb128 0x3
 7791 01bf 0E       		.uleb128 0xe
 7792 01c0 3A       		.uleb128 0x3a
 7793 01c1 0B       		.uleb128 0xb
 7794 01c2 3B       		.uleb128 0x3b
 7795 01c3 05       		.uleb128 0x5
 7796 01c4 27       		.uleb128 0x27
 7797 01c5 19       		.uleb128 0x19
 7798 01c6 49       		.uleb128 0x49
 7799 01c7 13       		.uleb128 0x13
 7800 01c8 11       		.uleb128 0x11
 7801 01c9 01       		.uleb128 0x1
 7802 01ca 12       		.uleb128 0x12
 7803 01cb 06       		.uleb128 0x6
 7804 01cc 40       		.uleb128 0x40
 7805 01cd 18       		.uleb128 0x18
 7806 01ce 9642     		.uleb128 0x2116
 7807 01d0 19       		.uleb128 0x19
 7808 01d1 01       		.uleb128 0x1
 7809 01d2 13       		.uleb128 0x13
ARM GAS  C:\Users\PCHAUT~1\AppData\Local\Temp\ccYc6BCi.s 			page 138


 7810 01d3 00       		.byte	0
 7811 01d4 00       		.byte	0
 7812 01d5 25       		.uleb128 0x25
 7813 01d6 05       		.uleb128 0x5
 7814 01d7 00       		.byte	0
 7815 01d8 03       		.uleb128 0x3
 7816 01d9 08       		.uleb128 0x8
 7817 01da 3A       		.uleb128 0x3a
 7818 01db 0B       		.uleb128 0xb
 7819 01dc 3B       		.uleb128 0x3b
 7820 01dd 05       		.uleb128 0x5
 7821 01de 49       		.uleb128 0x49
 7822 01df 13       		.uleb128 0x13
 7823 01e0 02       		.uleb128 0x2
 7824 01e1 18       		.uleb128 0x18
 7825 01e2 00       		.byte	0
 7826 01e3 00       		.byte	0
 7827 01e4 26       		.uleb128 0x26
 7828 01e5 05       		.uleb128 0x5
 7829 01e6 00       		.byte	0
 7830 01e7 03       		.uleb128 0x3
 7831 01e8 0E       		.uleb128 0xe
 7832 01e9 3A       		.uleb128 0x3a
 7833 01ea 0B       		.uleb128 0xb
 7834 01eb 3B       		.uleb128 0x3b
 7835 01ec 05       		.uleb128 0x5
 7836 01ed 49       		.uleb128 0x49
 7837 01ee 13       		.uleb128 0x13
 7838 01ef 02       		.uleb128 0x2
 7839 01f0 18       		.uleb128 0x18
 7840 01f1 00       		.byte	0
 7841 01f2 00       		.byte	0
 7842 01f3 27       		.uleb128 0x27
 7843 01f4 34       		.uleb128 0x34
 7844 01f5 00       		.byte	0
 7845 01f6 03       		.uleb128 0x3
 7846 01f7 0E       		.uleb128 0xe
 7847 01f8 3A       		.uleb128 0x3a
 7848 01f9 0B       		.uleb128 0xb
 7849 01fa 3B       		.uleb128 0x3b
 7850 01fb 05       		.uleb128 0x5
 7851 01fc 49       		.uleb128 0x49
 7852 01fd 13       		.uleb128 0x13
 7853 01fe 02       		.uleb128 0x2
 7854 01ff 18       		.uleb128 0x18
 7855 0200 00       		.byte	0
 7856 0201 00       		.byte	0
 7857 0202 28       		.uleb128 0x28
 7858 0203 34       		.uleb128 0x34
 7859 0204 00       		.byte	0
 7860 0205 03       		.uleb128 0x3
 7861 0206 08       		.uleb128 0x8
 7862 0207 3A       		.uleb128 0x3a
 7863 0208 0B       		.uleb128 0xb
 7864 0209 3B       		.uleb128 0x3b
 7865 020a 05       		.uleb128 0x5
 7866 020b 49       		.uleb128 0x49
ARM GAS  C:\Users\PCHAUT~1\AppData\Local\Temp\ccYc6BCi.s 			page 139


 7867 020c 13       		.uleb128 0x13
 7868 020d 02       		.uleb128 0x2
 7869 020e 18       		.uleb128 0x18
 7870 020f 00       		.byte	0
 7871 0210 00       		.byte	0
 7872 0211 29       		.uleb128 0x29
 7873 0212 2E       		.uleb128 0x2e
 7874 0213 01       		.byte	0x1
 7875 0214 3F       		.uleb128 0x3f
 7876 0215 19       		.uleb128 0x19
 7877 0216 03       		.uleb128 0x3
 7878 0217 0E       		.uleb128 0xe
 7879 0218 3A       		.uleb128 0x3a
 7880 0219 0B       		.uleb128 0xb
 7881 021a 3B       		.uleb128 0x3b
 7882 021b 05       		.uleb128 0x5
 7883 021c 27       		.uleb128 0x27
 7884 021d 19       		.uleb128 0x19
 7885 021e 11       		.uleb128 0x11
 7886 021f 01       		.uleb128 0x1
 7887 0220 12       		.uleb128 0x12
 7888 0221 06       		.uleb128 0x6
 7889 0222 40       		.uleb128 0x40
 7890 0223 18       		.uleb128 0x18
 7891 0224 9642     		.uleb128 0x2116
 7892 0226 19       		.uleb128 0x19
 7893 0227 01       		.uleb128 0x1
 7894 0228 13       		.uleb128 0x13
 7895 0229 00       		.byte	0
 7896 022a 00       		.byte	0
 7897 022b 2A       		.uleb128 0x2a
 7898 022c 2E       		.uleb128 0x2e
 7899 022d 01       		.byte	0x1
 7900 022e 3F       		.uleb128 0x3f
 7901 022f 19       		.uleb128 0x19
 7902 0230 03       		.uleb128 0x3
 7903 0231 0E       		.uleb128 0xe
 7904 0232 3A       		.uleb128 0x3a
 7905 0233 0B       		.uleb128 0xb
 7906 0234 3B       		.uleb128 0x3b
 7907 0235 0B       		.uleb128 0xb
 7908 0236 27       		.uleb128 0x27
 7909 0237 19       		.uleb128 0x19
 7910 0238 49       		.uleb128 0x49
 7911 0239 13       		.uleb128 0x13
 7912 023a 11       		.uleb128 0x11
 7913 023b 01       		.uleb128 0x1
 7914 023c 12       		.uleb128 0x12
 7915 023d 06       		.uleb128 0x6
 7916 023e 40       		.uleb128 0x40
 7917 023f 18       		.uleb128 0x18
 7918 0240 9642     		.uleb128 0x2116
 7919 0242 19       		.uleb128 0x19
 7920 0243 01       		.uleb128 0x1
 7921 0244 13       		.uleb128 0x13
 7922 0245 00       		.byte	0
 7923 0246 00       		.byte	0
ARM GAS  C:\Users\PCHAUT~1\AppData\Local\Temp\ccYc6BCi.s 			page 140


 7924 0247 2B       		.uleb128 0x2b
 7925 0248 05       		.uleb128 0x5
 7926 0249 00       		.byte	0
 7927 024a 03       		.uleb128 0x3
 7928 024b 08       		.uleb128 0x8
 7929 024c 3A       		.uleb128 0x3a
 7930 024d 0B       		.uleb128 0xb
 7931 024e 3B       		.uleb128 0x3b
 7932 024f 0B       		.uleb128 0xb
 7933 0250 49       		.uleb128 0x49
 7934 0251 13       		.uleb128 0x13
 7935 0252 02       		.uleb128 0x2
 7936 0253 18       		.uleb128 0x18
 7937 0254 00       		.byte	0
 7938 0255 00       		.byte	0
 7939 0256 2C       		.uleb128 0x2c
 7940 0257 05       		.uleb128 0x5
 7941 0258 00       		.byte	0
 7942 0259 03       		.uleb128 0x3
 7943 025a 0E       		.uleb128 0xe
 7944 025b 3A       		.uleb128 0x3a
 7945 025c 0B       		.uleb128 0xb
 7946 025d 3B       		.uleb128 0x3b
 7947 025e 0B       		.uleb128 0xb
 7948 025f 49       		.uleb128 0x49
 7949 0260 13       		.uleb128 0x13
 7950 0261 02       		.uleb128 0x2
 7951 0262 18       		.uleb128 0x18
 7952 0263 00       		.byte	0
 7953 0264 00       		.byte	0
 7954 0265 2D       		.uleb128 0x2d
 7955 0266 34       		.uleb128 0x34
 7956 0267 00       		.byte	0
 7957 0268 03       		.uleb128 0x3
 7958 0269 0E       		.uleb128 0xe
 7959 026a 3A       		.uleb128 0x3a
 7960 026b 0B       		.uleb128 0xb
 7961 026c 3B       		.uleb128 0x3b
 7962 026d 0B       		.uleb128 0xb
 7963 026e 49       		.uleb128 0x49
 7964 026f 13       		.uleb128 0x13
 7965 0270 02       		.uleb128 0x2
 7966 0271 18       		.uleb128 0x18
 7967 0272 00       		.byte	0
 7968 0273 00       		.byte	0
 7969 0274 00       		.byte	0
 7970              		.section	.debug_aranges,"",%progbits
 7971 0000 CC000000 		.4byte	0xcc
 7972 0004 0200     		.2byte	0x2
 7973 0006 00000000 		.4byte	.Ldebug_info0
 7974 000a 04       		.byte	0x4
 7975 000b 00       		.byte	0
 7976 000c 0000     		.2byte	0
 7977 000e 0000     		.2byte	0
 7978 0010 00000000 		.4byte	.LFB3
 7979 0014 E0010000 		.4byte	.LFE3-.LFB3
 7980 0018 00000000 		.4byte	.LFB4
ARM GAS  C:\Users\PCHAUT~1\AppData\Local\Temp\ccYc6BCi.s 			page 141


 7981 001c 98010000 		.4byte	.LFE4-.LFB4
 7982 0020 00000000 		.4byte	.LFB5
 7983 0024 AC000000 		.4byte	.LFE5-.LFB5
 7984 0028 00000000 		.4byte	.LFB6
 7985 002c A8000000 		.4byte	.LFE6-.LFB6
 7986 0030 00000000 		.4byte	.LFB7
 7987 0034 8C000000 		.4byte	.LFE7-.LFB7
 7988 0038 00000000 		.4byte	.LFB8
 7989 003c E0000000 		.4byte	.LFE8-.LFB8
 7990 0040 00000000 		.4byte	.LFB9
 7991 0044 4C000000 		.4byte	.LFE9-.LFB9
 7992 0048 00000000 		.4byte	.LFB10
 7993 004c 88000000 		.4byte	.LFE10-.LFB10
 7994 0050 00000000 		.4byte	.LFB11
 7995 0054 30010000 		.4byte	.LFE11-.LFB11
 7996 0058 00000000 		.4byte	.LFB12
 7997 005c 40000000 		.4byte	.LFE12-.LFB12
 7998 0060 00000000 		.4byte	.LFB13
 7999 0064 40000000 		.4byte	.LFE13-.LFB13
 8000 0068 00000000 		.4byte	.LFB14
 8001 006c 20010000 		.4byte	.LFE14-.LFB14
 8002 0070 00000000 		.4byte	.LFB15
 8003 0074 E8000000 		.4byte	.LFE15-.LFB15
 8004 0078 00000000 		.4byte	.LFB16
 8005 007c 40040000 		.4byte	.LFE16-.LFB16
 8006 0080 00000000 		.4byte	.LFB17
 8007 0084 64010000 		.4byte	.LFE17-.LFB17
 8008 0088 00000000 		.4byte	.LFB18
 8009 008c D0000000 		.4byte	.LFE18-.LFB18
 8010 0090 00000000 		.4byte	.LFB19
 8011 0094 9C000000 		.4byte	.LFE19-.LFB19
 8012 0098 00000000 		.4byte	.LFB20
 8013 009c 9C010000 		.4byte	.LFE20-.LFB20
 8014 00a0 00000000 		.4byte	.LFB21
 8015 00a4 0C010000 		.4byte	.LFE21-.LFB21
 8016 00a8 00000000 		.4byte	.LFB22
 8017 00ac 04010000 		.4byte	.LFE22-.LFB22
 8018 00b0 00000000 		.4byte	.LFB23
 8019 00b4 A8000000 		.4byte	.LFE23-.LFB23
 8020 00b8 00000000 		.4byte	.LFB24
 8021 00bc 68000000 		.4byte	.LFE24-.LFB24
 8022 00c0 00000000 		.4byte	.LFB25
 8023 00c4 68000000 		.4byte	.LFE25-.LFB25
 8024 00c8 00000000 		.4byte	0
 8025 00cc 00000000 		.4byte	0
 8026              		.section	.debug_ranges,"",%progbits
 8027              	.Ldebug_ranges0:
 8028 0000 00000000 		.4byte	.LFB3
 8029 0004 E0010000 		.4byte	.LFE3
 8030 0008 00000000 		.4byte	.LFB4
 8031 000c 98010000 		.4byte	.LFE4
 8032 0010 00000000 		.4byte	.LFB5
 8033 0014 AC000000 		.4byte	.LFE5
 8034 0018 00000000 		.4byte	.LFB6
 8035 001c A8000000 		.4byte	.LFE6
 8036 0020 00000000 		.4byte	.LFB7
 8037 0024 8C000000 		.4byte	.LFE7
ARM GAS  C:\Users\PCHAUT~1\AppData\Local\Temp\ccYc6BCi.s 			page 142


 8038 0028 00000000 		.4byte	.LFB8
 8039 002c E0000000 		.4byte	.LFE8
 8040 0030 00000000 		.4byte	.LFB9
 8041 0034 4C000000 		.4byte	.LFE9
 8042 0038 00000000 		.4byte	.LFB10
 8043 003c 88000000 		.4byte	.LFE10
 8044 0040 00000000 		.4byte	.LFB11
 8045 0044 30010000 		.4byte	.LFE11
 8046 0048 00000000 		.4byte	.LFB12
 8047 004c 40000000 		.4byte	.LFE12
 8048 0050 00000000 		.4byte	.LFB13
 8049 0054 40000000 		.4byte	.LFE13
 8050 0058 00000000 		.4byte	.LFB14
 8051 005c 20010000 		.4byte	.LFE14
 8052 0060 00000000 		.4byte	.LFB15
 8053 0064 E8000000 		.4byte	.LFE15
 8054 0068 00000000 		.4byte	.LFB16
 8055 006c 40040000 		.4byte	.LFE16
 8056 0070 00000000 		.4byte	.LFB17
 8057 0074 64010000 		.4byte	.LFE17
 8058 0078 00000000 		.4byte	.LFB18
 8059 007c D0000000 		.4byte	.LFE18
 8060 0080 00000000 		.4byte	.LFB19
 8061 0084 9C000000 		.4byte	.LFE19
 8062 0088 00000000 		.4byte	.LFB20
 8063 008c 9C010000 		.4byte	.LFE20
 8064 0090 00000000 		.4byte	.LFB21
 8065 0094 0C010000 		.4byte	.LFE21
 8066 0098 00000000 		.4byte	.LFB22
 8067 009c 04010000 		.4byte	.LFE22
 8068 00a0 00000000 		.4byte	.LFB23
 8069 00a4 A8000000 		.4byte	.LFE23
 8070 00a8 00000000 		.4byte	.LFB24
 8071 00ac 68000000 		.4byte	.LFE24
 8072 00b0 00000000 		.4byte	.LFB25
 8073 00b4 68000000 		.4byte	.LFE25
 8074 00b8 00000000 		.4byte	0
 8075 00bc 00000000 		.4byte	0
 8076              		.section	.debug_line,"",%progbits
 8077              	.Ldebug_line0:
 8078 0000 76080000 		.section	.debug_str,"MS",%progbits,1
 8078      0200C403 
 8078      00000201 
 8078      FB0E0D00 
 8078      01010101 
 8079              	.LASF302:
 8080 0000 7365745F 		.ascii	"set_ref_spad_map\000"
 8080      7265665F 
 8080      73706164 
 8080      5F6D6170 
 8080      00
 8081              	.LASF245:
 8082 0011 564C3533 		.ascii	"VL53L0X_perform_phase_calibration\000"
 8082      4C30585F 
 8082      70657266 
 8082      6F726D5F 
 8082      70686173 
ARM GAS  C:\Users\PCHAUT~1\AppData\Local\Temp\ccYc6BCi.s 			page 143


 8083              	.LASF361:
 8084 0033 7369676E 		.ascii	"signalXTalkTotalPerSpad\000"
 8084      616C5854 
 8084      616C6B54 
 8084      6F74616C 
 8084      50657253 
 8085              	.LASF89:
 8086 004b 52656665 		.ascii	"ReferenceSpadType\000"
 8086      72656E63 
 8086      65537061 
 8086      64547970 
 8086      6500
 8087              	.LASF58:
 8088 005d 5369676E 		.ascii	"SignalRateRtnMegaCps\000"
 8088      616C5261 
 8088      74655274 
 8088      6E4D6567 
 8088      61437073 
 8089              	.LASF131:
 8090 0072 5F6D6178 		.ascii	"_maxwds\000"
 8090      77647300 
 8091              	.LASF92:
 8092 007a 50617274 		.ascii	"PartUIDLower\000"
 8092      5549444C 
 8092      6F776572 
 8092      00
 8093              	.LASF334:
 8094 0087 634D6178 		.ascii	"cMaxOffset\000"
 8094      4F666673 
 8094      657400
 8095              	.LASF160:
 8096 0092 5F636F6F 		.ascii	"_cookie\000"
 8096      6B696500 
 8097              	.LASF29:
 8098 009a 50726F64 		.ascii	"ProductRevisionMajor\000"
 8098      75637452 
 8098      65766973 
 8098      696F6E4D 
 8098      616A6F72 
 8099              	.LASF233:
 8100 00af 564C3533 		.ascii	"VL53L0X_DEV\000"
 8100      4C30585F 
 8100      44455600 
 8101              	.LASF145:
 8102 00bb 5F6F6E5F 		.ascii	"_on_exit_args\000"
 8102      65786974 
 8102      5F617267 
 8102      7300
 8103              	.LASF38:
 8104 00c9 48697374 		.ascii	"HistogramMode\000"
 8104      6F677261 
 8104      6D4D6F64 
 8104      6500
 8105              	.LASF359:
 8106 00d7 7854616C 		.ascii	"xTalkStoredMeanRange\000"
 8106      6B53746F 
 8106      7265644D 
ARM GAS  C:\Users\PCHAUT~1\AppData\Local\Temp\ccYc6BCi.s 			page 144


 8106      65616E52 
 8106      616E6765 
 8107              	.LASF326:
 8108 00ec 64617461 		.ascii	"dataByte\000"
 8108      42797465 
 8108      00
 8109              	.LASF212:
 8110 00f5 5F776374 		.ascii	"_wctomb_state\000"
 8110      6F6D625F 
 8110      73746174 
 8110      6500
 8111              	.LASF230:
 8112 0103 44657669 		.ascii	"DeviceInfo\000"
 8112      6365496E 
 8112      666F00
 8113              	.LASF41:
 8114 010e 5854616C 		.ascii	"XTalkCompensationEnable\000"
 8114      6B436F6D 
 8114      70656E73 
 8114      6174696F 
 8114      6E456E61 
 8115              	.LASF81:
 8116 0126 50726552 		.ascii	"PreRangeVcselPulsePeriod\000"
 8116      616E6765 
 8116      56637365 
 8116      6C50756C 
 8116      73655065 
 8117              	.LASF209:
 8118 013f 5F723438 		.ascii	"_r48\000"
 8118      00
 8119              	.LASF341:
 8120 0144 564C3533 		.ascii	"VL53L0X_perform_offset_calibration\000"
 8120      4C30585F 
 8120      70657266 
 8120      6F726D5F 
 8120      6F666673 
 8121              	.LASF268:
 8122 0167 63757272 		.ascii	"currentSpadIndex\000"
 8122      656E7453 
 8122      70616449 
 8122      6E646578 
 8122      00
 8123              	.LASF136:
 8124 0178 5F5F746D 		.ascii	"__tm_sec\000"
 8124      5F736563 
 8124      00
 8125              	.LASF214:
 8126 0181 5F736967 		.ascii	"_signal_buf\000"
 8126      6E616C5F 
 8126      62756600 
 8127              	.LASF14:
 8128 018d 756E7369 		.ascii	"unsigned int\000"
 8128      676E6564 
 8128      20696E74 
 8128      00
 8129              	.LASF42:
 8130 019a 5854616C 		.ascii	"XTalkCompensationRangeMilliMeter\000"
ARM GAS  C:\Users\PCHAUT~1\AppData\Local\Temp\ccYc6BCi.s 			page 145


 8130      6B436F6D 
 8130      70656E73 
 8130      6174696F 
 8130      6E52616E 
 8131              	.LASF323:
 8132 01bb 6E657874 		.ascii	"next\000"
 8132      00
 8133              	.LASF238:
 8134 01c0 53746174 		.ascii	"Status\000"
 8134      757300
 8135              	.LASF251:
 8136 01c7 72656164 		.ascii	"read_not_write\000"
 8136      5F6E6F74 
 8136      5F777269 
 8136      746500
 8137              	.LASF36:
 8138 01d6 564C3533 		.ascii	"VL53L0X_PowerModes\000"
 8138      4C30585F 
 8138      506F7765 
 8138      724D6F64 
 8138      657300
 8139              	.LASF27:
 8140 01e9 50726F64 		.ascii	"ProductId\000"
 8140      75637449 
 8140      6400
 8141              	.LASF253:
 8142 01f3 70686173 		.ascii	"phase_enable\000"
 8142      655F656E 
 8142      61626C65 
 8142      00
 8143              	.LASF45:
 8144 0200 4C696D69 		.ascii	"LimitChecksEnable\000"
 8144      74436865 
 8144      636B7345 
 8144      6E61626C 
 8144      6500
 8145              	.LASF157:
 8146 0212 5F666C61 		.ascii	"_flags\000"
 8146      677300
 8147              	.LASF273:
 8148 0219 696E6465 		.ascii	"index\000"
 8148      7800
 8149              	.LASF70:
 8150 021f 4572726F 		.ascii	"ErrorStatus\000"
 8150      72537461 
 8150      74757300 
 8151              	.LASF59:
 8152 022b 416D6269 		.ascii	"AmbientRateRtnMegaCps\000"
 8152      656E7452 
 8152      61746552 
 8152      746E4D65 
 8152      67614370 
 8153              	.LASF8:
 8154 0241 5F5F696E 		.ascii	"__int32_t\000"
 8154      7433325F 
 8154      7400
 8155              	.LASF174:
ARM GAS  C:\Users\PCHAUT~1\AppData\Local\Temp\ccYc6BCi.s 			page 146


 8156 024b 5F657272 		.ascii	"_errno\000"
 8156      6E6F00
 8157              	.LASF343:
 8158 0252 704F6666 		.ascii	"pOffsetMicroMeter\000"
 8158      7365744D 
 8158      6963726F 
 8158      4D657465 
 8158      7200
 8159              	.LASF358:
 8160 0264 7854616C 		.ascii	"xTalkStoredMeanSignalRate\000"
 8160      6B53746F 
 8160      7265644D 
 8160      65616E53 
 8160      69676E61 
 8161              	.LASF247:
 8162 027e 56687653 		.ascii	"VhvSettingsint\000"
 8162      65747469 
 8162      6E677369 
 8162      6E7400
 8163              	.LASF303:
 8164 028d 636F756E 		.ascii	"count_enabled_spads\000"
 8164      745F656E 
 8164      61626C65 
 8164      645F7370 
 8164      61647300 
 8165              	.LASF280:
 8166 02a1 6E656564 		.ascii	"needAptSpads\000"
 8166      41707453 
 8166      70616473 
 8166      00
 8167              	.LASF336:
 8168 02ae 564C3533 		.ascii	"VL53L0X_set_offset_calibration_data_micro_meter\000"
 8168      4C30585F 
 8168      7365745F 
 8168      6F666673 
 8168      65745F63 
 8169              	.LASF226:
 8170 02de 5F5F6C6F 		.ascii	"__locale_t\000"
 8170      63616C65 
 8170      5F7400
 8171              	.LASF171:
 8172 02e9 5F6D6273 		.ascii	"_mbstate\000"
 8172      74617465 
 8172      00
 8173              	.LASF161:
 8174 02f2 5F726561 		.ascii	"_read\000"
 8174      6400
 8175              	.LASF320:
 8176 02f8 71756164 		.ascii	"quadrant\000"
 8176      72616E74 
 8176      00
 8177              	.LASF216:
 8178 0301 5F6D6272 		.ascii	"_mbrlen_state\000"
 8178      6C656E5F 
 8178      73746174 
 8178      6500
 8179              	.LASF232:
ARM GAS  C:\Users\PCHAUT~1\AppData\Local\Temp\ccYc6BCi.s 			page 147


 8180 030f 564C3533 		.ascii	"VL53L0X_Dev_t\000"
 8180      4C30585F 
 8180      4465765F 
 8180      7400
 8181              	.LASF48:
 8182 031d 57726170 		.ascii	"WrapAroundCheckEnable\000"
 8182      41726F75 
 8182      6E644368 
 8182      65636B45 
 8182      6E61626C 
 8183              	.LASF106:
 8184 0333 506F7765 		.ascii	"PowerMode\000"
 8184      724D6F64 
 8184      6500
 8185              	.LASF277:
 8186 033d 6D696E69 		.ascii	"minimumSpadCount\000"
 8186      6D756D53 
 8186      70616443 
 8186      6F756E74 
 8186      00
 8187              	.LASF342:
 8188 034e 43616C44 		.ascii	"CalDistanceMilliMeter\000"
 8188      69737461 
 8188      6E63654D 
 8188      696C6C69 
 8188      4D657465 
 8189              	.LASF46:
 8190 0364 4C696D69 		.ascii	"LimitChecksStatus\000"
 8190      74436865 
 8190      636B7353 
 8190      74617475 
 8190      7300
 8191              	.LASF57:
 8192 0376 52616E67 		.ascii	"RangeDMaxMilliMeter\000"
 8192      65444D61 
 8192      784D696C 
 8192      6C694D65 
 8192      74657200 
 8193              	.LASF307:
 8194 038a 70497341 		.ascii	"pIsAperture\000"
 8194      70657274 
 8194      75726500 
 8195              	.LASF121:
 8196 0396 5F66706F 		.ascii	"_fpos_t\000"
 8196      735F7400 
 8197              	.LASF227:
 8198 039e 5F696D70 		.ascii	"_impure_ptr\000"
 8198      7572655F 
 8198      70747200 
 8199              	.LASF152:
 8200 03aa 5F666E73 		.ascii	"_fns\000"
 8200      00
 8201              	.LASF87:
 8202 03af 52657669 		.ascii	"Revision\000"
 8202      73696F6E 
 8202      00
 8203              	.LASF366:
ARM GAS  C:\Users\PCHAUT~1\AppData\Local\Temp\ccYc6BCi.s 			page 148


 8204 03b8 433A5C55 		.ascii	"C:\\Users\\Pchautems\\Documents\\RobotiqueTP\\Proje"
 8204      73657273 
 8204      5C506368 
 8204      61757465 
 8204      6D735C44 
 8205 03e6 745C6D69 		.ascii	"t\\miniprojet\000"
 8205      6E697072 
 8205      6F6A6574 
 8205      00
 8206              	.LASF32:
 8207 03f3 564C3533 		.ascii	"VL53L0X_DeviceInfo_t\000"
 8207      4C30585F 
 8207      44657669 
 8207      6365496E 
 8207      666F5F74 
 8208              	.LASF96:
 8209 0408 50617274 		.ascii	"Part2PartOffsetNVMMicroMeter\000"
 8209      32506172 
 8209      744F6666 
 8209      7365744E 
 8209      564D4D69 
 8210              	.LASF293:
 8211 0425 73706164 		.ascii	"spadArray\000"
 8211      41727261 
 8211      7900
 8212              	.LASF237:
 8213 042f 70506861 		.ascii	"pPhaseCal\000"
 8213      73654361 
 8213      6C00
 8214              	.LASF134:
 8215 0439 5F426967 		.ascii	"_Bigint\000"
 8215      696E7400 
 8216              	.LASF142:
 8217 0441 5F5F746D 		.ascii	"__tm_wday\000"
 8217      5F776461 
 8217      7900
 8218              	.LASF184:
 8219 044b 5F726573 		.ascii	"_result\000"
 8219      756C7400 
 8220              	.LASF22:
 8221 0453 46697850 		.ascii	"FixPoint1616_t\000"
 8221      6F696E74 
 8221      31363136 
 8221      5F7400
 8222              	.LASF94:
 8223 0462 564C3533 		.ascii	"VL53L0X_DeviceSpecificParameters_t\000"
 8223      4C30585F 
 8223      44657669 
 8223      63655370 
 8223      65636966 
 8224              	.LASF20:
 8225 0485 75696E74 		.ascii	"uint32_t\000"
 8225      33325F74 
 8225      00
 8226              	.LASF15:
 8227 048e 696E7438 		.ascii	"int8_t\000"
 8227      5F7400
ARM GAS  C:\Users\PCHAUT~1\AppData\Local\Temp\ccYc6BCi.s 			page 149


 8228              	.LASF138:
 8229 0495 5F5F746D 		.ascii	"__tm_hour\000"
 8229      5F686F75 
 8229      7200
 8230              	.LASF125:
 8231 049f 5F5F636F 		.ascii	"__count\000"
 8231      756E7400 
 8232              	.LASF66:
 8233 04a7 48697374 		.ascii	"HistogramType\000"
 8233      6F677261 
 8233      6D547970 
 8233      6500
 8234              	.LASF256:
 8235 04b5 7668765F 		.ascii	"vhv_init_byte\000"
 8235      696E6974 
 8235      5F627974 
 8235      6500
 8236              	.LASF137:
 8237 04c3 5F5F746D 		.ascii	"__tm_min\000"
 8237      5F6D696E 
 8237      00
 8238              	.LASF49:
 8239 04cc 564C3533 		.ascii	"VL53L0X_DeviceParameters_t\000"
 8239      4C30585F 
 8239      44657669 
 8239      63655061 
 8239      72616D65 
 8240              	.LASF222:
 8241 04e7 5F6E6578 		.ascii	"_nextf\000"
 8241      746600
 8242              	.LASF23:
 8243 04ee 564C3533 		.ascii	"VL53L0X_DeviceError\000"
 8243      4C30585F 
 8243      44657669 
 8243      63654572 
 8243      726F7200 
 8244              	.LASF108:
 8245 0502 74617267 		.ascii	"targetRefRate\000"
 8245      65745265 
 8245      66526174 
 8245      6500
 8246              	.LASF17:
 8247 0510 696E7431 		.ascii	"int16_t\000"
 8247      365F7400 
 8248              	.LASF199:
 8249 0518 5F72616E 		.ascii	"_rand48\000"
 8249      64343800 
 8250              	.LASF30:
 8251 0520 50726F64 		.ascii	"ProductRevisionMinor\000"
 8251      75637452 
 8251      65766973 
 8251      696F6E4D 
 8251      696E6F72 
 8252              	.LASF350:
 8253 0535 53657175 		.ascii	"SequenceStepEnabled\000"
 8253      656E6365 
 8253      53746570 
ARM GAS  C:\Users\PCHAUT~1\AppData\Local\Temp\ccYc6BCi.s 			page 150


 8253      456E6162 
 8253      6C656400 
 8254              	.LASF266:
 8255 0549 564C3533 		.ascii	"VL53L0X_set_reference_spads\000"
 8255      4C30585F 
 8255      7365745F 
 8255      72656665 
 8255      72656E63 
 8256              	.LASF185:
 8257 0565 5F726573 		.ascii	"_result_k\000"
 8257      756C745F 
 8257      6B00
 8258              	.LASF97:
 8259 056f 50617274 		.ascii	"Part2PartOffsetAdjustmentNVMMicroMeter\000"
 8259      32506172 
 8259      744F6666 
 8259      73657441 
 8259      646A7573 
 8260              	.LASF13:
 8261 0596 6C6F6E67 		.ascii	"long long unsigned int\000"
 8261      206C6F6E 
 8261      6720756E 
 8261      7369676E 
 8261      65642069 
 8262              	.LASF51:
 8263 05ad 416D6254 		.ascii	"AmbTuningWindowFactor_K\000"
 8263      756E696E 
 8263      6757696E 
 8263      646F7746 
 8263      6163746F 
 8264              	.LASF205:
 8265 05c5 5F617363 		.ascii	"_asctime_buf\000"
 8265      74696D65 
 8265      5F627566 
 8265      00
 8266              	.LASF156:
 8267 05d2 5F5F7346 		.ascii	"__sFILE\000"
 8267      494C4500 
 8268              	.LASF133:
 8269 05da 5F776473 		.ascii	"_wds\000"
 8269      00
 8270              	.LASF315:
 8271 05df 656E6162 		.ascii	"enable_spad_bit\000"
 8271      6C655F73 
 8271      7061645F 
 8271      62697400 
 8272              	.LASF325:
 8273 05ef 66696E65 		.ascii	"fineOffset\000"
 8273      4F666673 
 8273      657400
 8274              	.LASF276:
 8275 05fa 6C617374 		.ascii	"lastSpadArray\000"
 8275      53706164 
 8275      41727261 
 8275      7900
 8276              	.LASF75:
 8277 0608 4F736346 		.ascii	"OscFrequencyMHz\000"
ARM GAS  C:\Users\PCHAUT~1\AppData\Local\Temp\ccYc6BCi.s 			page 151


 8277      72657175 
 8277      656E6379 
 8277      4D487A00 
 8278              	.LASF312:
 8279 0618 62697449 		.ascii	"bitIndex\000"
 8279      6E646578 
 8279      00
 8280              	.LASF6:
 8281 0621 5F5F7569 		.ascii	"__uint16_t\000"
 8281      6E743136 
 8281      5F7400
 8282              	.LASF195:
 8283 062c 5F5F4649 		.ascii	"__FILE\000"
 8283      4C4500
 8284              	.LASF308:
 8285 0633 63537061 		.ascii	"cSpadsPerByte\000"
 8285      64735065 
 8285      72427974 
 8285      6500
 8286              	.LASF168:
 8287 0641 5F6F6666 		.ascii	"_offset\000"
 8287      73657400 
 8288              	.LASF324:
 8289 0649 73746172 		.ascii	"startIndex\000"
 8289      74496E64 
 8289      657800
 8290              	.LASF319:
 8291 0654 69735F61 		.ascii	"is_aperture\000"
 8291      70657274 
 8291      75726500 
 8292              	.LASF72:
 8293 0660 52656653 		.ascii	"RefSpadEnables\000"
 8293      70616445 
 8293      6E61626C 
 8293      657300
 8294              	.LASF25:
 8295 066f 4E616D65 		.ascii	"Name\000"
 8295      00
 8296              	.LASF113:
 8297 0674 55736549 		.ascii	"UseInternalTuningSettings\000"
 8297      6E746572 
 8297      6E616C54 
 8297      756E696E 
 8297      67536574 
 8298              	.LASF179:
 8299 068e 5F656D65 		.ascii	"_emergency\000"
 8299      7267656E 
 8299      637900
 8300              	.LASF241:
 8301 0699 564C3533 		.ascii	"VL53L0X_get_ref_calibration\000"
 8301      4C30585F 
 8301      6765745F 
 8301      7265665F 
 8301      63616C69 
 8302              	.LASF246:
 8303 06b5 72657374 		.ascii	"restore_config\000"
 8303      6F72655F 
ARM GAS  C:\Users\PCHAUT~1\AppData\Local\Temp\ccYc6BCi.s 			page 152


 8303      636F6E66 
 8303      696700
 8304              	.LASF114:
 8305 06c4 4C696E65 		.ascii	"LinearityCorrectiveGain\000"
 8305      61726974 
 8305      79436F72 
 8305      72656374 
 8305      69766547 
 8306              	.LASF60:
 8307 06dc 45666665 		.ascii	"EffectiveSpadRtnCount\000"
 8307      63746976 
 8307      65537061 
 8307      6452746E 
 8307      436F756E 
 8308              	.LASF269:
 8309 06f2 73746172 		.ascii	"startSelect\000"
 8309      7453656C 
 8309      65637400 
 8310              	.LASF304:
 8311 06fe 62797465 		.ascii	"byteCount\000"
 8311      436F756E 
 8311      7400
 8312              	.LASF311:
 8313 0708 62797465 		.ascii	"byteIndex\000"
 8313      496E6465 
 8313      7800
 8314              	.LASF102:
 8315 0712 53706164 		.ascii	"SpadData\000"
 8315      44617461 
 8315      00
 8316              	.LASF296:
 8317 071b 6F666673 		.ascii	"offset\000"
 8317      657400
 8318              	.LASF40:
 8319 0722 496E7465 		.ascii	"InterMeasurementPeriodMilliSeconds\000"
 8319      724D6561 
 8319      73757265 
 8319      6D656E74 
 8319      50657269 
 8320              	.LASF88:
 8321 0745 52656665 		.ascii	"ReferenceSpadCount\000"
 8321      72656E63 
 8321      65537061 
 8321      64436F75 
 8321      6E7400
 8322              	.LASF234:
 8323 0758 7375626F 		.ascii	"suboptarg\000"
 8323      70746172 
 8323      6700
 8324              	.LASF143:
 8325 0762 5F5F746D 		.ascii	"__tm_yday\000"
 8325      5F796461 
 8325      7900
 8326              	.LASF178:
 8327 076c 5F696E63 		.ascii	"_inc\000"
 8327      00
 8328              	.LASF151:
ARM GAS  C:\Users\PCHAUT~1\AppData\Local\Temp\ccYc6BCi.s 			page 153


 8329 0771 5F696E64 		.ascii	"_ind\000"
 8329      00
 8330              	.LASF347:
 8331 0776 53746F72 		.ascii	"StoredMeanRange\000"
 8331      65644D65 
 8331      616E5261 
 8331      6E676500 
 8332              	.LASF86:
 8333 0786 4D6F6475 		.ascii	"ModuleId\000"
 8333      6C654964 
 8333      00
 8334              	.LASF65:
 8335 078f 48697374 		.ascii	"HistogramData\000"
 8335      6F677261 
 8335      6D446174 
 8335      6100
 8336              	.LASF47:
 8337 079d 4C696D69 		.ascii	"LimitChecksValue\000"
 8337      74436865 
 8337      636B7356 
 8337      616C7565 
 8337      00
 8338              	.LASF367:
 8339 07ae 6765745F 		.ascii	"get_next_good_spad\000"
 8339      6E657874 
 8339      5F676F6F 
 8339      645F7370 
 8339      616400
 8340              	.LASF348:
 8341 07c1 53746F72 		.ascii	"StoredMeanRangeAsInt\000"
 8341      65644D65 
 8341      616E5261 
 8341      6E676541 
 8341      73496E74 
 8342              	.LASF130:
 8343 07d6 5F6E6578 		.ascii	"_next\000"
 8343      7400
 8344              	.LASF353:
 8345 07dc 5854616C 		.ascii	"XTalkCalDistance\000"
 8345      6B43616C 
 8345      44697374 
 8345      616E6365 
 8345      00
 8346              	.LASF218:
 8347 07ed 5F6D6273 		.ascii	"_mbsrtowcs_state\000"
 8347      72746F77 
 8347      63735F73 
 8347      74617465 
 8347      00
 8348              	.LASF264:
 8349 07fe 73706164 		.ascii	"spadsEnabled\000"
 8349      73456E61 
 8349      626C6564 
 8349      00
 8350              	.LASF44:
 8351 080b 52616E67 		.ascii	"RangeOffsetMicroMeters\000"
 8351      654F6666 
ARM GAS  C:\Users\PCHAUT~1\AppData\Local\Temp\ccYc6BCi.s 			page 154


 8351      7365744D 
 8351      6963726F 
 8351      4D657465 
 8352              	.LASF258:
 8353 0822 70537061 		.ascii	"pSpadCount\000"
 8353      64436F75 
 8353      6E7400
 8354              	.LASF328:
 8355 082d 564C3533 		.ascii	"VL53L0X_apply_offset_adjustment\000"
 8355      4C30585F 
 8355      6170706C 
 8355      795F6F66 
 8355      66736574 
 8356              	.LASF115:
 8357 084d 446D6178 		.ascii	"DmaxCalRangeMilliMeter\000"
 8357      43616C52 
 8357      616E6765 
 8357      4D696C6C 
 8357      694D6574 
 8358              	.LASF283:
 8359 0864 636F6D70 		.ascii	"complete\000"
 8359      6C657465 
 8359      00
 8360              	.LASF126:
 8361 086d 5F5F7661 		.ascii	"__value\000"
 8361      6C756500 
 8362              	.LASF83:
 8363 0875 5369676D 		.ascii	"SigmaEstEffPulseWidth\000"
 8363      61457374 
 8363      45666650 
 8363      756C7365 
 8363      57696474 
 8364              	.LASF259:
 8365 088b 70497341 		.ascii	"pIsApertureSpads\000"
 8365      70657274 
 8365      75726553 
 8365      70616473 
 8365      00
 8366              	.LASF186:
 8367 089c 5F703573 		.ascii	"_p5s\000"
 8367      00
 8368              	.LASF267:
 8369 08a1 636F756E 		.ascii	"count\000"
 8369      7400
 8370              	.LASF107:
 8371 08a7 53746F70 		.ascii	"StopVariable\000"
 8371      56617269 
 8371      61626C65 
 8371      00
 8372              	.LASF318:
 8373 08b4 66696E65 		.ascii	"fineIndex\000"
 8373      496E6465 
 8373      7800
 8374              	.LASF95:
 8375 08be 444D6178 		.ascii	"DMaxData\000"
 8375      44617461 
 8375      00
ARM GAS  C:\Users\PCHAUT~1\AppData\Local\Temp\ccYc6BCi.s 			page 155


 8376              	.LASF55:
 8377 08c7 4D656173 		.ascii	"MeasurementTimeUsec\000"
 8377      7572656D 
 8377      656E7454 
 8377      696D6555 
 8377      73656300 
 8378              	.LASF210:
 8379 08db 5F6D626C 		.ascii	"_mblen_state\000"
 8379      656E5F73 
 8379      74617465 
 8379      00
 8380              	.LASF305:
 8381 08e8 6D617853 		.ascii	"maxSpads\000"
 8381      70616473 
 8381      00
 8382              	.LASF31:
 8383 08f1 63686172 		.ascii	"char\000"
 8383      00
 8384              	.LASF139:
 8385 08f6 5F5F746D 		.ascii	"__tm_mday\000"
 8385      5F6D6461 
 8385      7900
 8386              	.LASF192:
 8387 0900 5F736967 		.ascii	"_sig_func\000"
 8387      5F66756E 
 8387      6300
 8388              	.LASF217:
 8389 090a 5F6D6272 		.ascii	"_mbrtowc_state\000"
 8389      746F7763 
 8389      5F737461 
 8389      746500
 8390              	.LASF191:
 8391 0919 5F617465 		.ascii	"_atexit0\000"
 8391      78697430 
 8391      00
 8392              	.LASF236:
 8393 0922 70566876 		.ascii	"pVhvSettings\000"
 8393      53657474 
 8393      696E6773 
 8393      00
 8394              	.LASF85:
 8395 092f 52656164 		.ascii	"ReadDataFromDeviceDone\000"
 8395      44617461 
 8395      46726F6D 
 8395      44657669 
 8395      6365446F 
 8396              	.LASF39:
 8397 0946 4D656173 		.ascii	"MeasurementTimingBudgetMicroSeconds\000"
 8397      7572656D 
 8397      656E7454 
 8397      696D696E 
 8397      67427564 
 8398              	.LASF99:
 8399 096a 4C617374 		.ascii	"LastRangeMeasure\000"
 8399      52616E67 
 8399      654D6561 
 8399      73757265 
ARM GAS  C:\Users\PCHAUT~1\AppData\Local\Temp\ccYc6BCi.s 			page 156


 8399      00
 8400              	.LASF284:
 8401 097b 72656653 		.ascii	"refSpadCount_int\000"
 8401      70616443 
 8401      6F756E74 
 8401      5F696E74 
 8401      00
 8402              	.LASF68:
 8403 098c 42756666 		.ascii	"BufferSize\000"
 8403      65725369 
 8403      7A6500
 8404              	.LASF291:
 8405 0997 61706572 		.ascii	"apertureSpads\000"
 8405      74757265 
 8405      53706164 
 8405      7300
 8406              	.LASF275:
 8407 09a5 72656653 		.ascii	"refSpadCount\000"
 8407      70616443 
 8407      6F756E74 
 8407      00
 8408              	.LASF128:
 8409 09b2 5F666C6F 		.ascii	"_flock_t\000"
 8409      636B5F74 
 8409      00
 8410              	.LASF340:
 8411 09bb 656E636F 		.ascii	"encodedOffsetVal\000"
 8411      6465644F 
 8411      66667365 
 8411      7456616C 
 8411      00
 8412              	.LASF74:
 8413 09cc 564C3533 		.ascii	"VL53L0X_SpadData_t\000"
 8413      4C30585F 
 8413      53706164 
 8413      44617461 
 8413      5F7400
 8414              	.LASF313:
 8415 09df 74656D70 		.ascii	"tempByte\000"
 8415      42797465 
 8415      00
 8416              	.LASF123:
 8417 09e8 5F5F7763 		.ascii	"__wch\000"
 8417      6800
 8418              	.LASF198:
 8419 09ee 5F696F62 		.ascii	"_iobs\000"
 8419      7300
 8420              	.LASF16:
 8421 09f4 75696E74 		.ascii	"uint8_t\000"
 8421      385F7400 
 8422              	.LASF288:
 8423 09fc 73746174 		.ascii	"status\000"
 8423      757300
 8424              	.LASF24:
 8425 0a03 564C3533 		.ascii	"VL53L0X_GpioFunctionality\000"
 8425      4C30585F 
 8425      4770696F 
ARM GAS  C:\Users\PCHAUT~1\AppData\Local\Temp\ccYc6BCi.s 			page 157


 8425      46756E63 
 8425      74696F6E 
 8426              	.LASF327:
 8427 0a1d 73756363 		.ascii	"success\000"
 8427      65737300 
 8428              	.LASF240:
 8429 0a25 50686173 		.ascii	"PhaseCal\000"
 8429      6543616C 
 8429      00
 8430              	.LASF164:
 8431 0a2e 5F636C6F 		.ascii	"_close\000"
 8431      736500
 8432              	.LASF310:
 8433 0a35 6C617374 		.ascii	"lastBit\000"
 8433      42697400 
 8434              	.LASF182:
 8435 0a3d 5F5F7364 		.ascii	"__sdidinit\000"
 8435      6964696E 
 8435      697400
 8436              	.LASF26:
 8437 0a48 54797065 		.ascii	"Type\000"
 8437      00
 8438              	.LASF337:
 8439 0a4d 4F666673 		.ascii	"OffsetCalibrationDataMicroMeter\000"
 8439      65744361 
 8439      6C696272 
 8439      6174696F 
 8439      6E446174 
 8440              	.LASF339:
 8441 0a6d 634D696E 		.ascii	"cMinOffsetMicroMeter\000"
 8441      4F666673 
 8441      65744D69 
 8441      63726F4D 
 8441      65746572 
 8442              	.LASF35:
 8443 0a82 564C3533 		.ascii	"VL53L0X_HistogramModes\000"
 8443      4C30585F 
 8443      48697374 
 8443      6F677261 
 8443      6D4D6F64 
 8444              	.LASF355:
 8445 0a99 73756D5F 		.ascii	"sum_spads\000"
 8445      73706164 
 8445      7300
 8446              	.LASF357:
 8447 0aa3 7874616C 		.ascii	"xtalk_meas\000"
 8447      6B5F6D65 
 8447      617300
 8448              	.LASF175:
 8449 0aae 5F737464 		.ascii	"_stdin\000"
 8449      696E00
 8450              	.LASF207:
 8451 0ab5 5F67616D 		.ascii	"_gamma_signgam\000"
 8451      6D615F73 
 8451      69676E67 
 8451      616D00
 8452              	.LASF63:
ARM GAS  C:\Users\PCHAUT~1\AppData\Local\Temp\ccYc6BCi.s 			page 158


 8453 0ac4 52616E67 		.ascii	"RangeStatus\000"
 8453      65537461 
 8453      74757300 
 8454              	.LASF67:
 8455 0ad0 46697273 		.ascii	"FirstBin\000"
 8455      7442696E 
 8455      00
 8456              	.LASF12:
 8457 0ad9 6C6F6E67 		.ascii	"long long int\000"
 8457      206C6F6E 
 8457      6720696E 
 8457      7400
 8458              	.LASF314:
 8459 0ae7 73706164 		.ascii	"spadTypeIdentified\000"
 8459      54797065 
 8459      4964656E 
 8459      74696669 
 8459      656400
 8460              	.LASF321:
 8461 0afa 69734170 		.ascii	"isAperture\000"
 8461      65727475 
 8461      726500
 8462              	.LASF333:
 8463 0b05 52616E67 		.ascii	"RangeOffsetRegister\000"
 8463      654F6666 
 8463      73657452 
 8463      65676973 
 8463      74657200 
 8464              	.LASF34:
 8465 0b19 564C3533 		.ascii	"VL53L0X_DeviceModes\000"
 8465      4C30585F 
 8465      44657669 
 8465      63654D6F 
 8465      64657300 
 8466              	.LASF154:
 8467 0b2d 5F626173 		.ascii	"_base\000"
 8467      6500
 8468              	.LASF187:
 8469 0b33 5F667265 		.ascii	"_freelist\000"
 8469      656C6973 
 8469      7400
 8470              	.LASF363:
 8471 0b3d 7854616C 		.ascii	"xTalkCalDistanceAsInt\000"
 8471      6B43616C 
 8471      44697374 
 8471      616E6365 
 8471      4173496E 
 8472              	.LASF201:
 8473 0b53 5F6D756C 		.ascii	"_mult\000"
 8473      7400
 8474              	.LASF354:
 8475 0b59 70585461 		.ascii	"pXTalkCompensationRateMegaCps\000"
 8475      6C6B436F 
 8475      6D70656E 
 8475      73617469 
 8475      6F6E5261 
 8476              	.LASF129:
ARM GAS  C:\Users\PCHAUT~1\AppData\Local\Temp\ccYc6BCi.s 			page 159


 8477 0b77 5F5F554C 		.ascii	"__ULong\000"
 8477      6F6E6700 
 8478              	.LASF90:
 8479 0b7f 52656653 		.ascii	"RefSpadsInitialised\000"
 8479      70616473 
 8479      496E6974 
 8479      69616C69 
 8479      73656400 
 8480              	.LASF346:
 8481 0b93 52616E67 		.ascii	"RangingMeasurementData\000"
 8481      696E674D 
 8481      65617375 
 8481      72656D65 
 8481      6E744461 
 8482              	.LASF219:
 8483 0baa 5F776372 		.ascii	"_wcrtomb_state\000"
 8483      746F6D62 
 8483      5F737461 
 8483      746500
 8484              	.LASF301:
 8485 0bb9 6765745F 		.ascii	"get_ref_spad_map\000"
 8485      7265665F 
 8485      73706164 
 8485      5F6D6170 
 8485      00
 8486              	.LASF158:
 8487 0bca 5F66696C 		.ascii	"_file\000"
 8487      6500
 8488              	.LASF345:
 8489 0bd0 746F7461 		.ascii	"total_count\000"
 8489      6C5F636F 
 8489      756E7400 
 8490              	.LASF4:
 8491 0bdc 5F5F696E 		.ascii	"__int16_t\000"
 8491      7431365F 
 8491      7400
 8492              	.LASF349:
 8493 0be6 43616C44 		.ascii	"CalDistanceAsInt_mm\000"
 8493      69737461 
 8493      6E636541 
 8493      73496E74 
 8493      5F6D6D00 
 8494              	.LASF183:
 8495 0bfa 5F5F636C 		.ascii	"__cleanup\000"
 8495      65616E75 
 8495      7000
 8496              	.LASF127:
 8497 0c04 5F6D6273 		.ascii	"_mbstate_t\000"
 8497      74617465 
 8497      5F7400
 8498              	.LASF294:
 8499 0c0f 73697A65 		.ascii	"size\000"
 8499      00
 8500              	.LASF52:
 8501 0c14 52657453 		.ascii	"RetSignalAt0mm\000"
 8501      69676E61 
 8501      6C417430 
ARM GAS  C:\Users\PCHAUT~1\AppData\Local\Temp\ccYc6BCi.s 			page 160


 8501      6D6D00
 8502              	.LASF338:
 8503 0c23 634D6178 		.ascii	"cMaxOffsetMicroMeter\000"
 8503      4F666673 
 8503      65744D69 
 8503      63726F4D 
 8503      65746572 
 8504              	.LASF144:
 8505 0c38 5F5F746D 		.ascii	"__tm_isdst\000"
 8505      5F697364 
 8505      737400
 8506              	.LASF235:
 8507 0c43 72656641 		.ascii	"refArrayQuadrants\000"
 8507      72726179 
 8507      51756164 
 8507      72616E74 
 8507      7300
 8508              	.LASF331:
 8509 0c55 564C3533 		.ascii	"VL53L0X_get_offset_calibration_data_micro_meter\000"
 8509      4C30585F 
 8509      6765745F 
 8509      6F666673 
 8509      65745F63 
 8510              	.LASF248:
 8511 0c85 564C3533 		.ascii	"VL53L0X_perform_vhv_calibration\000"
 8511      4C30585F 
 8511      70657266 
 8511      6F726D5F 
 8511      7668765F 
 8512              	.LASF365:
 8513 0ca5 2E2E2F6C 		.ascii	"../lib/e-puck2_main-processor/src/sensors/VL53L0X/A"
 8513      69622F65 
 8513      2D707563 
 8513      6B325F6D 
 8513      61696E2D 
 8514 0cd8 70692F63 		.ascii	"pi/core/src/vl53l0x_api_calibration.c\000"
 8514      6F72652F 
 8514      7372632F 
 8514      766C3533 
 8514      6C30785F 
 8515              	.LASF220:
 8516 0cfe 5F776373 		.ascii	"_wcsrtombs_state\000"
 8516      72746F6D 
 8516      62735F73 
 8516      74617465 
 8516      00
 8517              	.LASF295:
 8518 0d0f 73746172 		.ascii	"start\000"
 8518      7400
 8519              	.LASF329:
 8520 0d15 436F7272 		.ascii	"CorrectedOffsetMicroMeters\000"
 8520      65637465 
 8520      644F6666 
 8520      7365744D 
 8520      6963726F 
 8521              	.LASF287:
 8522 0d30 72656653 		.ascii	"refSignalRate\000"
ARM GAS  C:\Users\PCHAUT~1\AppData\Local\Temp\ccYc6BCi.s 			page 161


 8522      69676E61 
 8522      6C526174 
 8522      6500
 8523              	.LASF221:
 8524 0d3e 5F685F65 		.ascii	"_h_errno\000"
 8524      72726E6F 
 8524      00
 8525              	.LASF274:
 8526 0d47 564C3533 		.ascii	"VL53L0X_perform_ref_spad_management\000"
 8526      4C30585F 
 8526      70657266 
 8526      6F726D5F 
 8526      7265665F 
 8527              	.LASF254:
 8528 0d6b 50686173 		.ascii	"PhaseCalint\000"
 8528      6543616C 
 8528      696E7400 
 8529              	.LASF270:
 8530 0d77 73706164 		.ascii	"spadArraySize\000"
 8530      41727261 
 8530      7953697A 
 8530      6500
 8531              	.LASF50:
 8532 0d85 564C3533 		.ascii	"VL53L0X_State\000"
 8532      4C30585F 
 8532      53746174 
 8532      6500
 8533              	.LASF53:
 8534 0d93 564C3533 		.ascii	"VL53L0X_DMaxData_t\000"
 8534      4C30585F 
 8534      444D6178 
 8534      44617461 
 8534      5F7400
 8535              	.LASF0:
 8536 0da6 5F5F696E 		.ascii	"__int8_t\000"
 8536      74385F74 
 8536      00
 8537              	.LASF263:
 8538 0daf 63537061 		.ascii	"cSpadArraySize\000"
 8538      64417272 
 8538      61795369 
 8538      7A6500
 8539              	.LASF265:
 8540 0dbe 69734170 		.ascii	"isApertureSpads\000"
 8540      65727475 
 8540      72655370 
 8540      61647300 
 8541              	.LASF140:
 8542 0dce 5F5F746D 		.ascii	"__tm_mon\000"
 8542      5F6D6F6E 
 8542      00
 8543              	.LASF37:
 8544 0dd7 44657669 		.ascii	"DeviceMode\000"
 8544      63654D6F 
 8544      646500
 8545              	.LASF43:
 8546 0de2 5854616C 		.ascii	"XTalkCompensationRateMegaCps\000"
ARM GAS  C:\Users\PCHAUT~1\AppData\Local\Temp\ccYc6BCi.s 			page 162


 8546      6B436F6D 
 8546      70656E73 
 8546      6174696F 
 8546      6E526174 
 8547              	.LASF21:
 8548 0dff 6C6F6E67 		.ascii	"long double\000"
 8548      20646F75 
 8548      626C6500 
 8549              	.LASF356:
 8550 0e0b 73756D5F 		.ascii	"sum_signalRate\000"
 8550      7369676E 
 8550      616C5261 
 8550      746500
 8551              	.LASF119:
 8552 0e1a 5F4C4F43 		.ascii	"_LOCK_T\000"
 8552      4B5F5400 
 8553              	.LASF18:
 8554 0e22 75696E74 		.ascii	"uint16_t\000"
 8554      31365F74 
 8554      00
 8555              	.LASF64:
 8556 0e2b 564C3533 		.ascii	"VL53L0X_RangingMeasurementData_t\000"
 8556      4C30585F 
 8556      52616E67 
 8556      696E674D 
 8556      65617375 
 8557              	.LASF162:
 8558 0e4c 5F777269 		.ascii	"_write\000"
 8558      746500
 8559              	.LASF242:
 8560 0e53 564C3533 		.ascii	"VL53L0X_set_ref_calibration\000"
 8560      4C30585F 
 8560      7365745F 
 8560      7265665F 
 8560      63616C69 
 8561              	.LASF103:
 8562 0e6f 53657175 		.ascii	"SequenceConfig\000"
 8562      656E6365 
 8562      436F6E66 
 8562      696700
 8563              	.LASF150:
 8564 0e7e 5F617465 		.ascii	"_atexit\000"
 8564      78697400 
 8565              	.LASF173:
 8566 0e86 5F726565 		.ascii	"_reent\000"
 8566      6E7400
 8567              	.LASF255:
 8568 0e8d 564C3533 		.ascii	"VL53L0X_perform_single_ref_calibration\000"
 8568      4C30585F 
 8568      70657266 
 8568      6F726D5F 
 8568      73696E67 
 8569              	.LASF252:
 8570 0eb4 7668765F 		.ascii	"vhv_enable\000"
 8570      656E6162 
 8570      6C6500
 8571              	.LASF290:
ARM GAS  C:\Users\PCHAUT~1\AppData\Local\Temp\ccYc6BCi.s 			page 163


 8572 0ebf 656E6162 		.ascii	"enable_ref_spads\000"
 8572      6C655F72 
 8572      65665F73 
 8572      70616473 
 8572      00
 8573              	.LASF5:
 8574 0ed0 73686F72 		.ascii	"short int\000"
 8574      7420696E 
 8574      7400
 8575              	.LASF286:
 8576 0eda 70657266 		.ascii	"perform_ref_signal_measurement\000"
 8576      6F726D5F 
 8576      7265665F 
 8576      7369676E 
 8576      616C5F6D 
 8577              	.LASF309:
 8578 0ef9 6C617374 		.ascii	"lastByte\000"
 8578      42797465 
 8578      00
 8579              	.LASF322:
 8580 0f02 63757272 		.ascii	"curr\000"
 8580      00
 8581              	.LASF9:
 8582 0f07 6C6F6E67 		.ascii	"long int\000"
 8582      20696E74 
 8582      00
 8583              	.LASF91:
 8584 0f10 50617274 		.ascii	"PartUIDUpper\000"
 8584      55494455 
 8584      70706572 
 8584      00
 8585              	.LASF110:
 8586 0f1d 5369676E 		.ascii	"SignalEstimate\000"
 8586      616C4573 
 8586      74696D61 
 8586      746500
 8587              	.LASF231:
 8588 0f2c 49326344 		.ascii	"I2cDevAddr\000"
 8588      65764164 
 8588      647200
 8589              	.LASF194:
 8590 0f37 5F5F7366 		.ascii	"__sf\000"
 8590      00
 8591              	.LASF132:
 8592 0f3c 5F736967 		.ascii	"_sign\000"
 8592      6E00
 8593              	.LASF330:
 8594 0f42 43757272 		.ascii	"CurrentOffsetMicroMeters\000"
 8594      656E744F 
 8594      66667365 
 8594      744D6963 
 8594      726F4D65 
 8595              	.LASF344:
 8596 0f5b 73756D5F 		.ascii	"sum_ranging\000"
 8596      72616E67 
 8596      696E6700 
 8597              	.LASF169:
ARM GAS  C:\Users\PCHAUT~1\AppData\Local\Temp\ccYc6BCi.s 			page 164


 8598 0f67 5F646174 		.ascii	"_data\000"
 8598      6100
 8599              	.LASF111:
 8600 0f6d 4C617374 		.ascii	"LastSignalRefMcps\000"
 8600      5369676E 
 8600      616C5265 
 8600      664D6370 
 8600      7300
 8601              	.LASF124:
 8602 0f7f 5F5F7763 		.ascii	"__wchb\000"
 8602      686200
 8603              	.LASF228:
 8604 0f86 5F676C6F 		.ascii	"_global_impure_ptr\000"
 8604      62616C5F 
 8604      696D7075 
 8604      72655F70 
 8604      747200
 8605              	.LASF78:
 8606 0f99 46696E61 		.ascii	"FinalRangeTimeoutMicroSecs\000"
 8606      6C52616E 
 8606      67655469 
 8606      6D656F75 
 8606      744D6963 
 8607              	.LASF141:
 8608 0fb4 5F5F746D 		.ascii	"__tm_year\000"
 8608      5F796561 
 8608      7200
 8609              	.LASF61:
 8610 0fbe 5A6F6E65 		.ascii	"ZoneId\000"
 8610      496400
 8611              	.LASF206:
 8612 0fc5 5F6C6F63 		.ascii	"_localtime_buf\000"
 8612      616C7469 
 8612      6D655F62 
 8612      756600
 8613              	.LASF244:
 8614 0fd4 6765745F 		.ascii	"get_data_enable\000"
 8614      64617461 
 8614      5F656E61 
 8614      626C6500 
 8615              	.LASF224:
 8616 0fe4 5F756E75 		.ascii	"_unused\000"
 8616      73656400 
 8617              	.LASF1:
 8618 0fec 5F5F7569 		.ascii	"__uint8_t\000"
 8618      6E74385F 
 8618      7400
 8619              	.LASF239:
 8620 0ff6 56687653 		.ascii	"VhvSettings\000"
 8620      65747469 
 8620      6E677300 
 8621              	.LASF250:
 8622 1002 564C3533 		.ascii	"VL53L0X_ref_calibration_io\000"
 8622      4C30585F 
 8622      7265665F 
 8622      63616C69 
 8622      62726174 
ARM GAS  C:\Users\PCHAUT~1\AppData\Local\Temp\ccYc6BCi.s 			page 165


 8623              	.LASF190:
 8624 101d 5F6E6577 		.ascii	"_new\000"
 8624      00
 8625              	.LASF188:
 8626 1022 5F637674 		.ascii	"_cvtlen\000"
 8626      6C656E00 
 8627              	.LASF73:
 8628 102a 52656647 		.ascii	"RefGoodSpadMap\000"
 8628      6F6F6453 
 8628      7061644D 
 8628      617000
 8629              	.LASF213:
 8630 1039 5F6C3634 		.ascii	"_l64a_buf\000"
 8630      615F6275 
 8630      6600
 8631              	.LASF33:
 8632 1043 564C3533 		.ascii	"VL53L0X_Error\000"
 8632      4C30585F 
 8632      4572726F 
 8632      7200
 8633              	.LASF360:
 8634 1051 7854616C 		.ascii	"xTalkStoredMeanRtnSpads\000"
 8634      6B53746F 
 8634      7265644D 
 8634      65616E52 
 8634      746E5370 
 8635              	.LASF306:
 8636 1069 70546F74 		.ascii	"pTotalSpadsEnabled\000"
 8636      616C5370 
 8636      61647345 
 8636      6E61626C 
 8636      656400
 8637              	.LASF167:
 8638 107c 5F626C6B 		.ascii	"_blksize\000"
 8638      73697A65 
 8638      00
 8639              	.LASF135:
 8640 1085 5F5F746D 		.ascii	"__tm\000"
 8640      00
 8641              	.LASF170:
 8642 108a 5F6C6F63 		.ascii	"_lock\000"
 8642      6B00
 8643              	.LASF271:
 8644 1090 6D617853 		.ascii	"maxSpadCount\000"
 8644      70616443 
 8644      6F756E74 
 8644      00
 8645              	.LASF297:
 8646 109d 73706164 		.ascii	"spadCount\000"
 8646      436F756E 
 8646      7400
 8647              	.LASF316:
 8648 10a7 73706164 		.ascii	"spadIndex\000"
 8648      496E6465 
 8648      7800
 8649              	.LASF98:
 8650 10b1 43757272 		.ascii	"CurrentParameters\000"
ARM GAS  C:\Users\PCHAUT~1\AppData\Local\Temp\ccYc6BCi.s 			page 166


 8650      656E7450 
 8650      6172616D 
 8650      65746572 
 8650      7300
 8651              	.LASF11:
 8652 10c3 6C6F6E67 		.ascii	"long unsigned int\000"
 8652      20756E73 
 8652      69676E65 
 8652      6420696E 
 8652      7400
 8653              	.LASF299:
 8654 10d5 63757272 		.ascii	"currentSpad\000"
 8654      656E7453 
 8654      70616400 
 8655              	.LASF364:
 8656 10e1 474E5520 		.ascii	"GNU C11 7.2.1 20170904 (release) [ARM/embedded-7-br"
 8656      43313120 
 8656      372E322E 
 8656      31203230 
 8656      31373039 
 8657 1114 616E6368 		.ascii	"anch revision 255204] -mcpu=cortex-m4 -mfloat-abi=h"
 8657      20726576 
 8657      6973696F 
 8657      6E203235 
 8657      35323034 
 8658 1147 61726420 		.ascii	"ard -mfpu=fpv4-sp-d16 -mno-thumb-interwork -mthumb "
 8658      2D6D6670 
 8658      753D6670 
 8658      76342D73 
 8658      702D6431 
 8659 117a 2D676764 		.ascii	"-ggdb -O0 -fomit-frame-pointer -falign-functions=16"
 8659      62202D4F 
 8659      30202D66 
 8659      6F6D6974 
 8659      2D667261 
 8660 11ad 202D666E 		.ascii	" -fno-strict-aliasing -fstack-protector-all -ffunct"
 8660      6F2D7374 
 8660      72696374 
 8660      2D616C69 
 8660      6173696E 
 8661 11e0 696F6E2D 		.ascii	"ion-sections -fdata-sections -fno-common -fsingle-p"
 8661      73656374 
 8661      696F6E73 
 8661      202D6664 
 8661      6174612D 
 8662 1213 72656369 		.ascii	"recision-constant\000"
 8662      73696F6E 
 8662      2D636F6E 
 8662      7374616E 
 8662      7400
 8663              	.LASF101:
 8664 1225 44657669 		.ascii	"DeviceSpecificParameters\000"
 8664      63655370 
 8664      65636966 
 8664      69635061 
 8664      72616D65 
 8665              	.LASF197:
ARM GAS  C:\Users\PCHAUT~1\AppData\Local\Temp\ccYc6BCi.s 			page 167


 8666 123e 5F6E696F 		.ascii	"_niobs\000"
 8666      627300
 8667              	.LASF122:
 8668 1245 77696E74 		.ascii	"wint_t\000"
 8668      5F7400
 8669              	.LASF112:
 8670 124c 7054756E 		.ascii	"pTuningSettingsPointer\000"
 8670      696E6753 
 8670      65747469 
 8670      6E677350 
 8670      6F696E74 
 8671              	.LASF19:
 8672 1263 696E7433 		.ascii	"int32_t\000"
 8672      325F7400 
 8673              	.LASF147:
 8674 126b 5F64736F 		.ascii	"_dso_handle\000"
 8674      5F68616E 
 8674      646C6500 
 8675              	.LASF281:
 8676 1277 7369676E 		.ascii	"signalRateDiff\000"
 8676      616C5261 
 8676      74654469 
 8676      666600
 8677              	.LASF225:
 8678 1286 5F5F6C6F 		.ascii	"__lock\000"
 8678      636B00
 8679              	.LASF84:
 8680 128d 5369676D 		.ascii	"SigmaEstEffAmbWidth\000"
 8680      61457374 
 8680      45666641 
 8680      6D625769 
 8680      64746800 
 8681              	.LASF300:
 8682 12a1 63686563 		.ascii	"checkSpadArray\000"
 8682      6B537061 
 8682      64417272 
 8682      617900
 8683              	.LASF278:
 8684 12b0 6E657874 		.ascii	"nextGoodSpad\000"
 8684      476F6F64 
 8684      53706164 
 8684      00
 8685              	.LASF176:
 8686 12bd 5F737464 		.ascii	"_stdout\000"
 8686      6F757400 
 8687              	.LASF189:
 8688 12c5 5F637674 		.ascii	"_cvtbuf\000"
 8688      62756600 
 8689              	.LASF261:
 8690 12cd 72656653 		.ascii	"refSpadArray\000"
 8690      70616441 
 8690      72726179 
 8690      00
 8691              	.LASF3:
 8692 12da 756E7369 		.ascii	"unsigned char\000"
 8692      676E6564 
 8692      20636861 
ARM GAS  C:\Users\PCHAUT~1\AppData\Local\Temp\ccYc6BCi.s 			page 168


 8692      7200
 8693              	.LASF69:
 8694 12e8 4E756D62 		.ascii	"NumberOfBins\000"
 8694      65724F66 
 8694      42696E73 
 8694      00
 8695              	.LASF80:
 8696 12f5 50726552 		.ascii	"PreRangeTimeoutMicroSecs\000"
 8696      616E6765 
 8696      54696D65 
 8696      6F75744D 
 8696      6963726F 
 8697              	.LASF10:
 8698 130e 5F5F7569 		.ascii	"__uint32_t\000"
 8698      6E743332 
 8698      5F7400
 8699              	.LASF116:
 8700 1319 446D6178 		.ascii	"DmaxCalSignalRateRtnMegaCps\000"
 8700      43616C53 
 8700      69676E61 
 8700      6C526174 
 8700      6552746E 
 8701              	.LASF79:
 8702 1335 46696E61 		.ascii	"FinalRangeVcselPulsePeriod\000"
 8702      6C52616E 
 8702      67655663 
 8702      73656C50 
 8702      756C7365 
 8703              	.LASF215:
 8704 1350 5F676574 		.ascii	"_getdate_err\000"
 8704      64617465 
 8704      5F657272 
 8704      00
 8705              	.LASF159:
 8706 135d 5F6C6266 		.ascii	"_lbfsize\000"
 8706      73697A65 
 8706      00
 8707              	.LASF282:
 8708 1366 6C617374 		.ascii	"lastSignalRateDiff\000"
 8708      5369676E 
 8708      616C5261 
 8708      74654469 
 8708      666600
 8709              	.LASF117:
 8710 1379 564C3533 		.ascii	"VL53L0X_DevData_t\000"
 8710      4C30585F 
 8710      44657644 
 8710      6174615F 
 8710      7400
 8711              	.LASF148:
 8712 138b 5F666E74 		.ascii	"_fntypes\000"
 8712      79706573 
 8712      00
 8713              	.LASF202:
 8714 1394 5F616464 		.ascii	"_add\000"
 8714      00
 8715              	.LASF279:
ARM GAS  C:\Users\PCHAUT~1\AppData\Local\Temp\ccYc6BCi.s 			page 169


 8716 1399 7065616B 		.ascii	"peakSignalRateRef\000"
 8716      5369676E 
 8716      616C5261 
 8716      74655265 
 8716      6600
 8717              	.LASF260:
 8718 13ab 72656653 		.ascii	"refSpadsInitialised\000"
 8718      70616473 
 8718      496E6974 
 8718      69616C69 
 8718      73656400 
 8719              	.LASF28:
 8720 13bf 50726F64 		.ascii	"ProductType\000"
 8720      75637454 
 8720      79706500 
 8721              	.LASF285:
 8722 13cb 69734170 		.ascii	"isApertureSpads_int\000"
 8722      65727475 
 8722      72655370 
 8722      6164735F 
 8722      696E7400 
 8723              	.LASF153:
 8724 13df 5F5F7362 		.ascii	"__sbuf\000"
 8724      756600
 8725              	.LASF272:
 8726 13e6 6C617374 		.ascii	"lastSpadIndex\000"
 8726      53706164 
 8726      496E6465 
 8726      7800
 8727              	.LASF332:
 8728 13f4 704F6666 		.ascii	"pOffsetCalibrationDataMicroMeter\000"
 8728      73657443 
 8728      616C6962 
 8728      72617469 
 8728      6F6E4461 
 8729              	.LASF77:
 8730 1415 50696E30 		.ascii	"Pin0GpioFunctionality\000"
 8730      4770696F 
 8730      46756E63 
 8730      74696F6E 
 8730      616C6974 
 8731              	.LASF196:
 8732 142b 5F676C75 		.ascii	"_glue\000"
 8732      6500
 8733              	.LASF335:
 8734 1431 634F6666 		.ascii	"cOffsetRange\000"
 8734      73657452 
 8734      616E6765 
 8734      00
 8735              	.LASF298:
 8736 143e 6C617374 		.ascii	"lastSpad\000"
 8736      53706164 
 8736      00
 8737              	.LASF193:
 8738 1447 5F5F7367 		.ascii	"__sglue\000"
 8738      6C756500 
 8739              	.LASF317:
ARM GAS  C:\Users\PCHAUT~1\AppData\Local\Temp\ccYc6BCi.s 			page 170


 8740 144f 636F6172 		.ascii	"coarseIndex\000"
 8740      7365496E 
 8740      64657800 
 8741              	.LASF204:
 8742 145b 5F737472 		.ascii	"_strtok_last\000"
 8742      746F6B5F 
 8742      6C617374 
 8742      00
 8743              	.LASF211:
 8744 1468 5F6D6274 		.ascii	"_mbtowc_state\000"
 8744      6F77635F 
 8744      73746174 
 8744      6500
 8745              	.LASF249:
 8746 1476 50686173 		.ascii	"PhaseCalInt\000"
 8746      6543616C 
 8746      496E7400 
 8747              	.LASF181:
 8748 1482 5F6C6F63 		.ascii	"_locale\000"
 8748      616C6500 
 8749              	.LASF118:
 8750 148a 564C3533 		.ascii	"VL53L0X_VcselPeriod\000"
 8750      4C30585F 
 8750      56637365 
 8750      6C506572 
 8750      696F6400 
 8751              	.LASF146:
 8752 149e 5F666E61 		.ascii	"_fnargs\000"
 8752      72677300 
 8753              	.LASF2:
 8754 14a6 7369676E 		.ascii	"signed char\000"
 8754      65642063 
 8754      68617200 
 8755              	.LASF100:
 8756 14b2 4C617374 		.ascii	"LastHistogramMeasure\000"
 8756      48697374 
 8756      6F677261 
 8756      6D4D6561 
 8756      73757265 
 8757              	.LASF7:
 8758 14c7 73686F72 		.ascii	"short unsigned int\000"
 8758      7420756E 
 8758      7369676E 
 8758      65642069 
 8758      6E7400
 8759              	.LASF104:
 8760 14da 52616E67 		.ascii	"RangeFractionalEnable\000"
 8760      65467261 
 8760      6374696F 
 8760      6E616C45 
 8760      6E61626C 
 8761              	.LASF362:
 8762 14f0 7854616C 		.ascii	"xTalkStoredMeanRtnSpadsAsInt\000"
 8762      6B53746F 
 8762      7265644D 
 8762      65616E52 
 8762      746E5370 
ARM GAS  C:\Users\PCHAUT~1\AppData\Local\Temp\ccYc6BCi.s 			page 171


 8763              	.LASF56:
 8764 150d 52616E67 		.ascii	"RangeMilliMeter\000"
 8764      654D696C 
 8764      6C694D65 
 8764      74657200 
 8765              	.LASF109:
 8766 151d 5369676D 		.ascii	"SigmaEstimate\000"
 8766      61457374 
 8766      696D6174 
 8766      6500
 8767              	.LASF82:
 8768 152b 5369676D 		.ascii	"SigmaEstRefArray\000"
 8768      61457374 
 8768      52656641 
 8768      72726179 
 8768      00
 8769              	.LASF155:
 8770 153c 5F73697A 		.ascii	"_size\000"
 8770      6500
 8771              	.LASF62:
 8772 1542 52616E67 		.ascii	"RangeFractionalPart\000"
 8772      65467261 
 8772      6374696F 
 8772      6E616C50 
 8772      61727400 
 8773              	.LASF289:
 8774 1556 72616E67 		.ascii	"rangingMeasurementData\000"
 8774      696E674D 
 8774      65617375 
 8774      72656D65 
 8774      6E744461 
 8775              	.LASF351:
 8776 156d 6D656173 		.ascii	"meas\000"
 8776      00
 8777              	.LASF120:
 8778 1572 5F6F6666 		.ascii	"_off_t\000"
 8778      5F7400
 8779              	.LASF76:
 8780 1579 4C617374 		.ascii	"LastEncodedTimeout\000"
 8780      456E636F 
 8780      64656454 
 8780      696D656F 
 8780      757400
 8781              	.LASF166:
 8782 158c 5F6E6275 		.ascii	"_nbuf\000"
 8782      6600
 8783              	.LASF203:
 8784 1592 5F756E75 		.ascii	"_unused_rand\000"
 8784      7365645F 
 8784      72616E64 
 8784      00
 8785              	.LASF257:
 8786 159f 564C3533 		.ascii	"VL53L0X_get_reference_spads\000"
 8786      4C30585F 
 8786      6765745F 
 8786      72656665 
 8786      72656E63 
ARM GAS  C:\Users\PCHAUT~1\AppData\Local\Temp\ccYc6BCi.s 			page 172


 8787              	.LASF292:
 8788 15bb 676F6F64 		.ascii	"goodSpadArray\000"
 8788      53706164 
 8788      41727261 
 8788      7900
 8789              	.LASF180:
 8790 15c9 5F756E73 		.ascii	"_unspecified_locale_info\000"
 8790      70656369 
 8790      66696564 
 8790      5F6C6F63 
 8790      616C655F 
 8791              	.LASF172:
 8792 15e2 5F666C61 		.ascii	"_flags2\000"
 8792      67733200 
 8793              	.LASF149:
 8794 15ea 5F69735F 		.ascii	"_is_cxa\000"
 8794      63786100 
 8795              	.LASF105:
 8796 15f2 50616C53 		.ascii	"PalState\000"
 8796      74617465 
 8796      00
 8797              	.LASF54:
 8798 15fb 54696D65 		.ascii	"TimeStamp\000"
 8798      5374616D 
 8798      7000
 8799              	.LASF200:
 8800 1605 5F736565 		.ascii	"_seed\000"
 8800      6400
 8801              	.LASF208:
 8802 160b 5F72616E 		.ascii	"_rand_next\000"
 8802      645F6E65 
 8802      787400
 8803              	.LASF71:
 8804 1616 564C3533 		.ascii	"VL53L0X_HistogramMeasurementData_t\000"
 8804      4C30585F 
 8804      48697374 
 8804      6F677261 
 8804      6D4D6561 
 8805              	.LASF229:
 8806 1639 44617461 		.ascii	"Data\000"
 8806      00
 8807              	.LASF163:
 8808 163e 5F736565 		.ascii	"_seek\000"
 8808      6B00
 8809              	.LASF262:
 8810 1644 634D6178 		.ascii	"cMaxSpadCount\000"
 8810      53706164 
 8810      436F756E 
 8810      7400
 8811              	.LASF177:
 8812 1652 5F737464 		.ascii	"_stderr\000"
 8812      65727200 
 8813              	.LASF223:
 8814 165a 5F6E6D61 		.ascii	"_nmalloc\000"
 8814      6C6C6F63 
 8814      00
 8815              	.LASF165:
ARM GAS  C:\Users\PCHAUT~1\AppData\Local\Temp\ccYc6BCi.s 			page 173


 8816 1663 5F756275 		.ascii	"_ubuf\000"
 8816      6600
 8817              	.LASF352:
 8818 1669 564C3533 		.ascii	"VL53L0X_perform_xtalk_calibration\000"
 8818      4C30585F 
 8818      70657266 
 8818      6F726D5F 
 8818      7874616C 
 8819              	.LASF93:
 8820 168b 5369676E 		.ascii	"SignalRateMeasFixed400mm\000"
 8820      616C5261 
 8820      74654D65 
 8820      61734669 
 8820      78656434 
 8821              	.LASF243:
 8822 16a4 564C3533 		.ascii	"VL53L0X_perform_ref_calibration\000"
 8822      4C30585F 
 8822      70657266 
 8822      6F726D5F 
 8822      7265665F 
 8823              		.ident	"GCC: (GNU Tools for Arm Embedded Processors 7-2017-q4-major) 7.2.1 20170904 (release) [ARM
ARM GAS  C:\Users\PCHAUT~1\AppData\Local\Temp\ccYc6BCi.s 			page 174


DEFINED SYMBOLS
                            *ABS*:00000000 vl53l0x_api_calibration.c
C:\Users\PCHAUT~1\AppData\Local\Temp\ccYc6BCi.s:22     .data.refArrayQuadrants:00000000 refArrayQuadrants
C:\Users\PCHAUT~1\AppData\Local\Temp\ccYc6BCi.s:19     .data.refArrayQuadrants:00000000 $d
C:\Users\PCHAUT~1\AppData\Local\Temp\ccYc6BCi.s:28     .text.VL53L0X_perform_xtalk_calibration:00000000 $t
C:\Users\PCHAUT~1\AppData\Local\Temp\ccYc6BCi.s:36     .text.VL53L0X_perform_xtalk_calibration:00000000 VL53L0X_perform_xtalk_calibration
C:\Users\PCHAUT~1\AppData\Local\Temp\ccYc6BCi.s:311    .text.VL53L0X_perform_xtalk_calibration:000001dc $d
C:\Users\PCHAUT~1\AppData\Local\Temp\ccYc6BCi.s:316    .text.VL53L0X_perform_offset_calibration:00000000 $t
C:\Users\PCHAUT~1\AppData\Local\Temp\ccYc6BCi.s:324    .text.VL53L0X_perform_offset_calibration:00000000 VL53L0X_perform_offset_calibration
C:\Users\PCHAUT~1\AppData\Local\Temp\ccYc6BCi.s:557    .text.VL53L0X_perform_offset_calibration:00000194 $d
C:\Users\PCHAUT~1\AppData\Local\Temp\ccYc6BCi.s:562    .text.VL53L0X_set_offset_calibration_data_micro_meter:00000000 $t
C:\Users\PCHAUT~1\AppData\Local\Temp\ccYc6BCi.s:570    .text.VL53L0X_set_offset_calibration_data_micro_meter:00000000 VL53L0X_set_offset_calibration_data_micro_meter
C:\Users\PCHAUT~1\AppData\Local\Temp\ccYc6BCi.s:674    .text.VL53L0X_set_offset_calibration_data_micro_meter:0000009c $d
C:\Users\PCHAUT~1\AppData\Local\Temp\ccYc6BCi.s:682    .text.VL53L0X_get_offset_calibration_data_micro_meter:00000000 $t
C:\Users\PCHAUT~1\AppData\Local\Temp\ccYc6BCi.s:690    .text.VL53L0X_get_offset_calibration_data_micro_meter:00000000 VL53L0X_get_offset_calibration_data_micro_meter
C:\Users\PCHAUT~1\AppData\Local\Temp\ccYc6BCi.s:782    .text.VL53L0X_get_offset_calibration_data_micro_meter:000000a4 $d
C:\Users\PCHAUT~1\AppData\Local\Temp\ccYc6BCi.s:787    .text.VL53L0X_apply_offset_adjustment:00000000 $t
C:\Users\PCHAUT~1\AppData\Local\Temp\ccYc6BCi.s:795    .text.VL53L0X_apply_offset_adjustment:00000000 VL53L0X_apply_offset_adjustment
C:\Users\PCHAUT~1\AppData\Local\Temp\ccYc6BCi.s:880    .text.VL53L0X_apply_offset_adjustment:00000088 $d
C:\Users\PCHAUT~1\AppData\Local\Temp\ccYc6BCi.s:885    .text.get_next_good_spad:00000000 $t
C:\Users\PCHAUT~1\AppData\Local\Temp\ccYc6BCi.s:893    .text.get_next_good_spad:00000000 get_next_good_spad
C:\Users\PCHAUT~1\AppData\Local\Temp\ccYc6BCi.s:1031   .text.get_next_good_spad:000000dc $d
C:\Users\PCHAUT~1\AppData\Local\Temp\ccYc6BCi.s:1036   .text.is_aperture:00000000 $t
C:\Users\PCHAUT~1\AppData\Local\Temp\ccYc6BCi.s:1044   .text.is_aperture:00000000 is_aperture
C:\Users\PCHAUT~1\AppData\Local\Temp\ccYc6BCi.s:1095   .text.is_aperture:00000044 $d
C:\Users\PCHAUT~1\AppData\Local\Temp\ccYc6BCi.s:1101   .text.enable_spad_bit:00000000 $t
C:\Users\PCHAUT~1\AppData\Local\Temp\ccYc6BCi.s:1109   .text.enable_spad_bit:00000000 enable_spad_bit
C:\Users\PCHAUT~1\AppData\Local\Temp\ccYc6BCi.s:1192   .text.enable_spad_bit:00000084 $d
C:\Users\PCHAUT~1\AppData\Local\Temp\ccYc6BCi.s:1197   .text.count_enabled_spads:00000000 $t
C:\Users\PCHAUT~1\AppData\Local\Temp\ccYc6BCi.s:1205   .text.count_enabled_spads:00000000 count_enabled_spads
C:\Users\PCHAUT~1\AppData\Local\Temp\ccYc6BCi.s:1395   .text.count_enabled_spads:0000012c $d
C:\Users\PCHAUT~1\AppData\Local\Temp\ccYc6BCi.s:1400   .text.set_ref_spad_map:00000000 $t
C:\Users\PCHAUT~1\AppData\Local\Temp\ccYc6BCi.s:1408   .text.set_ref_spad_map:00000000 set_ref_spad_map
C:\Users\PCHAUT~1\AppData\Local\Temp\ccYc6BCi.s:1451   .text.set_ref_spad_map:0000003c $d
C:\Users\PCHAUT~1\AppData\Local\Temp\ccYc6BCi.s:1456   .text.get_ref_spad_map:00000000 $t
C:\Users\PCHAUT~1\AppData\Local\Temp\ccYc6BCi.s:1464   .text.get_ref_spad_map:00000000 get_ref_spad_map
C:\Users\PCHAUT~1\AppData\Local\Temp\ccYc6BCi.s:1507   .text.get_ref_spad_map:0000003c $d
C:\Users\PCHAUT~1\AppData\Local\Temp\ccYc6BCi.s:1512   .text.enable_ref_spads:00000000 $t
C:\Users\PCHAUT~1\AppData\Local\Temp\ccYc6BCi.s:1520   .text.enable_ref_spads:00000000 enable_ref_spads
C:\Users\PCHAUT~1\AppData\Local\Temp\ccYc6BCi.s:1699   .text.enable_ref_spads:0000011c $d
C:\Users\PCHAUT~1\AppData\Local\Temp\ccYc6BCi.s:1704   .text.perform_ref_signal_measurement:00000000 $t
C:\Users\PCHAUT~1\AppData\Local\Temp\ccYc6BCi.s:1712   .text.perform_ref_signal_measurement:00000000 perform_ref_signal_measurement
C:\Users\PCHAUT~1\AppData\Local\Temp\ccYc6BCi.s:1838   .text.perform_ref_signal_measurement:000000e4 $d
C:\Users\PCHAUT~1\AppData\Local\Temp\ccYc6BCi.s:1843   .text.VL53L0X_perform_ref_spad_management:00000000 $t
C:\Users\PCHAUT~1\AppData\Local\Temp\ccYc6BCi.s:1851   .text.VL53L0X_perform_ref_spad_management:00000000 VL53L0X_perform_ref_spad_management
C:\Users\PCHAUT~1\AppData\Local\Temp\ccYc6BCi.s:3415   .text.VL53L0X_perform_ref_calibration:00000000 VL53L0X_perform_ref_calibration
C:\Users\PCHAUT~1\AppData\Local\Temp\ccYc6BCi.s:2268   .text.VL53L0X_perform_ref_spad_management:000002ec $d
C:\Users\PCHAUT~1\AppData\Local\Temp\ccYc6BCi.s:2271   .text.VL53L0X_perform_ref_spad_management:000002f0 $t
C:\Users\PCHAUT~1\AppData\Local\Temp\ccYc6BCi.s:2452   .text.VL53L0X_perform_ref_spad_management:0000043c $d
C:\Users\PCHAUT~1\AppData\Local\Temp\ccYc6BCi.s:2457   .text.VL53L0X_set_reference_spads:00000000 $t
C:\Users\PCHAUT~1\AppData\Local\Temp\ccYc6BCi.s:2465   .text.VL53L0X_set_reference_spads:00000000 VL53L0X_set_reference_spads
C:\Users\PCHAUT~1\AppData\Local\Temp\ccYc6BCi.s:2665   .text.VL53L0X_set_reference_spads:00000160 $d
C:\Users\PCHAUT~1\AppData\Local\Temp\ccYc6BCi.s:2670   .text.VL53L0X_get_reference_spads:00000000 $t
C:\Users\PCHAUT~1\AppData\Local\Temp\ccYc6BCi.s:2678   .text.VL53L0X_get_reference_spads:00000000 VL53L0X_get_reference_spads
C:\Users\PCHAUT~1\AppData\Local\Temp\ccYc6BCi.s:2795   .text.VL53L0X_get_reference_spads:000000cc $d
C:\Users\PCHAUT~1\AppData\Local\Temp\ccYc6BCi.s:2800   .text.VL53L0X_perform_single_ref_calibration:00000000 $t
C:\Users\PCHAUT~1\AppData\Local\Temp\ccYc6BCi.s:2808   .text.VL53L0X_perform_single_ref_calibration:00000000 VL53L0X_perform_single_ref_calibration
ARM GAS  C:\Users\PCHAUT~1\AppData\Local\Temp\ccYc6BCi.s 			page 175


C:\Users\PCHAUT~1\AppData\Local\Temp\ccYc6BCi.s:2895   .text.VL53L0X_perform_single_ref_calibration:00000098 $d
C:\Users\PCHAUT~1\AppData\Local\Temp\ccYc6BCi.s:2900   .text.VL53L0X_ref_calibration_io:00000000 $t
C:\Users\PCHAUT~1\AppData\Local\Temp\ccYc6BCi.s:2908   .text.VL53L0X_ref_calibration_io:00000000 VL53L0X_ref_calibration_io
C:\Users\PCHAUT~1\AppData\Local\Temp\ccYc6BCi.s:3099   .text.VL53L0X_ref_calibration_io:00000198 $d
C:\Users\PCHAUT~1\AppData\Local\Temp\ccYc6BCi.s:3104   .text.VL53L0X_perform_vhv_calibration:00000000 $t
C:\Users\PCHAUT~1\AppData\Local\Temp\ccYc6BCi.s:3112   .text.VL53L0X_perform_vhv_calibration:00000000 VL53L0X_perform_vhv_calibration
C:\Users\PCHAUT~1\AppData\Local\Temp\ccYc6BCi.s:3252   .text.VL53L0X_perform_vhv_calibration:00000108 $d
C:\Users\PCHAUT~1\AppData\Local\Temp\ccYc6BCi.s:3257   .text.VL53L0X_perform_phase_calibration:00000000 $t
C:\Users\PCHAUT~1\AppData\Local\Temp\ccYc6BCi.s:3265   .text.VL53L0X_perform_phase_calibration:00000000 VL53L0X_perform_phase_calibration
C:\Users\PCHAUT~1\AppData\Local\Temp\ccYc6BCi.s:3402   .text.VL53L0X_perform_phase_calibration:00000100 $d
C:\Users\PCHAUT~1\AppData\Local\Temp\ccYc6BCi.s:3407   .text.VL53L0X_perform_ref_calibration:00000000 $t
C:\Users\PCHAUT~1\AppData\Local\Temp\ccYc6BCi.s:3504   .text.VL53L0X_perform_ref_calibration:000000a4 $d
C:\Users\PCHAUT~1\AppData\Local\Temp\ccYc6BCi.s:3509   .text.VL53L0X_set_ref_calibration:00000000 $t
C:\Users\PCHAUT~1\AppData\Local\Temp\ccYc6BCi.s:3517   .text.VL53L0X_set_ref_calibration:00000000 VL53L0X_set_ref_calibration
C:\Users\PCHAUT~1\AppData\Local\Temp\ccYc6BCi.s:3575   .text.VL53L0X_set_ref_calibration:00000064 $d
C:\Users\PCHAUT~1\AppData\Local\Temp\ccYc6BCi.s:3580   .text.VL53L0X_get_ref_calibration:00000000 $t
C:\Users\PCHAUT~1\AppData\Local\Temp\ccYc6BCi.s:3588   .text.VL53L0X_get_ref_calibration:00000000 VL53L0X_get_ref_calibration
C:\Users\PCHAUT~1\AppData\Local\Temp\ccYc6BCi.s:3650   .text.VL53L0X_get_ref_calibration:00000064 $d

UNDEFINED SYMBOLS
VL53L0X_SetXTalkCompensationEnable
VL53L0X_SetLimitCheckEnable
VL53L0X_PerformSingleRangingMeasurement
VL53L0X_SetXTalkCompensationRateMegaCps
__stack_chk_fail
__stack_chk_guard
VL53L0X_SetOffsetCalibrationDataMicroMeter
VL53L0X_GetSequenceStepEnable
VL53L0X_SetSequenceStepEnable
VL53L0X_WrWord
VL53L0X_RdWord
VL53L0X_get_info_from_device
VL53L0X_GetOffsetCalibrationDataMicroMeter
VL53L0X_WriteMulti
VL53L0X_ReadMulti
VL53L0X_WrByte
memcpy
VL53L0X_measurement_poll_for_completion
VL53L0X_ClearInterruptMask
VL53L0X_RdByte
VL53L0X_UpdateByte
