ARM GAS  C:\Users\PCHAUT~1\AppData\Local\Temp\ccgoQRgJ.s 			page 1


   1              		.cpu cortex-m4
   2              		.eabi_attribute 27, 1
   3              		.eabi_attribute 28, 1
   4              		.eabi_attribute 20, 1
   5              		.eabi_attribute 21, 1
   6              		.eabi_attribute 23, 3
   7              		.eabi_attribute 24, 1
   8              		.eabi_attribute 25, 1
   9              		.eabi_attribute 26, 1
  10              		.eabi_attribute 30, 6
  11              		.eabi_attribute 34, 1
  12              		.eabi_attribute 18, 4
  13              		.file	"vl53l0x_api_core.c"
  14              		.text
  15              	.Ltext0:
  16              		.cfi_sections	.debug_frame
  17              		.section	.text.VL53L0X_reverse_bytes,"ax",%progbits
  18              		.align	1
  19              		.p2align 4,,15
  20              		.global	VL53L0X_reverse_bytes
  21              		.syntax unified
  22              		.thumb
  23              		.thumb_func
  24              		.fpu fpv4-sp-d16
  25              		.type	VL53L0X_reverse_bytes, %function
  26              	VL53L0X_reverse_bytes:
  27              	.LFB3:
  28              		.file 1 "../lib/e-puck2_main-processor/src/sensors/VL53L0X/Api/core/src/vl53l0x_api_core.c"
  29              		.loc 1 45 0
  30              		.cfi_startproc
  31              		@ args = 0, pretend = 0, frame = 32
  32              		@ frame_needed = 0, uses_anonymous_args = 0
  33 0000 00B5     		push	{lr}
  34              		.cfi_def_cfa_offset 4
  35              		.cfi_offset 14, -4
  36 0002 89B0     		sub	sp, sp, #36
  37              		.cfi_def_cfa_offset 40
  38 0004 0190     		str	r0, [sp, #4]
  39 0006 0091     		str	r1, [sp]
  40              		.loc 1 45 0
  41 0008 1C4B     		ldr	r3, .L6
  42 000a 1B68     		ldr	r3, [r3]
  43 000c 0793     		str	r3, [sp, #28]
  44              		.loc 1 46 0
  45 000e 0023     		movs	r3, #0
  46 0010 8DF80E30 		strb	r3, [sp, #14]
  47              		.loc 1 49 0
  48 0014 009B     		ldr	r3, [sp]
  49 0016 5B08     		lsrs	r3, r3, #1
  50 0018 0593     		str	r3, [sp, #20]
  51              		.loc 1 52 0
  52 001a 0023     		movs	r3, #0
  53 001c 0493     		str	r3, [sp, #16]
  54 001e 1BE0     		b	.L2
  55              	.L3:
  56              		.loc 1 53 0 discriminator 3
  57 0020 009A     		ldr	r2, [sp]
ARM GAS  C:\Users\PCHAUT~1\AppData\Local\Temp\ccgoQRgJ.s 			page 2


  58 0022 049B     		ldr	r3, [sp, #16]
  59 0024 D31A     		subs	r3, r2, r3
  60 0026 013B     		subs	r3, r3, #1
  61 0028 0693     		str	r3, [sp, #24]
  62              		.loc 1 54 0 discriminator 3
  63 002a 019A     		ldr	r2, [sp, #4]
  64 002c 049B     		ldr	r3, [sp, #16]
  65 002e 1344     		add	r3, r3, r2
  66 0030 1B78     		ldrb	r3, [r3]
  67 0032 8DF80F30 		strb	r3, [sp, #15]
  68              		.loc 1 55 0 discriminator 3
  69 0036 019A     		ldr	r2, [sp, #4]
  70 0038 069B     		ldr	r3, [sp, #24]
  71 003a 1A44     		add	r2, r2, r3
  72 003c 0199     		ldr	r1, [sp, #4]
  73 003e 049B     		ldr	r3, [sp, #16]
  74 0040 0B44     		add	r3, r3, r1
  75 0042 1278     		ldrb	r2, [r2]	@ zero_extendqisi2
  76 0044 1A70     		strb	r2, [r3]
  77              		.loc 1 56 0 discriminator 3
  78 0046 019A     		ldr	r2, [sp, #4]
  79 0048 069B     		ldr	r3, [sp, #24]
  80 004a 1344     		add	r3, r3, r2
  81 004c 9DF80F20 		ldrb	r2, [sp, #15]
  82 0050 1A70     		strb	r2, [r3]
  83              		.loc 1 52 0 discriminator 3
  84 0052 049B     		ldr	r3, [sp, #16]
  85 0054 0133     		adds	r3, r3, #1
  86 0056 0493     		str	r3, [sp, #16]
  87              	.L2:
  88              		.loc 1 52 0 is_stmt 0 discriminator 1
  89 0058 049A     		ldr	r2, [sp, #16]
  90 005a 059B     		ldr	r3, [sp, #20]
  91 005c 9A42     		cmp	r2, r3
  92 005e DFD3     		bcc	.L3
  93              		.loc 1 58 0 is_stmt 1
  94 0060 9DF90E30 		ldrsb	r3, [sp, #14]
  95              		.loc 1 59 0
  96 0064 1846     		mov	r0, r3
  97 0066 054B     		ldr	r3, .L6
  98 0068 079A     		ldr	r2, [sp, #28]
  99 006a 1B68     		ldr	r3, [r3]
 100 006c 9A42     		cmp	r2, r3
 101 006e 01D0     		beq	.L5
 102 0070 FFF7FEFF 		bl	__stack_chk_fail
 103              	.L5:
 104 0074 09B0     		add	sp, sp, #36
 105              		.cfi_def_cfa_offset 4
 106              		@ sp needed
 107 0076 5DF804FB 		ldr	pc, [sp], #4
 108              	.L7:
 109 007a 00BF     		.align	2
 110              	.L6:
 111 007c 00000000 		.word	__stack_chk_guard
 112              		.cfi_endproc
 113              	.LFE3:
 114              		.size	VL53L0X_reverse_bytes, .-VL53L0X_reverse_bytes
ARM GAS  C:\Users\PCHAUT~1\AppData\Local\Temp\ccgoQRgJ.s 			page 3


 115              		.section	.text.VL53L0X_measurement_poll_for_completion,"ax",%progbits
 116              		.align	1
 117              		.p2align 4,,15
 118              		.global	VL53L0X_measurement_poll_for_completion
 119              		.syntax unified
 120              		.thumb
 121              		.thumb_func
 122              		.fpu fpv4-sp-d16
 123              		.type	VL53L0X_measurement_poll_for_completion, %function
 124              	VL53L0X_measurement_poll_for_completion:
 125              	.LFB4:
 126              		.loc 1 62 0
 127              		.cfi_startproc
 128              		@ args = 0, pretend = 0, frame = 24
 129              		@ frame_needed = 0, uses_anonymous_args = 0
 130 0000 00B5     		push	{lr}
 131              		.cfi_def_cfa_offset 4
 132              		.cfi_offset 14, -4
 133 0002 87B0     		sub	sp, sp, #28
 134              		.cfi_def_cfa_offset 32
 135 0004 0190     		str	r0, [sp, #4]
 136              		.loc 1 62 0
 137 0006 1D4B     		ldr	r3, .L18
 138 0008 1B68     		ldr	r3, [r3]
 139 000a 0593     		str	r3, [sp, #20]
 140              		.loc 1 63 0
 141 000c 0023     		movs	r3, #0
 142 000e 8DF80F30 		strb	r3, [sp, #15]
 143              		.loc 1 64 0
 144 0012 0023     		movs	r3, #0
 145 0014 8DF80E30 		strb	r3, [sp, #14]
 146              		.loc 1 69 0
 147 0018 0023     		movs	r3, #0
 148 001a 0493     		str	r3, [sp, #16]
 149              	.L13:
 150              		.loc 1 72 0
 151 001c 0DF10E03 		add	r3, sp, #14
 152 0020 1946     		mov	r1, r3
 153 0022 0198     		ldr	r0, [sp, #4]
 154 0024 FFF7FEFF 		bl	VL53L0X_GetMeasurementDataReady
 155 0028 0346     		mov	r3, r0
 156 002a 8DF80F30 		strb	r3, [sp, #15]
 157              		.loc 1 73 0
 158 002e 9DF90F30 		ldrsb	r3, [sp, #15]
 159 0032 002B     		cmp	r3, #0
 160 0034 12D1     		bne	.L16
 161              		.loc 1 76 0
 162 0036 9DF80E30 		ldrb	r3, [sp, #14]	@ zero_extendqisi2
 163 003a 012B     		cmp	r3, #1
 164 003c 10D0     		beq	.L17
 165              		.loc 1 79 0
 166 003e 049B     		ldr	r3, [sp, #16]
 167 0040 0133     		adds	r3, r3, #1
 168 0042 0493     		str	r3, [sp, #16]
 169              		.loc 1 80 0
 170 0044 049B     		ldr	r3, [sp, #16]
 171 0046 B3F5FA6F 		cmp	r3, #2000
ARM GAS  C:\Users\PCHAUT~1\AppData\Local\Temp\ccgoQRgJ.s 			page 4


 172 004a 03D3     		bcc	.L12
 173              		.loc 1 81 0
 174 004c F923     		movs	r3, #249
 175 004e 8DF80F30 		strb	r3, [sp, #15]
 176              		.loc 1 82 0
 177 0052 06E0     		b	.L10
 178              	.L12:
 179              		.loc 1 85 0
 180 0054 0198     		ldr	r0, [sp, #4]
 181 0056 FFF7FEFF 		bl	VL53L0X_PollingDelay
 182              		.loc 1 72 0
 183 005a DFE7     		b	.L13
 184              	.L16:
 185              		.loc 1 74 0
 186 005c 00BF     		nop
 187 005e 00E0     		b	.L10
 188              	.L17:
 189              		.loc 1 77 0
 190 0060 00BF     		nop
 191              	.L10:
 192              		.loc 1 90 0
 193 0062 9DF90F30 		ldrsb	r3, [sp, #15]
 194              		.loc 1 91 0
 195 0066 1846     		mov	r0, r3
 196 0068 044B     		ldr	r3, .L18
 197 006a 059A     		ldr	r2, [sp, #20]
 198 006c 1B68     		ldr	r3, [r3]
 199 006e 9A42     		cmp	r2, r3
 200 0070 01D0     		beq	.L15
 201 0072 FFF7FEFF 		bl	__stack_chk_fail
 202              	.L15:
 203 0076 07B0     		add	sp, sp, #28
 204              		.cfi_def_cfa_offset 4
 205              		@ sp needed
 206 0078 5DF804FB 		ldr	pc, [sp], #4
 207              	.L19:
 208              		.align	2
 209              	.L18:
 210 007c 00000000 		.word	__stack_chk_guard
 211              		.cfi_endproc
 212              	.LFE4:
 213              		.size	VL53L0X_measurement_poll_for_completion, .-VL53L0X_measurement_poll_for_completion
 214              		.section	.text.VL53L0X_decode_vcsel_period,"ax",%progbits
 215              		.align	1
 216              		.p2align 4,,15
 217              		.global	VL53L0X_decode_vcsel_period
 218              		.syntax unified
 219              		.thumb
 220              		.thumb_func
 221              		.fpu fpv4-sp-d16
 222              		.type	VL53L0X_decode_vcsel_period, %function
 223              	VL53L0X_decode_vcsel_period:
 224              	.LFB5:
 225              		.loc 1 95 0
 226              		.cfi_startproc
 227              		@ args = 0, pretend = 0, frame = 16
 228              		@ frame_needed = 0, uses_anonymous_args = 0
ARM GAS  C:\Users\PCHAUT~1\AppData\Local\Temp\ccgoQRgJ.s 			page 5


 229 0000 00B5     		push	{lr}
 230              		.cfi_def_cfa_offset 4
 231              		.cfi_offset 14, -4
 232 0002 85B0     		sub	sp, sp, #20
 233              		.cfi_def_cfa_offset 24
 234 0004 0346     		mov	r3, r0
 235 0006 8DF80730 		strb	r3, [sp, #7]
 236              		.loc 1 95 0
 237 000a 0D4B     		ldr	r3, .L23
 238 000c 1B68     		ldr	r3, [r3]
 239 000e 0393     		str	r3, [sp, #12]
 240              		.loc 1 101 0
 241 0010 0023     		movs	r3, #0
 242 0012 8DF80B30 		strb	r3, [sp, #11]
 243              		.loc 1 103 0
 244 0016 9DF80730 		ldrb	r3, [sp, #7]
 245 001a 0133     		adds	r3, r3, #1
 246 001c DBB2     		uxtb	r3, r3
 247 001e 5B00     		lsls	r3, r3, #1
 248 0020 8DF80B30 		strb	r3, [sp, #11]
 249              		.loc 1 105 0
 250 0024 9DF80B30 		ldrb	r3, [sp, #11]	@ zero_extendqisi2
 251              		.loc 1 106 0
 252 0028 1846     		mov	r0, r3
 253 002a 054B     		ldr	r3, .L23
 254 002c 039A     		ldr	r2, [sp, #12]
 255 002e 1B68     		ldr	r3, [r3]
 256 0030 9A42     		cmp	r2, r3
 257 0032 01D0     		beq	.L22
 258 0034 FFF7FEFF 		bl	__stack_chk_fail
 259              	.L22:
 260 0038 05B0     		add	sp, sp, #20
 261              		.cfi_def_cfa_offset 4
 262              		@ sp needed
 263 003a 5DF804FB 		ldr	pc, [sp], #4
 264              	.L24:
 265 003e 00BF     		.align	2
 266              	.L23:
 267 0040 00000000 		.word	__stack_chk_guard
 268              		.cfi_endproc
 269              	.LFE5:
 270              		.size	VL53L0X_decode_vcsel_period, .-VL53L0X_decode_vcsel_period
 271              		.section	.text.VL53L0X_encode_vcsel_period,"ax",%progbits
 272              		.align	1
 273              		.p2align 4,,15
 274              		.global	VL53L0X_encode_vcsel_period
 275              		.syntax unified
 276              		.thumb
 277              		.thumb_func
 278              		.fpu fpv4-sp-d16
 279              		.type	VL53L0X_encode_vcsel_period, %function
 280              	VL53L0X_encode_vcsel_period:
 281              	.LFB6:
 282              		.loc 1 109 0
 283              		.cfi_startproc
 284              		@ args = 0, pretend = 0, frame = 16
 285              		@ frame_needed = 0, uses_anonymous_args = 0
ARM GAS  C:\Users\PCHAUT~1\AppData\Local\Temp\ccgoQRgJ.s 			page 6


 286 0000 00B5     		push	{lr}
 287              		.cfi_def_cfa_offset 4
 288              		.cfi_offset 14, -4
 289 0002 85B0     		sub	sp, sp, #20
 290              		.cfi_def_cfa_offset 24
 291 0004 0346     		mov	r3, r0
 292 0006 8DF80730 		strb	r3, [sp, #7]
 293              		.loc 1 109 0
 294 000a 0D4B     		ldr	r3, .L28
 295 000c 1B68     		ldr	r3, [r3]
 296 000e 0393     		str	r3, [sp, #12]
 297              		.loc 1 115 0
 298 0010 0023     		movs	r3, #0
 299 0012 8DF80B30 		strb	r3, [sp, #11]
 300              		.loc 1 117 0
 301 0016 9DF80730 		ldrb	r3, [sp, #7]	@ zero_extendqisi2
 302 001a 5B08     		lsrs	r3, r3, #1
 303 001c DBB2     		uxtb	r3, r3
 304 001e 013B     		subs	r3, r3, #1
 305 0020 8DF80B30 		strb	r3, [sp, #11]
 306              		.loc 1 119 0
 307 0024 9DF80B30 		ldrb	r3, [sp, #11]	@ zero_extendqisi2
 308              		.loc 1 120 0
 309 0028 1846     		mov	r0, r3
 310 002a 054B     		ldr	r3, .L28
 311 002c 039A     		ldr	r2, [sp, #12]
 312 002e 1B68     		ldr	r3, [r3]
 313 0030 9A42     		cmp	r2, r3
 314 0032 01D0     		beq	.L27
 315 0034 FFF7FEFF 		bl	__stack_chk_fail
 316              	.L27:
 317 0038 05B0     		add	sp, sp, #20
 318              		.cfi_def_cfa_offset 4
 319              		@ sp needed
 320 003a 5DF804FB 		ldr	pc, [sp], #4
 321              	.L29:
 322 003e 00BF     		.align	2
 323              	.L28:
 324 0040 00000000 		.word	__stack_chk_guard
 325              		.cfi_endproc
 326              	.LFE6:
 327              		.size	VL53L0X_encode_vcsel_period, .-VL53L0X_encode_vcsel_period
 328              		.section	.text.VL53L0X_isqrt,"ax",%progbits
 329              		.align	1
 330              		.p2align 4,,15
 331              		.global	VL53L0X_isqrt
 332              		.syntax unified
 333              		.thumb
 334              		.thumb_func
 335              		.fpu fpv4-sp-d16
 336              		.type	VL53L0X_isqrt, %function
 337              	VL53L0X_isqrt:
 338              	.LFB7:
 339              		.loc 1 124 0
 340              		.cfi_startproc
 341              		@ args = 0, pretend = 0, frame = 24
 342              		@ frame_needed = 0, uses_anonymous_args = 0
ARM GAS  C:\Users\PCHAUT~1\AppData\Local\Temp\ccgoQRgJ.s 			page 7


 343 0000 00B5     		push	{lr}
 344              		.cfi_def_cfa_offset 4
 345              		.cfi_offset 14, -4
 346 0002 87B0     		sub	sp, sp, #28
 347              		.cfi_def_cfa_offset 32
 348 0004 0190     		str	r0, [sp, #4]
 349              		.loc 1 124 0
 350 0006 1C4B     		ldr	r3, .L39
 351 0008 1B68     		ldr	r3, [r3]
 352 000a 0593     		str	r3, [sp, #20]
 353              		.loc 1 131 0
 354 000c 0023     		movs	r3, #0
 355 000e 0393     		str	r3, [sp, #12]
 356              		.loc 1 132 0
 357 0010 4FF08043 		mov	r3, #1073741824
 358 0014 0493     		str	r3, [sp, #16]
 359              		.loc 1 137 0
 360 0016 02E0     		b	.L31
 361              	.L32:
 362              		.loc 1 138 0
 363 0018 049B     		ldr	r3, [sp, #16]
 364 001a 9B08     		lsrs	r3, r3, #2
 365 001c 0493     		str	r3, [sp, #16]
 366              	.L31:
 367              		.loc 1 137 0
 368 001e 049A     		ldr	r2, [sp, #16]
 369 0020 019B     		ldr	r3, [sp, #4]
 370 0022 9A42     		cmp	r2, r3
 371 0024 F8D8     		bhi	.L32
 372              		.loc 1 141 0
 373 0026 17E0     		b	.L33
 374              	.L36:
 375              		.loc 1 142 0
 376 0028 039A     		ldr	r2, [sp, #12]
 377 002a 049B     		ldr	r3, [sp, #16]
 378 002c 1344     		add	r3, r3, r2
 379 002e 019A     		ldr	r2, [sp, #4]
 380 0030 9A42     		cmp	r2, r3
 381 0032 0BD3     		bcc	.L34
 382              		.loc 1 143 0
 383 0034 039A     		ldr	r2, [sp, #12]
 384 0036 049B     		ldr	r3, [sp, #16]
 385 0038 1344     		add	r3, r3, r2
 386 003a 019A     		ldr	r2, [sp, #4]
 387 003c D31A     		subs	r3, r2, r3
 388 003e 0193     		str	r3, [sp, #4]
 389              		.loc 1 144 0
 390 0040 039B     		ldr	r3, [sp, #12]
 391 0042 5B08     		lsrs	r3, r3, #1
 392 0044 049A     		ldr	r2, [sp, #16]
 393 0046 1344     		add	r3, r3, r2
 394 0048 0393     		str	r3, [sp, #12]
 395 004a 02E0     		b	.L35
 396              	.L34:
 397              		.loc 1 146 0
 398 004c 039B     		ldr	r3, [sp, #12]
 399 004e 5B08     		lsrs	r3, r3, #1
ARM GAS  C:\Users\PCHAUT~1\AppData\Local\Temp\ccgoQRgJ.s 			page 8


 400 0050 0393     		str	r3, [sp, #12]
 401              	.L35:
 402              		.loc 1 148 0
 403 0052 049B     		ldr	r3, [sp, #16]
 404 0054 9B08     		lsrs	r3, r3, #2
 405 0056 0493     		str	r3, [sp, #16]
 406              	.L33:
 407              		.loc 1 141 0
 408 0058 049B     		ldr	r3, [sp, #16]
 409 005a 002B     		cmp	r3, #0
 410 005c E4D1     		bne	.L36
 411              		.loc 1 151 0
 412 005e 039B     		ldr	r3, [sp, #12]
 413              		.loc 1 152 0
 414 0060 1846     		mov	r0, r3
 415 0062 054B     		ldr	r3, .L39
 416 0064 059A     		ldr	r2, [sp, #20]
 417 0066 1B68     		ldr	r3, [r3]
 418 0068 9A42     		cmp	r2, r3
 419 006a 01D0     		beq	.L38
 420 006c FFF7FEFF 		bl	__stack_chk_fail
 421              	.L38:
 422 0070 07B0     		add	sp, sp, #28
 423              		.cfi_def_cfa_offset 4
 424              		@ sp needed
 425 0072 5DF804FB 		ldr	pc, [sp], #4
 426              	.L40:
 427 0076 00BF     		.align	2
 428              	.L39:
 429 0078 00000000 		.word	__stack_chk_guard
 430              		.cfi_endproc
 431              	.LFE7:
 432              		.size	VL53L0X_isqrt, .-VL53L0X_isqrt
 433              		.section	.text.VL53L0X_quadrature_sum,"ax",%progbits
 434              		.align	1
 435              		.p2align 4,,15
 436              		.global	VL53L0X_quadrature_sum
 437              		.syntax unified
 438              		.thumb
 439              		.thumb_func
 440              		.fpu fpv4-sp-d16
 441              		.type	VL53L0X_quadrature_sum, %function
 442              	VL53L0X_quadrature_sum:
 443              	.LFB8:
 444              		.loc 1 156 0
 445              		.cfi_startproc
 446              		@ args = 0, pretend = 0, frame = 16
 447              		@ frame_needed = 0, uses_anonymous_args = 0
 448 0000 00B5     		push	{lr}
 449              		.cfi_def_cfa_offset 4
 450              		.cfi_offset 14, -4
 451 0002 85B0     		sub	sp, sp, #20
 452              		.cfi_def_cfa_offset 24
 453 0004 0190     		str	r0, [sp, #4]
 454 0006 0091     		str	r1, [sp]
 455              		.loc 1 156 0
 456 0008 144B     		ldr	r3, .L47
ARM GAS  C:\Users\PCHAUT~1\AppData\Local\Temp\ccgoQRgJ.s 			page 9


 457 000a 1B68     		ldr	r3, [r3]
 458 000c 0393     		str	r3, [sp, #12]
 459              		.loc 1 167 0
 460 000e 0023     		movs	r3, #0
 461 0010 0293     		str	r3, [sp, #8]
 462              		.loc 1 169 0
 463 0012 019B     		ldr	r3, [sp, #4]
 464 0014 B3F5803F 		cmp	r3, #65536
 465 0018 03D2     		bcs	.L42
 466              		.loc 1 169 0 is_stmt 0 discriminator 1
 467 001a 009B     		ldr	r3, [sp]
 468 001c B3F5803F 		cmp	r3, #65536
 469 0020 03D3     		bcc	.L43
 470              	.L42:
 471              		.loc 1 170 0 is_stmt 1
 472 0022 4FF6FF73 		movw	r3, #65535
 473 0026 0293     		str	r3, [sp, #8]
 474 0028 0CE0     		b	.L44
 475              	.L43:
 476              		.loc 1 172 0
 477 002a 019B     		ldr	r3, [sp, #4]
 478 002c 019A     		ldr	r2, [sp, #4]
 479 002e 02FB03F2 		mul	r2, r2, r3
 480 0032 009B     		ldr	r3, [sp]
 481 0034 0099     		ldr	r1, [sp]
 482 0036 01FB03F3 		mul	r3, r1, r3
 483 003a 1344     		add	r3, r3, r2
 484 003c 1846     		mov	r0, r3
 485 003e FFF7FEFF 		bl	VL53L0X_isqrt
 486 0042 0290     		str	r0, [sp, #8]
 487              	.L44:
 488              		.loc 1 174 0
 489 0044 029B     		ldr	r3, [sp, #8]
 490              		.loc 1 175 0
 491 0046 1846     		mov	r0, r3
 492 0048 044B     		ldr	r3, .L47
 493 004a 039A     		ldr	r2, [sp, #12]
 494 004c 1B68     		ldr	r3, [r3]
 495 004e 9A42     		cmp	r2, r3
 496 0050 01D0     		beq	.L46
 497 0052 FFF7FEFF 		bl	__stack_chk_fail
 498              	.L46:
 499 0056 05B0     		add	sp, sp, #20
 500              		.cfi_def_cfa_offset 4
 501              		@ sp needed
 502 0058 5DF804FB 		ldr	pc, [sp], #4
 503              	.L48:
 504              		.align	2
 505              	.L47:
 506 005c 00000000 		.word	__stack_chk_guard
 507              		.cfi_endproc
 508              	.LFE8:
 509              		.size	VL53L0X_quadrature_sum, .-VL53L0X_quadrature_sum
 510              		.section	.text.VL53L0X_device_read_strobe,"ax",%progbits
 511              		.align	1
 512              		.p2align 4,,15
 513              		.global	VL53L0X_device_read_strobe
ARM GAS  C:\Users\PCHAUT~1\AppData\Local\Temp\ccgoQRgJ.s 			page 10


 514              		.syntax unified
 515              		.thumb
 516              		.thumb_func
 517              		.fpu fpv4-sp-d16
 518              		.type	VL53L0X_device_read_strobe, %function
 519              	VL53L0X_device_read_strobe:
 520              	.LFB9:
 521              		.loc 1 179 0
 522              		.cfi_startproc
 523              		@ args = 0, pretend = 0, frame = 24
 524              		@ frame_needed = 0, uses_anonymous_args = 0
 525 0000 00B5     		push	{lr}
 526              		.cfi_def_cfa_offset 4
 527              		.cfi_offset 14, -4
 528 0002 87B0     		sub	sp, sp, #28
 529              		.cfi_def_cfa_offset 32
 530 0004 0190     		str	r0, [sp, #4]
 531              		.loc 1 179 0
 532 0006 284B     		ldr	r3, .L55
 533 0008 1B68     		ldr	r3, [r3]
 534 000a 0593     		str	r3, [sp, #20]
 535              		.loc 1 180 0
 536 000c 0023     		movs	r3, #0
 537 000e 8DF80F30 		strb	r3, [sp, #15]
 538              		.loc 1 185 0
 539 0012 0022     		movs	r2, #0
 540 0014 8321     		movs	r1, #131
 541 0016 0198     		ldr	r0, [sp, #4]
 542 0018 FFF7FEFF 		bl	VL53L0X_WrByte
 543 001c 0346     		mov	r3, r0
 544 001e 1A46     		mov	r2, r3
 545 0020 9DF80F30 		ldrb	r3, [sp, #15]
 546 0024 1343     		orrs	r3, r3, r2
 547 0026 8DF80F30 		strb	r3, [sp, #15]
 548              		.loc 1 189 0
 549 002a 9DF90F30 		ldrsb	r3, [sp, #15]
 550 002e 002B     		cmp	r3, #0
 551 0030 21D1     		bne	.L50
 552              		.loc 1 190 0
 553 0032 0023     		movs	r3, #0
 554 0034 0493     		str	r3, [sp, #16]
 555              	.L52:
 556              		.loc 1 192 0
 557 0036 0DF10E03 		add	r3, sp, #14
 558 003a 1A46     		mov	r2, r3
 559 003c 8321     		movs	r1, #131
 560 003e 0198     		ldr	r0, [sp, #4]
 561 0040 FFF7FEFF 		bl	VL53L0X_RdByte
 562 0044 0346     		mov	r3, r0
 563 0046 8DF80F30 		strb	r3, [sp, #15]
 564              		.loc 1 193 0
 565 004a 9DF80E30 		ldrb	r3, [sp, #14]	@ zero_extendqisi2
 566 004e 002B     		cmp	r3, #0
 567 0050 0AD1     		bne	.L51
 568              		.loc 1 193 0 is_stmt 0 discriminator 1
 569 0052 9DF90F30 		ldrsb	r3, [sp, #15]
 570 0056 002B     		cmp	r3, #0
ARM GAS  C:\Users\PCHAUT~1\AppData\Local\Temp\ccgoQRgJ.s 			page 11


 571 0058 06D1     		bne	.L51
 572              		.loc 1 196 0 is_stmt 1
 573 005a 049B     		ldr	r3, [sp, #16]
 574 005c 0133     		adds	r3, r3, #1
 575 005e 0493     		str	r3, [sp, #16]
 576              		.loc 1 197 0
 577 0060 049B     		ldr	r3, [sp, #16]
 578 0062 B3F5FA6F 		cmp	r3, #2000
 579 0066 E6D3     		bcc	.L52
 580              	.L51:
 581              		.loc 1 199 0
 582 0068 049B     		ldr	r3, [sp, #16]
 583 006a B3F5FA6F 		cmp	r3, #2000
 584 006e 02D3     		bcc	.L50
 585              		.loc 1 200 0
 586 0070 F923     		movs	r3, #249
 587 0072 8DF80F30 		strb	r3, [sp, #15]
 588              	.L50:
 589              		.loc 1 204 0
 590 0076 0122     		movs	r2, #1
 591 0078 8321     		movs	r1, #131
 592 007a 0198     		ldr	r0, [sp, #4]
 593 007c FFF7FEFF 		bl	VL53L0X_WrByte
 594 0080 0346     		mov	r3, r0
 595 0082 1A46     		mov	r2, r3
 596 0084 9DF80F30 		ldrb	r3, [sp, #15]
 597 0088 1343     		orrs	r3, r3, r2
 598 008a 8DF80F30 		strb	r3, [sp, #15]
 599              		.loc 1 207 0
 600 008e 9DF90F30 		ldrsb	r3, [sp, #15]
 601              		.loc 1 209 0
 602 0092 1846     		mov	r0, r3
 603 0094 044B     		ldr	r3, .L55
 604 0096 059A     		ldr	r2, [sp, #20]
 605 0098 1B68     		ldr	r3, [r3]
 606 009a 9A42     		cmp	r2, r3
 607 009c 01D0     		beq	.L54
 608 009e FFF7FEFF 		bl	__stack_chk_fail
 609              	.L54:
 610 00a2 07B0     		add	sp, sp, #28
 611              		.cfi_def_cfa_offset 4
 612              		@ sp needed
 613 00a4 5DF804FB 		ldr	pc, [sp], #4
 614              	.L56:
 615              		.align	2
 616              	.L55:
 617 00a8 00000000 		.word	__stack_chk_guard
 618              		.cfi_endproc
 619              	.LFE9:
 620              		.size	VL53L0X_device_read_strobe, .-VL53L0X_device_read_strobe
 621              		.section	.text.VL53L0X_get_info_from_device,"ax",%progbits
 622              		.align	1
 623              		.p2align 4,,15
 624              		.global	VL53L0X_get_info_from_device
 625              		.syntax unified
 626              		.thumb
 627              		.thumb_func
ARM GAS  C:\Users\PCHAUT~1\AppData\Local\Temp\ccgoQRgJ.s 			page 12


 628              		.fpu fpv4-sp-d16
 629              		.type	VL53L0X_get_info_from_device, %function
 630              	VL53L0X_get_info_from_device:
 631              	.LFB10:
 632              		.loc 1 212 0
 633              		.cfi_startproc
 634              		@ args = 0, pretend = 0, frame = 96
 635              		@ frame_needed = 0, uses_anonymous_args = 0
 636 0000 00B5     		push	{lr}
 637              		.cfi_def_cfa_offset 4
 638              		.cfi_offset 14, -4
 639 0002 99B0     		sub	sp, sp, #100
 640              		.cfi_def_cfa_offset 104
 641 0004 0190     		str	r0, [sp, #4]
 642 0006 0B46     		mov	r3, r1
 643 0008 8DF80330 		strb	r3, [sp, #3]
 644              		.loc 1 212 0
 645 000c A34B     		ldr	r3, .L71
 646 000e 1B68     		ldr	r3, [r3]
 647 0010 1793     		str	r3, [sp, #92]
 648              		.loc 1 214 0
 649 0012 0023     		movs	r3, #0
 650 0014 8DF81230 		strb	r3, [sp, #18]
 651              		.loc 1 219 0
 652 0018 0023     		movs	r3, #0
 653 001a 8DF81330 		strb	r3, [sp, #19]
 654              		.loc 1 220 0
 655 001e 0023     		movs	r3, #0
 656 0020 8DF81430 		strb	r3, [sp, #20]
 657              		.loc 1 221 0
 658 0024 0023     		movs	r3, #0
 659 0026 0793     		str	r3, [sp, #28]
 660              		.loc 1 222 0
 661 0028 0023     		movs	r3, #0
 662 002a 0893     		str	r3, [sp, #32]
 663              		.loc 1 223 0
 664 002c 0023     		movs	r3, #0
 665 002e 0C93     		str	r3, [sp, #48]
 666              		.loc 1 224 0
 667 0030 0023     		movs	r3, #0
 668 0032 ADF81630 		strh	r3, [sp, #22]	@ movhi
 669              		.loc 1 225 0
 670 0036 4FF4C853 		mov	r3, #6400
 671 003a 0D93     		str	r3, [sp, #52]
 672              		.loc 1 226 0
 673 003c 0023     		movs	r3, #0
 674 003e 0993     		str	r3, [sp, #36]
 675              		.loc 1 227 0
 676 0040 0023     		movs	r3, #0
 677 0042 0A93     		str	r3, [sp, #40]
 678              		.loc 1 231 0
 679 0044 0023     		movs	r3, #0
 680 0046 0E93     		str	r3, [sp, #56]
 681              		.loc 1 238 0
 682 0048 019B     		ldr	r3, [sp, #4]
 683 004a 93F8F030 		ldrb	r3, [r3, #240]
 684 004e 8DF81530 		strb	r3, [sp, #21]
ARM GAS  C:\Users\PCHAUT~1\AppData\Local\Temp\ccgoQRgJ.s 			page 13


 685              		.loc 1 243 0
 686 0052 9DF81530 		ldrb	r3, [sp, #21]	@ zero_extendqisi2
 687 0056 072B     		cmp	r3, #7
 688 0058 00F01684 		beq	.L58
 689              		.loc 1 245 0
 690 005c 0122     		movs	r2, #1
 691 005e 8021     		movs	r1, #128
 692 0060 0198     		ldr	r0, [sp, #4]
 693 0062 FFF7FEFF 		bl	VL53L0X_WrByte
 694 0066 0346     		mov	r3, r0
 695 0068 1A46     		mov	r2, r3
 696 006a 9DF81230 		ldrb	r3, [sp, #18]
 697 006e 1343     		orrs	r3, r3, r2
 698 0070 8DF81230 		strb	r3, [sp, #18]
 699              		.loc 1 246 0
 700 0074 0122     		movs	r2, #1
 701 0076 FF21     		movs	r1, #255
 702 0078 0198     		ldr	r0, [sp, #4]
 703 007a FFF7FEFF 		bl	VL53L0X_WrByte
 704 007e 0346     		mov	r3, r0
 705 0080 1A46     		mov	r2, r3
 706 0082 9DF81230 		ldrb	r3, [sp, #18]
 707 0086 1343     		orrs	r3, r3, r2
 708 0088 8DF81230 		strb	r3, [sp, #18]
 709              		.loc 1 247 0
 710 008c 0022     		movs	r2, #0
 711 008e 0021     		movs	r1, #0
 712 0090 0198     		ldr	r0, [sp, #4]
 713 0092 FFF7FEFF 		bl	VL53L0X_WrByte
 714 0096 0346     		mov	r3, r0
 715 0098 1A46     		mov	r2, r3
 716 009a 9DF81230 		ldrb	r3, [sp, #18]
 717 009e 1343     		orrs	r3, r3, r2
 718 00a0 8DF81230 		strb	r3, [sp, #18]
 719              		.loc 1 249 0
 720 00a4 0622     		movs	r2, #6
 721 00a6 FF21     		movs	r1, #255
 722 00a8 0198     		ldr	r0, [sp, #4]
 723 00aa FFF7FEFF 		bl	VL53L0X_WrByte
 724 00ae 0346     		mov	r3, r0
 725 00b0 1A46     		mov	r2, r3
 726 00b2 9DF81230 		ldrb	r3, [sp, #18]
 727 00b6 1343     		orrs	r3, r3, r2
 728 00b8 8DF81230 		strb	r3, [sp, #18]
 729              		.loc 1 250 0
 730 00bc 0DF10F03 		add	r3, sp, #15
 731 00c0 1A46     		mov	r2, r3
 732 00c2 8321     		movs	r1, #131
 733 00c4 0198     		ldr	r0, [sp, #4]
 734 00c6 FFF7FEFF 		bl	VL53L0X_RdByte
 735 00ca 0346     		mov	r3, r0
 736 00cc 1A46     		mov	r2, r3
 737 00ce 9DF81230 		ldrb	r3, [sp, #18]
 738 00d2 1343     		orrs	r3, r3, r2
 739 00d4 8DF81230 		strb	r3, [sp, #18]
 740              		.loc 1 251 0
 741 00d8 9DF80F30 		ldrb	r3, [sp, #15]	@ zero_extendqisi2
ARM GAS  C:\Users\PCHAUT~1\AppData\Local\Temp\ccgoQRgJ.s 			page 14


 742 00dc 43F00403 		orr	r3, r3, #4
 743 00e0 DBB2     		uxtb	r3, r3
 744 00e2 1A46     		mov	r2, r3
 745 00e4 8321     		movs	r1, #131
 746 00e6 0198     		ldr	r0, [sp, #4]
 747 00e8 FFF7FEFF 		bl	VL53L0X_WrByte
 748 00ec 0346     		mov	r3, r0
 749 00ee 1A46     		mov	r2, r3
 750 00f0 9DF81230 		ldrb	r3, [sp, #18]
 751 00f4 1343     		orrs	r3, r3, r2
 752 00f6 8DF81230 		strb	r3, [sp, #18]
 753              		.loc 1 252 0
 754 00fa 0722     		movs	r2, #7
 755 00fc FF21     		movs	r1, #255
 756 00fe 0198     		ldr	r0, [sp, #4]
 757 0100 FFF7FEFF 		bl	VL53L0X_WrByte
 758 0104 0346     		mov	r3, r0
 759 0106 1A46     		mov	r2, r3
 760 0108 9DF81230 		ldrb	r3, [sp, #18]
 761 010c 1343     		orrs	r3, r3, r2
 762 010e 8DF81230 		strb	r3, [sp, #18]
 763              		.loc 1 253 0
 764 0112 0122     		movs	r2, #1
 765 0114 8121     		movs	r1, #129
 766 0116 0198     		ldr	r0, [sp, #4]
 767 0118 FFF7FEFF 		bl	VL53L0X_WrByte
 768 011c 0346     		mov	r3, r0
 769 011e 1A46     		mov	r2, r3
 770 0120 9DF81230 		ldrb	r3, [sp, #18]
 771 0124 1343     		orrs	r3, r3, r2
 772 0126 8DF81230 		strb	r3, [sp, #18]
 773              		.loc 1 255 0
 774 012a 0198     		ldr	r0, [sp, #4]
 775 012c FFF7FEFF 		bl	VL53L0X_PollingDelay
 776 0130 0346     		mov	r3, r0
 777 0132 1A46     		mov	r2, r3
 778 0134 9DF81230 		ldrb	r3, [sp, #18]
 779 0138 1343     		orrs	r3, r3, r2
 780 013a 8DF81230 		strb	r3, [sp, #18]
 781              		.loc 1 257 0
 782 013e 0122     		movs	r2, #1
 783 0140 8021     		movs	r1, #128
 784 0142 0198     		ldr	r0, [sp, #4]
 785 0144 FFF7FEFF 		bl	VL53L0X_WrByte
 786 0148 0346     		mov	r3, r0
 787 014a 1A46     		mov	r2, r3
 788 014c 9DF81230 		ldrb	r3, [sp, #18]
 789 0150 1343     		orrs	r3, r3, r2
 790 0152 8DF81230 		strb	r3, [sp, #18]
 791              		.loc 1 259 0
 792 0156 9DF80330 		ldrb	r3, [sp, #3]	@ zero_extendqisi2
 793 015a 03F00103 		and	r3, r3, #1
 794 015e 002B     		cmp	r3, #0
 795 0160 00F09E80 		beq	.L59
 796              		.loc 1 260 0 discriminator 1
 797 0164 9DF81530 		ldrb	r3, [sp, #21]	@ zero_extendqisi2
 798 0168 03F00103 		and	r3, r3, #1
ARM GAS  C:\Users\PCHAUT~1\AppData\Local\Temp\ccgoQRgJ.s 			page 15


 799              		.loc 1 259 0 discriminator 1
 800 016c 002B     		cmp	r3, #0
 801 016e 40F09780 		bne	.L59
 802              		.loc 1 261 0
 803 0172 6B22     		movs	r2, #107
 804 0174 9421     		movs	r1, #148
 805 0176 0198     		ldr	r0, [sp, #4]
 806 0178 FFF7FEFF 		bl	VL53L0X_WrByte
 807 017c 0346     		mov	r3, r0
 808 017e 1A46     		mov	r2, r3
 809 0180 9DF81230 		ldrb	r3, [sp, #18]
 810 0184 1343     		orrs	r3, r3, r2
 811 0186 8DF81230 		strb	r3, [sp, #18]
 812              		.loc 1 262 0
 813 018a 0198     		ldr	r0, [sp, #4]
 814 018c FFF7FEFF 		bl	VL53L0X_device_read_strobe
 815 0190 0346     		mov	r3, r0
 816 0192 1A46     		mov	r2, r3
 817 0194 9DF81230 		ldrb	r3, [sp, #18]
 818 0198 1343     		orrs	r3, r3, r2
 819 019a 8DF81230 		strb	r3, [sp, #18]
 820              		.loc 1 263 0
 821 019e 06AB     		add	r3, sp, #24
 822 01a0 1A46     		mov	r2, r3
 823 01a2 9021     		movs	r1, #144
 824 01a4 0198     		ldr	r0, [sp, #4]
 825 01a6 FFF7FEFF 		bl	VL53L0X_RdDWord
 826 01aa 0346     		mov	r3, r0
 827 01ac 1A46     		mov	r2, r3
 828 01ae 9DF81230 		ldrb	r3, [sp, #18]
 829 01b2 1343     		orrs	r3, r3, r2
 830 01b4 8DF81230 		strb	r3, [sp, #18]
 831              		.loc 1 265 0
 832 01b8 069B     		ldr	r3, [sp, #24]
 833 01ba 1B0A     		lsrs	r3, r3, #8
 834 01bc DBB2     		uxtb	r3, r3
 835 01be 03F07F03 		and	r3, r3, #127
 836 01c2 8DF81330 		strb	r3, [sp, #19]
 837              		.loc 1 266 0
 838 01c6 069B     		ldr	r3, [sp, #24]
 839 01c8 DB0B     		lsrs	r3, r3, #15
 840 01ca DBB2     		uxtb	r3, r3
 841 01cc 03F00103 		and	r3, r3, #1
 842 01d0 8DF81430 		strb	r3, [sp, #20]
 843              		.loc 1 268 0
 844 01d4 2422     		movs	r2, #36
 845 01d6 9421     		movs	r1, #148
 846 01d8 0198     		ldr	r0, [sp, #4]
 847 01da FFF7FEFF 		bl	VL53L0X_WrByte
 848 01de 0346     		mov	r3, r0
 849 01e0 1A46     		mov	r2, r3
 850 01e2 9DF81230 		ldrb	r3, [sp, #18]
 851 01e6 1343     		orrs	r3, r3, r2
 852 01e8 8DF81230 		strb	r3, [sp, #18]
 853              		.loc 1 269 0
 854 01ec 0198     		ldr	r0, [sp, #4]
 855 01ee FFF7FEFF 		bl	VL53L0X_device_read_strobe
ARM GAS  C:\Users\PCHAUT~1\AppData\Local\Temp\ccgoQRgJ.s 			page 16


 856 01f2 0346     		mov	r3, r0
 857 01f4 1A46     		mov	r2, r3
 858 01f6 9DF81230 		ldrb	r3, [sp, #18]
 859 01fa 1343     		orrs	r3, r3, r2
 860 01fc 8DF81230 		strb	r3, [sp, #18]
 861              		.loc 1 270 0
 862 0200 06AB     		add	r3, sp, #24
 863 0202 1A46     		mov	r2, r3
 864 0204 9021     		movs	r1, #144
 865 0206 0198     		ldr	r0, [sp, #4]
 866 0208 FFF7FEFF 		bl	VL53L0X_RdDWord
 867 020c 0346     		mov	r3, r0
 868 020e 1A46     		mov	r2, r3
 869 0210 9DF81230 		ldrb	r3, [sp, #18]
 870 0214 1343     		orrs	r3, r3, r2
 871 0216 8DF81230 		strb	r3, [sp, #18]
 872              		.loc 1 273 0
 873 021a 069B     		ldr	r3, [sp, #24]
 874 021c 1B0E     		lsrs	r3, r3, #24
 875 021e DBB2     		uxtb	r3, r3
 876 0220 8DF84030 		strb	r3, [sp, #64]
 877              		.loc 1 275 0
 878 0224 069B     		ldr	r3, [sp, #24]
 879 0226 1B0C     		lsrs	r3, r3, #16
 880 0228 DBB2     		uxtb	r3, r3
 881 022a 8DF84130 		strb	r3, [sp, #65]
 882              		.loc 1 277 0
 883 022e 069B     		ldr	r3, [sp, #24]
 884 0230 1B0A     		lsrs	r3, r3, #8
 885 0232 DBB2     		uxtb	r3, r3
 886 0234 8DF84230 		strb	r3, [sp, #66]
 887              		.loc 1 279 0
 888 0238 069B     		ldr	r3, [sp, #24]
 889 023a DBB2     		uxtb	r3, r3
 890 023c 8DF84330 		strb	r3, [sp, #67]
 891              		.loc 1 281 0
 892 0240 2522     		movs	r2, #37
 893 0242 9421     		movs	r1, #148
 894 0244 0198     		ldr	r0, [sp, #4]
 895 0246 FFF7FEFF 		bl	VL53L0X_WrByte
 896 024a 0346     		mov	r3, r0
 897 024c 1A46     		mov	r2, r3
 898 024e 9DF81230 		ldrb	r3, [sp, #18]
 899 0252 1343     		orrs	r3, r3, r2
 900 0254 8DF81230 		strb	r3, [sp, #18]
 901              		.loc 1 282 0
 902 0258 0198     		ldr	r0, [sp, #4]
 903 025a FFF7FEFF 		bl	VL53L0X_device_read_strobe
 904 025e 0346     		mov	r3, r0
 905 0260 1A46     		mov	r2, r3
 906 0262 9DF81230 		ldrb	r3, [sp, #18]
 907 0266 1343     		orrs	r3, r3, r2
 908 0268 8DF81230 		strb	r3, [sp, #18]
 909              		.loc 1 283 0
 910 026c 06AB     		add	r3, sp, #24
 911 026e 1A46     		mov	r2, r3
 912 0270 9021     		movs	r1, #144
ARM GAS  C:\Users\PCHAUT~1\AppData\Local\Temp\ccgoQRgJ.s 			page 17


 913 0272 0198     		ldr	r0, [sp, #4]
 914 0274 FFF7FEFF 		bl	VL53L0X_RdDWord
 915 0278 0346     		mov	r3, r0
 916 027a 1A46     		mov	r2, r3
 917 027c 9DF81230 		ldrb	r3, [sp, #18]
 918 0280 1343     		orrs	r3, r3, r2
 919 0282 8DF81230 		strb	r3, [sp, #18]
 920              		.loc 1 285 0
 921 0286 069B     		ldr	r3, [sp, #24]
 922 0288 1B0E     		lsrs	r3, r3, #24
 923 028a DBB2     		uxtb	r3, r3
 924 028c 8DF84430 		strb	r3, [sp, #68]
 925              		.loc 1 287 0
 926 0290 069B     		ldr	r3, [sp, #24]
 927 0292 1B0C     		lsrs	r3, r3, #16
 928 0294 DBB2     		uxtb	r3, r3
 929 0296 8DF84530 		strb	r3, [sp, #69]
 930 029a 01E0     		b	.L72
 931              	.L73:
 932              		.align	2
 933              	.L71:
 934 029c 00000000 		.word	__stack_chk_guard
 935              	.L72:
 936              	.L59:
 937              		.loc 1 291 0
 938 02a0 9DF80330 		ldrb	r3, [sp, #3]	@ zero_extendqisi2
 939 02a4 03F00203 		and	r3, r3, #2
 940 02a8 002B     		cmp	r3, #0
 941 02aa 00F09481 		beq	.L60
 942              		.loc 1 292 0 discriminator 1
 943 02ae 9DF81530 		ldrb	r3, [sp, #21]	@ zero_extendqisi2
 944 02b2 03F00203 		and	r3, r3, #2
 945              		.loc 1 291 0 discriminator 1
 946 02b6 002B     		cmp	r3, #0
 947 02b8 40F08D81 		bne	.L60
 948              		.loc 1 294 0
 949 02bc 0222     		movs	r2, #2
 950 02be 9421     		movs	r1, #148
 951 02c0 0198     		ldr	r0, [sp, #4]
 952 02c2 FFF7FEFF 		bl	VL53L0X_WrByte
 953 02c6 0346     		mov	r3, r0
 954 02c8 1A46     		mov	r2, r3
 955 02ca 9DF81230 		ldrb	r3, [sp, #18]
 956 02ce 1343     		orrs	r3, r3, r2
 957 02d0 8DF81230 		strb	r3, [sp, #18]
 958              		.loc 1 295 0
 959 02d4 0198     		ldr	r0, [sp, #4]
 960 02d6 FFF7FEFF 		bl	VL53L0X_device_read_strobe
 961 02da 0346     		mov	r3, r0
 962 02dc 1A46     		mov	r2, r3
 963 02de 9DF81230 		ldrb	r3, [sp, #18]
 964 02e2 1343     		orrs	r3, r3, r2
 965 02e4 8DF81230 		strb	r3, [sp, #18]
 966              		.loc 1 296 0
 967 02e8 04AB     		add	r3, sp, #16
 968 02ea 1A46     		mov	r2, r3
 969 02ec 9021     		movs	r1, #144
ARM GAS  C:\Users\PCHAUT~1\AppData\Local\Temp\ccgoQRgJ.s 			page 18


 970 02ee 0198     		ldr	r0, [sp, #4]
 971 02f0 FFF7FEFF 		bl	VL53L0X_RdByte
 972 02f4 0346     		mov	r3, r0
 973 02f6 1A46     		mov	r2, r3
 974 02f8 9DF81230 		ldrb	r3, [sp, #18]
 975 02fc 1343     		orrs	r3, r3, r2
 976 02fe 8DF81230 		strb	r3, [sp, #18]
 977              		.loc 1 298 0
 978 0302 7B22     		movs	r2, #123
 979 0304 9421     		movs	r1, #148
 980 0306 0198     		ldr	r0, [sp, #4]
 981 0308 FFF7FEFF 		bl	VL53L0X_WrByte
 982 030c 0346     		mov	r3, r0
 983 030e 1A46     		mov	r2, r3
 984 0310 9DF81230 		ldrb	r3, [sp, #18]
 985 0314 1343     		orrs	r3, r3, r2
 986 0316 8DF81230 		strb	r3, [sp, #18]
 987              		.loc 1 299 0
 988 031a 0198     		ldr	r0, [sp, #4]
 989 031c FFF7FEFF 		bl	VL53L0X_device_read_strobe
 990 0320 0346     		mov	r3, r0
 991 0322 1A46     		mov	r2, r3
 992 0324 9DF81230 		ldrb	r3, [sp, #18]
 993 0328 1343     		orrs	r3, r3, r2
 994 032a 8DF81230 		strb	r3, [sp, #18]
 995              		.loc 1 300 0
 996 032e 0DF11103 		add	r3, sp, #17
 997 0332 1A46     		mov	r2, r3
 998 0334 9021     		movs	r1, #144
 999 0336 0198     		ldr	r0, [sp, #4]
 1000 0338 FFF7FEFF 		bl	VL53L0X_RdByte
 1001 033c 0346     		mov	r3, r0
 1002 033e 1A46     		mov	r2, r3
 1003 0340 9DF81230 		ldrb	r3, [sp, #18]
 1004 0344 1343     		orrs	r3, r3, r2
 1005 0346 8DF81230 		strb	r3, [sp, #18]
 1006              		.loc 1 302 0
 1007 034a 7722     		movs	r2, #119
 1008 034c 9421     		movs	r1, #148
 1009 034e 0198     		ldr	r0, [sp, #4]
 1010 0350 FFF7FEFF 		bl	VL53L0X_WrByte
 1011 0354 0346     		mov	r3, r0
 1012 0356 1A46     		mov	r2, r3
 1013 0358 9DF81230 		ldrb	r3, [sp, #18]
 1014 035c 1343     		orrs	r3, r3, r2
 1015 035e 8DF81230 		strb	r3, [sp, #18]
 1016              		.loc 1 303 0
 1017 0362 0198     		ldr	r0, [sp, #4]
 1018 0364 FFF7FEFF 		bl	VL53L0X_device_read_strobe
 1019 0368 0346     		mov	r3, r0
 1020 036a 1A46     		mov	r2, r3
 1021 036c 9DF81230 		ldrb	r3, [sp, #18]
 1022 0370 1343     		orrs	r3, r3, r2
 1023 0372 8DF81230 		strb	r3, [sp, #18]
 1024              		.loc 1 304 0
 1025 0376 06AB     		add	r3, sp, #24
 1026 0378 1A46     		mov	r2, r3
ARM GAS  C:\Users\PCHAUT~1\AppData\Local\Temp\ccgoQRgJ.s 			page 19


 1027 037a 9021     		movs	r1, #144
 1028 037c 0198     		ldr	r0, [sp, #4]
 1029 037e FFF7FEFF 		bl	VL53L0X_RdDWord
 1030 0382 0346     		mov	r3, r0
 1031 0384 1A46     		mov	r2, r3
 1032 0386 9DF81230 		ldrb	r3, [sp, #18]
 1033 038a 1343     		orrs	r3, r3, r2
 1034 038c 8DF81230 		strb	r3, [sp, #18]
 1035              		.loc 1 306 0
 1036 0390 069B     		ldr	r3, [sp, #24]
 1037 0392 5B0E     		lsrs	r3, r3, #25
 1038 0394 DBB2     		uxtb	r3, r3
 1039 0396 03F07F03 		and	r3, r3, #127
 1040 039a DBB2     		uxtb	r3, r3
 1041 039c 8DF84830 		strb	r3, [sp, #72]
 1042              		.loc 1 307 0
 1043 03a0 069B     		ldr	r3, [sp, #24]
 1044 03a2 9B0C     		lsrs	r3, r3, #18
 1045 03a4 DBB2     		uxtb	r3, r3
 1046 03a6 03F07F03 		and	r3, r3, #127
 1047 03aa DBB2     		uxtb	r3, r3
 1048 03ac 8DF84930 		strb	r3, [sp, #73]
 1049              		.loc 1 308 0
 1050 03b0 069B     		ldr	r3, [sp, #24]
 1051 03b2 DB0A     		lsrs	r3, r3, #11
 1052 03b4 DBB2     		uxtb	r3, r3
 1053 03b6 03F07F03 		and	r3, r3, #127
 1054 03ba DBB2     		uxtb	r3, r3
 1055 03bc 8DF84A30 		strb	r3, [sp, #74]
 1056              		.loc 1 309 0
 1057 03c0 069B     		ldr	r3, [sp, #24]
 1058 03c2 1B09     		lsrs	r3, r3, #4
 1059 03c4 DBB2     		uxtb	r3, r3
 1060 03c6 03F07F03 		and	r3, r3, #127
 1061 03ca DBB2     		uxtb	r3, r3
 1062 03cc 8DF84B30 		strb	r3, [sp, #75]
 1063              		.loc 1 311 0
 1064 03d0 069B     		ldr	r3, [sp, #24]
 1065 03d2 DBB2     		uxtb	r3, r3
 1066 03d4 DB00     		lsls	r3, r3, #3
 1067 03d6 DBB2     		uxtb	r3, r3
 1068 03d8 03F07803 		and	r3, r3, #120
 1069 03dc DBB2     		uxtb	r3, r3
 1070 03de 8DF80F30 		strb	r3, [sp, #15]
 1071              		.loc 1 313 0
 1072 03e2 7822     		movs	r2, #120
 1073 03e4 9421     		movs	r1, #148
 1074 03e6 0198     		ldr	r0, [sp, #4]
 1075 03e8 FFF7FEFF 		bl	VL53L0X_WrByte
 1076 03ec 0346     		mov	r3, r0
 1077 03ee 1A46     		mov	r2, r3
 1078 03f0 9DF81230 		ldrb	r3, [sp, #18]
 1079 03f4 1343     		orrs	r3, r3, r2
 1080 03f6 8DF81230 		strb	r3, [sp, #18]
 1081              		.loc 1 314 0
 1082 03fa 0198     		ldr	r0, [sp, #4]
 1083 03fc FFF7FEFF 		bl	VL53L0X_device_read_strobe
ARM GAS  C:\Users\PCHAUT~1\AppData\Local\Temp\ccgoQRgJ.s 			page 20


 1084 0400 0346     		mov	r3, r0
 1085 0402 1A46     		mov	r2, r3
 1086 0404 9DF81230 		ldrb	r3, [sp, #18]
 1087 0408 1343     		orrs	r3, r3, r2
 1088 040a 8DF81230 		strb	r3, [sp, #18]
 1089              		.loc 1 315 0
 1090 040e 06AB     		add	r3, sp, #24
 1091 0410 1A46     		mov	r2, r3
 1092 0412 9021     		movs	r1, #144
 1093 0414 0198     		ldr	r0, [sp, #4]
 1094 0416 FFF7FEFF 		bl	VL53L0X_RdDWord
 1095 041a 0346     		mov	r3, r0
 1096 041c 1A46     		mov	r2, r3
 1097 041e 9DF81230 		ldrb	r3, [sp, #18]
 1098 0422 1343     		orrs	r3, r3, r2
 1099 0424 8DF81230 		strb	r3, [sp, #18]
 1100              		.loc 1 318 0
 1101 0428 069B     		ldr	r3, [sp, #24]
 1102 042a 5B0F     		lsrs	r3, r3, #29
 1103 042c DBB2     		uxtb	r3, r3
 1104 042e 03F07F03 		and	r3, r3, #127
 1105 0432 DAB2     		uxtb	r2, r3
 1106              		.loc 1 317 0
 1107 0434 9DF80F30 		ldrb	r3, [sp, #15]	@ zero_extendqisi2
 1108 0438 1344     		add	r3, r3, r2
 1109 043a DBB2     		uxtb	r3, r3
 1110 043c 8DF84C30 		strb	r3, [sp, #76]
 1111              		.loc 1 319 0
 1112 0440 069B     		ldr	r3, [sp, #24]
 1113 0442 9B0D     		lsrs	r3, r3, #22
 1114 0444 DBB2     		uxtb	r3, r3
 1115 0446 03F07F03 		and	r3, r3, #127
 1116 044a DBB2     		uxtb	r3, r3
 1117 044c 8DF84D30 		strb	r3, [sp, #77]
 1118              		.loc 1 320 0
 1119 0450 069B     		ldr	r3, [sp, #24]
 1120 0452 DB0B     		lsrs	r3, r3, #15
 1121 0454 DBB2     		uxtb	r3, r3
 1122 0456 03F07F03 		and	r3, r3, #127
 1123 045a DBB2     		uxtb	r3, r3
 1124 045c 8DF84E30 		strb	r3, [sp, #78]
 1125              		.loc 1 321 0
 1126 0460 069B     		ldr	r3, [sp, #24]
 1127 0462 1B0A     		lsrs	r3, r3, #8
 1128 0464 DBB2     		uxtb	r3, r3
 1129 0466 03F07F03 		and	r3, r3, #127
 1130 046a DBB2     		uxtb	r3, r3
 1131 046c 8DF84F30 		strb	r3, [sp, #79]
 1132              		.loc 1 322 0
 1133 0470 069B     		ldr	r3, [sp, #24]
 1134 0472 5B08     		lsrs	r3, r3, #1
 1135 0474 DBB2     		uxtb	r3, r3
 1136 0476 03F07F03 		and	r3, r3, #127
 1137 047a DBB2     		uxtb	r3, r3
 1138 047c 8DF85030 		strb	r3, [sp, #80]
 1139              		.loc 1 324 0
 1140 0480 069B     		ldr	r3, [sp, #24]
ARM GAS  C:\Users\PCHAUT~1\AppData\Local\Temp\ccgoQRgJ.s 			page 21


 1141 0482 DBB2     		uxtb	r3, r3
 1142 0484 9B01     		lsls	r3, r3, #6
 1143 0486 DBB2     		uxtb	r3, r3
 1144 0488 03F04003 		and	r3, r3, #64
 1145 048c DBB2     		uxtb	r3, r3
 1146 048e 8DF80F30 		strb	r3, [sp, #15]
 1147              		.loc 1 326 0
 1148 0492 7922     		movs	r2, #121
 1149 0494 9421     		movs	r1, #148
 1150 0496 0198     		ldr	r0, [sp, #4]
 1151 0498 FFF7FEFF 		bl	VL53L0X_WrByte
 1152 049c 0346     		mov	r3, r0
 1153 049e 1A46     		mov	r2, r3
 1154 04a0 9DF81230 		ldrb	r3, [sp, #18]
 1155 04a4 1343     		orrs	r3, r3, r2
 1156 04a6 8DF81230 		strb	r3, [sp, #18]
 1157              		.loc 1 328 0
 1158 04aa 0198     		ldr	r0, [sp, #4]
 1159 04ac FFF7FEFF 		bl	VL53L0X_device_read_strobe
 1160 04b0 0346     		mov	r3, r0
 1161 04b2 1A46     		mov	r2, r3
 1162 04b4 9DF81230 		ldrb	r3, [sp, #18]
 1163 04b8 1343     		orrs	r3, r3, r2
 1164 04ba 8DF81230 		strb	r3, [sp, #18]
 1165              		.loc 1 330 0
 1166 04be 06AB     		add	r3, sp, #24
 1167 04c0 1A46     		mov	r2, r3
 1168 04c2 9021     		movs	r1, #144
 1169 04c4 0198     		ldr	r0, [sp, #4]
 1170 04c6 FFF7FEFF 		bl	VL53L0X_RdDWord
 1171 04ca 0346     		mov	r3, r0
 1172 04cc 1A46     		mov	r2, r3
 1173 04ce 9DF81230 		ldrb	r3, [sp, #18]
 1174 04d2 1343     		orrs	r3, r3, r2
 1175 04d4 8DF81230 		strb	r3, [sp, #18]
 1176              		.loc 1 333 0
 1177 04d8 069B     		ldr	r3, [sp, #24]
 1178 04da 9B0E     		lsrs	r3, r3, #26
 1179 04dc DBB2     		uxtb	r3, r3
 1180 04de 03F07F03 		and	r3, r3, #127
 1181 04e2 DAB2     		uxtb	r2, r3
 1182              		.loc 1 332 0
 1183 04e4 9DF80F30 		ldrb	r3, [sp, #15]	@ zero_extendqisi2
 1184 04e8 1344     		add	r3, r3, r2
 1185 04ea DBB2     		uxtb	r3, r3
 1186 04ec 8DF85130 		strb	r3, [sp, #81]
 1187              		.loc 1 334 0
 1188 04f0 069B     		ldr	r3, [sp, #24]
 1189 04f2 DB0C     		lsrs	r3, r3, #19
 1190 04f4 DBB2     		uxtb	r3, r3
 1191 04f6 03F07F03 		and	r3, r3, #127
 1192 04fa DBB2     		uxtb	r3, r3
 1193 04fc 8DF85230 		strb	r3, [sp, #82]
 1194              		.loc 1 335 0
 1195 0500 069B     		ldr	r3, [sp, #24]
 1196 0502 1B0B     		lsrs	r3, r3, #12
 1197 0504 DBB2     		uxtb	r3, r3
ARM GAS  C:\Users\PCHAUT~1\AppData\Local\Temp\ccgoQRgJ.s 			page 22


 1198 0506 03F07F03 		and	r3, r3, #127
 1199 050a DBB2     		uxtb	r3, r3
 1200 050c 8DF85330 		strb	r3, [sp, #83]
 1201              		.loc 1 336 0
 1202 0510 069B     		ldr	r3, [sp, #24]
 1203 0512 5B09     		lsrs	r3, r3, #5
 1204 0514 DBB2     		uxtb	r3, r3
 1205 0516 03F07F03 		and	r3, r3, #127
 1206 051a DBB2     		uxtb	r3, r3
 1207 051c 8DF85430 		strb	r3, [sp, #84]
 1208              		.loc 1 338 0
 1209 0520 069B     		ldr	r3, [sp, #24]
 1210 0522 DBB2     		uxtb	r3, r3
 1211 0524 9B00     		lsls	r3, r3, #2
 1212 0526 DBB2     		uxtb	r3, r3
 1213 0528 03F07C03 		and	r3, r3, #124
 1214 052c DBB2     		uxtb	r3, r3
 1215 052e 8DF80F30 		strb	r3, [sp, #15]
 1216              		.loc 1 340 0
 1217 0532 7A22     		movs	r2, #122
 1218 0534 9421     		movs	r1, #148
 1219 0536 0198     		ldr	r0, [sp, #4]
 1220 0538 FFF7FEFF 		bl	VL53L0X_WrByte
 1221 053c 0346     		mov	r3, r0
 1222 053e 1A46     		mov	r2, r3
 1223 0540 9DF81230 		ldrb	r3, [sp, #18]
 1224 0544 1343     		orrs	r3, r3, r2
 1225 0546 8DF81230 		strb	r3, [sp, #18]
 1226              		.loc 1 342 0
 1227 054a 0198     		ldr	r0, [sp, #4]
 1228 054c FFF7FEFF 		bl	VL53L0X_device_read_strobe
 1229 0550 0346     		mov	r3, r0
 1230 0552 1A46     		mov	r2, r3
 1231 0554 9DF81230 		ldrb	r3, [sp, #18]
 1232 0558 1343     		orrs	r3, r3, r2
 1233 055a 8DF81230 		strb	r3, [sp, #18]
 1234              		.loc 1 344 0
 1235 055e 06AB     		add	r3, sp, #24
 1236 0560 1A46     		mov	r2, r3
 1237 0562 9021     		movs	r1, #144
 1238 0564 0198     		ldr	r0, [sp, #4]
 1239 0566 FFF7FEFF 		bl	VL53L0X_RdDWord
 1240 056a 0346     		mov	r3, r0
 1241 056c 1A46     		mov	r2, r3
 1242 056e 9DF81230 		ldrb	r3, [sp, #18]
 1243 0572 1343     		orrs	r3, r3, r2
 1244 0574 8DF81230 		strb	r3, [sp, #18]
 1245              		.loc 1 347 0
 1246 0578 069B     		ldr	r3, [sp, #24]
 1247 057a 9B0F     		lsrs	r3, r3, #30
 1248 057c DBB2     		uxtb	r3, r3
 1249 057e 03F07F03 		and	r3, r3, #127
 1250 0582 DAB2     		uxtb	r2, r3
 1251              		.loc 1 346 0
 1252 0584 9DF80F30 		ldrb	r3, [sp, #15]	@ zero_extendqisi2
 1253 0588 1344     		add	r3, r3, r2
 1254 058a DBB2     		uxtb	r3, r3
ARM GAS  C:\Users\PCHAUT~1\AppData\Local\Temp\ccgoQRgJ.s 			page 23


 1255 058c 8DF85530 		strb	r3, [sp, #85]
 1256              		.loc 1 348 0
 1257 0590 069B     		ldr	r3, [sp, #24]
 1258 0592 DB0D     		lsrs	r3, r3, #23
 1259 0594 DBB2     		uxtb	r3, r3
 1260 0596 03F07F03 		and	r3, r3, #127
 1261 059a DBB2     		uxtb	r3, r3
 1262 059c 8DF85630 		strb	r3, [sp, #86]
 1263              		.loc 1 349 0
 1264 05a0 069B     		ldr	r3, [sp, #24]
 1265 05a2 1B0C     		lsrs	r3, r3, #16
 1266 05a4 DBB2     		uxtb	r3, r3
 1267 05a6 03F07F03 		and	r3, r3, #127
 1268 05aa DBB2     		uxtb	r3, r3
 1269 05ac 8DF85730 		strb	r3, [sp, #87]
 1270              		.loc 1 350 0
 1271 05b0 069B     		ldr	r3, [sp, #24]
 1272 05b2 5B0A     		lsrs	r3, r3, #9
 1273 05b4 DBB2     		uxtb	r3, r3
 1274 05b6 03F07F03 		and	r3, r3, #127
 1275 05ba DBB2     		uxtb	r3, r3
 1276 05bc 8DF85830 		strb	r3, [sp, #88]
 1277              		.loc 1 351 0
 1278 05c0 069B     		ldr	r3, [sp, #24]
 1279 05c2 9B08     		lsrs	r3, r3, #2
 1280 05c4 DBB2     		uxtb	r3, r3
 1281 05c6 03F07F03 		and	r3, r3, #127
 1282 05ca DBB2     		uxtb	r3, r3
 1283 05cc 8DF85930 		strb	r3, [sp, #89]
 1284              		.loc 1 352 0
 1285 05d0 0023     		movs	r3, #0
 1286 05d2 8DF85A30 		strb	r3, [sp, #90]
 1287              	.L60:
 1288              		.loc 1 356 0
 1289 05d6 9DF80330 		ldrb	r3, [sp, #3]	@ zero_extendqisi2
 1290 05da 03F00403 		and	r3, r3, #4
 1291 05de 002B     		cmp	r3, #0
 1292 05e0 00F0EB80 		beq	.L61
 1293              		.loc 1 357 0 discriminator 1
 1294 05e4 9DF81530 		ldrb	r3, [sp, #21]	@ zero_extendqisi2
 1295 05e8 03F00403 		and	r3, r3, #4
 1296              		.loc 1 356 0 discriminator 1
 1297 05ec 002B     		cmp	r3, #0
 1298 05ee 40F0E480 		bne	.L61
 1299              		.loc 1 359 0
 1300 05f2 7B22     		movs	r2, #123
 1301 05f4 9421     		movs	r1, #148
 1302 05f6 0198     		ldr	r0, [sp, #4]
 1303 05f8 FFF7FEFF 		bl	VL53L0X_WrByte
 1304 05fc 0346     		mov	r3, r0
 1305 05fe 1A46     		mov	r2, r3
 1306 0600 9DF81230 		ldrb	r3, [sp, #18]
 1307 0604 1343     		orrs	r3, r3, r2
 1308 0606 8DF81230 		strb	r3, [sp, #18]
 1309              		.loc 1 360 0
 1310 060a 0198     		ldr	r0, [sp, #4]
 1311 060c FFF7FEFF 		bl	VL53L0X_device_read_strobe
ARM GAS  C:\Users\PCHAUT~1\AppData\Local\Temp\ccgoQRgJ.s 			page 24


 1312 0610 0346     		mov	r3, r0
 1313 0612 1A46     		mov	r2, r3
 1314 0614 9DF81230 		ldrb	r3, [sp, #18]
 1315 0618 1343     		orrs	r3, r3, r2
 1316 061a 8DF81230 		strb	r3, [sp, #18]
 1317              		.loc 1 361 0
 1318 061e 07AB     		add	r3, sp, #28
 1319 0620 1A46     		mov	r2, r3
 1320 0622 9021     		movs	r1, #144
 1321 0624 0198     		ldr	r0, [sp, #4]
 1322 0626 FFF7FEFF 		bl	VL53L0X_RdDWord
 1323 062a 0346     		mov	r3, r0
 1324 062c 1A46     		mov	r2, r3
 1325 062e 9DF81230 		ldrb	r3, [sp, #18]
 1326 0632 1343     		orrs	r3, r3, r2
 1327 0634 8DF81230 		strb	r3, [sp, #18]
 1328              		.loc 1 363 0
 1329 0638 7C22     		movs	r2, #124
 1330 063a 9421     		movs	r1, #148
 1331 063c 0198     		ldr	r0, [sp, #4]
 1332 063e FFF7FEFF 		bl	VL53L0X_WrByte
 1333 0642 0346     		mov	r3, r0
 1334 0644 1A46     		mov	r2, r3
 1335 0646 9DF81230 		ldrb	r3, [sp, #18]
 1336 064a 1343     		orrs	r3, r3, r2
 1337 064c 8DF81230 		strb	r3, [sp, #18]
 1338              		.loc 1 364 0
 1339 0650 0198     		ldr	r0, [sp, #4]
 1340 0652 FFF7FEFF 		bl	VL53L0X_device_read_strobe
 1341 0656 0346     		mov	r3, r0
 1342 0658 1A46     		mov	r2, r3
 1343 065a 9DF81230 		ldrb	r3, [sp, #18]
 1344 065e 1343     		orrs	r3, r3, r2
 1345 0660 8DF81230 		strb	r3, [sp, #18]
 1346              		.loc 1 365 0
 1347 0664 08AB     		add	r3, sp, #32
 1348 0666 1A46     		mov	r2, r3
 1349 0668 9021     		movs	r1, #144
 1350 066a 0198     		ldr	r0, [sp, #4]
 1351 066c FFF7FEFF 		bl	VL53L0X_RdDWord
 1352 0670 0346     		mov	r3, r0
 1353 0672 1A46     		mov	r2, r3
 1354 0674 9DF81230 		ldrb	r3, [sp, #18]
 1355 0678 1343     		orrs	r3, r3, r2
 1356 067a 8DF81230 		strb	r3, [sp, #18]
 1357              		.loc 1 367 0
 1358 067e 7322     		movs	r2, #115
 1359 0680 9421     		movs	r1, #148
 1360 0682 0198     		ldr	r0, [sp, #4]
 1361 0684 FFF7FEFF 		bl	VL53L0X_WrByte
 1362 0688 0346     		mov	r3, r0
 1363 068a 1A46     		mov	r2, r3
 1364 068c 9DF81230 		ldrb	r3, [sp, #18]
 1365 0690 1343     		orrs	r3, r3, r2
 1366 0692 8DF81230 		strb	r3, [sp, #18]
 1367              		.loc 1 368 0
 1368 0696 0198     		ldr	r0, [sp, #4]
ARM GAS  C:\Users\PCHAUT~1\AppData\Local\Temp\ccgoQRgJ.s 			page 25


 1369 0698 FFF7FEFF 		bl	VL53L0X_device_read_strobe
 1370 069c 0346     		mov	r3, r0
 1371 069e 1A46     		mov	r2, r3
 1372 06a0 9DF81230 		ldrb	r3, [sp, #18]
 1373 06a4 1343     		orrs	r3, r3, r2
 1374 06a6 8DF81230 		strb	r3, [sp, #18]
 1375              		.loc 1 369 0
 1376 06aa 06AB     		add	r3, sp, #24
 1377 06ac 1A46     		mov	r2, r3
 1378 06ae 9021     		movs	r1, #144
 1379 06b0 0198     		ldr	r0, [sp, #4]
 1380 06b2 FFF7FEFF 		bl	VL53L0X_RdDWord
 1381 06b6 0346     		mov	r3, r0
 1382 06b8 1A46     		mov	r2, r3
 1383 06ba 9DF81230 		ldrb	r3, [sp, #18]
 1384 06be 1343     		orrs	r3, r3, r2
 1385 06c0 8DF81230 		strb	r3, [sp, #18]
 1386              		.loc 1 372 0
 1387 06c4 069B     		ldr	r3, [sp, #24]
 1388 06c6 1B02     		lsls	r3, r3, #8
 1389              		.loc 1 371 0
 1390 06c8 9BB2     		uxth	r3, r3
 1391 06ca 0A93     		str	r3, [sp, #40]
 1392              		.loc 1 374 0
 1393 06cc 7422     		movs	r2, #116
 1394 06ce 9421     		movs	r1, #148
 1395 06d0 0198     		ldr	r0, [sp, #4]
 1396 06d2 FFF7FEFF 		bl	VL53L0X_WrByte
 1397 06d6 0346     		mov	r3, r0
 1398 06d8 1A46     		mov	r2, r3
 1399 06da 9DF81230 		ldrb	r3, [sp, #18]
 1400 06de 1343     		orrs	r3, r3, r2
 1401 06e0 8DF81230 		strb	r3, [sp, #18]
 1402              		.loc 1 375 0
 1403 06e4 0198     		ldr	r0, [sp, #4]
 1404 06e6 FFF7FEFF 		bl	VL53L0X_device_read_strobe
 1405 06ea 0346     		mov	r3, r0
 1406 06ec 1A46     		mov	r2, r3
 1407 06ee 9DF81230 		ldrb	r3, [sp, #18]
 1408 06f2 1343     		orrs	r3, r3, r2
 1409 06f4 8DF81230 		strb	r3, [sp, #18]
 1410              		.loc 1 376 0
 1411 06f8 06AB     		add	r3, sp, #24
 1412 06fa 1A46     		mov	r2, r3
 1413 06fc 9021     		movs	r1, #144
 1414 06fe 0198     		ldr	r0, [sp, #4]
 1415 0700 FFF7FEFF 		bl	VL53L0X_RdDWord
 1416 0704 0346     		mov	r3, r0
 1417 0706 1A46     		mov	r2, r3
 1418 0708 9DF81230 		ldrb	r3, [sp, #18]
 1419 070c 1343     		orrs	r3, r3, r2
 1420 070e 8DF81230 		strb	r3, [sp, #18]
 1421              		.loc 1 379 0
 1422 0712 069B     		ldr	r3, [sp, #24]
 1423 0714 1B0E     		lsrs	r3, r3, #24
 1424              		.loc 1 378 0
 1425 0716 0A9A     		ldr	r2, [sp, #40]
ARM GAS  C:\Users\PCHAUT~1\AppData\Local\Temp\ccgoQRgJ.s 			page 26


 1426 0718 1343     		orrs	r3, r3, r2
 1427 071a 0A93     		str	r3, [sp, #40]
 1428              		.loc 1 381 0
 1429 071c 7522     		movs	r2, #117
 1430 071e 9421     		movs	r1, #148
 1431 0720 0198     		ldr	r0, [sp, #4]
 1432 0722 FFF7FEFF 		bl	VL53L0X_WrByte
 1433 0726 0346     		mov	r3, r0
 1434 0728 1A46     		mov	r2, r3
 1435 072a 9DF81230 		ldrb	r3, [sp, #18]
 1436 072e 1343     		orrs	r3, r3, r2
 1437 0730 8DF81230 		strb	r3, [sp, #18]
 1438              		.loc 1 382 0
 1439 0734 0198     		ldr	r0, [sp, #4]
 1440 0736 FFF7FEFF 		bl	VL53L0X_device_read_strobe
 1441 073a 0346     		mov	r3, r0
 1442 073c 1A46     		mov	r2, r3
 1443 073e 9DF81230 		ldrb	r3, [sp, #18]
 1444 0742 1343     		orrs	r3, r3, r2
 1445 0744 8DF81230 		strb	r3, [sp, #18]
 1446              		.loc 1 383 0
 1447 0748 06AB     		add	r3, sp, #24
 1448 074a 1A46     		mov	r2, r3
 1449 074c 9021     		movs	r1, #144
 1450 074e 0198     		ldr	r0, [sp, #4]
 1451 0750 FFF7FEFF 		bl	VL53L0X_RdDWord
 1452 0754 0346     		mov	r3, r0
 1453 0756 1A46     		mov	r2, r3
 1454 0758 9DF81230 		ldrb	r3, [sp, #18]
 1455 075c 1343     		orrs	r3, r3, r2
 1456 075e 8DF81230 		strb	r3, [sp, #18]
 1457              		.loc 1 386 0
 1458 0762 069B     		ldr	r3, [sp, #24]
 1459 0764 1B02     		lsls	r3, r3, #8
 1460              		.loc 1 385 0
 1461 0766 9BB2     		uxth	r3, r3
 1462 0768 0993     		str	r3, [sp, #36]
 1463              		.loc 1 388 0
 1464 076a 7622     		movs	r2, #118
 1465 076c 9421     		movs	r1, #148
 1466 076e 0198     		ldr	r0, [sp, #4]
 1467 0770 FFF7FEFF 		bl	VL53L0X_WrByte
 1468 0774 0346     		mov	r3, r0
 1469 0776 1A46     		mov	r2, r3
 1470 0778 9DF81230 		ldrb	r3, [sp, #18]
 1471 077c 1343     		orrs	r3, r3, r2
 1472 077e 8DF81230 		strb	r3, [sp, #18]
 1473              		.loc 1 389 0
 1474 0782 0198     		ldr	r0, [sp, #4]
 1475 0784 FFF7FEFF 		bl	VL53L0X_device_read_strobe
 1476 0788 0346     		mov	r3, r0
 1477 078a 1A46     		mov	r2, r3
 1478 078c 9DF81230 		ldrb	r3, [sp, #18]
 1479 0790 1343     		orrs	r3, r3, r2
 1480 0792 8DF81230 		strb	r3, [sp, #18]
 1481              		.loc 1 390 0
 1482 0796 06AB     		add	r3, sp, #24
ARM GAS  C:\Users\PCHAUT~1\AppData\Local\Temp\ccgoQRgJ.s 			page 27


 1483 0798 1A46     		mov	r2, r3
 1484 079a 9021     		movs	r1, #144
 1485 079c 0198     		ldr	r0, [sp, #4]
 1486 079e FFF7FEFF 		bl	VL53L0X_RdDWord
 1487 07a2 0346     		mov	r3, r0
 1488 07a4 1A46     		mov	r2, r3
 1489 07a6 9DF81230 		ldrb	r3, [sp, #18]
 1490 07aa 1343     		orrs	r3, r3, r2
 1491 07ac 8DF81230 		strb	r3, [sp, #18]
 1492              		.loc 1 393 0
 1493 07b0 069B     		ldr	r3, [sp, #24]
 1494 07b2 1B0E     		lsrs	r3, r3, #24
 1495              		.loc 1 392 0
 1496 07b4 099A     		ldr	r2, [sp, #36]
 1497 07b6 1343     		orrs	r3, r3, r2
 1498 07b8 0993     		str	r3, [sp, #36]
 1499              	.L61:
 1500              		.loc 1 396 0
 1501 07ba 0022     		movs	r2, #0
 1502 07bc 8121     		movs	r1, #129
 1503 07be 0198     		ldr	r0, [sp, #4]
 1504 07c0 FFF7FEFF 		bl	VL53L0X_WrByte
 1505 07c4 0346     		mov	r3, r0
 1506 07c6 1A46     		mov	r2, r3
 1507 07c8 9DF81230 		ldrb	r3, [sp, #18]
 1508 07cc 1343     		orrs	r3, r3, r2
 1509 07ce 8DF81230 		strb	r3, [sp, #18]
 1510              		.loc 1 397 0
 1511 07d2 0622     		movs	r2, #6
 1512 07d4 FF21     		movs	r1, #255
 1513 07d6 0198     		ldr	r0, [sp, #4]
 1514 07d8 FFF7FEFF 		bl	VL53L0X_WrByte
 1515 07dc 0346     		mov	r3, r0
 1516 07de 1A46     		mov	r2, r3
 1517 07e0 9DF81230 		ldrb	r3, [sp, #18]
 1518 07e4 1343     		orrs	r3, r3, r2
 1519 07e6 8DF81230 		strb	r3, [sp, #18]
 1520              		.loc 1 398 0
 1521 07ea 0DF10F03 		add	r3, sp, #15
 1522 07ee 1A46     		mov	r2, r3
 1523 07f0 8321     		movs	r1, #131
 1524 07f2 0198     		ldr	r0, [sp, #4]
 1525 07f4 FFF7FEFF 		bl	VL53L0X_RdByte
 1526 07f8 0346     		mov	r3, r0
 1527 07fa 1A46     		mov	r2, r3
 1528 07fc 9DF81230 		ldrb	r3, [sp, #18]
 1529 0800 1343     		orrs	r3, r3, r2
 1530 0802 8DF81230 		strb	r3, [sp, #18]
 1531              		.loc 1 399 0
 1532 0806 9DF80F30 		ldrb	r3, [sp, #15]	@ zero_extendqisi2
 1533 080a 23F00403 		bic	r3, r3, #4
 1534 080e DBB2     		uxtb	r3, r3
 1535 0810 1A46     		mov	r2, r3
 1536 0812 8321     		movs	r1, #131
 1537 0814 0198     		ldr	r0, [sp, #4]
 1538 0816 FFF7FEFF 		bl	VL53L0X_WrByte
 1539 081a 0346     		mov	r3, r0
ARM GAS  C:\Users\PCHAUT~1\AppData\Local\Temp\ccgoQRgJ.s 			page 28


 1540 081c 1A46     		mov	r2, r3
 1541 081e 9DF81230 		ldrb	r3, [sp, #18]
 1542 0822 1343     		orrs	r3, r3, r2
 1543 0824 8DF81230 		strb	r3, [sp, #18]
 1544              		.loc 1 400 0
 1545 0828 0122     		movs	r2, #1
 1546 082a FF21     		movs	r1, #255
 1547 082c 0198     		ldr	r0, [sp, #4]
 1548 082e FFF7FEFF 		bl	VL53L0X_WrByte
 1549 0832 0346     		mov	r3, r0
 1550 0834 1A46     		mov	r2, r3
 1551 0836 9DF81230 		ldrb	r3, [sp, #18]
 1552 083a 1343     		orrs	r3, r3, r2
 1553 083c 8DF81230 		strb	r3, [sp, #18]
 1554              		.loc 1 401 0
 1555 0840 0122     		movs	r2, #1
 1556 0842 0021     		movs	r1, #0
 1557 0844 0198     		ldr	r0, [sp, #4]
 1558 0846 FFF7FEFF 		bl	VL53L0X_WrByte
 1559 084a 0346     		mov	r3, r0
 1560 084c 1A46     		mov	r2, r3
 1561 084e 9DF81230 		ldrb	r3, [sp, #18]
 1562 0852 1343     		orrs	r3, r3, r2
 1563 0854 8DF81230 		strb	r3, [sp, #18]
 1564              		.loc 1 403 0
 1565 0858 0022     		movs	r2, #0
 1566 085a FF21     		movs	r1, #255
 1567 085c 0198     		ldr	r0, [sp, #4]
 1568 085e FFF7FEFF 		bl	VL53L0X_WrByte
 1569 0862 0346     		mov	r3, r0
 1570 0864 1A46     		mov	r2, r3
 1571 0866 9DF81230 		ldrb	r3, [sp, #18]
 1572 086a 1343     		orrs	r3, r3, r2
 1573 086c 8DF81230 		strb	r3, [sp, #18]
 1574              		.loc 1 404 0
 1575 0870 0022     		movs	r2, #0
 1576 0872 8021     		movs	r1, #128
 1577 0874 0198     		ldr	r0, [sp, #4]
 1578 0876 FFF7FEFF 		bl	VL53L0X_WrByte
 1579 087a 0346     		mov	r3, r0
 1580 087c 1A46     		mov	r2, r3
 1581 087e 9DF81230 		ldrb	r3, [sp, #18]
 1582 0882 1343     		orrs	r3, r3, r2
 1583 0884 8DF81230 		strb	r3, [sp, #18]
 1584              	.L58:
 1585              		.loc 1 407 0
 1586 0888 9DF91230 		ldrsb	r3, [sp, #18]
 1587 088c 002B     		cmp	r3, #0
 1588 088e 40F09180 		bne	.L62
 1589              		.loc 1 407 0 is_stmt 0 discriminator 1
 1590 0892 9DF81530 		ldrb	r3, [sp, #21]	@ zero_extendqisi2
 1591 0896 072B     		cmp	r3, #7
 1592 0898 00F08C80 		beq	.L62
 1593              		.loc 1 410 0 is_stmt 1
 1594 089c 9DF80330 		ldrb	r3, [sp, #3]	@ zero_extendqisi2
 1595 08a0 03F00103 		and	r3, r3, #1
 1596 08a4 002B     		cmp	r3, #0
ARM GAS  C:\Users\PCHAUT~1\AppData\Local\Temp\ccgoQRgJ.s 			page 29


 1597 08a6 23D0     		beq	.L63
 1598              		.loc 1 411 0 discriminator 1
 1599 08a8 9DF81530 		ldrb	r3, [sp, #21]	@ zero_extendqisi2
 1600 08ac 03F00103 		and	r3, r3, #1
 1601              		.loc 1 410 0 discriminator 1
 1602 08b0 002B     		cmp	r3, #0
 1603 08b2 1DD1     		bne	.L63
 1604              		.loc 1 412 0
 1605 08b4 019B     		ldr	r3, [sp, #4]
 1606 08b6 9DF81320 		ldrb	r2, [sp, #19]
 1607 08ba 83F81321 		strb	r2, [r3, #275]
 1608              		.loc 1 415 0
 1609 08be 019B     		ldr	r3, [sp, #4]
 1610 08c0 9DF81420 		ldrb	r2, [sp, #20]
 1611 08c4 83F81421 		strb	r2, [r3, #276]
 1612              		.loc 1 418 0
 1613 08c8 0023     		movs	r3, #0
 1614 08ca 0B93     		str	r3, [sp, #44]
 1615 08cc 0DE0     		b	.L64
 1616              	.L65:
 1617              		.loc 1 420 0 discriminator 3
 1618 08ce 10AA     		add	r2, sp, #64
 1619 08d0 0B9B     		ldr	r3, [sp, #44]
 1620 08d2 1344     		add	r3, r3, r2
 1621 08d4 1978     		ldrb	r1, [r3]	@ zero_extendqisi2
 1622              		.loc 1 419 0 discriminator 3
 1623 08d6 019A     		ldr	r2, [sp, #4]
 1624 08d8 0B9B     		ldr	r3, [sp, #44]
 1625 08da 1344     		add	r3, r3, r2
 1626 08dc 03F59573 		add	r3, r3, #298
 1627 08e0 0A46     		mov	r2, r1
 1628 08e2 1A70     		strb	r2, [r3]
 1629              		.loc 1 418 0 discriminator 3
 1630 08e4 0B9B     		ldr	r3, [sp, #44]
 1631 08e6 0133     		adds	r3, r3, #1
 1632 08e8 0B93     		str	r3, [sp, #44]
 1633              	.L64:
 1634              		.loc 1 418 0 is_stmt 0 discriminator 1
 1635 08ea 0B9B     		ldr	r3, [sp, #44]
 1636 08ec 052B     		cmp	r3, #5
 1637 08ee EEDD     		ble	.L65
 1638              	.L63:
 1639              		.loc 1 424 0 is_stmt 1
 1640 08f0 9DF80330 		ldrb	r3, [sp, #3]	@ zero_extendqisi2
 1641 08f4 03F00203 		and	r3, r3, #2
 1642 08f8 002B     		cmp	r3, #0
 1643 08fa 17D0     		beq	.L66
 1644              		.loc 1 425 0 discriminator 1
 1645 08fc 9DF81530 		ldrb	r3, [sp, #21]	@ zero_extendqisi2
 1646 0900 03F00203 		and	r3, r3, #2
 1647              		.loc 1 424 0 discriminator 1
 1648 0904 002B     		cmp	r3, #0
 1649 0906 11D1     		bne	.L66
 1650              		.loc 1 426 0
 1651 0908 9DF81020 		ldrb	r2, [sp, #16]	@ zero_extendqisi2
 1652 090c 019B     		ldr	r3, [sp, #4]
 1653 090e 83F8F120 		strb	r2, [r3, #241]
ARM GAS  C:\Users\PCHAUT~1\AppData\Local\Temp\ccgoQRgJ.s 			page 30


 1654              		.loc 1 429 0
 1655 0912 9DF81120 		ldrb	r2, [sp, #17]	@ zero_extendqisi2
 1656 0916 019B     		ldr	r3, [sp, #4]
 1657 0918 83F8F220 		strb	r2, [r3, #242]
 1658              		.loc 1 432 0
 1659 091c 019B     		ldr	r3, [sp, #4]
 1660 091e F333     		adds	r3, r3, #243
 1661 0920 0F93     		str	r3, [sp, #60]
 1662              		.loc 1 434 0
 1663 0922 12AB     		add	r3, sp, #72
 1664 0924 1946     		mov	r1, r3
 1665 0926 0F98     		ldr	r0, [sp, #60]
 1666 0928 FFF7FEFF 		bl	strcpy
 1667              	.L66:
 1668              		.loc 1 438 0
 1669 092c 9DF80330 		ldrb	r3, [sp, #3]	@ zero_extendqisi2
 1670 0930 03F00403 		and	r3, r3, #4
 1671 0934 002B     		cmp	r3, #0
 1672 0936 30D0     		beq	.L67
 1673              		.loc 1 439 0 discriminator 1
 1674 0938 9DF81530 		ldrb	r3, [sp, #21]	@ zero_extendqisi2
 1675 093c 03F00403 		and	r3, r3, #4
 1676              		.loc 1 438 0 discriminator 1
 1677 0940 002B     		cmp	r3, #0
 1678 0942 2AD1     		bne	.L67
 1679              		.loc 1 440 0
 1680 0944 079A     		ldr	r2, [sp, #28]
 1681 0946 019B     		ldr	r3, [sp, #4]
 1682 0948 C3F81821 		str	r2, [r3, #280]
 1683              		.loc 1 443 0
 1684 094c 089A     		ldr	r2, [sp, #32]
 1685 094e 019B     		ldr	r3, [sp, #4]
 1686 0950 C3F81C21 		str	r2, [r3, #284]
 1687              		.loc 1 446 0
 1688 0954 0A9B     		ldr	r3, [sp, #40]
 1689 0956 5B02     		lsls	r3, r3, #9
 1690 0958 0E93     		str	r3, [sp, #56]
 1691              		.loc 1 450 0
 1692 095a 019B     		ldr	r3, [sp, #4]
 1693 095c 0E9A     		ldr	r2, [sp, #56]
 1694 095e C3F82021 		str	r2, [r3, #288]
 1695              		.loc 1 454 0
 1696 0962 0023     		movs	r3, #0
 1697 0964 ADF81630 		strh	r3, [sp, #22]	@ movhi
 1698              		.loc 1 455 0
 1699 0968 099B     		ldr	r3, [sp, #36]
 1700 096a 002B     		cmp	r3, #0
 1701 096c 11D0     		beq	.L68
 1702              		.loc 1 456 0
 1703 096e 099A     		ldr	r2, [sp, #36]
 1704 0970 0D9B     		ldr	r3, [sp, #52]
 1705 0972 D31A     		subs	r3, r2, r3
 1706 0974 0C93     		str	r3, [sp, #48]
 1707              		.loc 1 460 0
 1708 0976 0C9B     		ldr	r3, [sp, #48]
 1709 0978 4FF47A72 		mov	r2, #1000
 1710 097c 02FB03F3 		mul	r3, r2, r3
ARM GAS  C:\Users\PCHAUT~1\AppData\Local\Temp\ccgoQRgJ.s 			page 31


 1711 0980 1B09     		lsrs	r3, r3, #4
 1712              		.loc 1 459 0
 1713 0982 ADF81630 		strh	r3, [sp, #22]	@ movhi
 1714              		.loc 1 461 0
 1715 0986 BDF81630 		ldrh	r3, [sp, #22]
 1716 098a 5B42     		negs	r3, r3
 1717 098c 9BB2     		uxth	r3, r3
 1718 098e ADF81630 		strh	r3, [sp, #22]	@ movhi
 1719              	.L68:
 1720              		.loc 1 464 0
 1721 0992 BDF91620 		ldrsh	r2, [sp, #22]
 1722 0996 019B     		ldr	r3, [sp, #4]
 1723 0998 DA60     		str	r2, [r3, #12]
 1724              	.L67:
 1725              		.loc 1 468 0
 1726 099a 9DF81520 		ldrb	r2, [sp, #21]
 1727 099e 9DF80330 		ldrb	r3, [sp, #3]
 1728 09a2 1343     		orrs	r3, r3, r2
 1729 09a4 DBB2     		uxtb	r3, r3
 1730 09a6 8DF80F30 		strb	r3, [sp, #15]
 1731              		.loc 1 469 0
 1732 09aa 9DF80F20 		ldrb	r2, [sp, #15]	@ zero_extendqisi2
 1733 09ae 019B     		ldr	r3, [sp, #4]
 1734 09b0 83F8F020 		strb	r2, [r3, #240]
 1735              	.L62:
 1736              		.loc 1 474 0
 1737 09b4 9DF91230 		ldrsb	r3, [sp, #18]
 1738              		.loc 1 475 0
 1739 09b8 1846     		mov	r0, r3
 1740 09ba 054B     		ldr	r3, .L74
 1741 09bc 179A     		ldr	r2, [sp, #92]
 1742 09be 1B68     		ldr	r3, [r3]
 1743 09c0 9A42     		cmp	r2, r3
 1744 09c2 01D0     		beq	.L70
 1745 09c4 FFF7FEFF 		bl	__stack_chk_fail
 1746              	.L70:
 1747 09c8 19B0     		add	sp, sp, #100
 1748              		.cfi_def_cfa_offset 4
 1749              		@ sp needed
 1750 09ca 5DF804FB 		ldr	pc, [sp], #4
 1751              	.L75:
 1752 09ce 00BF     		.align	2
 1753              	.L74:
 1754 09d0 00000000 		.word	__stack_chk_guard
 1755              		.cfi_endproc
 1756              	.LFE10:
 1757              		.size	VL53L0X_get_info_from_device, .-VL53L0X_get_info_from_device
 1758              		.section	.text.VL53L0X_calc_macro_period_ps,"ax",%progbits
 1759              		.align	1
 1760              		.p2align 4,,15
 1761              		.global	VL53L0X_calc_macro_period_ps
 1762              		.syntax unified
 1763              		.thumb
 1764              		.thumb_func
 1765              		.fpu fpv4-sp-d16
 1766              		.type	VL53L0X_calc_macro_period_ps, %function
 1767              	VL53L0X_calc_macro_period_ps:
ARM GAS  C:\Users\PCHAUT~1\AppData\Local\Temp\ccgoQRgJ.s 			page 32


 1768              	.LFB11:
 1769              		.loc 1 479 0
 1770              		.cfi_startproc
 1771              		@ args = 0, pretend = 0, frame = 32
 1772              		@ frame_needed = 0, uses_anonymous_args = 0
 1773 0000 10B5     		push	{r4, lr}
 1774              		.cfi_def_cfa_offset 8
 1775              		.cfi_offset 4, -8
 1776              		.cfi_offset 14, -4
 1777 0002 88B0     		sub	sp, sp, #32
 1778              		.cfi_def_cfa_offset 40
 1779 0004 0190     		str	r0, [sp, #4]
 1780 0006 0B46     		mov	r3, r1
 1781 0008 8DF80330 		strb	r3, [sp, #3]
 1782              		.loc 1 479 0
 1783 000c 0F4B     		ldr	r3, .L79
 1784 000e 1B68     		ldr	r3, [r3]
 1785 0010 0793     		str	r3, [sp, #28]
 1786              		.loc 1 490 0
 1787 0012 40F27763 		movw	r3, #1655
 1788 0016 4FF00004 		mov	r4, #0
 1789 001a CDE90434 		strd	r3, [sp, #16]
 1790              		.loc 1 492 0
 1791 001e 4FF41063 		mov	r3, #2304
 1792 0022 0293     		str	r3, [sp, #8]
 1793              		.loc 1 494 0
 1794 0024 9DF80330 		ldrb	r3, [sp, #3]	@ zero_extendqisi2
 1795 0028 029A     		ldr	r2, [sp, #8]
 1796 002a 02FB03F3 		mul	r3, r2, r3
 1797              		.loc 1 493 0
 1798 002e 049A     		ldr	r2, [sp, #16]
 1799 0030 02FB03F3 		mul	r3, r2, r3
 1800 0034 0393     		str	r3, [sp, #12]
 1801              		.loc 1 497 0
 1802 0036 039B     		ldr	r3, [sp, #12]
 1803              		.loc 1 498 0
 1804 0038 1846     		mov	r0, r3
 1805 003a 044B     		ldr	r3, .L79
 1806 003c 079A     		ldr	r2, [sp, #28]
 1807 003e 1B68     		ldr	r3, [r3]
 1808 0040 9A42     		cmp	r2, r3
 1809 0042 01D0     		beq	.L78
 1810 0044 FFF7FEFF 		bl	__stack_chk_fail
 1811              	.L78:
 1812 0048 08B0     		add	sp, sp, #32
 1813              		.cfi_def_cfa_offset 8
 1814              		@ sp needed
 1815 004a 10BD     		pop	{r4, pc}
 1816              	.L80:
 1817              		.align	2
 1818              	.L79:
 1819 004c 00000000 		.word	__stack_chk_guard
 1820              		.cfi_endproc
 1821              	.LFE11:
 1822              		.size	VL53L0X_calc_macro_period_ps, .-VL53L0X_calc_macro_period_ps
 1823              		.section	.text.VL53L0X_encode_timeout,"ax",%progbits
 1824              		.align	1
ARM GAS  C:\Users\PCHAUT~1\AppData\Local\Temp\ccgoQRgJ.s 			page 33


 1825              		.p2align 4,,15
 1826              		.global	VL53L0X_encode_timeout
 1827              		.syntax unified
 1828              		.thumb
 1829              		.thumb_func
 1830              		.fpu fpv4-sp-d16
 1831              		.type	VL53L0X_encode_timeout, %function
 1832              	VL53L0X_encode_timeout:
 1833              	.LFB12:
 1834              		.loc 1 501 0
 1835              		.cfi_startproc
 1836              		@ args = 0, pretend = 0, frame = 24
 1837              		@ frame_needed = 0, uses_anonymous_args = 0
 1838 0000 00B5     		push	{lr}
 1839              		.cfi_def_cfa_offset 4
 1840              		.cfi_offset 14, -4
 1841 0002 87B0     		sub	sp, sp, #28
 1842              		.cfi_def_cfa_offset 32
 1843 0004 0190     		str	r0, [sp, #4]
 1844              		.loc 1 501 0
 1845 0006 1B4B     		ldr	r3, .L87
 1846 0008 1B68     		ldr	r3, [r3]
 1847 000a 0593     		str	r3, [sp, #20]
 1848              		.loc 1 506 0
 1849 000c 0023     		movs	r3, #0
 1850 000e ADF80C30 		strh	r3, [sp, #12]	@ movhi
 1851              		.loc 1 507 0
 1852 0012 0023     		movs	r3, #0
 1853 0014 0493     		str	r3, [sp, #16]
 1854              		.loc 1 508 0
 1855 0016 0023     		movs	r3, #0
 1856 0018 ADF80E30 		strh	r3, [sp, #14]	@ movhi
 1857              		.loc 1 510 0
 1858 001c 019B     		ldr	r3, [sp, #4]
 1859 001e 002B     		cmp	r3, #0
 1860 0020 1BD0     		beq	.L82
 1861              		.loc 1 511 0
 1862 0022 019B     		ldr	r3, [sp, #4]
 1863 0024 013B     		subs	r3, r3, #1
 1864 0026 0493     		str	r3, [sp, #16]
 1865              		.loc 1 513 0
 1866 0028 07E0     		b	.L83
 1867              	.L84:
 1868              		.loc 1 514 0
 1869 002a 049B     		ldr	r3, [sp, #16]
 1870 002c 5B08     		lsrs	r3, r3, #1
 1871 002e 0493     		str	r3, [sp, #16]
 1872              		.loc 1 515 0
 1873 0030 BDF80E30 		ldrh	r3, [sp, #14]
 1874 0034 0133     		adds	r3, r3, #1
 1875 0036 ADF80E30 		strh	r3, [sp, #14]	@ movhi
 1876              	.L83:
 1877              		.loc 1 513 0
 1878 003a 049B     		ldr	r3, [sp, #16]
 1879 003c 23F0FF03 		bic	r3, r3, #255
 1880 0040 002B     		cmp	r3, #0
 1881 0042 F2D1     		bne	.L84
ARM GAS  C:\Users\PCHAUT~1\AppData\Local\Temp\ccgoQRgJ.s 			page 34


 1882              		.loc 1 518 0
 1883 0044 BDF80E30 		ldrh	r3, [sp, #14]	@ movhi
 1884 0048 1B02     		lsls	r3, r3, #8
 1885 004a 9AB2     		uxth	r2, r3
 1886              		.loc 1 519 0
 1887 004c 049B     		ldr	r3, [sp, #16]
 1888 004e 9BB2     		uxth	r3, r3
 1889 0050 DBB2     		uxtb	r3, r3
 1890 0052 9BB2     		uxth	r3, r3
 1891              		.loc 1 518 0
 1892 0054 1344     		add	r3, r3, r2
 1893 0056 ADF80C30 		strh	r3, [sp, #12]	@ movhi
 1894              	.L82:
 1895              		.loc 1 522 0
 1896 005a BDF80C30 		ldrh	r3, [sp, #12]
 1897              		.loc 1 524 0
 1898 005e 1846     		mov	r0, r3
 1899 0060 044B     		ldr	r3, .L87
 1900 0062 059A     		ldr	r2, [sp, #20]
 1901 0064 1B68     		ldr	r3, [r3]
 1902 0066 9A42     		cmp	r2, r3
 1903 0068 01D0     		beq	.L86
 1904 006a FFF7FEFF 		bl	__stack_chk_fail
 1905              	.L86:
 1906 006e 07B0     		add	sp, sp, #28
 1907              		.cfi_def_cfa_offset 4
 1908              		@ sp needed
 1909 0070 5DF804FB 		ldr	pc, [sp], #4
 1910              	.L88:
 1911              		.align	2
 1912              	.L87:
 1913 0074 00000000 		.word	__stack_chk_guard
 1914              		.cfi_endproc
 1915              	.LFE12:
 1916              		.size	VL53L0X_encode_timeout, .-VL53L0X_encode_timeout
 1917              		.section	.text.VL53L0X_decode_timeout,"ax",%progbits
 1918              		.align	1
 1919              		.p2align 4,,15
 1920              		.global	VL53L0X_decode_timeout
 1921              		.syntax unified
 1922              		.thumb
 1923              		.thumb_func
 1924              		.fpu fpv4-sp-d16
 1925              		.type	VL53L0X_decode_timeout, %function
 1926              	VL53L0X_decode_timeout:
 1927              	.LFB13:
 1928              		.loc 1 527 0
 1929              		.cfi_startproc
 1930              		@ args = 0, pretend = 0, frame = 16
 1931              		@ frame_needed = 0, uses_anonymous_args = 0
 1932 0000 00B5     		push	{lr}
 1933              		.cfi_def_cfa_offset 4
 1934              		.cfi_offset 14, -4
 1935 0002 85B0     		sub	sp, sp, #20
 1936              		.cfi_def_cfa_offset 24
 1937 0004 0346     		mov	r3, r0
 1938 0006 ADF80630 		strh	r3, [sp, #6]	@ movhi
ARM GAS  C:\Users\PCHAUT~1\AppData\Local\Temp\ccgoQRgJ.s 			page 35


 1939              		.loc 1 527 0
 1940 000a 0D4B     		ldr	r3, .L92
 1941 000c 1B68     		ldr	r3, [r3]
 1942 000e 0393     		str	r3, [sp, #12]
 1943              		.loc 1 532 0
 1944 0010 0023     		movs	r3, #0
 1945 0012 0293     		str	r3, [sp, #8]
 1946              		.loc 1 534 0
 1947 0014 BDF80630 		ldrh	r3, [sp, #6]
 1948 0018 DBB2     		uxtb	r3, r3
 1949              		.loc 1 535 0
 1950 001a BDF80620 		ldrh	r2, [sp, #6]
 1951 001e 120A     		lsrs	r2, r2, #8
 1952 0020 92B2     		uxth	r2, r2
 1953 0022 9340     		lsls	r3, r3, r2
 1954              		.loc 1 534 0
 1955 0024 0133     		adds	r3, r3, #1
 1956 0026 0293     		str	r3, [sp, #8]
 1957              		.loc 1 537 0
 1958 0028 029B     		ldr	r3, [sp, #8]
 1959              		.loc 1 538 0
 1960 002a 1846     		mov	r0, r3
 1961 002c 044B     		ldr	r3, .L92
 1962 002e 039A     		ldr	r2, [sp, #12]
 1963 0030 1B68     		ldr	r3, [r3]
 1964 0032 9A42     		cmp	r2, r3
 1965 0034 01D0     		beq	.L91
 1966 0036 FFF7FEFF 		bl	__stack_chk_fail
 1967              	.L91:
 1968 003a 05B0     		add	sp, sp, #20
 1969              		.cfi_def_cfa_offset 4
 1970              		@ sp needed
 1971 003c 5DF804FB 		ldr	pc, [sp], #4
 1972              	.L93:
 1973              		.align	2
 1974              	.L92:
 1975 0040 00000000 		.word	__stack_chk_guard
 1976              		.cfi_endproc
 1977              	.LFE13:
 1978              		.size	VL53L0X_decode_timeout, .-VL53L0X_decode_timeout
 1979              		.section	.text.VL53L0X_calc_timeout_mclks,"ax",%progbits
 1980              		.align	1
 1981              		.p2align 4,,15
 1982              		.global	VL53L0X_calc_timeout_mclks
 1983              		.syntax unified
 1984              		.thumb
 1985              		.thumb_func
 1986              		.fpu fpv4-sp-d16
 1987              		.type	VL53L0X_calc_timeout_mclks, %function
 1988              	VL53L0X_calc_timeout_mclks:
 1989              	.LFB14:
 1990              		.loc 1 545 0
 1991              		.cfi_startproc
 1992              		@ args = 0, pretend = 0, frame = 32
 1993              		@ frame_needed = 0, uses_anonymous_args = 0
 1994 0000 00B5     		push	{lr}
 1995              		.cfi_def_cfa_offset 4
ARM GAS  C:\Users\PCHAUT~1\AppData\Local\Temp\ccgoQRgJ.s 			page 36


 1996              		.cfi_offset 14, -4
 1997 0002 89B0     		sub	sp, sp, #36
 1998              		.cfi_def_cfa_offset 40
 1999 0004 0390     		str	r0, [sp, #12]
 2000 0006 0291     		str	r1, [sp, #8]
 2001 0008 1346     		mov	r3, r2
 2002 000a 8DF80730 		strb	r3, [sp, #7]
 2003              		.loc 1 545 0
 2004 000e 164B     		ldr	r3, .L97
 2005 0010 1B68     		ldr	r3, [r3]
 2006 0012 0793     		str	r3, [sp, #28]
 2007              		.loc 1 548 0
 2008 0014 0023     		movs	r3, #0
 2009 0016 0493     		str	r3, [sp, #16]
 2010              		.loc 1 550 0
 2011 0018 9DF80730 		ldrb	r3, [sp, #7]	@ zero_extendqisi2
 2012 001c 1946     		mov	r1, r3
 2013 001e 0398     		ldr	r0, [sp, #12]
 2014 0020 FFF7FEFF 		bl	VL53L0X_calc_macro_period_ps
 2015 0024 0590     		str	r0, [sp, #20]
 2016              		.loc 1 551 0
 2017 0026 059B     		ldr	r3, [sp, #20]
 2018 0028 03F5FA73 		add	r3, r3, #500
 2019 002c 0F4A     		ldr	r2, .L97+4
 2020 002e A2FB0323 		umull	r2, r3, r2, r3
 2021 0032 9B09     		lsrs	r3, r3, #6
 2022 0034 0693     		str	r3, [sp, #24]
 2023              		.loc 1 554 0
 2024 0036 029B     		ldr	r3, [sp, #8]
 2025 0038 4FF47A72 		mov	r2, #1000
 2026 003c 02FB03F2 		mul	r2, r2, r3
 2027              		.loc 1 555 0
 2028 0040 069B     		ldr	r3, [sp, #24]
 2029 0042 5B08     		lsrs	r3, r3, #1
 2030 0044 1A44     		add	r2, r2, r3
 2031              		.loc 1 553 0
 2032 0046 069B     		ldr	r3, [sp, #24]
 2033 0048 B2FBF3F3 		udiv	r3, r2, r3
 2034 004c 0493     		str	r3, [sp, #16]
 2035              		.loc 1 557 0
 2036 004e 049B     		ldr	r3, [sp, #16]
 2037              		.loc 1 558 0
 2038 0050 1846     		mov	r0, r3
 2039 0052 054B     		ldr	r3, .L97
 2040 0054 079A     		ldr	r2, [sp, #28]
 2041 0056 1B68     		ldr	r3, [r3]
 2042 0058 9A42     		cmp	r2, r3
 2043 005a 01D0     		beq	.L96
 2044 005c FFF7FEFF 		bl	__stack_chk_fail
 2045              	.L96:
 2046 0060 09B0     		add	sp, sp, #36
 2047              		.cfi_def_cfa_offset 4
 2048              		@ sp needed
 2049 0062 5DF804FB 		ldr	pc, [sp], #4
 2050              	.L98:
 2051 0066 00BF     		.align	2
 2052              	.L97:
ARM GAS  C:\Users\PCHAUT~1\AppData\Local\Temp\ccgoQRgJ.s 			page 37


 2053 0068 00000000 		.word	__stack_chk_guard
 2054 006c D34D6210 		.word	274877907
 2055              		.cfi_endproc
 2056              	.LFE14:
 2057              		.size	VL53L0X_calc_timeout_mclks, .-VL53L0X_calc_timeout_mclks
 2058              		.section	.text.VL53L0X_calc_timeout_us,"ax",%progbits
 2059              		.align	1
 2060              		.p2align 4,,15
 2061              		.global	VL53L0X_calc_timeout_us
 2062              		.syntax unified
 2063              		.thumb
 2064              		.thumb_func
 2065              		.fpu fpv4-sp-d16
 2066              		.type	VL53L0X_calc_timeout_us, %function
 2067              	VL53L0X_calc_timeout_us:
 2068              	.LFB15:
 2069              		.loc 1 564 0
 2070              		.cfi_startproc
 2071              		@ args = 0, pretend = 0, frame = 24
 2072              		@ frame_needed = 0, uses_anonymous_args = 0
 2073 0000 00B5     		push	{lr}
 2074              		.cfi_def_cfa_offset 4
 2075              		.cfi_offset 14, -4
 2076 0002 87B0     		sub	sp, sp, #28
 2077              		.cfi_def_cfa_offset 32
 2078 0004 0190     		str	r0, [sp, #4]
 2079 0006 0B46     		mov	r3, r1
 2080 0008 ADF80230 		strh	r3, [sp, #2]	@ movhi
 2081 000c 1346     		mov	r3, r2
 2082 000e 8DF80130 		strb	r3, [sp, #1]
 2083              		.loc 1 564 0
 2084 0012 164B     		ldr	r3, .L102
 2085 0014 1B68     		ldr	r3, [r3]
 2086 0016 0593     		str	r3, [sp, #20]
 2087              		.loc 1 567 0
 2088 0018 0023     		movs	r3, #0
 2089 001a 0293     		str	r3, [sp, #8]
 2090              		.loc 1 569 0
 2091 001c 9DF80130 		ldrb	r3, [sp, #1]	@ zero_extendqisi2
 2092 0020 1946     		mov	r1, r3
 2093 0022 0198     		ldr	r0, [sp, #4]
 2094 0024 FFF7FEFF 		bl	VL53L0X_calc_macro_period_ps
 2095 0028 0390     		str	r0, [sp, #12]
 2096              		.loc 1 570 0
 2097 002a 039B     		ldr	r3, [sp, #12]
 2098 002c 03F5FA73 		add	r3, r3, #500
 2099 0030 0F4A     		ldr	r2, .L102+4
 2100 0032 A2FB0323 		umull	r2, r3, r2, r3
 2101 0036 9B09     		lsrs	r3, r3, #6
 2102 0038 0493     		str	r3, [sp, #16]
 2103              		.loc 1 573 0
 2104 003a BDF80230 		ldrh	r3, [sp, #2]
 2105 003e 049A     		ldr	r2, [sp, #16]
 2106 0040 02FB03F3 		mul	r3, r2, r3
 2107 0044 03F5FA73 		add	r3, r3, #500
 2108              		.loc 1 572 0
 2109 0048 094A     		ldr	r2, .L102+4
ARM GAS  C:\Users\PCHAUT~1\AppData\Local\Temp\ccgoQRgJ.s 			page 38


 2110 004a A2FB0323 		umull	r2, r3, r2, r3
 2111 004e 9B09     		lsrs	r3, r3, #6
 2112 0050 0293     		str	r3, [sp, #8]
 2113              		.loc 1 575 0
 2114 0052 029B     		ldr	r3, [sp, #8]
 2115              		.loc 1 576 0
 2116 0054 1846     		mov	r0, r3
 2117 0056 054B     		ldr	r3, .L102
 2118 0058 059A     		ldr	r2, [sp, #20]
 2119 005a 1B68     		ldr	r3, [r3]
 2120 005c 9A42     		cmp	r2, r3
 2121 005e 01D0     		beq	.L101
 2122 0060 FFF7FEFF 		bl	__stack_chk_fail
 2123              	.L101:
 2124 0064 07B0     		add	sp, sp, #28
 2125              		.cfi_def_cfa_offset 4
 2126              		@ sp needed
 2127 0066 5DF804FB 		ldr	pc, [sp], #4
 2128              	.L103:
 2129 006a 00BF     		.align	2
 2130              	.L102:
 2131 006c 00000000 		.word	__stack_chk_guard
 2132 0070 D34D6210 		.word	274877907
 2133              		.cfi_endproc
 2134              	.LFE15:
 2135              		.size	VL53L0X_calc_timeout_us, .-VL53L0X_calc_timeout_us
 2136              		.section	.text.get_sequence_step_timeout,"ax",%progbits
 2137              		.align	1
 2138              		.p2align 4,,15
 2139              		.global	get_sequence_step_timeout
 2140              		.syntax unified
 2141              		.thumb
 2142              		.thumb_func
 2143              		.fpu fpv4-sp-d16
 2144              		.type	get_sequence_step_timeout, %function
 2145              	get_sequence_step_timeout:
 2146              	.LFB16:
 2147              		.loc 1 582 0
 2148              		.cfi_startproc
 2149              		@ args = 0, pretend = 0, frame = 48
 2150              		@ frame_needed = 0, uses_anonymous_args = 0
 2151 0000 00B5     		push	{lr}
 2152              		.cfi_def_cfa_offset 4
 2153              		.cfi_offset 14, -4
 2154 0002 8DB0     		sub	sp, sp, #52
 2155              		.cfi_def_cfa_offset 56
 2156 0004 0390     		str	r0, [sp, #12]
 2157 0006 0B46     		mov	r3, r1
 2158 0008 0192     		str	r2, [sp, #4]
 2159 000a 8DF80B30 		strb	r3, [sp, #11]
 2160              		.loc 1 582 0
 2161 000e 7B4B     		ldr	r3, .L117
 2162 0010 1B68     		ldr	r3, [r3]
 2163 0012 0B93     		str	r3, [sp, #44]
 2164              		.loc 1 583 0
 2165 0014 0023     		movs	r3, #0
 2166 0016 8DF81530 		strb	r3, [sp, #21]
ARM GAS  C:\Users\PCHAUT~1\AppData\Local\Temp\ccgoQRgJ.s 			page 39


 2167              		.loc 1 585 0
 2168 001a 0023     		movs	r3, #0
 2169 001c 8DF81430 		strb	r3, [sp, #20]
 2170              		.loc 1 586 0
 2171 0020 0023     		movs	r3, #0
 2172 0022 0893     		str	r3, [sp, #32]
 2173              		.loc 1 587 0
 2174 0024 0023     		movs	r3, #0
 2175 0026 ADF81630 		strh	r3, [sp, #22]	@ movhi
 2176              		.loc 1 590 0
 2177 002a 0023     		movs	r3, #0
 2178 002c ADF81C30 		strh	r3, [sp, #28]	@ movhi
 2179              		.loc 1 594 0
 2180 0030 9DF80B30 		ldrb	r3, [sp, #11]	@ zero_extendqisi2
 2181 0034 002B     		cmp	r3, #0
 2182 0036 07D0     		beq	.L105
 2183              		.loc 1 594 0 is_stmt 0 discriminator 1
 2184 0038 9DF80B30 		ldrb	r3, [sp, #11]	@ zero_extendqisi2
 2185 003c 012B     		cmp	r3, #1
 2186 003e 03D0     		beq	.L105
 2187              		.loc 1 595 0 is_stmt 1
 2188 0040 9DF80B30 		ldrb	r3, [sp, #11]	@ zero_extendqisi2
 2189 0044 022B     		cmp	r3, #2
 2190 0046 29D1     		bne	.L106
 2191              	.L105:
 2192              		.loc 1 598 0
 2193 0048 0DF11303 		add	r3, sp, #19
 2194 004c 1A46     		mov	r2, r3
 2195 004e 0021     		movs	r1, #0
 2196 0050 0398     		ldr	r0, [sp, #12]
 2197 0052 FFF7FEFF 		bl	VL53L0X_GetVcselPulsePeriod
 2198 0056 0346     		mov	r3, r0
 2199 0058 8DF81530 		strb	r3, [sp, #21]
 2200              		.loc 1 601 0
 2201 005c 9DF91530 		ldrsb	r3, [sp, #21]
 2202 0060 002B     		cmp	r3, #0
 2203 0062 08D1     		bne	.L107
 2204              		.loc 1 602 0
 2205 0064 05AB     		add	r3, sp, #20
 2206 0066 1A46     		mov	r2, r3
 2207 0068 4621     		movs	r1, #70
 2208 006a 0398     		ldr	r0, [sp, #12]
 2209 006c FFF7FEFF 		bl	VL53L0X_RdByte
 2210 0070 0346     		mov	r3, r0
 2211 0072 8DF81530 		strb	r3, [sp, #21]
 2212              	.L107:
 2213              		.loc 1 606 0
 2214 0076 9DF81430 		ldrb	r3, [sp, #20]	@ zero_extendqisi2
 2215 007a 9BB2     		uxth	r3, r3
 2216 007c 1846     		mov	r0, r3
 2217 007e FFF7FEFF 		bl	VL53L0X_decode_timeout
 2218 0082 0346     		mov	r3, r0
 2219 0084 ADF81E30 		strh	r3, [sp, #30]	@ movhi
 2220              		.loc 1 608 0
 2221 0088 9DF81320 		ldrb	r2, [sp, #19]	@ zero_extendqisi2
 2222 008c BDF81E30 		ldrh	r3, [sp, #30]
 2223 0090 1946     		mov	r1, r3
ARM GAS  C:\Users\PCHAUT~1\AppData\Local\Temp\ccgoQRgJ.s 			page 40


 2224 0092 0398     		ldr	r0, [sp, #12]
 2225 0094 FFF7FEFF 		bl	VL53L0X_calc_timeout_us
 2226 0098 0890     		str	r0, [sp, #32]
 2227 009a 9FE0     		b	.L108
 2228              	.L106:
 2229              		.loc 1 611 0
 2230 009c 9DF80B30 		ldrb	r3, [sp, #11]	@ zero_extendqisi2
 2231 00a0 032B     		cmp	r3, #3
 2232 00a2 38D1     		bne	.L109
 2233              		.loc 1 613 0
 2234 00a4 0DF11303 		add	r3, sp, #19
 2235 00a8 1A46     		mov	r2, r3
 2236 00aa 0021     		movs	r1, #0
 2237 00ac 0398     		ldr	r0, [sp, #12]
 2238 00ae FFF7FEFF 		bl	VL53L0X_GetVcselPulsePeriod
 2239 00b2 0346     		mov	r3, r0
 2240 00b4 8DF81530 		strb	r3, [sp, #21]
 2241              		.loc 1 618 0
 2242 00b8 9DF91530 		ldrsb	r3, [sp, #21]
 2243 00bc 002B     		cmp	r3, #0
 2244 00be 40F08D80 		bne	.L108
 2245              		.loc 1 621 0
 2246 00c2 0DF11303 		add	r3, sp, #19
 2247 00c6 1A46     		mov	r2, r3
 2248 00c8 0021     		movs	r1, #0
 2249 00ca 0398     		ldr	r0, [sp, #12]
 2250 00cc FFF7FEFF 		bl	VL53L0X_GetVcselPulsePeriod
 2251 00d0 0346     		mov	r3, r0
 2252 00d2 8DF81530 		strb	r3, [sp, #21]
 2253              		.loc 1 625 0
 2254 00d6 9DF91530 		ldrsb	r3, [sp, #21]
 2255 00da 002B     		cmp	r3, #0
 2256 00dc 09D1     		bne	.L111
 2257              		.loc 1 626 0
 2258 00de 0DF11603 		add	r3, sp, #22
 2259 00e2 1A46     		mov	r2, r3
 2260 00e4 5121     		movs	r1, #81
 2261 00e6 0398     		ldr	r0, [sp, #12]
 2262 00e8 FFF7FEFF 		bl	VL53L0X_RdWord
 2263 00ec 0346     		mov	r3, r0
 2264 00ee 8DF81530 		strb	r3, [sp, #21]
 2265              	.L111:
 2266              		.loc 1 631 0
 2267 00f2 BDF81630 		ldrh	r3, [sp, #22]
 2268 00f6 1846     		mov	r0, r3
 2269 00f8 FFF7FEFF 		bl	VL53L0X_decode_timeout
 2270 00fc 0346     		mov	r3, r0
 2271 00fe ADF81A30 		strh	r3, [sp, #26]	@ movhi
 2272              		.loc 1 634 0
 2273 0102 9DF81320 		ldrb	r2, [sp, #19]	@ zero_extendqisi2
 2274 0106 BDF81A30 		ldrh	r3, [sp, #26]
 2275 010a 1946     		mov	r1, r3
 2276 010c 0398     		ldr	r0, [sp, #12]
 2277 010e FFF7FEFF 		bl	VL53L0X_calc_timeout_us
 2278 0112 0890     		str	r0, [sp, #32]
 2279 0114 62E0     		b	.L108
 2280              	.L109:
ARM GAS  C:\Users\PCHAUT~1\AppData\Local\Temp\ccgoQRgJ.s 			page 41


 2281              		.loc 1 638 0
 2282 0116 9DF80B30 		ldrb	r3, [sp, #11]	@ zero_extendqisi2
 2283 011a 042B     		cmp	r3, #4
 2284 011c 5ED1     		bne	.L108
 2285              		.loc 1 640 0
 2286 011e 09AB     		add	r3, sp, #36
 2287 0120 1946     		mov	r1, r3
 2288 0122 0398     		ldr	r0, [sp, #12]
 2289 0124 FFF7FEFF 		bl	VL53L0X_GetSequenceStepEnables
 2290              		.loc 1 641 0
 2291 0128 0023     		movs	r3, #0
 2292 012a ADF81A30 		strh	r3, [sp, #26]	@ movhi
 2293              		.loc 1 643 0
 2294 012e 9DF82730 		ldrb	r3, [sp, #39]	@ zero_extendqisi2
 2295 0132 002B     		cmp	r3, #0
 2296 0134 1FD0     		beq	.L112
 2297              		.loc 1 645 0
 2298 0136 0DF11303 		add	r3, sp, #19
 2299 013a 1A46     		mov	r2, r3
 2300 013c 0021     		movs	r1, #0
 2301 013e 0398     		ldr	r0, [sp, #12]
 2302 0140 FFF7FEFF 		bl	VL53L0X_GetVcselPulsePeriod
 2303 0144 0346     		mov	r3, r0
 2304 0146 8DF81530 		strb	r3, [sp, #21]
 2305              		.loc 1 651 0
 2306 014a 9DF91530 		ldrsb	r3, [sp, #21]
 2307 014e 002B     		cmp	r3, #0
 2308 0150 11D1     		bne	.L112
 2309              		.loc 1 652 0
 2310 0152 0DF11603 		add	r3, sp, #22
 2311 0156 1A46     		mov	r2, r3
 2312 0158 5121     		movs	r1, #81
 2313 015a 0398     		ldr	r0, [sp, #12]
 2314 015c FFF7FEFF 		bl	VL53L0X_RdWord
 2315 0160 0346     		mov	r3, r0
 2316 0162 8DF81530 		strb	r3, [sp, #21]
 2317              		.loc 1 655 0
 2318 0166 BDF81630 		ldrh	r3, [sp, #22]
 2319 016a 1846     		mov	r0, r3
 2320 016c FFF7FEFF 		bl	VL53L0X_decode_timeout
 2321 0170 0346     		mov	r3, r0
 2322 0172 ADF81A30 		strh	r3, [sp, #26]	@ movhi
 2323              	.L112:
 2324              		.loc 1 660 0
 2325 0176 9DF91530 		ldrsb	r3, [sp, #21]
 2326 017a 002B     		cmp	r3, #0
 2327 017c 09D1     		bne	.L113
 2328              		.loc 1 662 0
 2329 017e 0DF11303 		add	r3, sp, #19
 2330 0182 1A46     		mov	r2, r3
 2331 0184 0121     		movs	r1, #1
 2332 0186 0398     		ldr	r0, [sp, #12]
 2333 0188 FFF7FEFF 		bl	VL53L0X_GetVcselPulsePeriod
 2334 018c 0346     		mov	r3, r0
 2335 018e 8DF81530 		strb	r3, [sp, #21]
 2336              	.L113:
 2337              		.loc 1 668 0
ARM GAS  C:\Users\PCHAUT~1\AppData\Local\Temp\ccgoQRgJ.s 			page 42


 2338 0192 9DF91530 		ldrsb	r3, [sp, #21]
 2339 0196 002B     		cmp	r3, #0
 2340 0198 10D1     		bne	.L114
 2341              		.loc 1 669 0
 2342 019a 06AB     		add	r3, sp, #24
 2343 019c 1A46     		mov	r2, r3
 2344 019e 7121     		movs	r1, #113
 2345 01a0 0398     		ldr	r0, [sp, #12]
 2346 01a2 FFF7FEFF 		bl	VL53L0X_RdWord
 2347 01a6 0346     		mov	r3, r0
 2348 01a8 8DF81530 		strb	r3, [sp, #21]
 2349              		.loc 1 672 0
 2350 01ac BDF81830 		ldrh	r3, [sp, #24]
 2351 01b0 1846     		mov	r0, r3
 2352 01b2 FFF7FEFF 		bl	VL53L0X_decode_timeout
 2353 01b6 0346     		mov	r3, r0
 2354 01b8 ADF81C30 		strh	r3, [sp, #28]	@ movhi
 2355              	.L114:
 2356              		.loc 1 676 0
 2357 01bc BDF81C20 		ldrh	r2, [sp, #28]	@ movhi
 2358 01c0 BDF81A30 		ldrh	r3, [sp, #26]	@ movhi
 2359 01c4 D31A     		subs	r3, r2, r3
 2360 01c6 ADF81C30 		strh	r3, [sp, #28]	@ movhi
 2361              		.loc 1 677 0
 2362 01ca 9DF81320 		ldrb	r2, [sp, #19]	@ zero_extendqisi2
 2363 01ce BDF81C30 		ldrh	r3, [sp, #28]
 2364 01d2 1946     		mov	r1, r3
 2365 01d4 0398     		ldr	r0, [sp, #12]
 2366 01d6 FFF7FEFF 		bl	VL53L0X_calc_timeout_us
 2367 01da 0890     		str	r0, [sp, #32]
 2368              	.L108:
 2369              		.loc 1 682 0
 2370 01dc 019B     		ldr	r3, [sp, #4]
 2371 01de 089A     		ldr	r2, [sp, #32]
 2372 01e0 1A60     		str	r2, [r3]
 2373              		.loc 1 684 0
 2374 01e2 9DF91530 		ldrsb	r3, [sp, #21]
 2375              		.loc 1 685 0
 2376 01e6 1846     		mov	r0, r3
 2377 01e8 044B     		ldr	r3, .L117
 2378 01ea 0B9A     		ldr	r2, [sp, #44]
 2379 01ec 1B68     		ldr	r3, [r3]
 2380 01ee 9A42     		cmp	r2, r3
 2381 01f0 01D0     		beq	.L116
 2382 01f2 FFF7FEFF 		bl	__stack_chk_fail
 2383              	.L116:
 2384 01f6 0DB0     		add	sp, sp, #52
 2385              		.cfi_def_cfa_offset 4
 2386              		@ sp needed
 2387 01f8 5DF804FB 		ldr	pc, [sp], #4
 2388              	.L118:
 2389              		.align	2
 2390              	.L117:
 2391 01fc 00000000 		.word	__stack_chk_guard
 2392              		.cfi_endproc
 2393              	.LFE16:
 2394              		.size	get_sequence_step_timeout, .-get_sequence_step_timeout
ARM GAS  C:\Users\PCHAUT~1\AppData\Local\Temp\ccgoQRgJ.s 			page 43


 2395              		.section	.text.set_sequence_step_timeout,"ax",%progbits
 2396              		.align	1
 2397              		.p2align 4,,15
 2398              		.global	set_sequence_step_timeout
 2399              		.syntax unified
 2400              		.thumb
 2401              		.thumb_func
 2402              		.fpu fpv4-sp-d16
 2403              		.type	set_sequence_step_timeout, %function
 2404              	set_sequence_step_timeout:
 2405              	.LFB17:
 2406              		.loc 1 691 0
 2407              		.cfi_startproc
 2408              		@ args = 0, pretend = 0, frame = 48
 2409              		@ frame_needed = 0, uses_anonymous_args = 0
 2410 0000 00B5     		push	{lr}
 2411              		.cfi_def_cfa_offset 4
 2412              		.cfi_offset 14, -4
 2413 0002 8DB0     		sub	sp, sp, #52
 2414              		.cfi_def_cfa_offset 56
 2415 0004 0390     		str	r0, [sp, #12]
 2416 0006 0B46     		mov	r3, r1
 2417 0008 0192     		str	r2, [sp, #4]
 2418 000a 8DF80B30 		strb	r3, [sp, #11]
 2419              		.loc 1 691 0
 2420 000e 854B     		ldr	r3, .L138
 2421 0010 1B68     		ldr	r3, [r3]
 2422 0012 0B93     		str	r3, [sp, #44]
 2423              		.loc 1 692 0
 2424 0014 0023     		movs	r3, #0
 2425 0016 8DF81630 		strb	r3, [sp, #22]
 2426              		.loc 1 702 0
 2427 001a 9DF80B30 		ldrb	r3, [sp, #11]	@ zero_extendqisi2
 2428 001e 002B     		cmp	r3, #0
 2429 0020 07D0     		beq	.L120
 2430              		.loc 1 702 0 is_stmt 0 discriminator 1
 2431 0022 9DF80B30 		ldrb	r3, [sp, #11]	@ zero_extendqisi2
 2432 0026 012B     		cmp	r3, #1
 2433 0028 03D0     		beq	.L120
 2434              		.loc 1 703 0 is_stmt 1
 2435 002a 9DF80B30 		ldrb	r3, [sp, #11]	@ zero_extendqisi2
 2436 002e 022B     		cmp	r3, #2
 2437 0030 3CD1     		bne	.L121
 2438              	.L120:
 2439              		.loc 1 706 0
 2440 0032 0DF11503 		add	r3, sp, #21
 2441 0036 1A46     		mov	r2, r3
 2442 0038 0021     		movs	r1, #0
 2443 003a 0398     		ldr	r0, [sp, #12]
 2444 003c FFF7FEFF 		bl	VL53L0X_GetVcselPulsePeriod
 2445 0040 0346     		mov	r3, r0
 2446 0042 8DF81630 		strb	r3, [sp, #22]
 2447              		.loc 1 710 0
 2448 0046 9DF91630 		ldrsb	r3, [sp, #22]
 2449 004a 002B     		cmp	r3, #0
 2450 004c 1ED1     		bne	.L122
 2451              		.loc 1 711 0
ARM GAS  C:\Users\PCHAUT~1\AppData\Local\Temp\ccgoQRgJ.s 			page 44


 2452 004e 9DF81530 		ldrb	r3, [sp, #21]	@ zero_extendqisi2
 2453 0052 1A46     		mov	r2, r3
 2454 0054 0199     		ldr	r1, [sp, #4]
 2455 0056 0398     		ldr	r0, [sp, #12]
 2456 0058 FFF7FEFF 		bl	VL53L0X_calc_timeout_mclks
 2457 005c 0346     		mov	r3, r0
 2458 005e ADF81E30 		strh	r3, [sp, #30]	@ movhi
 2459              		.loc 1 715 0
 2460 0062 BDF81E30 		ldrh	r3, [sp, #30]
 2461 0066 B3F5807F 		cmp	r3, #256
 2462 006a 03D9     		bls	.L123
 2463              		.loc 1 716 0
 2464 006c FF23     		movs	r3, #255
 2465 006e 8DF81730 		strb	r3, [sp, #23]
 2466 0072 05E0     		b	.L124
 2467              	.L123:
 2468              		.loc 1 719 0
 2469 0074 BDF81E30 		ldrh	r3, [sp, #30]	@ movhi
 2470 0078 DBB2     		uxtb	r3, r3
 2471              		.loc 1 718 0
 2472 007a 013B     		subs	r3, r3, #1
 2473 007c 8DF81730 		strb	r3, [sp, #23]
 2474              	.L124:
 2475              		.loc 1 721 0
 2476 0080 9DF81730 		ldrb	r3, [sp, #23]	@ zero_extendqisi2
 2477 0084 9AB2     		uxth	r2, r3
 2478 0086 039B     		ldr	r3, [sp, #12]
 2479 0088 A3F8D820 		strh	r2, [r3, #216]	@ movhi
 2480              	.L122:
 2481              		.loc 1 726 0
 2482 008c 9DF91630 		ldrsb	r3, [sp, #22]
 2483 0090 002B     		cmp	r3, #0
 2484 0092 40F0B980 		bne	.L126
 2485              		.loc 1 727 0
 2486 0096 9DF81730 		ldrb	r3, [sp, #23]	@ zero_extendqisi2
 2487 009a 1A46     		mov	r2, r3
 2488 009c 4621     		movs	r1, #70
 2489 009e 0398     		ldr	r0, [sp, #12]
 2490 00a0 FFF7FEFF 		bl	VL53L0X_WrByte
 2491 00a4 0346     		mov	r3, r0
 2492 00a6 8DF81630 		strb	r3, [sp, #22]
 2493              		.loc 1 726 0
 2494 00aa ADE0     		b	.L126
 2495              	.L121:
 2496              		.loc 1 733 0
 2497 00ac 9DF80B30 		ldrb	r3, [sp, #11]	@ zero_extendqisi2
 2498 00b0 032B     		cmp	r3, #3
 2499 00b2 3BD1     		bne	.L127
 2500              		.loc 1 735 0
 2501 00b4 9DF91630 		ldrsb	r3, [sp, #22]
 2502 00b8 002B     		cmp	r3, #0
 2503 00ba 20D1     		bne	.L128
 2504              		.loc 1 736 0
 2505 00bc 0DF11503 		add	r3, sp, #21
 2506 00c0 1A46     		mov	r2, r3
 2507 00c2 0021     		movs	r1, #0
 2508 00c4 0398     		ldr	r0, [sp, #12]
ARM GAS  C:\Users\PCHAUT~1\AppData\Local\Temp\ccgoQRgJ.s 			page 45


 2509 00c6 FFF7FEFF 		bl	VL53L0X_GetVcselPulsePeriod
 2510 00ca 0346     		mov	r3, r0
 2511 00cc 8DF81630 		strb	r3, [sp, #22]
 2512              		.loc 1 740 0
 2513 00d0 9DF81530 		ldrb	r3, [sp, #21]	@ zero_extendqisi2
 2514 00d4 1A46     		mov	r2, r3
 2515 00d6 0199     		ldr	r1, [sp, #4]
 2516 00d8 0398     		ldr	r0, [sp, #12]
 2517 00da FFF7FEFF 		bl	VL53L0X_calc_timeout_mclks
 2518 00de 0346     		mov	r3, r0
 2519              		.loc 1 739 0
 2520 00e0 ADF81A30 		strh	r3, [sp, #26]	@ movhi
 2521              		.loc 1 743 0
 2522 00e4 BDF81A30 		ldrh	r3, [sp, #26]
 2523 00e8 1846     		mov	r0, r3
 2524 00ea FFF7FEFF 		bl	VL53L0X_encode_timeout
 2525 00ee 0346     		mov	r3, r0
 2526 00f0 ADF81830 		strh	r3, [sp, #24]	@ movhi
 2527              		.loc 1 746 0
 2528 00f4 BDF81820 		ldrh	r2, [sp, #24]
 2529 00f8 039B     		ldr	r3, [sp, #12]
 2530 00fa A3F8D820 		strh	r2, [r3, #216]	@ movhi
 2531              	.L128:
 2532              		.loc 1 751 0
 2533 00fe 9DF91630 		ldrsb	r3, [sp, #22]
 2534 0102 002B     		cmp	r3, #0
 2535 0104 09D1     		bne	.L129
 2536              		.loc 1 752 0
 2537 0106 BDF81830 		ldrh	r3, [sp, #24]
 2538 010a 1A46     		mov	r2, r3
 2539 010c 5121     		movs	r1, #81
 2540 010e 0398     		ldr	r0, [sp, #12]
 2541 0110 FFF7FEFF 		bl	VL53L0X_WrWord
 2542 0114 0346     		mov	r3, r0
 2543 0116 8DF81630 		strb	r3, [sp, #22]
 2544              	.L129:
 2545              		.loc 1 757 0
 2546 011a 9DF91630 		ldrsb	r3, [sp, #22]
 2547 011e 002B     		cmp	r3, #0
 2548 0120 72D1     		bne	.L126
 2549              		.loc 1 758 0
 2550 0122 039B     		ldr	r3, [sp, #12]
 2551 0124 019A     		ldr	r2, [sp, #4]
 2552 0126 C3F8E420 		str	r2, [r3, #228]
 2553 012a 6DE0     		b	.L126
 2554              	.L127:
 2555              		.loc 1 763 0
 2556 012c 9DF80B30 		ldrb	r3, [sp, #11]	@ zero_extendqisi2
 2557 0130 042B     		cmp	r3, #4
 2558 0132 66D1     		bne	.L131
 2559              		.loc 1 771 0
 2560 0134 09AB     		add	r3, sp, #36
 2561 0136 1946     		mov	r1, r3
 2562 0138 0398     		ldr	r0, [sp, #12]
 2563 013a FFF7FEFF 		bl	VL53L0X_GetSequenceStepEnables
 2564              		.loc 1 773 0
 2565 013e 0023     		movs	r3, #0
ARM GAS  C:\Users\PCHAUT~1\AppData\Local\Temp\ccgoQRgJ.s 			page 46


 2566 0140 ADF81A30 		strh	r3, [sp, #26]	@ movhi
 2567              		.loc 1 774 0
 2568 0144 9DF82730 		ldrb	r3, [sp, #39]	@ zero_extendqisi2
 2569 0148 002B     		cmp	r3, #0
 2570 014a 1ED0     		beq	.L132
 2571              		.loc 1 777 0
 2572 014c 0DF11503 		add	r3, sp, #21
 2573 0150 1A46     		mov	r2, r3
 2574 0152 0021     		movs	r1, #0
 2575 0154 0398     		ldr	r0, [sp, #12]
 2576 0156 FFF7FEFF 		bl	VL53L0X_GetVcselPulsePeriod
 2577 015a 0346     		mov	r3, r0
 2578 015c 8DF81630 		strb	r3, [sp, #22]
 2579              		.loc 1 783 0
 2580 0160 9DF91630 		ldrsb	r3, [sp, #22]
 2581 0164 002B     		cmp	r3, #0
 2582 0166 10D1     		bne	.L132
 2583              		.loc 1 784 0
 2584 0168 06AB     		add	r3, sp, #24
 2585 016a 1A46     		mov	r2, r3
 2586 016c 5121     		movs	r1, #81
 2587 016e 0398     		ldr	r0, [sp, #12]
 2588 0170 FFF7FEFF 		bl	VL53L0X_RdWord
 2589 0174 0346     		mov	r3, r0
 2590 0176 8DF81630 		strb	r3, [sp, #22]
 2591              		.loc 1 787 0
 2592 017a BDF81830 		ldrh	r3, [sp, #24]
 2593 017e 1846     		mov	r0, r3
 2594 0180 FFF7FEFF 		bl	VL53L0X_decode_timeout
 2595 0184 0346     		mov	r3, r0
 2596              		.loc 1 786 0
 2597 0186 ADF81A30 		strh	r3, [sp, #26]	@ movhi
 2598              	.L132:
 2599              		.loc 1 795 0
 2600 018a 9DF91630 		ldrsb	r3, [sp, #22]
 2601 018e 002B     		cmp	r3, #0
 2602 0190 09D1     		bne	.L133
 2603              		.loc 1 797 0
 2604 0192 0DF11503 		add	r3, sp, #21
 2605 0196 1A46     		mov	r2, r3
 2606 0198 0121     		movs	r1, #1
 2607 019a 0398     		ldr	r0, [sp, #12]
 2608 019c FFF7FEFF 		bl	VL53L0X_GetVcselPulsePeriod
 2609 01a0 0346     		mov	r3, r0
 2610 01a2 8DF81630 		strb	r3, [sp, #22]
 2611              	.L133:
 2612              		.loc 1 801 0
 2613 01a6 9DF91630 		ldrsb	r3, [sp, #22]
 2614 01aa 002B     		cmp	r3, #0
 2615 01ac 2CD1     		bne	.L126
 2616              		.loc 1 804 0
 2617 01ae 9DF81530 		ldrb	r3, [sp, #21]	@ zero_extendqisi2
 2618              		.loc 1 803 0
 2619 01b2 1A46     		mov	r2, r3
 2620 01b4 0199     		ldr	r1, [sp, #4]
 2621 01b6 0398     		ldr	r0, [sp, #12]
 2622 01b8 FFF7FEFF 		bl	VL53L0X_calc_timeout_mclks
ARM GAS  C:\Users\PCHAUT~1\AppData\Local\Temp\ccgoQRgJ.s 			page 47


 2623 01bc 0890     		str	r0, [sp, #32]
 2624              		.loc 1 808 0
 2625 01be BDF81A30 		ldrh	r3, [sp, #26]
 2626 01c2 089A     		ldr	r2, [sp, #32]
 2627 01c4 1344     		add	r3, r3, r2
 2628 01c6 0893     		str	r3, [sp, #32]
 2629              		.loc 1 810 0
 2630 01c8 0898     		ldr	r0, [sp, #32]
 2631 01ca FFF7FEFF 		bl	VL53L0X_encode_timeout
 2632 01ce 0346     		mov	r3, r0
 2633 01d0 ADF81C30 		strh	r3, [sp, #28]	@ movhi
 2634              		.loc 1 813 0
 2635 01d4 9DF91630 		ldrsb	r3, [sp, #22]
 2636 01d8 002B     		cmp	r3, #0
 2637 01da 09D1     		bne	.L135
 2638              		.loc 1 814 0
 2639 01dc BDF81C30 		ldrh	r3, [sp, #28]
 2640 01e0 1A46     		mov	r2, r3
 2641 01e2 7121     		movs	r1, #113
 2642 01e4 0398     		ldr	r0, [sp, #12]
 2643 01e6 FFF7FEFF 		bl	VL53L0X_WrWord
 2644 01ea 0346     		mov	r3, r0
 2645 01ec 8DF81630 		strb	r3, [sp, #22]
 2646              	.L135:
 2647              		.loc 1 818 0
 2648 01f0 9DF91630 		ldrsb	r3, [sp, #22]
 2649 01f4 002B     		cmp	r3, #0
 2650 01f6 07D1     		bne	.L126
 2651              		.loc 1 819 0
 2652 01f8 039B     		ldr	r3, [sp, #12]
 2653 01fa 019A     		ldr	r2, [sp, #4]
 2654 01fc C3F8DC20 		str	r2, [r3, #220]
 2655 0200 02E0     		b	.L126
 2656              	.L131:
 2657              		.loc 1 826 0
 2658 0202 FC23     		movs	r3, #252
 2659 0204 8DF81630 		strb	r3, [sp, #22]
 2660              	.L126:
 2661              		.loc 1 829 0
 2662 0208 9DF91630 		ldrsb	r3, [sp, #22]
 2663              		.loc 1 830 0
 2664 020c 1846     		mov	r0, r3
 2665 020e 054B     		ldr	r3, .L138
 2666 0210 0B9A     		ldr	r2, [sp, #44]
 2667 0212 1B68     		ldr	r3, [r3]
 2668 0214 9A42     		cmp	r2, r3
 2669 0216 01D0     		beq	.L137
 2670 0218 FFF7FEFF 		bl	__stack_chk_fail
 2671              	.L137:
 2672 021c 0DB0     		add	sp, sp, #52
 2673              		.cfi_def_cfa_offset 4
 2674              		@ sp needed
 2675 021e 5DF804FB 		ldr	pc, [sp], #4
 2676              	.L139:
 2677 0222 00BF     		.align	2
 2678              	.L138:
 2679 0224 00000000 		.word	__stack_chk_guard
ARM GAS  C:\Users\PCHAUT~1\AppData\Local\Temp\ccgoQRgJ.s 			page 48


 2680              		.cfi_endproc
 2681              	.LFE17:
 2682              		.size	set_sequence_step_timeout, .-set_sequence_step_timeout
 2683              		.section	.text.VL53L0X_set_vcsel_pulse_period,"ax",%progbits
 2684              		.align	1
 2685              		.p2align 4,,15
 2686              		.global	VL53L0X_set_vcsel_pulse_period
 2687              		.syntax unified
 2688              		.thumb
 2689              		.thumb_func
 2690              		.fpu fpv4-sp-d16
 2691              		.type	VL53L0X_set_vcsel_pulse_period, %function
 2692              	VL53L0X_set_vcsel_pulse_period:
 2693              	.LFB18:
 2694              		.loc 1 834 0
 2695              		.cfi_startproc
 2696              		@ args = 0, pretend = 0, frame = 40
 2697              		@ frame_needed = 0, uses_anonymous_args = 0
 2698 0000 00B5     		push	{lr}
 2699              		.cfi_def_cfa_offset 4
 2700              		.cfi_offset 14, -4
 2701 0002 8BB0     		sub	sp, sp, #44
 2702              		.cfi_def_cfa_offset 48
 2703 0004 0190     		str	r0, [sp, #4]
 2704 0006 0B46     		mov	r3, r1
 2705 0008 8DF80330 		strb	r3, [sp, #3]
 2706 000c 1346     		mov	r3, r2
 2707 000e 8DF80230 		strb	r3, [sp, #2]
 2708              		.loc 1 834 0
 2709 0012 CF4B     		ldr	r3, .L173
 2710 0014 1B68     		ldr	r3, [r3]
 2711 0016 0993     		str	r3, [sp, #36]
 2712              		.loc 1 835 0
 2713 0018 0023     		movs	r3, #0
 2714 001a 8DF80E30 		strb	r3, [sp, #14]
 2715              		.loc 1 837 0
 2716 001e 0C23     		movs	r3, #12
 2717 0020 8DF80F30 		strb	r3, [sp, #15]
 2718              		.loc 1 838 0
 2719 0024 1223     		movs	r3, #18
 2720 0026 8DF81030 		strb	r3, [sp, #16]
 2721              		.loc 1 839 0
 2722 002a 0823     		movs	r3, #8
 2723 002c 8DF81130 		strb	r3, [sp, #17]
 2724              		.loc 1 840 0
 2725 0030 0E23     		movs	r3, #14
 2726 0032 8DF81230 		strb	r3, [sp, #18]
 2727              		.loc 1 845 0
 2728 0036 0023     		movs	r3, #0
 2729 0038 8DF80D30 		strb	r3, [sp, #13]
 2730              		.loc 1 849 0
 2731 003c 9DF80230 		ldrb	r3, [sp, #2]
 2732 0040 03F00103 		and	r3, r3, #1
 2733 0044 DBB2     		uxtb	r3, r3
 2734 0046 002B     		cmp	r3, #0
 2735 0048 03D0     		beq	.L141
 2736              		.loc 1 851 0
ARM GAS  C:\Users\PCHAUT~1\AppData\Local\Temp\ccgoQRgJ.s 			page 49


 2737 004a FC23     		movs	r3, #252
 2738 004c 8DF80E30 		strb	r3, [sp, #14]
 2739 0050 26E0     		b	.L142
 2740              	.L141:
 2741              		.loc 1 852 0
 2742 0052 9DF80330 		ldrb	r3, [sp, #3]	@ zero_extendqisi2
 2743 0056 002B     		cmp	r3, #0
 2744 0058 0FD1     		bne	.L143
 2745              		.loc 1 852 0 is_stmt 0 discriminator 1
 2746 005a 9DF80220 		ldrb	r2, [sp, #2]	@ zero_extendqisi2
 2747 005e 9DF80F30 		ldrb	r3, [sp, #15]	@ zero_extendqisi2
 2748 0062 9A42     		cmp	r2, r3
 2749 0064 05D3     		bcc	.L144
 2750              		.loc 1 853 0 is_stmt 1
 2751 0066 9DF80220 		ldrb	r2, [sp, #2]	@ zero_extendqisi2
 2752 006a 9DF81030 		ldrb	r3, [sp, #16]	@ zero_extendqisi2
 2753 006e 9A42     		cmp	r2, r3
 2754 0070 03D9     		bls	.L143
 2755              	.L144:
 2756              		.loc 1 855 0
 2757 0072 FC23     		movs	r3, #252
 2758 0074 8DF80E30 		strb	r3, [sp, #14]
 2759 0078 12E0     		b	.L142
 2760              	.L143:
 2761              		.loc 1 856 0
 2762 007a 9DF80330 		ldrb	r3, [sp, #3]	@ zero_extendqisi2
 2763 007e 012B     		cmp	r3, #1
 2764 0080 0ED1     		bne	.L142
 2765              		.loc 1 856 0 is_stmt 0 discriminator 1
 2766 0082 9DF80220 		ldrb	r2, [sp, #2]	@ zero_extendqisi2
 2767 0086 9DF81130 		ldrb	r3, [sp, #17]	@ zero_extendqisi2
 2768 008a 9A42     		cmp	r2, r3
 2769 008c 05D3     		bcc	.L145
 2770              		.loc 1 857 0 is_stmt 1
 2771 008e 9DF80220 		ldrb	r2, [sp, #2]	@ zero_extendqisi2
 2772 0092 9DF81230 		ldrb	r3, [sp, #18]	@ zero_extendqisi2
 2773 0096 9A42     		cmp	r2, r3
 2774 0098 02D9     		bls	.L142
 2775              	.L145:
 2776              		.loc 1 860 0
 2777 009a FC23     		movs	r3, #252
 2778 009c 8DF80E30 		strb	r3, [sp, #14]
 2779              	.L142:
 2780              		.loc 1 865 0
 2781 00a0 9DF90E30 		ldrsb	r3, [sp, #14]
 2782 00a4 002B     		cmp	r3, #0
 2783 00a6 02D0     		beq	.L146
 2784              		.loc 1 866 0
 2785 00a8 9DF90E30 		ldrsb	r3, [sp, #14]
 2786 00ac 47E2     		b	.L169
 2787              	.L146:
 2788              		.loc 1 869 0
 2789 00ae 9DF80330 		ldrb	r3, [sp, #3]	@ zero_extendqisi2
 2790 00b2 002B     		cmp	r3, #0
 2791 00b4 54D1     		bne	.L148
 2792              		.loc 1 872 0
 2793 00b6 9DF80230 		ldrb	r3, [sp, #2]	@ zero_extendqisi2
ARM GAS  C:\Users\PCHAUT~1\AppData\Local\Temp\ccgoQRgJ.s 			page 50


 2794 00ba 0C2B     		cmp	r3, #12
 2795 00bc 10D1     		bne	.L149
 2796              		.loc 1 874 0
 2797 00be 1822     		movs	r2, #24
 2798 00c0 5721     		movs	r1, #87
 2799 00c2 0198     		ldr	r0, [sp, #4]
 2800 00c4 FFF7FEFF 		bl	VL53L0X_WrByte
 2801 00c8 0346     		mov	r3, r0
 2802 00ca 8DF80E30 		strb	r3, [sp, #14]
 2803              		.loc 1 877 0
 2804 00ce 0822     		movs	r2, #8
 2805 00d0 5621     		movs	r1, #86
 2806 00d2 0198     		ldr	r0, [sp, #4]
 2807 00d4 FFF7FEFF 		bl	VL53L0X_WrByte
 2808 00d8 0346     		mov	r3, r0
 2809 00da 8DF80E30 		strb	r3, [sp, #14]
 2810 00de 89E1     		b	.L153
 2811              	.L149:
 2812              		.loc 1 880 0
 2813 00e0 9DF80230 		ldrb	r3, [sp, #2]	@ zero_extendqisi2
 2814 00e4 0E2B     		cmp	r3, #14
 2815 00e6 10D1     		bne	.L151
 2816              		.loc 1 882 0
 2817 00e8 3022     		movs	r2, #48
 2818 00ea 5721     		movs	r1, #87
 2819 00ec 0198     		ldr	r0, [sp, #4]
 2820 00ee FFF7FEFF 		bl	VL53L0X_WrByte
 2821 00f2 0346     		mov	r3, r0
 2822 00f4 8DF80E30 		strb	r3, [sp, #14]
 2823              		.loc 1 885 0
 2824 00f8 0822     		movs	r2, #8
 2825 00fa 5621     		movs	r1, #86
 2826 00fc 0198     		ldr	r0, [sp, #4]
 2827 00fe FFF7FEFF 		bl	VL53L0X_WrByte
 2828 0102 0346     		mov	r3, r0
 2829 0104 8DF80E30 		strb	r3, [sp, #14]
 2830 0108 74E1     		b	.L153
 2831              	.L151:
 2832              		.loc 1 888 0
 2833 010a 9DF80230 		ldrb	r3, [sp, #2]	@ zero_extendqisi2
 2834 010e 102B     		cmp	r3, #16
 2835 0110 10D1     		bne	.L152
 2836              		.loc 1 890 0
 2837 0112 4022     		movs	r2, #64
 2838 0114 5721     		movs	r1, #87
 2839 0116 0198     		ldr	r0, [sp, #4]
 2840 0118 FFF7FEFF 		bl	VL53L0X_WrByte
 2841 011c 0346     		mov	r3, r0
 2842 011e 8DF80E30 		strb	r3, [sp, #14]
 2843              		.loc 1 893 0
 2844 0122 0822     		movs	r2, #8
 2845 0124 5621     		movs	r1, #86
 2846 0126 0198     		ldr	r0, [sp, #4]
 2847 0128 FFF7FEFF 		bl	VL53L0X_WrByte
 2848 012c 0346     		mov	r3, r0
 2849 012e 8DF80E30 		strb	r3, [sp, #14]
 2850 0132 5FE1     		b	.L153
ARM GAS  C:\Users\PCHAUT~1\AppData\Local\Temp\ccgoQRgJ.s 			page 51


 2851              	.L152:
 2852              		.loc 1 896 0
 2853 0134 9DF80230 		ldrb	r3, [sp, #2]	@ zero_extendqisi2
 2854 0138 122B     		cmp	r3, #18
 2855 013a 40F05B81 		bne	.L153
 2856              		.loc 1 898 0
 2857 013e 5022     		movs	r2, #80
 2858 0140 5721     		movs	r1, #87
 2859 0142 0198     		ldr	r0, [sp, #4]
 2860 0144 FFF7FEFF 		bl	VL53L0X_WrByte
 2861 0148 0346     		mov	r3, r0
 2862 014a 8DF80E30 		strb	r3, [sp, #14]
 2863              		.loc 1 901 0
 2864 014e 0822     		movs	r2, #8
 2865 0150 5621     		movs	r1, #86
 2866 0152 0198     		ldr	r0, [sp, #4]
 2867 0154 FFF7FEFF 		bl	VL53L0X_WrByte
 2868 0158 0346     		mov	r3, r0
 2869 015a 8DF80E30 		strb	r3, [sp, #14]
 2870 015e 49E1     		b	.L153
 2871              	.L148:
 2872              		.loc 1 905 0
 2873 0160 9DF80330 		ldrb	r3, [sp, #3]	@ zero_extendqisi2
 2874 0164 012B     		cmp	r3, #1
 2875 0166 40F04581 		bne	.L153
 2876              		.loc 1 907 0
 2877 016a 9DF80230 		ldrb	r3, [sp, #2]	@ zero_extendqisi2
 2878 016e 082B     		cmp	r3, #8
 2879 0170 4CD1     		bne	.L154
 2880              		.loc 1 909 0
 2881 0172 1022     		movs	r2, #16
 2882 0174 4821     		movs	r1, #72
 2883 0176 0198     		ldr	r0, [sp, #4]
 2884 0178 FFF7FEFF 		bl	VL53L0X_WrByte
 2885 017c 0346     		mov	r3, r0
 2886 017e 8DF80E30 		strb	r3, [sp, #14]
 2887              		.loc 1 912 0
 2888 0182 0822     		movs	r2, #8
 2889 0184 4721     		movs	r1, #71
 2890 0186 0198     		ldr	r0, [sp, #4]
 2891 0188 FFF7FEFF 		bl	VL53L0X_WrByte
 2892 018c 0346     		mov	r3, r0
 2893 018e 8DF80E30 		strb	r3, [sp, #14]
 2894              		.loc 1 916 0
 2895 0192 0222     		movs	r2, #2
 2896 0194 3221     		movs	r1, #50
 2897 0196 0198     		ldr	r0, [sp, #4]
 2898 0198 FFF7FEFF 		bl	VL53L0X_WrByte
 2899 019c 0346     		mov	r3, r0
 2900 019e 1A46     		mov	r2, r3
 2901 01a0 9DF80E30 		ldrb	r3, [sp, #14]
 2902 01a4 1343     		orrs	r3, r3, r2
 2903 01a6 8DF80E30 		strb	r3, [sp, #14]
 2904              		.loc 1 918 0
 2905 01aa 0C22     		movs	r2, #12
 2906 01ac 3021     		movs	r1, #48
 2907 01ae 0198     		ldr	r0, [sp, #4]
ARM GAS  C:\Users\PCHAUT~1\AppData\Local\Temp\ccgoQRgJ.s 			page 52


 2908 01b0 FFF7FEFF 		bl	VL53L0X_WrByte
 2909 01b4 0346     		mov	r3, r0
 2910 01b6 1A46     		mov	r2, r3
 2911 01b8 9DF80E30 		ldrb	r3, [sp, #14]
 2912 01bc 1343     		orrs	r3, r3, r2
 2913 01be 8DF80E30 		strb	r3, [sp, #14]
 2914              		.loc 1 921 0
 2915 01c2 0122     		movs	r2, #1
 2916 01c4 FF21     		movs	r1, #255
 2917 01c6 0198     		ldr	r0, [sp, #4]
 2918 01c8 FFF7FEFF 		bl	VL53L0X_WrByte
 2919 01cc 0346     		mov	r3, r0
 2920 01ce 1A46     		mov	r2, r3
 2921 01d0 9DF80E30 		ldrb	r3, [sp, #14]
 2922 01d4 1343     		orrs	r3, r3, r2
 2923 01d6 8DF80E30 		strb	r3, [sp, #14]
 2924              		.loc 1 922 0
 2925 01da 3022     		movs	r2, #48
 2926 01dc 3021     		movs	r1, #48
 2927 01de 0198     		ldr	r0, [sp, #4]
 2928 01e0 FFF7FEFF 		bl	VL53L0X_WrByte
 2929 01e4 0346     		mov	r3, r0
 2930 01e6 1A46     		mov	r2, r3
 2931 01e8 9DF80E30 		ldrb	r3, [sp, #14]
 2932 01ec 1343     		orrs	r3, r3, r2
 2933 01ee 8DF80E30 		strb	r3, [sp, #14]
 2934              		.loc 1 925 0
 2935 01f2 0022     		movs	r2, #0
 2936 01f4 FF21     		movs	r1, #255
 2937 01f6 0198     		ldr	r0, [sp, #4]
 2938 01f8 FFF7FEFF 		bl	VL53L0X_WrByte
 2939 01fc 0346     		mov	r3, r0
 2940 01fe 1A46     		mov	r2, r3
 2941 0200 9DF80E30 		ldrb	r3, [sp, #14]
 2942 0204 1343     		orrs	r3, r3, r2
 2943 0206 8DF80E30 		strb	r3, [sp, #14]
 2944 020a F3E0     		b	.L153
 2945              	.L154:
 2946              		.loc 1 926 0
 2947 020c 9DF80230 		ldrb	r3, [sp, #2]	@ zero_extendqisi2
 2948 0210 0A2B     		cmp	r3, #10
 2949 0212 4CD1     		bne	.L155
 2950              		.loc 1 928 0
 2951 0214 2822     		movs	r2, #40
 2952 0216 4821     		movs	r1, #72
 2953 0218 0198     		ldr	r0, [sp, #4]
 2954 021a FFF7FEFF 		bl	VL53L0X_WrByte
 2955 021e 0346     		mov	r3, r0
 2956 0220 8DF80E30 		strb	r3, [sp, #14]
 2957              		.loc 1 931 0
 2958 0224 0822     		movs	r2, #8
 2959 0226 4721     		movs	r1, #71
 2960 0228 0198     		ldr	r0, [sp, #4]
 2961 022a FFF7FEFF 		bl	VL53L0X_WrByte
 2962 022e 0346     		mov	r3, r0
 2963 0230 8DF80E30 		strb	r3, [sp, #14]
 2964              		.loc 1 935 0
ARM GAS  C:\Users\PCHAUT~1\AppData\Local\Temp\ccgoQRgJ.s 			page 53


 2965 0234 0322     		movs	r2, #3
 2966 0236 3221     		movs	r1, #50
 2967 0238 0198     		ldr	r0, [sp, #4]
 2968 023a FFF7FEFF 		bl	VL53L0X_WrByte
 2969 023e 0346     		mov	r3, r0
 2970 0240 1A46     		mov	r2, r3
 2971 0242 9DF80E30 		ldrb	r3, [sp, #14]
 2972 0246 1343     		orrs	r3, r3, r2
 2973 0248 8DF80E30 		strb	r3, [sp, #14]
 2974              		.loc 1 937 0
 2975 024c 0922     		movs	r2, #9
 2976 024e 3021     		movs	r1, #48
 2977 0250 0198     		ldr	r0, [sp, #4]
 2978 0252 FFF7FEFF 		bl	VL53L0X_WrByte
 2979 0256 0346     		mov	r3, r0
 2980 0258 1A46     		mov	r2, r3
 2981 025a 9DF80E30 		ldrb	r3, [sp, #14]
 2982 025e 1343     		orrs	r3, r3, r2
 2983 0260 8DF80E30 		strb	r3, [sp, #14]
 2984              		.loc 1 940 0
 2985 0264 0122     		movs	r2, #1
 2986 0266 FF21     		movs	r1, #255
 2987 0268 0198     		ldr	r0, [sp, #4]
 2988 026a FFF7FEFF 		bl	VL53L0X_WrByte
 2989 026e 0346     		mov	r3, r0
 2990 0270 1A46     		mov	r2, r3
 2991 0272 9DF80E30 		ldrb	r3, [sp, #14]
 2992 0276 1343     		orrs	r3, r3, r2
 2993 0278 8DF80E30 		strb	r3, [sp, #14]
 2994              		.loc 1 941 0
 2995 027c 2022     		movs	r2, #32
 2996 027e 3021     		movs	r1, #48
 2997 0280 0198     		ldr	r0, [sp, #4]
 2998 0282 FFF7FEFF 		bl	VL53L0X_WrByte
 2999 0286 0346     		mov	r3, r0
 3000 0288 1A46     		mov	r2, r3
 3001 028a 9DF80E30 		ldrb	r3, [sp, #14]
 3002 028e 1343     		orrs	r3, r3, r2
 3003 0290 8DF80E30 		strb	r3, [sp, #14]
 3004              		.loc 1 944 0
 3005 0294 0022     		movs	r2, #0
 3006 0296 FF21     		movs	r1, #255
 3007 0298 0198     		ldr	r0, [sp, #4]
 3008 029a FFF7FEFF 		bl	VL53L0X_WrByte
 3009 029e 0346     		mov	r3, r0
 3010 02a0 1A46     		mov	r2, r3
 3011 02a2 9DF80E30 		ldrb	r3, [sp, #14]
 3012 02a6 1343     		orrs	r3, r3, r2
 3013 02a8 8DF80E30 		strb	r3, [sp, #14]
 3014 02ac A2E0     		b	.L153
 3015              	.L155:
 3016              		.loc 1 945 0
 3017 02ae 9DF80230 		ldrb	r3, [sp, #2]	@ zero_extendqisi2
 3018 02b2 0C2B     		cmp	r3, #12
 3019 02b4 4ED1     		bne	.L156
 3020              		.loc 1 947 0
 3021 02b6 3822     		movs	r2, #56
ARM GAS  C:\Users\PCHAUT~1\AppData\Local\Temp\ccgoQRgJ.s 			page 54


 3022 02b8 4821     		movs	r1, #72
 3023 02ba 0198     		ldr	r0, [sp, #4]
 3024 02bc FFF7FEFF 		bl	VL53L0X_WrByte
 3025 02c0 0346     		mov	r3, r0
 3026 02c2 8DF80E30 		strb	r3, [sp, #14]
 3027              		.loc 1 950 0
 3028 02c6 0822     		movs	r2, #8
 3029 02c8 4721     		movs	r1, #71
 3030 02ca 0198     		ldr	r0, [sp, #4]
 3031 02cc FFF7FEFF 		bl	VL53L0X_WrByte
 3032 02d0 0346     		mov	r3, r0
 3033 02d2 8DF80E30 		strb	r3, [sp, #14]
 3034              		.loc 1 954 0
 3035 02d6 0322     		movs	r2, #3
 3036 02d8 3221     		movs	r1, #50
 3037 02da 0198     		ldr	r0, [sp, #4]
 3038 02dc FFF7FEFF 		bl	VL53L0X_WrByte
 3039 02e0 0346     		mov	r3, r0
 3040 02e2 1A46     		mov	r2, r3
 3041 02e4 9DF80E30 		ldrb	r3, [sp, #14]
 3042 02e8 1343     		orrs	r3, r3, r2
 3043 02ea 8DF80E30 		strb	r3, [sp, #14]
 3044              		.loc 1 956 0
 3045 02ee 0822     		movs	r2, #8
 3046 02f0 3021     		movs	r1, #48
 3047 02f2 0198     		ldr	r0, [sp, #4]
 3048 02f4 FFF7FEFF 		bl	VL53L0X_WrByte
 3049 02f8 0346     		mov	r3, r0
 3050 02fa 1A46     		mov	r2, r3
 3051 02fc 9DF80E30 		ldrb	r3, [sp, #14]
 3052 0300 1343     		orrs	r3, r3, r2
 3053 0302 8DF80E30 		strb	r3, [sp, #14]
 3054              		.loc 1 959 0
 3055 0306 0122     		movs	r2, #1
 3056 0308 FF21     		movs	r1, #255
 3057 030a 0198     		ldr	r0, [sp, #4]
 3058 030c FFF7FEFF 		bl	VL53L0X_WrByte
 3059 0310 0346     		mov	r3, r0
 3060 0312 1A46     		mov	r2, r3
 3061 0314 9DF80E30 		ldrb	r3, [sp, #14]
 3062 0318 1343     		orrs	r3, r3, r2
 3063 031a 8DF80E30 		strb	r3, [sp, #14]
 3064              		.loc 1 960 0
 3065 031e 2022     		movs	r2, #32
 3066 0320 3021     		movs	r1, #48
 3067 0322 0198     		ldr	r0, [sp, #4]
 3068 0324 FFF7FEFF 		bl	VL53L0X_WrByte
 3069 0328 0346     		mov	r3, r0
 3070 032a 1A46     		mov	r2, r3
 3071 032c 9DF80E30 		ldrb	r3, [sp, #14]
 3072 0330 1343     		orrs	r3, r3, r2
 3073 0332 8DF80E30 		strb	r3, [sp, #14]
 3074              		.loc 1 963 0
 3075 0336 0022     		movs	r2, #0
 3076 0338 FF21     		movs	r1, #255
 3077 033a 0198     		ldr	r0, [sp, #4]
 3078 033c FFF7FEFF 		bl	VL53L0X_WrByte
ARM GAS  C:\Users\PCHAUT~1\AppData\Local\Temp\ccgoQRgJ.s 			page 55


 3079 0340 0346     		mov	r3, r0
 3080 0342 1A46     		mov	r2, r3
 3081 0344 9DF80E30 		ldrb	r3, [sp, #14]
 3082 0348 1343     		orrs	r3, r3, r2
 3083 034a 8DF80E30 		strb	r3, [sp, #14]
 3084 034e 51E0     		b	.L153
 3085              	.L174:
 3086              		.align	2
 3087              	.L173:
 3088 0350 00000000 		.word	__stack_chk_guard
 3089              	.L156:
 3090              		.loc 1 964 0
 3091 0354 9DF80230 		ldrb	r3, [sp, #2]	@ zero_extendqisi2
 3092 0358 0E2B     		cmp	r3, #14
 3093 035a 4BD1     		bne	.L153
 3094              		.loc 1 966 0
 3095 035c 4822     		movs	r2, #72
 3096 035e 4821     		movs	r1, #72
 3097 0360 0198     		ldr	r0, [sp, #4]
 3098 0362 FFF7FEFF 		bl	VL53L0X_WrByte
 3099 0366 0346     		mov	r3, r0
 3100 0368 8DF80E30 		strb	r3, [sp, #14]
 3101              		.loc 1 969 0
 3102 036c 0822     		movs	r2, #8
 3103 036e 4721     		movs	r1, #71
 3104 0370 0198     		ldr	r0, [sp, #4]
 3105 0372 FFF7FEFF 		bl	VL53L0X_WrByte
 3106 0376 0346     		mov	r3, r0
 3107 0378 8DF80E30 		strb	r3, [sp, #14]
 3108              		.loc 1 973 0
 3109 037c 0322     		movs	r2, #3
 3110 037e 3221     		movs	r1, #50
 3111 0380 0198     		ldr	r0, [sp, #4]
 3112 0382 FFF7FEFF 		bl	VL53L0X_WrByte
 3113 0386 0346     		mov	r3, r0
 3114 0388 1A46     		mov	r2, r3
 3115 038a 9DF80E30 		ldrb	r3, [sp, #14]
 3116 038e 1343     		orrs	r3, r3, r2
 3117 0390 8DF80E30 		strb	r3, [sp, #14]
 3118              		.loc 1 975 0
 3119 0394 0722     		movs	r2, #7
 3120 0396 3021     		movs	r1, #48
 3121 0398 0198     		ldr	r0, [sp, #4]
 3122 039a FFF7FEFF 		bl	VL53L0X_WrByte
 3123 039e 0346     		mov	r3, r0
 3124 03a0 1A46     		mov	r2, r3
 3125 03a2 9DF80E30 		ldrb	r3, [sp, #14]
 3126 03a6 1343     		orrs	r3, r3, r2
 3127 03a8 8DF80E30 		strb	r3, [sp, #14]
 3128              		.loc 1 978 0
 3129 03ac 0122     		movs	r2, #1
 3130 03ae FF21     		movs	r1, #255
 3131 03b0 0198     		ldr	r0, [sp, #4]
 3132 03b2 FFF7FEFF 		bl	VL53L0X_WrByte
 3133 03b6 0346     		mov	r3, r0
 3134 03b8 1A46     		mov	r2, r3
 3135 03ba 9DF80E30 		ldrb	r3, [sp, #14]
ARM GAS  C:\Users\PCHAUT~1\AppData\Local\Temp\ccgoQRgJ.s 			page 56


 3136 03be 1343     		orrs	r3, r3, r2
 3137 03c0 8DF80E30 		strb	r3, [sp, #14]
 3138              		.loc 1 979 0
 3139 03c4 2022     		movs	r2, #32
 3140 03c6 3021     		movs	r1, #48
 3141 03c8 0198     		ldr	r0, [sp, #4]
 3142 03ca FFF7FEFF 		bl	VL53L0X_WrByte
 3143 03ce 0346     		mov	r3, r0
 3144 03d0 1A46     		mov	r2, r3
 3145 03d2 9DF80E30 		ldrb	r3, [sp, #14]
 3146 03d6 1343     		orrs	r3, r3, r2
 3147 03d8 8DF80E30 		strb	r3, [sp, #14]
 3148              		.loc 1 982 0
 3149 03dc 0022     		movs	r2, #0
 3150 03de FF21     		movs	r1, #255
 3151 03e0 0198     		ldr	r0, [sp, #4]
 3152 03e2 FFF7FEFF 		bl	VL53L0X_WrByte
 3153 03e6 0346     		mov	r3, r0
 3154 03e8 1A46     		mov	r2, r3
 3155 03ea 9DF80E30 		ldrb	r3, [sp, #14]
 3156 03ee 1343     		orrs	r3, r3, r2
 3157 03f0 8DF80E30 		strb	r3, [sp, #14]
 3158              	.L153:
 3159              		.loc 1 989 0
 3160 03f4 9DF90E30 		ldrsb	r3, [sp, #14]
 3161 03f8 002B     		cmp	r3, #0
 3162 03fa 40F08180 		bne	.L172
 3163              		.loc 1 990 0
 3164 03fe 9DF80230 		ldrb	r3, [sp, #2]	@ zero_extendqisi2
 3165 0402 1846     		mov	r0, r3
 3166 0404 FFF7FEFF 		bl	VL53L0X_encode_vcsel_period
 3167 0408 0346     		mov	r3, r0
 3168 040a 8DF81330 		strb	r3, [sp, #19]
 3169              		.loc 1 1002 0
 3170 040e 9DF80330 		ldrb	r3, [sp, #3]	@ zero_extendqisi2
 3171 0412 002B     		cmp	r3, #0
 3172 0414 02D0     		beq	.L159
 3173 0416 012B     		cmp	r3, #1
 3174 0418 44D0     		beq	.L160
 3175 041a 6DE0     		b	.L171
 3176              	.L159:
 3177              		.loc 1 1004 0
 3178 041c 06AB     		add	r3, sp, #24
 3179 041e 1A46     		mov	r2, r3
 3180 0420 0321     		movs	r1, #3
 3181 0422 0198     		ldr	r0, [sp, #4]
 3182 0424 FFF7FEFF 		bl	get_sequence_step_timeout
 3183 0428 0346     		mov	r3, r0
 3184 042a 8DF80E30 		strb	r3, [sp, #14]
 3185              		.loc 1 1008 0
 3186 042e 9DF90E30 		ldrsb	r3, [sp, #14]
 3187 0432 002B     		cmp	r3, #0
 3188 0434 08D1     		bne	.L161
 3189              		.loc 1 1009 0
 3190 0436 07AB     		add	r3, sp, #28
 3191 0438 1A46     		mov	r2, r3
 3192 043a 0221     		movs	r1, #2
ARM GAS  C:\Users\PCHAUT~1\AppData\Local\Temp\ccgoQRgJ.s 			page 57


 3193 043c 0198     		ldr	r0, [sp, #4]
 3194 043e FFF7FEFF 		bl	get_sequence_step_timeout
 3195 0442 0346     		mov	r3, r0
 3196 0444 8DF80E30 		strb	r3, [sp, #14]
 3197              	.L161:
 3198              		.loc 1 1013 0
 3199 0448 9DF90E30 		ldrsb	r3, [sp, #14]
 3200 044c 002B     		cmp	r3, #0
 3201 044e 09D1     		bne	.L162
 3202              		.loc 1 1014 0
 3203 0450 9DF81330 		ldrb	r3, [sp, #19]	@ zero_extendqisi2
 3204 0454 1A46     		mov	r2, r3
 3205 0456 5021     		movs	r1, #80
 3206 0458 0198     		ldr	r0, [sp, #4]
 3207 045a FFF7FEFF 		bl	VL53L0X_WrByte
 3208 045e 0346     		mov	r3, r0
 3209 0460 8DF80E30 		strb	r3, [sp, #14]
 3210              	.L162:
 3211              		.loc 1 1019 0
 3212 0464 9DF90E30 		ldrsb	r3, [sp, #14]
 3213 0468 002B     		cmp	r3, #0
 3214 046a 08D1     		bne	.L163
 3215              		.loc 1 1020 0
 3216 046c 069B     		ldr	r3, [sp, #24]
 3217 046e 1A46     		mov	r2, r3
 3218 0470 0321     		movs	r1, #3
 3219 0472 0198     		ldr	r0, [sp, #4]
 3220 0474 FFF7FEFF 		bl	set_sequence_step_timeout
 3221 0478 0346     		mov	r3, r0
 3222 047a 8DF80E30 		strb	r3, [sp, #14]
 3223              	.L163:
 3224              		.loc 1 1025 0
 3225 047e 9DF90E30 		ldrsb	r3, [sp, #14]
 3226 0482 002B     		cmp	r3, #0
 3227 0484 08D1     		bne	.L164
 3228              		.loc 1 1026 0
 3229 0486 079B     		ldr	r3, [sp, #28]
 3230 0488 1A46     		mov	r2, r3
 3231 048a 0221     		movs	r1, #2
 3232 048c 0198     		ldr	r0, [sp, #4]
 3233 048e FFF7FEFF 		bl	set_sequence_step_timeout
 3234 0492 0346     		mov	r3, r0
 3235 0494 8DF80E30 		strb	r3, [sp, #14]
 3236              	.L164:
 3237              		.loc 1 1030 0
 3238 0498 019B     		ldr	r3, [sp, #4]
 3239 049a 9DF80220 		ldrb	r2, [sp, #2]
 3240 049e 83F8E820 		strb	r2, [r3, #232]
 3241              		.loc 1 1034 0
 3242 04a2 2EE0     		b	.L157
 3243              	.L160:
 3244              		.loc 1 1036 0
 3245 04a4 05AB     		add	r3, sp, #20
 3246 04a6 1A46     		mov	r2, r3
 3247 04a8 0421     		movs	r1, #4
 3248 04aa 0198     		ldr	r0, [sp, #4]
 3249 04ac FFF7FEFF 		bl	get_sequence_step_timeout
ARM GAS  C:\Users\PCHAUT~1\AppData\Local\Temp\ccgoQRgJ.s 			page 58


 3250 04b0 0346     		mov	r3, r0
 3251 04b2 8DF80E30 		strb	r3, [sp, #14]
 3252              		.loc 1 1040 0
 3253 04b6 9DF90E30 		ldrsb	r3, [sp, #14]
 3254 04ba 002B     		cmp	r3, #0
 3255 04bc 09D1     		bne	.L165
 3256              		.loc 1 1041 0
 3257 04be 9DF81330 		ldrb	r3, [sp, #19]	@ zero_extendqisi2
 3258 04c2 1A46     		mov	r2, r3
 3259 04c4 7021     		movs	r1, #112
 3260 04c6 0198     		ldr	r0, [sp, #4]
 3261 04c8 FFF7FEFF 		bl	VL53L0X_WrByte
 3262 04cc 0346     		mov	r3, r0
 3263 04ce 8DF80E30 		strb	r3, [sp, #14]
 3264              	.L165:
 3265              		.loc 1 1046 0
 3266 04d2 9DF90E30 		ldrsb	r3, [sp, #14]
 3267 04d6 002B     		cmp	r3, #0
 3268 04d8 08D1     		bne	.L166
 3269              		.loc 1 1047 0
 3270 04da 059B     		ldr	r3, [sp, #20]
 3271 04dc 1A46     		mov	r2, r3
 3272 04de 0421     		movs	r1, #4
 3273 04e0 0198     		ldr	r0, [sp, #4]
 3274 04e2 FFF7FEFF 		bl	set_sequence_step_timeout
 3275 04e6 0346     		mov	r3, r0
 3276 04e8 8DF80E30 		strb	r3, [sp, #14]
 3277              	.L166:
 3278              		.loc 1 1051 0
 3279 04ec 019B     		ldr	r3, [sp, #4]
 3280 04ee 9DF80220 		ldrb	r2, [sp, #2]
 3281 04f2 83F8E020 		strb	r2, [r3, #224]
 3282              		.loc 1 1055 0
 3283 04f6 04E0     		b	.L157
 3284              	.L171:
 3285              		.loc 1 1057 0
 3286 04f8 FC23     		movs	r3, #252
 3287 04fa 8DF80E30 		strb	r3, [sp, #14]
 3288 04fe 00E0     		b	.L157
 3289              	.L172:
 3290              		.loc 1 1059 0
 3291 0500 00BF     		nop
 3292              	.L157:
 3293              		.loc 1 1062 0
 3294 0502 9DF90E30 		ldrsb	r3, [sp, #14]
 3295 0506 002B     		cmp	r3, #0
 3296 0508 09D1     		bne	.L167
 3297              		.loc 1 1063 0
 3298 050a 019B     		ldr	r3, [sp, #4]
 3299 050c 5B69     		ldr	r3, [r3, #20]
 3300 050e 0893     		str	r3, [sp, #32]
 3301              		.loc 1 1067 0
 3302 0510 0899     		ldr	r1, [sp, #32]
 3303 0512 0198     		ldr	r0, [sp, #4]
 3304 0514 FFF7FEFF 		bl	VL53L0X_SetMeasurementTimingBudgetMicroSeconds
 3305 0518 0346     		mov	r3, r0
 3306 051a 8DF80E30 		strb	r3, [sp, #14]
ARM GAS  C:\Users\PCHAUT~1\AppData\Local\Temp\ccgoQRgJ.s 			page 59


 3307              	.L167:
 3308              		.loc 1 1074 0
 3309 051e 9DF90E30 		ldrsb	r3, [sp, #14]
 3310 0522 002B     		cmp	r3, #0
 3311 0524 09D1     		bne	.L168
 3312              		.loc 1 1075 0
 3313 0526 0DF10D01 		add	r1, sp, #13
 3314 052a 0123     		movs	r3, #1
 3315 052c 0022     		movs	r2, #0
 3316 052e 0198     		ldr	r0, [sp, #4]
 3317 0530 FFF7FEFF 		bl	VL53L0X_perform_phase_calibration
 3318 0534 0346     		mov	r3, r0
 3319 0536 8DF80E30 		strb	r3, [sp, #14]
 3320              	.L168:
 3321              		.loc 1 1078 0
 3322 053a 9DF90E30 		ldrsb	r3, [sp, #14]
 3323              	.L169:
 3324              		.loc 1 1079 0 discriminator 1
 3325 053e 1846     		mov	r0, r3
 3326 0540 044B     		ldr	r3, .L175
 3327 0542 099A     		ldr	r2, [sp, #36]
 3328 0544 1B68     		ldr	r3, [r3]
 3329 0546 9A42     		cmp	r2, r3
 3330 0548 01D0     		beq	.L170
 3331              		.loc 1 1079 0 is_stmt 0
 3332 054a FFF7FEFF 		bl	__stack_chk_fail
 3333              	.L170:
 3334 054e 0BB0     		add	sp, sp, #44
 3335              		.cfi_def_cfa_offset 4
 3336              		@ sp needed
 3337 0550 5DF804FB 		ldr	pc, [sp], #4
 3338              	.L176:
 3339              		.align	2
 3340              	.L175:
 3341 0554 00000000 		.word	__stack_chk_guard
 3342              		.cfi_endproc
 3343              	.LFE18:
 3344              		.size	VL53L0X_set_vcsel_pulse_period, .-VL53L0X_set_vcsel_pulse_period
 3345              		.section	.text.VL53L0X_get_vcsel_pulse_period,"ax",%progbits
 3346              		.align	1
 3347              		.p2align 4,,15
 3348              		.global	VL53L0X_get_vcsel_pulse_period
 3349              		.syntax unified
 3350              		.thumb
 3351              		.thumb_func
 3352              		.fpu fpv4-sp-d16
 3353              		.type	VL53L0X_get_vcsel_pulse_period, %function
 3354              	VL53L0X_get_vcsel_pulse_period:
 3355              	.LFB19:
 3356              		.loc 1 1083 0 is_stmt 1
 3357              		.cfi_startproc
 3358              		@ args = 0, pretend = 0, frame = 24
 3359              		@ frame_needed = 0, uses_anonymous_args = 0
 3360 0000 00B5     		push	{lr}
 3361              		.cfi_def_cfa_offset 4
 3362              		.cfi_offset 14, -4
 3363 0002 87B0     		sub	sp, sp, #28
ARM GAS  C:\Users\PCHAUT~1\AppData\Local\Temp\ccgoQRgJ.s 			page 60


 3364              		.cfi_def_cfa_offset 32
 3365 0004 0390     		str	r0, [sp, #12]
 3366 0006 0B46     		mov	r3, r1
 3367 0008 0192     		str	r2, [sp, #4]
 3368 000a 8DF80B30 		strb	r3, [sp, #11]
 3369              		.loc 1 1083 0
 3370 000e 204B     		ldr	r3, .L186
 3371 0010 1B68     		ldr	r3, [r3]
 3372 0012 0593     		str	r3, [sp, #20]
 3373              		.loc 1 1084 0
 3374 0014 0023     		movs	r3, #0
 3375 0016 8DF81330 		strb	r3, [sp, #19]
 3376              		.loc 1 1087 0
 3377 001a 9DF80B30 		ldrb	r3, [sp, #11]	@ zero_extendqisi2
 3378 001e 002B     		cmp	r3, #0
 3379 0020 02D0     		beq	.L179
 3380 0022 012B     		cmp	r3, #1
 3381 0024 0BD0     		beq	.L180
 3382 0026 15E0     		b	.L185
 3383              	.L179:
 3384              		.loc 1 1089 0
 3385 0028 0DF11203 		add	r3, sp, #18
 3386 002c 1A46     		mov	r2, r3
 3387 002e 5021     		movs	r1, #80
 3388 0030 0398     		ldr	r0, [sp, #12]
 3389 0032 FFF7FEFF 		bl	VL53L0X_RdByte
 3390 0036 0346     		mov	r3, r0
 3391 0038 8DF81330 		strb	r3, [sp, #19]
 3392              		.loc 1 1092 0
 3393 003c 0DE0     		b	.L181
 3394              	.L180:
 3395              		.loc 1 1094 0
 3396 003e 0DF11203 		add	r3, sp, #18
 3397 0042 1A46     		mov	r2, r3
 3398 0044 7021     		movs	r1, #112
 3399 0046 0398     		ldr	r0, [sp, #12]
 3400 0048 FFF7FEFF 		bl	VL53L0X_RdByte
 3401 004c 0346     		mov	r3, r0
 3402 004e 8DF81330 		strb	r3, [sp, #19]
 3403              		.loc 1 1097 0
 3404 0052 02E0     		b	.L181
 3405              	.L185:
 3406              		.loc 1 1099 0
 3407 0054 FC23     		movs	r3, #252
 3408 0056 8DF81330 		strb	r3, [sp, #19]
 3409              	.L181:
 3410              		.loc 1 1102 0
 3411 005a 9DF91330 		ldrsb	r3, [sp, #19]
 3412 005e 002B     		cmp	r3, #0
 3413 0060 08D1     		bne	.L182
 3414              		.loc 1 1104 0
 3415 0062 9DF81230 		ldrb	r3, [sp, #18]	@ zero_extendqisi2
 3416 0066 1846     		mov	r0, r3
 3417 0068 FFF7FEFF 		bl	VL53L0X_decode_vcsel_period
 3418 006c 0346     		mov	r3, r0
 3419 006e 1A46     		mov	r2, r3
 3420              		.loc 1 1103 0
ARM GAS  C:\Users\PCHAUT~1\AppData\Local\Temp\ccgoQRgJ.s 			page 61


 3421 0070 019B     		ldr	r3, [sp, #4]
 3422 0072 1A70     		strb	r2, [r3]
 3423              	.L182:
 3424              		.loc 1 1106 0
 3425 0074 9DF91330 		ldrsb	r3, [sp, #19]
 3426              		.loc 1 1107 0
 3427 0078 1846     		mov	r0, r3
 3428 007a 054B     		ldr	r3, .L186
 3429 007c 059A     		ldr	r2, [sp, #20]
 3430 007e 1B68     		ldr	r3, [r3]
 3431 0080 9A42     		cmp	r2, r3
 3432 0082 01D0     		beq	.L184
 3433 0084 FFF7FEFF 		bl	__stack_chk_fail
 3434              	.L184:
 3435 0088 07B0     		add	sp, sp, #28
 3436              		.cfi_def_cfa_offset 4
 3437              		@ sp needed
 3438 008a 5DF804FB 		ldr	pc, [sp], #4
 3439              	.L187:
 3440 008e 00BF     		.align	2
 3441              	.L186:
 3442 0090 00000000 		.word	__stack_chk_guard
 3443              		.cfi_endproc
 3444              	.LFE19:
 3445              		.size	VL53L0X_get_vcsel_pulse_period, .-VL53L0X_get_vcsel_pulse_period
 3446              		.section	.text.VL53L0X_set_measurement_timing_budget_micro_seconds,"ax",%progbits
 3447              		.align	1
 3448              		.p2align 4,,15
 3449              		.global	VL53L0X_set_measurement_timing_budget_micro_seconds
 3450              		.syntax unified
 3451              		.thumb
 3452              		.thumb_func
 3453              		.fpu fpv4-sp-d16
 3454              		.type	VL53L0X_set_measurement_timing_budget_micro_seconds, %function
 3455              	VL53L0X_set_measurement_timing_budget_micro_seconds:
 3456              	.LFB20:
 3457              		.loc 1 1113 0
 3458              		.cfi_startproc
 3459              		@ args = 0, pretend = 0, frame = 72
 3460              		@ frame_needed = 0, uses_anonymous_args = 0
 3461 0000 00B5     		push	{lr}
 3462              		.cfi_def_cfa_offset 4
 3463              		.cfi_offset 14, -4
 3464 0002 93B0     		sub	sp, sp, #76
 3465              		.cfi_def_cfa_offset 80
 3466 0004 0190     		str	r0, [sp, #4]
 3467 0006 0091     		str	r1, [sp]
 3468              		.loc 1 1113 0
 3469 0008 744B     		ldr	r3, .L207
 3470 000a 1B68     		ldr	r3, [r3]
 3471 000c 1193     		str	r3, [sp, #68]
 3472              		.loc 1 1114 0
 3473 000e 0023     		movs	r3, #0
 3474 0010 8DF80B30 		strb	r3, [sp, #11]
 3475              		.loc 1 1117 0
 3476 0014 4FF4FA63 		mov	r3, #2000
 3477 0018 0393     		str	r3, [sp, #12]
ARM GAS  C:\Users\PCHAUT~1\AppData\Local\Temp\ccgoQRgJ.s 			page 62


 3478              		.loc 1 1118 0
 3479 001a 40F27673 		movw	r3, #1910
 3480 001e 0693     		str	r3, [sp, #24]
 3481              		.loc 1 1119 0
 3482 0020 4FF47073 		mov	r3, #960
 3483 0024 0793     		str	r3, [sp, #28]
 3484              		.loc 1 1120 0
 3485 0026 4FF42573 		mov	r3, #660
 3486 002a 0893     		str	r3, [sp, #32]
 3487              		.loc 1 1121 0
 3488 002c 40F24E23 		movw	r3, #590
 3489 0030 0993     		str	r3, [sp, #36]
 3490              		.loc 1 1122 0
 3491 0032 40F2B223 		movw	r3, #690
 3492 0036 0A93     		str	r3, [sp, #40]
 3493              		.loc 1 1123 0
 3494 0038 4FF42573 		mov	r3, #660
 3495 003c 0B93     		str	r3, [sp, #44]
 3496              		.loc 1 1124 0
 3497 003e 40F22623 		movw	r3, #550
 3498 0042 0C93     		str	r3, [sp, #48]
 3499              		.loc 1 1125 0
 3500 0044 0023     		movs	r3, #0
 3501 0046 0493     		str	r3, [sp, #16]
 3502              		.loc 1 1126 0
 3503 0048 44F62063 		movw	r3, #20000
 3504 004c 0D93     		str	r3, [sp, #52]
 3505              		.loc 1 1127 0
 3506 004e 0023     		movs	r3, #0
 3507 0050 0E93     		str	r3, [sp, #56]
 3508              		.loc 1 1131 0
 3509 0052 009A     		ldr	r2, [sp]
 3510 0054 0D9B     		ldr	r3, [sp, #52]
 3511 0056 9A42     		cmp	r2, r3
 3512 0058 05D2     		bcs	.L189
 3513              		.loc 1 1133 0
 3514 005a FC23     		movs	r3, #252
 3515 005c 8DF80B30 		strb	r3, [sp, #11]
 3516              		.loc 1 1134 0
 3517 0060 9DF90B30 		ldrsb	r3, [sp, #11]
 3518 0064 AFE0     		b	.L205
 3519              	.L189:
 3520              		.loc 1 1139 0
 3521 0066 069A     		ldr	r2, [sp, #24]
 3522 0068 079B     		ldr	r3, [sp, #28]
 3523 006a 1344     		add	r3, r3, r2
 3524              		.loc 1 1137 0
 3525 006c 009A     		ldr	r2, [sp]
 3526 006e D31A     		subs	r3, r2, r3
 3527 0070 0593     		str	r3, [sp, #20]
 3528              		.loc 1 1141 0
 3529 0072 0FAB     		add	r3, sp, #60
 3530 0074 1946     		mov	r1, r3
 3531 0076 0198     		ldr	r0, [sp, #4]
 3532 0078 FFF7FEFF 		bl	VL53L0X_GetSequenceStepEnables
 3533 007c 0346     		mov	r3, r0
 3534 007e 8DF80B30 		strb	r3, [sp, #11]
ARM GAS  C:\Users\PCHAUT~1\AppData\Local\Temp\ccgoQRgJ.s 			page 63


 3535              		.loc 1 1143 0
 3536 0082 9DF90B30 		ldrsb	r3, [sp, #11]
 3537 0086 002B     		cmp	r3, #0
 3538 0088 60D1     		bne	.L191
 3539              		.loc 1 1144 0 discriminator 1
 3540 008a 9DF83C30 		ldrb	r3, [sp, #60]	@ zero_extendqisi2
 3541              		.loc 1 1143 0 discriminator 1
 3542 008e 002B     		cmp	r3, #0
 3543 0090 07D1     		bne	.L192
 3544              		.loc 1 1145 0
 3545 0092 9DF83D30 		ldrb	r3, [sp, #61]	@ zero_extendqisi2
 3546              		.loc 1 1144 0
 3547 0096 002B     		cmp	r3, #0
 3548 0098 03D1     		bne	.L192
 3549              		.loc 1 1146 0
 3550 009a 9DF83E30 		ldrb	r3, [sp, #62]	@ zero_extendqisi2
 3551              		.loc 1 1145 0
 3552 009e 002B     		cmp	r3, #0
 3553 00a0 54D0     		beq	.L191
 3554              	.L192:
 3555              		.loc 1 1149 0
 3556 00a2 03AB     		add	r3, sp, #12
 3557 00a4 1A46     		mov	r2, r3
 3558 00a6 0221     		movs	r1, #2
 3559 00a8 0198     		ldr	r0, [sp, #4]
 3560 00aa FFF7FEFF 		bl	get_sequence_step_timeout
 3561 00ae 0346     		mov	r3, r0
 3562 00b0 8DF80B30 		strb	r3, [sp, #11]
 3563              		.loc 1 1156 0
 3564 00b4 9DF90B30 		ldrsb	r3, [sp, #11]
 3565 00b8 002B     		cmp	r3, #0
 3566 00ba 02D0     		beq	.L193
 3567              		.loc 1 1157 0
 3568 00bc 9DF90B30 		ldrsb	r3, [sp, #11]
 3569 00c0 81E0     		b	.L205
 3570              	.L193:
 3571              		.loc 1 1160 0
 3572 00c2 9DF83C30 		ldrb	r3, [sp, #60]	@ zero_extendqisi2
 3573 00c6 002B     		cmp	r3, #0
 3574 00c8 0FD0     		beq	.L194
 3575              		.loc 1 1163 0
 3576 00ca 039B     		ldr	r3, [sp, #12]
 3577              		.loc 1 1162 0
 3578 00cc 099A     		ldr	r2, [sp, #36]
 3579 00ce 1344     		add	r3, r3, r2
 3580 00d0 0E93     		str	r3, [sp, #56]
 3581              		.loc 1 1165 0
 3582 00d2 0E9A     		ldr	r2, [sp, #56]
 3583 00d4 059B     		ldr	r3, [sp, #20]
 3584 00d6 9A42     		cmp	r2, r3
 3585 00d8 04D2     		bcs	.L195
 3586              		.loc 1 1167 0
 3587 00da 059A     		ldr	r2, [sp, #20]
 3588 00dc 0E9B     		ldr	r3, [sp, #56]
 3589 00de D31A     		subs	r3, r2, r3
 3590 00e0 0593     		str	r3, [sp, #20]
 3591 00e2 02E0     		b	.L194
ARM GAS  C:\Users\PCHAUT~1\AppData\Local\Temp\ccgoQRgJ.s 			page 64


 3592              	.L195:
 3593              		.loc 1 1171 0
 3594 00e4 FC23     		movs	r3, #252
 3595 00e6 8DF80B30 		strb	r3, [sp, #11]
 3596              	.L194:
 3597              		.loc 1 1175 0
 3598 00ea 9DF90B30 		ldrsb	r3, [sp, #11]
 3599 00ee 002B     		cmp	r3, #0
 3600 00f0 02D0     		beq	.L196
 3601              		.loc 1 1177 0
 3602 00f2 9DF90B30 		ldrsb	r3, [sp, #11]
 3603 00f6 66E0     		b	.L205
 3604              	.L196:
 3605              		.loc 1 1181 0
 3606 00f8 9DF83E30 		ldrb	r3, [sp, #62]	@ zero_extendqisi2
 3607 00fc 002B     		cmp	r3, #0
 3608 00fe 11D0     		beq	.L197
 3609              		.loc 1 1183 0
 3610 0100 039A     		ldr	r2, [sp, #12]
 3611 0102 0A9B     		ldr	r3, [sp, #40]
 3612 0104 1344     		add	r3, r3, r2
 3613 0106 5B00     		lsls	r3, r3, #1
 3614 0108 0E93     		str	r3, [sp, #56]
 3615              		.loc 1 1186 0
 3616 010a 0E9A     		ldr	r2, [sp, #56]
 3617 010c 059B     		ldr	r3, [sp, #20]
 3618 010e 9A42     		cmp	r2, r3
 3619 0110 04D2     		bcs	.L198
 3620              		.loc 1 1188 0
 3621 0112 059A     		ldr	r2, [sp, #20]
 3622 0114 0E9B     		ldr	r3, [sp, #56]
 3623 0116 D31A     		subs	r3, r2, r3
 3624 0118 0593     		str	r3, [sp, #20]
 3625 011a 17E0     		b	.L191
 3626              	.L198:
 3627              		.loc 1 1191 0
 3628 011c FC23     		movs	r3, #252
 3629 011e 8DF80B30 		strb	r3, [sp, #11]
 3630 0122 13E0     		b	.L191
 3631              	.L197:
 3632              		.loc 1 1193 0
 3633 0124 9DF83D30 		ldrb	r3, [sp, #61]	@ zero_extendqisi2
 3634 0128 002B     		cmp	r3, #0
 3635 012a 0FD0     		beq	.L191
 3636              		.loc 1 1195 0
 3637 012c 039B     		ldr	r3, [sp, #12]
 3638 012e 089A     		ldr	r2, [sp, #32]
 3639 0130 1344     		add	r3, r3, r2
 3640 0132 0E93     		str	r3, [sp, #56]
 3641              		.loc 1 1198 0
 3642 0134 0E9A     		ldr	r2, [sp, #56]
 3643 0136 059B     		ldr	r3, [sp, #20]
 3644 0138 9A42     		cmp	r2, r3
 3645 013a 04D2     		bcs	.L200
 3646              		.loc 1 1200 0
 3647 013c 059A     		ldr	r2, [sp, #20]
 3648 013e 0E9B     		ldr	r3, [sp, #56]
ARM GAS  C:\Users\PCHAUT~1\AppData\Local\Temp\ccgoQRgJ.s 			page 65


 3649 0140 D31A     		subs	r3, r2, r3
 3650 0142 0593     		str	r3, [sp, #20]
 3651 0144 02E0     		b	.L191
 3652              	.L200:
 3653              		.loc 1 1203 0
 3654 0146 FC23     		movs	r3, #252
 3655 0148 8DF80B30 		strb	r3, [sp, #11]
 3656              	.L191:
 3657              		.loc 1 1209 0
 3658 014c 9DF90B30 		ldrsb	r3, [sp, #11]
 3659 0150 002B     		cmp	r3, #0
 3660 0152 02D0     		beq	.L201
 3661              		.loc 1 1211 0
 3662 0154 9DF90B30 		ldrsb	r3, [sp, #11]
 3663 0158 35E0     		b	.L205
 3664              	.L201:
 3665              		.loc 1 1214 0
 3666 015a 9DF83F30 		ldrb	r3, [sp, #63]	@ zero_extendqisi2
 3667 015e 002B     		cmp	r3, #0
 3668 0160 18D0     		beq	.L202
 3669              		.loc 1 1218 0
 3670 0162 04AB     		add	r3, sp, #16
 3671 0164 1A46     		mov	r2, r3
 3672 0166 0321     		movs	r1, #3
 3673 0168 0198     		ldr	r0, [sp, #4]
 3674 016a FFF7FEFF 		bl	get_sequence_step_timeout
 3675 016e 0346     		mov	r3, r0
 3676 0170 8DF80B30 		strb	r3, [sp, #11]
 3677              		.loc 1 1222 0
 3678 0174 049B     		ldr	r3, [sp, #16]
 3679 0176 0B9A     		ldr	r2, [sp, #44]
 3680 0178 1344     		add	r3, r3, r2
 3681 017a 0E93     		str	r3, [sp, #56]
 3682              		.loc 1 1225 0
 3683 017c 0E9A     		ldr	r2, [sp, #56]
 3684 017e 059B     		ldr	r3, [sp, #20]
 3685 0180 9A42     		cmp	r2, r3
 3686 0182 04D2     		bcs	.L203
 3687              		.loc 1 1226 0
 3688 0184 059A     		ldr	r2, [sp, #20]
 3689 0186 0E9B     		ldr	r3, [sp, #56]
 3690 0188 D31A     		subs	r3, r2, r3
 3691 018a 0593     		str	r3, [sp, #20]
 3692 018c 02E0     		b	.L202
 3693              	.L203:
 3694              		.loc 1 1229 0
 3695 018e FC23     		movs	r3, #252
 3696 0190 8DF80B30 		strb	r3, [sp, #11]
 3697              	.L202:
 3698              		.loc 1 1234 0
 3699 0194 9DF90B30 		ldrsb	r3, [sp, #11]
 3700 0198 002B     		cmp	r3, #0
 3701 019a 12D1     		bne	.L204
 3702              		.loc 1 1235 0 discriminator 1
 3703 019c 9DF84030 		ldrb	r3, [sp, #64]	@ zero_extendqisi2
 3704              		.loc 1 1234 0 discriminator 1
 3705 01a0 002B     		cmp	r3, #0
ARM GAS  C:\Users\PCHAUT~1\AppData\Local\Temp\ccgoQRgJ.s 			page 66


 3706 01a2 0ED0     		beq	.L204
 3707              		.loc 1 1237 0
 3708 01a4 059A     		ldr	r2, [sp, #20]
 3709 01a6 0C9B     		ldr	r3, [sp, #48]
 3710 01a8 D31A     		subs	r3, r2, r3
 3711 01aa 0593     		str	r3, [sp, #20]
 3712              		.loc 1 1247 0
 3713 01ac 059A     		ldr	r2, [sp, #20]
 3714 01ae 0421     		movs	r1, #4
 3715 01b0 0198     		ldr	r0, [sp, #4]
 3716 01b2 FFF7FEFF 		bl	set_sequence_step_timeout
 3717 01b6 0346     		mov	r3, r0
 3718 01b8 8DF80B30 		strb	r3, [sp, #11]
 3719              		.loc 1 1251 0
 3720 01bc 019B     		ldr	r3, [sp, #4]
 3721 01be 009A     		ldr	r2, [sp]
 3722 01c0 5A61     		str	r2, [r3, #20]
 3723              	.L204:
 3724              		.loc 1 1258 0
 3725 01c2 9DF90B30 		ldrsb	r3, [sp, #11]
 3726              	.L205:
 3727              		.loc 1 1259 0 discriminator 1
 3728 01c6 1846     		mov	r0, r3
 3729 01c8 044B     		ldr	r3, .L207
 3730 01ca 119A     		ldr	r2, [sp, #68]
 3731 01cc 1B68     		ldr	r3, [r3]
 3732 01ce 9A42     		cmp	r2, r3
 3733 01d0 01D0     		beq	.L206
 3734              		.loc 1 1259 0 is_stmt 0
 3735 01d2 FFF7FEFF 		bl	__stack_chk_fail
 3736              	.L206:
 3737 01d6 13B0     		add	sp, sp, #76
 3738              		.cfi_def_cfa_offset 4
 3739              		@ sp needed
 3740 01d8 5DF804FB 		ldr	pc, [sp], #4
 3741              	.L208:
 3742              		.align	2
 3743              	.L207:
 3744 01dc 00000000 		.word	__stack_chk_guard
 3745              		.cfi_endproc
 3746              	.LFE20:
 3747              		.size	VL53L0X_set_measurement_timing_budget_micro_seconds, .-VL53L0X_set_measurement_timing_budget
 3748              		.section	.text.VL53L0X_get_measurement_timing_budget_micro_seconds,"ax",%progbits
 3749              		.align	1
 3750              		.p2align 4,,15
 3751              		.global	VL53L0X_get_measurement_timing_budget_micro_seconds
 3752              		.syntax unified
 3753              		.thumb
 3754              		.thumb_func
 3755              		.fpu fpv4-sp-d16
 3756              		.type	VL53L0X_get_measurement_timing_budget_micro_seconds, %function
 3757              	VL53L0X_get_measurement_timing_budget_micro_seconds:
 3758              	.LFB21:
 3759              		.loc 1 1263 0 is_stmt 1
 3760              		.cfi_startproc
 3761              		@ args = 0, pretend = 0, frame = 64
 3762              		@ frame_needed = 0, uses_anonymous_args = 0
ARM GAS  C:\Users\PCHAUT~1\AppData\Local\Temp\ccgoQRgJ.s 			page 67


 3763 0000 00B5     		push	{lr}
 3764              		.cfi_def_cfa_offset 4
 3765              		.cfi_offset 14, -4
 3766 0002 91B0     		sub	sp, sp, #68
 3767              		.cfi_def_cfa_offset 72
 3768 0004 0190     		str	r0, [sp, #4]
 3769 0006 0091     		str	r1, [sp]
 3770              		.loc 1 1263 0
 3771 0008 5C4B     		ldr	r3, .L221
 3772 000a 1B68     		ldr	r3, [r3]
 3773 000c 0F93     		str	r3, [sp, #60]
 3774              		.loc 1 1264 0
 3775 000e 0023     		movs	r3, #0
 3776 0010 8DF80B30 		strb	r3, [sp, #11]
 3777              		.loc 1 1267 0
 3778 0014 4FF4FA63 		mov	r3, #2000
 3779 0018 0493     		str	r3, [sp, #16]
 3780              		.loc 1 1268 0
 3781 001a 40F27673 		movw	r3, #1910
 3782 001e 0693     		str	r3, [sp, #24]
 3783              		.loc 1 1269 0
 3784 0020 4FF47073 		mov	r3, #960
 3785 0024 0793     		str	r3, [sp, #28]
 3786              		.loc 1 1270 0
 3787 0026 4FF42573 		mov	r3, #660
 3788 002a 0893     		str	r3, [sp, #32]
 3789              		.loc 1 1271 0
 3790 002c 40F24E23 		movw	r3, #590
 3791 0030 0993     		str	r3, [sp, #36]
 3792              		.loc 1 1272 0
 3793 0032 40F2B223 		movw	r3, #690
 3794 0036 0A93     		str	r3, [sp, #40]
 3795              		.loc 1 1273 0
 3796 0038 4FF42573 		mov	r3, #660
 3797 003c 0B93     		str	r3, [sp, #44]
 3798              		.loc 1 1274 0
 3799 003e 40F22623 		movw	r3, #550
 3800 0042 0C93     		str	r3, [sp, #48]
 3801              		.loc 1 1275 0
 3802 0044 0023     		movs	r3, #0
 3803 0046 0593     		str	r3, [sp, #20]
 3804              		.loc 1 1281 0
 3805 0048 069A     		ldr	r2, [sp, #24]
 3806 004a 079B     		ldr	r3, [sp, #28]
 3807 004c 1A44     		add	r2, r2, r3
 3808 004e 009B     		ldr	r3, [sp]
 3809 0050 1A60     		str	r2, [r3]
 3810              		.loc 1 1283 0
 3811 0052 0DAB     		add	r3, sp, #52
 3812 0054 1946     		mov	r1, r3
 3813 0056 0198     		ldr	r0, [sp, #4]
 3814 0058 FFF7FEFF 		bl	VL53L0X_GetSequenceStepEnables
 3815 005c 0346     		mov	r3, r0
 3816 005e 8DF80B30 		strb	r3, [sp, #11]
 3817              		.loc 1 1285 0
 3818 0062 9DF90B30 		ldrsb	r3, [sp, #11]
 3819 0066 002B     		cmp	r3, #0
ARM GAS  C:\Users\PCHAUT~1\AppData\Local\Temp\ccgoQRgJ.s 			page 68


 3820 0068 02D0     		beq	.L210
 3821              		.loc 1 1287 0
 3822 006a 9DF90B30 		ldrsb	r3, [sp, #11]
 3823 006e 7AE0     		b	.L219
 3824              	.L210:
 3825              		.loc 1 1291 0
 3826 0070 9DF83430 		ldrb	r3, [sp, #52]	@ zero_extendqisi2
 3827 0074 002B     		cmp	r3, #0
 3828 0076 07D1     		bne	.L212
 3829              		.loc 1 1292 0 discriminator 1
 3830 0078 9DF83530 		ldrb	r3, [sp, #53]	@ zero_extendqisi2
 3831              		.loc 1 1291 0 discriminator 1
 3832 007c 002B     		cmp	r3, #0
 3833 007e 03D1     		bne	.L212
 3834              		.loc 1 1293 0
 3835 0080 9DF83630 		ldrb	r3, [sp, #54]	@ zero_extendqisi2
 3836              		.loc 1 1292 0
 3837 0084 002B     		cmp	r3, #0
 3838 0086 32D0     		beq	.L213
 3839              	.L212:
 3840              		.loc 1 1295 0
 3841 0088 04AB     		add	r3, sp, #16
 3842 008a 1A46     		mov	r2, r3
 3843 008c 0221     		movs	r1, #2
 3844 008e 0198     		ldr	r0, [sp, #4]
 3845 0090 FFF7FEFF 		bl	get_sequence_step_timeout
 3846 0094 0346     		mov	r3, r0
 3847 0096 8DF80B30 		strb	r3, [sp, #11]
 3848              		.loc 1 1299 0
 3849 009a 9DF90B30 		ldrsb	r3, [sp, #11]
 3850 009e 002B     		cmp	r3, #0
 3851 00a0 25D1     		bne	.L213
 3852              		.loc 1 1300 0
 3853 00a2 9DF83430 		ldrb	r3, [sp, #52]	@ zero_extendqisi2
 3854 00a6 002B     		cmp	r3, #0
 3855 00a8 07D0     		beq	.L214
 3856              		.loc 1 1301 0
 3857 00aa 009B     		ldr	r3, [sp]
 3858 00ac 1A68     		ldr	r2, [r3]
 3859              		.loc 1 1302 0
 3860 00ae 0499     		ldr	r1, [sp, #16]
 3861 00b0 099B     		ldr	r3, [sp, #36]
 3862 00b2 0B44     		add	r3, r3, r1
 3863              		.loc 1 1301 0
 3864 00b4 1A44     		add	r2, r2, r3
 3865 00b6 009B     		ldr	r3, [sp]
 3866 00b8 1A60     		str	r2, [r3]
 3867              	.L214:
 3868              		.loc 1 1306 0
 3869 00ba 9DF83630 		ldrb	r3, [sp, #54]	@ zero_extendqisi2
 3870 00be 002B     		cmp	r3, #0
 3871 00c0 09D0     		beq	.L215
 3872              		.loc 1 1307 0
 3873 00c2 009B     		ldr	r3, [sp]
 3874 00c4 1A68     		ldr	r2, [r3]
 3875              		.loc 1 1308 0
 3876 00c6 0499     		ldr	r1, [sp, #16]
ARM GAS  C:\Users\PCHAUT~1\AppData\Local\Temp\ccgoQRgJ.s 			page 69


 3877 00c8 0A9B     		ldr	r3, [sp, #40]
 3878 00ca 0B44     		add	r3, r3, r1
 3879 00cc 5B00     		lsls	r3, r3, #1
 3880              		.loc 1 1307 0
 3881 00ce 1A44     		add	r2, r2, r3
 3882 00d0 009B     		ldr	r3, [sp]
 3883 00d2 1A60     		str	r2, [r3]
 3884 00d4 0BE0     		b	.L213
 3885              	.L215:
 3886              		.loc 1 1310 0
 3887 00d6 9DF83530 		ldrb	r3, [sp, #53]	@ zero_extendqisi2
 3888 00da 002B     		cmp	r3, #0
 3889 00dc 07D0     		beq	.L213
 3890              		.loc 1 1311 0
 3891 00de 009B     		ldr	r3, [sp]
 3892 00e0 1A68     		ldr	r2, [r3]
 3893              		.loc 1 1312 0
 3894 00e2 0499     		ldr	r1, [sp, #16]
 3895 00e4 089B     		ldr	r3, [sp, #32]
 3896 00e6 0B44     		add	r3, r3, r1
 3897              		.loc 1 1311 0
 3898 00e8 1A44     		add	r2, r2, r3
 3899 00ea 009B     		ldr	r3, [sp]
 3900 00ec 1A60     		str	r2, [r3]
 3901              	.L213:
 3902              		.loc 1 1318 0
 3903 00ee 9DF90B30 		ldrsb	r3, [sp, #11]
 3904 00f2 002B     		cmp	r3, #0
 3905 00f4 14D1     		bne	.L216
 3906              		.loc 1 1319 0
 3907 00f6 9DF83730 		ldrb	r3, [sp, #55]	@ zero_extendqisi2
 3908 00fa 002B     		cmp	r3, #0
 3909 00fc 10D0     		beq	.L216
 3910              		.loc 1 1320 0
 3911 00fe 05AB     		add	r3, sp, #20
 3912 0100 1A46     		mov	r2, r3
 3913 0102 0321     		movs	r1, #3
 3914 0104 0198     		ldr	r0, [sp, #4]
 3915 0106 FFF7FEFF 		bl	get_sequence_step_timeout
 3916 010a 0346     		mov	r3, r0
 3917 010c 8DF80B30 		strb	r3, [sp, #11]
 3918              		.loc 1 1323 0
 3919 0110 009B     		ldr	r3, [sp]
 3920 0112 1A68     		ldr	r2, [r3]
 3921              		.loc 1 1324 0
 3922 0114 0599     		ldr	r1, [sp, #20]
 3923 0116 0B9B     		ldr	r3, [sp, #44]
 3924 0118 0B44     		add	r3, r3, r1
 3925              		.loc 1 1323 0
 3926 011a 1A44     		add	r2, r2, r3
 3927 011c 009B     		ldr	r3, [sp]
 3928 011e 1A60     		str	r2, [r3]
 3929              	.L216:
 3930              		.loc 1 1329 0
 3931 0120 9DF90B30 		ldrsb	r3, [sp, #11]
 3932 0124 002B     		cmp	r3, #0
 3933 0126 14D1     		bne	.L217
ARM GAS  C:\Users\PCHAUT~1\AppData\Local\Temp\ccgoQRgJ.s 			page 70


 3934              		.loc 1 1330 0
 3935 0128 9DF83830 		ldrb	r3, [sp, #56]	@ zero_extendqisi2
 3936 012c 002B     		cmp	r3, #0
 3937 012e 10D0     		beq	.L217
 3938              		.loc 1 1331 0
 3939 0130 03AB     		add	r3, sp, #12
 3940 0132 1A46     		mov	r2, r3
 3941 0134 0421     		movs	r1, #4
 3942 0136 0198     		ldr	r0, [sp, #4]
 3943 0138 FFF7FEFF 		bl	get_sequence_step_timeout
 3944 013c 0346     		mov	r3, r0
 3945 013e 8DF80B30 		strb	r3, [sp, #11]
 3946              		.loc 1 1334 0
 3947 0142 009B     		ldr	r3, [sp]
 3948 0144 1A68     		ldr	r2, [r3]
 3949              		.loc 1 1335 0
 3950 0146 0399     		ldr	r1, [sp, #12]
 3951 0148 0C9B     		ldr	r3, [sp, #48]
 3952 014a 0B44     		add	r3, r3, r1
 3953              		.loc 1 1334 0
 3954 014c 1A44     		add	r2, r2, r3
 3955 014e 009B     		ldr	r3, [sp]
 3956 0150 1A60     		str	r2, [r3]
 3957              	.L217:
 3958              		.loc 1 1340 0
 3959 0152 9DF90B30 		ldrsb	r3, [sp, #11]
 3960 0156 002B     		cmp	r3, #0
 3961 0158 03D1     		bne	.L218
 3962              		.loc 1 1341 0
 3963 015a 009B     		ldr	r3, [sp]
 3964 015c 1A68     		ldr	r2, [r3]
 3965 015e 019B     		ldr	r3, [sp, #4]
 3966 0160 5A61     		str	r2, [r3, #20]
 3967              	.L218:
 3968              		.loc 1 1347 0
 3969 0162 9DF90B30 		ldrsb	r3, [sp, #11]
 3970              	.L219:
 3971              		.loc 1 1348 0 discriminator 1
 3972 0166 1846     		mov	r0, r3
 3973 0168 044B     		ldr	r3, .L221
 3974 016a 0F9A     		ldr	r2, [sp, #60]
 3975 016c 1B68     		ldr	r3, [r3]
 3976 016e 9A42     		cmp	r2, r3
 3977 0170 01D0     		beq	.L220
 3978              		.loc 1 1348 0 is_stmt 0
 3979 0172 FFF7FEFF 		bl	__stack_chk_fail
 3980              	.L220:
 3981 0176 11B0     		add	sp, sp, #68
 3982              		.cfi_def_cfa_offset 4
 3983              		@ sp needed
 3984 0178 5DF804FB 		ldr	pc, [sp], #4
 3985              	.L222:
 3986              		.align	2
 3987              	.L221:
 3988 017c 00000000 		.word	__stack_chk_guard
 3989              		.cfi_endproc
 3990              	.LFE21:
ARM GAS  C:\Users\PCHAUT~1\AppData\Local\Temp\ccgoQRgJ.s 			page 71


 3991              		.size	VL53L0X_get_measurement_timing_budget_micro_seconds, .-VL53L0X_get_measurement_timing_budget
 3992              		.section	.text.VL53L0X_load_tuning_settings,"ax",%progbits
 3993              		.align	1
 3994              		.p2align 4,,15
 3995              		.global	VL53L0X_load_tuning_settings
 3996              		.syntax unified
 3997              		.thumb
 3998              		.thumb_func
 3999              		.fpu fpv4-sp-d16
 4000              		.type	VL53L0X_load_tuning_settings, %function
 4001              	VL53L0X_load_tuning_settings:
 4002              	.LFB22:
 4003              		.loc 1 1354 0 is_stmt 1
 4004              		.cfi_startproc
 4005              		@ args = 0, pretend = 0, frame = 32
 4006              		@ frame_needed = 0, uses_anonymous_args = 0
 4007 0000 00B5     		push	{lr}
 4008              		.cfi_def_cfa_offset 4
 4009              		.cfi_offset 14, -4
 4010 0002 89B0     		sub	sp, sp, #36
 4011              		.cfi_def_cfa_offset 40
 4012 0004 0190     		str	r0, [sp, #4]
 4013 0006 0091     		str	r1, [sp]
 4014              		.loc 1 1354 0
 4015 0008 854B     		ldr	r3, .L240
 4016 000a 1B68     		ldr	r3, [r3]
 4017 000c 0793     		str	r3, [sp, #28]
 4018              		.loc 1 1355 0
 4019 000e 0023     		movs	r3, #0
 4020 0010 8DF80830 		strb	r3, [sp, #8]
 4021              		.loc 1 1368 0
 4022 0014 0023     		movs	r3, #0
 4023 0016 0593     		str	r3, [sp, #20]
 4024              		.loc 1 1370 0
 4025 0018 E9E0     		b	.L224
 4026              	.L237:
 4027              		.loc 1 1372 0
 4028 001a 059B     		ldr	r3, [sp, #20]
 4029 001c 009A     		ldr	r2, [sp]
 4030 001e 1344     		add	r3, r3, r2
 4031 0020 1B78     		ldrb	r3, [r3]
 4032 0022 8DF80930 		strb	r3, [sp, #9]
 4033              		.loc 1 1373 0
 4034 0026 059B     		ldr	r3, [sp, #20]
 4035 0028 0133     		adds	r3, r3, #1
 4036 002a 0593     		str	r3, [sp, #20]
 4037              		.loc 1 1374 0
 4038 002c 9DF80930 		ldrb	r3, [sp, #9]	@ zero_extendqisi2
 4039 0030 FF2B     		cmp	r3, #255
 4040 0032 40F0A980 		bne	.L225
 4041              		.loc 1 1376 0
 4042 0036 059B     		ldr	r3, [sp, #20]
 4043 0038 009A     		ldr	r2, [sp]
 4044 003a 1344     		add	r3, r3, r2
 4045 003c 1B78     		ldrb	r3, [r3]
 4046 003e 8DF80B30 		strb	r3, [sp, #11]
 4047              		.loc 1 1377 0
ARM GAS  C:\Users\PCHAUT~1\AppData\Local\Temp\ccgoQRgJ.s 			page 72


 4048 0042 059B     		ldr	r3, [sp, #20]
 4049 0044 0133     		adds	r3, r3, #1
 4050 0046 0593     		str	r3, [sp, #20]
 4051              		.loc 1 1378 0
 4052 0048 9DF80B30 		ldrb	r3, [sp, #11]	@ zero_extendqisi2
 4053 004c 032B     		cmp	r3, #3
 4054 004e 00F29780 		bhi	.L226
 4055 0052 01A2     		adr	r2, .L228
 4056 0054 52F823F0 		ldr	pc, [r2, r3, lsl #2]
 4057              		.p2align 2
 4058              	.L228:
 4059 0058 69000000 		.word	.L227+1
 4060 005c AF000000 		.word	.L229+1
 4061 0060 F5000000 		.word	.L230+1
 4062 0064 3B010000 		.word	.L231+1
 4063              		.p2align 1
 4064              	.L227:
 4065              		.loc 1 1380 0
 4066 0068 059B     		ldr	r3, [sp, #20]
 4067 006a 009A     		ldr	r2, [sp]
 4068 006c 1344     		add	r3, r3, r2
 4069 006e 1B78     		ldrb	r3, [r3]
 4070 0070 8DF80C30 		strb	r3, [sp, #12]
 4071              		.loc 1 1381 0
 4072 0074 059B     		ldr	r3, [sp, #20]
 4073 0076 0133     		adds	r3, r3, #1
 4074 0078 0593     		str	r3, [sp, #20]
 4075              		.loc 1 1382 0
 4076 007a 059B     		ldr	r3, [sp, #20]
 4077 007c 009A     		ldr	r2, [sp]
 4078 007e 1344     		add	r3, r3, r2
 4079 0080 1B78     		ldrb	r3, [r3]
 4080 0082 8DF80D30 		strb	r3, [sp, #13]
 4081              		.loc 1 1383 0
 4082 0086 059B     		ldr	r3, [sp, #20]
 4083 0088 0133     		adds	r3, r3, #1
 4084 008a 0593     		str	r3, [sp, #20]
 4085              		.loc 1 1384 0
 4086 008c 9DF80C30 		ldrb	r3, [sp, #12]	@ zero_extendqisi2
 4087 0090 9BB2     		uxth	r3, r3
 4088 0092 1B02     		lsls	r3, r3, #8
 4089 0094 9AB2     		uxth	r2, r3
 4090 0096 9DF80D30 		ldrb	r3, [sp, #13]	@ zero_extendqisi2
 4091 009a 9BB2     		uxth	r3, r3
 4092 009c 1344     		add	r3, r3, r2
 4093 009e ADF80E30 		strh	r3, [sp, #14]	@ movhi
 4094              		.loc 1 1385 0
 4095 00a2 019B     		ldr	r3, [sp, #4]
 4096 00a4 BDF80E20 		ldrh	r2, [sp, #14]	@ movhi
 4097 00a8 A3F83421 		strh	r2, [r3, #308]	@ movhi
 4098              		.loc 1 1386 0
 4099 00ac 9FE0     		b	.L224
 4100              	.L229:
 4101              		.loc 1 1388 0
 4102 00ae 059B     		ldr	r3, [sp, #20]
 4103 00b0 009A     		ldr	r2, [sp]
 4104 00b2 1344     		add	r3, r3, r2
ARM GAS  C:\Users\PCHAUT~1\AppData\Local\Temp\ccgoQRgJ.s 			page 73


 4105 00b4 1B78     		ldrb	r3, [r3]
 4106 00b6 8DF80C30 		strb	r3, [sp, #12]
 4107              		.loc 1 1389 0
 4108 00ba 059B     		ldr	r3, [sp, #20]
 4109 00bc 0133     		adds	r3, r3, #1
 4110 00be 0593     		str	r3, [sp, #20]
 4111              		.loc 1 1390 0
 4112 00c0 059B     		ldr	r3, [sp, #20]
 4113 00c2 009A     		ldr	r2, [sp]
 4114 00c4 1344     		add	r3, r3, r2
 4115 00c6 1B78     		ldrb	r3, [r3]
 4116 00c8 8DF80D30 		strb	r3, [sp, #13]
 4117              		.loc 1 1391 0
 4118 00cc 059B     		ldr	r3, [sp, #20]
 4119 00ce 0133     		adds	r3, r3, #1
 4120 00d0 0593     		str	r3, [sp, #20]
 4121              		.loc 1 1392 0
 4122 00d2 9DF80C30 		ldrb	r3, [sp, #12]	@ zero_extendqisi2
 4123 00d6 9BB2     		uxth	r3, r3
 4124 00d8 1B02     		lsls	r3, r3, #8
 4125 00da 9AB2     		uxth	r2, r3
 4126 00dc 9DF80D30 		ldrb	r3, [sp, #13]	@ zero_extendqisi2
 4127 00e0 9BB2     		uxth	r3, r3
 4128 00e2 1344     		add	r3, r3, r2
 4129 00e4 ADF80E30 		strh	r3, [sp, #14]	@ movhi
 4130              		.loc 1 1393 0
 4131 00e8 019B     		ldr	r3, [sp, #4]
 4132 00ea BDF80E20 		ldrh	r2, [sp, #14]	@ movhi
 4133 00ee A3F83621 		strh	r2, [r3, #310]	@ movhi
 4134              		.loc 1 1395 0
 4135 00f2 7CE0     		b	.L224
 4136              	.L230:
 4137              		.loc 1 1397 0
 4138 00f4 059B     		ldr	r3, [sp, #20]
 4139 00f6 009A     		ldr	r2, [sp]
 4140 00f8 1344     		add	r3, r3, r2
 4141 00fa 1B78     		ldrb	r3, [r3]
 4142 00fc 8DF80C30 		strb	r3, [sp, #12]
 4143              		.loc 1 1398 0
 4144 0100 059B     		ldr	r3, [sp, #20]
 4145 0102 0133     		adds	r3, r3, #1
 4146 0104 0593     		str	r3, [sp, #20]
 4147              		.loc 1 1399 0
 4148 0106 059B     		ldr	r3, [sp, #20]
 4149 0108 009A     		ldr	r2, [sp]
 4150 010a 1344     		add	r3, r3, r2
 4151 010c 1B78     		ldrb	r3, [r3]
 4152 010e 8DF80D30 		strb	r3, [sp, #13]
 4153              		.loc 1 1400 0
 4154 0112 059B     		ldr	r3, [sp, #20]
 4155 0114 0133     		adds	r3, r3, #1
 4156 0116 0593     		str	r3, [sp, #20]
 4157              		.loc 1 1401 0
 4158 0118 9DF80C30 		ldrb	r3, [sp, #12]	@ zero_extendqisi2
 4159 011c 9BB2     		uxth	r3, r3
 4160 011e 1B02     		lsls	r3, r3, #8
 4161 0120 9AB2     		uxth	r2, r3
ARM GAS  C:\Users\PCHAUT~1\AppData\Local\Temp\ccgoQRgJ.s 			page 74


 4162 0122 9DF80D30 		ldrb	r3, [sp, #13]	@ zero_extendqisi2
 4163 0126 9BB2     		uxth	r3, r3
 4164 0128 1344     		add	r3, r3, r2
 4165 012a ADF80E30 		strh	r3, [sp, #14]	@ movhi
 4166              		.loc 1 1402 0
 4167 012e 019B     		ldr	r3, [sp, #4]
 4168 0130 BDF80E20 		ldrh	r2, [sp, #14]	@ movhi
 4169 0134 A3F83821 		strh	r2, [r3, #312]	@ movhi
 4170              		.loc 1 1403 0
 4171 0138 59E0     		b	.L224
 4172              	.L231:
 4173              		.loc 1 1405 0
 4174 013a 059B     		ldr	r3, [sp, #20]
 4175 013c 009A     		ldr	r2, [sp]
 4176 013e 1344     		add	r3, r3, r2
 4177 0140 1B78     		ldrb	r3, [r3]
 4178 0142 8DF80C30 		strb	r3, [sp, #12]
 4179              		.loc 1 1406 0
 4180 0146 059B     		ldr	r3, [sp, #20]
 4181 0148 0133     		adds	r3, r3, #1
 4182 014a 0593     		str	r3, [sp, #20]
 4183              		.loc 1 1407 0
 4184 014c 059B     		ldr	r3, [sp, #20]
 4185 014e 009A     		ldr	r2, [sp]
 4186 0150 1344     		add	r3, r3, r2
 4187 0152 1B78     		ldrb	r3, [r3]
 4188 0154 8DF80D30 		strb	r3, [sp, #13]
 4189              		.loc 1 1408 0
 4190 0158 059B     		ldr	r3, [sp, #20]
 4191 015a 0133     		adds	r3, r3, #1
 4192 015c 0593     		str	r3, [sp, #20]
 4193              		.loc 1 1409 0
 4194 015e 9DF80C30 		ldrb	r3, [sp, #12]	@ zero_extendqisi2
 4195 0162 9BB2     		uxth	r3, r3
 4196 0164 1B02     		lsls	r3, r3, #8
 4197 0166 9AB2     		uxth	r2, r3
 4198 0168 9DF80D30 		ldrb	r3, [sp, #13]	@ zero_extendqisi2
 4199 016c 9BB2     		uxth	r3, r3
 4200 016e 1344     		add	r3, r3, r2
 4201 0170 ADF80E30 		strh	r3, [sp, #14]	@ movhi
 4202              		.loc 1 1410 0
 4203 0174 019B     		ldr	r3, [sp, #4]
 4204 0176 BDF80E20 		ldrh	r2, [sp, #14]	@ movhi
 4205 017a A3F83C21 		strh	r2, [r3, #316]	@ movhi
 4206              		.loc 1 1411 0
 4207 017e 36E0     		b	.L224
 4208              	.L226:
 4209              		.loc 1 1413 0
 4210 0180 FC23     		movs	r3, #252
 4211 0182 8DF80830 		strb	r3, [sp, #8]
 4212 0186 32E0     		b	.L224
 4213              	.L225:
 4214              		.loc 1 1416 0
 4215 0188 9DF80930 		ldrb	r3, [sp, #9]	@ zero_extendqisi2
 4216 018c 042B     		cmp	r3, #4
 4217 018e 2BD8     		bhi	.L233
 4218              		.loc 1 1417 0
ARM GAS  C:\Users\PCHAUT~1\AppData\Local\Temp\ccgoQRgJ.s 			page 75


 4219 0190 059B     		ldr	r3, [sp, #20]
 4220 0192 009A     		ldr	r2, [sp]
 4221 0194 1344     		add	r3, r3, r2
 4222 0196 1B78     		ldrb	r3, [r3]
 4223 0198 8DF80A30 		strb	r3, [sp, #10]
 4224              		.loc 1 1418 0
 4225 019c 059B     		ldr	r3, [sp, #20]
 4226 019e 0133     		adds	r3, r3, #1
 4227 01a0 0593     		str	r3, [sp, #20]
 4228              		.loc 1 1420 0
 4229 01a2 0023     		movs	r3, #0
 4230 01a4 0493     		str	r3, [sp, #16]
 4231 01a6 0EE0     		b	.L234
 4232              	.L235:
 4233              		.loc 1 1421 0 discriminator 3
 4234 01a8 059B     		ldr	r3, [sp, #20]
 4235 01aa 009A     		ldr	r2, [sp]
 4236 01ac 1344     		add	r3, r3, r2
 4237 01ae 1978     		ldrb	r1, [r3]	@ zero_extendqisi2
 4238 01b0 06AA     		add	r2, sp, #24
 4239 01b2 049B     		ldr	r3, [sp, #16]
 4240 01b4 1344     		add	r3, r3, r2
 4241 01b6 0A46     		mov	r2, r1
 4242 01b8 1A70     		strb	r2, [r3]
 4243              		.loc 1 1423 0 discriminator 3
 4244 01ba 059B     		ldr	r3, [sp, #20]
 4245 01bc 0133     		adds	r3, r3, #1
 4246 01be 0593     		str	r3, [sp, #20]
 4247              		.loc 1 1420 0 discriminator 3
 4248 01c0 049B     		ldr	r3, [sp, #16]
 4249 01c2 0133     		adds	r3, r3, #1
 4250 01c4 0493     		str	r3, [sp, #16]
 4251              	.L234:
 4252              		.loc 1 1420 0 is_stmt 0 discriminator 1
 4253 01c6 9DF80930 		ldrb	r3, [sp, #9]	@ zero_extendqisi2
 4254 01ca 049A     		ldr	r2, [sp, #16]
 4255 01cc 9A42     		cmp	r2, r3
 4256 01ce EBDB     		blt	.L235
 4257              		.loc 1 1426 0 is_stmt 1
 4258 01d0 9DF80930 		ldrb	r3, [sp, #9]	@ zero_extendqisi2
 4259 01d4 06AA     		add	r2, sp, #24
 4260 01d6 9DF80A10 		ldrb	r1, [sp, #10]	@ zero_extendqisi2
 4261 01da 0198     		ldr	r0, [sp, #4]
 4262 01dc FFF7FEFF 		bl	VL53L0X_WriteMulti
 4263 01e0 0346     		mov	r3, r0
 4264 01e2 8DF80830 		strb	r3, [sp, #8]
 4265 01e6 02E0     		b	.L224
 4266              	.L233:
 4267              		.loc 1 1430 0
 4268 01e8 FC23     		movs	r3, #252
 4269 01ea 8DF80830 		strb	r3, [sp, #8]
 4270              	.L224:
 4271              		.loc 1 1370 0
 4272 01ee 059B     		ldr	r3, [sp, #20]
 4273 01f0 009A     		ldr	r2, [sp]
 4274 01f2 1344     		add	r3, r3, r2
 4275 01f4 1B78     		ldrb	r3, [r3]	@ zero_extendqisi2
ARM GAS  C:\Users\PCHAUT~1\AppData\Local\Temp\ccgoQRgJ.s 			page 76


 4276 01f6 002B     		cmp	r3, #0
 4277 01f8 04D0     		beq	.L236
 4278              		.loc 1 1370 0 is_stmt 0 discriminator 1
 4279 01fa 9DF90830 		ldrsb	r3, [sp, #8]
 4280 01fe 002B     		cmp	r3, #0
 4281 0200 3FF40BAF 		beq	.L237
 4282              	.L236:
 4283              		.loc 1 1435 0 is_stmt 1
 4284 0204 9DF90830 		ldrsb	r3, [sp, #8]
 4285              		.loc 1 1436 0
 4286 0208 1846     		mov	r0, r3
 4287 020a 054B     		ldr	r3, .L240
 4288 020c 079A     		ldr	r2, [sp, #28]
 4289 020e 1B68     		ldr	r3, [r3]
 4290 0210 9A42     		cmp	r2, r3
 4291 0212 01D0     		beq	.L239
 4292 0214 FFF7FEFF 		bl	__stack_chk_fail
 4293              	.L239:
 4294 0218 09B0     		add	sp, sp, #36
 4295              		.cfi_def_cfa_offset 4
 4296              		@ sp needed
 4297 021a 5DF804FB 		ldr	pc, [sp], #4
 4298              	.L241:
 4299 021e 00BF     		.align	2
 4300              	.L240:
 4301 0220 00000000 		.word	__stack_chk_guard
 4302              		.cfi_endproc
 4303              	.LFE22:
 4304              		.size	VL53L0X_load_tuning_settings, .-VL53L0X_load_tuning_settings
 4305              		.section	.text.VL53L0X_get_total_xtalk_rate,"ax",%progbits
 4306              		.align	1
 4307              		.p2align 4,,15
 4308              		.global	VL53L0X_get_total_xtalk_rate
 4309              		.syntax unified
 4310              		.thumb
 4311              		.thumb_func
 4312              		.fpu fpv4-sp-d16
 4313              		.type	VL53L0X_get_total_xtalk_rate, %function
 4314              	VL53L0X_get_total_xtalk_rate:
 4315              	.LFB23:
 4316              		.loc 1 1441 0
 4317              		.cfi_startproc
 4318              		@ args = 0, pretend = 0, frame = 32
 4319              		@ frame_needed = 0, uses_anonymous_args = 0
 4320 0000 00B5     		push	{lr}
 4321              		.cfi_def_cfa_offset 4
 4322              		.cfi_offset 14, -4
 4323 0002 89B0     		sub	sp, sp, #36
 4324              		.cfi_def_cfa_offset 40
 4325 0004 0390     		str	r0, [sp, #12]
 4326 0006 0291     		str	r1, [sp, #8]
 4327 0008 0192     		str	r2, [sp, #4]
 4328              		.loc 1 1441 0
 4329 000a 1B4B     		ldr	r3, .L246
 4330 000c 1B68     		ldr	r3, [r3]
 4331 000e 0793     		str	r3, [sp, #28]
 4332              		.loc 1 1442 0
ARM GAS  C:\Users\PCHAUT~1\AppData\Local\Temp\ccgoQRgJ.s 			page 77


 4333 0010 0023     		movs	r3, #0
 4334 0012 8DF81330 		strb	r3, [sp, #19]
 4335              		.loc 1 1448 0
 4336 0016 019B     		ldr	r3, [sp, #4]
 4337 0018 0022     		movs	r2, #0
 4338 001a 1A60     		str	r2, [r3]
 4339              		.loc 1 1450 0
 4340 001c 0DF11203 		add	r3, sp, #18
 4341 0020 1946     		mov	r1, r3
 4342 0022 0398     		ldr	r0, [sp, #12]
 4343 0024 FFF7FEFF 		bl	VL53L0X_GetXTalkCompensationEnable
 4344 0028 0346     		mov	r3, r0
 4345 002a 8DF81330 		strb	r3, [sp, #19]
 4346              		.loc 1 1451 0
 4347 002e 9DF91330 		ldrsb	r3, [sp, #19]
 4348 0032 002B     		cmp	r3, #0
 4349 0034 12D1     		bne	.L243
 4350              		.loc 1 1453 0
 4351 0036 9DF81230 		ldrb	r3, [sp, #18]	@ zero_extendqisi2
 4352 003a 002B     		cmp	r3, #0
 4353 003c 0ED0     		beq	.L243
 4354              		.loc 1 1455 0
 4355 003e 039B     		ldr	r3, [sp, #12]
 4356 0040 1B6A     		ldr	r3, [r3, #32]
 4357 0042 0593     		str	r3, [sp, #20]
 4358              		.loc 1 1462 0
 4359 0044 029B     		ldr	r3, [sp, #8]
 4360 0046 9B8A     		ldrh	r3, [r3, #20]
 4361 0048 1A46     		mov	r2, r3
 4362              		.loc 1 1461 0
 4363 004a 059B     		ldr	r3, [sp, #20]
 4364 004c 02FB03F3 		mul	r3, r2, r3
 4365 0050 0693     		str	r3, [sp, #24]
 4366              		.loc 1 1467 0
 4367 0052 069B     		ldr	r3, [sp, #24]
 4368 0054 8033     		adds	r3, r3, #128
 4369 0056 1A0A     		lsrs	r2, r3, #8
 4370              		.loc 1 1466 0
 4371 0058 019B     		ldr	r3, [sp, #4]
 4372 005a 1A60     		str	r2, [r3]
 4373              	.L243:
 4374              		.loc 1 1471 0
 4375 005c 9DF91330 		ldrsb	r3, [sp, #19]
 4376              		.loc 1 1472 0
 4377 0060 1846     		mov	r0, r3
 4378 0062 054B     		ldr	r3, .L246
 4379 0064 079A     		ldr	r2, [sp, #28]
 4380 0066 1B68     		ldr	r3, [r3]
 4381 0068 9A42     		cmp	r2, r3
 4382 006a 01D0     		beq	.L245
 4383 006c FFF7FEFF 		bl	__stack_chk_fail
 4384              	.L245:
 4385 0070 09B0     		add	sp, sp, #36
 4386              		.cfi_def_cfa_offset 4
 4387              		@ sp needed
 4388 0072 5DF804FB 		ldr	pc, [sp], #4
 4389              	.L247:
ARM GAS  C:\Users\PCHAUT~1\AppData\Local\Temp\ccgoQRgJ.s 			page 78


 4390 0076 00BF     		.align	2
 4391              	.L246:
 4392 0078 00000000 		.word	__stack_chk_guard
 4393              		.cfi_endproc
 4394              	.LFE23:
 4395              		.size	VL53L0X_get_total_xtalk_rate, .-VL53L0X_get_total_xtalk_rate
 4396              		.section	.text.VL53L0X_get_total_signal_rate,"ax",%progbits
 4397              		.align	1
 4398              		.p2align 4,,15
 4399              		.global	VL53L0X_get_total_signal_rate
 4400              		.syntax unified
 4401              		.thumb
 4402              		.thumb_func
 4403              		.fpu fpv4-sp-d16
 4404              		.type	VL53L0X_get_total_signal_rate, %function
 4405              	VL53L0X_get_total_signal_rate:
 4406              	.LFB24:
 4407              		.loc 1 1477 0
 4408              		.cfi_startproc
 4409              		@ args = 0, pretend = 0, frame = 32
 4410              		@ frame_needed = 0, uses_anonymous_args = 0
 4411 0000 00B5     		push	{lr}
 4412              		.cfi_def_cfa_offset 4
 4413              		.cfi_offset 14, -4
 4414 0002 89B0     		sub	sp, sp, #36
 4415              		.cfi_def_cfa_offset 40
 4416 0004 0390     		str	r0, [sp, #12]
 4417 0006 0291     		str	r1, [sp, #8]
 4418 0008 0192     		str	r2, [sp, #4]
 4419              		.loc 1 1477 0
 4420 000a 154B     		ldr	r3, .L252
 4421 000c 1B68     		ldr	r3, [r3]
 4422 000e 0793     		str	r3, [sp, #28]
 4423              		.loc 1 1478 0
 4424 0010 0023     		movs	r3, #0
 4425 0012 8DF81730 		strb	r3, [sp, #23]
 4426              		.loc 1 1484 0
 4427 0016 029B     		ldr	r3, [sp, #8]
 4428 0018 DA68     		ldr	r2, [r3, #12]
 4429              		.loc 1 1483 0
 4430 001a 019B     		ldr	r3, [sp, #4]
 4431 001c 1A60     		str	r2, [r3]
 4432              		.loc 1 1486 0
 4433 001e 06AB     		add	r3, sp, #24
 4434 0020 1A46     		mov	r2, r3
 4435 0022 0299     		ldr	r1, [sp, #8]
 4436 0024 0398     		ldr	r0, [sp, #12]
 4437 0026 FFF7FEFF 		bl	VL53L0X_get_total_xtalk_rate
 4438 002a 0346     		mov	r3, r0
 4439 002c 8DF81730 		strb	r3, [sp, #23]
 4440              		.loc 1 1489 0
 4441 0030 9DF91730 		ldrsb	r3, [sp, #23]
 4442 0034 002B     		cmp	r3, #0
 4443 0036 05D1     		bne	.L249
 4444              		.loc 1 1490 0
 4445 0038 019B     		ldr	r3, [sp, #4]
 4446 003a 1A68     		ldr	r2, [r3]
ARM GAS  C:\Users\PCHAUT~1\AppData\Local\Temp\ccgoQRgJ.s 			page 79


 4447 003c 069B     		ldr	r3, [sp, #24]
 4448 003e 1A44     		add	r2, r2, r3
 4449 0040 019B     		ldr	r3, [sp, #4]
 4450 0042 1A60     		str	r2, [r3]
 4451              	.L249:
 4452              		.loc 1 1492 0
 4453 0044 9DF91730 		ldrsb	r3, [sp, #23]
 4454              		.loc 1 1493 0
 4455 0048 1846     		mov	r0, r3
 4456 004a 054B     		ldr	r3, .L252
 4457 004c 079A     		ldr	r2, [sp, #28]
 4458 004e 1B68     		ldr	r3, [r3]
 4459 0050 9A42     		cmp	r2, r3
 4460 0052 01D0     		beq	.L251
 4461 0054 FFF7FEFF 		bl	__stack_chk_fail
 4462              	.L251:
 4463 0058 09B0     		add	sp, sp, #36
 4464              		.cfi_def_cfa_offset 4
 4465              		@ sp needed
 4466 005a 5DF804FB 		ldr	pc, [sp], #4
 4467              	.L253:
 4468 005e 00BF     		.align	2
 4469              	.L252:
 4470 0060 00000000 		.word	__stack_chk_guard
 4471              		.cfi_endproc
 4472              	.LFE24:
 4473              		.size	VL53L0X_get_total_signal_rate, .-VL53L0X_get_total_signal_rate
 4474              		.section	.text.VL53L0X_calc_dmax,"ax",%progbits
 4475              		.align	1
 4476              		.p2align 4,,15
 4477              		.global	VL53L0X_calc_dmax
 4478              		.syntax unified
 4479              		.thumb
 4480              		.thumb_func
 4481              		.fpu fpv4-sp-d16
 4482              		.type	VL53L0X_calc_dmax, %function
 4483              	VL53L0X_calc_dmax:
 4484              	.LFB25:
 4485              		.loc 1 1504 0
 4486              		.cfi_startproc
 4487              		@ args = 16, pretend = 0, frame = 128
 4488              		@ frame_needed = 0, uses_anonymous_args = 0
 4489 0000 00B5     		push	{lr}
 4490              		.cfi_def_cfa_offset 4
 4491              		.cfi_offset 14, -4
 4492 0002 A1B0     		sub	sp, sp, #132
 4493              		.cfi_def_cfa_offset 136
 4494 0004 0790     		str	r0, [sp, #28]
 4495 0006 0691     		str	r1, [sp, #24]
 4496 0008 0592     		str	r2, [sp, #20]
 4497 000a 0493     		str	r3, [sp, #16]
 4498 000c 229B     		ldr	r3, [sp, #136]
 4499 000e 0393     		str	r3, [sp, #12]
 4500 0010 239B     		ldr	r3, [sp, #140]
 4501 0012 0293     		str	r3, [sp, #8]
 4502 0014 249B     		ldr	r3, [sp, #144]
 4503 0016 0193     		str	r3, [sp, #4]
ARM GAS  C:\Users\PCHAUT~1\AppData\Local\Temp\ccgoQRgJ.s 			page 80


 4504 0018 259B     		ldr	r3, [sp, #148]
 4505 001a 0093     		str	r3, [sp]
 4506              		.loc 1 1504 0
 4507 001c 8F4B     		ldr	r3, .L265
 4508 001e 1B68     		ldr	r3, [r3]
 4509 0020 1F93     		str	r3, [sp, #124]
 4510              		.loc 1 1505 0
 4511 0022 1223     		movs	r3, #18
 4512 0024 0E93     		str	r3, [sp, #56]
 4513              		.loc 1 1506 0
 4514 0026 4FF48043 		mov	r3, #16384
 4515 002a 0F93     		str	r3, [sp, #60]
 4516              		.loc 1 1507 0
 4517 002c 4223     		movs	r3, #66
 4518 002e 1093     		str	r3, [sp, #64]
 4519              		.loc 1 1508 0
 4520 0030 0623     		movs	r3, #6
 4521 0032 1193     		str	r3, [sp, #68]
 4522              		.loc 1 1509 0
 4523 0034 0723     		movs	r3, #7
 4524 0036 1293     		str	r3, [sp, #72]
 4525              		.loc 1 1527 0
 4526 0038 0023     		movs	r3, #0
 4527 003a 8DF82730 		strb	r3, [sp, #39]
 4528              		.loc 1 1532 0
 4529 003e 079B     		ldr	r3, [sp, #28]
 4530 0040 B3F85431 		ldrh	r3, [r3, #340]
 4531              		.loc 1 1531 0
 4532 0044 1393     		str	r3, [sp, #76]
 4533              		.loc 1 1534 0
 4534 0046 079B     		ldr	r3, [sp, #28]
 4535 0048 D3F85831 		ldr	r3, [r3, #344]
 4536 004c 1493     		str	r3, [sp, #80]
 4537              		.loc 1 1538 0
 4538 004e 139B     		ldr	r3, [sp, #76]
 4539 0050 149A     		ldr	r2, [sp, #80]
 4540 0052 02FB03F3 		mul	r3, r2, r3
 4541 0056 1593     		str	r3, [sp, #84]
 4542              		.loc 1 1541 0
 4543 0058 159B     		ldr	r3, [sp, #84]
 4544 005a 8033     		adds	r3, r3, #128
 4545 005c 1B0A     		lsrs	r3, r3, #8
 4546 005e 1593     		str	r3, [sp, #84]
 4547              		.loc 1 1542 0
 4548 0060 159B     		ldr	r3, [sp, #84]
 4549 0062 139A     		ldr	r2, [sp, #76]
 4550 0064 02FB03F3 		mul	r3, r2, r3
 4551 0068 1593     		str	r3, [sp, #84]
 4552              		.loc 1 1544 0
 4553 006a 0023     		movs	r3, #0
 4554 006c 0A93     		str	r3, [sp, #40]
 4555              		.loc 1 1545 0
 4556 006e 059B     		ldr	r3, [sp, #20]
 4557 0070 002B     		cmp	r3, #0
 4558 0072 1BD0     		beq	.L255
 4559              		.loc 1 1549 0
 4560 0074 069B     		ldr	r3, [sp, #24]
ARM GAS  C:\Users\PCHAUT~1\AppData\Local\Temp\ccgoQRgJ.s 			page 81


 4561 0076 9B02     		lsls	r3, r3, #10
 4562 0078 1693     		str	r3, [sp, #88]
 4563              		.loc 1 1553 0
 4564 007a 059B     		ldr	r3, [sp, #20]
 4565 007c 5B08     		lsrs	r3, r3, #1
 4566              		.loc 1 1552 0
 4567 007e 169A     		ldr	r2, [sp, #88]
 4568 0080 1344     		add	r3, r3, r2
 4569 0082 0A93     		str	r3, [sp, #40]
 4570              		.loc 1 1556 0
 4571 0084 0A9A     		ldr	r2, [sp, #40]
 4572 0086 059B     		ldr	r3, [sp, #20]
 4573 0088 B2FBF3F3 		udiv	r3, r2, r3
 4574 008c 0A93     		str	r3, [sp, #40]
 4575              		.loc 1 1560 0
 4576 008e 0A9A     		ldr	r2, [sp, #40]
 4577 0090 1346     		mov	r3, r2
 4578 0092 5B00     		lsls	r3, r3, #1
 4579 0094 1344     		add	r3, r3, r2
 4580 0096 0A93     		str	r3, [sp, #40]
 4581              		.loc 1 1563 0
 4582 0098 0A9B     		ldr	r3, [sp, #40]
 4583 009a 0A9A     		ldr	r2, [sp, #40]
 4584 009c 02FB03F3 		mul	r3, r2, r3
 4585 00a0 0A93     		str	r3, [sp, #40]
 4586              		.loc 1 1566 0
 4587 00a2 0A9B     		ldr	r3, [sp, #40]
 4588 00a4 03F50043 		add	r3, r3, #32768
 4589 00a8 1B0C     		lsrs	r3, r3, #16
 4590 00aa 0A93     		str	r3, [sp, #40]
 4591              	.L255:
 4592              		.loc 1 1569 0
 4593 00ac 049B     		ldr	r3, [sp, #16]
 4594 00ae 039A     		ldr	r2, [sp, #12]
 4595 00b0 02FB03F3 		mul	r3, r2, r3
 4596 00b4 1793     		str	r3, [sp, #92]
 4597              		.loc 1 1572 0
 4598 00b6 179B     		ldr	r3, [sp, #92]
 4599 00b8 03F50043 		add	r3, r3, #32768
 4600 00bc 1B0C     		lsrs	r3, r3, #16
 4601 00be 1793     		str	r3, [sp, #92]
 4602              		.loc 1 1575 0
 4603 00c0 179B     		ldr	r3, [sp, #92]
 4604 00c2 179A     		ldr	r2, [sp, #92]
 4605 00c4 02FB03F3 		mul	r3, r2, r3
 4606 00c8 1793     		str	r3, [sp, #92]
 4607              		.loc 1 1582 0
 4608 00ca 029B     		ldr	r3, [sp, #8]
 4609 00cc 03F50043 		add	r3, r3, #32768
 4610 00d0 1B0C     		lsrs	r3, r3, #16
 4611 00d2 1893     		str	r3, [sp, #96]
 4612              		.loc 1 1583 0
 4613 00d4 119B     		ldr	r3, [sp, #68]
 4614 00d6 5A08     		lsrs	r2, r3, #1
 4615 00d8 189B     		ldr	r3, [sp, #96]
 4616 00da 1A44     		add	r2, r2, r3
 4617 00dc 119B     		ldr	r3, [sp, #68]
ARM GAS  C:\Users\PCHAUT~1\AppData\Local\Temp\ccgoQRgJ.s 			page 82


 4618 00de B2FBF3F3 		udiv	r3, r2, r3
 4619 00e2 1893     		str	r3, [sp, #96]
 4620              		.loc 1 1585 0
 4621 00e4 189B     		ldr	r3, [sp, #96]
 4622 00e6 129A     		ldr	r2, [sp, #72]
 4623 00e8 02FB03F3 		mul	r3, r2, r3
 4624 00ec 1893     		str	r3, [sp, #96]
 4625              		.loc 1 1587 0
 4626 00ee 189B     		ldr	r3, [sp, #96]
 4627 00f0 B3F5803F 		cmp	r3, #65536
 4628 00f4 02D3     		bcc	.L256
 4629              		.loc 1 1588 0
 4630 00f6 5A4B     		ldr	r3, .L265+4
 4631 00f8 0B93     		str	r3, [sp, #44]
 4632 00fa 16E0     		b	.L257
 4633              	.L256:
 4634              		.loc 1 1595 0
 4635 00fc 119B     		ldr	r3, [sp, #68]
 4636 00fe 5A08     		lsrs	r2, r3, #1
 4637 0100 029B     		ldr	r3, [sp, #8]
 4638 0102 1A44     		add	r2, r2, r3
 4639 0104 119B     		ldr	r3, [sp, #68]
 4640 0106 B2FBF3F3 		udiv	r3, r2, r3
 4641 010a 0293     		str	r3, [sp, #8]
 4642              		.loc 1 1597 0
 4643 010c 029B     		ldr	r3, [sp, #8]
 4644 010e 129A     		ldr	r2, [sp, #72]
 4645 0110 02FB03F3 		mul	r3, r2, r3
 4646 0114 0293     		str	r3, [sp, #8]
 4647              		.loc 1 1600 0
 4648 0116 029B     		ldr	r3, [sp, #8]
 4649 0118 03F50043 		add	r3, r3, #32768
 4650 011c 1B0C     		lsrs	r3, r3, #16
 4651 011e 0B93     		str	r3, [sp, #44]
 4652              		.loc 1 1602 0
 4653 0120 0B9B     		ldr	r3, [sp, #44]
 4654 0122 0B9A     		ldr	r2, [sp, #44]
 4655 0124 02FB03F3 		mul	r3, r2, r3
 4656 0128 0B93     		str	r3, [sp, #44]
 4657              	.L257:
 4658              		.loc 1 1607 0
 4659 012a 0E9B     		ldr	r3, [sp, #56]
 4660 012c 9B03     		lsls	r3, r3, #14
 4661 012e 03F5FA73 		add	r3, r3, #500
 4662 0132 4C4A     		ldr	r2, .L265+8
 4663 0134 A2FB0323 		umull	r2, r3, r2, r3
 4664 0138 9B09     		lsrs	r3, r3, #6
 4665 013a 1993     		str	r3, [sp, #100]
 4666              		.loc 1 1610 0
 4667 013c 199B     		ldr	r3, [sp, #100]
 4668 013e 199A     		ldr	r2, [sp, #100]
 4669 0140 02FB03F3 		mul	r3, r2, r3
 4670 0144 1993     		str	r3, [sp, #100]
 4671              		.loc 1 1613 0
 4672 0146 109B     		ldr	r3, [sp, #64]
 4673 0148 109A     		ldr	r2, [sp, #64]
 4674 014a 02FB03F3 		mul	r3, r2, r3
ARM GAS  C:\Users\PCHAUT~1\AppData\Local\Temp\ccgoQRgJ.s 			page 83


 4675 014e 1A93     		str	r3, [sp, #104]
 4676              		.loc 1 1616 0
 4677 0150 1A9B     		ldr	r3, [sp, #104]
 4678 0152 0833     		adds	r3, r3, #8
 4679 0154 1B09     		lsrs	r3, r3, #4
 4680 0156 1A93     		str	r3, [sp, #104]
 4681              		.loc 1 1619 0
 4682 0158 199A     		ldr	r2, [sp, #100]
 4683 015a 1A9B     		ldr	r3, [sp, #104]
 4684 015c D31A     		subs	r3, r2, r3
 4685 015e 1993     		str	r3, [sp, #100]
 4686              		.loc 1 1622 0
 4687 0160 199A     		ldr	r2, [sp, #100]
 4688 0162 1346     		mov	r3, r2
 4689 0164 5B00     		lsls	r3, r3, #1
 4690 0166 1344     		add	r3, r3, r2
 4691 0168 1B01     		lsls	r3, r3, #4
 4692 016a 1B93     		str	r3, [sp, #108]
 4693              		.loc 1 1625 0
 4694 016c 1B9B     		ldr	r3, [sp, #108]
 4695 016e 03F50053 		add	r3, r3, #8192
 4696 0172 9B0B     		lsrs	r3, r3, #14
 4697 0174 1B93     		str	r3, [sp, #108]
 4698              		.loc 1 1628 0
 4699 0176 179A     		ldr	r2, [sp, #92]
 4700 0178 0B9B     		ldr	r3, [sp, #44]
 4701 017a 1344     		add	r3, r3, r2
 4702 017c 1C93     		str	r3, [sp, #112]
 4703              		.loc 1 1631 0
 4704 017e 019B     		ldr	r3, [sp, #4]
 4705 0180 5B08     		lsrs	r3, r3, #1
 4706 0182 1C9A     		ldr	r2, [sp, #112]
 4707 0184 1344     		add	r3, r3, r2
 4708 0186 1C93     		str	r3, [sp, #112]
 4709              		.loc 1 1632 0
 4710 0188 1C9A     		ldr	r2, [sp, #112]
 4711 018a 019B     		ldr	r3, [sp, #4]
 4712 018c B2FBF3F3 		udiv	r3, r2, r3
 4713 0190 1C93     		str	r3, [sp, #112]
 4714              		.loc 1 1635 0
 4715 0192 1C9B     		ldr	r3, [sp, #112]
 4716 0194 9B03     		lsls	r3, r3, #14
 4717 0196 1C93     		str	r3, [sp, #112]
 4718              		.loc 1 1638 0
 4719 0198 1B9B     		ldr	r3, [sp, #108]
 4720 019a 5B08     		lsrs	r3, r3, #1
 4721 019c 1C9A     		ldr	r2, [sp, #112]
 4722 019e 1344     		add	r3, r3, r2
 4723 01a0 1C93     		str	r3, [sp, #112]
 4724              		.loc 1 1639 0
 4725 01a2 1C9A     		ldr	r2, [sp, #112]
 4726 01a4 1B9B     		ldr	r3, [sp, #108]
 4727 01a6 B2FBF3F3 		udiv	r3, r2, r3
 4728 01aa 1C93     		str	r3, [sp, #112]
 4729              		.loc 1 1642 0
 4730 01ac 1C9B     		ldr	r3, [sp, #112]
 4731 01ae 0A9A     		ldr	r2, [sp, #40]
ARM GAS  C:\Users\PCHAUT~1\AppData\Local\Temp\ccgoQRgJ.s 			page 84


 4732 01b0 02FB03F3 		mul	r3, r2, r3
 4733 01b4 1C93     		str	r3, [sp, #112]
 4734              		.loc 1 1651 0
 4735 01b6 1C9B     		ldr	r3, [sp, #112]
 4736 01b8 03F5FA73 		add	r3, r3, #500
 4737 01bc 294A     		ldr	r2, .L265+8
 4738 01be A2FB0323 		umull	r2, r3, r2, r3
 4739 01c2 9B09     		lsrs	r3, r3, #6
 4740 01c4 1C93     		str	r3, [sp, #112]
 4741              		.loc 1 1652 0
 4742 01c6 1C9B     		ldr	r3, [sp, #112]
 4743 01c8 1B01     		lsls	r3, r3, #4
 4744 01ca 1C93     		str	r3, [sp, #112]
 4745              		.loc 1 1654 0
 4746 01cc 1C9B     		ldr	r3, [sp, #112]
 4747 01ce 03F5FA73 		add	r3, r3, #500
 4748 01d2 244A     		ldr	r2, .L265+8
 4749 01d4 A2FB0323 		umull	r2, r3, r2, r3
 4750 01d8 9B09     		lsrs	r3, r3, #6
 4751 01da 1C93     		str	r3, [sp, #112]
 4752              		.loc 1 1657 0
 4753 01dc 0F9B     		ldr	r3, [sp, #60]
 4754 01de 8033     		adds	r3, r3, #128
 4755 01e0 1B0A     		lsrs	r3, r3, #8
 4756 01e2 1D93     		str	r3, [sp, #116]
 4757              		.loc 1 1660 0
 4758 01e4 1D9B     		ldr	r3, [sp, #116]
 4759 01e6 002B     		cmp	r3, #0
 4760 01e8 08D0     		beq	.L258
 4761              		.loc 1 1661 0
 4762 01ea 1D9B     		ldr	r3, [sp, #116]
 4763 01ec 5A08     		lsrs	r2, r3, #1
 4764 01ee 159B     		ldr	r3, [sp, #84]
 4765 01f0 1A44     		add	r2, r2, r3
 4766 01f2 1D9B     		ldr	r3, [sp, #116]
 4767 01f4 B2FBF3F3 		udiv	r3, r2, r3
 4768 01f8 0D93     		str	r3, [sp, #52]
 4769 01fa 01E0     		b	.L259
 4770              	.L258:
 4771              		.loc 1 1664 0
 4772 01fc 0023     		movs	r3, #0
 4773 01fe 0D93     		str	r3, [sp, #52]
 4774              	.L259:
 4775              		.loc 1 1666 0
 4776 0200 0D98     		ldr	r0, [sp, #52]
 4777 0202 FFF7FEFF 		bl	VL53L0X_isqrt
 4778 0206 1E90     		str	r0, [sp, #120]
 4779              		.loc 1 1669 0
 4780 0208 1C9B     		ldr	r3, [sp, #112]
 4781 020a 002B     		cmp	r3, #0
 4782 020c 08D0     		beq	.L260
 4783              		.loc 1 1670 0
 4784 020e 1C9B     		ldr	r3, [sp, #112]
 4785 0210 5A08     		lsrs	r2, r3, #1
 4786 0212 159B     		ldr	r3, [sp, #84]
 4787 0214 1A44     		add	r2, r2, r3
 4788 0216 1C9B     		ldr	r3, [sp, #112]
ARM GAS  C:\Users\PCHAUT~1\AppData\Local\Temp\ccgoQRgJ.s 			page 85


 4789 0218 B2FBF3F3 		udiv	r3, r2, r3
 4790 021c 0C93     		str	r3, [sp, #48]
 4791 021e 01E0     		b	.L261
 4792              	.L260:
 4793              		.loc 1 1673 0
 4794 0220 0023     		movs	r3, #0
 4795 0222 0C93     		str	r3, [sp, #48]
 4796              	.L261:
 4797              		.loc 1 1675 0
 4798 0224 0C98     		ldr	r0, [sp, #48]
 4799 0226 FFF7FEFF 		bl	VL53L0X_isqrt
 4800 022a 0C90     		str	r0, [sp, #48]
 4801              		.loc 1 1677 0
 4802 022c 009B     		ldr	r3, [sp]
 4803 022e 1E9A     		ldr	r2, [sp, #120]
 4804 0230 1A60     		str	r2, [r3]
 4805              		.loc 1 1678 0
 4806 0232 1E9A     		ldr	r2, [sp, #120]
 4807 0234 0C9B     		ldr	r3, [sp, #48]
 4808 0236 9A42     		cmp	r2, r3
 4809 0238 02D9     		bls	.L262
 4810              		.loc 1 1679 0
 4811 023a 009B     		ldr	r3, [sp]
 4812 023c 0C9A     		ldr	r2, [sp, #48]
 4813 023e 1A60     		str	r2, [r3]
 4814              	.L262:
 4815              		.loc 1 1683 0
 4816 0240 9DF92730 		ldrsb	r3, [sp, #39]
 4817              		.loc 1 1684 0
 4818 0244 1846     		mov	r0, r3
 4819 0246 054B     		ldr	r3, .L265
 4820 0248 1F9A     		ldr	r2, [sp, #124]
 4821 024a 1B68     		ldr	r3, [r3]
 4822 024c 9A42     		cmp	r2, r3
 4823 024e 01D0     		beq	.L264
 4824 0250 FFF7FEFF 		bl	__stack_chk_fail
 4825              	.L264:
 4826 0254 21B0     		add	sp, sp, #132
 4827              		.cfi_def_cfa_offset 4
 4828              		@ sp needed
 4829 0256 5DF804FB 		ldr	pc, [sp], #4
 4830              	.L266:
 4831 025a 00BF     		.align	2
 4832              	.L265:
 4833 025c 00000000 		.word	__stack_chk_guard
 4834 0260 0000F0FF 		.word	-1048576
 4835 0264 D34D6210 		.word	274877907
 4836              		.cfi_endproc
 4837              	.LFE25:
 4838              		.size	VL53L0X_calc_dmax, .-VL53L0X_calc_dmax
 4839              		.section	.text.VL53L0X_calc_sigma_estimate,"ax",%progbits
 4840              		.align	1
 4841              		.p2align 4,,15
 4842              		.global	VL53L0X_calc_sigma_estimate
 4843              		.syntax unified
 4844              		.thumb
 4845              		.thumb_func
ARM GAS  C:\Users\PCHAUT~1\AppData\Local\Temp\ccgoQRgJ.s 			page 86


 4846              		.fpu fpv4-sp-d16
 4847              		.type	VL53L0X_calc_sigma_estimate, %function
 4848              	VL53L0X_calc_sigma_estimate:
 4849              	.LFB26:
 4850              		.loc 1 1691 0
 4851              		.cfi_startproc
 4852              		@ args = 0, pretend = 0, frame = 192
 4853              		@ frame_needed = 0, uses_anonymous_args = 0
 4854 0000 00B5     		push	{lr}
 4855              		.cfi_def_cfa_offset 4
 4856              		.cfi_offset 14, -4
 4857 0002 B5B0     		sub	sp, sp, #212
 4858              		.cfi_def_cfa_offset 216
 4859 0004 0790     		str	r0, [sp, #28]
 4860 0006 0691     		str	r1, [sp, #24]
 4861 0008 0592     		str	r2, [sp, #20]
 4862 000a 0493     		str	r3, [sp, #16]
 4863              		.loc 1 1691 0
 4864 000c 914B     		ldr	r3, .L284
 4865 000e 1B68     		ldr	r3, [r3]
 4866 0010 3393     		str	r3, [sp, #204]
 4867              		.loc 1 1693 0
 4868 0012 4FF44873 		mov	r3, #800
 4869 0016 1693     		str	r3, [sp, #88]
 4870              		.loc 1 1695 0
 4871 0018 4FF41673 		mov	r3, #600
 4872 001c 1793     		str	r3, [sp, #92]
 4873              		.loc 1 1696 0
 4874 001e 4FF4C813 		mov	r3, #1638400
 4875 0022 1893     		str	r3, [sp, #96]
 4876              		.loc 1 1697 0
 4877 0024 41F25C23 		movw	r3, #4700
 4878 0028 1993     		str	r3, [sp, #100]
 4879              		.loc 1 1698 0
 4880 002a 8B4B     		ldr	r3, .L284+4
 4881 002c 1A93     		str	r3, [sp, #104]
 4882              		.loc 1 1699 0
 4883 002e 4FF47043 		mov	r3, #61440
 4884 0032 1B93     		str	r3, [sp, #108]
 4885              		.loc 1 1700 0
 4886 0034 4FF07042 		mov	r2, #-268435456
 4887 0038 179B     		ldr	r3, [sp, #92]
 4888 003a B2FBF3F3 		udiv	r3, r2, r3
 4889 003e 1C93     		str	r3, [sp, #112]
 4890              		.loc 1 1703 0
 4891 0040 864B     		ldr	r3, .L284+8
 4892 0042 1D93     		str	r3, [sp, #116]
 4893              		.loc 1 1704 0
 4894 0044 4FF40043 		mov	r3, #32768
 4895 0048 1E93     		str	r3, [sp, #120]
 4896              		.loc 1 1705 0
 4897 004a 4FF44813 		mov	r3, #3276800
 4898 004e 1F93     		str	r3, [sp, #124]
 4899              		.loc 1 1706 0
 4900 0050 40F27763 		movw	r3, #1655
 4901 0054 2093     		str	r3, [sp, #128]
 4902              		.loc 1 1724 0
ARM GAS  C:\Users\PCHAUT~1\AppData\Local\Temp\ccgoQRgJ.s 			page 87


 4903 0056 0023     		movs	r3, #0
 4904 0058 8DF82530 		strb	r3, [sp, #37]
 4905              		.loc 1 1749 0
 4906 005c 079B     		ldr	r3, [sp, #28]
 4907 005e 1B6A     		ldr	r3, [r3, #32]
 4908 0060 0A93     		str	r3, [sp, #40]
 4909              		.loc 1 1758 0
 4910 0062 069B     		ldr	r3, [sp, #24]
 4911 0064 1B69     		ldr	r3, [r3, #16]
 4912 0066 4FF47A72 		mov	r2, #1000
 4913 006a 02FB03F3 		mul	r3, r2, r3
 4914              		.loc 1 1757 0
 4915 006e 1B0C     		lsrs	r3, r3, #16
 4916 0070 2193     		str	r3, [sp, #132]
 4917              		.loc 1 1760 0
 4918 0072 069B     		ldr	r3, [sp, #24]
 4919 0074 DB68     		ldr	r3, [r3, #12]
 4920 0076 2293     		str	r3, [sp, #136]
 4921              		.loc 1 1764 0
 4922 0078 0BAB     		add	r3, sp, #44
 4923 007a 1A46     		mov	r2, r3
 4924 007c 0699     		ldr	r1, [sp, #24]
 4925 007e 0798     		ldr	r0, [sp, #28]
 4926 0080 FFF7FEFF 		bl	VL53L0X_get_total_signal_rate
 4927 0084 0346     		mov	r3, r0
 4928 0086 8DF82530 		strb	r3, [sp, #37]
 4929              		.loc 1 1766 0
 4930 008a 0AAB     		add	r3, sp, #40
 4931 008c 1A46     		mov	r2, r3
 4932 008e 0699     		ldr	r1, [sp, #24]
 4933 0090 0798     		ldr	r0, [sp, #28]
 4934 0092 FFF7FEFF 		bl	VL53L0X_get_total_xtalk_rate
 4935 0096 0346     		mov	r3, r0
 4936 0098 8DF82530 		strb	r3, [sp, #37]
 4937              		.loc 1 1773 0
 4938 009c 0B9B     		ldr	r3, [sp, #44]
 4939 009e 4FF47A72 		mov	r2, #1000
 4940 00a2 02FB03F3 		mul	r3, r2, r3
 4941 00a6 2393     		str	r3, [sp, #140]
 4942              		.loc 1 1774 0
 4943 00a8 239B     		ldr	r3, [sp, #140]
 4944 00aa 03F50043 		add	r3, r3, #32768
 4945 00ae 1B0C     		lsrs	r3, r3, #16
 4946 00b0 2393     		str	r3, [sp, #140]
 4947              		.loc 1 1776 0
 4948 00b2 0A9B     		ldr	r3, [sp, #40]
 4949 00b4 4FF47A72 		mov	r2, #1000
 4950 00b8 02FB03F3 		mul	r3, r2, r3
 4951 00bc 1393     		str	r3, [sp, #76]
 4952              		.loc 1 1778 0
 4953 00be 139A     		ldr	r2, [sp, #76]
 4954 00c0 1F9B     		ldr	r3, [sp, #124]
 4955 00c2 9A42     		cmp	r2, r3
 4956 00c4 01D9     		bls	.L268
 4957              		.loc 1 1779 0
 4958 00c6 1F9B     		ldr	r3, [sp, #124]
 4959 00c8 1393     		str	r3, [sp, #76]
ARM GAS  C:\Users\PCHAUT~1\AppData\Local\Temp\ccgoQRgJ.s 			page 88


 4960              	.L268:
 4961              		.loc 1 1781 0
 4962 00ca 9DF92530 		ldrsb	r3, [sp, #37]
 4963 00ce 002B     		cmp	r3, #0
 4964 00d0 56D1     		bne	.L269
 4965              		.loc 1 1784 0
 4966 00d2 079B     		ldr	r3, [sp, #28]
 4967 00d4 D3F8DC30 		ldr	r3, [r3, #220]
 4968 00d8 0D93     		str	r3, [sp, #52]
 4969              		.loc 1 1787 0
 4970 00da 079B     		ldr	r3, [sp, #28]
 4971 00dc 93F8E030 		ldrb	r3, [r3, #224]
 4972 00e0 8DF82630 		strb	r3, [sp, #38]
 4973              		.loc 1 1790 0
 4974 00e4 9DF82630 		ldrb	r3, [sp, #38]	@ zero_extendqisi2
 4975 00e8 1A46     		mov	r2, r3
 4976 00ea 0D99     		ldr	r1, [sp, #52]
 4977 00ec 0798     		ldr	r0, [sp, #28]
 4978 00ee FFF7FEFF 		bl	VL53L0X_calc_timeout_mclks
 4979 00f2 2490     		str	r0, [sp, #144]
 4980              		.loc 1 1794 0
 4981 00f4 079B     		ldr	r3, [sp, #28]
 4982 00f6 D3F8E430 		ldr	r3, [r3, #228]
 4983 00fa 0E93     		str	r3, [sp, #56]
 4984              		.loc 1 1797 0
 4985 00fc 079B     		ldr	r3, [sp, #28]
 4986 00fe 93F8E830 		ldrb	r3, [r3, #232]
 4987 0102 8DF82730 		strb	r3, [sp, #39]
 4988              		.loc 1 1800 0
 4989 0106 9DF82730 		ldrb	r3, [sp, #39]	@ zero_extendqisi2
 4990 010a 1A46     		mov	r2, r3
 4991 010c 0E99     		ldr	r1, [sp, #56]
 4992 010e 0798     		ldr	r0, [sp, #28]
 4993 0110 FFF7FEFF 		bl	VL53L0X_calc_timeout_mclks
 4994 0114 2590     		str	r0, [sp, #148]
 4995              		.loc 1 1803 0
 4996 0116 0323     		movs	r3, #3
 4997 0118 1493     		str	r3, [sp, #80]
 4998              		.loc 1 1804 0
 4999 011a 9DF82630 		ldrb	r3, [sp, #38]	@ zero_extendqisi2
 5000 011e 082B     		cmp	r3, #8
 5001 0120 01D1     		bne	.L270
 5002              		.loc 1 1805 0
 5003 0122 0223     		movs	r3, #2
 5004 0124 1493     		str	r3, [sp, #80]
 5005              	.L270:
 5006              		.loc 1 1809 0
 5007 0126 259A     		ldr	r2, [sp, #148]
 5008 0128 249B     		ldr	r3, [sp, #144]
 5009 012a 1344     		add	r3, r3, r2
 5010              		.loc 1 1808 0
 5011 012c 149A     		ldr	r2, [sp, #80]
 5012 012e 02FB03F3 		mul	r3, r2, r3
 5013 0132 DB02     		lsls	r3, r3, #11
 5014 0134 1593     		str	r3, [sp, #84]
 5015              		.loc 1 1810 0
 5016 0136 159B     		ldr	r3, [sp, #84]
ARM GAS  C:\Users\PCHAUT~1\AppData\Local\Temp\ccgoQRgJ.s 			page 89


 5017 0138 03F5FA73 		add	r3, r3, #500
 5018 013c 484A     		ldr	r2, .L284+12
 5019 013e A2FB0323 		umull	r2, r3, r2, r3
 5020 0142 9B09     		lsrs	r3, r3, #6
 5021 0144 1593     		str	r3, [sp, #84]
 5022              		.loc 1 1811 0
 5023 0146 159B     		ldr	r3, [sp, #84]
 5024 0148 209A     		ldr	r2, [sp, #128]
 5025 014a 02FB03F3 		mul	r3, r2, r3
 5026 014e 1593     		str	r3, [sp, #84]
 5027              		.loc 1 1812 0
 5028 0150 159B     		ldr	r3, [sp, #84]
 5029 0152 03F5FA73 		add	r3, r3, #500
 5030 0156 424A     		ldr	r2, .L284+12
 5031 0158 A2FB0323 		umull	r2, r3, r2, r3
 5032 015c 9B09     		lsrs	r3, r3, #6
 5033 015e 1593     		str	r3, [sp, #84]
 5034              		.loc 1 1815 0
 5035 0160 0B9B     		ldr	r3, [sp, #44]
 5036 0162 8033     		adds	r3, r3, #128
 5037 0164 1B0A     		lsrs	r3, r3, #8
 5038 0166 0B93     		str	r3, [sp, #44]
 5039              		.loc 1 1818 0
 5040 0168 0B9A     		ldr	r2, [sp, #44]
 5041 016a 159B     		ldr	r3, [sp, #84]
 5042 016c 02FB03F3 		mul	r3, r2, r3
 5043 0170 0C93     		str	r3, [sp, #48]
 5044              		.loc 1 1822 0
 5045 0172 0C9B     		ldr	r3, [sp, #48]
 5046 0174 8033     		adds	r3, r3, #128
 5047 0176 1B0A     		lsrs	r3, r3, #8
 5048 0178 0C93     		str	r3, [sp, #48]
 5049              		.loc 1 1825 0
 5050 017a 0B9B     		ldr	r3, [sp, #44]
 5051 017c 1B02     		lsls	r3, r3, #8
 5052 017e 0B93     		str	r3, [sp, #44]
 5053              	.L269:
 5054              		.loc 1 1828 0
 5055 0180 9DF92530 		ldrsb	r3, [sp, #37]
 5056 0184 002B     		cmp	r3, #0
 5057 0186 02D0     		beq	.L271
 5058              		.loc 1 1830 0
 5059 0188 9DF92530 		ldrsb	r3, [sp, #37]
 5060 018c 2FE1     		b	.L282
 5061              	.L271:
 5062              		.loc 1 1833 0
 5063 018e 239B     		ldr	r3, [sp, #140]
 5064 0190 002B     		cmp	r3, #0
 5065 0192 0AD1     		bne	.L273
 5066              		.loc 1 1834 0
 5067 0194 059B     		ldr	r3, [sp, #20]
 5068 0196 1A9A     		ldr	r2, [sp, #104]
 5069 0198 1A60     		str	r2, [r3]
 5070              		.loc 1 1835 0
 5071 019a 079B     		ldr	r3, [sp, #28]
 5072 019c 1A9A     		ldr	r2, [sp, #104]
 5073 019e C3F84021 		str	r2, [r3, #320]
ARM GAS  C:\Users\PCHAUT~1\AppData\Local\Temp\ccgoQRgJ.s 			page 90


 5074              		.loc 1 1836 0
 5075 01a2 049B     		ldr	r3, [sp, #16]
 5076 01a4 0022     		movs	r2, #0
 5077 01a6 1A60     		str	r2, [r3]
 5078 01a8 1FE1     		b	.L274
 5079              	.L273:
 5080              		.loc 1 1838 0
 5081 01aa 0C9B     		ldr	r3, [sp, #48]
 5082 01ac 002B     		cmp	r3, #0
 5083 01ae 01D1     		bne	.L275
 5084              		.loc 1 1839 0
 5085 01b0 0123     		movs	r3, #1
 5086 01b2 0C93     		str	r3, [sp, #48]
 5087              	.L275:
 5088              		.loc 1 1841 0
 5089 01b4 169B     		ldr	r3, [sp, #88]
 5090 01b6 2693     		str	r3, [sp, #152]
 5091              		.loc 1 1844 0
 5092 01b8 219B     		ldr	r3, [sp, #132]
 5093 01ba 1A04     		lsls	r2, r3, #16
 5094 01bc 239B     		ldr	r3, [sp, #140]
 5095 01be B2FBF3F3 		udiv	r3, r2, r3
 5096 01c2 0F93     		str	r3, [sp, #60]
 5097              		.loc 1 1845 0
 5098 01c4 0F9A     		ldr	r2, [sp, #60]
 5099 01c6 1C9B     		ldr	r3, [sp, #112]
 5100 01c8 9A42     		cmp	r2, r3
 5101 01ca 01D9     		bls	.L276
 5102              		.loc 1 1848 0
 5103 01cc 1C9B     		ldr	r3, [sp, #112]
 5104 01ce 0F93     		str	r3, [sp, #60]
 5105              	.L276:
 5106              		.loc 1 1850 0
 5107 01d0 0F9B     		ldr	r3, [sp, #60]
 5108 01d2 179A     		ldr	r2, [sp, #92]
 5109 01d4 02FB03F3 		mul	r3, r2, r3
 5110 01d8 0F93     		str	r3, [sp, #60]
 5111              		.loc 1 1852 0
 5112 01da 0C9A     		ldr	r2, [sp, #48]
 5113 01dc 1346     		mov	r3, r2
 5114 01de 5B00     		lsls	r3, r3, #1
 5115 01e0 1344     		add	r3, r3, r2
 5116 01e2 9B00     		lsls	r3, r3, #2
 5117 01e4 1846     		mov	r0, r3
 5118 01e6 FFF7FEFF 		bl	VL53L0X_isqrt
 5119 01ea 0346     		mov	r3, r0
 5120 01ec 5B00     		lsls	r3, r3, #1
 5121 01ee 2793     		str	r3, [sp, #156]
 5122              		.loc 1 1855 0
 5123 01f0 069B     		ldr	r3, [sp, #24]
 5124 01f2 1B89     		ldrh	r3, [r3, #8]
 5125 01f4 1A46     		mov	r2, r3
 5126 01f6 1D9B     		ldr	r3, [sp, #116]
 5127 01f8 02FB03F3 		mul	r3, r2, r3
 5128 01fc 2893     		str	r3, [sp, #160]
 5129              		.loc 1 1865 0
 5130 01fe 239B     		ldr	r3, [sp, #140]
ARM GAS  C:\Users\PCHAUT~1\AppData\Local\Temp\ccgoQRgJ.s 			page 91


 5131 0200 1A04     		lsls	r2, r3, #16
 5132              		.loc 1 1866 0
 5133 0202 139B     		ldr	r3, [sp, #76]
 5134 0204 5B00     		lsls	r3, r3, #1
 5135              		.loc 1 1865 0
 5136 0206 D31A     		subs	r3, r2, r3
 5137              		.loc 1 1866 0
 5138 0208 03F5FA73 		add	r3, r3, #500
 5139              		.loc 1 1865 0
 5140 020c 144A     		ldr	r2, .L284+12
 5141 020e A2FB0323 		umull	r2, r3, r2, r3
 5142 0212 9B09     		lsrs	r3, r3, #6
 5143 0214 2993     		str	r3, [sp, #164]
 5144              		.loc 1 1869 0
 5145 0216 239B     		ldr	r3, [sp, #140]
 5146 0218 1B04     		lsls	r3, r3, #16
 5147 021a 03F5FA73 		add	r3, r3, #500
 5148 021e 104A     		ldr	r2, .L284+12
 5149 0220 A2FB0323 		umull	r2, r3, r2, r3
 5150 0224 9B09     		lsrs	r3, r3, #6
 5151 0226 2A93     		str	r3, [sp, #168]
 5152              		.loc 1 1873 0
 5153 0228 299B     		ldr	r3, [sp, #164]
 5154 022a 1B02     		lsls	r3, r3, #8
 5155 022c 2993     		str	r3, [sp, #164]
 5156              		.loc 1 1876 0
 5157 022e 299A     		ldr	r2, [sp, #164]
 5158 0230 2A9B     		ldr	r3, [sp, #168]
 5159 0232 B2FBF3F3 		udiv	r3, r2, r3
 5160 0236 002B     		cmp	r3, #0
 5161 0238 B8BF     		it	lt
 5162 023a 5B42     		rsblt	r3, r3, #0
 5163 023c 2B93     		str	r3, [sp, #172]
 5164              		.loc 1 1879 0
 5165 023e 2B9B     		ldr	r3, [sp, #172]
 5166 0240 1B02     		lsls	r3, r3, #8
 5167 0242 2B93     		str	r3, [sp, #172]
 5168              		.loc 1 1881 0
 5169 0244 069B     		ldr	r3, [sp, #24]
 5170 0246 1B7E     		ldrb	r3, [r3, #24]	@ zero_extendqisi2
 5171 0248 002B     		cmp	r3, #0
 5172 024a 0BD0     		beq	.L277
 5173              		.loc 1 1882 0
 5174 024c 4FF48033 		mov	r3, #65536
 5175 0250 1093     		str	r3, [sp, #64]
 5176 0252 27E0     		b	.L278
 5177              	.L285:
 5178              		.align	2
 5179              	.L284:
 5180 0254 00000000 		.word	__stack_chk_guard
 5181 0258 AE878F02 		.word	42960814
 5182 025c 9A990600 		.word	432538
 5183 0260 D34D6210 		.word	274877907
 5184              	.L277:
 5185              		.loc 1 1885 0
 5186 0264 289A     		ldr	r2, [sp, #160]
 5187 0266 199B     		ldr	r3, [sp, #100]
ARM GAS  C:\Users\PCHAUT~1\AppData\Local\Temp\ccgoQRgJ.s 			page 92


 5188 0268 B2FBF3F3 		udiv	r3, r2, r3
 5189 026c 1093     		str	r3, [sp, #64]
 5190              		.loc 1 1892 0
 5191 026e 2B9B     		ldr	r3, [sp, #172]
 5192 0270 C3F58032 		rsb	r2, r3, #65536
 5193 0274 109B     		ldr	r3, [sp, #64]
 5194 0276 02FB03F3 		mul	r3, r2, r3
 5195 027a 1093     		str	r3, [sp, #64]
 5196              		.loc 1 1895 0
 5197 027c 109A     		ldr	r2, [sp, #64]
 5198 027e 1E9B     		ldr	r3, [sp, #120]
 5199 0280 1344     		add	r3, r3, r2
 5200 0282 1B0C     		lsrs	r3, r3, #16
 5201 0284 1093     		str	r3, [sp, #64]
 5202              		.loc 1 1898 0
 5203 0286 109B     		ldr	r3, [sp, #64]
 5204 0288 03F58033 		add	r3, r3, #65536
 5205 028c 1093     		str	r3, [sp, #64]
 5206              		.loc 1 1905 0
 5207 028e 109B     		ldr	r3, [sp, #64]
 5208 0290 5B08     		lsrs	r3, r3, #1
 5209 0292 1093     		str	r3, [sp, #64]
 5210              		.loc 1 1907 0
 5211 0294 109B     		ldr	r3, [sp, #64]
 5212 0296 109A     		ldr	r2, [sp, #64]
 5213 0298 02FB03F3 		mul	r3, r2, r3
 5214 029c 1093     		str	r3, [sp, #64]
 5215              		.loc 1 1910 0
 5216 029e 109B     		ldr	r3, [sp, #64]
 5217 02a0 9B0B     		lsrs	r3, r3, #14
 5218 02a2 1093     		str	r3, [sp, #64]
 5219              	.L278:
 5220              		.loc 1 1914 0
 5221 02a4 109B     		ldr	r3, [sp, #64]
 5222 02a6 269A     		ldr	r2, [sp, #152]
 5223 02a8 02FB03F3 		mul	r3, r2, r3
 5224 02ac 2C93     		str	r3, [sp, #176]
 5225              		.loc 1 1917 0
 5226 02ae 2C9B     		ldr	r3, [sp, #176]
 5227 02b0 03F50043 		add	r3, r3, #32768
 5228 02b4 1B0C     		lsrs	r3, r3, #16
 5229 02b6 2C93     		str	r3, [sp, #176]
 5230              		.loc 1 1920 0
 5231 02b8 2C9B     		ldr	r3, [sp, #176]
 5232 02ba 2C9A     		ldr	r2, [sp, #176]
 5233 02bc 02FB03F3 		mul	r3, r2, r3
 5234 02c0 2C93     		str	r3, [sp, #176]
 5235              		.loc 1 1922 0
 5236 02c2 0F9B     		ldr	r3, [sp, #60]
 5237 02c4 2D93     		str	r3, [sp, #180]
 5238              		.loc 1 1925 0
 5239 02c6 2D9B     		ldr	r3, [sp, #180]
 5240 02c8 03F50043 		add	r3, r3, #32768
 5241 02cc 1B0C     		lsrs	r3, r3, #16
 5242 02ce 2D93     		str	r3, [sp, #180]
 5243              		.loc 1 1928 0
 5244 02d0 2D9B     		ldr	r3, [sp, #180]
ARM GAS  C:\Users\PCHAUT~1\AppData\Local\Temp\ccgoQRgJ.s 			page 93


 5245 02d2 2D9A     		ldr	r2, [sp, #180]
 5246 02d4 02FB03F3 		mul	r3, r2, r3
 5247 02d8 2D93     		str	r3, [sp, #180]
 5248              		.loc 1 1931 0
 5249 02da 2C9A     		ldr	r2, [sp, #176]
 5250 02dc 2D9B     		ldr	r3, [sp, #180]
 5251 02de 1344     		add	r3, r3, r2
 5252 02e0 2E93     		str	r3, [sp, #184]
 5253              		.loc 1 1934 0
 5254 02e2 2E98     		ldr	r0, [sp, #184]
 5255 02e4 FFF7FEFF 		bl	VL53L0X_isqrt
 5256 02e8 2F90     		str	r0, [sp, #188]
 5257              		.loc 1 1937 0
 5258 02ea 2F9B     		ldr	r3, [sp, #188]
 5259 02ec 1B04     		lsls	r3, r3, #16
 5260 02ee 2F93     		str	r3, [sp, #188]
 5261              		.loc 1 1944 0
 5262 02f0 2F9B     		ldr	r3, [sp, #188]
 5263 02f2 3233     		adds	r3, r3, #50
 5264 02f4 434A     		ldr	r2, .L286
 5265 02f6 A2FB0323 		umull	r2, r3, r2, r3
 5266 02fa 5A09     		lsrs	r2, r3, #5
 5267 02fc 279B     		ldr	r3, [sp, #156]
 5268 02fe B2FBF3F3 		udiv	r3, r2, r3
 5269 0302 1193     		str	r3, [sp, #68]
 5270              		.loc 1 1946 0
 5271 0304 119B     		ldr	r3, [sp, #68]
 5272 0306 40F6B532 		movw	r2, #2997
 5273 030a 02FB03F3 		mul	r3, r2, r3
 5274 030e 1193     		str	r3, [sp, #68]
 5275              		.loc 1 1949 0
 5276 0310 119B     		ldr	r3, [sp, #68]
 5277 0312 03F59C53 		add	r3, r3, #4992
 5278 0316 0833     		adds	r3, r3, #8
 5279 0318 1193     		str	r3, [sp, #68]
 5280              		.loc 1 1950 0
 5281 031a 119B     		ldr	r3, [sp, #68]
 5282 031c 3A4A     		ldr	r2, .L286+4
 5283 031e A2FB0323 		umull	r2, r3, r2, r3
 5284 0322 5B0B     		lsrs	r3, r3, #13
 5285 0324 1193     		str	r3, [sp, #68]
 5286              		.loc 1 1952 0
 5287 0326 119A     		ldr	r2, [sp, #68]
 5288 0328 1B9B     		ldr	r3, [sp, #108]
 5289 032a 9A42     		cmp	r2, r3
 5290 032c 01D9     		bls	.L279
 5291              		.loc 1 1955 0
 5292 032e 1B9B     		ldr	r3, [sp, #108]
 5293 0330 1193     		str	r3, [sp, #68]
 5294              	.L279:
 5295              		.loc 1 1958 0
 5296 0332 0D9A     		ldr	r2, [sp, #52]
 5297 0334 0E9B     		ldr	r3, [sp, #56]
 5298 0336 1344     		add	r3, r3, r2
 5299 0338 03F5FA73 		add	r3, r3, #500
 5300              		.loc 1 1957 0
 5301 033c 334A     		ldr	r2, .L286+8
ARM GAS  C:\Users\PCHAUT~1\AppData\Local\Temp\ccgoQRgJ.s 			page 94


 5302 033e A2FB0323 		umull	r2, r3, r2, r3
 5303 0342 9B09     		lsrs	r3, r3, #6
 5304 0344 3093     		str	r3, [sp, #192]
 5305              		.loc 1 1965 0
 5306 0346 309B     		ldr	r3, [sp, #192]
 5307 0348 5A08     		lsrs	r2, r3, #1
 5308              		.loc 1 1964 0
 5309 034a 189B     		ldr	r3, [sp, #96]
 5310 034c 1A44     		add	r2, r2, r3
 5311 034e 309B     		ldr	r3, [sp, #192]
 5312 0350 B2FBF3F3 		udiv	r3, r2, r3
 5313              		.loc 1 1963 0
 5314 0354 1846     		mov	r0, r3
 5315 0356 FFF7FEFF 		bl	VL53L0X_isqrt
 5316 035a 3190     		str	r0, [sp, #196]
 5317              		.loc 1 1969 0
 5318 035c 319B     		ldr	r3, [sp, #196]
 5319 035e 1B02     		lsls	r3, r3, #8
 5320 0360 3193     		str	r3, [sp, #196]
 5321              		.loc 1 1970 0
 5322 0362 319B     		ldr	r3, [sp, #196]
 5323 0364 03F5FA73 		add	r3, r3, #500
 5324 0368 284A     		ldr	r2, .L286+8
 5325 036a A2FB0323 		umull	r2, r3, r2, r3
 5326 036e 9B09     		lsrs	r3, r3, #6
 5327 0370 3193     		str	r3, [sp, #196]
 5328              		.loc 1 1973 0
 5329 0372 119B     		ldr	r3, [sp, #68]
 5330 0374 119A     		ldr	r2, [sp, #68]
 5331 0376 02FB03F3 		mul	r3, r2, r3
 5332 037a 2C93     		str	r3, [sp, #176]
 5333              		.loc 1 1975 0
 5334 037c 319B     		ldr	r3, [sp, #196]
 5335 037e 319A     		ldr	r2, [sp, #196]
 5336 0380 02FB03F3 		mul	r3, r2, r3
 5337 0384 2D93     		str	r3, [sp, #180]
 5338              		.loc 1 1978 0
 5339 0386 2C9A     		ldr	r2, [sp, #176]
 5340 0388 2D9B     		ldr	r3, [sp, #180]
 5341 038a 1344     		add	r3, r3, r2
 5342 038c 1846     		mov	r0, r3
 5343 038e FFF7FEFF 		bl	VL53L0X_isqrt
 5344 0392 3290     		str	r0, [sp, #200]
 5345              		.loc 1 1985 0
 5346 0394 329B     		ldr	r3, [sp, #200]
 5347 0396 4FF47A72 		mov	r2, #1000
 5348 039a 02FB03F3 		mul	r3, r2, r3
 5349 039e 1293     		str	r3, [sp, #72]
 5350              		.loc 1 1987 0
 5351 03a0 239B     		ldr	r3, [sp, #140]
 5352 03a2 002B     		cmp	r3, #0
 5353 03a4 06D0     		beq	.L280
 5354              		.loc 1 1987 0 is_stmt 0 discriminator 1
 5355 03a6 0C9B     		ldr	r3, [sp, #48]
 5356 03a8 002B     		cmp	r3, #0
 5357 03aa 03D0     		beq	.L280
 5358              		.loc 1 1987 0 discriminator 2
ARM GAS  C:\Users\PCHAUT~1\AppData\Local\Temp\ccgoQRgJ.s 			page 95


 5359 03ac 129A     		ldr	r2, [sp, #72]
 5360 03ae 1A9B     		ldr	r3, [sp, #104]
 5361 03b0 9A42     		cmp	r2, r3
 5362 03b2 01D9     		bls	.L281
 5363              	.L280:
 5364              		.loc 1 1989 0 is_stmt 1
 5365 03b4 1A9B     		ldr	r3, [sp, #104]
 5366 03b6 1293     		str	r3, [sp, #72]
 5367              	.L281:
 5368              		.loc 1 1992 0
 5369 03b8 059B     		ldr	r3, [sp, #20]
 5370 03ba 129A     		ldr	r2, [sp, #72]
 5371 03bc 1A60     		str	r2, [r3]
 5372              		.loc 1 1993 0
 5373 03be 059B     		ldr	r3, [sp, #20]
 5374 03c0 1A68     		ldr	r2, [r3]
 5375 03c2 079B     		ldr	r3, [sp, #28]
 5376 03c4 C3F84021 		str	r2, [r3, #320]
 5377              		.loc 1 1994 0
 5378 03c8 0B99     		ldr	r1, [sp, #44]
 5379 03ca 049B     		ldr	r3, [sp, #16]
 5380 03cc 0393     		str	r3, [sp, #12]
 5381 03ce 159B     		ldr	r3, [sp, #84]
 5382 03d0 0293     		str	r3, [sp, #8]
 5383 03d2 0F9B     		ldr	r3, [sp, #60]
 5384 03d4 0193     		str	r3, [sp, #4]
 5385 03d6 269B     		ldr	r3, [sp, #152]
 5386 03d8 0093     		str	r3, [sp]
 5387 03da 109B     		ldr	r3, [sp, #64]
 5388 03dc 229A     		ldr	r2, [sp, #136]
 5389 03de 0798     		ldr	r0, [sp, #28]
 5390 03e0 FFF7FEFF 		bl	VL53L0X_calc_dmax
 5391 03e4 0346     		mov	r3, r0
 5392 03e6 8DF82530 		strb	r3, [sp, #37]
 5393              	.L274:
 5394              		.loc 1 2006 0
 5395 03ea 9DF92530 		ldrsb	r3, [sp, #37]
 5396              	.L282:
 5397              		.loc 1 2007 0 discriminator 1
 5398 03ee 1846     		mov	r0, r3
 5399 03f0 074B     		ldr	r3, .L286+12
 5400 03f2 339A     		ldr	r2, [sp, #204]
 5401 03f4 1B68     		ldr	r3, [r3]
 5402 03f6 9A42     		cmp	r2, r3
 5403 03f8 01D0     		beq	.L283
 5404              		.loc 1 2007 0 is_stmt 0
 5405 03fa FFF7FEFF 		bl	__stack_chk_fail
 5406              	.L283:
 5407 03fe 35B0     		add	sp, sp, #212
 5408              		.cfi_def_cfa_offset 4
 5409              		@ sp needed
 5410 0400 5DF804FB 		ldr	pc, [sp], #4
 5411              	.L287:
 5412              		.align	2
 5413              	.L286:
 5414 0404 1F85EB51 		.word	1374389535
 5415 0408 5917B7D1 		.word	-776530087
ARM GAS  C:\Users\PCHAUT~1\AppData\Local\Temp\ccgoQRgJ.s 			page 96


 5416 040c D34D6210 		.word	274877907
 5417 0410 00000000 		.word	__stack_chk_guard
 5418              		.cfi_endproc
 5419              	.LFE26:
 5420              		.size	VL53L0X_calc_sigma_estimate, .-VL53L0X_calc_sigma_estimate
 5421              		.section	.text.VL53L0X_get_pal_range_status,"ax",%progbits
 5422              		.align	1
 5423              		.p2align 4,,15
 5424              		.global	VL53L0X_get_pal_range_status
 5425              		.syntax unified
 5426              		.thumb
 5427              		.thumb_func
 5428              		.fpu fpv4-sp-d16
 5429              		.type	VL53L0X_get_pal_range_status, %function
 5430              	VL53L0X_get_pal_range_status:
 5431              	.LFB27:
 5432              		.loc 1 2015 0 is_stmt 1
 5433              		.cfi_startproc
 5434              		@ args = 8, pretend = 0, frame = 72
 5435              		@ frame_needed = 0, uses_anonymous_args = 0
 5436 0000 00B5     		push	{lr}
 5437              		.cfi_def_cfa_offset 4
 5438              		.cfi_offset 14, -4
 5439 0002 93B0     		sub	sp, sp, #76
 5440              		.cfi_def_cfa_offset 80
 5441 0004 0590     		str	r0, [sp, #20]
 5442 0006 0392     		str	r2, [sp, #12]
 5443 0008 1A46     		mov	r2, r3
 5444 000a 0B46     		mov	r3, r1
 5445 000c 8DF81330 		strb	r3, [sp, #19]
 5446 0010 1346     		mov	r3, r2	@ movhi
 5447 0012 ADF81030 		strh	r3, [sp, #16]	@ movhi
 5448 0016 149B     		ldr	r3, [sp, #80]
 5449 0018 0293     		str	r3, [sp, #8]
 5450 001a 159B     		ldr	r3, [sp, #84]
 5451 001c 0193     		str	r3, [sp, #4]
 5452              		.loc 1 2015 0
 5453 001e C44B     		ldr	r3, .L331
 5454 0020 1B68     		ldr	r3, [r3]
 5455 0022 1193     		str	r3, [sp, #68]
 5456              		.loc 1 2016 0
 5457 0024 0023     		movs	r3, #0
 5458 0026 8DF81F30 		strb	r3, [sp, #31]
 5459              		.loc 1 2018 0
 5460 002a 0023     		movs	r3, #0
 5461 002c 8DF82130 		strb	r3, [sp, #33]
 5462              		.loc 1 2019 0
 5463 0030 0023     		movs	r3, #0
 5464 0032 8DF82230 		strb	r3, [sp, #34]
 5465              		.loc 1 2020 0
 5466 0036 0023     		movs	r3, #0
 5467 0038 8DF82330 		strb	r3, [sp, #35]
 5468              		.loc 1 2021 0
 5469 003c 0023     		movs	r3, #0
 5470 003e 8DF81B30 		strb	r3, [sp, #27]
 5471              		.loc 1 2022 0
 5472 0042 0023     		movs	r3, #0
ARM GAS  C:\Users\PCHAUT~1\AppData\Local\Temp\ccgoQRgJ.s 			page 97


 5473 0044 8DF81C30 		strb	r3, [sp, #28]
 5474              		.loc 1 2023 0
 5475 0048 0023     		movs	r3, #0
 5476 004a 8DF81D30 		strb	r3, [sp, #29]
 5477              		.loc 1 2024 0
 5478 004e 0023     		movs	r3, #0
 5479 0050 8DF81E30 		strb	r3, [sp, #30]
 5480              		.loc 1 2030 0
 5481 0054 0023     		movs	r3, #0
 5482 0056 8DF82530 		strb	r3, [sp, #37]
 5483              		.loc 1 2031 0
 5484 005a 0023     		movs	r3, #0
 5485 005c ADF82630 		strh	r3, [sp, #38]	@ movhi
 5486              		.loc 1 2033 0
 5487 0060 0023     		movs	r3, #0
 5488 0062 0E93     		str	r3, [sp, #56]
 5489              		.loc 1 2047 0
 5490 0064 9DF81330 		ldrb	r3, [sp, #19]	@ zero_extendqisi2
 5491 0068 DB10     		asrs	r3, r3, #3
 5492 006a DBB2     		uxtb	r3, r3
 5493 006c 03F00F03 		and	r3, r3, #15
 5494 0070 8DF82530 		strb	r3, [sp, #37]
 5495              		.loc 1 2049 0
 5496 0074 9DF82530 		ldrb	r3, [sp, #37]	@ zero_extendqisi2
 5497 0078 002B     		cmp	r3, #0
 5498 007a 17D0     		beq	.L289
 5499              		.loc 1 2049 0 is_stmt 0 discriminator 1
 5500 007c 9DF82530 		ldrb	r3, [sp, #37]	@ zero_extendqisi2
 5501 0080 052B     		cmp	r3, #5
 5502 0082 13D0     		beq	.L289
 5503              		.loc 1 2050 0 is_stmt 1
 5504 0084 9DF82530 		ldrb	r3, [sp, #37]	@ zero_extendqisi2
 5505 0088 072B     		cmp	r3, #7
 5506 008a 0FD0     		beq	.L289
 5507              		.loc 1 2051 0
 5508 008c 9DF82530 		ldrb	r3, [sp, #37]	@ zero_extendqisi2
 5509 0090 0C2B     		cmp	r3, #12
 5510 0092 0BD0     		beq	.L289
 5511              		.loc 1 2052 0
 5512 0094 9DF82530 		ldrb	r3, [sp, #37]	@ zero_extendqisi2
 5513 0098 0D2B     		cmp	r3, #13
 5514 009a 07D0     		beq	.L289
 5515              		.loc 1 2053 0
 5516 009c 9DF82530 		ldrb	r3, [sp, #37]	@ zero_extendqisi2
 5517 00a0 0E2B     		cmp	r3, #14
 5518 00a2 03D0     		beq	.L289
 5519              		.loc 1 2054 0
 5520 00a4 9DF82530 		ldrb	r3, [sp, #37]	@ zero_extendqisi2
 5521 00a8 0F2B     		cmp	r3, #15
 5522 00aa 03D1     		bne	.L290
 5523              	.L289:
 5524              		.loc 1 2057 0
 5525 00ac 0123     		movs	r3, #1
 5526 00ae 8DF82030 		strb	r3, [sp, #32]
 5527 00b2 02E0     		b	.L291
 5528              	.L290:
 5529              		.loc 1 2059 0
ARM GAS  C:\Users\PCHAUT~1\AppData\Local\Temp\ccgoQRgJ.s 			page 98


 5530 00b4 0023     		movs	r3, #0
 5531 00b6 8DF82030 		strb	r3, [sp, #32]
 5532              	.L291:
 5533              		.loc 1 2066 0
 5534 00ba 9DF91F30 		ldrsb	r3, [sp, #31]
 5535 00be 002B     		cmp	r3, #0
 5536 00c0 09D1     		bne	.L292
 5537              		.loc 1 2067 0
 5538 00c2 0DF11B03 		add	r3, sp, #27
 5539 00c6 1A46     		mov	r2, r3
 5540 00c8 0021     		movs	r1, #0
 5541 00ca 0598     		ldr	r0, [sp, #20]
 5542 00cc FFF7FEFF 		bl	VL53L0X_GetLimitCheckEnable
 5543 00d0 0346     		mov	r3, r0
 5544 00d2 8DF81F30 		strb	r3, [sp, #31]
 5545              	.L292:
 5546              		.loc 1 2071 0
 5547 00d6 9DF81B30 		ldrb	r3, [sp, #27]	@ zero_extendqisi2
 5548 00da 002B     		cmp	r3, #0
 5549 00dc 2BD0     		beq	.L293
 5550              		.loc 1 2071 0 is_stmt 0 discriminator 1
 5551 00de 9DF91F30 		ldrsb	r3, [sp, #31]
 5552 00e2 002B     		cmp	r3, #0
 5553 00e4 27D1     		bne	.L293
 5554              		.loc 1 2075 0 is_stmt 1
 5555 00e6 0EAB     		add	r3, sp, #56
 5556 00e8 0AAA     		add	r2, sp, #40
 5557 00ea 0299     		ldr	r1, [sp, #8]
 5558 00ec 0598     		ldr	r0, [sp, #20]
 5559 00ee FFF7FEFF 		bl	VL53L0X_calc_sigma_estimate
 5560 00f2 0346     		mov	r3, r0
 5561 00f4 8DF81F30 		strb	r3, [sp, #31]
 5562              		.loc 1 2080 0
 5563 00f8 9DF91F30 		ldrsb	r3, [sp, #31]
 5564 00fc 002B     		cmp	r3, #0
 5565 00fe 03D1     		bne	.L294
 5566              		.loc 1 2081 0
 5567 0100 0E9B     		ldr	r3, [sp, #56]
 5568 0102 9AB2     		uxth	r2, r3
 5569 0104 029B     		ldr	r3, [sp, #8]
 5570 0106 5A81     		strh	r2, [r3, #10]	@ movhi
 5571              	.L294:
 5572              		.loc 1 2083 0
 5573 0108 9DF91F30 		ldrsb	r3, [sp, #31]
 5574 010c 002B     		cmp	r3, #0
 5575 010e 12D1     		bne	.L293
 5576              		.loc 1 2084 0
 5577 0110 0BAB     		add	r3, sp, #44
 5578 0112 1A46     		mov	r2, r3
 5579 0114 0021     		movs	r1, #0
 5580 0116 0598     		ldr	r0, [sp, #20]
 5581 0118 FFF7FEFF 		bl	VL53L0X_GetLimitCheckValue
 5582 011c 0346     		mov	r3, r0
 5583 011e 8DF81F30 		strb	r3, [sp, #31]
 5584              		.loc 1 2088 0
 5585 0122 0B9B     		ldr	r3, [sp, #44]
 5586 0124 002B     		cmp	r3, #0
ARM GAS  C:\Users\PCHAUT~1\AppData\Local\Temp\ccgoQRgJ.s 			page 99


 5587 0126 06D0     		beq	.L293
 5588              		.loc 1 2089 0 discriminator 1
 5589 0128 0A9A     		ldr	r2, [sp, #40]
 5590 012a 0B9B     		ldr	r3, [sp, #44]
 5591              		.loc 1 2088 0 discriminator 1
 5592 012c 9A42     		cmp	r2, r3
 5593 012e 02D9     		bls	.L293
 5594              		.loc 1 2091 0
 5595 0130 0123     		movs	r3, #1
 5596 0132 8DF82130 		strb	r3, [sp, #33]
 5597              	.L293:
 5598              		.loc 1 2099 0
 5599 0136 9DF91F30 		ldrsb	r3, [sp, #31]
 5600 013a 002B     		cmp	r3, #0
 5601 013c 09D1     		bne	.L295
 5602              		.loc 1 2100 0
 5603 013e 0DF11D03 		add	r3, sp, #29
 5604 0142 1A46     		mov	r2, r3
 5605 0144 0221     		movs	r1, #2
 5606 0146 0598     		ldr	r0, [sp, #20]
 5607 0148 FFF7FEFF 		bl	VL53L0X_GetLimitCheckEnable
 5608 014c 0346     		mov	r3, r0
 5609 014e 8DF81F30 		strb	r3, [sp, #31]
 5610              	.L295:
 5611              		.loc 1 2104 0
 5612 0152 9DF81D30 		ldrb	r3, [sp, #29]	@ zero_extendqisi2
 5613 0156 002B     		cmp	r3, #0
 5614 0158 44D0     		beq	.L296
 5615              		.loc 1 2104 0 is_stmt 0 discriminator 1
 5616 015a 9DF91F30 		ldrsb	r3, [sp, #31]
 5617 015e 002B     		cmp	r3, #0
 5618 0160 40D1     		bne	.L296
 5619              		.loc 1 2107 0 is_stmt 1
 5620 0162 0CAB     		add	r3, sp, #48
 5621 0164 1A46     		mov	r2, r3
 5622 0166 0221     		movs	r1, #2
 5623 0168 0598     		ldr	r0, [sp, #20]
 5624 016a FFF7FEFF 		bl	VL53L0X_GetLimitCheckValue
 5625 016e 0346     		mov	r3, r0
 5626 0170 8DF81F30 		strb	r3, [sp, #31]
 5627              		.loc 1 2112 0
 5628 0174 9DF91F30 		ldrsb	r3, [sp, #31]
 5629 0178 002B     		cmp	r3, #0
 5630 017a 07D1     		bne	.L297
 5631              		.loc 1 2113 0
 5632 017c 0122     		movs	r2, #1
 5633 017e FF21     		movs	r1, #255
 5634 0180 0598     		ldr	r0, [sp, #20]
 5635 0182 FFF7FEFF 		bl	VL53L0X_WrByte
 5636 0186 0346     		mov	r3, r0
 5637 0188 8DF81F30 		strb	r3, [sp, #31]
 5638              	.L297:
 5639              		.loc 1 2115 0
 5640 018c 9DF91F30 		ldrsb	r3, [sp, #31]
 5641 0190 002B     		cmp	r3, #0
 5642 0192 09D1     		bne	.L298
 5643              		.loc 1 2116 0
ARM GAS  C:\Users\PCHAUT~1\AppData\Local\Temp\ccgoQRgJ.s 			page 100


 5644 0194 0DF12603 		add	r3, sp, #38
 5645 0198 1A46     		mov	r2, r3
 5646 019a B621     		movs	r1, #182
 5647 019c 0598     		ldr	r0, [sp, #20]
 5648 019e FFF7FEFF 		bl	VL53L0X_RdWord
 5649 01a2 0346     		mov	r3, r0
 5650 01a4 8DF81F30 		strb	r3, [sp, #31]
 5651              	.L298:
 5652              		.loc 1 2120 0
 5653 01a8 9DF91F30 		ldrsb	r3, [sp, #31]
 5654 01ac 002B     		cmp	r3, #0
 5655 01ae 07D1     		bne	.L299
 5656              		.loc 1 2121 0
 5657 01b0 0022     		movs	r2, #0
 5658 01b2 FF21     		movs	r1, #255
 5659 01b4 0598     		ldr	r0, [sp, #20]
 5660 01b6 FFF7FEFF 		bl	VL53L0X_WrByte
 5661 01ba 0346     		mov	r3, r0
 5662 01bc 8DF81F30 		strb	r3, [sp, #31]
 5663              	.L299:
 5664              		.loc 1 2123 0
 5665 01c0 BDF82630 		ldrh	r3, [sp, #38]
 5666 01c4 5B02     		lsls	r3, r3, #9
 5667 01c6 1093     		str	r3, [sp, #64]
 5668              		.loc 1 2124 0
 5669 01c8 059B     		ldr	r3, [sp, #20]
 5670 01ca 109A     		ldr	r2, [sp, #64]
 5671 01cc C3F84821 		str	r2, [r3, #328]
 5672              		.loc 1 2126 0
 5673 01d0 0C9B     		ldr	r3, [sp, #48]
 5674 01d2 002B     		cmp	r3, #0
 5675 01d4 06D0     		beq	.L296
 5676              		.loc 1 2127 0 discriminator 1
 5677 01d6 0C9B     		ldr	r3, [sp, #48]
 5678              		.loc 1 2126 0 discriminator 1
 5679 01d8 109A     		ldr	r2, [sp, #64]
 5680 01da 9A42     		cmp	r2, r3
 5681 01dc 02D9     		bls	.L296
 5682              		.loc 1 2129 0
 5683 01de 0123     		movs	r3, #1
 5684 01e0 8DF82230 		strb	r3, [sp, #34]
 5685              	.L296:
 5686              		.loc 1 2139 0
 5687 01e4 9DF91F30 		ldrsb	r3, [sp, #31]
 5688 01e8 002B     		cmp	r3, #0
 5689 01ea 09D1     		bne	.L300
 5690              		.loc 1 2140 0
 5691 01ec 0DF11E03 		add	r3, sp, #30
 5692 01f0 1A46     		mov	r2, r3
 5693 01f2 0321     		movs	r1, #3
 5694 01f4 0598     		ldr	r0, [sp, #20]
 5695 01f6 FFF7FEFF 		bl	VL53L0X_GetLimitCheckEnable
 5696 01fa 0346     		mov	r3, r0
 5697 01fc 8DF81F30 		strb	r3, [sp, #31]
 5698              	.L300:
 5699              		.loc 1 2144 0
 5700 0200 9DF81E30 		ldrb	r3, [sp, #30]	@ zero_extendqisi2
ARM GAS  C:\Users\PCHAUT~1\AppData\Local\Temp\ccgoQRgJ.s 			page 101


 5701 0204 002B     		cmp	r3, #0
 5702 0206 24D0     		beq	.L301
 5703              		.loc 1 2144 0 is_stmt 0 discriminator 1
 5704 0208 9DF91F30 		ldrsb	r3, [sp, #31]
 5705 020c 002B     		cmp	r3, #0
 5706 020e 20D1     		bne	.L301
 5707              		.loc 1 2148 0 is_stmt 1
 5708 0210 BDF81030 		ldrh	r3, [sp, #16]
 5709 0214 002B     		cmp	r3, #0
 5710 0216 02D1     		bne	.L302
 5711              		.loc 1 2149 0
 5712 0218 0023     		movs	r3, #0
 5713 021a 0F93     		str	r3, [sp, #60]
 5714 021c 06E0     		b	.L303
 5715              	.L302:
 5716              		.loc 1 2151 0
 5717 021e 039B     		ldr	r3, [sp, #12]
 5718 0220 1A02     		lsls	r2, r3, #8
 5719 0222 BDF81030 		ldrh	r3, [sp, #16]
 5720 0226 B2FBF3F3 		udiv	r3, r2, r3
 5721 022a 0F93     		str	r3, [sp, #60]
 5722              	.L303:
 5723              		.loc 1 2155 0
 5724 022c 0DAB     		add	r3, sp, #52
 5725 022e 1A46     		mov	r2, r3
 5726 0230 0321     		movs	r1, #3
 5727 0232 0598     		ldr	r0, [sp, #20]
 5728 0234 FFF7FEFF 		bl	VL53L0X_GetLimitCheckValue
 5729 0238 0346     		mov	r3, r0
 5730 023a 8DF81F30 		strb	r3, [sp, #31]
 5731              		.loc 1 2159 0
 5732 023e 0D9B     		ldr	r3, [sp, #52]
 5733 0240 002B     		cmp	r3, #0
 5734 0242 06D0     		beq	.L301
 5735              		.loc 1 2160 0 discriminator 1
 5736 0244 0D9B     		ldr	r3, [sp, #52]
 5737              		.loc 1 2159 0 discriminator 1
 5738 0246 0F9A     		ldr	r2, [sp, #60]
 5739 0248 9A42     		cmp	r2, r3
 5740 024a 02D2     		bcs	.L301
 5741              		.loc 1 2162 0
 5742 024c 0123     		movs	r3, #1
 5743 024e 8DF82330 		strb	r3, [sp, #35]
 5744              	.L301:
 5745              		.loc 1 2166 0
 5746 0252 9DF91F30 		ldrsb	r3, [sp, #31]
 5747 0256 002B     		cmp	r3, #0
 5748 0258 4AD1     		bne	.L304
 5749              		.loc 1 2167 0
 5750 025a 9DF82030 		ldrb	r3, [sp, #32]	@ zero_extendqisi2
 5751 025e 012B     		cmp	r3, #1
 5752 0260 03D1     		bne	.L305
 5753              		.loc 1 2168 0
 5754 0262 019B     		ldr	r3, [sp, #4]
 5755 0264 FF22     		movs	r2, #255
 5756 0266 1A70     		strb	r2, [r3]
 5757 0268 42E0     		b	.L304
ARM GAS  C:\Users\PCHAUT~1\AppData\Local\Temp\ccgoQRgJ.s 			page 102


 5758              	.L305:
 5759              		.loc 1 2169 0
 5760 026a 9DF82530 		ldrb	r3, [sp, #37]	@ zero_extendqisi2
 5761 026e 012B     		cmp	r3, #1
 5762 0270 07D0     		beq	.L306
 5763              		.loc 1 2169 0 is_stmt 0 discriminator 1
 5764 0272 9DF82530 		ldrb	r3, [sp, #37]	@ zero_extendqisi2
 5765 0276 022B     		cmp	r3, #2
 5766 0278 03D0     		beq	.L306
 5767              		.loc 1 2170 0 is_stmt 1
 5768 027a 9DF82530 		ldrb	r3, [sp, #37]	@ zero_extendqisi2
 5769 027e 032B     		cmp	r3, #3
 5770 0280 03D1     		bne	.L307
 5771              	.L306:
 5772              		.loc 1 2172 0
 5773 0282 019B     		ldr	r3, [sp, #4]
 5774 0284 0522     		movs	r2, #5
 5775 0286 1A70     		strb	r2, [r3]
 5776 0288 32E0     		b	.L304
 5777              	.L307:
 5778              		.loc 1 2173 0
 5779 028a 9DF82530 		ldrb	r3, [sp, #37]	@ zero_extendqisi2
 5780 028e 062B     		cmp	r3, #6
 5781 0290 03D0     		beq	.L308
 5782              		.loc 1 2173 0 is_stmt 0 discriminator 1
 5783 0292 9DF82530 		ldrb	r3, [sp, #37]	@ zero_extendqisi2
 5784 0296 092B     		cmp	r3, #9
 5785 0298 03D1     		bne	.L309
 5786              	.L308:
 5787              		.loc 1 2175 0 is_stmt 1
 5788 029a 019B     		ldr	r3, [sp, #4]
 5789 029c 0422     		movs	r2, #4
 5790 029e 1A70     		strb	r2, [r3]
 5791 02a0 26E0     		b	.L304
 5792              	.L309:
 5793              		.loc 1 2176 0
 5794 02a2 9DF82530 		ldrb	r3, [sp, #37]	@ zero_extendqisi2
 5795 02a6 082B     		cmp	r3, #8
 5796 02a8 07D0     		beq	.L310
 5797              		.loc 1 2176 0 is_stmt 0 discriminator 1
 5798 02aa 9DF82530 		ldrb	r3, [sp, #37]	@ zero_extendqisi2
 5799 02ae 0A2B     		cmp	r3, #10
 5800 02b0 03D0     		beq	.L310
 5801              		.loc 1 2177 0 is_stmt 1
 5802 02b2 9DF82230 		ldrb	r3, [sp, #34]	@ zero_extendqisi2
 5803 02b6 012B     		cmp	r3, #1
 5804 02b8 03D1     		bne	.L311
 5805              	.L310:
 5806              		.loc 1 2179 0
 5807 02ba 019B     		ldr	r3, [sp, #4]
 5808 02bc 0322     		movs	r2, #3
 5809 02be 1A70     		strb	r2, [r3]
 5810 02c0 16E0     		b	.L304
 5811              	.L311:
 5812              		.loc 1 2180 0
 5813 02c2 9DF82530 		ldrb	r3, [sp, #37]	@ zero_extendqisi2
 5814 02c6 042B     		cmp	r3, #4
ARM GAS  C:\Users\PCHAUT~1\AppData\Local\Temp\ccgoQRgJ.s 			page 103


 5815 02c8 03D0     		beq	.L312
 5816              		.loc 1 2180 0 is_stmt 0 discriminator 1
 5817 02ca 9DF82330 		ldrb	r3, [sp, #35]	@ zero_extendqisi2
 5818 02ce 012B     		cmp	r3, #1
 5819 02d0 03D1     		bne	.L313
 5820              	.L312:
 5821              		.loc 1 2182 0 is_stmt 1
 5822 02d2 019B     		ldr	r3, [sp, #4]
 5823 02d4 0222     		movs	r2, #2
 5824 02d6 1A70     		strb	r2, [r3]
 5825 02d8 0AE0     		b	.L304
 5826              	.L313:
 5827              		.loc 1 2183 0
 5828 02da 9DF82130 		ldrb	r3, [sp, #33]	@ zero_extendqisi2
 5829 02de 012B     		cmp	r3, #1
 5830 02e0 03D1     		bne	.L314
 5831              		.loc 1 2184 0
 5832 02e2 019B     		ldr	r3, [sp, #4]
 5833 02e4 0122     		movs	r2, #1
 5834 02e6 1A70     		strb	r2, [r3]
 5835 02e8 02E0     		b	.L304
 5836              	.L314:
 5837              		.loc 1 2186 0
 5838 02ea 019B     		ldr	r3, [sp, #4]
 5839 02ec 0022     		movs	r2, #0
 5840 02ee 1A70     		strb	r2, [r3]
 5841              	.L304:
 5842              		.loc 1 2191 0
 5843 02f0 019B     		ldr	r3, [sp, #4]
 5844 02f2 1B78     		ldrb	r3, [r3]	@ zero_extendqisi2
 5845 02f4 002B     		cmp	r3, #0
 5846 02f6 02D1     		bne	.L315
 5847              		.loc 1 2192 0
 5848 02f8 029B     		ldr	r3, [sp, #8]
 5849 02fa 0022     		movs	r2, #0
 5850 02fc 5A81     		strh	r2, [r3, #10]	@ movhi
 5851              	.L315:
 5852              		.loc 1 2196 0
 5853 02fe 07AB     		add	r3, sp, #28
 5854 0300 1A46     		mov	r2, r3
 5855 0302 0121     		movs	r1, #1
 5856 0304 0598     		ldr	r0, [sp, #20]
 5857 0306 FFF7FEFF 		bl	VL53L0X_GetLimitCheckEnable
 5858 030a 0346     		mov	r3, r0
 5859 030c 8DF81F30 		strb	r3, [sp, #31]
 5860              		.loc 1 2200 0
 5861 0310 9DF91F30 		ldrsb	r3, [sp, #31]
 5862 0314 002B     		cmp	r3, #0
 5863 0316 51D1     		bne	.L316
 5864              		.loc 1 2201 0
 5865 0318 9DF81B30 		ldrb	r3, [sp, #27]	@ zero_extendqisi2
 5866 031c 002B     		cmp	r3, #0
 5867 031e 03D0     		beq	.L317
 5868              		.loc 1 2201 0 is_stmt 0 discriminator 1
 5869 0320 9DF82130 		ldrb	r3, [sp, #33]	@ zero_extendqisi2
 5870 0324 012B     		cmp	r3, #1
 5871 0326 05D1     		bne	.L318
ARM GAS  C:\Users\PCHAUT~1\AppData\Local\Temp\ccgoQRgJ.s 			page 104


 5872              	.L317:
 5873              		.loc 1 2202 0 is_stmt 1
 5874 0328 0123     		movs	r3, #1
 5875 032a 8DF82430 		strb	r3, [sp, #36]
 5876 032e 04E0     		b	.L319
 5877              	.L332:
 5878              		.align	2
 5879              	.L331:
 5880 0330 00000000 		.word	__stack_chk_guard
 5881              	.L318:
 5882              		.loc 1 2204 0
 5883 0334 0023     		movs	r3, #0
 5884 0336 8DF82430 		strb	r3, [sp, #36]
 5885              	.L319:
 5886              		.loc 1 2205 0
 5887 033a 059B     		ldr	r3, [sp, #20]
 5888 033c 9DF82420 		ldrb	r2, [sp, #36]
 5889 0340 83F82E20 		strb	r2, [r3, #46]
 5890              		.loc 1 2208 0
 5891 0344 9DF82530 		ldrb	r3, [sp, #37]	@ zero_extendqisi2
 5892 0348 042B     		cmp	r3, #4
 5893 034a 03D0     		beq	.L320
 5894              		.loc 1 2209 0 discriminator 1
 5895 034c 9DF81C30 		ldrb	r3, [sp, #28]	@ zero_extendqisi2
 5896              		.loc 1 2208 0 discriminator 1
 5897 0350 002B     		cmp	r3, #0
 5898 0352 03D1     		bne	.L321
 5899              	.L320:
 5900              		.loc 1 2210 0
 5901 0354 0123     		movs	r3, #1
 5902 0356 8DF82430 		strb	r3, [sp, #36]
 5903 035a 02E0     		b	.L322
 5904              	.L321:
 5905              		.loc 1 2212 0
 5906 035c 0023     		movs	r3, #0
 5907 035e 8DF82430 		strb	r3, [sp, #36]
 5908              	.L322:
 5909              		.loc 1 2213 0
 5910 0362 059B     		ldr	r3, [sp, #20]
 5911 0364 9DF82420 		ldrb	r2, [sp, #36]
 5912 0368 83F82F20 		strb	r2, [r3, #47]
 5913              		.loc 1 2217 0
 5914 036c 9DF81D30 		ldrb	r3, [sp, #29]	@ zero_extendqisi2
 5915 0370 002B     		cmp	r3, #0
 5916 0372 03D0     		beq	.L323
 5917              		.loc 1 2217 0 is_stmt 0 discriminator 1
 5918 0374 9DF82230 		ldrb	r3, [sp, #34]	@ zero_extendqisi2
 5919 0378 012B     		cmp	r3, #1
 5920 037a 03D1     		bne	.L324
 5921              	.L323:
 5922              		.loc 1 2219 0 is_stmt 1
 5923 037c 0123     		movs	r3, #1
 5924 037e 8DF82430 		strb	r3, [sp, #36]
 5925 0382 02E0     		b	.L325
 5926              	.L324:
 5927              		.loc 1 2221 0
 5928 0384 0023     		movs	r3, #0
ARM GAS  C:\Users\PCHAUT~1\AppData\Local\Temp\ccgoQRgJ.s 			page 105


 5929 0386 8DF82430 		strb	r3, [sp, #36]
 5930              	.L325:
 5931              		.loc 1 2223 0
 5932 038a 059B     		ldr	r3, [sp, #20]
 5933 038c 9DF82420 		ldrb	r2, [sp, #36]
 5934 0390 83F83020 		strb	r2, [r3, #48]
 5935              		.loc 1 2226 0
 5936 0394 9DF81E30 		ldrb	r3, [sp, #30]	@ zero_extendqisi2
 5937 0398 002B     		cmp	r3, #0
 5938 039a 03D0     		beq	.L326
 5939              		.loc 1 2226 0 is_stmt 0 discriminator 1
 5940 039c 9DF82330 		ldrb	r3, [sp, #35]	@ zero_extendqisi2
 5941 03a0 012B     		cmp	r3, #1
 5942 03a2 03D1     		bne	.L327
 5943              	.L326:
 5944              		.loc 1 2228 0 is_stmt 1
 5945 03a4 0123     		movs	r3, #1
 5946 03a6 8DF82430 		strb	r3, [sp, #36]
 5947 03aa 02E0     		b	.L328
 5948              	.L327:
 5949              		.loc 1 2230 0
 5950 03ac 0023     		movs	r3, #0
 5951 03ae 8DF82430 		strb	r3, [sp, #36]
 5952              	.L328:
 5953              		.loc 1 2232 0
 5954 03b2 059B     		ldr	r3, [sp, #20]
 5955 03b4 9DF82420 		ldrb	r2, [sp, #36]
 5956 03b8 83F83120 		strb	r2, [r3, #49]
 5957              	.L316:
 5958              		.loc 1 2238 0
 5959 03bc 9DF91F30 		ldrsb	r3, [sp, #31]
 5960              		.loc 1 2240 0
 5961 03c0 1846     		mov	r0, r3
 5962 03c2 054B     		ldr	r3, .L333
 5963 03c4 119A     		ldr	r2, [sp, #68]
 5964 03c6 1B68     		ldr	r3, [r3]
 5965 03c8 9A42     		cmp	r2, r3
 5966 03ca 01D0     		beq	.L330
 5967 03cc FFF7FEFF 		bl	__stack_chk_fail
 5968              	.L330:
 5969 03d0 13B0     		add	sp, sp, #76
 5970              		.cfi_def_cfa_offset 4
 5971              		@ sp needed
 5972 03d2 5DF804FB 		ldr	pc, [sp], #4
 5973              	.L334:
 5974 03d6 00BF     		.align	2
 5975              	.L333:
 5976 03d8 00000000 		.word	__stack_chk_guard
 5977              		.cfi_endproc
 5978              	.LFE27:
 5979              		.size	VL53L0X_get_pal_range_status, .-VL53L0X_get_pal_range_status
 5980              		.text
 5981              	.Letext0:
 5982              		.file 2 "c:\\users\\pchautems\\documents\\robotiquetp\\eclipse_e-puck2\\tools\\gcc-arm-none-eabi-7
 5983              		.file 3 "c:\\users\\pchautems\\documents\\robotiquetp\\eclipse_e-puck2\\tools\\gcc-arm-none-eabi-7
 5984              		.file 4 "../lib/e-puck2_main-processor/src/sensors/VL53L0X/Api/core/src/../inc/vl53l0x_types.h"
 5985              		.file 5 "../lib/e-puck2_main-processor/src/sensors/VL53L0X/Api/core/src/../inc/vl53l0x_device.h"
ARM GAS  C:\Users\PCHAUT~1\AppData\Local\Temp\ccgoQRgJ.s 			page 106


 5986              		.file 6 "../lib/e-puck2_main-processor/src/sensors/VL53L0X/Api/core/src/../inc/vl53l0x_def.h"
 5987              		.file 7 "c:\\users\\pchautems\\documents\\robotiquetp\\eclipse_e-puck2\\tools\\gcc-arm-none-eabi-7
 5988              		.file 8 "c:\\users\\pchautems\\documents\\robotiquetp\\eclipse_e-puck2\\tools\\gcc-arm-none-eabi-7
 5989              		.file 9 "c:\\users\\pchautems\\documents\\robotiquetp\\eclipse_e-puck2\\tools\\gcc-arm-none-eabi-7
 5990              		.file 10 "c:\\users\\pchautems\\documents\\robotiquetp\\eclipse_e-puck2\\tools\\gcc-arm-none-eabi-
 5991              		.file 11 "../lib/e-puck2_main-processor/src/sensors/VL53L0X/Api/core/src/../inc/../../platform/inc
 5992              		.file 12 "c:\\users\\pchautems\\documents\\robotiquetp\\eclipse_e-puck2\\tools\\gcc-arm-none-eabi-
 5993              		.section	.debug_info,"",%progbits
 5994              	.Ldebug_info0:
 5995 0000 40220000 		.4byte	0x2240
 5996 0004 0400     		.2byte	0x4
 5997 0006 00000000 		.4byte	.Ldebug_abbrev0
 5998 000a 04       		.byte	0x4
 5999 000b 01       		.uleb128 0x1
 6000 000c 78160000 		.4byte	.LASF439
 6001 0010 0C       		.byte	0xc
 6002 0011 2D140000 		.4byte	.LASF440
 6003 0015 F8040000 		.4byte	.LASF441
 6004 0019 00000000 		.4byte	.Ldebug_ranges0+0
 6005 001d 00000000 		.4byte	0
 6006 0021 00000000 		.4byte	.Ldebug_line0
 6007 0025 02       		.uleb128 0x2
 6008 0026 9D100000 		.4byte	.LASF0
 6009 002a 02       		.byte	0x2
 6010 002b 29       		.byte	0x29
 6011 002c 30000000 		.4byte	0x30
 6012 0030 03       		.uleb128 0x3
 6013 0031 01       		.byte	0x1
 6014 0032 06       		.byte	0x6
 6015 0033 CE1A0000 		.4byte	.LASF2
 6016 0037 02       		.uleb128 0x2
 6017 0038 2E150000 		.4byte	.LASF1
 6018 003c 02       		.byte	0x2
 6019 003d 2B       		.byte	0x2b
 6020 003e 42000000 		.4byte	0x42
 6021 0042 03       		.uleb128 0x3
 6022 0043 01       		.byte	0x1
 6023 0044 08       		.byte	0x8
 6024 0045 95180000 		.4byte	.LASF3
 6025 0049 02       		.uleb128 0x2
 6026 004a 130F0000 		.4byte	.LASF4
 6027 004e 02       		.byte	0x2
 6028 004f 37       		.byte	0x37
 6029 0050 54000000 		.4byte	0x54
 6030 0054 03       		.uleb128 0x3
 6031 0055 02       		.byte	0x2
 6032 0056 05       		.byte	0x5
 6033 0057 D9120000 		.4byte	.LASF5
 6034 005b 02       		.uleb128 0x2
 6035 005c 72080000 		.4byte	.LASF6
 6036 0060 02       		.byte	0x2
 6037 0061 39       		.byte	0x39
 6038 0062 66000000 		.4byte	0x66
 6039 0066 03       		.uleb128 0x3
 6040 0067 02       		.byte	0x2
 6041 0068 07       		.byte	0x7
 6042 0069 021B0000 		.4byte	.LASF7
ARM GAS  C:\Users\PCHAUT~1\AppData\Local\Temp\ccgoQRgJ.s 			page 107


 6043 006d 02       		.uleb128 0x2
 6044 006e DB020000 		.4byte	.LASF8
 6045 0072 02       		.byte	0x2
 6046 0073 4D       		.byte	0x4d
 6047 0074 78000000 		.4byte	0x78
 6048 0078 03       		.uleb128 0x3
 6049 0079 04       		.byte	0x4
 6050 007a 05       		.byte	0x5
 6051 007b 1A130000 		.4byte	.LASF9
 6052 007f 02       		.uleb128 0x2
 6053 0080 D0180000 		.4byte	.LASF10
 6054 0084 02       		.byte	0x2
 6055 0085 4F       		.byte	0x4f
 6056 0086 8A000000 		.4byte	0x8a
 6057 008a 03       		.uleb128 0x3
 6058 008b 04       		.byte	0x4
 6059 008c 07       		.byte	0x7
 6060 008d 66160000 		.4byte	.LASF11
 6061 0091 03       		.uleb128 0x3
 6062 0092 08       		.byte	0x8
 6063 0093 05       		.byte	0x5
 6064 0094 300E0000 		.4byte	.LASF12
 6065 0098 02       		.uleb128 0x2
 6066 0099 9F0A0000 		.4byte	.LASF13
 6067 009d 02       		.byte	0x2
 6068 009e 69       		.byte	0x69
 6069 009f A3000000 		.4byte	0xa3
 6070 00a3 03       		.uleb128 0x3
 6071 00a4 08       		.byte	0x8
 6072 00a5 07       		.byte	0x7
 6073 00a6 D1070000 		.4byte	.LASF14
 6074 00aa 04       		.uleb128 0x4
 6075 00ab 04       		.byte	0x4
 6076 00ac 05       		.byte	0x5
 6077 00ad 696E7400 		.ascii	"int\000"
 6078 00b1 03       		.uleb128 0x3
 6079 00b2 04       		.byte	0x4
 6080 00b3 07       		.byte	0x7
 6081 00b4 09020000 		.4byte	.LASF15
 6082 00b8 02       		.uleb128 0x2
 6083 00b9 46060000 		.4byte	.LASF16
 6084 00bd 03       		.byte	0x3
 6085 00be 14       		.byte	0x14
 6086 00bf 25000000 		.4byte	0x25
 6087 00c3 02       		.uleb128 0x2
 6088 00c4 460D0000 		.4byte	.LASF17
 6089 00c8 03       		.byte	0x3
 6090 00c9 18       		.byte	0x18
 6091 00ca 37000000 		.4byte	0x37
 6092 00ce 02       		.uleb128 0x2
 6093 00cf 6A070000 		.4byte	.LASF18
 6094 00d3 03       		.byte	0x3
 6095 00d4 20       		.byte	0x20
 6096 00d5 49000000 		.4byte	0x49
 6097 00d9 02       		.uleb128 0x2
 6098 00da 74110000 		.4byte	.LASF19
 6099 00de 03       		.byte	0x3
ARM GAS  C:\Users\PCHAUT~1\AppData\Local\Temp\ccgoQRgJ.s 			page 108


 6100 00df 24       		.byte	0x24
 6101 00e0 5B000000 		.4byte	0x5b
 6102 00e4 02       		.uleb128 0x2
 6103 00e5 10180000 		.4byte	.LASF20
 6104 00e9 03       		.byte	0x3
 6105 00ea 2C       		.byte	0x2c
 6106 00eb 6D000000 		.4byte	0x6d
 6107 00ef 02       		.uleb128 0x2
 6108 00f0 3D060000 		.4byte	.LASF21
 6109 00f4 03       		.byte	0x3
 6110 00f5 30       		.byte	0x30
 6111 00f6 7F000000 		.4byte	0x7f
 6112 00fa 05       		.uleb128 0x5
 6113 00fb EF000000 		.4byte	0xef
 6114 00ff 02       		.uleb128 0x2
 6115 0100 FC130000 		.4byte	.LASF22
 6116 0104 03       		.byte	0x3
 6117 0105 3C       		.byte	0x3c
 6118 0106 98000000 		.4byte	0x98
 6119 010a 03       		.uleb128 0x3
 6120 010b 08       		.byte	0x8
 6121 010c 04       		.byte	0x4
 6122 010d 4E110000 		.4byte	.LASF23
 6123 0111 02       		.uleb128 0x2
 6124 0112 0B060000 		.4byte	.LASF24
 6125 0116 04       		.byte	0x4
 6126 0117 6D       		.byte	0x6d
 6127 0118 EF000000 		.4byte	0xef
 6128 011c 05       		.uleb128 0x5
 6129 011d 11010000 		.4byte	0x111
 6130 0121 02       		.uleb128 0x2
 6131 0122 36070000 		.4byte	.LASF25
 6132 0126 05       		.byte	0x5
 6133 0127 36       		.byte	0x36
 6134 0128 C3000000 		.4byte	0xc3
 6135 012c 02       		.uleb128 0x2
 6136 012d 660D0000 		.4byte	.LASF26
 6137 0131 05       		.byte	0x5
 6138 0132 64       		.byte	0x64
 6139 0133 C3000000 		.4byte	0xc3
 6140 0137 06       		.uleb128 0x6
 6141 0138 63       		.byte	0x63
 6142 0139 06       		.byte	0x6
 6143 013a 6E       		.byte	0x6e
 6144 013b 88010000 		.4byte	0x188
 6145 013f 07       		.uleb128 0x7
 6146 0140 FA080000 		.4byte	.LASF27
 6147 0144 06       		.byte	0x6
 6148 0145 6F       		.byte	0x6f
 6149 0146 88010000 		.4byte	0x188
 6150 014a 00       		.byte	0
 6151 014b 07       		.uleb128 0x7
 6152 014c B50D0000 		.4byte	.LASF28
 6153 0150 06       		.byte	0x6
 6154 0151 71       		.byte	0x71
 6155 0152 88010000 		.4byte	0x188
 6156 0156 20       		.byte	0x20
ARM GAS  C:\Users\PCHAUT~1\AppData\Local\Temp\ccgoQRgJ.s 			page 109


 6157 0157 07       		.uleb128 0x7
 6158 0158 90020000 		.4byte	.LASF29
 6159 015c 06       		.byte	0x6
 6160 015d 73       		.byte	0x73
 6161 015e 88010000 		.4byte	0x188
 6162 0162 40       		.byte	0x40
 6163 0163 07       		.uleb128 0x7
 6164 0164 A0190000 		.4byte	.LASF30
 6165 0168 06       		.byte	0x6
 6166 0169 75       		.byte	0x75
 6167 016a C3000000 		.4byte	0xc3
 6168 016e 60       		.byte	0x60
 6169 016f 07       		.uleb128 0x7
 6170 0170 A8000000 		.4byte	.LASF31
 6171 0174 06       		.byte	0x6
 6172 0175 77       		.byte	0x77
 6173 0176 C3000000 		.4byte	0xc3
 6174 017a 61       		.byte	0x61
 6175 017b 07       		.uleb128 0x7
 6176 017c 8B070000 		.4byte	.LASF32
 6177 0180 06       		.byte	0x6
 6178 0181 79       		.byte	0x79
 6179 0182 C3000000 		.4byte	0xc3
 6180 0186 62       		.byte	0x62
 6181 0187 00       		.byte	0
 6182 0188 08       		.uleb128 0x8
 6183 0189 98010000 		.4byte	0x198
 6184 018d 98010000 		.4byte	0x198
 6185 0191 09       		.uleb128 0x9
 6186 0192 B1000000 		.4byte	0xb1
 6187 0196 1F       		.byte	0x1f
 6188 0197 00       		.byte	0
 6189 0198 03       		.uleb128 0x3
 6190 0199 01       		.byte	0x1
 6191 019a 08       		.byte	0x8
 6192 019b DE0B0000 		.4byte	.LASF33
 6193 019f 05       		.uleb128 0x5
 6194 01a0 98010000 		.4byte	0x198
 6195 01a4 02       		.uleb128 0x2
 6196 01a5 52050000 		.4byte	.LASF34
 6197 01a9 06       		.byte	0x6
 6198 01aa 7B       		.byte	0x7b
 6199 01ab 37010000 		.4byte	0x137
 6200 01af 02       		.uleb128 0x2
 6201 01b0 6E150000 		.4byte	.LASF35
 6202 01b4 06       		.byte	0x6
 6203 01b5 83       		.byte	0x83
 6204 01b6 B8000000 		.4byte	0xb8
 6205 01ba 02       		.uleb128 0x2
 6206 01bb 5F0E0000 		.4byte	.LASF36
 6207 01bf 06       		.byte	0x6
 6208 01c0 B5       		.byte	0xb5
 6209 01c1 C3000000 		.4byte	0xc3
 6210 01c5 02       		.uleb128 0x2
 6211 01c6 EE0D0000 		.4byte	.LASF37
 6212 01ca 06       		.byte	0x6
 6213 01cb C7       		.byte	0xc7
ARM GAS  C:\Users\PCHAUT~1\AppData\Local\Temp\ccgoQRgJ.s 			page 110


 6214 01cc C3000000 		.4byte	0xc3
 6215 01d0 02       		.uleb128 0x2
 6216 01d1 7D020000 		.4byte	.LASF38
 6217 01d5 06       		.byte	0x6
 6218 01d6 DA       		.byte	0xda
 6219 01d7 C3000000 		.4byte	0xc3
 6220 01db 06       		.uleb128 0x6
 6221 01dc 40       		.byte	0x40
 6222 01dd 06       		.byte	0x6
 6223 01de EA       		.byte	0xea
 6224 01df 77020000 		.4byte	0x277
 6225 01e3 07       		.uleb128 0x7
 6226 01e4 F2100000 		.4byte	.LASF39
 6227 01e8 06       		.byte	0x6
 6228 01e9 EB       		.byte	0xeb
 6229 01ea BA010000 		.4byte	0x1ba
 6230 01ee 00       		.byte	0
 6231 01ef 07       		.uleb128 0x7
 6232 01f0 D7000000 		.4byte	.LASF40
 6233 01f4 06       		.byte	0x6
 6234 01f5 ED       		.byte	0xed
 6235 01f6 C5010000 		.4byte	0x1c5
 6236 01fa 01       		.byte	0x1
 6237 01fb 07       		.uleb128 0x7
 6238 01fc 450C0000 		.4byte	.LASF41
 6239 0200 06       		.byte	0x6
 6240 0201 F0       		.byte	0xf0
 6241 0202 EF000000 		.4byte	0xef
 6242 0206 04       		.byte	0x4
 6243 0207 07       		.uleb128 0x7
 6244 0208 AB090000 		.4byte	.LASF42
 6245 020c 06       		.byte	0x6
 6246 020d F2       		.byte	0xf2
 6247 020e EF000000 		.4byte	0xef
 6248 0212 08       		.byte	0x8
 6249 0213 07       		.uleb128 0x7
 6250 0214 50010000 		.4byte	.LASF43
 6251 0218 06       		.byte	0x6
 6252 0219 F5       		.byte	0xf5
 6253 021a C3000000 		.4byte	0xc3
 6254 021e 0C       		.byte	0xc
 6255 021f 07       		.uleb128 0x7
 6256 0220 16020000 		.4byte	.LASF44
 6257 0224 06       		.byte	0x6
 6258 0225 F7       		.byte	0xf7
 6259 0226 D9000000 		.4byte	0xd9
 6260 022a 0E       		.byte	0xe
 6261 022b 07       		.uleb128 0x7
 6262 022c 1A110000 		.4byte	.LASF45
 6263 0230 06       		.byte	0x6
 6264 0231 F9       		.byte	0xf9
 6265 0232 11010000 		.4byte	0x111
 6266 0236 10       		.byte	0x10
 6267 0237 07       		.uleb128 0x7
 6268 0238 D60A0000 		.4byte	.LASF46
 6269 023c 06       		.byte	0x6
 6270 023d FC       		.byte	0xfc
ARM GAS  C:\Users\PCHAUT~1\AppData\Local\Temp\ccgoQRgJ.s 			page 111


 6271 023e E4000000 		.4byte	0xe4
 6272 0242 14       		.byte	0x14
 6273 0243 07       		.uleb128 0x7
 6274 0244 9A020000 		.4byte	.LASF47
 6275 0248 06       		.byte	0x6
 6276 0249 FF       		.byte	0xff
 6277 024a 77020000 		.4byte	0x277
 6278 024e 18       		.byte	0x18
 6279 024f 0A       		.uleb128 0xa
 6280 0250 86040000 		.4byte	.LASF48
 6281 0254 06       		.byte	0x6
 6282 0255 0101     		.2byte	0x101
 6283 0257 77020000 		.4byte	0x277
 6284 025b 1E       		.byte	0x1e
 6285 025c 0A       		.uleb128 0xa
 6286 025d 440A0000 		.4byte	.LASF49
 6287 0261 06       		.byte	0x6
 6288 0262 0401     		.2byte	0x104
 6289 0264 87020000 		.4byte	0x287
 6290 0268 24       		.byte	0x24
 6291 0269 0A       		.uleb128 0xa
 6292 026a 56040000 		.4byte	.LASF50
 6293 026e 06       		.byte	0x6
 6294 026f 0701     		.2byte	0x107
 6295 0271 C3000000 		.4byte	0xc3
 6296 0275 3C       		.byte	0x3c
 6297 0276 00       		.byte	0
 6298 0277 08       		.uleb128 0x8
 6299 0278 C3000000 		.4byte	0xc3
 6300 027c 87020000 		.4byte	0x287
 6301 0280 09       		.uleb128 0x9
 6302 0281 B1000000 		.4byte	0xb1
 6303 0285 05       		.byte	0x5
 6304 0286 00       		.byte	0
 6305 0287 08       		.uleb128 0x8
 6306 0288 11010000 		.4byte	0x111
 6307 028c 97020000 		.4byte	0x297
 6308 0290 09       		.uleb128 0x9
 6309 0291 B1000000 		.4byte	0xb1
 6310 0295 05       		.byte	0x5
 6311 0296 00       		.byte	0
 6312 0297 0B       		.uleb128 0xb
 6313 0298 14070000 		.4byte	.LASF51
 6314 029c 06       		.byte	0x6
 6315 029d 0901     		.2byte	0x109
 6316 029f DB010000 		.4byte	0x1db
 6317 02a3 0B       		.uleb128 0xb
 6318 02a4 6A100000 		.4byte	.LASF52
 6319 02a8 06       		.byte	0x6
 6320 02a9 1101     		.2byte	0x111
 6321 02ab C3000000 		.4byte	0xc3
 6322 02af 0C       		.uleb128 0xc
 6323 02b0 08       		.byte	0x8
 6324 02b1 06       		.byte	0x6
 6325 02b2 2701     		.2byte	0x127
 6326 02b4 D3020000 		.4byte	0x2d3
 6327 02b8 0A       		.uleb128 0xa
ARM GAS  C:\Users\PCHAUT~1\AppData\Local\Temp\ccgoQRgJ.s 			page 112


 6328 02b9 E8070000 		.4byte	.LASF53
 6329 02bd 06       		.byte	0x6
 6330 02be 2801     		.2byte	0x128
 6331 02c0 E4000000 		.4byte	0xe4
 6332 02c4 00       		.byte	0
 6333 02c5 0A       		.uleb128 0xa
 6334 02c6 C40F0000 		.4byte	.LASF54
 6335 02ca 06       		.byte	0x6
 6336 02cb 2A01     		.2byte	0x12a
 6337 02cd E4000000 		.4byte	0xe4
 6338 02d1 04       		.byte	0x4
 6339 02d2 00       		.byte	0
 6340 02d3 0B       		.uleb128 0xb
 6341 02d4 8A100000 		.4byte	.LASF55
 6342 02d8 06       		.byte	0x6
 6343 02d9 2C01     		.2byte	0x12c
 6344 02db AF020000 		.4byte	0x2af
 6345 02df 0C       		.uleb128 0xc
 6346 02e0 1C       		.byte	0x1c
 6347 02e1 06       		.byte	0x6
 6348 02e2 3201     		.2byte	0x132
 6349 02e4 6B030000 		.4byte	0x36b
 6350 02e8 0A       		.uleb128 0xa
 6351 02e9 A51C0000 		.4byte	.LASF56
 6352 02ed 06       		.byte	0x6
 6353 02ee 3301     		.2byte	0x133
 6354 02f0 EF000000 		.4byte	0xef
 6355 02f4 00       		.byte	0
 6356 02f5 0A       		.uleb128 0xa
 6357 02f6 8D0B0000 		.4byte	.LASF57
 6358 02fa 06       		.byte	0x6
 6359 02fb 3401     		.2byte	0x134
 6360 02fd EF000000 		.4byte	0xef
 6361 0301 04       		.byte	0x4
 6362 0302 0A       		.uleb128 0xa
 6363 0303 3E1B0000 		.4byte	.LASF58
 6364 0307 06       		.byte	0x6
 6365 0308 3901     		.2byte	0x139
 6366 030a D9000000 		.4byte	0xd9
 6367 030e 08       		.byte	0x8
 6368 030f 0A       		.uleb128 0xa
 6369 0310 B8040000 		.4byte	.LASF59
 6370 0314 06       		.byte	0x6
 6371 0315 3B01     		.2byte	0x13b
 6372 0317 D9000000 		.4byte	0xd9
 6373 031b 0A       		.byte	0xa
 6374 031c 0A       		.uleb128 0xa
 6375 031d 76000000 		.4byte	.LASF60
 6376 0321 06       		.byte	0x6
 6377 0322 4001     		.2byte	0x140
 6378 0324 11010000 		.4byte	0x111
 6379 0328 0C       		.byte	0xc
 6380 0329 0A       		.uleb128 0xa
 6381 032a C5020000 		.4byte	.LASF61
 6382 032e 06       		.byte	0x6
 6383 032f 4401     		.2byte	0x144
 6384 0331 11010000 		.4byte	0x111
ARM GAS  C:\Users\PCHAUT~1\AppData\Local\Temp\ccgoQRgJ.s 			page 113


 6385 0335 10       		.byte	0x10
 6386 0336 0A       		.uleb128 0xa
 6387 0337 5B090000 		.4byte	.LASF62
 6388 033b 06       		.byte	0x6
 6389 033c 4901     		.2byte	0x149
 6390 033e D9000000 		.4byte	0xd9
 6391 0342 14       		.byte	0x14
 6392 0343 0A       		.uleb128 0xa
 6393 0344 89140000 		.4byte	.LASF63
 6394 0348 06       		.byte	0x6
 6395 0349 4D01     		.2byte	0x14d
 6396 034b C3000000 		.4byte	0xc3
 6397 034f 16       		.byte	0x16
 6398 0350 0A       		.uleb128 0xa
 6399 0351 8E1B0000 		.4byte	.LASF64
 6400 0355 06       		.byte	0x6
 6401 0356 5001     		.2byte	0x150
 6402 0358 C3000000 		.4byte	0xc3
 6403 035c 17       		.byte	0x17
 6404 035d 0A       		.uleb128 0xa
 6405 035e 1B0E0000 		.4byte	.LASF65
 6406 0362 06       		.byte	0x6
 6407 0363 5301     		.2byte	0x153
 6408 0365 C3000000 		.4byte	0xc3
 6409 0369 18       		.byte	0x18
 6410 036a 00       		.byte	0
 6411 036b 0B       		.uleb128 0xb
 6412 036c 7D110000 		.4byte	.LASF66
 6413 0370 06       		.byte	0x6
 6414 0371 5701     		.2byte	0x157
 6415 0373 DF020000 		.4byte	0x2df
 6416 0377 0C       		.uleb128 0xc
 6417 0378 68       		.byte	0x68
 6418 0379 06       		.byte	0x6
 6419 037a 6001     		.2byte	0x160
 6420 037c CF030000 		.4byte	0x3cf
 6421 0380 0A       		.uleb128 0xa
 6422 0381 360A0000 		.4byte	.LASF67
 6423 0385 06       		.byte	0x6
 6424 0386 6201     		.2byte	0x162
 6425 0388 CF030000 		.4byte	0x3cf
 6426 038c 00       		.byte	0
 6427 038d 0A       		.uleb128 0xa
 6428 038e D6060000 		.4byte	.LASF68
 6429 0392 06       		.byte	0x6
 6430 0393 6401     		.2byte	0x164
 6431 0395 C3000000 		.4byte	0xc3
 6432 0399 60       		.byte	0x60
 6433 039a 0A       		.uleb128 0xa
 6434 039b 270E0000 		.4byte	.LASF69
 6435 039f 06       		.byte	0x6
 6436 03a0 6601     		.2byte	0x166
 6437 03a2 C3000000 		.4byte	0xc3
 6438 03a6 61       		.byte	0x61
 6439 03a7 0A       		.uleb128 0xa
 6440 03a8 D00C0000 		.4byte	.LASF70
 6441 03ac 06       		.byte	0x6
ARM GAS  C:\Users\PCHAUT~1\AppData\Local\Temp\ccgoQRgJ.s 			page 114


 6442 03ad 6701     		.2byte	0x167
 6443 03af C3000000 		.4byte	0xc3
 6444 03b3 62       		.byte	0x62
 6445 03b4 0A       		.uleb128 0xa
 6446 03b5 A3180000 		.4byte	.LASF71
 6447 03b9 06       		.byte	0x6
 6448 03ba 6801     		.2byte	0x168
 6449 03bc C3000000 		.4byte	0xc3
 6450 03c0 63       		.byte	0x63
 6451 03c1 0A       		.uleb128 0xa
 6452 03c2 B9020000 		.4byte	.LASF72
 6453 03c6 06       		.byte	0x6
 6454 03c7 6B01     		.2byte	0x16b
 6455 03c9 21010000 		.4byte	0x121
 6456 03cd 64       		.byte	0x64
 6457 03ce 00       		.byte	0
 6458 03cf 08       		.uleb128 0x8
 6459 03d0 EF000000 		.4byte	0xef
 6460 03d4 DF030000 		.4byte	0x3df
 6461 03d8 09       		.uleb128 0x9
 6462 03d9 B1000000 		.4byte	0xb1
 6463 03dd 17       		.byte	0x17
 6464 03de 00       		.byte	0
 6465 03df 0B       		.uleb128 0xb
 6466 03e0 D71C0000 		.4byte	.LASF73
 6467 03e4 06       		.byte	0x6
 6468 03e5 6E01     		.2byte	0x16e
 6469 03e7 77030000 		.4byte	0x377
 6470 03eb 0C       		.uleb128 0xc
 6471 03ec 0C       		.byte	0xc
 6472 03ed 06       		.byte	0x6
 6473 03ee 7601     		.2byte	0x176
 6474 03f0 0F040000 		.4byte	0x40f
 6475 03f4 0A       		.uleb128 0xa
 6476 03f5 EB080000 		.4byte	.LASF74
 6477 03f9 06       		.byte	0x6
 6478 03fa 7701     		.2byte	0x177
 6479 03fc 77020000 		.4byte	0x277
 6480 0400 00       		.byte	0
 6481 0401 0A       		.uleb128 0xa
 6482 0402 55150000 		.4byte	.LASF75
 6483 0406 06       		.byte	0x6
 6484 0407 7901     		.2byte	0x179
 6485 0409 77020000 		.4byte	0x277
 6486 040d 06       		.byte	0x6
 6487 040e 00       		.byte	0
 6488 040f 0B       		.uleb128 0xb
 6489 0410 020D0000 		.4byte	.LASF76
 6490 0414 06       		.byte	0x6
 6491 0415 7B01     		.2byte	0x17b
 6492 0417 EB030000 		.4byte	0x3eb
 6493 041b 0C       		.uleb128 0xc
 6494 041c 50       		.byte	0x50
 6495 041d 06       		.byte	0x6
 6496 041e 7D01     		.2byte	0x17d
 6497 0420 29050000 		.4byte	0x529
 6498 0424 0A       		.uleb128 0xa
ARM GAS  C:\Users\PCHAUT~1\AppData\Local\Temp\ccgoQRgJ.s 			page 115


 6499 0425 62080000 		.4byte	.LASF77
 6500 0429 06       		.byte	0x6
 6501 042a 7E01     		.2byte	0x17e
 6502 042c 11010000 		.4byte	0x111
 6503 0430 00       		.byte	0
 6504 0431 0A       		.uleb128 0xa
 6505 0432 B11B0000 		.4byte	.LASF78
 6506 0436 06       		.byte	0x6
 6507 0437 8001     		.2byte	0x180
 6508 0439 D9000000 		.4byte	0xd9
 6509 043d 04       		.byte	0x4
 6510 043e 0A       		.uleb128 0xa
 6511 043f EE190000 		.4byte	.LASF79
 6512 0443 06       		.byte	0x6
 6513 0444 8301     		.2byte	0x183
 6514 0446 2C010000 		.4byte	0x12c
 6515 044a 06       		.byte	0x6
 6516 044b 0A       		.uleb128 0xa
 6517 044c 12140000 		.4byte	.LASF80
 6518 0450 06       		.byte	0x6
 6519 0451 8601     		.2byte	0x186
 6520 0453 EF000000 		.4byte	0xef
 6521 0457 08       		.byte	0x8
 6522 0458 0A       		.uleb128 0xa
 6523 0459 F7180000 		.4byte	.LASF81
 6524 045d 06       		.byte	0x6
 6525 045e 8801     		.2byte	0x188
 6526 0460 C3000000 		.4byte	0xc3
 6527 0464 0C       		.byte	0xc
 6528 0465 0A       		.uleb128 0xa
 6529 0466 B0180000 		.4byte	.LASF82
 6530 046a 06       		.byte	0x6
 6531 046b 8A01     		.2byte	0x18a
 6532 046d EF000000 		.4byte	0xef
 6533 0471 10       		.byte	0x10
 6534 0472 0A       		.uleb128 0xa
 6535 0473 78010000 		.4byte	.LASF83
 6536 0477 06       		.byte	0x6
 6537 0478 8C01     		.2byte	0x18c
 6538 047a C3000000 		.4byte	0xc3
 6539 047e 14       		.byte	0x14
 6540 047f 0A       		.uleb128 0xa
 6541 0480 701B0000 		.4byte	.LASF84
 6542 0484 06       		.byte	0x6
 6543 0485 8F01     		.2byte	0x18f
 6544 0487 D9000000 		.4byte	0xd9
 6545 048b 16       		.byte	0x16
 6546 048c 0A       		.uleb128 0xa
 6547 048d 330B0000 		.4byte	.LASF85
 6548 0491 06       		.byte	0x6
 6549 0492 9101     		.2byte	0x191
 6550 0494 D9000000 		.4byte	0xd9
 6551 0498 18       		.byte	0x18
 6552 0499 0A       		.uleb128 0xa
 6553 049a 65180000 		.4byte	.LASF86
 6554 049e 06       		.byte	0x6
 6555 049f 9401     		.2byte	0x194
ARM GAS  C:\Users\PCHAUT~1\AppData\Local\Temp\ccgoQRgJ.s 			page 116


 6556 04a1 D9000000 		.4byte	0xd9
 6557 04a5 1A       		.byte	0x1a
 6558 04a6 0A       		.uleb128 0xa
 6559 04a7 2E0C0000 		.4byte	.LASF87
 6560 04ab 06       		.byte	0x6
 6561 04ac 9901     		.2byte	0x199
 6562 04ae C3000000 		.4byte	0xc3
 6563 04b2 1C       		.byte	0x1c
 6564 04b3 0A       		.uleb128 0xa
 6565 04b4 2D0A0000 		.4byte	.LASF88
 6566 04b8 06       		.byte	0x6
 6567 04b9 9B01     		.2byte	0x19b
 6568 04bb C3000000 		.4byte	0xc3
 6569 04bf 1D       		.byte	0x1d
 6570 04c0 0A       		.uleb128 0xa
 6571 04c1 EF040000 		.4byte	.LASF89
 6572 04c5 06       		.byte	0x6
 6573 04c6 9C01     		.2byte	0x19c
 6574 04c8 C3000000 		.4byte	0xc3
 6575 04cc 1E       		.byte	0x1e
 6576 04cd 0A       		.uleb128 0xa
 6577 04ce 90020000 		.4byte	.LASF29
 6578 04d2 06       		.byte	0x6
 6579 04d3 9D01     		.2byte	0x19d
 6580 04d5 88010000 		.4byte	0x188
 6581 04d9 1F       		.byte	0x1f
 6582 04da 0A       		.uleb128 0xa
 6583 04db E9090000 		.4byte	.LASF90
 6584 04df 06       		.byte	0x6
 6585 04e0 9F01     		.2byte	0x19f
 6586 04e2 C3000000 		.4byte	0xc3
 6587 04e6 3F       		.byte	0x3f
 6588 04e7 0A       		.uleb128 0xa
 6589 04e8 64000000 		.4byte	.LASF91
 6590 04ec 06       		.byte	0x6
 6591 04ed A001     		.2byte	0x1a0
 6592 04ef C3000000 		.4byte	0xc3
 6593 04f3 40       		.byte	0x40
 6594 04f4 0A       		.uleb128 0xa
 6595 04f5 9E0E0000 		.4byte	.LASF92
 6596 04f9 06       		.byte	0x6
 6597 04fa A101     		.2byte	0x1a1
 6598 04fc C3000000 		.4byte	0xc3
 6599 0500 41       		.byte	0x41
 6600 0501 0A       		.uleb128 0xa
 6601 0502 36130000 		.4byte	.LASF93
 6602 0506 06       		.byte	0x6
 6603 0507 A201     		.2byte	0x1a2
 6604 0509 EF000000 		.4byte	0xef
 6605 050d 44       		.byte	0x44
 6606 050e 0A       		.uleb128 0xa
 6607 050f 93000000 		.4byte	.LASF94
 6608 0513 06       		.byte	0x6
 6609 0514 A301     		.2byte	0x1a3
 6610 0516 EF000000 		.4byte	0xef
 6611 051a 48       		.byte	0x48
 6612 051b 0A       		.uleb128 0xa
ARM GAS  C:\Users\PCHAUT~1\AppData\Local\Temp\ccgoQRgJ.s 			page 117


 6613 051c 331D0000 		.4byte	.LASF95
 6614 0520 06       		.byte	0x6
 6615 0521 A401     		.2byte	0x1a4
 6616 0523 11010000 		.4byte	0x111
 6617 0527 4C       		.byte	0x4c
 6618 0528 00       		.byte	0
 6619 0529 0B       		.uleb128 0xb
 6620 052a 1A060000 		.4byte	.LASF96
 6621 052e 06       		.byte	0x6
 6622 052f A701     		.2byte	0x1a7
 6623 0531 1B040000 		.4byte	0x41b
 6624 0535 0D       		.uleb128 0xd
 6625 0536 5C01     		.2byte	0x15c
 6626 0538 06       		.byte	0x6
 6627 0539 B101     		.2byte	0x1b1
 6628 053b 97060000 		.4byte	0x697
 6629 053f 0A       		.uleb128 0xa
 6630 0540 840B0000 		.4byte	.LASF97
 6631 0544 06       		.byte	0x6
 6632 0545 B201     		.2byte	0x1b2
 6633 0547 D3020000 		.4byte	0x2d3
 6634 054b 00       		.byte	0
 6635 054c 0A       		.uleb128 0xa
 6636 054d 7A050000 		.4byte	.LASF98
 6637 0551 06       		.byte	0x6
 6638 0552 B401     		.2byte	0x1b4
 6639 0554 E4000000 		.4byte	0xe4
 6640 0558 08       		.byte	0x8
 6641 0559 0A       		.uleb128 0xa
 6642 055a AA070000 		.4byte	.LASF99
 6643 055e 06       		.byte	0x6
 6644 055f B601     		.2byte	0x1b6
 6645 0561 E4000000 		.4byte	0xe4
 6646 0565 0C       		.byte	0xc
 6647 0566 0A       		.uleb128 0xa
 6648 0567 54160000 		.4byte	.LASF100
 6649 056b 06       		.byte	0x6
 6650 056c B801     		.2byte	0x1b8
 6651 056e 97020000 		.4byte	0x297
 6652 0572 10       		.byte	0x10
 6653 0573 0A       		.uleb128 0xa
 6654 0574 910C0000 		.4byte	.LASF101
 6655 0578 06       		.byte	0x6
 6656 0579 BA01     		.2byte	0x1ba
 6657 057b 6B030000 		.4byte	0x36b
 6658 057f 50       		.byte	0x50
 6659 0580 0A       		.uleb128 0xa
 6660 0581 ED1A0000 		.4byte	.LASF102
 6661 0585 06       		.byte	0x6
 6662 0586 BC01     		.2byte	0x1bc
 6663 0588 DF030000 		.4byte	0x3df
 6664 058c 6C       		.byte	0x6c
 6665 058d 0A       		.uleb128 0xa
 6666 058e BC170000 		.4byte	.LASF103
 6667 0592 06       		.byte	0x6
 6668 0593 BE01     		.2byte	0x1be
 6669 0595 29050000 		.4byte	0x529
ARM GAS  C:\Users\PCHAUT~1\AppData\Local\Temp\ccgoQRgJ.s 			page 118


 6670 0599 D4       		.byte	0xd4
 6671 059a 0E       		.uleb128 0xe
 6672 059b A2090000 		.4byte	.LASF104
 6673 059f 06       		.byte	0x6
 6674 05a0 C001     		.2byte	0x1c0
 6675 05a2 0F040000 		.4byte	0x40f
 6676 05a6 2401     		.2byte	0x124
 6677 05a8 0E       		.uleb128 0xe
 6678 05a9 42120000 		.4byte	.LASF105
 6679 05ad 06       		.byte	0x6
 6680 05ae C201     		.2byte	0x1c2
 6681 05b0 C3000000 		.4byte	0xc3
 6682 05b4 3001     		.2byte	0x130
 6683 05b6 0E       		.uleb128 0xe
 6684 05b7 151B0000 		.4byte	.LASF106
 6685 05bb 06       		.byte	0x6
 6686 05bc C401     		.2byte	0x1c4
 6687 05be C3000000 		.4byte	0xc3
 6688 05c2 3101     		.2byte	0x131
 6689 05c4 0E       		.uleb128 0xe
 6690 05c5 9C1C0000 		.4byte	.LASF107
 6691 05c9 06       		.byte	0x6
 6692 05ca C601     		.2byte	0x1c6
 6693 05cc A3020000 		.4byte	0x2a3
 6694 05d0 3201     		.2byte	0x132
 6695 05d2 0E       		.uleb128 0xe
 6696 05d3 6C040000 		.4byte	.LASF108
 6697 05d7 06       		.byte	0x6
 6698 05d8 C801     		.2byte	0x1c8
 6699 05da D0010000 		.4byte	0x1d0
 6700 05de 3301     		.2byte	0x133
 6701 05e0 0E       		.uleb128 0xe
 6702 05e1 701B0000 		.4byte	.LASF84
 6703 05e5 06       		.byte	0x6
 6704 05e6 CA01     		.2byte	0x1ca
 6705 05e8 D9000000 		.4byte	0xd9
 6706 05ec 3401     		.2byte	0x134
 6707 05ee 0E       		.uleb128 0xe
 6708 05ef 330B0000 		.4byte	.LASF85
 6709 05f3 06       		.byte	0x6
 6710 05f4 CC01     		.2byte	0x1cc
 6711 05f6 D9000000 		.4byte	0xd9
 6712 05fa 3601     		.2byte	0x136
 6713 05fc 0E       		.uleb128 0xe
 6714 05fd 65180000 		.4byte	.LASF86
 6715 0601 06       		.byte	0x6
 6716 0602 CF01     		.2byte	0x1cf
 6717 0604 D9000000 		.4byte	0xd9
 6718 0608 3801     		.2byte	0x138
 6719 060a 0E       		.uleb128 0xe
 6720 060b 770B0000 		.4byte	.LASF109
 6721 060f 06       		.byte	0x6
 6722 0610 D201     		.2byte	0x1d2
 6723 0612 C3000000 		.4byte	0xc3
 6724 0616 3A01     		.2byte	0x13a
 6725 0618 0E       		.uleb128 0xe
 6726 0619 53070000 		.4byte	.LASF110
ARM GAS  C:\Users\PCHAUT~1\AppData\Local\Temp\ccgoQRgJ.s 			page 119


 6727 061d 06       		.byte	0x6
 6728 061e D401     		.2byte	0x1d4
 6729 0620 D9000000 		.4byte	0xd9
 6730 0624 3C01     		.2byte	0x13c
 6731 0626 0E       		.uleb128 0xe
 6732 0627 4E1B0000 		.4byte	.LASF111
 6733 062b 06       		.byte	0x6
 6734 062c D601     		.2byte	0x1d6
 6735 062e 11010000 		.4byte	0x111
 6736 0632 4001     		.2byte	0x140
 6737 0634 0E       		.uleb128 0xe
 6738 0635 43130000 		.4byte	.LASF112
 6739 0639 06       		.byte	0x6
 6740 063a D901     		.2byte	0x1d9
 6741 063c 11010000 		.4byte	0x111
 6742 0640 4401     		.2byte	0x144
 6743 0642 0E       		.uleb128 0xe
 6744 0643 E3130000 		.4byte	.LASF113
 6745 0647 06       		.byte	0x6
 6746 0648 DB01     		.2byte	0x1db
 6747 064a 11010000 		.4byte	0x111
 6748 064e 4801     		.2byte	0x148
 6749 0650 0E       		.uleb128 0xe
 6750 0651 E3170000 		.4byte	.LASF114
 6751 0655 06       		.byte	0x6
 6752 0656 DD01     		.2byte	0x1dd
 6753 0658 97060000 		.4byte	0x697
 6754 065c 4C01     		.2byte	0x14c
 6755 065e 0E       		.uleb128 0xe
 6756 065f FF080000 		.4byte	.LASF115
 6757 0663 06       		.byte	0x6
 6758 0664 DF01     		.2byte	0x1df
 6759 0666 C3000000 		.4byte	0xc3
 6760 066a 5001     		.2byte	0x150
 6761 066c 0E       		.uleb128 0xe
 6762 066d 30090000 		.4byte	.LASF116
 6763 0671 06       		.byte	0x6
 6764 0672 E101     		.2byte	0x1e1
 6765 0674 D9000000 		.4byte	0xd9
 6766 0678 5201     		.2byte	0x152
 6767 067a 0E       		.uleb128 0xe
 6768 067b ED0A0000 		.4byte	.LASF117
 6769 067f 06       		.byte	0x6
 6770 0680 E301     		.2byte	0x1e3
 6771 0682 D9000000 		.4byte	0xd9
 6772 0686 5401     		.2byte	0x154
 6773 0688 0E       		.uleb128 0xe
 6774 0689 DB180000 		.4byte	.LASF118
 6775 068d 06       		.byte	0x6
 6776 068e E501     		.2byte	0x1e5
 6777 0690 11010000 		.4byte	0x111
 6778 0694 5801     		.2byte	0x158
 6779 0696 00       		.byte	0
 6780 0697 0F       		.uleb128 0xf
 6781 0698 04       		.byte	0x4
 6782 0699 C3000000 		.4byte	0xc3
 6783 069d 0B       		.uleb128 0xb
ARM GAS  C:\Users\PCHAUT~1\AppData\Local\Temp\ccgoQRgJ.s 			page 120


 6784 069e 3C190000 		.4byte	.LASF119
 6785 06a2 06       		.byte	0x6
 6786 06a3 E801     		.2byte	0x1e8
 6787 06a5 35050000 		.4byte	0x535
 6788 06a9 0B       		.uleb128 0xb
 6789 06aa B21A0000 		.4byte	.LASF120
 6790 06ae 06       		.byte	0x6
 6791 06af FE01     		.2byte	0x1fe
 6792 06b1 C3000000 		.4byte	0xc3
 6793 06b5 0C       		.uleb128 0xc
 6794 06b6 05       		.byte	0x5
 6795 06b7 06       		.byte	0x6
 6796 06b8 0D02     		.2byte	0x20d
 6797 06ba 00070000 		.4byte	0x700
 6798 06be 0A       		.uleb128 0xa
 6799 06bf 6D0A0000 		.4byte	.LASF121
 6800 06c3 06       		.byte	0x6
 6801 06c4 0E02     		.2byte	0x20e
 6802 06c6 C3000000 		.4byte	0xc3
 6803 06ca 00       		.byte	0
 6804 06cb 0A       		.uleb128 0xa
 6805 06cc 811B0000 		.4byte	.LASF122
 6806 06d0 06       		.byte	0x6
 6807 06d1 0F02     		.2byte	0x20f
 6808 06d3 C3000000 		.4byte	0xc3
 6809 06d7 01       		.byte	0x1
 6810 06d8 0A       		.uleb128 0xa
 6811 06d9 980E0000 		.4byte	.LASF123
 6812 06dd 06       		.byte	0x6
 6813 06de 1002     		.2byte	0x210
 6814 06e0 C3000000 		.4byte	0xc3
 6815 06e4 02       		.byte	0x2
 6816 06e5 0A       		.uleb128 0xa
 6817 06e6 540E0000 		.4byte	.LASF124
 6818 06ea 06       		.byte	0x6
 6819 06eb 1102     		.2byte	0x211
 6820 06ed C3000000 		.4byte	0xc3
 6821 06f1 03       		.byte	0x3
 6822 06f2 0A       		.uleb128 0xa
 6823 06f3 B20E0000 		.4byte	.LASF125
 6824 06f7 06       		.byte	0x6
 6825 06f8 1202     		.2byte	0x212
 6826 06fa C3000000 		.4byte	0xc3
 6827 06fe 04       		.byte	0x4
 6828 06ff 00       		.byte	0
 6829 0700 0B       		.uleb128 0xb
 6830 0701 A6100000 		.4byte	.LASF126
 6831 0705 06       		.byte	0x6
 6832 0706 1302     		.2byte	0x213
 6833 0708 B5060000 		.4byte	0x6b5
 6834 070c 0B       		.uleb128 0xb
 6835 070d 37110000 		.4byte	.LASF127
 6836 0711 06       		.byte	0x6
 6837 0712 1C02     		.2byte	0x21c
 6838 0714 C3000000 		.4byte	0xc3
 6839 0718 10       		.uleb128 0x10
 6840 0719 04       		.byte	0x4
ARM GAS  C:\Users\PCHAUT~1\AppData\Local\Temp\ccgoQRgJ.s 			page 121


 6841 071a 02       		.uleb128 0x2
 6842 071b 6C110000 		.4byte	.LASF128
 6843 071f 07       		.byte	0x7
 6844 0720 22       		.byte	0x22
 6845 0721 25070000 		.4byte	0x725
 6846 0725 0F       		.uleb128 0xf
 6847 0726 04       		.byte	0x4
 6848 0727 2B070000 		.4byte	0x72b
 6849 072b 11       		.uleb128 0x11
 6850 072c 4C180000 		.4byte	.LASF234
 6851 0730 02       		.uleb128 0x2
 6852 0731 AA1B0000 		.4byte	.LASF129
 6853 0735 08       		.byte	0x8
 6854 0736 2C       		.byte	0x2c
 6855 0737 78000000 		.4byte	0x78
 6856 073b 02       		.uleb128 0x2
 6857 073c D6040000 		.4byte	.LASF130
 6858 0740 08       		.byte	0x8
 6859 0741 72       		.byte	0x72
 6860 0742 78000000 		.4byte	0x78
 6861 0746 0B       		.uleb128 0xb
 6862 0747 DC170000 		.4byte	.LASF131
 6863 074b 09       		.byte	0x9
 6864 074c 6501     		.2byte	0x165
 6865 074e B1000000 		.4byte	0xb1
 6866 0752 12       		.uleb128 0x12
 6867 0753 04       		.byte	0x4
 6868 0754 08       		.byte	0x8
 6869 0755 A6       		.byte	0xa6
 6870 0756 71070000 		.4byte	0x771
 6871 075a 13       		.uleb128 0x13
 6872 075b 3A0D0000 		.4byte	.LASF132
 6873 075f 08       		.byte	0x8
 6874 0760 A8       		.byte	0xa8
 6875 0761 46070000 		.4byte	0x746
 6876 0765 13       		.uleb128 0x13
 6877 0766 F5130000 		.4byte	.LASF133
 6878 076a 08       		.byte	0x8
 6879 076b A9       		.byte	0xa9
 6880 076c 71070000 		.4byte	0x771
 6881 0770 00       		.byte	0
 6882 0771 08       		.uleb128 0x8
 6883 0772 42000000 		.4byte	0x42
 6884 0776 81070000 		.4byte	0x781
 6885 077a 09       		.uleb128 0x9
 6886 077b B1000000 		.4byte	0xb1
 6887 077f 03       		.byte	0x3
 6888 0780 00       		.byte	0
 6889 0781 06       		.uleb128 0x6
 6890 0782 08       		.byte	0x8
 6891 0783 08       		.byte	0x8
 6892 0784 A3       		.byte	0xa3
 6893 0785 A2070000 		.4byte	0x7a2
 6894 0789 07       		.uleb128 0x7
 6895 078a AB060000 		.4byte	.LASF134
 6896 078e 08       		.byte	0x8
 6897 078f A5       		.byte	0xa5
ARM GAS  C:\Users\PCHAUT~1\AppData\Local\Temp\ccgoQRgJ.s 			page 122


 6898 0790 AA000000 		.4byte	0xaa
 6899 0794 00       		.byte	0
 6900 0795 07       		.uleb128 0x7
 6901 0796 0F0B0000 		.4byte	.LASF135
 6902 079a 08       		.byte	0x8
 6903 079b AA       		.byte	0xaa
 6904 079c 52070000 		.4byte	0x752
 6905 07a0 04       		.byte	0x4
 6906 07a1 00       		.byte	0
 6907 07a2 02       		.uleb128 0x2
 6908 07a3 A80F0000 		.4byte	.LASF136
 6909 07a7 08       		.byte	0x8
 6910 07a8 AB       		.byte	0xab
 6911 07a9 81070000 		.4byte	0x781
 6912 07ad 02       		.uleb128 0x2
 6913 07ae EB0C0000 		.4byte	.LASF137
 6914 07b2 08       		.byte	0x8
 6915 07b3 AF       		.byte	0xaf
 6916 07b4 1A070000 		.4byte	0x71a
 6917 07b8 02       		.uleb128 0x2
 6918 07b9 E5030000 		.4byte	.LASF138
 6919 07bd 0A       		.byte	0xa
 6920 07be 16       		.byte	0x16
 6921 07bf 8A000000 		.4byte	0x8a
 6922 07c3 14       		.uleb128 0x14
 6923 07c4 9E050000 		.4byte	.LASF143
 6924 07c8 18       		.byte	0x18
 6925 07c9 0A       		.byte	0xa
 6926 07ca 2F       		.byte	0x2f
 6927 07cb 16080000 		.4byte	0x816
 6928 07cf 07       		.uleb128 0x7
 6929 07d0 051D0000 		.4byte	.LASF139
 6930 07d4 0A       		.byte	0xa
 6931 07d5 31       		.byte	0x31
 6932 07d6 16080000 		.4byte	0x816
 6933 07da 00       		.byte	0
 6934 07db 15       		.uleb128 0x15
 6935 07dc 5F6B00   		.ascii	"_k\000"
 6936 07df 0A       		.byte	0xa
 6937 07e0 32       		.byte	0x32
 6938 07e1 AA000000 		.4byte	0xaa
 6939 07e5 04       		.byte	0x4
 6940 07e6 07       		.uleb128 0x7
 6941 07e7 8B000000 		.4byte	.LASF140
 6942 07eb 0A       		.byte	0xa
 6943 07ec 32       		.byte	0x32
 6944 07ed AA000000 		.4byte	0xaa
 6945 07f1 08       		.byte	0x8
 6946 07f2 07       		.uleb128 0x7
 6947 07f3 8A130000 		.4byte	.LASF141
 6948 07f7 0A       		.byte	0xa
 6949 07f8 32       		.byte	0x32
 6950 07f9 AA000000 		.4byte	0xaa
 6951 07fd 0C       		.byte	0xc
 6952 07fe 07       		.uleb128 0x7
 6953 07ff 15080000 		.4byte	.LASF142
 6954 0803 0A       		.byte	0xa
ARM GAS  C:\Users\PCHAUT~1\AppData\Local\Temp\ccgoQRgJ.s 			page 123


 6955 0804 32       		.byte	0x32
 6956 0805 AA000000 		.4byte	0xaa
 6957 0809 10       		.byte	0x10
 6958 080a 15       		.uleb128 0x15
 6959 080b 5F7800   		.ascii	"_x\000"
 6960 080e 0A       		.byte	0xa
 6961 080f 33       		.byte	0x33
 6962 0810 1C080000 		.4byte	0x81c
 6963 0814 14       		.byte	0x14
 6964 0815 00       		.byte	0
 6965 0816 0F       		.uleb128 0xf
 6966 0817 04       		.byte	0x4
 6967 0818 C3070000 		.4byte	0x7c3
 6968 081c 08       		.uleb128 0x8
 6969 081d B8070000 		.4byte	0x7b8
 6970 0821 2C080000 		.4byte	0x82c
 6971 0825 09       		.uleb128 0x9
 6972 0826 B1000000 		.4byte	0xb1
 6973 082a 00       		.byte	0
 6974 082b 00       		.byte	0
 6975 082c 14       		.uleb128 0x14
 6976 082d FD150000 		.4byte	.LASF144
 6977 0831 24       		.byte	0x24
 6978 0832 0A       		.byte	0xa
 6979 0833 37       		.byte	0x37
 6980 0834 A5080000 		.4byte	0x8a5
 6981 0838 07       		.uleb128 0x7
 6982 0839 DB010000 		.4byte	.LASF145
 6983 083d 0A       		.byte	0xa
 6984 083e 39       		.byte	0x39
 6985 083f AA000000 		.4byte	0xaa
 6986 0843 00       		.byte	0
 6987 0844 07       		.uleb128 0x7
 6988 0845 0B070000 		.4byte	.LASF146
 6989 0849 0A       		.byte	0xa
 6990 084a 3A       		.byte	0x3a
 6991 084b AA000000 		.4byte	0xaa
 6992 084f 04       		.byte	0x4
 6993 0850 07       		.uleb128 0x7
 6994 0851 4D060000 		.4byte	.LASF147
 6995 0855 0A       		.byte	0xa
 6996 0856 3B       		.byte	0x3b
 6997 0857 AA000000 		.4byte	0xaa
 6998 085b 08       		.byte	0x8
 6999 085c 07       		.uleb128 0x7
 7000 085d 020C0000 		.4byte	.LASF148
 7001 0861 0A       		.byte	0xa
 7002 0862 3C       		.byte	0x3c
 7003 0863 AA000000 		.4byte	0xaa
 7004 0867 0C       		.byte	0xc
 7005 0868 07       		.uleb128 0x7
 7006 0869 E9100000 		.4byte	.LASF149
 7007 086d 0A       		.byte	0xa
 7008 086e 3D       		.byte	0x3d
 7009 086f AA000000 		.4byte	0xaa
 7010 0873 10       		.byte	0x10
 7011 0874 07       		.uleb128 0x7
ARM GAS  C:\Users\PCHAUT~1\AppData\Local\Temp\ccgoQRgJ.s 			page 124


 7012 0875 7F140000 		.4byte	.LASF150
 7013 0879 0A       		.byte	0xa
 7014 087a 3E       		.byte	0x3e
 7015 087b AA000000 		.4byte	0xaa
 7016 087f 14       		.byte	0x14
 7017 0880 07       		.uleb128 0x7
 7018 0881 A6050000 		.4byte	.LASF151
 7019 0885 0A       		.byte	0xa
 7020 0886 3F       		.byte	0x3f
 7021 0887 AA000000 		.4byte	0xaa
 7022 088b 18       		.byte	0x18
 7023 088c 07       		.uleb128 0x7
 7024 088d 190A0000 		.4byte	.LASF152
 7025 0891 0A       		.byte	0xa
 7026 0892 40       		.byte	0x40
 7027 0893 AA000000 		.4byte	0xaa
 7028 0897 1C       		.byte	0x1c
 7029 0898 07       		.uleb128 0x7
 7030 0899 D30F0000 		.4byte	.LASF153
 7031 089d 0A       		.byte	0xa
 7032 089e 41       		.byte	0x41
 7033 089f AA000000 		.4byte	0xaa
 7034 08a3 20       		.byte	0x20
 7035 08a4 00       		.byte	0
 7036 08a5 16       		.uleb128 0x16
 7037 08a6 C9000000 		.4byte	.LASF154
 7038 08aa 0801     		.2byte	0x108
 7039 08ac 0A       		.byte	0xa
 7040 08ad 4A       		.byte	0x4a
 7041 08ae E5080000 		.4byte	0x8e5
 7042 08b2 07       		.uleb128 0x7
 7043 08b3 C61A0000 		.4byte	.LASF155
 7044 08b7 0A       		.byte	0xa
 7045 08b8 4B       		.byte	0x4b
 7046 08b9 E5080000 		.4byte	0x8e5
 7047 08bd 00       		.byte	0
 7048 08be 07       		.uleb128 0x7
 7049 08bf 32180000 		.4byte	.LASF156
 7050 08c3 0A       		.byte	0xa
 7051 08c4 4C       		.byte	0x4c
 7052 08c5 E5080000 		.4byte	0x8e5
 7053 08c9 80       		.byte	0x80
 7054 08ca 17       		.uleb128 0x17
 7055 08cb 60190000 		.4byte	.LASF157
 7056 08cf 0A       		.byte	0xa
 7057 08d0 4E       		.byte	0x4e
 7058 08d1 B8070000 		.4byte	0x7b8
 7059 08d5 0001     		.2byte	0x100
 7060 08d7 17       		.uleb128 0x17
 7061 08d8 851C0000 		.4byte	.LASF158
 7062 08dc 0A       		.byte	0xa
 7063 08dd 51       		.byte	0x51
 7064 08de B8070000 		.4byte	0x7b8
 7065 08e2 0401     		.2byte	0x104
 7066 08e4 00       		.byte	0
 7067 08e5 08       		.uleb128 0x8
 7068 08e6 18070000 		.4byte	0x718
ARM GAS  C:\Users\PCHAUT~1\AppData\Local\Temp\ccgoQRgJ.s 			page 125


 7069 08ea F5080000 		.4byte	0x8f5
 7070 08ee 09       		.uleb128 0x9
 7071 08ef B1000000 		.4byte	0xb1
 7072 08f3 1F       		.byte	0x1f
 7073 08f4 00       		.byte	0
 7074 08f5 16       		.uleb128 0x16
 7075 08f6 51120000 		.4byte	.LASF159
 7076 08fa 9001     		.2byte	0x190
 7077 08fc 0A       		.byte	0xa
 7078 08fd 5D       		.byte	0x5d
 7079 08fe 33090000 		.4byte	0x933
 7080 0902 07       		.uleb128 0x7
 7081 0903 051D0000 		.4byte	.LASF139
 7082 0907 0A       		.byte	0xa
 7083 0908 5E       		.byte	0x5e
 7084 0909 33090000 		.4byte	0x933
 7085 090d 00       		.byte	0
 7086 090e 07       		.uleb128 0x7
 7087 090f 280A0000 		.4byte	.LASF160
 7088 0913 0A       		.byte	0xa
 7089 0914 5F       		.byte	0x5f
 7090 0915 AA000000 		.4byte	0xaa
 7091 0919 04       		.byte	0x4
 7092 091a 07       		.uleb128 0x7
 7093 091b EA040000 		.4byte	.LASF161
 7094 091f 0A       		.byte	0xa
 7095 0920 61       		.byte	0x61
 7096 0921 39090000 		.4byte	0x939
 7097 0925 08       		.byte	0x8
 7098 0926 07       		.uleb128 0x7
 7099 0927 C9000000 		.4byte	.LASF154
 7100 092b 0A       		.byte	0xa
 7101 092c 62       		.byte	0x62
 7102 092d A5080000 		.4byte	0x8a5
 7103 0931 88       		.byte	0x88
 7104 0932 00       		.byte	0
 7105 0933 0F       		.uleb128 0xf
 7106 0934 04       		.byte	0x4
 7107 0935 F5080000 		.4byte	0x8f5
 7108 0939 08       		.uleb128 0x8
 7109 093a 49090000 		.4byte	0x949
 7110 093e 49090000 		.4byte	0x949
 7111 0942 09       		.uleb128 0x9
 7112 0943 B1000000 		.4byte	0xb1
 7113 0947 1F       		.byte	0x1f
 7114 0948 00       		.byte	0
 7115 0949 0F       		.uleb128 0xf
 7116 094a 04       		.byte	0x4
 7117 094b 4F090000 		.4byte	0x94f
 7118 094f 18       		.uleb128 0x18
 7119 0950 14       		.uleb128 0x14
 7120 0951 B3190000 		.4byte	.LASF162
 7121 0955 08       		.byte	0x8
 7122 0956 0A       		.byte	0xa
 7123 0957 75       		.byte	0x75
 7124 0958 75090000 		.4byte	0x975
 7125 095c 07       		.uleb128 0x7
ARM GAS  C:\Users\PCHAUT~1\AppData\Local\Temp\ccgoQRgJ.s 			page 126


 7126 095d 730E0000 		.4byte	.LASF163
 7127 0961 0A       		.byte	0xa
 7128 0962 76       		.byte	0x76
 7129 0963 75090000 		.4byte	0x975
 7130 0967 00       		.byte	0
 7131 0968 07       		.uleb128 0x7
 7132 0969 881B0000 		.4byte	.LASF164
 7133 096d 0A       		.byte	0xa
 7134 096e 77       		.byte	0x77
 7135 096f AA000000 		.4byte	0xaa
 7136 0973 04       		.byte	0x4
 7137 0974 00       		.byte	0
 7138 0975 0F       		.uleb128 0xf
 7139 0976 04       		.byte	0x4
 7140 0977 42000000 		.4byte	0x42
 7141 097b 14       		.uleb128 0x14
 7142 097c 0D080000 		.4byte	.LASF165
 7143 0980 68       		.byte	0x68
 7144 0981 0A       		.byte	0xa
 7145 0982 B5       		.byte	0xb5
 7146 0983 A50A0000 		.4byte	0xaa5
 7147 0987 15       		.uleb128 0x15
 7148 0988 5F7000   		.ascii	"_p\000"
 7149 098b 0A       		.byte	0xa
 7150 098c B6       		.byte	0xb6
 7151 098d 75090000 		.4byte	0x975
 7152 0991 00       		.byte	0
 7153 0992 15       		.uleb128 0x15
 7154 0993 5F7200   		.ascii	"_r\000"
 7155 0996 0A       		.byte	0xa
 7156 0997 B7       		.byte	0xb7
 7157 0998 AA000000 		.4byte	0xaa
 7158 099c 04       		.byte	0x4
 7159 099d 15       		.uleb128 0x15
 7160 099e 5F7700   		.ascii	"_w\000"
 7161 09a1 0A       		.byte	0xa
 7162 09a2 B8       		.byte	0xb8
 7163 09a3 AA000000 		.4byte	0xaa
 7164 09a7 08       		.byte	0x8
 7165 09a8 07       		.uleb128 0x7
 7166 09a9 AC020000 		.4byte	.LASF166
 7167 09ad 0A       		.byte	0xa
 7168 09ae B9       		.byte	0xb9
 7169 09af 54000000 		.4byte	0x54
 7170 09b3 0C       		.byte	0xc
 7171 09b4 07       		.uleb128 0x7
 7172 09b5 0D0F0000 		.4byte	.LASF167
 7173 09b9 0A       		.byte	0xa
 7174 09ba BA       		.byte	0xba
 7175 09bb 54000000 		.4byte	0x54
 7176 09bf 0E       		.byte	0xe
 7177 09c0 15       		.uleb128 0x15
 7178 09c1 5F626600 		.ascii	"_bf\000"
 7179 09c5 0A       		.byte	0xa
 7180 09c6 BB       		.byte	0xbb
 7181 09c7 50090000 		.4byte	0x950
 7182 09cb 10       		.byte	0x10
ARM GAS  C:\Users\PCHAUT~1\AppData\Local\Temp\ccgoQRgJ.s 			page 127


 7183 09cc 07       		.uleb128 0x7
 7184 09cd 1F190000 		.4byte	.LASF168
 7185 09d1 0A       		.byte	0xa
 7186 09d2 BC       		.byte	0xbc
 7187 09d3 AA000000 		.4byte	0xaa
 7188 09d7 18       		.byte	0x18
 7189 09d8 07       		.uleb128 0x7
 7190 09d9 A0000000 		.4byte	.LASF169
 7191 09dd 0A       		.byte	0xa
 7192 09de C3       		.byte	0xc3
 7193 09df 18070000 		.4byte	0x718
 7194 09e3 1C       		.byte	0x1c
 7195 09e4 07       		.uleb128 0x7
 7196 09e5 C1030000 		.4byte	.LASF170
 7197 09e9 0A       		.byte	0xa
 7198 09ea C5       		.byte	0xc5
 7199 09eb 060C0000 		.4byte	0xc06
 7200 09ef 20       		.byte	0x20
 7201 09f0 07       		.uleb128 0x7
 7202 09f1 9E110000 		.4byte	.LASF171
 7203 09f5 0A       		.byte	0xa
 7204 09f6 C7       		.byte	0xc7
 7205 09f7 300C0000 		.4byte	0xc30
 7206 09fb 24       		.byte	0x24
 7207 09fc 07       		.uleb128 0x7
 7208 09fd FF1C0000 		.4byte	.LASF172
 7209 0a01 0A       		.byte	0xa
 7210 0a02 CA       		.byte	0xca
 7211 0a03 540C0000 		.4byte	0xc54
 7212 0a07 28       		.byte	0x28
 7213 0a08 07       		.uleb128 0x7
 7214 0a09 800D0000 		.4byte	.LASF173
 7215 0a0d 0A       		.byte	0xa
 7216 0a0e CB       		.byte	0xcb
 7217 0a0f 6E0C0000 		.4byte	0xc6e
 7218 0a13 2C       		.byte	0x2c
 7219 0a14 15       		.uleb128 0x15
 7220 0a15 5F756200 		.ascii	"_ub\000"
 7221 0a19 0A       		.byte	0xa
 7222 0a1a CE       		.byte	0xce
 7223 0a1b 50090000 		.4byte	0x950
 7224 0a1f 30       		.byte	0x30
 7225 0a20 15       		.uleb128 0x15
 7226 0a21 5F757000 		.ascii	"_up\000"
 7227 0a25 0A       		.byte	0xa
 7228 0a26 CF       		.byte	0xcf
 7229 0a27 75090000 		.4byte	0x975
 7230 0a2b 38       		.byte	0x38
 7231 0a2c 15       		.uleb128 0x15
 7232 0a2d 5F757200 		.ascii	"_ur\000"
 7233 0a31 0A       		.byte	0xa
 7234 0a32 D0       		.byte	0xd0
 7235 0a33 AA000000 		.4byte	0xaa
 7236 0a37 3C       		.byte	0x3c
 7237 0a38 07       		.uleb128 0x7
 7238 0a39 2D1D0000 		.4byte	.LASF174
 7239 0a3d 0A       		.byte	0xa
ARM GAS  C:\Users\PCHAUT~1\AppData\Local\Temp\ccgoQRgJ.s 			page 128


 7240 0a3e D3       		.byte	0xd3
 7241 0a3f 740C0000 		.4byte	0xc74
 7242 0a43 40       		.byte	0x40
 7243 0a44 07       		.uleb128 0x7
 7244 0a45 C41B0000 		.4byte	.LASF175
 7245 0a49 0A       		.byte	0xa
 7246 0a4a D4       		.byte	0xd4
 7247 0a4b 840C0000 		.4byte	0xc84
 7248 0a4f 43       		.byte	0x43
 7249 0a50 15       		.uleb128 0x15
 7250 0a51 5F6C6200 		.ascii	"_lb\000"
 7251 0a55 0A       		.byte	0xa
 7252 0a56 D7       		.byte	0xd7
 7253 0a57 50090000 		.4byte	0x950
 7254 0a5b 44       		.byte	0x44
 7255 0a5c 07       		.uleb128 0x7
 7256 0a5d F4150000 		.4byte	.LASF176
 7257 0a61 0A       		.byte	0xa
 7258 0a62 DA       		.byte	0xda
 7259 0a63 AA000000 		.4byte	0xaa
 7260 0a67 4C       		.byte	0x4c
 7261 0a68 07       		.uleb128 0x7
 7262 0a69 CF080000 		.4byte	.LASF177
 7263 0a6d 0A       		.byte	0xa
 7264 0a6e DB       		.byte	0xdb
 7265 0a6f 30070000 		.4byte	0x730
 7266 0a73 50       		.byte	0x50
 7267 0a74 07       		.uleb128 0x7
 7268 0a75 DD130000 		.4byte	.LASF178
 7269 0a79 0A       		.byte	0xa
 7270 0a7a DE       		.byte	0xde
 7271 0a7b C30A0000 		.4byte	0xac3
 7272 0a7f 54       		.byte	0x54
 7273 0a80 07       		.uleb128 0x7
 7274 0a81 14160000 		.4byte	.LASF179
 7275 0a85 0A       		.byte	0xa
 7276 0a86 E2       		.byte	0xe2
 7277 0a87 AD070000 		.4byte	0x7ad
 7278 0a8b 58       		.byte	0x58
 7279 0a8c 07       		.uleb128 0x7
 7280 0a8d 66030000 		.4byte	.LASF180
 7281 0a91 0A       		.byte	0xa
 7282 0a92 E4       		.byte	0xe4
 7283 0a93 A2070000 		.4byte	0x7a2
 7284 0a97 5C       		.byte	0x5c
 7285 0a98 07       		.uleb128 0x7
 7286 0a99 571C0000 		.4byte	.LASF181
 7287 0a9d 0A       		.byte	0xa
 7288 0a9e E5       		.byte	0xe5
 7289 0a9f AA000000 		.4byte	0xaa
 7290 0aa3 64       		.byte	0x64
 7291 0aa4 00       		.byte	0
 7292 0aa5 19       		.uleb128 0x19
 7293 0aa6 AA000000 		.4byte	0xaa
 7294 0aaa C30A0000 		.4byte	0xac3
 7295 0aae 1A       		.uleb128 0x1a
 7296 0aaf C30A0000 		.4byte	0xac3
ARM GAS  C:\Users\PCHAUT~1\AppData\Local\Temp\ccgoQRgJ.s 			page 129


 7297 0ab3 1A       		.uleb128 0x1a
 7298 0ab4 18070000 		.4byte	0x718
 7299 0ab8 1A       		.uleb128 0x1a
 7300 0ab9 000C0000 		.4byte	0xc00
 7301 0abd 1A       		.uleb128 0x1a
 7302 0abe AA000000 		.4byte	0xaa
 7303 0ac2 00       		.byte	0
 7304 0ac3 0F       		.uleb128 0xf
 7305 0ac4 04       		.byte	0x4
 7306 0ac5 CE0A0000 		.4byte	0xace
 7307 0ac9 05       		.uleb128 0x5
 7308 0aca C30A0000 		.4byte	0xac3
 7309 0ace 1B       		.uleb128 0x1b
 7310 0acf 59120000 		.4byte	.LASF182
 7311 0ad3 2804     		.2byte	0x428
 7312 0ad5 0A       		.byte	0xa
 7313 0ad6 3902     		.2byte	0x239
 7314 0ad8 000C0000 		.4byte	0xc00
 7315 0adc 0A       		.uleb128 0xa
 7316 0add F3020000 		.4byte	.LASF183
 7317 0ae1 0A       		.byte	0xa
 7318 0ae2 3B02     		.2byte	0x23b
 7319 0ae4 AA000000 		.4byte	0xaa
 7320 0ae8 00       		.byte	0
 7321 0ae9 0A       		.uleb128 0xa
 7322 0aea 050E0000 		.4byte	.LASF184
 7323 0aee 0A       		.byte	0xa
 7324 0aef 4002     		.2byte	0x240
 7325 0af1 DB0C0000 		.4byte	0xcdb
 7326 0af5 04       		.byte	0x4
 7327 0af6 0A       		.uleb128 0xa
 7328 0af7 85180000 		.4byte	.LASF185
 7329 0afb 0A       		.byte	0xa
 7330 0afc 4002     		.2byte	0x240
 7331 0afe DB0C0000 		.4byte	0xcdb
 7332 0b02 08       		.byte	0x8
 7333 0b03 0A       		.uleb128 0xa
 7334 0b04 1C1D0000 		.4byte	.LASF186
 7335 0b08 0A       		.byte	0xa
 7336 0b09 4002     		.2byte	0x240
 7337 0b0b DB0C0000 		.4byte	0xcdb
 7338 0b0f 0C       		.byte	0xc
 7339 0b10 0A       		.uleb128 0xa
 7340 0b11 230A0000 		.4byte	.LASF187
 7341 0b15 0A       		.byte	0xa
 7342 0b16 4202     		.2byte	0x242
 7343 0b18 AA000000 		.4byte	0xaa
 7344 0b1c 10       		.byte	0x10
 7345 0b1d 0A       		.uleb128 0xa
 7346 0b1e 19090000 		.4byte	.LASF188
 7347 0b22 0A       		.byte	0xa
 7348 0b23 4302     		.2byte	0x243
 7349 0b25 BD0E0000 		.4byte	0xebd
 7350 0b29 14       		.byte	0x14
 7351 0b2a 0A       		.uleb128 0xa
 7352 0b2b 2B1C0000 		.4byte	.LASF189
 7353 0b2f 0A       		.byte	0xa
ARM GAS  C:\Users\PCHAUT~1\AppData\Local\Temp\ccgoQRgJ.s 			page 130


 7354 0b30 4602     		.2byte	0x246
 7355 0b32 AA000000 		.4byte	0xaa
 7356 0b36 30       		.byte	0x30
 7357 0b37 0A       		.uleb128 0xa
 7358 0b38 AA1A0000 		.4byte	.LASF190
 7359 0b3c 0A       		.byte	0xa
 7360 0b3d 4702     		.2byte	0x247
 7361 0b3f D20E0000 		.4byte	0xed2
 7362 0b43 34       		.byte	0x34
 7363 0b44 0A       		.uleb128 0xa
 7364 0b45 870D0000 		.4byte	.LASF191
 7365 0b49 0A       		.byte	0xa
 7366 0b4a 4902     		.2byte	0x249
 7367 0b4c AA000000 		.4byte	0xaa
 7368 0b50 38       		.byte	0x38
 7369 0b51 0A       		.uleb128 0xa
 7370 0b52 630F0000 		.4byte	.LASF192
 7371 0b56 0A       		.byte	0xa
 7372 0b57 4B02     		.2byte	0x24b
 7373 0b59 E30E0000 		.4byte	0xee3
 7374 0b5d 3C       		.byte	0x3c
 7375 0b5e 0A       		.uleb128 0xa
 7376 0b5f 03060000 		.4byte	.LASF193
 7377 0b63 0A       		.byte	0xa
 7378 0b64 4E02     		.2byte	0x24e
 7379 0b66 16080000 		.4byte	0x816
 7380 0b6a 40       		.byte	0x40
 7381 0b6b 0A       		.uleb128 0xa
 7382 0b6c A0070000 		.4byte	.LASF194
 7383 0b70 0A       		.byte	0xa
 7384 0b71 4F02     		.2byte	0x24f
 7385 0b73 AA000000 		.4byte	0xaa
 7386 0b77 44       		.byte	0x44
 7387 0b78 0A       		.uleb128 0xa
 7388 0b79 490B0000 		.4byte	.LASF195
 7389 0b7d 0A       		.byte	0xa
 7390 0b7e 5002     		.2byte	0x250
 7391 0b80 16080000 		.4byte	0x816
 7392 0b84 48       		.byte	0x48
 7393 0b85 0A       		.uleb128 0xa
 7394 0b86 790E0000 		.4byte	.LASF196
 7395 0b8a 0A       		.byte	0xa
 7396 0b8b 5102     		.2byte	0x251
 7397 0b8d E90E0000 		.4byte	0xee9
 7398 0b91 4C       		.byte	0x4c
 7399 0b92 0A       		.uleb128 0xa
 7400 0b93 4D150000 		.4byte	.LASF197
 7401 0b97 0A       		.byte	0xa
 7402 0b98 5402     		.2byte	0x254
 7403 0b9a AA000000 		.4byte	0xaa
 7404 0b9e 50       		.byte	0x50
 7405 0b9f 0A       		.uleb128 0xa
 7406 0ba0 8D180000 		.4byte	.LASF198
 7407 0ba4 0A       		.byte	0xa
 7408 0ba5 5502     		.2byte	0x255
 7409 0ba7 000C0000 		.4byte	0xc00
 7410 0bab 54       		.byte	0x54
ARM GAS  C:\Users\PCHAUT~1\AppData\Local\Temp\ccgoQRgJ.s 			page 131


 7411 0bac 0A       		.uleb128 0xa
 7412 0bad 38150000 		.4byte	.LASF199
 7413 0bb1 0A       		.byte	0xa
 7414 0bb2 7802     		.2byte	0x278
 7415 0bb4 9B0E0000 		.4byte	0xe9b
 7416 0bb8 58       		.byte	0x58
 7417 0bb9 0E       		.uleb128 0xe
 7418 0bba 51120000 		.4byte	.LASF159
 7419 0bbe 0A       		.byte	0xa
 7420 0bbf 7C02     		.2byte	0x27c
 7421 0bc1 33090000 		.4byte	0x933
 7422 0bc5 4801     		.2byte	0x148
 7423 0bc7 0E       		.uleb128 0xe
 7424 0bc8 250C0000 		.4byte	.LASF200
 7425 0bcc 0A       		.byte	0xa
 7426 0bcd 7D02     		.2byte	0x27d
 7427 0bcf F5080000 		.4byte	0x8f5
 7428 0bd3 4C01     		.2byte	0x14c
 7429 0bd5 0E       		.uleb128 0xe
 7430 0bd6 0C0C0000 		.4byte	.LASF201
 7431 0bda 0A       		.byte	0xa
 7432 0bdb 8102     		.2byte	0x281
 7433 0bdd FA0E0000 		.4byte	0xefa
 7434 0be1 DC02     		.2byte	0x2dc
 7435 0be3 0E       		.uleb128 0xe
 7436 0be4 631A0000 		.4byte	.LASF202
 7437 0be8 0A       		.byte	0xa
 7438 0be9 8602     		.2byte	0x286
 7439 0beb A00C0000 		.4byte	0xca0
 7440 0bef E002     		.2byte	0x2e0
 7441 0bf1 0E       		.uleb128 0xe
 7442 0bf2 85130000 		.4byte	.LASF203
 7443 0bf6 0A       		.byte	0xa
 7444 0bf7 8802     		.2byte	0x288
 7445 0bf9 060F0000 		.4byte	0xf06
 7446 0bfd EC02     		.2byte	0x2ec
 7447 0bff 00       		.byte	0
 7448 0c00 0F       		.uleb128 0xf
 7449 0c01 04       		.byte	0x4
 7450 0c02 98010000 		.4byte	0x198
 7451 0c06 0F       		.uleb128 0xf
 7452 0c07 04       		.byte	0x4
 7453 0c08 A50A0000 		.4byte	0xaa5
 7454 0c0c 19       		.uleb128 0x19
 7455 0c0d AA000000 		.4byte	0xaa
 7456 0c11 2A0C0000 		.4byte	0xc2a
 7457 0c15 1A       		.uleb128 0x1a
 7458 0c16 C30A0000 		.4byte	0xac3
 7459 0c1a 1A       		.uleb128 0x1a
 7460 0c1b 18070000 		.4byte	0x718
 7461 0c1f 1A       		.uleb128 0x1a
 7462 0c20 2A0C0000 		.4byte	0xc2a
 7463 0c24 1A       		.uleb128 0x1a
 7464 0c25 AA000000 		.4byte	0xaa
 7465 0c29 00       		.byte	0
 7466 0c2a 0F       		.uleb128 0xf
 7467 0c2b 04       		.byte	0x4
ARM GAS  C:\Users\PCHAUT~1\AppData\Local\Temp\ccgoQRgJ.s 			page 132


 7468 0c2c 9F010000 		.4byte	0x19f
 7469 0c30 0F       		.uleb128 0xf
 7470 0c31 04       		.byte	0x4
 7471 0c32 0C0C0000 		.4byte	0xc0c
 7472 0c36 19       		.uleb128 0x19
 7473 0c37 3B070000 		.4byte	0x73b
 7474 0c3b 540C0000 		.4byte	0xc54
 7475 0c3f 1A       		.uleb128 0x1a
 7476 0c40 C30A0000 		.4byte	0xac3
 7477 0c44 1A       		.uleb128 0x1a
 7478 0c45 18070000 		.4byte	0x718
 7479 0c49 1A       		.uleb128 0x1a
 7480 0c4a 3B070000 		.4byte	0x73b
 7481 0c4e 1A       		.uleb128 0x1a
 7482 0c4f AA000000 		.4byte	0xaa
 7483 0c53 00       		.byte	0
 7484 0c54 0F       		.uleb128 0xf
 7485 0c55 04       		.byte	0x4
 7486 0c56 360C0000 		.4byte	0xc36
 7487 0c5a 19       		.uleb128 0x19
 7488 0c5b AA000000 		.4byte	0xaa
 7489 0c5f 6E0C0000 		.4byte	0xc6e
 7490 0c63 1A       		.uleb128 0x1a
 7491 0c64 C30A0000 		.4byte	0xac3
 7492 0c68 1A       		.uleb128 0x1a
 7493 0c69 18070000 		.4byte	0x718
 7494 0c6d 00       		.byte	0
 7495 0c6e 0F       		.uleb128 0xf
 7496 0c6f 04       		.byte	0x4
 7497 0c70 5A0C0000 		.4byte	0xc5a
 7498 0c74 08       		.uleb128 0x8
 7499 0c75 42000000 		.4byte	0x42
 7500 0c79 840C0000 		.4byte	0xc84
 7501 0c7d 09       		.uleb128 0x9
 7502 0c7e B1000000 		.4byte	0xb1
 7503 0c82 02       		.byte	0x2
 7504 0c83 00       		.byte	0
 7505 0c84 08       		.uleb128 0x8
 7506 0c85 42000000 		.4byte	0x42
 7507 0c89 940C0000 		.4byte	0xc94
 7508 0c8d 09       		.uleb128 0x9
 7509 0c8e B1000000 		.4byte	0xb1
 7510 0c92 00       		.byte	0
 7511 0c93 00       		.byte	0
 7512 0c94 0B       		.uleb128 0xb
 7513 0c95 A0080000 		.4byte	.LASF204
 7514 0c99 0A       		.byte	0xa
 7515 0c9a 1F01     		.2byte	0x11f
 7516 0c9c 7B090000 		.4byte	0x97b
 7517 0ca0 1C       		.uleb128 0x1c
 7518 0ca1 041A0000 		.4byte	.LASF205
 7519 0ca5 0C       		.byte	0xc
 7520 0ca6 0A       		.byte	0xa
 7521 0ca7 2301     		.2byte	0x123
 7522 0ca9 D50C0000 		.4byte	0xcd5
 7523 0cad 0A       		.uleb128 0xa
 7524 0cae 051D0000 		.4byte	.LASF139
ARM GAS  C:\Users\PCHAUT~1\AppData\Local\Temp\ccgoQRgJ.s 			page 133


 7525 0cb2 0A       		.byte	0xa
 7526 0cb3 2501     		.2byte	0x125
 7527 0cb5 D50C0000 		.4byte	0xcd5
 7528 0cb9 00       		.byte	0
 7529 0cba 0A       		.uleb128 0xa
 7530 0cbb D5170000 		.4byte	.LASF206
 7531 0cbf 0A       		.byte	0xa
 7532 0cc0 2601     		.2byte	0x126
 7533 0cc2 AA000000 		.4byte	0xaa
 7534 0cc6 04       		.byte	0x4
 7535 0cc7 0A       		.uleb128 0xa
 7536 0cc8 400D0000 		.4byte	.LASF207
 7537 0ccc 0A       		.byte	0xa
 7538 0ccd 2701     		.2byte	0x127
 7539 0ccf DB0C0000 		.4byte	0xcdb
 7540 0cd3 08       		.byte	0x8
 7541 0cd4 00       		.byte	0
 7542 0cd5 0F       		.uleb128 0xf
 7543 0cd6 04       		.byte	0x4
 7544 0cd7 A00C0000 		.4byte	0xca0
 7545 0cdb 0F       		.uleb128 0xf
 7546 0cdc 04       		.byte	0x4
 7547 0cdd 940C0000 		.4byte	0xc94
 7548 0ce1 1C       		.uleb128 0x1c
 7549 0ce2 72070000 		.4byte	.LASF208
 7550 0ce6 0E       		.byte	0xe
 7551 0ce7 0A       		.byte	0xa
 7552 0ce8 3F01     		.2byte	0x13f
 7553 0cea 160D0000 		.4byte	0xd16
 7554 0cee 0A       		.uleb128 0xa
 7555 0cef AF1C0000 		.4byte	.LASF209
 7556 0cf3 0A       		.byte	0xa
 7557 0cf4 4001     		.2byte	0x140
 7558 0cf6 160D0000 		.4byte	0xd16
 7559 0cfa 00       		.byte	0
 7560 0cfb 0A       		.uleb128 0xa
 7561 0cfc 920E0000 		.4byte	.LASF210
 7562 0d00 0A       		.byte	0xa
 7563 0d01 4101     		.2byte	0x141
 7564 0d03 160D0000 		.4byte	0xd16
 7565 0d07 06       		.byte	0x6
 7566 0d08 0A       		.uleb128 0xa
 7567 0d09 69190000 		.4byte	.LASF211
 7568 0d0d 0A       		.byte	0xa
 7569 0d0e 4201     		.2byte	0x142
 7570 0d10 66000000 		.4byte	0x66
 7571 0d14 0C       		.byte	0xc
 7572 0d15 00       		.byte	0
 7573 0d16 08       		.uleb128 0x8
 7574 0d17 66000000 		.4byte	0x66
 7575 0d1b 260D0000 		.4byte	0xd26
 7576 0d1f 09       		.uleb128 0x9
 7577 0d20 B1000000 		.4byte	0xb1
 7578 0d24 02       		.byte	0x2
 7579 0d25 00       		.byte	0
 7580 0d26 0C       		.uleb128 0xc
 7581 0d27 D0       		.byte	0xd0
ARM GAS  C:\Users\PCHAUT~1\AppData\Local\Temp\ccgoQRgJ.s 			page 134


 7582 0d28 0A       		.byte	0xa
 7583 0d29 5902     		.2byte	0x259
 7584 0d2b 270E0000 		.4byte	0xe27
 7585 0d2f 0A       		.uleb128 0xa
 7586 0d30 CA1B0000 		.4byte	.LASF212
 7587 0d34 0A       		.byte	0xa
 7588 0d35 5B02     		.2byte	0x25b
 7589 0d37 B1000000 		.4byte	0xb1
 7590 0d3b 00       		.byte	0
 7591 0d3c 0A       		.uleb128 0xa
 7592 0d3d 6B1A0000 		.4byte	.LASF213
 7593 0d41 0A       		.byte	0xa
 7594 0d42 5C02     		.2byte	0x25c
 7595 0d44 000C0000 		.4byte	0xc00
 7596 0d48 04       		.byte	0x4
 7597 0d49 0A       		.uleb128 0xa
 7598 0d4a 00080000 		.4byte	.LASF214
 7599 0d4e 0A       		.byte	0xa
 7600 0d4f 5D02     		.2byte	0x25d
 7601 0d51 270E0000 		.4byte	0xe27
 7602 0d55 08       		.byte	0x8
 7603 0d56 0A       		.uleb128 0xa
 7604 0d57 FA140000 		.4byte	.LASF215
 7605 0d5b 0A       		.byte	0xa
 7606 0d5c 5E02     		.2byte	0x25e
 7607 0d5e 2C080000 		.4byte	0x82c
 7608 0d62 24       		.byte	0x24
 7609 0d63 0A       		.uleb128 0xa
 7610 0d64 0C0E0000 		.4byte	.LASF216
 7611 0d68 0A       		.byte	0xa
 7612 0d69 5F02     		.2byte	0x25f
 7613 0d6b AA000000 		.4byte	0xaa
 7614 0d6f 48       		.byte	0x48
 7615 0d70 0A       		.uleb128 0xa
 7616 0d71 B51C0000 		.4byte	.LASF217
 7617 0d75 0A       		.byte	0xa
 7618 0d76 6002     		.2byte	0x260
 7619 0d78 A3000000 		.4byte	0xa3
 7620 0d7c 50       		.byte	0x50
 7621 0d7d 0A       		.uleb128 0xa
 7622 0d7e 91010000 		.4byte	.LASF218
 7623 0d82 0A       		.byte	0xa
 7624 0d83 6102     		.2byte	0x261
 7625 0d85 E10C0000 		.4byte	0xce1
 7626 0d89 58       		.byte	0x58
 7627 0d8a 0A       		.uleb128 0xa
 7628 0d8b A10B0000 		.4byte	.LASF219
 7629 0d8f 0A       		.byte	0xa
 7630 0d90 6202     		.2byte	0x262
 7631 0d92 A2070000 		.4byte	0x7a2
 7632 0d96 68       		.byte	0x68
 7633 0d97 0A       		.uleb128 0xa
 7634 0d98 781A0000 		.4byte	.LASF220
 7635 0d9c 0A       		.byte	0xa
 7636 0d9d 6302     		.2byte	0x263
 7637 0d9f A2070000 		.4byte	0x7a2
 7638 0da3 70       		.byte	0x70
ARM GAS  C:\Users\PCHAUT~1\AppData\Local\Temp\ccgoQRgJ.s 			page 135


 7639 0da4 0A       		.uleb128 0xa
 7640 0da5 FE000000 		.4byte	.LASF221
 7641 0da9 0A       		.byte	0xa
 7642 0daa 6402     		.2byte	0x264
 7643 0dac A2070000 		.4byte	0x7a2
 7644 0db0 78       		.byte	0x78
 7645 0db1 0A       		.uleb128 0xa
 7646 0db2 64150000 		.4byte	.LASF222
 7647 0db6 0A       		.byte	0xa
 7648 0db7 6502     		.2byte	0x265
 7649 0db9 370E0000 		.4byte	0xe37
 7650 0dbd 80       		.byte	0x80
 7651 0dbe 0A       		.uleb128 0xa
 7652 0dbf FD010000 		.4byte	.LASF223
 7653 0dc3 0A       		.byte	0xa
 7654 0dc4 6602     		.2byte	0x266
 7655 0dc6 470E0000 		.4byte	0xe47
 7656 0dca 88       		.byte	0x88
 7657 0dcb 0A       		.uleb128 0xa
 7658 0dcc 12190000 		.4byte	.LASF224
 7659 0dd0 0A       		.byte	0xa
 7660 0dd1 6702     		.2byte	0x267
 7661 0dd3 AA000000 		.4byte	0xaa
 7662 0dd7 A0       		.byte	0xa0
 7663 0dd8 0A       		.uleb128 0xa
 7664 0dd9 01040000 		.4byte	.LASF225
 7665 0ddd 0A       		.byte	0xa
 7666 0dde 6802     		.2byte	0x268
 7667 0de0 A2070000 		.4byte	0x7a2
 7668 0de4 A4       		.byte	0xa4
 7669 0de5 0A       		.uleb128 0xa
 7670 0de6 160C0000 		.4byte	.LASF226
 7671 0dea 0A       		.byte	0xa
 7672 0deb 6902     		.2byte	0x269
 7673 0ded A2070000 		.4byte	0x7a2
 7674 0df1 AC       		.byte	0xac
 7675 0df2 0A       		.uleb128 0xa
 7676 0df3 8E0A0000 		.4byte	.LASF227
 7677 0df7 0A       		.byte	0xa
 7678 0df8 6A02     		.2byte	0x26a
 7679 0dfa A2070000 		.4byte	0x7a2
 7680 0dfe B4       		.byte	0xb4
 7681 0dff 0A       		.uleb128 0xa
 7682 0e00 CB0E0000 		.4byte	.LASF228
 7683 0e04 0A       		.byte	0xa
 7684 0e05 6B02     		.2byte	0x26b
 7685 0e07 A2070000 		.4byte	0x7a2
 7686 0e0b BC       		.byte	0xbc
 7687 0e0c 0A       		.uleb128 0xa
 7688 0e0d DE0F0000 		.4byte	.LASF229
 7689 0e11 0A       		.byte	0xa
 7690 0e12 6C02     		.2byte	0x26c
 7691 0e14 A2070000 		.4byte	0x7a2
 7692 0e18 C4       		.byte	0xc4
 7693 0e19 0A       		.uleb128 0xa
 7694 0e1a 27100000 		.4byte	.LASF230
 7695 0e1e 0A       		.byte	0xa
ARM GAS  C:\Users\PCHAUT~1\AppData\Local\Temp\ccgoQRgJ.s 			page 136


 7696 0e1f 6D02     		.2byte	0x26d
 7697 0e21 AA000000 		.4byte	0xaa
 7698 0e25 CC       		.byte	0xcc
 7699 0e26 00       		.byte	0
 7700 0e27 08       		.uleb128 0x8
 7701 0e28 98010000 		.4byte	0x198
 7702 0e2c 370E0000 		.4byte	0xe37
 7703 0e30 09       		.uleb128 0x9
 7704 0e31 B1000000 		.4byte	0xb1
 7705 0e35 19       		.byte	0x19
 7706 0e36 00       		.byte	0
 7707 0e37 08       		.uleb128 0x8
 7708 0e38 98010000 		.4byte	0x198
 7709 0e3c 470E0000 		.4byte	0xe47
 7710 0e40 09       		.uleb128 0x9
 7711 0e41 B1000000 		.4byte	0xb1
 7712 0e45 07       		.byte	0x7
 7713 0e46 00       		.byte	0
 7714 0e47 08       		.uleb128 0x8
 7715 0e48 98010000 		.4byte	0x198
 7716 0e4c 570E0000 		.4byte	0xe57
 7717 0e50 09       		.uleb128 0x9
 7718 0e51 B1000000 		.4byte	0xb1
 7719 0e55 17       		.byte	0x17
 7720 0e56 00       		.byte	0
 7721 0e57 0C       		.uleb128 0xc
 7722 0e58 F0       		.byte	0xf0
 7723 0e59 0A       		.byte	0xa
 7724 0e5a 7202     		.2byte	0x272
 7725 0e5c 7B0E0000 		.4byte	0xe7b
 7726 0e60 0A       		.uleb128 0xa
 7727 0e61 2F070000 		.4byte	.LASF231
 7728 0e65 0A       		.byte	0xa
 7729 0e66 7502     		.2byte	0x275
 7730 0e68 7B0E0000 		.4byte	0xe7b
 7731 0e6c 00       		.byte	0
 7732 0e6d 0A       		.uleb128 0xa
 7733 0e6e 241D0000 		.4byte	.LASF232
 7734 0e72 0A       		.byte	0xa
 7735 0e73 7602     		.2byte	0x276
 7736 0e75 8B0E0000 		.4byte	0xe8b
 7737 0e79 78       		.byte	0x78
 7738 0e7a 00       		.byte	0
 7739 0e7b 08       		.uleb128 0x8
 7740 0e7c 75090000 		.4byte	0x975
 7741 0e80 8B0E0000 		.4byte	0xe8b
 7742 0e84 09       		.uleb128 0x9
 7743 0e85 B1000000 		.4byte	0xb1
 7744 0e89 1D       		.byte	0x1d
 7745 0e8a 00       		.byte	0
 7746 0e8b 08       		.uleb128 0x8
 7747 0e8c B1000000 		.4byte	0xb1
 7748 0e90 9B0E0000 		.4byte	0xe9b
 7749 0e94 09       		.uleb128 0x9
 7750 0e95 B1000000 		.4byte	0xb1
 7751 0e99 1D       		.byte	0x1d
 7752 0e9a 00       		.byte	0
ARM GAS  C:\Users\PCHAUT~1\AppData\Local\Temp\ccgoQRgJ.s 			page 137


 7753 0e9b 1D       		.uleb128 0x1d
 7754 0e9c F0       		.byte	0xf0
 7755 0e9d 0A       		.byte	0xa
 7756 0e9e 5702     		.2byte	0x257
 7757 0ea0 BD0E0000 		.4byte	0xebd
 7758 0ea4 1E       		.uleb128 0x1e
 7759 0ea5 59120000 		.4byte	.LASF182
 7760 0ea9 0A       		.byte	0xa
 7761 0eaa 6E02     		.2byte	0x26e
 7762 0eac 260D0000 		.4byte	0xd26
 7763 0eb0 1E       		.uleb128 0x1e
 7764 0eb1 26150000 		.4byte	.LASF233
 7765 0eb5 0A       		.byte	0xa
 7766 0eb6 7702     		.2byte	0x277
 7767 0eb8 570E0000 		.4byte	0xe57
 7768 0ebc 00       		.byte	0
 7769 0ebd 08       		.uleb128 0x8
 7770 0ebe 98010000 		.4byte	0x198
 7771 0ec2 CD0E0000 		.4byte	0xecd
 7772 0ec6 09       		.uleb128 0x9
 7773 0ec7 B1000000 		.4byte	0xb1
 7774 0ecb 18       		.byte	0x18
 7775 0ecc 00       		.byte	0
 7776 0ecd 11       		.uleb128 0x11
 7777 0ece 5B030000 		.4byte	.LASF235
 7778 0ed2 0F       		.uleb128 0xf
 7779 0ed3 04       		.byte	0x4
 7780 0ed4 CD0E0000 		.4byte	0xecd
 7781 0ed8 1F       		.uleb128 0x1f
 7782 0ed9 E30E0000 		.4byte	0xee3
 7783 0edd 1A       		.uleb128 0x1a
 7784 0ede C30A0000 		.4byte	0xac3
 7785 0ee2 00       		.byte	0
 7786 0ee3 0F       		.uleb128 0xf
 7787 0ee4 04       		.byte	0x4
 7788 0ee5 D80E0000 		.4byte	0xed8
 7789 0ee9 0F       		.uleb128 0xf
 7790 0eea 04       		.byte	0x4
 7791 0eeb 16080000 		.4byte	0x816
 7792 0eef 1F       		.uleb128 0x1f
 7793 0ef0 FA0E0000 		.4byte	0xefa
 7794 0ef4 1A       		.uleb128 0x1a
 7795 0ef5 AA000000 		.4byte	0xaa
 7796 0ef9 00       		.byte	0
 7797 0efa 0F       		.uleb128 0xf
 7798 0efb 04       		.byte	0x4
 7799 0efc 000F0000 		.4byte	0xf00
 7800 0f00 0F       		.uleb128 0xf
 7801 0f01 04       		.byte	0x4
 7802 0f02 EF0E0000 		.4byte	0xeef
 7803 0f06 08       		.uleb128 0x8
 7804 0f07 940C0000 		.4byte	0xc94
 7805 0f0b 160F0000 		.4byte	0xf16
 7806 0f0f 09       		.uleb128 0x9
 7807 0f10 B1000000 		.4byte	0xb1
 7808 0f14 02       		.byte	0x2
 7809 0f15 00       		.byte	0
ARM GAS  C:\Users\PCHAUT~1\AppData\Local\Temp\ccgoQRgJ.s 			page 138


 7810 0f16 20       		.uleb128 0x20
 7811 0f17 DE040000 		.4byte	.LASF236
 7812 0f1b 0A       		.byte	0xa
 7813 0f1c 0703     		.2byte	0x307
 7814 0f1e C30A0000 		.4byte	0xac3
 7815 0f22 20       		.uleb128 0x20
 7816 0f23 67050000 		.4byte	.LASF237
 7817 0f27 0A       		.byte	0xa
 7818 0f28 0803     		.2byte	0x308
 7819 0f2a C90A0000 		.4byte	0xac9
 7820 0f2e 21       		.uleb128 0x21
 7821 0f2f C001     		.2byte	0x1c0
 7822 0f31 0B       		.byte	0xb
 7823 0f32 44       		.byte	0x44
 7824 0f33 5E0F0000 		.4byte	0xf5e
 7825 0f37 07       		.uleb128 0x7
 7826 0f38 FA1C0000 		.4byte	.LASF238
 7827 0f3c 0B       		.byte	0xb
 7828 0f3d 45       		.byte	0x45
 7829 0f3e 9D060000 		.4byte	0x69d
 7830 0f42 00       		.byte	0
 7831 0f43 17       		.uleb128 0x17
 7832 0f44 45010000 		.4byte	.LASF239
 7833 0f48 0B       		.byte	0xb
 7834 0f49 48       		.byte	0x48
 7835 0f4a A4010000 		.4byte	0x1a4
 7836 0f4e 5C01     		.2byte	0x15c
 7837 0f50 17       		.uleb128 0x17
 7838 0f51 7A130000 		.4byte	.LASF240
 7839 0f55 0B       		.byte	0xb
 7840 0f56 49       		.byte	0x49
 7841 0f57 C3000000 		.4byte	0xc3
 7842 0f5b BF01     		.2byte	0x1bf
 7843 0f5d 00       		.byte	0
 7844 0f5e 02       		.uleb128 0x2
 7845 0f5f 24040000 		.4byte	.LASF241
 7846 0f63 0B       		.byte	0xb
 7847 0f64 4B       		.byte	0x4b
 7848 0f65 2E0F0000 		.4byte	0xf2e
 7849 0f69 02       		.uleb128 0x2
 7850 0f6a BD000000 		.4byte	.LASF242
 7851 0f6e 0B       		.byte	0xb
 7852 0f6f 52       		.byte	0x52
 7853 0f70 740F0000 		.4byte	0xf74
 7854 0f74 0F       		.uleb128 0xf
 7855 0f75 04       		.byte	0x4
 7856 0f76 5E0F0000 		.4byte	0xf5e
 7857 0f7a 22       		.uleb128 0x22
 7858 0f7b 0F0A0000 		.4byte	.LASF243
 7859 0f7f 0C       		.byte	0xc
 7860 0f80 63       		.byte	0x63
 7861 0f81 000C0000 		.4byte	0xc00
 7862 0f85 23       		.uleb128 0x23
 7863 0f86 09150000 		.4byte	.LASF265
 7864 0f8a 01       		.byte	0x1
 7865 0f8b D907     		.2byte	0x7d9
 7866 0f8d AF010000 		.4byte	0x1af
ARM GAS  C:\Users\PCHAUT~1\AppData\Local\Temp\ccgoQRgJ.s 			page 139


 7867 0f91 00000000 		.4byte	.LFB27
 7868 0f95 DC030000 		.4byte	.LFE27-.LFB27
 7869 0f99 01       		.uleb128 0x1
 7870 0f9a 9C       		.byte	0x9c
 7871 0f9b 1A110000 		.4byte	0x111a
 7872 0f9f 24       		.uleb128 0x24
 7873 0fa0 44657600 		.ascii	"Dev\000"
 7874 0fa4 01       		.byte	0x1
 7875 0fa5 D907     		.2byte	0x7d9
 7876 0fa7 690F0000 		.4byte	0xf69
 7877 0fab 02       		.uleb128 0x2
 7878 0fac 91       		.byte	0x91
 7879 0fad 44       		.sleb128 -60
 7880 0fae 25       		.uleb128 0x25
 7881 0faf 28000000 		.4byte	.LASF244
 7882 0fb3 01       		.byte	0x1
 7883 0fb4 DA07     		.2byte	0x7da
 7884 0fb6 C3000000 		.4byte	0xc3
 7885 0fba 02       		.uleb128 0x2
 7886 0fbb 91       		.byte	0x91
 7887 0fbc 43       		.sleb128 -61
 7888 0fbd 25       		.uleb128 0x25
 7889 0fbe 550A0000 		.4byte	.LASF245
 7890 0fc2 01       		.byte	0x1
 7891 0fc3 DB07     		.2byte	0x7db
 7892 0fc5 11010000 		.4byte	0x111
 7893 0fc9 03       		.uleb128 0x3
 7894 0fca 91       		.byte	0x91
 7895 0fcb BC7F     		.sleb128 -68
 7896 0fcd 25       		.uleb128 0x25
 7897 0fce 5B090000 		.4byte	.LASF62
 7898 0fd2 01       		.byte	0x1
 7899 0fd3 DC07     		.2byte	0x7dc
 7900 0fd5 D9000000 		.4byte	0xd9
 7901 0fd9 02       		.uleb128 0x2
 7902 0fda 91       		.byte	0x91
 7903 0fdb 40       		.sleb128 -64
 7904 0fdc 25       		.uleb128 0x25
 7905 0fdd 4E0D0000 		.4byte	.LASF246
 7906 0fe1 01       		.byte	0x1
 7907 0fe2 DD07     		.2byte	0x7dd
 7908 0fe4 1A110000 		.4byte	0x111a
 7909 0fe8 03       		.uleb128 0x3
 7910 0fe9 91       		.byte	0x91
 7911 0fea B87F     		.sleb128 -72
 7912 0fec 25       		.uleb128 0x25
 7913 0fed 670B0000 		.4byte	.LASF247
 7914 0ff1 01       		.byte	0x1
 7915 0ff2 DE07     		.2byte	0x7de
 7916 0ff4 97060000 		.4byte	0x697
 7917 0ff8 03       		.uleb128 0x3
 7918 0ff9 91       		.byte	0x91
 7919 0ffa B47F     		.sleb128 -76
 7920 0ffc 26       		.uleb128 0x26
 7921 0ffd 4A020000 		.4byte	.LASF248
 7922 1001 01       		.byte	0x1
 7923 1002 E007     		.2byte	0x7e0
ARM GAS  C:\Users\PCHAUT~1\AppData\Local\Temp\ccgoQRgJ.s 			page 140


 7924 1004 AF010000 		.4byte	0x1af
 7925 1008 02       		.uleb128 0x2
 7926 1009 91       		.byte	0x91
 7927 100a 4F       		.sleb128 -49
 7928 100b 26       		.uleb128 0x26
 7929 100c 85190000 		.4byte	.LASF249
 7930 1010 01       		.byte	0x1
 7931 1011 E107     		.2byte	0x7e1
 7932 1013 C3000000 		.4byte	0xc3
 7933 1017 02       		.uleb128 0x2
 7934 1018 91       		.byte	0x91
 7935 1019 50       		.sleb128 -48
 7936 101a 26       		.uleb128 0x26
 7937 101b 51020000 		.4byte	.LASF250
 7938 101f 01       		.byte	0x1
 7939 1020 E207     		.2byte	0x7e2
 7940 1022 C3000000 		.4byte	0xc3
 7941 1026 02       		.uleb128 0x2
 7942 1027 91       		.byte	0x91
 7943 1028 51       		.sleb128 -47
 7944 1029 26       		.uleb128 0x26
 7945 102a BE110000 		.4byte	.LASF251
 7946 102e 01       		.byte	0x1
 7947 102f E307     		.2byte	0x7e3
 7948 1031 C3000000 		.4byte	0xc3
 7949 1035 02       		.uleb128 0x2
 7950 1036 91       		.byte	0x91
 7951 1037 52       		.sleb128 -46
 7952 1038 26       		.uleb128 0x26
 7953 1039 E4010000 		.4byte	.LASF252
 7954 103d 01       		.byte	0x1
 7955 103e E407     		.2byte	0x7e4
 7956 1040 C3000000 		.4byte	0xc3
 7957 1044 02       		.uleb128 0x2
 7958 1045 91       		.byte	0x91
 7959 1046 53       		.sleb128 -45
 7960 1047 26       		.uleb128 0x26
 7961 1048 B3060000 		.4byte	.LASF253
 7962 104c 01       		.byte	0x1
 7963 104d E507     		.2byte	0x7e5
 7964 104f C3000000 		.4byte	0xc3
 7965 1053 02       		.uleb128 0x2
 7966 1054 91       		.byte	0x91
 7967 1055 4B       		.sleb128 -53
 7968 1056 26       		.uleb128 0x26
 7969 1057 C90D0000 		.4byte	.LASF254
 7970 105b 01       		.byte	0x1
 7971 105c E607     		.2byte	0x7e6
 7972 105e C3000000 		.4byte	0xc3
 7973 1062 02       		.uleb128 0x2
 7974 1063 91       		.byte	0x91
 7975 1064 4C       		.sleb128 -52
 7976 1065 26       		.uleb128 0x26
 7977 1066 A3030000 		.4byte	.LASF255
 7978 106a 01       		.byte	0x1
 7979 106b E707     		.2byte	0x7e7
 7980 106d C3000000 		.4byte	0xc3
ARM GAS  C:\Users\PCHAUT~1\AppData\Local\Temp\ccgoQRgJ.s 			page 141


 7981 1071 02       		.uleb128 0x2
 7982 1072 91       		.byte	0x91
 7983 1073 4D       		.sleb128 -51
 7984 1074 26       		.uleb128 0x26
 7985 1075 1A160000 		.4byte	.LASF256
 7986 1079 01       		.byte	0x1
 7987 107a E807     		.2byte	0x7e8
 7988 107c C3000000 		.4byte	0xc3
 7989 1080 02       		.uleb128 0x2
 7990 1081 91       		.byte	0x91
 7991 1082 4E       		.sleb128 -50
 7992 1083 26       		.uleb128 0x26
 7993 1084 4E1B0000 		.4byte	.LASF111
 7994 1088 01       		.byte	0x1
 7995 1089 E907     		.2byte	0x7e9
 7996 108b 11010000 		.4byte	0x111
 7997 108f 02       		.uleb128 0x2
 7998 1090 91       		.byte	0x91
 7999 1091 58       		.sleb128 -40
 8000 1092 26       		.uleb128 0x26
 8001 1093 85120000 		.4byte	.LASF257
 8002 1097 01       		.byte	0x1
 8003 1098 EA07     		.2byte	0x7ea
 8004 109a 11010000 		.4byte	0x111
 8005 109e 02       		.uleb128 0x2
 8006 109f 91       		.byte	0x91
 8007 10a0 5C       		.sleb128 -36
 8008 10a1 26       		.uleb128 0x26
 8009 10a2 690C0000 		.4byte	.LASF258
 8010 10a6 01       		.byte	0x1
 8011 10a7 EB07     		.2byte	0x7eb
 8012 10a9 11010000 		.4byte	0x111
 8013 10ad 02       		.uleb128 0x2
 8014 10ae 91       		.byte	0x91
 8015 10af 60       		.sleb128 -32
 8016 10b0 26       		.uleb128 0x26
 8017 10b1 60120000 		.4byte	.LASF259
 8018 10b5 01       		.byte	0x1
 8019 10b6 EC07     		.2byte	0x7ec
 8020 10b8 11010000 		.4byte	0x111
 8021 10bc 02       		.uleb128 0x2
 8022 10bd 91       		.byte	0x91
 8023 10be 64       		.sleb128 -28
 8024 10bf 26       		.uleb128 0x26
 8025 10c0 8E190000 		.4byte	.LASF260
 8026 10c4 01       		.byte	0x1
 8027 10c5 ED07     		.2byte	0x7ed
 8028 10c7 11010000 		.4byte	0x111
 8029 10cb 02       		.uleb128 0x2
 8030 10cc 91       		.byte	0x91
 8031 10cd 6C       		.sleb128 -20
 8032 10ce 26       		.uleb128 0x26
 8033 10cf B60C0000 		.4byte	.LASF261
 8034 10d3 01       		.byte	0x1
 8035 10d4 EE07     		.2byte	0x7ee
 8036 10d6 C3000000 		.4byte	0xc3
 8037 10da 02       		.uleb128 0x2
ARM GAS  C:\Users\PCHAUT~1\AppData\Local\Temp\ccgoQRgJ.s 			page 142


 8038 10db 91       		.byte	0x91
 8039 10dc 55       		.sleb128 -43
 8040 10dd 26       		.uleb128 0x26
 8041 10de 041C0000 		.4byte	.LASF262
 8042 10e2 01       		.byte	0x1
 8043 10e3 EF07     		.2byte	0x7ef
 8044 10e5 D9000000 		.4byte	0xd9
 8045 10e9 02       		.uleb128 0x2
 8046 10ea 91       		.byte	0x91
 8047 10eb 56       		.sleb128 -42
 8048 10ec 26       		.uleb128 0x26
 8049 10ed 6F060000 		.4byte	.LASF263
 8050 10f1 01       		.byte	0x1
 8051 10f2 F007     		.2byte	0x7f0
 8052 10f4 C3000000 		.4byte	0xc3
 8053 10f8 02       		.uleb128 0x2
 8054 10f9 91       		.byte	0x91
 8055 10fa 54       		.sleb128 -44
 8056 10fb 26       		.uleb128 0x26
 8057 10fc FA170000 		.4byte	.LASF264
 8058 1100 01       		.byte	0x1
 8059 1101 F107     		.2byte	0x7f1
 8060 1103 EF000000 		.4byte	0xef
 8061 1107 02       		.uleb128 0x2
 8062 1108 91       		.byte	0x91
 8063 1109 68       		.sleb128 -24
 8064 110a 26       		.uleb128 0x26
 8065 110b E3130000 		.4byte	.LASF113
 8066 110f 01       		.byte	0x1
 8067 1110 F207     		.2byte	0x7f2
 8068 1112 11010000 		.4byte	0x111
 8069 1116 02       		.uleb128 0x2
 8070 1117 91       		.byte	0x91
 8071 1118 70       		.sleb128 -16
 8072 1119 00       		.byte	0
 8073 111a 0F       		.uleb128 0xf
 8074 111b 04       		.byte	0x4
 8075 111c 6B030000 		.4byte	0x36b
 8076 1120 23       		.uleb128 0x23
 8077 1121 DA0E0000 		.4byte	.LASF266
 8078 1125 01       		.byte	0x1
 8079 1126 9706     		.2byte	0x697
 8080 1128 AF010000 		.4byte	0x1af
 8081 112c 00000000 		.4byte	.LFB26
 8082 1130 14040000 		.4byte	.LFE26-.LFB26
 8083 1134 01       		.uleb128 0x1
 8084 1135 9C       		.byte	0x9c
 8085 1136 2E140000 		.4byte	0x142e
 8086 113a 24       		.uleb128 0x24
 8087 113b 44657600 		.ascii	"Dev\000"
 8088 113f 01       		.byte	0x1
 8089 1140 9706     		.2byte	0x697
 8090 1142 690F0000 		.4byte	0xf69
 8091 1146 03       		.uleb128 0x3
 8092 1147 91       		.byte	0x91
 8093 1148 C47E     		.sleb128 -188
 8094 114a 25       		.uleb128 0x25
ARM GAS  C:\Users\PCHAUT~1\AppData\Local\Temp\ccgoQRgJ.s 			page 143


 8095 114b 4E0D0000 		.4byte	.LASF246
 8096 114f 01       		.byte	0x1
 8097 1150 9806     		.2byte	0x698
 8098 1152 1A110000 		.4byte	0x111a
 8099 1156 03       		.uleb128 0x3
 8100 1157 91       		.byte	0x91
 8101 1158 C07E     		.sleb128 -192
 8102 115a 25       		.uleb128 0x25
 8103 115b 8D1C0000 		.4byte	.LASF267
 8104 115f 01       		.byte	0x1
 8105 1160 9906     		.2byte	0x699
 8106 1162 2E140000 		.4byte	0x142e
 8107 1166 03       		.uleb128 0x3
 8108 1167 91       		.byte	0x91
 8109 1168 BC7E     		.sleb128 -196
 8110 116a 25       		.uleb128 0x25
 8111 116b 61070000 		.4byte	.LASF268
 8112 116f 01       		.byte	0x1
 8113 1170 9A06     		.2byte	0x69a
 8114 1172 34140000 		.4byte	0x1434
 8115 1176 03       		.uleb128 0x3
 8116 1177 91       		.byte	0x91
 8117 1178 B87E     		.sleb128 -200
 8118 117a 26       		.uleb128 0x26
 8119 117b 8D060000 		.4byte	.LASF269
 8120 117f 01       		.byte	0x1
 8121 1180 9D06     		.2byte	0x69d
 8122 1182 FA000000 		.4byte	0xfa
 8123 1186 03       		.uleb128 0x3
 8124 1187 91       		.byte	0x91
 8125 1188 807F     		.sleb128 -128
 8126 118a 26       		.uleb128 0x26
 8127 118b 98040000 		.4byte	.LASF270
 8128 118f 01       		.byte	0x1
 8129 1190 9F06     		.2byte	0x69f
 8130 1192 FA000000 		.4byte	0xfa
 8131 1196 03       		.uleb128 0x3
 8132 1197 91       		.byte	0x91
 8133 1198 847F     		.sleb128 -124
 8134 119a 26       		.uleb128 0x26
 8135 119b 3B0F0000 		.4byte	.LASF271
 8136 119f 01       		.byte	0x1
 8137 11a0 A006     		.2byte	0x6a0
 8138 11a2 1C010000 		.4byte	0x11c
 8139 11a6 03       		.uleb128 0x3
 8140 11a7 91       		.byte	0x91
 8141 11a8 887F     		.sleb128 -120
 8142 11aa 26       		.uleb128 0x26
 8143 11ab 5C1B0000 		.4byte	.LASF272
 8144 11af 01       		.byte	0x1
 8145 11b0 A106     		.2byte	0x6a1
 8146 11b2 FA000000 		.4byte	0xfa
 8147 11b6 03       		.uleb128 0x3
 8148 11b7 91       		.byte	0x91
 8149 11b8 8C7F     		.sleb128 -116
 8150 11ba 26       		.uleb128 0x26
 8151 11bb 600A0000 		.4byte	.LASF273
ARM GAS  C:\Users\PCHAUT~1\AppData\Local\Temp\ccgoQRgJ.s 			page 144


 8152 11bf 01       		.byte	0x1
 8153 11c0 A206     		.2byte	0x6a2
 8154 11c2 1C010000 		.4byte	0x11c
 8155 11c6 03       		.uleb128 0x3
 8156 11c7 91       		.byte	0x91
 8157 11c8 907F     		.sleb128 -112
 8158 11ca 26       		.uleb128 0x26
 8159 11cb BD120000 		.4byte	.LASF274
 8160 11cf 01       		.byte	0x1
 8161 11d0 A306     		.2byte	0x6a3
 8162 11d2 1C010000 		.4byte	0x11c
 8163 11d6 03       		.uleb128 0x3
 8164 11d7 91       		.byte	0x91
 8165 11d8 947F     		.sleb128 -108
 8166 11da 26       		.uleb128 0x26
 8167 11db 7C0C0000 		.4byte	.LASF275
 8168 11df 01       		.byte	0x1
 8169 11e0 A406     		.2byte	0x6a4
 8170 11e2 1C010000 		.4byte	0x11c
 8171 11e6 03       		.uleb128 0x3
 8172 11e7 91       		.byte	0x91
 8173 11e8 987F     		.sleb128 -104
 8174 11ea 26       		.uleb128 0x26
 8175 11eb FC060000 		.4byte	.LASF276
 8176 11ef 01       		.byte	0x1
 8177 11f0 A706     		.2byte	0x6a7
 8178 11f2 1C010000 		.4byte	0x11c
 8179 11f6 03       		.uleb128 0x3
 8180 11f7 91       		.byte	0x91
 8181 11f8 9C7F     		.sleb128 -100
 8182 11fa 26       		.uleb128 0x26
 8183 11fb A4130000 		.4byte	.LASF277
 8184 11ff 01       		.byte	0x1
 8185 1200 A806     		.2byte	0x6a8
 8186 1202 FA000000 		.4byte	0xfa
 8187 1206 03       		.uleb128 0x3
 8188 1207 91       		.byte	0x91
 8189 1208 A07F     		.sleb128 -96
 8190 120a 26       		.uleb128 0x26
 8191 120b BA0D0000 		.4byte	.LASF278
 8192 120f 01       		.byte	0x1
 8193 1210 A906     		.2byte	0x6a9
 8194 1212 1C010000 		.4byte	0x11c
 8195 1216 03       		.uleb128 0x3
 8196 1217 91       		.byte	0x91
 8197 1218 A47F     		.sleb128 -92
 8198 121a 26       		.uleb128 0x26
 8199 121b 411A0000 		.4byte	.LASF279
 8200 121f 01       		.byte	0x1
 8201 1220 AA06     		.2byte	0x6aa
 8202 1222 FA000000 		.4byte	0xfa
 8203 1226 03       		.uleb128 0x3
 8204 1227 91       		.byte	0x91
 8205 1228 A87F     		.sleb128 -88
 8206 122a 26       		.uleb128 0x26
 8207 122b 34030000 		.4byte	.LASF280
 8208 122f 01       		.byte	0x1
ARM GAS  C:\Users\PCHAUT~1\AppData\Local\Temp\ccgoQRgJ.s 			page 145


 8209 1230 AC06     		.2byte	0x6ac
 8210 1232 EF000000 		.4byte	0xef
 8211 1236 03       		.uleb128 0x3
 8212 1237 91       		.byte	0x91
 8213 1238 D87E     		.sleb128 -168
 8214 123a 26       		.uleb128 0x26
 8215 123b 1A080000 		.4byte	.LASF281
 8216 123f 01       		.byte	0x1
 8217 1240 AD06     		.2byte	0x6ad
 8218 1242 EF000000 		.4byte	0xef
 8219 1246 03       		.uleb128 0x3
 8220 1247 91       		.byte	0x91
 8221 1248 DC7E     		.sleb128 -164
 8222 124a 26       		.uleb128 0x26
 8223 124b 4E0B0000 		.4byte	.LASF282
 8224 124f 01       		.byte	0x1
 8225 1250 AE06     		.2byte	0x6ae
 8226 1252 EF000000 		.4byte	0xef
 8227 1256 03       		.uleb128 0x3
 8228 1257 91       		.byte	0x91
 8229 1258 E07E     		.sleb128 -160
 8230 125a 26       		.uleb128 0x26
 8231 125b B0050000 		.4byte	.LASF283
 8232 125f 01       		.byte	0x1
 8233 1260 AF06     		.2byte	0x6af
 8234 1262 EF000000 		.4byte	0xef
 8235 1266 02       		.uleb128 0x2
 8236 1267 91       		.byte	0x91
 8237 1268 68       		.sleb128 -24
 8238 1269 26       		.uleb128 0x26
 8239 126a D3050000 		.4byte	.LASF284
 8240 126e 01       		.byte	0x1
 8241 126f B006     		.2byte	0x6b0
 8242 1271 11010000 		.4byte	0x111
 8243 1275 02       		.uleb128 0x2
 8244 1276 91       		.byte	0x91
 8245 1277 40       		.sleb128 -64
 8246 1278 26       		.uleb128 0x26
 8247 1279 E3050000 		.4byte	.LASF285
 8248 127d 01       		.byte	0x1
 8249 127e B106     		.2byte	0x6b1
 8250 1280 11010000 		.4byte	0x111
 8251 1284 03       		.uleb128 0x3
 8252 1285 91       		.byte	0x91
 8253 1286 E47E     		.sleb128 -156
 8254 1288 26       		.uleb128 0x26
 8255 1289 F3050000 		.4byte	.LASF286
 8256 128d 01       		.byte	0x1
 8257 128e B206     		.2byte	0x6b2
 8258 1290 11010000 		.4byte	0x111
 8259 1294 02       		.uleb128 0x2
 8260 1295 91       		.byte	0x91
 8261 1296 44       		.sleb128 -60
 8262 1297 26       		.uleb128 0x26
 8263 1298 DF100000 		.4byte	.LASF287
 8264 129c 01       		.byte	0x1
 8265 129d B306     		.2byte	0x6b3
ARM GAS  C:\Users\PCHAUT~1\AppData\Local\Temp\ccgoQRgJ.s 			page 146


 8266 129f 11010000 		.4byte	0x111
 8267 12a3 02       		.uleb128 0x2
 8268 12a4 91       		.byte	0x91
 8269 12a5 48       		.sleb128 -56
 8270 12a6 26       		.uleb128 0x26
 8271 12a7 AC190000 		.4byte	.LASF288
 8272 12ab 01       		.byte	0x1
 8273 12ac B406     		.2byte	0x6b4
 8274 12ae 11010000 		.4byte	0x111
 8275 12b2 03       		.uleb128 0x3
 8276 12b3 91       		.byte	0x91
 8277 12b4 E87E     		.sleb128 -152
 8278 12b6 26       		.uleb128 0x26
 8279 12b7 59180000 		.4byte	.LASF289
 8280 12bb 01       		.byte	0x1
 8281 12bc B506     		.2byte	0x6b5
 8282 12be 11010000 		.4byte	0x111
 8283 12c2 03       		.uleb128 0x3
 8284 12c3 91       		.byte	0x91
 8285 12c4 EC7E     		.sleb128 -148
 8286 12c6 26       		.uleb128 0x26
 8287 12c7 3E180000 		.4byte	.LASF290
 8288 12cb 01       		.byte	0x1
 8289 12cc B606     		.2byte	0x6b6
 8290 12ce 11010000 		.4byte	0x111
 8291 12d2 03       		.uleb128 0x3
 8292 12d3 91       		.byte	0x91
 8293 12d4 F07E     		.sleb128 -144
 8294 12d6 26       		.uleb128 0x26
 8295 12d7 68010000 		.4byte	.LASF291
 8296 12db 01       		.byte	0x1
 8297 12dc B706     		.2byte	0x6b7
 8298 12de 11010000 		.4byte	0x111
 8299 12e2 02       		.uleb128 0x2
 8300 12e3 91       		.byte	0x91
 8301 12e4 54       		.sleb128 -44
 8302 12e5 26       		.uleb128 0x26
 8303 12e6 F3120000 		.4byte	.LASF292
 8304 12ea 01       		.byte	0x1
 8305 12eb B806     		.2byte	0x6b8
 8306 12ed 11010000 		.4byte	0x111
 8307 12f1 03       		.uleb128 0x3
 8308 12f2 91       		.byte	0x91
 8309 12f3 AC7F     		.sleb128 -84
 8310 12f5 26       		.uleb128 0x26
 8311 12f6 A20C0000 		.4byte	.LASF293
 8312 12fa 01       		.byte	0x1
 8313 12fb B906     		.2byte	0x6b9
 8314 12fd 11010000 		.4byte	0x111
 8315 1301 03       		.uleb128 0x3
 8316 1302 91       		.byte	0x91
 8317 1303 B47F     		.sleb128 -76
 8318 1305 26       		.uleb128 0x26
 8319 1306 48030000 		.4byte	.LASF294
 8320 130a 01       		.byte	0x1
 8321 130b BA06     		.2byte	0x6ba
 8322 130d 11010000 		.4byte	0x111
ARM GAS  C:\Users\PCHAUT~1\AppData\Local\Temp\ccgoQRgJ.s 			page 147


 8323 1311 03       		.uleb128 0x3
 8324 1312 91       		.byte	0x91
 8325 1313 D07E     		.sleb128 -176
 8326 1315 26       		.uleb128 0x26
 8327 1316 2B1B0000 		.4byte	.LASF295
 8328 131a 01       		.byte	0x1
 8329 131b BB06     		.2byte	0x6bb
 8330 131d EF000000 		.4byte	0xef
 8331 1321 03       		.uleb128 0x3
 8332 1322 91       		.byte	0x91
 8333 1323 F47E     		.sleb128 -140
 8334 1325 26       		.uleb128 0x26
 8335 1326 4A020000 		.4byte	.LASF248
 8336 132a 01       		.byte	0x1
 8337 132b BC06     		.2byte	0x6bc
 8338 132d AF010000 		.4byte	0x1af
 8339 1331 03       		.uleb128 0x3
 8340 1332 91       		.byte	0x91
 8341 1333 CD7E     		.sleb128 -179
 8342 1335 26       		.uleb128 0x26
 8343 1336 7A120000 		.4byte	.LASF296
 8344 133a 01       		.byte	0x1
 8345 133b BD06     		.2byte	0x6bd
 8346 133d 11010000 		.4byte	0x111
 8347 1341 02       		.uleb128 0x2
 8348 1342 91       		.byte	0x91
 8349 1343 4C       		.sleb128 -52
 8350 1344 26       		.uleb128 0x26
 8351 1345 A8150000 		.4byte	.LASF297
 8352 1349 01       		.byte	0x1
 8353 134a BE06     		.2byte	0x6be
 8354 134c 11010000 		.4byte	0x111
 8355 1350 02       		.uleb128 0x2
 8356 1351 91       		.byte	0x91
 8357 1352 50       		.sleb128 -48
 8358 1353 26       		.uleb128 0x26
 8359 1354 CC040000 		.4byte	.LASF298
 8360 1358 01       		.byte	0x1
 8361 1359 BF06     		.2byte	0x6bf
 8362 135b 11010000 		.4byte	0x111
 8363 135f 02       		.uleb128 0x2
 8364 1360 91       		.byte	0x91
 8365 1361 58       		.sleb128 -40
 8366 1362 26       		.uleb128 0x26
 8367 1363 D1040000 		.4byte	.LASF299
 8368 1367 01       		.byte	0x1
 8369 1368 C006     		.2byte	0x6c0
 8370 136a 11010000 		.4byte	0x111
 8371 136e 02       		.uleb128 0x2
 8372 136f 91       		.byte	0x91
 8373 1370 5C       		.sleb128 -36
 8374 1371 26       		.uleb128 0x26
 8375 1372 340F0000 		.4byte	.LASF300
 8376 1376 01       		.byte	0x1
 8377 1377 C106     		.2byte	0x6c1
 8378 1379 11010000 		.4byte	0x111
 8379 137d 02       		.uleb128 0x2
ARM GAS  C:\Users\PCHAUT~1\AppData\Local\Temp\ccgoQRgJ.s 			page 148


 8380 137e 91       		.byte	0x91
 8381 137f 60       		.sleb128 -32
 8382 1380 26       		.uleb128 0x26
 8383 1381 8C080000 		.4byte	.LASF301
 8384 1385 01       		.byte	0x1
 8385 1386 C206     		.2byte	0x6c2
 8386 1388 11010000 		.4byte	0x111
 8387 138c 02       		.uleb128 0x2
 8388 138d 91       		.byte	0x91
 8389 138e 64       		.sleb128 -28
 8390 138f 26       		.uleb128 0x26
 8391 1390 040B0000 		.4byte	.LASF302
 8392 1394 01       		.byte	0x1
 8393 1395 C306     		.2byte	0x6c3
 8394 1397 11010000 		.4byte	0x111
 8395 139b 02       		.uleb128 0x2
 8396 139c 91       		.byte	0x91
 8397 139d 70       		.sleb128 -16
 8398 139e 26       		.uleb128 0x26
 8399 139f 250D0000 		.4byte	.LASF303
 8400 13a3 01       		.byte	0x1
 8401 13a4 C406     		.2byte	0x6c4
 8402 13a6 11010000 		.4byte	0x111
 8403 13aa 03       		.uleb128 0x3
 8404 13ab 91       		.byte	0x91
 8405 13ac D47E     		.sleb128 -172
 8406 13ae 26       		.uleb128 0x26
 8407 13af A5110000 		.4byte	.LASF304
 8408 13b3 01       		.byte	0x1
 8409 13b4 C506     		.2byte	0x6c5
 8410 13b6 11010000 		.4byte	0x111
 8411 13ba 03       		.uleb128 0x3
 8412 13bb 91       		.byte	0x91
 8413 13bc B07F     		.sleb128 -80
 8414 13be 26       		.uleb128 0x26
 8415 13bf 79180000 		.4byte	.LASF305
 8416 13c3 01       		.byte	0x1
 8417 13c4 C606     		.2byte	0x6c6
 8418 13c6 11010000 		.4byte	0x111
 8419 13ca 02       		.uleb128 0x2
 8420 13cb 91       		.byte	0x91
 8421 13cc 6C       		.sleb128 -20
 8422 13cd 26       		.uleb128 0x26
 8423 13ce 90130000 		.4byte	.LASF306
 8424 13d2 01       		.byte	0x1
 8425 13d3 C706     		.2byte	0x6c7
 8426 13d5 EF000000 		.4byte	0xef
 8427 13d9 03       		.uleb128 0x3
 8428 13da 91       		.byte	0x91
 8429 13db F87E     		.sleb128 -136
 8430 13dd 26       		.uleb128 0x26
 8431 13de AA0A0000 		.4byte	.LASF307
 8432 13e2 01       		.byte	0x1
 8433 13e3 C806     		.2byte	0x6c8
 8434 13e5 EF000000 		.4byte	0xef
 8435 13e9 03       		.uleb128 0x3
 8436 13ea 91       		.byte	0x91
ARM GAS  C:\Users\PCHAUT~1\AppData\Local\Temp\ccgoQRgJ.s 			page 149


 8437 13eb B87F     		.sleb128 -72
 8438 13ed 26       		.uleb128 0x26
 8439 13ee 30100000 		.4byte	.LASF308
 8440 13f2 01       		.byte	0x1
 8441 13f3 C906     		.2byte	0x6c9
 8442 13f5 EF000000 		.4byte	0xef
 8443 13f9 03       		.uleb128 0x3
 8444 13fa 91       		.byte	0x91
 8445 13fb BC7F     		.sleb128 -68
 8446 13fd 26       		.uleb128 0x26
 8447 13fe 3F160000 		.4byte	.LASF309
 8448 1402 01       		.byte	0x1
 8449 1403 CA06     		.2byte	0x6ca
 8450 1405 EF000000 		.4byte	0xef
 8451 1409 03       		.uleb128 0x3
 8452 140a 91       		.byte	0x91
 8453 140b FC7E     		.sleb128 -132
 8454 140d 26       		.uleb128 0x26
 8455 140e 41040000 		.4byte	.LASF310
 8456 1412 01       		.byte	0x1
 8457 1413 CB06     		.2byte	0x6cb
 8458 1415 C3000000 		.4byte	0xc3
 8459 1419 03       		.uleb128 0x3
 8460 141a 91       		.byte	0x91
 8461 141b CE7E     		.sleb128 -178
 8462 141d 26       		.uleb128 0x26
 8463 141e 37020000 		.4byte	.LASF311
 8464 1422 01       		.byte	0x1
 8465 1423 CC06     		.2byte	0x6cc
 8466 1425 C3000000 		.4byte	0xc3
 8467 1429 03       		.uleb128 0x3
 8468 142a 91       		.byte	0x91
 8469 142b CF7E     		.sleb128 -177
 8470 142d 00       		.byte	0
 8471 142e 0F       		.uleb128 0xf
 8472 142f 04       		.byte	0x4
 8473 1430 11010000 		.4byte	0x111
 8474 1434 0F       		.uleb128 0xf
 8475 1435 04       		.byte	0x4
 8476 1436 EF000000 		.4byte	0xef
 8477 143a 23       		.uleb128 0x23
 8478 143b 5A110000 		.4byte	.LASF312
 8479 143f 01       		.byte	0x1
 8480 1440 D705     		.2byte	0x5d7
 8481 1442 AF010000 		.4byte	0x1af
 8482 1446 00000000 		.4byte	.LFB25
 8483 144a 68020000 		.4byte	.LFE25-.LFB25
 8484 144e 01       		.uleb128 0x1
 8485 144f 9C       		.byte	0x9c
 8486 1450 28160000 		.4byte	0x1628
 8487 1454 24       		.uleb128 0x24
 8488 1455 44657600 		.ascii	"Dev\000"
 8489 1459 01       		.byte	0x1
 8490 145a D805     		.2byte	0x5d8
 8491 145c 690F0000 		.4byte	0xf69
 8492 1460 03       		.uleb128 0x3
 8493 1461 91       		.byte	0x91
ARM GAS  C:\Users\PCHAUT~1\AppData\Local\Temp\ccgoQRgJ.s 			page 150


 8494 1462 947F     		.sleb128 -108
 8495 1464 25       		.uleb128 0x25
 8496 1465 250D0000 		.4byte	.LASF303
 8497 1469 01       		.byte	0x1
 8498 146a D905     		.2byte	0x5d9
 8499 146c 11010000 		.4byte	0x111
 8500 1470 03       		.uleb128 0x3
 8501 1471 91       		.byte	0x91
 8502 1472 907F     		.sleb128 -112
 8503 1474 25       		.uleb128 0x25
 8504 1475 511D0000 		.4byte	.LASF313
 8505 1479 01       		.byte	0x1
 8506 147a DA05     		.2byte	0x5da
 8507 147c 11010000 		.4byte	0x111
 8508 1480 03       		.uleb128 0x3
 8509 1481 91       		.byte	0x91
 8510 1482 8C7F     		.sleb128 -116
 8511 1484 25       		.uleb128 0x25
 8512 1485 AC190000 		.4byte	.LASF288
 8513 1489 01       		.byte	0x1
 8514 148a DB05     		.2byte	0x5db
 8515 148c 11010000 		.4byte	0x111
 8516 1490 03       		.uleb128 0x3
 8517 1491 91       		.byte	0x91
 8518 1492 887F     		.sleb128 -120
 8519 1494 25       		.uleb128 0x25
 8520 1495 D3050000 		.4byte	.LASF284
 8521 1499 01       		.byte	0x1
 8522 149a DC05     		.2byte	0x5dc
 8523 149c EF000000 		.4byte	0xef
 8524 14a0 03       		.uleb128 0x3
 8525 14a1 91       		.byte	0x91
 8526 14a2 847F     		.sleb128 -124
 8527 14a4 25       		.uleb128 0x25
 8528 14a5 E3050000 		.4byte	.LASF285
 8529 14a9 01       		.byte	0x1
 8530 14aa DD05     		.2byte	0x5dd
 8531 14ac 11010000 		.4byte	0x111
 8532 14b0 03       		.uleb128 0x3
 8533 14b1 91       		.byte	0x91
 8534 14b2 807F     		.sleb128 -128
 8535 14b4 25       		.uleb128 0x25
 8536 14b5 3F160000 		.4byte	.LASF309
 8537 14b9 01       		.byte	0x1
 8538 14ba DE05     		.2byte	0x5de
 8539 14bc EF000000 		.4byte	0xef
 8540 14c0 03       		.uleb128 0x3
 8541 14c1 91       		.byte	0x91
 8542 14c2 FC7E     		.sleb128 -132
 8543 14c4 25       		.uleb128 0x25
 8544 14c5 59080000 		.4byte	.LASF314
 8545 14c9 01       		.byte	0x1
 8546 14ca DF05     		.2byte	0x5df
 8547 14cc 34140000 		.4byte	0x1434
 8548 14d0 03       		.uleb128 0x3
 8549 14d1 91       		.byte	0x91
 8550 14d2 F87E     		.sleb128 -136
ARM GAS  C:\Users\PCHAUT~1\AppData\Local\Temp\ccgoQRgJ.s 			page 151


 8551 14d4 26       		.uleb128 0x26
 8552 14d5 D2150000 		.4byte	.LASF315
 8553 14d9 01       		.byte	0x1
 8554 14da E105     		.2byte	0x5e1
 8555 14dc FA000000 		.4byte	0xfa
 8556 14e0 03       		.uleb128 0x3
 8557 14e1 91       		.byte	0x91
 8558 14e2 B07F     		.sleb128 -80
 8559 14e4 26       		.uleb128 0x26
 8560 14e5 05140000 		.4byte	.LASF316
 8561 14e9 01       		.byte	0x1
 8562 14ea E205     		.2byte	0x5e2
 8563 14ec 1C010000 		.4byte	0x11c
 8564 14f0 03       		.uleb128 0x3
 8565 14f1 91       		.byte	0x91
 8566 14f2 B47F     		.sleb128 -76
 8567 14f4 26       		.uleb128 0x26
 8568 14f5 EF0F0000 		.4byte	.LASF317
 8569 14f9 01       		.byte	0x1
 8570 14fa E305     		.2byte	0x5e3
 8571 14fc 1C010000 		.4byte	0x11c
 8572 1500 03       		.uleb128 0x3
 8573 1501 91       		.byte	0x91
 8574 1502 B87F     		.sleb128 -72
 8575 1504 26       		.uleb128 0x26
 8576 1505 E2140000 		.4byte	.LASF318
 8577 1509 01       		.byte	0x1
 8578 150a E405     		.2byte	0x5e4
 8579 150c FA000000 		.4byte	0xfa
 8580 1510 03       		.uleb128 0x3
 8581 1511 91       		.byte	0x91
 8582 1512 BC7F     		.sleb128 -68
 8583 1514 26       		.uleb128 0x26
 8584 1515 D7080000 		.4byte	.LASF319
 8585 1519 01       		.byte	0x1
 8586 151a E505     		.2byte	0x5e5
 8587 151c FA000000 		.4byte	0xfa
 8588 1520 02       		.uleb128 0x2
 8589 1521 91       		.byte	0x91
 8590 1522 40       		.sleb128 -64
 8591 1523 26       		.uleb128 0x26
 8592 1524 E3120000 		.4byte	.LASF320
 8593 1528 01       		.byte	0x1
 8594 1529 E605     		.2byte	0x5e6
 8595 152b EF000000 		.4byte	0xef
 8596 152f 02       		.uleb128 0x2
 8597 1530 91       		.byte	0x91
 8598 1531 44       		.sleb128 -60
 8599 1532 26       		.uleb128 0x26
 8600 1533 18180000 		.4byte	.LASF321
 8601 1537 01       		.byte	0x1
 8602 1538 E705     		.2byte	0x5e7
 8603 153a 11010000 		.4byte	0x111
 8604 153e 02       		.uleb128 0x2
 8605 153f 91       		.byte	0x91
 8606 1540 48       		.sleb128 -56
 8607 1541 26       		.uleb128 0x26
ARM GAS  C:\Users\PCHAUT~1\AppData\Local\Temp\ccgoQRgJ.s 			page 152


 8608 1542 DB0C0000 		.4byte	.LASF322
 8609 1546 01       		.byte	0x1
 8610 1547 E805     		.2byte	0x5e8
 8611 1549 11010000 		.4byte	0x111
 8612 154d 02       		.uleb128 0x2
 8613 154e 91       		.byte	0x91
 8614 154f 68       		.sleb128 -24
 8615 1550 26       		.uleb128 0x26
 8616 1551 441C0000 		.4byte	.LASF323
 8617 1555 01       		.byte	0x1
 8618 1556 E905     		.2byte	0x5e9
 8619 1558 11010000 		.4byte	0x111
 8620 155c 03       		.uleb128 0x3
 8621 155d 91       		.byte	0x91
 8622 155e A07F     		.sleb128 -96
 8623 1560 26       		.uleb128 0x26
 8624 1561 7A060000 		.4byte	.LASF324
 8625 1565 01       		.byte	0x1
 8626 1566 EA05     		.2byte	0x5ea
 8627 1568 11010000 		.4byte	0x111
 8628 156c 02       		.uleb128 0x2
 8629 156d 91       		.byte	0x91
 8630 156e 54       		.sleb128 -44
 8631 156f 26       		.uleb128 0x26
 8632 1570 5F1C0000 		.4byte	.LASF325
 8633 1574 01       		.byte	0x1
 8634 1575 EB05     		.2byte	0x5eb
 8635 1577 11010000 		.4byte	0x111
 8636 157b 03       		.uleb128 0x3
 8637 157c 91       		.byte	0x91
 8638 157d A47F     		.sleb128 -92
 8639 157f 26       		.uleb128 0x26
 8640 1580 721C0000 		.4byte	.LASF326
 8641 1584 01       		.byte	0x1
 8642 1585 EC05     		.2byte	0x5ec
 8643 1587 11010000 		.4byte	0x111
 8644 158b 02       		.uleb128 0x2
 8645 158c 91       		.byte	0x91
 8646 158d 64       		.sleb128 -28
 8647 158e 26       		.uleb128 0x26
 8648 158f 0A1A0000 		.4byte	.LASF327
 8649 1593 01       		.byte	0x1
 8650 1594 ED05     		.2byte	0x5ed
 8651 1596 11010000 		.4byte	0x111
 8652 159a 02       		.uleb128 0x2
 8653 159b 91       		.byte	0x91
 8654 159c 5C       		.sleb128 -36
 8655 159d 26       		.uleb128 0x26
 8656 159e E5020000 		.4byte	.LASF328
 8657 15a2 01       		.byte	0x1
 8658 15a3 EE05     		.2byte	0x5ee
 8659 15a5 11010000 		.4byte	0x111
 8660 15a9 02       		.uleb128 0x2
 8661 15aa 91       		.byte	0x91
 8662 15ab 60       		.sleb128 -32
 8663 15ac 26       		.uleb128 0x26
 8664 15ad 32040000 		.4byte	.LASF329
ARM GAS  C:\Users\PCHAUT~1\AppData\Local\Temp\ccgoQRgJ.s 			page 153


 8665 15b1 01       		.byte	0x1
 8666 15b2 EF05     		.2byte	0x5ef
 8667 15b4 11010000 		.4byte	0x111
 8668 15b8 02       		.uleb128 0x2
 8669 15b9 91       		.byte	0x91
 8670 15ba 6C       		.sleb128 -20
 8671 15bb 26       		.uleb128 0x26
 8672 15bc 351A0000 		.4byte	.LASF330
 8673 15c0 01       		.byte	0x1
 8674 15c1 F005     		.2byte	0x5f0
 8675 15c3 11010000 		.4byte	0x111
 8676 15c7 02       		.uleb128 0x2
 8677 15c8 91       		.byte	0x91
 8678 15c9 4C       		.sleb128 -52
 8679 15ca 26       		.uleb128 0x26
 8680 15cb 1F000000 		.4byte	.LASF331
 8681 15cf 01       		.byte	0x1
 8682 15d0 F105     		.2byte	0x5f1
 8683 15d2 11010000 		.4byte	0x111
 8684 15d6 02       		.uleb128 0x2
 8685 15d7 91       		.byte	0x91
 8686 15d8 70       		.sleb128 -16
 8687 15d9 26       		.uleb128 0x26
 8688 15da C3080000 		.4byte	.LASF332
 8689 15de 01       		.byte	0x1
 8690 15df F205     		.2byte	0x5f2
 8691 15e1 11010000 		.4byte	0x111
 8692 15e5 03       		.uleb128 0x3
 8693 15e6 91       		.byte	0x91
 8694 15e7 A87F     		.sleb128 -88
 8695 15e9 26       		.uleb128 0x26
 8696 15ea CD120000 		.4byte	.LASF333
 8697 15ee 01       		.byte	0x1
 8698 15ef F305     		.2byte	0x5f3
 8699 15f1 11010000 		.4byte	0x111
 8700 15f5 03       		.uleb128 0x3
 8701 15f6 91       		.byte	0x91
 8702 15f7 AC7F     		.sleb128 -84
 8703 15f9 26       		.uleb128 0x26
 8704 15fa 02180000 		.4byte	.LASF334
 8705 15fe 01       		.byte	0x1
 8706 15ff F405     		.2byte	0x5f4
 8707 1601 11010000 		.4byte	0x111
 8708 1605 02       		.uleb128 0x2
 8709 1606 91       		.byte	0x91
 8710 1607 58       		.sleb128 -40
 8711 1608 26       		.uleb128 0x26
 8712 1609 4F1A0000 		.4byte	.LASF335
 8713 160d 01       		.byte	0x1
 8714 160e F505     		.2byte	0x5f5
 8715 1610 EF000000 		.4byte	0xef
 8716 1614 02       		.uleb128 0x2
 8717 1615 91       		.byte	0x91
 8718 1616 50       		.sleb128 -48
 8719 1617 26       		.uleb128 0x26
 8720 1618 4A020000 		.4byte	.LASF248
 8721 161c 01       		.byte	0x1
ARM GAS  C:\Users\PCHAUT~1\AppData\Local\Temp\ccgoQRgJ.s 			page 154


 8722 161d F705     		.2byte	0x5f7
 8723 161f AF010000 		.4byte	0x1af
 8724 1623 03       		.uleb128 0x3
 8725 1624 91       		.byte	0x91
 8726 1625 9F7F     		.sleb128 -97
 8727 1627 00       		.byte	0
 8728 1628 23       		.uleb128 0x23
 8729 1629 6F030000 		.4byte	.LASF336
 8730 162d 01       		.byte	0x1
 8731 162e C205     		.2byte	0x5c2
 8732 1630 AF010000 		.4byte	0x1af
 8733 1634 00000000 		.4byte	.LFB24
 8734 1638 64000000 		.4byte	.LFE24-.LFB24
 8735 163c 01       		.uleb128 0x1
 8736 163d 9C       		.byte	0x9c
 8737 163e 8E160000 		.4byte	0x168e
 8738 1642 24       		.uleb128 0x24
 8739 1643 44657600 		.ascii	"Dev\000"
 8740 1647 01       		.byte	0x1
 8741 1648 C205     		.2byte	0x5c2
 8742 164a 690F0000 		.4byte	0xf69
 8743 164e 02       		.uleb128 0x2
 8744 164f 91       		.byte	0x91
 8745 1650 64       		.sleb128 -28
 8746 1651 25       		.uleb128 0x25
 8747 1652 4E0D0000 		.4byte	.LASF246
 8748 1656 01       		.byte	0x1
 8749 1657 C305     		.2byte	0x5c3
 8750 1659 1A110000 		.4byte	0x111a
 8751 165d 02       		.uleb128 0x2
 8752 165e 91       		.byte	0x91
 8753 165f 60       		.sleb128 -32
 8754 1660 25       		.uleb128 0x25
 8755 1661 AB010000 		.4byte	.LASF337
 8756 1665 01       		.byte	0x1
 8757 1666 C405     		.2byte	0x5c4
 8758 1668 2E140000 		.4byte	0x142e
 8759 166c 02       		.uleb128 0x2
 8760 166d 91       		.byte	0x91
 8761 166e 5C       		.sleb128 -36
 8762 166f 26       		.uleb128 0x26
 8763 1670 4A020000 		.4byte	.LASF248
 8764 1674 01       		.byte	0x1
 8765 1675 C605     		.2byte	0x5c6
 8766 1677 AF010000 		.4byte	0x1af
 8767 167b 02       		.uleb128 0x2
 8768 167c 91       		.byte	0x91
 8769 167d 6F       		.sleb128 -17
 8770 167e 26       		.uleb128 0x26
 8771 167f 4E190000 		.4byte	.LASF338
 8772 1683 01       		.byte	0x1
 8773 1684 C705     		.2byte	0x5c7
 8774 1686 11010000 		.4byte	0x111
 8775 168a 02       		.uleb128 0x2
 8776 168b 91       		.byte	0x91
 8777 168c 70       		.sleb128 -16
 8778 168d 00       		.byte	0
ARM GAS  C:\Users\PCHAUT~1\AppData\Local\Temp\ccgoQRgJ.s 			page 155


 8779 168e 23       		.uleb128 0x23
 8780 168f FD100000 		.4byte	.LASF339
 8781 1693 01       		.byte	0x1
 8782 1694 9E05     		.2byte	0x59e
 8783 1696 AF010000 		.4byte	0x1af
 8784 169a 00000000 		.4byte	.LFB23
 8785 169e 7C000000 		.4byte	.LFE23-.LFB23
 8786 16a2 01       		.uleb128 0x1
 8787 16a3 9C       		.byte	0x9c
 8788 16a4 12170000 		.4byte	0x1712
 8789 16a8 24       		.uleb128 0x24
 8790 16a9 44657600 		.ascii	"Dev\000"
 8791 16ad 01       		.byte	0x1
 8792 16ae 9E05     		.2byte	0x59e
 8793 16b0 690F0000 		.4byte	0xf69
 8794 16b4 02       		.uleb128 0x2
 8795 16b5 91       		.byte	0x91
 8796 16b6 64       		.sleb128 -28
 8797 16b7 25       		.uleb128 0x25
 8798 16b8 4E0D0000 		.4byte	.LASF246
 8799 16bc 01       		.byte	0x1
 8800 16bd 9F05     		.2byte	0x59f
 8801 16bf 1A110000 		.4byte	0x111a
 8802 16c3 02       		.uleb128 0x2
 8803 16c4 91       		.byte	0x91
 8804 16c5 60       		.sleb128 -32
 8805 16c6 25       		.uleb128 0x25
 8806 16c7 6E190000 		.4byte	.LASF340
 8807 16cb 01       		.byte	0x1
 8808 16cc A005     		.2byte	0x5a0
 8809 16ce 2E140000 		.4byte	0x142e
 8810 16d2 02       		.uleb128 0x2
 8811 16d3 91       		.byte	0x91
 8812 16d4 5C       		.sleb128 -36
 8813 16d5 26       		.uleb128 0x26
 8814 16d6 4A020000 		.4byte	.LASF248
 8815 16da 01       		.byte	0x1
 8816 16db A205     		.2byte	0x5a2
 8817 16dd AF010000 		.4byte	0x1af
 8818 16e1 02       		.uleb128 0x2
 8819 16e2 91       		.byte	0x91
 8820 16e3 6B       		.sleb128 -21
 8821 16e4 26       		.uleb128 0x26
 8822 16e5 150D0000 		.4byte	.LASF341
 8823 16e9 01       		.byte	0x1
 8824 16ea A405     		.2byte	0x5a4
 8825 16ec C3000000 		.4byte	0xc3
 8826 16f0 02       		.uleb128 0x2
 8827 16f1 91       		.byte	0x91
 8828 16f2 6A       		.sleb128 -22
 8829 16f3 26       		.uleb128 0x26
 8830 16f4 4E190000 		.4byte	.LASF338
 8831 16f8 01       		.byte	0x1
 8832 16f9 A505     		.2byte	0x5a5
 8833 16fb 11010000 		.4byte	0x111
 8834 16ff 02       		.uleb128 0x2
 8835 1700 91       		.byte	0x91
ARM GAS  C:\Users\PCHAUT~1\AppData\Local\Temp\ccgoQRgJ.s 			page 156


 8836 1701 70       		.sleb128 -16
 8837 1702 26       		.uleb128 0x26
 8838 1703 28190000 		.4byte	.LASF342
 8839 1707 01       		.byte	0x1
 8840 1708 A605     		.2byte	0x5a6
 8841 170a 11010000 		.4byte	0x111
 8842 170e 02       		.uleb128 0x2
 8843 170f 91       		.byte	0x91
 8844 1710 6C       		.sleb128 -20
 8845 1711 00       		.byte	0
 8846 1712 23       		.uleb128 0x23
 8847 1713 60020000 		.4byte	.LASF343
 8848 1717 01       		.byte	0x1
 8849 1718 4805     		.2byte	0x548
 8850 171a AF010000 		.4byte	0x1af
 8851 171e 00000000 		.4byte	.LFB22
 8852 1722 24020000 		.4byte	.LFE22-.LFB22
 8853 1726 01       		.uleb128 0x1
 8854 1727 9C       		.byte	0x9c
 8855 1728 DF170000 		.4byte	0x17df
 8856 172c 24       		.uleb128 0x24
 8857 172d 44657600 		.ascii	"Dev\000"
 8858 1731 01       		.byte	0x1
 8859 1732 4805     		.2byte	0x548
 8860 1734 690F0000 		.4byte	0xf69
 8861 1738 02       		.uleb128 0x2
 8862 1739 91       		.byte	0x91
 8863 173a 5C       		.sleb128 -36
 8864 173b 25       		.uleb128 0x25
 8865 173c 96010000 		.4byte	.LASF344
 8866 1740 01       		.byte	0x1
 8867 1741 4905     		.2byte	0x549
 8868 1743 97060000 		.4byte	0x697
 8869 1747 02       		.uleb128 0x2
 8870 1748 91       		.byte	0x91
 8871 1749 58       		.sleb128 -40
 8872 174a 26       		.uleb128 0x26
 8873 174b 4A020000 		.4byte	.LASF248
 8874 174f 01       		.byte	0x1
 8875 1750 4B05     		.2byte	0x54b
 8876 1752 AF010000 		.4byte	0x1af
 8877 1756 02       		.uleb128 0x2
 8878 1757 91       		.byte	0x91
 8879 1758 60       		.sleb128 -32
 8880 1759 27       		.uleb128 0x27
 8881 175a 6900     		.ascii	"i\000"
 8882 175c 01       		.byte	0x1
 8883 175d 4C05     		.2byte	0x54c
 8884 175f AA000000 		.4byte	0xaa
 8885 1763 02       		.uleb128 0x2
 8886 1764 91       		.byte	0x91
 8887 1765 68       		.sleb128 -24
 8888 1766 26       		.uleb128 0x26
 8889 1767 53180000 		.4byte	.LASF345
 8890 176b 01       		.byte	0x1
 8891 176c 4D05     		.2byte	0x54d
 8892 176e AA000000 		.4byte	0xaa
ARM GAS  C:\Users\PCHAUT~1\AppData\Local\Temp\ccgoQRgJ.s 			page 157


 8893 1772 02       		.uleb128 0x2
 8894 1773 91       		.byte	0x91
 8895 1774 6C       		.sleb128 -20
 8896 1775 27       		.uleb128 0x27
 8897 1776 6D736200 		.ascii	"msb\000"
 8898 177a 01       		.byte	0x1
 8899 177b 4E05     		.2byte	0x54e
 8900 177d C3000000 		.4byte	0xc3
 8901 1781 02       		.uleb128 0x2
 8902 1782 91       		.byte	0x91
 8903 1783 64       		.sleb128 -28
 8904 1784 27       		.uleb128 0x27
 8905 1785 6C736200 		.ascii	"lsb\000"
 8906 1789 01       		.byte	0x1
 8907 178a 4F05     		.2byte	0x54f
 8908 178c C3000000 		.4byte	0xc3
 8909 1790 02       		.uleb128 0x2
 8910 1791 91       		.byte	0x91
 8911 1792 65       		.sleb128 -27
 8912 1793 26       		.uleb128 0x26
 8913 1794 35080000 		.4byte	.LASF346
 8914 1798 01       		.byte	0x1
 8915 1799 5005     		.2byte	0x550
 8916 179b C3000000 		.4byte	0xc3
 8917 179f 02       		.uleb128 0x2
 8918 17a0 91       		.byte	0x91
 8919 17a1 63       		.sleb128 -29
 8920 17a2 26       		.uleb128 0x26
 8921 17a3 830E0000 		.4byte	.LASF347
 8922 17a7 01       		.byte	0x1
 8923 17a8 5105     		.2byte	0x551
 8924 17aa C3000000 		.4byte	0xc3
 8925 17ae 02       		.uleb128 0x2
 8926 17af 91       		.byte	0x91
 8927 17b0 61       		.sleb128 -31
 8928 17b1 26       		.uleb128 0x26
 8929 17b2 A21B0000 		.4byte	.LASF348
 8930 17b6 01       		.byte	0x1
 8931 17b7 5205     		.2byte	0x552
 8932 17b9 C3000000 		.4byte	0xc3
 8933 17bd 02       		.uleb128 0x2
 8934 17be 91       		.byte	0x91
 8935 17bf 62       		.sleb128 -30
 8936 17c0 26       		.uleb128 0x26
 8937 17c1 BF0E0000 		.4byte	.LASF349
 8938 17c5 01       		.byte	0x1
 8939 17c6 5305     		.2byte	0x553
 8940 17c8 DF170000 		.4byte	0x17df
 8941 17cc 02       		.uleb128 0x2
 8942 17cd 91       		.byte	0x91
 8943 17ce 70       		.sleb128 -16
 8944 17cf 26       		.uleb128 0x26
 8945 17d0 B3150000 		.4byte	.LASF350
 8946 17d4 01       		.byte	0x1
 8947 17d5 5405     		.2byte	0x554
 8948 17d7 D9000000 		.4byte	0xd9
 8949 17db 02       		.uleb128 0x2
ARM GAS  C:\Users\PCHAUT~1\AppData\Local\Temp\ccgoQRgJ.s 			page 158


 8950 17dc 91       		.byte	0x91
 8951 17dd 66       		.sleb128 -26
 8952 17de 00       		.byte	0
 8953 17df 08       		.uleb128 0x8
 8954 17e0 C3000000 		.4byte	0xc3
 8955 17e4 EF170000 		.4byte	0x17ef
 8956 17e8 09       		.uleb128 0x9
 8957 17e9 B1000000 		.4byte	0xb1
 8958 17ed 03       		.byte	0x3
 8959 17ee 00       		.byte	0
 8960 17ef 23       		.uleb128 0x23
 8961 17f0 6D0F0000 		.4byte	.LASF351
 8962 17f4 01       		.byte	0x1
 8963 17f5 ED04     		.2byte	0x4ed
 8964 17f7 AF010000 		.4byte	0x1af
 8965 17fb 00000000 		.4byte	.LFB21
 8966 17ff 80010000 		.4byte	.LFE21-.LFB21
 8967 1803 01       		.uleb128 0x1
 8968 1804 9C       		.byte	0x9c
 8969 1805 DE180000 		.4byte	0x18de
 8970 1809 24       		.uleb128 0x24
 8971 180a 44657600 		.ascii	"Dev\000"
 8972 180e 01       		.byte	0x1
 8973 180f ED04     		.2byte	0x4ed
 8974 1811 690F0000 		.4byte	0xf69
 8975 1815 03       		.uleb128 0x3
 8976 1816 91       		.byte	0x91
 8977 1817 BC7F     		.sleb128 -68
 8978 1819 25       		.uleb128 0x25
 8979 181a B8130000 		.4byte	.LASF352
 8980 181e 01       		.byte	0x1
 8981 181f EE04     		.2byte	0x4ee
 8982 1821 34140000 		.4byte	0x1434
 8983 1825 03       		.uleb128 0x3
 8984 1826 91       		.byte	0x91
 8985 1827 B87F     		.sleb128 -72
 8986 1829 26       		.uleb128 0x26
 8987 182a 4A020000 		.4byte	.LASF248
 8988 182e 01       		.byte	0x1
 8989 182f F004     		.2byte	0x4f0
 8990 1831 AF010000 		.4byte	0x1af
 8991 1835 02       		.uleb128 0x2
 8992 1836 91       		.byte	0x91
 8993 1837 43       		.sleb128 -61
 8994 1838 26       		.uleb128 0x26
 8995 1839 1D0F0000 		.4byte	.LASF353
 8996 183d 01       		.byte	0x1
 8997 183e F104     		.2byte	0x4f1
 8998 1840 00070000 		.4byte	0x700
 8999 1844 02       		.uleb128 0x2
 9000 1845 91       		.byte	0x91
 9001 1846 6C       		.sleb128 -20
 9002 1847 26       		.uleb128 0x26
 9003 1848 FA020000 		.4byte	.LASF354
 9004 184c 01       		.byte	0x1
 9005 184d F204     		.2byte	0x4f2
 9006 184f EF000000 		.4byte	0xef
ARM GAS  C:\Users\PCHAUT~1\AppData\Local\Temp\ccgoQRgJ.s 			page 159


 9007 1853 02       		.uleb128 0x2
 9008 1854 91       		.byte	0x91
 9009 1855 44       		.sleb128 -60
 9010 1856 26       		.uleb128 0x26
 9011 1857 AE0B0000 		.4byte	.LASF355
 9012 185b 01       		.byte	0x1
 9013 185c F304     		.2byte	0x4f3
 9014 185e EF000000 		.4byte	0xef
 9015 1862 02       		.uleb128 0x2
 9016 1863 91       		.byte	0x91
 9017 1864 48       		.sleb128 -56
 9018 1865 26       		.uleb128 0x26
 9019 1866 7C150000 		.4byte	.LASF356
 9020 186a 01       		.byte	0x1
 9021 186b F404     		.2byte	0x4f4
 9022 186d EF000000 		.4byte	0xef
 9023 1871 02       		.uleb128 0x2
 9024 1872 91       		.byte	0x91
 9025 1873 50       		.sleb128 -48
 9026 1874 26       		.uleb128 0x26
 9027 1875 C3010000 		.4byte	.LASF357
 9028 1879 01       		.byte	0x1
 9029 187a F504     		.2byte	0x4f5
 9030 187c EF000000 		.4byte	0xef
 9031 1880 02       		.uleb128 0x2
 9032 1881 91       		.byte	0x91
 9033 1882 54       		.sleb128 -44
 9034 1883 26       		.uleb128 0x26
 9035 1884 21120000 		.4byte	.LASF358
 9036 1888 01       		.byte	0x1
 9037 1889 F604     		.2byte	0x4f6
 9038 188b EF000000 		.4byte	0xef
 9039 188f 02       		.uleb128 0x2
 9040 1890 91       		.byte	0x91
 9041 1891 58       		.sleb128 -40
 9042 1892 26       		.uleb128 0x26
 9043 1893 41080000 		.4byte	.LASF359
 9044 1897 01       		.byte	0x1
 9045 1898 F704     		.2byte	0x4f7
 9046 189a EF000000 		.4byte	0xef
 9047 189e 02       		.uleb128 0x2
 9048 189f 91       		.byte	0x91
 9049 18a0 5C       		.sleb128 -36
 9050 18a1 26       		.uleb128 0x26
 9051 18a2 57060000 		.4byte	.LASF360
 9052 18a6 01       		.byte	0x1
 9053 18a7 F804     		.2byte	0x4f8
 9054 18a9 EF000000 		.4byte	0xef
 9055 18ad 02       		.uleb128 0x2
 9056 18ae 91       		.byte	0x91
 9057 18af 60       		.sleb128 -32
 9058 18b0 26       		.uleb128 0x26
 9059 18b1 FC0F0000 		.4byte	.LASF361
 9060 18b5 01       		.byte	0x1
 9061 18b6 F904     		.2byte	0x4f9
 9062 18b8 EF000000 		.4byte	0xef
 9063 18bc 02       		.uleb128 0x2
ARM GAS  C:\Users\PCHAUT~1\AppData\Local\Temp\ccgoQRgJ.s 			page 160


 9064 18bd 91       		.byte	0x91
 9065 18be 64       		.sleb128 -28
 9066 18bf 26       		.uleb128 0x26
 9067 18c0 E30B0000 		.4byte	.LASF362
 9068 18c4 01       		.byte	0x1
 9069 18c5 FA04     		.2byte	0x4fa
 9070 18c7 EF000000 		.4byte	0xef
 9071 18cb 02       		.uleb128 0x2
 9072 18cc 91       		.byte	0x91
 9073 18cd 68       		.sleb128 -24
 9074 18ce 26       		.uleb128 0x26
 9075 18cf C6140000 		.4byte	.LASF363
 9076 18d3 01       		.byte	0x1
 9077 18d4 FB04     		.2byte	0x4fb
 9078 18d6 EF000000 		.4byte	0xef
 9079 18da 02       		.uleb128 0x2
 9080 18db 91       		.byte	0x91
 9081 18dc 4C       		.sleb128 -52
 9082 18dd 00       		.byte	0
 9083 18de 23       		.uleb128 0x23
 9084 18df BA190000 		.4byte	.LASF364
 9085 18e3 01       		.byte	0x1
 9086 18e4 5704     		.2byte	0x457
 9087 18e6 AF010000 		.4byte	0x1af
 9088 18ea 00000000 		.4byte	.LFB20
 9089 18ee E0010000 		.4byte	.LFE20-.LFB20
 9090 18f2 01       		.uleb128 0x1
 9091 18f3 9C       		.byte	0x9c
 9092 18f4 ED190000 		.4byte	0x19ed
 9093 18f8 24       		.uleb128 0x24
 9094 18f9 44657600 		.ascii	"Dev\000"
 9095 18fd 01       		.byte	0x1
 9096 18fe 5704     		.2byte	0x457
 9097 1900 690F0000 		.4byte	0xf69
 9098 1904 03       		.uleb128 0x3
 9099 1905 91       		.byte	0x91
 9100 1906 B47F     		.sleb128 -76
 9101 1908 25       		.uleb128 0x25
 9102 1909 450C0000 		.4byte	.LASF41
 9103 190d 01       		.byte	0x1
 9104 190e 5804     		.2byte	0x458
 9105 1910 EF000000 		.4byte	0xef
 9106 1914 03       		.uleb128 0x3
 9107 1915 91       		.byte	0x91
 9108 1916 B07F     		.sleb128 -80
 9109 1918 26       		.uleb128 0x26
 9110 1919 4A020000 		.4byte	.LASF248
 9111 191d 01       		.byte	0x1
 9112 191e 5A04     		.2byte	0x45a
 9113 1920 AF010000 		.4byte	0x1af
 9114 1924 03       		.uleb128 0x3
 9115 1925 91       		.byte	0x91
 9116 1926 BB7F     		.sleb128 -69
 9117 1928 26       		.uleb128 0x26
 9118 1929 920D0000 		.4byte	.LASF365
 9119 192d 01       		.byte	0x1
 9120 192e 5B04     		.2byte	0x45b
ARM GAS  C:\Users\PCHAUT~1\AppData\Local\Temp\ccgoQRgJ.s 			page 161


 9121 1930 EF000000 		.4byte	0xef
 9122 1934 02       		.uleb128 0x2
 9123 1935 91       		.byte	0x91
 9124 1936 44       		.sleb128 -60
 9125 1937 26       		.uleb128 0x26
 9126 1938 1D0F0000 		.4byte	.LASF353
 9127 193c 01       		.byte	0x1
 9128 193d 5C04     		.2byte	0x45c
 9129 193f 00070000 		.4byte	0x700
 9130 1943 02       		.uleb128 0x2
 9131 1944 91       		.byte	0x91
 9132 1945 6C       		.sleb128 -20
 9133 1946 26       		.uleb128 0x26
 9134 1947 AE0B0000 		.4byte	.LASF355
 9135 194b 01       		.byte	0x1
 9136 194c 5D04     		.2byte	0x45d
 9137 194e EF000000 		.4byte	0xef
 9138 1952 03       		.uleb128 0x3
 9139 1953 91       		.byte	0x91
 9140 1954 BC7F     		.sleb128 -68
 9141 1956 26       		.uleb128 0x26
 9142 1957 7C150000 		.4byte	.LASF356
 9143 195b 01       		.byte	0x1
 9144 195c 5E04     		.2byte	0x45e
 9145 195e EF000000 		.4byte	0xef
 9146 1962 02       		.uleb128 0x2
 9147 1963 91       		.byte	0x91
 9148 1964 48       		.sleb128 -56
 9149 1965 26       		.uleb128 0x26
 9150 1966 C3010000 		.4byte	.LASF357
 9151 196a 01       		.byte	0x1
 9152 196b 5F04     		.2byte	0x45f
 9153 196d EF000000 		.4byte	0xef
 9154 1971 02       		.uleb128 0x2
 9155 1972 91       		.byte	0x91
 9156 1973 4C       		.sleb128 -52
 9157 1974 26       		.uleb128 0x26
 9158 1975 21120000 		.4byte	.LASF358
 9159 1979 01       		.byte	0x1
 9160 197a 6004     		.2byte	0x460
 9161 197c EF000000 		.4byte	0xef
 9162 1980 02       		.uleb128 0x2
 9163 1981 91       		.byte	0x91
 9164 1982 50       		.sleb128 -48
 9165 1983 26       		.uleb128 0x26
 9166 1984 41080000 		.4byte	.LASF359
 9167 1988 01       		.byte	0x1
 9168 1989 6104     		.2byte	0x461
 9169 198b EF000000 		.4byte	0xef
 9170 198f 02       		.uleb128 0x2
 9171 1990 91       		.byte	0x91
 9172 1991 54       		.sleb128 -44
 9173 1992 26       		.uleb128 0x26
 9174 1993 57060000 		.4byte	.LASF360
 9175 1997 01       		.byte	0x1
 9176 1998 6204     		.2byte	0x462
 9177 199a EF000000 		.4byte	0xef
ARM GAS  C:\Users\PCHAUT~1\AppData\Local\Temp\ccgoQRgJ.s 			page 162


 9178 199e 02       		.uleb128 0x2
 9179 199f 91       		.byte	0x91
 9180 19a0 58       		.sleb128 -40
 9181 19a1 26       		.uleb128 0x26
 9182 19a2 FC0F0000 		.4byte	.LASF361
 9183 19a6 01       		.byte	0x1
 9184 19a7 6304     		.2byte	0x463
 9185 19a9 EF000000 		.4byte	0xef
 9186 19ad 02       		.uleb128 0x2
 9187 19ae 91       		.byte	0x91
 9188 19af 5C       		.sleb128 -36
 9189 19b0 26       		.uleb128 0x26
 9190 19b1 E30B0000 		.4byte	.LASF362
 9191 19b5 01       		.byte	0x1
 9192 19b6 6404     		.2byte	0x464
 9193 19b8 EF000000 		.4byte	0xef
 9194 19bc 02       		.uleb128 0x2
 9195 19bd 91       		.byte	0x91
 9196 19be 60       		.sleb128 -32
 9197 19bf 26       		.uleb128 0x26
 9198 19c0 C6140000 		.4byte	.LASF363
 9199 19c4 01       		.byte	0x1
 9200 19c5 6504     		.2byte	0x465
 9201 19c7 EF000000 		.4byte	0xef
 9202 19cb 02       		.uleb128 0x2
 9203 19cc 91       		.byte	0x91
 9204 19cd 40       		.sleb128 -64
 9205 19ce 26       		.uleb128 0x26
 9206 19cf 90140000 		.4byte	.LASF366
 9207 19d3 01       		.byte	0x1
 9208 19d4 6604     		.2byte	0x466
 9209 19d6 EF000000 		.4byte	0xef
 9210 19da 02       		.uleb128 0x2
 9211 19db 91       		.byte	0x91
 9212 19dc 64       		.sleb128 -28
 9213 19dd 26       		.uleb128 0x26
 9214 19de 78100000 		.4byte	.LASF367
 9215 19e2 01       		.byte	0x1
 9216 19e3 6704     		.2byte	0x467
 9217 19e5 EF000000 		.4byte	0xef
 9218 19e9 02       		.uleb128 0x2
 9219 19ea 91       		.byte	0x91
 9220 19eb 68       		.sleb128 -24
 9221 19ec 00       		.byte	0
 9222 19ed 23       		.uleb128 0x23
 9223 19ee 0C1C0000 		.4byte	.LASF368
 9224 19f2 01       		.byte	0x1
 9225 19f3 3904     		.2byte	0x439
 9226 19f5 AF010000 		.4byte	0x1af
 9227 19f9 00000000 		.4byte	.LFB19
 9228 19fd 94000000 		.4byte	.LFE19-.LFB19
 9229 1a01 01       		.uleb128 0x1
 9230 1a02 9C       		.byte	0x9c
 9231 1a03 531A0000 		.4byte	0x1a53
 9232 1a07 24       		.uleb128 0x24
 9233 1a08 44657600 		.ascii	"Dev\000"
 9234 1a0c 01       		.byte	0x1
ARM GAS  C:\Users\PCHAUT~1\AppData\Local\Temp\ccgoQRgJ.s 			page 163


 9235 1a0d 3904     		.2byte	0x439
 9236 1a0f 690F0000 		.4byte	0xf69
 9237 1a13 02       		.uleb128 0x2
 9238 1a14 91       		.byte	0x91
 9239 1a15 6C       		.sleb128 -20
 9240 1a16 25       		.uleb128 0x25
 9241 1a17 3D150000 		.4byte	.LASF369
 9242 1a1b 01       		.byte	0x1
 9243 1a1c 3A04     		.2byte	0x43a
 9244 1a1e A9060000 		.4byte	0x6a9
 9245 1a22 02       		.uleb128 0x2
 9246 1a23 91       		.byte	0x91
 9247 1a24 6B       		.sleb128 -21
 9248 1a25 25       		.uleb128 0x25
 9249 1a26 04130000 		.4byte	.LASF370
 9250 1a2a 01       		.byte	0x1
 9251 1a2b 3A04     		.2byte	0x43a
 9252 1a2d 97060000 		.4byte	0x697
 9253 1a31 02       		.uleb128 0x2
 9254 1a32 91       		.byte	0x91
 9255 1a33 64       		.sleb128 -28
 9256 1a34 26       		.uleb128 0x26
 9257 1a35 4A020000 		.4byte	.LASF248
 9258 1a39 01       		.byte	0x1
 9259 1a3a 3C04     		.2byte	0x43c
 9260 1a3c AF010000 		.4byte	0x1af
 9261 1a40 02       		.uleb128 0x2
 9262 1a41 91       		.byte	0x91
 9263 1a42 73       		.sleb128 -13
 9264 1a43 26       		.uleb128 0x26
 9265 1a44 7A070000 		.4byte	.LASF371
 9266 1a48 01       		.byte	0x1
 9267 1a49 3D04     		.2byte	0x43d
 9268 1a4b C3000000 		.4byte	0xc3
 9269 1a4f 02       		.uleb128 0x2
 9270 1a50 91       		.byte	0x91
 9271 1a51 72       		.sleb128 -14
 9272 1a52 00       		.byte	0
 9273 1a53 23       		.uleb128 0x23
 9274 1a54 26010000 		.4byte	.LASF372
 9275 1a58 01       		.byte	0x1
 9276 1a59 4003     		.2byte	0x340
 9277 1a5b AF010000 		.4byte	0x1af
 9278 1a5f 00000000 		.4byte	.LFB18
 9279 1a63 58050000 		.4byte	.LFE18-.LFB18
 9280 1a67 01       		.uleb128 0x1
 9281 1a68 9C       		.byte	0x9c
 9282 1a69 401B0000 		.4byte	0x1b40
 9283 1a6d 24       		.uleb128 0x24
 9284 1a6e 44657600 		.ascii	"Dev\000"
 9285 1a72 01       		.byte	0x1
 9286 1a73 4003     		.2byte	0x340
 9287 1a75 690F0000 		.4byte	0xf69
 9288 1a79 02       		.uleb128 0x2
 9289 1a7a 91       		.byte	0x91
 9290 1a7b 54       		.sleb128 -44
 9291 1a7c 25       		.uleb128 0x25
ARM GAS  C:\Users\PCHAUT~1\AppData\Local\Temp\ccgoQRgJ.s 			page 164


 9292 1a7d 3D150000 		.4byte	.LASF369
 9293 1a81 01       		.byte	0x1
 9294 1a82 4103     		.2byte	0x341
 9295 1a84 A9060000 		.4byte	0x6a9
 9296 1a88 02       		.uleb128 0x2
 9297 1a89 91       		.byte	0x91
 9298 1a8a 53       		.sleb128 -45
 9299 1a8b 25       		.uleb128 0x25
 9300 1a8c 43100000 		.4byte	.LASF373
 9301 1a90 01       		.byte	0x1
 9302 1a91 4103     		.2byte	0x341
 9303 1a93 C3000000 		.4byte	0xc3
 9304 1a97 02       		.uleb128 0x2
 9305 1a98 91       		.byte	0x91
 9306 1a99 52       		.sleb128 -46
 9307 1a9a 26       		.uleb128 0x26
 9308 1a9b 4A020000 		.4byte	.LASF248
 9309 1a9f 01       		.byte	0x1
 9310 1aa0 4303     		.2byte	0x343
 9311 1aa2 AF010000 		.4byte	0x1af
 9312 1aa6 02       		.uleb128 0x2
 9313 1aa7 91       		.byte	0x91
 9314 1aa8 5E       		.sleb128 -34
 9315 1aa9 26       		.uleb128 0x26
 9316 1aaa 7A070000 		.4byte	.LASF371
 9317 1aae 01       		.byte	0x1
 9318 1aaf 4403     		.2byte	0x344
 9319 1ab1 C3000000 		.4byte	0xc3
 9320 1ab5 02       		.uleb128 0x2
 9321 1ab6 91       		.byte	0x91
 9322 1ab7 63       		.sleb128 -29
 9323 1ab8 26       		.uleb128 0x26
 9324 1ab9 DE150000 		.4byte	.LASF374
 9325 1abd 01       		.byte	0x1
 9326 1abe 4503     		.2byte	0x345
 9327 1ac0 C3000000 		.4byte	0xc3
 9328 1ac4 02       		.uleb128 0x2
 9329 1ac5 91       		.byte	0x91
 9330 1ac6 5F       		.sleb128 -33
 9331 1ac7 26       		.uleb128 0x26
 9332 1ac8 3E0E0000 		.4byte	.LASF375
 9333 1acc 01       		.byte	0x1
 9334 1acd 4603     		.2byte	0x346
 9335 1acf C3000000 		.4byte	0xc3
 9336 1ad3 02       		.uleb128 0x2
 9337 1ad4 91       		.byte	0x91
 9338 1ad5 60       		.sleb128 -32
 9339 1ad6 26       		.uleb128 0x26
 9340 1ad7 E4060000 		.4byte	.LASF376
 9341 1adb 01       		.byte	0x1
 9342 1adc 4703     		.2byte	0x347
 9343 1ade C3000000 		.4byte	0xc3
 9344 1ae2 02       		.uleb128 0x2
 9345 1ae3 91       		.byte	0x91
 9346 1ae4 61       		.sleb128 -31
 9347 1ae5 26       		.uleb128 0x26
 9348 1ae6 BA150000 		.4byte	.LASF377
ARM GAS  C:\Users\PCHAUT~1\AppData\Local\Temp\ccgoQRgJ.s 			page 165


 9349 1aea 01       		.byte	0x1
 9350 1aeb 4803     		.2byte	0x348
 9351 1aed C3000000 		.4byte	0xc3
 9352 1af1 02       		.uleb128 0x2
 9353 1af2 91       		.byte	0x91
 9354 1af3 62       		.sleb128 -30
 9355 1af4 26       		.uleb128 0x26
 9356 1af5 450C0000 		.4byte	.LASF41
 9357 1af9 01       		.byte	0x1
 9358 1afa 4903     		.2byte	0x349
 9359 1afc EF000000 		.4byte	0xef
 9360 1b00 02       		.uleb128 0x2
 9361 1b01 91       		.byte	0x91
 9362 1b02 70       		.sleb128 -16
 9363 1b03 26       		.uleb128 0x26
 9364 1b04 FA020000 		.4byte	.LASF354
 9365 1b08 01       		.byte	0x1
 9366 1b09 4A03     		.2byte	0x34a
 9367 1b0b EF000000 		.4byte	0xef
 9368 1b0f 02       		.uleb128 0x2
 9369 1b10 91       		.byte	0x91
 9370 1b11 64       		.sleb128 -28
 9371 1b12 26       		.uleb128 0x26
 9372 1b13 C6140000 		.4byte	.LASF363
 9373 1b17 01       		.byte	0x1
 9374 1b18 4B03     		.2byte	0x34b
 9375 1b1a EF000000 		.4byte	0xef
 9376 1b1e 02       		.uleb128 0x2
 9377 1b1f 91       		.byte	0x91
 9378 1b20 68       		.sleb128 -24
 9379 1b21 26       		.uleb128 0x26
 9380 1b22 EC110000 		.4byte	.LASF378
 9381 1b26 01       		.byte	0x1
 9382 1b27 4C03     		.2byte	0x34c
 9383 1b29 EF000000 		.4byte	0xef
 9384 1b2d 02       		.uleb128 0x2
 9385 1b2e 91       		.byte	0x91
 9386 1b2f 6C       		.sleb128 -20
 9387 1b30 26       		.uleb128 0x26
 9388 1b31 9E1A0000 		.4byte	.LASF379
 9389 1b35 01       		.byte	0x1
 9390 1b36 4D03     		.2byte	0x34d
 9391 1b38 C3000000 		.4byte	0xc3
 9392 1b3c 02       		.uleb128 0x2
 9393 1b3d 91       		.byte	0x91
 9394 1b3e 5D       		.sleb128 -35
 9395 1b3f 00       		.byte	0
 9396 1b40 23       		.uleb128 0x23
 9397 1b41 0C010000 		.4byte	.LASF380
 9398 1b45 01       		.byte	0x1
 9399 1b46 B002     		.2byte	0x2b0
 9400 1b48 AF010000 		.4byte	0x1af
 9401 1b4c 00000000 		.4byte	.LFB17
 9402 1b50 28020000 		.4byte	.LFE17-.LFB17
 9403 1b54 01       		.uleb128 0x1
 9404 1b55 9C       		.byte	0x9c
 9405 1b56 0F1C0000 		.4byte	0x1c0f
ARM GAS  C:\Users\PCHAUT~1\AppData\Local\Temp\ccgoQRgJ.s 			page 166


 9406 1b5a 24       		.uleb128 0x24
 9407 1b5b 44657600 		.ascii	"Dev\000"
 9408 1b5f 01       		.byte	0x1
 9409 1b60 B002     		.2byte	0x2b0
 9410 1b62 690F0000 		.4byte	0xf69
 9411 1b66 02       		.uleb128 0x2
 9412 1b67 91       		.byte	0x91
 9413 1b68 54       		.sleb128 -44
 9414 1b69 25       		.uleb128 0x25
 9415 1b6a 7D080000 		.4byte	.LASF381
 9416 1b6e 01       		.byte	0x1
 9417 1b6f B102     		.2byte	0x2b1
 9418 1b71 0C070000 		.4byte	0x70c
 9419 1b75 02       		.uleb128 0x2
 9420 1b76 91       		.byte	0x91
 9421 1b77 53       		.sleb128 -45
 9422 1b78 25       		.uleb128 0x25
 9423 1b79 0B1D0000 		.4byte	.LASF382
 9424 1b7d 01       		.byte	0x1
 9425 1b7e B202     		.2byte	0x2b2
 9426 1b80 EF000000 		.4byte	0xef
 9427 1b84 02       		.uleb128 0x2
 9428 1b85 91       		.byte	0x91
 9429 1b86 4C       		.sleb128 -52
 9430 1b87 26       		.uleb128 0x26
 9431 1b88 4A020000 		.4byte	.LASF248
 9432 1b8c 01       		.byte	0x1
 9433 1b8d B402     		.2byte	0x2b4
 9434 1b8f AF010000 		.4byte	0x1af
 9435 1b93 02       		.uleb128 0x2
 9436 1b94 91       		.byte	0x91
 9437 1b95 5E       		.sleb128 -34
 9438 1b96 26       		.uleb128 0x26
 9439 1b97 170B0000 		.4byte	.LASF383
 9440 1b9b 01       		.byte	0x1
 9441 1b9c B502     		.2byte	0x2b5
 9442 1b9e C3000000 		.4byte	0xc3
 9443 1ba2 02       		.uleb128 0x2
 9444 1ba3 91       		.byte	0x91
 9445 1ba4 5D       		.sleb128 -35
 9446 1ba5 26       		.uleb128 0x26
 9447 1ba6 48090000 		.4byte	.LASF384
 9448 1baa 01       		.byte	0x1
 9449 1bab B602     		.2byte	0x2b6
 9450 1bad C3000000 		.4byte	0xc3
 9451 1bb1 02       		.uleb128 0x2
 9452 1bb2 91       		.byte	0x91
 9453 1bb3 5F       		.sleb128 -33
 9454 1bb4 26       		.uleb128 0x26
 9455 1bb5 08000000 		.4byte	.LASF385
 9456 1bb9 01       		.byte	0x1
 9457 1bba B702     		.2byte	0x2b7
 9458 1bbc D9000000 		.4byte	0xd9
 9459 1bc0 02       		.uleb128 0x2
 9460 1bc1 91       		.byte	0x91
 9461 1bc2 60       		.sleb128 -32
 9462 1bc3 26       		.uleb128 0x26
ARM GAS  C:\Users\PCHAUT~1\AppData\Local\Temp\ccgoQRgJ.s 			page 167


 9463 1bc4 65130000 		.4byte	.LASF386
 9464 1bc8 01       		.byte	0x1
 9465 1bc9 B802     		.2byte	0x2b8
 9466 1bcb D9000000 		.4byte	0xd9
 9467 1bcf 02       		.uleb128 0x2
 9468 1bd0 91       		.byte	0x91
 9469 1bd1 62       		.sleb128 -30
 9470 1bd2 26       		.uleb128 0x26
 9471 1bd3 EE1B0000 		.4byte	.LASF387
 9472 1bd7 01       		.byte	0x1
 9473 1bd8 B902     		.2byte	0x2b9
 9474 1bda D9000000 		.4byte	0xd9
 9475 1bde 02       		.uleb128 0x2
 9476 1bdf 91       		.byte	0x91
 9477 1be0 66       		.sleb128 -26
 9478 1be1 26       		.uleb128 0x26
 9479 1be2 C01C0000 		.4byte	.LASF388
 9480 1be6 01       		.byte	0x1
 9481 1be7 BA02     		.2byte	0x2ba
 9482 1be9 EF000000 		.4byte	0xef
 9483 1bed 02       		.uleb128 0x2
 9484 1bee 91       		.byte	0x91
 9485 1bef 68       		.sleb128 -24
 9486 1bf0 26       		.uleb128 0x26
 9487 1bf1 E5000000 		.4byte	.LASF389
 9488 1bf5 01       		.byte	0x1
 9489 1bf6 BB02     		.2byte	0x2bb
 9490 1bf8 D9000000 		.4byte	0xd9
 9491 1bfc 02       		.uleb128 0x2
 9492 1bfd 91       		.byte	0x91
 9493 1bfe 64       		.sleb128 -28
 9494 1bff 26       		.uleb128 0x26
 9495 1c00 1D0F0000 		.4byte	.LASF353
 9496 1c04 01       		.byte	0x1
 9497 1c05 BC02     		.2byte	0x2bc
 9498 1c07 00070000 		.4byte	0x700
 9499 1c0b 02       		.uleb128 0x2
 9500 1c0c 91       		.byte	0x91
 9501 1c0d 6C       		.sleb128 -20
 9502 1c0e 00       		.byte	0
 9503 1c0f 23       		.uleb128 0x23
 9504 1c10 3A000000 		.4byte	.LASF390
 9505 1c14 01       		.byte	0x1
 9506 1c15 4302     		.2byte	0x243
 9507 1c17 AF010000 		.4byte	0x1af
 9508 1c1b 00000000 		.4byte	.LFB16
 9509 1c1f 00020000 		.4byte	.LFE16-.LFB16
 9510 1c23 01       		.uleb128 0x1
 9511 1c24 9C       		.byte	0x9c
 9512 1c25 ED1C0000 		.4byte	0x1ced
 9513 1c29 24       		.uleb128 0x24
 9514 1c2a 44657600 		.ascii	"Dev\000"
 9515 1c2e 01       		.byte	0x1
 9516 1c2f 4302     		.2byte	0x243
 9517 1c31 690F0000 		.4byte	0xf69
 9518 1c35 02       		.uleb128 0x2
 9519 1c36 91       		.byte	0x91
ARM GAS  C:\Users\PCHAUT~1\AppData\Local\Temp\ccgoQRgJ.s 			page 168


 9520 1c37 54       		.sleb128 -44
 9521 1c38 25       		.uleb128 0x25
 9522 1c39 7D080000 		.4byte	.LASF381
 9523 1c3d 01       		.byte	0x1
 9524 1c3e 4402     		.2byte	0x244
 9525 1c40 0C070000 		.4byte	0x70c
 9526 1c44 02       		.uleb128 0x2
 9527 1c45 91       		.byte	0x91
 9528 1c46 53       		.sleb128 -45
 9529 1c47 25       		.uleb128 0x25
 9530 1c48 02160000 		.4byte	.LASF391
 9531 1c4c 01       		.byte	0x1
 9532 1c4d 4502     		.2byte	0x245
 9533 1c4f 34140000 		.4byte	0x1434
 9534 1c53 02       		.uleb128 0x2
 9535 1c54 91       		.byte	0x91
 9536 1c55 4C       		.sleb128 -52
 9537 1c56 26       		.uleb128 0x26
 9538 1c57 4A020000 		.4byte	.LASF248
 9539 1c5b 01       		.byte	0x1
 9540 1c5c 4702     		.2byte	0x247
 9541 1c5e AF010000 		.4byte	0x1af
 9542 1c62 02       		.uleb128 0x2
 9543 1c63 91       		.byte	0x91
 9544 1c64 5D       		.sleb128 -35
 9545 1c65 26       		.uleb128 0x26
 9546 1c66 170B0000 		.4byte	.LASF383
 9547 1c6a 01       		.byte	0x1
 9548 1c6b 4802     		.2byte	0x248
 9549 1c6d C3000000 		.4byte	0xc3
 9550 1c71 02       		.uleb128 0x2
 9551 1c72 91       		.byte	0x91
 9552 1c73 5B       		.sleb128 -37
 9553 1c74 26       		.uleb128 0x26
 9554 1c75 52130000 		.4byte	.LASF392
 9555 1c79 01       		.byte	0x1
 9556 1c7a 4902     		.2byte	0x249
 9557 1c7c C3000000 		.4byte	0xc3
 9558 1c80 02       		.uleb128 0x2
 9559 1c81 91       		.byte	0x91
 9560 1c82 5C       		.sleb128 -36
 9561 1c83 26       		.uleb128 0x26
 9562 1c84 ED030000 		.4byte	.LASF393
 9563 1c88 01       		.byte	0x1
 9564 1c89 4A02     		.2byte	0x24a
 9565 1c8b EF000000 		.4byte	0xef
 9566 1c8f 02       		.uleb128 0x2
 9567 1c90 91       		.byte	0x91
 9568 1c91 68       		.sleb128 -24
 9569 1c92 26       		.uleb128 0x26
 9570 1c93 08000000 		.4byte	.LASF385
 9571 1c97 01       		.byte	0x1
 9572 1c98 4B02     		.2byte	0x24b
 9573 1c9a D9000000 		.4byte	0xd9
 9574 1c9e 02       		.uleb128 0x2
 9575 1c9f 91       		.byte	0x91
 9576 1ca0 5E       		.sleb128 -34
ARM GAS  C:\Users\PCHAUT~1\AppData\Local\Temp\ccgoQRgJ.s 			page 169


 9577 1ca1 26       		.uleb128 0x26
 9578 1ca2 B30F0000 		.4byte	.LASF394
 9579 1ca6 01       		.byte	0x1
 9580 1ca7 4C02     		.2byte	0x24c
 9581 1ca9 D9000000 		.4byte	0xd9
 9582 1cad 02       		.uleb128 0x2
 9583 1cae 91       		.byte	0x91
 9584 1caf 66       		.sleb128 -26
 9585 1cb0 26       		.uleb128 0x26
 9586 1cb1 65130000 		.4byte	.LASF386
 9587 1cb5 01       		.byte	0x1
 9588 1cb6 4D02     		.2byte	0x24d
 9589 1cb8 D9000000 		.4byte	0xd9
 9590 1cbc 02       		.uleb128 0x2
 9591 1cbd 91       		.byte	0x91
 9592 1cbe 62       		.sleb128 -30
 9593 1cbf 26       		.uleb128 0x26
 9594 1cc0 C01C0000 		.4byte	.LASF388
 9595 1cc4 01       		.byte	0x1
 9596 1cc5 4E02     		.2byte	0x24e
 9597 1cc7 D9000000 		.4byte	0xd9
 9598 1ccb 02       		.uleb128 0x2
 9599 1ccc 91       		.byte	0x91
 9600 1ccd 64       		.sleb128 -28
 9601 1cce 26       		.uleb128 0x26
 9602 1ccf E5000000 		.4byte	.LASF389
 9603 1cd3 01       		.byte	0x1
 9604 1cd4 4F02     		.2byte	0x24f
 9605 1cd6 D9000000 		.4byte	0xd9
 9606 1cda 02       		.uleb128 0x2
 9607 1cdb 91       		.byte	0x91
 9608 1cdc 60       		.sleb128 -32
 9609 1cdd 26       		.uleb128 0x26
 9610 1cde 1D0F0000 		.4byte	.LASF353
 9611 1ce2 01       		.byte	0x1
 9612 1ce3 5002     		.2byte	0x250
 9613 1ce5 00070000 		.4byte	0x700
 9614 1ce9 02       		.uleb128 0x2
 9615 1cea 91       		.byte	0x91
 9616 1ceb 6C       		.sleb128 -20
 9617 1cec 00       		.byte	0
 9618 1ced 23       		.uleb128 0x23
 9619 1cee 861A0000 		.4byte	.LASF395
 9620 1cf2 01       		.byte	0x1
 9621 1cf3 3102     		.2byte	0x231
 9622 1cf5 EF000000 		.4byte	0xef
 9623 1cf9 00000000 		.4byte	.LFB15
 9624 1cfd 74000000 		.4byte	.LFE15-.LFB15
 9625 1d01 01       		.uleb128 0x1
 9626 1d02 9C       		.byte	0x9c
 9627 1d03 621D0000 		.4byte	0x1d62
 9628 1d07 24       		.uleb128 0x24
 9629 1d08 44657600 		.ascii	"Dev\000"
 9630 1d0c 01       		.byte	0x1
 9631 1d0d 3102     		.2byte	0x231
 9632 1d0f 690F0000 		.4byte	0xf69
 9633 1d13 02       		.uleb128 0x2
ARM GAS  C:\Users\PCHAUT~1\AppData\Local\Temp\ccgoQRgJ.s 			page 170


 9634 1d14 91       		.byte	0x91
 9635 1d15 64       		.sleb128 -28
 9636 1d16 25       		.uleb128 0x25
 9637 1d17 0F040000 		.4byte	.LASF396
 9638 1d1b 01       		.byte	0x1
 9639 1d1c 3202     		.2byte	0x232
 9640 1d1e D9000000 		.4byte	0xd9
 9641 1d22 02       		.uleb128 0x2
 9642 1d23 91       		.byte	0x91
 9643 1d24 62       		.sleb128 -30
 9644 1d25 25       		.uleb128 0x25
 9645 1d26 C7100000 		.4byte	.LASF397
 9646 1d2a 01       		.byte	0x1
 9647 1d2b 3302     		.2byte	0x233
 9648 1d2d C3000000 		.4byte	0xc3
 9649 1d31 02       		.uleb128 0x2
 9650 1d32 91       		.byte	0x91
 9651 1d33 61       		.sleb128 -31
 9652 1d34 26       		.uleb128 0x26
 9653 1d35 76040000 		.4byte	.LASF398
 9654 1d39 01       		.byte	0x1
 9655 1d3a 3502     		.2byte	0x235
 9656 1d3c EF000000 		.4byte	0xef
 9657 1d40 02       		.uleb128 0x2
 9658 1d41 91       		.byte	0x91
 9659 1d42 6C       		.sleb128 -20
 9660 1d43 26       		.uleb128 0x26
 9661 1d44 54000000 		.4byte	.LASF399
 9662 1d48 01       		.byte	0x1
 9663 1d49 3602     		.2byte	0x236
 9664 1d4b EF000000 		.4byte	0xef
 9665 1d4f 02       		.uleb128 0x2
 9666 1d50 91       		.byte	0x91
 9667 1d51 70       		.sleb128 -16
 9668 1d52 26       		.uleb128 0x26
 9669 1d53 71090000 		.4byte	.LASF400
 9670 1d57 01       		.byte	0x1
 9671 1d58 3702     		.2byte	0x237
 9672 1d5a EF000000 		.4byte	0xef
 9673 1d5e 02       		.uleb128 0x2
 9674 1d5f 91       		.byte	0x91
 9675 1d60 68       		.sleb128 -24
 9676 1d61 00       		.byte	0
 9677 1d62 23       		.uleb128 0x23
 9678 1d63 CE090000 		.4byte	.LASF401
 9679 1d67 01       		.byte	0x1
 9680 1d68 1E02     		.2byte	0x21e
 9681 1d6a EF000000 		.4byte	0xef
 9682 1d6e 00000000 		.4byte	.LFB14
 9683 1d72 70000000 		.4byte	.LFE14-.LFB14
 9684 1d76 01       		.uleb128 0x1
 9685 1d77 9C       		.byte	0x9c
 9686 1d78 D71D0000 		.4byte	0x1dd7
 9687 1d7c 24       		.uleb128 0x24
 9688 1d7d 44657600 		.ascii	"Dev\000"
 9689 1d81 01       		.byte	0x1
 9690 1d82 1E02     		.2byte	0x21e
ARM GAS  C:\Users\PCHAUT~1\AppData\Local\Temp\ccgoQRgJ.s 			page 171


 9691 1d84 690F0000 		.4byte	0xf69
 9692 1d88 02       		.uleb128 0x2
 9693 1d89 91       		.byte	0x91
 9694 1d8a 64       		.sleb128 -28
 9695 1d8b 25       		.uleb128 0x25
 9696 1d8c 96150000 		.4byte	.LASF402
 9697 1d90 01       		.byte	0x1
 9698 1d91 1F02     		.2byte	0x21f
 9699 1d93 EF000000 		.4byte	0xef
 9700 1d97 02       		.uleb128 0x2
 9701 1d98 91       		.byte	0x91
 9702 1d99 60       		.sleb128 -32
 9703 1d9a 25       		.uleb128 0x25
 9704 1d9b C7100000 		.4byte	.LASF397
 9705 1d9f 01       		.byte	0x1
 9706 1da0 2002     		.2byte	0x220
 9707 1da2 C3000000 		.4byte	0xc3
 9708 1da6 02       		.uleb128 0x2
 9709 1da7 91       		.byte	0x91
 9710 1da8 5F       		.sleb128 -33
 9711 1da9 26       		.uleb128 0x26
 9712 1daa 76040000 		.4byte	.LASF398
 9713 1dae 01       		.byte	0x1
 9714 1daf 2202     		.2byte	0x222
 9715 1db1 EF000000 		.4byte	0xef
 9716 1db5 02       		.uleb128 0x2
 9717 1db6 91       		.byte	0x91
 9718 1db7 6C       		.sleb128 -20
 9719 1db8 26       		.uleb128 0x26
 9720 1db9 54000000 		.4byte	.LASF399
 9721 1dbd 01       		.byte	0x1
 9722 1dbe 2302     		.2byte	0x223
 9723 1dc0 EF000000 		.4byte	0xef
 9724 1dc4 02       		.uleb128 0x2
 9725 1dc5 91       		.byte	0x91
 9726 1dc6 70       		.sleb128 -16
 9727 1dc7 26       		.uleb128 0x26
 9728 1dc8 0F040000 		.4byte	.LASF396
 9729 1dcc 01       		.byte	0x1
 9730 1dcd 2402     		.2byte	0x224
 9731 1dcf EF000000 		.4byte	0xef
 9732 1dd3 02       		.uleb128 0x2
 9733 1dd4 91       		.byte	0x91
 9734 1dd5 68       		.sleb128 -24
 9735 1dd6 00       		.byte	0
 9736 1dd7 23       		.uleb128 0x23
 9737 1dd8 D71B0000 		.4byte	.LASF403
 9738 1ddc 01       		.byte	0x1
 9739 1ddd 0E02     		.2byte	0x20e
 9740 1ddf EF000000 		.4byte	0xef
 9741 1de3 00000000 		.4byte	.LFB13
 9742 1de7 44000000 		.4byte	.LFE13-.LFB13
 9743 1deb 01       		.uleb128 0x1
 9744 1dec 9C       		.byte	0x9c
 9745 1ded 101E0000 		.4byte	0x1e10
 9746 1df1 25       		.uleb128 0x25
 9747 1df2 D5030000 		.4byte	.LASF404
ARM GAS  C:\Users\PCHAUT~1\AppData\Local\Temp\ccgoQRgJ.s 			page 172


 9748 1df6 01       		.byte	0x1
 9749 1df7 0E02     		.2byte	0x20e
 9750 1df9 D9000000 		.4byte	0xd9
 9751 1dfd 02       		.uleb128 0x2
 9752 1dfe 91       		.byte	0x91
 9753 1dff 6E       		.sleb128 -18
 9754 1e00 26       		.uleb128 0x26
 9755 1e01 DA1A0000 		.4byte	.LASF405
 9756 1e05 01       		.byte	0x1
 9757 1e06 1402     		.2byte	0x214
 9758 1e08 EF000000 		.4byte	0xef
 9759 1e0c 02       		.uleb128 0x2
 9760 1e0d 91       		.byte	0x91
 9761 1e0e 70       		.sleb128 -16
 9762 1e0f 00       		.byte	0
 9763 1e10 23       		.uleb128 0x23
 9764 1e11 BF0A0000 		.4byte	.LASF406
 9765 1e15 01       		.byte	0x1
 9766 1e16 F401     		.2byte	0x1f4
 9767 1e18 D9000000 		.4byte	0xd9
 9768 1e1c 00000000 		.4byte	.LFB12
 9769 1e20 78000000 		.4byte	.LFE12-.LFB12
 9770 1e24 01       		.uleb128 0x1
 9771 1e25 9C       		.byte	0x9c
 9772 1e26 671E0000 		.4byte	0x1e67
 9773 1e2a 25       		.uleb128 0x25
 9774 1e2b DA1A0000 		.4byte	.LASF405
 9775 1e2f 01       		.byte	0x1
 9776 1e30 F401     		.2byte	0x1f4
 9777 1e32 EF000000 		.4byte	0xef
 9778 1e36 02       		.uleb128 0x2
 9779 1e37 91       		.byte	0x91
 9780 1e38 64       		.sleb128 -28
 9781 1e39 26       		.uleb128 0x26
 9782 1e3a D5030000 		.4byte	.LASF404
 9783 1e3e 01       		.byte	0x1
 9784 1e3f FA01     		.2byte	0x1fa
 9785 1e41 D9000000 		.4byte	0xd9
 9786 1e45 02       		.uleb128 0x2
 9787 1e46 91       		.byte	0x91
 9788 1e47 6C       		.sleb128 -20
 9789 1e48 26       		.uleb128 0x26
 9790 1e49 3A120000 		.4byte	.LASF407
 9791 1e4d 01       		.byte	0x1
 9792 1e4e FB01     		.2byte	0x1fb
 9793 1e50 EF000000 		.4byte	0xef
 9794 1e54 02       		.uleb128 0x2
 9795 1e55 91       		.byte	0x91
 9796 1e56 70       		.sleb128 -16
 9797 1e57 26       		.uleb128 0x26
 9798 1e58 00000000 		.4byte	.LASF408
 9799 1e5c 01       		.byte	0x1
 9800 1e5d FC01     		.2byte	0x1fc
 9801 1e5f D9000000 		.4byte	0xd9
 9802 1e63 02       		.uleb128 0x2
 9803 1e64 91       		.byte	0x91
 9804 1e65 6E       		.sleb128 -18
ARM GAS  C:\Users\PCHAUT~1\AppData\Local\Temp\ccgoQRgJ.s 			page 173


 9805 1e66 00       		.byte	0
 9806 1e67 23       		.uleb128 0x23
 9807 1e68 181A0000 		.4byte	.LASF409
 9808 1e6c 01       		.byte	0x1
 9809 1e6d DE01     		.2byte	0x1de
 9810 1e6f EF000000 		.4byte	0xef
 9811 1e73 00000000 		.4byte	.LFB11
 9812 1e77 50000000 		.4byte	.LFE11-.LFB11
 9813 1e7b 01       		.uleb128 0x1
 9814 1e7c 9C       		.byte	0x9c
 9815 1e7d CD1E0000 		.4byte	0x1ecd
 9816 1e81 24       		.uleb128 0x24
 9817 1e82 44657600 		.ascii	"Dev\000"
 9818 1e86 01       		.byte	0x1
 9819 1e87 DE01     		.2byte	0x1de
 9820 1e89 690F0000 		.4byte	0xf69
 9821 1e8d 02       		.uleb128 0x2
 9822 1e8e 91       		.byte	0x91
 9823 1e8f 5C       		.sleb128 -36
 9824 1e90 25       		.uleb128 0x25
 9825 1e91 C7100000 		.4byte	.LASF397
 9826 1e95 01       		.byte	0x1
 9827 1e96 DE01     		.2byte	0x1de
 9828 1e98 C3000000 		.4byte	0xc3
 9829 1e9c 02       		.uleb128 0x2
 9830 1e9d 91       		.byte	0x91
 9831 1e9e 5B       		.sleb128 -37
 9832 1e9f 26       		.uleb128 0x26
 9833 1ea0 C7030000 		.4byte	.LASF410
 9834 1ea4 01       		.byte	0x1
 9835 1ea5 E101     		.2byte	0x1e1
 9836 1ea7 FF000000 		.4byte	0xff
 9837 1eab 02       		.uleb128 0x2
 9838 1eac 91       		.byte	0x91
 9839 1ead 68       		.sleb128 -24
 9840 1eae 26       		.uleb128 0x26
 9841 1eaf 23130000 		.4byte	.LASF411
 9842 1eb3 01       		.byte	0x1
 9843 1eb4 E201     		.2byte	0x1e2
 9844 1eb6 EF000000 		.4byte	0xef
 9845 1eba 02       		.uleb128 0x2
 9846 1ebb 91       		.byte	0x91
 9847 1ebc 60       		.sleb128 -32
 9848 1ebd 26       		.uleb128 0x26
 9849 1ebe 76040000 		.4byte	.LASF398
 9850 1ec2 01       		.byte	0x1
 9851 1ec3 E301     		.2byte	0x1e3
 9852 1ec5 EF000000 		.4byte	0xef
 9853 1ec9 02       		.uleb128 0x2
 9854 1eca 91       		.byte	0x91
 9855 1ecb 64       		.sleb128 -28
 9856 1ecc 00       		.byte	0
 9857 1ecd 28       		.uleb128 0x28
 9858 1ece 04120000 		.4byte	.LASF412
 9859 1ed2 01       		.byte	0x1
 9860 1ed3 D3       		.byte	0xd3
 9861 1ed4 AF010000 		.4byte	0x1af
ARM GAS  C:\Users\PCHAUT~1\AppData\Local\Temp\ccgoQRgJ.s 			page 174


 9862 1ed8 00000000 		.4byte	.LFB10
 9863 1edc D4090000 		.4byte	.LFE10-.LFB10
 9864 1ee0 01       		.uleb128 0x1
 9865 1ee1 9C       		.byte	0x9c
 9866 1ee2 27200000 		.4byte	0x2027
 9867 1ee6 29       		.uleb128 0x29
 9868 1ee7 44657600 		.ascii	"Dev\000"
 9869 1eeb 01       		.byte	0x1
 9870 1eec D3       		.byte	0xd3
 9871 1eed 690F0000 		.4byte	0xf69
 9872 1ef1 03       		.uleb128 0x3
 9873 1ef2 91       		.byte	0x91
 9874 1ef3 9C7F     		.sleb128 -100
 9875 1ef5 2A       		.uleb128 0x2a
 9876 1ef6 C9180000 		.4byte	.LASF413
 9877 1efa 01       		.byte	0x1
 9878 1efb D3       		.byte	0xd3
 9879 1efc C3000000 		.4byte	0xc3
 9880 1f00 03       		.uleb128 0x3
 9881 1f01 91       		.byte	0x91
 9882 1f02 9B7F     		.sleb128 -101
 9883 1f04 2B       		.uleb128 0x2b
 9884 1f05 4A020000 		.4byte	.LASF248
 9885 1f09 01       		.byte	0x1
 9886 1f0a D6       		.byte	0xd6
 9887 1f0b AF010000 		.4byte	0x1af
 9888 1f0f 03       		.uleb128 0x3
 9889 1f10 91       		.byte	0x91
 9890 1f11 AA7F     		.sleb128 -86
 9891 1f13 2B       		.uleb128 0x2b
 9892 1f14 4C1D0000 		.4byte	.LASF414
 9893 1f18 01       		.byte	0x1
 9894 1f19 D7       		.byte	0xd7
 9895 1f1a C3000000 		.4byte	0xc3
 9896 1f1e 03       		.uleb128 0x3
 9897 1f1f 91       		.byte	0x91
 9898 1f20 A77F     		.sleb128 -89
 9899 1f22 2B       		.uleb128 0x2b
 9900 1f23 9B130000 		.4byte	.LASF415
 9901 1f27 01       		.byte	0x1
 9902 1f28 D8       		.byte	0xd8
 9903 1f29 EF000000 		.4byte	0xef
 9904 1f2d 03       		.uleb128 0x3
 9905 1f2e 91       		.byte	0x91
 9906 1f2f B07F     		.sleb128 -80
 9907 1f31 2B       		.uleb128 0x2b
 9908 1f32 2D0A0000 		.4byte	.LASF88
 9909 1f36 01       		.byte	0x1
 9910 1f37 D9       		.byte	0xd9
 9911 1f38 C3000000 		.4byte	0xc3
 9912 1f3c 03       		.uleb128 0x3
 9913 1f3d 91       		.byte	0x91
 9914 1f3e A87F     		.sleb128 -88
 9915 1f40 2B       		.uleb128 0x2b
 9916 1f41 EF040000 		.4byte	.LASF89
 9917 1f45 01       		.byte	0x1
 9918 1f46 DA       		.byte	0xda
ARM GAS  C:\Users\PCHAUT~1\AppData\Local\Temp\ccgoQRgJ.s 			page 175


 9919 1f47 C3000000 		.4byte	0xc3
 9920 1f4b 03       		.uleb128 0x3
 9921 1f4c 91       		.byte	0x91
 9922 1f4d A97F     		.sleb128 -87
 9923 1f4f 2B       		.uleb128 0x2b
 9924 1f50 E9090000 		.4byte	.LASF90
 9925 1f54 01       		.byte	0x1
 9926 1f55 DB       		.byte	0xdb
 9927 1f56 C3000000 		.4byte	0xc3
 9928 1f5a 03       		.uleb128 0x3
 9929 1f5b 91       		.byte	0x91
 9930 1f5c AB7F     		.sleb128 -85
 9931 1f5e 2B       		.uleb128 0x2b
 9932 1f5f 64000000 		.4byte	.LASF91
 9933 1f63 01       		.byte	0x1
 9934 1f64 DC       		.byte	0xdc
 9935 1f65 C3000000 		.4byte	0xc3
 9936 1f69 03       		.uleb128 0x3
 9937 1f6a 91       		.byte	0x91
 9938 1f6b AC7F     		.sleb128 -84
 9939 1f6d 2B       		.uleb128 0x2b
 9940 1f6e 36130000 		.4byte	.LASF93
 9941 1f72 01       		.byte	0x1
 9942 1f73 DD       		.byte	0xdd
 9943 1f74 EF000000 		.4byte	0xef
 9944 1f78 03       		.uleb128 0x3
 9945 1f79 91       		.byte	0x91
 9946 1f7a B47F     		.sleb128 -76
 9947 1f7c 2B       		.uleb128 0x2b
 9948 1f7d 93000000 		.4byte	.LASF94
 9949 1f81 01       		.byte	0x1
 9950 1f82 DE       		.byte	0xde
 9951 1f83 EF000000 		.4byte	0xef
 9952 1f87 03       		.uleb128 0x3
 9953 1f88 91       		.byte	0x91
 9954 1f89 B87F     		.sleb128 -72
 9955 1f8b 2B       		.uleb128 0x2b
 9956 1f8c FC090000 		.4byte	.LASF416
 9957 1f90 01       		.byte	0x1
 9958 1f91 DF       		.byte	0xdf
 9959 1f92 EF000000 		.4byte	0xef
 9960 1f96 02       		.uleb128 0x2
 9961 1f97 91       		.byte	0x91
 9962 1f98 48       		.sleb128 -56
 9963 1f99 2B       		.uleb128 0x2b
 9964 1f9a 58100000 		.4byte	.LASF417
 9965 1f9e 01       		.byte	0x1
 9966 1f9f E0       		.byte	0xe0
 9967 1fa0 CE000000 		.4byte	0xce
 9968 1fa4 03       		.uleb128 0x3
 9969 1fa5 91       		.byte	0x91
 9970 1fa6 AE7F     		.sleb128 -82
 9971 1fa8 2B       		.uleb128 0x2b
 9972 1fa9 8A090000 		.4byte	.LASF418
 9973 1fad 01       		.byte	0x1
 9974 1fae E1       		.byte	0xe1
 9975 1faf EF000000 		.4byte	0xef
ARM GAS  C:\Users\PCHAUT~1\AppData\Local\Temp\ccgoQRgJ.s 			page 176


 9976 1fb3 02       		.uleb128 0x2
 9977 1fb4 91       		.byte	0x91
 9978 1fb5 4C       		.sleb128 -52
 9979 1fb6 2B       		.uleb128 0x2b
 9980 1fb7 AD140000 		.4byte	.LASF419
 9981 1fbb 01       		.byte	0x1
 9982 1fbc E2       		.byte	0xe2
 9983 1fbd EF000000 		.4byte	0xef
 9984 1fc1 03       		.uleb128 0x3
 9985 1fc2 91       		.byte	0x91
 9986 1fc3 BC7F     		.sleb128 -68
 9987 1fc5 2B       		.uleb128 0x2b
 9988 1fc6 33050000 		.4byte	.LASF420
 9989 1fca 01       		.byte	0x1
 9990 1fcb E3       		.byte	0xe3
 9991 1fcc EF000000 		.4byte	0xef
 9992 1fd0 02       		.uleb128 0x2
 9993 1fd1 91       		.byte	0x91
 9994 1fd2 40       		.sleb128 -64
 9995 1fd3 2B       		.uleb128 0x2b
 9996 1fd4 90020000 		.4byte	.LASF29
 9997 1fd8 01       		.byte	0x1
 9998 1fd9 E4       		.byte	0xe4
 9999 1fda 27200000 		.4byte	0x2027
 10000 1fde 02       		.uleb128 0x2
 10001 1fdf 91       		.byte	0x91
 10002 1fe0 60       		.sleb128 -32
 10003 1fe1 2B       		.uleb128 0x2b
 10004 1fe2 F40C0000 		.4byte	.LASF421
 10005 1fe6 01       		.byte	0x1
 10006 1fe7 E5       		.byte	0xe5
 10007 1fe8 000C0000 		.4byte	0xc00
 10008 1fec 02       		.uleb128 0x2
 10009 1fed 91       		.byte	0x91
 10010 1fee 54       		.sleb128 -44
 10011 1fef 2B       		.uleb128 0x2b
 10012 1ff0 2E0C0000 		.4byte	.LASF87
 10013 1ff4 01       		.byte	0x1
 10014 1ff5 E6       		.byte	0xe6
 10015 1ff6 C3000000 		.4byte	0xc3
 10016 1ffa 03       		.uleb128 0x3
 10017 1ffb 91       		.byte	0x91
 10018 1ffc AD7F     		.sleb128 -83
 10019 1ffe 2B       		.uleb128 0x2b
 10020 1fff A7080000 		.4byte	.LASF422
 10021 2003 01       		.byte	0x1
 10022 2004 E7       		.byte	0xe7
 10023 2005 11010000 		.4byte	0x111
 10024 2009 02       		.uleb128 0x2
 10025 200a 91       		.byte	0x91
 10026 200b 50       		.sleb128 -48
 10027 200c 2B       		.uleb128 0x2b
 10028 200d CC0B0000 		.4byte	.LASF423
 10029 2011 01       		.byte	0x1
 10030 2012 E8       		.byte	0xe8
 10031 2013 77020000 		.4byte	0x277
 10032 2017 02       		.uleb128 0x2
ARM GAS  C:\Users\PCHAUT~1\AppData\Local\Temp\ccgoQRgJ.s 			page 177


 10033 2018 91       		.byte	0x91
 10034 2019 58       		.sleb128 -40
 10035 201a 2C       		.uleb128 0x2c
 10036 201b 6900     		.ascii	"i\000"
 10037 201d 01       		.byte	0x1
 10038 201e E9       		.byte	0xe9
 10039 201f AA000000 		.4byte	0xaa
 10040 2023 02       		.uleb128 0x2
 10041 2024 91       		.byte	0x91
 10042 2025 44       		.sleb128 -60
 10043 2026 00       		.byte	0
 10044 2027 08       		.uleb128 0x8
 10045 2028 98010000 		.4byte	0x198
 10046 202c 37200000 		.4byte	0x2037
 10047 2030 09       		.uleb128 0x9
 10048 2031 B1000000 		.4byte	0xb1
 10049 2035 12       		.byte	0x12
 10050 2036 00       		.byte	0
 10051 2037 28       		.uleb128 0x28
 10052 2038 730A0000 		.4byte	.LASF424
 10053 203c 01       		.byte	0x1
 10054 203d B2       		.byte	0xb2
 10055 203e AF010000 		.4byte	0x1af
 10056 2042 00000000 		.4byte	.LFB9
 10057 2046 AC000000 		.4byte	.LFE9-.LFB9
 10058 204a 01       		.uleb128 0x1
 10059 204b 9C       		.byte	0x9c
 10060 204c 89200000 		.4byte	0x2089
 10061 2050 29       		.uleb128 0x29
 10062 2051 44657600 		.ascii	"Dev\000"
 10063 2055 01       		.byte	0x1
 10064 2056 B2       		.byte	0xb2
 10065 2057 690F0000 		.4byte	0xf69
 10066 205b 02       		.uleb128 0x2
 10067 205c 91       		.byte	0x91
 10068 205d 64       		.sleb128 -28
 10069 205e 2B       		.uleb128 0x2b
 10070 205f 4A020000 		.4byte	.LASF248
 10071 2063 01       		.byte	0x1
 10072 2064 B4       		.byte	0xb4
 10073 2065 AF010000 		.4byte	0x1af
 10074 2069 02       		.uleb128 0x2
 10075 206a 91       		.byte	0x91
 10076 206b 6F       		.sleb128 -17
 10077 206c 2B       		.uleb128 0x2b
 10078 206d 83100000 		.4byte	.LASF425
 10079 2071 01       		.byte	0x1
 10080 2072 B5       		.byte	0xb5
 10081 2073 C3000000 		.4byte	0xc3
 10082 2077 02       		.uleb128 0x2
 10083 2078 91       		.byte	0x91
 10084 2079 6E       		.sleb128 -18
 10085 207a 2B       		.uleb128 0x2b
 10086 207b 97050000 		.4byte	.LASF426
 10087 207f 01       		.byte	0x1
 10088 2080 B6       		.byte	0xb6
 10089 2081 EF000000 		.4byte	0xef
ARM GAS  C:\Users\PCHAUT~1\AppData\Local\Temp\ccgoQRgJ.s 			page 178


 10090 2085 02       		.uleb128 0x2
 10091 2086 91       		.byte	0x91
 10092 2087 70       		.sleb128 -16
 10093 2088 00       		.byte	0
 10094 2089 28       		.uleb128 0x28
 10095 208a F60E0000 		.4byte	.LASF427
 10096 208e 01       		.byte	0x1
 10097 208f 9B       		.byte	0x9b
 10098 2090 EF000000 		.4byte	0xef
 10099 2094 00000000 		.4byte	.LFB8
 10100 2098 60000000 		.4byte	.LFE8-.LFB8
 10101 209c 01       		.uleb128 0x1
 10102 209d 9C       		.byte	0x9c
 10103 209e C9200000 		.4byte	0x20c9
 10104 20a2 29       		.uleb128 0x29
 10105 20a3 6100     		.ascii	"a\000"
 10106 20a5 01       		.byte	0x1
 10107 20a6 9B       		.byte	0x9b
 10108 20a7 EF000000 		.4byte	0xef
 10109 20ab 02       		.uleb128 0x2
 10110 20ac 91       		.byte	0x91
 10111 20ad 6C       		.sleb128 -20
 10112 20ae 29       		.uleb128 0x29
 10113 20af 6200     		.ascii	"b\000"
 10114 20b1 01       		.byte	0x1
 10115 20b2 9B       		.byte	0x9b
 10116 20b3 EF000000 		.4byte	0xef
 10117 20b7 02       		.uleb128 0x2
 10118 20b8 91       		.byte	0x91
 10119 20b9 68       		.sleb128 -24
 10120 20ba 2C       		.uleb128 0x2c
 10121 20bb 72657300 		.ascii	"res\000"
 10122 20bf 01       		.byte	0x1
 10123 20c0 A7       		.byte	0xa7
 10124 20c1 EF000000 		.4byte	0xef
 10125 20c5 02       		.uleb128 0x2
 10126 20c6 91       		.byte	0x91
 10127 20c7 70       		.sleb128 -16
 10128 20c8 00       		.byte	0
 10129 20c9 28       		.uleb128 0x28
 10130 20ca 19100000 		.4byte	.LASF428
 10131 20ce 01       		.byte	0x1
 10132 20cf 7B       		.byte	0x7b
 10133 20d0 EF000000 		.4byte	0xef
 10134 20d4 00000000 		.4byte	.LFB7
 10135 20d8 7C000000 		.4byte	.LFE7-.LFB7
 10136 20dc 01       		.uleb128 0x1
 10137 20dd 9C       		.byte	0x9c
 10138 20de 0D210000 		.4byte	0x210d
 10139 20e2 29       		.uleb128 0x29
 10140 20e3 6E756D00 		.ascii	"num\000"
 10141 20e7 01       		.byte	0x1
 10142 20e8 7B       		.byte	0x7b
 10143 20e9 EF000000 		.4byte	0xef
 10144 20ed 02       		.uleb128 0x2
 10145 20ee 91       		.byte	0x91
 10146 20ef 64       		.sleb128 -28
ARM GAS  C:\Users\PCHAUT~1\AppData\Local\Temp\ccgoQRgJ.s 			page 179


 10147 20f0 2C       		.uleb128 0x2c
 10148 20f1 72657300 		.ascii	"res\000"
 10149 20f5 01       		.byte	0x1
 10150 20f6 83       		.byte	0x83
 10151 20f7 EF000000 		.4byte	0xef
 10152 20fb 02       		.uleb128 0x2
 10153 20fc 91       		.byte	0x91
 10154 20fd 6C       		.sleb128 -20
 10155 20fe 2C       		.uleb128 0x2c
 10156 20ff 62697400 		.ascii	"bit\000"
 10157 2103 01       		.byte	0x1
 10158 2104 84       		.byte	0x84
 10159 2105 EF000000 		.4byte	0xef
 10160 2109 02       		.uleb128 0x2
 10161 210a 91       		.byte	0x91
 10162 210b 70       		.sleb128 -16
 10163 210c 00       		.byte	0
 10164 210d 28       		.uleb128 0x28
 10165 210e D0110000 		.4byte	.LASF429
 10166 2112 01       		.byte	0x1
 10167 2113 6C       		.byte	0x6c
 10168 2114 C3000000 		.4byte	0xc3
 10169 2118 00000000 		.4byte	.LFB6
 10170 211c 44000000 		.4byte	.LFE6-.LFB6
 10171 2120 01       		.uleb128 0x1
 10172 2121 9C       		.byte	0x9c
 10173 2122 43210000 		.4byte	0x2143
 10174 2126 2A       		.uleb128 0x2a
 10175 2127 C7100000 		.4byte	.LASF397
 10176 212b 01       		.byte	0x1
 10177 212c 6C       		.byte	0x6c
 10178 212d C3000000 		.4byte	0xc3
 10179 2131 02       		.uleb128 0x2
 10180 2132 91       		.byte	0x91
 10181 2133 6F       		.sleb128 -17
 10182 2134 2B       		.uleb128 0x2b
 10183 2135 7A070000 		.4byte	.LASF371
 10184 2139 01       		.byte	0x1
 10185 213a 73       		.byte	0x73
 10186 213b C3000000 		.4byte	0xc3
 10187 213f 02       		.uleb128 0x2
 10188 2140 91       		.byte	0x91
 10189 2141 73       		.sleb128 -13
 10190 2142 00       		.byte	0
 10191 2143 28       		.uleb128 0x28
 10192 2144 18030000 		.4byte	.LASF430
 10193 2148 01       		.byte	0x1
 10194 2149 5E       		.byte	0x5e
 10195 214a C3000000 		.4byte	0xc3
 10196 214e 00000000 		.4byte	.LFB5
 10197 2152 44000000 		.4byte	.LFE5-.LFB5
 10198 2156 01       		.uleb128 0x1
 10199 2157 9C       		.byte	0x9c
 10200 2158 79210000 		.4byte	0x2179
 10201 215c 2A       		.uleb128 0x2a
 10202 215d 7A070000 		.4byte	.LASF371
 10203 2161 01       		.byte	0x1
ARM GAS  C:\Users\PCHAUT~1\AppData\Local\Temp\ccgoQRgJ.s 			page 180


 10204 2162 5E       		.byte	0x5e
 10205 2163 C3000000 		.4byte	0xc3
 10206 2167 02       		.uleb128 0x2
 10207 2168 91       		.byte	0x91
 10208 2169 6F       		.sleb128 -17
 10209 216a 2B       		.uleb128 0x2b
 10210 216b C7100000 		.4byte	.LASF397
 10211 216f 01       		.byte	0x1
 10212 2170 65       		.byte	0x65
 10213 2171 C3000000 		.4byte	0xc3
 10214 2175 02       		.uleb128 0x2
 10215 2176 91       		.byte	0x91
 10216 2177 73       		.sleb128 -13
 10217 2178 00       		.byte	0
 10218 2179 28       		.uleb128 0x28
 10219 217a 95120000 		.4byte	.LASF431
 10220 217e 01       		.byte	0x1
 10221 217f 3D       		.byte	0x3d
 10222 2180 AF010000 		.4byte	0x1af
 10223 2184 00000000 		.4byte	.LFB4
 10224 2188 80000000 		.4byte	.LFE4-.LFB4
 10225 218c 01       		.uleb128 0x1
 10226 218d 9C       		.byte	0x9c
 10227 218e CB210000 		.4byte	0x21cb
 10228 2192 29       		.uleb128 0x29
 10229 2193 44657600 		.ascii	"Dev\000"
 10230 2197 01       		.byte	0x1
 10231 2198 3D       		.byte	0x3d
 10232 2199 690F0000 		.4byte	0xf69
 10233 219d 02       		.uleb128 0x2
 10234 219e 91       		.byte	0x91
 10235 219f 64       		.sleb128 -28
 10236 21a0 2B       		.uleb128 0x2b
 10237 21a1 4A020000 		.4byte	.LASF248
 10238 21a5 01       		.byte	0x1
 10239 21a6 3F       		.byte	0x3f
 10240 21a7 AF010000 		.4byte	0x1af
 10241 21ab 02       		.uleb128 0x2
 10242 21ac 91       		.byte	0x91
 10243 21ad 6F       		.sleb128 -17
 10244 21ae 2B       		.uleb128 0x2b
 10245 21af C9060000 		.4byte	.LASF432
 10246 21b3 01       		.byte	0x1
 10247 21b4 40       		.byte	0x40
 10248 21b5 C3000000 		.4byte	0xc3
 10249 21b9 02       		.uleb128 0x2
 10250 21ba 91       		.byte	0x91
 10251 21bb 6E       		.sleb128 -18
 10252 21bc 2B       		.uleb128 0x2b
 10253 21bd 97050000 		.4byte	.LASF426
 10254 21c1 01       		.byte	0x1
 10255 21c2 41       		.byte	0x41
 10256 21c3 EF000000 		.4byte	0xef
 10257 21c7 02       		.uleb128 0x2
 10258 21c8 91       		.byte	0x91
 10259 21c9 70       		.sleb128 -16
 10260 21ca 00       		.byte	0
ARM GAS  C:\Users\PCHAUT~1\AppData\Local\Temp\ccgoQRgJ.s 			page 181


 10261 21cb 2D       		.uleb128 0x2d
 10262 21cc 8D030000 		.4byte	.LASF442
 10263 21d0 01       		.byte	0x1
 10264 21d1 2C       		.byte	0x2c
 10265 21d2 AF010000 		.4byte	0x1af
 10266 21d6 00000000 		.4byte	.LFB3
 10267 21da 80000000 		.4byte	.LFE3-.LFB3
 10268 21de 01       		.uleb128 0x1
 10269 21df 9C       		.byte	0x9c
 10270 21e0 2A       		.uleb128 0x2a
 10271 21e1 DA100000 		.4byte	.LASF433
 10272 21e5 01       		.byte	0x1
 10273 21e6 2C       		.byte	0x2c
 10274 21e7 97060000 		.4byte	0x697
 10275 21eb 02       		.uleb128 0x2
 10276 21ec 91       		.byte	0x91
 10277 21ed 5C       		.sleb128 -36
 10278 21ee 2A       		.uleb128 0x2a
 10279 21ef 75060000 		.4byte	.LASF434
 10280 21f3 01       		.byte	0x1
 10281 21f4 2C       		.byte	0x2c
 10282 21f5 EF000000 		.4byte	0xef
 10283 21f9 02       		.uleb128 0x2
 10284 21fa 91       		.byte	0x91
 10285 21fb 58       		.sleb128 -40
 10286 21fc 2B       		.uleb128 0x2b
 10287 21fd 4A020000 		.4byte	.LASF248
 10288 2201 01       		.byte	0x1
 10289 2202 2E       		.byte	0x2e
 10290 2203 AF010000 		.4byte	0x1af
 10291 2207 02       		.uleb128 0x2
 10292 2208 91       		.byte	0x91
 10293 2209 66       		.sleb128 -26
 10294 220a 2B       		.uleb128 0x2b
 10295 220b 4A070000 		.4byte	.LASF435
 10296 220f 01       		.byte	0x1
 10297 2210 2F       		.byte	0x2f
 10298 2211 C3000000 		.4byte	0xc3
 10299 2215 02       		.uleb128 0x2
 10300 2216 91       		.byte	0x91
 10301 2217 67       		.sleb128 -25
 10302 2218 2B       		.uleb128 0x2b
 10303 2219 24090000 		.4byte	.LASF436
 10304 221d 01       		.byte	0x1
 10305 221e 30       		.byte	0x30
 10306 221f EF000000 		.4byte	0xef
 10307 2223 02       		.uleb128 0x2
 10308 2224 91       		.byte	0x91
 10309 2225 70       		.sleb128 -16
 10310 2226 2B       		.uleb128 0x2b
 10311 2227 A10F0000 		.4byte	.LASF437
 10312 222b 01       		.byte	0x1
 10313 222c 31       		.byte	0x31
 10314 222d EF000000 		.4byte	0xef
 10315 2231 02       		.uleb128 0x2
 10316 2232 91       		.byte	0x91
 10317 2233 6C       		.sleb128 -20
ARM GAS  C:\Users\PCHAUT~1\AppData\Local\Temp\ccgoQRgJ.s 			page 182


 10318 2234 2B       		.uleb128 0x2b
 10319 2235 B3020000 		.4byte	.LASF438
 10320 2239 01       		.byte	0x1
 10321 223a 32       		.byte	0x32
 10322 223b EF000000 		.4byte	0xef
 10323 223f 02       		.uleb128 0x2
 10324 2240 91       		.byte	0x91
 10325 2241 68       		.sleb128 -24
 10326 2242 00       		.byte	0
 10327 2243 00       		.byte	0
 10328              		.section	.debug_abbrev,"",%progbits
 10329              	.Ldebug_abbrev0:
 10330 0000 01       		.uleb128 0x1
 10331 0001 11       		.uleb128 0x11
 10332 0002 01       		.byte	0x1
 10333 0003 25       		.uleb128 0x25
 10334 0004 0E       		.uleb128 0xe
 10335 0005 13       		.uleb128 0x13
 10336 0006 0B       		.uleb128 0xb
 10337 0007 03       		.uleb128 0x3
 10338 0008 0E       		.uleb128 0xe
 10339 0009 1B       		.uleb128 0x1b
 10340 000a 0E       		.uleb128 0xe
 10341 000b 55       		.uleb128 0x55
 10342 000c 17       		.uleb128 0x17
 10343 000d 11       		.uleb128 0x11
 10344 000e 01       		.uleb128 0x1
 10345 000f 10       		.uleb128 0x10
 10346 0010 17       		.uleb128 0x17
 10347 0011 00       		.byte	0
 10348 0012 00       		.byte	0
 10349 0013 02       		.uleb128 0x2
 10350 0014 16       		.uleb128 0x16
 10351 0015 00       		.byte	0
 10352 0016 03       		.uleb128 0x3
 10353 0017 0E       		.uleb128 0xe
 10354 0018 3A       		.uleb128 0x3a
 10355 0019 0B       		.uleb128 0xb
 10356 001a 3B       		.uleb128 0x3b
 10357 001b 0B       		.uleb128 0xb
 10358 001c 49       		.uleb128 0x49
 10359 001d 13       		.uleb128 0x13
 10360 001e 00       		.byte	0
 10361 001f 00       		.byte	0
 10362 0020 03       		.uleb128 0x3
 10363 0021 24       		.uleb128 0x24
 10364 0022 00       		.byte	0
 10365 0023 0B       		.uleb128 0xb
 10366 0024 0B       		.uleb128 0xb
 10367 0025 3E       		.uleb128 0x3e
 10368 0026 0B       		.uleb128 0xb
 10369 0027 03       		.uleb128 0x3
 10370 0028 0E       		.uleb128 0xe
 10371 0029 00       		.byte	0
 10372 002a 00       		.byte	0
 10373 002b 04       		.uleb128 0x4
 10374 002c 24       		.uleb128 0x24
ARM GAS  C:\Users\PCHAUT~1\AppData\Local\Temp\ccgoQRgJ.s 			page 183


 10375 002d 00       		.byte	0
 10376 002e 0B       		.uleb128 0xb
 10377 002f 0B       		.uleb128 0xb
 10378 0030 3E       		.uleb128 0x3e
 10379 0031 0B       		.uleb128 0xb
 10380 0032 03       		.uleb128 0x3
 10381 0033 08       		.uleb128 0x8
 10382 0034 00       		.byte	0
 10383 0035 00       		.byte	0
 10384 0036 05       		.uleb128 0x5
 10385 0037 26       		.uleb128 0x26
 10386 0038 00       		.byte	0
 10387 0039 49       		.uleb128 0x49
 10388 003a 13       		.uleb128 0x13
 10389 003b 00       		.byte	0
 10390 003c 00       		.byte	0
 10391 003d 06       		.uleb128 0x6
 10392 003e 13       		.uleb128 0x13
 10393 003f 01       		.byte	0x1
 10394 0040 0B       		.uleb128 0xb
 10395 0041 0B       		.uleb128 0xb
 10396 0042 3A       		.uleb128 0x3a
 10397 0043 0B       		.uleb128 0xb
 10398 0044 3B       		.uleb128 0x3b
 10399 0045 0B       		.uleb128 0xb
 10400 0046 01       		.uleb128 0x1
 10401 0047 13       		.uleb128 0x13
 10402 0048 00       		.byte	0
 10403 0049 00       		.byte	0
 10404 004a 07       		.uleb128 0x7
 10405 004b 0D       		.uleb128 0xd
 10406 004c 00       		.byte	0
 10407 004d 03       		.uleb128 0x3
 10408 004e 0E       		.uleb128 0xe
 10409 004f 3A       		.uleb128 0x3a
 10410 0050 0B       		.uleb128 0xb
 10411 0051 3B       		.uleb128 0x3b
 10412 0052 0B       		.uleb128 0xb
 10413 0053 49       		.uleb128 0x49
 10414 0054 13       		.uleb128 0x13
 10415 0055 38       		.uleb128 0x38
 10416 0056 0B       		.uleb128 0xb
 10417 0057 00       		.byte	0
 10418 0058 00       		.byte	0
 10419 0059 08       		.uleb128 0x8
 10420 005a 01       		.uleb128 0x1
 10421 005b 01       		.byte	0x1
 10422 005c 49       		.uleb128 0x49
 10423 005d 13       		.uleb128 0x13
 10424 005e 01       		.uleb128 0x1
 10425 005f 13       		.uleb128 0x13
 10426 0060 00       		.byte	0
 10427 0061 00       		.byte	0
 10428 0062 09       		.uleb128 0x9
 10429 0063 21       		.uleb128 0x21
 10430 0064 00       		.byte	0
 10431 0065 49       		.uleb128 0x49
ARM GAS  C:\Users\PCHAUT~1\AppData\Local\Temp\ccgoQRgJ.s 			page 184


 10432 0066 13       		.uleb128 0x13
 10433 0067 2F       		.uleb128 0x2f
 10434 0068 0B       		.uleb128 0xb
 10435 0069 00       		.byte	0
 10436 006a 00       		.byte	0
 10437 006b 0A       		.uleb128 0xa
 10438 006c 0D       		.uleb128 0xd
 10439 006d 00       		.byte	0
 10440 006e 03       		.uleb128 0x3
 10441 006f 0E       		.uleb128 0xe
 10442 0070 3A       		.uleb128 0x3a
 10443 0071 0B       		.uleb128 0xb
 10444 0072 3B       		.uleb128 0x3b
 10445 0073 05       		.uleb128 0x5
 10446 0074 49       		.uleb128 0x49
 10447 0075 13       		.uleb128 0x13
 10448 0076 38       		.uleb128 0x38
 10449 0077 0B       		.uleb128 0xb
 10450 0078 00       		.byte	0
 10451 0079 00       		.byte	0
 10452 007a 0B       		.uleb128 0xb
 10453 007b 16       		.uleb128 0x16
 10454 007c 00       		.byte	0
 10455 007d 03       		.uleb128 0x3
 10456 007e 0E       		.uleb128 0xe
 10457 007f 3A       		.uleb128 0x3a
 10458 0080 0B       		.uleb128 0xb
 10459 0081 3B       		.uleb128 0x3b
 10460 0082 05       		.uleb128 0x5
 10461 0083 49       		.uleb128 0x49
 10462 0084 13       		.uleb128 0x13
 10463 0085 00       		.byte	0
 10464 0086 00       		.byte	0
 10465 0087 0C       		.uleb128 0xc
 10466 0088 13       		.uleb128 0x13
 10467 0089 01       		.byte	0x1
 10468 008a 0B       		.uleb128 0xb
 10469 008b 0B       		.uleb128 0xb
 10470 008c 3A       		.uleb128 0x3a
 10471 008d 0B       		.uleb128 0xb
 10472 008e 3B       		.uleb128 0x3b
 10473 008f 05       		.uleb128 0x5
 10474 0090 01       		.uleb128 0x1
 10475 0091 13       		.uleb128 0x13
 10476 0092 00       		.byte	0
 10477 0093 00       		.byte	0
 10478 0094 0D       		.uleb128 0xd
 10479 0095 13       		.uleb128 0x13
 10480 0096 01       		.byte	0x1
 10481 0097 0B       		.uleb128 0xb
 10482 0098 05       		.uleb128 0x5
 10483 0099 3A       		.uleb128 0x3a
 10484 009a 0B       		.uleb128 0xb
 10485 009b 3B       		.uleb128 0x3b
 10486 009c 05       		.uleb128 0x5
 10487 009d 01       		.uleb128 0x1
 10488 009e 13       		.uleb128 0x13
ARM GAS  C:\Users\PCHAUT~1\AppData\Local\Temp\ccgoQRgJ.s 			page 185


 10489 009f 00       		.byte	0
 10490 00a0 00       		.byte	0
 10491 00a1 0E       		.uleb128 0xe
 10492 00a2 0D       		.uleb128 0xd
 10493 00a3 00       		.byte	0
 10494 00a4 03       		.uleb128 0x3
 10495 00a5 0E       		.uleb128 0xe
 10496 00a6 3A       		.uleb128 0x3a
 10497 00a7 0B       		.uleb128 0xb
 10498 00a8 3B       		.uleb128 0x3b
 10499 00a9 05       		.uleb128 0x5
 10500 00aa 49       		.uleb128 0x49
 10501 00ab 13       		.uleb128 0x13
 10502 00ac 38       		.uleb128 0x38
 10503 00ad 05       		.uleb128 0x5
 10504 00ae 00       		.byte	0
 10505 00af 00       		.byte	0
 10506 00b0 0F       		.uleb128 0xf
 10507 00b1 0F       		.uleb128 0xf
 10508 00b2 00       		.byte	0
 10509 00b3 0B       		.uleb128 0xb
 10510 00b4 0B       		.uleb128 0xb
 10511 00b5 49       		.uleb128 0x49
 10512 00b6 13       		.uleb128 0x13
 10513 00b7 00       		.byte	0
 10514 00b8 00       		.byte	0
 10515 00b9 10       		.uleb128 0x10
 10516 00ba 0F       		.uleb128 0xf
 10517 00bb 00       		.byte	0
 10518 00bc 0B       		.uleb128 0xb
 10519 00bd 0B       		.uleb128 0xb
 10520 00be 00       		.byte	0
 10521 00bf 00       		.byte	0
 10522 00c0 11       		.uleb128 0x11
 10523 00c1 13       		.uleb128 0x13
 10524 00c2 00       		.byte	0
 10525 00c3 03       		.uleb128 0x3
 10526 00c4 0E       		.uleb128 0xe
 10527 00c5 3C       		.uleb128 0x3c
 10528 00c6 19       		.uleb128 0x19
 10529 00c7 00       		.byte	0
 10530 00c8 00       		.byte	0
 10531 00c9 12       		.uleb128 0x12
 10532 00ca 17       		.uleb128 0x17
 10533 00cb 01       		.byte	0x1
 10534 00cc 0B       		.uleb128 0xb
 10535 00cd 0B       		.uleb128 0xb
 10536 00ce 3A       		.uleb128 0x3a
 10537 00cf 0B       		.uleb128 0xb
 10538 00d0 3B       		.uleb128 0x3b
 10539 00d1 0B       		.uleb128 0xb
 10540 00d2 01       		.uleb128 0x1
 10541 00d3 13       		.uleb128 0x13
 10542 00d4 00       		.byte	0
 10543 00d5 00       		.byte	0
 10544 00d6 13       		.uleb128 0x13
 10545 00d7 0D       		.uleb128 0xd
ARM GAS  C:\Users\PCHAUT~1\AppData\Local\Temp\ccgoQRgJ.s 			page 186


 10546 00d8 00       		.byte	0
 10547 00d9 03       		.uleb128 0x3
 10548 00da 0E       		.uleb128 0xe
 10549 00db 3A       		.uleb128 0x3a
 10550 00dc 0B       		.uleb128 0xb
 10551 00dd 3B       		.uleb128 0x3b
 10552 00de 0B       		.uleb128 0xb
 10553 00df 49       		.uleb128 0x49
 10554 00e0 13       		.uleb128 0x13
 10555 00e1 00       		.byte	0
 10556 00e2 00       		.byte	0
 10557 00e3 14       		.uleb128 0x14
 10558 00e4 13       		.uleb128 0x13
 10559 00e5 01       		.byte	0x1
 10560 00e6 03       		.uleb128 0x3
 10561 00e7 0E       		.uleb128 0xe
 10562 00e8 0B       		.uleb128 0xb
 10563 00e9 0B       		.uleb128 0xb
 10564 00ea 3A       		.uleb128 0x3a
 10565 00eb 0B       		.uleb128 0xb
 10566 00ec 3B       		.uleb128 0x3b
 10567 00ed 0B       		.uleb128 0xb
 10568 00ee 01       		.uleb128 0x1
 10569 00ef 13       		.uleb128 0x13
 10570 00f0 00       		.byte	0
 10571 00f1 00       		.byte	0
 10572 00f2 15       		.uleb128 0x15
 10573 00f3 0D       		.uleb128 0xd
 10574 00f4 00       		.byte	0
 10575 00f5 03       		.uleb128 0x3
 10576 00f6 08       		.uleb128 0x8
 10577 00f7 3A       		.uleb128 0x3a
 10578 00f8 0B       		.uleb128 0xb
 10579 00f9 3B       		.uleb128 0x3b
 10580 00fa 0B       		.uleb128 0xb
 10581 00fb 49       		.uleb128 0x49
 10582 00fc 13       		.uleb128 0x13
 10583 00fd 38       		.uleb128 0x38
 10584 00fe 0B       		.uleb128 0xb
 10585 00ff 00       		.byte	0
 10586 0100 00       		.byte	0
 10587 0101 16       		.uleb128 0x16
 10588 0102 13       		.uleb128 0x13
 10589 0103 01       		.byte	0x1
 10590 0104 03       		.uleb128 0x3
 10591 0105 0E       		.uleb128 0xe
 10592 0106 0B       		.uleb128 0xb
 10593 0107 05       		.uleb128 0x5
 10594 0108 3A       		.uleb128 0x3a
 10595 0109 0B       		.uleb128 0xb
 10596 010a 3B       		.uleb128 0x3b
 10597 010b 0B       		.uleb128 0xb
 10598 010c 01       		.uleb128 0x1
 10599 010d 13       		.uleb128 0x13
 10600 010e 00       		.byte	0
 10601 010f 00       		.byte	0
 10602 0110 17       		.uleb128 0x17
ARM GAS  C:\Users\PCHAUT~1\AppData\Local\Temp\ccgoQRgJ.s 			page 187


 10603 0111 0D       		.uleb128 0xd
 10604 0112 00       		.byte	0
 10605 0113 03       		.uleb128 0x3
 10606 0114 0E       		.uleb128 0xe
 10607 0115 3A       		.uleb128 0x3a
 10608 0116 0B       		.uleb128 0xb
 10609 0117 3B       		.uleb128 0x3b
 10610 0118 0B       		.uleb128 0xb
 10611 0119 49       		.uleb128 0x49
 10612 011a 13       		.uleb128 0x13
 10613 011b 38       		.uleb128 0x38
 10614 011c 05       		.uleb128 0x5
 10615 011d 00       		.byte	0
 10616 011e 00       		.byte	0
 10617 011f 18       		.uleb128 0x18
 10618 0120 15       		.uleb128 0x15
 10619 0121 00       		.byte	0
 10620 0122 27       		.uleb128 0x27
 10621 0123 19       		.uleb128 0x19
 10622 0124 00       		.byte	0
 10623 0125 00       		.byte	0
 10624 0126 19       		.uleb128 0x19
 10625 0127 15       		.uleb128 0x15
 10626 0128 01       		.byte	0x1
 10627 0129 27       		.uleb128 0x27
 10628 012a 19       		.uleb128 0x19
 10629 012b 49       		.uleb128 0x49
 10630 012c 13       		.uleb128 0x13
 10631 012d 01       		.uleb128 0x1
 10632 012e 13       		.uleb128 0x13
 10633 012f 00       		.byte	0
 10634 0130 00       		.byte	0
 10635 0131 1A       		.uleb128 0x1a
 10636 0132 05       		.uleb128 0x5
 10637 0133 00       		.byte	0
 10638 0134 49       		.uleb128 0x49
 10639 0135 13       		.uleb128 0x13
 10640 0136 00       		.byte	0
 10641 0137 00       		.byte	0
 10642 0138 1B       		.uleb128 0x1b
 10643 0139 13       		.uleb128 0x13
 10644 013a 01       		.byte	0x1
 10645 013b 03       		.uleb128 0x3
 10646 013c 0E       		.uleb128 0xe
 10647 013d 0B       		.uleb128 0xb
 10648 013e 05       		.uleb128 0x5
 10649 013f 3A       		.uleb128 0x3a
 10650 0140 0B       		.uleb128 0xb
 10651 0141 3B       		.uleb128 0x3b
 10652 0142 05       		.uleb128 0x5
 10653 0143 01       		.uleb128 0x1
 10654 0144 13       		.uleb128 0x13
 10655 0145 00       		.byte	0
 10656 0146 00       		.byte	0
 10657 0147 1C       		.uleb128 0x1c
 10658 0148 13       		.uleb128 0x13
 10659 0149 01       		.byte	0x1
ARM GAS  C:\Users\PCHAUT~1\AppData\Local\Temp\ccgoQRgJ.s 			page 188


 10660 014a 03       		.uleb128 0x3
 10661 014b 0E       		.uleb128 0xe
 10662 014c 0B       		.uleb128 0xb
 10663 014d 0B       		.uleb128 0xb
 10664 014e 3A       		.uleb128 0x3a
 10665 014f 0B       		.uleb128 0xb
 10666 0150 3B       		.uleb128 0x3b
 10667 0151 05       		.uleb128 0x5
 10668 0152 01       		.uleb128 0x1
 10669 0153 13       		.uleb128 0x13
 10670 0154 00       		.byte	0
 10671 0155 00       		.byte	0
 10672 0156 1D       		.uleb128 0x1d
 10673 0157 17       		.uleb128 0x17
 10674 0158 01       		.byte	0x1
 10675 0159 0B       		.uleb128 0xb
 10676 015a 0B       		.uleb128 0xb
 10677 015b 3A       		.uleb128 0x3a
 10678 015c 0B       		.uleb128 0xb
 10679 015d 3B       		.uleb128 0x3b
 10680 015e 05       		.uleb128 0x5
 10681 015f 01       		.uleb128 0x1
 10682 0160 13       		.uleb128 0x13
 10683 0161 00       		.byte	0
 10684 0162 00       		.byte	0
 10685 0163 1E       		.uleb128 0x1e
 10686 0164 0D       		.uleb128 0xd
 10687 0165 00       		.byte	0
 10688 0166 03       		.uleb128 0x3
 10689 0167 0E       		.uleb128 0xe
 10690 0168 3A       		.uleb128 0x3a
 10691 0169 0B       		.uleb128 0xb
 10692 016a 3B       		.uleb128 0x3b
 10693 016b 05       		.uleb128 0x5
 10694 016c 49       		.uleb128 0x49
 10695 016d 13       		.uleb128 0x13
 10696 016e 00       		.byte	0
 10697 016f 00       		.byte	0
 10698 0170 1F       		.uleb128 0x1f
 10699 0171 15       		.uleb128 0x15
 10700 0172 01       		.byte	0x1
 10701 0173 27       		.uleb128 0x27
 10702 0174 19       		.uleb128 0x19
 10703 0175 01       		.uleb128 0x1
 10704 0176 13       		.uleb128 0x13
 10705 0177 00       		.byte	0
 10706 0178 00       		.byte	0
 10707 0179 20       		.uleb128 0x20
 10708 017a 34       		.uleb128 0x34
 10709 017b 00       		.byte	0
 10710 017c 03       		.uleb128 0x3
 10711 017d 0E       		.uleb128 0xe
 10712 017e 3A       		.uleb128 0x3a
 10713 017f 0B       		.uleb128 0xb
 10714 0180 3B       		.uleb128 0x3b
 10715 0181 05       		.uleb128 0x5
 10716 0182 49       		.uleb128 0x49
ARM GAS  C:\Users\PCHAUT~1\AppData\Local\Temp\ccgoQRgJ.s 			page 189


 10717 0183 13       		.uleb128 0x13
 10718 0184 3F       		.uleb128 0x3f
 10719 0185 19       		.uleb128 0x19
 10720 0186 3C       		.uleb128 0x3c
 10721 0187 19       		.uleb128 0x19
 10722 0188 00       		.byte	0
 10723 0189 00       		.byte	0
 10724 018a 21       		.uleb128 0x21
 10725 018b 13       		.uleb128 0x13
 10726 018c 01       		.byte	0x1
 10727 018d 0B       		.uleb128 0xb
 10728 018e 05       		.uleb128 0x5
 10729 018f 3A       		.uleb128 0x3a
 10730 0190 0B       		.uleb128 0xb
 10731 0191 3B       		.uleb128 0x3b
 10732 0192 0B       		.uleb128 0xb
 10733 0193 01       		.uleb128 0x1
 10734 0194 13       		.uleb128 0x13
 10735 0195 00       		.byte	0
 10736 0196 00       		.byte	0
 10737 0197 22       		.uleb128 0x22
 10738 0198 34       		.uleb128 0x34
 10739 0199 00       		.byte	0
 10740 019a 03       		.uleb128 0x3
 10741 019b 0E       		.uleb128 0xe
 10742 019c 3A       		.uleb128 0x3a
 10743 019d 0B       		.uleb128 0xb
 10744 019e 3B       		.uleb128 0x3b
 10745 019f 0B       		.uleb128 0xb
 10746 01a0 49       		.uleb128 0x49
 10747 01a1 13       		.uleb128 0x13
 10748 01a2 3F       		.uleb128 0x3f
 10749 01a3 19       		.uleb128 0x19
 10750 01a4 3C       		.uleb128 0x3c
 10751 01a5 19       		.uleb128 0x19
 10752 01a6 00       		.byte	0
 10753 01a7 00       		.byte	0
 10754 01a8 23       		.uleb128 0x23
 10755 01a9 2E       		.uleb128 0x2e
 10756 01aa 01       		.byte	0x1
 10757 01ab 3F       		.uleb128 0x3f
 10758 01ac 19       		.uleb128 0x19
 10759 01ad 03       		.uleb128 0x3
 10760 01ae 0E       		.uleb128 0xe
 10761 01af 3A       		.uleb128 0x3a
 10762 01b0 0B       		.uleb128 0xb
 10763 01b1 3B       		.uleb128 0x3b
 10764 01b2 05       		.uleb128 0x5
 10765 01b3 27       		.uleb128 0x27
 10766 01b4 19       		.uleb128 0x19
 10767 01b5 49       		.uleb128 0x49
 10768 01b6 13       		.uleb128 0x13
 10769 01b7 11       		.uleb128 0x11
 10770 01b8 01       		.uleb128 0x1
 10771 01b9 12       		.uleb128 0x12
 10772 01ba 06       		.uleb128 0x6
 10773 01bb 40       		.uleb128 0x40
ARM GAS  C:\Users\PCHAUT~1\AppData\Local\Temp\ccgoQRgJ.s 			page 190


 10774 01bc 18       		.uleb128 0x18
 10775 01bd 9642     		.uleb128 0x2116
 10776 01bf 19       		.uleb128 0x19
 10777 01c0 01       		.uleb128 0x1
 10778 01c1 13       		.uleb128 0x13
 10779 01c2 00       		.byte	0
 10780 01c3 00       		.byte	0
 10781 01c4 24       		.uleb128 0x24
 10782 01c5 05       		.uleb128 0x5
 10783 01c6 00       		.byte	0
 10784 01c7 03       		.uleb128 0x3
 10785 01c8 08       		.uleb128 0x8
 10786 01c9 3A       		.uleb128 0x3a
 10787 01ca 0B       		.uleb128 0xb
 10788 01cb 3B       		.uleb128 0x3b
 10789 01cc 05       		.uleb128 0x5
 10790 01cd 49       		.uleb128 0x49
 10791 01ce 13       		.uleb128 0x13
 10792 01cf 02       		.uleb128 0x2
 10793 01d0 18       		.uleb128 0x18
 10794 01d1 00       		.byte	0
 10795 01d2 00       		.byte	0
 10796 01d3 25       		.uleb128 0x25
 10797 01d4 05       		.uleb128 0x5
 10798 01d5 00       		.byte	0
 10799 01d6 03       		.uleb128 0x3
 10800 01d7 0E       		.uleb128 0xe
 10801 01d8 3A       		.uleb128 0x3a
 10802 01d9 0B       		.uleb128 0xb
 10803 01da 3B       		.uleb128 0x3b
 10804 01db 05       		.uleb128 0x5
 10805 01dc 49       		.uleb128 0x49
 10806 01dd 13       		.uleb128 0x13
 10807 01de 02       		.uleb128 0x2
 10808 01df 18       		.uleb128 0x18
 10809 01e0 00       		.byte	0
 10810 01e1 00       		.byte	0
 10811 01e2 26       		.uleb128 0x26
 10812 01e3 34       		.uleb128 0x34
 10813 01e4 00       		.byte	0
 10814 01e5 03       		.uleb128 0x3
 10815 01e6 0E       		.uleb128 0xe
 10816 01e7 3A       		.uleb128 0x3a
 10817 01e8 0B       		.uleb128 0xb
 10818 01e9 3B       		.uleb128 0x3b
 10819 01ea 05       		.uleb128 0x5
 10820 01eb 49       		.uleb128 0x49
 10821 01ec 13       		.uleb128 0x13
 10822 01ed 02       		.uleb128 0x2
 10823 01ee 18       		.uleb128 0x18
 10824 01ef 00       		.byte	0
 10825 01f0 00       		.byte	0
 10826 01f1 27       		.uleb128 0x27
 10827 01f2 34       		.uleb128 0x34
 10828 01f3 00       		.byte	0
 10829 01f4 03       		.uleb128 0x3
 10830 01f5 08       		.uleb128 0x8
ARM GAS  C:\Users\PCHAUT~1\AppData\Local\Temp\ccgoQRgJ.s 			page 191


 10831 01f6 3A       		.uleb128 0x3a
 10832 01f7 0B       		.uleb128 0xb
 10833 01f8 3B       		.uleb128 0x3b
 10834 01f9 05       		.uleb128 0x5
 10835 01fa 49       		.uleb128 0x49
 10836 01fb 13       		.uleb128 0x13
 10837 01fc 02       		.uleb128 0x2
 10838 01fd 18       		.uleb128 0x18
 10839 01fe 00       		.byte	0
 10840 01ff 00       		.byte	0
 10841 0200 28       		.uleb128 0x28
 10842 0201 2E       		.uleb128 0x2e
 10843 0202 01       		.byte	0x1
 10844 0203 3F       		.uleb128 0x3f
 10845 0204 19       		.uleb128 0x19
 10846 0205 03       		.uleb128 0x3
 10847 0206 0E       		.uleb128 0xe
 10848 0207 3A       		.uleb128 0x3a
 10849 0208 0B       		.uleb128 0xb
 10850 0209 3B       		.uleb128 0x3b
 10851 020a 0B       		.uleb128 0xb
 10852 020b 27       		.uleb128 0x27
 10853 020c 19       		.uleb128 0x19
 10854 020d 49       		.uleb128 0x49
 10855 020e 13       		.uleb128 0x13
 10856 020f 11       		.uleb128 0x11
 10857 0210 01       		.uleb128 0x1
 10858 0211 12       		.uleb128 0x12
 10859 0212 06       		.uleb128 0x6
 10860 0213 40       		.uleb128 0x40
 10861 0214 18       		.uleb128 0x18
 10862 0215 9642     		.uleb128 0x2116
 10863 0217 19       		.uleb128 0x19
 10864 0218 01       		.uleb128 0x1
 10865 0219 13       		.uleb128 0x13
 10866 021a 00       		.byte	0
 10867 021b 00       		.byte	0
 10868 021c 29       		.uleb128 0x29
 10869 021d 05       		.uleb128 0x5
 10870 021e 00       		.byte	0
 10871 021f 03       		.uleb128 0x3
 10872 0220 08       		.uleb128 0x8
 10873 0221 3A       		.uleb128 0x3a
 10874 0222 0B       		.uleb128 0xb
 10875 0223 3B       		.uleb128 0x3b
 10876 0224 0B       		.uleb128 0xb
 10877 0225 49       		.uleb128 0x49
 10878 0226 13       		.uleb128 0x13
 10879 0227 02       		.uleb128 0x2
 10880 0228 18       		.uleb128 0x18
 10881 0229 00       		.byte	0
 10882 022a 00       		.byte	0
 10883 022b 2A       		.uleb128 0x2a
 10884 022c 05       		.uleb128 0x5
 10885 022d 00       		.byte	0
 10886 022e 03       		.uleb128 0x3
 10887 022f 0E       		.uleb128 0xe
ARM GAS  C:\Users\PCHAUT~1\AppData\Local\Temp\ccgoQRgJ.s 			page 192


 10888 0230 3A       		.uleb128 0x3a
 10889 0231 0B       		.uleb128 0xb
 10890 0232 3B       		.uleb128 0x3b
 10891 0233 0B       		.uleb128 0xb
 10892 0234 49       		.uleb128 0x49
 10893 0235 13       		.uleb128 0x13
 10894 0236 02       		.uleb128 0x2
 10895 0237 18       		.uleb128 0x18
 10896 0238 00       		.byte	0
 10897 0239 00       		.byte	0
 10898 023a 2B       		.uleb128 0x2b
 10899 023b 34       		.uleb128 0x34
 10900 023c 00       		.byte	0
 10901 023d 03       		.uleb128 0x3
 10902 023e 0E       		.uleb128 0xe
 10903 023f 3A       		.uleb128 0x3a
 10904 0240 0B       		.uleb128 0xb
 10905 0241 3B       		.uleb128 0x3b
 10906 0242 0B       		.uleb128 0xb
 10907 0243 49       		.uleb128 0x49
 10908 0244 13       		.uleb128 0x13
 10909 0245 02       		.uleb128 0x2
 10910 0246 18       		.uleb128 0x18
 10911 0247 00       		.byte	0
 10912 0248 00       		.byte	0
 10913 0249 2C       		.uleb128 0x2c
 10914 024a 34       		.uleb128 0x34
 10915 024b 00       		.byte	0
 10916 024c 03       		.uleb128 0x3
 10917 024d 08       		.uleb128 0x8
 10918 024e 3A       		.uleb128 0x3a
 10919 024f 0B       		.uleb128 0xb
 10920 0250 3B       		.uleb128 0x3b
 10921 0251 0B       		.uleb128 0xb
 10922 0252 49       		.uleb128 0x49
 10923 0253 13       		.uleb128 0x13
 10924 0254 02       		.uleb128 0x2
 10925 0255 18       		.uleb128 0x18
 10926 0256 00       		.byte	0
 10927 0257 00       		.byte	0
 10928 0258 2D       		.uleb128 0x2d
 10929 0259 2E       		.uleb128 0x2e
 10930 025a 01       		.byte	0x1
 10931 025b 3F       		.uleb128 0x3f
 10932 025c 19       		.uleb128 0x19
 10933 025d 03       		.uleb128 0x3
 10934 025e 0E       		.uleb128 0xe
 10935 025f 3A       		.uleb128 0x3a
 10936 0260 0B       		.uleb128 0xb
 10937 0261 3B       		.uleb128 0x3b
 10938 0262 0B       		.uleb128 0xb
 10939 0263 27       		.uleb128 0x27
 10940 0264 19       		.uleb128 0x19
 10941 0265 49       		.uleb128 0x49
 10942 0266 13       		.uleb128 0x13
 10943 0267 11       		.uleb128 0x11
 10944 0268 01       		.uleb128 0x1
ARM GAS  C:\Users\PCHAUT~1\AppData\Local\Temp\ccgoQRgJ.s 			page 193


 10945 0269 12       		.uleb128 0x12
 10946 026a 06       		.uleb128 0x6
 10947 026b 40       		.uleb128 0x40
 10948 026c 18       		.uleb128 0x18
 10949 026d 9642     		.uleb128 0x2116
 10950 026f 19       		.uleb128 0x19
 10951 0270 00       		.byte	0
 10952 0271 00       		.byte	0
 10953 0272 00       		.byte	0
 10954              		.section	.debug_aranges,"",%progbits
 10955 0000 DC000000 		.4byte	0xdc
 10956 0004 0200     		.2byte	0x2
 10957 0006 00000000 		.4byte	.Ldebug_info0
 10958 000a 04       		.byte	0x4
 10959 000b 00       		.byte	0
 10960 000c 0000     		.2byte	0
 10961 000e 0000     		.2byte	0
 10962 0010 00000000 		.4byte	.LFB3
 10963 0014 80000000 		.4byte	.LFE3-.LFB3
 10964 0018 00000000 		.4byte	.LFB4
 10965 001c 80000000 		.4byte	.LFE4-.LFB4
 10966 0020 00000000 		.4byte	.LFB5
 10967 0024 44000000 		.4byte	.LFE5-.LFB5
 10968 0028 00000000 		.4byte	.LFB6
 10969 002c 44000000 		.4byte	.LFE6-.LFB6
 10970 0030 00000000 		.4byte	.LFB7
 10971 0034 7C000000 		.4byte	.LFE7-.LFB7
 10972 0038 00000000 		.4byte	.LFB8
 10973 003c 60000000 		.4byte	.LFE8-.LFB8
 10974 0040 00000000 		.4byte	.LFB9
 10975 0044 AC000000 		.4byte	.LFE9-.LFB9
 10976 0048 00000000 		.4byte	.LFB10
 10977 004c D4090000 		.4byte	.LFE10-.LFB10
 10978 0050 00000000 		.4byte	.LFB11
 10979 0054 50000000 		.4byte	.LFE11-.LFB11
 10980 0058 00000000 		.4byte	.LFB12
 10981 005c 78000000 		.4byte	.LFE12-.LFB12
 10982 0060 00000000 		.4byte	.LFB13
 10983 0064 44000000 		.4byte	.LFE13-.LFB13
 10984 0068 00000000 		.4byte	.LFB14
 10985 006c 70000000 		.4byte	.LFE14-.LFB14
 10986 0070 00000000 		.4byte	.LFB15
 10987 0074 74000000 		.4byte	.LFE15-.LFB15
 10988 0078 00000000 		.4byte	.LFB16
 10989 007c 00020000 		.4byte	.LFE16-.LFB16
 10990 0080 00000000 		.4byte	.LFB17
 10991 0084 28020000 		.4byte	.LFE17-.LFB17
 10992 0088 00000000 		.4byte	.LFB18
 10993 008c 58050000 		.4byte	.LFE18-.LFB18
 10994 0090 00000000 		.4byte	.LFB19
 10995 0094 94000000 		.4byte	.LFE19-.LFB19
 10996 0098 00000000 		.4byte	.LFB20
 10997 009c E0010000 		.4byte	.LFE20-.LFB20
 10998 00a0 00000000 		.4byte	.LFB21
 10999 00a4 80010000 		.4byte	.LFE21-.LFB21
 11000 00a8 00000000 		.4byte	.LFB22
 11001 00ac 24020000 		.4byte	.LFE22-.LFB22
ARM GAS  C:\Users\PCHAUT~1\AppData\Local\Temp\ccgoQRgJ.s 			page 194


 11002 00b0 00000000 		.4byte	.LFB23
 11003 00b4 7C000000 		.4byte	.LFE23-.LFB23
 11004 00b8 00000000 		.4byte	.LFB24
 11005 00bc 64000000 		.4byte	.LFE24-.LFB24
 11006 00c0 00000000 		.4byte	.LFB25
 11007 00c4 68020000 		.4byte	.LFE25-.LFB25
 11008 00c8 00000000 		.4byte	.LFB26
 11009 00cc 14040000 		.4byte	.LFE26-.LFB26
 11010 00d0 00000000 		.4byte	.LFB27
 11011 00d4 DC030000 		.4byte	.LFE27-.LFB27
 11012 00d8 00000000 		.4byte	0
 11013 00dc 00000000 		.4byte	0
 11014              		.section	.debug_ranges,"",%progbits
 11015              	.Ldebug_ranges0:
 11016 0000 00000000 		.4byte	.LFB3
 11017 0004 80000000 		.4byte	.LFE3
 11018 0008 00000000 		.4byte	.LFB4
 11019 000c 80000000 		.4byte	.LFE4
 11020 0010 00000000 		.4byte	.LFB5
 11021 0014 44000000 		.4byte	.LFE5
 11022 0018 00000000 		.4byte	.LFB6
 11023 001c 44000000 		.4byte	.LFE6
 11024 0020 00000000 		.4byte	.LFB7
 11025 0024 7C000000 		.4byte	.LFE7
 11026 0028 00000000 		.4byte	.LFB8
 11027 002c 60000000 		.4byte	.LFE8
 11028 0030 00000000 		.4byte	.LFB9
 11029 0034 AC000000 		.4byte	.LFE9
 11030 0038 00000000 		.4byte	.LFB10
 11031 003c D4090000 		.4byte	.LFE10
 11032 0040 00000000 		.4byte	.LFB11
 11033 0044 50000000 		.4byte	.LFE11
 11034 0048 00000000 		.4byte	.LFB12
 11035 004c 78000000 		.4byte	.LFE12
 11036 0050 00000000 		.4byte	.LFB13
 11037 0054 44000000 		.4byte	.LFE13
 11038 0058 00000000 		.4byte	.LFB14
 11039 005c 70000000 		.4byte	.LFE14
 11040 0060 00000000 		.4byte	.LFB15
 11041 0064 74000000 		.4byte	.LFE15
 11042 0068 00000000 		.4byte	.LFB16
 11043 006c 00020000 		.4byte	.LFE16
 11044 0070 00000000 		.4byte	.LFB17
 11045 0074 28020000 		.4byte	.LFE17
 11046 0078 00000000 		.4byte	.LFB18
 11047 007c 58050000 		.4byte	.LFE18
 11048 0080 00000000 		.4byte	.LFB19
 11049 0084 94000000 		.4byte	.LFE19
 11050 0088 00000000 		.4byte	.LFB20
 11051 008c E0010000 		.4byte	.LFE20
 11052 0090 00000000 		.4byte	.LFB21
 11053 0094 80010000 		.4byte	.LFE21
 11054 0098 00000000 		.4byte	.LFB22
 11055 009c 24020000 		.4byte	.LFE22
 11056 00a0 00000000 		.4byte	.LFB23
 11057 00a4 7C000000 		.4byte	.LFE23
 11058 00a8 00000000 		.4byte	.LFB24
ARM GAS  C:\Users\PCHAUT~1\AppData\Local\Temp\ccgoQRgJ.s 			page 195


 11059 00ac 64000000 		.4byte	.LFE24
 11060 00b0 00000000 		.4byte	.LFB25
 11061 00b4 68020000 		.4byte	.LFE25
 11062 00b8 00000000 		.4byte	.LFB26
 11063 00bc 14040000 		.4byte	.LFE26
 11064 00c0 00000000 		.4byte	.LFB27
 11065 00c4 DC030000 		.4byte	.LFE27
 11066 00c8 00000000 		.4byte	0
 11067 00cc 00000000 		.4byte	0
 11068              		.section	.debug_line,"",%progbits
 11069              	.Ldebug_line0:
 11070 0000 7B0A0000 		.section	.debug_str,"MS",%progbits,1
 11070      0200BD03 
 11070      00000201 
 11070      FB0E0D00 
 11070      01010101 
 11071              	.LASF408:
 11072 0000 6D735F62 		.ascii	"ms_byte\000"
 11072      79746500 
 11073              	.LASF385:
 11074 0008 50726552 		.ascii	"PreRangeEncodedTimeOut\000"
 11074      616E6765 
 11074      456E636F 
 11074      64656454 
 11074      696D654F 
 11075              	.LASF331:
 11076 001f 646D6178 		.ascii	"dmaxDark\000"
 11076      4461726B 
 11076      00
 11077              	.LASF244:
 11078 0028 44657669 		.ascii	"DeviceRangeStatus\000"
 11078      63655261 
 11078      6E676553 
 11078      74617475 
 11078      7300
 11079              	.LASF390:
 11080 003a 6765745F 		.ascii	"get_sequence_step_timeout\000"
 11080      73657175 
 11080      656E6365 
 11080      5F737465 
 11080      705F7469 
 11081              	.LASF399:
 11082 0054 6D616372 		.ascii	"macro_period_ns\000"
 11082      6F5F7065 
 11082      72696F64 
 11082      5F6E7300 
 11083              	.LASF91:
 11084 0064 52656665 		.ascii	"ReferenceSpadType\000"
 11084      72656E63 
 11084      65537061 
 11084      64547970 
 11084      6500
 11085              	.LASF60:
 11086 0076 5369676E 		.ascii	"SignalRateRtnMegaCps\000"
 11086      616C5261 
 11086      74655274 
 11086      6E4D6567 
ARM GAS  C:\Users\PCHAUT~1\AppData\Local\Temp\ccgoQRgJ.s 			page 196


 11086      61437073 
 11087              	.LASF140:
 11088 008b 5F6D6178 		.ascii	"_maxwds\000"
 11088      77647300 
 11089              	.LASF94:
 11090 0093 50617274 		.ascii	"PartUIDLower\000"
 11090      5549444C 
 11090      6F776572 
 11090      00
 11091              	.LASF169:
 11092 00a0 5F636F6F 		.ascii	"_cookie\000"
 11092      6B696500 
 11093              	.LASF31:
 11094 00a8 50726F64 		.ascii	"ProductRevisionMajor\000"
 11094      75637452 
 11094      65766973 
 11094      696F6E4D 
 11094      616A6F72 
 11095              	.LASF242:
 11096 00bd 564C3533 		.ascii	"VL53L0X_DEV\000"
 11096      4C30585F 
 11096      44455600 
 11097              	.LASF154:
 11098 00c9 5F6F6E5F 		.ascii	"_on_exit_args\000"
 11098      65786974 
 11098      5F617267 
 11098      7300
 11099              	.LASF40:
 11100 00d7 48697374 		.ascii	"HistogramMode\000"
 11100      6F677261 
 11100      6D4D6F64 
 11100      6500
 11101              	.LASF389:
 11102 00e5 46696E61 		.ascii	"FinalRangeEncodedTimeOut\000"
 11102      6C52616E 
 11102      6765456E 
 11102      636F6465 
 11102      6454696D 
 11103              	.LASF221:
 11104 00fe 5F776374 		.ascii	"_wctomb_state\000"
 11104      6F6D625F 
 11104      73746174 
 11104      6500
 11105              	.LASF380:
 11106 010c 7365745F 		.ascii	"set_sequence_step_timeout\000"
 11106      73657175 
 11106      656E6365 
 11106      5F737465 
 11106      705F7469 
 11107              	.LASF372:
 11108 0126 564C3533 		.ascii	"VL53L0X_set_vcsel_pulse_period\000"
 11108      4C30585F 
 11108      7365745F 
 11108      76637365 
 11108      6C5F7075 
 11109              	.LASF239:
 11110 0145 44657669 		.ascii	"DeviceInfo\000"
ARM GAS  C:\Users\PCHAUT~1\AppData\Local\Temp\ccgoQRgJ.s 			page 197


 11110      6365496E 
 11110      666F00
 11111              	.LASF43:
 11112 0150 5854616C 		.ascii	"XTalkCompensationEnable\000"
 11112      6B436F6D 
 11112      70656E73 
 11112      6174696F 
 11112      6E456E61 
 11113              	.LASF291:
 11114 0168 7854616C 		.ascii	"xTalkCorrection\000"
 11114      6B436F72 
 11114      72656374 
 11114      696F6E00 
 11115              	.LASF83:
 11116 0178 50726552 		.ascii	"PreRangeVcselPulsePeriod\000"
 11116      616E6765 
 11116      56637365 
 11116      6C50756C 
 11116      73655065 
 11117              	.LASF218:
 11118 0191 5F723438 		.ascii	"_r48\000"
 11118      00
 11119              	.LASF344:
 11120 0196 7054756E 		.ascii	"pTuningSettingBuffer\000"
 11120      696E6753 
 11120      65747469 
 11120      6E674275 
 11120      66666572 
 11121              	.LASF337:
 11122 01ab 70746F74 		.ascii	"ptotal_signal_rate_mcps\000"
 11122      616C5F73 
 11122      69676E61 
 11122      6C5F7261 
 11122      74655F6D 
 11123              	.LASF357:
 11124 01c3 456E644F 		.ascii	"EndOverheadMicroSeconds\000"
 11124      76657268 
 11124      6561644D 
 11124      6963726F 
 11124      5365636F 
 11125              	.LASF145:
 11126 01db 5F5F746D 		.ascii	"__tm_sec\000"
 11126      5F736563 
 11126      00
 11127              	.LASF252:
 11128 01e4 52616E67 		.ascii	"RangeIgnoreThresholdflag\000"
 11128      6549676E 
 11128      6F726554 
 11128      68726573 
 11128      686F6C64 
 11129              	.LASF223:
 11130 01fd 5F736967 		.ascii	"_signal_buf\000"
 11130      6E616C5F 
 11130      62756600 
 11131              	.LASF15:
 11132 0209 756E7369 		.ascii	"unsigned int\000"
 11132      676E6564 
ARM GAS  C:\Users\PCHAUT~1\AppData\Local\Temp\ccgoQRgJ.s 			page 198


 11132      20696E74 
 11132      00
 11133              	.LASF44:
 11134 0216 5854616C 		.ascii	"XTalkCompensationRangeMilliMeter\000"
 11134      6B436F6D 
 11134      70656E73 
 11134      6174696F 
 11134      6E52616E 
 11135              	.LASF311:
 11136 0237 70726552 		.ascii	"preRangeVcselPCLKS\000"
 11136      616E6765 
 11136      56637365 
 11136      6C50434C 
 11136      4B5300
 11137              	.LASF248:
 11138 024a 53746174 		.ascii	"Status\000"
 11138      757300
 11139              	.LASF250:
 11140 0251 5369676D 		.ascii	"SigmaLimitflag\000"
 11140      614C696D 
 11140      6974666C 
 11140      616700
 11141              	.LASF343:
 11142 0260 564C3533 		.ascii	"VL53L0X_load_tuning_settings\000"
 11142      4C30585F 
 11142      6C6F6164 
 11142      5F74756E 
 11142      696E675F 
 11143              	.LASF38:
 11144 027d 564C3533 		.ascii	"VL53L0X_PowerModes\000"
 11144      4C30585F 
 11144      506F7765 
 11144      724D6F64 
 11144      657300
 11145              	.LASF29:
 11146 0290 50726F64 		.ascii	"ProductId\000"
 11146      75637449 
 11146      6400
 11147              	.LASF47:
 11148 029a 4C696D69 		.ascii	"LimitChecksEnable\000"
 11148      74436865 
 11148      636B7345 
 11148      6E61626C 
 11148      6500
 11149              	.LASF166:
 11150 02ac 5F666C61 		.ascii	"_flags\000"
 11150      677300
 11151              	.LASF438:
 11152 02b3 696E6465 		.ascii	"index\000"
 11152      7800
 11153              	.LASF72:
 11154 02b9 4572726F 		.ascii	"ErrorStatus\000"
 11154      72537461 
 11154      74757300 
 11155              	.LASF61:
 11156 02c5 416D6269 		.ascii	"AmbientRateRtnMegaCps\000"
 11156      656E7452 
ARM GAS  C:\Users\PCHAUT~1\AppData\Local\Temp\ccgoQRgJ.s 			page 199


 11156      61746552 
 11156      746E4D65 
 11156      67614370 
 11157              	.LASF8:
 11158 02db 5F5F696E 		.ascii	"__int32_t\000"
 11158      7433325F 
 11158      7400
 11159              	.LASF328:
 11160 02e5 7369676D 		.ascii	"sigmaEstSqTmp\000"
 11160      61457374 
 11160      5371546D 
 11160      7000
 11161              	.LASF183:
 11162 02f3 5F657272 		.ascii	"_errno\000"
 11162      6E6F00
 11163              	.LASF354:
 11164 02fa 46696E61 		.ascii	"FinalRangeTimeoutMicroSeconds\000"
 11164      6C52616E 
 11164      67655469 
 11164      6D656F75 
 11164      744D6963 
 11165              	.LASF430:
 11166 0318 564C3533 		.ascii	"VL53L0X_decode_vcsel_period\000"
 11166      4C30585F 
 11166      6465636F 
 11166      64655F76 
 11166      6373656C 
 11167              	.LASF280:
 11168 0334 76637365 		.ascii	"vcselTotalEventsRtn\000"
 11168      6C546F74 
 11168      616C4576 
 11168      656E7473 
 11168      52746E00 
 11169              	.LASF294:
 11170 0348 7854616C 		.ascii	"xTalkCompRate_mcps\000"
 11170      6B436F6D 
 11170      70526174 
 11170      655F6D63 
 11170      707300
 11171              	.LASF235:
 11172 035b 5F5F6C6F 		.ascii	"__locale_t\000"
 11172      63616C65 
 11172      5F7400
 11173              	.LASF180:
 11174 0366 5F6D6273 		.ascii	"_mbstate\000"
 11174      74617465 
 11174      00
 11175              	.LASF336:
 11176 036f 564C3533 		.ascii	"VL53L0X_get_total_signal_rate\000"
 11176      4C30585F 
 11176      6765745F 
 11176      746F7461 
 11176      6C5F7369 
 11177              	.LASF442:
 11178 038d 564C3533 		.ascii	"VL53L0X_reverse_bytes\000"
 11178      4C30585F 
 11178      72657665 
ARM GAS  C:\Users\PCHAUT~1\AppData\Local\Temp\ccgoQRgJ.s 			page 200


 11178      7273655F 
 11178      62797465 
 11179              	.LASF255:
 11180 03a3 5369676E 		.ascii	"SignalRefClipLimitCheckEnable\000"
 11180      616C5265 
 11180      66436C69 
 11180      704C696D 
 11180      69744368 
 11181              	.LASF170:
 11182 03c1 5F726561 		.ascii	"_read\000"
 11182      6400
 11183              	.LASF410:
 11184 03c7 504C4C5F 		.ascii	"PLL_period_ps\000"
 11184      70657269 
 11184      6F645F70 
 11184      7300
 11185              	.LASF404:
 11186 03d5 656E636F 		.ascii	"encoded_timeout\000"
 11186      6465645F 
 11186      74696D65 
 11186      6F757400 
 11187              	.LASF138:
 11188 03e5 5F5F554C 		.ascii	"__ULong\000"
 11188      6F6E6700 
 11189              	.LASF393:
 11190 03ed 54696D65 		.ascii	"TimeoutMicroSeconds\000"
 11190      6F75744D 
 11190      6963726F 
 11190      5365636F 
 11190      6E647300 
 11191              	.LASF225:
 11192 0401 5F6D6272 		.ascii	"_mbrlen_state\000"
 11192      6C656E5F 
 11192      73746174 
 11192      6500
 11193              	.LASF396:
 11194 040f 74696D65 		.ascii	"timeout_period_mclks\000"
 11194      6F75745F 
 11194      70657269 
 11194      6F645F6D 
 11194      636C6B73 
 11195              	.LASF241:
 11196 0424 564C3533 		.ascii	"VL53L0X_Dev_t\000"
 11196      4C30585F 
 11196      4465765F 
 11196      7400
 11197              	.LASF329:
 11198 0432 7369676E 		.ascii	"signalLimitTmp\000"
 11198      616C4C69 
 11198      6D697454 
 11198      6D7000
 11199              	.LASF310:
 11200 0441 66696E61 		.ascii	"finalRangeVcselPCLKS\000"
 11200      6C52616E 
 11200      67655663 
 11200      73656C50 
 11200      434C4B53 
ARM GAS  C:\Users\PCHAUT~1\AppData\Local\Temp\ccgoQRgJ.s 			page 201


 11201              	.LASF50:
 11202 0456 57726170 		.ascii	"WrapAroundCheckEnable\000"
 11202      41726F75 
 11202      6E644368 
 11202      65636B45 
 11202      6E61626C 
 11203              	.LASF108:
 11204 046c 506F7765 		.ascii	"PowerMode\000"
 11204      724D6F64 
 11204      6500
 11205              	.LASF398:
 11206 0476 6D616372 		.ascii	"macro_period_ps\000"
 11206      6F5F7065 
 11206      72696F64 
 11206      5F707300 
 11207              	.LASF48:
 11208 0486 4C696D69 		.ascii	"LimitChecksStatus\000"
 11208      74436865 
 11208      636B7353 
 11208      74617475 
 11208      7300
 11209              	.LASF270:
 11210 0498 63416D62 		.ascii	"cAmbientEffectiveWidth_centi_ns\000"
 11210      69656E74 
 11210      45666665 
 11210      63746976 
 11210      65576964 
 11211              	.LASF59:
 11212 04b8 52616E67 		.ascii	"RangeDMaxMilliMeter\000"
 11212      65444D61 
 11212      784D696C 
 11212      6C694D65 
 11212      74657200 
 11213              	.LASF298:
 11214 04cc 73717231 		.ascii	"sqr1\000"
 11214      00
 11215              	.LASF299:
 11216 04d1 73717232 		.ascii	"sqr2\000"
 11216      00
 11217              	.LASF130:
 11218 04d6 5F66706F 		.ascii	"_fpos_t\000"
 11218      735F7400 
 11219              	.LASF236:
 11220 04de 5F696D70 		.ascii	"_impure_ptr\000"
 11220      7572655F 
 11220      70747200 
 11221              	.LASF161:
 11222 04ea 5F666E73 		.ascii	"_fns\000"
 11222      00
 11223              	.LASF89:
 11224 04ef 52657669 		.ascii	"Revision\000"
 11224      73696F6E 
 11224      00
 11225              	.LASF441:
 11226 04f8 433A5C55 		.ascii	"C:\\Users\\Pchautems\\Documents\\RobotiqueTP\\Proje"
 11226      73657273 
 11226      5C506368 
ARM GAS  C:\Users\PCHAUT~1\AppData\Local\Temp\ccgoQRgJ.s 			page 202


 11226      61757465 
 11226      6D735C44 
 11227 0526 745C6D69 		.ascii	"t\\miniprojet\000"
 11227      6E697072 
 11227      6F6A6574 
 11227      00
 11228              	.LASF420:
 11229 0533 5369676E 		.ascii	"SignalRateMeasFixed1104_400_mm\000"
 11229      616C5261 
 11229      74654D65 
 11229      61734669 
 11229      78656431 
 11230              	.LASF34:
 11231 0552 564C3533 		.ascii	"VL53L0X_DeviceInfo_t\000"
 11231      4C30585F 
 11231      44657669 
 11231      6365496E 
 11231      666F5F74 
 11232              	.LASF237:
 11233 0567 5F676C6F 		.ascii	"_global_impure_ptr\000"
 11233      62616C5F 
 11233      696D7075 
 11233      72655F70 
 11233      747200
 11234              	.LASF98:
 11235 057a 50617274 		.ascii	"Part2PartOffsetNVMMicroMeter\000"
 11235      32506172 
 11235      744F6666 
 11235      7365744E 
 11235      564D4D69 
 11236              	.LASF426:
 11237 0597 4C6F6F70 		.ascii	"LoopNb\000"
 11237      4E6200
 11238              	.LASF143:
 11239 059e 5F426967 		.ascii	"_Bigint\000"
 11239      696E7400 
 11240              	.LASF151:
 11241 05a6 5F5F746D 		.ascii	"__tm_wday\000"
 11241      5F776461 
 11241      7900
 11242              	.LASF283:
 11243 05b0 66696E61 		.ascii	"finalRangeIntegrationTimeMilliSecs\000"
 11243      6C52616E 
 11243      6765496E 
 11243      74656772 
 11243      6174696F 
 11244              	.LASF284:
 11245 05d3 7369676D 		.ascii	"sigmaEstimateP1\000"
 11245      61457374 
 11245      696D6174 
 11245      65503100 
 11246              	.LASF285:
 11247 05e3 7369676D 		.ascii	"sigmaEstimateP2\000"
 11247      61457374 
 11247      696D6174 
 11247      65503200 
 11248              	.LASF286:
ARM GAS  C:\Users\PCHAUT~1\AppData\Local\Temp\ccgoQRgJ.s 			page 203


 11249 05f3 7369676D 		.ascii	"sigmaEstimateP3\000"
 11249      61457374 
 11249      696D6174 
 11249      65503300 
 11250              	.LASF193:
 11251 0603 5F726573 		.ascii	"_result\000"
 11251      756C7400 
 11252              	.LASF24:
 11253 060b 46697850 		.ascii	"FixPoint1616_t\000"
 11253      6F696E74 
 11253      31363136 
 11253      5F7400
 11254              	.LASF96:
 11255 061a 564C3533 		.ascii	"VL53L0X_DeviceSpecificParameters_t\000"
 11255      4C30585F 
 11255      44657669 
 11255      63655370 
 11255      65636966 
 11256              	.LASF21:
 11257 063d 75696E74 		.ascii	"uint32_t\000"
 11257      33325F74 
 11257      00
 11258              	.LASF16:
 11259 0646 696E7438 		.ascii	"int8_t\000"
 11259      5F7400
 11260              	.LASF147:
 11261 064d 5F5F746D 		.ascii	"__tm_hour\000"
 11261      5F686F75 
 11261      7200
 11262              	.LASF360:
 11263 0657 4473734F 		.ascii	"DssOverheadMicroSeconds\000"
 11263      76657268 
 11263      6561644D 
 11263      6963726F 
 11263      5365636F 
 11264              	.LASF263:
 11265 066f 54656D70 		.ascii	"Temp8\000"
 11265      3800
 11266              	.LASF434:
 11267 0675 73697A65 		.ascii	"size\000"
 11267      00
 11268              	.LASF324:
 11269 067a 6D696E53 		.ascii	"minSignalNeeded_p2\000"
 11269      69676E61 
 11269      6C4E6565 
 11269      6465645F 
 11269      703200
 11270              	.LASF269:
 11271 068d 6350756C 		.ascii	"cPulseEffectiveWidth_centi_ns\000"
 11271      73654566 
 11271      66656374 
 11271      69766557 
 11271      69647468 
 11272              	.LASF134:
 11273 06ab 5F5F636F 		.ascii	"__count\000"
 11273      756E7400 
 11274              	.LASF253:
ARM GAS  C:\Users\PCHAUT~1\AppData\Local\Temp\ccgoQRgJ.s 			page 204


 11275 06b3 5369676D 		.ascii	"SigmaLimitCheckEnable\000"
 11275      614C696D 
 11275      69744368 
 11275      65636B45 
 11275      6E61626C 
 11276              	.LASF432:
 11277 06c9 4E657744 		.ascii	"NewDataReady\000"
 11277      61746152 
 11277      65616479 
 11277      00
 11278              	.LASF68:
 11279 06d6 48697374 		.ascii	"HistogramType\000"
 11279      6F677261 
 11279      6D547970 
 11279      6500
 11280              	.LASF376:
 11281 06e4 4D696E46 		.ascii	"MinFinalVcselPeriodPCLK\000"
 11281      696E616C 
 11281      56637365 
 11281      6C506572 
 11281      696F6450 
 11282              	.LASF276:
 11283 06fc 63544F46 		.ascii	"cTOF_per_mm_ps\000"
 11283      5F706572 
 11283      5F6D6D5F 
 11283      707300
 11284              	.LASF146:
 11285 070b 5F5F746D 		.ascii	"__tm_min\000"
 11285      5F6D696E 
 11285      00
 11286              	.LASF51:
 11287 0714 564C3533 		.ascii	"VL53L0X_DeviceParameters_t\000"
 11287      4C30585F 
 11287      44657669 
 11287      63655061 
 11287      72616D65 
 11288              	.LASF231:
 11289 072f 5F6E6578 		.ascii	"_nextf\000"
 11289      746600
 11290              	.LASF25:
 11291 0736 564C3533 		.ascii	"VL53L0X_DeviceError\000"
 11291      4C30585F 
 11291      44657669 
 11291      63654572 
 11291      726F7200 
 11292              	.LASF435:
 11293 074a 74656D70 		.ascii	"tempData\000"
 11293      44617461 
 11293      00
 11294              	.LASF110:
 11295 0753 74617267 		.ascii	"targetRefRate\000"
 11295      65745265 
 11295      66526174 
 11295      6500
 11296              	.LASF268:
 11297 0761 70446D61 		.ascii	"pDmax_mm\000"
 11297      785F6D6D 
ARM GAS  C:\Users\PCHAUT~1\AppData\Local\Temp\ccgoQRgJ.s 			page 205


 11297      00
 11298              	.LASF18:
 11299 076a 696E7431 		.ascii	"int16_t\000"
 11299      365F7400 
 11300              	.LASF208:
 11301 0772 5F72616E 		.ascii	"_rand48\000"
 11301      64343800 
 11302              	.LASF371:
 11303 077a 76637365 		.ascii	"vcsel_period_reg\000"
 11303      6C5F7065 
 11303      72696F64 
 11303      5F726567 
 11303      00
 11304              	.LASF32:
 11305 078b 50726F64 		.ascii	"ProductRevisionMinor\000"
 11305      75637452 
 11305      65766973 
 11305      696F6E4D 
 11305      696E6F72 
 11306              	.LASF194:
 11307 07a0 5F726573 		.ascii	"_result_k\000"
 11307      756C745F 
 11307      6B00
 11308              	.LASF99:
 11309 07aa 50617274 		.ascii	"Part2PartOffsetAdjustmentNVMMicroMeter\000"
 11309      32506172 
 11309      744F6666 
 11309      73657441 
 11309      646A7573 
 11310              	.LASF14:
 11311 07d1 6C6F6E67 		.ascii	"long long unsigned int\000"
 11311      206C6F6E 
 11311      6720756E 
 11311      7369676E 
 11311      65642069 
 11312              	.LASF53:
 11313 07e8 416D6254 		.ascii	"AmbTuningWindowFactor_K\000"
 11313      756E696E 
 11313      6757696E 
 11313      646F7746 
 11313      6163746F 
 11314              	.LASF214:
 11315 0800 5F617363 		.ascii	"_asctime_buf\000"
 11315      74696D65 
 11315      5F627566 
 11315      00
 11316              	.LASF165:
 11317 080d 5F5F7346 		.ascii	"__sFILE\000"
 11317      494C4500 
 11318              	.LASF142:
 11319 0815 5F776473 		.ascii	"_wds\000"
 11319      00
 11320              	.LASF281:
 11321 081a 66696E61 		.ascii	"finalRangeTimeoutMicroSecs\000"
 11321      6C52616E 
 11321      67655469 
 11321      6D656F75 
ARM GAS  C:\Users\PCHAUT~1\AppData\Local\Temp\ccgoQRgJ.s 			page 206


 11321      744D6963 
 11322              	.LASF346:
 11323 0835 53656C65 		.ascii	"SelectParam\000"
 11323      63745061 
 11323      72616D00 
 11324              	.LASF359:
 11325 0841 5463634F 		.ascii	"TccOverheadMicroSeconds\000"
 11325      76657268 
 11325      6561644D 
 11325      6963726F 
 11325      5365636F 
 11326              	.LASF314:
 11327 0859 70646D61 		.ascii	"pdmax_mm\000"
 11327      785F6D6D 
 11327      00
 11328              	.LASF77:
 11329 0862 4F736346 		.ascii	"OscFrequencyMHz\000"
 11329      72657175 
 11329      656E6379 
 11329      4D487A00 
 11330              	.LASF6:
 11331 0872 5F5F7569 		.ascii	"__uint16_t\000"
 11331      6E743136 
 11331      5F7400
 11332              	.LASF381:
 11333 087d 53657175 		.ascii	"SequenceStepId\000"
 11333      656E6365 
 11333      53746570 
 11333      496400
 11334              	.LASF301:
 11335 088c 73717274 		.ascii	"sqrtResult_centi_ns\000"
 11335      52657375 
 11335      6C745F63 
 11335      656E7469 
 11335      5F6E7300 
 11336              	.LASF204:
 11337 08a0 5F5F4649 		.ascii	"__FILE\000"
 11337      4C4500
 11338              	.LASF422:
 11339 08a7 5369676E 		.ascii	"SignalRateMeasFixed400mmFix\000"
 11339      616C5261 
 11339      74654D65 
 11339      61734669 
 11339      78656434 
 11340              	.LASF332:
 11341 08c3 646D6178 		.ascii	"dmaxAmbient\000"
 11341      416D6269 
 11341      656E7400 
 11342              	.LASF177:
 11343 08cf 5F6F6666 		.ascii	"_offset\000"
 11343      73657400 
 11344              	.LASF319:
 11345 08d7 63416D62 		.ascii	"cAmbEffWidthDMax_ns\000"
 11345      45666657 
 11345      69647468 
 11345      444D6178 
 11345      5F6E7300 
ARM GAS  C:\Users\PCHAUT~1\AppData\Local\Temp\ccgoQRgJ.s 			page 207


 11346              	.LASF74:
 11347 08eb 52656653 		.ascii	"RefSpadEnables\000"
 11347      70616445 
 11347      6E61626C 
 11347      657300
 11348              	.LASF27:
 11349 08fa 4E616D65 		.ascii	"Name\000"
 11349      00
 11350              	.LASF115:
 11351 08ff 55736549 		.ascii	"UseInternalTuningSettings\000"
 11351      6E746572 
 11351      6E616C54 
 11351      756E696E 
 11351      67536574 
 11352              	.LASF188:
 11353 0919 5F656D65 		.ascii	"_emergency\000"
 11353      7267656E 
 11353      637900
 11354              	.LASF436:
 11355 0924 6D697272 		.ascii	"mirrorIndex\000"
 11355      6F72496E 
 11355      64657800 
 11356              	.LASF116:
 11357 0930 4C696E65 		.ascii	"LinearityCorrectiveGain\000"
 11357      61726974 
 11357      79436F72 
 11357      72656374 
 11357      69766547 
 11358              	.LASF384:
 11359 0948 4D737263 		.ascii	"MsrcEncodedTimeOut\000"
 11359      456E636F 
 11359      64656454 
 11359      696D654F 
 11359      757400
 11360              	.LASF62:
 11361 095b 45666665 		.ascii	"EffectiveSpadRtnCount\000"
 11361      63746976 
 11361      65537061 
 11361      6452746E 
 11361      436F756E 
 11362              	.LASF400:
 11363 0971 61637475 		.ascii	"actual_timeout_period_us\000"
 11363      616C5F74 
 11363      696D656F 
 11363      75745F70 
 11363      6572696F 
 11364              	.LASF418:
 11365 098a 44697374 		.ascii	"DistMeasTgtFixed1104_mm\000"
 11365      4D656173 
 11365      54677446 
 11365      69786564 
 11365      31313034 
 11366              	.LASF104:
 11367 09a2 53706164 		.ascii	"SpadData\000"
 11367      44617461 
 11367      00
 11368              	.LASF42:
ARM GAS  C:\Users\PCHAUT~1\AppData\Local\Temp\ccgoQRgJ.s 			page 208


 11369 09ab 496E7465 		.ascii	"InterMeasurementPeriodMilliSeconds\000"
 11369      724D6561 
 11369      73757265 
 11369      6D656E74 
 11369      50657269 
 11370              	.LASF401:
 11371 09ce 564C3533 		.ascii	"VL53L0X_calc_timeout_mclks\000"
 11371      4C30585F 
 11371      63616C63 
 11371      5F74696D 
 11371      656F7574 
 11372              	.LASF90:
 11373 09e9 52656665 		.ascii	"ReferenceSpadCount\000"
 11373      72656E63 
 11373      65537061 
 11373      64436F75 
 11373      6E7400
 11374              	.LASF416:
 11375 09fc 4F666673 		.ascii	"OffsetFixed1104_mm\000"
 11375      65744669 
 11375      78656431 
 11375      3130345F 
 11375      6D6D00
 11376              	.LASF243:
 11377 0a0f 7375626F 		.ascii	"suboptarg\000"
 11377      70746172 
 11377      6700
 11378              	.LASF152:
 11379 0a19 5F5F746D 		.ascii	"__tm_yday\000"
 11379      5F796461 
 11379      7900
 11380              	.LASF187:
 11381 0a23 5F696E63 		.ascii	"_inc\000"
 11381      00
 11382              	.LASF160:
 11383 0a28 5F696E64 		.ascii	"_ind\000"
 11383      00
 11384              	.LASF88:
 11385 0a2d 4D6F6475 		.ascii	"ModuleId\000"
 11385      6C654964 
 11385      00
 11386              	.LASF67:
 11387 0a36 48697374 		.ascii	"HistogramData\000"
 11387      6F677261 
 11387      6D446174 
 11387      6100
 11388              	.LASF49:
 11389 0a44 4C696D69 		.ascii	"LimitChecksValue\000"
 11389      74436865 
 11389      636B7356 
 11389      616C7565 
 11389      00
 11390              	.LASF245:
 11391 0a55 5369676E 		.ascii	"SignalRate\000"
 11391      616C5261 
 11391      746500
 11392              	.LASF273:
ARM GAS  C:\Users\PCHAUT~1\AppData\Local\Temp\ccgoQRgJ.s 			page 209


 11393 0a60 63536967 		.ascii	"cSigmaEstMax\000"
 11393      6D614573 
 11393      744D6178 
 11393      00
 11394              	.LASF121:
 11395 0a6d 5463634F 		.ascii	"TccOn\000"
 11395      6E00
 11396              	.LASF424:
 11397 0a73 564C3533 		.ascii	"VL53L0X_device_read_strobe\000"
 11397      4C30585F 
 11397      64657669 
 11397      63655F72 
 11397      6561645F 
 11398              	.LASF227:
 11399 0a8e 5F6D6273 		.ascii	"_mbsrtowcs_state\000"
 11399      72746F77 
 11399      63735F73 
 11399      74617465 
 11399      00
 11400              	.LASF13:
 11401 0a9f 5F5F7569 		.ascii	"__uint64_t\000"
 11401      6E743634 
 11401      5F7400
 11402              	.LASF307:
 11403 0aaa 66696E61 		.ascii	"finalRangeMacroPCLKS\000"
 11403      6C52616E 
 11403      67654D61 
 11403      63726F50 
 11403      434C4B53 
 11404              	.LASF406:
 11405 0abf 564C3533 		.ascii	"VL53L0X_encode_timeout\000"
 11405      4C30585F 
 11405      656E636F 
 11405      64655F74 
 11405      696D656F 
 11406              	.LASF46:
 11407 0ad6 52616E67 		.ascii	"RangeOffsetMicroMeters\000"
 11407      654F6666 
 11407      7365744D 
 11407      6963726F 
 11407      4D657465 
 11408              	.LASF117:
 11409 0aed 446D6178 		.ascii	"DmaxCalRangeMilliMeter\000"
 11409      43616C52 
 11409      616E6765 
 11409      4D696C6C 
 11409      694D6574 
 11410              	.LASF302:
 11411 0b04 73717274 		.ascii	"sqrtResult\000"
 11411      52657375 
 11411      6C7400
 11412              	.LASF135:
 11413 0b0f 5F5F7661 		.ascii	"__value\000"
 11413      6C756500 
 11414              	.LASF383:
 11415 0b17 43757272 		.ascii	"CurrentVCSELPulsePeriodPClk\000"
 11415      656E7456 
ARM GAS  C:\Users\PCHAUT~1\AppData\Local\Temp\ccgoQRgJ.s 			page 210


 11415      4353454C 
 11415      50756C73 
 11415      65506572 
 11416              	.LASF85:
 11417 0b33 5369676D 		.ascii	"SigmaEstEffPulseWidth\000"
 11417      61457374 
 11417      45666650 
 11417      756C7365 
 11417      57696474 
 11418              	.LASF195:
 11419 0b49 5F703573 		.ascii	"_p5s\000"
 11419      00
 11420              	.LASF282:
 11421 0b4e 70726552 		.ascii	"preRangeTimeoutMicroSecs\000"
 11421      616E6765 
 11421      54696D65 
 11421      6F75744D 
 11421      6963726F 
 11422              	.LASF247:
 11423 0b67 7050616C 		.ascii	"pPalRangeStatus\000"
 11423      52616E67 
 11423      65537461 
 11423      74757300 
 11424              	.LASF109:
 11425 0b77 53746F70 		.ascii	"StopVariable\000"
 11425      56617269 
 11425      61626C65 
 11425      00
 11426              	.LASF97:
 11427 0b84 444D6178 		.ascii	"DMaxData\000"
 11427      44617461 
 11427      00
 11428              	.LASF57:
 11429 0b8d 4D656173 		.ascii	"MeasurementTimeUsec\000"
 11429      7572656D 
 11429      656E7454 
 11429      696D6555 
 11429      73656300 
 11430              	.LASF219:
 11431 0ba1 5F6D626C 		.ascii	"_mblen_state\000"
 11431      656E5F73 
 11431      74617465 
 11431      00
 11432              	.LASF355:
 11433 0bae 4D737263 		.ascii	"MsrcDccTccTimeoutMicroSeconds\000"
 11433      44636354 
 11433      63635469 
 11433      6D656F75 
 11433      744D6963 
 11434              	.LASF423:
 11435 0bcc 4E766D52 		.ascii	"NvmRefGoodSpadMap\000"
 11435      6566476F 
 11435      6F645370 
 11435      61644D61 
 11435      7000
 11436              	.LASF33:
 11437 0bde 63686172 		.ascii	"char\000"
ARM GAS  C:\Users\PCHAUT~1\AppData\Local\Temp\ccgoQRgJ.s 			page 211


 11437      00
 11438              	.LASF362:
 11439 0be3 46696E61 		.ascii	"FinalRangeOverheadMicroSeconds\000"
 11439      6C52616E 
 11439      67654F76 
 11439      65726865 
 11439      61644D69 
 11440              	.LASF148:
 11441 0c02 5F5F746D 		.ascii	"__tm_mday\000"
 11441      5F6D6461 
 11441      7900
 11442              	.LASF201:
 11443 0c0c 5F736967 		.ascii	"_sig_func\000"
 11443      5F66756E 
 11443      6300
 11444              	.LASF226:
 11445 0c16 5F6D6272 		.ascii	"_mbrtowc_state\000"
 11445      746F7763 
 11445      5F737461 
 11445      746500
 11446              	.LASF200:
 11447 0c25 5F617465 		.ascii	"_atexit0\000"
 11447      78697430 
 11447      00
 11448              	.LASF87:
 11449 0c2e 52656164 		.ascii	"ReadDataFromDeviceDone\000"
 11449      44617461 
 11449      46726F6D 
 11449      44657669 
 11449      6365446F 
 11450              	.LASF41:
 11451 0c45 4D656173 		.ascii	"MeasurementTimingBudgetMicroSeconds\000"
 11451      7572656D 
 11451      656E7454 
 11451      696D696E 
 11451      67427564 
 11452              	.LASF258:
 11453 0c69 5369676E 		.ascii	"SignalRefClipValue\000"
 11453      616C5265 
 11453      66436C69 
 11453      7056616C 
 11453      756500
 11454              	.LASF275:
 11455 0c7c 63416D62 		.ascii	"cAmbToSignalRatioMax\000"
 11455      546F5369 
 11455      676E616C 
 11455      52617469 
 11455      6F4D6178 
 11456              	.LASF101:
 11457 0c91 4C617374 		.ascii	"LastRangeMeasure\000"
 11457      52616E67 
 11457      654D6561 
 11457      73757265 
 11457      00
 11458              	.LASF293:
 11459 0ca2 7065616B 		.ascii	"peakSignalRate_kcps\000"
 11459      5369676E 
ARM GAS  C:\Users\PCHAUT~1\AppData\Local\Temp\ccgoQRgJ.s 			page 212


 11459      616C5261 
 11459      74655F6B 
 11459      63707300 
 11460              	.LASF261:
 11461 0cb6 44657669 		.ascii	"DeviceRangeStatusInternal\000"
 11461      63655261 
 11461      6E676553 
 11461      74617475 
 11461      73496E74 
 11462              	.LASF70:
 11463 0cd0 42756666 		.ascii	"BufferSize\000"
 11463      65725369 
 11463      7A6500
 11464              	.LASF322:
 11465 0cdb 6D696E53 		.ascii	"minSignalNeeded\000"
 11465      69676E61 
 11465      6C4E6565 
 11465      64656400 
 11466              	.LASF137:
 11467 0ceb 5F666C6F 		.ascii	"_flock_t\000"
 11467      636B5F74 
 11467      00
 11468              	.LASF421:
 11469 0cf4 50726F64 		.ascii	"ProductId_tmp\000"
 11469      75637449 
 11469      645F746D 
 11469      7000
 11470              	.LASF76:
 11471 0d02 564C3533 		.ascii	"VL53L0X_SpadData_t\000"
 11471      4C30585F 
 11471      53706164 
 11471      44617461 
 11471      5F7400
 11472              	.LASF341:
 11473 0d15 7874616C 		.ascii	"xtalkCompEnable\000"
 11473      6B436F6D 
 11473      70456E61 
 11473      626C6500 
 11474              	.LASF303:
 11475 0d25 746F7461 		.ascii	"totalSignalRate_mcps\000"
 11475      6C536967 
 11475      6E616C52 
 11475      6174655F 
 11475      6D637073 
 11476              	.LASF132:
 11477 0d3a 5F5F7763 		.ascii	"__wch\000"
 11477      6800
 11478              	.LASF207:
 11479 0d40 5F696F62 		.ascii	"_iobs\000"
 11479      7300
 11480              	.LASF17:
 11481 0d46 75696E74 		.ascii	"uint8_t\000"
 11481      385F7400 
 11482              	.LASF246:
 11483 0d4e 7052616E 		.ascii	"pRangingMeasurementData\000"
 11483      67696E67 
 11483      4D656173 
ARM GAS  C:\Users\PCHAUT~1\AppData\Local\Temp\ccgoQRgJ.s 			page 213


 11483      7572656D 
 11483      656E7444 
 11484              	.LASF26:
 11485 0d66 564C3533 		.ascii	"VL53L0X_GpioFunctionality\000"
 11485      4C30585F 
 11485      4770696F 
 11485      46756E63 
 11485      74696F6E 
 11486              	.LASF173:
 11487 0d80 5F636C6F 		.ascii	"_close\000"
 11487      736500
 11488              	.LASF191:
 11489 0d87 5F5F7364 		.ascii	"__sdidinit\000"
 11489      6964696E 
 11489      697400
 11490              	.LASF365:
 11491 0d92 46696E61 		.ascii	"FinalRangeTimingBudgetMicroSeconds\000"
 11491      6C52616E 
 11491      67655469 
 11491      6D696E67 
 11491      42756467 
 11492              	.LASF28:
 11493 0db5 54797065 		.ascii	"Type\000"
 11493      00
 11494              	.LASF278:
 11495 0dba 634D6178 		.ascii	"cMaxXTalk_kcps\000"
 11495      5854616C 
 11495      6B5F6B63 
 11495      707300
 11496              	.LASF254:
 11497 0dc9 5369676E 		.ascii	"SignalRateFinalRangeLimitCheckEnable\000"
 11497      616C5261 
 11497      74654669 
 11497      6E616C52 
 11497      616E6765 
 11498              	.LASF37:
 11499 0dee 564C3533 		.ascii	"VL53L0X_HistogramModes\000"
 11499      4C30585F 
 11499      48697374 
 11499      6F677261 
 11499      6D4D6F64 
 11500              	.LASF184:
 11501 0e05 5F737464 		.ascii	"_stdin\000"
 11501      696E00
 11502              	.LASF216:
 11503 0e0c 5F67616D 		.ascii	"_gamma_signgam\000"
 11503      6D615F73 
 11503      69676E67 
 11503      616D00
 11504              	.LASF65:
 11505 0e1b 52616E67 		.ascii	"RangeStatus\000"
 11505      65537461 
 11505      74757300 
 11506              	.LASF69:
 11507 0e27 46697273 		.ascii	"FirstBin\000"
 11507      7442696E 
 11507      00
ARM GAS  C:\Users\PCHAUT~1\AppData\Local\Temp\ccgoQRgJ.s 			page 214


 11508              	.LASF12:
 11509 0e30 6C6F6E67 		.ascii	"long long int\000"
 11509      206C6F6E 
 11509      6720696E 
 11509      7400
 11510              	.LASF375:
 11511 0e3e 4D617850 		.ascii	"MaxPreVcselPeriodPCLK\000"
 11511      72655663 
 11511      73656C50 
 11511      6572696F 
 11511      6450434C 
 11512              	.LASF124:
 11513 0e54 50726552 		.ascii	"PreRangeOn\000"
 11513      616E6765 
 11513      4F6E00
 11514              	.LASF36:
 11515 0e5f 564C3533 		.ascii	"VL53L0X_DeviceModes\000"
 11515      4C30585F 
 11515      44657669 
 11515      63654D6F 
 11515      64657300 
 11516              	.LASF163:
 11517 0e73 5F626173 		.ascii	"_base\000"
 11517      6500
 11518              	.LASF196:
 11519 0e79 5F667265 		.ascii	"_freelist\000"
 11519      656C6973 
 11519      7400
 11520              	.LASF347:
 11521 0e83 4E756D62 		.ascii	"NumberOfWrites\000"
 11521      65724F66 
 11521      57726974 
 11521      657300
 11522              	.LASF210:
 11523 0e92 5F6D756C 		.ascii	"_mult\000"
 11523      7400
 11524              	.LASF123:
 11525 0e98 4473734F 		.ascii	"DssOn\000"
 11525      6E00
 11526              	.LASF92:
 11527 0e9e 52656653 		.ascii	"RefSpadsInitialised\000"
 11527      70616473 
 11527      496E6974 
 11527      69616C69 
 11527      73656400 
 11528              	.LASF125:
 11529 0eb2 46696E61 		.ascii	"FinalRangeOn\000"
 11529      6C52616E 
 11529      67654F6E 
 11529      00
 11530              	.LASF349:
 11531 0ebf 6C6F6361 		.ascii	"localBuffer\000"
 11531      6C427566 
 11531      66657200 
 11532              	.LASF228:
 11533 0ecb 5F776372 		.ascii	"_wcrtomb_state\000"
 11533      746F6D62 
ARM GAS  C:\Users\PCHAUT~1\AppData\Local\Temp\ccgoQRgJ.s 			page 215


 11533      5F737461 
 11533      746500
 11534              	.LASF266:
 11535 0eda 564C3533 		.ascii	"VL53L0X_calc_sigma_estimate\000"
 11535      4C30585F 
 11535      63616C63 
 11535      5F736967 
 11535      6D615F65 
 11536              	.LASF427:
 11537 0ef6 564C3533 		.ascii	"VL53L0X_quadrature_sum\000"
 11537      4C30585F 
 11537      71756164 
 11537      72617475 
 11537      72655F73 
 11538              	.LASF167:
 11539 0f0d 5F66696C 		.ascii	"_file\000"
 11539      6500
 11540              	.LASF4:
 11541 0f13 5F5F696E 		.ascii	"__int16_t\000"
 11541      7431365F 
 11541      7400
 11542              	.LASF353:
 11543 0f1d 53636865 		.ascii	"SchedulerSequenceSteps\000"
 11543      64756C65 
 11543      72536571 
 11543      75656E63 
 11543      65537465 
 11544              	.LASF300:
 11545 0f34 73717253 		.ascii	"sqrSum\000"
 11545      756D00
 11546              	.LASF271:
 11547 0f3b 6344666C 		.ascii	"cDfltFinalRangeIntegrationTimeMilliSecs\000"
 11547      7446696E 
 11547      616C5261 
 11547      6E676549 
 11547      6E746567 
 11548              	.LASF192:
 11549 0f63 5F5F636C 		.ascii	"__cleanup\000"
 11549      65616E75 
 11549      7000
 11550              	.LASF351:
 11551 0f6d 564C3533 		.ascii	"VL53L0X_get_measurement_timing_budget_micro_seconds"
 11551      4C30585F 
 11551      6765745F 
 11551      6D656173 
 11551      7572656D 
 11552 0fa0 00       		.ascii	"\000"
 11553              	.LASF437:
 11554 0fa1 6D696464 		.ascii	"middle\000"
 11554      6C6500
 11555              	.LASF136:
 11556 0fa8 5F6D6273 		.ascii	"_mbstate_t\000"
 11556      74617465 
 11556      5F7400
 11557              	.LASF394:
 11558 0fb3 4D737263 		.ascii	"MsrcTimeOutMClks\000"
 11558      54696D65 
ARM GAS  C:\Users\PCHAUT~1\AppData\Local\Temp\ccgoQRgJ.s 			page 216


 11558      4F75744D 
 11558      436C6B73 
 11558      00
 11559              	.LASF54:
 11560 0fc4 52657453 		.ascii	"RetSignalAt0mm\000"
 11560      69676E61 
 11560      6C417430 
 11560      6D6D00
 11561              	.LASF153:
 11562 0fd3 5F5F746D 		.ascii	"__tm_isdst\000"
 11562      5F697364 
 11562      737400
 11563              	.LASF229:
 11564 0fde 5F776373 		.ascii	"_wcsrtombs_state\000"
 11564      72746F6D 
 11564      62735F73 
 11564      74617465 
 11564      00
 11565              	.LASF317:
 11566 0fef 63536967 		.ascii	"cSigmaEstRef\000"
 11566      6D614573 
 11566      74526566 
 11566      00
 11567              	.LASF361:
 11568 0ffc 50726552 		.ascii	"PreRangeOverheadMicroSeconds\000"
 11568      616E6765 
 11568      4F766572 
 11568      68656164 
 11568      4D696372 
 11569              	.LASF428:
 11570 1019 564C3533 		.ascii	"VL53L0X_isqrt\000"
 11570      4C30585F 
 11570      69737172 
 11570      7400
 11571              	.LASF230:
 11572 1027 5F685F65 		.ascii	"_h_errno\000"
 11572      72726E6F 
 11572      00
 11573              	.LASF308:
 11574 1030 70726552 		.ascii	"preRangeMacroPCLKS\000"
 11574      616E6765 
 11574      4D616372 
 11574      6F50434C 
 11574      4B5300
 11575              	.LASF373:
 11576 1043 56435345 		.ascii	"VCSELPulsePeriodPCLK\000"
 11576      4C50756C 
 11576      73655065 
 11576      72696F64 
 11576      50434C4B 
 11577              	.LASF417:
 11578 1058 4F666673 		.ascii	"OffsetMicroMeters\000"
 11578      65744D69 
 11578      63726F4D 
 11578      65746572 
 11578      7300
 11579              	.LASF52:
ARM GAS  C:\Users\PCHAUT~1\AppData\Local\Temp\ccgoQRgJ.s 			page 217


 11580 106a 564C3533 		.ascii	"VL53L0X_State\000"
 11580      4C30585F 
 11580      53746174 
 11580      6500
 11581              	.LASF367:
 11582 1078 53756254 		.ascii	"SubTimeout\000"
 11582      696D656F 
 11582      757400
 11583              	.LASF425:
 11584 1083 7374726F 		.ascii	"strobe\000"
 11584      626500
 11585              	.LASF55:
 11586 108a 564C3533 		.ascii	"VL53L0X_DMaxData_t\000"
 11586      4C30585F 
 11586      444D6178 
 11586      44617461 
 11586      5F7400
 11587              	.LASF0:
 11588 109d 5F5F696E 		.ascii	"__int8_t\000"
 11588      74385F74 
 11588      00
 11589              	.LASF126:
 11590 10a6 564C3533 		.ascii	"VL53L0X_SchedulerSequenceSteps_t\000"
 11590      4C30585F 
 11590      53636865 
 11590      64756C65 
 11590      72536571 
 11591              	.LASF397:
 11592 10c7 76637365 		.ascii	"vcsel_period_pclks\000"
 11592      6C5F7065 
 11592      72696F64 
 11592      5F70636C 
 11592      6B7300
 11593              	.LASF433:
 11594 10da 64617461 		.ascii	"data\000"
 11594      00
 11595              	.LASF287:
 11596 10df 64656C74 		.ascii	"deltaT_ps\000"
 11596      61545F70 
 11596      7300
 11597              	.LASF149:
 11598 10e9 5F5F746D 		.ascii	"__tm_mon\000"
 11598      5F6D6F6E 
 11598      00
 11599              	.LASF39:
 11600 10f2 44657669 		.ascii	"DeviceMode\000"
 11600      63654D6F 
 11600      646500
 11601              	.LASF339:
 11602 10fd 564C3533 		.ascii	"VL53L0X_get_total_xtalk_rate\000"
 11602      4C30585F 
 11602      6765745F 
 11602      746F7461 
 11602      6C5F7874 
 11603              	.LASF45:
 11604 111a 5854616C 		.ascii	"XTalkCompensationRateMegaCps\000"
 11604      6B436F6D 
ARM GAS  C:\Users\PCHAUT~1\AppData\Local\Temp\ccgoQRgJ.s 			page 218


 11604      70656E73 
 11604      6174696F 
 11604      6E526174 
 11605              	.LASF127:
 11606 1137 564C3533 		.ascii	"VL53L0X_SequenceStepId\000"
 11606      4C30585F 
 11606      53657175 
 11606      656E6365 
 11606      53746570 
 11607              	.LASF23:
 11608 114e 6C6F6E67 		.ascii	"long double\000"
 11608      20646F75 
 11608      626C6500 
 11609              	.LASF312:
 11610 115a 564C3533 		.ascii	"VL53L0X_calc_dmax\000"
 11610      4C30585F 
 11610      63616C63 
 11610      5F646D61 
 11610      7800
 11611              	.LASF128:
 11612 116c 5F4C4F43 		.ascii	"_LOCK_T\000"
 11612      4B5F5400 
 11613              	.LASF19:
 11614 1174 75696E74 		.ascii	"uint16_t\000"
 11614      31365F74 
 11614      00
 11615              	.LASF66:
 11616 117d 564C3533 		.ascii	"VL53L0X_RangingMeasurementData_t\000"
 11616      4C30585F 
 11616      52616E67 
 11616      696E674D 
 11616      65617375 
 11617              	.LASF171:
 11618 119e 5F777269 		.ascii	"_write\000"
 11618      746500
 11619              	.LASF304:
 11620 11a5 636F7272 		.ascii	"correctedSignalRate_mcps\000"
 11620      65637465 
 11620      64536967 
 11620      6E616C52 
 11620      6174655F 
 11621              	.LASF251:
 11622 11be 5369676E 		.ascii	"SignalRefClipflag\000"
 11622      616C5265 
 11622      66436C69 
 11622      70666C61 
 11622      6700
 11623              	.LASF429:
 11624 11d0 564C3533 		.ascii	"VL53L0X_encode_vcsel_period\000"
 11624      4C30585F 
 11624      656E636F 
 11624      64655F76 
 11624      6373656C 
 11625              	.LASF378:
 11626 11ec 4D737263 		.ascii	"MsrcTimeoutMicroSeconds\000"
 11626      54696D65 
 11626      6F75744D 
ARM GAS  C:\Users\PCHAUT~1\AppData\Local\Temp\ccgoQRgJ.s 			page 219


 11626      6963726F 
 11626      5365636F 
 11627              	.LASF412:
 11628 1204 564C3533 		.ascii	"VL53L0X_get_info_from_device\000"
 11628      4C30585F 
 11628      6765745F 
 11628      696E666F 
 11628      5F66726F 
 11629              	.LASF358:
 11630 1221 4D737263 		.ascii	"MsrcOverheadMicroSeconds\000"
 11630      4F766572 
 11630      68656164 
 11630      4D696372 
 11630      6F536563 
 11631              	.LASF407:
 11632 123a 6C735F62 		.ascii	"ls_byte\000"
 11632      79746500 
 11633              	.LASF105:
 11634 1242 53657175 		.ascii	"SequenceConfig\000"
 11634      656E6365 
 11634      436F6E66 
 11634      696700
 11635              	.LASF159:
 11636 1251 5F617465 		.ascii	"_atexit\000"
 11636      78697400 
 11637              	.LASF182:
 11638 1259 5F726565 		.ascii	"_reent\000"
 11638      6E7400
 11639              	.LASF259:
 11640 1260 52616E67 		.ascii	"RangeIgnoreThresholdValue\000"
 11640      6549676E 
 11640      6F726554 
 11640      68726573 
 11640      686F6C64 
 11641              	.LASF296:
 11642 127a 64696666 		.ascii	"diff1_mcps\000"
 11642      315F6D63 
 11642      707300
 11643              	.LASF257:
 11644 1285 5369676D 		.ascii	"SigmaLimitValue\000"
 11644      614C696D 
 11644      69745661 
 11644      6C756500 
 11645              	.LASF431:
 11646 1295 564C3533 		.ascii	"VL53L0X_measurement_poll_for_completion\000"
 11646      4C30585F 
 11646      6D656173 
 11646      7572656D 
 11646      656E745F 
 11647              	.LASF274:
 11648 12bd 63536967 		.ascii	"cSigmaEstRtnMax\000"
 11648      6D614573 
 11648      7452746E 
 11648      4D617800 
 11649              	.LASF333:
 11650 12cd 646D6178 		.ascii	"dmaxDarkTmp\000"
 11650      4461726B 
ARM GAS  C:\Users\PCHAUT~1\AppData\Local\Temp\ccgoQRgJ.s 			page 220


 11650      546D7000 
 11651              	.LASF5:
 11652 12d9 73686F72 		.ascii	"short int\000"
 11652      7420696E 
 11652      7400
 11653              	.LASF320:
 11654 12e3 646D6178 		.ascii	"dmaxCalRange_mm\000"
 11654      43616C52 
 11654      616E6765 
 11654      5F6D6D00 
 11655              	.LASF292:
 11656 12f3 616D6269 		.ascii	"ambientRate_kcps\000"
 11656      656E7452 
 11656      6174655F 
 11656      6B637073 
 11656      00
 11657              	.LASF370:
 11658 1304 70564353 		.ascii	"pVCSELPulsePeriodPCLK\000"
 11658      454C5075 
 11658      6C736550 
 11658      6572696F 
 11658      6450434C 
 11659              	.LASF9:
 11660 131a 6C6F6E67 		.ascii	"long int\000"
 11660      20696E74 
 11660      00
 11661              	.LASF411:
 11662 1323 6D616372 		.ascii	"macro_period_vclks\000"
 11662      6F5F7065 
 11662      72696F64 
 11662      5F76636C 
 11662      6B7300
 11663              	.LASF93:
 11664 1336 50617274 		.ascii	"PartUIDUpper\000"
 11664      55494455 
 11664      70706572 
 11664      00
 11665              	.LASF112:
 11666 1343 5369676E 		.ascii	"SignalEstimate\000"
 11666      616C4573 
 11666      74696D61 
 11666      746500
 11667              	.LASF392:
 11668 1352 456E636F 		.ascii	"EncodedTimeOutByte\000"
 11668      64656454 
 11668      696D654F 
 11668      75744279 
 11668      746500
 11669              	.LASF386:
 11670 1365 50726552 		.ascii	"PreRangeTimeOutMClks\000"
 11670      616E6765 
 11670      54696D65 
 11670      4F75744D 
 11670      436C6B73 
 11671              	.LASF240:
 11672 137a 49326344 		.ascii	"I2cDevAddr\000"
 11672      65764164 
ARM GAS  C:\Users\PCHAUT~1\AppData\Local\Temp\ccgoQRgJ.s 			page 221


 11672      647200
 11673              	.LASF203:
 11674 1385 5F5F7366 		.ascii	"__sf\000"
 11674      00
 11675              	.LASF141:
 11676 138a 5F736967 		.ascii	"_sign\000"
 11676      6E00
 11677              	.LASF306:
 11678 1390 76637365 		.ascii	"vcselWidth\000"
 11678      6C576964 
 11678      746800
 11679              	.LASF415:
 11680 139b 546D7044 		.ascii	"TmpDWord\000"
 11680      576F7264 
 11680      00
 11681              	.LASF277:
 11682 13a4 63313642 		.ascii	"c16BitRoundingParam\000"
 11682      6974526F 
 11682      756E6469 
 11682      6E675061 
 11682      72616D00 
 11683              	.LASF352:
 11684 13b8 704D6561 		.ascii	"pMeasurementTimingBudgetMicroSeconds\000"
 11684      73757265 
 11684      6D656E74 
 11684      54696D69 
 11684      6E674275 
 11685              	.LASF178:
 11686 13dd 5F646174 		.ascii	"_data\000"
 11686      6100
 11687              	.LASF113:
 11688 13e3 4C617374 		.ascii	"LastSignalRefMcps\000"
 11688      5369676E 
 11688      616C5265 
 11688      664D6370 
 11688      7300
 11689              	.LASF133:
 11690 13f5 5F5F7763 		.ascii	"__wchb\000"
 11690      686200
 11691              	.LASF22:
 11692 13fc 75696E74 		.ascii	"uint64_t\000"
 11692      36345F74 
 11692      00
 11693              	.LASF316:
 11694 1405 63536967 		.ascii	"cSignalLimit\000"
 11694      6E616C4C 
 11694      696D6974 
 11694      00
 11695              	.LASF80:
 11696 1412 46696E61 		.ascii	"FinalRangeTimeoutMicroSecs\000"
 11696      6C52616E 
 11696      67655469 
 11696      6D656F75 
 11696      744D6963 
 11697              	.LASF440:
 11698 142d 2E2E2F6C 		.ascii	"../lib/e-puck2_main-processor/src/sensors/VL53L0X/A"
 11698      69622F65 
ARM GAS  C:\Users\PCHAUT~1\AppData\Local\Temp\ccgoQRgJ.s 			page 222


 11698      2D707563 
 11698      6B325F6D 
 11698      61696E2D 
 11699 1460 70692F63 		.ascii	"pi/core/src/vl53l0x_api_core.c\000"
 11699      6F72652F 
 11699      7372632F 
 11699      766C3533 
 11699      6C30785F 
 11700              	.LASF150:
 11701 147f 5F5F746D 		.ascii	"__tm_year\000"
 11701      5F796561 
 11701      7200
 11702              	.LASF63:
 11703 1489 5A6F6E65 		.ascii	"ZoneId\000"
 11703      496400
 11704              	.LASF366:
 11705 1490 634D696E 		.ascii	"cMinTimingBudgetMicroSeconds\000"
 11705      54696D69 
 11705      6E674275 
 11705      64676574 
 11705      4D696372 
 11706              	.LASF419:
 11707 14ad 44697374 		.ascii	"DistMeasFixed1104_400_mm\000"
 11707      4D656173 
 11707      46697865 
 11707      64313130 
 11707      345F3430 
 11708              	.LASF363:
 11709 14c6 50726552 		.ascii	"PreRangeTimeoutMicroSeconds\000"
 11709      616E6765 
 11709      54696D65 
 11709      6F75744D 
 11709      6963726F 
 11710              	.LASF318:
 11711 14e2 63416D62 		.ascii	"cAmbEffWidthSigmaEst_ns\000"
 11711      45666657 
 11711      69647468 
 11711      5369676D 
 11711      61457374 
 11712              	.LASF215:
 11713 14fa 5F6C6F63 		.ascii	"_localtime_buf\000"
 11713      616C7469 
 11713      6D655F62 
 11713      756600
 11714              	.LASF265:
 11715 1509 564C3533 		.ascii	"VL53L0X_get_pal_range_status\000"
 11715      4C30585F 
 11715      6765745F 
 11715      70616C5F 
 11715      72616E67 
 11716              	.LASF233:
 11717 1526 5F756E75 		.ascii	"_unused\000"
 11717      73656400 
 11718              	.LASF1:
 11719 152e 5F5F7569 		.ascii	"__uint8_t\000"
 11719      6E74385F 
 11719      7400
ARM GAS  C:\Users\PCHAUT~1\AppData\Local\Temp\ccgoQRgJ.s 			page 223


 11720              	.LASF199:
 11721 1538 5F6E6577 		.ascii	"_new\000"
 11721      00
 11722              	.LASF369:
 11723 153d 56637365 		.ascii	"VcselPeriodType\000"
 11723      6C506572 
 11723      696F6454 
 11723      79706500 
 11724              	.LASF197:
 11725 154d 5F637674 		.ascii	"_cvtlen\000"
 11725      6C656E00 
 11726              	.LASF75:
 11727 1555 52656647 		.ascii	"RefGoodSpadMap\000"
 11727      6F6F6453 
 11727      7061644D 
 11727      617000
 11728              	.LASF222:
 11729 1564 5F6C3634 		.ascii	"_l64a_buf\000"
 11729      615F6275 
 11729      6600
 11730              	.LASF35:
 11731 156e 564C3533 		.ascii	"VL53L0X_Error\000"
 11731      4C30585F 
 11731      4572726F 
 11731      7200
 11732              	.LASF356:
 11733 157c 53746172 		.ascii	"StartOverheadMicroSeconds\000"
 11733      744F7665 
 11733      72686561 
 11733      644D6963 
 11733      726F5365 
 11734              	.LASF402:
 11735 1596 74696D65 		.ascii	"timeout_period_us\000"
 11735      6F75745F 
 11735      70657269 
 11735      6F645F75 
 11735      7300
 11736              	.LASF297:
 11737 15a8 64696666 		.ascii	"diff2_mcps\000"
 11737      325F6D63 
 11737      707300
 11738              	.LASF350:
 11739 15b3 54656D70 		.ascii	"Temp16\000"
 11739      313600
 11740              	.LASF377:
 11741 15ba 4D617846 		.ascii	"MaxFinalVcselPeriodPCLK\000"
 11741      696E616C 
 11741      56637365 
 11741      6C506572 
 11741      696F6450 
 11742              	.LASF315:
 11743 15d2 63536967 		.ascii	"cSigmaLimit\000"
 11743      6D614C69 
 11743      6D697400 
 11744              	.LASF374:
 11745 15de 4D696E50 		.ascii	"MinPreVcselPeriodPCLK\000"
 11745      72655663 
ARM GAS  C:\Users\PCHAUT~1\AppData\Local\Temp\ccgoQRgJ.s 			page 224


 11745      73656C50 
 11745      6572696F 
 11745      6450434C 
 11746              	.LASF176:
 11747 15f4 5F626C6B 		.ascii	"_blksize\000"
 11747      73697A65 
 11747      00
 11748              	.LASF144:
 11749 15fd 5F5F746D 		.ascii	"__tm\000"
 11749      00
 11750              	.LASF391:
 11751 1602 7054696D 		.ascii	"pTimeOutMicroSecs\000"
 11751      654F7574 
 11751      4D696372 
 11751      6F536563 
 11751      7300
 11752              	.LASF179:
 11753 1614 5F6C6F63 		.ascii	"_lock\000"
 11753      6B00
 11754              	.LASF256:
 11755 161a 52616E67 		.ascii	"RangeIgnoreThresholdLimitCheckEnable\000"
 11755      6549676E 
 11755      6F726554 
 11755      68726573 
 11755      686F6C64 
 11756              	.LASF309:
 11757 163f 7065616B 		.ascii	"peakVcselDuration_us\000"
 11757      56637365 
 11757      6C447572 
 11757      6174696F 
 11757      6E5F7573 
 11758              	.LASF100:
 11759 1654 43757272 		.ascii	"CurrentParameters\000"
 11759      656E7450 
 11759      6172616D 
 11759      65746572 
 11759      7300
 11760              	.LASF11:
 11761 1666 6C6F6E67 		.ascii	"long unsigned int\000"
 11761      20756E73 
 11761      69676E65 
 11761      6420696E 
 11761      7400
 11762              	.LASF439:
 11763 1678 474E5520 		.ascii	"GNU C11 7.2.1 20170904 (release) [ARM/embedded-7-br"
 11763      43313120 
 11763      372E322E 
 11763      31203230 
 11763      31373039 
 11764 16ab 616E6368 		.ascii	"anch revision 255204] -mcpu=cortex-m4 -mfloat-abi=h"
 11764      20726576 
 11764      6973696F 
 11764      6E203235 
 11764      35323034 
 11765 16de 61726420 		.ascii	"ard -mfpu=fpv4-sp-d16 -mno-thumb-interwork -mthumb "
 11765      2D6D6670 
 11765      753D6670 
ARM GAS  C:\Users\PCHAUT~1\AppData\Local\Temp\ccgoQRgJ.s 			page 225


 11765      76342D73 
 11765      702D6431 
 11766 1711 2D676764 		.ascii	"-ggdb -O0 -fomit-frame-pointer -falign-functions=16"
 11766      62202D4F 
 11766      30202D66 
 11766      6F6D6974 
 11766      2D667261 
 11767 1744 202D666E 		.ascii	" -fno-strict-aliasing -fstack-protector-all -ffunct"
 11767      6F2D7374 
 11767      72696374 
 11767      2D616C69 
 11767      6173696E 
 11768 1777 696F6E2D 		.ascii	"ion-sections -fdata-sections -fno-common -fsingle-p"
 11768      73656374 
 11768      696F6E73 
 11768      202D6664 
 11768      6174612D 
 11769 17aa 72656369 		.ascii	"recision-constant\000"
 11769      73696F6E 
 11769      2D636F6E 
 11769      7374616E 
 11769      7400
 11770              	.LASF103:
 11771 17bc 44657669 		.ascii	"DeviceSpecificParameters\000"
 11771      63655370 
 11771      65636966 
 11771      69635061 
 11771      72616D65 
 11772              	.LASF206:
 11773 17d5 5F6E696F 		.ascii	"_niobs\000"
 11773      627300
 11774              	.LASF131:
 11775 17dc 77696E74 		.ascii	"wint_t\000"
 11775      5F7400
 11776              	.LASF114:
 11777 17e3 7054756E 		.ascii	"pTuningSettingsPointer\000"
 11777      696E6753 
 11777      65747469 
 11777      6E677350 
 11777      6F696E74 
 11778              	.LASF264:
 11779 17fa 446D6178 		.ascii	"Dmax_mm\000"
 11779      5F6D6D00 
 11780              	.LASF334:
 11781 1802 7369676D 		.ascii	"sigmaEstP2Tmp\000"
 11781      61457374 
 11781      5032546D 
 11781      7000
 11782              	.LASF20:
 11783 1810 696E7433 		.ascii	"int32_t\000"
 11783      325F7400 
 11784              	.LASF321:
 11785 1818 646D6178 		.ascii	"dmaxCalSignalRateRtn_mcps\000"
 11785      43616C53 
 11785      69676E61 
 11785      6C526174 
 11785      6552746E 
ARM GAS  C:\Users\PCHAUT~1\AppData\Local\Temp\ccgoQRgJ.s 			page 226


 11786              	.LASF156:
 11787 1832 5F64736F 		.ascii	"_dso_handle\000"
 11787      5F68616E 
 11787      646C6500 
 11788              	.LASF290:
 11789 183e 7369676D 		.ascii	"sigmaEstimate\000"
 11789      61457374 
 11789      696D6174 
 11789      6500
 11790              	.LASF234:
 11791 184c 5F5F6C6F 		.ascii	"__lock\000"
 11791      636B00
 11792              	.LASF345:
 11793 1853 496E6465 		.ascii	"Index\000"
 11793      7800
 11794              	.LASF289:
 11795 1859 7369676D 		.ascii	"sigmaEstRtn\000"
 11795      61457374 
 11795      52746E00 
 11796              	.LASF86:
 11797 1865 5369676D 		.ascii	"SigmaEstEffAmbWidth\000"
 11797      61457374 
 11797      45666641 
 11797      6D625769 
 11797      64746800 
 11798              	.LASF305:
 11799 1879 7369676D 		.ascii	"sigmaEstRef\000"
 11799      61457374 
 11799      52656600 
 11800              	.LASF185:
 11801 1885 5F737464 		.ascii	"_stdout\000"
 11801      6F757400 
 11802              	.LASF198:
 11803 188d 5F637674 		.ascii	"_cvtbuf\000"
 11803      62756600 
 11804              	.LASF3:
 11805 1895 756E7369 		.ascii	"unsigned char\000"
 11805      676E6564 
 11805      20636861 
 11805      7200
 11806              	.LASF71:
 11807 18a3 4E756D62 		.ascii	"NumberOfBins\000"
 11807      65724F66 
 11807      42696E73 
 11807      00
 11808              	.LASF82:
 11809 18b0 50726552 		.ascii	"PreRangeTimeoutMicroSecs\000"
 11809      616E6765 
 11809      54696D65 
 11809      6F75744D 
 11809      6963726F 
 11810              	.LASF413:
 11811 18c9 6F707469 		.ascii	"option\000"
 11811      6F6E00
 11812              	.LASF10:
 11813 18d0 5F5F7569 		.ascii	"__uint32_t\000"
 11813      6E743332 
ARM GAS  C:\Users\PCHAUT~1\AppData\Local\Temp\ccgoQRgJ.s 			page 227


 11813      5F7400
 11814              	.LASF118:
 11815 18db 446D6178 		.ascii	"DmaxCalSignalRateRtnMegaCps\000"
 11815      43616C53 
 11815      69676E61 
 11815      6C526174 
 11815      6552746E 
 11816              	.LASF81:
 11817 18f7 46696E61 		.ascii	"FinalRangeVcselPulsePeriod\000"
 11817      6C52616E 
 11817      67655663 
 11817      73656C50 
 11817      756C7365 
 11818              	.LASF224:
 11819 1912 5F676574 		.ascii	"_getdate_err\000"
 11819      64617465 
 11819      5F657272 
 11819      00
 11820              	.LASF168:
 11821 191f 5F6C6266 		.ascii	"_lbfsize\000"
 11821      73697A65 
 11821      00
 11822              	.LASF342:
 11823 1928 7874616C 		.ascii	"xtalkPerSpadMegaCps\000"
 11823      6B506572 
 11823      53706164 
 11823      4D656761 
 11823      43707300 
 11824              	.LASF119:
 11825 193c 564C3533 		.ascii	"VL53L0X_DevData_t\000"
 11825      4C30585F 
 11825      44657644 
 11825      6174615F 
 11825      7400
 11826              	.LASF338:
 11827 194e 746F7461 		.ascii	"totalXtalkMegaCps\000"
 11827      6C587461 
 11827      6C6B4D65 
 11827      67614370 
 11827      7300
 11828              	.LASF157:
 11829 1960 5F666E74 		.ascii	"_fntypes\000"
 11829      79706573 
 11829      00
 11830              	.LASF211:
 11831 1969 5F616464 		.ascii	"_add\000"
 11831      00
 11832              	.LASF340:
 11833 196e 70746F74 		.ascii	"ptotal_xtalk_rate_mcps\000"
 11833      616C5F78 
 11833      74616C6B 
 11833      5F726174 
 11833      655F6D63 
 11834              	.LASF249:
 11835 1985 4E6F6E65 		.ascii	"NoneFlag\000"
 11835      466C6167 
 11835      00
ARM GAS  C:\Users\PCHAUT~1\AppData\Local\Temp\ccgoQRgJ.s 			page 228


 11836              	.LASF260:
 11837 198e 5369676E 		.ascii	"SignalRatePerSpad\000"
 11837      616C5261 
 11837      74655065 
 11837      72537061 
 11837      6400
 11838              	.LASF30:
 11839 19a0 50726F64 		.ascii	"ProductType\000"
 11839      75637454 
 11839      79706500 
 11840              	.LASF288:
 11841 19ac 70774D75 		.ascii	"pwMult\000"
 11841      6C7400
 11842              	.LASF162:
 11843 19b3 5F5F7362 		.ascii	"__sbuf\000"
 11843      756600
 11844              	.LASF364:
 11845 19ba 564C3533 		.ascii	"VL53L0X_set_measurement_timing_budget_micro_seconds"
 11845      4C30585F 
 11845      7365745F 
 11845      6D656173 
 11845      7572656D 
 11846 19ed 00       		.ascii	"\000"
 11847              	.LASF79:
 11848 19ee 50696E30 		.ascii	"Pin0GpioFunctionality\000"
 11848      4770696F 
 11848      46756E63 
 11848      74696F6E 
 11848      616C6974 
 11849              	.LASF205:
 11850 1a04 5F676C75 		.ascii	"_glue\000"
 11850      6500
 11851              	.LASF327:
 11852 1a0a 7369676D 		.ascii	"sigmaLimitTmp\000"
 11852      614C696D 
 11852      6974546D 
 11852      7000
 11853              	.LASF409:
 11854 1a18 564C3533 		.ascii	"VL53L0X_calc_macro_period_ps\000"
 11854      4C30585F 
 11854      63616C63 
 11854      5F6D6163 
 11854      726F5F70 
 11855              	.LASF330:
 11856 1a35 5369676E 		.ascii	"SignalAt0mm\000"
 11856      616C4174 
 11856      306D6D00 
 11857              	.LASF279:
 11858 1a41 63506C6C 		.ascii	"cPllPeriod_ps\000"
 11858      50657269 
 11858      6F645F70 
 11858      7300
 11859              	.LASF335:
 11860 1a4f 7369676E 		.ascii	"signalRateTemp_mcps\000"
 11860      616C5261 
 11860      74655465 
 11860      6D705F6D 
ARM GAS  C:\Users\PCHAUT~1\AppData\Local\Temp\ccgoQRgJ.s 			page 229


 11860      63707300 
 11861              	.LASF202:
 11862 1a63 5F5F7367 		.ascii	"__sglue\000"
 11862      6C756500 
 11863              	.LASF213:
 11864 1a6b 5F737472 		.ascii	"_strtok_last\000"
 11864      746F6B5F 
 11864      6C617374 
 11864      00
 11865              	.LASF220:
 11866 1a78 5F6D6274 		.ascii	"_mbtowc_state\000"
 11866      6F77635F 
 11866      73746174 
 11866      6500
 11867              	.LASF395:
 11868 1a86 564C3533 		.ascii	"VL53L0X_calc_timeout_us\000"
 11868      4C30585F 
 11868      63616C63 
 11868      5F74696D 
 11868      656F7574 
 11869              	.LASF379:
 11870 1a9e 50686173 		.ascii	"PhaseCalInt\000"
 11870      6543616C 
 11870      496E7400 
 11871              	.LASF190:
 11872 1aaa 5F6C6F63 		.ascii	"_locale\000"
 11872      616C6500 
 11873              	.LASF120:
 11874 1ab2 564C3533 		.ascii	"VL53L0X_VcselPeriod\000"
 11874      4C30585F 
 11874      56637365 
 11874      6C506572 
 11874      696F6400 
 11875              	.LASF155:
 11876 1ac6 5F666E61 		.ascii	"_fnargs\000"
 11876      72677300 
 11877              	.LASF2:
 11878 1ace 7369676E 		.ascii	"signed char\000"
 11878      65642063 
 11878      68617200 
 11879              	.LASF405:
 11880 1ada 74696D65 		.ascii	"timeout_macro_clks\000"
 11880      6F75745F 
 11880      6D616372 
 11880      6F5F636C 
 11880      6B7300
 11881              	.LASF102:
 11882 1aed 4C617374 		.ascii	"LastHistogramMeasure\000"
 11882      48697374 
 11882      6F677261 
 11882      6D4D6561 
 11882      73757265 
 11883              	.LASF7:
 11884 1b02 73686F72 		.ascii	"short unsigned int\000"
 11884      7420756E 
 11884      7369676E 
 11884      65642069 
ARM GAS  C:\Users\PCHAUT~1\AppData\Local\Temp\ccgoQRgJ.s 			page 230


 11884      6E7400
 11885              	.LASF106:
 11886 1b15 52616E67 		.ascii	"RangeFractionalEnable\000"
 11886      65467261 
 11886      6374696F 
 11886      6E616C45 
 11886      6E61626C 
 11887              	.LASF295:
 11888 1b2b 7854616C 		.ascii	"xTalkCompRate_kcps\000"
 11888      6B436F6D 
 11888      70526174 
 11888      655F6B63 
 11888      707300
 11889              	.LASF58:
 11890 1b3e 52616E67 		.ascii	"RangeMilliMeter\000"
 11890      654D696C 
 11890      6C694D65 
 11890      74657200 
 11891              	.LASF111:
 11892 1b4e 5369676D 		.ascii	"SigmaEstimate\000"
 11892      61457374 
 11892      696D6174 
 11892      6500
 11893              	.LASF272:
 11894 1b5c 63566373 		.ascii	"cVcselPulseWidth_ps\000"
 11894      656C5075 
 11894      6C736557 
 11894      69647468 
 11894      5F707300 
 11895              	.LASF84:
 11896 1b70 5369676D 		.ascii	"SigmaEstRefArray\000"
 11896      61457374 
 11896      52656641 
 11896      72726179 
 11896      00
 11897              	.LASF122:
 11898 1b81 4D737263 		.ascii	"MsrcOn\000"
 11898      4F6E00
 11899              	.LASF164:
 11900 1b88 5F73697A 		.ascii	"_size\000"
 11900      6500
 11901              	.LASF64:
 11902 1b8e 52616E67 		.ascii	"RangeFractionalPart\000"
 11902      65467261 
 11902      6374696F 
 11902      6E616C50 
 11902      61727400 
 11903              	.LASF348:
 11904 1ba2 41646472 		.ascii	"Address\000"
 11904      65737300 
 11905              	.LASF129:
 11906 1baa 5F6F6666 		.ascii	"_off_t\000"
 11906      5F7400
 11907              	.LASF78:
 11908 1bb1 4C617374 		.ascii	"LastEncodedTimeout\000"
 11908      456E636F 
 11908      64656454 
ARM GAS  C:\Users\PCHAUT~1\AppData\Local\Temp\ccgoQRgJ.s 			page 231


 11908      696D656F 
 11908      757400
 11909              	.LASF175:
 11910 1bc4 5F6E6275 		.ascii	"_nbuf\000"
 11910      6600
 11911              	.LASF212:
 11912 1bca 5F756E75 		.ascii	"_unused_rand\000"
 11912      7365645F 
 11912      72616E64 
 11912      00
 11913              	.LASF403:
 11914 1bd7 564C3533 		.ascii	"VL53L0X_decode_timeout\000"
 11914      4C30585F 
 11914      6465636F 
 11914      64655F74 
 11914      696D656F 
 11915              	.LASF387:
 11916 1bee 4D737263 		.ascii	"MsrcRangeTimeOutMClks\000"
 11916      52616E67 
 11916      6554696D 
 11916      654F7574 
 11916      4D436C6B 
 11917              	.LASF262:
 11918 1c04 746D7057 		.ascii	"tmpWord\000"
 11918      6F726400 
 11919              	.LASF368:
 11920 1c0c 564C3533 		.ascii	"VL53L0X_get_vcsel_pulse_period\000"
 11920      4C30585F 
 11920      6765745F 
 11920      76637365 
 11920      6C5F7075 
 11921              	.LASF189:
 11922 1c2b 5F756E73 		.ascii	"_unspecified_locale_info\000"
 11922      70656369 
 11922      66696564 
 11922      5F6C6F63 
 11922      616C655F 
 11923              	.LASF323:
 11924 1c44 6D696E53 		.ascii	"minSignalNeeded_p1\000"
 11924      69676E61 
 11924      6C4E6565 
 11924      6465645F 
 11924      703100
 11925              	.LASF181:
 11926 1c57 5F666C61 		.ascii	"_flags2\000"
 11926      67733200 
 11927              	.LASF325:
 11928 1c5f 6D696E53 		.ascii	"minSignalNeeded_p3\000"
 11928      69676E61 
 11928      6C4E6565 
 11928      6465645F 
 11928      703300
 11929              	.LASF326:
 11930 1c72 6D696E53 		.ascii	"minSignalNeeded_p4\000"
 11930      69676E61 
 11930      6C4E6565 
 11930      6465645F 
ARM GAS  C:\Users\PCHAUT~1\AppData\Local\Temp\ccgoQRgJ.s 			page 232


 11930      703400
 11931              	.LASF158:
 11932 1c85 5F69735F 		.ascii	"_is_cxa\000"
 11932      63786100 
 11933              	.LASF267:
 11934 1c8d 70536967 		.ascii	"pSigmaEstimate\000"
 11934      6D614573 
 11934      74696D61 
 11934      746500
 11935              	.LASF107:
 11936 1c9c 50616C53 		.ascii	"PalState\000"
 11936      74617465 
 11936      00
 11937              	.LASF56:
 11938 1ca5 54696D65 		.ascii	"TimeStamp\000"
 11938      5374616D 
 11938      7000
 11939              	.LASF209:
 11940 1caf 5F736565 		.ascii	"_seed\000"
 11940      6400
 11941              	.LASF217:
 11942 1cb5 5F72616E 		.ascii	"_rand_next\000"
 11942      645F6E65 
 11942      787400
 11943              	.LASF388:
 11944 1cc0 46696E61 		.ascii	"FinalRangeTimeOutMClks\000"
 11944      6C52616E 
 11944      67655469 
 11944      6D654F75 
 11944      744D436C 
 11945              	.LASF73:
 11946 1cd7 564C3533 		.ascii	"VL53L0X_HistogramMeasurementData_t\000"
 11946      4C30585F 
 11946      48697374 
 11946      6F677261 
 11946      6D4D6561 
 11947              	.LASF238:
 11948 1cfa 44617461 		.ascii	"Data\000"
 11948      00
 11949              	.LASF172:
 11950 1cff 5F736565 		.ascii	"_seek\000"
 11950      6B00
 11951              	.LASF139:
 11952 1d05 5F6E6578 		.ascii	"_next\000"
 11952      7400
 11953              	.LASF382:
 11954 1d0b 54696D65 		.ascii	"TimeOutMicroSecs\000"
 11954      4F75744D 
 11954      6963726F 
 11954      53656373 
 11954      00
 11955              	.LASF186:
 11956 1d1c 5F737464 		.ascii	"_stderr\000"
 11956      65727200 
 11957              	.LASF232:
 11958 1d24 5F6E6D61 		.ascii	"_nmalloc\000"
 11958      6C6C6F63 
ARM GAS  C:\Users\PCHAUT~1\AppData\Local\Temp\ccgoQRgJ.s 			page 233


 11958      00
 11959              	.LASF174:
 11960 1d2d 5F756275 		.ascii	"_ubuf\000"
 11960      6600
 11961              	.LASF95:
 11962 1d33 5369676E 		.ascii	"SignalRateMeasFixed400mm\000"
 11962      616C5261 
 11962      74654D65 
 11962      61734669 
 11962      78656434 
 11963              	.LASF414:
 11964 1d4c 62797465 		.ascii	"byte\000"
 11964      00
 11965              	.LASF313:
 11966 1d51 746F7461 		.ascii	"totalCorrSignalRate_mcps\000"
 11966      6C436F72 
 11966      72536967 
 11966      6E616C52 
 11966      6174655F 
 11967              		.ident	"GCC: (GNU Tools for Arm Embedded Processors 7-2017-q4-major) 7.2.1 20170904 (release) [ARM
ARM GAS  C:\Users\PCHAUT~1\AppData\Local\Temp\ccgoQRgJ.s 			page 234


DEFINED SYMBOLS
                            *ABS*:00000000 vl53l0x_api_core.c
C:\Users\PCHAUT~1\AppData\Local\Temp\ccgoQRgJ.s:18     .text.VL53L0X_reverse_bytes:00000000 $t
C:\Users\PCHAUT~1\AppData\Local\Temp\ccgoQRgJ.s:26     .text.VL53L0X_reverse_bytes:00000000 VL53L0X_reverse_bytes
C:\Users\PCHAUT~1\AppData\Local\Temp\ccgoQRgJ.s:111    .text.VL53L0X_reverse_bytes:0000007c $d
C:\Users\PCHAUT~1\AppData\Local\Temp\ccgoQRgJ.s:116    .text.VL53L0X_measurement_poll_for_completion:00000000 $t
C:\Users\PCHAUT~1\AppData\Local\Temp\ccgoQRgJ.s:124    .text.VL53L0X_measurement_poll_for_completion:00000000 VL53L0X_measurement_poll_for_completion
C:\Users\PCHAUT~1\AppData\Local\Temp\ccgoQRgJ.s:210    .text.VL53L0X_measurement_poll_for_completion:0000007c $d
C:\Users\PCHAUT~1\AppData\Local\Temp\ccgoQRgJ.s:215    .text.VL53L0X_decode_vcsel_period:00000000 $t
C:\Users\PCHAUT~1\AppData\Local\Temp\ccgoQRgJ.s:223    .text.VL53L0X_decode_vcsel_period:00000000 VL53L0X_decode_vcsel_period
C:\Users\PCHAUT~1\AppData\Local\Temp\ccgoQRgJ.s:267    .text.VL53L0X_decode_vcsel_period:00000040 $d
C:\Users\PCHAUT~1\AppData\Local\Temp\ccgoQRgJ.s:272    .text.VL53L0X_encode_vcsel_period:00000000 $t
C:\Users\PCHAUT~1\AppData\Local\Temp\ccgoQRgJ.s:280    .text.VL53L0X_encode_vcsel_period:00000000 VL53L0X_encode_vcsel_period
C:\Users\PCHAUT~1\AppData\Local\Temp\ccgoQRgJ.s:324    .text.VL53L0X_encode_vcsel_period:00000040 $d
C:\Users\PCHAUT~1\AppData\Local\Temp\ccgoQRgJ.s:329    .text.VL53L0X_isqrt:00000000 $t
C:\Users\PCHAUT~1\AppData\Local\Temp\ccgoQRgJ.s:337    .text.VL53L0X_isqrt:00000000 VL53L0X_isqrt
C:\Users\PCHAUT~1\AppData\Local\Temp\ccgoQRgJ.s:429    .text.VL53L0X_isqrt:00000078 $d
C:\Users\PCHAUT~1\AppData\Local\Temp\ccgoQRgJ.s:434    .text.VL53L0X_quadrature_sum:00000000 $t
C:\Users\PCHAUT~1\AppData\Local\Temp\ccgoQRgJ.s:442    .text.VL53L0X_quadrature_sum:00000000 VL53L0X_quadrature_sum
C:\Users\PCHAUT~1\AppData\Local\Temp\ccgoQRgJ.s:506    .text.VL53L0X_quadrature_sum:0000005c $d
C:\Users\PCHAUT~1\AppData\Local\Temp\ccgoQRgJ.s:511    .text.VL53L0X_device_read_strobe:00000000 $t
C:\Users\PCHAUT~1\AppData\Local\Temp\ccgoQRgJ.s:519    .text.VL53L0X_device_read_strobe:00000000 VL53L0X_device_read_strobe
C:\Users\PCHAUT~1\AppData\Local\Temp\ccgoQRgJ.s:617    .text.VL53L0X_device_read_strobe:000000a8 $d
C:\Users\PCHAUT~1\AppData\Local\Temp\ccgoQRgJ.s:622    .text.VL53L0X_get_info_from_device:00000000 $t
C:\Users\PCHAUT~1\AppData\Local\Temp\ccgoQRgJ.s:630    .text.VL53L0X_get_info_from_device:00000000 VL53L0X_get_info_from_device
C:\Users\PCHAUT~1\AppData\Local\Temp\ccgoQRgJ.s:934    .text.VL53L0X_get_info_from_device:0000029c $d
C:\Users\PCHAUT~1\AppData\Local\Temp\ccgoQRgJ.s:938    .text.VL53L0X_get_info_from_device:000002a0 $t
C:\Users\PCHAUT~1\AppData\Local\Temp\ccgoQRgJ.s:1754   .text.VL53L0X_get_info_from_device:000009d0 $d
C:\Users\PCHAUT~1\AppData\Local\Temp\ccgoQRgJ.s:1759   .text.VL53L0X_calc_macro_period_ps:00000000 $t
C:\Users\PCHAUT~1\AppData\Local\Temp\ccgoQRgJ.s:1767   .text.VL53L0X_calc_macro_period_ps:00000000 VL53L0X_calc_macro_period_ps
C:\Users\PCHAUT~1\AppData\Local\Temp\ccgoQRgJ.s:1819   .text.VL53L0X_calc_macro_period_ps:0000004c $d
C:\Users\PCHAUT~1\AppData\Local\Temp\ccgoQRgJ.s:1824   .text.VL53L0X_encode_timeout:00000000 $t
C:\Users\PCHAUT~1\AppData\Local\Temp\ccgoQRgJ.s:1832   .text.VL53L0X_encode_timeout:00000000 VL53L0X_encode_timeout
C:\Users\PCHAUT~1\AppData\Local\Temp\ccgoQRgJ.s:1913   .text.VL53L0X_encode_timeout:00000074 $d
C:\Users\PCHAUT~1\AppData\Local\Temp\ccgoQRgJ.s:1918   .text.VL53L0X_decode_timeout:00000000 $t
C:\Users\PCHAUT~1\AppData\Local\Temp\ccgoQRgJ.s:1926   .text.VL53L0X_decode_timeout:00000000 VL53L0X_decode_timeout
C:\Users\PCHAUT~1\AppData\Local\Temp\ccgoQRgJ.s:1975   .text.VL53L0X_decode_timeout:00000040 $d
C:\Users\PCHAUT~1\AppData\Local\Temp\ccgoQRgJ.s:1980   .text.VL53L0X_calc_timeout_mclks:00000000 $t
C:\Users\PCHAUT~1\AppData\Local\Temp\ccgoQRgJ.s:1988   .text.VL53L0X_calc_timeout_mclks:00000000 VL53L0X_calc_timeout_mclks
C:\Users\PCHAUT~1\AppData\Local\Temp\ccgoQRgJ.s:2053   .text.VL53L0X_calc_timeout_mclks:00000068 $d
C:\Users\PCHAUT~1\AppData\Local\Temp\ccgoQRgJ.s:2059   .text.VL53L0X_calc_timeout_us:00000000 $t
C:\Users\PCHAUT~1\AppData\Local\Temp\ccgoQRgJ.s:2067   .text.VL53L0X_calc_timeout_us:00000000 VL53L0X_calc_timeout_us
C:\Users\PCHAUT~1\AppData\Local\Temp\ccgoQRgJ.s:2131   .text.VL53L0X_calc_timeout_us:0000006c $d
C:\Users\PCHAUT~1\AppData\Local\Temp\ccgoQRgJ.s:2137   .text.get_sequence_step_timeout:00000000 $t
C:\Users\PCHAUT~1\AppData\Local\Temp\ccgoQRgJ.s:2145   .text.get_sequence_step_timeout:00000000 get_sequence_step_timeout
C:\Users\PCHAUT~1\AppData\Local\Temp\ccgoQRgJ.s:2391   .text.get_sequence_step_timeout:000001fc $d
C:\Users\PCHAUT~1\AppData\Local\Temp\ccgoQRgJ.s:2396   .text.set_sequence_step_timeout:00000000 $t
C:\Users\PCHAUT~1\AppData\Local\Temp\ccgoQRgJ.s:2404   .text.set_sequence_step_timeout:00000000 set_sequence_step_timeout
C:\Users\PCHAUT~1\AppData\Local\Temp\ccgoQRgJ.s:2679   .text.set_sequence_step_timeout:00000224 $d
C:\Users\PCHAUT~1\AppData\Local\Temp\ccgoQRgJ.s:2684   .text.VL53L0X_set_vcsel_pulse_period:00000000 $t
C:\Users\PCHAUT~1\AppData\Local\Temp\ccgoQRgJ.s:2692   .text.VL53L0X_set_vcsel_pulse_period:00000000 VL53L0X_set_vcsel_pulse_period
C:\Users\PCHAUT~1\AppData\Local\Temp\ccgoQRgJ.s:3088   .text.VL53L0X_set_vcsel_pulse_period:00000350 $d
C:\Users\PCHAUT~1\AppData\Local\Temp\ccgoQRgJ.s:3091   .text.VL53L0X_set_vcsel_pulse_period:00000354 $t
C:\Users\PCHAUT~1\AppData\Local\Temp\ccgoQRgJ.s:3341   .text.VL53L0X_set_vcsel_pulse_period:00000554 $d
C:\Users\PCHAUT~1\AppData\Local\Temp\ccgoQRgJ.s:3346   .text.VL53L0X_get_vcsel_pulse_period:00000000 $t
C:\Users\PCHAUT~1\AppData\Local\Temp\ccgoQRgJ.s:3354   .text.VL53L0X_get_vcsel_pulse_period:00000000 VL53L0X_get_vcsel_pulse_period
C:\Users\PCHAUT~1\AppData\Local\Temp\ccgoQRgJ.s:3442   .text.VL53L0X_get_vcsel_pulse_period:00000090 $d
ARM GAS  C:\Users\PCHAUT~1\AppData\Local\Temp\ccgoQRgJ.s 			page 235


C:\Users\PCHAUT~1\AppData\Local\Temp\ccgoQRgJ.s:3447   .text.VL53L0X_set_measurement_timing_budget_micro_seconds:00000000 $t
C:\Users\PCHAUT~1\AppData\Local\Temp\ccgoQRgJ.s:3455   .text.VL53L0X_set_measurement_timing_budget_micro_seconds:00000000 VL53L0X_set_measurement_timing_budget_micro_seconds
C:\Users\PCHAUT~1\AppData\Local\Temp\ccgoQRgJ.s:3744   .text.VL53L0X_set_measurement_timing_budget_micro_seconds:000001dc $d
C:\Users\PCHAUT~1\AppData\Local\Temp\ccgoQRgJ.s:3749   .text.VL53L0X_get_measurement_timing_budget_micro_seconds:00000000 $t
C:\Users\PCHAUT~1\AppData\Local\Temp\ccgoQRgJ.s:3757   .text.VL53L0X_get_measurement_timing_budget_micro_seconds:00000000 VL53L0X_get_measurement_timing_budget_micro_seconds
C:\Users\PCHAUT~1\AppData\Local\Temp\ccgoQRgJ.s:3988   .text.VL53L0X_get_measurement_timing_budget_micro_seconds:0000017c $d
C:\Users\PCHAUT~1\AppData\Local\Temp\ccgoQRgJ.s:3993   .text.VL53L0X_load_tuning_settings:00000000 $t
C:\Users\PCHAUT~1\AppData\Local\Temp\ccgoQRgJ.s:4001   .text.VL53L0X_load_tuning_settings:00000000 VL53L0X_load_tuning_settings
C:\Users\PCHAUT~1\AppData\Local\Temp\ccgoQRgJ.s:4059   .text.VL53L0X_load_tuning_settings:00000058 $d
C:\Users\PCHAUT~1\AppData\Local\Temp\ccgoQRgJ.s:4063   .text.VL53L0X_load_tuning_settings:00000068 $t
C:\Users\PCHAUT~1\AppData\Local\Temp\ccgoQRgJ.s:4301   .text.VL53L0X_load_tuning_settings:00000220 $d
C:\Users\PCHAUT~1\AppData\Local\Temp\ccgoQRgJ.s:4306   .text.VL53L0X_get_total_xtalk_rate:00000000 $t
C:\Users\PCHAUT~1\AppData\Local\Temp\ccgoQRgJ.s:4314   .text.VL53L0X_get_total_xtalk_rate:00000000 VL53L0X_get_total_xtalk_rate
C:\Users\PCHAUT~1\AppData\Local\Temp\ccgoQRgJ.s:4392   .text.VL53L0X_get_total_xtalk_rate:00000078 $d
C:\Users\PCHAUT~1\AppData\Local\Temp\ccgoQRgJ.s:4397   .text.VL53L0X_get_total_signal_rate:00000000 $t
C:\Users\PCHAUT~1\AppData\Local\Temp\ccgoQRgJ.s:4405   .text.VL53L0X_get_total_signal_rate:00000000 VL53L0X_get_total_signal_rate
C:\Users\PCHAUT~1\AppData\Local\Temp\ccgoQRgJ.s:4470   .text.VL53L0X_get_total_signal_rate:00000060 $d
C:\Users\PCHAUT~1\AppData\Local\Temp\ccgoQRgJ.s:4475   .text.VL53L0X_calc_dmax:00000000 $t
C:\Users\PCHAUT~1\AppData\Local\Temp\ccgoQRgJ.s:4483   .text.VL53L0X_calc_dmax:00000000 VL53L0X_calc_dmax
C:\Users\PCHAUT~1\AppData\Local\Temp\ccgoQRgJ.s:4833   .text.VL53L0X_calc_dmax:0000025c $d
C:\Users\PCHAUT~1\AppData\Local\Temp\ccgoQRgJ.s:4840   .text.VL53L0X_calc_sigma_estimate:00000000 $t
C:\Users\PCHAUT~1\AppData\Local\Temp\ccgoQRgJ.s:4848   .text.VL53L0X_calc_sigma_estimate:00000000 VL53L0X_calc_sigma_estimate
C:\Users\PCHAUT~1\AppData\Local\Temp\ccgoQRgJ.s:5180   .text.VL53L0X_calc_sigma_estimate:00000254 $d
C:\Users\PCHAUT~1\AppData\Local\Temp\ccgoQRgJ.s:5186   .text.VL53L0X_calc_sigma_estimate:00000264 $t
C:\Users\PCHAUT~1\AppData\Local\Temp\ccgoQRgJ.s:5414   .text.VL53L0X_calc_sigma_estimate:00000404 $d
C:\Users\PCHAUT~1\AppData\Local\Temp\ccgoQRgJ.s:5422   .text.VL53L0X_get_pal_range_status:00000000 $t
C:\Users\PCHAUT~1\AppData\Local\Temp\ccgoQRgJ.s:5430   .text.VL53L0X_get_pal_range_status:00000000 VL53L0X_get_pal_range_status
C:\Users\PCHAUT~1\AppData\Local\Temp\ccgoQRgJ.s:5880   .text.VL53L0X_get_pal_range_status:00000330 $d
C:\Users\PCHAUT~1\AppData\Local\Temp\ccgoQRgJ.s:5883   .text.VL53L0X_get_pal_range_status:00000334 $t
C:\Users\PCHAUT~1\AppData\Local\Temp\ccgoQRgJ.s:5976   .text.VL53L0X_get_pal_range_status:000003d8 $d

UNDEFINED SYMBOLS
__stack_chk_fail
__stack_chk_guard
VL53L0X_GetMeasurementDataReady
VL53L0X_PollingDelay
VL53L0X_WrByte
VL53L0X_RdByte
VL53L0X_RdDWord
strcpy
VL53L0X_GetVcselPulsePeriod
VL53L0X_RdWord
VL53L0X_GetSequenceStepEnables
VL53L0X_WrWord
VL53L0X_SetMeasurementTimingBudgetMicroSeconds
VL53L0X_perform_phase_calibration
VL53L0X_WriteMulti
VL53L0X_GetXTalkCompensationEnable
VL53L0X_GetLimitCheckEnable
VL53L0X_GetLimitCheckValue
