ARM GAS  C:\Users\PCHAUT~1\AppData\Local\Temp\ccgoQRgJ.s 			page 1


   1              		.cpu cortex-m4
   2              		.eabi_attribute 27, 1
   3              		.eabi_attribute 28, 1
   4              		.eabi_attribute 20, 1
   5              		.eabi_attribute 21, 1
   6              		.eabi_attribute 23, 3
   7              		.eabi_attribute 24, 1
   8              		.eabi_attribute 25, 1
   9              		.eabi_attribute 26, 1
  10              		.eabi_attribute 30, 6
  11              		.eabi_attribute 34, 1
  12              		.eabi_attribute 18, 4
  13              		.file	"vl53l0x_api_core.c"
  14              		.text
  15              	.Ltext0:
  16              		.cfi_sections	.debug_frame
  17              		.section	.text.VL53L0X_reverse_bytes,"ax",%progbits
  18              		.align	1
  19              		.p2align 4,,15
  20              		.global	VL53L0X_reverse_bytes
  21              		.syntax unified
  22              		.thumb
  23              		.thumb_func
  24              		.fpu fpv4-sp-d16
  25              		.type	VL53L0X_reverse_bytes, %function
  26              	VL53L0X_reverse_bytes:
  27              	.LFB3:
  28              		.file 1 "../lib/e-puck2_main-processor/src/sensors/VL53L0X/Api/core/src/vl53l0x_api_core.c"
  29              		.loc 1 45 0
  30              		.cfi_startproc
  31              		@ args = 0, pretend = 0, frame = 32
  32              		@ frame_needed = 0, uses_anonymous_args = 0
  33 0000 00B5     		push	{lr}
  34              		.cfi_def_cfa_offset 4
  35              		.cfi_offset 14, -4
  36 0002 89B0     		sub	sp, sp, #36
  37              		.cfi_def_cfa_offset 40
  38 0004 0190     		str	r0, [sp, #4]
  39 0006 0091     		str	r1, [sp]
  40              		.loc 1 45 0
  41 0008 1C4B     		ldr	r3, .L6
  42 000a 1B68     		ldr	r3, [r3]
  43 000c 0793     		str	r3, [sp, #28]
  44              		.loc 1 46 0
  45 000e 0023     		movs	r3, #0
  46 0010 8DF80E30 		strb	r3, [sp, #14]
  47              		.loc 1 49 0
  48 0014 009B     		ldr	r3, [sp]
  49 0016 5B08     		lsrs	r3, r3, #1
  50 0018 0593     		str	r3, [sp, #20]
  51              		.loc 1 52 0
  52 001a 0023     		movs	r3, #0
  53 001c 0493     		str	r3, [sp, #16]
  54 001e 1BE0     		b	.L2
  55              	.L3:
  56              		.loc 1 53 0 discriminator 3
  57 0020 009A     		ldr	r2, [sp]
ARM GAS  C:\Users\PCHAUT~1\AppData\Local\Temp\ccgoQRgJ.s 			page 2


  58 0022 049B     		ldr	r3, [sp, #16]
  59 0024 D31A     		subs	r3, r2, r3
  60 0026 013B     		subs	r3, r3, #1
  61 0028 0693     		str	r3, [sp, #24]
  62              		.loc 1 54 0 discriminator 3
  63 002a 019A     		ldr	r2, [sp, #4]
  64 002c 049B     		ldr	r3, [sp, #16]
  65 002e 1344     		add	r3, r3, r2
  66 0030 1B78     		ldrb	r3, [r3]
  67 0032 8DF80F30 		strb	r3, [sp, #15]
  68              		.loc 1 55 0 discriminator 3
  69 0036 019A     		ldr	r2, [sp, #4]
  70 0038 069B     		ldr	r3, [sp, #24]
  71 003a 1A44     		add	r2, r2, r3
  72 003c 0199     		ldr	r1, [sp, #4]
  73 003e 049B     		ldr	r3, [sp, #16]
  74 0040 0B44     		add	r3, r3, r1
  75 0042 1278     		ldrb	r2, [r2]	@ zero_extendqisi2
  76 0044 1A70     		strb	r2, [r3]
  77              		.loc 1 56 0 discriminator 3
  78 0046 019A     		ldr	r2, [sp, #4]
  79 0048 069B     		ldr	r3, [sp, #24]
  80 004a 1344     		add	r3, r3, r2
  81 004c 9DF80F20 		ldrb	r2, [sp, #15]
  82 0050 1A70     		strb	r2, [r3]
  83              		.loc 1 52 0 discriminator 3
  84 0052 049B     		ldr	r3, [sp, #16]
  85 0054 0133     		adds	r3, r3, #1
  86 0056 0493     		str	r3, [sp, #16]
  87              	.L2:
  88              		.loc 1 52 0 is_stmt 0 discriminator 1
  89 0058 049A     		ldr	r2, [sp, #16]
  90 005a 059B     		ldr	r3, [sp, #20]
  91 005c 9A42     		cmp	r2, r3
  92 005e DFD3     		bcc	.L3
  93              		.loc 1 58 0 is_stmt 1
  94 0060 9DF90E30 		ldrsb	r3, [sp, #14]
  95              		.loc 1 59 0
  96 0064 1846     		mov	r0, r3
  97 0066 054B     		ldr	r3, .L6
  98 0068 079A     		ldr	r2, [sp, #28]
  99 006a 1B68     		ldr	r3, [r3]
 100 006c 9A42     		cmp	r2, r3
 101 006e 01D0     		beq	.L5
 102 0070 FFF7FEFF 		bl	__stack_chk_fail
 103              	.L5:
 104 0074 09B0     		add	sp, sp, #36
 105              		.cfi_def_cfa_offset 4
 106              		@ sp needed
 107 0076 5DF804FB 		ldr	pc, [sp], #4
 108              	.L7:
 109 007a 00BF     		.align	2
 110              	.L6:
 111 007c 00000000 		.word	__stack_chk_guard
 112              		.cfi_endproc
 113              	.LFE3:
 114              		.size	VL53L0X_reverse_bytes, .-VL53L0X_reverse_bytes
ARM GAS  C:\Users\PCHAUT~1\AppData\Local\Temp\ccgoQRgJ.s 			page 3


 115              		.section	.text.VL53L0X_measurement_poll_for_completion,"ax",%progbits
 116              		.align	1
 117              		.p2align 4,,15
 118              		.global	VL53L0X_measurement_poll_for_completion
 119              		.syntax unified
 120              		.thumb
 121              		.thumb_func
 122              		.fpu fpv4-sp-d16
 123              		.type	VL53L0X_measurement_poll_for_completion, %function
 124              	VL53L0X_measurement_poll_for_completion:
 125              	.LFB4:
 126              		.loc 1 62 0
 127              		.cfi_startproc
 128              		@ args = 0, pretend = 0, frame = 24
 129              		@ frame_needed = 0, uses_anonymous_args = 0
 130 0000 00B5     		push	{lr}
 131              		.cfi_def_cfa_offset 4
 132              		.cfi_offset 14, -4
 133 0002 87B0     		sub	sp, sp, #28
 134              		.cfi_def_cfa_offset 32
 135 0004 0190     		str	r0, [sp, #4]
 136              		.loc 1 62 0
 137 0006 1D4B     		ldr	r3, .L18
 138 0008 1B68     		ldr	r3, [r3]
 139 000a 0593     		str	r3, [sp, #20]
 140              		.loc 1 63 0
 141 000c 0023     		movs	r3, #0
 142 000e 8DF80F30 		strb	r3, [sp, #15]
 143              		.loc 1 64 0
 144 0012 0023     		movs	r3, #0
 145 0014 8DF80E30 		strb	r3, [sp, #14]
 146              		.loc 1 69 0
 147 0018 0023     		movs	r3, #0
 148 001a 0493     		str	r3, [sp, #16]
 149              	.L13:
 150              		.loc 1 72 0
 151 001c 0DF10E03 		add	r3, sp, #14
 152 0020 1946     		mov	r1, r3
 153 0022 0198     		ldr	r0, [sp, #4]
 154 0024 FFF7FEFF 		bl	VL53L0X_GetMeasurementDataReady
 155 0028 0346     		mov	r3, r0
 156 002a 8DF80F30 		strb	r3, [sp, #15]
 157              		.loc 1 73 0
 158 002e 9DF90F30 		ldrsb	r3, [sp, #15]
 159 0032 002B     		cmp	r3, #0
 160 0034 12D1     		bne	.L16
 161              		.loc 1 76 0
 162 0036 9DF80E30 		ldrb	r3, [sp, #14]	@ zero_extendqisi2
 163 003a 012B     		cmp	r3, #1
 164 003c 10D0     		beq	.L17
 165              		.loc 1 79 0
 166 003e 049B     		ldr	r3, [sp, #16]
 167 0040 0133     		adds	r3, r3, #1
 168 0042 0493     		str	r3, [sp, #16]
 169              		.loc 1 80 0
 170 0044 049B     		ldr	r3, [sp, #16]
 171 0046 B3F5FA6F 		cmp	r3, #2000
ARM GAS  C:\Users\PCHAUT~1\AppData\Local\Temp\ccgoQRgJ.s 			page 4


 172 004a 03D3     		bcc	.L12
 173              		.loc 1 81 0
 174 004c F923     		movs	r3, #249
 175 004e 8DF80F30 		strb	r3, [sp, #15]
 176              		.loc 1 82 0
 177 0052 06E0     		b	.L10
 178              	.L12:
 179              		.loc 1 85 0
 180 0054 0198     		ldr	r0, [sp, #4]
 181 0056 FFF7FEFF 		bl	VL53L0X_PollingDelay
 182              		.loc 1 72 0
 183 005a DFE7     		b	.L13
 184              	.L16:
 185              		.loc 1 74 0
 186 005c 00BF     		nop
 187 005e 00E0     		b	.L10
 188              	.L17:
 189              		.loc 1 77 0
 190 0060 00BF     		nop
 191              	.L10:
 192              		.loc 1 90 0
 193 0062 9DF90F30 		ldrsb	r3, [sp, #15]
 194              		.loc 1 91 0
 195 0066 1846     		mov	r0, r3
 196 0068 044B     		ldr	r3, .L18
 197 006a 059A     		ldr	r2, [sp, #20]
 198 006c 1B68     		ldr	r3, [r3]
 199 006e 9A42     		cmp	r2, r3
 200 0070 01D0     		beq	.L15
 201 0072 FFF7FEFF 		bl	__stack_chk_fail
 202              	.L15:
 203 0076 07B0     		add	sp, sp, #28
 204              		.cfi_def_cfa_offset 4
 205              		@ sp needed
 206 0078 5DF804FB 		ldr	pc, [sp], #4
 207              	.L19:
 208              		.align	2
 209              	.L18:
 210 007c 00000000 		.word	__stack_chk_guard
 211              		.cfi_endproc
 212              	.LFE4:
 213              		.size	VL53L0X_measurement_poll_for_completion, .-VL53L0X_measurement_poll_for_completion
 214              		.section	.text.VL53L0X_decode_vcsel_period,"ax",%progbits
 215              		.align	1
 216              		.p2align 4,,15
 217              		.global	VL53L0X_decode_vcsel_period
 218              		.syntax unified
 219              		.thumb
 220              		.thumb_func
 221              		.fpu fpv4-sp-d16
 222              		.type	VL53L0X_decode_vcsel_period, %function
 223              	VL53L0X_decode_vcsel_period:
 224              	.LFB5:
 225              		.loc 1 95 0
 226              		.cfi_startproc
 227              		@ args = 0, pretend = 0, frame = 16
 228              		@ frame_needed = 0, uses_anonymous_args = 0
ARM GAS  C:\Users\PCHAUT~1\AppData\Local\Temp\ccgoQRgJ.s 			page 5


 229 0000 00B5     		push	{lr}
 230              		.cfi_def_cfa_offset 4
 231              		.cfi_offset 14, -4
 232 0002 85B0     		sub	sp, sp, #20
 233              		.cfi_def_cfa_offset 24
 234 0004 0346     		mov	r3, r0
 235 0006 8DF80730 		strb	r3, [sp, #7]
 236              		.loc 1 95 0
 237 000a 0D4B     		ldr	r3, .L23
 238 000c 1B68     		ldr	r3, [r3]
 239 000e 0393     		str	r3, [sp, #12]
 240              		.loc 1 101 0
 241 0010 0023     		movs	r3, #0
 242 0012 8DF80B30 		strb	r3, [sp, #11]
 243              		.loc 1 103 0
 244 0016 9DF80730 		ldrb	r3, [sp, #7]
 245 001a 0133     		adds	r3, r3, #1
 246 001c DBB2     		uxtb	r3, r3
 247 001e 5B00     		lsls	r3, r3, #1
 248 0020 8DF80B30 		strb	r3, [sp, #11]
 249              		.loc 1 105 0
 250 0024 9DF80B30 		ldrb	r3, [sp, #11]	@ zero_extendqisi2
 251              		.loc 1 106 0
 252 0028 1846     		mov	r0, r3
 253 002a 054B     		ldr	r3, .L23
 254 002c 039A     		ldr	r2, [sp, #12]
 255 002e 1B68     		ldr	r3, [r3]
 256 0030 9A42     		cmp	r2, r3
 257 0032 01D0     		beq	.L22
 258 0034 FFF7FEFF 		bl	__stack_chk_fail
 259              	.L22:
 260 0038 05B0     		add	sp, sp, #20
 261              		.cfi_def_cfa_offset 4
 262              		@ sp needed
 263 003a 5DF804FB 		ldr	pc, [sp], #4
 264              	.L24:
 265 003e 00BF     		.align	2
 266              	.L23:
 267 0040 00000000 		.word	__stack_chk_guard
 268              		.cfi_endproc
 269              	.LFE5:
 270              		.size	VL53L0X_decode_vcsel_period, .-VL53L0X_decode_vcsel_period
 271              		.section	.text.VL53L0X_encode_vcsel_period,"ax",%progbits
 272              		.align	1
 273              		.p2align 4,,15
 274              		.global	VL53L0X_encode_vcsel_period
 275              		.syntax unified
 276              		.thumb
 277              		.thumb_func
 278              		.fpu fpv4-sp-d16
 279              		.type	VL53L0X_encode_vcsel_period, %function
 280              	VL53L0X_encode_vcsel_period:
 281              	.LFB6:
 282              		.loc 1 109 0
 283              		.cfi_startproc
 284              		@ args = 0, pretend = 0, frame = 16
 285              		@ frame_needed = 0, uses_anonymous_args = 0
ARM GAS  C:\Users\PCHAUT~1\AppData\Local\Temp\ccgoQRgJ.s 			page 6


 286 0000 00B5     		push	{lr}
 287              		.cfi_def_cfa_offset 4
 288              		.cfi_offset 14, -4
 289 0002 85B0     		sub	sp, sp, #20
 290              		.cfi_def_cfa_offset 24
 291 0004 0346     		mov	r3, r0
 292 0006 8DF80730 		strb	r3, [sp, #7]
 293              		.loc 1 109 0
 294 000a 0D4B     		ldr	r3, .L28
 295 000c 1B68     		ldr	r3, [r3]
 296 000e 0393     		str	r3, [sp, #12]
 297              		.loc 1 115 0
 298 0010 0023     		movs	r3, #0
 299 0012 8DF80B30 		strb	r3, [sp, #11]
 300              		.loc 1 117 0
 301 0016 9DF80730 		ldrb	r3, [sp, #7]	@ zero_extendqisi2
 302 001a 5B08     		lsrs	r3, r3, #1
 303 001c DBB2     		uxtb	r3, r3
 304 001e 013B     		subs	r3, r3, #1
 305 0020 8DF80B30 		strb	r3, [sp, #11]
 306              		.loc 1 119 0
 307 0024 9DF80B30 		ldrb	r3, [sp, #11]	@ zero_extendqisi2
 308              		.loc 1 120 0
 309 0028 1846     		mov	r0, r3
 310 002a 054B     		ldr	r3, .L28
 311 002c 039A     		ldr	r2, [sp, #12]
 312 002e 1B68     		ldr	r3, [r3]
 313 0030 9A42     		cmp	r2, r3
 314 0032 01D0     		beq	.L27
 315 0034 FFF7FEFF 		bl	__stack_chk_fail
 316              	.L27:
 317 0038 05B0     		add	sp, sp, #20
 318              		.cfi_def_cfa_offset 4
 319              		@ sp needed
 320 003a 5DF804FB 		ldr	pc, [sp], #4
 321              	.L29:
 322 003e 00BF     		.align	2
 323              	.L28:
 324 0040 00000000 		.word	__stack_chk_guard
 325              		.cfi_endproc
 326              	.LFE6:
 327              		.size	VL53L0X_encode_vcsel_period, .-VL53L0X_encode_vcsel_period
 328              		.section	.text.VL53L0X_isqrt,"ax",%progbits
 329              		.align	1
 330              		.p2align 4,,15
 331              		.global	VL53L0X_isqrt
 332              		.syntax unified
 333              		.thumb
 334              		.thumb_func
 335              		.fpu fpv4-sp-d16
 336              		.type	VL53L0X_isqrt, %function
 337              	VL53L0X_isqrt:
 338              	.LFB7:
 339              		.loc 1 124 0
 340              		.cfi_startproc
 341              		@ args = 0, pretend = 0, frame = 24
 342              		@ frame_needed = 0, uses_anonymous_args = 0
ARM GAS  C:\Users\PCHAUT~1\AppData\Local\Temp\ccgoQRgJ.s 			page 7


 343 0000 00B5     		push	{lr}
 344              		.cfi_def_cfa_offset 4
 345              		.cfi_offset 14, -4
 346 0002 87B0     		sub	sp, sp, #28
 347              		.cfi_def_cfa_offset 32
 348 0004 0190     		str	r0, [sp, #4]
 349              		.loc 1 124 0
 350 0006 1C4B     		ldr	r3, .L39
 351 0008 1B68     		ldr	r3, [r3]
 352 000a 0593     		str	r3, [sp, #20]
 353              		.loc 1 131 0
 354 000c 0023     		movs	r3, #0
 355 000e 0393     		str	r3, [sp, #12]
 356              		.loc 1 132 0
 357 0010 4FF08043 		mov	r3, #1073741824
 358 0014 0493     		str	r3, [sp, #16]
 359              		.loc 1 137 0
 360 0016 02E0     		b	.L31
 361              	.L32:
 362              		.loc 1 138 0
 363 0018 049B     		ldr	r3, [sp, #16]
 364 001a 9B08     		lsrs	r3, r3, #2
 365 001c 0493     		str	r3, [sp, #16]
 366              	.L31:
 367              		.loc 1 137 0
 368 001e 049A     		ldr	r2, [sp, #16]
 369 0020 019B     		ldr	r3, [sp, #4]
 370 0022 9A42     		cmp	r2, r3
 371 0024 F8D8     		bhi	.L32
 372              		.loc 1 141 0
 373 0026 17E0     		b	.L33
 374              	.L36:
 375              		.loc 1 142 0
 376 0028 039A     		ldr	r2, [sp, #12]
 377 002a 049B     		ldr	r3, [sp, #16]
 378 002c 1344     		add	r3, r3, r2
 379 002e 019A     		ldr	r2, [sp, #4]
 380 0030 9A42     		cmp	r2, r3
 381 0032 0BD3     		bcc	.L34
 382              		.loc 1 143 0
 383 0034 039A     		ldr	r2, [sp, #12]
 384 0036 049B     		ldr	r3, [sp, #16]
 385 0038 1344     		add	r3, r3, r2
 386 003a 019A     		ldr	r2, [sp, #4]
 387 003c D31A     		subs	r3, r2, r3
 388 003e 0193     		str	r3, [sp, #4]
 389              		.loc 1 144 0
 390 0040 039B     		ldr	r3, [sp, #12]
 391 0042 5B08     		lsrs	r3, r3, #1
 392 0044 049A     		ldr	r2, [sp, #16]
 393 0046 1344     		add	r3, r3, r2
 394 0048 0393     		str	r3, [sp, #12]
 395 004a 02E0     		b	.L35
 396              	.L34:
 397              		.loc 1 146 0
 398 004c 039B     		ldr	r3, [sp, #12]
 399 004e 5B08     		lsrs	r3, r3, #1
ARM GAS  C:\Users\PCHAUT~1\AppData\Local\Temp\ccgoQRgJ.s 			page 8


 400 0050 0393     		str	r3, [sp, #12]
 401              	.L35:
 402              		.loc 1 148 0
 403 0052 049B     		ldr	r3, [sp, #16]
 404 0054 9B08     		lsrs	r3, r3, #2
 405 0056 0493     		str	r3, [sp, #16]
 406              	.L33:
 407              		.loc 1 141 0
 408 0058 049B     		ldr	r3, [sp, #16]
 409 005a 002B     		cmp	r3, #0
 410 005c E4D1     		bne	.L36
 411              		.loc 1 151 0
 412 005e 039B     		ldr	r3, [sp, #12]
 413              		.loc 1 152 0
 414 0060 1846     		mov	r0, r3
 415 0062 054B     		ldr	r3, .L39
 416 0064 059A     		ldr	r2, [sp, #20]
 417 0066 1B68     		ldr	r3, [r3]
 418 0068 9A42     		cmp	r2, r3
 419 006a 01D0     		beq	.L38
 420 006c FFF7FEFF 		bl	__stack_chk_fail
 421              	.L38:
 422 0070 07B0     		add	sp, sp, #28
 423              		.cfi_def_cfa_offset 4
 424              		@ sp needed
 425 0072 5DF804FB 		ldr	pc, [sp], #4
 426              	.L40:
 427 0076 00BF     		.align	2
 428              	.L39:
 429 0078 00000000 		.word	__stack_chk_guard
 430              		.cfi_endproc
 431              	.LFE7:
 432              		.size	VL53L0X_isqrt, .-VL53L0X_isqrt
 433              		.section	.text.VL53L0X_quadrature_sum,"ax",%progbits
 434              		.align	1
 435              		.p2align 4,,15
 436              		.global	VL53L0X_quadrature_sum
 437              		.syntax unified
 438              		.thumb
 439              		.thumb_func
 440              		.fpu fpv4-sp-d16
 441              		.type	VL53L0X_quadrature_sum, %function
 442              	VL53L0X_quadrature_sum:
 443              	.LFB8:
 444              		.loc 1 156 0
 445              		.cfi_startproc
 446              		@ args = 0, pretend = 0, frame = 16
 447              		@ frame_needed = 0, uses_anonymous_args = 0
 448 0000 00B5     		push	{lr}
 449              		.cfi_def_cfa_offset 4
 450              		.cfi_offset 14, -4
 451 0002 85B0     		sub	sp, sp, #20
 452              		.cfi_def_cfa_offset 24
 453 0004 0190     		str	r0, [sp, #4]
 454 0006 0091     		str	r1, [sp]
 455              		.loc 1 156 0
 456 0008 144B     		ldr	r3, .L47
ARM GAS  C:\Users\PCHAUT~1\AppData\Local\Temp\ccgoQRgJ.s 			page 9


 457 000a 1B68     		ldr	r3, [r3]
 458 000c 0393     		str	r3, [sp, #12]
 459              		.loc 1 167 0
 460 000e 0023     		movs	r3, #0
 461 0010 0293     		str	r3, [sp, #8]
 462              		.loc 1 169 0
 463 0012 019B     		ldr	r3, [sp, #4]
 464 0014 B3F5803F 		cmp	r3, #65536
 465 0018 03D2     		bcs	.L42
 466              		.loc 1 169 0 is_stmt 0 discriminator 1
 467 001a 009B     		ldr	r3, [sp]
 468 001c B3F5803F 		cmp	r3, #65536
 469 0020 03D3     		bcc	.L43
 470              	.L42:
 471              		.loc 1 170 0 is_stmt 1
 472 0022 4FF6FF73 		movw	r3, #65535
 473 0026 0293     		str	r3, [sp, #8]
 474 0028 0CE0     		b	.L44
 475              	.L43:
 476              		.loc 1 172 0
 477 002a 019B     		ldr	r3, [sp, #4]
 478 002c 019A     		ldr	r2, [sp, #4]
 479 002e 02FB03F2 		mul	r2, r2, r3
 480 0032 009B     		ldr	r3, [sp]
 481 0034 0099     		ldr	r1, [sp]
 482 0036 01FB03F3 		mul	r3, r1, r3
 483 003a 1344     		add	r3, r3, r2
 484 003c 1846     		mov	r0, r3
 485 003e FFF7FEFF 		bl	VL53L0X_isqrt
 486 0042 0290     		str	r0, [sp, #8]
 487              	.L44:
 488              		.loc 1 174 0
 489 0044 029B     		ldr	r3, [sp, #8]
 490              		.loc 1 175 0
 491 0046 1846     		mov	r0, r3
 492 0048 044B     		ldr	r3, .L47
 493 004a 039A     		ldr	r2, [sp, #12]
 494 004c 1B68     		ldr	r3, [r3]
 495 004e 9A42     		cmp	r2, r3
 496 0050 01D0     		beq	.L46
 497 0052 FFF7FEFF 		bl	__stack_chk_fail
 498              	.L46:
 499 0056 05B0     		add	sp, sp, #20
 500              		.cfi_def_cfa_offset 4
 501              		@ sp needed
 502 0058 5DF804FB 		ldr	pc, [sp], #4
 503              	.L48:
 504              		.align	2
 505              	.L47:
 506 005c 00000000 		.word	__stack_chk_guard
 507              		.cfi_endproc
 508              	.LFE8:
 509              		.size	VL53L0X_quadrature_sum, .-VL53L0X_quadrature_sum
 510              		.section	.text.VL53L0X_device_read_strobe,"ax",%progbits
 511              		.align	1
 512              		.p2align 4,,15
 513              		.global	VL53L0X_device_read_strobe
ARM GAS  C:\Users\PCHAUT~1\AppData\Local\Temp\ccgoQRgJ.s 			page 10


 514              		.syntax unified
 515              		.thumb
 516              		.thumb_func
 517              		.fpu fpv4-sp-d16
 518              		.type	VL53L0X_device_read_strobe, %function
 519              	VL53L0X_device_read_strobe:
 520              	.LFB9:
 521              		.loc 1 179 0
 522              		.cfi_startproc
 523              		@ args = 0, pretend = 0, frame = 24
 524              		@ frame_needed = 0, uses_anonymous_args = 0
 525 0000 00B5     		push	{lr}
 526              		.cfi_def_cfa_offset 4
 527              		.cfi_offset 14, -4
 528 0002 87B0     		sub	sp, sp, #28
 529              		.cfi_def_cfa_offset 32
 530 0004 0190     		str	r0, [sp, #4]
 531              		.loc 1 179 0
 532 0006 284B     		ldr	r3, .L55
 533 0008 1B68     		ldr	r3, [r3]
 534 000a 0593     		str	r3, [sp, #20]
 535              		.loc 1 180 0
 536 000c 0023     		movs	r3, #0
 537 000e 8DF80F30 		strb	r3, [sp, #15]
 538              		.loc 1 185 0
 539 0012 0022     		movs	r2, #0
 540 0014 8321     		movs	r1, #131
 541 0016 0198     		ldr	r0, [sp, #4]
 542 0018 FFF7FEFF 		bl	VL53L0X_WrByte
 543 001c 0346     		mov	r3, r0
 544 001e 1A46     		mov	r2, r3
 545 0020 9DF80F30 		ldrb	r3, [sp, #15]
 546 0024 1343     		orrs	r3, r3, r2
 547 0026 8DF80F30 		strb	r3, [sp, #15]
 548              		.loc 1 189 0
 549 002a 9DF90F30 		ldrsb	r3, [sp, #15]
 550 002e 002B     		cmp	r3, #0
 551 0030 21D1     		bne	.L50
 552              		.loc 1 190 0
 553 0032 0023     		movs	r3, #0
 554 0034 0493     		str	r3, [sp, #16]
 555              	.L52:
 556              		.loc 1 192 0
 557 0036 0DF10E03 		add	r3, sp, #14
 558 003a 1A46     		mov	r2, r3
 559 003c 8321     		movs	r1, #131
 560 003e 0198     		ldr	r0, [sp, #4]
 561 0040 FFF7FEFF 		bl	VL53L0X_RdByte
 562 0044 0346     		mov	r3, r0
 563 0046 8DF80F30 		strb	r3, [sp, #15]
 564              		.loc 1 193 0
 565 004a 9DF80E30 		ldrb	r3, [sp, #14]	@ zero_extendqisi2
 566 004e 002B     		cmp	r3, #0
 567 0050 0AD1     		bne	.L51
 568              		.loc 1 193 0 is_stmt 0 discriminator 1
 569 0052 9DF90F30 		ldrsb	r3, [sp, #15]
 570 0056 002B     		cmp	r3, #0
ARM GAS  C:\Users\PCHAUT~1\AppData\Local\Temp\ccgoQRgJ.s 			page 11


 571 0058 06D1     		bne	.L51
 572              		.loc 1 196 0 is_stmt 1
 573 005a 049B     		ldr	r3, [sp, #16]
 574 005c 0133     		adds	r3, r3, #1
 575 005e 0493     		str	r3, [sp, #16]
 576              		.loc 1 197 0
 577 0060 049B     		ldr	r3, [sp, #16]
 578 0062 B3F5FA6F 		cmp	r3, #2000
 579 0066 E6D3     		bcc	.L52
 580              	.L51:
 581              		.loc 1 199 0
 582 0068 049B     		ldr	r3, [sp, #16]
 583 006a B3F5FA6F 		cmp	r3, #2000
 584 006e 02D3     		bcc	.L50
 585              		.loc 1 200 0
 586 0070 F923     		movs	r3, #249
 587 0072 8DF80F30 		strb	r3, [sp, #15]
 588              	.L50:
 589              		.loc 1 204 0
 590 0076 0122     		movs	r2, #1
 591 0078 8321     		movs	r1, #131
 592 007a 0198     		ldr	r0, [sp, #4]
 593 007c FFF7FEFF 		bl	VL53L0X_WrByte
 594 0080 0346     		mov	r3, r0
 595 0082 1A46     		mov	r2, r3
 596 0084 9DF80F30 		ldrb	r3, [sp, #15]
 597 0088 1343     		orrs	r3, r3, r2
 598 008a 8DF80F30 		strb	r3, [sp, #15]
 599              		.loc 1 207 0
 600 008e 9DF90F30 		ldrsb	r3, [sp, #15]
 601              		.loc 1 209 0
 602 0092 1846     		mov	r0, r3
 603 0094 044B     		ldr	r3, .L55
 604 0096 059A     		ldr	r2, [sp, #20]
 605 0098 1B68     		ldr	r3, [r3]
 606 009a 9A42     		cmp	r2, r3
 607 009c 01D0     		beq	.L54
 608 009e FFF7FEFF 		bl	__stack_chk_fail
 609              	.L54:
 610 00a2 07B0     		add	sp, sp, #28
 611              		.cfi_def_cfa_offset 4
 612              		@ sp needed
 613 00a4 5DF804FB 		ldr	pc, [sp], #4
 614              	.L56:
 615              		.align	2
 616              	.L55:
 617 00a8 00000000 		.word	__stack_chk_guard
 618              		.cfi_endproc
 619              	.LFE9:
 620              		.size	VL53L0X_device_read_strobe, .-VL53L0X_device_read_strobe
 621              		.section	.text.VL53L0X_get_info_from_device,"ax",%progbits
 622              		.align	1
 623              		.p2align 4,,15
 624              		.global	VL53L0X_get_info_from_device
 625              		.syntax unified
 626              		.thumb
 627              		.thumb_func
ARM GAS  C:\Users\PCHAUT~1\AppData\Local\Temp\ccgoQRgJ.s 			page 12


 628              		.fpu fpv4-sp-d16
 629              		.type	VL53L0X_get_info_from_device, %function
 630              	VL53L0X_get_info_from_device:
 631              	.LFB10:
 632              		.loc 1 212 0
 633              		.cfi_startproc
 634              		@ args = 0, pretend = 0, frame = 96
 635              		@ frame_needed = 0, uses_anonymous_args = 0
 636 0000 00B5     		push	{lr}
 637              		.cfi_def_cfa_offset 4
 638              		.cfi_offset 14, -4
 639 0002 99B0     		sub	sp, sp, #100
 640              		.cfi_def_cfa_offset 104
 641 0004 0190     		str	r0, [sp, #4]
 642 0006 0B46     		mov	r3, r1
 643 0008 8DF80330 		strb	r3, [sp, #3]
 644              		.loc 1 212 0
 645 000c A34B     		ldr	r3, .L71
 646 000e 1B68     		ldr	r3, [r3]
 647 0010 1793     		str	r3, [sp, #92]
 648              		.loc 1 214 0
 649 0012 0023     		movs	r3, #0
 650 0014 8DF81230 		strb	r3, [sp, #18]
 651              		.loc 1 219 0
 652 0018 0023     		movs	r3, #0
 653 001a 8DF81330 		strb	r3, [sp, #19]
 654              		.loc 1 220 0
 655 001e 0023     		movs	r3, #0
 656 0020 8DF81430 		strb	r3, [sp, #20]
 657              		.loc 1 221 0
 658 0024 0023     		movs	r3, #0
 659 0026 0793     		str	r3, [sp, #28]
 660              		.loc 1 222 0
 661 0028 0023     		movs	r3, #0
 662 002a 0893     		str	r3, [sp, #32]
 663              		.loc 1 223 0
 664 002c 0023     		movs	r3, #0
 665 002e 0C93     		str	r3, [sp, #48]
 666              		.loc 1 224 0
 667 0030 0023     		movs	r3, #0
 668 0032 ADF81630 		strh	r3, [sp, #22]	@ movhi
 669              		.loc 1 225 0
 670 0036 4FF4C853 		mov	r3, #6400
 671 003a 0D93     		str	r3, [sp, #52]
 672              		.loc 1 226 0
 673 003c 0023     		movs	r3, #0
 674 003e 0993     		str	r3, [sp, #36]
 675              		.loc 1 227 0
 676 0040 0023     		movs	r3, #0
 677 0042 0A93     		str	r3, [sp, #40]
 678              		.loc 1 231 0
 679 0044 0023     		movs	r3, #0
 680 0046 0E93     		str	r3, [sp, #56]
 681              		.loc 1 238 0
 682 0048 019B     		ldr	r3, [sp, #4]
 683 004a 93F8F030 		ldrb	r3, [r3, #240]
 684 004e 8DF81530 		strb	r3, [sp, #21]
ARM GAS  C:\Users\PCHAUT~1\AppData\Local\Temp\ccgoQRgJ.s 			page 13


 685              		.loc 1 243 0
 686 0052 9DF81530 		ldrb	r3, [sp, #21]	@ zero_extendqisi2
 687 0056 072B     		cmp	r3, #7
 688 0058 00F01684 		beq	.L58
 689              		.loc 1 245 0
 690 005c 0122     		movs	r2, #1
 691 005e 8021     		movs	r1, #128
 692 0060 0198     		ldr	r0, [sp, #4]
 693 0062 FFF7FEFF 		bl	VL53L0X_WrByte
 694 0066 0346     		mov	r3, r0
 695 0068 1A46     		mov	r2, r3
 696 006a 9DF81230 		ldrb	r3, [sp, #18]
 697 006e 1343     		orrs	r3, r3, r2
 698 0070 8DF81230 		strb	r3, [sp, #18]
 699              		.loc 1 246 0
 700 0074 0122     		movs	r2, #1
 701 0076 FF21     		movs	r1, #255
 702 0078 0198     		ldr	r0, [sp, #4]
 703 007a FFF7FEFF 		bl	VL53L0X_WrByte
 704 007e 0346     		mov	r3, r0
 705 0080 1A46     		mov	r2, r3
 706 0082 9DF81230 		ldrb	r3, [sp, #18]
 707 0086 1343     		orrs	r3, r3, r2
 708 0088 8DF81230 		strb	r3, [sp, #18]
 709              		.loc 1 247 0
 710 008c 0022     		movs	r2, #0
 711 008e 0021     		movs	r1, #0
 712 0090 0198     		ldr	r0, [sp, #4]
 713 0092 FFF7FEFF 		bl	VL53L0X_WrByte
 714 0096 0346     		mov	r3, r0
 715 0098 1A46     		mov	r2, r3
 716 009a 9DF81230 		ldrb	r3, [sp, #18]
 717 009e 1343     		orrs	r3, r3, r2
 718 00a0 8DF81230 		strb	r3, [sp, #18]
 719              		.loc 1 249 0
 720 00a4 0622     		movs	r2, #6
 721 00a6 FF21     		movs	r1, #255
 722 00a8 0198     		ldr	r0, [sp, #4]
 723 00aa FFF7FEFF 		bl	VL53L0X_WrByte
 724 00ae 0346     		mov	r3, r0
 725 00b0 1A46     		mov	r2, r3
 726 00b2 9DF81230 		ldrb	r3, [sp, #18]
 727 00b6 1343     		orrs	r3, r3, r2
 728 00b8 8DF81230 		strb	r3, [sp, #18]
 729              		.loc 1 250 0
 730 00bc 0DF10F03 		add	r3, sp, #15
 731 00c0 1A46     		mov	r2, r3
 732 00c2 8321     		movs	r1, #131
 733 00c4 0198     		ldr	r0, [sp, #4]
 734 00c6 FFF7FEFF 		bl	VL53L0X_RdByte
 735 00ca 0346     		mov	r3, r0
 736 00cc 1A46     		mov	r2, r3
 737 00ce 9DF81230 		ldrb	r3, [sp, #18]
 738 00d2 1343     		orrs	r3, r3, r2
 739 00d4 8DF81230 		strb	r3, [sp, #18]
 740              		.loc 1 251 0
 741 00d8 9DF80F30 		ldrb	r3, [sp, #15]	@ zero_extendqisi2
ARM GAS  C:\Users\PCHAUT~1\AppData\Local\Temp\ccgoQRgJ.s 			page 14


 742 00dc 43F00403 		orr	r3, r3, #4
 743 00e0 DBB2     		uxtb	r3, r3
 744 00e2 1A46     		mov	r2, r3
 745 00e4 8321     		movs	r1, #131
 746 00e6 0198     		ldr	r0, [sp, #4]
 747 00e8 FFF7FEFF 		bl	VL53L0X_WrByte
 748 00ec 0346     		mov	r3, r0
 749 00ee 1A46     		mov	r2, r3
 750 00f0 9DF81230 		ldrb	r3, [sp, #18]
 751 00f4 1343     		orrs	r3, r3, r2
 752 00f6 8DF81230 		strb	r3, [sp, #18]
 753              		.loc 1 252 0
 754 00fa 0722     		movs	r2, #7
 755 00fc FF21     		movs	r1, #255
 756 00fe 0198     		ldr	r0, [sp, #4]
 757 0100 FFF7FEFF 		bl	VL53L0X_WrByte
 758 0104 0346     		mov	r3, r0
 759 0106 1A46     		mov	r2, r3
 760 0108 9DF81230 		ldrb	r3, [sp, #18]
 761 010c 1343     		orrs	r3, r3, r2
 762 010e 8DF81230 		strb	r3, [sp, #18]
 763              		.loc 1 253 0
 764 0112 0122     		movs	r2, #1
 765 0114 8121     		movs	r1, #129
 766 0116 0198     		ldr	r0, [sp, #4]
 767 0118 FFF7FEFF 		bl	VL53L0X_WrByte
 768 011c 0346     		mov	r3, r0
 769 011e 1A46     		mov	r2, r3
 770 0120 9DF81230 		ldrb	r3, [sp, #18]
 771 0124 1343     		orrs	r3, r3, r2
 772 0126 8DF81230 		strb	r3, [sp, #18]
 773              		.loc 1 255 0
 774 012a 0198     		ldr	r0, [sp, #4]
 775 012c FFF7FEFF 		bl	VL53L0X_PollingDelay
 776 0130 0346     		mov	r3, r0
 777 0132 1A46     		mov	r2, r3
 778 0134 9DF81230 		ldrb	r3, [sp, #18]
 779 0138 1343     		orrs	r3, r3, r2
 780 013a 8DF81230 		strb	r3, [sp, #18]
 781              		.loc 1 257 0
 782 013e 0122     		movs	r2, #1
 783 0140 8021     		movs	r1, #128
 784 0142 0198     		ldr	r0, [sp, #4]
 785 0144 FFF7FEFF 		bl	VL53L0X_WrByte
 786 0148 0346     		mov	r3, r0
 787 014a 1A46     		mov	r2, r3
 788 014c 9DF81230 		ldrb	r3, [sp, #18]
 789 0150 1343     		orrs	r3, r3, r2
 790 0152 8DF81230 		strb	r3, [sp, #18]
 791              		.loc 1 259 0
 792 0156 9DF80330 		ldrb	r3, [sp, #3]	@ zero_extendqisi2
 793 015a 03F00103 		and	r3, r3, #1
 794 015e 002B     		cmp	r3, #0
 795 0160 00F09E80 		beq	.L59
 796              		.loc 1 260 0 discriminator 1
 797 0164 9DF81530 		ldrb	r3, [sp, #21]	@ zero_extendqisi2
 798 0168 03F00103 		and	r3, r3, #1
ARM GAS  C:\Users\PCHAUT~1\AppData\Local\Temp\ccgoQRgJ.s 			page 15


 799              		.loc 1 259 0 discriminator 1
 800 016c 002B     		cmp	r3, #0
 801 016e 40F09780 		bne	.L59
 802              		.loc 1 261 0
 803 0172 6B22     		movs	r2, #107
 804 0174 9421     		movs	r1, #148
 805 0176 0198     		ldr	r0, [sp, #4]
 806 0178 FFF7FEFF 		bl	VL53L0X_WrByte
 807 017c 0346     		mov	r3, r0
 808 017e 1A46     		mov	r2, r3
 809 0180 9DF81230 		ldrb	r3, [sp, #18]
 810 0184 1343     		orrs	r3, r3, r2
 811 0186 8DF81230 		strb	r3, [sp, #18]
 812              		.loc 1 262 0
 813 018a 0198     		ldr	r0, [sp, #4]
 814 018c FFF7FEFF 		bl	VL53L0X_device_read_strobe
 815 0190 0346     		mov	r3, r0
 816 0192 1A46     		mov	r2, r3
 817 0194 9DF81230 		ldrb	r3, [sp, #18]
 818 0198 1343     		orrs	r3, r3, r2
 819 019a 8DF81230 		strb	r3, [sp, #18]
 820              		.loc 1 263 0
 821 019e 06AB     		add	r3, sp, #24
 822 01a0 1A46     		mov	r2, r3
 823 01a2 9021     		movs	r1, #144
 824 01a4 0198     		ldr	r0, [sp, #4]
 825 01a6 FFF7FEFF 		bl	VL53L0X_RdDWord
 826 01aa 0346     		mov	r3, r0
 827 01ac 1A46     		mov	r2, r3
 828 01ae 9DF81230 		ldrb	r3, [sp, #18]
 829 01b2 1343     		orrs	r3, r3, r2
 830 01b4 8DF81230 		strb	r3, [sp, #18]
 831              		.loc 1 265 0
 832 01b8 069B     		ldr	r3, [sp, #24]
 833 01ba 1B0A     		lsrs	r3, r3, #8
 834 01bc DBB2     		uxtb	r3, r3
 835 01be 03F07F03 		and	r3, r3, #127
 836 01c2 8DF81330 		strb	r3, [sp, #19]
 837              		.loc 1 266 0
 838 01c6 069B     		ldr	r3, [sp, #24]
 839 01c8 DB0B     		lsrs	r3, r3, #15
 840 01ca DBB2     		uxtb	r3, r3
 841 01cc 03F00103 		and	r3, r3, #1
 842 01d0 8DF81430 		strb	r3, [sp, #20]
 843              		.loc 1 268 0
 844 01d4 2422     		movs	r2, #36
 845 01d6 9421     		movs	r1, #148
 846 01d8 0198     		ldr	r0, [sp, #4]
 847 01da FFF7FEFF 		bl	VL53L0X_WrByte
 848 01de 0346     		mov	r3, r0
 849 01e0 1A46     		mov	r2, r3
 850 01e2 9DF81230 		ldrb	r3, [sp, #18]
 851 01e6 1343     		orrs	r3, r3, r2
 852 01e8 8DF81230 		strb	r3, [sp, #18]
 853              		.loc 1 269 0
 854 01ec 0198     		ldr	r0, [sp, #4]
 855 01ee FFF7FEFF 		bl	VL53L0X_device_read_strobe
ARM GAS  C:\Users\PCHAUT~1\AppData\Local\Temp\ccgoQRgJ.s 			page 16


 856 01f2 0346     		mov	r3, r0
 857 01f4 1A46     		mov	r2, r3
 858 01f6 9DF81230 		ldrb	r3, [sp, #18]
 859 01fa 1343     		orrs	r3, r3, r2
 860 01fc 8DF81230 		strb	r3, [sp, #18]
 861              		.loc 1 270 0
 862 0200 06AB     		add	r3, sp, #24
 863 0202 1A46     		mov	r2, r3
 864 0204 9021     		movs	r1, #144
 865 0206 0198     		ldr	r0, [sp, #4]
 866 0208 FFF7FEFF 		bl	VL53L0X_RdDWord
 867 020c 0346     		mov	r3, r0
 868 020e 1A46     		mov	r2, r3
 869 0210 9DF81230 		ldrb	r3, [sp, #18]
 870 0214 1343     		orrs	r3, r3, r2
 871 0216 8DF81230 		strb	r3, [sp, #18]
 872              		.loc 1 273 0
 873 021a 069B     		ldr	r3, [sp, #24]
 874 021c 1B0E     		lsrs	r3, r3, #24
 875 021e DBB2     		uxtb	r3, r3
 876 0220 8DF84030 		strb	r3, [sp, #64]
 877              		.loc 1 275 0
 878 0224 069B     		ldr	r3, [sp, #24]
 879 0226 1B0C     		lsrs	r3, r3, #16
 880 0228 DBB2     		uxtb	r3, r3
 881 022a 8DF84130 		strb	r3, [sp, #65]
 882              		.loc 1 277 0
 883 022e 069B     		ldr	r3, [sp, #24]
 884 0230 1B0A     		lsrs	r3, r3, #8
 885 0232 DBB2     		uxtb	r3, r3
 886 0234 8DF84230 		strb	r3, [sp, #66]
 887              		.loc 1 279 0
 888 0238 069B     		ldr	r3, [sp, #24]
 889 023a DBB2     		uxtb	r3, r3
 890 023c 8DF84330 		strb	r3, [sp, #67]
 891              		.loc 1 281 0
 892 0240 2522     		movs	r2, #37
 893 0242 9421     		movs	r1, #148
 894 0244 0198     		ldr	r0, [sp, #4]
 895 0246 FFF7FEFF 		bl	VL53L0X_WrByte
 896 024a 0346     		mov	r3, r0
 897 024c 1A46     		mov	r2, r3
 898 024e 9DF81230 		ldrb	r3, [sp, #18]
 899 0252 1343     		orrs	r3, r3, r2
 900 0254 8DF81230 		strb	r3, [sp, #18]
 901              		.loc 1 282 0
 902 0258 0198     		ldr	r0, [sp, #4]
 903 025a FFF7FEFF 		bl	VL53L0X_device_read_strobe
 904 025e 0346     		mov	r3, r0
 905 0260 1A46     		mov	r2, r3
 906 0262 9DF81230 		ldrb	r3, [sp, #18]
 907 0266 1343     		orrs	r3, r3, r2
 908 0268 8DF81230 		strb	r3, [sp, #18]
 909              		.loc 1 283 0
 910 026c 06AB     		add	r3, sp, #24
 911 026e 1A46     		mov	r2, r3
 912 0270 9021     		movs	r1, #144
ARM GAS  C:\Users\PCHAUT~1\AppData\Local\Temp\ccgoQRgJ.s 			page 17


 913 0272 0198     		ldr	r0, [sp, #4]
 914 0274 FFF7FEFF 		bl	VL53L0X_RdDWord
 915 0278 0346     		mov	r3, r0
 916 027a 1A46     		mov	r2, r3
 917 027c 9DF81230 		ldrb	r3, [sp, #18]
 918 0280 1343     		orrs	r3, r3, r2
 919 0282 8DF81230 		strb	r3, [sp, #18]
 920              		.loc 1 285 0
 921 0286 069B     		ldr	r3, [sp, #24]
 922 0288 1B0E     		lsrs	r3, r3, #24
 923 028a DBB2     		uxtb	r3, r3
 924 028c 8DF84430 		strb	r3, [sp, #68]
 925              		.loc 1 287 0
 926 0290 069B     		ldr	r3, [sp, #24]
 927 0292 1B0C     		lsrs	r3, r3, #16
 928 0294 DBB2     		uxtb	r3, r3
 929 0296 8DF84530 		strb	r3, [sp, #69]
 930 029a 01E0     		b	.L72
 931              	.L73:
 932              		.align	2
 933              	.L71:
 934 029c 00000000 		.word	__stack_chk_guard
 935              	.L72:
 936              	.L59:
 937              		.loc 1 291 0
 938 02a0 9DF80330 		ldrb	r3, [sp, #3]	@ zero_extendqisi2
 939 02a4 03F00203 		and	r3, r3, #2
 940 02a8 002B     		cmp	r3, #0
 941 02aa 00F09481 		beq	.L60
 942              		.loc 1 292 0 discriminator 1
 943 02ae 9DF81530 		ldrb	r3, [sp, #21]	@ zero_extendqisi2
 944 02b2 03F00203 		and	r3, r3, #2
 945              		.loc 1 291 0 discriminator 1
 946 02b6 002B     		cmp	r3, #0
 947 02b8 40F08D81 		bne	.L60
 948              		.loc 1 294 0
 949 02bc 0222     		movs	r2, #2
 950 02be 9421     		movs	r1, #148
 951 02c0 0198     		ldr	r0, [sp, #4]
 952 02c2 FFF7FEFF 		bl	VL53L0X_WrByte
 953 02c6 0346     		mov	r3, r0
 954 02c8 1A46     		mov	r2, r3
 955 02ca 9DF81230 		ldrb	r3, [sp, #18]
 956 02ce 1343     		orrs	r3, r3, r2
 957 02d0 8DF81230 		strb	r3, [sp, #18]
 958              		.loc 1 295 0
 959 02d4 0198     		ldr	r0, [sp, #4]
 960 02d6 FFF7FEFF 		bl	VL53L0X_device_read_strobe
 961 02da 0346     		mov	r3, r0
 962 02dc 1A46     		mov	r2, r3
 963 02de 9DF81230 		ldrb	r3, [sp, #18]
 964 02e2 1343     		orrs	r3, r3, r2
 965 02e4 8DF81230 		strb	r3, [sp, #18]
 966              		.loc 1 296 0
 967 02e8 04AB     		add	r3, sp, #16
 968 02ea 1A46     		mov	r2, r3
 969 02ec 9021     		movs	r1, #144
ARM GAS  C:\Users\PCHAUT~1\AppData\Local\Temp\ccgoQRgJ.s 			page 18


 970 02ee 0198     		ldr	r0, [sp, #4]
 971 02f0 FFF7FEFF 		bl	VL53L0X_RdByte
 972 02f4 0346     		mov	r3, r0
 973 02f6 1A46     		mov	r2, r3
 974 02f8 9DF81230 		ldrb	r3, [sp, #18]
 975 02fc 1343     		orrs	r3, r3, r2
 976 02fe 8DF81230 		strb	r3, [sp, #18]
 977              		.loc 1 298 0
 978 0302 7B22     		movs	r2, #123
 979 0304 9421     		movs	r1, #148
 980 0306 0198     		ldr	r0, [sp, #4]
 981 0308 FFF7FEFF 		bl	VL53L0X_WrByte
 982 030c 0346     		mov	r3, r0
 983 030e 1A46     		mov	r2, r3
 984 0310 9DF81230 		ldrb	r3, [sp, #18]
 985 0314 1343     		orrs	r3, r3, r2
 986 0316 8DF81230 		strb	r3, [sp, #18]
 987              		.loc 1 299 0
 988 031a 0198     		ldr	r0, [sp, #4]
 989 031c FFF7FEFF 		bl	VL53L0X_device_read_strobe
 990 0320 0346     		mov	r3, r0
 991 0322 1A46     		mov	r2, r3
 992 0324 9DF81230 		ldrb	r3, [sp, #18]
 993 0328 1343     		orrs	r3, r3, r2
 994 032a 8DF81230 		strb	r3, [sp, #18]
 995              		.loc 1 300 0
 996 032e 0DF11103 		add	r3, sp, #17
 997 0332 1A46     		mov	r2, r3
 998 0334 9021     		movs	r1, #144
 999 0336 0198     		ldr	r0, [sp, #4]
 1000 0338 FFF7FEFF 		bl	VL53L0X_RdByte
 1001 033c 0346     		mov	r3, r0
 1002 033e 1A46     		mov	r2, r3
 1003 0340 9DF81230 		ldrb	r3, [sp, #18]
 1004 0344 1343     		orrs	r3, r3, r2
 1005 0346 8DF81230 		strb	r3, [sp, #18]
 1006              		.loc 1 302 0
 1007 034a 7722     		movs	r2, #119
 1008 034c 9421     		movs	r1, #148
 1009 034e 0198     		ldr	r0, [sp, #4]
 1010 0350 FFF7FEFF 		bl	VL53L0X_WrByte
 1011 0354 0346     		mov	r3, r0
 1012 0356 1A46     		mov	r2, r3
 1013 0358 9DF81230 		ldrb	r3, [sp, #18]
 1014 035c 1343     		orrs	r3, r3, r2
 1015 035e 8DF81230 		strb	r3, [sp, #18]
 1016              		.loc 1 303 0
 1017 0362 0198     		ldr	r0, [sp, #4]
 1018 0364 FFF7FEFF 		bl	VL53L0X_device_read_strobe
 1019 0368 0346     		mov	r3, r0
 1020 036a 1A46     		mov	r2, r3
 1021 036c 9DF81230 		ldrb	r3, [sp, #18]
 1022 0370 1343     		orrs	r3, r3, r2
 1023 0372 8DF81230 		strb	r3, [sp, #18]
 1024              		.loc 1 304 0
 1025 0376 06AB     		add	r3, sp, #24
 1026 0378 1A46     		mov	r2, r3
ARM GAS  C:\Users\PCHAUT~1\AppData\Local\Temp\ccgoQRgJ.s 			page 19


 1027 037a 9021     		movs	r1, #144
 1028 037c 0198     		ldr	r0, [sp, #4]
 1029 037e FFF7FEFF 		bl	VL53L0X_RdDWord
 1030 0382 0346     		mov	r3, r0
 1031 0384 1A46     		mov	r2, r3
 1032 0386 9DF81230 		ldrb	r3, [sp, #18]
 1033 038a 1343     		orrs	r3, r3, r2
 1034 038c 8DF81230 		strb	r3, [sp, #18]
 1035              		.loc 1 306 0
 1036 0390 069B     		ldr	r3, [sp, #24]
 1037 0392 5B0E     		lsrs	r3, r3, #25
 1038 0394 DBB2     		uxtb	r3, r3
 1039 0396 03F07F03 		and	r3, r3, #127
 1040 039a DBB2     		uxtb	r3, r3
 1041 039c 8DF84830 		strb	r3, [sp, #72]
 1042              		.loc 1 307 0
 1043 03a0 069B     		ldr	r3, [sp, #24]
 1044 03a2 9B0C     		lsrs	r3, r3, #18
 1045 03a4 DBB2     		uxtb	r3, r3
 1046 03a6 03F07F03 		and	r3, r3, #127
 1047 03aa DBB2     		uxtb	r3, r3
 1048 03ac 8DF84930 		strb	r3, [sp, #73]
 1049              		.loc 1 308 0
 1050 03b0 069B     		ldr	r3, [sp, #24]
 1051 03b2 DB0A     		lsrs	r3, r3, #11
 1052 03b4 DBB2     		uxtb	r3, r3
 1053 03b6 03F07F03 		and	r3, r3, #127
 1054 03ba DBB2     		uxtb	r3, r3
 1055 03bc 8DF84A30 		strb	r3, [sp, #74]
 1056              		.loc 1 309 0
 1057 03c0 069B     		ldr	r3, [sp, #24]
 1058 03c2 1B09     		lsrs	r3, r3, #4
 1059 03c4 DBB2     		uxtb	r3, r3
 1060 03c6 03F07F03 		and	r3, r3, #127
 1061 03ca DBB2     		uxtb	r3, r3
 1062 03cc 8DF84B30 		strb	r3, [sp, #75]
 1063              		.loc 1 311 0
 1064 03d0 069B     		ldr	r3, [sp, #24]
 1065 03d2 DBB2     		uxtb	r3, r3
 1066 03d4 DB00     		lsls	r3, r3, #3
 1067 03d6 DBB2     		uxtb	r3, r3
 1068 03d8 03F07803 		and	r3, r3, #120
 1069 03dc DBB2     		uxtb	r3, r3
 1070 03de 8DF80F30 		strb	r3, [sp, #15]
 1071              		.loc 1 313 0
 1072 03e2 7822     		movs	r2, #120
 1073 03e4 9421     		movs	r1, #148
 1074 03e6 0198     		ldr	r0, [sp, #4]
 1075 03e8 FFF7FEFF 		bl	VL53L0X_WrByte
 1076 03ec 0346     		mov	r3, r0
 1077 03ee 1A46     		mov	r2, r3
 1078 03f0 9DF81230 		ldrb	r3, [sp, #18]
 1079 03f4 1343     		orrs	r3, r3, r2
 1080 03f6 8DF81230 		strb	r3, [sp, #18]
 1081              		.loc 1 314 0
 1082 03fa 0198     		ldr	r0, [sp, #4]
 1083 03fc FFF7FEFF 		bl	VL53L0X_device_read_strobe
ARM GAS  C:\Users\PCHAUT~1\AppData\Local\Temp\ccgoQRgJ.s 			page 20


 1084 0400 0346     		mov	r3, r0
 1085 0402 1A46     		mov	r2, r3
 1086 0404 9DF81230 		ldrb	r3, [sp, #18]
 1087 0408 1343     		orrs	r3, r3, r2
 1088 040a 8DF81230 		strb	r3, [sp, #18]
 1089              		.loc 1 315 0
 1090 040e 06AB     		add	r3, sp, #24
 1091 0410 1A46     		mov	r2, r3
 1092 0412 9021     		movs	r1, #144
 1093 0414 0198     		ldr	r0, [sp, #4]
 1094 0416 FFF7FEFF 		bl	VL53L0X_RdDWord
 1095 041a 0346     		mov	r3, r0
 1096 041c 1A46     		mov	r2, r3
 1097 041e 9DF81230 		ldrb	r3, [sp, #18]
 1098 0422 1343     		orrs	r3, r3, r2
 1099 0424 8DF81230 		strb	r3, [sp, #18]
 1100              		.loc 1 318 0
 1101 0428 069B     		ldr	r3, [sp, #24]
 1102 042a 5B0F     		lsrs	r3, r3, #29
 1103 042c DBB2     		uxtb	r3, r3
 1104 042e 03F07F03 		and	r3, r3, #127
 1105 0432 DAB2     		uxtb	r2, r3
 1106              		.loc 1 317 0
 1107 0434 9DF80F30 		ldrb	r3, [sp, #15]	@ zero_extendqisi2
 1108 0438 1344     		add	r3, r3, r2
 1109 043a DBB2     		uxtb	r3, r3
 1110 043c 8DF84C30 		strb	r3, [sp, #76]
 1111              		.loc 1 319 0
 1112 0440 069B     		ldr	r3, [sp, #24]
 1113 0442 9B0D     		lsrs	r3, r3, #22
 1114 0444 DBB2     		uxtb	r3, r3
 1115 0446 03F07F03 		and	r3, r3, #127
 1116 044a DBB2     		uxtb	r3, r3
 1117 044c 8DF84D30 		strb	r3, [sp, #77]
 1118              		.loc 1 320 0
 1119 0450 069B     		ldr	r3, [sp, #24]
 1120 0452 DB0B     		lsrs	r3, r3, #15
 1121 0454 DBB2     		uxtb	r3, r3
 1122 0456 03F07F03 		and	r3, r3, #127
 1123 045a DBB2     		uxtb	r3, r3
 1124 045c 8DF84E30 		strb	r3, [sp, #78]
 1125              		.loc 1 321 0
 1126 0460 069B     		ldr	r3, [sp, #24]
 1127 0462 1B0A     		lsrs	r3, r3, #8
 1128 0464 DBB2     		uxtb	r3, r3
 1129 0466 03F07F03 		and	r3, r3, #127
 1130 046a DBB2     		uxtb	r3, r3
 1131 046c 8DF84F30 		strb	r3, [sp, #79]
 1132              		.loc 1 322 0
 1133 0470 069B     		ldr	r3, [sp, #24]
 1134 0472 5B08     		lsrs	r3, r3, #1
 1135 0474 DBB2     		uxtb	r3, r3
 1136 0476 03F07F03 		and	r3, r3, #127
 1137 047a DBB2     		uxtb	r3, r3
 1138 047c 8DF85030 		strb	r3, [sp, #80]
 1139              		.loc 1 324 0
 1140 0480 069B     		ldr	r3, [sp, #24]
ARM GAS  C:\Users\PCHAUT~1\AppData\Local\Temp\ccgoQRgJ.s 			page 21


 1141 0482 DBB2     		uxtb	r3, r3
 1142 0484 9B01     		lsls	r3, r3, #6
 1143 0486 DBB2     		uxtb	r3, r3
 1144 0488 03F04003 		and	r3, r3, #64
 1145 048c DBB2     		uxtb	r3, r3
 1146 048e 8DF80F30 		strb	r3, [sp, #15]
 1147              		.loc 1 326 0
 1148 0492 7922     		movs	r2, #121
 1149 0494 9421     		movs	r1, #148
 1150 0496 0198     		ldr	r0, [sp, #4]
 1151 0498 FFF7FEFF 		bl	VL53L0X_WrByte
 1152 049c 0346     		mov	r3, r0
 1153 049e 1A46     		mov	r2, r3
 1154 04a0 9DF81230 		ldrb	r3, [sp, #18]
 1155 04a4 1343     		orrs	r3, r3, r2
 1156 04a6 8DF81230 		strb	r3, [sp, #18]
 1157              		.loc 1 328 0
 1158 04aa 0198     		ldr	r0, [sp, #4]
 1159 04ac FFF7FEFF 		bl	VL53L0X_device_read_strobe
 1160 04b0 0346     		mov	r3, r0
 1161 04b2 1A46     		mov	r2, r3
 1162 04b4 9DF81230 		ldrb	r3, [sp, #18]
 1163 04b8 1343     		orrs	r3, r3, r2
 1164 04ba 8DF81230 		strb	r3, [sp, #18]
 1165              		.loc 1 330 0
 1166 04be 06AB     		add	r3, sp, #24
 1167 04c0 1A46     		mov	r2, r3
 1168 04c2 9021     		movs	r1, #144
 1169 04c4 0198     		ldr	r0, [sp, #4]
 1170 04c6 FFF7FEFF 		bl	VL53L0X_RdDWord
 1171 04ca 0346     		mov	r3, r0
 1172 04cc 1A46     		mov	r2, r3
 1173 04ce 9DF81230 		ldrb	r3, [sp, #18]
 1174 04d2 1343     		orrs	r3, r3, r2
 1175 04d4 8DF81230 		strb	r3, [sp, #18]
 1176              		.loc 1 333 0
 1177 04d8 069B     		ldr	r3, [sp, #24]
 1178 04da 9B0E     		lsrs	r3, r3, #26
 1179 04dc DBB2     		uxtb	r3, r3
 1180 04de 03F07F03 		and	r3, r3, #127
 1181 04e2 DAB2     		uxtb	r2, r3
 1182              		.loc 1 332 0
 1183 04e4 9DF80F30 		ldrb	r3, [sp, #15]	@ zero_extendqisi2
 1184 04e8 1344     		add	r3, r3, r2
 1185 04ea DBB2     		uxtb	r3, r3
 1186 04ec 8DF85130 		strb	r3, [sp, #81]
 1187              		.loc 1 334 0
 1188 04f0 069B     		ldr	r3, [sp, #24]
 1189 04f2 DB0C     		lsrs	r3, r3, #19
 1190 04f4 DBB2     		uxtb	r3, r3
 1191 04f6 03F07F03 		and	r3, r3, #127
 1192 04fa DBB2     		uxtb	r3, r3
 1193 04fc 8DF85230 		strb	r3, [sp, #82]
 1194              		.loc 1 335 0
 1195 0500 069B     		ldr	r3, [sp, #24]
 1196 0502 1B0B     		lsrs	r3, r3, #12
 1197 0504 DBB2     		uxtb	r3, r3
ARM GAS  C:\Users\PCHAUT~1\AppData\Local\Temp\ccgoQRgJ.s 			page 22


 1198 0506 03F07F03 		and	r3, r3, #127
 1199 050a DBB2     		uxtb	r3, r3
 1200 050c 8DF85330 		strb	r3, [sp, #83]
 1201              		.loc 1 336 0
 1202 0510 069B     		ldr	r3, [sp, #24]
 1203 0512 5B09     		lsrs	r3, r3, #5
 1204 0514 DBB2     		uxtb	r3, r3
 1205 0516 03F07F03 		and	r3, r3, #127
 1206 051a DBB2     		uxtb	r3, r3
 1207 051c 8DF85430 		strb	r3, [sp, #84]
 1208              		.loc 1 338 0
 1209 0520 069B     		ldr	r3, [sp, #24]
 1210 0522 DBB2     		uxtb	r3, r3
 1211 0524 9B00     		lsls	r3, r3, #2
 1212 0526 DBB2     		uxtb	r3, r3
 1213 0528 03F07C03 		and	r3, r3, #124
 1214 052c DBB2     		uxtb	r3, r3
 1215 052e 8DF80F30 		strb	r3, [sp, #15]
 1216              		.loc 1 340 0
 1217 0532 7A22     		movs	r2, #122
 1218 0534 9421     		movs	r1, #148
 1219 0536 0198     		ldr	r0, [sp, #4]
 1220 0538 FFF7FEFF 		bl	VL53L0X_WrByte
 1221 053c 0346     		mov	r3, r0
 1222 053e 1A46     		mov	r2, r3
 1223 0540 9DF81230 		ldrb	r3, [sp, #18]
 1224 0544 1343     		orrs	r3, r3, r2
 1225 0546 8DF81230 		strb	r3, [sp, #18]
 1226              		.loc 1 342 0
 1227 054a 0198     		ldr	r0, [sp, #4]
 1228 054c FFF7FEFF 		bl	VL53L0X_device_read_strobe
 1229 0550 0346     		mov	r3, r0
 1230 0552 1A46     		mov	r2, r3
 1231 0554 9DF81230 		ldrb	r3, [sp, #18]
 1232 0558 1343     		orrs	r3, r3, r2
 1233 055a 8DF81230 		strb	r3, [sp, #18]
 1234              		.loc 1 344 0
 1235 055e 06AB     		add	r3, sp, #24
 1236 0560 1A46     		mov	r2, r3
 1237 0562 9021     		movs	r1, #144
 1238 0564 0198     		ldr	r0, [sp, #4]
 1239 0566 FFF7FEFF 		bl	VL53L0X_RdDWord
 1240 056a 0346     		mov	r3, r0
 1241 056c 1A46     		mov	r2, r3
 1242 056e 9DF81230 		ldrb	r3, [sp, #18]
 1243 0572 1343     		orrs	r3, r3, r2
 1244 0574 8DF81230 		strb	r3, [sp, #18]
 1245              		.loc 1 347 0
 1246 0578 069B     		ldr	r3, [sp, #24]
 1247 057a 9B0F     		lsrs	r3, r3, #30
 1248 057c DBB2     		uxtb	r3, r3
 1249 057e 03F07F03 		and	r3, r3, #127
 1250 0582 DAB2     		uxtb	r2, r3
 1251              		.loc 1 346 0
 1252 0584 9DF80F30 		ldrb	r3, [sp, #15]	@ zero_extendqisi2
 1253 0588 1344     		add	r3, r3, r2
 1254 058a DBB2     		uxtb	r3, r3
ARM GAS  C:\Users\PCHAUT~1\AppData\Local\Temp\ccgoQRgJ.s 			page 23


 1255 058c 8DF85530 		strb	r3, [sp, #85]
 1256              		.loc 1 348 0
 1257 0590 069B     		ldr	r3, [sp, #24]
 1258 0592 DB0D     		lsrs	r3, r3, #23
 1259 0594 DBB2     		uxtb	r3, r3
 1260 0596 03F07F03 		and	r3, r3, #127
 1261 059a DBB2     		uxtb	r3, r3
 1262 059c 8DF85630 		strb	r3, [sp, #86]
 1263              		.loc 1 349 0
 1264 05a0 069B     		ldr	r3, [sp, #24]
 1265 05a2 1B0C     		lsrs	r3, r3, #16
 1266 05a4 DBB2     		uxtb	r3, r3
 1267 05a6 03F07F03 		and	r3, r3, #127
 1268 05aa DBB2     		uxtb	r3, r3
 1269 05ac 8DF85730 		strb	r3, [sp, #87]
 1270              		.loc 1 350 0
 1271 05b0 069B     		ldr	r3, [sp, #24]
 1272 05b2 5B0A     		lsrs	r3, r3, #9
 1273 05b4 DBB2     		uxtb	r3, r3
 1274 05b6 03F07F03 		and	r3, r3, #127
 1275 05ba DBB2     		uxtb	r3, r3
 1276 05bc 8DF85830 		strb	r3, [sp, #88]
 1277              		.loc 1 351 0
 1278 05c0 069B     		ldr	r3, [sp, #24]
 1279 05c2 9B08     		lsrs	r3, r3, #2
 1280 05c4 DBB2     		uxtb	r3, r3
 1281 05c6 03F07F03 		and	r3, r3, #127
 1282 05ca DBB2     		uxtb	r3, r3
 1283 05cc 8DF85930 		strb	r3, [sp, #89]
 1284              		.loc 1 352 0
 1285 05d0 0023     		movs	r3, #0
 1286 05d2 8DF85A30 		strb	r3, [sp, #90]
 1287              	.L60:
 1288              		.loc 1 356 0
 1289 05d6 9DF80330 		ldrb	r3, [sp, #3]	@ zero_extendqisi2
 1290 05da 03F00403 		and	r3, r3, #4
 1291 05de 002B     		cmp	r3, #0
 1292 05e0 00F0EB80 		beq	.L61
 1293              		.loc 1 357 0 discriminator 1
 1294 05e4 9DF81530 		ldrb	r3, [sp, #21]	@ zero_extendqisi2
 1295 05e8 03F00403 		and	r3, r3, #4
 1296              		.loc 1 356 0 discriminator 1
 1297 05ec 002B     		cmp	r3, #0
 1298 05ee 40F0E480 		bne	.L61
 1299              		.loc 1 359 0
 1300 05f2 7B22     		movs	r2, #123
 1301 05f4 9421     		movs	r1, #148
 1302 05f6 0198     		ldr	r0, [sp, #4]
 1303 05f8 FFF7FEFF 		bl	VL53L0X_WrByte
 1304 05fc 0346     		mov	r3, r0
 1305 05fe 1A46     		mov	r2, r3
 1306 0600 9DF81230 		ldrb	r3, [sp, #18]
 1307 0604 1343     		orrs	r3, r3, r2
 1308 0606 8DF81230 		strb	r3, [sp, #18]
 1309              		.loc 1 360 0
 1310 060a 0198     		ldr	r0, [sp, #4]
 1311 060c FFF7FEFF 		bl	VL53L0X_device_read_strobe
ARM GAS  C:\Users\PCHAUT~1\AppData\Local\Temp\ccgoQRgJ.s 			page 24


 1312 0610 0346     		mov	r3, r0
 1313 0612 1A46     		mov	r2, r3
 1314 0614 9DF81230 		ldrb	r3, [sp, #18]
 1315 0618 1343     		orrs	r3, r3, r2
 1316 061a 8DF81230 		strb	r3, [sp, #18]
 1317              		.loc 1 361 0
 1318 061e 07AB     		add	r3, sp, #28
 1319 0620 1A46     		mov	r2, r3
 1320 0622 9021     		movs	r1, #144
 1321 0624 0198     		ldr	r0, [sp, #4]
 1322 0626 FFF7FEFF 		bl	VL53L0X_RdDWord
 1323 062a 0346     		mov	r3, r0
 1324 062c 1A46     		mov	r2, r3
 1325 062e 9DF81230 		ldrb	r3, [sp, #18]
 1326 0632 1343     		orrs	r3, r3, r2
 1327 0634 8DF81230 		strb	r3, [sp, #18]
 1328              		.loc 1 363 0
 1329 0638 7C22     		movs	r2, #124
 1330 063a 9421     		movs	r1, #148
 1331 063c 0198     		ldr	r0, [sp, #4]
 1332 063e FFF7FEFF 		bl	VL53L0X_WrByte
 1333 0642 0346     		mov	r3, r0
 1334 0644 1A46     		mov	r2, r3
 1335 0646 9DF81230 		ldrb	r3, [sp, #18]
 1336 064a 1343     		orrs	r3, r3, r2
 1337 064c 8DF81230 		strb	r3, [sp, #18]
 1338              		.loc 1 364 0
 1339 0650 0198     		ldr	r0, [sp, #4]
 1340 0652 FFF7FEFF 		bl	VL53L0X_device_read_strobe
 1341 0656 0346     		mov	r3, r0
 1342 0658 1A46     		mov	r2, r3
 1343 065a 9DF81230 		ldrb	r3, [sp, #18]
 1344 065e 1343     		orrs	r3, r3, r2
 1345 0660 8DF81230 		strb	r3, [sp, #18]
 1346              		.loc 1 365 0
 1347 0664 08AB     		add	r3, sp, #32
 1348 0666 1A46     		mov	r2, r3
 1349 0668 9021     		movs	r1, #144
 1350 066a 0198     		ldr	r0, [sp, #4]
 1351 066c FFF7FEFF 		bl	VL53L0X_RdDWord
 1352 0670 0346     		mov	r3, r0
 1353 0672 1A46     		mov	r2, r3
 1354 0674 9DF81230 		ldrb	r3, [sp, #18]
 1355 0678 1343     		orrs	r3, r3, r2
 1356 067a 8DF81230 		strb	r3, [sp, #18]
 1357              		.loc 1 367 0
 1358 067e 7322     		movs	r2, #115
 1359 0680 9421     		movs	r1, #148
 1360 0682 0198     		ldr	r0, [sp, #4]
 1361 0684 FFF7FEFF 		bl	VL53L0X_WrByte
 1362 0688 0346     		mov	r3, r0
 1363 068a 1A46     		mov	r2, r3
 1364 068c 9DF81230 		ldrb	r3, [sp, #18]
 1365 0690 1343     		orrs	r3, r3, r2
 1366 0692 8DF81230 		strb	r3, [sp, #18]
 1367              		.loc 1 368 0
 1368 0696 0198     		ldr	r0, [sp, #4]
ARM GAS  C:\Users\PCHAUT~1\AppData\Local\Temp\ccgoQRgJ.s 			page 25


 1369 0698 FFF7FEFF 		bl	VL53L0X_device_read_strobe
 1370 069c 0346     		mov	r3, r0
 1371 069e 1A46     		mov	r2, r3
 1372 06a0 9DF81230 		ldrb	r3, [sp, #18]
 1373 06a4 1343     		orrs	r3, r3, r2
 1374 06a6 8DF81230 		strb	r3, [sp, #18]
 1375              		.loc 1 369 0
 1376 06aa 06AB     		add	r3, sp, #24
 1377 06ac 1A46     		mov	r2, r3
 1378 06ae 9021     		movs	r1, #144
 1379 06b0 0198     		ldr	r0, [sp, #4]
 1380 06b2 FFF7FEFF 		bl	VL53L0X_RdDWord
 1381 06b6 0346     		mov	r3, r0
 1382 06b8 1A46     		mov	r2, r3
 1383 06ba 9DF81230 		ldrb	r3, [sp, #18]
 1384 06be 1343     		orrs	r3, r3, r2
 1385 06c0 8DF81230 		strb	r3, [sp, #18]
 1386              		.loc 1 372 0
 1387 06c4 069B     		ldr	r3, [sp, #24]
 1388 06c6 1B02     		lsls	r3, r3, #8
 1389              		.loc 1 371 0
 1390 06c8 9BB2     		uxth	r3, r3
 1391 06ca 0A93     		str	r3, [sp, #40]
 1392              		.loc 1 374 0
 1393 06cc 7422     		movs	r2, #116
 1394 06ce 9421     		movs	r1, #148
 1395 06d0 0198     		ldr	r0, [sp, #4]
 1396 06d2 FFF7FEFF 		bl	VL53L0X_WrByte
 1397 06d6 0346     		mov	r3, r0
 1398 06d8 1A46     		mov	r2, r3
 1399 06da 9DF81230 		ldrb	r3, [sp, #18]
 1400 06de 1343     		orrs	r3, r3, r2
 1401 06e0 8DF81230 		strb	r3, [sp, #18]
 1402              		.loc 1 375 0
 1403 06e4 0198     		ldr	r0, [sp, #4]
 1404 06e6 FFF7FEFF 		bl	VL53L0X_device_read_strobe
 1405 06ea 0346     		mov	r3, r0
 1406 06ec 1A46     		mov	r2, r3
 1407 06ee 9DF81230 		ldrb	r3, [sp, #18]
 1408 06f2 1343     		orrs	r3, r3, r2
 1409 06f4 8DF81230 		strb	r3, [sp, #18]
 1410              		.loc 1 376 0
 1411 06f8 06AB     		add	r3, sp, #24
 1412 06fa 1A46     		mov	r2, r3
 1413 06fc 9021     		movs	r1, #144
 1414 06fe 0198     		ldr	r0, [sp, #4]
 1415 0700 FFF7FEFF 		bl	VL53L0X_RdDWord
 1416 0704 0346     		mov	r3, r0
 1417 0706 1A46     		mov	r2, r3
 1418 0708 9DF81230 		ldrb	r3, [sp, #18]
 1419 070c 1343     		orrs	r3, r3, r2
 1420 070e 8DF81230 		strb	r3, [sp, #18]
 1421              		.loc 1 379 0
 1422 0712 069B     		ldr	r3, [sp, #24]
 1423 0714 1B0E     		lsrs	r3, r3, #24
 1424              		.loc 1 378 0
 1425 0716 0A9A     		ldr	r2, [sp, #40]
ARM GAS  C:\Users\PCHAUT~1\AppData\Local\Temp\ccgoQRgJ.s 			page 26


 1426 0718 1343     		orrs	r3, r3, r2
 1427 071a 0A93     		str	r3, [sp, #40]
 1428              		.loc 1 381 0
 1429 071c 7522     		movs	r2, #117
 1430 071e 9421     		movs	r1, #148
 1431 0720 0198     		ldr	r0, [sp, #4]
 1432 0722 FFF7FEFF 		bl	VL53L0X_WrByte
 1433 0726 0346     		mov	r3, r0
 1434 0728 1A46     		mov	r2, r3
 1435 072a 9DF81230 		ldrb	r3, [sp, #18]
 1436 072e 1343     		orrs	r3, r3, r2
 1437 0730 8DF81230 		strb	r3, [sp, #18]
 1438              		.loc 1 382 0
 1439 0734 0198     		ldr	r0, [sp, #4]
 1440 0736 FFF7FEFF 		bl	VL53L0X_device_read_strobe
 1441 073a 0346     		mov	r3, r0
 1442 073c 1A46     		mov	r2, r3
 1443 073e 9DF81230 		ldrb	r3, [sp, #18]
 1444 0742 1343     		orrs	r3, r3, r2
 1445 0744 8DF81230 		strb	r3, [sp, #18]
 1446              		.loc 1 383 0
 1447 0748 06AB     		add	r3, sp, #24
 1448 074a 1A46     		mov	r2, r3
 1449 074c 9021     		movs	r1, #144
 1450 074e 0198     		ldr	r0, [sp, #4]
 1451 0750 FFF7FEFF 		bl	VL53L0X_RdDWord
 1452 0754 0346     		mov	r3, r0
 1453 0756 1A46     		mov	r2, r3
 1454 0758 9DF81230 		ldrb	r3, [sp, #18]
 1455 075c 1343     		orrs	r3, r3, r2
 1456 075e 8DF81230 		strb	r3, [sp, #18]
 1457              		.loc 1 386 0
 1458 0762 069B     		ldr	r3, [sp, #24]
 1459 0764 1B02     		lsls	r3, r3, #8
 1460              		.loc 1 385 0
 1461 0766 9BB2     		uxth	r3, r3
 1462 0768 0993     		str	r3, [sp, #36]
 1463              		.loc 1 388 0
 1464 076a 7622     		movs	r2, #118
 1465 076c 9421     		movs	r1, #148
 1466 076e 0198     		ldr	r0, [sp, #4]
 1467 0770 FFF7FEFF 		bl	VL53L0X_WrByte
 1468 0774 0346     		mov	r3, r0
 1469 0776 1A46     		mov	r2, r3
 1470 0778 9DF81230 		ldrb	r3, [sp, #18]
 1471 077c 1343     		orrs	r3, r3, r2
 1472 077e 8DF81230 		strb	r3, [sp, #18]
 1473              		.loc 1 389 0
 1474 0782 0198     		ldr	r0, [sp, #4]
 1475 0784 FFF7FEFF 		bl	VL53L0X_device_read_strobe
 1476 0788 0346     		mov	r3, r0
 1477 078a 1A46     		mov	r2, r3
 1478 078c 9DF81230 		ldrb	r3, [sp, #18]
 1479 0790 1343     		orrs	r3, r3, r2
 1480 0792 8DF81230 		strb	r3, [sp, #18]
 1481              		.loc 1 390 0
 1482 0796 06AB     		add	r3, sp, #24
ARM GAS  C:\Users\PCHAUT~1\AppData\Local\Temp\ccgoQRgJ.s 			page 27


 1483 0798 1A46     		mov	r2, r3
 1484 079a 9021     		movs	r1, #144
 1485 079c 0198     		ldr	r0, [sp, #4]
 1486 079e FFF7FEFF 		bl	VL53L0X_RdDWord
 1487 07a2 0346     		mov	r3, r0
 1488 07a4 1A46     		mov	r2, r3
 1489 07a6 9DF81230 		ldrb	r3, [sp, #18]
 1490 07aa 1343     		orrs	r3, r3, r2
 1491 07ac 8DF81230 		strb	r3, [sp, #18]
 1492              		.loc 1 393 0
 1493 07b0 069B     		ldr	r3, [sp, #24]
 1494 07b2 1B0E     		lsrs	r3, r3, #24
 1495              		.loc 1 392 0
 1496 07b4 099A     		ldr	r2, [sp, #36]
 1497 07b6 1343     		orrs	r3, r3, r2
 1498 07b8 0993     		str	r3, [sp, #36]
 1499              	.L61:
 1500              		.loc 1 396 0
 1501 07ba 0022     		movs	r2, #0
 1502 07bc 8121     		movs	r1, #129
 1503 07be 0198     		ldr	r0, [sp, #4]
 1504 07c0 FFF7FEFF 		bl	VL53L0X_WrByte
 1505 07c4 0346     		mov	r3, r0
 1506 07c6 1A46     		mov	r2, r3
 1507 07c8 9DF81230 		ldrb	r3, [sp, #18]
 1508 07cc 1343     		orrs	r3, r3, r2
 1509 07ce 8DF81230 		strb	r3, [sp, #18]
 1510              		.loc 1 397 0
 1511 07d2 0622     		movs	r2, #6
 1512 07d4 FF21     		movs	r1, #255
 1513 07d6 0198     		ldr	r0, [sp, #4]
 1514 07d8 FFF7FEFF 		bl	VL53L0X_WrByte
 1515 07dc 0346     		mov	r3, r0
 1516 07de 1A46     		mov	r2, r3
 1517 07e0 9DF81230 		ldrb	r3, [sp, #18]
 1518 07e4 1343     		orrs	r3, r3, r2
 1519 07e6 8DF81230 		strb	r3, [sp, #18]
 1520              		.loc 1 398 0
 1521 07ea 0DF10F03 		add	r3, sp, #15
 1522 07ee 1A46     		mov	r2, r3
 1523 07f0 8321     		movs	r1, #131
 1524 07f2 0198     		ldr	r0, [sp, #4]
 1525 07f4 FFF7FEFF 		bl	VL53L0X_RdByte
 1526 07f8 0346     		mov	r3, r0
 1527 07fa 1A46     		mov	r2, r3
 1528 07fc 9DF81230 		ldrb	r3, [sp, #18]
 1529 0800 1343     		orrs	r3, r3, r2
 1530 0802 8DF81230 		strb	r3, [sp, #18]
 1531              		.loc 1 399 0
 1532 0806 9DF80F30 		ldrb	r3, [sp, #15]	@ zero_extendqisi2
 1533 080a 23F00403 		bic	r3, r3, #4
 1534 080e DBB2     		uxtb	r3, r3
 1535 0810 1A46     		mov	r2, r3
 1536 0812 8321     		movs	r1, #131
 1537 0814 0198     		ldr	r0, [sp, #4]
 1538 0816 FFF7FEFF 		bl	VL53L0X_WrByte
 1539 081a 0346     		mov	r3, r0
ARM GAS  C:\Users\PCHAUT~1\AppData\Local\Temp\ccgoQRgJ.s 			page 28


 1540 081c 1A46     		mov	r2, r3
 1541 081e 9DF81230 		ldrb	r3, [sp, #18]
 1542 0822 1343     		orrs	r3, r3, r2
 1543 0824 8DF81230 		strb	r3, [sp, #18]
 1544              		.loc 1 400 0
 1545 0828 0122     		movs	r2, #1
 1546 082a FF21     		movs	r1, #255
 1547 082c 0198     		ldr	r0, [sp, #4]
 1548 082e FFF7FEFF 		bl	VL53L0X_WrByte
 1549 0832 0346     		mov	r3, r0
 1550 0834 1A46     		mov	r2, r3
 1551 0836 9DF81230 		ldrb	r3, [sp, #18]
 1552 083a 1343     		orrs	r3, r3, r2
 1553 083c 8DF81230 		strb	r3, [sp, #18]
 1554              		.loc 1 401 0
 1555 0840 0122     		movs	r2, #1
 1556 0842 0021     		movs	r1, #0
 1557 0844 0198     		ldr	r0, [sp, #4]
 1558 0846 FFF7FEFF 		bl	VL53L0X_WrByte
 1559 084a 0346     		mov	r3, r0
 1560 084c 1A46     		mov	r2, r3
 1561 084e 9DF81230 		ldrb	r3, [sp, #18]
 1562 0852 1343     		orrs	r3, r3, r2
 1563 0854 8DF81230 		strb	r3, [sp, #18]
 1564              		.loc 1 403 0
 1565 0858 0022     		movs	r2, #0
 1566 085a FF21     		movs	r1, #255
 1567 085c 0198     		ldr	r0, [sp, #4]
 1568 085e FFF7FEFF 		bl	VL53L0X_WrByte
 1569 0862 0346     		mov	r3, r0
 1570 0864 1A46     		mov	r2, r3
 1571 0866 9DF81230 		ldrb	r3, [sp, #18]
 1572 086a 1343     		orrs	r3, r3, r2
 1573 086c 8DF81230 		strb	r3, [sp, #18]
 1574              		.loc 1 404 0
 1575 0870 0022     		movs	r2, #0
 1576 0872 8021     		movs	r1, #128
 1577 0874 0198     		ldr	r0, [sp, #4]
 1578 0876 FFF7FEFF 		bl	VL53L0X_WrByte
 1579 087a 0346     		mov	r3, r0
 1580 087c 1A46     		mov	r2, r3
 1581 087e 9DF81230 		ldrb	r3, [sp, #18]
 1582 0882 1343     		orrs	r3, r3, r2
 1583 0884 8DF81230 		strb	r3, [sp, #18]
 1584              	.L58:
 1585              		.loc 1 407 0
 1586 0888 9DF91230 		ldrsb	r3, [sp, #18]
 1587 088c 002B     		cmp	r3, #0
 1588 088e 40F09180 		bne	.L62
 1589              		.loc 1 407 0 is_stmt 0 discriminator 1
 1590 0892 9DF81530 		ldrb	r3, [sp, #21]	@ zero_extendqisi2
 1591 0896 072B     		cmp	r3, #7
 1592 0898 00F08C80 		beq	.L62
 1593              		.loc 1 410 0 is_stmt 1
 1594 089c 9DF80330 		ldrb	r3, [sp, #3]	@ zero_extendqisi2
 1595 08a0 03F00103 		and	r3, r3, #1
 1596 08a4 002B     		cmp	r3, #0
ARM GAS  C:\Users\PCHAUT~1\AppData\Local\Temp\ccgoQRgJ.s 			page 29


 1597 08a6 23D0     		beq	.L63
 1598              		.loc 1 411 0 discriminator 1
 1599 08a8 9DF81530 		ldrb	r3, [sp, #21]	@ zero_extendqisi2
 1600 08ac 03F00103 		and	r3, r3, #1
 1601              		.loc 1 410 0 discriminator 1
 1602 08b0 002B     		cmp	r3, #0
 1603 08b2 1DD1     		bne	.L63
 1604              		.loc 1 412 0
 1605 08b4 019B     		ldr	r3, [sp, #4]
 1606 08b6 9DF81320 		ldrb	r2, [sp, #19]
 1607 08ba 83F81321 		strb	r2, [r3, #275]
 1608              		.loc 1 415 0
 1609 08be 019B     		ldr	r3, [sp, #4]
 1610 08c0 9DF81420 		ldrb	r2, [sp, #20]
 1611 08c4 83F81421 		strb	r2, [r3, #276]
 1612              		.loc 1 418 0
 1613 08c8 0023     		movs	r3, #0
 1614 08ca 0B93     		str	r3, [sp, #44]
 1615 08cc 0DE0     		b	.L64
 1616              	.L65:
 1617              		.loc 1 420 0 discriminator 3
 1618 08ce 10AA     		add	r2, sp, #64
 1619 08d0 0B9B     		ldr	r3, [sp, #44]
 1620 08d2 1344     		add	r3, r3, r2
 1621 08d4 1978     		ldrb	r1, [r3]	@ zero_extendqisi2
 1622              		.loc 1 419 0 discriminator 3
 1623 08d6 019A     		ldr	r2, [sp, #4]
 1624 08d8 0B9B     		ldr	r3, [sp, #44]
 1625 08da 1344     		add	r3, r3, r2
 1626 08dc 03F59573 		add	r3, r3, #298
 1627 08e0 0A46     		mov	r2, r1
 1628 08e2 1A70     		strb	r2, [r3]
 1629              		.loc 1 418 0 discriminator 3
 1630 08e4 0B9B     		ldr	r3, [sp, #44]
 1631 08e6 0133     		adds	r3, r3, #1
 1632 08e8 0B93     		str	r3, [sp, #44]
 1633              	.L64:
 1634              		.loc 1 418 0 is_stmt 0 discriminator 1
 1635 08ea 0B9B     		ldr	r3, [sp, #44]
 1636 08ec 052B     		cmp	r3, #5
 1637 08ee EEDD     		ble	.L65
 1638              	.L63:
 1639              		.loc 1 424 0 is_stmt 1
 1640 08f0 9DF80330 		ldrb	r3, [sp, #3]	@ zero_extendqisi2
 1641 08f4 03F00203 		and	r3, r3, #2
 1642 08f8 002B     		cmp	r3, #0
 1643 08fa 17D0     		beq	.L66
 1644              		.loc 1 425 0 discriminator 1
 1645 08fc 9DF81530 		ldrb	r3, [sp, #21]	@ zero_extendqisi2
 1646 0900 03F00203 		and	r3, r3, #2
 1647              		.loc 1 424 0 discriminator 1
 1648 0904 002B     		cmp	r3, #0
 1649 0906 11D1     		bne	.L66
 1650              		.loc 1 426 0
 1651 0908 9DF81020 		ldrb	r2, [sp, #16]	@ zero_extendqisi2
 1652 090c 019B     		ldr	r3, [sp, #4]
 1653 090e 83F8F120 		strb	r2, [r3, #241]
ARM GAS  C:\Users\PCHAUT~1\AppData\Local\Temp\ccgoQRgJ.s 			page 30


 1654              		.loc 1 429 0
 1655 0912 9DF81120 		ldrb	r2, [sp, #17]	@ zero_extendqisi2
 1656 0916 019B     		ldr	r3, [sp, #4]
 1657 0918 83F8F220 		strb	r2, [r3, #242]
 1658              		.loc 1 432 0
 1659 091c 019B     		ldr	r3, [sp, #4]
 1660 091e F333     		adds	r3, r3, #243
 1661 0920 0F93     		str	r3, [sp, #60]
 1662              		.loc 1 434 0
 1663 0922 12AB     		add	r3, sp, #72
 1664 0924 1946     		mov	r1, r3
 1665 0926 0F98     		ldr	r0, [sp, #60]
 1666 0928 FFF7FEFF 		bl	strcpy
 1667              	.L66:
 1668              		.loc 1 438 0
 1669 092c 9DF80330 		ldrb	r3, [sp, #3]	@ zero_extendqisi2
 1670 0930 03F00403 		and	r3, r3, #4
 1671 0934 002B     		cmp	r3, #0
 1672 0936 30D0     		beq	.L67
 1673              		.loc 1 439 0 discriminator 1
 1674 0938 9DF81530 		ldrb	r3, [sp, #21]	@ zero_extendqisi2
 1675 093c 03F00403 		and	r3, r3, #4
 1676              		.loc 1 438 0 discriminator 1
 1677 0940 002B     		cmp	r3, #0
 1678 0942 2AD1     		bne	.L67
 1679              		.loc 1 440 0
 1680 0944 079A     		ldr	r2, [sp, #28]
 1681 0946 019B     		ldr	r3, [sp, #4]
 1682 0948 C3F81821 		str	r2, [r3, #280]
 1683              		.loc 1 443 0
 1684 094c 089A     		ldr	r2, [sp, #32]
 1685 094e 019B     		ldr	r3, [sp, #4]
 1686 0950 C3F81C21 		str	r2, [r3, #284]
 1687              		.loc 1 446 0
 1688 0954 0A9B     		ldr	r3, [sp, #40]
 1689 0956 5B02     		lsls	r3, r3, #9
 1690 0958 0E93     		str	r3, [sp, #56]
 1691              		.loc 1 450 0
 1692 095a 019B     		ldr	r3, [sp, #4]
 1693 095c 0E9A     		ldr	r2, [sp, #56]
 1694 095e C3F82021 		str	r2, [r3, #288]
 1695              		.loc 1 454 0
 1696 0962 0023     		movs	r3, #0
 1697 0964 ADF81630 		strh	r3, [sp, #22]	@ movhi
 1698              		.loc 1 455 0
 1699 0968 099B     		ldr	r3, [sp, #36]
 1700 096a 002B     		cmp	r3, #0
 1701 096c 11D0     		beq	.L68
 1702              		.loc 1 456 0
 1703 096e 099A     		ldr	r2, [sp, #36]
 1704 0970 0D9B     		ldr	r3, [sp, #52]
 1705 0972 D31A     		subs	r3, r2, r3
 1706 0974 0C93     		str	r3, [sp, #48]
 1707              		.loc 1 460 0
 1708 0976 0C9B     		ldr	r3, [sp, #48]
 1709 0978 4FF47A72 		mov	r2, #1000
 1710 097c 02FB03F3 		mul	r3, r2, r3
ARM GAS  C:\Users\PCHAUT~1\AppData\Local\Temp\ccgoQRgJ.s 			page 31


 1711 0980 1B09     		lsrs	r3, r3, #4
 1712              		.loc 1 459 0
 1713 0982 ADF81630 		strh	r3, [sp, #22]	@ movhi
 1714              		.loc 1 461 0
 1715 0986 BDF81630 		ldrh	r3, [sp, #22]
 1716 098a 5B42     		negs	r3, r3
 1717 098c 9BB2     		uxth	r3, r3
 1718 098e ADF81630 		strh	r3, [sp, #22]	@ movhi
 1719              	.L68:
 1720              		.loc 1 464 0
 1721 0992 BDF91620 		ldrsh	r2, [sp, #22]
 1722 0996 019B     		ldr	r3, [sp, #4]
 1723 0998 DA60     		str	r2, [r3, #12]
 1724              	.L67:
 1725              		.loc 1 468 0
 1726 099a 9DF81520 		ldrb	r2, [sp, #21]
 1727 099e 9DF80330 		ldrb	r3, [sp, #3]
 1728 09a2 1343     		orrs	r3, r3, r2
 1729 09a4 DBB2     		uxtb	r3, r3
 1730 09a6 8DF80F30 		strb	r3, [sp, #15]
 1731              		.loc 1 469 0
 1732 09aa 9DF80F20 		ldrb	r2, [sp, #15]	@ zero_extendqisi2
 1733 09ae 019B     		ldr	r3, [sp, #4]
 1734 09b0 83F8F020 		strb	r2, [r3, #240]
 1735              	.L62:
 1736              		.loc 1 474 0
 1737 09b4 9DF91230 		ldrsb	r3, [sp, #18]
 1738              		.loc 1 475 0
 1739 09b8 1846     		mov	r0, r3
 1740 09ba 054B     		ldr	r3, .L74
 1741 09bc 179A     		ldr	r2, [sp, #92]
 1742 09be 1B68     		ldr	r3, [r3]
 1743 09c0 9A42     		cmp	r2, r3
 1744 09c2 01D0     		beq	.L70
 1745 09c4 FFF7FEFF 		bl	__stack_chk_fail
 1746              	.L70:
 1747 09c8 19B0     		add	sp, sp, #100
 1748              		.cfi_def_cfa_offset 4
 1749              		@ sp needed
 1750 09ca 5DF804FB 		ldr	pc, [sp], #4
 1751              	.L75:
 1752 09ce 00BF     		.align	2
 1753              	.L74:
 1754 09d0 00000000 		.word	__stack_chk_guard
 1755              		.cfi_endproc
 1756              	.LFE10:
 1757              		.size	VL53L0X_get_info_from_device, .-VL53L0X_get_info_from_device
 1758              		.section	.text.VL53L0X_calc_macro_period_ps,"ax",%progbits
 1759              		.align	1
 1760              		.p2align 4,,15
 1761              		.global	VL53L0X_calc_macro_period_ps
 1762              		.syntax unified
 1763              		.thumb
 1764              		.thumb_func
 1765              		.fpu fpv4-sp-d16
 1766              		.type	VL53L0X_calc_macro_period_ps, %function
 1767              	VL53L0X_calc_macro_period_ps:
ARM GAS  C:\Users\PCHAUT~1\AppData\Local\Temp\ccgoQRgJ.s 			page 32


 1768              	.LFB11:
 1769              		.loc 1 479 0
 1770              		.cfi_startproc
 1771              		@ args = 0, pretend = 0, frame = 32
 1772              		@ frame_needed = 0, uses_anonymous_args = 0
 1773 0000 10B5     		push	{r4, lr}
 1774              		.cfi_def_cfa_offset 8
 1775              		.cfi_offset 4, -8
 1776              		.cfi_offset 14, -4
 1777 0002 88B0     		sub	sp, sp, #32
 1778              		.cfi_def_cfa_offset 40
 1779 0004 0190     		str	r0, [sp, #4]
 1780 0006 0B46     		mov	r3, r1
 1781 0008 8DF80330 		strb	r3, [sp, #3]
 1782              		.loc 1 479 0
 1783 000c 0F4B     		ldr	r3, .L79
 1784 000e 1B68     		ldr	r3, [r3]
 1785 0010 0793     		str	r3, [sp, #28]
 1786              		.loc 1 490 0
 1787 0012 40F27763 		movw	r3, #1655
 1788 0016 4FF00004 		mov	r4, #0
 1789 001a CDE90434 		strd	r3, [sp, #16]
 1790              		.loc 1 492 0
 1791 001e 4FF41063 		mov	r3, #2304
 1792 0022 0293     		str	r3, [sp, #8]
 1793              		.loc 1 494 0
 1794 0024 9DF80330 		ldrb	r3, [sp, #3]	@ zero_extendqisi2
 1795 0028 029A     		ldr	r2, [sp, #8]
 1796 002a 02FB03F3 		mul	r3, r2, r3
 1797              		.loc 1 493 0
 1798 002e 049A     		ldr	r2, [sp, #16]
 1799 0030 02FB03F3 		mul	r3, r2, r3
 1800 0034 0393     		str	r3, [sp, #12]
 1801              		.loc 1 497 0
 1802 0036 039B     		ldr	r3, [sp, #12]
 1803              		.loc 1 498 0
 1804 0038 1846     		mov	r0, r3
 1805 003a 044B     		ldr	r3, .L79
 1806 003c 079A     		ldr	r2, [sp, #28]
 1807 003e 1B68     		ldr	r3, [r3]
 1808 0040 9A42     		cmp	r2, r3
 1809 0042 01D0     		beq	.L78
 1810 0044 FFF7FEFF 		bl	__stack_chk_fail
 1811              	.L78:
 1812 0048 08B0     		add	sp, sp, #32
 1813              		.cfi_def_cfa_offset 8
 1814              		@ sp needed
 1815 004a 10BD     		pop	{r4, pc}
 1816              	.L80:
 1817              		.align	2
 1818              	.L79:
 1819 004c 00000000 		.word	__stack_chk_guard
 1820              		.cfi_endproc
 1821              	.LFE11:
 1822              		.size	VL53L0X_calc_macro_period_ps, .-VL53L0X_calc_macro_period_ps
 1823              		.section	.text.VL53L0X_encode_timeout,"ax",%progbits
 1824              		.align	1
ARM GAS  C:\Users\PCHAUT~1\AppData\Local\Temp\ccgoQRgJ.s 			page 33


 1825              		.p2align 4,,15
 1826              		.global	VL53L0X_encode_timeout
 1827              		.syntax unified
 1828              		.thumb
 1829              		.thumb_func
 1830              		.fpu fpv4-sp-d16
 1831              		.type	VL53L0X_encode_timeout, %function
 1832              	VL53L0X_encode_timeout:
 1833              	.LFB12:
 1834              		.loc 1 501 0
 1835              		.cfi_startproc
 1836              		@ args = 0, pretend = 0, frame = 24
 1837              		@ frame_needed = 0, uses_anonymous_args = 0
 1838 0000 00B5     		push	{lr}
 1839              		.cfi_def_cfa_offset 4
 1840              		.cfi_offset 14, -4
 1841 0002 87B0     		sub	sp, sp, #28
 1842              		.cfi_def_cfa_offset 32
 1843 0004 0190     		str	r0, [sp, #4]
 1844              		.loc 1 501 0
 1845 0006 1B4B     		ldr	r3, .L87
 1846 0008 1B68     		ldr	r3, [r3]
 1847 000a 0593     		str	r3, [sp, #20]
 1848              		.loc 1 506 0
 1849 000c 0023     		movs	r3, #0
 1850 000e ADF80C30 		strh	r3, [sp, #12]	@ movhi
 1851              		.loc 1 507 0
 1852 0012 0023     		movs	r3, #0
 1853 0014 0493     		str	r3, [sp, #16]
 1854              		.loc 1 508 0
 1855 0016 0023     		movs	r3, #0
 1856 0018 ADF80E30 		strh	r3, [sp, #14]	@ movhi
 1857              		.loc 1 510 0
 1858 001c 019B     		ldr	r3, [sp, #4]
 1859 001e 002B     		cmp	r3, #0
 1860 0020 1BD0     		beq	.L82
 1861              		.loc 1 511 0
 1862 0022 019B     		ldr	r3, [sp, #4]
 1863 0024 013B     		subs	r3, r3, #1
 1864 0026 0493     		str	r3, [sp, #16]
 1865              		.loc 1 513 0
 1866 0028 07E0     		b	.L83
 1867              	.L84:
 1868              		.loc 1 514 0
 1869 002a 049B     		ldr	r3, [sp, #16]
 1870 002c 5B08     		lsrs	r3, r3, #1
 1871 002e 0493     		str	r3, [sp, #16]
 1872              		.loc 1 515 0
 1873 0030 BDF80E30 		ldrh	r3, [sp, #14]
 1874 0034 0133     		adds	r3, r3, #1
 1875 0036 ADF80E30 		strh	r3, [sp, #14]	@ movhi
 1876              	.L83:
 1877              		.loc 1 513 0
 1878 003a 049B     		ldr	r3, [sp, #16]
 1879 003c 23F0FF03 		bic	r3, r3, #255
 1880 0040 002B     		cmp	r3, #0
 1881 0042 F2D1     		bne	.L84
ARM GAS  C:\Users\PCHAUT~1\AppData\Local\Temp\ccgoQRgJ.s 			page 34


 1882              		.loc 1 518 0
 1883 0044 BDF80E30 		ldrh	r3, [sp, #14]	@ movhi
 1884 0048 1B02     		lsls	r3, r3, #8
 1885 004a 9AB2     		uxth	r2, r3
 1886              		.loc 1 519 0
 1887 004c 049B     		ldr	r3, [sp, #16]
 1888 004e 9BB2     		uxth	r3, r3
 1889 0050 DBB2     		uxtb	r3, r3
 1890 0052 9BB2     		uxth	r3, r3
 1891              		.loc 1 518 0
 1892 0054 1344     		add	r3, r3, r2
 1893 0056 ADF80C30 		strh	r3, [sp, #12]	@ movhi
 1894              	.L82:
 1895              		.loc 1 522 0
 1896 005a BDF80C30 		ldrh	r3, [sp, #12]
 1897              		.loc 1 524 0
 1898 005e 1846     		mov	r0, r3
 1899 0060 044B     		ldr	r3, .L87
 1900 0062 059A     		ldr	r2, [sp, #20]
 1901 0064 1B68     		ldr	r3, [r3]
 1902 0066 9A42     		cmp	r2, r3
 1903 0068 01D0     		beq	.L86
 1904 006a FFF7FEFF 		bl	__stack_chk_fail
 1905              	.L86:
 1906 006e 07B0     		add	sp, sp, #28
 1907              		.cfi_def_cfa_offset 4
 1908              		@ sp needed
 1909 0070 5DF804FB 		ldr	pc, [sp], #4
 1910              	.L88:
 1911              		.align	2
 1912              	.L87:
 1913 0074 00000000 		.word	__stack_chk_guard
 1914              		.cfi_endproc
 1915              	.LFE12:
 1916              		.size	VL53L0X_encode_timeout, .-VL53L0X_encode_timeout
 1917              		.section	.text.VL53L0X_decode_timeout,"ax",%progbits
 1918              		.align	1
 1919              		.p2align 4,,15
 1920              		.global	VL53L0X_decode_timeout
 1921              		.syntax unified
 1922              		.thumb
 1923              		.thumb_func
 1924              		.fpu fpv4-sp-d16
 1925              		.type	VL53L0X_decode_timeout, %function
 1926              	VL53L0X_decode_timeout:
 1927              	.LFB13:
 1928              		.loc 1 527 0
 1929              		.cfi_startproc
 1930              		@ args = 0, pretend = 0, frame = 16
 1931              		@ frame_needed = 0, uses_anonymous_args = 0
 1932 0000 00B5     		push	{lr}
 1933              		.cfi_def_cfa_offset 4
 1934              		.cfi_offset 14, -4
 1935 0002 85B0     		sub	sp, sp, #20
 1936              		.cfi_def_cfa_offset 24
 1937 0004 0346     		mov	r3, r0
 1938 0006 ADF80630 		strh	r3, [sp, #6]	@ movhi
ARM GAS  C:\Users\PCHAUT~1\AppData\Local\Temp\ccgoQRgJ.s 			page 35


 1939              		.loc 1 527 0
 1940 000a 0D4B     		ldr	r3, .L92
 1941 000c 1B68     		ldr	r3, [r3]
 1942 000e 0393     		str	r3, [sp, #12]
 1943              		.loc 1 532 0
 1944 0010 0023     		movs	r3, #0
 1945 0012 0293     		str	r3, [sp, #8]
 1946              		.loc 1 534 0
 1947 0014 BDF80630 		ldrh	r3, [sp, #6]
 1948 0018 DBB2     		uxtb	r3, r3
 1949              		.loc 1 535 0
 1950 001a BDF80620 		ldrh	r2, [sp, #6]
 1951 001e 120A     		lsrs	r2, r2, #8
 1952 0020 92B2     		uxth	r2, r2
 1953 0022 9340     		lsls	r3, r3, r2
 1954              		.loc 1 534 0
 1955 0024 0133     		adds	r3, r3, #1
 1956 0026 0293     		str	r3, [sp, #8]
 1957              		.loc 1 537 0
 1958 0028 029B     		ldr	r3, [sp, #8]
 1959              		.loc 1 538 0
 1960 002a 1846     		mov	r0, r3
 1961 002c 044B     		ldr	r3, .L92
 1962 002e 039A     		ldr	r2, [sp, #12]
 1963 0030 1B68     		ldr	r3, [r3]
 1964 0032 9A42     		cmp	r2, r3
 1965 0034 01D0     		beq	.L91
 1966 0036 FFF7FEFF 		bl	__stack_chk_fail
 1967              	.L91:
 1968 003a 05B0     		add	sp, sp, #20
 1969              		.cfi_def_cfa_offset 4
 1970              		@ sp needed
 1971 003c 5DF804FB 		ldr	pc, [sp], #4
 1972              	.L93:
 1973              		.align	2
 1974              	.L92:
 1975 0040 00000000 		.word	__stack_chk_guard
 1976              		.cfi_endproc
 1977              	.LFE13:
 1978              		.size	VL53L0X_decode_timeout, .-VL53L0X_decode_timeout
 1979              		.section	.text.VL53L0X_calc_timeout_mclks,"ax",%progbits
 1980              		.align	1
 1981              		.p2align 4,,15
 1982              		.global	VL53L0X_calc_timeout_mclks
 1983              		.syntax unified
 1984              		.thumb
 1985              		.thumb_func
 1986              		.fpu fpv4-sp-d16
 1987              		.type	VL53L0X_calc_timeout_mclks, %function
 1988              	VL53L0X_calc_timeout_mclks:
 1989              	.LFB14:
 1990              		.loc 1 545 0
 1991              		.cfi_startproc
 1992              		@ args = 0, pretend = 0, frame = 32
 1993              		@ frame_needed = 0, uses_anonymous_args = 0
 1994 0000 00B5     		push	{lr}
 1995              		.cfi_def_cfa_offset 4
ARM GAS  C:\Users\PCHAUT~1\AppData\Local\Temp\ccgoQRgJ.s 			page 36


 1996              		.cfi_offset 14, -4
 1997 0002 89B0     		sub	sp, sp, #36
 1998              		.cfi_def_cfa_offset 40
 1999 0004 0390     		str	r0, [sp, #12]
 2000 0006 0291     		str	r1, [sp, #8]
 2001 0008 1346     		mov	r3, r2
 2002 000a 8DF80730 		strb	r3, [sp, #7]
 2003              		.loc 1 545 0
 2004 000e 164B     		ldr	r3, .L97
 2005 0010 1B68     		ldr	r3, [r3]
 2006 0012 0793     		str	r3, [sp, #28]
 2007              		.loc 1 548 0
 2008 0014 0023     		movs	r3, #0
 2009 0016 0493     		str	r3, [sp, #16]
 2010              		.loc 1 550 0
 2011 0018 9DF80730 		ldrb	r3, [sp, #7]	@ zero_extendqisi2
 2012 001c 1946     		mov	r1, r3
 2013 001e 0398     		ldr	r0, [sp, #12]
 2014 0020 FFF7FEFF 		bl	VL53L0X_calc_macro_period_ps
 2015 0024 0590     		str	r0, [sp, #20]
 2016              		.loc 1 551 0
 2017 0026 059B     		ldr	r3, [sp, #20]
 2018 0028 03F5FA73 		add	r3, r3, #500
 2019 002c 0F4A     		ldr	r2, .L97+4
 2020 002e A2FB0323 		umull	r2, r3, r2, r3
 2021 0032 9B09     		lsrs	r3, r3, #6
 2022 0034 0693     		str	r3, [sp, #24]
 2023              		.loc 1 554 0
 2024 0036 029B     		ldr	r3, [sp, #8]
 2025 0038 4FF47A72 		mov	r2, #1000
 2026 003c 02FB03F2 		mul	r2, r2, r3
 2027              		.loc 1 555 0
 2028 0040 069B     		ldr	r3, [sp, #24]
 2029 0042 5B08     		lsrs	r3, r3, #1
 2030 0044 1A44     		add	r2, r2, r3
 2031              		.loc 1 553 0
 2032 0046 069B     		ldr	r3, [sp, #24]
 2033 0048 B2FBF3F3 		udiv	r3, r2, r3
 2034 004c 0493     		str	r3, [sp, #16]
 2035              		.loc 1 557 0
 2036 004e 049B     		ldr	r3, [sp, #16]
 2037              		.loc 1 558 0
 2038 0050 1846     		mov	r0, r3
 2039 0052 054B     		ldr	r3, .L97
 2040 0054 079A     		ldr	r2, [sp, #28]
 2041 0056 1B68     		ldr	r3, [r3]
 2042 0058 9A42     		cmp	r2, r3
 2043 005a 01D0     		beq	.L96
 2044 005c FFF7FEFF 		bl	__stack_chk_fail
 2045              	.L96:
 2046 0060 09B0     		add	sp, sp, #36
 2047              		.cfi_def_cfa_offset 4
 2048              		@ sp needed
 2049 0062 5DF804FB 		ldr	pc, [sp], #4
 2050              	.L98:
 2051 0066 00BF     		.align	2
 2052              	.L97:
ARM GAS  C:\Users\PCHAUT~1\AppData\Local\Temp\ccgoQRgJ.s 			page 37


 2053 0068 00000000 		.word	__stack_chk_guard
 2054 006c D34D6210 		.word	274877907
 2055              		.cfi_endproc
 2056              	.LFE14:
 2057              		.size	VL53L0X_calc_timeout_mclks, .-VL53L0X_calc_timeout_mclks
 2058              		.section	.text.VL53L0X_calc_timeout_us,"ax",%progbits
 2059              		.align	1
 2060              		.p2align 4,,15
 2061              		.global	VL53L0X_calc_timeout_us
 2062              		.syntax unified
 2063              		.thumb
 2064              		.thumb_func
 2065              		.fpu fpv4-sp-d16
 2066              		.type	VL53L0X_calc_timeout_us, %function
 2067              	VL53L0X_calc_timeout_us:
 2068              	.LFB15:
 2069              		.loc 1 564 0
 2070              		.cfi_startproc
 2071              		@ args = 0, pretend = 0, frame = 24
 2072              		@ frame_needed = 0, uses_anonymous_args = 0
 2073 0000 00B5     		push	{lr}
 2074              		.cfi_def_cfa_offset 4
 2075              		.cfi_offset 14, -4
 2076 0002 87B0     		sub	sp, sp, #28
 2077              		.cfi_def_cfa_offset 32
 2078 0004 0190     		str	r0, [sp, #4]
 2079 0006 0B46     		mov	r3, r1
 2080 0008 ADF80230 		strh	r3, [sp, #2]	@ movhi
 2081 000c 1346     		mov	r3, r2
 2082 000e 8DF80130 		strb	r3, [sp, #1]
 2083              		.loc 1 564 0
 2084 0012 164B     		ldr	r3, .L102
 2085 0014 1B68     		ldr	r3, [r3]
 2086 0016 0593     		str	r3, [sp, #20]
 2087              		.loc 1 567 0
 2088 0018 0023     		movs	r3, #0
 2089 001a 0293     		str	r3, [sp, #8]
 2090              		.loc 1 569 0
 2091 001c 9DF80130 		ldrb	r3, [sp, #1]	@ zero_extendqisi2
 2092 0020 1946     		mov	r1, r3
 2093 0022 0198     		ldr	r0, [sp, #4]
 2094 0024 FFF7FEFF 		bl	VL53L0X_calc_macro_period_ps
 2095 0028 0390     		str	r0, [sp, #12]
 2096              		.loc 1 570 0
 2097 002a 039B     		ldr	r3, [sp, #12]
 2098 002c 03F5FA73 		add	r3, r3, #500
 2099 0030 0F4A     		ldr	r2, .L102+4
 2100 0032 A2FB0323 		umull	r2, r3, r2, r3
 2101 0036 9B09     		lsrs	r3, r3, #6
 2102 0038 0493     		str	r3, [sp, #16]
 2103              		.loc 1 573 0
 2104 003a BDF80230 		ldrh	r3, [sp, #2]
 2105 003e 049A     		ldr	r2, [sp, #16]
 2106 0040 02FB03F3 		mul	r3, r2, r3
 2107 0044 03F5FA73 		add	r3, r3, #500
 2108              		.loc 1 572 0
 2109 0048 094A     		ldr	r2, .L102+4
ARM GAS  C:\Users\PCHAUT~1\AppData\Local\Temp\ccgoQRgJ.s 			page 38


 2110 004a A2FB0323 		umull	r2, r3, r2, r3
 2111 004e 9B09     		lsrs	r3, r3, #6
 2112 0050 0293     		str	r3, [sp, #8]
 2113              		.loc 1 575 0
 2114 0052 029B     		ldr	r3, [sp, #8]
 2115              		.loc 1 576 0
 2116 0054 1846     		mov	r0, r3
 2117 0056 054B     		ldr	r3, .L102
 2118 0058 059A     		ldr	r2, [sp, #20]
 2119 005a 1B68     		ldr	r3, [r3]
 2120 005c 9A42     		cmp	r2, r3
 2121 005e 01D0     		beq	.L101
 2122 0060 FFF7FEFF 		bl	__stack_chk_fail
 2123              	.L101:
 2124 0064 07B0     		add	sp, sp, #28
 2125              		.cfi_def_cfa_offset 4
 2126              		@ sp needed
 2127 0066 5DF804FB 		ldr	pc, [sp], #4
 2128              	.L103:
 2129 006a 00BF     		.align	2
 2130              	.L102:
 2131 006c 00000000 		.word	__stack_chk_guard
 2132 0070 D34D6210 		.word	274877907
 2133              		.cfi_endproc
 2134              	.LFE15:
 2135              		.size	VL53L0X_calc_timeout_us, .-VL53L0X_calc_timeout_us
 2136              		.section	.text.get_sequence_step_timeout,"ax",%progbits
 2137              		.align	1
 2138              		.p2align 4,,15
 2139              		.global	get_sequence_step_timeout
 2140              		.syntax unified
 2141              		.thumb
 2142              		.thumb_func
 2143              		.fpu fpv4-sp-d16
 2144              		.type	get_sequence_step_timeout, %function
 2145              	get_sequence_step_timeout:
 2146              	.LFB16:
 2147              		.loc 1 582 0
 2148              		.cfi_startproc
 2149              		@ args = 0, pretend = 0, frame = 48
 2150              		@ frame_needed = 0, uses_anonymous_args = 0
 2151 0000 00B5     		push	{lr}
 2152              		.cfi_def_cfa_offset 4
 2153              		.cfi_offset 14, -4
 2154 0002 8DB0     		sub	sp, sp, #52
 2155              		.cfi_def_cfa_offset 56
 2156 0004 0390     		str	r0, [sp, #12]
 2157 0006 0B46     		mov	r3, r1
 2158 0008 0192     		str	r2, [sp, #4]
 2159 000a 8DF80B30 		strb	r3, [sp, #11]
 2160              		.loc 1 582 0
 2161 000e 7B4B     		ldr	r3, .L117
 2162 0010 1B68     		ldr	r3, [r3]
 2163 0012 0B93     		str	r3, [sp, #44]
 2164              		.loc 1 583 0
 2165 0014 0023     		movs	r3, #0
 2166 0016 8DF81530 		strb	r3, [sp, #21]
ARM GAS  C:\Users\PCHAUT~1\AppData\Local\Temp\ccgoQRgJ.s 			page 39


 2167              		.loc 1 585 0
 2168 001a 0023     		movs	r3, #0
 2169 001c 8DF81430 		strb	r3, [sp, #20]
 2170              		.loc 1 586 0
 2171 0020 0023     		movs	r3, #0
 2172 0022 0893     		str	r3, [sp, #32]
 2173              		.loc 1 587 0
 2174 0024 0023     		movs	r3, #0
 2175 0026 ADF81630 		strh	r3, [sp, #22]	@ movhi
 2176              		.loc 1 590 0
 2177 002a 0023     		movs	r3, #0
 2178 002c ADF81C30 		strh	r3, [sp, #28]	@ movhi
 2179              		.loc 1 594 0
 2180 0030 9DF80B30 		ldrb	r3, [sp, #11]	@ zero_extendqisi2
 2181 0034 002B     		cmp	r3, #0
 2182 0036 07D0     		beq	.L105
 2183              		.loc 1 594 0 is_stmt 0 discriminator 1
 2184 0038 9DF80B30 		ldrb	r3, [sp, #11]	@ zero_extendqisi2
 2185 003c 012B     		cmp	r3, #1
 2186 003e 03D0     		beq	.L105
 2187              		.loc 1 595 0 is_stmt 1
 2188 0040 9DF80B30 		ldrb	r3, [sp, #11]	@ zero_extendqisi2
 2189 0044 022B     		cmp	r3, #2
 2190 0046 29D1     		bne	.L106
 2191              	.L105:
 2192              		.loc 1 598 0
 2193 0048 0DF11303 		add	r3, sp, #19
 2194 004c 1A46     		mov	r2, r3
 2195 004e 0021     		movs	r1, #0
 2196 0050 0398     		ldr	r0, [sp, #12]
 2197 0052 FFF7FEFF 		bl	VL53L0X_GetVcselPulsePeriod
 2198 0056 0346     		mov	r3, r0
 2199 0058 8DF81530 		strb	r3, [sp, #21]
 2200              		.loc 1 601 0
 2201 005c 9DF91530 		ldrsb	r3, [sp, #21]
 2202 0060 002B     		cmp	r3, #0
 2203 0062 08D1     		bne	.L107
 2204              		.loc 1 602 0
 2205 0064 05AB     		add	r3, sp, #20
 2206 0066 1A46     		mov	r2, r3
 2207 0068 4621     		movs	r1, #70
 2208 006a 0398     		ldr	r0, [sp, #12]
 2209 006c FFF7FEFF 		bl	VL53L0X_RdByte
 2210 0070 0346     		mov	r3, r0
 2211 0072 8DF81530 		strb	r3, [sp, #21]
 2212              	.L107:
 2213              		.loc 1 606 0
 2214 0076 9DF81430 		ldrb	r3, [sp, #20]	@ zero_extendqisi2
 2215 007a 9BB2     		uxth	r3, r3
 2216 007c 1846     		mov	r0, r3
 2217 007e FFF7FEFF 		bl	VL53L0X_decode_timeout
 2218 0082 0346     		mov	r3, r0
 2219 0084 ADF81E30 		strh	r3, [sp, #30]	@ movhi
 2220              		.loc 1 608 0
 2221 0088 9DF81320 		ldrb	r2, [sp, #19]	@ zero_extendqisi2
 2222 008c BDF81E30 		ldrh	r3, [sp, #30]
 2223 0090 1946     		mov	r1, r3
ARM GAS  C:\Users\PCHAUT~1\AppData\Local\Temp\ccgoQRgJ.s 			page 40


 2224 0092 0398     		ldr	r0, [sp, #12]
 2225 0094 FFF7FEFF 		bl	VL53L0X_calc_timeout_us
 2226 0098 0890     		str	r0, [sp, #32]
 2227 009a 9FE0     		b	.L108
 2228              	.L106:
 2229              		.loc 1 611 0
 2230 009c 9DF80B30 		ldrb	r3, [sp, #11]	@ zero_extendqisi2
 2231 00a0 032B     		cmp	r3, #3
 2232 00a2 38D1     		bne	.L109
 2233              		.loc 1 613 0
 2234 00a4 0DF11303 		add	r3, sp, #19
 2235 00a8 1A46     		mov	r2, r3
 2236 00aa 0021     		movs	r1, #0
 2237 00ac 0398     		ldr	r0, [sp, #12]
 2238 00ae FFF7FEFF 		bl	VL53L0X_GetVcselPulsePeriod
 2239 00b2 0346     		mov	r3, r0
 2240 00b4 8DF81530 		strb	r3, [sp, #21]
 2241              		.loc 1 618 0
 2242 00b8 9DF91530 		ldrsb	r3, [sp, #21]
 2243 00bc 002B     		cmp	r3, #0
 2244 00be 40F08D80 		bne	.L108
 2245              		.loc 1 621 0
 2246 00c2 0DF11303 		add	r3, sp, #19
 2247 00c6 1A46     		mov	r2, r3
 2248 00c8 0021     		movs	r1, #0
 2249 00ca 0398     		ldr	r0, [sp, #12]
 2250 00cc FFF7FEFF 		bl	VL53L0X_GetVcselPulsePeriod
 2251 00d0 0346     		mov	r3, r0
 2252 00d2 8DF81530 		strb	r3, [sp, #21]
 2253              		.loc 1 625 0
 2254 00d6 9DF91530 		ldrsb	r3, [sp, #21]
 2255 00da 002B     		cmp	r3, #0
 2256 00dc 09D1     		bne	.L111
 2257              		.loc 1 626 0
 2258 00de 0DF11603 		add	r3, sp, #22
 2259 00e2 1A46     		mov	r2, r3
 2260 00e4 5121     		movs	r1, #81
 2261 00e6 0398     		ldr	r0, [sp, #12]
 2262 00e8 FFF7FEFF 		bl	VL53L0X_RdWord
 2263 00ec 0346     		mov	r3, r0
 2264 00ee 8DF81530 		strb	r3, [sp, #21]
 2265              	.L111:
 2266              		.loc 1 631 0
 2267 00f2 BDF81630 		ldrh	r3, [sp, #22]
 2268 00f6 1846     		mov	r0, r3
 2269 00f8 FFF7FEFF 		bl	VL53L0X_decode_timeout
 2270 00fc 0346     		mov	r3, r0
 2271 00fe ADF81A30 		strh	r3, [sp, #26]	@ movhi
 2272              		.loc 1 634 0
 2273 0102 9DF81320 		ldrb	r2, [sp, #19]	@ zero_extendqisi2
 2274 0106 BDF81A30 		ldrh	r3, [sp, #26]
 2275 010a 1946     		mov	r1, r3
 2276 010c 0398     		ldr	r0, [sp, #12]
 2277 010e FFF7FEFF 		bl	VL53L0X_calc_timeout_us
 2278 0112 0890     		str	r0, [sp, #32]
 2279 0114 62E0     		b	.L108
 2280              	.L109:
ARM GAS  C:\Users\PCHAUT~1\AppData\Local\Temp\ccgoQRgJ.s 			page 41


 2281              		.loc 1 638 0
 2282 0116 9DF80B30 		ldrb	r3, [sp, #11]	@ zero_extendqisi2
 2283 011a 042B     		cmp	r3, #4
 2284 011c 5ED1     		bne	.L108
 2285              		.loc 1 640 0
 2286 011e 09AB     		add	r3, sp, #36
 2287 0120 1946     		mov	r1, r3
 2288 0122 0398     		ldr	r0, [sp, #12]
 2289 0124 FFF7FEFF 		bl	VL53L0X_GetSequenceStepEnables
 2290              		.loc 1 641 0
 2291 0128 0023     		movs	r3, #0
 2292 012a ADF81A30 		strh	r3, [sp, #26]	@ movhi
 2293              		.loc 1 643 0
 2294 012e 9DF82730 		ldrb	r3, [sp, #39]	@ zero_extendqisi2
 2295 0132 002B     		cmp	r3, #0
 2296 0134 1FD0     		beq	.L112
 2297              		.loc 1 645 0
 2298 0136 0DF11303 		add	r3, sp, #19
 2299 013a 1A46     		mov	r2, r3
 2300 013c 0021     		movs	r1, #0
 2301 013e 0398     		ldr	r0, [sp, #12]
 2302 0140 FFF7FEFF 		bl	VL53L0X_GetVcselPulsePeriod
 2303 0144 0346     		mov	r3, r0
 2304 0146 8DF81530 		strb	r3, [sp, #21]
 2305              		.loc 1 651 0
 2306 014a 9DF91530 		ldrsb	r3, [sp, #21]
 2307 014e 002B     		cmp	r3, #0
 2308 0150 11D1     		bne	.L112
 2309              		.loc 1 652 0
 2310 0152 0DF11603 		add	r3, sp, #22
 2311 0156 1A46     		mov	r2, r3
 2312 0158 5121     		movs	r1, #81
 2313 015a 0398     		ldr	r0, [sp, #12]
 2314 015c FFF7FEFF 		bl	VL53L0X_RdWord
 2315 0160 0346     		mov	r3, r0
 2316 0162 8DF81530 		strb	r3, [sp, #21]
 2317              		.loc 1 655 0
 2318 0166 BDF81630 		ldrh	r3, [sp, #22]
 2319 016a 1846     		mov	r0, r3
 2320 016c FFF7FEFF 		bl	VL53L0X_decode_timeout
 2321 0170 0346     		mov	r3, r0
 2322 0172 ADF81A30 		strh	r3, [sp, #26]	@ movhi
 2323              	.L112:
 2324              		.loc 1 660 0
 2325 0176 9DF91530 		ldrsb	r3, [sp, #21]
 2326 017a 002B     		cmp	r3, #0
 2327 017c 09D1     		bne	.L113
 2328              		.loc 1 662 0
 2329 017e 0DF11303 		add	r3, sp, #19
 2330 0182 1A46     		mov	r2, r3
 2331 0184 0121     		movs	r1, #1
 2332 0186 0398     		ldr	r0, [sp, #12]
 2333 0188 FFF7FEFF 		bl	VL53L0X_GetVcselPulsePeriod
 2334 018c 0346     		mov	r3, r0
 2335 018e 8DF81530 		strb	r3, [sp, #21]
 2336              	.L113:
 2337              		.loc 1 668 0
ARM GAS  C:\Users\PCHAUT~1\AppData\Local\Temp\ccgoQRgJ.s 			page 42


 2338 0192 9DF91530 		ldrsb	r3, [sp, #21]
 2339 0196 002B     		cmp	r3, #0
 2340 0198 10D1     		bne	.L114
 2341              		.loc 1 669 0
 2342 019a 06AB     		add	r3, sp, #24
 2343 019c 1A46     		mov	r2, r3
 2344 019e 7121     		movs	r1, #113
 2345 01a0 0398     		ldr	r0, [sp, #12]
 2346 01a2 FFF7FEFF 		bl	VL53L0X_RdWord
 2347 01a6 0346     		mov	r3, r0
 2348 01a8 8DF81530 		strb	r3, [sp, #21]
 2349              		.loc 1 672 0
 2350 01ac BDF81830 		ldrh	r3, [sp, #24]
 2351 01b0 1846     		mov	r0, r3
 2352 01b2 FFF7FEFF 		bl	VL53L0X_decode_timeout
 2353 01b6 0346     		mov	r3, r0
 2354 01b8 ADF81C30 		strh	r3, [sp, #28]	@ movhi
 2355              	.L114:
 2356              		.loc 1 676 0
 2357 01bc BDF81C20 		ldrh	r2, [sp, #28]	@ movhi
 2358 01c0 BDF81A30 		ldrh	r3, [sp, #26]	@ movhi
 2359 01c4 D31A     		subs	r3, r2, r3
 2360 01c6 ADF81C30 		strh	r3, [sp, #28]	@ movhi
 2361              		.loc 1 677 0
 2362 01ca 9DF81320 		ldrb	r2, [sp, #19]	@ zero_extendqisi2
 2363 01ce BDF81C30 		ldrh	r3, [sp, #28]
 2364 01d2 1946     		mov	r1, r3
 2365 01d4 0398     		ldr	r0, [sp, #12]
 2366 01d6 FFF7FEFF 		bl	VL53L0X_calc_timeout_us
 2367 01da 0890     		str	r0, [sp, #32]
 2368              	.L108:
 2369              		.loc 1 682 0
 2370 01dc 019B     		ldr	r3, [sp, #4]
 2371 01de 089A     		ldr	r2, [sp, #32]
 2372 01e0 1A60     		str	r2, [r3]
 2373              		.loc 1 684 0
 2374 01e2 9DF91530 		ldrsb	r3, [sp, #21]
 2375              		.loc 1 685 0
 2376 01e6 1846     		mov	r0, r3
 2377 01e8 044B     		ldr	r3, .L117
 2378 01ea 0B9A     		ldr	r2, [sp, #44]
 2379 01ec 1B68     		ldr	r3, [r3]
 2380 01ee 9A42     		cmp	r2, r3
 2381 01f0 01D0     		beq	.L116
 2382 01f2 FFF7FEFF 		bl	__stack_chk_fail
 2383              	.L116:
 2384 01f6 0DB0     		add	sp, sp, #52
 2385              		.cfi_def_cfa_offset 4
 2386              		@ sp needed
 2387 01f8 5DF804FB 		ldr	pc, [sp], #4
 2388              	.L118:
 2389              		.align	2
 2390              	.L117:
 2391 01fc 00000000 		.word	__stack_chk_guard
 2392              		.cfi_endproc
 2393              	.LFE16:
 2394              		.size	get_sequence_step_timeout, .-get_sequence_step_timeout
ARM GAS  C:\Users\PCHAUT~1\AppData\Local\Temp\ccgoQRgJ.s 			page 43


 2395              		.section	.text.set_sequence_step_timeout,"ax",%progbits
 2396              		.align	1
 2397              		.p2align 4,,15
 2398              		.global	set_sequence_step_timeout
 2399              		.syntax unified
 2400              		.thumb
 2401              		.thumb_func
 2402              		.fpu fpv4-sp-d16
 2403              		.type	set_sequence_step_timeout, %function
 2404              	set_sequence_step_timeout:
 2405              	.LFB17:
 2406              		.loc 1 691 0
 2407              		.cfi_startproc
 2408              		@ args = 0, pretend = 0, frame = 48
 2409              		@ frame_needed = 0, uses_anonymous_args = 0
 2410 0000 00B5     		push	{lr}
 2411              		.cfi_def_cfa_offset 4
 2412              		.cfi_offset 14, -4
 2413 0002 8DB0     		sub	sp, sp, #52
 2414              		.cfi_def_cfa_offset 56
 2415 0004 0390     		str	r0, [sp, #12]
 2416 0006 0B46     		mov	r3, r1
 2417 0008 0192     		str	r2, [sp, #4]
 2418 000a 8DF80B30 		strb	r3, [sp, #11]
 2419              		.loc 1 691 0
 2420 000e 854B     		ldr	r3, .L138
 2421 0010 1B68     		ldr	r3, [r3]
 2422 0012 0B93     		str	r3, [sp, #44]
 2423              		.loc 1 692 0
 2424 0014 0023     		movs	r3, #0
 2425 0016 8DF81630 		strb	r3, [sp, #22]
 2426              		.loc 1 702 0
 2427 001a 9DF80B30 		ldrb	r3, [sp, #11]	@ zero_extendqisi2
 2428 001e 002B     		cmp	r3, #0
 2429 0020 07D0     		beq	.L120
 2430              		.loc 1 702 0 is_stmt 0 discriminator 1
 2431 0022 9DF80B30 		ldrb	r3, [sp, #11]	@ zero_extendqisi2
 2432 0026 012B     		cmp	r3, #1
 2433 0028 03D0     		beq	.L120
 2434              		.loc 1 703 0 is_stmt 1
 2435 002a 9DF80B30 		ldrb	r3, [sp, #11]	@ zero_extendqisi2
 2436 002e 022B     		cmp	r3, #2
 2437 0030 3CD1     		bne	.L121
 2438              	.L120:
 2439              		.loc 1 706 0
 2440 0032 0DF11503 		add	r3, sp, #21
 2441 0036 1A46     		mov	r2, r3
 2442 0038 0021     		movs	r1, #0
 2443 003a 0398     		ldr	r0, [sp, #12]
 2444 003c FFF7FEFF 		bl	VL53L0X_GetVcselPulsePeriod
 2445 0040 0346     		mov	r3, r0
 2446 0042 8DF81630 		strb	r3, [sp, #22]
 2447              		.loc 1 710 0
 2448 0046 9DF91630 		ldrsb	r3, [sp, #22]
 2449 004a 002B     		cmp	r3, #0
 2450 004c 1ED1     		bne	.L122
 2451              		.loc 1 711 0
ARM GAS  C:\Users\PCHAUT~1\AppData\Local\Temp\ccgoQRgJ.s 			page 44


 2452 004e 9DF81530 		ldrb	r3, [sp, #21]	@ zero_extendqisi2
 2453 0052 1A46     		mov	r2, r3
 2454 0054 0199     		ldr	r1, [sp, #4]
 2455 0056 0398     		ldr	r0, [sp, #12]
 2456 0058 FFF7FEFF 		bl	VL53L0X_calc_timeout_mclks
 2457 005c 0346     		mov	r3, r0
 2458 005e ADF81E30 		strh	r3, [sp, #30]	@ movhi
 2459              		.loc 1 715 0
 2460 0062 BDF81E30 		ldrh	r3, [sp, #30]
 2461 0066 B3F5807F 		cmp	r3, #256
 2462 006a 03D9     		bls	.L123
 2463              		.loc 1 716 0
 2464 006c FF23     		movs	r3, #255
 2465 006e 8DF81730 		strb	r3, [sp, #23]
 2466 0072 05E0     		b	.L124
 2467              	.L123:
 2468              		.loc 1 719 0
 2469 0074 BDF81E30 		ldrh	r3, [sp, #30]	@ movhi
 2470 0078 DBB2     		uxtb	r3, r3
 2471              		.loc 1 718 0
 2472 007a 013B     		subs	r3, r3, #1
 2473 007c 8DF81730 		strb	r3, [sp, #23]
 2474              	.L124:
 2475              		.loc 1 721 0
 2476 0080 9DF81730 		ldrb	r3, [sp, #23]	@ zero_extendqisi2
 2477 0084 9AB2     		uxth	r2, r3
 2478 0086 039B     		ldr	r3, [sp, #12]
 2479 0088 A3F8D820 		strh	r2, [r3, #216]	@ movhi
 2480              	.L122:
 2481              		.loc 1 726 0
 2482 008c 9DF91630 		ldrsb	r3, [sp, #22]
 2483 0090 002B     		cmp	r3, #0
 2484 0092 40F0B980 		bne	.L126
 2485              		.loc 1 727 0
 2486 0096 9DF81730 		ldrb	r3, [sp, #23]	@ zero_extendqisi2
 2487 009a 1A46     		mov	r2, r3
 2488 009c 4621     		movs	r1, #70
 2489 009e 0398     		ldr	r0, [sp, #12]
 2490 00a0 FFF7FEFF 		bl	VL53L0X_WrByte
 2491 00a4 0346     		mov	r3, r0
 2492 00a6 8DF81630 		strb	r3, [sp, #22]
 2493              		.loc 1 726 0
 2494 00aa ADE0     		b	.L126
 2495              	.L121:
 2496              		.loc 1 733 0
 2497 00ac 9DF80B30 		ldrb	r3, [sp, #11]	@ zero_extendqisi2
 2498 00b0 032B     		cmp	r3, #3
 2499 00b2 3BD1     		bne	.L127
 2500              		.loc 1 735 0
 2501 00b4 9DF91630 		ldrsb	r3, [sp, #22]
 2502 00b8 002B     		cmp	r3, #0
 2503 00ba 20D1     		bne	.L128
 2504              		.loc 1 736 0
 2505 00bc 0DF11503 		add	r3, sp, #21
 2506 00c0 1A46     		mov	r2, r3
 2507 00c2 0021     		movs	r1, #0
 2508 00c4 0398     		ldr	r0, [sp, #12]
ARM GAS  C:\Users\PCHAUT~1\AppData\Local\Temp\ccgoQRgJ.s 			page 45


 2509 00c6 FFF7FEFF 		bl	VL53L0X_GetVcselPulsePeriod
 2510 00ca 0346     		mov	r3, r0
 2511 00cc 8DF81630 		strb	r3, [sp, #22]
 2512              		.loc 1 740 0
 2513 00d0 9DF81530 		ldrb	r3, [sp, #21]	@ zero_extendqisi2
 2514 00d4 1A46     		mov	r2, r3
 2515 00d6 0199     		ldr	r1, [sp, #4]
 2516 00d8 0398     		ldr	r0, [sp, #12]
 2517 00da FFF7FEFF 		bl	VL53L0X_calc_timeout_mclks
 2518 00de 0346     		mov	r3, r0
 2519              		.loc 1 739 0
 2520 00e0 ADF81A30 		strh	r3, [sp, #26]	@ movhi
 2521              		.loc 1 743 0
 2522 00e4 BDF81A30 		ldrh	r3, [sp, #26]
 2523 00e8 1846     		mov	r0, r3
 2524 00ea FFF7FEFF 		bl	VL53L0X_encode_timeout
 2525 00ee 0346     		mov	r3, r0
 2526 00f0 ADF81830 		strh	r3, [sp, #24]	@ movhi
 2527              		.loc 1 746 0
 2528 00f4 BDF81820 		ldrh	r2, [sp, #24]
 2529 00f8 039B     		ldr	r3, [sp, #12]
 2530 00fa A3F8D820 		strh	r2, [r3, #216]	@ movhi
 2531              	.L128:
 2532              		.loc 1 751 0
 2533 00fe 9DF91630 		ldrsb	r3, [sp, #22]
 2534 0102 002B     		cmp	r3, #0
 2535 0104 09D1     		bne	.L129
 2536              		.loc 1 752 0
 2537 0106 BDF81830 		ldrh	r3, [sp, #24]
 2538 010a 1A46     		mov	r2, r3
 2539 010c 5121     		movs	r1, #81
 2540 010e 0398     		ldr	r0, [sp, #12]
 2541 0110 FFF7FEFF 		bl	VL53L0X_WrWord
 2542 0114 0346     		mov	r3, r0
 2543 0116 8DF81630 		strb	r3, [sp, #22]
 2544              	.L129:
 2545              		.loc 1 757 0
 2546 011a 9DF91630 		ldrsb	r3, [sp, #22]
 2547 011e 002B     		cmp	r3, #0
 2548 0120 72D1     		bne	.L126
 2549              		.loc 1 758 0
 2550 0122 039B     		ldr	r3, [sp, #12]
 2551 0124 019A     		ldr	r2, [sp, #4]
 2552 0126 C3F8E420 		str	r2, [r3, #228]
 2553 012a 6DE0     		b	.L126
 2554              	.L127:
 2555              		.loc 1 763 0
 2556 012c 9DF80B30 		ldrb	r3, [sp, #11]	@ zero_extendqisi2
 2557 0130 042B     		cmp	r3, #4
 2558 0132 66D1     		bne	.L131
 2559              		.loc 1 771 0
 2560 0134 09AB     		add	r3, sp, #36
 2561 0136 1946     		mov	r1, r3
 2562 0138 0398     		ldr	r0, [sp, #12]
 2563 013a FFF7FEFF 		bl	VL53L0X_GetSequenceStepEnables
 2564              		.loc 1 773 0
 2565 013e 0023     		movs	r3, #0
ARM GAS  C:\Users\PCHAUT~1\AppData\Local\Temp\ccgoQRgJ.s 			page 46


 2566 0140 ADF81A30 		strh	r3, [sp, #26]	@ movhi
 2567              		.loc 1 774 0
 2568 0144 9DF82730 		ldrb	r3, [sp, #39]	@ zero_extendqisi2
 2569 0148 002B     		cmp	r3, #0
 2570 014a 1ED0     		beq	.L132
 2571              		.loc 1 777 0
 2572 014c 0DF11503 		add	r3, sp, #21
 2573 0150 1A46     		mov	r2, r3
 2574 0152 0021     		movs	r1, #0
 2575 0154 0398     		ldr	r0, [sp, #12]
 2576 0156 FFF7FEFF 		bl	VL53L0X_GetVcselPulsePeriod
 2577 015a 0346     		mov	r3, r0
 2578 015c 8DF81630 		strb	r3, [sp, #22]
 2579              		.loc 1 783 0
 2580 0160 9DF91630 		ldrsb	r3, [sp, #22]
 2581 0164 002B     		cmp	r3, #0
 2582 0166 10D1     		bne	.L132
 2583              		.loc 1 784 0
 2584 0168 06AB     		add	r3, sp, #24
 2585 016a 1A46     		mov	r2, r3
 2586 016c 5121     		movs	r1, #81
 2587 016e 0398     		ldr	r0, [sp, #12]
 2588 0170 FFF7FEFF 		bl	VL53L0X_RdWord
 2589 0174 0346     		mov	r3, r0
 2590 0176 8DF81630 		strb	r3, [sp, #22]
 2591              		.loc 1 787 0
 2592 017a BDF81830 		ldrh	r3, [sp, #24]
 2593 017e 1846     		mov	r0, r3
 2594 0180 FFF7FEFF 		bl	VL53L0X_decode_timeout
 2595 0184 0346     		mov	r3, r0
 2596              		.loc 1 786 0
 2597 0186 ADF81A30 		strh	r3, [sp, #26]	@ movhi
 2598              	.L132:
 2599              		.loc 1 795 0
 2600 018a 9DF91630 		ldrsb	r3, [sp, #22]
 2601 018e 002B     		cmp	r3, #0
 2602 0190 09D1     		bne	.L133
 2603              		.loc 1 797 0
 2604 0192 0DF11503 		add	r3, sp, #21
 2605 0196 1A46     		mov	r2, r3
 2606 0198 0121     		movs	r1, #1
 2607 019a 0398     		ldr	r0, [sp, #12]
 2608 019c FFF7FEFF 		bl	VL53L0X_GetVcselPulsePeriod
 2609 01a0 0346     		mov	r3, r0
 2610 01a2 8DF81630 		strb	r3, [sp, #22]
 2611              	.L133:
 2612              		.loc 1 801 0
 2613 01a6 9DF91630 		ldrsb	r3, [sp, #22]
 2614 01aa 002B     		cmp	r3, #0
 2615 01ac 2CD1     		bne	.L126
 2616              		.loc 1 804 0
 2617 01ae 9DF81530 		ldrb	r3, [sp, #21]	@ zero_extendqisi2
 2618              		.loc 1 803 0
 2619 01b2 1A46     		mov	r2, r3
 2620 01b4 0199     		ldr	r1, [sp, #4]
 2621 01b6 0398     		ldr	r0, [sp, #12]
 2622 01b8 FFF7FEFF 		bl	VL53L0X_calc_timeout_mclks
ARM GAS  C:\Users\PCHAUT~1\AppData\Local\Temp\ccgoQRgJ.s 			page 47


 2623 01bc 0890     		str	r0, [sp, #32]
 2624              		.loc 1 808 0
 2625 01be BDF81A30 		ldrh	r3, [sp, #26]
 2626 01c2 089A     		ldr	r2, [sp, #32]
 2627 01c4 1344     		add	r3, r3, r2
 2628 01c6 0893     		str	r3, [sp, #32]
 2629              		.loc 1 810 0
 2630 01c8 0898     		ldr	r0, [sp, #32]
 2631 01ca FFF7FEFF 		bl	VL53L0X_encode_timeout
 2632 01ce 0346     		mov	r3, r0
 2633 01d0 ADF81C30 		strh	r3, [sp, #28]	@ movhi
 2634              		.loc 1 813 0
 2635 01d4 9DF91630 		ldrsb	r3, [sp, #22]
 2636 01d8 002B     		cmp	r3, #0
 2637 01da 09D1     		bne	.L135
 2638              		.loc 1 814 0
 2639 01dc BDF81C30 		ldrh	r3, [sp, #28]
 2640 01e0 1A46     		mov	r2, r3
 2641 01e2 7121     		movs	r1, #113
 2642 01e4 0398     		ldr	r0, [sp, #12]
 2643 01e6 FFF7FEFF 		bl	VL53L0X_WrWord
 2644 01ea 0346     		mov	r3, r0
 2645 01ec 8DF81630 		strb	r3, [sp, #22]
 2646              	.L135:
 2647              		.loc 1 818 0
 2648 01f0 9DF91630 		ldrsb	r3, [sp, #22]
 2649 01f4 002B     		cmp	r3, #0
 2650 01f6 07D1     		bne	.L126
 2651              		.loc 1 819 0
 2652 01f8 039B     		ldr	r3, [sp, #12]
 2653 01fa 019A     		ldr	r2, [sp, #4]
 2654 01fc C3F8DC20 		str	r2, [r3, #220]
 2655 0200 02E0     		b	.L126
 2656              	.L131:
 2657              		.loc 1 826 0
 2658 0202 FC23     		movs	r3, #252
 2659 0204 8DF81630 		strb	r3, [sp, #22]
 2660              	.L126:
 2661              		.loc 1 829 0
 2662 0208 9DF91630 		ldrsb	r3, [sp, #22]
 2663              		.loc 1 830 0
 2664 020c 1846     		mov	r0, r3
 2665 020e 054B     		ldr	r3, .L138
 2666 0210 0B9A     		ldr	r2, [sp, #44]
 2667 0212 1B68     		ldr	r3, [r3]
 2668 0214 9A42     		cmp	r2, r3
 2669 0216 01D0     		beq	.L137
 2670 0218 FFF7FEFF 		bl	__stack_chk_fail
 2671              	.L137:
 2672 021c 0DB0     		add	sp, sp, #52
 2673              		.cfi_def_cfa_offset 4
 2674              		@ sp needed
 2675 021e 5DF804FB 		ldr	pc, [sp], #4
 2676              	.L139:
 2677 0222 00BF     		.align	2
 2678              	.L138:
 2679 0224 00000000 		.word	__stack_chk_guard
ARM GAS  C:\Users\PCHAUT~1\AppData\Local\Temp\ccgoQRgJ.s 			page 48


 2680              		.cfi_endproc
 2681              	.LFE17:
 2682              		.size	set_sequence_step_timeout, .-set_sequence_step_timeout
 2683              		.section	.text.VL53L0X_set_vcsel_pulse_period,"ax",%progbits
 2684              		.align	1
 2685              		.p2align 4,,15
 2686              		.global	VL53L0X_set_vcsel_pulse_period
 2687              		.syntax unified
 2688              		.thumb
 2689              		.thumb_func
 2690              		.fpu fpv4-sp-d16
 2691              		.type	VL53L0X_set_vcsel_pulse_period, %function
 2692              	VL53L0X_set_vcsel_pulse_period:
 2693              	.LFB18:
 2694              		.loc 1 834 0
 2695              		.cfi_startproc
 2696              		@ args = 0, pretend = 0, frame = 40
 2697              		@ frame_needed = 0, uses_anonymous_args = 0
 2698 0000 00B5     		push	{lr}
 2699              		.cfi_def_cfa_offset 4
 2700              		.cfi_offset 14, -4
 2701 0002 8BB0     		sub	sp, sp, #44
 2702              		.cfi_def_cfa_offset 48
 2703 0004 0190     		str	r0, [sp, #4]
 2704 0006 0B46     		mov	r3, r1
 2705 0008 8DF80330 		strb	r3, [sp, #3]
 2706 000c 1346     		mov	r3, r2
 2707 000e 8DF80230 		strb	r3, [sp, #2]
 2708              		.loc 1 834 0
 2709 0012 CF4B     		ldr	r3, .L173
 2710 0014 1B68     		ldr	r3, [r3]
 2711 0016 0993     		str	r3, [sp, #36]
 2712              		.loc 1 835 0
 2713 0018 0023     		movs	r3, #0
 2714 001a 8DF80E30 		strb	r3, [sp, #14]
 2715              		.loc 1 837 0
 2716 001e 0C23     		movs	r3, #12
 2717 0020 8DF80F30 		strb	r3, [sp, #15]
 2718              		.loc 1 838 0
 2719 0024 1223     		movs	r3, #18
 2720 0026 8DF81030 		strb	r3, [sp, #16]
 2721              		.loc 1 839 0
 2722 002a 0823     		movs	r3, #8
 2723 002c 8DF81130 		strb	r3, [sp, #17]
 2724              		.loc 1 840 0
 2725 0030 0E23     		movs	r3, #14
 2726 0032 8DF81230 		strb	r3, [sp, #18]
 2727              		.loc 1 845 0
 2728 0036 0023     		movs	r3, #0
 2729 0038 8DF80D30 		strb	r3, [sp, #13]
 2730              		.loc 1 849 0
 2731 003c 9DF80230 		ldrb	r3, [sp, #2]
 2732 0040 03F00103 		and	r3, r3, #1
 2733 0044 DBB2     		uxtb	r3, r3
 2734 0046 002B     		cmp	r3, #0
 2735 0048 03D0     		beq	.L141
 2736              		.loc 1 851 0
ARM GAS  C:\Users\PCHAUT~1\AppData\Local\Temp\ccgoQRgJ.s 			page 49


 2737 004a FC23     		movs	r3, #252
 2738 004c 8DF80E30 		strb	r3, [sp, #14]
 2739 0050 26E0     		b	.L142
 2740              	.L141:
 2741              		.loc 1 852 0
 2742 0052 9DF80330 		ldrb	r3, [sp, #3]	@ zero_extendqisi2
 2743 0056 002B     		cmp	r3, #0
 2744 0058 0FD1     		bne	.L143
 2745              		.loc 1 852 0 is_stmt 0 discriminator 1
 2746 005a 9DF80220 		ldrb	r2, [sp, #2]	@ zero_extendqisi2
 2747 005e 9DF80F30 		ldrb	r3, [sp, #15]	@ zero_extendqisi2
 2748 0062 9A42     		cmp	r2, r3
 2749 0064 05D3     		bcc	.L144
 2750              		.loc 1 853 0 is_stmt 1
 2751 0066 9DF80220 		ldrb	r2, [sp, #2]	@ zero_extendqisi2
 2752 006a 9DF81030 		ldrb	r3, [sp, #16]	@ zero_extendqisi2
 2753 006e 9A42     		cmp	r2, r3
 2754 0070 03D9     		bls	.L143
 2755              	.L144:
 2756              		.loc 1 855 0
 2757 0072 FC23     		movs	r3, #252
 2758 0074 8DF80E30 		strb	r3, [sp, #14]
 2759 0078 12E0     		b	.L142
 2760              	.L143:
 2761              		.loc 1 856 0
 2762 007a 9DF80330 		ldrb	r3, [sp, #3]	@ zero_extendqisi2
 2763 007e 012B     		cmp	r3, #1
 2764 0080 0ED1     		bne	.L142
 2765              		.loc 1 856 0 is_stmt 0 discriminator 1
 2766 0082 9DF80220 		ldrb	r2, [sp, #2]	@ zero_extendqisi2
 2767 0086 9DF81130 		ldrb	r3, [sp, #17]	@ zero_extendqisi2
 2768 008a 9A42     		cmp	r2, r3
 2769 008c 05D3     		bcc	.L145
 2770              		.loc 1 857 0 is_stmt 1
 2771 008e 9DF80220 		ldrb	r2, [sp, #2]	@ zero_extendqisi2
 2772 0092 9DF81230 		ldrb	r3, [sp, #18]	@ zero_extendqisi2
 2773 0096 9A42     		cmp	r2, r3
 2774 0098 02D9     		bls	.L142
 2775              	.L145:
 2776              		.loc 1 860 0
 2777 009a FC23     		movs	r3, #252
 2778 009c 8DF80E30 		strb	r3, [sp, #14]
 2779              	.L142:
 2780              		.loc 1 865 0
 2781 00a0 9DF90E30 		ldrsb	r3, [sp, #14]
 2782 00a4 002B     		cmp	r3, #0
 2783 00a6 02D0     		beq	.L146
 2784              		.loc 1 866 0
 2785 00a8 9DF90E30 		ldrsb	r3, [sp, #14]
 2786 00ac 47E2     		b	.L169
 2787              	.L146:
 2788              		.loc 1 869 0
 2789 00ae 9DF80330 		ldrb	r3, [sp, #3]	@ zero_extendqisi2
 2790 00b2 002B     		cmp	r3, #0
 2791 00b4 54D1     		bne	.L148
 2792              		.loc 1 872 0
 2793 00b6 9DF80230 		ldrb	r3, [sp, #2]	@ zero_extendqisi2
ARM GAS  C:\Users\PCHAUT~1\AppData\Local\Temp\ccgoQRgJ.s 			page 50


 2794 00ba 0C2B     		cmp	r3, #12
 2795 00bc 10D1     		bne	.L149
 2796              		.loc 1 874 0
 2797 00be 1822     		movs	r2, #24
 2798 00c0 5721     		movs	r1, #87
 2799 00c2 0198     		ldr	r0, [sp, #4]
 2800 00c4 FFF7FEFF 		bl	VL53L0X_WrByte
 2801 00c8 0346     		mov	r3, r0
 2802 00ca 8DF80E30 		strb	r3, [sp, #14]
 2803              		.loc 1 877 0
 2804 00ce 0822     		movs	r2, #8
 2805 00d0 5621     		movs	r1, #86
 2806 00d2 0198     		ldr	r0, [sp, #4]
 2807 00d4 FFF7FEFF 		bl	VL53L0X_WrByte
 2808 00d8 0346     		mov	r3, r0
 2809 00da 8DF80E30 		strb	r3, [sp, #14]
 2810 00de 89E1     		b	.L153
 2811              	.L149:
 2812              		.loc 1 880 0
 2813 00e0 9DF80230 		ldrb	r3, [sp, #2]	@ zero_extendqisi2
 2814 00e4 0E2B     		cmp	r3, #14
 2815 00e6 10D1     		bne	.L151
 2816              		.loc 1 882 0
 2817 00e8 3022     		movs	r2, #48
 2818 00ea 5721     		movs	r1, #87
 2819 00ec 0198     		ldr	r0, [sp, #4]
 2820 00ee FFF7FEFF 		bl	VL53L0X_WrByte
 2821 00f2 0346     		mov	r3, r0
 2822 00f4 8DF80E30 		strb	r3, [sp, #14]
 2823              		.loc 1 885 0
 2824 00f8 0822     		movs	r2, #8
 2825 00fa 5621     		movs	r1, #86
 2826 00fc 0198     		ldr	r0, [sp, #4]
 2827 00fe FFF7FEFF 		bl	VL53L0X_WrByte
 2828 0102 0346     		mov	r3, r0
 2829 0104 8DF80E30 		strb	r3, [sp, #14]
 2830 0108 74E1     		b	.L153
 2831              	.L151:
 2832              		.loc 1 888 0
 2833 010a 9DF80230 		ldrb	r3, [sp, #2]	@ zero_extendqisi2
 2834 010e 102B     		cmp	r3, #16
 2835 0110 10D1     		bne	.L152
 2836              		.loc 1 890 0
 2837 0112 4022     		movs	r2, #64
 2838 0114 5721     		movs	r1, #87
 2839 0116 0198     		ldr	r0, [sp, #4]
 2840 0118 FFF7FEFF 		bl	VL53L0X_WrByte
 2841 011c 0346     		mov	r3, r0
 2842 011e 8DF80E30 		strb	r3, [sp, #14]
 2843              		.loc 1 893 0
 2844 0122 0822     		movs	r2, #8
 2845 0124 5621     		movs	r1, #86
 2846 0126 0198     		ldr	r0, [sp, #4]
 2847 0128 FFF7FEFF 		bl	VL53L0X_WrByte
 2848 012c 0346     		mov	r3, r0
 2849 012e 8DF80E30 		strb	r3, [sp, #14]
 2850 0132 5FE1     		b	.L153
ARM GAS  C:\Users\PCHAUT~1\AppData\Local\Temp\ccgoQRgJ.s 			page 51


 2851              	.L152:
 2852              		.loc 1 896 0
 2853 0134 9DF80230 		ldrb	r3, [sp, #2]	@ zero_extendqisi2
 2854 0138 122B     		cmp	r3, #18
 2855 013a 40F05B81 		bne	.L153
 2856              		.loc 1 898 0
 2857 013e 5022     		movs	r2, #80
 2858 0140 5721     		movs	r1, #87
 2859 0142 0198     		ldr	r0, [sp, #4]
 2860 0144 FFF7FEFF 		bl	VL53L0X_WrByte
 2861 0148 0346     		mov	r3, r0
 2862 014a 8DF80E30 		strb	r3, [sp, #14]
 2863              		.loc 1 901 0
 2864 014e 0822     		movs	r2, #8
 2865 0150 5621     		movs	r1, #86
 2866 0152 0198     		ldr	r0, [sp, #4]
 2867 0154 FFF7FEFF 		bl	VL53L0X_WrByte
 2868 0158 0346     		mov	r3, r0
 2869 015a 8DF80E30 		strb	r3, [sp, #14]
 2870 015e 49E1     		b	.L153
 2871              	.L148:
 2872              		.loc 1 905 0
 2873 0160 9DF80330 		ldrb	r3, [sp, #3]	@ zero_extendqisi2
 2874 0164 012B     		cmp	r3, #1
 2875 0166 40F04581 		bne	.L153
 2876              		.loc 1 907 0
 2877 016a 9DF80230 		ldrb	r3, [sp, #2]	@ zero_extendqisi2
 2878 016e 082B     		cmp	r3, #8
 2879 0170 4CD1     		bne	.L154
 2880              		.loc 1 909 0
 2881 0172 1022     		movs	r2, #16
 2882 0174 4821     		movs	r1, #72
 2883 0176 0198     		ldr	r0, [sp, #4]
 2884 0178 FFF7FEFF 		bl	VL53L0X_WrByte
 2885 017c 0346     		mov	r3, r0
 2886 017e 8DF80E30 		strb	r3, [sp, #14]
 2887              		.loc 1 912 0
 2888 0182 0822     		movs	r2, #8
 2889 0184 4721     		movs	r1, #71
 2890 0186 0198     		ldr	r0, [sp, #4]
 2891 0188 FFF7FEFF 		bl	VL53L0X_WrByte
 2892 018c 0346     		mov	r3, r0
 2893 018e 8DF80E30 		strb	r3, [sp, #14]
 2894              		.loc 1 916 0
 2895 0192 0222     		movs	r2, #2
 2896 0194 3221     		movs	r1, #50
 2897 0196 0198     		ldr	r0, [sp, #4]
 2898 0198 FFF7FEFF 		bl	VL53L0X_WrByte
 2899 019c 0346     		mov	r3, r0
 2900 019e 1A46     		mov	r2, r3
 2901 01a0 9DF80E30 		ldrb	r3, [sp, #14]
 2902 01a4 1343     		orrs	r3, r3, r2
 2903 01a6 8DF80E30 		strb	r3, [sp, #14]
 2904              		.loc 1 918 0
 2905 01aa 0C22     		movs	r2, #12
 2906 01ac 3021     		movs	r1, #48
 2907 01ae 0198     		ldr	r0, [sp, #4]
ARM GAS  C:\Users\PCHAUT~1\AppData\Local\Temp\ccgoQRgJ.s 			page 52


 2908 01b0 FFF7FEFF 		bl	VL53L0X_WrByte
 2909 01b4 0346     		mov	r3, r0
 2910 01b6 1A46     		mov	r2, r3
 2911 01b8 9DF80E30 		ldrb	r3, [sp, #14]
 2912 01bc 1343     		orrs	r3, r3, r2
 2913 01be 8DF80E30 		strb	r3, [sp, #14]
 2914              		.loc 1 921 0
 2915 01c2 0122     		movs	r2, #1
 2916 01c4 FF21     		movs	r1, #255
 2917 01c6 0198     		ldr	r0, [sp, #4]
 2918 01c8 FFF7FEFF 		bl	VL53L0X_WrByte
 2919 01cc 0346     		mov	r3, r0
 2920 01ce 1A46     		mov	r2, r3
 2921 01d0 9DF80E30 		ldrb	r3, [sp, #14]
 2922 01d4 1343     		orrs	r3, r3, r2
 2923 01d6 8DF80E30 		strb	r3, [sp, #14]
 2924              		.loc 1 922 0
 2925 01da 3022     		movs	r2, #48
 2926 01dc 3021     		movs	r1, #48
 2927 01de 0198     		ldr	r0, [sp, #4]
 2928 01e0 FFF7FEFF 		bl	VL53L0X_WrByte
 2929 01e4 0346     		mov	r3, r0
 2930 01e6 1A46     		mov	r2, r3
 2931 01e8 9DF80E30 		ldrb	r3, [sp, #14]
 2932 01ec 1343     		orrs	r3, r3, r2
 2933 01ee 8DF80E30 		strb	r3, [sp, #14]
 2934              		.loc 1 925 0
 2935 01f2 0022     		movs	r2, #0
 2936 01f4 FF21     		movs	r1, #255
 2937 01f6 0198     		ldr	r0, [sp, #4]
 2938 01f8 FFF7FEFF 		bl	VL53L0X_WrByte
 2939 01fc 0346     		mov	r3, r0
 2940 01fe 1A46     		mov	r2, r3
 2941 0200 9DF80E30 		ldrb	r3, [sp, #14]
 2942 0204 1343     		orrs	r3, r3, r2
 2943 0206 8DF80E30 		strb	r3, [sp, #14]
 2944 020a F3E0     		b	.L153
 2945              	.L154:
 2946              		.loc 1 926 0
 2947 020c 9DF80230 		ldrb	r3, [sp, #2]	@ zero_extendqisi2
 2948 0210 0A2B     		cmp	r3, #10
 2949 0212 4CD1     		bne	.L155
 2950              		.loc 1 928 0
 2951 0214 2822     		movs	r2, #40
 2952 0216 4821     		movs	r1, #72
 2953 0218 0198     		ldr	r0, [sp, #4]
 2954 021a FFF7FEFF 		bl	VL53L0X_WrByte
 2955 021e 0346     		mov	r3, r0
 2956 0220 8DF80E30 		strb	r3, [sp, #14]
 2957              		.loc 1 931 0
 2958 0224 0822     		movs	r2, #8
 2959 0226 4721     		movs	r1, #71
 2960 0228 0198     		ldr	r0, [sp, #4]
 2961 022a FFF7FEFF 		bl	VL53L0X_WrByte
 2962 022e 0346     		mov	r3, r0
 2963 0230 8DF80E30 		strb	r3, [sp, #14]
 2964              		.loc 1 935 0
ARM GAS  C:\Users\PCHAUT~1\AppData\Local\Temp\ccgoQRgJ.s 			page 53


 2965 0234 0322     		movs	r2, #3
 2966 0236 3221     		movs	r1, #50
 2967 0238 0198     		ldr	r0, [sp, #4]
 2968 023a FFF7FEFF 		bl	VL53L0X_WrByte
 2969 023e 0346     		mov	r3, r0
 2970 0240 1A46     		mov	r2, r3
 2971 0242 9DF80E30 		ldrb	r3, [sp, #14]
 2972 0246 1343     		orrs	r3, r3, r2
 2973 0248 8DF80E30 		strb	r3, [sp, #14]
 2974              		.loc 1 937 0
 2975 024c 0922     		movs	r2, #9
 2976 024e 3021     		movs	r1, #48
 2977 0250 0198     		ldr	r0, [sp, #4]
 2978 0252 FFF7FEFF 		bl	VL53L0X_WrByte
 2979 0256 0346     		mov	r3, r0
 2980 0258 1A46     		mov	r2, r3
 2981 025a 9DF80E30 		ldrb	r3, [sp, #14]
 2982 025e 1343     		orrs	r3, r3, r2
 2983 0260 8DF80E30 		strb	r3, [sp, #14]
 2984              		.loc 1 940 0
 2985 0264 0122     		movs	r2, #1
 2986 0266 FF21     		movs	r1, #255
 2987 0268 0198     		ldr	r0, [sp, #4]
 2988 026a FFF7FEFF 		bl	VL53L0X_WrByte
 2989 026e 0346     		mov	r3, r0
 2990 0270 1A46     		mov	r2, r3
 2991 0272 9DF80E30 		ldrb	r3, [sp, #14]
 2992 0276 1343     		orrs	r3, r3, r2
 2993 0278 8DF80E30 		strb	r3, [sp, #14]
 2994              		.loc 1 941 0
 2995 027c 2022     		movs	r2, #32
 2996 027e 3021     		movs	r1, #48
 2997 0280 0198     		ldr	r0, [sp, #4]
 2998 0282 FFF7FEFF 		bl	VL53L0X_WrByte
 2999 0286 0346     		mov	r3, r0
 3000 0288 1A46     		mov	r2, r3
 3001 028a 9DF80E30 		ldrb	r3, [sp, #14]
 3002 028e 1343     		orrs	r3, r3, r2
 3003 0290 8DF80E30 		strb	r3, [sp, #14]
 3004              		.loc 1 944 0
 3005 0294 0022     		movs	r2, #0
 3006 0296 FF21     		movs	r1, #255
 3007 0298 0198     		ldr	r0, [sp, #4]
 3008 029a FFF7FEFF 		bl	VL53L0X_WrByte
 3009 029e 0346     		mov	r3, r0
 3010 02a0 1A46     		mov	r2, r3
 3011 02a2 9DF80E30 		ldrb	r3, [sp, #14]
 3012 02a6 1343     		orrs	r3, r3, r2
 3013 02a8 8DF80E30 		strb	r3, [sp, #14]
 3014 02ac A2E0     		b	.L153
 3015              	.L155:
 3016              		.loc 1 945 0
 3017 02ae 9DF80230 		ldrb	r3, [sp, #2]	@ zero_extendqisi2
 3018 02b2 0C2B     		cmp	r3, #12
 3019 02b4 4ED1     		bne	.L156
 3020              		.loc 1 947 0
 3021 02b6 3822     		movs	r2, #56
ARM GAS  C:\Users\PCHAUT~1\AppData\Local\Temp\ccgoQRgJ.s 			page 54


 3022 02b8 4821     		movs	r1, #72
 3023 02ba 0198     		ldr	r0, [sp, #4]
 3024 02bc FFF7FEFF 		bl	VL53L0X_WrByte
 3025 02c0 0346     		mov	r3, r0
 3026 02c2 8DF80E30 		strb	r3, [sp, #14]
 3027              		.loc 1 950 0
 3028 02c6 0822     		movs	r2, #8
 3029 02c8 4721     		movs	r1, #71
 3030 02ca 0198     		ldr	r0, [sp, #4]
 3031 02cc FFF7FEFF 		bl	VL53L0X_WrByte
 3032 02d0 0346     		mov	r3, r0
 3033 02d2 8DF80E30 		strb	r3, [sp, #14]
 3034              		.loc 1 954 0
 3035 02d6 0322     		movs	r2, #3
 3036 02d8 3221     		movs	r1, #50
 3037 02da 0198     		ldr	r0, [sp, #4]
 3038 02dc FFF7FEFF 		bl	VL53L0X_WrByte
 3039 02e0 0346     		mov	r3, r0
 3040 02e2 1A46     		mov	r2, r3
 3041 02e4 9DF80E30 		ldrb	r3, [sp, #14]
 3042 02e8 1343     		orrs	r3, r3, r2
 3043 02ea 8DF80E30 		strb	r3, [sp, #14]
 3044              		.loc 1 956 0
 3045 02ee 0822     		movs	r2, #8
 3046 02f0 3021     		movs	r1, #48
 3047 02f2 0198     		ldr	r0, [sp, #4]
 3048 02f4 FFF7FEFF 		bl	VL53L0X_WrByte
 3049 02f8 0346     		mov	r3, r0
 3050 02fa 1A46     		mov	r2, r3
 3051 02fc 9DF80E30 		ldrb	r3, [sp, #14]
 3052 0300 1343     		orrs	r3, r3, r2
 3053 0302 8DF80E30 		strb	r3, [sp, #14]
 3054              		.loc 1 959 0
 3055 0306 0122     		movs	r2, #1
 3056 0308 FF21     		movs	r1, #255
 3057 030a 0198     		ldr	r0, [sp, #4]
 3058 030c FFF7FEFF 		bl	VL53L0X_WrByte
 3059 0310 0346     		mov	r3, r0
 3060 0312 1A46     		mov	r2, r3
 3061 0314 9DF80E30 		ldrb	r3, [sp, #14]
 3062 0318 1343     		orrs	r3, r3, r2
 3063 031a 8DF80E30 		strb	r3, [sp, #14]
 3064              		.loc 1 960 0
 3065 031e 2022     		movs	r2, #32
 3066 0320 3021     		movs	r1, #48
 3067 0322 0198     		ldr	r0, [sp, #4]
 3068 0324 FFF7FEFF 		bl	VL53L0X_WrByte
 3069 0328 0346     		mov	r3, r0
 3070 032a 1A46     		mov	r2, r3
 3071 032c 9DF80E30 		ldrb	r3, [sp, #14]
 3072 0330 1343     		orrs	r3, r3, r2
 3073 0332 8DF80E30 		strb	r3, [sp, #14]
 3074              		.loc 1 963 0
 3075 0336 0022     		movs	r2, #0
 3076 0338 FF21     		movs	r1, #255
 3077 033a 0198     		ldr	r0, [sp, #4]
 3078 033c FFF7FEFF 		bl	VL53L0X_WrByte
ARM GAS  C:\Users\PCHAUT~1\AppData\Local\Temp\ccgoQRgJ.s 			page 55


 3079 0340 0346     		mov	r3, r0
 3080 0342 1A46     		mov	r2, r3
 3081 0344 9DF80E30 		ldrb	r3, [sp, #14]
 3082 0348 1343     		orrs	r3, r3, r2
 3083 034a 8DF80E30 		strb	r3, [sp, #14]
 3084 034e 51E0     		b	.L153
 3085              	.L174:
 3086              		.align	2
 3087              	.L173:
 3088 0350 00000000 		.word	__stack_chk_guard
 3089              	.L156:
 3090              		.loc 1 964 0
 3091 0354 9DF80230 		ldrb	r3, [sp, #2]	@ zero_extendqisi2
 3092 0358 0E2B     		cmp	r3, #14
 3093 035a 4BD1     		bne	.L153
 3094              		.loc 1 966 0
 3095 035c 4822     		movs	r2, #72
 3096 035e 4821     		movs	r1, #72
 3097 0360 0198     		ldr	r0, [sp, #4]
 3098 0362 FFF7FEFF 		bl	VL53L0X_WrByte
 3099 0366 0346     		mov	r3, r0
 3100 0368 8DF80E30 		strb	r3, [sp, #14]
 3101              		.loc 1 969 0
 3102 036c 0822     		movs	r2, #8
 3103 036e 4721     		movs	r1, #71
 3104 0370 0198     		ldr	r0, [sp, #4]
 3105 0372 FFF7FEFF 		bl	VL53L0X_WrByte
 3106 0376 0346     		mov	r3, r0
 3107 0378 8DF80E30 		strb	r3, [sp, #14]
 3108              		.loc 1 973 0
 3109 037c 0322     		movs	r2, #3
 3110 037e 3221     		movs	r1, #50
 3111 0380 0198     		ldr	r0, [sp, #4]
 3112 0382 FFF7FEFF 		bl	VL53L0X_WrByte
 3113 0386 0346     		mov	r3, r0
 3114 0388 1A46     		mov	r2, r3
 3115 038a 9DF80E30 		ldrb	r3, [sp, #14]
 3116 038e 1343     		orrs	r3, r3, r2
 3117 0390 8DF80E30 		strb	r3, [sp, #14]
 3118              		.loc 1 975 0
 3119 0394 0722     		movs	r2, #7
 3120 0396 3021     		movs	r1, #48
 3121 0398 0198     		ldr	r0, [sp, #4]
 3122 039a FFF7FEFF 		bl	VL53L0X_WrByte
 3123 039e 0346     		mov	r3, r0
 3124 03a0 1A46     		mov	r2, r3
 3125 03a2 9DF80E30 		ldrb	r3, [sp, #14]
 3126 03a6 1343     		orrs	r3, r3, r2
 3127 03a8 8DF80E30 		strb	r3, [sp, #14]
 3128              		.loc 1 978 0
 3129 03ac 0122     		movs	r2, #1
 3130 03ae FF21     		movs	r1, #255
 3131 03b0 0198     		ldr	r0, [sp, #4]
 3132 03b2 FFF7FEFF 		bl	VL53L0X_WrByte
 3133 03b6 0346     		mov	r3, r0
 3134 03b8 1A46     		mov	r2, r3
 3135 03ba 9DF80E30 		ldrb	r3, [sp, #14]
ARM GAS  C:\Users\PCHAUT~1\AppData\Local\Temp\ccgoQRgJ.s 			page 56


 3136 03be 1343     		orrs	r3, r3, r2
 3137 03c0 8DF80E30 		strb	r3, [sp, #14]
 3138              		.loc 1 979 0
 3139 03c4 2022     		movs	r2, #32
 3140 03c6 3021     		movs	r1, #48
 3141 03c8 0198     		ldr	r0, [sp, #4]
 3142 03ca FFF7FEFF 		bl	VL53L0X_WrByte
 3143 03ce 0346     		mov	r3, r0
 3144 03d0 1A46     		mov	r2, r3
 3145 03d2 9DF80E30 		ldrb	r3, [sp, #14]
 3146 03d6 1343     		orrs	r3, r3, r2
 3147 03d8 8DF80E30 		strb	r3, [sp, #14]
 3148              		.loc 1 982 0
 3149 03dc 0022     		movs	r2, #0
 3150 03de FF21     		movs	r1, #255
 3151 03e0 0198     		ldr	r0, [sp, #4]
 3152 03e2 FFF7FEFF 		bl	VL53L0X_WrByte
 3153 03e6 0346     		mov	r3, r0
 3154 03e8 1A46     		mov	r2, r3
 3155 03ea 9DF80E30 		ldrb	r3, [sp, #14]
 3156 03ee 1343     		orrs	r3, r3, r2
 3157 03f0 8DF80E30 		strb	r3, [sp, #14]
 3158              	.L153:
 3159              		.loc 1 989 0
 3160 03f4 9DF90E30 		ldrsb	r3, [sp, #14]
 3161 03f8 002B     		cmp	r3, #0
 3162 03fa 40F08180 		bne	.L172
 3163              		.loc 1 990 0
 3164 03fe 9DF80230 		ldrb	r3, [sp, #2]	@ zero_extendqisi2
 3165 0402 1846     		mov	r0, r3
 3166 0404 FFF7FEFF 		bl	VL53L0X_encode_vcsel_period
 3167 0408 0346     		mov	r3, r0
 3168 040a 8DF81330 		strb	r3, [sp, #19]
 3169              		.loc 1 1002 0
 3170 040e 9DF80330 		ldrb	r3, [sp, #3]	@ zero_extendqisi2
 3171 0412 002B     		cmp	r3, #0
 3172 0414 02D0     		beq	.L159
 3173 0416 012B     		cmp	r3, #1
 3174 0418 44D0     		beq	.L160
 3175 041a 6DE0     		b	.L171
 3176              	.L159:
 3177              		.loc 1 1004 0
 3178 041c 06AB     		add	r3, sp, #24
 3179 041e 1A46     		mov	r2, r3
 3180 0420 0321     		movs	r1, #3
 3181 0422 0198     		ldr	r0, [sp, #4]
 3182 0424 FFF7FEFF 		bl	get_sequence_step_timeout
 3183 0428 0346     		mov	r3, r0
 3184 042a 8DF80E30 		strb	r3, [sp, #14]
 3185              		.loc 1 1008 0
 3186 042e 9DF90E30 		ldrsb	r3, [sp, #14]
 3187 0432 002B     		cmp	r3, #0
 3188 0434 08D1     		bne	.L161
 3189              		.loc 1 1009 0
 3190 0436 07AB     		add	r3, sp, #28
 3191 0438 1A46     		mov	r2, r3
 3192 043a 0221     		movs	r1, #2
ARM GAS  C:\Users\PCHAUT~1\AppData\Local\Temp\ccgoQRgJ.s 			page 57


 3193 043c 0198     		ldr	r0, [sp, #4]
 3194 043e FFF7FEFF 		bl	get_sequence_step_timeout
 3195 0442 0346     		mov	r3, r0
 3196 0444 8DF80E30 		strb	r3, [sp, #14]
 3197              	.L161:
 3198              		.loc 1 1013 0
 3199 0448 9DF90E30 		ldrsb	r3, [sp, #14]
 3200 044c 002B     		cmp	r3, #0
 3201 044e 09D1     		bne	.L162
 3202              		.loc 1 1014 0
 3203 0450 9DF81330 		ldrb	r3, [sp, #19]	@ zero_extendqisi2
 3204 0454 1A46     		mov	r2, r3
 3205 0456 5021     		movs	r1, #80
 3206 0458 0198     		ldr	r0, [sp, #4]
 3207 045a FFF7FEFF 		bl	VL53L0X_WrByte
 3208 045e 0346     		mov	r3, r0
 3209 0460 8DF80E30 		strb	r3, [sp, #14]
 3210              	.L162:
 3211              		.loc 1 1019 0
 3212 0464 9DF90E30 		ldrsb	r3, [sp, #14]
 3213 0468 002B     		cmp	r3, #0
 3214 046a 08D1     		bne	.L163
 3215              		.loc 1 1020 0
 3216 046c 069B     		ldr	r3, [sp, #24]
 3217 046e 1A46     		mov	r2, r3
 3218 0470 0321     		movs	r1, #3
 3219 0472 0198     		ldr	r0, [sp, #4]
 3220 0474 FFF7FEFF 		bl	set_sequence_step_timeout
 3221 0478 0346     		mov	r3, r0
 3222 047a 8DF80E30 		strb	r3, [sp, #14]
 3223              	.L163:
 3224              		.loc 1 1025 0
 3225 047e 9DF90E30 		ldrsb	r3, [sp, #14]
 3226 0482 002B     		cmp	r3, #0
 3227 0484 08D1     		bne	.L164
 3228              		.loc 1 1026 0
 3229 0486 079B     		ldr	r3, [sp, #28]
 3230 0488 1A46     		mov	r2, r3
 3231 048a 0221     		movs	r1, #2
 3232 048c 0198     		ldr	r0, [sp, #4]
 3233 048e FFF7FEFF 		bl	set_sequence_step_timeout
 3234 0492 0346     		mov	r3, r0
 3235 0494 8DF80E30 		strb	r3, [sp, #14]
 3236              	.L164:
 3237              		.loc 1 1030 0
 3238 0498 019B     		ldr	r3, [sp, #4]
 3239 049a 9DF80220 		ldrb	r2, [sp, #2]
 3240 049e 83F8E820 		strb	r2, [r3, #232]
 3241              		.loc 1 1034 0
 3242 04a2 2EE0     		b	.L157
 3243              	.L160:
 3244              		.loc 1 1036 0
 3245 04a4 05AB     		add	r3, sp, #20
 3246 04a6 1A46     		mov	r2, r3
 3247 04a8 0421     		movs	r1, #4
 3248 04aa 0198     		ldr	r0, [sp, #4]
 3249 04ac FFF7FEFF 		bl	get_sequence_step_timeout
ARM GAS  C:\Users\PCHAUT~1\AppData\Local\Temp\ccgoQRgJ.s 			page 58


 3250 04b0 0346     		mov	r3, r0
 3251 04b2 8DF80E30 		strb	r3, [sp, #14]
 3252              		.loc 1 1040 0
 3253 04b6 9DF90E30 		ldrsb	r3, [sp, #14]
 3254 04ba 002B     		cmp	r3, #0
 3255 04bc 09D1     		bne	.L165
 3256              		.loc 1 1041 0
 3257 04be 9DF81330 		ldrb	r3, [sp, #19]	@ zero_extendqisi2
 3258 04c2 1A46     		mov	r2, r3
 3259 04c4 7021     		movs	r1, #112
 3260 04c6 0198     		ldr	r0, [sp, #4]
 3261 04c8 FFF7FEFF 		bl	VL53L0X_WrByte
 3262 04cc 0346     		mov	r3, r0
 3263 04ce 8DF80E30 		strb	r3, [sp, #14]
 3264              	.L165:
 3265              		.loc 1 1046 0
 3266 04d2 9DF90E30 		ldrsb	r3, [sp, #14]
 3267 04d6 002B     		cmp	r3, #0
 3268 04d8 08D1     		bne	.L166
 3269              		.loc 1 1047 0
 3270 04da 059B     		ldr	r3, [sp, #20]
 3271 04dc 1A46     		mov	r2, r3
 3272 04de 0421     		movs	r1, #4
 3273 04e0 0198     		ldr	r0, [sp, #4]
 3274 04e2 FFF7FEFF 		bl	set_sequence_step_timeout
 3275 04e6 0346     		mov	r3, r0
 3276 04e8 8DF80E30 		strb	r3, [sp, #14]
 3277              	.L166:
 3278              		.loc 1 1051 0
 3279 04ec 019B     		ldr	r3, [sp, #4]
 3280 04ee 9DF80220 		ldrb	r2, [sp, #2]
 3281 04f2 83F8E020 		strb	r2, [r3, #224]
 3282              		.loc 1 1055 0
 3283 04f6 04E0     		b	.L157
 3284              	.L171:
 3285              		.loc 1 1057 0
 3286 04f8 FC23     		movs	r3, #252
 3287 04fa 8DF80E30 		strb	r3, [sp, #14]
 3288 04fe 00E0     		b	.L157
 3289              	.L172:
 3290              		.loc 1 1059 0
 3291 0500 00BF     		nop
 3292              	.L157:
 3293              		.loc 1 1062 0
 3294 0502 9DF90E30 		ldrsb	r3, [sp, #14]
 3295 0506 002B     		cmp	r3, #0
 3296 0508 09D1     		bne	.L167
 3297              		.loc 1 1063 0
 3298 050a 019B     		ldr	r3, [sp, #4]
 3299 050c 5B69     		ldr	r3, [r3, #20]
 3300 050e 0893     		str	r3, [sp, #32]
 3301              		.loc 1 1067 0
 3302 0510 0899     		ldr	r1, [sp, #32]
 3303 0512 0198     		ldr	r0, [sp, #4]
 3304 0514 FFF7FEFF 		bl	VL53L0X_SetMeasurementTimingBudgetMicroSeconds
 3305 0518 0346     		mov	r3, r0
 3306 051a 8DF80E30 		strb	r3, [sp, #14]
ARM GAS  C:\Users\PCHAUT~1\AppData\Local\Temp\ccgoQRgJ.s 			page 59


 3307              	.L167:
 3308              		.loc 1 1074 0
 3309 051e 9DF90E30 		ldrsb	r3, [sp, #14]
 3310 0522 002B     		cmp	r3, #0
 3311 0524 09D1     		bne	.L168
 3312              		.loc 1 1075 0
 3313 0526 0DF10D01 		add	r1, sp, #13
 3314 052a 0123     		movs	r3, #1
 3315 052c 0022     		movs	r2, #0
 3316 052e 0198     		ldr	r0, [sp, #4]
 3317 0530 FFF7FEFF 		bl	VL53L0X_perform_phase_calibration
 3318 0534 0346     		mov	r3, r0
 3319 0536 8DF80E30 		strb	r3, [sp, #14]
 3320              	.L168:
 3321              		.loc 1 1078 0
 3322 053a 9DF90E30 		ldrsb	r3, [sp, #14]
 3323              	.L169:
 3324              		.loc 1 1079 0 discriminator 1
 3325 053e 1846     		mov	r0, r3
 3326 0540 044B     		ldr	r3, .L175
 3327 0542 099A     		ldr	r2, [sp, #36]
 3328 0544 1B68     		ldr	r3, [r3]
 3329 0546 9A42     		cmp	r2, r3
 3330 0548 01D0     		beq	.L170
 3331              		.loc 1 1079 0 is_stmt 0
 3332 054a FFF7FEFF 		bl	__stack_chk_fail
 3333              	.L170:
 3334 054e 0BB0     		add	sp, sp, #44
 3335              		.cfi_def_cfa_offset 4
 3336              		@ sp needed
 3337 0550 5DF804FB 		ldr	pc, [sp], #4
 3338              	.L176:
 3339              		.align	2
 3340              	.L175:
 3341 0554 00000000 		.word	__stack_chk_guard
 3342              		.cfi_endproc
 3343              	.LFE18:
 3344              		.size	VL53L0X_set_vcsel_pulse_period, .-VL53L0X_set_vcsel_pulse_period
 3345              		.section	.text.VL53L0X_get_vcsel_pulse_period,"ax",%progbits
 3346              		.align	1
 3347              		.p2align 4,,15
 3348              		.global	VL53L0X_get_vcsel_pulse_period
 3349              		.syntax unified
 3350              		.thumb
 3351              		.thumb_func
 3352              		.fpu fpv4-sp-d16
 3353              		.type	VL53L0X_get_vcsel_pulse_period, %function
 3354              	VL53L0X_get_vcsel_pulse_period:
 3355              	.LFB19:
 3356              		.loc 1 1083 0 is_stmt 1
 3357              		.cfi_startproc
 3358              		@ args = 0, pretend = 0, frame = 24
 3359              		@ frame_needed = 0, uses_anonymous_args = 0
 3360 0000 00B5     		push	{lr}
 3361              		.cfi_def_cfa_offset 4
 3362              		.cfi_offset 14, -4
 3363 0002 87B0     		sub	sp, sp, #28
ARM GAS  C:\Users\PCHAUT~1\AppData\Local\Temp\ccgoQRgJ.s 			page 60


 3364              		.cfi_def_cfa_offset 32
 3365 0004 0390     		str	r0, [sp, #12]
 3366 0006 0B46     		mov	r3, r1
 3367 0008 0192     		str	r2, [sp, #4]
 3368 000a 8DF80B30 		strb	r3, [sp, #11]
 3369              		.loc 1 1083 0
 3370 000e 204B     		ldr	r3, .L186
 3371 0010 1B68     		ldr	r3, [r3]
 3372 0012 0593     		str	r3, [sp, #20]
 3373              		.loc 1 1084 0
 3374 0014 0023     		movs	r3, #0
 3375 0016 8DF81330 		strb	r3, [sp, #19]
 3376              		.loc 1 1087 0
 3377 001a 9DF80B30 		ldrb	r3, [sp, #11]	@ zero_extendqisi2
 3378 001e 002B     		cmp	r3, #0
 3379 0020 02D0     		beq	.L179
 3380 0022 012B     		cmp	r3, #1
 3381 0024 0BD0     		beq	.L180
 3382 0026 15E0     		b	.L185
 3383              	.L179:
 3384              		.loc 1 1089 0
 3385 0028 0DF11203 		add	r3, sp, #18
 3386 002c 1A46     		mov	r2, r3
 3387 002e 5021     		movs	r1, #80
 3388 0030 0398     		ldr	r0, [sp, #12]
 3389 0032 FFF7FEFF 		bl	VL53L0X_RdByte
 3390 0036 0346     		mov	r3, r0
 3391 0038 8DF81330 		strb	r3, [sp, #19]
 3392              		.loc 1 1092 0
 3393 003c 0DE0     		b	.L181
 3394              	.L180:
 3395              		.loc 1 1094 0
 3396 003e 0DF11203 		add	r3, sp, #18
 3397 0042 1A46     		mov	r2, r3
 3398 0044 7021     		movs	r1, #112
 3399 0046 0398     		ldr	r0, [sp, #12]
 3400 0048 FFF7FEFF 		bl	VL53L0X_RdByte
 3401 004c 0346     		mov	r3, r0
 3402 004e 8DF81330 		strb	r3, [sp, #19]
 3403              		.loc 1 1097 0
 3404 0052 02E0     		b	.L181
 3405              	.L185:
 3406              		.loc 1 1099 0
 3407 0054 FC23     		movs	r3, #252
 3408 0056 8DF81330 		strb	r3, [sp, #19]
 3409              	.L181:
 3410              		.loc 1 1102 0
 3411 005a 9DF91330 		ldrsb	r3, [sp, #19]
 3412 005e 002B     		cmp	r3, #0
 3413 0060 08D1     		bne	.L182
 3414              		.loc 1 1104 0
 3415 0062 9DF81230 		ldrb	r3, [sp, #18]	@ zero_extendqisi2
 3416 0066 1846     		mov	r0, r3
 3417 0068 FFF7FEFF 		bl	VL53L0X_decode_vcsel_period
 3418 006c 0346     		mov	r3, r0
 3419 006e 1A46     		mov	r2, r3
 3420              		.loc 1 1103 0
ARM GAS  C:\Users\PCHAUT~1\AppData\Local\Temp\ccgoQRgJ.s 			page 61


 3421 0070 019B     		ldr	r3, [sp, #4]
 3422 0072 1A70     		strb	r2, [r3]
 3423              	.L182:
 3424              		.loc 1 1106 0
 3425 0074 9DF91330 		ldrsb	r3, [sp, #19]
 3426              		.loc 1 1107 0
 3427 0078 1846     		mov	r0, r3
 3428 007a 054B     		ldr	r3, .L186
 3429 007c 059A     		ldr	r2, [sp, #20]
 3430 007e 1B68     		ldr	r3, [r3]
 3431 0080 9A42     		cmp	r2, r3
 3432 0082 01D0     		beq	.L184
 3433 0084 FFF7FEFF 		bl	__stack_chk_fail
 3434              	.L184:
 3435 0088 07B0     		add	sp, sp, #28
 3436              		.cfi_def_cfa_offset 4
 3437              		@ sp needed
 3438 008a 5DF804FB 		ldr	pc, [sp], #4
 3439              	.L187:
 3440 008e 00BF     		.align	2
 3441              	.L186:
 3442 0090 00000000 		.word	__stack_chk_guard
 3443              		.cfi_endproc
 3444              	.LFE19:
 3445              		.size	VL53L0X_get_vcsel_pulse_period, .-VL53L0X_get_vcsel_pulse_period
 3446              		.section	.text.VL53L0X_set_measurement_timing_budget_micro_seconds,"ax",%progbits
 3447              		.align	1
 3448              		.p2align 4,,15
 3449              		.global	VL53L0X_set_measurement_timing_budget_micro_seconds
 3450              		.syntax unified
 3451              		.thumb
 3452              		.thumb_func
 3453              		.fpu fpv4-sp-d16
 3454              		.type	VL53L0X_set_measurement_timing_budget_micro_seconds, %function
 3455              	VL53L0X_set_measurement_timing_budget_micro_seconds:
 3456              	.LFB20:
 3457              		.loc 1 1113 0
 3458              		.cfi_startproc
 3459              		@ args = 0, pretend = 0, frame = 72
 3460              		@ frame_needed = 0, uses_anonymous_args = 0
 3461 0000 00B5     		push	{lr}
 3462              		.cfi_def_cfa_offset 4
 3463              		.cfi_offset 14, -4
 3464 0002 93B0     		sub	sp, sp, #76
 3465              		.cfi_def_cfa_offset 80
 3466 0004 0190     		str	r0, [sp, #4]
 3467 0006 0091     		str	r1, [sp]
 3468              		.loc 1 1113 0
 3469 0008 744B     		ldr	r3, .L207
 3470 000a 1B68     		ldr	r3, [r3]
 3471 000c 1193     		str	r3, [sp, #68]
 3472              		.loc 1 1114 0
 3473 000e 0023     		movs	r3, #0
 3474 0010 8DF80B30 		strb	r3, [sp, #11]
 3475              		.loc 1 1117 0
 3476 0014 4FF4FA63 		mov	r3, #2000
 3477 0018 0393     		str	r3, [sp, #12]
ARM GAS  C:\Users\PCHAUT~1\AppData\Local\Temp\ccgoQRgJ.s 			page 62


 3478              		.loc 1 1118 0
 3479 001a 40F27673 		movw	r3, #1910
 3480 001e 0693     		str	r3, [sp, #24]
 3481              		.loc 1 1119 0
 3482 0020 4FF47073 		mov	r3, #960
 3483 0024 0793     		str	r3, [sp, #28]
 3484              		.loc 1 1120 0
 3485 0026 4FF42573 		mov	r3, #660
 3486 002a 0893     		str	r3, [sp, #32]
 3487              		.loc 1 1121 0
 3488 002c 40F24E23 		movw	r3, #590
 3489 0030 0993     		str	r3, [sp, #36]
 3490              		.loc 1 1122 0
 3491 0032 40F2B223 		movw	r3, #690
 3492 0036 0A93     		str	r3, [sp, #40]
 3493              		.loc 1 1123 0
 3494 0038 4FF42573 		mov	r3, #660
 3495 003c 0B93     		str	r3, [sp, #44]
 3496              		.loc 1 1124 0
 3497 003e 40F22623 		movw	r3, #550
 3498 0042 0C93     		str	r3, [sp, #48]
 3499              		.loc 1 1125 0
 3500 0044 0023     		movs	r3, #0
 3501 0046 0493     		str	r3, [sp, #16]
 3502              		.loc 1 1126 0
 3503 0048 44F62063 		movw	r3, #20000
 3504 004c 0D93     		str	r3, [sp, #52]
 3505              		.loc 1 1127 0
 3506 004e 0023     		movs	r3, #0
 3507 0050 0E93     		str	r3, [sp, #56]
 3508              		.loc 1 1131 0
 3509 0052 009A     		ldr	r2, [sp]
 3510 0054 0D9B     		ldr	r3, [sp, #52]
 3511 0056 9A42     		cmp	r2, r3
 3512 0058 05D2     		bcs	.L189
 3513              		.loc 1 1133 0
 3514 005a FC23     		movs	r3, #252
 3515 005c 8DF80B30 		strb	r3, [sp, #11]
 3516              		.loc 1 1134 0
 3517 0060 9DF90B30 		ldrsb	r3, [sp, #11]
 3518 0064 AFE0     		b	.L205
 3519              	.L189:
 3520              		.loc 1 1139 0
 3521 0066 069A     		ldr	r2, [sp, #24]
 3522 0068 079B     		ldr	r3, [sp, #28]
 3523 006a 1344     		add	r3, r3, r2
 3524              		.loc 1 1137 0
 3525 006c 009A     		ldr	r2, [sp]
 3526 006e D31A     		subs	r3, r2, r3
 3527 0070 0593     		str	r3, [sp, #20]
 3528              		.loc 1 1141 0
 3529 0072 0FAB     		add	r3, sp, #60
 3530 0074 1946     		mov	r1, r3
 3531 0076 0198     		ldr	r0, [sp, #4]
 3532 0078 FFF7FEFF 		bl	VL53L0X_GetSequenceStepEnables
 3533 007c 0346     		mov	r3, r0
 3534 007e 8DF80B30 		strb	r3, [sp, #11]
ARM GAS  C:\Users\PCHAUT~1\AppData\Local\Temp\ccgoQRgJ.s 			page 63


 3535              		.loc 1 1143 0
 3536 0082 9DF90B30 		ldrsb	r3, [sp, #11]
 3537 0086 002B     		cmp	r3, #0
 3538 0088 60D1     		bne	.L191
 3539              		.loc 1 1144 0 discriminator 1
 3540 008a 9DF83C30 		ldrb	r3, [sp, #60]	@ zero_extendqisi2
 3541              		.loc 1 1143 0 discriminator 1
 3542 008e 002B     		cmp	r3, #0
 3543 0090 07D1     		bne	.L192
 3544              		.loc 1 1145 0
 3545 0092 9DF83D30 		ldrb	r3, [sp, #61]	@ zero_extendqisi2
 3546              		.loc 1 1144 0
 3547 0096 002B     		cmp	r3, #0
 3548 0098 03D1     		bne	.L192
 3549              		.loc 1 1146 0
 3550 009a 9DF83E30 		ldrb	r3, [sp, #62]	@ zero_extendqisi2
 3551              		.loc 1 1145 0
 3552 009e 002B     		cmp	r3, #0
 3553 00a0 54D0     		beq	.L191
 3554              	.L192:
 3555              		.loc 1 1149 0
 3556 00a2 03AB     		add	r3, sp, #12
 3557 00a4 1A46     		mov	r2, r3
 3558 00a6 0221     		movs	r1, #2
 3559 00a8 0198     		ldr	r0, [sp, #4]
 3560 00aa FFF7FEFF 		bl	get_sequence_step_timeout
 3561 00ae 0346     		mov	r3, r0
 3562 00b0 8DF80B30 		strb	r3, [sp, #11]
 3563              		.loc 1 1156 0
 3564 00b4 9DF90B30 		ldrsb	r3, [sp, #11]
 3565 00b8 002B     		cmp	r3, #0
 3566 00ba 02D0     		beq	.L193
 3567              		.loc 1 1157 0
 3568 00bc 9DF90B30 		ldrsb	r3, [sp, #11]
 3569 00c0 81E0     		b	.L205
 3570              	.L193:
 3571              		.loc 1 1160 0
 3572 00c2 9DF83C30 		ldrb	r3, [sp, #60]	@ zero_extendqisi2
 3573 00c6 002B     		cmp	r3, #0
 3574 00c8 0FD0     		beq	.L194
 3575              		.loc 1 1163 0
 3576 00ca 039B     		ldr	r3, [sp, #12]
 3577              		.loc 1 1162 0
 3578 00cc 099A     		ldr	r2, [sp, #36]
 3579 00ce 1344     		add	r3, r3, r2
 3580 00d0 0E93     		str	r3, [sp, #56]
 3581              		.loc 1 1165 0
 3582 00d2 0E9A     		ldr	r2, [sp, #56]
 3583 00d4 059B     		ldr	r3, [sp, #20]
 3584 00d6 9A42     		cmp	r2, r3
 3585 00d8 04D2     		bcs	.L195
 3586              		.loc 1 1167 0
 3587 00da 059A     		ldr	r2, [sp, #20]
 3588 00dc 0E9B     		ldr	r3, [sp, #56]
 3589 00de D31A     		subs	r3, r2, r3
 3590 00e0 0593     		str	r3, [sp, #20]
 3591 00e2 02E0     		b	.L194
ARM GAS  C:\Users\PCHAUT~1\AppData\Local\Temp\ccgoQRgJ.s 			page 64


 3592              	.L195:
 3593              		.loc 1 1171 0
 3594 00e4 FC23     		movs	r3, #252
 3595 00e6 8DF80B30 		strb	r3, [sp, #11]
 3596              	.L194:
 3597              		.loc 1 1175 0
 3598 00ea 9DF90B30 		ldrsb	r3, [sp, #11]
 3599 00ee 002B     		cmp	r3, #0
 3600 00f0 02D0     		beq	.L196
 3601              		.loc 1 1177 0
 3602 00f2 9DF90B30 		ldrsb	r3, [sp, #11]
 3603 00f6 66E0     		b	.L205
 3604              	.L196:
 3605              		.loc 1 1181 0
 3606 00f8 9DF83E30 		ldrb	r3, [sp, #62]	@ zero_extendqisi2
 3607 00fc 002B     		cmp	r3, #0
 3608 00fe 11D0     		beq	.L197
 3609              		.loc 1 1183 0
 3610 0100 039A     		ldr	r2, [sp, #12]
 3611 0102 0A9B     		ldr	r3, [sp, #40]
 3612 0104 1344     		add	r3, r3, r2
 3613 0106 5B00     		lsls	r3, r3, #1
 3614 0108 0E93     		str	r3, [sp, #56]
 3615              		.loc 1 1186 0
 3616 010a 0E9A     		ldr	r2, [sp, #56]
 3617 010c 059B     		ldr	r3, [sp, #20]
 3618 010e 9A42     		cmp	r2, r3
 3619 0110 04D2     		bcs	.L198
 3620              		.loc 1 1188 0
 3621 0112 059A     		ldr	r2, [sp, #20]
 3622 0114 0E9B     		ldr	r3, [sp, #56]
 3623 0116 D31A     		subs	r3, r2, r3
 3624 0118 0593     		str	r3, [sp, #20]
 3625 011a 17E0     		b	.L191
 3626              	.L198:
 3627              		.loc 1 1191 0
 3628 011c FC23     		movs	r3, #252
 3629 011e 8DF80B30 		strb	r3, [sp, #11]
 3630 0122 13E0     		b	.L191
 3631              	.L197:
 3632              		.loc 1 1193 0
 3633 0124 9DF83D30 		ldrb	r3, [sp, #61]	@ zero_extendqisi2
 3634 0128 002B     		cmp	r3, #0
 3635 012a 0FD0     		beq	.L191
 3636              		.loc 1 1195 0
 3637 012c 039B     		ldr	r3, [sp, #12]
 3638 012e 089A     		ldr	r2, [sp, #32]
 3639 0130 1344     		add	r3, r3, r2
 3640 0132 0E93     		str	r3, [sp, #56]
 3641              		.loc 1 1198 0
 3642 0134 0E9A     		ldr	r2, [sp, #56]
 3643 0136 059B     		ldr	r3, [sp, #20]
 3644 0138 9A42     		cmp	r2, r3
 3645 013a 04D2     		bcs	.L200
 3646              		.loc 1 1200 0
 3647 013c 059A     		ldr	r2, [sp, #20]
 3648 013e 0E9B     		ldr	r3, [sp, #56]
ARM GAS  C:\Users\PCHAUT~1\AppData\Local\Temp\ccgoQRgJ.s 			page 65


 3649 0140 D31A     		subs	r3, r2, r3
 3650 0142 0593     		str	r3, [sp, #20]
 3651 0144 02E0     		b	.L191
 3652              	.L200:
 3653              		.loc 1 1203 0
 3654 0146 FC23     		movs	r3, #252
 3655 0148 8DF80B30 		strb	r3, [sp, #11]
 3656              	.L191:
 3657              		.loc 1 1209 0
 3658 014c 9DF90B30 		ldrsb	r3, [sp, #11]
 3659 0150 002B     		cmp	r3, #0
 3660 0152 02D0     		beq	.L201
 3661              		.loc 1 1211 0
 3662 0154 9DF90B30 		ldrsb	r3, [sp, #11]
 3663 0158 35E0     		b	.L205
 3664              	.L201:
 3665              		.loc 1 1214 0
 3666 015a 9DF83F30 		ldrb	r3, [sp, #63]	@ zero_extendqisi2
 3667 015e 002B     		cmp	r3, #0
 3668 0160 18D0     		beq	.L202
 3669              		.loc 1 1218 0
 3670 0162 04AB     		add	r3, sp, #16
 3671 0164 1A46     		mov	r2, r3
 3672 0166 0321     		movs	r1, #3
 3673 0168 0198     		ldr	r0, [sp, #4]
 3674 016a FFF7FEFF 		bl	get_sequence_step_timeout
 3675 016e 0346     		mov	r3, r0
 3676 0170 8DF80B30 		strb	r3, [sp, #11]
 3677              		.loc 1 1222 0
 3678 0174 049B     		ldr	r3, [sp, #16]
 3679 0176 0B9A     		ldr	r2, [sp, #44]
 3680 0178 1344     		add	r3, r3, r2
 3681 017a 0E93     		str	r3, [sp, #56]
 3682              		.loc 1 1225 0
 3683 017c 0E9A     		ldr	r2, [sp, #56]
 3684 017e 059B     		ldr	r3, [sp, #20]
 3685 0180 9A42     		cmp	r2, r3
 3686 0182 04D2     		bcs	.L203
 3687              		.loc 1 1226 0
 3688 0184 059A     		ldr	r2, [sp, #20]
 3689 0186 0E9B     		ldr	r3, [sp, #56]
 3690 0188 D31A     		subs	r3, r2, r3
 3691 018a 0593     		str	r3, [sp, #20]
 3692 018c 02E0     		b	.L202
 3693              	.L203:
 3694              		.loc 1 1229 0
 3695 018e FC23     		movs	r3, #252
 3696 0190 8DF80B30 		strb	r3, [sp, #11]
 3697              	.L202:
 3698              		.loc 1 1234 0
 3699 0194 9DF90B30 		ldrsb	r3, [sp, #11]
 3700 0198 002B     		cmp	r3, #0
 3701 019a 12D1     		bne	.L204
 3702              		.loc 1 1235 0 discriminator 1
 3703 019c 9DF84030 		ldrb	r3, [sp, #64]	@ zero_extendqisi2
 3704              		.loc 1 1234 0 discriminator 1
 3705 01a0 002B     		cmp	r3, #0
ARM GAS  C:\Users\PCHAUT~1\AppData\Local\Temp\ccgoQRgJ.s 			page 66


 3706 01a2 0ED0     		beq	.L204
 3707              		.loc 1 1237 0
 3708 01a4 059A     		ldr	r2, [sp, #20]
 3709 01a6 0C9B     		ldr	r3, [sp, #48]
 3710 01a8 D31A     		subs	r3, r2, r3
 3711 01aa 0593     		str	r3, [sp, #20]
 3712              		.loc 1 1247 0
 3713 01ac 059A     		ldr	r2, [sp, #20]
 3714 01ae 0421     		movs	r1, #4
 3715 01b0 0198     		ldr	r0, [sp, #4]
 3716 01b2 FFF7FEFF 		bl	set_sequence_step_timeout
 3717 01b6 0346     		mov	r3, r0
 3718 01b8 8DF80B30 		strb	r3, [sp, #11]
 3719              		.loc 1 1251 0
 3720 01bc 019B     		ldr	r3, [sp, #4]
 3721 01be 009A     		ldr	r2, [sp]
 3722 01c0 5A61     		str	r2, [r3, #20]
 3723              	.L204:
 3724              		.loc 1 1258 0
 3725 01c2 9DF90B30 		ldrsb	r3, [sp, #11]
 3726              	.L205:
 3727              		.loc 1 1259 0 discriminator 1
 3728 01c6 1846     		mov	r0, r3
 3729 01c8 044B     		ldr	r3, .L207
 3730 01ca 119A     		ldr	r2, [sp, #68]
 3731 01cc 1B68     		ldr	r3, [r3]
 3732 01ce 9A42     		cmp	r2, r3
 3733 01d0 01D0     		beq	.L206
 3734              		.loc 1 1259 0 is_stmt 0
 3735 01d2 FFF7FEFF 		bl	__stack_chk_fail
 3736              	.L206:
 3737 01d6 13B0     		add	sp, sp, #76
 3738              		.cfi_def_cfa_offset 4
 3739              		@ sp needed
 3740 01d8 5DF804FB 		ldr	pc, [sp], #4
 3741              	.L208:
 3742              		.align	2
 3743              	.L207:
 3744 01dc 00000000 		.word	__stack_chk_guard
 3745              		.cfi_endproc
 3746              	.LFE20:
 3747              		.size	VL53L0X_set_measurement_timing_budget_micro_seconds, .-VL53L0X_set_measurement_timing_budget
 3748              		.section	.text.VL53L0X_get_measurement_timing_budget_micro_seconds,"ax",%progbits
 3749              		.align	1
 3750              		.p2align 4,,15
 3751              		.global	VL53L0X_get_measurement_timing_budget_micro_seconds
 3752              		.syntax unified
 3753              		.thumb
 3754              		.thumb_func
 3755              		.fpu fpv4-sp-d16
 3756              		.type	VL53L0X_get_measurement_timing_budget_micro_seconds, %function
 3757              	VL53L0X_get_measurement_timing_budget_micro_seconds:
 3758              	.LFB21:
 3759              		.loc 1 1263 0 is_stmt 1
 3760              		.cfi_startproc
 3761              		@ args = 0, pretend = 0, frame = 64
 3762              		@ frame_needed = 0, uses_anonymous_args = 0
ARM GAS  C:\Users\PCHAUT~1\AppData\Local\Temp\ccgoQRgJ.s 			page 67


 3763 0000 00B5     		push	{lr}
 3764              		.cfi_def_cfa_offset 4
 3765              		.cfi_offset 14, -4
 3766 0002 91B0     		sub	sp, sp, #68
 3767              		.cfi_def_cfa_offset 72
 3768 0004 0190     		str	r0, [sp, #4]
 3769 0006 0091     		str	r1, [sp]
 3770              		.loc 1 1263 0
 3771 0008 5C4B     		ldr	r3, .L221
 3772 000a 1B68     		ldr	r3, [r3]
 3773 000c 0F93     		str	r3, [sp, #60]
 3774              		.loc 1 1264 0
 3775 000e 0023     		movs	r3, #0
 3776 0010 8DF80B30 		strb	r3, [sp, #11]
 3777              		.loc 1 1267 0
 3778 0014 4FF4FA63 		mov	r3, #2000
 3779 0018 0493     		str	r3, [sp, #16]
 3780              		.loc 1 1268 0
 3781 001a 40F27673 		movw	r3, #1910
 3782 001e 0693     		str	r3, [sp, #24]
 3783              		.loc 1 1269 0
 3784 0020 4FF47073 		mov	r3, #960
 3785 0024 0793     		str	r3, [sp, #28]
 3786              		.loc 1 1270 0
 3787 0026 4FF42573 		mov	r3, #660
 3788 002a 0893     		str	r3, [sp, #32]
 3789              		.loc 1 1271 0
 3790 002c 40F24E23 		movw	r3, #590
 3791 0030 0993     		str	r3, [sp, #36]
 3792              		.loc 1 1272 0
 3793 0032 40F2B223 		movw	r3, #690
 3794 0036 0A93     		str	r3, [sp, #40]
 3795              		.loc 1 1273 0
 3796 0038 4FF42573 		mov	r3, #660
 3797 003c 0B93     		str	r3, [sp, #44]
 3798              		.loc 1 1274 0
 3799 003e 40F22623 		movw	r3, #550
 3800 0042 0C93     		str	r3, [sp, #48]
 3801              		.loc 1 1275 0
 3802 0044 0023     		movs	r3, #0
 3803 0046 0593     		str	r3, [sp, #20]
 3804              		.loc 1 1281 0
 3805 0048 069A     		ldr	r2, [sp, #24]
 3806 004a 079B     		ldr	r3, [sp, #28]
 3807 004c 1A44     		add	r2, r2, r3
 3808 004e 009B     		ldr	r3, [sp]
 3809 0050 1A60     		str	r2, [r3]
 3810              		.loc 1 1283 0
 3811 0052 0DAB     		add	r3, sp, #52
 3812 0054 1946     		mov	r1, r3
 3813 0056 0198     		ldr	r0, [sp, #4]
 3814 0058 FFF7FEFF 		bl	VL53L0X_GetSequenceStepEnables
 3815 005c 0346     		mov	r3, r0
 3816 005e 8DF80B30 		strb	r3, [sp, #11]
 3817              		.loc 1 1285 0
 3818 0062 9DF90B30 		ldrsb	r3, [sp, #11]
 3819 0066 002B     		cmp	r3, #0
ARM GAS  C:\Users\PCHAUT~1\AppData\Local\Temp\ccgoQRgJ.s 			page 68


 3820 0068 02D0     		beq	.L210
 3821              		.loc 1 1287 0
 3822 006a 9DF90B30 		ldrsb	r3, [sp, #11]
 3823 006e 7AE0     		b	.L219
 3824              	.L210:
 3825              		.loc 1 1291 0
 3826 0070 9DF83430 		ldrb	r3, [sp, #52]	@ zero_extendqisi2
 3827 0074 002B     		cmp	r3, #0
 3828 0076 07D1     		bne	.L212
 3829              		.loc 1 1292 0 discriminator 1
 3830 0078 9DF83530 		ldrb	r3, [sp, #53]	@ zero_extendqisi2
 3831              		.loc 1 1291 0 discriminator 1
 3832 007c 002B     		cmp	r3, #0
 3833 007e 03D1     		bne	.L212
 3834              		.loc 1 1293 0
 3835 0080 9DF83630 		ldrb	r3, [sp, #54]	@ zero_extendqisi2
 3836              		.loc 1 1292 0
 3837 0084 002B     		cmp	r3, #0
 3838 0086 32D0     		beq	.L213
 3839              	.L212:
 3840              		.loc 1 1295 0
 3841 0088 04AB     		add	r3, sp, #16
 3842 008a 1A46     		mov	r2, r3
 3843 008c 0221     		movs	r1, #2
 3844 008e 0198     		ldr	r0, [sp, #4]
 3845 0090 FFF7FEFF 		bl	get_sequence_step_timeout
 3846 0094 0346     		mov	r3, r0
 3847 0096 8DF80B30 		strb	r3, [sp, #11]
 3848              		.loc 1 1299 0
 3849 009a 9DF90B30 		ldrsb	r3, [sp, #11]
 3850 009e 002B     		cmp	r3, #0
 3851 00a0 25D1     		bne	.L213
 3852              		.loc 1 1300 0
 3853 00a2 9DF83430 		ldrb	r3, [sp, #52]	@ zero_extendqisi2
 3854 00a6 002B     		cmp	r3, #0
 3855 00a8 07D0     		beq	.L214
 3856              		.loc 1 1301 0
 3857 00aa 009B     		ldr	r3, [sp]
 3858 00ac 1A68     		ldr	r2, [r3]
 3859              		.loc 1 1302 0
 3860 00ae 0499     		ldr	r1, [sp, #16]
 3861 00b0 099B     		ldr	r3, [sp, #36]
 3862 00b2 0B44     		add	r3, r3, r1
 3863              		.loc 1 1301 0
 3864 00b4 1A44     		add	r2, r2, r3
 3865 00b6 009B     		ldr	r3, [sp]
 3866 00b8 1A60     		str	r2, [r3]
 3867              	.L214:
 3868              		.loc 1 1306 0
 3869 00ba 9DF83630 		ldrb	r3, [sp, #54]	@ zero_extendqisi2
 3870 00be 002B     		cmp	r3, #0
 3871 00c0 09D0     		beq	.L215
 3872              		.loc 1 1307 0
 3873 00c2 009B     		ldr	r3, [sp]
 3874 00c4 1A68     		ldr	r2, [r3]
 3875              		.loc 1 1308 0
 3876 00c6 0499     		ldr	r1, [sp, #16]
ARM GAS  C:\Users\PCHAUT~1\AppData\Local\Temp\ccgoQRgJ.s 			page 69


 3877 00c8 0A9B     		ldr	r3, [sp, #40]
 3878 00ca 0B44     		add	r3, r3, r1
 3879 00cc 5B00     		lsls	r3, r3, #1
 3880              		.loc 1 1307 0
 3881 00ce 1A44     		add	r2, r2, r3
 3882 00d0 009B     		ldr	r3, [sp]
 3883 00d2 1A60     		str	r2, [r3]
 3884 00d4 0BE0     		b	.L213
 3885              	.L215:
 3886              		.loc 1 1310 0
 3887 00d6 9DF83530 		ldrb	r3, [sp, #53]	@ zero_extendqisi2
 3888 00da 002B     		cmp	r3, #0
 3889 00dc 07D0     		beq	.L213
 3890              		.loc 1 1311 0
 3891 00de 009B     		ldr	r3, [sp]
 3892 00e0 1A68     		ldr	r2, [r3]
 3893              		.loc 1 1312 0
 3894 00e2 0499     		ldr	r1, [sp, #16]
 3895 00e4 089B     		ldr	r3, [sp, #32]
 3896 00e6 0B44     		add	r3, r3, r1
 3897              		.loc 1 1311 0
 3898 00e8 1A44     		add	r2, r2, r3
 3899 00ea 009B     		ldr	r3, [sp]
 3900 00ec 1A60     		str	r2, [r3]
 3901              	.L213:
 3902              		.loc 1 1318 0
 3903 00ee 9DF90B30 		ldrsb	r3, [sp, #11]
 3904 00f2 002B     		cmp	r3, #0
 3905 00f4 14D1     		bne	.L216
 3906              		.loc 1 1319 0
 3907 00f6 9DF83730 		ldrb	r3, [sp, #55]	@ zero_extendqisi2
 3908 00fa 002B     		cmp	r3, #0
 3909 00fc 10D0     		beq	.L216
 3910              		.loc 1 1320 0
 3911 00fe 05AB     		add	r3, sp, #20
 3912 0100 1A46     		mov	r2, r3
 3913 0102 0321     		movs	r1, #3
 3914 0104 0198     		ldr	r0, [sp, #4]
 3915 0106 FFF7FEFF 		bl	get_sequence_step_timeout
 3916 010a 0346     		mov	r3, r0
 3917 010c 8DF80B30 		strb	r3, [sp, #11]
 3918              		.loc 1 1323 0
 3919 0110 009B     		ldr	r3, [sp]
 3920 0112 1A68     		ldr	r2, [r3]
 3921              		.loc 1 1324 0
 3922 0114 0599     		ldr	r1, [sp, #20]
 3923 0116 0B9B     		ldr	r3, [sp, #44]
 3924 0118 0B44     		add	r3, r3, r1
 3925              		.loc 1 1323 0
 3926 011a 1A44     		add	r2, r2, r3
 3927 011c 009B     		ldr	r3, [sp]
 3928 011e 1A60     		str	r2, [r3]
 3929              	.L216:
 3930              		.loc 1 1329 0
 3931 0120 9DF90B30 		ldrsb	r3, [sp, #11]
 3932 0124 002B     		cmp	r3, #0
 3933 0126 14D1     		bne	.L217
ARM GAS  C:\Users\PCHAUT~1\AppData\Local\Temp\ccgoQRgJ.s 			page 70


 3934              		.loc 1 1330 0
 3935 0128 9DF83830 		ldrb	r3, [sp, #56]	@ zero_extendqisi2
 3936 012c 002B     		cmp	r3, #0
 3937 012e 10D0     		beq	.L217
 3938              		.loc 1 1331 0
 3939 0130 03AB     		add	r3, sp, #12
 3940 0132 1A46     		mov	r2, r3
 3941 0134 0421     		movs	r1, #4
 3942 0136 0198     		ldr	r0, [sp, #4]
 3943 0138 FFF7FEFF 		bl	get_sequence_step_timeout
 3944 013c 0346     		mov	r3, r0
 3945 013e 8DF80B30 		strb	r3, [sp, #11]
 3946              		.loc 1 1334 0
 3947 0142 009B     		ldr	r3, [sp]
 3948 0144 1A68     		ldr	r2, [r3]
 3949              		.loc 1 1335 0
 3950 0146 0399     		ldr	r1, [sp, #12]
 3951 0148 0C9B     		ldr	r3, [sp, #48]
 3952 014a 0B44     		add	r3, r3, r1
 3953              		.loc 1 1334 0
 3954 014c 1A44     		add	r2, r2, r3
 3955 014e 009B     		ldr	r3, [sp]
 3956 0150 1A60     		str	r2, [r3]
 3957              	.L217:
 3958              		.loc 1 1340 0
 3959 0152 9DF90B30 		ldrsb	r3, [sp, #11]
 3960 0156 002B     		cmp	r3, #0
 3961 0158 03D1     		bne	.L218
 3962              		.loc 1 1341 0
 3963 015a 009B     		ldr	r3, [sp]
 3964 015c 1A68     		ldr	r2, [r3]
 3965 015e 019B     		ldr	r3, [sp, #4]
 3966 0160 5A61     		str	r2, [r3, #20]
 3967              	.L218:
 3968              		.loc 1 1347 0
 3969 0162 9DF90B30 		ldrsb	r3, [sp, #11]
 3970              	.L219:
 3971              		.loc 1 1348 0 discriminator 1
 3972 0166 1846     		mov	r0, r3
 3973 0168 044B     		ldr	r3, .L221
 3974 016a 0F9A     		ldr	r2, [sp, #60]
 3975 016c 1B68     		ldr	r3, [r3]
 3976 016e 9A42     		cmp	r2, r3
 3977 0170 01D0     		beq	.L220
 3978              		.loc 1 1348 0 is_stmt 0
 3979 0172 FFF7FEFF 		bl	__stack_chk_fail
 3980              	.L220:
 3981 0176 11B0     		add	sp, sp, #68
 3982              		.cfi_def_cfa_offset 4
 3983              		@ sp needed
 3984 0178 5DF804FB 		ldr	pc, [sp], #4
 3985              	.L222:
 3986              		.align	2
 3987              	.L221:
 3988 017c 00000000 		.word	__stack_chk_guard
 3989              		.cfi_endproc
 3990              	.LFE21:
ARM GAS  C:\Users\PCHAUT~1\AppData\Local\Temp\ccgoQRgJ.s 			page 71


 3991              		.size	VL53L0X_get_measurement_timing_budget_micro_seconds, .-VL53L0X_get_measurement_timing_budget
 3992              		.section	.text.VL53L0X_load_tuning_settings,"ax",%progbits
 3993              		.align	1
 3994              		.p2align 4,,15
 3995              		.global	VL53L0X_load_tuning_settings
 3996              		.syntax unified
 3997              		.thumb
 3998              		.thumb_func
 3999              		.fpu fpv4-sp-d16
 4000              		.type	VL53L0X_load_tuning_settings, %function
 4001              	VL53L0X_load_tuning_settings:
 4002              	.LFB22:
 4003              		.loc 1 1354 0 is_stmt 1
 4004              		.cfi_startproc
 4005              		@ args = 0, pretend = 0, frame = 32
 4006              		@ frame_needed = 0, uses_anonymous_args = 0
 4007 0000 00B5     		push	{lr}
 4008              		.cfi_def_cfa_offset 4
 4009              		.cfi_offset 14, -4
 4010 0002 89B0     		sub	sp, sp, #36
 4011              		.cfi_def_cfa_offset 40
 4012 0004 0190     		str	r0, [sp, #4]
 4013 0006 0091     		str	r1, [sp]
 4014              		.loc 1 1354 0
 4015 0008 854B     		ldr	r3, .L240
 4016 000a 1B68     		ldr	r3, [r3]
 4017 000c 0793     		str	r3, [sp, #28]
 4018              		.loc 1 1355 0
 4019 000e 0023     		movs	r3, #0
 4020 0010 8DF80830 		strb	r3, [sp, #8]
 4021              		.loc 1 1368 0
 4022 0014 0023     		movs	r3, #0
 4023 0016 0593     		str	r3, [sp, #20]
 4024              		.loc 1 1370 0
 4025 0018 E9E0     		b	.L224
 4026              	.L237:
 4027              		.loc 1 1372 0
 4028 001a 059B     		ldr	r3, [sp, #20]
 4029 001c 009A     		ldr	r2, [sp]
 4030 001e 1344     		add	r3, r3, r2
 4031 0020 1B78     		ldrb	r3, [r3]
 4032 0022 8DF80930 		strb	r3, [sp, #9]
 4033              		.loc 1 1373 0
 4034 0026 059B     		ldr	r3, [sp, #20]
 4035 0028 0133     		adds	r3, r3, #1
 4036 002a 0593     		str	r3, [sp, #20]
 4037              		.loc 1 1374 0
 4038 002c 9DF80930 		ldrb	r3, [sp, #9]	@ zero_extendqisi2
 4039 0030 FF2B     		cmp	r3, #255
 4040 0032 40F0A980 		bne	.L225
 4041              		.loc 1 1376 0
 4042 0036 059B     		ldr	r3, [sp, #20]
 4043 0038 009A     		ldr	r2, [sp]
 4044 003a 1344     		add	r3, r3, r2
 4045 003c 1B78     		ldrb	r3, [r3]
 4046 003e 8DF80B30 		strb	r3, [sp, #11]
 4047              		.loc 1 1377 0
ARM GAS  C:\Users\PCHAUT~1\AppData\Local\Temp\ccgoQRgJ.s 			page 72


 4048 0042 059B     		ldr	r3, [sp, #20]
 4049 0044 0133     		adds	r3, r3, #1
 4050 0046 0593     		str	r3, [sp, #20]
 4051              		.loc 1 1378 0
 4052 0048 9DF80B30 		ldrb	r3, [sp, #11]	@ zero_extendqisi2
 4053 004c 032B     		cmp	r3, #3
 4054 004e 00F29780 		bhi	.L226
 4055 0052 01A2     		adr	r2, .L228
 4056 0054 52F823F0 		ldr	pc, [r2, r3, lsl #2]
 4057              		.p2align 2
 4058              	.L228:
 4059 0058 69000000 		.word	.L227+1
 4060 005c AF000000 		.word	.L229+1
 4061 0060 F5000000 		.word	.L230+1
 4062 0064 3B010000 		.word	.L231+1
 4063              		.p2align 1
 4064              	.L227:
 4065              		.loc 1 1380 0
 4066 0068 059B     		ldr	r3, [sp, #20]
 4067 006a 009A     		ldr	r2, [sp]
 4068 006c 1344     		add	r3, r3, r2
 4069 006e 1B78     		ldrb	r3, [r3]
 4070 0070 8DF80C30 		strb	r3, [sp, #12]
 4071              		.loc 1 1381 0
 4072 0074 059B     		ldr	r3, [sp, #20]
 4073 0076 0133     		adds	r3, r3, #1
 4074 0078 0593     		str	r3, [sp, #20]
 4075              		.loc 1 1382 0
 4076 007a 059B     		ldr	r3, [sp, #20]
 4077 007c 009A     		ldr	r2, [sp]
 4078 007e 1344     		add	r3, r3, r2
 4079 0080 1B78     		ldrb	r3, [r3]
 4080 0082 8DF80D30 		strb	r3, [sp, #13]
 4081              		.loc 1 1383 0
 4082 0086 059B     		ldr	r3, [sp, #20]
 4083 0088 0133     		adds	r3, r3, #1
 4084 008a 0593     		str	r3, [sp, #20]
 4085              		.loc 1 1384 0
 4086 008c 9DF80C30 		ldrb	r3, [sp, #12]	@ zero_extendqisi2
 4087 0090 9BB2     		uxth	r3, r3
 4088 0092 1B02     		lsls	r3, r3, #8
 4089 0094 9AB2     		uxth	r2, r3
 4090 0096 9DF80D30 		ldrb	r3, [sp, #13]	@ zero_extendqisi2
 4091 009a 9BB2     		uxth	r3, r3
 4092 009c 1344     		add	r3, r3, r2
 4093 009e ADF80E30 		strh	r3, [sp, #14]	@ movhi
 4094              		.loc 1 1385 0
 4095 00a2 019B     		ldr	r3, [sp, #4]
 4096 00a4 BDF80E20 		ldrh	r2, [sp, #14]	@ movhi
 4097 00a8 A3F83421 		strh	r2, [r3, #308]	@ movhi
 4098              		.loc 1 1386 0
 4099 00ac 9FE0     		b	.L224
 4100              	.L229:
 4101              		.loc 1 1388 0
 4102 00ae 059B     		ldr	r3, [sp, #20]
 4103 00b0 009A     		ldr	r2, [sp]
 4104 00b2 1344     		add	r3, r3, r2
ARM GAS  C:\Users\PCHAUT~1\AppData\Local\Temp\ccgoQRgJ.s 			page 73


 4105 00b4 1B78     		ldrb	r3, [r3]
 4106 00b6 8DF80C30 		strb	r3, [sp, #12]
 4107              		.loc 1 1389 0
 4108 00ba 059B     		ldr	r3, [sp, #20]
 4109 00bc 0133     		adds	r3, r3, #1
 4110 00be 0593     		str	r3, [sp, #20]
 4111              		.loc 1 1390 0
 4112 00c0 059B     		ldr	r3, [sp, #20]
 4113 00c2 009A     		ldr	r2, [sp]
 4114 00c4 1344     		add	r3, r3, r2
 4115 00c6 1B78     		ldrb	r3, [r3]
 4116 00c8 8DF80D30 		strb	r3, [sp, #13]
 4117              		.loc 1 1391 0
 4118 00cc 059B     		ldr	r3, [sp, #20]
 4119 00ce 0133     		adds	r3, r3, #1
 4120 00d0 0593     		str	r3, [sp, #20]
 4121              		.loc 1 1392 0
 4122 00d2 9DF80C30 		ldrb	r3, [sp, #12]	@ zero_extendqisi2
 4123 00d6 9BB2     		uxth	r3, r3
 4124 00d8 1B02     		lsls	r3, r3, #8
 4125 00da 9AB2     		uxth	r2, r3
 4126 00dc 9DF80D30 		ldrb	r3, [sp, #13]	@ zero_extendqisi2
 4127 00e0 9BB2     		uxth	r3, r3
 4128 00e2 1344     		add	r3, r3, r2
 4129 00e4 ADF80E30 		strh	r3, [sp, #14]	@ movhi
 4130              		.loc 1 1393 0
 4131 00e8 019B     		ldr	r3, [sp, #4]
 4132 00ea BDF80E20 		ldrh	r2, [sp, #14]	@ movhi
 4133 00ee A3F83621 		strh	r2, [r3, #310]	@ movhi
 4134              		.loc 1 1395 0
 4135 00f2 7CE0     		b	.L224
 4136              	.L230:
 4137              		.loc 1 1397 0
 4138 00f4 059B     		ldr	r3, [sp, #20]
 4139 00f6 009A     		ldr	r2, [sp]
 4140 00f8 1344     		add	r3, r3, r2
 4141 00fa 1B78     		ldrb	r3, [r3]
 4142 00fc 8DF80C30 		strb	r3, [sp, #12]
 4143              		.loc 1 1398 0
 4144 0100 059B     		ldr	r3, [sp, #20]
 4145 0102 0133     		adds	r3, r3, #1
 4146 0104 0593     		str	r3, [sp, #20]
 4147              		.loc 1 1399 0
 4148 0106 059B     		ldr	r3, [sp, #20]
 4149 0108 009A     		ldr	r2, [sp]
 4150 010a 1344     		add	r3, r3, r2
 4151 010c 1B78     		ldrb	r3, [r3]
 4152 010e 8DF80D30 		strb	r3, [sp, #13]
 4153              		.loc 1 1400 0
 4154 0112 059B     		ldr	r3, [sp, #20]
 4155 0114 0133     		adds	r3, r3, #1
 4156 0116 0593     		str	r3, [sp, #20]
 4157              		.loc 1 1401 0
 4158 0118 9DF80C30 		ldrb	r3, [sp, #12]	@ zero_extendqisi2
 4159 011c 9BB2     		uxth	r3, r3
 4160 011e 1B02     		lsls	r3, r3, #8
 4161 0120 9AB2     		uxth	r2, r3
ARM GAS  C:\Users\PCHAUT~1\AppData\Local\Temp\ccgoQRgJ.s 			page 74


 4162 0122 9DF80D30 		ldrb	r3, [sp, #13]	@ zero_extendqisi2
 4163 0126 9BB2     		uxth	r3, r3
 4164 0128 1344     		add	r3, r3, r2
 4165 012a ADF80E30 		strh	r3, [sp, #14]	@ movhi
 4166              		.loc 1 1402 0
 4167 012e 019B     		ldr	r3, [sp, #4]
 4168 0130 BDF80E20 		ldrh	r2, [sp, #14]	@ movhi
 4169 0134 A3F83821 		strh	r2, [r3, #312]	@ movhi
 4170              		.loc 1 1403 0
 4171 0138 59E0     		b	.L224
 4172              	.L231:
 4173              		.loc 1 1405 0
 4174 013a 059B     		ldr	r3, [sp, #20]
 4175 013c 009A     		ldr	r2, [sp]
 4176 013e 1344     		add	r3, r3, r2
 4177 0140 1B78     		ldrb	r3, [r3]
 4178 0142 8DF80C30 		strb	r3, [sp, #12]
 4179              		.loc 1 1406 0
 4180 0146 059B     		ldr	r3, [sp, #20]
 4181 0148 0133     		adds	r3, r3, #1
 4182 014a 0593     		str	r3, [sp, #20]
 4183              		.loc 1 1407 0
 4184 014c 059B     		ldr	r3, [sp, #20]
 4185 014e 009A     		ldr	r2, [sp]
 4186 0150 1344     		add	r3, r3, r2
 4187 0152 1B78     		ldrb	r3, [r3]
 4188 0154 8DF80D30 		strb	r3, [sp, #13]
 4189              		.loc 1 1408 0
 4190 0158 059B     		ldr	r3, [sp, #20]
 4191 015a 0133     		adds	r3, r3, #1
 4192 015c 0593     		str	r3, [sp, #20]
 4193              		.loc 1 1409 0
 4194 015e 9DF80C30 		ldrb	r3, [sp, #12]	@ zero_extendqisi2
 4195 0162 9BB2     		uxth	r3, r3
 4196 0164 1B02     		lsls	r3, r3, #8
 4197 0166 9AB2     		uxth	r2, r3
 4198 0168 9DF80D30 		ldrb	r3, [sp, #13]	@ zero_extendqisi2
 4199 016c 9BB2     		uxth	r3, r3
 4200 016e 1344     		add	r3, r3, r2
 4201 0170 ADF80E30 		strh	r3, [sp, #14]	@ movhi
 4202              		.loc 1 1410 0
 4203 0174 019B     		ldr	r3, [sp, #4]
 4204 0176 BDF80E20 		ldrh	r2, [sp, #14]	@ movhi
 4205 017a A3F83C21 		strh	r2, [r3, #316]	@ movhi
 4206              		.loc 1 1411 0
 4207 017e 36E0     		b	.L224
 4208              	.L226:
 4209              		.loc 1 1413 0
 4210 0180 FC23     		movs	r3, #252
 4211 0182 8DF80830 		strb	r3, [sp, #8]
 4212 0186 32E0     		b	.L224
 4213              	.L225:
 4214              		.loc 1 1416 0
 4215 0188 9DF80930 		ldrb	r3, [sp, #9]	@ zero_extendqisi2
 4216 018c 042B     		cmp	r3, #4
 4217 018e 2BD8     		bhi	.L233
 4218              		.loc 1 1417 0
ARM GAS  C:\Users\PCHAUT~1\AppData\Local\Temp\ccgoQRgJ.s 			page 75


 4219 0190 059B     		ldr	r3, [sp, #20]
 4220 0192 009A     		ldr	r2, [sp]
 4221 0194 1344     		add	r3, r3, r2
 4222 0196 1B78     		ldrb	r3, [r3]
 4223 0198 8DF80A30 		strb	r3, [sp, #10]
 4224              		.loc 1 1418 0
 4225 019c 059B     		ldr	r3, [sp, #20]
 4226 019e 0133     		adds	r3, r3, #1
 4227 01a0 0593     		str	r3, [sp, #20]
 4228              		.loc 1 1420 0
 4229 01a2 0023     		movs	r3, #0
 4230 01a4 0493     		str	r3, [sp, #16]
 4231 01a6 0EE0     		b	.L234
 4232              	.L235:
 4233              		.loc 1 1421 0 discriminator 3
 4234 01a8 059B     		ldr	r3, [sp, #20]
 4235 01aa 009A     		ldr	r2, [sp]
 4236 01ac 1344     		add	r3, r3, r2
 4237 01ae 1978     		ldrb	r1, [r3]	@ zero_extendqisi2
 4238 01b0 06AA     		add	r2, sp, #24
 4239 01b2 049B     		ldr	r3, [sp, #16]
 4240 01b4 1344     		add	r3, r3, r2
 4241 01b6 0A46     		mov	r2, r1
 4242 01b8 1A70     		strb	r2, [r3]
 4243              		.loc 1 1423 0 discriminator 3
 4244 01ba 059B     		ldr	r3, [sp, #20]
 4245 01bc 0133     		adds	r3, r3, #1
 4246 01be 0593     		str	r3, [sp, #20]
 4247              		.loc 1 1420 0 discriminator 3
 4248 01c0 049B     		ldr	r3, [sp, #16]
 4249 01c2 0133     		adds	r3, r3, #1
 4250 01c4 0493     		str	r3, [sp, #16]
 4251              	.L234:
 4252              		.loc 1 1420 0 is_stmt 0 discriminator 1
 4253 01c6 9DF80930 		ldrb	r3, [sp, #9]	@ zero_extendqisi2
 4254 01ca 049A     		ldr	r2, [sp, #16]
 4255 01cc 9A42     		cmp	r2, r3
 4256 01ce EBDB     		blt	.L235
 4257              		.loc 1 1426 0 is_stmt 1
 4258 01d0 9DF80930 		ldrb	r3, [sp, #9]	@ zero_extendqisi2
 4259 01d4 06AA     		add	r2, sp, #24
 4260 01d6 9DF80A10 		ldrb	r1, [sp, #10]	@ zero_extendqisi2
 4261 01da 0198     		ldr	r0, [sp, #4]
 4262 01dc FFF7FEFF 		bl	VL53L0X_WriteMulti
 4263 01e0 0346     		mov	r3, r0
 4264 01e2 8DF80830 		strb	r3, [sp, #8]
 4265 01e6 02E0     		b	.L224
 4266              	.L233:
 4267              		.loc 1 1430 0
 4268 01e8 FC23     		movs	r3, #252
 4269 01ea 8DF80830 		strb	r3, [sp, #8]
 4270              	.L224:
 4271              		.loc 1 1370 0
 4272 01ee 059B     		ldr	r3, [sp, #20]
 4273 01f0 009A     		ldr	r2, [sp]
 4274 01f2 1344     		add	r3, r3, r2
 4275 01f4 1B78     		ldrb	r3, [r3]	@ zero_extendqisi2
ARM GAS  C:\Users\PCHAUT~1\AppData\Local\Temp\ccgoQRgJ.s 			page 76


 4276 01f6 002B     		cmp	r3, #0
 4277 01f8 04D0     		beq	.L236
 4278              		.loc 1 1370 0 is_stmt 0 discriminator 1
 4279 01fa 9DF90830 		ldrsb	r3, [sp, #8]
 4280 01fe 002B     		cmp	r3, #0
 4281 0200 3FF40BAF 		beq	.L237
 4282              	.L236:
 4283              		.loc 1 1435 0 is_stmt 1
 4284 0204 9DF90830 		ldrsb	r3, [sp, #8]
 4285              		.loc 1 1436 0
 4286 0208 1846     		mov	r0, r3
 4287 020a 054B     		ldr	r3, .L240
 4288 020c 079A     		ldr	r2, [sp, #28]
 4289 020e 1B68     		ldr	r3, [r3]
 4290 0210 9A42     		cmp	r2, r3
 4291 0212 01D0     		beq	.L239
 4292 0214 FFF7FEFF 		bl	__stack_chk_fail
 4293              	.L239:
 4294 0218 09B0     		add	sp, sp, #36
 4295              		.cfi_def_cfa_offset 4
 4296              		@ sp needed
 4297 021a 5DF804FB 		ldr	pc, [sp], #4
 4298              	.L241:
 4299 021e 00BF     		.align	2
 4300              	.L240:
 4301 0220 00000000 		.word	__stack_chk_guard
 4302              		.cfi_endproc
 4303              	.LFE22:
 4304              		.size	VL53L0X_load_tuning_settings, .-VL53L0X_load_tuning_settings
 4305              		.section	.text.VL53L0X_get_total_xtalk_rate,"ax",%progbits
 4306              		.align	1
 4307              		.p2align 4,,15
 4308              		.global	VL53L0X_get_total_xtalk_rate
 4309              		.syntax unified
 4310              		.thumb
 4311              		.thumb_func
 4312              		.fpu fpv4-sp-d16
 4313              		.type	VL53L0X_get_total_xtalk_rate, %function
 4314              	VL53L0X_get_total_xtalk_rate:
 4315              	.LFB23:
 4316              		.loc 1 1441 0
 4317              		.cfi_startproc
 4318              		@ args = 0, pretend = 0, frame = 32
 4319              		@ frame_needed = 0, uses_anonymous_args = 0
 4320 0000 00B5     		push	{lr}
 4321              		.cfi_def_cfa_offset 4
 4322              		.cfi_offset 14, -4
 4323 0002 89B0     		sub	sp, sp, #36
 4324              		.cfi_def_cfa_offset 40
 4325 0004 0390     		str	r0, [sp, #12]
 4326 0006 0291     		str	r1, [sp, #8]
 4327 0008 0192     		str	r2, [sp, #4]
 4328              		.loc 1 1441 0
 4329 000a 1B4B     		ldr	r3, .L246
 4330 000c 1B68     		ldr	r3, [r3]
 4331 000e 0793     		str	r3, [sp, #28]
 4332              		.loc 1 1442 0
ARM GAS  C:\Users\PCHAUT~1\AppData\Local\Temp\ccgoQRgJ.s 			page 77


 4333 0010 0023     		movs	r3, #0
 4334 0012 8DF81330 		strb	r3, [sp, #19]
 4335              		.loc 1 1448 0
 4336 0016 019B     		ldr	r3, [sp, #4]
 4337 0018 0022     		movs	r2, #0
 4338 001a 1A60     		str	r2, [r3]
 4339              		.loc 1 1450 0
 4340 001c 0DF11203 		add	r3, sp, #18
 4341 0020 1946     		mov	r1, r3
 4342 0022 0398     		ldr	r0, [sp, #12]
 4343 0024 FFF7FEFF 		bl	VL53L0X_GetXTalkCompensationEnable
 4344 0028 0346     		mov	r3, r0
 4345 002a 8DF81330 		strb	r3, [sp, #19]
 4346              		.loc 1 1451 0
 4347 002e 9DF91330 		ldrsb	r3, [sp, #19]
 4348 0032 002B     		cmp	r3, #0
 4349 0034 12D1     		bne	.L243
 4350              		.loc 1 1453 0
 4351 0036 9DF81230 		ldrb	r3, [sp, #18]	@ zero_extendqisi2
 4352 003a 002B     		cmp	r3, #0
 4353 003c 0ED0     		beq	.L243
 4354              		.loc 1 1455 0
 4355 003e 039B     		ldr	r3, [sp, #12]
 4356 0040 1B6A     		ldr	r3, [r3, #32]
 4357 0042 0593     		str	r3, [sp, #20]
 4358              		.loc 1 1462 0
 4359 0044 029B     		ldr	r3, [sp, #8]
 4360 0046 9B8A     		ldrh	r3, [r3, #20]
 4361 0048 1A46     		mov	r2, r3
 4362              		.loc 1 1461 0
 4363 004a 059B     		ldr	r3, [sp, #20]
 4364 004c 02FB03F3 		mul	r3, r2, r3
 4365 0050 0693     		str	r3, [sp, #24]
 4366              		.loc 1 1467 0
 4367 0052 069B     		ldr	r3, [sp, #24]
 4368 0054 8033     		adds	r3, r3, #128
 4369 0056 1A0A     		lsrs	r2, r3, #8
 4370              		.loc 1 1466 0
 4371 0058 019B     		ldr	r3, [sp, #4]
 4372 005a 1A60     		str	r2, [r3]
 4373              	.L243:
 4374              		.loc 1 1471 0
 4375 005c 9DF91330 		ldrsb	r3, [sp, #19]
 4376              		.loc 1 1472 0
 4377 0060 1846     		mov	r0, r3
 4378 0062 054B     		ldr	r3, .L246
 4379 0064 079A     		ldr	r2, [sp, #28]
 4380 0066 1B68     		ldr	r3, [r3]
 4381 0068 9A42     		cmp	r2, r3
 4382 006a 01D0     		beq	.L245
 4383 006c FFF7FEFF 		bl	__stack_chk_fail
 4384              	.L245:
 4385 0070 09B0     		add	sp, sp, #36
 4386              		.cfi_def_cfa_offset 4
 4387              		@ sp needed
 4388 0072 5DF804FB 		ldr	pc, [sp], #4
 4389              	.L247:
ARM GAS  C:\Users\PCHAUT~1\AppData\Local\Temp\ccgoQRgJ.s 			page 78


 4390 0076 00BF     		.align	2
 4391              	.L246:
 4392 0078 00000000 		.word	__stack_chk_guard
 4393              		.cfi_endproc
 4394              	.LFE23:
 4395              		.size	VL53L0X_get_total_xtalk_rate, .-VL53L0X_get_total_xtalk_rate
 4396              		.section	.text.VL53L0X_get_total_signal_rate,"ax",%progbits
 4397              		.align	1
 4398              		.p2align 4,,15
 4399              		.global	VL53L0X_get_total_signal_rate
 4400              		.syntax unified
 4401              		.thumb
 4402              		.thumb_func
 4403              		.fpu fpv4-sp-d16
 4404              		.type	VL53L0X_get_total_signal_rate, %function
 4405              	VL53L0X_get_total_signal_rate:
 4406              	.LFB24:
 4407              		.loc 1 1477 0
 4408              		.cfi_startproc
 4409              		@ args = 0, pretend = 0, frame = 32
 4410              		@ frame_needed = 0, uses_anonymous_args = 0
 4411 0000 00B5     		push	{lr}
 4412              		.cfi_def_cfa_offset 4
 4413              		.cfi_offset 14, -4
 4414 0002 89B0     		sub	sp, sp, #36
 4415              		.cfi_def_cfa_offset 40
 4416 0004 0390     		str	r0, [sp, #12]
 4417 0006 0291     		str	r1, [sp, #8]
 4418 0008 0192     		str	r2, [sp, #4]
 4419              		.loc 1 1477 0
 4420 000a 154B     		ldr	r3, .L252
 4421 000c 1B68     		ldr	r3, [r3]
 4422 000e 0793     		str	r3, [sp, #28]
 4423              		.loc 1 1478 0
 4424 0010 0023     		movs	r3, #0
 4425 0012 8DF81730 		strb	r3, [sp, #23]
 4426              		.loc 1 1484 0
 4427 0016 029B     		ldr	r3, [sp, #8]
 4428 0018 DA68     		ldr	r2, [r3, #12]
 4429              		.loc 1 1483 0
 4430 001a 019B     		ldr	r3, [sp, #4]
 4431 001c 1A60     		str	r2, [r3]
 4432              		.loc 1 1486 0
 4433 001e 06AB     		add	r3, sp, #24
 4434 0020 1A46     		mov	r2, r3
 4435 0022 0299     		ldr	r1, [sp, #8]
 4436 0024 0398     		ldr	r0, [sp, #12]
 4437 0026 FFF7FEFF 		bl	VL53L0X_get_total_xtalk_rate
 4438 002a 0346     		mov	r3, r0
 4439 002c 8DF81730 		strb	r3, [sp, #23]
 4440              		.loc 1 1489 0
 4441 0030 9DF91730 		ldrsb	r3, [sp, #23]
 4442 0034 002B     		cmp	r3, #0
 4443 0036 05D1     		bne	.L249
 4444              		.loc 1 1490 0
 4445 0038 019B     		ldr	r3, [sp, #4]
 4446 003a 1A68     		ldr	r2, [r3]
ARM GAS  C:\Users\PCHAUT~1\AppData\Local\Temp\ccgoQRgJ.s 			page 79


 4447 003c 069B     		ldr	r3, [sp, #24]
 4448 003e 1A44     		add	r2, r2, r3
 4449 0040 019B     		ldr	r3, [sp, #4]
 4450 0042 1A60     		str	r2, [r3]
 4451              	.L249:
 4452              		.loc 1 1492 0
 4453 0044 9DF91730 		ldrsb	r3, [sp, #23]
 4454              		.loc 1 1493 0
 4455 0048 1846     		mov	r0, r3
 4456 004a 054B     		ldr	r3, .L252
 4457 004c 079A     		ldr	r2, [sp, #28]
 4458 004e 1B68     		ldr	r3, [r3]
 4459 0050 9A42     		cmp	r2, r3
 4460 0052 01D0     		beq	.L251
 4461 0054 FFF7FEFF 		bl	__stack_chk_fail
 4462              	.L251:
 4463 0058 09B0     		add	sp, sp, #36
 4464              		.cfi_def_cfa_offset 4
 4465              		@ sp needed
 4466 005a 5DF804FB 		ldr	pc, [sp], #4
 4467              	.L253:
 4468 005e 00BF     		.align	2
 4469              	.L252:
 4470 0060 00000000 		.word	__stack_chk_guard
 4471              		.cfi_endproc
 4472              	.LFE24:
 4473              		.size	VL53L0X_get_total_signal_rate, .-VL53L0X_get_total_signal_rate
 4474              		.section	.text.VL53L0X_calc_dmax,"ax",%progbits
 4475              		.align	1
 4476              		.p2align 4,,15
 4477              		.global	VL53L0X_calc_dmax
 4478              		.syntax unified
 4479              		.thumb
 4480              		.thumb_func
 4481              		.fpu fpv4-sp-d16
 4482              		.type	VL53L0X_calc_dmax, %function
 4483              	VL53L0X_calc_dmax:
 4484              	.LFB25:
 4485              		.loc 1 1504 0
 4486              		.cfi_startproc
 4487              		@ args = 16, pretend = 0, frame = 128
 4488              		@ frame_needed = 0, uses_anonymous_args = 0
 4489 0000 00B5     		push	{lr}
 4490              		.cfi_def_cfa_offset 4
 4491              		.cfi_offset 14, -4
 4492 0002 A1B0     		sub	sp, sp, #132
 4493              		.cfi_def_cfa_offset 136
 4494 0004 0790     		str	r0, [sp, #28]
 4495 0006 0691     		str	r1, [sp, #24]
 4496 0008 0592     		str	r2, [sp, #20]
 4497 000a 0493     		str	r3, [sp, #16]
 4498 000c 229B     		ldr	r3, [sp, #136]
 4499 000e 0393     		str	r3, [sp, #12]
 4500 0010 239B     		ldr	r3, [sp, #140]
 4501 0012 0293     		str	r3, [sp, #8]
 4502 0014 249B     		ldr	r3, [sp, #144]
 4503 0016 0193     		str	r3, [sp, #4]
ARM GAS  C:\Users\PCHAUT~1\AppData\Local\Temp\ccgoQRgJ.s 			page 80


 4504 0018 259B     		ldr	r3, [sp, #148]
 4505 001a 0093     		str	r3, [sp]
 4506              		.loc 1 1504 0
 4507 001c 8F4B     		ldr	r3, .L265
 4508 001e 1B68     		ldr	r3, [r3]
 4509 0020 1F93     		str	r3, [sp, #124]
 4510              		.loc 1 1505 0
 4511 0022 1223     		movs	r3, #18
 4512 0024 0E93     		str	r3, [sp, #56]
 4513              		.loc 1 1506 0
 4514 0026 4FF48043 		mov	r3, #16384
 4515 002a 0F93     		str	r3, [sp, #60]
 4516              		.loc 1 1507 0
 4517 002c 4223     		movs	r3, #66
 4518 002e 1093     		str	r3, [sp, #64]
 4519              		.loc 1 1508 0
 4520 0030 0623     		movs	r3, #6
 4521 0032 1193     		str	r3, [sp, #68]
 4522              		.loc 1 1509 0
 4523 0034 0723     		movs	r3, #7
 4524 0036 1293     		str	r3, [sp, #72]
 4525              		.loc 1 1527 0
 4526 0038 0023     		movs	r3, #0
 4527 003a 8DF82730 		strb	r3, [sp, #39]
 4528              		.loc 1 1532 0
 4529 003e 079B     		ldr	r3, [sp, #28]
 4530 0040 B3F85431 		ldrh	r3, [r3, #340]
 4531              		.loc 1 1531 0
 4532 0044 1393     		str	r3, [sp, #76]
 4533              		.loc 1 1534 0
 4534 0046 079B     		ldr	r3, [sp, #28]
 4535 0048 D3F85831 		ldr	r3, [r3, #344]
 4536 004c 1493     		str	r3, [sp, #80]
 4537              		.loc 1 1538 0
 4538 004e 139B     		ldr	r3, [sp, #76]
 4539 0050 149A     		ldr	r2, [sp, #80]
 4540 0052 02FB03F3 		mul	r3, r2, r3
 4541 0056 1593     		str	r3, [sp, #84]
 4542              		.loc 1 1541 0
 4543 0058 159B     		ldr	r3, [sp, #84]
 4544 005a 8033     		adds	r3, r3, #128
 4545 005c 1B0A     		lsrs	r3, r3, #8
 4546 005e 1593     		str	r3, [sp, #84]
 4547              		.loc 1 1542 0
 4548 0060 159B     		ldr	r3, [sp, #84]
 4549 0062 139A     		ldr	r2, [sp, #76]
 4550 0064 02FB03F3 		mul	r3, r2, r3
 4551 0068 1593     		str	r3, [sp, #84]
 4552              		.loc 1 1544 0
 4553 006a 0023     		movs	r3, #0
 4554 006c 0A93     		str	r3, [sp, #40]
 4555              		.loc 1 1545 0
 4556 006e 059B     		ldr	r3, [sp, #20]
 4557 0070 002B     		cmp	r3, #0
 4558 0072 1BD0     		beq	.L255
 4559              		.loc 1 1549 0
 4560 0074 069B     		ldr	r3, [sp, #24]
ARM GAS  C:\Users\PCHAUT~1\AppData\Local\Temp\ccgoQRgJ.s 			page 81


 4561 0076 9B02     		lsls	r3, r3, #10
 4562 0078 1693     		str	r3, [sp, #88]
 4563              		.loc 1 1553 0
 4564 007a 059B     		ldr	r3, [sp, #20]
 4565 007c 5B08     		lsrs	r3, r3, #1
 4566              		.loc 1 1552 0
 4567 007e 169A     		ldr	r2, [sp, #88]
 4568 0080 1344     		add	r3, r3, r2
 4569 0082 0A93     		str	r3, [sp, #40]
 4570              		.loc 1 1556 0
 4571 0084 0A9A     		ldr	r2, [sp, #40]
 4572 0086 059B     		ldr	r3, [sp, #20]
 4573 0088 B2FBF3F3 		udiv	r3, r2, r3
 4574 008c 0A93     		str	r3, [sp, #40]
 4575              		.loc 1 1560 0
 4576 008e 0A9A     		ldr	r2, [sp, #40]
 4577 0090 1346     		mov	r3, r2
 4578 0092 5B00     		lsls	r3, r3, #1
 4579 0094 1344     		add	r3, r3, r2
 4580 0096 0A93     		str	r3, [sp, #40]
 4581              		.loc 1 1563 0
 4582 0098 0A9B     		ldr	r3, [sp, #40]
 4583 009a 0A9A     		ldr	r2, [sp, #40]
 4584 009c 02FB03F3 		mul	r3, r2, r3
 4585 00a0 0A93     		str	r3, [sp, #40]
 4586              		.loc 1 1566 0
 4587 00a2 0A9B     		ldr	r3, [sp, #40]
 4588 00a4 03F50043 		add	r3, r3, #32768
 4589 00a8 1B0C     		lsrs	r3, r3, #16
 4590 00aa 0A93     		str	r3, [sp, #40]
 4591              	.L255:
 4592              		.loc 1 1569 0
 4593 00ac 049B     		ldr	r3, [sp, #16]
 4594 00ae 039A     		ldr	r2, [sp, #12]
 4595 00b0 02FB03F3 		mul	r3, r2, r3
 4596 00b4 1793     		str	r3, [sp, #92]
 4597              		.loc 1 1572 0
 4598 00b6 179B     		ldr	r3, [sp, #92]
 4599 00b8 03F50043 		add	r3, r3, #32768
 4600 00bc 1B0C     		lsrs	r3, r3, #16
 4601 00be 1793     		str	r3, [sp, #92]
 4602              		.loc 1 1575 0
 4603 00c0 179B     		ldr	r3, [sp, #92]
 4604 00c2 179A     		ldr	r2, [sp, #92]
 4605 00c4 02FB03F3 		mul	r3, r2, r3
 4606 00c8 1793     		str	r3, [sp, #92]
 4607              		.loc 1 1582 0
 4608 00ca 029B     		ldr	r3, [sp, #8]
 4609 00cc 03F50043 		add	r3, r3, #32768
 4610 00d0 1B0C     		lsrs	r3, r3, #16
 4611 00d2 1893     		str	r3, [sp, #96]
 4612              		.loc 1 1583 0
 4613 00d4 119B     		ldr	r3, [sp, #68]
 4614 00d6 5A08     		lsrs	r2, r3, #1
 4615 00d8 189B     		ldr	r3, [sp, #96]
 4616 00da 1A44     		add	r2, r2, r3
 4617 00dc 119B     		ldr	r3, [sp, #68]
ARM GAS  C:\Users\PCHAUT~1\AppData\Local\Temp\ccgoQRgJ.s 			page 82


 4618 00de B2FBF3F3 		udiv	r3, r2, r3
 4619 00e2 1893     		str	r3, [sp, #96]
 4620              		.loc 1 1585 0
 4621 00e4 189B     		ldr	r3, [sp, #96]
 4622 00e6 129A     		ldr	r2, [sp, #72]
 4623 00e8 02FB03F3 		mul	r3, r2, r3
 4624 00ec 1893     		str	r3, [sp, #96]
 4625              		.loc 1 1587 0
 4626 00ee 189B     		ldr	r3, [sp, #96]
 4627 00f0 B3F5803F 		cmp	r3, #65536
 4628 00f4 02D3     		bcc	.L256
 4629              		.loc 1 1588 0
 4630 00f6 5A4B     		ldr	r3, .L265+4
 4631 00f8 0B93     		str	r3, [sp, #44]
 4632 00fa 16E0     		b	.L257
 4633              	.L256:
 4634              		.loc 1 1595 0
 4635 00fc 119B     		ldr	r3, [sp, #68]
 4636 00fe 5A08     		lsrs	r2, r3, #1
 4637 0100 029B     		ldr	r3, [sp, #8]
 4638 0102 1A44     		add	r2, r2, r3
 4639 0104 119B     		ldr	r3, [sp, #68]
 4640 0106 B2FBF3F3 		udiv	r3, r2, r3
 4641 010a 0293     		str	r3, [sp, #8]
 4642              		.loc 1 1597 0
 4643 010c 029B     		ldr	r3, [sp, #8]
 4644 010e 129A     		ldr	r2, [sp, #72]
 4645 0110 02FB03F3 		mul	r3, r2, r3
 4646 0114 0293     		str	r3, [sp, #8]
 4647              		.loc 1 1600 0
 4648 0116 029B     		ldr	r3, [sp, #8]
 4649 0118 03F50043 		add	r3, r3, #32768
 4650 011c 1B0C     		lsrs	r3, r3, #16
 4651 011e 0B93     		str	r3, [sp, #44]
 4652              		.loc 1 1602 0
 4653 0120 0B9B     		ldr	r3, [sp, #44]
 4654 0122 0B9A     		ldr	r2, [sp, #44]
 4655 0124 02FB03F3 		mul	r3, r2, r3
 4656 0128 0B93     		str	r3, [sp, #44]
 4657              	.L257:
 4658              		.loc 1 1607 0
 4659 012a 0E9B     		ldr	r3, [sp, #56]
 4660 012c 9B03     		lsls	r3, r3, #14
 4661 012e 03F5FA73 		add	r3, r3, #500
 4662 0132 4C4A     		ldr	r2, .L265+8
 4663 0134 A2FB0323 		umull	r2, r3, r2, r3
 4664 0138 9B09     		lsrs	r3, r3, #6
 4665 013a 1993     		str	r3, [sp, #100]
 4666              		.loc 1 1610 0
 4667 013c 199B     		ldr	r3, [sp, #100]
 4668 013e 199A     		ldr	r2, [sp, #100]
 4669 0140 02FB03F3 		mul	r3, r2, r3
 4670 0144 1993     		str	r3, [sp, #100]
 4671              		.loc 1 1613 0
 4672 0146 109B     		ldr	r3, [sp, #64]
 4673 0148 109A     		ldr	r2, [sp, #64]
 4674 014a 02FB03F3 		mul	r3, r2, r3
ARM GAS  C:\Users\PCHAUT~1\AppData\Local\Temp\ccgoQRgJ.s 			page 83


 4675 014e 1A93     		str	r3, [sp, #104]
 4676              		.loc 1 1616 0
 4677 0150 1A9B     		ldr	r3, [sp, #104]
 4678 0152 0833     		adds	r3, r3, #8
 4679 0154 1B09     		lsrs	r3, r3, #4
 4680 0156 1A93     		str	r3, [sp, #104]
 4681              		.loc 1 1619 0
 4682 0158 199A     		ldr	r2, [sp, #100]
 4683 015a 1A9B     		ldr	r3, [sp, #104]
 4684 015c D31A     		subs	r3, r2, r3
 4685 015e 1993     		str	r3, [sp, #100]
 4686              		.loc 1 1622 0
 4687 0160 199A     		ldr	r2, [sp, #100]
 4688 0162 1346     		mov	r3, r2
 4689 0164 5B00     		lsls	r3, r3, #1
 4690 0166 1344     		add	r3, r3, r2
 4691 0168 1B01     		lsls	r3, r3, #4
 4692 016a 1B93     		str	r3, [sp, #108]
 4693              		.loc 1 1625 0
 4694 016c 1B9B     		ldr	r3, [sp, #108]
 4695 016e 03F50053 		add	r3, r3, #8192
 4696 0172 9B0B     		lsrs	r3, r3, #14
 4697 0174 1B93     		str	r3, [sp, #108]
 4698              		.loc 1 1628 0
 4699 0176 179A     		ldr	r2, [sp, #92]
 4700 0178 0B9B     		ldr	r3, [sp, #44]
 4701 017a 1344     		add	r3, r3, r2
 4702 017c 1C93     		str	r3, [sp, #112]
 4703              		.loc 1 1631 0
 4704 017e 019B     		ldr	r3, [sp, #4]
 4705 0180 5B08     		lsrs	r3, r3, #1
 4706 0182 1C9A     		ldr	r2, [sp, #112]
 4707 0184 1344     		add	r3, r3, r2
 4708 0186 1C93     		str	r3, [sp, #112]
 4709              		.loc 1 1632 0
 4710 0188 1C9A     		ldr	r2, [sp, #112]
 4711 018a 019B     		ldr	r3, [sp, #4]
 4712 018c B2FBF3F3 		udiv	r3, r2, r3
 4713 0190 1C93     		str	r3, [sp, #112]
 4714              		.loc 1 1635 0
 4715 0192 1C9B     		ldr	r3, [sp, #112]
 4716 0194 9B03     		lsls	r3, r3, #14
 4717 0196 1C93     		str	r3, [sp, #112]
 4718              		.loc 1 1638 0
 4719 0198 1B9B     		ldr	r3, [sp, #108]
 4720 019a 5B08     		lsrs	r3, r3, #1
 4721 019c 1C9A     		ldr	r2, [sp, #112]
 4722 019e 1344     		add	r3, r3, r2
 4723 01a0 1C93     		str	r3, [sp, #112]
 4724              		.loc 1 1639 0
 4725 01a2 1C9A     		ldr	r2, [sp, #112]
 4726 01a4 1B9B     		ldr	r3, [sp, #108]
 4727 01a6 B2FBF3F3 		udiv	r3, r2, r3
 4728 01aa 1C93     		str	r3, [sp, #112]
 4729              		.loc 1 1642 0
 4730 01ac 1C9B     		ldr	r3, [sp, #112]
 4731 01ae 0A9A     		ldr	r2, [sp, #40]
ARM GAS  C:\Users\PCHAUT~1\AppData\Local\Temp\ccgoQRgJ.s 			page 84


 4732 01b0 02FB03F3 		mul	r3, r2, r3
 4733 01b4 1C93     		str	r3, [sp, #112]
 4734              		.loc 1 1651 0
 4735 01b6 1C9B     		ldr	r3, [sp, #112]
 4736 01b8 03F5FA73 		add	r3, r3, #500
 4737 01bc 294A     		ldr	r2, .L265+8
 4738 01be A2FB0323 		umull	r2, r3, r2, r3
 4739 01c2 9B09     		lsrs	r3, r3, #6
 4740 01c4 1C93     		str	r3, [sp, #112]
 4741              		.loc 1 1652 0
 4742 01c6 1C9B     		ldr	r3, [sp, #112]
 4743 01c8 1B01     		lsls	r3, r3, #4
 4744 01ca 1C93     		str	r3, [sp, #112]
 4745              		.loc 1 1654 0
 4746 01cc 1C9B     		ldr	r3, [sp, #112]
 4747 01ce 03F5FA73 		add	r3, r3, #500
 4748 01d2 244A     		ldr	r2, .L265+8
 4749 01d4 A2FB0323 		umull	r2, r3, r2, r3
 4750 01d8 9B09     		lsrs	r3, r3, #6
 4751 01da 1C93     		str	r3, [sp, #112]
 4752              		.loc 1 1657 0
 4753 01dc 0F9B     		ldr	r3, [sp, #60]
 4754 01de 8033     		adds	r3, r3, #128
 4755 01e0 1B0A     		lsrs	r3, r3, #8
 4756 01e2 1D93     		str	r3, [sp, #116]
 4757              		.loc 1 1660 0
 4758 01e4 1D9B     		ldr	r3, [sp, #116]
 4759 01e6 002B     		cmp	r3, #0
 4760 01e8 08D0     		beq	.L258
 4761              		.loc 1 1661 0
 4762 01ea 1D9B     		ldr	r3, [sp, #116]
 4763 01ec 5A08     		lsrs	r2, r3, #1
 4764 01ee 159B     		ldr	r3, [sp, #84]
 4765 01f0 1A44     		add	r2, r2, r3
 4766 01f2 1D9B     		ldr	r3, [sp, #116]
 4767 01f4 B2FBF3F3 		udiv	r3, r2, r3
 4768 01f8 0D93     		str	r3, [sp, #52]
 4769 01fa 01E0     		b	.L259
 4770              	.L258:
 4771              		.loc 1 1664 0
 4772 01fc 0023     		movs	r3, #0
 4773 01fe 0D93     		str	r3, [sp, #52]
 4774              	.L259:
 4775              		.loc 1 1666 0
 4776 0200 0D98     		ldr	r0, [sp, #52]
 4777 0202 FFF7FEFF 		bl	VL53L0X_isqrt
 4778 0206 1E90     		str	r0, [sp, #120]
 4779              		.loc 1 1669 0
 4780 0208 1C9B     		ldr	r3, [sp, #112]
 4781 020a 002B     		cmp	r3, #0
 4782 020c 08D0     		beq	.L260
 4783              		.loc 1 1670 0
 4784 020e 1C9B     		ldr	r3, [sp, #112]
 4785 0210 5A08     		lsrs	r2, r3, #1
 4786 0212 159B     		ldr	r3, [sp, #84]
 4787 0214 1A44     		add	r2, r2, r3
 4788 0216 1C9B     		ldr	r3, [sp, #112]
ARM GAS  C:\Users\PCHAUT~1\AppData\Local\Temp\ccgoQRgJ.s 			page 85


 4789 0218 B2FBF3F3 		udiv	r3, r2, r3
 4790 021c 0C93     		str	r3, [sp, #48]
 4791 021e 01E0     		b	.L261
 4792              	.L260:
 4793              		.loc 1 1673 0
 4794 0220 0023     		movs	r3, #0
 4795 0222 0C93     		str	r3, [sp, #48]
 4796              	.L261:
 4797              		.loc 1 1675 0
 4798 0224 0C98     		ldr	r0, [sp, #48]
 4799 0226 FFF7FEFF 		bl	VL53L0X_isqrt
 4800 022a 0C90     		str	r0, [sp, #48]
 4801              		.loc 1 1677 0
 4802 022c 009B     		ldr	r3, [sp]
 4803 022e 1E9A     		ldr	r2, [sp, #120]
 4804 0230 1A60     		str	r2, [r3]
 4805              		.loc 1 1678 0
 4806 0232 1E9A     		ldr	r2, [sp, #120]
 4807 0234 0C9B     		ldr	r3, [sp, #48]
 4808 0236 9A42     		cmp	r2, r3
 4809 0238 02D9     		bls	.L262
 4810              		.loc 1 1679 0
 4811 023a 009B     		ldr	r3, [sp]
 4812 023c 0C9A     		ldr	r2, [sp, #48]
 4813 023e 1A60     		str	r2, [r3]
 4814              	.L262:
 4815              		.loc 1 1683 0
 4816 0240 9DF92730 		ldrsb	r3, [sp, #39]
 4817              		.loc 1 1684 0
 4818 0244 1846     		mov	r0, r3
 4819 0246 054B     		ldr	r3, .L265
 4820 0248 1F9A     		ldr	r2, [sp, #124]
 4821 024a 1B68     		ldr	r3, [r3]
 4822 024c 9A42     		cmp	r2, r3
 4823 024e 01D0     		beq	.L264
 4824 0250 FFF7FEFF 		bl	__stack_chk_fail
 4825              	.L264:
 4826 0254 21B0     		add	sp, sp, #132
 4827              		.cfi_def_cfa_offset 4
 4828              		@ sp needed
 4829 0256 5DF804FB 		ldr	pc, [sp], #4
 4830              	.L266:
 4831 025a 00BF     		.align	2
 4832              	.L265:
 4833 025c 00000000 		.word	__stack_chk_guard
 4834 0260 0000F0FF 		.word	-1048576
 4835 0264 D34D6210 		.word	274877907
 4836              		.cfi_endproc
 4837              	.LFE25:
 4838              		.size	VL53L0X_calc_dmax, .-VL53L0X_calc_dmax
 4839              		.section	.text.VL53L0X_calc_sigma_estimate,"ax",%progbits
 4840              		.align	1
 4841              		.p2align 4,,15
 4842              		.global	VL53L0X_calc_sigma_estimate
 4843              		.syntax unified
 4844              		.thumb
 4845              		.thumb_func
ARM GAS  C:\Users\PCHAUT~1\AppData\Local\Temp\ccgoQRgJ.s 			page 86


 4846              		.fpu fpv4-sp-d16
 4847              		.type	VL53L0X_calc_sigma_estimate, %function
 4848              	VL53L0X_calc_sigma_estimate:
 4849              	.LFB26:
 4850              		.loc 1 1691 0
 4851              		.cfi_startproc
 4852              		@ args = 0, pretend = 0, frame = 192
 4853              		@ frame_needed = 0, uses_anonymous_args = 0
 4854 0000 00B5     		push	{lr}
 4855              		.cfi_def_cfa_offset 4
 4856              		.cfi_offset 14, -4
 4857 0002 B5B0     		sub	sp, sp, #212
 4858              		.cfi_def_cfa_offset 216
 4859 0004 0790     		str	r0, [sp, #28]
 4860 0006 0691     		str	r1, [sp, #24]
 4861 0008 0592     		str	r2, [sp, #20]
 4862 000a 0493     		str	r3, [sp, #16]
 4863              		.loc 1 1691 0
 4864 000c 914B     		ldr	r3, .L284
 4865 000e 1B68     		ldr	r3, [r3]
 4866 0010 3393     		str	r3, [sp, #204]
 4867              		.loc 1 1693 0
 4868 0012 4FF44873 		mov	r3, #800
 4869 0016 1693     		str	r3, [sp, #88]
 4870              		.loc 1 1695 0
 4871 0018 4FF41673 		mov	r3, #600
 4872 001c 1793     		str	r3, [sp, #92]
 4873              		.loc 1 1696 0
 4874 001e 4FF4C813 		mov	r3, #1638400
 4875 0022 1893     		str	r3, [sp, #96]
 4876              		.loc 1 1697 0
 4877 0024 41F25C23 		movw	r3, #4700
 4878 0028 1993     		str	r3, [sp, #100]
 4879              		.loc 1 1698 0
 4880 002a 8B4B     		ldr	r3, .L284+4
 4881 002c 1A93     		str	r3, [sp, #104]
 4882              		.loc 1 1699 0
 4883 002e 4FF47043 		mov	r3, #61440
 4884 0032 1B93     		str	r3, [sp, #108]
 4885              		.loc 1 1700 0
 4886 0034 4FF07042 		mov	r2, #-268435456
 4887 0038 179B     		ldr	r3, [sp, #92]
 4888 003a B2FBF3F3 		udiv	r3, r2, r3
 4889 003e 1C93     		str	r3, [sp, #112]
 4890              		.loc 1 1703 0
 4891 0040 864B     		ldr	r3, .L284+8
 4892 0042 1D93     		str	r3, [sp, #116]
 4893              		.loc 1 1704 0
 4894 0044 4FF40043 		mov	r3, #32768
 4895 0048 1E93     		str	r3, [sp, #120]
 4896              		.loc 1 1705 0
 4897 004a 4FF44813 		mov	r3, #3276800
 4898 004e 1F93     		str	r3, [sp, #124]
 4899              		.loc 1 1706 0
 4900 0050 40F27763 		movw	r3, #1655
 4901 0054 2093     		str	r3, [sp, #128]
 4902              		.loc 1 1724 0
ARM GAS  C:\Users\PCHAUT~1\AppData\Local\Temp\ccgoQRgJ.s 			page 87


 4903 0056 0023     		movs	r3, #0
 4904 0058 8DF82530 		strb	r3, [sp, #37]
 4905              		.loc 1 1749 0
 4906 005c 079B     		ldr	r3, [sp, #28]
 4907 005e 1B6A     		ldr	r3, [r3, #32]
 4908 0060 0A93     		str	r3, [sp, #40]
 4909              		.loc 1 1758 0
 4910 0062 069B     		ldr	r3, [sp, #24]
 4911 0064 1B69     		ldr	r3, [r3, #16]
 4912 0066 4FF47A72 		mov	r2, #1000
 4913 006a 02FB03F3 		mul	r3, r2, r3
 4914              		.loc 1 1757 0
 4915 006e 1B0C     		lsrs	r3, r3, #16
 4916 0070 2193     		str	r3, [sp, #132]
 4917              		.loc 1 1760 0
 4918 0072 069B     		ldr	r3, [sp, #24]
 4919 0074 DB68     		ldr	r3, [r3, #12]
 4920 0076 2293     		str	r3, [sp, #136]
 4921              		.loc 1 1764 0
 4922 0078 0BAB     		add	r3, sp, #44
 4923 007a 1A46     		mov	r2, r3
 4924 007c 0699     		ldr	r1, [sp, #24]
 4925 007e 0798     		ldr	r0, [sp, #28]
 4926 0080 FFF7FEFF 		bl	VL53L0X_get_total_signal_rate
 4927 0084 0346     		mov	r3, r0
 4928 0086 8DF82530 		strb	r3, [sp, #37]
 4929              		.loc 1 1766 0
 4930 008a 0AAB     		add	r3, sp, #40
 4931 008c 1A46     		mov	r2, r3
 4932 008e 0699     		ldr	r1, [sp, #24]
 4933 0090 0798     		ldr	r0, [sp, #28]
 4934 0092 FFF7FEFF 		bl	VL53L0X_get_total_xtalk_rate
 4935 0096 0346     		mov	r3, r0
 4936 0098 8DF82530 		strb	r3, [sp, #37]
 4937              		.loc 1 1773 0
 4938 009c 0B9B     		ldr	r3, [sp, #44]
 4939 009e 4FF47A72 		mov	r2, #1000
 4940 00a2 02FB03F3 		mul	r3, r2, r3
 4941 00a6 2393     		str	r3, [sp, #140]
 4942              		.loc 1 1774 0
 4943 00a8 239B     		ldr	r3, [sp, #140]
 4944 00aa 03F50043 		add	r3, r3, #32768
 4945 00ae 1B0C     		lsrs	r3, r3, #16
 4946 00b0 2393     		str	r3, [sp, #140]
 4947              		.loc 1 1776 0
 4948 00b2 0A9B     		ldr	r3, [sp, #40]
 4949 00b4 4FF47A72 		mov	r2, #1000
 4950 00b8 02FB03F3 		mul	r3, r2, r3
 4951 00bc 1393     		str	r3, [sp, #76]
 4952              		.loc 1 1778 0
 4953 00be 139A     		ldr	r2, [sp, #76]
 4954 00c0 1F9B     		ldr	r3, [sp, #124]
 4955 00c2 9A42     		cmp	r2, r3
 4956 00c4 01D9     		bls	.L268
 4957              		.loc 1 1779 0
 4958 00c6 1F9B     		ldr	r3, [sp, #124]
 4959 00c8 1393     		str	r3, [sp, #76]
ARM GAS  C:\Users\PCHAUT~1\AppData\Local\Temp\ccgoQRgJ.s 			page 88


 4960              	.L268:
 4961              		.loc 1 1781 0
 4962 00ca 9DF92530 		ldrsb	r3, [sp, #37]
 4963 00ce 002B     		cmp	r3, #0
 4964 00d0 56D1     		bne	.L269
 4965              		.loc 1 1784 0
 4966 00d2 079B     		ldr	r3, [sp, #28]
 4967 00d4 D3F8DC30 		ldr	r3, [r3, #220]
 4968 00d8 0D93     		str	r3, [sp, #52]
 4969              		.loc 1 1787 0
 4970 00da 079B     		ldr	r3, [sp, #28]
 4971 00dc 93F8E030 		ldrb	r3, [r3, #224]
 4972 00e0 8DF82630 		strb	r3, [sp, #38]
 4973              		.loc 1 1790 0
 4974 00e4 9DF82630 		ldrb	r3, [sp, #38]	@ zero_extendqisi2
 4975 00e8 1A46     		mov	r2, r3
 4976 00ea 0D99     		ldr	r1, [sp, #52]
 4977 00ec 0798     		ldr	r0, [sp, #28]
 4978 00ee FFF7FEFF 		bl	VL53L0X_calc_timeout_mclks
 4979 00f2 2490     		str	r0, [sp, #144]
 4980              		.loc 1 1794 0
 4981 00f4 079B     		ldr	r3, [sp, #28]
 4982 00f6 D3F8E430 		ldr	r3, [r3, #228]
 4983 00fa 0E93     		str	r3, [sp, #56]
 4984              		.loc 1 1797 0
 4985 00fc 079B     		ldr	r3, [sp, #28]
 4986 00fe 93F8E830 		ldrb	r3, [r3, #232]
 4987 0102 8DF82730 		strb	r3, [sp, #39]
 4988              		.loc 1 1800 0
 4989 0106 9DF82730 		ldrb	r3, [sp, #39]	@ zero_extendqisi2
 4990 010a 1A46     		mov	r2, r3
 4991 010c 0E99     		ldr	r1, [sp, #56]
 4992 010e 0798     		ldr	r0, [sp, #28]
 4993 0110 FFF7FEFF 		bl	VL53L0X_calc_timeout_mclks
 4994 0114 2590     		str	r0, [sp, #148]
 4995              		.loc 1 1803 0
 4996 0116 0323     		movs	r3, #3
 4997 0118 1493     		str	r3, [sp, #80]
 4998              		.loc 1 1804 0
 4999 011a 9DF82630 		ldrb	r3, [sp, #38]	@ zero_extendqisi2
 5000 011e 082B     		cmp	r3, #8
 5001 0120 01D1     		bne	.L270
 5002              		.loc 1 1805 0
 5003 0122 0223     		movs	r3, #2
 5004 0124 1493     		str	r3, [sp, #80]
 5005              	.L270:
 5006              		.loc 1 1809 0
 5007 0126 259A     		ldr	r2, [sp, #148]
 5008 0128 249B     		ldr	r3, [sp, #144]
 5009 012a 1344     		add	r3, r3, r2
 5010              		.loc 1 1808 0
 5011 012c 149A     		ldr	r2, [sp, #80]
 5012 012e 02FB03F3 		mul	r3, r2, r3
 5013 0132 DB02     		lsls	r3, r3, #11
 5014 0134 1593     		str	r3, [sp, #84]
 5015              		.loc 1 1810 0
 5016 0136 159B     		ldr	r3, [sp, #84]
ARM GAS  C:\Users\PCHAUT~1\AppData\Local\Temp\ccgoQRgJ.s 			page 89


 5017 0138 03F5FA73 		add	r3, r3, #500
 5018 013c 484A     		ldr	r2, .L284+12
 5019 013e A2FB0323 		umull	r2, r3, r2, r3
 5020 0142 9B09     		lsrs	r3, r3, #6
 5021 0144 1593     		str	r3, [sp, #84]
 5022              		.loc 1 1811 0
 5023 0146 159B     		ldr	r3, [sp, #84]
 5024 0148 209A     		ldr	r2, [sp, #128]
 5025 014a 02FB03F3 		mul	r3, r2, r3
 5026 014e 1593     		str	r3, [sp, #84]
 5027              		.loc 1 1812 0
 5028 0150 159B     		ldr	r3, [sp, #84]
 5029 0152 03F5FA73 		add	r3, r3, #500
 5030 0156 424A     		ldr	r2, .L284+12
 5031 0158 A2FB0323 		umull	r2, r3, r2, r3
 5032 015c 9B09     		lsrs	r3, r3, #6
 5033 015e 1593     		str	r3, [sp, #84]
 5034              		.loc 1 1815 0
 5035 0160 0B9B     		ldr	r3, [sp, #44]
 5036 0162 8033     		adds	r3, r3, #128
 5037 0164 1B0A     		lsrs	r3, r3, #8
 5038 0166 0B93     		str	r3, [sp, #44]
 5039              		.loc 1 1818 0
 5040 0168 0B9A     		ldr	r2, [sp, #44]
 5041 016a 159B     		ldr	r3, [sp, #84]
 5042 016c 02FB03F3 		mul	r3, r2, r3
 5043 0170 0C93     		str	r3, [sp, #48]
 5044              		.loc 1 1822 0
 5045 0172 0C9B     		ldr	r3, [sp, #48]
 5046 0174 8033     		adds	r3, r3, #128
 5047 0176 1B0A     		lsrs	r3, r3, #8
 5048 0178 0C93     		str	r3, [sp, #48]
 5049              		.loc 1 1825 0
 5050 017a 0B9B     		ldr	r3, [sp, #44]
 5051 017c 1B02     		lsls	r3, r3, #8
 5052 017e 0B93     		str	r3, [sp, #44]
 5053              	.L269:
 5054              		.loc 1 1828 0
 5055 0180 9DF92530 		ldrsb	r3, [sp, #37]
 5056 0184 002B     		cmp	r3, #0
 5057 0186 02D0     		beq	.L271
 5058              		.loc 1 1830 0
 5059 0188 9DF92530 		ldrsb	r3, [sp, #37]
 5060 018c 2FE1     		b	.L282
 5061              	.L271:
 5062              		.loc 1 1833 0
 5063 018e 239B     		ldr	r3, [sp, #140]
 5064 0190 002B     		cmp	r3, #0
 5065 0192 0AD1     		bne	.L273
 5066              		.loc 1 1834 0
 5067 0194 059B     		ldr	r3, [sp, #20]
 5068 0196 1A9A     		ldr	r2, [sp, #104]
 5069 0198 1A60     		str	r2, [r3]
 5070              		.loc 1 1835 0
 5071 019a 079B     		ldr	r3, [sp, #28]
 5072 019c 1A9A     		ldr	r2, [sp, #104]
 5073 019e C3F84021 		str	r2, [r3, #320]
ARM GAS  C:\Users\PCHAUT~1\AppData\Local\Temp\ccgoQRgJ.s 			page 90


 5074              		.loc 1 1836 0
 5075 01a2 049B     		ldr	r3, [sp, #16]
 5076 01a4 0022     		movs	r2, #0
 5077 01a6 1A60     		str	r2, [r3]
 5078 01a8 1FE1     		b	.L274
 5079              	.L273:
 5080              		.loc 1 1838 0
 5081 01aa 0C9B     		ldr	r3, [sp, #48]
 5082 01ac 002B     		cmp	r3, #0
 5083 01ae 01D1     		bne	.L275
 5084              		.loc 1 1839 0
 5085 01b0 0123     		movs	r3, #1
 5086 01b2 0C93     		str	r3, [sp, #48]
 5087              	.L275:
 5088              		.loc 1 1841 0
 5089 01b4 169B     		ldr	r3, [sp, #88]
 5090 01b6 2693     		str	r3, [sp, #152]
 5091              		.loc 1 1844 0
 5092 01b8 219B     		ldr	r3, [sp, #132]
 5093 01ba 1A04     		lsls	r2, r3, #16
 5094 01bc 239B     		ldr	r3, [sp, #140]
 5095 01be B2FBF3F3 		udiv	r3, r2, r3
 5096 01c2 0F93     		str	r3, [sp, #60]
 5097              		.loc 1 1845 0
 5098 01c4 0F9A     		ldr	r2, [sp, #60]
 5099 01c6 1C9B     		ldr	r3, [sp, #112]
 5100 01c8 9A42     		cmp	r2, r3
 5101 01ca 01D9     		bls	.L276
 5102              		.loc 1 1848 0
 5103 01cc 1C9B     		ldr	r3, [sp, #112]
 5104 01ce 0F93     		str	r3, [sp, #60]
 5105              	.L276:
 5106              		.loc 1 1850 0
 5107 01d0 0F9B     		ldr	r3, [sp, #60]
 5108 01d2 179A     		ldr	r2, [sp, #92]
 5109 01d4 02FB03F3 		mul	r3, r2, r3
 5110 01d8 0F93     		str	r3, [sp, #60]
 5111              		.loc 1 1852 0
 5112 01da 0C9A     		ldr	r2, [sp, #48]
 5113 01dc 1346     		mov	r3, r2
 5114 01de 5B00     		lsls	r3, r3, #1
 5115 01e0 1344     		add	r3, r3, r2
 5116 01e2 9B00     		lsls	r3, r3, #2
 5117 01e4 1846     		mov	r0, r3
 5118 01e6 FFF7FEFF 		bl	VL53L0X_isqrt
 5119 01ea 0346     		mov	r3, r0
 5120 01ec 5B00     		lsls	r3, r3, #1
 5121 01ee 2793     		str	r3, [sp, #156]
 5122              		.loc 1 1855 0
 5123 01f0 069B     		ldr	r3, [sp, #24]
 5124 01f2 1B89     		ldrh	r3, [r3, #8]
 5125 01f4 1A46     		mov	r2, r3
 5126 01f6 1D9B     		ldr	r3, [sp, #116]
 5127 01f8 02FB03F3 		mul	r3, r2, r3
 5128 01fc 2893     		str	r3, [sp, #160]
 5129              		.loc 1 1865 0
 5130 01fe 239B     		ldr	r3, [sp, #140]
ARM GAS  C:\Users\PCHAUT~1\AppData\Local\Temp\ccgoQRgJ.s 			page 91


 5131 0200 1A04     		lsls	r2, r3, #16
 5132              		.loc 1 1866 0
 5133 0202 139B     		ldr	r3, [sp, #76]
 5134 0204 5B00     		lsls	r3, r3, #1
 5135              		.loc 1 1865 0
 5136 0206 D31A     		subs	r3, r2, r3
 5137              		.loc 1 1866 0
 5138 0208 03F5FA73 		add	r3, r3, #500
 5139              		.loc 1 1865 0
 5140 020c 144A     		ldr	r2, .L284+12
 5141 020e A2FB0323 		umull	r2, r3, r2, r3
 5142 0212 9B09     		lsrs	r3, r3, #6
 5143 0214 2993     		str	r3, [sp, #164]
 5144              		.loc 1 1869 0
 5145 0216 239B     		ldr	r3, [sp, #140]
 5146 0218 1B04     		lsls	r3, r3, #16
 5147 021a 03F5FA73 		add	r3, r3, #500
 5148 021e 104A     		ldr	r2, .L284+12
 5149 0220 A2FB0323 		umull	r2, r3, r2, r3
 5150 0224 9B09     		lsrs	r3, r3, #6
 5151 0226 2A93     		str	r3, [sp, #168]
 5152              		.loc 1 1873 0
 5153 0228 299B     		ldr	r3, [sp, #164]
 5154 022a 1B02     		lsls	r3, r3, #8
 5155 022c 2993     		str	r3, [sp, #164]
 5156              		.loc 1 1876 0
 5157 022e 299A     		ldr	r2, [sp, #164]
 5158 0230 2A9B     		ldr	r3, [sp, #168]
 5159 0232 B2FBF3F3 		udiv	r3, r2, r3
 5160 0236 002B     		cmp	r3, #0
 5161 0238 B8BF     		it	lt
 5162 023a 5B42     		rsblt	r3, r3, #0
 5163 023c 2B93     		str	r3, [sp, #172]
 5164              		.loc 1 1879 0
 5165 023e 2B9B     		ldr	r3, [sp, #172]
 5166 0240 1B02     		lsls	r3, r3, #8
 5167 0242 2B93     		str	r3, [sp, #172]
 5168              		.loc 1 1881 0
 5169 0244 069B     		ldr	r3, [sp, #24]
 5170 0246 1B7E     		ldrb	r3, [r3, #24]	@ zero_extendqisi2
 5171 0248 002B     		cmp	r3, #0
 5172 024a 0BD0     		beq	.L277
 5173              		.loc 1 1882 0
 5174 024c 4FF48033 		mov	r3, #65536
 5175 0250 1093     		str	r3, [sp, #64]
 5176 0252 27E0     		b	.L278
 5177              	.L285:
 5178              		.align	2
 5179              	.L284:
 5180 0254 00000000 		.word	__stack_chk_guard
 5181 0258 AE878F02 		.word	42960814
 5182 025c 9A990600 		.word	432538
 5183 0260 D34D6210 		.word	274877907
 5184              	.L277:
 5185              		.loc 1 1885 0
 5186 0264 289A     		ldr	r2, [sp, #160]
 5187 0266 199B     		ldr	r3, [sp, #100]
ARM GAS  C:\Users\PCHAUT~1\AppData\Local\Temp\ccgoQRgJ.s 			page 92


 5188 0268 B2FBF3F3 		udiv	r3, r2, r3
 5189 026c 1093     		str	r3, [sp, #64]
 5190              		.loc 1 1892 0
 5191 026e 2B9B     		ldr	r3, [sp, #172]
 5192 0270 C3F58032 		rsb	r2, r3, #65536
 5193 0274 109B     		ldr	r3, [sp, #64]
 5194 0276 02FB03F3 		mul	r3, r2, r3
 5195 027a 1093     		str	r3, [sp, #64]
 5196              		.loc 1 1895 0
 5197 027c 109A     		ldr	r2, [sp, #64]
 5198 027e 1E9B     		ldr	r3, [sp, #120]
 5199 0280 1344     		add	r3, r3, r2
 5200 0282 1B0C     		lsrs	r3, r3, #16
 5201 0284 1093     		str	r3, [sp, #64]
 5202              		.loc 1 1898 0
 5203 0286 109B     		ldr	r3, [sp, #64]
 5204 0288 03F58033 		add	r3, r3, #65536
 5205 028c 1093     		str	r3, [sp, #64]
 5206              		.loc 1 1905 0
 5207 028e 109B     		ldr	r3, [sp, #64]
 5208 0290 5B08     		lsrs	r3, r3, #1
 5209 0292 1093     		str	r3, [sp, #64]
 5210              		.loc 1 1907 0
 5211 0294 109B     		ldr	r3, [sp, #64]
 5212 0296 109A     		ldr	r2, [sp, #64]
 5213 0298 02FB03F3 		mul	r3, r2, r3
 5214 029c 1093     		str	r3, [sp, #64]
 5215              		.loc 1 1910 0
 5216 029e 109B     		ldr	r3, [sp, #64]
 5217 02a0 9B0B     		lsrs	r3, r3, #14
 5218 02a2 1093     		str	r3, [sp, #64]
 5219              	.L278:
 5220              		.loc 1 1914 0
 5221 02a4 109B     		ldr	r3, [sp, #64]
 5222 02a6 269A     		ldr	r2, [sp, #152]
 5223 02a8 02FB03F3 		mul	r3, r2, r3
 5224 02ac 2C93     		str	r3, [sp, #176]
 5225              		.loc 1 1917 0
 5226 02ae 2C9B     		ldr	r3, [sp, #176]
 5227 02b0 03F50043 		add	r3, r3, #32768
 5228 02b4 1B0C     		lsrs	r3, r3, #16
 5229 02b6 2C93     		str	r3, [sp, #176]
 5230              		.loc 1 1920 0
 5231 02b8 2C9B     		ldr	r3, [sp, #176]
 5232 02ba 2C9A     		ldr	r2, [sp, #176]
 5233 02bc 02FB03F3 		mul	r3, r2, r3
 5234 02c0 2C93     		str	r3, [sp, #176]
 5235              		.loc 1 1922 0
 5236 02c2 0F9B     		ldr	r3, [sp, #60]
 5237 02c4 2D93     		str	r3, [sp, #180]
 5238              		.loc 1 1925 0
 5239 02c6 2D9B     		ldr	r3, [sp, #180]
 5240 02c8 03F50043 		add	r3, r3, #32768
 5241 02cc 1B0C     		lsrs	r3, r3, #16
 5242 02ce 2D93     		str	r3, [sp, #180]
 5243              		.loc 1 1928 0
 5244 02d0 2D9B     		ldr	r3, [sp, #180]
ARM GAS  C:\Users\PCHAUT~1\AppData\Local\Temp\ccgoQRgJ.s 			page 93


 5245 02d2 2D9A     		ldr	r2, [sp, #180]
 5246 02d4 02FB03F3 		mul	r3, r2, r3
 5247 02d8 2D93     		str	r3, [sp, #180]
 5248              		.loc 1 1931 0
 5249 02da 2C9A     		ldr	r2, [sp, #176]
 5250 02dc 2D9B     		ldr	r3, [sp, #180]
 5251 02de 1344     		add	r3, r3, r2
 5252 02e0 2E93     		str	r3, [sp, #184]
 5253              		.loc 1 1934 0
 5254 02e2 2E98     		ldr	r0, [sp, #184]
 5255 02e4 FFF7FEFF 		bl	VL53L0X_isqrt
 5256 02e8 2F90     		str	r0, [sp, #188]
 5257              		.loc 1 1937 0
 5258 02ea 2F9B     		ldr	r3, [sp, #188]
 5259 02ec 1B04     		lsls	r3, r3, #16
 5260 02ee 2F93     		str	r3, [sp, #188]
 5261              		.loc 1 1944 0
 5262 02f0 2F9B     		ldr	r3, [sp, #188]
 5263 02f2 3233     		adds	r3, r3, #50
 5264 02f4 434A     		ldr	r2, .L286
 5265 02f6 A2FB0323 		umull	r2, r3, r2, r3
 5266 02fa 5A09     		lsrs	r2, r3, #5
 5267 02fc 279B     		ldr	r3, [sp, #156]
 5268 02fe B2FBF3F3 		udiv	r3, r2, r3
 5269 0302 1193     		str	r3, [sp, #68]
 5270              		.loc 1 1946 0
 5271 0304 119B     		ldr	r3, [sp, #68]
 5272 0306 40F6B532 		movw	r2, #2997
 5273 030a 02FB03F3 		mul	r3, r2, r3
 5274 030e 1193     		str	r3, [sp, #68]
 5275              		.loc 1 1949 0
 5276 0310 119B     		ldr	r3, [sp, #68]
 5277 0312 03F59C53 		add	r3, r3, #4992
 5278 0316 0833     		adds	r3, r3, #8
 5279 0318 1193     		str	r3, [sp, #68]
 5280              		.loc 1 1950 0
 5281 031a 119B     		ldr	r3, [sp, #68]
 5282 031c 3A4A     		ldr	r2, .L286+4
 5283 031e A2FB0323 		umull	r2, r3, r2, r3
 5284 0322 5B0B     		lsrs	r3, r3, #13
 5285 0324 1193     		str	r3, [sp, #68]
 5286              		.loc 1 1952 0
 5287 0326 119A     		ldr	r2, [sp, #68]
 5288 0328 1B9B     		ldr	r3, [sp, #108]
 5289 032a 9A42     		cmp	r2, r3
 5290 032c 01D9     		bls	.L279
 5291              		.loc 1 1955 0
 5292 032e 1B9B     		ldr	r3, [sp, #108]
 5293 0330 1193     		str	r3, [sp, #68]
 5294              	.L279:
 5295              		.loc 1 1958 0
 5296 0332 0D9A     		ldr	r2, [sp, #52]
 5297 0334 0E9B     		ldr	r3, [sp, #56]
 5298 0336 1344     		add	r3, r3, r2
 5299 0338 03F5FA73 		add	r3, r3, #500
 5300              		.loc 1 1957 0
 5301 033c 334A     		ldr	r2, .L286+8
ARM GAS  C:\Users\PCHAUT~1\AppData\Local\Temp\ccgoQRgJ.s 			page 94


 5302 033e A2FB0323 		umull	r2, r3, r2, r3
 5303 0342 9B09     		lsrs	r3, r3, #6
 5304 0344 3093     		str	r3, [sp, #192]
 5305              		.loc 1 1965 0
 5306 0346 309B     		ldr	r3, [sp, #192]
 5307 0348 5A08     		lsrs	r2, r3, #1
 5308              		.loc 1 1964 0
 5309 034a 189B     		ldr	r3, [sp, #96]
 5310 034c 1A44     		add	r2, r2, r3
 5311 034e 309B     		ldr	r3, [sp, #192]
 5312 0350 B2FBF3F3 		udiv	r3, r2, r3
 5313              		.loc 1 1963 0
 5314 0354 1846     		mov	r0, r3
 5315 0356 FFF7FEFF 		bl	VL53L0X_isqrt
 5316 035a 3190     		str	r0, [sp, #196]
 5317              		.loc 1 1969 0
 5318 035c 319B     		ldr	r3, [sp, #196]
 5319 035e 1B02     		lsls	r3, r3, #8
 5320 0360 3193     		str	r3, [sp, #196]
 5321              		.loc 1 1970 0
 5322 0362 319B     		ldr	r3, [sp, #196]
 5323 0364 03F5FA73 		add	r3, r3, #500
 5324 0368 284A     		ldr	r2, .L286+8
 5325 036a A2FB0323 		umull	r2, r3, r2, r3
 5326 036e 9B09     		lsrs	r3, r3, #6
 5327 0370 3193     		str	r3, [sp, #196]
 5328              		.loc 1 1973 0
 5329 0372 119B     		ldr	r3, [sp, #68]
 5330 0374 119A     		ldr	r2, [sp, #68]
 5331 0376 02FB03F3 		mul	r3, r2, r3
 5332 037a 2C93     		str	r3, [sp, #176]
 5333              		.loc 1 1975 0
 5334 037c 319B     		ldr	r3, [sp, #196]
 5335 037e 319A     		ldr	r2, [sp, #196]
 5336 0380 02FB03F3 		mul	r3, r2, r3
 5337 0384 2D93     		str	r3, [sp, #180]
 5338              		.loc 1 1978 0
 5339 0386 2C9A     		ldr	r2, [sp, #176]
 5340 0388 2D9B     		ldr	r3, [sp, #180]
 5341 038a 1344     		add	r3, r3, r2
 5342 038c 1846     		mov	r0, r3
 5343 038e FFF7FEFF 		bl	VL53L0X_isqrt
 5344 0392 3290     		str	r0, [sp, #200]
 5345              		.loc 1 1985 0
 5346 0394 329B     		ldr	r3, [sp, #200]
 5347 0396 4FF47A72 		mov	r2, #1000
 5348 039a 02FB03F3 		mul	r3, r2, r3
 5349 039e 1293     		str	r3, [sp, #72]
 5350              		.loc 1 1987 0
 5351 03a0 239B     		ldr	r3, [sp, #140]
 5352 03a2 002B     		cmp	r3, #0
 5353 03a4 06D0     		beq	.L280
 5354              		.loc 1 1987 0 is_stmt 0 discriminator 1
 5355 03a6 0C9B     		ldr	r3, [sp, #48]
 5356 03a8 002B     		cmp	r3, #0
 5357 03aa 03D0     		beq	.L280
 5358              		.loc 1 1987 0 discriminator 2
ARM GAS  C:\Users\PCHAUT~1\AppData\Local\Temp\ccgoQRgJ.s 			page 95


 5359 03ac 129A     		ldr	r2, [sp, #72]
 5360 03ae 1A9B     		ldr	r3, [sp, #104]
 5361 03b0 9A42     		cmp	r2, r3
 5362 03b2 01D9     		bls	.L281
 5363              	.L280:
 5364              		.loc 1 1989 0 is_stmt 1
 5365 03b4 1A9B     		ldr	r3, [sp, #104]
 5366 03b6 1293     		str	r3, [sp, #72]
 5367              	.L281:
 5368              		.loc 1 1992 0
 5369 03b8 059B     		ldr	r3, [sp, #20]
 5370 03ba 129A     		ldr	r2, [sp, #72]
 5371 03bc 1A60     		str	r2, [r3]
 5372              		.loc 1 1993 0
 5373 03be 059B     		ldr	r3, [sp, #20]
 5374 03c0 1A68     		ldr	r2, [r3]
 5375 03c2 079B     		ldr	r3, [sp, #28]
 5376 03c4 C3F84021 		str	r2, [r3, #320]
 5377              		.loc 1 1994 0
 5378 03c8 0B99     		ldr	r1, [sp, #44]
 5379 03ca 049B     		ldr	r3, [sp, #16]
 5380 03cc 0393     		str	r3, [sp, #12]
 5381 03ce 159B     		ldr	r3, [sp, #84]
 5382 03d0 0293     		str	r3, [sp, #8]
 5383 03d2 0F9B     		ldr	r3, [sp, #60]
 5384 03d4 0193     		str	r3, [sp, #4]
 5385 03d6 269B     		ldr	r3, [sp, #152]
 5386 03d8 0093     		str	r3, [sp]
 5387 03da 109B     		ldr	r3, [sp, #64]
 5388 03dc 229A     		ldr	r2, [sp, #136]
 5389 03de 0798     		ldr	r0, [sp, #28]
 5390 03e0 FFF7FEFF 		bl	VL53L0X_calc_dmax
 5391 03e4 0346     		mov	r3, r0
 5392 03e6 8DF82530 		strb	r3, [sp, #37]
 5393              	.L274:
 5394              		.loc 1 2006 0
 5395 03ea 9DF92530 		ldrsb	r3, [sp, #37]
 5396              	.L282:
 5397              		.loc 1 2007 0 discriminator 1
 5398 03ee 1846     		mov	r0, r3
 5399 03f0 074B     		ldr	r3, .L286+12
 5400 03f2 339A     		ldr	r2, [sp, #204]
 5401 03f4 1B68     		ldr	r3, [r3]
 5402 03f6 9A42     		cmp	r2, r3
 5403 03f8 01D0     		beq	.L283
 5404              		.loc 1 2007 0 is_stmt 0
 5405 03fa FFF7FEFF 		bl	__stack_chk_fail
 5406              	.L283:
 5407 03fe 35B0     		add	sp, sp, #212
 5408              		.cfi_def_cfa_offset 4
 5409              		@ sp needed
 5410 0400 5DF804FB 		ldr	pc, [sp], #4
 5411              	.L287:
 5412              		.align	2
 5413              	.L286:
 5414 0404 1F85EB51 		.word	1374389535
 5415 0408 5917B7D1 		.word	-776530087
ARM GAS  C:\Users\PCHAUT~1\AppData\Local\Temp\ccgoQRgJ.s 			page 96


 5416 040c D34D6210 		.word	274877907
 5417 0410 00000000 		.word	__stack_chk_guard
 5418              		.cfi_endproc
 5419              	.LFE26:
 5420              		.size	VL53L0X_calc_sigma_estimate, .-VL53L0X_calc_sigma_estimate
 5421              		.section	.text.VL53L0X_get_pal_range_status,"ax",%progbits
 5422              		.align	1
 5423              		.p2align 4,,15
 5424              		.global	VL53L0X_get_pal_range_status
 5425              		.syntax unified
 5426              		.thumb
 5427              		.thumb_func
 5428              		.fpu fpv4-sp-d16
 5429              		.type	VL53L0X_get_pal_range_status, %function
 5430              	VL53L0X_get_pal_range_status:
 5431              	.LFB27:
 5432              		.loc 1 2015 0 is_stmt 1
 5433              		.cfi_startproc
 5434              		@ args = 8, pretend = 0, frame = 72
 5435              		@ frame_needed = 0, uses_anonymous_args = 0
 5436 0000 00B5     		push	{lr}
 5437              		.cfi_def_cfa_offset 4
 5438              		.cfi_offset 14, -4
 5439 0002 93B0     		sub	sp, sp, #76
 5440              		.cfi_def_cfa_offset 80
 5441 0004 0590     		str	r0, [sp, #20]
 5442 0006 0392     		str	r2, [sp, #12]
 5443 0008 1A46     		mov	r2, r3
 5444 000a 0B46     		mov	r3, r1
 5445 000c 8DF81330 		strb	r3, [sp, #19]
 5446 0010 1346     		mov	r3, r2	@ movhi
 5447 0012 ADF81030 		strh	r3, [sp, #16]	@ movhi
 5448 0016 149B     		ldr	r3, [sp, #80]
 5449 0018 0293     		str	r3, [sp, #8]
 5450 001a 159B     		ldr	r3, [sp, #84]
 5451 001c 0193     		str	r3, [sp, #4]
 5452              		.loc 1 2015 0
 5453 001e C44B     		ldr	r3, .L331
 5454 0020 1B68     		ldr	r3, [r3]
 5455 0022 1193     		str	r3, [sp, #68]
 5456              		.loc 1 2016 0
 5457 0024 0023     		movs	r3, #0
 5458 0026 8DF81F30 		strb	r3, [sp, #31]
 5459              		.loc 1 2018 0
 5460 002a 0023     		movs	r3, #0
 5461 002c 8DF82130 		strb	r3, [sp, #33]
 5462              		.loc 1 2019 0
 5463 0030 0023     		movs	r3, #0
 5464 0032 8DF82230 		strb	r3, [sp, #34]
 5465              		.loc 1 2020 0
 5466 0036 0023     		movs	r3, #0
 5467 0038 8DF82330 		strb	r3, [sp, #35]
 5468              		.loc 1 2021 0
 5469 003c 0023     		movs	r3, #0
 5470 003e 8DF81B30 		strb	r3, [sp, #27]
 5471              		.loc 1 2022 0
 5472 0042 0023     		movs	r3, #0
ARM GAS  C:\Users\PCHAUT~1\AppData\Local\Temp\ccgoQRgJ.s 			page 97


 5473 0044 8DF81C30 		strb	r3, [sp, #28]
 5474              		.loc 1 2023 0
 5475 0048 0023     		movs	r3, #0
 5476 004a 8DF81D30 		strb	r3, [sp, #29]
 5477              		.loc 1 2024 0
 5478 004e 0023     		movs	r3, #0
 5479 0050 8DF81E30 		strb	r3, [sp, #30]
 5480              		.loc 1 2030 0
 5481 0054 0023     		movs	r3, #0
 5482 0056 8DF82530 		strb	r3, [sp, #37]
 5483              		.loc 1 2031 0
 5484 005a 0023     		movs	r3, #0
 5485 005c ADF82630 		strh	r3, [sp, #38]	@ movhi
 5486              		.loc 1 2033 0
 5487 0060 0023     		movs	r3, #0
 5488 0062 0E93     		str	r3, [sp, #56]
 5489              		.loc 1 2047 0
 5490 0064 9DF81330 		ldrb	r3, [sp, #19]	@ zero_extendqisi2
 5491 0068 DB10     		asrs	r3, r3, #3
 5492 006a DBB2     		uxtb	r3, r3
 5493 006c 03F00F03 		and	r3, r3, #15
 5494 0070 8DF82530 		strb	r3, [sp, #37]
 5495              		.loc 1 2049 0
 5496 0074 9DF82530 		ldrb	r3, [sp, #37]	@ zero_extendqisi2
 5497 0078 002B     		cmp	r3, #0
 5498 007a 17D0     		beq	.L289
 5499              		.loc 1 2049 0 is_stmt 0 discriminator 1
 5500 007c 9DF82530 		ldrb	r3, [sp, #37]	@ zero_extendqisi2
 5501 0080 052B     		cmp	r3, #5
 5502 0082 13D0     		beq	.L289
 5503              		.loc 1 2050 0 is_stmt 1
 5504 0084 9DF82530 		ldrb	r3, [sp, #37]	@ zero_extendqisi2
 5505 0088 072B     		cmp	r3, #7
 5506 008a 0FD0     		beq	.L289
 5507              		.loc 1 2051 0
 5508 008c 9DF82530 		ldrb	r3, [sp, #37]	@ zero_extendqisi2
 5509 0090 0C2B     		cmp	r3, #12
 5510 0092 0BD0     		beq	.L289
 5511              		.loc 1 2052 0
 5512 0094 9DF82530 		ldrb	r3, [sp, #37]	@ zero_extendqisi2
 5513 0098 0D2B     		cmp	r3, #13
 5514 009a 07D0     		beq	.L289
 5515              		.loc 1 2053 0
 5516 009c 9DF82530 		ldrb	r3, [sp, #37]	@ zero_extendqisi2
 5517 00a0 0E2B     		cmp	r3, #14
 5518 00a2 03D0     		beq	.L289
 5519              		.loc 1 2054 0
 5520 00a4 9DF82530 		ldrb	r3, [sp, #37]	@ zero_extendqisi2
 5521 00a8 0F2B     		cmp	r3, #15
 5522 00aa 03D1     		bne	.L290
 5523              	.L289:
 5524              		.loc 1 2057 0
 5525 00ac 0123     		movs	r3, #1
 5526 00ae 8DF82030 		strb	r3, [sp, #32]
 5527 00b2 02E0     		b	.L291
 5528              	.L290:
 5529              		.loc 1 2059 0
ARM GAS  C:\Users\PCHAUT~1\AppData\Local\Temp\ccgoQRgJ.s 			page 98


 5530 00b4 0023     		movs	r3, #0
 5531 00b6 8DF82030 		strb	r3, [sp, #32]
 5532              	.L291:
 5533              		.loc 1 2066 0
 5534 00ba 9DF91F30 		ldrsb	r3, [sp, #31]
 5535 00be 002B     		cmp	r3, #0
 5536 00c0 09D1     		bne	.L292
 5537              		.loc 1 2067 0
 5538 00c2 0DF11B03 		add	r3, sp, #27
 5539 00c6 1A46     		mov	r2, r3
 5540 00c8 0021     		movs	r1, #0
 5541 00ca 0598     		ldr	r0, [sp, #20]
 5542 00cc FFF7FEFF 		bl	VL53L0X_GetLimitCheckEnable
 5543 00d0 0346     		mov	r3, r0
 5544 00d2 8DF81F30 		strb	r3, [sp, #31]
 5545              	.L292:
 5546              		.loc 1 2071 0
 5547 00d6 9DF81B30 		ldrb	r3, [sp, #27]	@ zero_extendqisi2
 5548 00da 002B     		cmp	r3, #0
 5549 00dc 2BD0     		beq	.L293
 5550              		.loc 1 2071 0 is_stmt 0 discriminator 1
 5551 00de 9DF91F30 		ldrsb	r3, [sp, #31]
 5552 00e2 002B     		cmp	r3, #0
 5553 00e4 27D1     		bne	.L293
 5554              		.loc 1 2075 0 is_stmt 1
 5555 00e6 0EAB     		add	r3, sp, #56
 5556 00e8 0AAA     		add	r2, sp, #40
 5557 00ea 0299     		ldr	r1, [sp, #8]
 5558 00ec 0598     		ldr	r0, [sp, #20]
 5559 00ee FFF7FEFF 		bl	VL53L0X_calc_sigma_estimate
 5560 00f2 0346     		mov	r3, r0
 5561 00f4 8DF81F30 		strb	r3, [sp, #31]
 5562              		.loc 1 2080 0
 5563 00f8 9DF91F30 		ldrsb	r3, [sp, #31]
 5564 00fc 002B     		cmp	r3, #0
 5565 00fe 03D1     		bne	.L294
 5566              		.loc 1 2081 0
 5567 0100 0E9B     		ldr	r3, [sp, #56]
 5568 0102 9AB2     		uxth	r2, r3
 5569 0104 029B     		ldr	r3, [sp, #8]
 5570 0106 5A81     		strh	r2, [r3, #10]	@ movhi
 5571              	.L294:
 5572              		.loc 1 2083 0
 5573 0108 9DF91F30 		ldrsb	r3, [sp, #31]
 5574 010c 002B     		cmp	r3, #0
 5575 010e 12D1     		bne	.L293
 5576              		.loc 1 2084 0
 5577 0110 0BAB     		add	r3, sp, #44
 5578 0112 1A46     		mov	r2, r3
 5579 0114 0021     		movs	r1, #0
 5580 0116 0598     		ldr	r0, [sp, #20]
 5581 0118 FFF7FEFF 		bl	VL53L0X_GetLimitCheckValue
 5582 011c 0346     		mov	r3, r0
 5583 011e 8DF81F30 		strb	r3, [sp, #31]
 5584              		.loc 1 2088 0
 5585 0122 0B9B     		ldr	r3, [sp, #44]
 5586 0124 002B     		cmp	r3, #0
ARM GAS  C:\Users\PCHAUT~1\AppData\Local\Temp\ccgoQRgJ.s 			page 99


 5587 0126 06D0     		beq	.L293
 5588              		.loc 1 2089 0 discriminator 1
 5589 0128 0A9A     		ldr	r2, [sp, #40]
 5590 012a 0B9B     		ldr	r3, [sp, #44]
 5591              		.loc 1 2088 0 discriminator 1
 5592 012c 9A42     		cmp	r2, r3
 5593 012e 02D9     		bls	.L293
 5594              		.loc 1 2091 0
 5595 0130 0123     		movs	r3, #1
 5596 0132 8DF82130 		strb	r3, [sp, #33]
 5597              	.L293:
 5598              		.loc 1 2099 0
 5599 0136 9DF91F30 		ldrsb	r3, [sp, #31]
 5600 013a 002B     		cmp	r3, #0
 5601 013c 09D1     		bne	.L295
 5602              		.loc 1 2100 0
 5603 013e 0DF11D03 		add	r3, sp, #29
 5604 0142 1A46     		mov	r2, r3
 5605 0144 0221     		movs	r1, #2
 5606 0146 0598     		ldr	r0, [sp, #20]
 5607 0148 FFF7FEFF 		bl	VL53L0X_GetLimitCheckEnable
 5608 014c 0346     		mov	r3, r0
 5609 014e 8DF81F30 		strb	r3, [sp, #31]
 5610              	.L295:
 5611              		.loc 1 2104 0
 5612 0152 9DF81D30 		ldrb	r3, [sp, #29]	@ zero_extendqisi2
 5613 0156 002B     		cmp	r3, #0
 5614 0158 44D0     		beq	.L296
 5615              		.loc 1 2104 0 is_stmt 0 discriminator 1
 5616 015a 9DF91F30 		ldrsb	r3, [sp, #31]
 5617 015e 002B     		cmp	r3, #0
 5618 0160 40D1     		bne	.L296
 5619              		.loc 1 2107 0 is_stmt 1
 5620 0162 0CAB     		add	r3, sp, #48
 5621 0164 1A46     		mov	r2, r3
 5622 0166 0221     		movs	r1, #2
 5623 0168 0598     		ldr	r0, [sp, #20]
 5624 016a FFF7FEFF 		bl	VL53L0X_GetLimitCheckValue
 5625 016e 0346     		mov	r3, r0
 5626 0170 8DF81F30 		strb	r3, [sp, #31]
 5627              		.loc 1 2112 0
 5628 0174 9DF91F30 		ldrsb	r3, [sp, #31]
 5629 0178 002B     		cmp	r3, #0
 5630 017a 07D1     		bne	.L297
 5631              		.loc 1 2113 0
 5632 017c 0122     		movs	r2, #1
 5633 017e FF21     		movs	r1, #255
 5634 0180 0598     		ldr	r0, [sp, #20]
 5635 0182 FFF7FEFF 		bl	VL53L0X_WrByte
 5636 0186 0346     		mov	r3, r0
 5637 0188 8DF81F30 		strb	r3, [sp, #31]
 5638              	.L297:
 5639              		.loc 1 2115 0
 5640 018c 9DF91F30 		ldrsb	r3, [sp, #31]
 5641 0190 002B     		cmp	r3, #0
 5642 0192 09D1     		bne	.L298
 5643              		.loc 1 2116 0
ARM GAS  C:\Users\PCHAUT~1\AppData\Local\Temp\ccgoQRgJ.s 			page 100


 5644 0194 0DF12603 		add	r3, sp, #38
 5645 0198 1A46     		mov	r2, r3
 5646 019a B621     		movs	r1, #182
 5647 019c 0598     		ldr	r0, [sp, #20]
 5648 019e FFF7FEFF 		bl	VL53L0X_RdWord
 5649 01a2 0346     		mov	r3, r0
 5650 01a4 8DF81F30 		strb	r3, [sp, #31]
 5651              	.L298:
 5652              		.loc 1 2120 0
 5653 01a8 9DF91F30 		ldrsb	r3, [sp, #31]
 5654 01ac 002B     		cmp	r3, #0
 5655 01ae 07D1     		bne	.L299
 5656              		.loc 1 2121 0
 5657 01b0 0022     		movs	r2, #0
 5658 01b2 FF21     		movs	r1, #255
 5659 01b4 0598     		ldr	r0, [sp, #20]
 5660 01b6 FFF7FEFF 		bl	VL53L0X_WrByte
 5661 01ba 0346     		mov	r3, r0
 5662 01bc 8DF81F30 		strb	r3, [sp, #31]
 5663              	.L299:
 5664              		.loc 1 2123 0
 5665 01c0 BDF82630 		ldrh	r3, [sp, #38]
 5666 01c4 5B02     		lsls	r3, r3, #9
 5667 01c6 1093     		str	r3, [sp, #64]
 5668              		.loc 1 2124 0
 5669 01c8 059B     		ldr	r3, [sp, #20]
 5670 01ca 109A     		ldr	r2, [sp, #64]
 5671 01cc C3F84821 		str	r2, [r3, #328]
 5672              		.loc 1 2126 0
 5673 01d0 0C9B     		ldr	r3, [sp, #48]
 5674 01d2 002B     		cmp	r3, #0
 5675 01d4 06D0     		beq	.L296
 5676              		.loc 1 2127 0 discriminator 1
 5677 01d6 0C9B     		ldr	r3, [sp, #48]
 5678              		.loc 1 2126 0 discriminator 1
 5679 01d8 109A     		ldr	r2, [sp, #64]
 5680 01da 9A42     		cmp	r2, r3
 5681 01dc 02D9     		bls	.L296
 5682              		.loc 1 2129 0
 5683 01de 0123     		movs	r3, #1
 5684 01e0 8DF82230 		strb	r3, [sp, #34]
 5685              	.L296:
 5686              		.loc 1 2139 0
 5687 01e4 9DF91F30 		ldrsb	r3, [sp, #31]
 5688 01e8 002B     		cmp	r3, #0
 5689 01ea 09D1     		bne	.L300
 5690              		.loc 1 2140 0
 5691 01ec 0DF11E03 		add	r3, sp, #30
 5692 01f0 1A46     		mov	r2, r3
 5693 01f2 0321     		movs	r1, #3
 5694 01f4 0598     		ldr	r0, [sp, #20]
 5695 01f6 FFF7FEFF 		bl	VL53L0X_GetLimitCheckEnable
 5696 01fa 0346     		mov	r3, r0
 5697 01fc 8DF81F30 		strb	r3, [sp, #31]
 5698              	.L300:
 5699              		.loc 1 2144 0
 5700 0200 9DF81E30 		ldrb	r3, [sp, #30]	@ zero_extendqisi2
ARM GAS  C:\Users\PCHAUT~1\AppData\Local\Temp\ccgoQRgJ.s 			page 101


 5701 0204 002B     		cmp	r3, #0
 5702 0206 24D0     		beq	.L301
 5703              		.loc 1 2144 0 is_stmt 0 discriminator 1
 5704 0208 9DF91F30 		ldrsb	r3, [sp, #31]
 5705 020c 002B     		cmp	r3, #0
 5706 020e 20D1     		bne	.L301
 5707              		.loc 1 2148 0 is_stmt 1
 5708 0210 BDF81030 		ldrh	r3, [sp, #16]
 5709 0214 002B     		cmp	r3, #0
 5710 0216 02D1     		bne	.L302
 5711              		.loc 1 2149 0
 5712 0218 0023     		movs	r3, #0
 5713 021a 0F93     		str	r3, [sp, #60]
 5714 021c 06E0     		b	.L303
 5715              	.L302:
 5716              		.loc 1 2151 0
 5717 021e 039B     		ldr	r3, [sp, #12]
 5718 0220 1A02     		lsls	r2, r3, #8
 5719 0222 BDF81030 		ldrh	r3, [sp, #16]
 5720 0226 B2FBF3F3 		udiv	r3, r2, r3
 5721 022a 0F93     		str	r3, [sp, #60]
 5722              	.L303:
 5723              		.loc 1 2155 0
 5724 022c 0DAB     		add	r3, sp, #52
 5725 022e 1A46     		mov	r2, r3
 5726 0230 0321     		movs	r1, #3
 5727 0232 0598     		ldr	r0, [sp, #20]
 5728 0234 FFF7FEFF 		bl	VL53L0X_GetLimitCheckValue
 5729 0238 0346     		mov	r3, r0
 5730 023a 8DF81F30 		strb	r3, [sp, #31]
 5731              		.loc 1 2159 0
 5732 023e 0D9B     		ldr	r3, [sp, #52]
 5733 0240 002B     		cmp	r3, #0
 5734 0242 06D0     		beq	.L301
 5735              		.loc 1 2160 0 discriminator 1
 5736 0244 0D9B     		ldr	r3, [sp, #52]
 5737              		.loc 1 2159 0 discriminator 1
 5738 0246 0F9A     		ldr	r2, [sp, #60]
 5739 0248 9A42     		cmp	r2, r3
 5740 024a 02D2     		bcs	.L301
 5741              		.loc 1 2162 0
 5742 024c 0123     		movs	r3, #1
 5743 024e 8DF82330 		strb	r3, [sp, #35]
 5744              	.L301:
 5745              		.loc 1 2166 0
 5746 0252 9DF91F30 		ldrsb	r3, [sp, #31]
 5747 0256 002B     		cmp	r3, #0
 5748 0258 4AD1     		bne	.L304
 5749              		.loc 1 2167 0
 5750 025a 9DF82030 		ldrb	r3, [sp, #32]	@ zero_extendqisi2
 5751 025e 012B     		cmp	r3, #1
 5752 0260 03D1     		bne	.L305
 5753              		.loc 1 2168 0
 5754 0262 019B     		ldr	r3, [sp, #4]
 5755 0264 FF22     		movs	r2, #255
 5756 0266 1A70     		strb	r2, [r3]
 5757 0268 42E0     		b	.L304
ARM GAS  C:\Users\PCHAUT~1\AppData\Local\Temp\ccgoQRgJ.s 			page 102


 5758              	.L305:
 5759              		.loc 1 2169 0
 5760 026a 9DF82530 		ldrb	r3, [sp, #37]	@ zero_extendqisi2
 5761 026e 012B     		cmp	r3, #1
 5762 0270 07D0     		beq	.L306
 5763              		.loc 1 2169 0 is_stmt 0 discriminator 1
 5764 0272 9DF82530 		ldrb	r3, [sp, #37]	@ zero_extendqisi2
 5765 0276 022B     		cmp	r3, #2
 5766 0278 03D0     		beq	.L306
 5767              		.loc 1 2170 0 is_stmt 1
 5768 027a 9DF82530 		ldrb	r3, [sp, #37]	@ zero_extendqisi2
 5769 027e 032B     		cmp	r3, #3
 5770 0280 03D1     		bne	.L307
 5771              	.L306:
 5772              		.loc 1 2172 0
 5773 0282 019B     		ldr	r3, [sp, #4]
 5774 0284 0522     		movs	r2, #5
 5775 0286 1A70     		strb	r2, [r3]
 5776 0288 32E0     		b	.L304
 5777              	.L307:
 5778              		.loc 1 2173 0
 5779 028a 9DF82530 		ldrb	r3, [sp, #37]	@ zero_extendqisi2
 5780 028e 062B     		cmp	r3, #6
 5781 0290 03D0     		beq	.L308
 5782              		.loc 1 2173 0 is_stmt 0 discriminator 1
 5783 0292 9DF82530 		ldrb	r3, [sp, #37]	@ zero_extendqisi2
 5784 0296 092B     		cmp	r3, #9
 5785 0298 03D1     		bne	.L309
 5786              	.L308:
 5787              		.loc 1 2175 0 is_stmt 1
 5788 029a 019B     		ldr	r3, [sp, #4]
 5789 029c 0422     		movs	r2, #4
 5790 029e 1A70     		strb	r2, [r3]
 5791 02a0 26E0     		b	.L304
 5792              	.L309:
 5793              		.loc 1 2176 0
 5794 02a2 9DF82530 		ldrb	r3, [sp, #37]	@ zero_extendqisi2
 5795 02a6 082B     		cmp	r3, #8
 5796 02a8 07D0     		beq	.L310
 5797              		.loc 1 2176 0 is_stmt 0 discriminator 1
 5798 02aa 9DF82530 		ldrb	r3, [sp, #37]	@ zero_extendqisi2
 5799 02ae 0A2B     		cmp	r3, #10
 5800 02b0 03D0     		beq	.L310
 5801              		.loc 1 2177 0 is_stmt 1
 5802 02b2 9DF82230 		ldrb	r3, [sp, #34]	@ zero_extendqisi2
 5803 02b6 012B     		cmp	r3, #1
 5804 02b8 03D1     		bne	.L311
 5805              	.L310:
 5806              		.loc 1 2179 0
 5807 02ba 019B     		ldr	r3, [sp, #4]
 5808 02bc 0322     		movs	r2, #3
 5809 02be 1A70     		strb	r2, [r3]
 5810 02c0 16E0     		b	.L304
 5811              	.L311:
 5812              		.loc 1 2180 0
 5813 02c2 9DF82530 		ldrb	r3, [sp, #37]	@ zero_extendqisi2
 5814 02c6 042B     		cmp	r3, #4
ARM GAS  C:\Users\PCHAUT~1\AppData\Local\Temp\ccgoQRgJ.s 			page 103


 5815 02c8 03D0     		beq	.L312
 5816              		.loc 1 2180 0 is_stmt 0 discriminator 1
 5817 02ca 9DF82330 		ldrb	r3, [sp, #35]	@ zero_extendqisi2
 5818 02ce 012B     		cmp	r3, #1
 5819 02d0 03D1     		bne	.L313
 5820              	.L312:
 5821              		.loc 1 2182 0 is_stmt 1
 5822 02d2 019B     		ldr	r3, [sp, #4]
 5823 02d4 0222     		movs	r2, #2
 5824 02d6 1A70     		strb	r2, [r3]
 5825 02d8 0AE0     		b	.L304
 5826              	.L313:
 5827              		.loc 1 2183 0
 5828 02da 9DF82130 		ldrb	r3, [sp, #33]	@ zero_extendqisi2
 5829 02de 012B     		cmp	r3, #1
 5830 02e0 03D1     		bne	.L314
 5831              		.loc 1 2184 0
 5832 02e2 019B     		ldr	r3, [sp, #4]
 5833 02e4 0122     		movs	r2, #1
 5834 02e6 1A70     		strb	r2, [r3]
 5835 02e8 02E0     		b	.L304
 5836              	.L314:
 5837              		.loc 1 2186 0
 5838 02ea 019B     		ldr	r3, [sp, #4]
 5839 02ec 0022     		movs	r2, #0
 5840 02ee 1A70     		strb	r2, [r3]
 5841              	.L304:
 5842              		.loc 1 2191 0
 5843 02f0 019B     		ldr	r3, [sp, #4]
 5844 02f2 1B78     		ldrb	r3, [r3]	@ zero_extendqisi2
 5845 02f4 002B     		cmp	r3, #0
 5846 02f6 02D1     		bne	.L315
 5847              		.loc 1 2192 0
 5848 02f8 029B     		ldr	r3, [sp, #8]
 5849 02fa 0022     		movs	r2, #0
 5850 02fc 5A81     		strh	r2, [r3, #10]	@ movhi
 5851              	.L315:
 5852              		.loc 1 2196 0
 5853 02fe 07AB     		add	r3, sp, #28
 5854 0300 1A46     		mov	r2, r3
 5855 0302 0121     		movs	r1, #1
 5856 0304 0598     		ldr	r0, [sp, #20]
 5857 0306 FFF7FEFF 		bl	VL53L0X_GetLimitCheckEnable
 5858 030a 0346     		mov	r3, r0
 5859 030c 8DF81F30 		strb	r3, [sp, #31]
 5860              		.loc 1 2200 0
 5861 0310 9DF91F30 		ldrsb	r3, [sp, #31]
 5862 0314 002B     		cmp	r3, #0
 5863 0316 51D1     		bne	.L316
 5864              		.loc 1 2201 0
 5865 0318 9DF81B30 		ldrb	r3, [sp, #27]	@ zero_extendqisi2
 5866 031c 002B     		cmp	r3, #0
 5867 031e 03D0     		beq	.L317
 5868              		.loc 1 2201 0 is_stmt 0 discriminator 1
 5869 0320 9DF82130 		ldrb	r3, [sp, #33]	@ zero_extendqisi2
 5870 0324 012B     		cmp	r3, #1
 5871 0326 05D1     		bne	.L318
ARM GAS  C:\Users\PCHAUT~1\AppData\Local\Temp\ccgoQRgJ.s 			page 104


 5872              	.L317:
 5873              		.loc 1 2202 0 is_stmt 1
 5874 0328 0123     		movs	r3, #1
 5875 032a 8DF82430 		strb	r3, [sp, #36]
 5876 032e 04E0     		b	.L319
 5877              	.L332:
 5878              		.align	2
 5879              	.L331:
 5880 0330 00000000 		.word	__stack_chk_guard
 5881              	.L318:
 5882              		.loc 1 2204 0
 5883 0334 0023     		movs	r3, #0
 5884 0336 8DF82430 		strb	r3, [sp, #36]
 5885              	.L319:
 5886              		.loc 1 2205 0
 5887 033a 059B     		ldr	r3, [sp, #20]
 5888 033c 9DF82420 		ldrb	r2, [sp, #36]
 5889 0340 83F82E20 		strb	r2, [r3, #46]
 5890              		.loc 1 2208 0
 5891 0344 9DF82530 		ldrb	r3, [sp, #37]	@ zero_extendqisi2
 5892 0348 042B     		cmp	r3, #4
 5893 034a 03D0     		beq	.L320
 5894              		.loc 1 2209 0 discriminator 1
 5895 034c 9DF81C30 		ldrb	r3, [sp, #28]	@ zero_extendqisi2
 5896              		.loc 1 2208 0 discriminator 1
 5897 0350 002B     		cmp	r3, #0
 5898 0352 03D1     		bne	.L321
 5899              	.L320:
 5900              		.loc 1 2210 0
 5901 0354 0123     		movs	r3, #1
 5902 0356 8DF82430 		strb	r3, [sp, #36]
 5903 035a 02E0     		b	.L322
 5904              	.L321:
 5905              		.loc 1 2212 0
 5906 035c 0023     		movs	r3, #0
 5907 035e 8DF82430 		strb	r3, [sp, #36]
 5908              	.L322:
 5909              		.loc 1 2213 0
 5910 0362 059B     		ldr	r3, [sp, #20]
 5911 0364 9DF82420 		ldrb	r2, [sp, #36]
 5912 0368 83F82F20 		strb	r2, [r3, #47]
 5913              		.loc 1 2217 0
 5914 036c 9DF81D30 		ldrb	r3, [sp, #29]	@ zero_extendqisi2
 5915 0370 002B     		cmp	r3, #0
 5916 0372 03D0     		beq	.L323
 5917              		.loc 1 2217 0 is_stmt 0 discriminator 1
 5918 0374 9DF82230 		ldrb	r3, [sp, #34]	@ zero_extendqisi2
 5919 0378 012B     		cmp	r3, #1
 5920 037a 03D1     		bne	.L324
 5921              	.L323:
 5922              		.loc 1 2219 0 is_stmt 1
 5923 037c 0123     		movs	r3, #1
 5924 037e 8DF82430 		strb	r3, [sp, #36]
 5925 0382 02E0     		b	.L325
 5926              	.L324:
 5927              		.loc 1 2221 0
 5928 0384 0023     		movs	r3, #0
ARM GAS  C:\Users\PCHAUT~1\AppData\Local\Temp\ccgoQRgJ.s 			page 105


 5929 0386 8DF82430 		strb	r3, [sp, #36]
 5930              	.L325:
 5931              		.loc 1 2223 0
 5932 038a 059B     		ldr	r3, [sp, #20]
 5933 038c 9DF82420 		ldrb	r2, [sp, #36]
 5934 0390 83F83020 		strb	r2, [r3, #48]
 5935              		.loc 1 2226 0
 5936 0394 9DF81E30 		ldrb	r3, [sp, #30]	@ zero_extendqisi2
 5937 0398 002B     		cmp	r3, #0
 5938 039a 03D0     		beq	.L326
 5939              		.loc 1 2226 0 is_stmt 0 discriminator 1
 5940 039c 9DF82330 		ldrb	r3, [sp, #35]	@ zero_extendqisi2
 5941 03a0 012B     		cmp	r3, #1
 5942 03a2 03D1     		bne	.L327
 5943              	.L326:
 5944              		.loc 1 2228 0 is_stmt 1
 5945 03a4 0123     		movs	r3, #1
 5946 03a6 8DF82430 		strb	r3, [sp, #36]
 5947 03aa 02E0     		b	.L328
 5948              	.L327:
 5949              		.loc 1 2230 0
 5950 03ac 0023     		movs	r3, #0
 5951 03ae 8DF82430 		strb	r3, [sp, #36]
 5952              	.L328:
 5953              		.loc 1 2232 0
 5954 03b2 059B     		ldr	r3, [sp, #20]
 5955 03b4 9DF82420 		ldrb	r2, [sp, #36]
 5956 03b8 83F83120 		strb	r2, [r3, #49]
 5957              	.L316:
 5958              		.loc 1 2238 0
 5959 03bc 9DF91F30 		ldrsb	r3, [sp, #31]
 5960              		.loc 1 2240 0
 5961 03c0 1846     		mov	r0, r3
 5962 03c2 054B     		ldr	r3, .L333
 5963 03c4 119A     		ldr	r2, [sp, #68]
 5964 03c6 1B68     		ldr	r3, [r3]
 5965 03c8 9A42     		cmp	r2, r3
 5966 03ca 01D0     		beq	.L330
 5967 03cc FFF7FEFF 		bl	__stack_chk_fail
 5968              	.L330:
 5969 03d0 13B0     		add	sp, sp, #76
 5970              		.cfi_def_cfa_offset 4
 5971              		@ sp needed
 5972 03d2 5DF804FB 		ldr	pc, [sp], #4
 5973              	.L334:
 5974 03d6 00BF     		.align	2
 5975              	.L333:
 5976 03d8 00000000 		.word	__stack_chk_guard
 5977              		.cfi_endproc
 5978              	.LFE27:
 5979              		.size	VL53L0X_get_pal_range_status, .-VL53L0X_get_pal_range_status
 5980              		.text
 5981              	.Letext0:
 5982              		.file 2 "c:\\users\\pchautems\\documents\\robotiquetp\\eclipse_e-puck2\\tools\\gcc-arm-none-eabi-7
 5983              		.file 3 "c:\\users\\pchautems\\documents\\robotiquetp\\eclipse_e-puck2\\tools\\gcc-arm-none-eabi-7
 5984              		.file 4 "../lib/e-puck2_main-processor/src/sensors/VL53L0X/Api/core/src/../inc/vl53l0x_types.h"
 5985              		.file 5 "../lib/e-puck2_main-processor/src/sensors/VL53L0X/Api/core/src/../inc/vl53l0x_device.h"
ARM GAS  C:\Users\PCHAUT~1\AppData\Local\Temp\ccgoQRgJ.s 			page 106


 5986              		.file 6 "../lib/e-puck2_main-processor/src/sensors/VL53L0X/Api/core/src/../inc/vl53l0x_def.h"
 5987              		.file 7 "c:\\users\\pchautems\\documents\\robotiquetp\\eclipse_e-puck2\\tools\\gcc-arm-none-eabi-7
 5988              		.file 8 "c:\\users\\pchautems\\documents\\robotiquetp\\eclipse_e-puck2\\tools\\gcc-arm-none-eabi-7
 5989              		.file 9 "c:\\users\\pchautems\\documents\\robotiquetp\\eclipse_e-puck2\\tools\\gcc-arm-none-eabi-7
 5990              		.file 10 "c:\\users\\pchautems\\documents\\robotiquetp\\eclipse_e-puck2\\tools\\gcc-arm-none-eabi-
 5991              		.file 11 "../lib/e-puck2_main-processor/src/sensors/VL53L0X/Api/core/src/../inc/../../platform/inc
 5992              		.file 12 "c:\\users\\pchautems\\documents\\robotiquetp\\eclipse_e-puck2\\tools\\gcc-arm-none-eabi-