ARM GAS  C:\Users\PCHAUT~1\AppData\Local\Temp\cct0c6Vd.s 			page 1


   1              		.cpu cortex-m4
   2              		.eabi_attribute 27, 1
   3              		.eabi_attribute 28, 1
   4              		.eabi_attribute 20, 1
   5              		.eabi_attribute 21, 1
   6              		.eabi_attribute 23, 3
   7              		.eabi_attribute 24, 1
   8              		.eabi_attribute 25, 1
   9              		.eabi_attribute 26, 1
  10              		.eabi_attribute 30, 6
  11              		.eabi_attribute 34, 1
  12              		.eabi_attribute 18, 4
  13              		.file	"vl53l0x_api_strings.c"
  14              		.text
  15              	.Ltext0:
  16              		.cfi_sections	.debug_frame
  17              		.section	.text.VL53L0X_check_part_used,"ax",%progbits
  18              		.align	1
  19              		.p2align 4,,15
  20              		.global	VL53L0X_check_part_used
  21              		.syntax unified
  22              		.thumb
  23              		.thumb_func
  24              		.fpu fpv4-sp-d16
  25              		.type	VL53L0X_check_part_used, %function
  26              	VL53L0X_check_part_used:
  27              	.LFB3:
  28              		.file 1 "../lib/e-puck2_main-processor/src/sensors/VL53L0X/Api/core/src/vl53l0x_api_strings.c"
  29              		.loc 1 48 0
  30              		.cfi_startproc
  31              		@ args = 0, pretend = 0, frame = 32
  32              		@ frame_needed = 0, uses_anonymous_args = 0
  33 0000 00B5     		push	{lr}
  34              		.cfi_def_cfa_offset 4
  35              		.cfi_offset 14, -4
  36 0002 89B0     		sub	sp, sp, #36
  37              		.cfi_def_cfa_offset 40
  38 0004 0390     		str	r0, [sp, #12]
  39 0006 0291     		str	r1, [sp, #8]
  40 0008 0192     		str	r2, [sp, #4]
  41              		.loc 1 48 0
  42 000a 1E4B     		ldr	r3, .L6
  43 000c 1B68     		ldr	r3, [r3]
  44 000e 0793     		str	r3, [sp, #28]
  45              		.loc 1 49 0
  46 0010 0023     		movs	r3, #0
  47 0012 8DF81630 		strb	r3, [sp, #22]
  48              		.loc 1 55 0
  49 0016 0221     		movs	r1, #2
  50 0018 0398     		ldr	r0, [sp, #12]
  51 001a FFF7FEFF 		bl	VL53L0X_get_info_from_device
  52 001e 0346     		mov	r3, r0
  53 0020 8DF81630 		strb	r3, [sp, #22]
  54              		.loc 1 57 0
  55 0024 9DF91630 		ldrsb	r3, [sp, #22]
  56 0028 002B     		cmp	r3, #0
  57 002a 1ED1     		bne	.L2
ARM GAS  C:\Users\PCHAUT~1\AppData\Local\Temp\cct0c6Vd.s 			page 2


  58              		.loc 1 58 0
  59 002c 039B     		ldr	r3, [sp, #12]
  60 002e 93F8F130 		ldrb	r3, [r3, #241]
  61 0032 8DF81730 		strb	r3, [sp, #23]
  62              		.loc 1 60 0
  63 0036 9DF81730 		ldrb	r3, [sp, #23]	@ zero_extendqisi2
  64 003a 002B     		cmp	r3, #0
  65 003c 07D1     		bne	.L3
  66              		.loc 1 61 0
  67 003e 029B     		ldr	r3, [sp, #8]
  68 0040 0022     		movs	r2, #0
  69 0042 1A70     		strb	r2, [r3]
  70              		.loc 1 62 0
  71 0044 019B     		ldr	r3, [sp, #4]
  72 0046 4033     		adds	r3, r3, #64
  73 0048 0022     		movs	r2, #0
  74 004a 1A70     		strb	r2, [r3]
  75 004c 0DE0     		b	.L2
  76              	.L3:
  77              		.loc 1 64 0
  78 004e 039B     		ldr	r3, [sp, #12]
  79 0050 93F8F220 		ldrb	r2, [r3, #242]	@ zero_extendqisi2
  80 0054 029B     		ldr	r3, [sp, #8]
  81 0056 1A70     		strb	r2, [r3]
  82              		.loc 1 65 0
  83 0058 039B     		ldr	r3, [sp, #12]
  84 005a F333     		adds	r3, r3, #243
  85 005c 0693     		str	r3, [sp, #24]
  86              		.loc 1 67 0
  87 005e 019B     		ldr	r3, [sp, #4]
  88 0060 4033     		adds	r3, r3, #64
  89 0062 0699     		ldr	r1, [sp, #24]
  90 0064 1846     		mov	r0, r3
  91 0066 FFF7FEFF 		bl	strcpy
  92              	.L2:
  93              		.loc 1 72 0
  94 006a 9DF91630 		ldrsb	r3, [sp, #22]
  95              		.loc 1 73 0
  96 006e 1846     		mov	r0, r3
  97 0070 044B     		ldr	r3, .L6
  98 0072 079A     		ldr	r2, [sp, #28]
  99 0074 1B68     		ldr	r3, [r3]
 100 0076 9A42     		cmp	r2, r3
 101 0078 01D0     		beq	.L5
 102 007a FFF7FEFF 		bl	__stack_chk_fail
 103              	.L5:
 104 007e 09B0     		add	sp, sp, #36
 105              		.cfi_def_cfa_offset 4
 106              		@ sp needed
 107 0080 5DF804FB 		ldr	pc, [sp], #4
 108              	.L7:
 109              		.align	2
 110              	.L6:
 111 0084 00000000 		.word	__stack_chk_guard
 112              		.cfi_endproc
 113              	.LFE3:
 114              		.size	VL53L0X_check_part_used, .-VL53L0X_check_part_used
ARM GAS  C:\Users\PCHAUT~1\AppData\Local\Temp\cct0c6Vd.s 			page 3


 115              		.section	.rodata
 116              		.align	2
 117              	.LC0:
 118 0000 564C3533 		.ascii	"VL53L0X TS0\000"
 118      4C305820 
 118      54533000 
 119              		.align	2
 120              	.LC1:
 121 000c 564C3533 		.ascii	"VL53L0X TS1\000"
 121      4C305820 
 121      54533100 
 122              		.align	2
 123              	.LC2:
 124 0018 564C3533 		.ascii	"VL53L0X TS2\000"
 124      4C305820 
 124      54533200 
 125              		.align	2
 126              	.LC3:
 127 0024 564C3533 		.ascii	"VL53L0X ES1 or later\000"
 127      4C305820 
 127      45533120 
 127      6F72206C 
 127      61746572 
 128 0039 000000   		.align	2
 129              	.LC4:
 130 003c 564C3533 		.ascii	"VL53L0X\000"
 130      4C305800 
 131              		.section	.text.VL53L0X_get_device_info,"ax",%progbits
 132              		.align	1
 133              		.p2align 4,,15
 134              		.global	VL53L0X_get_device_info
 135              		.syntax unified
 136              		.thumb
 137              		.thumb_func
 138              		.fpu fpv4-sp-d16
 139              		.type	VL53L0X_get_device_info, %function
 140              	VL53L0X_get_device_info:
 141              	.LFB4:
 142              		.loc 1 78 0
 143              		.cfi_startproc
 144              		@ args = 0, pretend = 0, frame = 16
 145              		@ frame_needed = 0, uses_anonymous_args = 0
 146 0000 30B5     		push	{r4, r5, lr}
 147              		.cfi_def_cfa_offset 12
 148              		.cfi_offset 4, -12
 149              		.cfi_offset 5, -8
 150              		.cfi_offset 14, -4
 151 0002 85B0     		sub	sp, sp, #20
 152              		.cfi_def_cfa_offset 32
 153 0004 0190     		str	r0, [sp, #4]
 154 0006 0091     		str	r1, [sp]
 155              		.loc 1 78 0
 156 0008 434B     		ldr	r3, .L18
 157 000a 1B68     		ldr	r3, [r3]
 158 000c 0393     		str	r3, [sp, #12]
 159              		.loc 1 79 0
 160 000e 0023     		movs	r3, #0
ARM GAS  C:\Users\PCHAUT~1\AppData\Local\Temp\cct0c6Vd.s 			page 4


 161 0010 8DF80B30 		strb	r3, [sp, #11]
 162              		.loc 1 83 0
 163 0014 0DF10A03 		add	r3, sp, #10
 164 0018 009A     		ldr	r2, [sp]
 165 001a 1946     		mov	r1, r3
 166 001c 0198     		ldr	r0, [sp, #4]
 167 001e FFF7FEFF 		bl	VL53L0X_check_part_used
 168 0022 0346     		mov	r3, r0
 169 0024 8DF80B30 		strb	r3, [sp, #11]
 170              		.loc 1 85 0
 171 0028 9DF90B30 		ldrsb	r3, [sp, #11]
 172 002c 002B     		cmp	r3, #0
 173 002e 3FD1     		bne	.L9
 174              		.loc 1 86 0
 175 0030 9DF80A30 		ldrb	r3, [sp, #10]	@ zero_extendqisi2
 176 0034 002B     		cmp	r3, #0
 177 0036 08D1     		bne	.L10
 178              		.loc 1 87 0
 179 0038 009B     		ldr	r3, [sp]
 180 003a 384A     		ldr	r2, .L18+4
 181 003c 1C46     		mov	r4, r3
 182 003e 1346     		mov	r3, r2
 183 0040 07CB     		ldmia	r3!, {r0, r1, r2}
 184 0042 2060     		str	r0, [r4]	@ unaligned
 185 0044 6160     		str	r1, [r4, #4]	@ unaligned
 186 0046 A260     		str	r2, [r4, #8]	@ unaligned
 187 0048 2AE0     		b	.L11
 188              	.L10:
 189              		.loc 1 89 0
 190 004a 9DF80A30 		ldrb	r3, [sp, #10]	@ zero_extendqisi2
 191 004e 222B     		cmp	r3, #34
 192 0050 0CD8     		bhi	.L12
 193              		.loc 1 89 0 is_stmt 0 discriminator 1
 194 0052 9DF80A30 		ldrb	r3, [sp, #10]	@ zero_extendqisi2
 195 0056 202B     		cmp	r3, #32
 196 0058 08D0     		beq	.L12
 197              		.loc 1 90 0 is_stmt 1
 198 005a 009B     		ldr	r3, [sp]
 199 005c 304A     		ldr	r2, .L18+8
 200 005e 1C46     		mov	r4, r3
 201 0060 1346     		mov	r3, r2
 202 0062 07CB     		ldmia	r3!, {r0, r1, r2}
 203 0064 2060     		str	r0, [r4]	@ unaligned
 204 0066 6160     		str	r1, [r4, #4]	@ unaligned
 205 0068 A260     		str	r2, [r4, #8]	@ unaligned
 206 006a 19E0     		b	.L11
 207              	.L12:
 208              		.loc 1 92 0
 209 006c 9DF80A30 		ldrb	r3, [sp, #10]	@ zero_extendqisi2
 210 0070 262B     		cmp	r3, #38
 211 0072 08D8     		bhi	.L13
 212              		.loc 1 93 0
 213 0074 009B     		ldr	r3, [sp]
 214 0076 2B4A     		ldr	r2, .L18+12
 215 0078 1C46     		mov	r4, r3
 216 007a 1346     		mov	r3, r2
 217 007c 07CB     		ldmia	r3!, {r0, r1, r2}
ARM GAS  C:\Users\PCHAUT~1\AppData\Local\Temp\cct0c6Vd.s 			page 5


 218 007e 2060     		str	r0, [r4]	@ unaligned
 219 0080 6160     		str	r1, [r4, #4]	@ unaligned
 220 0082 A260     		str	r2, [r4, #8]	@ unaligned
 221 0084 0CE0     		b	.L11
 222              	.L13:
 223              		.loc 1 96 0
 224 0086 009B     		ldr	r3, [sp]
 225 0088 274A     		ldr	r2, .L18+16
 226 008a 1D46     		mov	r5, r3
 227 008c 1446     		mov	r4, r2
 228 008e 0FCC     		ldmia	r4!, {r0, r1, r2, r3}
 229 0090 2860     		str	r0, [r5]	@ unaligned
 230 0092 6960     		str	r1, [r5, #4]	@ unaligned
 231 0094 AA60     		str	r2, [r5, #8]	@ unaligned
 232 0096 EB60     		str	r3, [r5, #12]	@ unaligned
 233 0098 2068     		ldr	r0, [r4]
 234 009a 2861     		str	r0, [r5, #16]	@ unaligned
 235 009c 2379     		ldrb	r3, [r4, #4]
 236 009e 2B75     		strb	r3, [r5, #20]
 237              	.L11:
 238              		.loc 1 100 0
 239 00a0 009B     		ldr	r3, [sp]
 240 00a2 2033     		adds	r3, r3, #32
 241 00a4 2149     		ldr	r1, .L18+20
 242 00a6 1A46     		mov	r2, r3
 243 00a8 0B46     		mov	r3, r1
 244 00aa 03CB     		ldmia	r3!, {r0, r1}
 245 00ac 1060     		str	r0, [r2]	@ unaligned
 246 00ae 5160     		str	r1, [r2, #4]	@ unaligned
 247              	.L9:
 248              		.loc 1 105 0
 249 00b0 9DF90B30 		ldrsb	r3, [sp, #11]
 250 00b4 002B     		cmp	r3, #0
 251 00b6 09D1     		bne	.L14
 252              		.loc 1 106 0
 253 00b8 009B     		ldr	r3, [sp]
 254 00ba 6033     		adds	r3, r3, #96
 255 00bc 1A46     		mov	r2, r3
 256 00be C021     		movs	r1, #192
 257 00c0 0198     		ldr	r0, [sp, #4]
 258 00c2 FFF7FEFF 		bl	VL53L0X_RdByte
 259 00c6 0346     		mov	r3, r0
 260 00c8 8DF80B30 		strb	r3, [sp, #11]
 261              	.L14:
 262              		.loc 1 110 0
 263 00cc 9DF90B30 		ldrsb	r3, [sp, #11]
 264 00d0 002B     		cmp	r3, #0
 265 00d2 14D1     		bne	.L15
 266              		.loc 1 111 0
 267 00d4 0DF10903 		add	r3, sp, #9
 268 00d8 1A46     		mov	r2, r3
 269 00da C221     		movs	r1, #194
 270 00dc 0198     		ldr	r0, [sp, #4]
 271 00de FFF7FEFF 		bl	VL53L0X_RdByte
 272 00e2 0346     		mov	r3, r0
 273 00e4 8DF80B30 		strb	r3, [sp, #11]
 274              		.loc 1 114 0
ARM GAS  C:\Users\PCHAUT~1\AppData\Local\Temp\cct0c6Vd.s 			page 6


 275 00e8 009B     		ldr	r3, [sp]
 276 00ea 0122     		movs	r2, #1
 277 00ec 83F86120 		strb	r2, [r3, #97]
 278              		.loc 1 116 0
 279 00f0 9DF80930 		ldrb	r3, [sp, #9]	@ zero_extendqisi2
 280 00f4 1B09     		lsrs	r3, r3, #4
 281 00f6 DAB2     		uxtb	r2, r3
 282              		.loc 1 115 0
 283 00f8 009B     		ldr	r3, [sp]
 284 00fa 83F86220 		strb	r2, [r3, #98]
 285              	.L15:
 286              		.loc 1 119 0
 287 00fe 9DF90B30 		ldrsb	r3, [sp, #11]
 288              		.loc 1 120 0
 289 0102 1846     		mov	r0, r3
 290 0104 044B     		ldr	r3, .L18
 291 0106 039A     		ldr	r2, [sp, #12]
 292 0108 1B68     		ldr	r3, [r3]
 293 010a 9A42     		cmp	r2, r3
 294 010c 01D0     		beq	.L17
 295 010e FFF7FEFF 		bl	__stack_chk_fail
 296              	.L17:
 297 0112 05B0     		add	sp, sp, #20
 298              		.cfi_def_cfa_offset 12
 299              		@ sp needed
 300 0114 30BD     		pop	{r4, r5, pc}
 301              	.L19:
 302 0116 00BF     		.align	2
 303              	.L18:
 304 0118 00000000 		.word	__stack_chk_guard
 305 011c 00000000 		.word	.LC0
 306 0120 0C000000 		.word	.LC1
 307 0124 18000000 		.word	.LC2
 308 0128 24000000 		.word	.LC3
 309 012c 3C000000 		.word	.LC4
 310              		.cfi_endproc
 311              	.LFE4:
 312              		.size	VL53L0X_get_device_info, .-VL53L0X_get_device_info
 313              		.section	.rodata
 314              		.align	2
 315              	.LC5:
 316 0044 4E6F2055 		.ascii	"No Update\000"
 316      70646174 
 316      6500
 317 004e 0000     		.align	2
 318              	.LC6:
 319 0050 56435345 		.ascii	"VCSEL Continuity Test Failure\000"
 319      4C20436F 
 319      6E74696E 
 319      75697479 
 319      20546573 
 320 006e 0000     		.align	2
 321              	.LC7:
 322 0070 56435345 		.ascii	"VCSEL Watchdog Test Failure\000"
 322      4C205761 
 322      74636864 
 322      6F672054 
ARM GAS  C:\Users\PCHAUT~1\AppData\Local\Temp\cct0c6Vd.s 			page 7


 322      65737420 
 323              		.align	2
 324              	.LC8:
 325 008c 4E6F2056 		.ascii	"No VHV Value found\000"
 325      48562056 
 325      616C7565 
 325      20666F75 
 325      6E6400
 326 009f 00       		.align	2
 327              	.LC9:
 328 00a0 4D535243 		.ascii	"MSRC No Target Error\000"
 328      204E6F20 
 328      54617267 
 328      65742045 
 328      72726F72 
 329 00b5 000000   		.align	2
 330              	.LC10:
 331 00b8 534E5220 		.ascii	"SNR Check Exit\000"
 331      43686563 
 331      6B204578 
 331      697400
 332 00c7 00       		.align	2
 333              	.LC11:
 334 00c8 52616E67 		.ascii	"Range Phase Check Error\000"
 334      65205068 
 334      61736520 
 334      43686563 
 334      6B204572 
 335              		.align	2
 336              	.LC12:
 337 00e0 5369676D 		.ascii	"Sigma Threshold Check Error\000"
 337      61205468 
 337      72657368 
 337      6F6C6420 
 337      43686563 
 338              		.align	2
 339              	.LC13:
 340 00fc 54434320 		.ascii	"TCC Error\000"
 340      4572726F 
 340      7200
 341 0106 0000     		.align	2
 342              	.LC14:
 343 0108 50686173 		.ascii	"Phase Consistency Error\000"
 343      6520436F 
 343      6E736973 
 343      74656E63 
 343      79204572 
 344              		.align	2
 345              	.LC15:
 346 0120 4D696E20 		.ascii	"Min Clip Error\000"
 346      436C6970 
 346      20457272 
 346      6F7200
 347 012f 00       		.align	2
 348              	.LC16:
 349 0130 52616E67 		.ascii	"Range Complete\000"
 349      6520436F 
ARM GAS  C:\Users\PCHAUT~1\AppData\Local\Temp\cct0c6Vd.s 			page 8


 349      6D706C65 
 349      746500
 350 013f 00       		.align	2
 351              	.LC17:
 352 0140 52616E67 		.ascii	"Range Algo Underflow Error\000"
 352      6520416C 
 352      676F2055 
 352      6E646572 
 352      666C6F77 
 353 015b 00       		.align	2
 354              	.LC18:
 355 015c 52616E67 		.ascii	"Range Algo Overlow Error\000"
 355      6520416C 
 355      676F204F 
 355      7665726C 
 355      6F772045 
 356 0175 000000   		.align	2
 357              	.LC19:
 358 0178 52616E67 		.ascii	"Range Ignore Threshold Error\000"
 358      65204967 
 358      6E6F7265 
 358      20546872 
 358      6573686F 
 359 0195 000000   		.align	2
 360              	.LC20:
 361 0198 556E6B6E 		.ascii	"Unknown Error Code\000"
 361      6F776E20 
 361      4572726F 
 361      7220436F 
 361      646500
 362              		.section	.text.VL53L0X_get_device_error_string,"ax",%progbits
 363              		.align	1
 364              		.p2align 4,,15
 365              		.global	VL53L0X_get_device_error_string
 366              		.syntax unified
 367              		.thumb
 368              		.thumb_func
 369              		.fpu fpv4-sp-d16
 370              		.type	VL53L0X_get_device_error_string, %function
 371              	VL53L0X_get_device_error_string:
 372              	.LFB5:
 373              		.loc 1 125 0
 374              		.cfi_startproc
 375              		@ args = 0, pretend = 0, frame = 16
 376              		@ frame_needed = 0, uses_anonymous_args = 0
 377 0000 30B5     		push	{r4, r5, lr}
 378              		.cfi_def_cfa_offset 12
 379              		.cfi_offset 4, -12
 380              		.cfi_offset 5, -8
 381              		.cfi_offset 14, -4
 382 0002 85B0     		sub	sp, sp, #20
 383              		.cfi_def_cfa_offset 32
 384 0004 0346     		mov	r3, r0
 385 0006 0091     		str	r1, [sp]
 386 0008 8DF80730 		strb	r3, [sp, #7]
 387              		.loc 1 125 0
 388 000c 8A4B     		ldr	r3, .L41
ARM GAS  C:\Users\PCHAUT~1\AppData\Local\Temp\cct0c6Vd.s 			page 9


 389 000e 1B68     		ldr	r3, [r3]
 390 0010 0393     		str	r3, [sp, #12]
 391              		.loc 1 126 0
 392 0012 0023     		movs	r3, #0
 393 0014 8DF80B30 		strb	r3, [sp, #11]
 394              		.loc 1 130 0
 395 0018 9DF80730 		ldrb	r3, [sp, #7]	@ zero_extendqisi2
 396 001c 0E2B     		cmp	r3, #14
 397 001e 00F2F080 		bhi	.L21
 398 0022 01A2     		adr	r2, .L23
 399 0024 52F823F0 		ldr	pc, [r2, r3, lsl #2]
 400              		.p2align 2
 401              	.L23:
 402 0028 65000000 		.word	.L22+1
 403 002c 79000000 		.word	.L24+1
 404 0030 99000000 		.word	.L25+1
 405 0034 B5000000 		.word	.L26+1
 406 0038 D3000000 		.word	.L27+1
 407 003c EF000000 		.word	.L28+1
 408 0040 09010000 		.word	.L29+1
 409 0044 23010000 		.word	.L30+1
 410 0048 3F010000 		.word	.L31+1
 411 004c 53010000 		.word	.L32+1
 412 0050 6D010000 		.word	.L33+1
 413 0054 87010000 		.word	.L34+1
 414 0058 A1010000 		.word	.L35+1
 415 005c C5010000 		.word	.L36+1
 416 0060 E3010000 		.word	.L37+1
 417              		.p2align 1
 418              	.L22:
 419              		.loc 1 132 0
 420 0064 009B     		ldr	r3, [sp]
 421 0066 7549     		ldr	r1, .L41+4
 422 0068 1A46     		mov	r2, r3
 423 006a 0B46     		mov	r3, r1
 424 006c 03CB     		ldmia	r3!, {r0, r1}
 425 006e 1060     		str	r0, [r2]	@ unaligned
 426 0070 5160     		str	r1, [r2, #4]	@ unaligned
 427 0072 1B88     		ldrh	r3, [r3]	@ unaligned
 428 0074 1381     		strh	r3, [r2, #8]	@ unaligned
 429              		.loc 1 134 0
 430 0076 D2E0     		b	.L38
 431              	.L24:
 432              		.loc 1 136 0
 433 0078 009B     		ldr	r3, [sp]
 434 007a 714A     		ldr	r2, .L41+8
 435 007c 1D46     		mov	r5, r3
 436 007e 1446     		mov	r4, r2
 437 0080 0FCC     		ldmia	r4!, {r0, r1, r2, r3}
 438 0082 2860     		str	r0, [r5]	@ unaligned
 439 0084 6960     		str	r1, [r5, #4]	@ unaligned
 440 0086 AA60     		str	r2, [r5, #8]	@ unaligned
 441 0088 EB60     		str	r3, [r5, #12]	@ unaligned
 442 008a 07CC     		ldmia	r4!, {r0, r1, r2}
 443 008c 2861     		str	r0, [r5, #16]	@ unaligned
 444 008e 6961     		str	r1, [r5, #20]	@ unaligned
 445 0090 AA61     		str	r2, [r5, #24]	@ unaligned
ARM GAS  C:\Users\PCHAUT~1\AppData\Local\Temp\cct0c6Vd.s 			page 10


 446 0092 2388     		ldrh	r3, [r4]	@ unaligned
 447 0094 AB83     		strh	r3, [r5, #28]	@ unaligned
 448              		.loc 1 138 0
 449 0096 C2E0     		b	.L38
 450              	.L25:
 451              		.loc 1 140 0
 452 0098 009B     		ldr	r3, [sp]
 453 009a 6A4A     		ldr	r2, .L41+12
 454 009c 1D46     		mov	r5, r3
 455 009e 1446     		mov	r4, r2
 456 00a0 0FCC     		ldmia	r4!, {r0, r1, r2, r3}
 457 00a2 2860     		str	r0, [r5]	@ unaligned
 458 00a4 6960     		str	r1, [r5, #4]	@ unaligned
 459 00a6 AA60     		str	r2, [r5, #8]	@ unaligned
 460 00a8 EB60     		str	r3, [r5, #12]	@ unaligned
 461 00aa 07CC     		ldmia	r4!, {r0, r1, r2}
 462 00ac 2861     		str	r0, [r5, #16]	@ unaligned
 463 00ae 6961     		str	r1, [r5, #20]	@ unaligned
 464 00b0 AA61     		str	r2, [r5, #24]	@ unaligned
 465              		.loc 1 142 0
 466 00b2 B4E0     		b	.L38
 467              	.L26:
 468              		.loc 1 144 0
 469 00b4 009B     		ldr	r3, [sp]
 470 00b6 644A     		ldr	r2, .L41+16
 471 00b8 1D46     		mov	r5, r3
 472 00ba 1446     		mov	r4, r2
 473 00bc 0FCC     		ldmia	r4!, {r0, r1, r2, r3}
 474 00be 2860     		str	r0, [r5]	@ unaligned
 475 00c0 6960     		str	r1, [r5, #4]	@ unaligned
 476 00c2 AA60     		str	r2, [r5, #8]	@ unaligned
 477 00c4 EB60     		str	r3, [r5, #12]	@ unaligned
 478 00c6 2388     		ldrh	r3, [r4]	@ unaligned
 479 00c8 A278     		ldrb	r2, [r4, #2]
 480 00ca 2B82     		strh	r3, [r5, #16]	@ unaligned
 481 00cc 1346     		mov	r3, r2
 482 00ce AB74     		strb	r3, [r5, #18]
 483              		.loc 1 146 0
 484 00d0 A5E0     		b	.L38
 485              	.L27:
 486              		.loc 1 148 0
 487 00d2 009B     		ldr	r3, [sp]
 488 00d4 5D4A     		ldr	r2, .L41+20
 489 00d6 1D46     		mov	r5, r3
 490 00d8 1446     		mov	r4, r2
 491 00da 0FCC     		ldmia	r4!, {r0, r1, r2, r3}
 492 00dc 2860     		str	r0, [r5]	@ unaligned
 493 00de 6960     		str	r1, [r5, #4]	@ unaligned
 494 00e0 AA60     		str	r2, [r5, #8]	@ unaligned
 495 00e2 EB60     		str	r3, [r5, #12]	@ unaligned
 496 00e4 2068     		ldr	r0, [r4]
 497 00e6 2861     		str	r0, [r5, #16]	@ unaligned
 498 00e8 2379     		ldrb	r3, [r4, #4]
 499 00ea 2B75     		strb	r3, [r5, #20]
 500              		.loc 1 150 0
 501 00ec 97E0     		b	.L38
 502              	.L28:
ARM GAS  C:\Users\PCHAUT~1\AppData\Local\Temp\cct0c6Vd.s 			page 11


 503              		.loc 1 152 0
 504 00ee 009B     		ldr	r3, [sp]
 505 00f0 574A     		ldr	r2, .L41+24
 506 00f2 1C46     		mov	r4, r3
 507 00f4 1346     		mov	r3, r2
 508 00f6 07CB     		ldmia	r3!, {r0, r1, r2}
 509 00f8 2060     		str	r0, [r4]	@ unaligned
 510 00fa 6160     		str	r1, [r4, #4]	@ unaligned
 511 00fc A260     		str	r2, [r4, #8]	@ unaligned
 512 00fe 1A88     		ldrh	r2, [r3]	@ unaligned
 513 0100 9B78     		ldrb	r3, [r3, #2]
 514 0102 A281     		strh	r2, [r4, #12]	@ unaligned
 515 0104 A373     		strb	r3, [r4, #14]
 516              		.loc 1 154 0
 517 0106 8AE0     		b	.L38
 518              	.L29:
 519              		.loc 1 156 0
 520 0108 009B     		ldr	r3, [sp]
 521 010a 524A     		ldr	r2, .L41+28
 522 010c 1D46     		mov	r5, r3
 523 010e 1446     		mov	r4, r2
 524 0110 0FCC     		ldmia	r4!, {r0, r1, r2, r3}
 525 0112 2860     		str	r0, [r5]	@ unaligned
 526 0114 6960     		str	r1, [r5, #4]	@ unaligned
 527 0116 AA60     		str	r2, [r5, #8]	@ unaligned
 528 0118 EB60     		str	r3, [r5, #12]	@ unaligned
 529 011a 03CC     		ldmia	r4!, {r0, r1}
 530 011c 2861     		str	r0, [r5, #16]	@ unaligned
 531 011e 6961     		str	r1, [r5, #20]	@ unaligned
 532              		.loc 1 158 0
 533 0120 7DE0     		b	.L38
 534              	.L30:
 535              		.loc 1 160 0
 536 0122 009B     		ldr	r3, [sp]
 537 0124 4C4A     		ldr	r2, .L41+32
 538 0126 1D46     		mov	r5, r3
 539 0128 1446     		mov	r4, r2
 540 012a 0FCC     		ldmia	r4!, {r0, r1, r2, r3}
 541 012c 2860     		str	r0, [r5]	@ unaligned
 542 012e 6960     		str	r1, [r5, #4]	@ unaligned
 543 0130 AA60     		str	r2, [r5, #8]	@ unaligned
 544 0132 EB60     		str	r3, [r5, #12]	@ unaligned
 545 0134 07CC     		ldmia	r4!, {r0, r1, r2}
 546 0136 2861     		str	r0, [r5, #16]	@ unaligned
 547 0138 6961     		str	r1, [r5, #20]	@ unaligned
 548 013a AA61     		str	r2, [r5, #24]	@ unaligned
 549              		.loc 1 162 0
 550 013c 6FE0     		b	.L38
 551              	.L31:
 552              		.loc 1 164 0
 553 013e 009B     		ldr	r3, [sp]
 554 0140 4649     		ldr	r1, .L41+36
 555 0142 1A46     		mov	r2, r3
 556 0144 0B46     		mov	r3, r1
 557 0146 03CB     		ldmia	r3!, {r0, r1}
 558 0148 1060     		str	r0, [r2]	@ unaligned
 559 014a 5160     		str	r1, [r2, #4]	@ unaligned
ARM GAS  C:\Users\PCHAUT~1\AppData\Local\Temp\cct0c6Vd.s 			page 12


 560 014c 1B88     		ldrh	r3, [r3]	@ unaligned
 561 014e 1381     		strh	r3, [r2, #8]	@ unaligned
 562              		.loc 1 166 0
 563 0150 65E0     		b	.L38
 564              	.L32:
 565              		.loc 1 168 0
 566 0152 009B     		ldr	r3, [sp]
 567 0154 424A     		ldr	r2, .L41+40
 568 0156 1D46     		mov	r5, r3
 569 0158 1446     		mov	r4, r2
 570 015a 0FCC     		ldmia	r4!, {r0, r1, r2, r3}
 571 015c 2860     		str	r0, [r5]	@ unaligned
 572 015e 6960     		str	r1, [r5, #4]	@ unaligned
 573 0160 AA60     		str	r2, [r5, #8]	@ unaligned
 574 0162 EB60     		str	r3, [r5, #12]	@ unaligned
 575 0164 03CC     		ldmia	r4!, {r0, r1}
 576 0166 2861     		str	r0, [r5, #16]	@ unaligned
 577 0168 6961     		str	r1, [r5, #20]	@ unaligned
 578              		.loc 1 170 0
 579 016a 58E0     		b	.L38
 580              	.L33:
 581              		.loc 1 172 0
 582 016c 009B     		ldr	r3, [sp]
 583 016e 3D4A     		ldr	r2, .L41+44
 584 0170 1C46     		mov	r4, r3
 585 0172 1346     		mov	r3, r2
 586 0174 07CB     		ldmia	r3!, {r0, r1, r2}
 587 0176 2060     		str	r0, [r4]	@ unaligned
 588 0178 6160     		str	r1, [r4, #4]	@ unaligned
 589 017a A260     		str	r2, [r4, #8]	@ unaligned
 590 017c 1A88     		ldrh	r2, [r3]	@ unaligned
 591 017e 9B78     		ldrb	r3, [r3, #2]
 592 0180 A281     		strh	r2, [r4, #12]	@ unaligned
 593 0182 A373     		strb	r3, [r4, #14]
 594              		.loc 1 174 0
 595 0184 4BE0     		b	.L38
 596              	.L34:
 597              		.loc 1 176 0
 598 0186 009B     		ldr	r3, [sp]
 599 0188 374A     		ldr	r2, .L41+48
 600 018a 1C46     		mov	r4, r3
 601 018c 1346     		mov	r3, r2
 602 018e 07CB     		ldmia	r3!, {r0, r1, r2}
 603 0190 2060     		str	r0, [r4]	@ unaligned
 604 0192 6160     		str	r1, [r4, #4]	@ unaligned
 605 0194 A260     		str	r2, [r4, #8]	@ unaligned
 606 0196 1A88     		ldrh	r2, [r3]	@ unaligned
 607 0198 9B78     		ldrb	r3, [r3, #2]
 608 019a A281     		strh	r2, [r4, #12]	@ unaligned
 609 019c A373     		strb	r3, [r4, #14]
 610              		.loc 1 178 0
 611 019e 3EE0     		b	.L38
 612              	.L35:
 613              		.loc 1 180 0
 614 01a0 009B     		ldr	r3, [sp]
 615 01a2 324A     		ldr	r2, .L41+52
 616 01a4 1D46     		mov	r5, r3
ARM GAS  C:\Users\PCHAUT~1\AppData\Local\Temp\cct0c6Vd.s 			page 13


 617 01a6 1446     		mov	r4, r2
 618 01a8 0FCC     		ldmia	r4!, {r0, r1, r2, r3}
 619 01aa 2860     		str	r0, [r5]	@ unaligned
 620 01ac 6960     		str	r1, [r5, #4]	@ unaligned
 621 01ae AA60     		str	r2, [r5, #8]	@ unaligned
 622 01b0 EB60     		str	r3, [r5, #12]	@ unaligned
 623 01b2 03CC     		ldmia	r4!, {r0, r1}
 624 01b4 2861     		str	r0, [r5, #16]	@ unaligned
 625 01b6 6961     		str	r1, [r5, #20]	@ unaligned
 626 01b8 2388     		ldrh	r3, [r4]	@ unaligned
 627 01ba A278     		ldrb	r2, [r4, #2]
 628 01bc 2B83     		strh	r3, [r5, #24]	@ unaligned
 629 01be 1346     		mov	r3, r2
 630 01c0 AB76     		strb	r3, [r5, #26]
 631              		.loc 1 182 0
 632 01c2 2CE0     		b	.L38
 633              	.L36:
 634              		.loc 1 184 0
 635 01c4 009B     		ldr	r3, [sp]
 636 01c6 2A4A     		ldr	r2, .L41+56
 637 01c8 1D46     		mov	r5, r3
 638 01ca 1446     		mov	r4, r2
 639 01cc 0FCC     		ldmia	r4!, {r0, r1, r2, r3}
 640 01ce 2860     		str	r0, [r5]	@ unaligned
 641 01d0 6960     		str	r1, [r5, #4]	@ unaligned
 642 01d2 AA60     		str	r2, [r5, #8]	@ unaligned
 643 01d4 EB60     		str	r3, [r5, #12]	@ unaligned
 644 01d6 03CC     		ldmia	r4!, {r0, r1}
 645 01d8 2861     		str	r0, [r5, #16]	@ unaligned
 646 01da 6961     		str	r1, [r5, #20]	@ unaligned
 647 01dc 2378     		ldrb	r3, [r4]
 648 01de 2B76     		strb	r3, [r5, #24]
 649              		.loc 1 186 0
 650 01e0 1DE0     		b	.L38
 651              	.L37:
 652              		.loc 1 188 0
 653 01e2 009B     		ldr	r3, [sp]
 654 01e4 234A     		ldr	r2, .L41+60
 655 01e6 1D46     		mov	r5, r3
 656 01e8 1446     		mov	r4, r2
 657 01ea 0FCC     		ldmia	r4!, {r0, r1, r2, r3}
 658 01ec 2860     		str	r0, [r5]	@ unaligned
 659 01ee 6960     		str	r1, [r5, #4]	@ unaligned
 660 01f0 AA60     		str	r2, [r5, #8]	@ unaligned
 661 01f2 EB60     		str	r3, [r5, #12]	@ unaligned
 662 01f4 07CC     		ldmia	r4!, {r0, r1, r2}
 663 01f6 2861     		str	r0, [r5, #16]	@ unaligned
 664 01f8 6961     		str	r1, [r5, #20]	@ unaligned
 665 01fa AA61     		str	r2, [r5, #24]	@ unaligned
 666 01fc 2378     		ldrb	r3, [r4]
 667 01fe 2B77     		strb	r3, [r5, #28]
 668              		.loc 1 190 0
 669 0200 0DE0     		b	.L38
 670              	.L21:
 671              		.loc 1 193 0
 672 0202 009B     		ldr	r3, [sp]
 673 0204 1C4A     		ldr	r2, .L41+64
ARM GAS  C:\Users\PCHAUT~1\AppData\Local\Temp\cct0c6Vd.s 			page 14


 674 0206 1D46     		mov	r5, r3
 675 0208 1446     		mov	r4, r2
 676 020a 0FCC     		ldmia	r4!, {r0, r1, r2, r3}
 677 020c 2860     		str	r0, [r5]	@ unaligned
 678 020e 6960     		str	r1, [r5, #4]	@ unaligned
 679 0210 AA60     		str	r2, [r5, #8]	@ unaligned
 680 0212 EB60     		str	r3, [r5, #12]	@ unaligned
 681 0214 2388     		ldrh	r3, [r4]	@ unaligned
 682 0216 A278     		ldrb	r2, [r4, #2]
 683 0218 2B82     		strh	r3, [r5, #16]	@ unaligned
 684 021a 1346     		mov	r3, r2
 685 021c AB74     		strb	r3, [r5, #18]
 686              	.L38:
 687              		.loc 1 199 0
 688 021e 9DF90B30 		ldrsb	r3, [sp, #11]
 689              		.loc 1 200 0
 690 0222 1846     		mov	r0, r3
 691 0224 044B     		ldr	r3, .L41
 692 0226 039A     		ldr	r2, [sp, #12]
 693 0228 1B68     		ldr	r3, [r3]
 694 022a 9A42     		cmp	r2, r3
 695 022c 01D0     		beq	.L40
 696 022e FFF7FEFF 		bl	__stack_chk_fail
 697              	.L40:
 698 0232 05B0     		add	sp, sp, #20
 699              		.cfi_def_cfa_offset 12
 700              		@ sp needed
 701 0234 30BD     		pop	{r4, r5, pc}
 702              	.L42:
 703 0236 00BF     		.align	2
 704              	.L41:
 705 0238 00000000 		.word	__stack_chk_guard
 706 023c 44000000 		.word	.LC5
 707 0240 50000000 		.word	.LC6
 708 0244 70000000 		.word	.LC7
 709 0248 8C000000 		.word	.LC8
 710 024c A0000000 		.word	.LC9
 711 0250 B8000000 		.word	.LC10
 712 0254 C8000000 		.word	.LC11
 713 0258 E0000000 		.word	.LC12
 714 025c FC000000 		.word	.LC13
 715 0260 08010000 		.word	.LC14
 716 0264 20010000 		.word	.LC15
 717 0268 30010000 		.word	.LC16
 718 026c 40010000 		.word	.LC17
 719 0270 5C010000 		.word	.LC18
 720 0274 78010000 		.word	.LC19
 721 0278 98010000 		.word	.LC20
 722              		.cfi_endproc
 723              	.LFE5:
 724              		.size	VL53L0X_get_device_error_string, .-VL53L0X_get_device_error_string
 725              		.section	.rodata
 726 01ab 00       		.align	2
 727              	.LC21:
 728 01ac 52616E67 		.ascii	"Range Valid\000"
 728      65205661 
 728      6C696400 
ARM GAS  C:\Users\PCHAUT~1\AppData\Local\Temp\cct0c6Vd.s 			page 15


 729              		.align	2
 730              	.LC22:
 731 01b8 5369676D 		.ascii	"Sigma Fail\000"
 731      61204661 
 731      696C00
 732 01c3 00       		.align	2
 733              	.LC23:
 734 01c4 5369676E 		.ascii	"Signal Fail\000"
 734      616C2046 
 734      61696C00 
 735              		.align	2
 736              	.LC24:
 737 01d0 4D696E20 		.ascii	"Min Range Fail\000"
 737      52616E67 
 737      65204661 
 737      696C00
 738 01df 00       		.align	2
 739              	.LC25:
 740 01e0 50686173 		.ascii	"Phase Fail\000"
 740      65204661 
 740      696C00
 741 01eb 00       		.align	2
 742              	.LC26:
 743 01ec 48617264 		.ascii	"Hardware Fail\000"
 743      77617265 
 743      20466169 
 743      6C00
 744              		.section	.text.VL53L0X_get_range_status_string,"ax",%progbits
 745              		.align	1
 746              		.p2align 4,,15
 747              		.global	VL53L0X_get_range_status_string
 748              		.syntax unified
 749              		.thumb
 750              		.thumb_func
 751              		.fpu fpv4-sp-d16
 752              		.type	VL53L0X_get_range_status_string, %function
 753              	VL53L0X_get_range_status_string:
 754              	.LFB6:
 755              		.loc 1 204 0
 756              		.cfi_startproc
 757              		@ args = 0, pretend = 0, frame = 16
 758              		@ frame_needed = 0, uses_anonymous_args = 0
 759 0000 10B5     		push	{r4, lr}
 760              		.cfi_def_cfa_offset 8
 761              		.cfi_offset 4, -8
 762              		.cfi_offset 14, -4
 763 0002 84B0     		sub	sp, sp, #16
 764              		.cfi_def_cfa_offset 24
 765 0004 0346     		mov	r3, r0
 766 0006 0091     		str	r1, [sp]
 767 0008 8DF80730 		strb	r3, [sp, #7]
 768              		.loc 1 204 0
 769 000c 384B     		ldr	r3, .L55
 770 000e 1B68     		ldr	r3, [r3]
 771 0010 0393     		str	r3, [sp, #12]
 772              		.loc 1 205 0
 773 0012 0023     		movs	r3, #0
ARM GAS  C:\Users\PCHAUT~1\AppData\Local\Temp\cct0c6Vd.s 			page 16


 774 0014 8DF80B30 		strb	r3, [sp, #11]
 775              		.loc 1 209 0
 776 0018 9DF80730 		ldrb	r3, [sp, #7]	@ zero_extendqisi2
 777 001c 052B     		cmp	r3, #5
 778 001e 51D8     		bhi	.L44
 779 0020 01A2     		adr	r2, .L46
 780 0022 52F823F0 		ldr	pc, [r2, r3, lsl #2]
 781 0026 00BF     		.p2align 2
 782              	.L46:
 783 0028 41000000 		.word	.L45+1
 784 002c 53000000 		.word	.L47+1
 785 0030 6B000000 		.word	.L48+1
 786 0034 7D000000 		.word	.L49+1
 787 0038 97000000 		.word	.L50+1
 788 003c AF000000 		.word	.L51+1
 789              		.p2align 1
 790              	.L45:
 791              		.loc 1 211 0
 792 0040 009B     		ldr	r3, [sp]
 793 0042 2C4A     		ldr	r2, .L55+4
 794 0044 1C46     		mov	r4, r3
 795 0046 1346     		mov	r3, r2
 796 0048 07CB     		ldmia	r3!, {r0, r1, r2}
 797 004a 2060     		str	r0, [r4]	@ unaligned
 798 004c 6160     		str	r1, [r4, #4]	@ unaligned
 799 004e A260     		str	r2, [r4, #8]	@ unaligned
 800              		.loc 1 213 0
 801 0050 41E0     		b	.L52
 802              	.L47:
 803              		.loc 1 215 0
 804 0052 009B     		ldr	r3, [sp]
 805 0054 2849     		ldr	r1, .L55+8
 806 0056 1A46     		mov	r2, r3
 807 0058 0B46     		mov	r3, r1
 808 005a 03CB     		ldmia	r3!, {r0, r1}
 809 005c 1060     		str	r0, [r2]	@ unaligned
 810 005e 5160     		str	r1, [r2, #4]	@ unaligned
 811 0060 1988     		ldrh	r1, [r3]	@ unaligned
 812 0062 9B78     		ldrb	r3, [r3, #2]
 813 0064 1181     		strh	r1, [r2, #8]	@ unaligned
 814 0066 9372     		strb	r3, [r2, #10]
 815              		.loc 1 217 0
 816 0068 35E0     		b	.L52
 817              	.L48:
 818              		.loc 1 219 0
 819 006a 009B     		ldr	r3, [sp]
 820 006c 234A     		ldr	r2, .L55+12
 821 006e 1C46     		mov	r4, r3
 822 0070 1346     		mov	r3, r2
 823 0072 07CB     		ldmia	r3!, {r0, r1, r2}
 824 0074 2060     		str	r0, [r4]	@ unaligned
 825 0076 6160     		str	r1, [r4, #4]	@ unaligned
 826 0078 A260     		str	r2, [r4, #8]	@ unaligned
 827              		.loc 1 221 0
 828 007a 2CE0     		b	.L52
 829              	.L49:
 830              		.loc 1 223 0
ARM GAS  C:\Users\PCHAUT~1\AppData\Local\Temp\cct0c6Vd.s 			page 17


 831 007c 009B     		ldr	r3, [sp]
 832 007e 204A     		ldr	r2, .L55+16
 833 0080 1C46     		mov	r4, r3
 834 0082 1346     		mov	r3, r2
 835 0084 07CB     		ldmia	r3!, {r0, r1, r2}
 836 0086 2060     		str	r0, [r4]	@ unaligned
 837 0088 6160     		str	r1, [r4, #4]	@ unaligned
 838 008a A260     		str	r2, [r4, #8]	@ unaligned
 839 008c 1A88     		ldrh	r2, [r3]	@ unaligned
 840 008e 9B78     		ldrb	r3, [r3, #2]
 841 0090 A281     		strh	r2, [r4, #12]	@ unaligned
 842 0092 A373     		strb	r3, [r4, #14]
 843              		.loc 1 225 0
 844 0094 1FE0     		b	.L52
 845              	.L50:
 846              		.loc 1 227 0
 847 0096 009B     		ldr	r3, [sp]
 848 0098 1A49     		ldr	r1, .L55+20
 849 009a 1A46     		mov	r2, r3
 850 009c 0B46     		mov	r3, r1
 851 009e 03CB     		ldmia	r3!, {r0, r1}
 852 00a0 1060     		str	r0, [r2]	@ unaligned
 853 00a2 5160     		str	r1, [r2, #4]	@ unaligned
 854 00a4 1988     		ldrh	r1, [r3]	@ unaligned
 855 00a6 9B78     		ldrb	r3, [r3, #2]
 856 00a8 1181     		strh	r1, [r2, #8]	@ unaligned
 857 00aa 9372     		strb	r3, [r2, #10]
 858              		.loc 1 229 0
 859 00ac 13E0     		b	.L52
 860              	.L51:
 861              		.loc 1 231 0
 862 00ae 009B     		ldr	r3, [sp]
 863 00b0 154A     		ldr	r2, .L55+24
 864 00b2 1C46     		mov	r4, r3
 865 00b4 1346     		mov	r3, r2
 866 00b6 07CB     		ldmia	r3!, {r0, r1, r2}
 867 00b8 2060     		str	r0, [r4]	@ unaligned
 868 00ba 6160     		str	r1, [r4, #4]	@ unaligned
 869 00bc A260     		str	r2, [r4, #8]	@ unaligned
 870 00be 1B88     		ldrh	r3, [r3]	@ unaligned
 871 00c0 A381     		strh	r3, [r4, #12]	@ unaligned
 872              		.loc 1 233 0
 873 00c2 08E0     		b	.L52
 874              	.L44:
 875              		.loc 1 236 0
 876 00c4 009B     		ldr	r3, [sp]
 877 00c6 1149     		ldr	r1, .L55+28
 878 00c8 1A46     		mov	r2, r3
 879 00ca 0B46     		mov	r3, r1
 880 00cc 03CB     		ldmia	r3!, {r0, r1}
 881 00ce 1060     		str	r0, [r2]	@ unaligned
 882 00d0 5160     		str	r1, [r2, #4]	@ unaligned
 883 00d2 1B88     		ldrh	r3, [r3]	@ unaligned
 884 00d4 1381     		strh	r3, [r2, #8]	@ unaligned
 885              	.L52:
 886              		.loc 1 241 0
 887 00d6 9DF90B30 		ldrsb	r3, [sp, #11]
ARM GAS  C:\Users\PCHAUT~1\AppData\Local\Temp\cct0c6Vd.s 			page 18


 888              		.loc 1 242 0
 889 00da 1846     		mov	r0, r3
 890 00dc 044B     		ldr	r3, .L55
 891 00de 039A     		ldr	r2, [sp, #12]
 892 00e0 1B68     		ldr	r3, [r3]
 893 00e2 9A42     		cmp	r2, r3
 894 00e4 01D0     		beq	.L54
 895 00e6 FFF7FEFF 		bl	__stack_chk_fail
 896              	.L54:
 897 00ea 04B0     		add	sp, sp, #16
 898              		.cfi_def_cfa_offset 8
 899              		@ sp needed
 900 00ec 10BD     		pop	{r4, pc}
 901              	.L56:
 902 00ee 00BF     		.align	2
 903              	.L55:
 904 00f0 00000000 		.word	__stack_chk_guard
 905 00f4 AC010000 		.word	.LC21
 906 00f8 B8010000 		.word	.LC22
 907 00fc C4010000 		.word	.LC23
 908 0100 D0010000 		.word	.LC24
 909 0104 E0010000 		.word	.LC25
 910 0108 EC010000 		.word	.LC26
 911 010c 44000000 		.word	.LC5
 912              		.cfi_endproc
 913              	.LFE6:
 914              		.size	VL53L0X_get_range_status_string, .-VL53L0X_get_range_status_string
 915              		.section	.rodata
 916 01fa 0000     		.align	2
 917              	.LC27:
 918 01fc 4E6F2045 		.ascii	"No Error\000"
 918      72726F72 
 918      00
 919 0205 000000   		.align	2
 920              	.LC28:
 921 0208 43616C69 		.ascii	"Calibration Warning Error\000"
 921      62726174 
 921      696F6E20 
 921      5761726E 
 921      696E6720 
 922 0222 0000     		.align	2
 923              	.LC29:
 924 0224 4D696E20 		.ascii	"Min clipped error\000"
 924      636C6970 
 924      70656420 
 924      6572726F 
 924      7200
 925 0236 0000     		.align	2
 926              	.LC30:
 927 0238 556E6465 		.ascii	"Undefined error\000"
 927      66696E65 
 927      64206572 
 927      726F7200 
 928              		.align	2
 929              	.LC31:
 930 0248 496E7661 		.ascii	"Invalid parameters error\000"
 930      6C696420 
ARM GAS  C:\Users\PCHAUT~1\AppData\Local\Temp\cct0c6Vd.s 			page 19


 930      70617261 
 930      6D657465 
 930      72732065 
 931 0261 000000   		.align	2
 932              	.LC32:
 933 0264 4E6F7420 		.ascii	"Not supported error\000"
 933      73757070 
 933      6F727465 
 933      64206572 
 933      726F7200 
 934              		.align	2
 935              	.LC33:
 936 0278 496E7465 		.ascii	"Interrupt not Cleared\000"
 936      72727570 
 936      74206E6F 
 936      7420436C 
 936      65617265 
 937 028e 0000     		.align	2
 938              	.LC34:
 939 0290 52616E67 		.ascii	"Range error\000"
 939      65206572 
 939      726F7200 
 940              		.align	2
 941              	.LC35:
 942 029c 54696D65 		.ascii	"Time out error\000"
 942      206F7574 
 942      20657272 
 942      6F7200
 943 02ab 00       		.align	2
 944              	.LC36:
 945 02ac 4D6F6465 		.ascii	"Mode not supported error\000"
 945      206E6F74 
 945      20737570 
 945      706F7274 
 945      65642065 
 946 02c5 000000   		.align	2
 947              	.LC37:
 948 02c8 42756666 		.ascii	"Buffer too small\000"
 948      65722074 
 948      6F6F2073 
 948      6D616C6C 
 948      00
 949 02d9 000000   		.align	2
 950              	.LC38:
 951 02dc 4750494F 		.ascii	"GPIO not existing\000"
 951      206E6F74 
 951      20657869 
 951      7374696E 
 951      6700
 952 02ee 0000     		.align	2
 953              	.LC39:
 954 02f0 4750494F 		.ascii	"GPIO funct not supported\000"
 954      2066756E 
 954      6374206E 
 954      6F742073 
 954      7570706F 
 955 0309 000000   		.align	2
ARM GAS  C:\Users\PCHAUT~1\AppData\Local\Temp\cct0c6Vd.s 			page 20


 956              	.LC40:
 957 030c 436F6E74 		.ascii	"Control Interface Error\000"
 957      726F6C20 
 957      496E7465 
 957      72666163 
 957      65204572 
 958              		.align	2
 959              	.LC41:
 960 0324 496E7661 		.ascii	"Invalid Command Error\000"
 960      6C696420 
 960      436F6D6D 
 960      616E6420 
 960      4572726F 
 961 033a 0000     		.align	2
 962              	.LC42:
 963 033c 44697669 		.ascii	"Division by zero Error\000"
 963      73696F6E 
 963      20627920 
 963      7A65726F 
 963      20457272 
 964 0353 00       		.align	2
 965              	.LC43:
 966 0354 52656665 		.ascii	"Reference Spad Init Error\000"
 966      72656E63 
 966      65205370 
 966      61642049 
 966      6E697420 
 967 036e 0000     		.align	2
 968              	.LC44:
 969 0370 4E6F7420 		.ascii	"Not implemented error\000"
 969      696D706C 
 969      656D656E 
 969      74656420 
 969      6572726F 
 970              		.section	.text.VL53L0X_get_pal_error_string,"ax",%progbits
 971              		.align	1
 972              		.p2align 4,,15
 973              		.global	VL53L0X_get_pal_error_string
 974              		.syntax unified
 975              		.thumb
 976              		.thumb_func
 977              		.fpu fpv4-sp-d16
 978              		.type	VL53L0X_get_pal_error_string, %function
 979              	VL53L0X_get_pal_error_string:
 980              	.LFB7:
 981              		.loc 1 246 0
 982              		.cfi_startproc
 983              		@ args = 0, pretend = 0, frame = 16
 984              		@ frame_needed = 0, uses_anonymous_args = 0
 985 0000 30B5     		push	{r4, r5, lr}
 986              		.cfi_def_cfa_offset 12
 987              		.cfi_offset 4, -12
 988              		.cfi_offset 5, -8
 989              		.cfi_offset 14, -4
 990 0002 85B0     		sub	sp, sp, #20
 991              		.cfi_def_cfa_offset 32
 992 0004 0346     		mov	r3, r0
ARM GAS  C:\Users\PCHAUT~1\AppData\Local\Temp\cct0c6Vd.s 			page 21


 993 0006 0091     		str	r1, [sp]
 994 0008 8DF80730 		strb	r3, [sp, #7]
 995              		.loc 1 246 0
 996 000c D34B     		ldr	r3, .L81
 997 000e 1B68     		ldr	r3, [r3]
 998 0010 0393     		str	r3, [sp, #12]
 999              		.loc 1 247 0
 1000 0012 0023     		movs	r3, #0
 1001 0014 8DF80B30 		strb	r3, [sp, #11]
 1002              		.loc 1 251 0
 1003 0018 9DF90730 		ldrsb	r3, [sp, #7]
 1004 001c 6333     		adds	r3, r3, #99
 1005 001e 632B     		cmp	r3, #99
 1006 0020 00F2DB81 		bhi	.L58
 1007 0024 01A2     		adr	r2, .L60
 1008 0026 52F823F0 		ldr	pc, [r2, r3, lsl #2]
 1009 002a 00BF     		.p2align 2
 1010              	.L60:
 1011 002c BF030000 		.word	.L59+1
 1012 0030 DB030000 		.word	.L58+1
 1013 0034 DB030000 		.word	.L58+1
 1014 0038 DB030000 		.word	.L58+1
 1015 003c DB030000 		.word	.L58+1
 1016 0040 DB030000 		.word	.L58+1
 1017 0044 DB030000 		.word	.L58+1
 1018 0048 DB030000 		.word	.L58+1
 1019 004c DB030000 		.word	.L58+1
 1020 0050 DB030000 		.word	.L58+1
 1021 0054 DB030000 		.word	.L58+1
 1022 0058 DB030000 		.word	.L58+1
 1023 005c DB030000 		.word	.L58+1
 1024 0060 DB030000 		.word	.L58+1
 1025 0064 DB030000 		.word	.L58+1
 1026 0068 DB030000 		.word	.L58+1
 1027 006c DB030000 		.word	.L58+1
 1028 0070 DB030000 		.word	.L58+1
 1029 0074 DB030000 		.word	.L58+1
 1030 0078 DB030000 		.word	.L58+1
 1031 007c DB030000 		.word	.L58+1
 1032 0080 DB030000 		.word	.L58+1
 1033 0084 DB030000 		.word	.L58+1
 1034 0088 DB030000 		.word	.L58+1
 1035 008c DB030000 		.word	.L58+1
 1036 0090 DB030000 		.word	.L58+1
 1037 0094 DB030000 		.word	.L58+1
 1038 0098 DB030000 		.word	.L58+1
 1039 009c DB030000 		.word	.L58+1
 1040 00a0 DB030000 		.word	.L58+1
 1041 00a4 DB030000 		.word	.L58+1
 1042 00a8 DB030000 		.word	.L58+1
 1043 00ac DB030000 		.word	.L58+1
 1044 00b0 DB030000 		.word	.L58+1
 1045 00b4 DB030000 		.word	.L58+1
 1046 00b8 DB030000 		.word	.L58+1
 1047 00bc DB030000 		.word	.L58+1
 1048 00c0 DB030000 		.word	.L58+1
 1049 00c4 DB030000 		.word	.L58+1
ARM GAS  C:\Users\PCHAUT~1\AppData\Local\Temp\cct0c6Vd.s 			page 22


 1050 00c8 DB030000 		.word	.L58+1
 1051 00cc DB030000 		.word	.L58+1
 1052 00d0 DB030000 		.word	.L58+1
 1053 00d4 DB030000 		.word	.L58+1
 1054 00d8 DB030000 		.word	.L58+1
 1055 00dc DB030000 		.word	.L58+1
 1056 00e0 DB030000 		.word	.L58+1
 1057 00e4 DB030000 		.word	.L58+1
 1058 00e8 DB030000 		.word	.L58+1
 1059 00ec DB030000 		.word	.L58+1
 1060 00f0 A1030000 		.word	.L61+1
 1061 00f4 DB030000 		.word	.L58+1
 1062 00f8 DB030000 		.word	.L58+1
 1063 00fc DB030000 		.word	.L58+1
 1064 0100 DB030000 		.word	.L58+1
 1065 0104 DB030000 		.word	.L58+1
 1066 0108 DB030000 		.word	.L58+1
 1067 010c DB030000 		.word	.L58+1
 1068 0110 DB030000 		.word	.L58+1
 1069 0114 DB030000 		.word	.L58+1
 1070 0118 3B030000 		.word	.L62+1
 1071 011c DB030000 		.word	.L58+1
 1072 0120 DB030000 		.word	.L58+1
 1073 0124 DB030000 		.word	.L58+1
 1074 0128 DB030000 		.word	.L58+1
 1075 012c DB030000 		.word	.L58+1
 1076 0130 DB030000 		.word	.L58+1
 1077 0134 DB030000 		.word	.L58+1
 1078 0138 DB030000 		.word	.L58+1
 1079 013c DB030000 		.word	.L58+1
 1080 0140 1F030000 		.word	.L63+1
 1081 0144 DB030000 		.word	.L58+1
 1082 0148 DB030000 		.word	.L58+1
 1083 014c DB030000 		.word	.L58+1
 1084 0150 DB030000 		.word	.L58+1
 1085 0154 DB030000 		.word	.L58+1
 1086 0158 DB030000 		.word	.L58+1
 1087 015c DB030000 		.word	.L58+1
 1088 0160 DB030000 		.word	.L58+1
 1089 0164 DB030000 		.word	.L58+1
 1090 0168 05030000 		.word	.L64+1
 1091 016c DB030000 		.word	.L58+1
 1092 0170 DB030000 		.word	.L58+1
 1093 0174 DB030000 		.word	.L58+1
 1094 0178 DB030000 		.word	.L58+1
 1095 017c DB030000 		.word	.L58+1
 1096 0180 DB030000 		.word	.L58+1
 1097 0184 DB030000 		.word	.L58+1
 1098 0188 51020000 		.word	.L65+1
 1099 018c E7020000 		.word	.L66+1
 1100 0190 CF020000 		.word	.L67+1
 1101 0194 B7020000 		.word	.L68+1
 1102 0198 99020000 		.word	.L69+1
 1103 019c 7F020000 		.word	.L70+1
 1104 01a0 6D020000 		.word	.L71+1
 1105 01a4 39020000 		.word	.L72+1
 1106 01a8 1B020000 		.word	.L73+1
ARM GAS  C:\Users\PCHAUT~1\AppData\Local\Temp\cct0c6Vd.s 			page 23


 1107 01ac 07020000 		.word	.L74+1
 1108 01b0 EF010000 		.word	.L75+1
 1109 01b4 D1010000 		.word	.L76+1
 1110 01b8 BD010000 		.word	.L77+1
 1111              		.p2align 1
 1112              	.L77:
 1113              		.loc 1 253 0
 1114 01bc 009B     		ldr	r3, [sp]
 1115 01be 6849     		ldr	r1, .L81+4
 1116 01c0 1A46     		mov	r2, r3
 1117 01c2 0B46     		mov	r3, r1
 1118 01c4 03CB     		ldmia	r3!, {r0, r1}
 1119 01c6 1060     		str	r0, [r2]	@ unaligned
 1120 01c8 5160     		str	r1, [r2, #4]	@ unaligned
 1121 01ca 1B78     		ldrb	r3, [r3]
 1122 01cc 1372     		strb	r3, [r2, #8]
 1123              		.loc 1 255 0
 1124 01ce 12E1     		b	.L78
 1125              	.L76:
 1126              		.loc 1 257 0
 1127 01d0 009B     		ldr	r3, [sp]
 1128 01d2 644A     		ldr	r2, .L81+8
 1129 01d4 1D46     		mov	r5, r3
 1130 01d6 1446     		mov	r4, r2
 1131 01d8 0FCC     		ldmia	r4!, {r0, r1, r2, r3}
 1132 01da 2860     		str	r0, [r5]	@ unaligned
 1133 01dc 6960     		str	r1, [r5, #4]	@ unaligned
 1134 01de AA60     		str	r2, [r5, #8]	@ unaligned
 1135 01e0 EB60     		str	r3, [r5, #12]	@ unaligned
 1136 01e2 03CC     		ldmia	r4!, {r0, r1}
 1137 01e4 2861     		str	r0, [r5, #16]	@ unaligned
 1138 01e6 6961     		str	r1, [r5, #20]	@ unaligned
 1139 01e8 2388     		ldrh	r3, [r4]	@ unaligned
 1140 01ea 2B83     		strh	r3, [r5, #24]	@ unaligned
 1141              		.loc 1 259 0
 1142 01ec 03E1     		b	.L78
 1143              	.L75:
 1144              		.loc 1 261 0
 1145 01ee 009B     		ldr	r3, [sp]
 1146 01f0 5D4A     		ldr	r2, .L81+12
 1147 01f2 1D46     		mov	r5, r3
 1148 01f4 1446     		mov	r4, r2
 1149 01f6 0FCC     		ldmia	r4!, {r0, r1, r2, r3}
 1150 01f8 2860     		str	r0, [r5]	@ unaligned
 1151 01fa 6960     		str	r1, [r5, #4]	@ unaligned
 1152 01fc AA60     		str	r2, [r5, #8]	@ unaligned
 1153 01fe EB60     		str	r3, [r5, #12]	@ unaligned
 1154 0200 2388     		ldrh	r3, [r4]	@ unaligned
 1155 0202 2B82     		strh	r3, [r5, #16]	@ unaligned
 1156              		.loc 1 263 0
 1157 0204 F7E0     		b	.L78
 1158              	.L74:
 1159              		.loc 1 265 0
 1160 0206 009B     		ldr	r3, [sp]
 1161 0208 584A     		ldr	r2, .L81+16
 1162 020a 1C46     		mov	r4, r3
 1163 020c 1546     		mov	r5, r2
ARM GAS  C:\Users\PCHAUT~1\AppData\Local\Temp\cct0c6Vd.s 			page 24


 1164 020e 0FCD     		ldmia	r5!, {r0, r1, r2, r3}
 1165 0210 2060     		str	r0, [r4]	@ unaligned
 1166 0212 6160     		str	r1, [r4, #4]	@ unaligned
 1167 0214 A260     		str	r2, [r4, #8]	@ unaligned
 1168 0216 E360     		str	r3, [r4, #12]	@ unaligned
 1169              		.loc 1 267 0
 1170 0218 EDE0     		b	.L78
 1171              	.L73:
 1172              		.loc 1 269 0
 1173 021a 009B     		ldr	r3, [sp]
 1174 021c 544A     		ldr	r2, .L81+20
 1175 021e 1D46     		mov	r5, r3
 1176 0220 1446     		mov	r4, r2
 1177 0222 0FCC     		ldmia	r4!, {r0, r1, r2, r3}
 1178 0224 2860     		str	r0, [r5]	@ unaligned
 1179 0226 6960     		str	r1, [r5, #4]	@ unaligned
 1180 0228 AA60     		str	r2, [r5, #8]	@ unaligned
 1181 022a EB60     		str	r3, [r5, #12]	@ unaligned
 1182 022c 03CC     		ldmia	r4!, {r0, r1}
 1183 022e 2861     		str	r0, [r5, #16]	@ unaligned
 1184 0230 6961     		str	r1, [r5, #20]	@ unaligned
 1185 0232 2378     		ldrb	r3, [r4]
 1186 0234 2B76     		strb	r3, [r5, #24]
 1187              		.loc 1 271 0
 1188 0236 DEE0     		b	.L78
 1189              	.L72:
 1190              		.loc 1 273 0
 1191 0238 009B     		ldr	r3, [sp]
 1192 023a 4E4A     		ldr	r2, .L81+24
 1193 023c 1D46     		mov	r5, r3
 1194 023e 1446     		mov	r4, r2
 1195 0240 0FCC     		ldmia	r4!, {r0, r1, r2, r3}
 1196 0242 2860     		str	r0, [r5]	@ unaligned
 1197 0244 6960     		str	r1, [r5, #4]	@ unaligned
 1198 0246 AA60     		str	r2, [r5, #8]	@ unaligned
 1199 0248 EB60     		str	r3, [r5, #12]	@ unaligned
 1200 024a 2068     		ldr	r0, [r4]
 1201 024c 2861     		str	r0, [r5, #16]	@ unaligned
 1202              		.loc 1 275 0
 1203 024e D2E0     		b	.L78
 1204              	.L65:
 1205              		.loc 1 277 0
 1206 0250 009B     		ldr	r3, [sp]
 1207 0252 494A     		ldr	r2, .L81+28
 1208 0254 1D46     		mov	r5, r3
 1209 0256 1446     		mov	r4, r2
 1210 0258 0FCC     		ldmia	r4!, {r0, r1, r2, r3}
 1211 025a 2860     		str	r0, [r5]	@ unaligned
 1212 025c 6960     		str	r1, [r5, #4]	@ unaligned
 1213 025e AA60     		str	r2, [r5, #8]	@ unaligned
 1214 0260 EB60     		str	r3, [r5, #12]	@ unaligned
 1215 0262 2068     		ldr	r0, [r4]
 1216 0264 2861     		str	r0, [r5, #16]	@ unaligned
 1217 0266 A388     		ldrh	r3, [r4, #4]	@ unaligned
 1218 0268 AB82     		strh	r3, [r5, #20]	@ unaligned
 1219              		.loc 1 279 0
 1220 026a C4E0     		b	.L78
ARM GAS  C:\Users\PCHAUT~1\AppData\Local\Temp\cct0c6Vd.s 			page 25


 1221              	.L71:
 1222              		.loc 1 281 0
 1223 026c 009B     		ldr	r3, [sp]
 1224 026e 434A     		ldr	r2, .L81+32
 1225 0270 1C46     		mov	r4, r3
 1226 0272 1346     		mov	r3, r2
 1227 0274 07CB     		ldmia	r3!, {r0, r1, r2}
 1228 0276 2060     		str	r0, [r4]	@ unaligned
 1229 0278 6160     		str	r1, [r4, #4]	@ unaligned
 1230 027a A260     		str	r2, [r4, #8]	@ unaligned
 1231              		.loc 1 283 0
 1232 027c BBE0     		b	.L78
 1233              	.L70:
 1234              		.loc 1 285 0
 1235 027e 009B     		ldr	r3, [sp]
 1236 0280 3F4A     		ldr	r2, .L81+36
 1237 0282 1C46     		mov	r4, r3
 1238 0284 1346     		mov	r3, r2
 1239 0286 07CB     		ldmia	r3!, {r0, r1, r2}
 1240 0288 2060     		str	r0, [r4]	@ unaligned
 1241 028a 6160     		str	r1, [r4, #4]	@ unaligned
 1242 028c A260     		str	r2, [r4, #8]	@ unaligned
 1243 028e 1A88     		ldrh	r2, [r3]	@ unaligned
 1244 0290 9B78     		ldrb	r3, [r3, #2]
 1245 0292 A281     		strh	r2, [r4, #12]	@ unaligned
 1246 0294 A373     		strb	r3, [r4, #14]
 1247              		.loc 1 287 0
 1248 0296 AEE0     		b	.L78
 1249              	.L69:
 1250              		.loc 1 289 0
 1251 0298 009B     		ldr	r3, [sp]
 1252 029a 3A4A     		ldr	r2, .L81+40
 1253 029c 1D46     		mov	r5, r3
 1254 029e 1446     		mov	r4, r2
 1255 02a0 0FCC     		ldmia	r4!, {r0, r1, r2, r3}
 1256 02a2 2860     		str	r0, [r5]	@ unaligned
 1257 02a4 6960     		str	r1, [r5, #4]	@ unaligned
 1258 02a6 AA60     		str	r2, [r5, #8]	@ unaligned
 1259 02a8 EB60     		str	r3, [r5, #12]	@ unaligned
 1260 02aa 03CC     		ldmia	r4!, {r0, r1}
 1261 02ac 2861     		str	r0, [r5, #16]	@ unaligned
 1262 02ae 6961     		str	r1, [r5, #20]	@ unaligned
 1263 02b0 2378     		ldrb	r3, [r4]
 1264 02b2 2B76     		strb	r3, [r5, #24]
 1265              		.loc 1 291 0
 1266 02b4 9FE0     		b	.L78
 1267              	.L68:
 1268              		.loc 1 293 0
 1269 02b6 009B     		ldr	r3, [sp]
 1270 02b8 334A     		ldr	r2, .L81+44
 1271 02ba 1D46     		mov	r5, r3
 1272 02bc 1446     		mov	r4, r2
 1273 02be 0FCC     		ldmia	r4!, {r0, r1, r2, r3}
 1274 02c0 2860     		str	r0, [r5]	@ unaligned
 1275 02c2 6960     		str	r1, [r5, #4]	@ unaligned
 1276 02c4 AA60     		str	r2, [r5, #8]	@ unaligned
 1277 02c6 EB60     		str	r3, [r5, #12]	@ unaligned
ARM GAS  C:\Users\PCHAUT~1\AppData\Local\Temp\cct0c6Vd.s 			page 26


 1278 02c8 2378     		ldrb	r3, [r4]
 1279 02ca 2B74     		strb	r3, [r5, #16]
 1280              		.loc 1 295 0
 1281 02cc 93E0     		b	.L78
 1282              	.L67:
 1283              		.loc 1 297 0
 1284 02ce 009B     		ldr	r3, [sp]
 1285 02d0 2E4A     		ldr	r2, .L81+48
 1286 02d2 1D46     		mov	r5, r3
 1287 02d4 1446     		mov	r4, r2
 1288 02d6 0FCC     		ldmia	r4!, {r0, r1, r2, r3}
 1289 02d8 2860     		str	r0, [r5]	@ unaligned
 1290 02da 6960     		str	r1, [r5, #4]	@ unaligned
 1291 02dc AA60     		str	r2, [r5, #8]	@ unaligned
 1292 02de EB60     		str	r3, [r5, #12]	@ unaligned
 1293 02e0 2388     		ldrh	r3, [r4]	@ unaligned
 1294 02e2 2B82     		strh	r3, [r5, #16]	@ unaligned
 1295              		.loc 1 299 0
 1296 02e4 87E0     		b	.L78
 1297              	.L66:
 1298              		.loc 1 301 0
 1299 02e6 009B     		ldr	r3, [sp]
 1300 02e8 294A     		ldr	r2, .L81+52
 1301 02ea 1D46     		mov	r5, r3
 1302 02ec 1446     		mov	r4, r2
 1303 02ee 0FCC     		ldmia	r4!, {r0, r1, r2, r3}
 1304 02f0 2860     		str	r0, [r5]	@ unaligned
 1305 02f2 6960     		str	r1, [r5, #4]	@ unaligned
 1306 02f4 AA60     		str	r2, [r5, #8]	@ unaligned
 1307 02f6 EB60     		str	r3, [r5, #12]	@ unaligned
 1308 02f8 03CC     		ldmia	r4!, {r0, r1}
 1309 02fa 2861     		str	r0, [r5, #16]	@ unaligned
 1310 02fc 6961     		str	r1, [r5, #20]	@ unaligned
 1311 02fe 2378     		ldrb	r3, [r4]
 1312 0300 2B76     		strb	r3, [r5, #24]
 1313              		.loc 1 303 0
 1314 0302 78E0     		b	.L78
 1315              	.L64:
 1316              		.loc 1 305 0
 1317 0304 009B     		ldr	r3, [sp]
 1318 0306 234A     		ldr	r2, .L81+56
 1319 0308 1D46     		mov	r5, r3
 1320 030a 1446     		mov	r4, r2
 1321 030c 0FCC     		ldmia	r4!, {r0, r1, r2, r3}
 1322 030e 2860     		str	r0, [r5]	@ unaligned
 1323 0310 6960     		str	r1, [r5, #4]	@ unaligned
 1324 0312 AA60     		str	r2, [r5, #8]	@ unaligned
 1325 0314 EB60     		str	r3, [r5, #12]	@ unaligned
 1326 0316 03CC     		ldmia	r4!, {r0, r1}
 1327 0318 2861     		str	r0, [r5, #16]	@ unaligned
 1328 031a 6961     		str	r1, [r5, #20]	@ unaligned
 1329              		.loc 1 307 0
 1330 031c 6BE0     		b	.L78
 1331              	.L63:
 1332              		.loc 1 309 0
 1333 031e 009B     		ldr	r3, [sp]
 1334 0320 1D4A     		ldr	r2, .L81+60
ARM GAS  C:\Users\PCHAUT~1\AppData\Local\Temp\cct0c6Vd.s 			page 27


 1335 0322 1D46     		mov	r5, r3
 1336 0324 1446     		mov	r4, r2
 1337 0326 0FCC     		ldmia	r4!, {r0, r1, r2, r3}
 1338 0328 2860     		str	r0, [r5]	@ unaligned
 1339 032a 6960     		str	r1, [r5, #4]	@ unaligned
 1340 032c AA60     		str	r2, [r5, #8]	@ unaligned
 1341 032e EB60     		str	r3, [r5, #12]	@ unaligned
 1342 0330 2068     		ldr	r0, [r4]
 1343 0332 2861     		str	r0, [r5, #16]	@ unaligned
 1344 0334 A388     		ldrh	r3, [r4, #4]	@ unaligned
 1345 0336 AB82     		strh	r3, [r5, #20]	@ unaligned
 1346              		.loc 1 311 0
 1347 0338 5DE0     		b	.L78
 1348              	.L62:
 1349              		.loc 1 313 0
 1350 033a 009B     		ldr	r3, [sp]
 1351 033c 174A     		ldr	r2, .L81+64
 1352 033e 1C46     		mov	r4, r3
 1353 0340 1546     		mov	r5, r2
 1354 0342 0FCD     		ldmia	r5!, {r0, r1, r2, r3}
 1355 0344 2060     		str	r0, [r4]	@ unaligned
 1356 0346 6160     		str	r1, [r4, #4]	@ unaligned
 1357 0348 A260     		str	r2, [r4, #8]	@ unaligned
 1358 034a E360     		str	r3, [r4, #12]	@ unaligned
 1359 034c 2868     		ldr	r0, [r5]
 1360 034e 2061     		str	r0, [r4, #16]	@ unaligned
 1361 0350 AB88     		ldrh	r3, [r5, #4]	@ unaligned
 1362 0352 AA79     		ldrb	r2, [r5, #6]
 1363 0354 A382     		strh	r3, [r4, #20]	@ unaligned
 1364 0356 1346     		mov	r3, r2
 1365 0358 A375     		strb	r3, [r4, #22]
 1366              		.loc 1 315 0
 1367 035a 4CE0     		b	.L78
 1368              	.L82:
 1369              		.align	2
 1370              	.L81:
 1371 035c 00000000 		.word	__stack_chk_guard
 1372 0360 FC010000 		.word	.LC27
 1373 0364 08020000 		.word	.LC28
 1374 0368 24020000 		.word	.LC29
 1375 036c 38020000 		.word	.LC30
 1376 0370 48020000 		.word	.LC31
 1377 0374 64020000 		.word	.LC32
 1378 0378 78020000 		.word	.LC33
 1379 037c 90020000 		.word	.LC34
 1380 0380 9C020000 		.word	.LC35
 1381 0384 AC020000 		.word	.LC36
 1382 0388 C8020000 		.word	.LC37
 1383 038c DC020000 		.word	.LC38
 1384 0390 F0020000 		.word	.LC39
 1385 0394 0C030000 		.word	.LC40
 1386 0398 24030000 		.word	.LC41
 1387 039c 3C030000 		.word	.LC42
 1388              	.L61:
 1389              		.loc 1 317 0
 1390 03a0 009B     		ldr	r3, [sp]
 1391 03a2 1B4A     		ldr	r2, .L83
ARM GAS  C:\Users\PCHAUT~1\AppData\Local\Temp\cct0c6Vd.s 			page 28


 1392 03a4 1D46     		mov	r5, r3
 1393 03a6 1446     		mov	r4, r2
 1394 03a8 0FCC     		ldmia	r4!, {r0, r1, r2, r3}
 1395 03aa 2860     		str	r0, [r5]	@ unaligned
 1396 03ac 6960     		str	r1, [r5, #4]	@ unaligned
 1397 03ae AA60     		str	r2, [r5, #8]	@ unaligned
 1398 03b0 EB60     		str	r3, [r5, #12]	@ unaligned
 1399 03b2 03CC     		ldmia	r4!, {r0, r1}
 1400 03b4 2861     		str	r0, [r5, #16]	@ unaligned
 1401 03b6 6961     		str	r1, [r5, #20]	@ unaligned
 1402 03b8 2388     		ldrh	r3, [r4]	@ unaligned
 1403 03ba 2B83     		strh	r3, [r5, #24]	@ unaligned
 1404              		.loc 1 319 0
 1405 03bc 1BE0     		b	.L78
 1406              	.L59:
 1407              		.loc 1 321 0
 1408 03be 009B     		ldr	r3, [sp]
 1409 03c0 144A     		ldr	r2, .L83+4
 1410 03c2 1D46     		mov	r5, r3
 1411 03c4 1446     		mov	r4, r2
 1412 03c6 0FCC     		ldmia	r4!, {r0, r1, r2, r3}
 1413 03c8 2860     		str	r0, [r5]	@ unaligned
 1414 03ca 6960     		str	r1, [r5, #4]	@ unaligned
 1415 03cc AA60     		str	r2, [r5, #8]	@ unaligned
 1416 03ce EB60     		str	r3, [r5, #12]	@ unaligned
 1417 03d0 2068     		ldr	r0, [r4]
 1418 03d2 2861     		str	r0, [r5, #16]	@ unaligned
 1419 03d4 A388     		ldrh	r3, [r4, #4]	@ unaligned
 1420 03d6 AB82     		strh	r3, [r5, #20]	@ unaligned
 1421              		.loc 1 323 0
 1422 03d8 0DE0     		b	.L78
 1423              	.L58:
 1424              		.loc 1 326 0
 1425 03da 009B     		ldr	r3, [sp]
 1426 03dc 0E4A     		ldr	r2, .L83+8
 1427 03de 1D46     		mov	r5, r3
 1428 03e0 1446     		mov	r4, r2
 1429 03e2 0FCC     		ldmia	r4!, {r0, r1, r2, r3}
 1430 03e4 2860     		str	r0, [r5]	@ unaligned
 1431 03e6 6960     		str	r1, [r5, #4]	@ unaligned
 1432 03e8 AA60     		str	r2, [r5, #8]	@ unaligned
 1433 03ea EB60     		str	r3, [r5, #12]	@ unaligned
 1434 03ec 2388     		ldrh	r3, [r4]	@ unaligned
 1435 03ee A278     		ldrb	r2, [r4, #2]
 1436 03f0 2B82     		strh	r3, [r5, #16]	@ unaligned
 1437 03f2 1346     		mov	r3, r2
 1438 03f4 AB74     		strb	r3, [r5, #18]
 1439              	.L78:
 1440              		.loc 1 331 0
 1441 03f6 9DF90B30 		ldrsb	r3, [sp, #11]
 1442              		.loc 1 332 0
 1443 03fa 1846     		mov	r0, r3
 1444 03fc 074B     		ldr	r3, .L83+12
 1445 03fe 039A     		ldr	r2, [sp, #12]
 1446 0400 1B68     		ldr	r3, [r3]
 1447 0402 9A42     		cmp	r2, r3
 1448 0404 01D0     		beq	.L80
ARM GAS  C:\Users\PCHAUT~1\AppData\Local\Temp\cct0c6Vd.s 			page 29


 1449 0406 FFF7FEFF 		bl	__stack_chk_fail
 1450              	.L80:
 1451 040a 05B0     		add	sp, sp, #20
 1452              		.cfi_def_cfa_offset 12
 1453              		@ sp needed
 1454 040c 30BD     		pop	{r4, r5, pc}
 1455              	.L84:
 1456 040e 00BF     		.align	2
 1457              	.L83:
 1458 0410 54030000 		.word	.LC43
 1459 0414 70030000 		.word	.LC44
 1460 0418 98010000 		.word	.LC20
 1461 041c 00000000 		.word	__stack_chk_guard
 1462              		.cfi_endproc
 1463              	.LFE7:
 1464              		.size	VL53L0X_get_pal_error_string, .-VL53L0X_get_pal_error_string
 1465              		.section	.rodata
 1466 0386 0000     		.align	2
 1467              	.LC45:
 1468 0388 504F5745 		.ascii	"POWERDOWN State\000"
 1468      52444F57 
 1468      4E205374 
 1468      61746500 
 1469              		.align	2
 1470              	.LC46:
 1471 0398 57616974 		.ascii	"Wait for staticinit State\000"
 1471      20666F72 
 1471      20737461 
 1471      74696369 
 1471      6E697420 
 1472 03b2 0000     		.align	2
 1473              	.LC47:
 1474 03b4 5354414E 		.ascii	"STANDBY State\000"
 1474      44425920 
 1474      53746174 
 1474      6500
 1475 03c2 0000     		.align	2
 1476              	.LC48:
 1477 03c4 49444C45 		.ascii	"IDLE State\000"
 1477      20537461 
 1477      746500
 1478 03cf 00       		.align	2
 1479              	.LC49:
 1480 03d0 52554E4E 		.ascii	"RUNNING State\000"
 1480      494E4720 
 1480      53746174 
 1480      6500
 1481 03de 0000     		.align	2
 1482              	.LC50:
 1483 03e0 554E4B4E 		.ascii	"UNKNOWN State\000"
 1483      4F574E20 
 1483      53746174 
 1483      6500
 1484 03ee 0000     		.align	2
 1485              	.LC51:
 1486 03f0 4552524F 		.ascii	"ERROR State\000"
 1486      52205374 
ARM GAS  C:\Users\PCHAUT~1\AppData\Local\Temp\cct0c6Vd.s 			page 30


 1486      61746500 
 1487              		.section	.text.VL53L0X_get_pal_state_string,"ax",%progbits
 1488              		.align	1
 1489              		.p2align 4,,15
 1490              		.global	VL53L0X_get_pal_state_string
 1491              		.syntax unified
 1492              		.thumb
 1493              		.thumb_func
 1494              		.fpu fpv4-sp-d16
 1495              		.type	VL53L0X_get_pal_state_string, %function
 1496              	VL53L0X_get_pal_state_string:
 1497              	.LFB8:
 1498              		.loc 1 336 0
 1499              		.cfi_startproc
 1500              		@ args = 0, pretend = 0, frame = 16
 1501              		@ frame_needed = 0, uses_anonymous_args = 0
 1502 0000 30B5     		push	{r4, r5, lr}
 1503              		.cfi_def_cfa_offset 12
 1504              		.cfi_offset 4, -12
 1505              		.cfi_offset 5, -8
 1506              		.cfi_offset 14, -4
 1507 0002 85B0     		sub	sp, sp, #20
 1508              		.cfi_def_cfa_offset 32
 1509 0004 0346     		mov	r3, r0
 1510 0006 0091     		str	r1, [sp]
 1511 0008 8DF80730 		strb	r3, [sp, #7]
 1512              		.loc 1 336 0
 1513 000c 3F4B     		ldr	r3, .L98
 1514 000e 1B68     		ldr	r3, [r3]
 1515 0010 0393     		str	r3, [sp, #12]
 1516              		.loc 1 337 0
 1517 0012 0023     		movs	r3, #0
 1518 0014 8DF80B30 		strb	r3, [sp, #11]
 1519              		.loc 1 341 0
 1520 0018 9DF80730 		ldrb	r3, [sp, #7]	@ zero_extendqisi2
 1521 001c 032B     		cmp	r3, #3
 1522 001e 33D0     		beq	.L87
 1523 0020 032B     		cmp	r3, #3
 1524 0022 06DC     		bgt	.L88
 1525 0024 012B     		cmp	r3, #1
 1526 0026 15D0     		beq	.L89
 1527 0028 012B     		cmp	r3, #1
 1528 002a 22DC     		bgt	.L90
 1529 002c 002B     		cmp	r3, #0
 1530 002e 07D0     		beq	.L91
 1531 0030 55E0     		b	.L86
 1532              	.L88:
 1533 0032 622B     		cmp	r3, #98
 1534 0034 3FD0     		beq	.L92
 1535 0036 632B     		cmp	r3, #99
 1536 0038 48D0     		beq	.L93
 1537 003a 042B     		cmp	r3, #4
 1538 003c 30D0     		beq	.L94
 1539 003e 4EE0     		b	.L86
 1540              	.L91:
 1541              		.loc 1 343 0
 1542 0040 009B     		ldr	r3, [sp]
ARM GAS  C:\Users\PCHAUT~1\AppData\Local\Temp\cct0c6Vd.s 			page 31


 1543 0042 334A     		ldr	r2, .L98+4
 1544 0044 1C46     		mov	r4, r3
 1545 0046 1546     		mov	r5, r2
 1546 0048 0FCD     		ldmia	r5!, {r0, r1, r2, r3}
 1547 004a 2060     		str	r0, [r4]	@ unaligned
 1548 004c 6160     		str	r1, [r4, #4]	@ unaligned
 1549 004e A260     		str	r2, [r4, #8]	@ unaligned
 1550 0050 E360     		str	r3, [r4, #12]	@ unaligned
 1551              		.loc 1 345 0
 1552 0052 4EE0     		b	.L95
 1553              	.L89:
 1554              		.loc 1 347 0
 1555 0054 009B     		ldr	r3, [sp]
 1556 0056 2F4A     		ldr	r2, .L98+8
 1557 0058 1D46     		mov	r5, r3
 1558 005a 1446     		mov	r4, r2
 1559 005c 0FCC     		ldmia	r4!, {r0, r1, r2, r3}
 1560 005e 2860     		str	r0, [r5]	@ unaligned
 1561 0060 6960     		str	r1, [r5, #4]	@ unaligned
 1562 0062 AA60     		str	r2, [r5, #8]	@ unaligned
 1563 0064 EB60     		str	r3, [r5, #12]	@ unaligned
 1564 0066 03CC     		ldmia	r4!, {r0, r1}
 1565 0068 2861     		str	r0, [r5, #16]	@ unaligned
 1566 006a 6961     		str	r1, [r5, #20]	@ unaligned
 1567 006c 2388     		ldrh	r3, [r4]	@ unaligned
 1568 006e 2B83     		strh	r3, [r5, #24]	@ unaligned
 1569              		.loc 1 349 0
 1570 0070 3FE0     		b	.L95
 1571              	.L90:
 1572              		.loc 1 351 0
 1573 0072 009B     		ldr	r3, [sp]
 1574 0074 284A     		ldr	r2, .L98+12
 1575 0076 1C46     		mov	r4, r3
 1576 0078 1346     		mov	r3, r2
 1577 007a 07CB     		ldmia	r3!, {r0, r1, r2}
 1578 007c 2060     		str	r0, [r4]	@ unaligned
 1579 007e 6160     		str	r1, [r4, #4]	@ unaligned
 1580 0080 A260     		str	r2, [r4, #8]	@ unaligned
 1581 0082 1B88     		ldrh	r3, [r3]	@ unaligned
 1582 0084 A381     		strh	r3, [r4, #12]	@ unaligned
 1583              		.loc 1 353 0
 1584 0086 34E0     		b	.L95
 1585              	.L87:
 1586              		.loc 1 355 0
 1587 0088 009B     		ldr	r3, [sp]
 1588 008a 2449     		ldr	r1, .L98+16
 1589 008c 1A46     		mov	r2, r3
 1590 008e 0B46     		mov	r3, r1
 1591 0090 03CB     		ldmia	r3!, {r0, r1}
 1592 0092 1060     		str	r0, [r2]	@ unaligned
 1593 0094 5160     		str	r1, [r2, #4]	@ unaligned
 1594 0096 1988     		ldrh	r1, [r3]	@ unaligned
 1595 0098 9B78     		ldrb	r3, [r3, #2]
 1596 009a 1181     		strh	r1, [r2, #8]	@ unaligned
 1597 009c 9372     		strb	r3, [r2, #10]
 1598              		.loc 1 357 0
 1599 009e 28E0     		b	.L95
ARM GAS  C:\Users\PCHAUT~1\AppData\Local\Temp\cct0c6Vd.s 			page 32


 1600              	.L94:
 1601              		.loc 1 359 0
 1602 00a0 009B     		ldr	r3, [sp]
 1603 00a2 1F4A     		ldr	r2, .L98+20
 1604 00a4 1C46     		mov	r4, r3
 1605 00a6 1346     		mov	r3, r2
 1606 00a8 07CB     		ldmia	r3!, {r0, r1, r2}
 1607 00aa 2060     		str	r0, [r4]	@ unaligned
 1608 00ac 6160     		str	r1, [r4, #4]	@ unaligned
 1609 00ae A260     		str	r2, [r4, #8]	@ unaligned
 1610 00b0 1B88     		ldrh	r3, [r3]	@ unaligned
 1611 00b2 A381     		strh	r3, [r4, #12]	@ unaligned
 1612              		.loc 1 361 0
 1613 00b4 1DE0     		b	.L95
 1614              	.L92:
 1615              		.loc 1 363 0
 1616 00b6 009B     		ldr	r3, [sp]
 1617 00b8 1A4A     		ldr	r2, .L98+24
 1618 00ba 1C46     		mov	r4, r3
 1619 00bc 1346     		mov	r3, r2
 1620 00be 07CB     		ldmia	r3!, {r0, r1, r2}
 1621 00c0 2060     		str	r0, [r4]	@ unaligned
 1622 00c2 6160     		str	r1, [r4, #4]	@ unaligned
 1623 00c4 A260     		str	r2, [r4, #8]	@ unaligned
 1624 00c6 1B88     		ldrh	r3, [r3]	@ unaligned
 1625 00c8 A381     		strh	r3, [r4, #12]	@ unaligned
 1626              		.loc 1 365 0
 1627 00ca 12E0     		b	.L95
 1628              	.L93:
 1629              		.loc 1 367 0
 1630 00cc 009B     		ldr	r3, [sp]
 1631 00ce 164A     		ldr	r2, .L98+28
 1632 00d0 1C46     		mov	r4, r3
 1633 00d2 1346     		mov	r3, r2
 1634 00d4 07CB     		ldmia	r3!, {r0, r1, r2}
 1635 00d6 2060     		str	r0, [r4]	@ unaligned
 1636 00d8 6160     		str	r1, [r4, #4]	@ unaligned
 1637 00da A260     		str	r2, [r4, #8]	@ unaligned
 1638              		.loc 1 369 0
 1639 00dc 09E0     		b	.L95
 1640              	.L86:
 1641              		.loc 1 372 0
 1642 00de 009B     		ldr	r3, [sp]
 1643 00e0 104A     		ldr	r2, .L98+24
 1644 00e2 1C46     		mov	r4, r3
 1645 00e4 1346     		mov	r3, r2
 1646 00e6 07CB     		ldmia	r3!, {r0, r1, r2}
 1647 00e8 2060     		str	r0, [r4]	@ unaligned
 1648 00ea 6160     		str	r1, [r4, #4]	@ unaligned
 1649 00ec A260     		str	r2, [r4, #8]	@ unaligned
 1650 00ee 1B88     		ldrh	r3, [r3]	@ unaligned
 1651 00f0 A381     		strh	r3, [r4, #12]	@ unaligned
 1652              	.L95:
 1653              		.loc 1 377 0
 1654 00f2 9DF90B30 		ldrsb	r3, [sp, #11]
 1655              		.loc 1 378 0
 1656 00f6 1846     		mov	r0, r3
ARM GAS  C:\Users\PCHAUT~1\AppData\Local\Temp\cct0c6Vd.s 			page 33


 1657 00f8 044B     		ldr	r3, .L98
 1658 00fa 039A     		ldr	r2, [sp, #12]
 1659 00fc 1B68     		ldr	r3, [r3]
 1660 00fe 9A42     		cmp	r2, r3
 1661 0100 01D0     		beq	.L97
 1662 0102 FFF7FEFF 		bl	__stack_chk_fail
 1663              	.L97:
 1664 0106 05B0     		add	sp, sp, #20
 1665              		.cfi_def_cfa_offset 12
 1666              		@ sp needed
 1667 0108 30BD     		pop	{r4, r5, pc}
 1668              	.L99:
 1669 010a 00BF     		.align	2
 1670              	.L98:
 1671 010c 00000000 		.word	__stack_chk_guard
 1672 0110 88030000 		.word	.LC45
 1673 0114 98030000 		.word	.LC46
 1674 0118 B4030000 		.word	.LC47
 1675 011c C4030000 		.word	.LC48
 1676 0120 D0030000 		.word	.LC49
 1677 0124 E0030000 		.word	.LC50
 1678 0128 F0030000 		.word	.LC51
 1679              		.cfi_endproc
 1680              	.LFE8:
 1681              		.size	VL53L0X_get_pal_state_string, .-VL53L0X_get_pal_state_string
 1682              		.section	.rodata
 1683              		.align	2
 1684              	.LC52:
 1685 03fc 54434300 		.ascii	"TCC\000"
 1686              		.align	2
 1687              	.LC53:
 1688 0400 44535300 		.ascii	"DSS\000"
 1689              		.align	2
 1690              	.LC54:
 1691 0404 4D535243 		.ascii	"MSRC\000"
 1691      00
 1692 0409 000000   		.align	2
 1693              	.LC55:
 1694 040c 50524520 		.ascii	"PRE RANGE\000"
 1694      52414E47 
 1694      4500
 1695 0416 0000     		.align	2
 1696              	.LC56:
 1697 0418 46494E41 		.ascii	"FINAL RANGE\000"
 1697      4C205241 
 1697      4E474500 
 1698              		.section	.text.VL53L0X_get_sequence_steps_info,"ax",%progbits
 1699              		.align	1
 1700              		.p2align 4,,15
 1701              		.global	VL53L0X_get_sequence_steps_info
 1702              		.syntax unified
 1703              		.thumb
 1704              		.thumb_func
 1705              		.fpu fpv4-sp-d16
 1706              		.type	VL53L0X_get_sequence_steps_info, %function
 1707              	VL53L0X_get_sequence_steps_info:
 1708              	.LFB9:
ARM GAS  C:\Users\PCHAUT~1\AppData\Local\Temp\cct0c6Vd.s 			page 34


 1709              		.loc 1 383 0
 1710              		.cfi_startproc
 1711              		@ args = 0, pretend = 0, frame = 16
 1712              		@ frame_needed = 0, uses_anonymous_args = 0
 1713 0000 10B5     		push	{r4, lr}
 1714              		.cfi_def_cfa_offset 8
 1715              		.cfi_offset 4, -8
 1716              		.cfi_offset 14, -4
 1717 0002 84B0     		sub	sp, sp, #16
 1718              		.cfi_def_cfa_offset 24
 1719 0004 0346     		mov	r3, r0
 1720 0006 0091     		str	r1, [sp]
 1721 0008 8DF80730 		strb	r3, [sp, #7]
 1722              		.loc 1 383 0
 1723 000c 254B     		ldr	r3, .L111
 1724 000e 1B68     		ldr	r3, [r3]
 1725 0010 0393     		str	r3, [sp, #12]
 1726              		.loc 1 384 0
 1727 0012 0023     		movs	r3, #0
 1728 0014 8DF80B30 		strb	r3, [sp, #11]
 1729              		.loc 1 387 0
 1730 0018 9DF80730 		ldrb	r3, [sp, #7]	@ zero_extendqisi2
 1731 001c 042B     		cmp	r3, #4
 1732 001e 31D8     		bhi	.L101
 1733 0020 01A2     		adr	r2, .L103
 1734 0022 52F823F0 		ldr	pc, [r2, r3, lsl #2]
 1735 0026 00BF     		.p2align 2
 1736              	.L103:
 1737 0028 3D000000 		.word	.L102+1
 1738 002c 47000000 		.word	.L104+1
 1739 0030 51000000 		.word	.L105+1
 1740 0034 5F000000 		.word	.L106+1
 1741 0038 73000000 		.word	.L107+1
 1742              		.p2align 1
 1743              	.L102:
 1744              		.loc 1 389 0
 1745 003c 009B     		ldr	r3, [sp]
 1746 003e 1A4A     		ldr	r2, .L111+4
 1747 0040 1068     		ldr	r0, [r2]
 1748 0042 1860     		str	r0, [r3]	@ unaligned
 1749              		.loc 1 391 0
 1750 0044 21E0     		b	.L108
 1751              	.L104:
 1752              		.loc 1 393 0
 1753 0046 009B     		ldr	r3, [sp]
 1754 0048 184A     		ldr	r2, .L111+8
 1755 004a 1068     		ldr	r0, [r2]
 1756 004c 1860     		str	r0, [r3]	@ unaligned
 1757              		.loc 1 395 0
 1758 004e 1CE0     		b	.L108
 1759              	.L105:
 1760              		.loc 1 397 0
 1761 0050 009B     		ldr	r3, [sp]
 1762 0052 174A     		ldr	r2, .L111+12
 1763 0054 1068     		ldr	r0, [r2]
 1764 0056 1860     		str	r0, [r3]	@ unaligned
 1765 0058 1279     		ldrb	r2, [r2, #4]
ARM GAS  C:\Users\PCHAUT~1\AppData\Local\Temp\cct0c6Vd.s 			page 35


 1766 005a 1A71     		strb	r2, [r3, #4]
 1767              		.loc 1 399 0
 1768 005c 15E0     		b	.L108
 1769              	.L106:
 1770              		.loc 1 401 0
 1771 005e 009B     		ldr	r3, [sp]
 1772 0060 1449     		ldr	r1, .L111+16
 1773 0062 1A46     		mov	r2, r3
 1774 0064 0B46     		mov	r3, r1
 1775 0066 03CB     		ldmia	r3!, {r0, r1}
 1776 0068 1060     		str	r0, [r2]	@ unaligned
 1777 006a 5160     		str	r1, [r2, #4]	@ unaligned
 1778 006c 1B88     		ldrh	r3, [r3]	@ unaligned
 1779 006e 1381     		strh	r3, [r2, #8]	@ unaligned
 1780              		.loc 1 403 0
 1781 0070 0BE0     		b	.L108
 1782              	.L107:
 1783              		.loc 1 405 0
 1784 0072 009B     		ldr	r3, [sp]
 1785 0074 104A     		ldr	r2, .L111+20
 1786 0076 1C46     		mov	r4, r3
 1787 0078 1346     		mov	r3, r2
 1788 007a 07CB     		ldmia	r3!, {r0, r1, r2}
 1789 007c 2060     		str	r0, [r4]	@ unaligned
 1790 007e 6160     		str	r1, [r4, #4]	@ unaligned
 1791 0080 A260     		str	r2, [r4, #8]	@ unaligned
 1792              		.loc 1 407 0
 1793 0082 02E0     		b	.L108
 1794              	.L101:
 1795              		.loc 1 410 0
 1796 0084 FC23     		movs	r3, #252
 1797 0086 8DF80B30 		strb	r3, [sp, #11]
 1798              	.L108:
 1799              		.loc 1 415 0
 1800 008a 9DF90B30 		ldrsb	r3, [sp, #11]
 1801              		.loc 1 416 0
 1802 008e 1846     		mov	r0, r3
 1803 0090 044B     		ldr	r3, .L111
 1804 0092 039A     		ldr	r2, [sp, #12]
 1805 0094 1B68     		ldr	r3, [r3]
 1806 0096 9A42     		cmp	r2, r3
 1807 0098 01D0     		beq	.L110
 1808 009a FFF7FEFF 		bl	__stack_chk_fail
 1809              	.L110:
 1810 009e 04B0     		add	sp, sp, #16
 1811              		.cfi_def_cfa_offset 8
 1812              		@ sp needed
 1813 00a0 10BD     		pop	{r4, pc}
 1814              	.L112:
 1815 00a2 00BF     		.align	2
 1816              	.L111:
 1817 00a4 00000000 		.word	__stack_chk_guard
 1818 00a8 FC030000 		.word	.LC52
 1819 00ac 00040000 		.word	.LC53
 1820 00b0 04040000 		.word	.LC54
 1821 00b4 0C040000 		.word	.LC55
 1822 00b8 18040000 		.word	.LC56
ARM GAS  C:\Users\PCHAUT~1\AppData\Local\Temp\cct0c6Vd.s 			page 36


 1823              		.cfi_endproc
 1824              	.LFE9:
 1825              		.size	VL53L0X_get_sequence_steps_info, .-VL53L0X_get_sequence_steps_info
 1826              		.section	.rodata
 1827              		.align	2
 1828              	.LC57:
 1829 0424 5349474D 		.ascii	"SIGMA FINAL RANGE\000"
 1829      41204649 
 1829      4E414C20 
 1829      52414E47 
 1829      4500
 1830 0436 0000     		.align	2
 1831              	.LC58:
 1832 0438 5349474E 		.ascii	"SIGNAL RATE FINAL RANGE\000"
 1832      414C2052 
 1832      41544520 
 1832      46494E41 
 1832      4C205241 
 1833              		.align	2
 1834              	.LC59:
 1835 0450 5349474E 		.ascii	"SIGNAL REF CLIP\000"
 1835      414C2052 
 1835      45462043 
 1835      4C495000 
 1836              		.align	2
 1837              	.LC60:
 1838 0460 52414E47 		.ascii	"RANGE IGNORE THRESHOLD\000"
 1838      45204947 
 1838      4E4F5245 
 1838      20544852 
 1838      4553484F 
 1839 0477 00       		.align	2
 1840              	.LC61:
 1841 0478 5349474E 		.ascii	"SIGNAL RATE MSRC\000"
 1841      414C2052 
 1841      41544520 
 1841      4D535243 
 1841      00
 1842 0489 000000   		.align	2
 1843              	.LC62:
 1844 048c 5349474E 		.ascii	"SIGNAL RATE PRE RANGE\000"
 1844      414C2052 
 1844      41544520 
 1844      50524520 
 1844      52414E47 
 1845              		.section	.text.VL53L0X_get_limit_check_info,"ax",%progbits
 1846              		.align	1
 1847              		.p2align 4,,15
 1848              		.global	VL53L0X_get_limit_check_info
 1849              		.syntax unified
 1850              		.thumb
 1851              		.thumb_func
 1852              		.fpu fpv4-sp-d16
 1853              		.type	VL53L0X_get_limit_check_info, %function
 1854              	VL53L0X_get_limit_check_info:
 1855              	.LFB10:
 1856              		.loc 1 421 0
ARM GAS  C:\Users\PCHAUT~1\AppData\Local\Temp\cct0c6Vd.s 			page 37


 1857              		.cfi_startproc
 1858              		@ args = 0, pretend = 0, frame = 24
 1859              		@ frame_needed = 0, uses_anonymous_args = 0
 1860 0000 30B5     		push	{r4, r5, lr}
 1861              		.cfi_def_cfa_offset 12
 1862              		.cfi_offset 4, -12
 1863              		.cfi_offset 5, -8
 1864              		.cfi_offset 14, -4
 1865 0002 87B0     		sub	sp, sp, #28
 1866              		.cfi_def_cfa_offset 40
 1867 0004 0390     		str	r0, [sp, #12]
 1868 0006 0B46     		mov	r3, r1
 1869 0008 0192     		str	r2, [sp, #4]
 1870 000a ADF80A30 		strh	r3, [sp, #10]	@ movhi
 1871              		.loc 1 421 0
 1872 000e 404B     		ldr	r3, .L125
 1873 0010 1B68     		ldr	r3, [r3]
 1874 0012 0593     		str	r3, [sp, #20]
 1875              		.loc 1 423 0
 1876 0014 0023     		movs	r3, #0
 1877 0016 8DF81330 		strb	r3, [sp, #19]
 1878              		.loc 1 427 0
 1879 001a BDF80A30 		ldrh	r3, [sp, #10]
 1880 001e 052B     		cmp	r3, #5
 1881 0020 5CD8     		bhi	.L114
 1882 0022 01A2     		adr	r2, .L116
 1883 0024 52F823F0 		ldr	pc, [r2, r3, lsl #2]
 1884              		.p2align 2
 1885              	.L116:
 1886 0028 41000000 		.word	.L115+1
 1887 002c 59000000 		.word	.L117+1
 1888 0030 73000000 		.word	.L118+1
 1889 0034 87000000 		.word	.L119+1
 1890 0038 A9000000 		.word	.L120+1
 1891 003c C1000000 		.word	.L121+1
 1892              		.p2align 1
 1893              	.L115:
 1894              		.loc 1 429 0
 1895 0040 019B     		ldr	r3, [sp, #4]
 1896 0042 344A     		ldr	r2, .L125+4
 1897 0044 1D46     		mov	r5, r3
 1898 0046 1446     		mov	r4, r2
 1899 0048 0FCC     		ldmia	r4!, {r0, r1, r2, r3}
 1900 004a 2860     		str	r0, [r5]	@ unaligned
 1901 004c 6960     		str	r1, [r5, #4]	@ unaligned
 1902 004e AA60     		str	r2, [r5, #8]	@ unaligned
 1903 0050 EB60     		str	r3, [r5, #12]	@ unaligned
 1904 0052 2388     		ldrh	r3, [r4]	@ unaligned
 1905 0054 2B82     		strh	r3, [r5, #16]	@ unaligned
 1906              		.loc 1 431 0
 1907 0056 4FE0     		b	.L122
 1908              	.L117:
 1909              		.loc 1 433 0
 1910 0058 019B     		ldr	r3, [sp, #4]
 1911 005a 2F4A     		ldr	r2, .L125+8
 1912 005c 1D46     		mov	r5, r3
 1913 005e 1446     		mov	r4, r2
ARM GAS  C:\Users\PCHAUT~1\AppData\Local\Temp\cct0c6Vd.s 			page 38


 1914 0060 0FCC     		ldmia	r4!, {r0, r1, r2, r3}
 1915 0062 2860     		str	r0, [r5]	@ unaligned
 1916 0064 6960     		str	r1, [r5, #4]	@ unaligned
 1917 0066 AA60     		str	r2, [r5, #8]	@ unaligned
 1918 0068 EB60     		str	r3, [r5, #12]	@ unaligned
 1919 006a 03CC     		ldmia	r4!, {r0, r1}
 1920 006c 2861     		str	r0, [r5, #16]	@ unaligned
 1921 006e 6961     		str	r1, [r5, #20]	@ unaligned
 1922              		.loc 1 435 0
 1923 0070 42E0     		b	.L122
 1924              	.L118:
 1925              		.loc 1 437 0
 1926 0072 019B     		ldr	r3, [sp, #4]
 1927 0074 294A     		ldr	r2, .L125+12
 1928 0076 1C46     		mov	r4, r3
 1929 0078 1546     		mov	r5, r2
 1930 007a 0FCD     		ldmia	r5!, {r0, r1, r2, r3}
 1931 007c 2060     		str	r0, [r4]	@ unaligned
 1932 007e 6160     		str	r1, [r4, #4]	@ unaligned
 1933 0080 A260     		str	r2, [r4, #8]	@ unaligned
 1934 0082 E360     		str	r3, [r4, #12]	@ unaligned
 1935              		.loc 1 439 0
 1936 0084 38E0     		b	.L122
 1937              	.L119:
 1938              		.loc 1 441 0
 1939 0086 019B     		ldr	r3, [sp, #4]
 1940 0088 254A     		ldr	r2, .L125+16
 1941 008a 1C46     		mov	r4, r3
 1942 008c 1546     		mov	r5, r2
 1943 008e 0FCD     		ldmia	r5!, {r0, r1, r2, r3}
 1944 0090 2060     		str	r0, [r4]	@ unaligned
 1945 0092 6160     		str	r1, [r4, #4]	@ unaligned
 1946 0094 A260     		str	r2, [r4, #8]	@ unaligned
 1947 0096 E360     		str	r3, [r4, #12]	@ unaligned
 1948 0098 2868     		ldr	r0, [r5]
 1949 009a 2061     		str	r0, [r4, #16]	@ unaligned
 1950 009c AB88     		ldrh	r3, [r5, #4]	@ unaligned
 1951 009e AA79     		ldrb	r2, [r5, #6]
 1952 00a0 A382     		strh	r3, [r4, #20]	@ unaligned
 1953 00a2 1346     		mov	r3, r2
 1954 00a4 A375     		strb	r3, [r4, #22]
 1955              		.loc 1 443 0
 1956 00a6 27E0     		b	.L122
 1957              	.L120:
 1958              		.loc 1 446 0
 1959 00a8 019B     		ldr	r3, [sp, #4]
 1960 00aa 1E4A     		ldr	r2, .L125+20
 1961 00ac 1D46     		mov	r5, r3
 1962 00ae 1446     		mov	r4, r2
 1963 00b0 0FCC     		ldmia	r4!, {r0, r1, r2, r3}
 1964 00b2 2860     		str	r0, [r5]	@ unaligned
 1965 00b4 6960     		str	r1, [r5, #4]	@ unaligned
 1966 00b6 AA60     		str	r2, [r5, #8]	@ unaligned
 1967 00b8 EB60     		str	r3, [r5, #12]	@ unaligned
 1968 00ba 2378     		ldrb	r3, [r4]
 1969 00bc 2B74     		strb	r3, [r5, #16]
 1970              		.loc 1 448 0
ARM GAS  C:\Users\PCHAUT~1\AppData\Local\Temp\cct0c6Vd.s 			page 39


 1971 00be 1BE0     		b	.L122
 1972              	.L121:
 1973              		.loc 1 451 0
 1974 00c0 019B     		ldr	r3, [sp, #4]
 1975 00c2 194A     		ldr	r2, .L125+24
 1976 00c4 1D46     		mov	r5, r3
 1977 00c6 1446     		mov	r4, r2
 1978 00c8 0FCC     		ldmia	r4!, {r0, r1, r2, r3}
 1979 00ca 2860     		str	r0, [r5]	@ unaligned
 1980 00cc 6960     		str	r1, [r5, #4]	@ unaligned
 1981 00ce AA60     		str	r2, [r5, #8]	@ unaligned
 1982 00d0 EB60     		str	r3, [r5, #12]	@ unaligned
 1983 00d2 2068     		ldr	r0, [r4]
 1984 00d4 2861     		str	r0, [r5, #16]	@ unaligned
 1985 00d6 A388     		ldrh	r3, [r4, #4]	@ unaligned
 1986 00d8 AB82     		strh	r3, [r5, #20]	@ unaligned
 1987              		.loc 1 453 0
 1988 00da 0DE0     		b	.L122
 1989              	.L114:
 1990              		.loc 1 456 0
 1991 00dc 019B     		ldr	r3, [sp, #4]
 1992 00de 134A     		ldr	r2, .L125+28
 1993 00e0 1D46     		mov	r5, r3
 1994 00e2 1446     		mov	r4, r2
 1995 00e4 0FCC     		ldmia	r4!, {r0, r1, r2, r3}
 1996 00e6 2860     		str	r0, [r5]	@ unaligned
 1997 00e8 6960     		str	r1, [r5, #4]	@ unaligned
 1998 00ea AA60     		str	r2, [r5, #8]	@ unaligned
 1999 00ec EB60     		str	r3, [r5, #12]	@ unaligned
 2000 00ee 2388     		ldrh	r3, [r4]	@ unaligned
 2001 00f0 A278     		ldrb	r2, [r4, #2]
 2002 00f2 2B82     		strh	r3, [r5, #16]	@ unaligned
 2003 00f4 1346     		mov	r3, r2
 2004 00f6 AB74     		strb	r3, [r5, #18]
 2005              	.L122:
 2006              		.loc 1 462 0
 2007 00f8 9DF91330 		ldrsb	r3, [sp, #19]
 2008              		.loc 1 463 0
 2009 00fc 1846     		mov	r0, r3
 2010 00fe 044B     		ldr	r3, .L125
 2011 0100 059A     		ldr	r2, [sp, #20]
 2012 0102 1B68     		ldr	r3, [r3]
 2013 0104 9A42     		cmp	r2, r3
 2014 0106 01D0     		beq	.L124
 2015 0108 FFF7FEFF 		bl	__stack_chk_fail
 2016              	.L124:
 2017 010c 07B0     		add	sp, sp, #28
 2018              		.cfi_def_cfa_offset 12
 2019              		@ sp needed
 2020 010e 30BD     		pop	{r4, r5, pc}
 2021              	.L126:
 2022              		.align	2
 2023              	.L125:
 2024 0110 00000000 		.word	__stack_chk_guard
 2025 0114 24040000 		.word	.LC57
 2026 0118 38040000 		.word	.LC58
 2027 011c 50040000 		.word	.LC59
ARM GAS  C:\Users\PCHAUT~1\AppData\Local\Temp\cct0c6Vd.s 			page 40


 2028 0120 60040000 		.word	.LC60
 2029 0124 78040000 		.word	.LC61
 2030 0128 8C040000 		.word	.LC62
 2031 012c 98010000 		.word	.LC20
 2032              		.cfi_endproc
 2033              	.LFE10:
 2034              		.size	VL53L0X_get_limit_check_info, .-VL53L0X_get_limit_check_info
 2035              		.text
 2036              	.Letext0:
 2037              		.file 2 "c:\\users\\pchautems\\documents\\robotiquetp\\eclipse_e-puck2\\tools\\gcc-arm-none-eabi-7
 2038              		.file 3 "c:\\users\\pchautems\\documents\\robotiquetp\\eclipse_e-puck2\\tools\\gcc-arm-none-eabi-7
 2039              		.file 4 "../lib/e-puck2_main-processor/src/sensors/VL53L0X/Api/core/src/../inc/vl53l0x_types.h"
 2040              		.file 5 "../lib/e-puck2_main-processor/src/sensors/VL53L0X/Api/core/src/../inc/vl53l0x_device.h"
 2041              		.file 6 "../lib/e-puck2_main-processor/src/sensors/VL53L0X/Api/core/src/../inc/vl53l0x_def.h"
 2042              		.file 7 "c:\\users\\pchautems\\documents\\robotiquetp\\eclipse_e-puck2\\tools\\gcc-arm-none-eabi-7
 2043              		.file 8 "c:\\users\\pchautems\\documents\\robotiquetp\\eclipse_e-puck2\\tools\\gcc-arm-none-eabi-7
 2044              		.file 9 "c:\\users\\pchautems\\documents\\robotiquetp\\eclipse_e-puck2\\tools\\gcc-arm-none-eabi-7
 2045              		.file 10 "c:\\users\\pchautems\\documents\\robotiquetp\\eclipse_e-puck2\\tools\\gcc-arm-none-eabi-
 2046              		.file 11 "../lib/e-puck2_main-processor/src/sensors/VL53L0X/Api/core/src/../inc/../../platform/inc
 2047              		.file 12 "c:\\users\\pchautems\\documents\\robotiquetp\\eclipse_e-puck2\\tools\\gcc-arm-none-eabi-