ARM GAS  C:\Users\PCHAUT~1\AppData\Local\Temp\ccZvjaUR.s 			page 1


   1              		.cpu cortex-m4
   2              		.eabi_attribute 27, 1
   3              		.eabi_attribute 28, 1
   4              		.eabi_attribute 20, 1
   5              		.eabi_attribute 21, 1
   6              		.eabi_attribute 23, 3
   7              		.eabi_attribute 24, 1
   8              		.eabi_attribute 25, 1
   9              		.eabi_attribute 26, 1
  10              		.eabi_attribute 30, 6
  11              		.eabi_attribute 34, 1
  12              		.eabi_attribute 18, 4
  13              		.file	"vl53l0x_api.c"
  14              		.text
  15              	.Ltext0:
  16              		.cfi_sections	.debug_frame
  17              		.global	DefaultTuningSettings
  18              		.section	.data.DefaultTuningSettings,"aw",%progbits
  19              		.align	2
  20              		.type	DefaultTuningSettings, %object
  21              		.size	DefaultTuningSettings, 243
  22              	DefaultTuningSettings:
  23 0000 01       		.byte	1
  24 0001 FF       		.byte	-1
  25 0002 01       		.byte	1
  26 0003 01       		.byte	1
  27 0004 00       		.byte	0
  28 0005 00       		.byte	0
  29 0006 01       		.byte	1
  30 0007 FF       		.byte	-1
  31 0008 00       		.byte	0
  32 0009 01       		.byte	1
  33 000a 09       		.byte	9
  34 000b 00       		.byte	0
  35 000c 01       		.byte	1
  36 000d 10       		.byte	16
  37 000e 00       		.byte	0
  38 000f 01       		.byte	1
  39 0010 11       		.byte	17
  40 0011 00       		.byte	0
  41 0012 01       		.byte	1
  42 0013 24       		.byte	36
  43 0014 01       		.byte	1
  44 0015 01       		.byte	1
  45 0016 25       		.byte	37
  46 0017 FF       		.byte	-1
  47 0018 01       		.byte	1
  48 0019 75       		.byte	117
  49 001a 00       		.byte	0
  50 001b 01       		.byte	1
  51 001c FF       		.byte	-1
  52 001d 01       		.byte	1
  53 001e 01       		.byte	1
  54 001f 4E       		.byte	78
  55 0020 2C       		.byte	44
  56 0021 01       		.byte	1
  57 0022 48       		.byte	72
ARM GAS  C:\Users\PCHAUT~1\AppData\Local\Temp\ccZvjaUR.s 			page 2


  58 0023 00       		.byte	0
  59 0024 01       		.byte	1
  60 0025 30       		.byte	48
  61 0026 20       		.byte	32
  62 0027 01       		.byte	1
  63 0028 FF       		.byte	-1
  64 0029 00       		.byte	0
  65 002a 01       		.byte	1
  66 002b 30       		.byte	48
  67 002c 09       		.byte	9
  68 002d 01       		.byte	1
  69 002e 54       		.byte	84
  70 002f 00       		.byte	0
  71 0030 01       		.byte	1
  72 0031 31       		.byte	49
  73 0032 04       		.byte	4
  74 0033 01       		.byte	1
  75 0034 32       		.byte	50
  76 0035 03       		.byte	3
  77 0036 01       		.byte	1
  78 0037 40       		.byte	64
  79 0038 83       		.byte	-125
  80 0039 01       		.byte	1
  81 003a 46       		.byte	70
  82 003b 25       		.byte	37
  83 003c 01       		.byte	1
  84 003d 60       		.byte	96
  85 003e 00       		.byte	0
  86 003f 01       		.byte	1
  87 0040 27       		.byte	39
  88 0041 00       		.byte	0
  89 0042 01       		.byte	1
  90 0043 50       		.byte	80
  91 0044 06       		.byte	6
  92 0045 01       		.byte	1
  93 0046 51       		.byte	81
  94 0047 00       		.byte	0
  95 0048 01       		.byte	1
  96 0049 52       		.byte	82
  97 004a 96       		.byte	-106
  98 004b 01       		.byte	1
  99 004c 56       		.byte	86
 100 004d 08       		.byte	8
 101 004e 01       		.byte	1
 102 004f 57       		.byte	87
 103 0050 30       		.byte	48
 104 0051 01       		.byte	1
 105 0052 61       		.byte	97
 106 0053 00       		.byte	0
 107 0054 01       		.byte	1
 108 0055 62       		.byte	98
 109 0056 00       		.byte	0
 110 0057 01       		.byte	1
 111 0058 64       		.byte	100
 112 0059 00       		.byte	0
 113 005a 01       		.byte	1
 114 005b 65       		.byte	101
ARM GAS  C:\Users\PCHAUT~1\AppData\Local\Temp\ccZvjaUR.s 			page 3


 115 005c 00       		.byte	0
 116 005d 01       		.byte	1
 117 005e 66       		.byte	102
 118 005f A0       		.byte	-96
 119 0060 01       		.byte	1
 120 0061 FF       		.byte	-1
 121 0062 01       		.byte	1
 122 0063 01       		.byte	1
 123 0064 22       		.byte	34
 124 0065 32       		.byte	50
 125 0066 01       		.byte	1
 126 0067 47       		.byte	71
 127 0068 14       		.byte	20
 128 0069 01       		.byte	1
 129 006a 49       		.byte	73
 130 006b FF       		.byte	-1
 131 006c 01       		.byte	1
 132 006d 4A       		.byte	74
 133 006e 00       		.byte	0
 134 006f 01       		.byte	1
 135 0070 FF       		.byte	-1
 136 0071 00       		.byte	0
 137 0072 01       		.byte	1
 138 0073 7A       		.byte	122
 139 0074 0A       		.byte	10
 140 0075 01       		.byte	1
 141 0076 7B       		.byte	123
 142 0077 00       		.byte	0
 143 0078 01       		.byte	1
 144 0079 78       		.byte	120
 145 007a 21       		.byte	33
 146 007b 01       		.byte	1
 147 007c FF       		.byte	-1
 148 007d 01       		.byte	1
 149 007e 01       		.byte	1
 150 007f 23       		.byte	35
 151 0080 34       		.byte	52
 152 0081 01       		.byte	1
 153 0082 42       		.byte	66
 154 0083 00       		.byte	0
 155 0084 01       		.byte	1
 156 0085 44       		.byte	68
 157 0086 FF       		.byte	-1
 158 0087 01       		.byte	1
 159 0088 45       		.byte	69
 160 0089 26       		.byte	38
 161 008a 01       		.byte	1
 162 008b 46       		.byte	70
 163 008c 05       		.byte	5
 164 008d 01       		.byte	1
 165 008e 40       		.byte	64
 166 008f 40       		.byte	64
 167 0090 01       		.byte	1
 168 0091 0E       		.byte	14
 169 0092 06       		.byte	6
 170 0093 01       		.byte	1
 171 0094 20       		.byte	32
ARM GAS  C:\Users\PCHAUT~1\AppData\Local\Temp\ccZvjaUR.s 			page 4


 172 0095 1A       		.byte	26
 173 0096 01       		.byte	1
 174 0097 43       		.byte	67
 175 0098 40       		.byte	64
 176 0099 01       		.byte	1
 177 009a FF       		.byte	-1
 178 009b 00       		.byte	0
 179 009c 01       		.byte	1
 180 009d 34       		.byte	52
 181 009e 03       		.byte	3
 182 009f 01       		.byte	1
 183 00a0 35       		.byte	53
 184 00a1 44       		.byte	68
 185 00a2 01       		.byte	1
 186 00a3 FF       		.byte	-1
 187 00a4 01       		.byte	1
 188 00a5 01       		.byte	1
 189 00a6 31       		.byte	49
 190 00a7 04       		.byte	4
 191 00a8 01       		.byte	1
 192 00a9 4B       		.byte	75
 193 00aa 09       		.byte	9
 194 00ab 01       		.byte	1
 195 00ac 4C       		.byte	76
 196 00ad 05       		.byte	5
 197 00ae 01       		.byte	1
 198 00af 4D       		.byte	77
 199 00b0 04       		.byte	4
 200 00b1 01       		.byte	1
 201 00b2 FF       		.byte	-1
 202 00b3 00       		.byte	0
 203 00b4 01       		.byte	1
 204 00b5 44       		.byte	68
 205 00b6 00       		.byte	0
 206 00b7 01       		.byte	1
 207 00b8 45       		.byte	69
 208 00b9 20       		.byte	32
 209 00ba 01       		.byte	1
 210 00bb 47       		.byte	71
 211 00bc 08       		.byte	8
 212 00bd 01       		.byte	1
 213 00be 48       		.byte	72
 214 00bf 28       		.byte	40
 215 00c0 01       		.byte	1
 216 00c1 67       		.byte	103
 217 00c2 00       		.byte	0
 218 00c3 01       		.byte	1
 219 00c4 70       		.byte	112
 220 00c5 04       		.byte	4
 221 00c6 01       		.byte	1
 222 00c7 71       		.byte	113
 223 00c8 01       		.byte	1
 224 00c9 01       		.byte	1
 225 00ca 72       		.byte	114
 226 00cb FE       		.byte	-2
 227 00cc 01       		.byte	1
 228 00cd 76       		.byte	118
ARM GAS  C:\Users\PCHAUT~1\AppData\Local\Temp\ccZvjaUR.s 			page 5


 229 00ce 00       		.byte	0
 230 00cf 01       		.byte	1
 231 00d0 77       		.byte	119
 232 00d1 00       		.byte	0
 233 00d2 01       		.byte	1
 234 00d3 FF       		.byte	-1
 235 00d4 01       		.byte	1
 236 00d5 01       		.byte	1
 237 00d6 0D       		.byte	13
 238 00d7 01       		.byte	1
 239 00d8 01       		.byte	1
 240 00d9 FF       		.byte	-1
 241 00da 00       		.byte	0
 242 00db 01       		.byte	1
 243 00dc 80       		.byte	-128
 244 00dd 01       		.byte	1
 245 00de 01       		.byte	1
 246 00df 01       		.byte	1
 247 00e0 F8       		.byte	-8
 248 00e1 01       		.byte	1
 249 00e2 FF       		.byte	-1
 250 00e3 01       		.byte	1
 251 00e4 01       		.byte	1
 252 00e5 8E       		.byte	-114
 253 00e6 01       		.byte	1
 254 00e7 01       		.byte	1
 255 00e8 00       		.byte	0
 256 00e9 01       		.byte	1
 257 00ea 01       		.byte	1
 258 00eb FF       		.byte	-1
 259 00ec 00       		.byte	0
 260 00ed 01       		.byte	1
 261 00ee 80       		.byte	-128
 262 00ef 00       		.byte	0
 263 00f0 00       		.byte	0
 264 00f1 00       		.byte	0
 265 00f2 00       		.byte	0
 266              		.global	InterruptThresholdSettings
 267              		.section	.data.InterruptThresholdSettings,"aw",%progbits
 268              		.align	2
 269              		.type	InterruptThresholdSettings, %object
 270              		.size	InterruptThresholdSettings, 438
 271              	InterruptThresholdSettings:
 272 0000 01       		.byte	1
 273 0001 FF       		.byte	-1
 274 0002 00       		.byte	0
 275 0003 01       		.byte	1
 276 0004 80       		.byte	-128
 277 0005 01       		.byte	1
 278 0006 01       		.byte	1
 279 0007 FF       		.byte	-1
 280 0008 01       		.byte	1
 281 0009 01       		.byte	1
 282 000a 00       		.byte	0
 283 000b 00       		.byte	0
 284 000c 01       		.byte	1
 285 000d FF       		.byte	-1
ARM GAS  C:\Users\PCHAUT~1\AppData\Local\Temp\ccZvjaUR.s 			page 6


 286 000e 01       		.byte	1
 287 000f 01       		.byte	1
 288 0010 4F       		.byte	79
 289 0011 02       		.byte	2
 290 0012 01       		.byte	1
 291 0013 FF       		.byte	-1
 292 0014 0E       		.byte	14
 293 0015 01       		.byte	1
 294 0016 00       		.byte	0
 295 0017 03       		.byte	3
 296 0018 01       		.byte	1
 297 0019 01       		.byte	1
 298 001a 84       		.byte	-124
 299 001b 01       		.byte	1
 300 001c 02       		.byte	2
 301 001d 0A       		.byte	10
 302 001e 01       		.byte	1
 303 001f 03       		.byte	3
 304 0020 03       		.byte	3
 305 0021 01       		.byte	1
 306 0022 04       		.byte	4
 307 0023 08       		.byte	8
 308 0024 01       		.byte	1
 309 0025 05       		.byte	5
 310 0026 C8       		.byte	-56
 311 0027 01       		.byte	1
 312 0028 06       		.byte	6
 313 0029 03       		.byte	3
 314 002a 01       		.byte	1
 315 002b 07       		.byte	7
 316 002c 8D       		.byte	-115
 317 002d 01       		.byte	1
 318 002e 08       		.byte	8
 319 002f 08       		.byte	8
 320 0030 01       		.byte	1
 321 0031 09       		.byte	9
 322 0032 C6       		.byte	-58
 323 0033 01       		.byte	1
 324 0034 0A       		.byte	10
 325 0035 01       		.byte	1
 326 0036 01       		.byte	1
 327 0037 0B       		.byte	11
 328 0038 02       		.byte	2
 329 0039 01       		.byte	1
 330 003a 0C       		.byte	12
 331 003b 00       		.byte	0
 332 003c 01       		.byte	1
 333 003d 0D       		.byte	13
 334 003e D5       		.byte	-43
 335 003f 01       		.byte	1
 336 0040 0E       		.byte	14
 337 0041 18       		.byte	24
 338 0042 01       		.byte	1
 339 0043 0F       		.byte	15
 340 0044 12       		.byte	18
 341 0045 01       		.byte	1
 342 0046 10       		.byte	16
ARM GAS  C:\Users\PCHAUT~1\AppData\Local\Temp\ccZvjaUR.s 			page 7


 343 0047 01       		.byte	1
 344 0048 01       		.byte	1
 345 0049 11       		.byte	17
 346 004a 82       		.byte	-126
 347 004b 01       		.byte	1
 348 004c 12       		.byte	18
 349 004d 00       		.byte	0
 350 004e 01       		.byte	1
 351 004f 13       		.byte	19
 352 0050 D5       		.byte	-43
 353 0051 01       		.byte	1
 354 0052 14       		.byte	20
 355 0053 18       		.byte	24
 356 0054 01       		.byte	1
 357 0055 15       		.byte	21
 358 0056 13       		.byte	19
 359 0057 01       		.byte	1
 360 0058 16       		.byte	22
 361 0059 03       		.byte	3
 362 005a 01       		.byte	1
 363 005b 17       		.byte	23
 364 005c 86       		.byte	-122
 365 005d 01       		.byte	1
 366 005e 18       		.byte	24
 367 005f 0A       		.byte	10
 368 0060 01       		.byte	1
 369 0061 19       		.byte	25
 370 0062 09       		.byte	9
 371 0063 01       		.byte	1
 372 0064 1A       		.byte	26
 373 0065 08       		.byte	8
 374 0066 01       		.byte	1
 375 0067 1B       		.byte	27
 376 0068 C2       		.byte	-62
 377 0069 01       		.byte	1
 378 006a 1C       		.byte	28
 379 006b 03       		.byte	3
 380 006c 01       		.byte	1
 381 006d 1D       		.byte	29
 382 006e 8F       		.byte	-113
 383 006f 01       		.byte	1
 384 0070 1E       		.byte	30
 385 0071 0A       		.byte	10
 386 0072 01       		.byte	1
 387 0073 1F       		.byte	31
 388 0074 06       		.byte	6
 389 0075 01       		.byte	1
 390 0076 20       		.byte	32
 391 0077 01       		.byte	1
 392 0078 01       		.byte	1
 393 0079 21       		.byte	33
 394 007a 02       		.byte	2
 395 007b 01       		.byte	1
 396 007c 22       		.byte	34
 397 007d 00       		.byte	0
 398 007e 01       		.byte	1
 399 007f 23       		.byte	35
ARM GAS  C:\Users\PCHAUT~1\AppData\Local\Temp\ccZvjaUR.s 			page 8


 400 0080 D5       		.byte	-43
 401 0081 01       		.byte	1
 402 0082 24       		.byte	36
 403 0083 18       		.byte	24
 404 0084 01       		.byte	1
 405 0085 25       		.byte	37
 406 0086 22       		.byte	34
 407 0087 01       		.byte	1
 408 0088 26       		.byte	38
 409 0089 01       		.byte	1
 410 008a 01       		.byte	1
 411 008b 27       		.byte	39
 412 008c 82       		.byte	-126
 413 008d 01       		.byte	1
 414 008e 28       		.byte	40
 415 008f 00       		.byte	0
 416 0090 01       		.byte	1
 417 0091 29       		.byte	41
 418 0092 D5       		.byte	-43
 419 0093 01       		.byte	1
 420 0094 2A       		.byte	42
 421 0095 18       		.byte	24
 422 0096 01       		.byte	1
 423 0097 2B       		.byte	43
 424 0098 0B       		.byte	11
 425 0099 01       		.byte	1
 426 009a 2C       		.byte	44
 427 009b 28       		.byte	40
 428 009c 01       		.byte	1
 429 009d 2D       		.byte	45
 430 009e 78       		.byte	120
 431 009f 01       		.byte	1
 432 00a0 2E       		.byte	46
 433 00a1 28       		.byte	40
 434 00a2 01       		.byte	1
 435 00a3 2F       		.byte	47
 436 00a4 91       		.byte	-111
 437 00a5 01       		.byte	1
 438 00a6 30       		.byte	48
 439 00a7 00       		.byte	0
 440 00a8 01       		.byte	1
 441 00a9 31       		.byte	49
 442 00aa 0B       		.byte	11
 443 00ab 01       		.byte	1
 444 00ac 32       		.byte	50
 445 00ad 00       		.byte	0
 446 00ae 01       		.byte	1
 447 00af 33       		.byte	51
 448 00b0 0B       		.byte	11
 449 00b1 01       		.byte	1
 450 00b2 34       		.byte	52
 451 00b3 00       		.byte	0
 452 00b4 01       		.byte	1
 453 00b5 35       		.byte	53
 454 00b6 A1       		.byte	-95
 455 00b7 01       		.byte	1
 456 00b8 36       		.byte	54
ARM GAS  C:\Users\PCHAUT~1\AppData\Local\Temp\ccZvjaUR.s 			page 9


 457 00b9 00       		.byte	0
 458 00ba 01       		.byte	1
 459 00bb 37       		.byte	55
 460 00bc A0       		.byte	-96
 461 00bd 01       		.byte	1
 462 00be 38       		.byte	56
 463 00bf 00       		.byte	0
 464 00c0 01       		.byte	1
 465 00c1 39       		.byte	57
 466 00c2 04       		.byte	4
 467 00c3 01       		.byte	1
 468 00c4 3A       		.byte	58
 469 00c5 28       		.byte	40
 470 00c6 01       		.byte	1
 471 00c7 3B       		.byte	59
 472 00c8 30       		.byte	48
 473 00c9 01       		.byte	1
 474 00ca 3C       		.byte	60
 475 00cb 0C       		.byte	12
 476 00cc 01       		.byte	1
 477 00cd 3D       		.byte	61
 478 00ce 04       		.byte	4
 479 00cf 01       		.byte	1
 480 00d0 3E       		.byte	62
 481 00d1 0F       		.byte	15
 482 00d2 01       		.byte	1
 483 00d3 3F       		.byte	63
 484 00d4 79       		.byte	121
 485 00d5 01       		.byte	1
 486 00d6 40       		.byte	64
 487 00d7 28       		.byte	40
 488 00d8 01       		.byte	1
 489 00d9 41       		.byte	65
 490 00da 1E       		.byte	30
 491 00db 01       		.byte	1
 492 00dc 42       		.byte	66
 493 00dd 2F       		.byte	47
 494 00de 01       		.byte	1
 495 00df 43       		.byte	67
 496 00e0 87       		.byte	-121
 497 00e1 01       		.byte	1
 498 00e2 44       		.byte	68
 499 00e3 00       		.byte	0
 500 00e4 01       		.byte	1
 501 00e5 45       		.byte	69
 502 00e6 0B       		.byte	11
 503 00e7 01       		.byte	1
 504 00e8 46       		.byte	70
 505 00e9 00       		.byte	0
 506 00ea 01       		.byte	1
 507 00eb 47       		.byte	71
 508 00ec 0B       		.byte	11
 509 00ed 01       		.byte	1
 510 00ee 48       		.byte	72
 511 00ef 00       		.byte	0
 512 00f0 01       		.byte	1
 513 00f1 49       		.byte	73
ARM GAS  C:\Users\PCHAUT~1\AppData\Local\Temp\ccZvjaUR.s 			page 10


 514 00f2 A7       		.byte	-89
 515 00f3 01       		.byte	1
 516 00f4 4A       		.byte	74
 517 00f5 00       		.byte	0
 518 00f6 01       		.byte	1
 519 00f7 4B       		.byte	75
 520 00f8 A6       		.byte	-90
 521 00f9 01       		.byte	1
 522 00fa 4C       		.byte	76
 523 00fb 00       		.byte	0
 524 00fc 01       		.byte	1
 525 00fd 4D       		.byte	77
 526 00fe 04       		.byte	4
 527 00ff 01       		.byte	1
 528 0100 4E       		.byte	78
 529 0101 01       		.byte	1
 530 0102 01       		.byte	1
 531 0103 4F       		.byte	79
 532 0104 00       		.byte	0
 533 0105 01       		.byte	1
 534 0106 50       		.byte	80
 535 0107 00       		.byte	0
 536 0108 01       		.byte	1
 537 0109 51       		.byte	81
 538 010a 80       		.byte	-128
 539 010b 01       		.byte	1
 540 010c 52       		.byte	82
 541 010d 09       		.byte	9
 542 010e 01       		.byte	1
 543 010f 53       		.byte	83
 544 0110 08       		.byte	8
 545 0111 01       		.byte	1
 546 0112 54       		.byte	84
 547 0113 01       		.byte	1
 548 0114 01       		.byte	1
 549 0115 55       		.byte	85
 550 0116 00       		.byte	0
 551 0117 01       		.byte	1
 552 0118 56       		.byte	86
 553 0119 0F       		.byte	15
 554 011a 01       		.byte	1
 555 011b 57       		.byte	87
 556 011c 79       		.byte	121
 557 011d 01       		.byte	1
 558 011e 58       		.byte	88
 559 011f 09       		.byte	9
 560 0120 01       		.byte	1
 561 0121 59       		.byte	89
 562 0122 05       		.byte	5
 563 0123 01       		.byte	1
 564 0124 5A       		.byte	90
 565 0125 00       		.byte	0
 566 0126 01       		.byte	1
 567 0127 5B       		.byte	91
 568 0128 60       		.byte	96
 569 0129 01       		.byte	1
 570 012a 5C       		.byte	92
ARM GAS  C:\Users\PCHAUT~1\AppData\Local\Temp\ccZvjaUR.s 			page 11


 571 012b 05       		.byte	5
 572 012c 01       		.byte	1
 573 012d 5D       		.byte	93
 574 012e D1       		.byte	-47
 575 012f 01       		.byte	1
 576 0130 5E       		.byte	94
 577 0131 0C       		.byte	12
 578 0132 01       		.byte	1
 579 0133 5F       		.byte	95
 580 0134 3C       		.byte	60
 581 0135 01       		.byte	1
 582 0136 60       		.byte	96
 583 0137 00       		.byte	0
 584 0138 01       		.byte	1
 585 0139 61       		.byte	97
 586 013a D0       		.byte	-48
 587 013b 01       		.byte	1
 588 013c 62       		.byte	98
 589 013d 0B       		.byte	11
 590 013e 01       		.byte	1
 591 013f 63       		.byte	99
 592 0140 03       		.byte	3
 593 0141 01       		.byte	1
 594 0142 64       		.byte	100
 595 0143 28       		.byte	40
 596 0144 01       		.byte	1
 597 0145 65       		.byte	101
 598 0146 10       		.byte	16
 599 0147 01       		.byte	1
 600 0148 66       		.byte	102
 601 0149 2A       		.byte	42
 602 014a 01       		.byte	1
 603 014b 67       		.byte	103
 604 014c 39       		.byte	57
 605 014d 01       		.byte	1
 606 014e 68       		.byte	104
 607 014f 0B       		.byte	11
 608 0150 01       		.byte	1
 609 0151 69       		.byte	105
 610 0152 02       		.byte	2
 611 0153 01       		.byte	1
 612 0154 6A       		.byte	106
 613 0155 28       		.byte	40
 614 0156 01       		.byte	1
 615 0157 6B       		.byte	107
 616 0158 10       		.byte	16
 617 0159 01       		.byte	1
 618 015a 6C       		.byte	108
 619 015b 2A       		.byte	42
 620 015c 01       		.byte	1
 621 015d 6D       		.byte	109
 622 015e 61       		.byte	97
 623 015f 01       		.byte	1
 624 0160 6E       		.byte	110
 625 0161 0C       		.byte	12
 626 0162 01       		.byte	1
 627 0163 6F       		.byte	111
ARM GAS  C:\Users\PCHAUT~1\AppData\Local\Temp\ccZvjaUR.s 			page 12


 628 0164 00       		.byte	0
 629 0165 01       		.byte	1
 630 0166 70       		.byte	112
 631 0167 0F       		.byte	15
 632 0168 01       		.byte	1
 633 0169 71       		.byte	113
 634 016a 79       		.byte	121
 635 016b 01       		.byte	1
 636 016c 72       		.byte	114
 637 016d 00       		.byte	0
 638 016e 01       		.byte	1
 639 016f 73       		.byte	115
 640 0170 0B       		.byte	11
 641 0171 01       		.byte	1
 642 0172 74       		.byte	116
 643 0173 00       		.byte	0
 644 0174 01       		.byte	1
 645 0175 75       		.byte	117
 646 0176 0B       		.byte	11
 647 0177 01       		.byte	1
 648 0178 76       		.byte	118
 649 0179 00       		.byte	0
 650 017a 01       		.byte	1
 651 017b 77       		.byte	119
 652 017c A1       		.byte	-95
 653 017d 01       		.byte	1
 654 017e 78       		.byte	120
 655 017f 00       		.byte	0
 656 0180 01       		.byte	1
 657 0181 79       		.byte	121
 658 0182 A0       		.byte	-96
 659 0183 01       		.byte	1
 660 0184 7A       		.byte	122
 661 0185 00       		.byte	0
 662 0186 01       		.byte	1
 663 0187 7B       		.byte	123
 664 0188 04       		.byte	4
 665 0189 01       		.byte	1
 666 018a FF       		.byte	-1
 667 018b 04       		.byte	4
 668 018c 01       		.byte	1
 669 018d 79       		.byte	121
 670 018e 1D       		.byte	29
 671 018f 01       		.byte	1
 672 0190 7B       		.byte	123
 673 0191 27       		.byte	39
 674 0192 01       		.byte	1
 675 0193 96       		.byte	-106
 676 0194 0E       		.byte	14
 677 0195 01       		.byte	1
 678 0196 97       		.byte	-105
 679 0197 FE       		.byte	-2
 680 0198 01       		.byte	1
 681 0199 98       		.byte	-104
 682 019a 03       		.byte	3
 683 019b 01       		.byte	1
 684 019c 99       		.byte	-103
ARM GAS  C:\Users\PCHAUT~1\AppData\Local\Temp\ccZvjaUR.s 			page 13


 685 019d EF       		.byte	-17
 686 019e 01       		.byte	1
 687 019f 9A       		.byte	-102
 688 01a0 02       		.byte	2
 689 01a1 01       		.byte	1
 690 01a2 9B       		.byte	-101
 691 01a3 44       		.byte	68
 692 01a4 01       		.byte	1
 693 01a5 73       		.byte	115
 694 01a6 07       		.byte	7
 695 01a7 01       		.byte	1
 696 01a8 70       		.byte	112
 697 01a9 01       		.byte	1
 698 01aa 01       		.byte	1
 699 01ab FF       		.byte	-1
 700 01ac 01       		.byte	1
 701 01ad 01       		.byte	1
 702 01ae 00       		.byte	0
 703 01af 01       		.byte	1
 704 01b0 01       		.byte	1
 705 01b1 FF       		.byte	-1
 706 01b2 00       		.byte	0
 707 01b3 00       		.byte	0
 708 01b4 00       		.byte	0
 709 01b5 00       		.byte	0
 710              		.section	.text.VL53L0X_GetVersion,"ax",%progbits
 711              		.align	1
 712              		.p2align 4,,15
 713              		.global	VL53L0X_GetVersion
 714              		.syntax unified
 715              		.thumb
 716              		.thumb_func
 717              		.fpu fpv4-sp-d16
 718              		.type	VL53L0X_GetVersion, %function
 719              	VL53L0X_GetVersion:
 720              	.LFB3:
 721              		.file 1 "../lib/e-puck2_main-processor/src/sensors/VL53L0X/Api/core/src/vl53l0x_api.c"
 722              		.loc 1 54 0
 723              		.cfi_startproc
 724              		@ args = 0, pretend = 0, frame = 16
 725              		@ frame_needed = 0, uses_anonymous_args = 0
 726 0000 00B5     		push	{lr}
 727              		.cfi_def_cfa_offset 4
 728              		.cfi_offset 14, -4
 729 0002 85B0     		sub	sp, sp, #20
 730              		.cfi_def_cfa_offset 24
 731 0004 0190     		str	r0, [sp, #4]
 732              		.loc 1 54 0
 733 0006 104B     		ldr	r3, .L4
 734 0008 1B68     		ldr	r3, [r3]
 735 000a 0393     		str	r3, [sp, #12]
 736              		.loc 1 55 0
 737 000c 0023     		movs	r3, #0
 738 000e 8DF80B30 		strb	r3, [sp, #11]
 739              		.loc 1 58 0
 740 0012 019B     		ldr	r3, [sp, #4]
 741 0014 0122     		movs	r2, #1
ARM GAS  C:\Users\PCHAUT~1\AppData\Local\Temp\ccZvjaUR.s 			page 14


 742 0016 1A71     		strb	r2, [r3, #4]
 743              		.loc 1 59 0
 744 0018 019B     		ldr	r3, [sp, #4]
 745 001a 0022     		movs	r2, #0
 746 001c 5A71     		strb	r2, [r3, #5]
 747              		.loc 1 60 0
 748 001e 019B     		ldr	r3, [sp, #4]
 749 0020 0222     		movs	r2, #2
 750 0022 9A71     		strb	r2, [r3, #6]
 751              		.loc 1 62 0
 752 0024 019B     		ldr	r3, [sp, #4]
 753 0026 41F2D722 		movw	r2, #4823
 754 002a 1A60     		str	r2, [r3]
 755              		.loc 1 65 0
 756 002c 9DF90B30 		ldrsb	r3, [sp, #11]
 757              		.loc 1 66 0
 758 0030 1846     		mov	r0, r3
 759 0032 054B     		ldr	r3, .L4
 760 0034 039A     		ldr	r2, [sp, #12]
 761 0036 1B68     		ldr	r3, [r3]
 762 0038 9A42     		cmp	r2, r3
 763 003a 01D0     		beq	.L3
 764 003c FFF7FEFF 		bl	__stack_chk_fail
 765              	.L3:
 766 0040 05B0     		add	sp, sp, #20
 767              		.cfi_def_cfa_offset 4
 768              		@ sp needed
 769 0042 5DF804FB 		ldr	pc, [sp], #4
 770              	.L5:
 771 0046 00BF     		.align	2
 772              	.L4:
 773 0048 00000000 		.word	__stack_chk_guard
 774              		.cfi_endproc
 775              	.LFE3:
 776              		.size	VL53L0X_GetVersion, .-VL53L0X_GetVersion
 777              		.section	.text.VL53L0X_GetPalSpecVersion,"ax",%progbits
 778              		.align	1
 779              		.p2align 4,,15
 780              		.global	VL53L0X_GetPalSpecVersion
 781              		.syntax unified
 782              		.thumb
 783              		.thumb_func
 784              		.fpu fpv4-sp-d16
 785              		.type	VL53L0X_GetPalSpecVersion, %function
 786              	VL53L0X_GetPalSpecVersion:
 787              	.LFB4:
 788              		.loc 1 69 0
 789              		.cfi_startproc
 790              		@ args = 0, pretend = 0, frame = 16
 791              		@ frame_needed = 0, uses_anonymous_args = 0
 792 0000 00B5     		push	{lr}
 793              		.cfi_def_cfa_offset 4
 794              		.cfi_offset 14, -4
 795 0002 85B0     		sub	sp, sp, #20
 796              		.cfi_def_cfa_offset 24
 797 0004 0190     		str	r0, [sp, #4]
 798              		.loc 1 69 0
ARM GAS  C:\Users\PCHAUT~1\AppData\Local\Temp\ccZvjaUR.s 			page 15


 799 0006 104B     		ldr	r3, .L9
 800 0008 1B68     		ldr	r3, [r3]
 801 000a 0393     		str	r3, [sp, #12]
 802              		.loc 1 70 0
 803 000c 0023     		movs	r3, #0
 804 000e 8DF80B30 		strb	r3, [sp, #11]
 805              		.loc 1 74 0
 806 0012 019B     		ldr	r3, [sp, #4]
 807 0014 0122     		movs	r2, #1
 808 0016 1A71     		strb	r2, [r3, #4]
 809              		.loc 1 75 0
 810 0018 019B     		ldr	r3, [sp, #4]
 811 001a 0222     		movs	r2, #2
 812 001c 5A71     		strb	r2, [r3, #5]
 813              		.loc 1 76 0
 814 001e 019B     		ldr	r3, [sp, #4]
 815 0020 0722     		movs	r2, #7
 816 0022 9A71     		strb	r2, [r3, #6]
 817              		.loc 1 78 0
 818 0024 019B     		ldr	r3, [sp, #4]
 819 0026 4FF4B462 		mov	r2, #1440
 820 002a 1A60     		str	r2, [r3]
 821              		.loc 1 81 0
 822 002c 9DF90B30 		ldrsb	r3, [sp, #11]
 823              		.loc 1 82 0
 824 0030 1846     		mov	r0, r3
 825 0032 054B     		ldr	r3, .L9
 826 0034 039A     		ldr	r2, [sp, #12]
 827 0036 1B68     		ldr	r3, [r3]
 828 0038 9A42     		cmp	r2, r3
 829 003a 01D0     		beq	.L8
 830 003c FFF7FEFF 		bl	__stack_chk_fail
 831              	.L8:
 832 0040 05B0     		add	sp, sp, #20
 833              		.cfi_def_cfa_offset 4
 834              		@ sp needed
 835 0042 5DF804FB 		ldr	pc, [sp], #4
 836              	.L10:
 837 0046 00BF     		.align	2
 838              	.L9:
 839 0048 00000000 		.word	__stack_chk_guard
 840              		.cfi_endproc
 841              	.LFE4:
 842              		.size	VL53L0X_GetPalSpecVersion, .-VL53L0X_GetPalSpecVersion
 843              		.section	.text.VL53L0X_GetProductRevision,"ax",%progbits
 844              		.align	1
 845              		.p2align 4,,15
 846              		.global	VL53L0X_GetProductRevision
 847              		.syntax unified
 848              		.thumb
 849              		.thumb_func
 850              		.fpu fpv4-sp-d16
 851              		.type	VL53L0X_GetProductRevision, %function
 852              	VL53L0X_GetProductRevision:
 853              	.LFB5:
 854              		.loc 1 86 0
 855              		.cfi_startproc
ARM GAS  C:\Users\PCHAUT~1\AppData\Local\Temp\ccZvjaUR.s 			page 16


 856              		@ args = 0, pretend = 0, frame = 24
 857              		@ frame_needed = 0, uses_anonymous_args = 0
 858 0000 00B5     		push	{lr}
 859              		.cfi_def_cfa_offset 4
 860              		.cfi_offset 14, -4
 861 0002 87B0     		sub	sp, sp, #28
 862              		.cfi_def_cfa_offset 32
 863 0004 0390     		str	r0, [sp, #12]
 864 0006 0291     		str	r1, [sp, #8]
 865 0008 0192     		str	r2, [sp, #4]
 866              		.loc 1 86 0
 867 000a 134B     		ldr	r3, .L14
 868 000c 1B68     		ldr	r3, [r3]
 869 000e 0593     		str	r3, [sp, #20]
 870              		.loc 1 87 0
 871 0010 0023     		movs	r3, #0
 872 0012 8DF81330 		strb	r3, [sp, #19]
 873              		.loc 1 92 0
 874 0016 0DF11203 		add	r3, sp, #18
 875 001a 1A46     		mov	r2, r3
 876 001c C221     		movs	r1, #194
 877 001e 0398     		ldr	r0, [sp, #12]
 878 0020 FFF7FEFF 		bl	VL53L0X_RdByte
 879 0024 0346     		mov	r3, r0
 880 0026 8DF81330 		strb	r3, [sp, #19]
 881              		.loc 1 94 0
 882 002a 029B     		ldr	r3, [sp, #8]
 883 002c 0122     		movs	r2, #1
 884 002e 1A70     		strb	r2, [r3]
 885              		.loc 1 95 0
 886 0030 9DF81230 		ldrb	r3, [sp, #18]	@ zero_extendqisi2
 887 0034 1B09     		lsrs	r3, r3, #4
 888 0036 DAB2     		uxtb	r2, r3
 889 0038 019B     		ldr	r3, [sp, #4]
 890 003a 1A70     		strb	r2, [r3]
 891              		.loc 1 98 0
 892 003c 9DF91330 		ldrsb	r3, [sp, #19]
 893              		.loc 1 100 0
 894 0040 1846     		mov	r0, r3
 895 0042 054B     		ldr	r3, .L14
 896 0044 059A     		ldr	r2, [sp, #20]
 897 0046 1B68     		ldr	r3, [r3]
 898 0048 9A42     		cmp	r2, r3
 899 004a 01D0     		beq	.L13
 900 004c FFF7FEFF 		bl	__stack_chk_fail
 901              	.L13:
 902 0050 07B0     		add	sp, sp, #28
 903              		.cfi_def_cfa_offset 4
 904              		@ sp needed
 905 0052 5DF804FB 		ldr	pc, [sp], #4
 906              	.L15:
 907 0056 00BF     		.align	2
 908              	.L14:
 909 0058 00000000 		.word	__stack_chk_guard
 910              		.cfi_endproc
 911              	.LFE5:
 912              		.size	VL53L0X_GetProductRevision, .-VL53L0X_GetProductRevision
ARM GAS  C:\Users\PCHAUT~1\AppData\Local\Temp\ccZvjaUR.s 			page 17


 913              		.section	.text.VL53L0X_GetDeviceInfo,"ax",%progbits
 914              		.align	1
 915              		.p2align 4,,15
 916              		.global	VL53L0X_GetDeviceInfo
 917              		.syntax unified
 918              		.thumb
 919              		.thumb_func
 920              		.fpu fpv4-sp-d16
 921              		.type	VL53L0X_GetDeviceInfo, %function
 922              	VL53L0X_GetDeviceInfo:
 923              	.LFB6:
 924              		.loc 1 104 0
 925              		.cfi_startproc
 926              		@ args = 0, pretend = 0, frame = 16
 927              		@ frame_needed = 0, uses_anonymous_args = 0
 928 0000 00B5     		push	{lr}
 929              		.cfi_def_cfa_offset 4
 930              		.cfi_offset 14, -4
 931 0002 85B0     		sub	sp, sp, #20
 932              		.cfi_def_cfa_offset 24
 933 0004 0190     		str	r0, [sp, #4]
 934 0006 0091     		str	r1, [sp]
 935              		.loc 1 104 0
 936 0008 0C4B     		ldr	r3, .L19
 937 000a 1B68     		ldr	r3, [r3]
 938 000c 0393     		str	r3, [sp, #12]
 939              		.loc 1 105 0
 940 000e 0023     		movs	r3, #0
 941 0010 8DF80B30 		strb	r3, [sp, #11]
 942              		.loc 1 108 0
 943 0014 0099     		ldr	r1, [sp]
 944 0016 0198     		ldr	r0, [sp, #4]
 945 0018 FFF7FEFF 		bl	VL53L0X_get_device_info
 946 001c 0346     		mov	r3, r0
 947 001e 8DF80B30 		strb	r3, [sp, #11]
 948              		.loc 1 111 0
 949 0022 9DF90B30 		ldrsb	r3, [sp, #11]
 950              		.loc 1 112 0
 951 0026 1846     		mov	r0, r3
 952 0028 044B     		ldr	r3, .L19
 953 002a 039A     		ldr	r2, [sp, #12]
 954 002c 1B68     		ldr	r3, [r3]
 955 002e 9A42     		cmp	r2, r3
 956 0030 01D0     		beq	.L18
 957 0032 FFF7FEFF 		bl	__stack_chk_fail
 958              	.L18:
 959 0036 05B0     		add	sp, sp, #20
 960              		.cfi_def_cfa_offset 4
 961              		@ sp needed
 962 0038 5DF804FB 		ldr	pc, [sp], #4
 963              	.L20:
 964              		.align	2
 965              	.L19:
 966 003c 00000000 		.word	__stack_chk_guard
 967              		.cfi_endproc
 968              	.LFE6:
 969              		.size	VL53L0X_GetDeviceInfo, .-VL53L0X_GetDeviceInfo
ARM GAS  C:\Users\PCHAUT~1\AppData\Local\Temp\ccZvjaUR.s 			page 18


 970              		.section	.text.VL53L0X_GetDeviceErrorStatus,"ax",%progbits
 971              		.align	1
 972              		.p2align 4,,15
 973              		.global	VL53L0X_GetDeviceErrorStatus
 974              		.syntax unified
 975              		.thumb
 976              		.thumb_func
 977              		.fpu fpv4-sp-d16
 978              		.type	VL53L0X_GetDeviceErrorStatus, %function
 979              	VL53L0X_GetDeviceErrorStatus:
 980              	.LFB7:
 981              		.loc 1 116 0
 982              		.cfi_startproc
 983              		@ args = 0, pretend = 0, frame = 16
 984              		@ frame_needed = 0, uses_anonymous_args = 0
 985 0000 00B5     		push	{lr}
 986              		.cfi_def_cfa_offset 4
 987              		.cfi_offset 14, -4
 988 0002 85B0     		sub	sp, sp, #20
 989              		.cfi_def_cfa_offset 24
 990 0004 0190     		str	r0, [sp, #4]
 991 0006 0091     		str	r1, [sp]
 992              		.loc 1 116 0
 993 0008 124B     		ldr	r3, .L24
 994 000a 1B68     		ldr	r3, [r3]
 995 000c 0393     		str	r3, [sp, #12]
 996              		.loc 1 117 0
 997 000e 0023     		movs	r3, #0
 998 0010 8DF80B30 		strb	r3, [sp, #11]
 999              		.loc 1 122 0
 1000 0014 0DF10A03 		add	r3, sp, #10
 1001 0018 1A46     		mov	r2, r3
 1002 001a 1421     		movs	r1, #20
 1003 001c 0198     		ldr	r0, [sp, #4]
 1004 001e FFF7FEFF 		bl	VL53L0X_RdByte
 1005 0022 0346     		mov	r3, r0
 1006 0024 8DF80B30 		strb	r3, [sp, #11]
 1007              		.loc 1 125 0
 1008 0028 9DF80A30 		ldrb	r3, [sp, #10]	@ zero_extendqisi2
 1009 002c DB10     		asrs	r3, r3, #3
 1010 002e DBB2     		uxtb	r3, r3
 1011 0030 03F00F03 		and	r3, r3, #15
 1012 0034 DAB2     		uxtb	r2, r3
 1013 0036 009B     		ldr	r3, [sp]
 1014 0038 1A70     		strb	r2, [r3]
 1015              		.loc 1 128 0
 1016 003a 9DF90B30 		ldrsb	r3, [sp, #11]
 1017              		.loc 1 129 0
 1018 003e 1846     		mov	r0, r3
 1019 0040 044B     		ldr	r3, .L24
 1020 0042 039A     		ldr	r2, [sp, #12]
 1021 0044 1B68     		ldr	r3, [r3]
 1022 0046 9A42     		cmp	r2, r3
 1023 0048 01D0     		beq	.L23
 1024 004a FFF7FEFF 		bl	__stack_chk_fail
 1025              	.L23:
 1026 004e 05B0     		add	sp, sp, #20
ARM GAS  C:\Users\PCHAUT~1\AppData\Local\Temp\ccZvjaUR.s 			page 19


 1027              		.cfi_def_cfa_offset 4
 1028              		@ sp needed
 1029 0050 5DF804FB 		ldr	pc, [sp], #4
 1030              	.L25:
 1031              		.align	2
 1032              	.L24:
 1033 0054 00000000 		.word	__stack_chk_guard
 1034              		.cfi_endproc
 1035              	.LFE7:
 1036              		.size	VL53L0X_GetDeviceErrorStatus, .-VL53L0X_GetDeviceErrorStatus
 1037              		.section	.text.VL53L0X_GetDeviceErrorString,"ax",%progbits
 1038              		.align	1
 1039              		.p2align 4,,15
 1040              		.global	VL53L0X_GetDeviceErrorString
 1041              		.syntax unified
 1042              		.thumb
 1043              		.thumb_func
 1044              		.fpu fpv4-sp-d16
 1045              		.type	VL53L0X_GetDeviceErrorString, %function
 1046              	VL53L0X_GetDeviceErrorString:
 1047              	.LFB8:
 1048              		.loc 1 134 0
 1049              		.cfi_startproc
 1050              		@ args = 0, pretend = 0, frame = 16
 1051              		@ frame_needed = 0, uses_anonymous_args = 0
 1052 0000 00B5     		push	{lr}
 1053              		.cfi_def_cfa_offset 4
 1054              		.cfi_offset 14, -4
 1055 0002 85B0     		sub	sp, sp, #20
 1056              		.cfi_def_cfa_offset 24
 1057 0004 0346     		mov	r3, r0
 1058 0006 0091     		str	r1, [sp]
 1059 0008 8DF80730 		strb	r3, [sp, #7]
 1060              		.loc 1 134 0
 1061 000c 0D4B     		ldr	r3, .L29
 1062 000e 1B68     		ldr	r3, [r3]
 1063 0010 0393     		str	r3, [sp, #12]
 1064              		.loc 1 135 0
 1065 0012 0023     		movs	r3, #0
 1066 0014 8DF80B30 		strb	r3, [sp, #11]
 1067              		.loc 1 139 0
 1068 0018 9DF80730 		ldrb	r3, [sp, #7]	@ zero_extendqisi2
 1069 001c 0099     		ldr	r1, [sp]
 1070 001e 1846     		mov	r0, r3
 1071 0020 FFF7FEFF 		bl	VL53L0X_get_device_error_string
 1072 0024 0346     		mov	r3, r0
 1073 0026 8DF80B30 		strb	r3, [sp, #11]
 1074              		.loc 1 142 0
 1075 002a 9DF90B30 		ldrsb	r3, [sp, #11]
 1076              		.loc 1 143 0
 1077 002e 1846     		mov	r0, r3
 1078 0030 044B     		ldr	r3, .L29
 1079 0032 039A     		ldr	r2, [sp, #12]
 1080 0034 1B68     		ldr	r3, [r3]
 1081 0036 9A42     		cmp	r2, r3
 1082 0038 01D0     		beq	.L28
 1083 003a FFF7FEFF 		bl	__stack_chk_fail
ARM GAS  C:\Users\PCHAUT~1\AppData\Local\Temp\ccZvjaUR.s 			page 20


 1084              	.L28:
 1085 003e 05B0     		add	sp, sp, #20
 1086              		.cfi_def_cfa_offset 4
 1087              		@ sp needed
 1088 0040 5DF804FB 		ldr	pc, [sp], #4
 1089              	.L30:
 1090              		.align	2
 1091              	.L29:
 1092 0044 00000000 		.word	__stack_chk_guard
 1093              		.cfi_endproc
 1094              	.LFE8:
 1095              		.size	VL53L0X_GetDeviceErrorString, .-VL53L0X_GetDeviceErrorString
 1096              		.section	.text.VL53L0X_GetRangeStatusString,"ax",%progbits
 1097              		.align	1
 1098              		.p2align 4,,15
 1099              		.global	VL53L0X_GetRangeStatusString
 1100              		.syntax unified
 1101              		.thumb
 1102              		.thumb_func
 1103              		.fpu fpv4-sp-d16
 1104              		.type	VL53L0X_GetRangeStatusString, %function
 1105              	VL53L0X_GetRangeStatusString:
 1106              	.LFB9:
 1107              		.loc 1 147 0
 1108              		.cfi_startproc
 1109              		@ args = 0, pretend = 0, frame = 16
 1110              		@ frame_needed = 0, uses_anonymous_args = 0
 1111 0000 00B5     		push	{lr}
 1112              		.cfi_def_cfa_offset 4
 1113              		.cfi_offset 14, -4
 1114 0002 85B0     		sub	sp, sp, #20
 1115              		.cfi_def_cfa_offset 24
 1116 0004 0346     		mov	r3, r0
 1117 0006 0091     		str	r1, [sp]
 1118 0008 8DF80730 		strb	r3, [sp, #7]
 1119              		.loc 1 147 0
 1120 000c 0D4B     		ldr	r3, .L34
 1121 000e 1B68     		ldr	r3, [r3]
 1122 0010 0393     		str	r3, [sp, #12]
 1123              		.loc 1 148 0
 1124 0012 0023     		movs	r3, #0
 1125 0014 8DF80B30 		strb	r3, [sp, #11]
 1126              		.loc 1 151 0
 1127 0018 9DF80730 		ldrb	r3, [sp, #7]	@ zero_extendqisi2
 1128 001c 0099     		ldr	r1, [sp]
 1129 001e 1846     		mov	r0, r3
 1130 0020 FFF7FEFF 		bl	VL53L0X_get_range_status_string
 1131 0024 0346     		mov	r3, r0
 1132 0026 8DF80B30 		strb	r3, [sp, #11]
 1133              		.loc 1 155 0
 1134 002a 9DF90B30 		ldrsb	r3, [sp, #11]
 1135              		.loc 1 156 0
 1136 002e 1846     		mov	r0, r3
 1137 0030 044B     		ldr	r3, .L34
 1138 0032 039A     		ldr	r2, [sp, #12]
 1139 0034 1B68     		ldr	r3, [r3]
 1140 0036 9A42     		cmp	r2, r3
ARM GAS  C:\Users\PCHAUT~1\AppData\Local\Temp\ccZvjaUR.s 			page 21


 1141 0038 01D0     		beq	.L33
 1142 003a FFF7FEFF 		bl	__stack_chk_fail
 1143              	.L33:
 1144 003e 05B0     		add	sp, sp, #20
 1145              		.cfi_def_cfa_offset 4
 1146              		@ sp needed
 1147 0040 5DF804FB 		ldr	pc, [sp], #4
 1148              	.L35:
 1149              		.align	2
 1150              	.L34:
 1151 0044 00000000 		.word	__stack_chk_guard
 1152              		.cfi_endproc
 1153              	.LFE9:
 1154              		.size	VL53L0X_GetRangeStatusString, .-VL53L0X_GetRangeStatusString
 1155              		.section	.text.VL53L0X_GetPalErrorString,"ax",%progbits
 1156              		.align	1
 1157              		.p2align 4,,15
 1158              		.global	VL53L0X_GetPalErrorString
 1159              		.syntax unified
 1160              		.thumb
 1161              		.thumb_func
 1162              		.fpu fpv4-sp-d16
 1163              		.type	VL53L0X_GetPalErrorString, %function
 1164              	VL53L0X_GetPalErrorString:
 1165              	.LFB10:
 1166              		.loc 1 160 0
 1167              		.cfi_startproc
 1168              		@ args = 0, pretend = 0, frame = 16
 1169              		@ frame_needed = 0, uses_anonymous_args = 0
 1170 0000 00B5     		push	{lr}
 1171              		.cfi_def_cfa_offset 4
 1172              		.cfi_offset 14, -4
 1173 0002 85B0     		sub	sp, sp, #20
 1174              		.cfi_def_cfa_offset 24
 1175 0004 0346     		mov	r3, r0
 1176 0006 0091     		str	r1, [sp]
 1177 0008 8DF80730 		strb	r3, [sp, #7]
 1178              		.loc 1 160 0
 1179 000c 0D4B     		ldr	r3, .L39
 1180 000e 1B68     		ldr	r3, [r3]
 1181 0010 0393     		str	r3, [sp, #12]
 1182              		.loc 1 161 0
 1183 0012 0023     		movs	r3, #0
 1184 0014 8DF80B30 		strb	r3, [sp, #11]
 1185              		.loc 1 164 0
 1186 0018 9DF90730 		ldrsb	r3, [sp, #7]
 1187 001c 0099     		ldr	r1, [sp]
 1188 001e 1846     		mov	r0, r3
 1189 0020 FFF7FEFF 		bl	VL53L0X_get_pal_error_string
 1190 0024 0346     		mov	r3, r0
 1191 0026 8DF80B30 		strb	r3, [sp, #11]
 1192              		.loc 1 167 0
 1193 002a 9DF90B30 		ldrsb	r3, [sp, #11]
 1194              		.loc 1 168 0
 1195 002e 1846     		mov	r0, r3
 1196 0030 044B     		ldr	r3, .L39
 1197 0032 039A     		ldr	r2, [sp, #12]
ARM GAS  C:\Users\PCHAUT~1\AppData\Local\Temp\ccZvjaUR.s 			page 22


 1198 0034 1B68     		ldr	r3, [r3]
 1199 0036 9A42     		cmp	r2, r3
 1200 0038 01D0     		beq	.L38
 1201 003a FFF7FEFF 		bl	__stack_chk_fail
 1202              	.L38:
 1203 003e 05B0     		add	sp, sp, #20
 1204              		.cfi_def_cfa_offset 4
 1205              		@ sp needed
 1206 0040 5DF804FB 		ldr	pc, [sp], #4
 1207              	.L40:
 1208              		.align	2
 1209              	.L39:
 1210 0044 00000000 		.word	__stack_chk_guard
 1211              		.cfi_endproc
 1212              	.LFE10:
 1213              		.size	VL53L0X_GetPalErrorString, .-VL53L0X_GetPalErrorString
 1214              		.section	.text.VL53L0X_GetPalStateString,"ax",%progbits
 1215              		.align	1
 1216              		.p2align 4,,15
 1217              		.global	VL53L0X_GetPalStateString
 1218              		.syntax unified
 1219              		.thumb
 1220              		.thumb_func
 1221              		.fpu fpv4-sp-d16
 1222              		.type	VL53L0X_GetPalStateString, %function
 1223              	VL53L0X_GetPalStateString:
 1224              	.LFB11:
 1225              		.loc 1 172 0
 1226              		.cfi_startproc
 1227              		@ args = 0, pretend = 0, frame = 16
 1228              		@ frame_needed = 0, uses_anonymous_args = 0
 1229 0000 00B5     		push	{lr}
 1230              		.cfi_def_cfa_offset 4
 1231              		.cfi_offset 14, -4
 1232 0002 85B0     		sub	sp, sp, #20
 1233              		.cfi_def_cfa_offset 24
 1234 0004 0346     		mov	r3, r0
 1235 0006 0091     		str	r1, [sp]
 1236 0008 8DF80730 		strb	r3, [sp, #7]
 1237              		.loc 1 172 0
 1238 000c 0D4B     		ldr	r3, .L44
 1239 000e 1B68     		ldr	r3, [r3]
 1240 0010 0393     		str	r3, [sp, #12]
 1241              		.loc 1 173 0
 1242 0012 0023     		movs	r3, #0
 1243 0014 8DF80B30 		strb	r3, [sp, #11]
 1244              		.loc 1 176 0
 1245 0018 9DF80730 		ldrb	r3, [sp, #7]	@ zero_extendqisi2
 1246 001c 0099     		ldr	r1, [sp]
 1247 001e 1846     		mov	r0, r3
 1248 0020 FFF7FEFF 		bl	VL53L0X_get_pal_state_string
 1249 0024 0346     		mov	r3, r0
 1250 0026 8DF80B30 		strb	r3, [sp, #11]
 1251              		.loc 1 179 0
 1252 002a 9DF90B30 		ldrsb	r3, [sp, #11]
 1253              		.loc 1 180 0
 1254 002e 1846     		mov	r0, r3
ARM GAS  C:\Users\PCHAUT~1\AppData\Local\Temp\ccZvjaUR.s 			page 23


 1255 0030 044B     		ldr	r3, .L44
 1256 0032 039A     		ldr	r2, [sp, #12]
 1257 0034 1B68     		ldr	r3, [r3]
 1258 0036 9A42     		cmp	r2, r3
 1259 0038 01D0     		beq	.L43
 1260 003a FFF7FEFF 		bl	__stack_chk_fail
 1261              	.L43:
 1262 003e 05B0     		add	sp, sp, #20
 1263              		.cfi_def_cfa_offset 4
 1264              		@ sp needed
 1265 0040 5DF804FB 		ldr	pc, [sp], #4
 1266              	.L45:
 1267              		.align	2
 1268              	.L44:
 1269 0044 00000000 		.word	__stack_chk_guard
 1270              		.cfi_endproc
 1271              	.LFE11:
 1272              		.size	VL53L0X_GetPalStateString, .-VL53L0X_GetPalStateString
 1273              		.section	.text.VL53L0X_GetPalState,"ax",%progbits
 1274              		.align	1
 1275              		.p2align 4,,15
 1276              		.global	VL53L0X_GetPalState
 1277              		.syntax unified
 1278              		.thumb
 1279              		.thumb_func
 1280              		.fpu fpv4-sp-d16
 1281              		.type	VL53L0X_GetPalState, %function
 1282              	VL53L0X_GetPalState:
 1283              	.LFB12:
 1284              		.loc 1 183 0
 1285              		.cfi_startproc
 1286              		@ args = 0, pretend = 0, frame = 16
 1287              		@ frame_needed = 0, uses_anonymous_args = 0
 1288 0000 00B5     		push	{lr}
 1289              		.cfi_def_cfa_offset 4
 1290              		.cfi_offset 14, -4
 1291 0002 85B0     		sub	sp, sp, #20
 1292              		.cfi_def_cfa_offset 24
 1293 0004 0190     		str	r0, [sp, #4]
 1294 0006 0091     		str	r1, [sp]
 1295              		.loc 1 183 0
 1296 0008 0B4B     		ldr	r3, .L49
 1297 000a 1B68     		ldr	r3, [r3]
 1298 000c 0393     		str	r3, [sp, #12]
 1299              		.loc 1 184 0
 1300 000e 0023     		movs	r3, #0
 1301 0010 8DF80B30 		strb	r3, [sp, #11]
 1302              		.loc 1 187 0
 1303 0014 019B     		ldr	r3, [sp, #4]
 1304 0016 93F83221 		ldrb	r2, [r3, #306]	@ zero_extendqisi2
 1305 001a 009B     		ldr	r3, [sp]
 1306 001c 1A70     		strb	r2, [r3]
 1307              		.loc 1 190 0
 1308 001e 9DF90B30 		ldrsb	r3, [sp, #11]
 1309              		.loc 1 191 0
 1310 0022 1846     		mov	r0, r3
 1311 0024 044B     		ldr	r3, .L49
ARM GAS  C:\Users\PCHAUT~1\AppData\Local\Temp\ccZvjaUR.s 			page 24


 1312 0026 039A     		ldr	r2, [sp, #12]
 1313 0028 1B68     		ldr	r3, [r3]
 1314 002a 9A42     		cmp	r2, r3
 1315 002c 01D0     		beq	.L48
 1316 002e FFF7FEFF 		bl	__stack_chk_fail
 1317              	.L48:
 1318 0032 05B0     		add	sp, sp, #20
 1319              		.cfi_def_cfa_offset 4
 1320              		@ sp needed
 1321 0034 5DF804FB 		ldr	pc, [sp], #4
 1322              	.L50:
 1323              		.align	2
 1324              	.L49:
 1325 0038 00000000 		.word	__stack_chk_guard
 1326              		.cfi_endproc
 1327              	.LFE12:
 1328              		.size	VL53L0X_GetPalState, .-VL53L0X_GetPalState
 1329              		.section	.text.VL53L0X_SetPowerMode,"ax",%progbits
 1330              		.align	1
 1331              		.p2align 4,,15
 1332              		.global	VL53L0X_SetPowerMode
 1333              		.syntax unified
 1334              		.thumb
 1335              		.thumb_func
 1336              		.fpu fpv4-sp-d16
 1337              		.type	VL53L0X_SetPowerMode, %function
 1338              	VL53L0X_SetPowerMode:
 1339              	.LFB13:
 1340              		.loc 1 194 0
 1341              		.cfi_startproc
 1342              		@ args = 0, pretend = 0, frame = 16
 1343              		@ frame_needed = 0, uses_anonymous_args = 0
 1344 0000 00B5     		push	{lr}
 1345              		.cfi_def_cfa_offset 4
 1346              		.cfi_offset 14, -4
 1347 0002 85B0     		sub	sp, sp, #20
 1348              		.cfi_def_cfa_offset 24
 1349 0004 0190     		str	r0, [sp, #4]
 1350 0006 0B46     		mov	r3, r1
 1351 0008 8DF80330 		strb	r3, [sp, #3]
 1352              		.loc 1 194 0
 1353 000c 284B     		ldr	r3, .L59
 1354 000e 1B68     		ldr	r3, [r3]
 1355 0010 0393     		str	r3, [sp, #12]
 1356              		.loc 1 196 0
 1357 0012 0023     		movs	r3, #0
 1358 0014 8DF80B30 		strb	r3, [sp, #11]
 1359              		.loc 1 200 0
 1360 0018 9DF80330 		ldrb	r3, [sp, #3]	@ zero_extendqisi2
 1361 001c 002B     		cmp	r3, #0
 1362 001e 07D0     		beq	.L52
 1363              		.loc 1 201 0
 1364 0020 9DF80330 		ldrb	r3, [sp, #3]	@ zero_extendqisi2
 1365 0024 022B     		cmp	r3, #2
 1366 0026 03D0     		beq	.L52
 1367              		.loc 1 202 0
 1368 0028 F823     		movs	r3, #248
ARM GAS  C:\Users\PCHAUT~1\AppData\Local\Temp\ccZvjaUR.s 			page 25


 1369 002a 8DF80B30 		strb	r3, [sp, #11]
 1370 002e 32E0     		b	.L53
 1371              	.L52:
 1372              		.loc 1 203 0
 1373 0030 9DF80330 		ldrb	r3, [sp, #3]	@ zero_extendqisi2
 1374 0034 002B     		cmp	r3, #0
 1375 0036 14D1     		bne	.L54
 1376              		.loc 1 205 0
 1377 0038 0022     		movs	r2, #0
 1378 003a 8021     		movs	r1, #128
 1379 003c 0198     		ldr	r0, [sp, #4]
 1380 003e FFF7FEFF 		bl	VL53L0X_WrByte
 1381 0042 0346     		mov	r3, r0
 1382 0044 8DF80B30 		strb	r3, [sp, #11]
 1383              		.loc 1 206 0
 1384 0048 9DF90B30 		ldrsb	r3, [sp, #11]
 1385 004c 002B     		cmp	r3, #0
 1386 004e 22D1     		bne	.L53
 1387              		.loc 1 208 0
 1388 0050 019B     		ldr	r3, [sp, #4]
 1389 0052 0222     		movs	r2, #2
 1390 0054 83F83221 		strb	r2, [r3, #306]
 1391              		.loc 1 209 0
 1392 0058 019B     		ldr	r3, [sp, #4]
 1393 005a 0022     		movs	r2, #0
 1394 005c 83F83321 		strb	r2, [r3, #307]
 1395 0060 19E0     		b	.L53
 1396              	.L54:
 1397              		.loc 1 215 0
 1398 0062 0022     		movs	r2, #0
 1399 0064 8021     		movs	r1, #128
 1400 0066 0198     		ldr	r0, [sp, #4]
 1401 0068 FFF7FEFF 		bl	VL53L0X_WrByte
 1402 006c 0346     		mov	r3, r0
 1403 006e 8DF80B30 		strb	r3, [sp, #11]
 1404              		.loc 1 216 0
 1405 0072 9DF90B30 		ldrsb	r3, [sp, #11]
 1406 0076 002B     		cmp	r3, #0
 1407 0078 05D1     		bne	.L56
 1408              		.loc 1 217 0
 1409 007a 0198     		ldr	r0, [sp, #4]
 1410 007c FFF7FEFF 		bl	VL53L0X_StaticInit
 1411 0080 0346     		mov	r3, r0
 1412 0082 8DF80B30 		strb	r3, [sp, #11]
 1413              	.L56:
 1414              		.loc 1 219 0
 1415 0086 9DF90B30 		ldrsb	r3, [sp, #11]
 1416 008a 002B     		cmp	r3, #0
 1417 008c 03D1     		bne	.L53
 1418              		.loc 1 220 0
 1419 008e 019B     		ldr	r3, [sp, #4]
 1420 0090 0222     		movs	r2, #2
 1421 0092 83F83321 		strb	r2, [r3, #307]
 1422              	.L53:
 1423              		.loc 1 226 0
 1424 0096 9DF90B30 		ldrsb	r3, [sp, #11]
 1425              		.loc 1 227 0
ARM GAS  C:\Users\PCHAUT~1\AppData\Local\Temp\ccZvjaUR.s 			page 26


 1426 009a 1846     		mov	r0, r3
 1427 009c 044B     		ldr	r3, .L59
 1428 009e 039A     		ldr	r2, [sp, #12]
 1429 00a0 1B68     		ldr	r3, [r3]
 1430 00a2 9A42     		cmp	r2, r3
 1431 00a4 01D0     		beq	.L58
 1432 00a6 FFF7FEFF 		bl	__stack_chk_fail
 1433              	.L58:
 1434 00aa 05B0     		add	sp, sp, #20
 1435              		.cfi_def_cfa_offset 4
 1436              		@ sp needed
 1437 00ac 5DF804FB 		ldr	pc, [sp], #4
 1438              	.L60:
 1439              		.align	2
 1440              	.L59:
 1441 00b0 00000000 		.word	__stack_chk_guard
 1442              		.cfi_endproc
 1443              	.LFE13:
 1444              		.size	VL53L0X_SetPowerMode, .-VL53L0X_SetPowerMode
 1445              		.section	.text.VL53L0X_GetPowerMode,"ax",%progbits
 1446              		.align	1
 1447              		.p2align 4,,15
 1448              		.global	VL53L0X_GetPowerMode
 1449              		.syntax unified
 1450              		.thumb
 1451              		.thumb_func
 1452              		.fpu fpv4-sp-d16
 1453              		.type	VL53L0X_GetPowerMode, %function
 1454              	VL53L0X_GetPowerMode:
 1455              	.LFB14:
 1456              		.loc 1 230 0
 1457              		.cfi_startproc
 1458              		@ args = 0, pretend = 0, frame = 16
 1459              		@ frame_needed = 0, uses_anonymous_args = 0
 1460 0000 00B5     		push	{lr}
 1461              		.cfi_def_cfa_offset 4
 1462              		.cfi_offset 14, -4
 1463 0002 85B0     		sub	sp, sp, #20
 1464              		.cfi_def_cfa_offset 24
 1465 0004 0190     		str	r0, [sp, #4]
 1466 0006 0091     		str	r1, [sp]
 1467              		.loc 1 230 0
 1468 0008 164B     		ldr	r3, .L66
 1469 000a 1B68     		ldr	r3, [r3]
 1470 000c 0393     		str	r3, [sp, #12]
 1471              		.loc 1 232 0
 1472 000e 0023     		movs	r3, #0
 1473 0010 8DF80B30 		strb	r3, [sp, #11]
 1474              		.loc 1 237 0
 1475 0014 0DF10A03 		add	r3, sp, #10
 1476 0018 1A46     		mov	r2, r3
 1477 001a 8021     		movs	r1, #128
 1478 001c 0198     		ldr	r0, [sp, #4]
 1479 001e FFF7FEFF 		bl	VL53L0X_RdByte
 1480 0022 0346     		mov	r3, r0
 1481 0024 8DF80B30 		strb	r3, [sp, #11]
 1482              		.loc 1 239 0
ARM GAS  C:\Users\PCHAUT~1\AppData\Local\Temp\ccZvjaUR.s 			page 27


 1483 0028 9DF90B30 		ldrsb	r3, [sp, #11]
 1484 002c 002B     		cmp	r3, #0
 1485 002e 0CD1     		bne	.L62
 1486              		.loc 1 240 0
 1487 0030 9DF80A30 		ldrb	r3, [sp, #10]	@ zero_extendqisi2
 1488 0034 012B     		cmp	r3, #1
 1489 0036 04D1     		bne	.L63
 1490              		.loc 1 241 0
 1491 0038 019B     		ldr	r3, [sp, #4]
 1492 003a 0222     		movs	r2, #2
 1493 003c 83F83321 		strb	r2, [r3, #307]
 1494 0040 03E0     		b	.L62
 1495              	.L63:
 1496              		.loc 1 244 0
 1497 0042 019B     		ldr	r3, [sp, #4]
 1498 0044 0022     		movs	r2, #0
 1499 0046 83F83321 		strb	r2, [r3, #307]
 1500              	.L62:
 1501              		.loc 1 250 0
 1502 004a 9DF90B30 		ldrsb	r3, [sp, #11]
 1503              		.loc 1 251 0
 1504 004e 1846     		mov	r0, r3
 1505 0050 044B     		ldr	r3, .L66
 1506 0052 039A     		ldr	r2, [sp, #12]
 1507 0054 1B68     		ldr	r3, [r3]
 1508 0056 9A42     		cmp	r2, r3
 1509 0058 01D0     		beq	.L65
 1510 005a FFF7FEFF 		bl	__stack_chk_fail
 1511              	.L65:
 1512 005e 05B0     		add	sp, sp, #20
 1513              		.cfi_def_cfa_offset 4
 1514              		@ sp needed
 1515 0060 5DF804FB 		ldr	pc, [sp], #4
 1516              	.L67:
 1517              		.align	2
 1518              	.L66:
 1519 0064 00000000 		.word	__stack_chk_guard
 1520              		.cfi_endproc
 1521              	.LFE14:
 1522              		.size	VL53L0X_GetPowerMode, .-VL53L0X_GetPowerMode
 1523              		.section	.text.VL53L0X_SetOffsetCalibrationDataMicroMeter,"ax",%progbits
 1524              		.align	1
 1525              		.p2align 4,,15
 1526              		.global	VL53L0X_SetOffsetCalibrationDataMicroMeter
 1527              		.syntax unified
 1528              		.thumb
 1529              		.thumb_func
 1530              		.fpu fpv4-sp-d16
 1531              		.type	VL53L0X_SetOffsetCalibrationDataMicroMeter, %function
 1532              	VL53L0X_SetOffsetCalibrationDataMicroMeter:
 1533              	.LFB15:
 1534              		.loc 1 255 0
 1535              		.cfi_startproc
 1536              		@ args = 0, pretend = 0, frame = 16
 1537              		@ frame_needed = 0, uses_anonymous_args = 0
 1538 0000 00B5     		push	{lr}
 1539              		.cfi_def_cfa_offset 4
ARM GAS  C:\Users\PCHAUT~1\AppData\Local\Temp\ccZvjaUR.s 			page 28


 1540              		.cfi_offset 14, -4
 1541 0002 85B0     		sub	sp, sp, #20
 1542              		.cfi_def_cfa_offset 24
 1543 0004 0190     		str	r0, [sp, #4]
 1544 0006 0091     		str	r1, [sp]
 1545              		.loc 1 255 0
 1546 0008 0C4B     		ldr	r3, .L71
 1547 000a 1B68     		ldr	r3, [r3]
 1548 000c 0393     		str	r3, [sp, #12]
 1549              		.loc 1 256 0
 1550 000e 0023     		movs	r3, #0
 1551 0010 8DF80B30 		strb	r3, [sp, #11]
 1552              		.loc 1 259 0
 1553 0014 0099     		ldr	r1, [sp]
 1554 0016 0198     		ldr	r0, [sp, #4]
 1555 0018 FFF7FEFF 		bl	VL53L0X_set_offset_calibration_data_micro_meter
 1556 001c 0346     		mov	r3, r0
 1557 001e 8DF80B30 		strb	r3, [sp, #11]
 1558              		.loc 1 263 0
 1559 0022 9DF90B30 		ldrsb	r3, [sp, #11]
 1560              		.loc 1 264 0
 1561 0026 1846     		mov	r0, r3
 1562 0028 044B     		ldr	r3, .L71
 1563 002a 039A     		ldr	r2, [sp, #12]
 1564 002c 1B68     		ldr	r3, [r3]
 1565 002e 9A42     		cmp	r2, r3
 1566 0030 01D0     		beq	.L70
 1567 0032 FFF7FEFF 		bl	__stack_chk_fail
 1568              	.L70:
 1569 0036 05B0     		add	sp, sp, #20
 1570              		.cfi_def_cfa_offset 4
 1571              		@ sp needed
 1572 0038 5DF804FB 		ldr	pc, [sp], #4
 1573              	.L72:
 1574              		.align	2
 1575              	.L71:
 1576 003c 00000000 		.word	__stack_chk_guard
 1577              		.cfi_endproc
 1578              	.LFE15:
 1579              		.size	VL53L0X_SetOffsetCalibrationDataMicroMeter, .-VL53L0X_SetOffsetCalibrationDataMicroMeter
 1580              		.section	.text.VL53L0X_GetOffsetCalibrationDataMicroMeter,"ax",%progbits
 1581              		.align	1
 1582              		.p2align 4,,15
 1583              		.global	VL53L0X_GetOffsetCalibrationDataMicroMeter
 1584              		.syntax unified
 1585              		.thumb
 1586              		.thumb_func
 1587              		.fpu fpv4-sp-d16
 1588              		.type	VL53L0X_GetOffsetCalibrationDataMicroMeter, %function
 1589              	VL53L0X_GetOffsetCalibrationDataMicroMeter:
 1590              	.LFB16:
 1591              		.loc 1 268 0
 1592              		.cfi_startproc
 1593              		@ args = 0, pretend = 0, frame = 16
 1594              		@ frame_needed = 0, uses_anonymous_args = 0
 1595 0000 00B5     		push	{lr}
 1596              		.cfi_def_cfa_offset 4
ARM GAS  C:\Users\PCHAUT~1\AppData\Local\Temp\ccZvjaUR.s 			page 29


 1597              		.cfi_offset 14, -4
 1598 0002 85B0     		sub	sp, sp, #20
 1599              		.cfi_def_cfa_offset 24
 1600 0004 0190     		str	r0, [sp, #4]
 1601 0006 0091     		str	r1, [sp]
 1602              		.loc 1 268 0
 1603 0008 0C4B     		ldr	r3, .L76
 1604 000a 1B68     		ldr	r3, [r3]
 1605 000c 0393     		str	r3, [sp, #12]
 1606              		.loc 1 269 0
 1607 000e 0023     		movs	r3, #0
 1608 0010 8DF80B30 		strb	r3, [sp, #11]
 1609              		.loc 1 272 0
 1610 0014 0099     		ldr	r1, [sp]
 1611 0016 0198     		ldr	r0, [sp, #4]
 1612 0018 FFF7FEFF 		bl	VL53L0X_get_offset_calibration_data_micro_meter
 1613 001c 0346     		mov	r3, r0
 1614 001e 8DF80B30 		strb	r3, [sp, #11]
 1615              		.loc 1 276 0
 1616 0022 9DF90B30 		ldrsb	r3, [sp, #11]
 1617              		.loc 1 277 0
 1618 0026 1846     		mov	r0, r3
 1619 0028 044B     		ldr	r3, .L76
 1620 002a 039A     		ldr	r2, [sp, #12]
 1621 002c 1B68     		ldr	r3, [r3]
 1622 002e 9A42     		cmp	r2, r3
 1623 0030 01D0     		beq	.L75
 1624 0032 FFF7FEFF 		bl	__stack_chk_fail
 1625              	.L75:
 1626 0036 05B0     		add	sp, sp, #20
 1627              		.cfi_def_cfa_offset 4
 1628              		@ sp needed
 1629 0038 5DF804FB 		ldr	pc, [sp], #4
 1630              	.L77:
 1631              		.align	2
 1632              	.L76:
 1633 003c 00000000 		.word	__stack_chk_guard
 1634              		.cfi_endproc
 1635              	.LFE16:
 1636              		.size	VL53L0X_GetOffsetCalibrationDataMicroMeter, .-VL53L0X_GetOffsetCalibrationDataMicroMeter
 1637              		.section	.text.VL53L0X_SetLinearityCorrectiveGain,"ax",%progbits
 1638              		.align	1
 1639              		.p2align 4,,15
 1640              		.global	VL53L0X_SetLinearityCorrectiveGain
 1641              		.syntax unified
 1642              		.thumb
 1643              		.thumb_func
 1644              		.fpu fpv4-sp-d16
 1645              		.type	VL53L0X_SetLinearityCorrectiveGain, %function
 1646              	VL53L0X_SetLinearityCorrectiveGain:
 1647              	.LFB17:
 1648              		.loc 1 281 0
 1649              		.cfi_startproc
 1650              		@ args = 0, pretend = 0, frame = 16
 1651              		@ frame_needed = 0, uses_anonymous_args = 0
 1652 0000 00B5     		push	{lr}
 1653              		.cfi_def_cfa_offset 4
ARM GAS  C:\Users\PCHAUT~1\AppData\Local\Temp\ccZvjaUR.s 			page 30


 1654              		.cfi_offset 14, -4
 1655 0002 85B0     		sub	sp, sp, #20
 1656              		.cfi_def_cfa_offset 24
 1657 0004 0190     		str	r0, [sp, #4]
 1658 0006 0B46     		mov	r3, r1
 1659 0008 ADF80230 		strh	r3, [sp, #2]	@ movhi
 1660              		.loc 1 281 0
 1661 000c 184B     		ldr	r3, .L84
 1662 000e 1B68     		ldr	r3, [r3]
 1663 0010 0393     		str	r3, [sp, #12]
 1664              		.loc 1 282 0
 1665 0012 0023     		movs	r3, #0
 1666 0014 8DF80B30 		strb	r3, [sp, #11]
 1667              		.loc 1 285 0
 1668 0018 BDF90230 		ldrsh	r3, [sp, #2]
 1669 001c 002B     		cmp	r3, #0
 1670 001e 04DB     		blt	.L79
 1671              		.loc 1 285 0 is_stmt 0 discriminator 1
 1672 0020 BDF90230 		ldrsh	r3, [sp, #2]
 1673 0024 B3F57A7F 		cmp	r3, #1000
 1674 0028 03DD     		ble	.L80
 1675              	.L79:
 1676              		.loc 1 286 0 is_stmt 1
 1677 002a FC23     		movs	r3, #252
 1678 002c 8DF80B30 		strb	r3, [sp, #11]
 1679 0030 11E0     		b	.L81
 1680              	.L80:
 1681              		.loc 1 288 0
 1682 0032 BDF80220 		ldrh	r2, [sp, #2]
 1683 0036 019B     		ldr	r3, [sp, #4]
 1684 0038 A3F85221 		strh	r2, [r3, #338]	@ movhi
 1685              		.loc 1 291 0
 1686 003c BDF90230 		ldrsh	r3, [sp, #2]
 1687 0040 B3F57A7F 		cmp	r3, #1000
 1688 0044 07D0     		beq	.L81
 1689              		.loc 1 293 0
 1690 0046 0022     		movs	r2, #0
 1691 0048 2021     		movs	r1, #32
 1692 004a 0198     		ldr	r0, [sp, #4]
 1693 004c FFF7FEFF 		bl	VL53L0X_WrWord
 1694 0050 0346     		mov	r3, r0
 1695 0052 8DF80B30 		strb	r3, [sp, #11]
 1696              	.L81:
 1697              		.loc 1 299 0
 1698 0056 9DF90B30 		ldrsb	r3, [sp, #11]
 1699              		.loc 1 300 0
 1700 005a 1846     		mov	r0, r3
 1701 005c 044B     		ldr	r3, .L84
 1702 005e 039A     		ldr	r2, [sp, #12]
 1703 0060 1B68     		ldr	r3, [r3]
 1704 0062 9A42     		cmp	r2, r3
 1705 0064 01D0     		beq	.L83
 1706 0066 FFF7FEFF 		bl	__stack_chk_fail
 1707              	.L83:
 1708 006a 05B0     		add	sp, sp, #20
 1709              		.cfi_def_cfa_offset 4
 1710              		@ sp needed
ARM GAS  C:\Users\PCHAUT~1\AppData\Local\Temp\ccZvjaUR.s 			page 31


 1711 006c 5DF804FB 		ldr	pc, [sp], #4
 1712              	.L85:
 1713              		.align	2
 1714              	.L84:
 1715 0070 00000000 		.word	__stack_chk_guard
 1716              		.cfi_endproc
 1717              	.LFE17:
 1718              		.size	VL53L0X_SetLinearityCorrectiveGain, .-VL53L0X_SetLinearityCorrectiveGain
 1719              		.section	.text.VL53L0X_GetLinearityCorrectiveGain,"ax",%progbits
 1720              		.align	1
 1721              		.p2align 4,,15
 1722              		.global	VL53L0X_GetLinearityCorrectiveGain
 1723              		.syntax unified
 1724              		.thumb
 1725              		.thumb_func
 1726              		.fpu fpv4-sp-d16
 1727              		.type	VL53L0X_GetLinearityCorrectiveGain, %function
 1728              	VL53L0X_GetLinearityCorrectiveGain:
 1729              	.LFB18:
 1730              		.loc 1 304 0
 1731              		.cfi_startproc
 1732              		@ args = 0, pretend = 0, frame = 16
 1733              		@ frame_needed = 0, uses_anonymous_args = 0
 1734 0000 00B5     		push	{lr}
 1735              		.cfi_def_cfa_offset 4
 1736              		.cfi_offset 14, -4
 1737 0002 85B0     		sub	sp, sp, #20
 1738              		.cfi_def_cfa_offset 24
 1739 0004 0190     		str	r0, [sp, #4]
 1740 0006 0091     		str	r1, [sp]
 1741              		.loc 1 304 0
 1742 0008 0B4B     		ldr	r3, .L89
 1743 000a 1B68     		ldr	r3, [r3]
 1744 000c 0393     		str	r3, [sp, #12]
 1745              		.loc 1 305 0
 1746 000e 0023     		movs	r3, #0
 1747 0010 8DF80B30 		strb	r3, [sp, #11]
 1748              		.loc 1 308 0
 1749 0014 019B     		ldr	r3, [sp, #4]
 1750 0016 B3F85221 		ldrh	r2, [r3, #338]
 1751 001a 009B     		ldr	r3, [sp]
 1752 001c 1A80     		strh	r2, [r3]	@ movhi
 1753              		.loc 1 311 0
 1754 001e 9DF90B30 		ldrsb	r3, [sp, #11]
 1755              		.loc 1 312 0
 1756 0022 1846     		mov	r0, r3
 1757 0024 044B     		ldr	r3, .L89
 1758 0026 039A     		ldr	r2, [sp, #12]
 1759 0028 1B68     		ldr	r3, [r3]
 1760 002a 9A42     		cmp	r2, r3
 1761 002c 01D0     		beq	.L88
 1762 002e FFF7FEFF 		bl	__stack_chk_fail
 1763              	.L88:
 1764 0032 05B0     		add	sp, sp, #20
 1765              		.cfi_def_cfa_offset 4
 1766              		@ sp needed
 1767 0034 5DF804FB 		ldr	pc, [sp], #4
ARM GAS  C:\Users\PCHAUT~1\AppData\Local\Temp\ccZvjaUR.s 			page 32


 1768              	.L90:
 1769              		.align	2
 1770              	.L89:
 1771 0038 00000000 		.word	__stack_chk_guard
 1772              		.cfi_endproc
 1773              	.LFE18:
 1774              		.size	VL53L0X_GetLinearityCorrectiveGain, .-VL53L0X_GetLinearityCorrectiveGain
 1775              		.section	.text.VL53L0X_SetGroupParamHold,"ax",%progbits
 1776              		.align	1
 1777              		.p2align 4,,15
 1778              		.global	VL53L0X_SetGroupParamHold
 1779              		.syntax unified
 1780              		.thumb
 1781              		.thumb_func
 1782              		.fpu fpv4-sp-d16
 1783              		.type	VL53L0X_SetGroupParamHold, %function
 1784              	VL53L0X_SetGroupParamHold:
 1785              	.LFB19:
 1786              		.loc 1 315 0
 1787              		.cfi_startproc
 1788              		@ args = 0, pretend = 0, frame = 16
 1789              		@ frame_needed = 0, uses_anonymous_args = 0
 1790 0000 00B5     		push	{lr}
 1791              		.cfi_def_cfa_offset 4
 1792              		.cfi_offset 14, -4
 1793 0002 85B0     		sub	sp, sp, #20
 1794              		.cfi_def_cfa_offset 24
 1795 0004 0190     		str	r0, [sp, #4]
 1796 0006 0B46     		mov	r3, r1
 1797 0008 8DF80330 		strb	r3, [sp, #3]
 1798              		.loc 1 315 0
 1799 000c 094B     		ldr	r3, .L94
 1800 000e 1B68     		ldr	r3, [r3]
 1801 0010 0393     		str	r3, [sp, #12]
 1802              		.loc 1 316 0
 1803 0012 9D23     		movs	r3, #157
 1804 0014 8DF80B30 		strb	r3, [sp, #11]
 1805              		.loc 1 324 0
 1806 0018 9DF90B30 		ldrsb	r3, [sp, #11]
 1807              		.loc 1 325 0
 1808 001c 1846     		mov	r0, r3
 1809 001e 054B     		ldr	r3, .L94
 1810 0020 039A     		ldr	r2, [sp, #12]
 1811 0022 1B68     		ldr	r3, [r3]
 1812 0024 9A42     		cmp	r2, r3
 1813 0026 01D0     		beq	.L93
 1814 0028 FFF7FEFF 		bl	__stack_chk_fail
 1815              	.L93:
 1816 002c 05B0     		add	sp, sp, #20
 1817              		.cfi_def_cfa_offset 4
 1818              		@ sp needed
 1819 002e 5DF804FB 		ldr	pc, [sp], #4
 1820              	.L95:
 1821 0032 00BF     		.align	2
 1822              	.L94:
 1823 0034 00000000 		.word	__stack_chk_guard
 1824              		.cfi_endproc
ARM GAS  C:\Users\PCHAUT~1\AppData\Local\Temp\ccZvjaUR.s 			page 33


 1825              	.LFE19:
 1826              		.size	VL53L0X_SetGroupParamHold, .-VL53L0X_SetGroupParamHold
 1827              		.section	.text.VL53L0X_GetUpperLimitMilliMeter,"ax",%progbits
 1828              		.align	1
 1829              		.p2align 4,,15
 1830              		.global	VL53L0X_GetUpperLimitMilliMeter
 1831              		.syntax unified
 1832              		.thumb
 1833              		.thumb_func
 1834              		.fpu fpv4-sp-d16
 1835              		.type	VL53L0X_GetUpperLimitMilliMeter, %function
 1836              	VL53L0X_GetUpperLimitMilliMeter:
 1837              	.LFB20:
 1838              		.loc 1 329 0
 1839              		.cfi_startproc
 1840              		@ args = 0, pretend = 0, frame = 16
 1841              		@ frame_needed = 0, uses_anonymous_args = 0
 1842 0000 00B5     		push	{lr}
 1843              		.cfi_def_cfa_offset 4
 1844              		.cfi_offset 14, -4
 1845 0002 85B0     		sub	sp, sp, #20
 1846              		.cfi_def_cfa_offset 24
 1847 0004 0190     		str	r0, [sp, #4]
 1848 0006 0091     		str	r1, [sp]
 1849              		.loc 1 329 0
 1850 0008 094B     		ldr	r3, .L99
 1851 000a 1B68     		ldr	r3, [r3]
 1852 000c 0393     		str	r3, [sp, #12]
 1853              		.loc 1 330 0
 1854 000e 9D23     		movs	r3, #157
 1855 0010 8DF80B30 		strb	r3, [sp, #11]
 1856              		.loc 1 338 0
 1857 0014 9DF90B30 		ldrsb	r3, [sp, #11]
 1858              		.loc 1 339 0
 1859 0018 1846     		mov	r0, r3
 1860 001a 054B     		ldr	r3, .L99
 1861 001c 039A     		ldr	r2, [sp, #12]
 1862 001e 1B68     		ldr	r3, [r3]
 1863 0020 9A42     		cmp	r2, r3
 1864 0022 01D0     		beq	.L98
 1865 0024 FFF7FEFF 		bl	__stack_chk_fail
 1866              	.L98:
 1867 0028 05B0     		add	sp, sp, #20
 1868              		.cfi_def_cfa_offset 4
 1869              		@ sp needed
 1870 002a 5DF804FB 		ldr	pc, [sp], #4
 1871              	.L100:
 1872 002e 00BF     		.align	2
 1873              	.L99:
 1874 0030 00000000 		.word	__stack_chk_guard
 1875              		.cfi_endproc
 1876              	.LFE20:
 1877              		.size	VL53L0X_GetUpperLimitMilliMeter, .-VL53L0X_GetUpperLimitMilliMeter
 1878              		.section	.text.VL53L0X_GetTotalSignalRate,"ax",%progbits
 1879              		.align	1
 1880              		.p2align 4,,15
 1881              		.global	VL53L0X_GetTotalSignalRate
ARM GAS  C:\Users\PCHAUT~1\AppData\Local\Temp\ccZvjaUR.s 			page 34


 1882              		.syntax unified
 1883              		.thumb
 1884              		.thumb_func
 1885              		.fpu fpv4-sp-d16
 1886              		.type	VL53L0X_GetTotalSignalRate, %function
 1887              	VL53L0X_GetTotalSignalRate:
 1888              	.LFB21:
 1889              		.loc 1 343 0
 1890              		.cfi_startproc
 1891              		@ args = 0, pretend = 0, frame = 48
 1892              		@ frame_needed = 0, uses_anonymous_args = 0
 1893 0000 30B5     		push	{r4, r5, lr}
 1894              		.cfi_def_cfa_offset 12
 1895              		.cfi_offset 4, -12
 1896              		.cfi_offset 5, -8
 1897              		.cfi_offset 14, -4
 1898 0002 8DB0     		sub	sp, sp, #52
 1899              		.cfi_def_cfa_offset 64
 1900 0004 0190     		str	r0, [sp, #4]
 1901 0006 0091     		str	r1, [sp]
 1902              		.loc 1 343 0
 1903 0008 124B     		ldr	r3, .L104
 1904 000a 1B68     		ldr	r3, [r3]
 1905 000c 0B93     		str	r3, [sp, #44]
 1906              		.loc 1 344 0
 1907 000e 0023     		movs	r3, #0
 1908 0010 8DF80F30 		strb	r3, [sp, #15]
 1909              		.loc 1 349 0
 1910 0014 019B     		ldr	r3, [sp, #4]
 1911 0016 04AC     		add	r4, sp, #16
 1912 0018 03F15005 		add	r5, r3, #80
 1913 001c 0FCD     		ldmia	r5!, {r0, r1, r2, r3}
 1914 001e 0FC4     		stmia	r4!, {r0, r1, r2, r3}
 1915 0020 95E80700 		ldm	r5, {r0, r1, r2}
 1916 0024 84E80700 		stm	r4, {r0, r1, r2}
 1917              		.loc 1 351 0
 1918 0028 04AB     		add	r3, sp, #16
 1919 002a 009A     		ldr	r2, [sp]
 1920 002c 1946     		mov	r1, r3
 1921 002e 0198     		ldr	r0, [sp, #4]
 1922 0030 FFF7FEFF 		bl	VL53L0X_get_total_signal_rate
 1923 0034 0346     		mov	r3, r0
 1924 0036 8DF80F30 		strb	r3, [sp, #15]
 1925              		.loc 1 355 0
 1926 003a 9DF90F30 		ldrsb	r3, [sp, #15]
 1927              		.loc 1 356 0
 1928 003e 1846     		mov	r0, r3
 1929 0040 044B     		ldr	r3, .L104
 1930 0042 0B9A     		ldr	r2, [sp, #44]
 1931 0044 1B68     		ldr	r3, [r3]
 1932 0046 9A42     		cmp	r2, r3
 1933 0048 01D0     		beq	.L103
 1934 004a FFF7FEFF 		bl	__stack_chk_fail
 1935              	.L103:
 1936 004e 0DB0     		add	sp, sp, #52
 1937              		.cfi_def_cfa_offset 12
 1938              		@ sp needed
ARM GAS  C:\Users\PCHAUT~1\AppData\Local\Temp\ccZvjaUR.s 			page 35


 1939 0050 30BD     		pop	{r4, r5, pc}
 1940              	.L105:
 1941 0052 00BF     		.align	2
 1942              	.L104:
 1943 0054 00000000 		.word	__stack_chk_guard
 1944              		.cfi_endproc
 1945              	.LFE21:
 1946              		.size	VL53L0X_GetTotalSignalRate, .-VL53L0X_GetTotalSignalRate
 1947              		.section	.text.VL53L0X_SetDeviceAddress,"ax",%progbits
 1948              		.align	1
 1949              		.p2align 4,,15
 1950              		.global	VL53L0X_SetDeviceAddress
 1951              		.syntax unified
 1952              		.thumb
 1953              		.thumb_func
 1954              		.fpu fpv4-sp-d16
 1955              		.type	VL53L0X_SetDeviceAddress, %function
 1956              	VL53L0X_SetDeviceAddress:
 1957              	.LFB22:
 1958              		.loc 1 362 0
 1959              		.cfi_startproc
 1960              		@ args = 0, pretend = 0, frame = 16
 1961              		@ frame_needed = 0, uses_anonymous_args = 0
 1962 0000 00B5     		push	{lr}
 1963              		.cfi_def_cfa_offset 4
 1964              		.cfi_offset 14, -4
 1965 0002 85B0     		sub	sp, sp, #20
 1966              		.cfi_def_cfa_offset 24
 1967 0004 0190     		str	r0, [sp, #4]
 1968 0006 0B46     		mov	r3, r1
 1969 0008 8DF80330 		strb	r3, [sp, #3]
 1970              		.loc 1 362 0
 1971 000c 0F4B     		ldr	r3, .L109
 1972 000e 1B68     		ldr	r3, [r3]
 1973 0010 0393     		str	r3, [sp, #12]
 1974              		.loc 1 363 0
 1975 0012 0023     		movs	r3, #0
 1976 0014 8DF80B30 		strb	r3, [sp, #11]
 1977              		.loc 1 366 0
 1978 0018 9DF80330 		ldrb	r3, [sp, #3]	@ zero_extendqisi2
 1979 001c 5B08     		lsrs	r3, r3, #1
 1980 001e DBB2     		uxtb	r3, r3
 1981 0020 1A46     		mov	r2, r3
 1982 0022 8A21     		movs	r1, #138
 1983 0024 0198     		ldr	r0, [sp, #4]
 1984 0026 FFF7FEFF 		bl	VL53L0X_WrByte
 1985 002a 0346     		mov	r3, r0
 1986 002c 8DF80B30 		strb	r3, [sp, #11]
 1987              		.loc 1 370 0
 1988 0030 9DF90B30 		ldrsb	r3, [sp, #11]
 1989              		.loc 1 371 0
 1990 0034 1846     		mov	r0, r3
 1991 0036 054B     		ldr	r3, .L109
 1992 0038 039A     		ldr	r2, [sp, #12]
 1993 003a 1B68     		ldr	r3, [r3]
 1994 003c 9A42     		cmp	r2, r3
 1995 003e 01D0     		beq	.L108
ARM GAS  C:\Users\PCHAUT~1\AppData\Local\Temp\ccZvjaUR.s 			page 36


 1996 0040 FFF7FEFF 		bl	__stack_chk_fail
 1997              	.L108:
 1998 0044 05B0     		add	sp, sp, #20
 1999              		.cfi_def_cfa_offset 4
 2000              		@ sp needed
 2001 0046 5DF804FB 		ldr	pc, [sp], #4
 2002              	.L110:
 2003 004a 00BF     		.align	2
 2004              	.L109:
 2005 004c 00000000 		.word	__stack_chk_guard
 2006              		.cfi_endproc
 2007              	.LFE22:
 2008              		.size	VL53L0X_SetDeviceAddress, .-VL53L0X_SetDeviceAddress
 2009              		.section	.text.VL53L0X_DataInit,"ax",%progbits
 2010              		.align	1
 2011              		.p2align 4,,15
 2012              		.global	VL53L0X_DataInit
 2013              		.syntax unified
 2014              		.thumb
 2015              		.thumb_func
 2016              		.fpu fpv4-sp-d16
 2017              		.type	VL53L0X_DataInit, %function
 2018              	VL53L0X_DataInit:
 2019              	.LFB23:
 2020              		.loc 1 374 0
 2021              		.cfi_startproc
 2022              		@ args = 0, pretend = 0, frame = 88
 2023              		@ frame_needed = 0, uses_anonymous_args = 0
 2024 0000 30B5     		push	{r4, r5, lr}
 2025              		.cfi_def_cfa_offset 12
 2026              		.cfi_offset 4, -12
 2027              		.cfi_offset 5, -8
 2028              		.cfi_offset 14, -4
 2029 0002 97B0     		sub	sp, sp, #92
 2030              		.cfi_def_cfa_offset 104
 2031 0004 0190     		str	r0, [sp, #4]
 2032              		.loc 1 374 0
 2033 0006 B24B     		ldr	r3, .L132
 2034 0008 1B68     		ldr	r3, [r3]
 2035 000a 1593     		str	r3, [sp, #84]
 2036              		.loc 1 375 0
 2037 000c 0023     		movs	r3, #0
 2038 000e 8DF80F30 		strb	r3, [sp, #15]
 2039              		.loc 1 392 0
 2040 0012 9DF90F30 		ldrsb	r3, [sp, #15]
 2041 0016 002B     		cmp	r3, #0
 2042 0018 07D1     		bne	.L112
 2043              		.loc 1 393 0
 2044 001a 0022     		movs	r2, #0
 2045 001c 8821     		movs	r1, #136
 2046 001e 0198     		ldr	r0, [sp, #4]
 2047 0020 FFF7FEFF 		bl	VL53L0X_WrByte
 2048 0024 0346     		mov	r3, r0
 2049 0026 8DF80F30 		strb	r3, [sp, #15]
 2050              	.L112:
 2051              		.loc 1 395 0
 2052 002a 019B     		ldr	r3, [sp, #4]
ARM GAS  C:\Users\PCHAUT~1\AppData\Local\Temp\ccZvjaUR.s 			page 37


 2053 002c 0022     		movs	r2, #0
 2054 002e 83F8F020 		strb	r2, [r3, #240]
 2055              		.loc 1 403 0
 2056 0032 019B     		ldr	r3, [sp, #4]
 2057 0034 4FF47A72 		mov	r2, #1000
 2058 0038 A3F85221 		strh	r2, [r3, #338]	@ movhi
 2059              		.loc 1 406 0
 2060 003c 019B     		ldr	r3, [sp, #4]
 2061 003e 4FF4C872 		mov	r2, #400
 2062 0042 A3F85421 		strh	r2, [r3, #340]	@ movhi
 2063              		.loc 1 407 0
 2064 0046 019B     		ldr	r3, [sp, #4]
 2065 0048 A24A     		ldr	r2, .L132+4
 2066 004a C3F85821 		str	r2, [r3, #344]
 2067              		.loc 1 412 0
 2068 004e 019B     		ldr	r3, [sp, #4]
 2069 0050 A14A     		ldr	r2, .L132+8
 2070 0052 C3F8D420 		str	r2, [r3, #212]
 2071              		.loc 1 415 0
 2072 0056 019B     		ldr	r3, [sp, #4]
 2073 0058 0022     		movs	r2, #0
 2074 005a 1A62     		str	r2, [r3, #32]
 2075              		.loc 1 418 0
 2076 005c 05AB     		add	r3, sp, #20
 2077 005e 1946     		mov	r1, r3
 2078 0060 0198     		ldr	r0, [sp, #4]
 2079 0062 FFF7FEFF 		bl	VL53L0X_GetDeviceParameters
 2080 0066 0346     		mov	r3, r0
 2081 0068 8DF80F30 		strb	r3, [sp, #15]
 2082              		.loc 1 419 0
 2083 006c 9DF90F30 		ldrsb	r3, [sp, #15]
 2084 0070 002B     		cmp	r3, #0
 2085 0072 13D1     		bne	.L113
 2086              		.loc 1 421 0
 2087 0074 0023     		movs	r3, #0
 2088 0076 8DF81430 		strb	r3, [sp, #20]
 2089              		.loc 1 422 0
 2090 007a 0023     		movs	r3, #0
 2091 007c 8DF81530 		strb	r3, [sp, #21]
 2092              		.loc 1 423 0
 2093 0080 019B     		ldr	r3, [sp, #4]
 2094 0082 03F11004 		add	r4, r3, #16
 2095 0086 05AD     		add	r5, sp, #20
 2096 0088 0FCD     		ldmia	r5!, {r0, r1, r2, r3}
 2097 008a 0FC4     		stmia	r4!, {r0, r1, r2, r3}
 2098 008c 0FCD     		ldmia	r5!, {r0, r1, r2, r3}
 2099 008e 0FC4     		stmia	r4!, {r0, r1, r2, r3}
 2100 0090 0FCD     		ldmia	r5!, {r0, r1, r2, r3}
 2101 0092 0FC4     		stmia	r4!, {r0, r1, r2, r3}
 2102 0094 95E80F00 		ldm	r5, {r0, r1, r2, r3}
 2103 0098 84E80F00 		stm	r4, {r0, r1, r2, r3}
 2104              	.L113:
 2105              		.loc 1 427 0
 2106 009c 019B     		ldr	r3, [sp, #4]
 2107 009e 6422     		movs	r2, #100
 2108 00a0 A3F83421 		strh	r2, [r3, #308]	@ movhi
 2109              		.loc 1 428 0
ARM GAS  C:\Users\PCHAUT~1\AppData\Local\Temp\ccZvjaUR.s 			page 38


 2110 00a4 019B     		ldr	r3, [sp, #4]
 2111 00a6 4FF46172 		mov	r2, #900
 2112 00aa A3F83621 		strh	r2, [r3, #310]	@ movhi
 2113              		.loc 1 429 0
 2114 00ae 019B     		ldr	r3, [sp, #4]
 2115 00b0 4FF4FA72 		mov	r2, #500
 2116 00b4 A3F83821 		strh	r2, [r3, #312]	@ movhi
 2117              		.loc 1 430 0
 2118 00b8 019B     		ldr	r3, [sp, #4]
 2119 00ba 4FF42062 		mov	r2, #2560
 2120 00be A3F83C21 		strh	r2, [r3, #316]	@ movhi
 2121              		.loc 1 433 0
 2122 00c2 019B     		ldr	r3, [sp, #4]
 2123 00c4 0122     		movs	r2, #1
 2124 00c6 83F85021 		strb	r2, [r3, #336]
 2125              		.loc 1 435 0
 2126 00ca 0122     		movs	r2, #1
 2127 00cc 8021     		movs	r1, #128
 2128 00ce 0198     		ldr	r0, [sp, #4]
 2129 00d0 FFF7FEFF 		bl	VL53L0X_WrByte
 2130 00d4 0346     		mov	r3, r0
 2131 00d6 1A46     		mov	r2, r3
 2132 00d8 9DF80F30 		ldrb	r3, [sp, #15]
 2133 00dc 1343     		orrs	r3, r3, r2
 2134 00de 8DF80F30 		strb	r3, [sp, #15]
 2135              		.loc 1 436 0
 2136 00e2 0122     		movs	r2, #1
 2137 00e4 FF21     		movs	r1, #255
 2138 00e6 0198     		ldr	r0, [sp, #4]
 2139 00e8 FFF7FEFF 		bl	VL53L0X_WrByte
 2140 00ec 0346     		mov	r3, r0
 2141 00ee 1A46     		mov	r2, r3
 2142 00f0 9DF80F30 		ldrb	r3, [sp, #15]
 2143 00f4 1343     		orrs	r3, r3, r2
 2144 00f6 8DF80F30 		strb	r3, [sp, #15]
 2145              		.loc 1 437 0
 2146 00fa 0022     		movs	r2, #0
 2147 00fc 0021     		movs	r1, #0
 2148 00fe 0198     		ldr	r0, [sp, #4]
 2149 0100 FFF7FEFF 		bl	VL53L0X_WrByte
 2150 0104 0346     		mov	r3, r0
 2151 0106 1A46     		mov	r2, r3
 2152 0108 9DF80F30 		ldrb	r3, [sp, #15]
 2153 010c 1343     		orrs	r3, r3, r2
 2154 010e 8DF80F30 		strb	r3, [sp, #15]
 2155              		.loc 1 438 0
 2156 0112 0DF10E03 		add	r3, sp, #14
 2157 0116 1A46     		mov	r2, r3
 2158 0118 9121     		movs	r1, #145
 2159 011a 0198     		ldr	r0, [sp, #4]
 2160 011c FFF7FEFF 		bl	VL53L0X_RdByte
 2161 0120 0346     		mov	r3, r0
 2162 0122 1A46     		mov	r2, r3
 2163 0124 9DF80F30 		ldrb	r3, [sp, #15]
 2164 0128 1343     		orrs	r3, r3, r2
 2165 012a 8DF80F30 		strb	r3, [sp, #15]
 2166              		.loc 1 439 0
ARM GAS  C:\Users\PCHAUT~1\AppData\Local\Temp\ccZvjaUR.s 			page 39


 2167 012e 9DF80E20 		ldrb	r2, [sp, #14]	@ zero_extendqisi2
 2168 0132 019B     		ldr	r3, [sp, #4]
 2169 0134 83F83A21 		strb	r2, [r3, #314]
 2170              		.loc 1 440 0
 2171 0138 0122     		movs	r2, #1
 2172 013a 0021     		movs	r1, #0
 2173 013c 0198     		ldr	r0, [sp, #4]
 2174 013e FFF7FEFF 		bl	VL53L0X_WrByte
 2175 0142 0346     		mov	r3, r0
 2176 0144 1A46     		mov	r2, r3
 2177 0146 9DF80F30 		ldrb	r3, [sp, #15]
 2178 014a 1343     		orrs	r3, r3, r2
 2179 014c 8DF80F30 		strb	r3, [sp, #15]
 2180              		.loc 1 441 0
 2181 0150 0022     		movs	r2, #0
 2182 0152 FF21     		movs	r1, #255
 2183 0154 0198     		ldr	r0, [sp, #4]
 2184 0156 FFF7FEFF 		bl	VL53L0X_WrByte
 2185 015a 0346     		mov	r3, r0
 2186 015c 1A46     		mov	r2, r3
 2187 015e 9DF80F30 		ldrb	r3, [sp, #15]
 2188 0162 1343     		orrs	r3, r3, r2
 2189 0164 8DF80F30 		strb	r3, [sp, #15]
 2190              		.loc 1 442 0
 2191 0168 0022     		movs	r2, #0
 2192 016a 8021     		movs	r1, #128
 2193 016c 0198     		ldr	r0, [sp, #4]
 2194 016e FFF7FEFF 		bl	VL53L0X_WrByte
 2195 0172 0346     		mov	r3, r0
 2196 0174 1A46     		mov	r2, r3
 2197 0176 9DF80F30 		ldrb	r3, [sp, #15]
 2198 017a 1343     		orrs	r3, r3, r2
 2199 017c 8DF80F30 		strb	r3, [sp, #15]
 2200              		.loc 1 445 0
 2201 0180 0023     		movs	r3, #0
 2202 0182 0493     		str	r3, [sp, #16]
 2203 0184 14E0     		b	.L114
 2204              	.L118:
 2205              		.loc 1 446 0
 2206 0186 9DF90F30 		ldrsb	r3, [sp, #15]
 2207 018a 002B     		cmp	r3, #0
 2208 018c 14D1     		bne	.L131
 2209              		.loc 1 447 0
 2210 018e 049B     		ldr	r3, [sp, #16]
 2211 0190 9BB2     		uxth	r3, r3
 2212 0192 0122     		movs	r2, #1
 2213 0194 1946     		mov	r1, r3
 2214 0196 0198     		ldr	r0, [sp, #4]
 2215 0198 FFF7FEFF 		bl	VL53L0X_SetLimitCheckEnable
 2216 019c 0346     		mov	r3, r0
 2217 019e 1A46     		mov	r2, r3
 2218 01a0 9DF80F30 		ldrb	r3, [sp, #15]
 2219 01a4 1343     		orrs	r3, r3, r2
 2220 01a6 8DF80F30 		strb	r3, [sp, #15]
 2221              		.loc 1 445 0
 2222 01aa 049B     		ldr	r3, [sp, #16]
 2223 01ac 0133     		adds	r3, r3, #1
ARM GAS  C:\Users\PCHAUT~1\AppData\Local\Temp\ccZvjaUR.s 			page 40


 2224 01ae 0493     		str	r3, [sp, #16]
 2225              	.L114:
 2226              		.loc 1 445 0 is_stmt 0 discriminator 1
 2227 01b0 049B     		ldr	r3, [sp, #16]
 2228 01b2 052B     		cmp	r3, #5
 2229 01b4 E7DD     		ble	.L118
 2230 01b6 00E0     		b	.L117
 2231              	.L131:
 2232              		.loc 1 449 0 is_stmt 1
 2233 01b8 00BF     		nop
 2234              	.L117:
 2235              		.loc 1 454 0
 2236 01ba 9DF90F30 		ldrsb	r3, [sp, #15]
 2237 01be 002B     		cmp	r3, #0
 2238 01c0 07D1     		bne	.L119
 2239              		.loc 1 455 0
 2240 01c2 0022     		movs	r2, #0
 2241 01c4 0221     		movs	r1, #2
 2242 01c6 0198     		ldr	r0, [sp, #4]
 2243 01c8 FFF7FEFF 		bl	VL53L0X_SetLimitCheckEnable
 2244 01cc 0346     		mov	r3, r0
 2245 01ce 8DF80F30 		strb	r3, [sp, #15]
 2246              	.L119:
 2247              		.loc 1 458 0
 2248 01d2 9DF90F30 		ldrsb	r3, [sp, #15]
 2249 01d6 002B     		cmp	r3, #0
 2250 01d8 07D1     		bne	.L120
 2251              		.loc 1 459 0
 2252 01da 0022     		movs	r2, #0
 2253 01dc 0321     		movs	r1, #3
 2254 01de 0198     		ldr	r0, [sp, #4]
 2255 01e0 FFF7FEFF 		bl	VL53L0X_SetLimitCheckEnable
 2256 01e4 0346     		mov	r3, r0
 2257 01e6 8DF80F30 		strb	r3, [sp, #15]
 2258              	.L120:
 2259              		.loc 1 462 0
 2260 01ea 9DF90F30 		ldrsb	r3, [sp, #15]
 2261 01ee 002B     		cmp	r3, #0
 2262 01f0 07D1     		bne	.L121
 2263              		.loc 1 463 0
 2264 01f2 0022     		movs	r2, #0
 2265 01f4 0421     		movs	r1, #4
 2266 01f6 0198     		ldr	r0, [sp, #4]
 2267 01f8 FFF7FEFF 		bl	VL53L0X_SetLimitCheckEnable
 2268 01fc 0346     		mov	r3, r0
 2269 01fe 8DF80F30 		strb	r3, [sp, #15]
 2270              	.L121:
 2271              		.loc 1 466 0
 2272 0202 9DF90F30 		ldrsb	r3, [sp, #15]
 2273 0206 002B     		cmp	r3, #0
 2274 0208 07D1     		bne	.L122
 2275              		.loc 1 467 0
 2276 020a 0022     		movs	r2, #0
 2277 020c 0521     		movs	r1, #5
 2278 020e 0198     		ldr	r0, [sp, #4]
 2279 0210 FFF7FEFF 		bl	VL53L0X_SetLimitCheckEnable
 2280 0214 0346     		mov	r3, r0
ARM GAS  C:\Users\PCHAUT~1\AppData\Local\Temp\ccZvjaUR.s 			page 41


 2281 0216 8DF80F30 		strb	r3, [sp, #15]
 2282              	.L122:
 2283              		.loc 1 471 0
 2284 021a 9DF90F30 		ldrsb	r3, [sp, #15]
 2285 021e 002B     		cmp	r3, #0
 2286 0220 08D1     		bne	.L123
 2287              		.loc 1 472 0
 2288 0222 4FF49012 		mov	r2, #1179648
 2289 0226 0021     		movs	r1, #0
 2290 0228 0198     		ldr	r0, [sp, #4]
 2291 022a FFF7FEFF 		bl	VL53L0X_SetLimitCheckValue
 2292 022e 0346     		mov	r3, r0
 2293 0230 8DF80F30 		strb	r3, [sp, #15]
 2294              	.L123:
 2295              		.loc 1 476 0
 2296 0234 9DF90F30 		ldrsb	r3, [sp, #15]
 2297 0238 002B     		cmp	r3, #0
 2298 023a 08D1     		bne	.L124
 2299              		.loc 1 477 0
 2300 023c 4FF48042 		mov	r2, #16384
 2301 0240 0121     		movs	r1, #1
 2302 0242 0198     		ldr	r0, [sp, #4]
 2303 0244 FFF7FEFF 		bl	VL53L0X_SetLimitCheckValue
 2304 0248 0346     		mov	r3, r0
 2305 024a 8DF80F30 		strb	r3, [sp, #15]
 2306              	.L124:
 2307              		.loc 1 483 0
 2308 024e 9DF90F30 		ldrsb	r3, [sp, #15]
 2309 0252 002B     		cmp	r3, #0
 2310 0254 08D1     		bne	.L125
 2311              		.loc 1 484 0
 2312 0256 4FF40C12 		mov	r2, #2293760
 2313 025a 0221     		movs	r1, #2
 2314 025c 0198     		ldr	r0, [sp, #4]
 2315 025e FFF7FEFF 		bl	VL53L0X_SetLimitCheckValue
 2316 0262 0346     		mov	r3, r0
 2317 0264 8DF80F30 		strb	r3, [sp, #15]
 2318              	.L125:
 2319              		.loc 1 489 0
 2320 0268 9DF90F30 		ldrsb	r3, [sp, #15]
 2321 026c 002B     		cmp	r3, #0
 2322 026e 07D1     		bne	.L126
 2323              		.loc 1 490 0
 2324 0270 0022     		movs	r2, #0
 2325 0272 0321     		movs	r1, #3
 2326 0274 0198     		ldr	r0, [sp, #4]
 2327 0276 FFF7FEFF 		bl	VL53L0X_SetLimitCheckValue
 2328 027a 0346     		mov	r3, r0
 2329 027c 8DF80F30 		strb	r3, [sp, #15]
 2330              	.L126:
 2331              		.loc 1 495 0
 2332 0280 9DF90F30 		ldrsb	r3, [sp, #15]
 2333 0284 002B     		cmp	r3, #0
 2334 0286 0FD1     		bne	.L127
 2335              		.loc 1 497 0
 2336 0288 019B     		ldr	r3, [sp, #4]
 2337 028a FF22     		movs	r2, #255
ARM GAS  C:\Users\PCHAUT~1\AppData\Local\Temp\ccZvjaUR.s 			page 42


 2338 028c 83F83021 		strb	r2, [r3, #304]
 2339              		.loc 1 498 0
 2340 0290 FF22     		movs	r2, #255
 2341 0292 0121     		movs	r1, #1
 2342 0294 0198     		ldr	r0, [sp, #4]
 2343 0296 FFF7FEFF 		bl	VL53L0X_WrByte
 2344 029a 0346     		mov	r3, r0
 2345 029c 8DF80F30 		strb	r3, [sp, #15]
 2346              		.loc 1 503 0
 2347 02a0 019B     		ldr	r3, [sp, #4]
 2348 02a2 0122     		movs	r2, #1
 2349 02a4 83F83221 		strb	r2, [r3, #306]
 2350              	.L127:
 2351              		.loc 1 506 0
 2352 02a8 9DF90F30 		ldrsb	r3, [sp, #15]
 2353 02ac 002B     		cmp	r3, #0
 2354 02ae 03D1     		bne	.L128
 2355              		.loc 1 507 0
 2356 02b0 019B     		ldr	r3, [sp, #4]
 2357 02b2 0022     		movs	r2, #0
 2358 02b4 83F81521 		strb	r2, [r3, #277]
 2359              	.L128:
 2360              		.loc 1 511 0
 2361 02b8 9DF90F30 		ldrsb	r3, [sp, #15]
 2362              		.loc 1 512 0
 2363 02bc 1846     		mov	r0, r3
 2364 02be 044B     		ldr	r3, .L132
 2365 02c0 159A     		ldr	r2, [sp, #84]
 2366 02c2 1B68     		ldr	r3, [r3]
 2367 02c4 9A42     		cmp	r2, r3
 2368 02c6 01D0     		beq	.L130
 2369 02c8 FFF7FEFF 		bl	__stack_chk_fail
 2370              	.L130:
 2371 02cc 17B0     		add	sp, sp, #92
 2372              		.cfi_def_cfa_offset 12
 2373              		@ sp needed
 2374 02ce 30BD     		pop	{r4, r5, pc}
 2375              	.L133:
 2376              		.align	2
 2377              	.L132:
 2378 02d0 00000000 		.word	__stack_chk_guard
 2379 02d4 856B0100 		.word	93061
 2380 02d8 A4700900 		.word	618660
 2381              		.cfi_endproc
 2382              	.LFE23:
 2383              		.size	VL53L0X_DataInit, .-VL53L0X_DataInit
 2384              		.section	.text.VL53L0X_SetTuningSettingBuffer,"ax",%progbits
 2385              		.align	1
 2386              		.p2align 4,,15
 2387              		.global	VL53L0X_SetTuningSettingBuffer
 2388              		.syntax unified
 2389              		.thumb
 2390              		.thumb_func
 2391              		.fpu fpv4-sp-d16
 2392              		.type	VL53L0X_SetTuningSettingBuffer, %function
 2393              	VL53L0X_SetTuningSettingBuffer:
 2394              	.LFB24:
ARM GAS  C:\Users\PCHAUT~1\AppData\Local\Temp\ccZvjaUR.s 			page 43


 2395              		.loc 1 516 0
 2396              		.cfi_startproc
 2397              		@ args = 0, pretend = 0, frame = 24
 2398              		@ frame_needed = 0, uses_anonymous_args = 0
 2399 0000 00B5     		push	{lr}
 2400              		.cfi_def_cfa_offset 4
 2401              		.cfi_offset 14, -4
 2402 0002 87B0     		sub	sp, sp, #28
 2403              		.cfi_def_cfa_offset 32
 2404 0004 0390     		str	r0, [sp, #12]
 2405 0006 0291     		str	r1, [sp, #8]
 2406 0008 1346     		mov	r3, r2
 2407 000a 8DF80730 		strb	r3, [sp, #7]
 2408              		.loc 1 516 0
 2409 000e 164B     		ldr	r3, .L140
 2410 0010 1B68     		ldr	r3, [r3]
 2411 0012 0593     		str	r3, [sp, #20]
 2412              		.loc 1 517 0
 2413 0014 0023     		movs	r3, #0
 2414 0016 8DF81330 		strb	r3, [sp, #19]
 2415              		.loc 1 521 0
 2416 001a 9DF80730 		ldrb	r3, [sp, #7]	@ zero_extendqisi2
 2417 001e 012B     		cmp	r3, #1
 2418 0020 04D1     		bne	.L135
 2419              		.loc 1 523 0
 2420 0022 039B     		ldr	r3, [sp, #12]
 2421 0024 0122     		movs	r2, #1
 2422 0026 83F85021 		strb	r2, [r3, #336]
 2423 002a 0FE0     		b	.L136
 2424              	.L135:
 2425              		.loc 1 527 0
 2426 002c 029B     		ldr	r3, [sp, #8]
 2427 002e 1B78     		ldrb	r3, [r3]	@ zero_extendqisi2
 2428 0030 002B     		cmp	r3, #0
 2429 0032 08D0     		beq	.L137
 2430              		.loc 1 528 0
 2431 0034 039B     		ldr	r3, [sp, #12]
 2432 0036 029A     		ldr	r2, [sp, #8]
 2433 0038 C3F84C21 		str	r2, [r3, #332]
 2434              		.loc 1 530 0
 2435 003c 039B     		ldr	r3, [sp, #12]
 2436 003e 0022     		movs	r2, #0
 2437 0040 83F85021 		strb	r2, [r3, #336]
 2438 0044 02E0     		b	.L136
 2439              	.L137:
 2440              		.loc 1 533 0
 2441 0046 FC23     		movs	r3, #252
 2442 0048 8DF81330 		strb	r3, [sp, #19]
 2443              	.L136:
 2444              		.loc 1 538 0
 2445 004c 9DF91330 		ldrsb	r3, [sp, #19]
 2446              		.loc 1 539 0
 2447 0050 1846     		mov	r0, r3
 2448 0052 054B     		ldr	r3, .L140
 2449 0054 059A     		ldr	r2, [sp, #20]
 2450 0056 1B68     		ldr	r3, [r3]
 2451 0058 9A42     		cmp	r2, r3
ARM GAS  C:\Users\PCHAUT~1\AppData\Local\Temp\ccZvjaUR.s 			page 44


 2452 005a 01D0     		beq	.L139
 2453 005c FFF7FEFF 		bl	__stack_chk_fail
 2454              	.L139:
 2455 0060 07B0     		add	sp, sp, #28
 2456              		.cfi_def_cfa_offset 4
 2457              		@ sp needed
 2458 0062 5DF804FB 		ldr	pc, [sp], #4
 2459              	.L141:
 2460 0066 00BF     		.align	2
 2461              	.L140:
 2462 0068 00000000 		.word	__stack_chk_guard
 2463              		.cfi_endproc
 2464              	.LFE24:
 2465              		.size	VL53L0X_SetTuningSettingBuffer, .-VL53L0X_SetTuningSettingBuffer
 2466              		.section	.text.VL53L0X_GetTuningSettingBuffer,"ax",%progbits
 2467              		.align	1
 2468              		.p2align 4,,15
 2469              		.global	VL53L0X_GetTuningSettingBuffer
 2470              		.syntax unified
 2471              		.thumb
 2472              		.thumb_func
 2473              		.fpu fpv4-sp-d16
 2474              		.type	VL53L0X_GetTuningSettingBuffer, %function
 2475              	VL53L0X_GetTuningSettingBuffer:
 2476              	.LFB25:
 2477              		.loc 1 543 0
 2478              		.cfi_startproc
 2479              		@ args = 0, pretend = 0, frame = 24
 2480              		@ frame_needed = 0, uses_anonymous_args = 0
 2481 0000 00B5     		push	{lr}
 2482              		.cfi_def_cfa_offset 4
 2483              		.cfi_offset 14, -4
 2484 0002 87B0     		sub	sp, sp, #28
 2485              		.cfi_def_cfa_offset 32
 2486 0004 0390     		str	r0, [sp, #12]
 2487 0006 0291     		str	r1, [sp, #8]
 2488 0008 0192     		str	r2, [sp, #4]
 2489              		.loc 1 543 0
 2490 000a 0E4B     		ldr	r3, .L145
 2491 000c 1B68     		ldr	r3, [r3]
 2492 000e 0593     		str	r3, [sp, #20]
 2493              		.loc 1 544 0
 2494 0010 0023     		movs	r3, #0
 2495 0012 8DF81330 		strb	r3, [sp, #19]
 2496              		.loc 1 548 0
 2497 0016 039B     		ldr	r3, [sp, #12]
 2498 0018 D3F84C21 		ldr	r2, [r3, #332]
 2499 001c 029B     		ldr	r3, [sp, #8]
 2500 001e 1A60     		str	r2, [r3]
 2501              		.loc 1 549 0
 2502 0020 039B     		ldr	r3, [sp, #12]
 2503 0022 93F85021 		ldrb	r2, [r3, #336]	@ zero_extendqisi2
 2504 0026 019B     		ldr	r3, [sp, #4]
 2505 0028 1A70     		strb	r2, [r3]
 2506              		.loc 1 553 0
 2507 002a 9DF91330 		ldrsb	r3, [sp, #19]
 2508              		.loc 1 554 0
ARM GAS  C:\Users\PCHAUT~1\AppData\Local\Temp\ccZvjaUR.s 			page 45


 2509 002e 1846     		mov	r0, r3
 2510 0030 044B     		ldr	r3, .L145
 2511 0032 059A     		ldr	r2, [sp, #20]
 2512 0034 1B68     		ldr	r3, [r3]
 2513 0036 9A42     		cmp	r2, r3
 2514 0038 01D0     		beq	.L144
 2515 003a FFF7FEFF 		bl	__stack_chk_fail
 2516              	.L144:
 2517 003e 07B0     		add	sp, sp, #28
 2518              		.cfi_def_cfa_offset 4
 2519              		@ sp needed
 2520 0040 5DF804FB 		ldr	pc, [sp], #4
 2521              	.L146:
 2522              		.align	2
 2523              	.L145:
 2524 0044 00000000 		.word	__stack_chk_guard
 2525              		.cfi_endproc
 2526              	.LFE25:
 2527              		.size	VL53L0X_GetTuningSettingBuffer, .-VL53L0X_GetTuningSettingBuffer
 2528              		.section	.text.VL53L0X_StaticInit,"ax",%progbits
 2529              		.align	1
 2530              		.p2align 4,,15
 2531              		.global	VL53L0X_StaticInit
 2532              		.syntax unified
 2533              		.thumb
 2534              		.thumb_func
 2535              		.fpu fpv4-sp-d16
 2536              		.type	VL53L0X_StaticInit, %function
 2537              	VL53L0X_StaticInit:
 2538              	.LFB26:
 2539              		.loc 1 557 0
 2540              		.cfi_startproc
 2541              		@ args = 0, pretend = 0, frame = 104
 2542              		@ frame_needed = 0, uses_anonymous_args = 0
 2543 0000 30B5     		push	{r4, r5, lr}
 2544              		.cfi_def_cfa_offset 12
 2545              		.cfi_offset 4, -12
 2546              		.cfi_offset 5, -8
 2547              		.cfi_offset 14, -4
 2548 0002 9DB0     		sub	sp, sp, #116
 2549              		.cfi_def_cfa_offset 128
 2550 0004 0390     		str	r0, [sp, #12]
 2551              		.loc 1 557 0
 2552 0006 C24B     		ldr	r3, .L175
 2553 0008 1B68     		ldr	r3, [r3]
 2554 000a 1B93     		str	r3, [sp, #108]
 2555              		.loc 1 558 0
 2556 000c 0023     		movs	r3, #0
 2557 000e 8DF81730 		strb	r3, [sp, #23]
 2558              		.loc 1 559 0
 2559 0012 0BAB     		add	r3, sp, #44
 2560 0014 4022     		movs	r2, #64
 2561 0016 0021     		movs	r1, #0
 2562 0018 1846     		mov	r0, r3
 2563 001a FFF7FEFF 		bl	memset
 2564              		.loc 1 561 0
 2565 001e 0023     		movs	r3, #0
ARM GAS  C:\Users\PCHAUT~1\AppData\Local\Temp\ccZvjaUR.s 			page 46


 2566 0020 ADF81A30 		strh	r3, [sp, #26]	@ movhi
 2567              		.loc 1 562 0
 2568 0024 0023     		movs	r3, #0
 2569 0026 8DF81430 		strb	r3, [sp, #20]
 2570              		.loc 1 563 0
 2571 002a 0023     		movs	r3, #0
 2572 002c 8DF81830 		strb	r3, [sp, #24]
 2573              		.loc 1 564 0
 2574 0030 0023     		movs	r3, #0
 2575 0032 0A93     		str	r3, [sp, #40]
 2576              		.loc 1 565 0
 2577 0034 0023     		movs	r3, #0
 2578 0036 8DF81530 		strb	r3, [sp, #21]
 2579              		.loc 1 566 0
 2580 003a 0023     		movs	r3, #0
 2581 003c 0793     		str	r3, [sp, #28]
 2582              		.loc 1 567 0
 2583 003e 0023     		movs	r3, #0
 2584 0040 8DF81930 		strb	r3, [sp, #25]
 2585              		.loc 1 573 0
 2586 0044 0121     		movs	r1, #1
 2587 0046 0398     		ldr	r0, [sp, #12]
 2588 0048 FFF7FEFF 		bl	VL53L0X_get_info_from_device
 2589 004c 0346     		mov	r3, r0
 2590 004e 8DF81730 		strb	r3, [sp, #23]
 2591              		.loc 1 576 0
 2592 0052 039B     		ldr	r3, [sp, #12]
 2593 0054 93F81331 		ldrb	r3, [r3, #275]	@ zero_extendqisi2
 2594 0058 0A93     		str	r3, [sp, #40]
 2595              		.loc 1 578 0
 2596 005a 039B     		ldr	r3, [sp, #12]
 2597 005c 93F81431 		ldrb	r3, [r3, #276]
 2598 0060 8DF81930 		strb	r3, [sp, #25]
 2599              		.loc 1 582 0
 2600 0064 9DF81930 		ldrb	r3, [sp, #25]	@ zero_extendqisi2
 2601 0068 012B     		cmp	r3, #1
 2602 006a 0DD8     		bhi	.L148
 2603              		.loc 1 582 0 is_stmt 0 discriminator 1
 2604 006c 9DF81930 		ldrb	r3, [sp, #25]	@ zero_extendqisi2
 2605 0070 012B     		cmp	r3, #1
 2606 0072 02D1     		bne	.L149
 2607              		.loc 1 583 0 is_stmt 1
 2608 0074 0A9B     		ldr	r3, [sp, #40]
 2609 0076 202B     		cmp	r3, #32
 2610 0078 06D8     		bhi	.L148
 2611              	.L149:
 2612              		.loc 1 583 0 is_stmt 0 discriminator 1
 2613 007a 9DF81930 		ldrb	r3, [sp, #25]	@ zero_extendqisi2
 2614 007e 002B     		cmp	r3, #0
 2615 0080 0DD1     		bne	.L150
 2616              		.loc 1 584 0 is_stmt 1
 2617 0082 0A9B     		ldr	r3, [sp, #40]
 2618 0084 0C2B     		cmp	r3, #12
 2619 0086 0AD9     		bls	.L150
 2620              	.L148:
 2621              		.loc 1 585 0
 2622 0088 0DF11502 		add	r2, sp, #21
ARM GAS  C:\Users\PCHAUT~1\AppData\Local\Temp\ccZvjaUR.s 			page 47


 2623 008c 07AB     		add	r3, sp, #28
 2624 008e 1946     		mov	r1, r3
 2625 0090 0398     		ldr	r0, [sp, #12]
 2626 0092 FFF7FEFF 		bl	VL53L0X_perform_ref_spad_management
 2627 0096 0346     		mov	r3, r0
 2628 0098 8DF81730 		strb	r3, [sp, #23]
 2629 009c 09E0     		b	.L151
 2630              	.L150:
 2631              		.loc 1 588 0
 2632 009e 9DF81930 		ldrb	r3, [sp, #25]	@ zero_extendqisi2
 2633 00a2 1A46     		mov	r2, r3
 2634 00a4 0A99     		ldr	r1, [sp, #40]
 2635 00a6 0398     		ldr	r0, [sp, #12]
 2636 00a8 FFF7FEFF 		bl	VL53L0X_set_reference_spads
 2637 00ac 0346     		mov	r3, r0
 2638 00ae 8DF81730 		strb	r3, [sp, #23]
 2639              	.L151:
 2640              		.loc 1 592 0
 2641 00b2 984B     		ldr	r3, .L175+4
 2642 00b4 0993     		str	r3, [sp, #36]
 2643              		.loc 1 594 0
 2644 00b6 9DF91730 		ldrsb	r3, [sp, #23]
 2645 00ba 002B     		cmp	r3, #0
 2646 00bc 0FD1     		bne	.L152
 2647              		.loc 1 595 0
 2648 00be 039B     		ldr	r3, [sp, #12]
 2649 00c0 93F85031 		ldrb	r3, [r3, #336]
 2650 00c4 8DF81830 		strb	r3, [sp, #24]
 2651              		.loc 1 598 0
 2652 00c8 9DF81830 		ldrb	r3, [sp, #24]	@ zero_extendqisi2
 2653 00cc 002B     		cmp	r3, #0
 2654 00ce 04D1     		bne	.L153
 2655              		.loc 1 599 0
 2656 00d0 039B     		ldr	r3, [sp, #12]
 2657 00d2 D3F84C31 		ldr	r3, [r3, #332]
 2658 00d6 0993     		str	r3, [sp, #36]
 2659 00d8 01E0     		b	.L152
 2660              	.L153:
 2661              		.loc 1 602 0
 2662 00da 8E4B     		ldr	r3, .L175+4
 2663 00dc 0993     		str	r3, [sp, #36]
 2664              	.L152:
 2665              		.loc 1 606 0
 2666 00de 9DF91730 		ldrsb	r3, [sp, #23]
 2667 00e2 002B     		cmp	r3, #0
 2668 00e4 06D1     		bne	.L154
 2669              		.loc 1 607 0
 2670 00e6 0999     		ldr	r1, [sp, #36]
 2671 00e8 0398     		ldr	r0, [sp, #12]
 2672 00ea FFF7FEFF 		bl	VL53L0X_load_tuning_settings
 2673 00ee 0346     		mov	r3, r0
 2674 00f0 8DF81730 		strb	r3, [sp, #23]
 2675              	.L154:
 2676              		.loc 1 611 0
 2677 00f4 9DF91730 		ldrsb	r3, [sp, #23]
 2678 00f8 002B     		cmp	r3, #0
 2679 00fa 0AD1     		bne	.L155
ARM GAS  C:\Users\PCHAUT~1\AppData\Local\Temp\ccZvjaUR.s 			page 48


 2680              		.loc 1 612 0
 2681 00fc 0023     		movs	r3, #0
 2682 00fe 0093     		str	r3, [sp]
 2683 0100 0423     		movs	r3, #4
 2684 0102 0022     		movs	r2, #0
 2685 0104 0021     		movs	r1, #0
 2686 0106 0398     		ldr	r0, [sp, #12]
 2687 0108 FFF7FEFF 		bl	VL53L0X_SetGpioConfig
 2688 010c 0346     		mov	r3, r0
 2689 010e 8DF81730 		strb	r3, [sp, #23]
 2690              	.L155:
 2691              		.loc 1 617 0
 2692 0112 9DF91730 		ldrsb	r3, [sp, #23]
 2693 0116 002B     		cmp	r3, #0
 2694 0118 21D1     		bne	.L156
 2695              		.loc 1 618 0
 2696 011a 0122     		movs	r2, #1
 2697 011c FF21     		movs	r1, #255
 2698 011e 0398     		ldr	r0, [sp, #12]
 2699 0120 FFF7FEFF 		bl	VL53L0X_WrByte
 2700 0124 0346     		mov	r3, r0
 2701 0126 8DF81730 		strb	r3, [sp, #23]
 2702              		.loc 1 619 0
 2703 012a 0DF11A03 		add	r3, sp, #26
 2704 012e 1A46     		mov	r2, r3
 2705 0130 8421     		movs	r1, #132
 2706 0132 0398     		ldr	r0, [sp, #12]
 2707 0134 FFF7FEFF 		bl	VL53L0X_RdWord
 2708 0138 0346     		mov	r3, r0
 2709 013a 1A46     		mov	r2, r3
 2710 013c 9DF81730 		ldrb	r3, [sp, #23]
 2711 0140 1343     		orrs	r3, r3, r2
 2712 0142 8DF81730 		strb	r3, [sp, #23]
 2713              		.loc 1 620 0
 2714 0146 0022     		movs	r2, #0
 2715 0148 FF21     		movs	r1, #255
 2716 014a 0398     		ldr	r0, [sp, #12]
 2717 014c FFF7FEFF 		bl	VL53L0X_WrByte
 2718 0150 0346     		mov	r3, r0
 2719 0152 1A46     		mov	r2, r3
 2720 0154 9DF81730 		ldrb	r3, [sp, #23]
 2721 0158 1343     		orrs	r3, r3, r2
 2722 015a 8DF81730 		strb	r3, [sp, #23]
 2723              	.L156:
 2724              		.loc 1 623 0
 2725 015e 9DF91730 		ldrsb	r3, [sp, #23]
 2726 0162 002B     		cmp	r3, #0
 2727 0164 06D1     		bne	.L157
 2728              		.loc 1 624 0
 2729 0166 BDF81A30 		ldrh	r3, [sp, #26]
 2730 016a 1B01     		lsls	r3, r3, #4
 2731 016c 1A46     		mov	r2, r3
 2732 016e 039B     		ldr	r3, [sp, #12]
 2733 0170 C3F8D420 		str	r2, [r3, #212]
 2734              	.L157:
 2735              		.loc 1 630 0
 2736 0174 9DF91730 		ldrsb	r3, [sp, #23]
ARM GAS  C:\Users\PCHAUT~1\AppData\Local\Temp\ccZvjaUR.s 			page 49


 2737 0178 002B     		cmp	r3, #0
 2738 017a 07D1     		bne	.L158
 2739              		.loc 1 631 0
 2740 017c 0BAB     		add	r3, sp, #44
 2741 017e 1946     		mov	r1, r3
 2742 0180 0398     		ldr	r0, [sp, #12]
 2743 0182 FFF7FEFF 		bl	VL53L0X_GetDeviceParameters
 2744 0186 0346     		mov	r3, r0
 2745 0188 8DF81730 		strb	r3, [sp, #23]
 2746              	.L158:
 2747              		.loc 1 634 0
 2748 018c 9DF91730 		ldrsb	r3, [sp, #23]
 2749 0190 002B     		cmp	r3, #0
 2750 0192 10D1     		bne	.L159
 2751              		.loc 1 635 0
 2752 0194 05AB     		add	r3, sp, #20
 2753 0196 1946     		mov	r1, r3
 2754 0198 0398     		ldr	r0, [sp, #12]
 2755 019a FFF7FEFF 		bl	VL53L0X_GetFractionEnable
 2756 019e 0346     		mov	r3, r0
 2757 01a0 8DF81730 		strb	r3, [sp, #23]
 2758              		.loc 1 636 0
 2759 01a4 9DF91730 		ldrsb	r3, [sp, #23]
 2760 01a8 002B     		cmp	r3, #0
 2761 01aa 04D1     		bne	.L159
 2762              		.loc 1 637 0
 2763 01ac 9DF81420 		ldrb	r2, [sp, #20]	@ zero_extendqisi2
 2764 01b0 039B     		ldr	r3, [sp, #12]
 2765 01b2 83F83121 		strb	r2, [r3, #305]
 2766              	.L159:
 2767              		.loc 1 641 0
 2768 01b6 9DF91730 		ldrsb	r3, [sp, #23]
 2769 01ba 002B     		cmp	r3, #0
 2770 01bc 0DD1     		bne	.L160
 2771              		.loc 1 642 0
 2772 01be 039B     		ldr	r3, [sp, #12]
 2773 01c0 03F11004 		add	r4, r3, #16
 2774 01c4 0BAD     		add	r5, sp, #44
 2775 01c6 0FCD     		ldmia	r5!, {r0, r1, r2, r3}
 2776 01c8 0FC4     		stmia	r4!, {r0, r1, r2, r3}
 2777 01ca 0FCD     		ldmia	r5!, {r0, r1, r2, r3}
 2778 01cc 0FC4     		stmia	r4!, {r0, r1, r2, r3}
 2779 01ce 0FCD     		ldmia	r5!, {r0, r1, r2, r3}
 2780 01d0 0FC4     		stmia	r4!, {r0, r1, r2, r3}
 2781 01d2 95E80F00 		ldm	r5, {r0, r1, r2, r3}
 2782 01d6 84E80F00 		stm	r4, {r0, r1, r2, r3}
 2783              	.L160:
 2784              		.loc 1 646 0
 2785 01da 9DF91730 		ldrsb	r3, [sp, #23]
 2786 01de 002B     		cmp	r3, #0
 2787 01e0 11D1     		bne	.L161
 2788              		.loc 1 647 0
 2789 01e2 05AB     		add	r3, sp, #20
 2790 01e4 1A46     		mov	r2, r3
 2791 01e6 0121     		movs	r1, #1
 2792 01e8 0398     		ldr	r0, [sp, #12]
 2793 01ea FFF7FEFF 		bl	VL53L0X_RdByte
ARM GAS  C:\Users\PCHAUT~1\AppData\Local\Temp\ccZvjaUR.s 			page 50


 2794 01ee 0346     		mov	r3, r0
 2795 01f0 8DF81730 		strb	r3, [sp, #23]
 2796              		.loc 1 649 0
 2797 01f4 9DF91730 		ldrsb	r3, [sp, #23]
 2798 01f8 002B     		cmp	r3, #0
 2799 01fa 04D1     		bne	.L161
 2800              		.loc 1 650 0
 2801 01fc 9DF81420 		ldrb	r2, [sp, #20]	@ zero_extendqisi2
 2802 0200 039B     		ldr	r3, [sp, #12]
 2803 0202 83F83021 		strb	r2, [r3, #304]
 2804              	.L161:
 2805              		.loc 1 655 0
 2806 0206 9DF91730 		ldrsb	r3, [sp, #23]
 2807 020a 002B     		cmp	r3, #0
 2808 020c 07D1     		bne	.L162
 2809              		.loc 1 656 0
 2810 020e 0022     		movs	r2, #0
 2811 0210 0021     		movs	r1, #0
 2812 0212 0398     		ldr	r0, [sp, #12]
 2813 0214 FFF7FEFF 		bl	VL53L0X_SetSequenceStepEnable
 2814 0218 0346     		mov	r3, r0
 2815 021a 8DF81730 		strb	r3, [sp, #23]
 2816              	.L162:
 2817              		.loc 1 660 0
 2818 021e 9DF91730 		ldrsb	r3, [sp, #23]
 2819 0222 002B     		cmp	r3, #0
 2820 0224 07D1     		bne	.L163
 2821              		.loc 1 661 0
 2822 0226 0022     		movs	r2, #0
 2823 0228 0221     		movs	r1, #2
 2824 022a 0398     		ldr	r0, [sp, #12]
 2825 022c FFF7FEFF 		bl	VL53L0X_SetSequenceStepEnable
 2826 0230 0346     		mov	r3, r0
 2827 0232 8DF81730 		strb	r3, [sp, #23]
 2828              	.L163:
 2829              		.loc 1 666 0
 2830 0236 9DF91730 		ldrsb	r3, [sp, #23]
 2831 023a 002B     		cmp	r3, #0
 2832 023c 03D1     		bne	.L164
 2833              		.loc 1 667 0
 2834 023e 039B     		ldr	r3, [sp, #12]
 2835 0240 0322     		movs	r2, #3
 2836 0242 83F83221 		strb	r2, [r3, #306]
 2837              	.L164:
 2838              		.loc 1 672 0
 2839 0246 9DF91730 		ldrsb	r3, [sp, #23]
 2840 024a 002B     		cmp	r3, #0
 2841 024c 09D1     		bne	.L165
 2842              		.loc 1 673 0
 2843 024e 0DF11603 		add	r3, sp, #22
 2844 0252 1A46     		mov	r2, r3
 2845 0254 0021     		movs	r1, #0
 2846 0256 0398     		ldr	r0, [sp, #12]
 2847 0258 FFF7FEFF 		bl	VL53L0X_GetVcselPulsePeriod
 2848 025c 0346     		mov	r3, r0
 2849 025e 8DF81730 		strb	r3, [sp, #23]
 2850              	.L165:
ARM GAS  C:\Users\PCHAUT~1\AppData\Local\Temp\ccZvjaUR.s 			page 51


 2851              		.loc 1 679 0
 2852 0262 9DF91730 		ldrsb	r3, [sp, #23]
 2853 0266 002B     		cmp	r3, #0
 2854 0268 04D1     		bne	.L166
 2855              		.loc 1 680 0
 2856 026a 9DF81620 		ldrb	r2, [sp, #22]	@ zero_extendqisi2
 2857 026e 039B     		ldr	r3, [sp, #12]
 2858 0270 83F8E820 		strb	r2, [r3, #232]
 2859              	.L166:
 2860              		.loc 1 687 0
 2861 0274 9DF91730 		ldrsb	r3, [sp, #23]
 2862 0278 002B     		cmp	r3, #0
 2863 027a 09D1     		bne	.L167
 2864              		.loc 1 688 0
 2865 027c 0DF11603 		add	r3, sp, #22
 2866 0280 1A46     		mov	r2, r3
 2867 0282 0121     		movs	r1, #1
 2868 0284 0398     		ldr	r0, [sp, #12]
 2869 0286 FFF7FEFF 		bl	VL53L0X_GetVcselPulsePeriod
 2870 028a 0346     		mov	r3, r0
 2871 028c 8DF81730 		strb	r3, [sp, #23]
 2872              	.L167:
 2873              		.loc 1 694 0
 2874 0290 9DF91730 		ldrsb	r3, [sp, #23]
 2875 0294 002B     		cmp	r3, #0
 2876 0296 04D1     		bne	.L168
 2877              		.loc 1 695 0
 2878 0298 9DF81620 		ldrb	r2, [sp, #22]	@ zero_extendqisi2
 2879 029c 039B     		ldr	r3, [sp, #12]
 2880 029e 83F8E020 		strb	r2, [r3, #224]
 2881              	.L168:
 2882              		.loc 1 702 0
 2883 02a2 9DF91730 		ldrsb	r3, [sp, #23]
 2884 02a6 002B     		cmp	r3, #0
 2885 02a8 08D1     		bne	.L169
 2886              		.loc 1 703 0
 2887 02aa 08AB     		add	r3, sp, #32
 2888 02ac 1A46     		mov	r2, r3
 2889 02ae 0321     		movs	r1, #3
 2890 02b0 0398     		ldr	r0, [sp, #12]
 2891 02b2 FFF7FEFF 		bl	get_sequence_step_timeout
 2892 02b6 0346     		mov	r3, r0
 2893 02b8 8DF81730 		strb	r3, [sp, #23]
 2894              	.L169:
 2895              		.loc 1 709 0
 2896 02bc 9DF91730 		ldrsb	r3, [sp, #23]
 2897 02c0 002B     		cmp	r3, #0
 2898 02c2 03D1     		bne	.L170
 2899              		.loc 1 710 0
 2900 02c4 089A     		ldr	r2, [sp, #32]
 2901 02c6 039B     		ldr	r3, [sp, #12]
 2902 02c8 C3F8E420 		str	r2, [r3, #228]
 2903              	.L170:
 2904              		.loc 1 717 0
 2905 02cc 9DF91730 		ldrsb	r3, [sp, #23]
 2906 02d0 002B     		cmp	r3, #0
 2907 02d2 08D1     		bne	.L171
ARM GAS  C:\Users\PCHAUT~1\AppData\Local\Temp\ccZvjaUR.s 			page 52


 2908              		.loc 1 718 0
 2909 02d4 08AB     		add	r3, sp, #32
 2910 02d6 1A46     		mov	r2, r3
 2911 02d8 0421     		movs	r1, #4
 2912 02da 0398     		ldr	r0, [sp, #12]
 2913 02dc FFF7FEFF 		bl	get_sequence_step_timeout
 2914 02e0 0346     		mov	r3, r0
 2915 02e2 8DF81730 		strb	r3, [sp, #23]
 2916              	.L171:
 2917              		.loc 1 724 0
 2918 02e6 9DF91730 		ldrsb	r3, [sp, #23]
 2919 02ea 002B     		cmp	r3, #0
 2920 02ec 03D1     		bne	.L172
 2921              		.loc 1 725 0
 2922 02ee 089A     		ldr	r2, [sp, #32]
 2923 02f0 039B     		ldr	r3, [sp, #12]
 2924 02f2 C3F8DC20 		str	r2, [r3, #220]
 2925              	.L172:
 2926              		.loc 1 732 0
 2927 02f6 9DF91730 		ldrsb	r3, [sp, #23]
 2928              		.loc 1 733 0
 2929 02fa 1846     		mov	r0, r3
 2930 02fc 044B     		ldr	r3, .L175
 2931 02fe 1B9A     		ldr	r2, [sp, #108]
 2932 0300 1B68     		ldr	r3, [r3]
 2933 0302 9A42     		cmp	r2, r3
 2934 0304 01D0     		beq	.L174
 2935 0306 FFF7FEFF 		bl	__stack_chk_fail
 2936              	.L174:
 2937 030a 1DB0     		add	sp, sp, #116
 2938              		.cfi_def_cfa_offset 12
 2939              		@ sp needed
 2940 030c 30BD     		pop	{r4, r5, pc}
 2941              	.L176:
 2942 030e 00BF     		.align	2
 2943              	.L175:
 2944 0310 00000000 		.word	__stack_chk_guard
 2945 0314 00000000 		.word	DefaultTuningSettings
 2946              		.cfi_endproc
 2947              	.LFE26:
 2948              		.size	VL53L0X_StaticInit, .-VL53L0X_StaticInit
 2949              		.section	.text.VL53L0X_WaitDeviceBooted,"ax",%progbits
 2950              		.align	1
 2951              		.p2align 4,,15
 2952              		.global	VL53L0X_WaitDeviceBooted
 2953              		.syntax unified
 2954              		.thumb
 2955              		.thumb_func
 2956              		.fpu fpv4-sp-d16
 2957              		.type	VL53L0X_WaitDeviceBooted, %function
 2958              	VL53L0X_WaitDeviceBooted:
 2959              	.LFB27:
 2960              		.loc 1 736 0
 2961              		.cfi_startproc
 2962              		@ args = 0, pretend = 0, frame = 16
 2963              		@ frame_needed = 0, uses_anonymous_args = 0
 2964 0000 00B5     		push	{lr}
ARM GAS  C:\Users\PCHAUT~1\AppData\Local\Temp\ccZvjaUR.s 			page 53


 2965              		.cfi_def_cfa_offset 4
 2966              		.cfi_offset 14, -4
 2967 0002 85B0     		sub	sp, sp, #20
 2968              		.cfi_def_cfa_offset 24
 2969 0004 0190     		str	r0, [sp, #4]
 2970              		.loc 1 736 0
 2971 0006 094B     		ldr	r3, .L180
 2972 0008 1B68     		ldr	r3, [r3]
 2973 000a 0393     		str	r3, [sp, #12]
 2974              		.loc 1 737 0
 2975 000c 9D23     		movs	r3, #157
 2976 000e 8DF80B30 		strb	r3, [sp, #11]
 2977              		.loc 1 744 0
 2978 0012 9DF90B30 		ldrsb	r3, [sp, #11]
 2979              		.loc 1 745 0
 2980 0016 1846     		mov	r0, r3
 2981 0018 044B     		ldr	r3, .L180
 2982 001a 039A     		ldr	r2, [sp, #12]
 2983 001c 1B68     		ldr	r3, [r3]
 2984 001e 9A42     		cmp	r2, r3
 2985 0020 01D0     		beq	.L179
 2986 0022 FFF7FEFF 		bl	__stack_chk_fail
 2987              	.L179:
 2988 0026 05B0     		add	sp, sp, #20
 2989              		.cfi_def_cfa_offset 4
 2990              		@ sp needed
 2991 0028 5DF804FB 		ldr	pc, [sp], #4
 2992              	.L181:
 2993              		.align	2
 2994              	.L180:
 2995 002c 00000000 		.word	__stack_chk_guard
 2996              		.cfi_endproc
 2997              	.LFE27:
 2998              		.size	VL53L0X_WaitDeviceBooted, .-VL53L0X_WaitDeviceBooted
 2999              		.section	.text.VL53L0X_ResetDevice,"ax",%progbits
 3000              		.align	1
 3001              		.p2align 4,,15
 3002              		.global	VL53L0X_ResetDevice
 3003              		.syntax unified
 3004              		.thumb
 3005              		.thumb_func
 3006              		.fpu fpv4-sp-d16
 3007              		.type	VL53L0X_ResetDevice, %function
 3008              	VL53L0X_ResetDevice:
 3009              	.LFB28:
 3010              		.loc 1 748 0
 3011              		.cfi_startproc
 3012              		@ args = 0, pretend = 0, frame = 16
 3013              		@ frame_needed = 0, uses_anonymous_args = 0
 3014 0000 00B5     		push	{lr}
 3015              		.cfi_def_cfa_offset 4
 3016              		.cfi_offset 14, -4
 3017 0002 85B0     		sub	sp, sp, #20
 3018              		.cfi_def_cfa_offset 24
 3019 0004 0190     		str	r0, [sp, #4]
 3020              		.loc 1 748 0
 3021 0006 2A4B     		ldr	r3, .L190
ARM GAS  C:\Users\PCHAUT~1\AppData\Local\Temp\ccZvjaUR.s 			page 54


 3022 0008 1B68     		ldr	r3, [r3]
 3023 000a 0393     		str	r3, [sp, #12]
 3024              		.loc 1 749 0
 3025 000c 0023     		movs	r3, #0
 3026 000e 8DF80B30 		strb	r3, [sp, #11]
 3027              		.loc 1 754 0
 3028 0012 0022     		movs	r2, #0
 3029 0014 BF21     		movs	r1, #191
 3030 0016 0198     		ldr	r0, [sp, #4]
 3031 0018 FFF7FEFF 		bl	VL53L0X_WrByte
 3032 001c 0346     		mov	r3, r0
 3033 001e 8DF80B30 		strb	r3, [sp, #11]
 3034              		.loc 1 758 0
 3035 0022 9DF90B30 		ldrsb	r3, [sp, #11]
 3036 0026 002B     		cmp	r3, #0
 3037 0028 0DD1     		bne	.L183
 3038              	.L184:
 3039              		.loc 1 760 0 discriminator 1
 3040 002a 0DF10A03 		add	r3, sp, #10
 3041 002e 1A46     		mov	r2, r3
 3042 0030 C021     		movs	r1, #192
 3043 0032 0198     		ldr	r0, [sp, #4]
 3044 0034 FFF7FEFF 		bl	VL53L0X_RdByte
 3045 0038 0346     		mov	r3, r0
 3046 003a 8DF80B30 		strb	r3, [sp, #11]
 3047              		.loc 1 762 0 discriminator 1
 3048 003e 9DF80A30 		ldrb	r3, [sp, #10]	@ zero_extendqisi2
 3049 0042 002B     		cmp	r3, #0
 3050 0044 F1D1     		bne	.L184
 3051              	.L183:
 3052              		.loc 1 765 0
 3053 0046 0198     		ldr	r0, [sp, #4]
 3054 0048 FFF7FEFF 		bl	VL53L0X_PollingDelay
 3055              		.loc 1 768 0
 3056 004c 0122     		movs	r2, #1
 3057 004e BF21     		movs	r1, #191
 3058 0050 0198     		ldr	r0, [sp, #4]
 3059 0052 FFF7FEFF 		bl	VL53L0X_WrByte
 3060 0056 0346     		mov	r3, r0
 3061 0058 8DF80B30 		strb	r3, [sp, #11]
 3062              		.loc 1 772 0
 3063 005c 9DF90B30 		ldrsb	r3, [sp, #11]
 3064 0060 002B     		cmp	r3, #0
 3065 0062 0DD1     		bne	.L185
 3066              	.L186:
 3067              		.loc 1 774 0 discriminator 1
 3068 0064 0DF10A03 		add	r3, sp, #10
 3069 0068 1A46     		mov	r2, r3
 3070 006a C021     		movs	r1, #192
 3071 006c 0198     		ldr	r0, [sp, #4]
 3072 006e FFF7FEFF 		bl	VL53L0X_RdByte
 3073 0072 0346     		mov	r3, r0
 3074 0074 8DF80B30 		strb	r3, [sp, #11]
 3075              		.loc 1 776 0 discriminator 1
 3076 0078 9DF80A30 		ldrb	r3, [sp, #10]	@ zero_extendqisi2
 3077 007c 002B     		cmp	r3, #0
 3078 007e F1D0     		beq	.L186
ARM GAS  C:\Users\PCHAUT~1\AppData\Local\Temp\ccZvjaUR.s 			page 55


 3079              	.L185:
 3080              		.loc 1 779 0
 3081 0080 0198     		ldr	r0, [sp, #4]
 3082 0082 FFF7FEFF 		bl	VL53L0X_PollingDelay
 3083              		.loc 1 782 0
 3084 0086 9DF90B30 		ldrsb	r3, [sp, #11]
 3085 008a 002B     		cmp	r3, #0
 3086 008c 03D1     		bne	.L187
 3087              		.loc 1 783 0
 3088 008e 019B     		ldr	r3, [sp, #4]
 3089 0090 0022     		movs	r2, #0
 3090 0092 83F83221 		strb	r2, [r3, #306]
 3091              	.L187:
 3092              		.loc 1 787 0
 3093 0096 9DF90B30 		ldrsb	r3, [sp, #11]
 3094              		.loc 1 788 0
 3095 009a 1846     		mov	r0, r3
 3096 009c 044B     		ldr	r3, .L190
 3097 009e 039A     		ldr	r2, [sp, #12]
 3098 00a0 1B68     		ldr	r3, [r3]
 3099 00a2 9A42     		cmp	r2, r3
 3100 00a4 01D0     		beq	.L189
 3101 00a6 FFF7FEFF 		bl	__stack_chk_fail
 3102              	.L189:
 3103 00aa 05B0     		add	sp, sp, #20
 3104              		.cfi_def_cfa_offset 4
 3105              		@ sp needed
 3106 00ac 5DF804FB 		ldr	pc, [sp], #4
 3107              	.L191:
 3108              		.align	2
 3109              	.L190:
 3110 00b0 00000000 		.word	__stack_chk_guard
 3111              		.cfi_endproc
 3112              	.LFE28:
 3113              		.size	VL53L0X_ResetDevice, .-VL53L0X_ResetDevice
 3114              		.section	.text.VL53L0X_SetDeviceParameters,"ax",%progbits
 3115              		.align	1
 3116              		.p2align 4,,15
 3117              		.global	VL53L0X_SetDeviceParameters
 3118              		.syntax unified
 3119              		.thumb
 3120              		.thumb_func
 3121              		.fpu fpv4-sp-d16
 3122              		.type	VL53L0X_SetDeviceParameters, %function
 3123              	VL53L0X_SetDeviceParameters:
 3124              	.LFB29:
 3125              		.loc 1 794 0
 3126              		.cfi_startproc
 3127              		@ args = 0, pretend = 0, frame = 24
 3128              		@ frame_needed = 0, uses_anonymous_args = 0
 3129 0000 00B5     		push	{lr}
 3130              		.cfi_def_cfa_offset 4
 3131              		.cfi_offset 14, -4
 3132 0002 87B0     		sub	sp, sp, #28
 3133              		.cfi_def_cfa_offset 32
 3134 0004 0190     		str	r0, [sp, #4]
 3135 0006 0091     		str	r1, [sp]
ARM GAS  C:\Users\PCHAUT~1\AppData\Local\Temp\ccZvjaUR.s 			page 56


 3136              		.loc 1 794 0
 3137 0008 4B4B     		ldr	r3, .L209
 3138 000a 1B68     		ldr	r3, [r3]
 3139 000c 0593     		str	r3, [sp, #20]
 3140              		.loc 1 795 0
 3141 000e 0023     		movs	r3, #0
 3142 0010 8DF80F30 		strb	r3, [sp, #15]
 3143              		.loc 1 798 0
 3144 0014 009B     		ldr	r3, [sp]
 3145 0016 1B78     		ldrb	r3, [r3]	@ zero_extendqisi2
 3146 0018 1946     		mov	r1, r3
 3147 001a 0198     		ldr	r0, [sp, #4]
 3148 001c FFF7FEFF 		bl	VL53L0X_SetDeviceMode
 3149 0020 0346     		mov	r3, r0
 3150 0022 8DF80F30 		strb	r3, [sp, #15]
 3151              		.loc 1 800 0
 3152 0026 9DF90F30 		ldrsb	r3, [sp, #15]
 3153 002a 002B     		cmp	r3, #0
 3154 002c 08D1     		bne	.L193
 3155              		.loc 1 801 0
 3156 002e 009B     		ldr	r3, [sp]
 3157 0030 9B68     		ldr	r3, [r3, #8]
 3158 0032 1946     		mov	r1, r3
 3159 0034 0198     		ldr	r0, [sp, #4]
 3160 0036 FFF7FEFF 		bl	VL53L0X_SetInterMeasurementPeriodMilliSeconds
 3161 003a 0346     		mov	r3, r0
 3162 003c 8DF80F30 		strb	r3, [sp, #15]
 3163              	.L193:
 3164              		.loc 1 805 0
 3165 0040 9DF90F30 		ldrsb	r3, [sp, #15]
 3166 0044 002B     		cmp	r3, #0
 3167 0046 08D1     		bne	.L194
 3168              		.loc 1 806 0
 3169 0048 009B     		ldr	r3, [sp]
 3170 004a 1B69     		ldr	r3, [r3, #16]
 3171 004c 1946     		mov	r1, r3
 3172 004e 0198     		ldr	r0, [sp, #4]
 3173 0050 FFF7FEFF 		bl	VL53L0X_SetXTalkCompensationRateMegaCps
 3174 0054 0346     		mov	r3, r0
 3175 0056 8DF80F30 		strb	r3, [sp, #15]
 3176              	.L194:
 3177              		.loc 1 810 0
 3178 005a 9DF90F30 		ldrsb	r3, [sp, #15]
 3179 005e 002B     		cmp	r3, #0
 3180 0060 08D1     		bne	.L195
 3181              		.loc 1 811 0
 3182 0062 009B     		ldr	r3, [sp]
 3183 0064 5B69     		ldr	r3, [r3, #20]
 3184 0066 1946     		mov	r1, r3
 3185 0068 0198     		ldr	r0, [sp, #4]
 3186 006a FFF7FEFF 		bl	VL53L0X_SetOffsetCalibrationDataMicroMeter
 3187 006e 0346     		mov	r3, r0
 3188 0070 8DF80F30 		strb	r3, [sp, #15]
 3189              	.L195:
 3190              		.loc 1 815 0
 3191 0074 0023     		movs	r3, #0
 3192 0076 0493     		str	r3, [sp, #16]
ARM GAS  C:\Users\PCHAUT~1\AppData\Local\Temp\ccZvjaUR.s 			page 57


 3193 0078 2FE0     		b	.L196
 3194              	.L202:
 3195              		.loc 1 816 0
 3196 007a 9DF90F30 		ldrsb	r3, [sp, #15]
 3197 007e 002B     		cmp	r3, #0
 3198 0080 2FD1     		bne	.L207
 3199              		.loc 1 817 0
 3200 0082 049B     		ldr	r3, [sp, #16]
 3201 0084 99B2     		uxth	r1, r3
 3202 0086 009A     		ldr	r2, [sp]
 3203 0088 049B     		ldr	r3, [sp, #16]
 3204 008a 1344     		add	r3, r3, r2
 3205 008c 1833     		adds	r3, r3, #24
 3206 008e 1B78     		ldrb	r3, [r3]	@ zero_extendqisi2
 3207 0090 1A46     		mov	r2, r3
 3208 0092 0198     		ldr	r0, [sp, #4]
 3209 0094 FFF7FEFF 		bl	VL53L0X_SetLimitCheckEnable
 3210 0098 0346     		mov	r3, r0
 3211 009a 1A46     		mov	r2, r3
 3212 009c 9DF80F30 		ldrb	r3, [sp, #15]
 3213 00a0 1343     		orrs	r3, r3, r2
 3214 00a2 8DF80F30 		strb	r3, [sp, #15]
 3215              		.loc 1 822 0
 3216 00a6 9DF90F30 		ldrsb	r3, [sp, #15]
 3217 00aa 002B     		cmp	r3, #0
 3218 00ac 1BD1     		bne	.L208
 3219              		.loc 1 823 0
 3220 00ae 049B     		ldr	r3, [sp, #16]
 3221 00b0 99B2     		uxth	r1, r3
 3222 00b2 009A     		ldr	r2, [sp]
 3223 00b4 049B     		ldr	r3, [sp, #16]
 3224 00b6 0833     		adds	r3, r3, #8
 3225 00b8 9B00     		lsls	r3, r3, #2
 3226 00ba 1344     		add	r3, r3, r2
 3227 00bc 5B68     		ldr	r3, [r3, #4]
 3228 00be 1A46     		mov	r2, r3
 3229 00c0 0198     		ldr	r0, [sp, #4]
 3230 00c2 FFF7FEFF 		bl	VL53L0X_SetLimitCheckValue
 3231 00c6 0346     		mov	r3, r0
 3232 00c8 1A46     		mov	r2, r3
 3233 00ca 9DF80F30 		ldrb	r3, [sp, #15]
 3234 00ce 1343     		orrs	r3, r3, r2
 3235 00d0 8DF80F30 		strb	r3, [sp, #15]
 3236              		.loc 1 815 0
 3237 00d4 049B     		ldr	r3, [sp, #16]
 3238 00d6 0133     		adds	r3, r3, #1
 3239 00d8 0493     		str	r3, [sp, #16]
 3240              	.L196:
 3241              		.loc 1 815 0 is_stmt 0 discriminator 1
 3242 00da 049B     		ldr	r3, [sp, #16]
 3243 00dc 052B     		cmp	r3, #5
 3244 00de CCDD     		ble	.L202
 3245 00e0 02E0     		b	.L199
 3246              	.L207:
 3247              		.loc 1 820 0 is_stmt 1
 3248 00e2 00BF     		nop
 3249 00e4 00E0     		b	.L199
ARM GAS  C:\Users\PCHAUT~1\AppData\Local\Temp\ccZvjaUR.s 			page 58


 3250              	.L208:
 3251              		.loc 1 826 0
 3252 00e6 00BF     		nop
 3253              	.L199:
 3254              		.loc 1 830 0
 3255 00e8 9DF90F30 		ldrsb	r3, [sp, #15]
 3256 00ec 002B     		cmp	r3, #0
 3257 00ee 09D1     		bne	.L203
 3258              		.loc 1 831 0
 3259 00f0 009B     		ldr	r3, [sp]
 3260 00f2 93F83C30 		ldrb	r3, [r3, #60]	@ zero_extendqisi2
 3261 00f6 1946     		mov	r1, r3
 3262 00f8 0198     		ldr	r0, [sp, #4]
 3263 00fa FFF7FEFF 		bl	VL53L0X_SetWrapAroundCheckEnable
 3264 00fe 0346     		mov	r3, r0
 3265 0100 8DF80F30 		strb	r3, [sp, #15]
 3266              	.L203:
 3267              		.loc 1 834 0
 3268 0104 9DF90F30 		ldrsb	r3, [sp, #15]
 3269 0108 002B     		cmp	r3, #0
 3270 010a 08D1     		bne	.L204
 3271              		.loc 1 835 0
 3272 010c 009B     		ldr	r3, [sp]
 3273 010e 5B68     		ldr	r3, [r3, #4]
 3274 0110 1946     		mov	r1, r3
 3275 0112 0198     		ldr	r0, [sp, #4]
 3276 0114 FFF7FEFF 		bl	VL53L0X_SetMeasurementTimingBudgetMicroSeconds
 3277 0118 0346     		mov	r3, r0
 3278 011a 8DF80F30 		strb	r3, [sp, #15]
 3279              	.L204:
 3280              		.loc 1 840 0
 3281 011e 9DF90F30 		ldrsb	r3, [sp, #15]
 3282              		.loc 1 841 0
 3283 0122 1846     		mov	r0, r3
 3284 0124 044B     		ldr	r3, .L209
 3285 0126 059A     		ldr	r2, [sp, #20]
 3286 0128 1B68     		ldr	r3, [r3]
 3287 012a 9A42     		cmp	r2, r3
 3288 012c 01D0     		beq	.L206
 3289 012e FFF7FEFF 		bl	__stack_chk_fail
 3290              	.L206:
 3291 0132 07B0     		add	sp, sp, #28
 3292              		.cfi_def_cfa_offset 4
 3293              		@ sp needed
 3294 0134 5DF804FB 		ldr	pc, [sp], #4
 3295              	.L210:
 3296              		.align	2
 3297              	.L209:
 3298 0138 00000000 		.word	__stack_chk_guard
 3299              		.cfi_endproc
 3300              	.LFE29:
 3301              		.size	VL53L0X_SetDeviceParameters, .-VL53L0X_SetDeviceParameters
 3302              		.section	.text.VL53L0X_GetDeviceParameters,"ax",%progbits
 3303              		.align	1
 3304              		.p2align 4,,15
 3305              		.global	VL53L0X_GetDeviceParameters
 3306              		.syntax unified
ARM GAS  C:\Users\PCHAUT~1\AppData\Local\Temp\ccZvjaUR.s 			page 59


 3307              		.thumb
 3308              		.thumb_func
 3309              		.fpu fpv4-sp-d16
 3310              		.type	VL53L0X_GetDeviceParameters, %function
 3311              	VL53L0X_GetDeviceParameters:
 3312              	.LFB30:
 3313              		.loc 1 845 0
 3314              		.cfi_startproc
 3315              		@ args = 0, pretend = 0, frame = 24
 3316              		@ frame_needed = 0, uses_anonymous_args = 0
 3317 0000 00B5     		push	{lr}
 3318              		.cfi_def_cfa_offset 4
 3319              		.cfi_offset 14, -4
 3320 0002 87B0     		sub	sp, sp, #28
 3321              		.cfi_def_cfa_offset 32
 3322 0004 0190     		str	r0, [sp, #4]
 3323 0006 0091     		str	r1, [sp]
 3324              		.loc 1 845 0
 3325 0008 4F4B     		ldr	r3, .L229
 3326 000a 1B68     		ldr	r3, [r3]
 3327 000c 0593     		str	r3, [sp, #20]
 3328              		.loc 1 846 0
 3329 000e 0023     		movs	r3, #0
 3330 0010 8DF80F30 		strb	r3, [sp, #15]
 3331              		.loc 1 851 0
 3332 0014 009B     		ldr	r3, [sp]
 3333 0016 1946     		mov	r1, r3
 3334 0018 0198     		ldr	r0, [sp, #4]
 3335 001a FFF7FEFF 		bl	VL53L0X_GetDeviceMode
 3336 001e 0346     		mov	r3, r0
 3337 0020 8DF80F30 		strb	r3, [sp, #15]
 3338              		.loc 1 853 0
 3339 0024 9DF90F30 		ldrsb	r3, [sp, #15]
 3340 0028 002B     		cmp	r3, #0
 3341 002a 08D1     		bne	.L212
 3342              		.loc 1 854 0
 3343 002c 009B     		ldr	r3, [sp]
 3344 002e 0833     		adds	r3, r3, #8
 3345 0030 1946     		mov	r1, r3
 3346 0032 0198     		ldr	r0, [sp, #4]
 3347 0034 FFF7FEFF 		bl	VL53L0X_GetInterMeasurementPeriodMilliSeconds
 3348 0038 0346     		mov	r3, r0
 3349 003a 8DF80F30 		strb	r3, [sp, #15]
 3350              	.L212:
 3351              		.loc 1 858 0
 3352 003e 9DF90F30 		ldrsb	r3, [sp, #15]
 3353 0042 002B     		cmp	r3, #0
 3354 0044 02D1     		bne	.L213
 3355              		.loc 1 859 0
 3356 0046 009B     		ldr	r3, [sp]
 3357 0048 0022     		movs	r2, #0
 3358 004a 1A73     		strb	r2, [r3, #12]
 3359              	.L213:
 3360              		.loc 1 861 0
 3361 004c 9DF90F30 		ldrsb	r3, [sp, #15]
 3362 0050 002B     		cmp	r3, #0
 3363 0052 08D1     		bne	.L214
ARM GAS  C:\Users\PCHAUT~1\AppData\Local\Temp\ccZvjaUR.s 			page 60


 3364              		.loc 1 862 0
 3365 0054 009B     		ldr	r3, [sp]
 3366 0056 1033     		adds	r3, r3, #16
 3367 0058 1946     		mov	r1, r3
 3368 005a 0198     		ldr	r0, [sp, #4]
 3369 005c FFF7FEFF 		bl	VL53L0X_GetXTalkCompensationRateMegaCps
 3370 0060 0346     		mov	r3, r0
 3371 0062 8DF80F30 		strb	r3, [sp, #15]
 3372              	.L214:
 3373              		.loc 1 866 0
 3374 0066 9DF90F30 		ldrsb	r3, [sp, #15]
 3375 006a 002B     		cmp	r3, #0
 3376 006c 08D1     		bne	.L215
 3377              		.loc 1 867 0
 3378 006e 009B     		ldr	r3, [sp]
 3379 0070 1433     		adds	r3, r3, #20
 3380 0072 1946     		mov	r1, r3
 3381 0074 0198     		ldr	r0, [sp, #4]
 3382 0076 FFF7FEFF 		bl	VL53L0X_GetOffsetCalibrationDataMicroMeter
 3383 007a 0346     		mov	r3, r0
 3384 007c 8DF80F30 		strb	r3, [sp, #15]
 3385              	.L215:
 3386              		.loc 1 871 0
 3387 0080 9DF90F30 		ldrsb	r3, [sp, #15]
 3388 0084 002B     		cmp	r3, #0
 3389 0086 38D1     		bne	.L216
 3390              		.loc 1 872 0
 3391 0088 0023     		movs	r3, #0
 3392 008a 0493     		str	r3, [sp, #16]
 3393 008c 2EE0     		b	.L217
 3394              	.L222:
 3395              		.loc 1 877 0
 3396 008e 9DF90F30 		ldrsb	r3, [sp, #15]
 3397 0092 002B     		cmp	r3, #0
 3398 0094 2ED1     		bne	.L227
 3399              		.loc 1 878 0
 3400 0096 049B     		ldr	r3, [sp, #16]
 3401 0098 99B2     		uxth	r1, r3
 3402 009a 049B     		ldr	r3, [sp, #16]
 3403 009c 0833     		adds	r3, r3, #8
 3404 009e 9B00     		lsls	r3, r3, #2
 3405 00a0 009A     		ldr	r2, [sp]
 3406 00a2 1344     		add	r3, r3, r2
 3407 00a4 0433     		adds	r3, r3, #4
 3408 00a6 1A46     		mov	r2, r3
 3409 00a8 0198     		ldr	r0, [sp, #4]
 3410 00aa FFF7FEFF 		bl	VL53L0X_GetLimitCheckValue
 3411 00ae 0346     		mov	r3, r0
 3412 00b0 1A46     		mov	r2, r3
 3413 00b2 9DF80F30 		ldrb	r3, [sp, #15]
 3414 00b6 1343     		orrs	r3, r3, r2
 3415 00b8 8DF80F30 		strb	r3, [sp, #15]
 3416              		.loc 1 883 0
 3417 00bc 9DF90F30 		ldrsb	r3, [sp, #15]
 3418 00c0 002B     		cmp	r3, #0
 3419 00c2 19D1     		bne	.L228
 3420              		.loc 1 884 0
ARM GAS  C:\Users\PCHAUT~1\AppData\Local\Temp\ccZvjaUR.s 			page 61


 3421 00c4 049B     		ldr	r3, [sp, #16]
 3422 00c6 99B2     		uxth	r1, r3
 3423 00c8 049B     		ldr	r3, [sp, #16]
 3424 00ca 1833     		adds	r3, r3, #24
 3425 00cc 009A     		ldr	r2, [sp]
 3426 00ce 1344     		add	r3, r3, r2
 3427 00d0 1A46     		mov	r2, r3
 3428 00d2 0198     		ldr	r0, [sp, #4]
 3429 00d4 FFF7FEFF 		bl	VL53L0X_GetLimitCheckEnable
 3430 00d8 0346     		mov	r3, r0
 3431 00da 1A46     		mov	r2, r3
 3432 00dc 9DF80F30 		ldrb	r3, [sp, #15]
 3433 00e0 1343     		orrs	r3, r3, r2
 3434 00e2 8DF80F30 		strb	r3, [sp, #15]
 3435              		.loc 1 872 0
 3436 00e6 049B     		ldr	r3, [sp, #16]
 3437 00e8 0133     		adds	r3, r3, #1
 3438 00ea 0493     		str	r3, [sp, #16]
 3439              	.L217:
 3440              		.loc 1 872 0 is_stmt 0 discriminator 1
 3441 00ec 049B     		ldr	r3, [sp, #16]
 3442 00ee 052B     		cmp	r3, #5
 3443 00f0 CDDD     		ble	.L222
 3444 00f2 02E0     		b	.L216
 3445              	.L227:
 3446              		.loc 1 881 0 is_stmt 1
 3447 00f4 00BF     		nop
 3448 00f6 00E0     		b	.L216
 3449              	.L228:
 3450              		.loc 1 887 0
 3451 00f8 00BF     		nop
 3452              	.L216:
 3453              		.loc 1 892 0
 3454 00fa 9DF90F30 		ldrsb	r3, [sp, #15]
 3455 00fe 002B     		cmp	r3, #0
 3456 0100 08D1     		bne	.L223
 3457              		.loc 1 893 0
 3458 0102 009B     		ldr	r3, [sp]
 3459 0104 3C33     		adds	r3, r3, #60
 3460 0106 1946     		mov	r1, r3
 3461 0108 0198     		ldr	r0, [sp, #4]
 3462 010a FFF7FEFF 		bl	VL53L0X_GetWrapAroundCheckEnable
 3463 010e 0346     		mov	r3, r0
 3464 0110 8DF80F30 		strb	r3, [sp, #15]
 3465              	.L223:
 3466              		.loc 1 898 0
 3467 0114 9DF90F30 		ldrsb	r3, [sp, #15]
 3468 0118 002B     		cmp	r3, #0
 3469 011a 08D1     		bne	.L224
 3470              		.loc 1 899 0
 3471 011c 009B     		ldr	r3, [sp]
 3472 011e 0433     		adds	r3, r3, #4
 3473 0120 1946     		mov	r1, r3
 3474 0122 0198     		ldr	r0, [sp, #4]
 3475 0124 FFF7FEFF 		bl	VL53L0X_GetMeasurementTimingBudgetMicroSeconds
 3476 0128 0346     		mov	r3, r0
 3477 012a 8DF80F30 		strb	r3, [sp, #15]
ARM GAS  C:\Users\PCHAUT~1\AppData\Local\Temp\ccZvjaUR.s 			page 62


 3478              	.L224:
 3479              		.loc 1 904 0
 3480 012e 9DF90F30 		ldrsb	r3, [sp, #15]
 3481              		.loc 1 905 0
 3482 0132 1846     		mov	r0, r3
 3483 0134 044B     		ldr	r3, .L229
 3484 0136 059A     		ldr	r2, [sp, #20]
 3485 0138 1B68     		ldr	r3, [r3]
 3486 013a 9A42     		cmp	r2, r3
 3487 013c 01D0     		beq	.L226
 3488 013e FFF7FEFF 		bl	__stack_chk_fail
 3489              	.L226:
 3490 0142 07B0     		add	sp, sp, #28
 3491              		.cfi_def_cfa_offset 4
 3492              		@ sp needed
 3493 0144 5DF804FB 		ldr	pc, [sp], #4
 3494              	.L230:
 3495              		.align	2
 3496              	.L229:
 3497 0148 00000000 		.word	__stack_chk_guard
 3498              		.cfi_endproc
 3499              	.LFE30:
 3500              		.size	VL53L0X_GetDeviceParameters, .-VL53L0X_GetDeviceParameters
 3501              		.section	.text.VL53L0X_SetDeviceMode,"ax",%progbits
 3502              		.align	1
 3503              		.p2align 4,,15
 3504              		.global	VL53L0X_SetDeviceMode
 3505              		.syntax unified
 3506              		.thumb
 3507              		.thumb_func
 3508              		.fpu fpv4-sp-d16
 3509              		.type	VL53L0X_SetDeviceMode, %function
 3510              	VL53L0X_SetDeviceMode:
 3511              	.LFB31:
 3512              		.loc 1 908 0
 3513              		.cfi_startproc
 3514              		@ args = 0, pretend = 0, frame = 16
 3515              		@ frame_needed = 0, uses_anonymous_args = 0
 3516 0000 00B5     		push	{lr}
 3517              		.cfi_def_cfa_offset 4
 3518              		.cfi_offset 14, -4
 3519 0002 85B0     		sub	sp, sp, #20
 3520              		.cfi_def_cfa_offset 24
 3521 0004 0190     		str	r0, [sp, #4]
 3522 0006 0B46     		mov	r3, r1
 3523 0008 8DF80330 		strb	r3, [sp, #3]
 3524              		.loc 1 908 0
 3525 000c 274B     		ldr	r3, .L238
 3526 000e 1B68     		ldr	r3, [r3]
 3527 0010 0393     		str	r3, [sp, #12]
 3528              		.loc 1 909 0
 3529 0012 0023     		movs	r3, #0
 3530 0014 8DF80B30 		strb	r3, [sp, #11]
 3531              		.loc 1 913 0
 3532 0018 9DF80330 		ldrb	r3, [sp, #3]	@ zero_extendqisi2
 3533 001c 152B     		cmp	r3, #21
 3534 001e 34D8     		bhi	.L232
ARM GAS  C:\Users\PCHAUT~1\AppData\Local\Temp\ccZvjaUR.s 			page 63


 3535 0020 01A2     		adr	r2, .L234
 3536 0022 52F823F0 		ldr	pc, [r2, r3, lsl #2]
 3537 0026 00BF     		.p2align 2
 3538              	.L234:
 3539 0028 81000000 		.word	.L233+1
 3540 002c 81000000 		.word	.L233+1
 3541 0030 8B000000 		.word	.L232+1
 3542 0034 81000000 		.word	.L233+1
 3543 0038 8B000000 		.word	.L232+1
 3544 003c 8B000000 		.word	.L232+1
 3545 0040 8B000000 		.word	.L232+1
 3546 0044 8B000000 		.word	.L232+1
 3547 0048 8B000000 		.word	.L232+1
 3548 004c 8B000000 		.word	.L232+1
 3549 0050 8B000000 		.word	.L232+1
 3550 0054 8B000000 		.word	.L232+1
 3551 0058 8B000000 		.word	.L232+1
 3552 005c 8B000000 		.word	.L232+1
 3553 0060 8B000000 		.word	.L232+1
 3554 0064 8B000000 		.word	.L232+1
 3555 0068 8B000000 		.word	.L232+1
 3556 006c 8B000000 		.word	.L232+1
 3557 0070 8B000000 		.word	.L232+1
 3558 0074 8B000000 		.word	.L232+1
 3559 0078 81000000 		.word	.L233+1
 3560 007c 81000000 		.word	.L233+1
 3561              		.p2align 1
 3562              	.L233:
 3563              		.loc 1 920 0
 3564 0080 019B     		ldr	r3, [sp, #4]
 3565 0082 9DF80320 		ldrb	r2, [sp, #3]
 3566 0086 1A74     		strb	r2, [r3, #16]
 3567              		.loc 1 921 0
 3568 0088 02E0     		b	.L235
 3569              	.L232:
 3570              		.loc 1 924 0
 3571 008a F823     		movs	r3, #248
 3572 008c 8DF80B30 		strb	r3, [sp, #11]
 3573              	.L235:
 3574              		.loc 1 928 0
 3575 0090 9DF90B30 		ldrsb	r3, [sp, #11]
 3576              		.loc 1 929 0
 3577 0094 1846     		mov	r0, r3
 3578 0096 054B     		ldr	r3, .L238
 3579 0098 039A     		ldr	r2, [sp, #12]
 3580 009a 1B68     		ldr	r3, [r3]
 3581 009c 9A42     		cmp	r2, r3
 3582 009e 01D0     		beq	.L237
 3583 00a0 FFF7FEFF 		bl	__stack_chk_fail
 3584              	.L237:
 3585 00a4 05B0     		add	sp, sp, #20
 3586              		.cfi_def_cfa_offset 4
 3587              		@ sp needed
 3588 00a6 5DF804FB 		ldr	pc, [sp], #4
 3589              	.L239:
 3590 00aa 00BF     		.align	2
 3591              	.L238:
ARM GAS  C:\Users\PCHAUT~1\AppData\Local\Temp\ccZvjaUR.s 			page 64


 3592 00ac 00000000 		.word	__stack_chk_guard
 3593              		.cfi_endproc
 3594              	.LFE31:
 3595              		.size	VL53L0X_SetDeviceMode, .-VL53L0X_SetDeviceMode
 3596              		.section	.text.VL53L0X_GetDeviceMode,"ax",%progbits
 3597              		.align	1
 3598              		.p2align 4,,15
 3599              		.global	VL53L0X_GetDeviceMode
 3600              		.syntax unified
 3601              		.thumb
 3602              		.thumb_func
 3603              		.fpu fpv4-sp-d16
 3604              		.type	VL53L0X_GetDeviceMode, %function
 3605              	VL53L0X_GetDeviceMode:
 3606              	.LFB32:
 3607              		.loc 1 933 0
 3608              		.cfi_startproc
 3609              		@ args = 0, pretend = 0, frame = 16
 3610              		@ frame_needed = 0, uses_anonymous_args = 0
 3611 0000 00B5     		push	{lr}
 3612              		.cfi_def_cfa_offset 4
 3613              		.cfi_offset 14, -4
 3614 0002 85B0     		sub	sp, sp, #20
 3615              		.cfi_def_cfa_offset 24
 3616 0004 0190     		str	r0, [sp, #4]
 3617 0006 0091     		str	r1, [sp]
 3618              		.loc 1 933 0
 3619 0008 0B4B     		ldr	r3, .L243
 3620 000a 1B68     		ldr	r3, [r3]
 3621 000c 0393     		str	r3, [sp, #12]
 3622              		.loc 1 934 0
 3623 000e 0023     		movs	r3, #0
 3624 0010 8DF80B30 		strb	r3, [sp, #11]
 3625              		.loc 1 937 0
 3626 0014 019B     		ldr	r3, [sp, #4]
 3627 0016 1A7C     		ldrb	r2, [r3, #16]	@ zero_extendqisi2
 3628 0018 009B     		ldr	r3, [sp]
 3629 001a 1A70     		strb	r2, [r3]
 3630              		.loc 1 940 0
 3631 001c 9DF90B30 		ldrsb	r3, [sp, #11]
 3632              		.loc 1 941 0
 3633 0020 1846     		mov	r0, r3
 3634 0022 054B     		ldr	r3, .L243
 3635 0024 039A     		ldr	r2, [sp, #12]
 3636 0026 1B68     		ldr	r3, [r3]
 3637 0028 9A42     		cmp	r2, r3
 3638 002a 01D0     		beq	.L242
 3639 002c FFF7FEFF 		bl	__stack_chk_fail
 3640              	.L242:
 3641 0030 05B0     		add	sp, sp, #20
 3642              		.cfi_def_cfa_offset 4
 3643              		@ sp needed
 3644 0032 5DF804FB 		ldr	pc, [sp], #4
 3645              	.L244:
 3646 0036 00BF     		.align	2
 3647              	.L243:
 3648 0038 00000000 		.word	__stack_chk_guard
ARM GAS  C:\Users\PCHAUT~1\AppData\Local\Temp\ccZvjaUR.s 			page 65


 3649              		.cfi_endproc
 3650              	.LFE32:
 3651              		.size	VL53L0X_GetDeviceMode, .-VL53L0X_GetDeviceMode
 3652              		.section	.text.VL53L0X_SetRangeFractionEnable,"ax",%progbits
 3653              		.align	1
 3654              		.p2align 4,,15
 3655              		.global	VL53L0X_SetRangeFractionEnable
 3656              		.syntax unified
 3657              		.thumb
 3658              		.thumb_func
 3659              		.fpu fpv4-sp-d16
 3660              		.type	VL53L0X_SetRangeFractionEnable, %function
 3661              	VL53L0X_SetRangeFractionEnable:
 3662              	.LFB33:
 3663              		.loc 1 944 0
 3664              		.cfi_startproc
 3665              		@ args = 0, pretend = 0, frame = 16
 3666              		@ frame_needed = 0, uses_anonymous_args = 0
 3667 0000 00B5     		push	{lr}
 3668              		.cfi_def_cfa_offset 4
 3669              		.cfi_offset 14, -4
 3670 0002 85B0     		sub	sp, sp, #20
 3671              		.cfi_def_cfa_offset 24
 3672 0004 0190     		str	r0, [sp, #4]
 3673 0006 0B46     		mov	r3, r1
 3674 0008 8DF80330 		strb	r3, [sp, #3]
 3675              		.loc 1 944 0
 3676 000c 124B     		ldr	r3, .L249
 3677 000e 1B68     		ldr	r3, [r3]
 3678 0010 0393     		str	r3, [sp, #12]
 3679              		.loc 1 945 0
 3680 0012 0023     		movs	r3, #0
 3681 0014 8DF80B30 		strb	r3, [sp, #11]
 3682              		.loc 1 949 0
 3683 0018 9DF80330 		ldrb	r3, [sp, #3]	@ zero_extendqisi2
 3684 001c 1A46     		mov	r2, r3
 3685 001e 0921     		movs	r1, #9
 3686 0020 0198     		ldr	r0, [sp, #4]
 3687 0022 FFF7FEFF 		bl	VL53L0X_WrByte
 3688 0026 0346     		mov	r3, r0
 3689 0028 8DF80B30 		strb	r3, [sp, #11]
 3690              		.loc 1 951 0
 3691 002c 9DF90B30 		ldrsb	r3, [sp, #11]
 3692 0030 002B     		cmp	r3, #0
 3693 0032 04D1     		bne	.L246
 3694              		.loc 1 952 0
 3695 0034 019B     		ldr	r3, [sp, #4]
 3696 0036 9DF80320 		ldrb	r2, [sp, #3]
 3697 003a 83F83121 		strb	r2, [r3, #305]
 3698              	.L246:
 3699              		.loc 1 955 0
 3700 003e 9DF90B30 		ldrsb	r3, [sp, #11]
 3701              		.loc 1 956 0
 3702 0042 1846     		mov	r0, r3
 3703 0044 044B     		ldr	r3, .L249
 3704 0046 039A     		ldr	r2, [sp, #12]
 3705 0048 1B68     		ldr	r3, [r3]
ARM GAS  C:\Users\PCHAUT~1\AppData\Local\Temp\ccZvjaUR.s 			page 66


 3706 004a 9A42     		cmp	r2, r3
 3707 004c 01D0     		beq	.L248
 3708 004e FFF7FEFF 		bl	__stack_chk_fail
 3709              	.L248:
 3710 0052 05B0     		add	sp, sp, #20
 3711              		.cfi_def_cfa_offset 4
 3712              		@ sp needed
 3713 0054 5DF804FB 		ldr	pc, [sp], #4
 3714              	.L250:
 3715              		.align	2
 3716              	.L249:
 3717 0058 00000000 		.word	__stack_chk_guard
 3718              		.cfi_endproc
 3719              	.LFE33:
 3720              		.size	VL53L0X_SetRangeFractionEnable, .-VL53L0X_SetRangeFractionEnable
 3721              		.section	.text.VL53L0X_GetFractionEnable,"ax",%progbits
 3722              		.align	1
 3723              		.p2align 4,,15
 3724              		.global	VL53L0X_GetFractionEnable
 3725              		.syntax unified
 3726              		.thumb
 3727              		.thumb_func
 3728              		.fpu fpv4-sp-d16
 3729              		.type	VL53L0X_GetFractionEnable, %function
 3730              	VL53L0X_GetFractionEnable:
 3731              	.LFB34:
 3732              		.loc 1 959 0
 3733              		.cfi_startproc
 3734              		@ args = 0, pretend = 0, frame = 16
 3735              		@ frame_needed = 0, uses_anonymous_args = 0
 3736 0000 00B5     		push	{lr}
 3737              		.cfi_def_cfa_offset 4
 3738              		.cfi_offset 14, -4
 3739 0002 85B0     		sub	sp, sp, #20
 3740              		.cfi_def_cfa_offset 24
 3741 0004 0190     		str	r0, [sp, #4]
 3742 0006 0091     		str	r1, [sp]
 3743              		.loc 1 959 0
 3744 0008 124B     		ldr	r3, .L255
 3745 000a 1B68     		ldr	r3, [r3]
 3746 000c 0393     		str	r3, [sp, #12]
 3747              		.loc 1 960 0
 3748 000e 0023     		movs	r3, #0
 3749 0010 8DF80B30 		strb	r3, [sp, #11]
 3750              		.loc 1 963 0
 3751 0014 009A     		ldr	r2, [sp]
 3752 0016 0921     		movs	r1, #9
 3753 0018 0198     		ldr	r0, [sp, #4]
 3754 001a FFF7FEFF 		bl	VL53L0X_RdByte
 3755 001e 0346     		mov	r3, r0
 3756 0020 8DF80B30 		strb	r3, [sp, #11]
 3757              		.loc 1 965 0
 3758 0024 9DF90B30 		ldrsb	r3, [sp, #11]
 3759 0028 002B     		cmp	r3, #0
 3760 002a 06D1     		bne	.L252
 3761              		.loc 1 966 0
 3762 002c 009B     		ldr	r3, [sp]
ARM GAS  C:\Users\PCHAUT~1\AppData\Local\Temp\ccZvjaUR.s 			page 67


 3763 002e 1B78     		ldrb	r3, [r3]	@ zero_extendqisi2
 3764 0030 03F00103 		and	r3, r3, #1
 3765 0034 DAB2     		uxtb	r2, r3
 3766 0036 009B     		ldr	r3, [sp]
 3767 0038 1A70     		strb	r2, [r3]
 3768              	.L252:
 3769              		.loc 1 969 0
 3770 003a 9DF90B30 		ldrsb	r3, [sp, #11]
 3771              		.loc 1 970 0
 3772 003e 1846     		mov	r0, r3
 3773 0040 044B     		ldr	r3, .L255
 3774 0042 039A     		ldr	r2, [sp, #12]
 3775 0044 1B68     		ldr	r3, [r3]
 3776 0046 9A42     		cmp	r2, r3
 3777 0048 01D0     		beq	.L254
 3778 004a FFF7FEFF 		bl	__stack_chk_fail
 3779              	.L254:
 3780 004e 05B0     		add	sp, sp, #20
 3781              		.cfi_def_cfa_offset 4
 3782              		@ sp needed
 3783 0050 5DF804FB 		ldr	pc, [sp], #4
 3784              	.L256:
 3785              		.align	2
 3786              	.L255:
 3787 0054 00000000 		.word	__stack_chk_guard
 3788              		.cfi_endproc
 3789              	.LFE34:
 3790              		.size	VL53L0X_GetFractionEnable, .-VL53L0X_GetFractionEnable
 3791              		.section	.text.VL53L0X_SetHistogramMode,"ax",%progbits
 3792              		.align	1
 3793              		.p2align 4,,15
 3794              		.global	VL53L0X_SetHistogramMode
 3795              		.syntax unified
 3796              		.thumb
 3797              		.thumb_func
 3798              		.fpu fpv4-sp-d16
 3799              		.type	VL53L0X_SetHistogramMode, %function
 3800              	VL53L0X_SetHistogramMode:
 3801              	.LFB35:
 3802              		.loc 1 974 0
 3803              		.cfi_startproc
 3804              		@ args = 0, pretend = 0, frame = 16
 3805              		@ frame_needed = 0, uses_anonymous_args = 0
 3806 0000 00B5     		push	{lr}
 3807              		.cfi_def_cfa_offset 4
 3808              		.cfi_offset 14, -4
 3809 0002 85B0     		sub	sp, sp, #20
 3810              		.cfi_def_cfa_offset 24
 3811 0004 0190     		str	r0, [sp, #4]
 3812 0006 0B46     		mov	r3, r1
 3813 0008 8DF80330 		strb	r3, [sp, #3]
 3814              		.loc 1 974 0
 3815 000c 094B     		ldr	r3, .L260
 3816 000e 1B68     		ldr	r3, [r3]
 3817 0010 0393     		str	r3, [sp, #12]
 3818              		.loc 1 975 0
 3819 0012 9D23     		movs	r3, #157
ARM GAS  C:\Users\PCHAUT~1\AppData\Local\Temp\ccZvjaUR.s 			page 68


 3820 0014 8DF80B30 		strb	r3, [sp, #11]
 3821              		.loc 1 983 0
 3822 0018 9DF90B30 		ldrsb	r3, [sp, #11]
 3823              		.loc 1 984 0
 3824 001c 1846     		mov	r0, r3
 3825 001e 054B     		ldr	r3, .L260
 3826 0020 039A     		ldr	r2, [sp, #12]
 3827 0022 1B68     		ldr	r3, [r3]
 3828 0024 9A42     		cmp	r2, r3
 3829 0026 01D0     		beq	.L259
 3830 0028 FFF7FEFF 		bl	__stack_chk_fail
 3831              	.L259:
 3832 002c 05B0     		add	sp, sp, #20
 3833              		.cfi_def_cfa_offset 4
 3834              		@ sp needed
 3835 002e 5DF804FB 		ldr	pc, [sp], #4
 3836              	.L261:
 3837 0032 00BF     		.align	2
 3838              	.L260:
 3839 0034 00000000 		.word	__stack_chk_guard
 3840              		.cfi_endproc
 3841              	.LFE35:
 3842              		.size	VL53L0X_SetHistogramMode, .-VL53L0X_SetHistogramMode
 3843              		.section	.text.VL53L0X_GetHistogramMode,"ax",%progbits
 3844              		.align	1
 3845              		.p2align 4,,15
 3846              		.global	VL53L0X_GetHistogramMode
 3847              		.syntax unified
 3848              		.thumb
 3849              		.thumb_func
 3850              		.fpu fpv4-sp-d16
 3851              		.type	VL53L0X_GetHistogramMode, %function
 3852              	VL53L0X_GetHistogramMode:
 3853              	.LFB36:
 3854              		.loc 1 988 0
 3855              		.cfi_startproc
 3856              		@ args = 0, pretend = 0, frame = 16
 3857              		@ frame_needed = 0, uses_anonymous_args = 0
 3858 0000 00B5     		push	{lr}
 3859              		.cfi_def_cfa_offset 4
 3860              		.cfi_offset 14, -4
 3861 0002 85B0     		sub	sp, sp, #20
 3862              		.cfi_def_cfa_offset 24
 3863 0004 0190     		str	r0, [sp, #4]
 3864 0006 0091     		str	r1, [sp]
 3865              		.loc 1 988 0
 3866 0008 094B     		ldr	r3, .L265
 3867 000a 1B68     		ldr	r3, [r3]
 3868 000c 0393     		str	r3, [sp, #12]
 3869              		.loc 1 989 0
 3870 000e 9D23     		movs	r3, #157
 3871 0010 8DF80B30 		strb	r3, [sp, #11]
 3872              		.loc 1 997 0
 3873 0014 9DF90B30 		ldrsb	r3, [sp, #11]
 3874              		.loc 1 998 0
 3875 0018 1846     		mov	r0, r3
 3876 001a 054B     		ldr	r3, .L265
ARM GAS  C:\Users\PCHAUT~1\AppData\Local\Temp\ccZvjaUR.s 			page 69


 3877 001c 039A     		ldr	r2, [sp, #12]
 3878 001e 1B68     		ldr	r3, [r3]
 3879 0020 9A42     		cmp	r2, r3
 3880 0022 01D0     		beq	.L264
 3881 0024 FFF7FEFF 		bl	__stack_chk_fail
 3882              	.L264:
 3883 0028 05B0     		add	sp, sp, #20
 3884              		.cfi_def_cfa_offset 4
 3885              		@ sp needed
 3886 002a 5DF804FB 		ldr	pc, [sp], #4
 3887              	.L266:
 3888 002e 00BF     		.align	2
 3889              	.L265:
 3890 0030 00000000 		.word	__stack_chk_guard
 3891              		.cfi_endproc
 3892              	.LFE36:
 3893              		.size	VL53L0X_GetHistogramMode, .-VL53L0X_GetHistogramMode
 3894              		.section	.text.VL53L0X_SetMeasurementTimingBudgetMicroSeconds,"ax",%progbits
 3895              		.align	1
 3896              		.p2align 4,,15
 3897              		.global	VL53L0X_SetMeasurementTimingBudgetMicroSeconds
 3898              		.syntax unified
 3899              		.thumb
 3900              		.thumb_func
 3901              		.fpu fpv4-sp-d16
 3902              		.type	VL53L0X_SetMeasurementTimingBudgetMicroSeconds, %function
 3903              	VL53L0X_SetMeasurementTimingBudgetMicroSeconds:
 3904              	.LFB37:
 3905              		.loc 1 1002 0
 3906              		.cfi_startproc
 3907              		@ args = 0, pretend = 0, frame = 16
 3908              		@ frame_needed = 0, uses_anonymous_args = 0
 3909 0000 00B5     		push	{lr}
 3910              		.cfi_def_cfa_offset 4
 3911              		.cfi_offset 14, -4
 3912 0002 85B0     		sub	sp, sp, #20
 3913              		.cfi_def_cfa_offset 24
 3914 0004 0190     		str	r0, [sp, #4]
 3915 0006 0091     		str	r1, [sp]
 3916              		.loc 1 1002 0
 3917 0008 0C4B     		ldr	r3, .L270
 3918 000a 1B68     		ldr	r3, [r3]
 3919 000c 0393     		str	r3, [sp, #12]
 3920              		.loc 1 1003 0
 3921 000e 0023     		movs	r3, #0
 3922 0010 8DF80B30 		strb	r3, [sp, #11]
 3923              		.loc 1 1006 0
 3924 0014 0099     		ldr	r1, [sp]
 3925 0016 0198     		ldr	r0, [sp, #4]
 3926 0018 FFF7FEFF 		bl	VL53L0X_set_measurement_timing_budget_micro_seconds
 3927 001c 0346     		mov	r3, r0
 3928 001e 8DF80B30 		strb	r3, [sp, #11]
 3929              		.loc 1 1011 0
 3930 0022 9DF90B30 		ldrsb	r3, [sp, #11]
 3931              		.loc 1 1012 0
 3932 0026 1846     		mov	r0, r3
 3933 0028 044B     		ldr	r3, .L270
ARM GAS  C:\Users\PCHAUT~1\AppData\Local\Temp\ccZvjaUR.s 			page 70


 3934 002a 039A     		ldr	r2, [sp, #12]
 3935 002c 1B68     		ldr	r3, [r3]
 3936 002e 9A42     		cmp	r2, r3
 3937 0030 01D0     		beq	.L269
 3938 0032 FFF7FEFF 		bl	__stack_chk_fail
 3939              	.L269:
 3940 0036 05B0     		add	sp, sp, #20
 3941              		.cfi_def_cfa_offset 4
 3942              		@ sp needed
 3943 0038 5DF804FB 		ldr	pc, [sp], #4
 3944              	.L271:
 3945              		.align	2
 3946              	.L270:
 3947 003c 00000000 		.word	__stack_chk_guard
 3948              		.cfi_endproc
 3949              	.LFE37:
 3950              		.size	VL53L0X_SetMeasurementTimingBudgetMicroSeconds, .-VL53L0X_SetMeasurementTimingBudgetMicroSec
 3951              		.section	.text.VL53L0X_GetMeasurementTimingBudgetMicroSeconds,"ax",%progbits
 3952              		.align	1
 3953              		.p2align 4,,15
 3954              		.global	VL53L0X_GetMeasurementTimingBudgetMicroSeconds
 3955              		.syntax unified
 3956              		.thumb
 3957              		.thumb_func
 3958              		.fpu fpv4-sp-d16
 3959              		.type	VL53L0X_GetMeasurementTimingBudgetMicroSeconds, %function
 3960              	VL53L0X_GetMeasurementTimingBudgetMicroSeconds:
 3961              	.LFB38:
 3962              		.loc 1 1016 0
 3963              		.cfi_startproc
 3964              		@ args = 0, pretend = 0, frame = 16
 3965              		@ frame_needed = 0, uses_anonymous_args = 0
 3966 0000 00B5     		push	{lr}
 3967              		.cfi_def_cfa_offset 4
 3968              		.cfi_offset 14, -4
 3969 0002 85B0     		sub	sp, sp, #20
 3970              		.cfi_def_cfa_offset 24
 3971 0004 0190     		str	r0, [sp, #4]
 3972 0006 0091     		str	r1, [sp]
 3973              		.loc 1 1016 0
 3974 0008 0C4B     		ldr	r3, .L275
 3975 000a 1B68     		ldr	r3, [r3]
 3976 000c 0393     		str	r3, [sp, #12]
 3977              		.loc 1 1017 0
 3978 000e 0023     		movs	r3, #0
 3979 0010 8DF80B30 		strb	r3, [sp, #11]
 3980              		.loc 1 1020 0
 3981 0014 0099     		ldr	r1, [sp]
 3982 0016 0198     		ldr	r0, [sp, #4]
 3983 0018 FFF7FEFF 		bl	VL53L0X_get_measurement_timing_budget_micro_seconds
 3984 001c 0346     		mov	r3, r0
 3985 001e 8DF80B30 		strb	r3, [sp, #11]
 3986              		.loc 1 1024 0
 3987 0022 9DF90B30 		ldrsb	r3, [sp, #11]
 3988              		.loc 1 1025 0
 3989 0026 1846     		mov	r0, r3
 3990 0028 044B     		ldr	r3, .L275
ARM GAS  C:\Users\PCHAUT~1\AppData\Local\Temp\ccZvjaUR.s 			page 71


 3991 002a 039A     		ldr	r2, [sp, #12]
 3992 002c 1B68     		ldr	r3, [r3]
 3993 002e 9A42     		cmp	r2, r3
 3994 0030 01D0     		beq	.L274
 3995 0032 FFF7FEFF 		bl	__stack_chk_fail
 3996              	.L274:
 3997 0036 05B0     		add	sp, sp, #20
 3998              		.cfi_def_cfa_offset 4
 3999              		@ sp needed
 4000 0038 5DF804FB 		ldr	pc, [sp], #4
 4001              	.L276:
 4002              		.align	2
 4003              	.L275:
 4004 003c 00000000 		.word	__stack_chk_guard
 4005              		.cfi_endproc
 4006              	.LFE38:
 4007              		.size	VL53L0X_GetMeasurementTimingBudgetMicroSeconds, .-VL53L0X_GetMeasurementTimingBudgetMicroSec
 4008              		.section	.text.VL53L0X_SetVcselPulsePeriod,"ax",%progbits
 4009              		.align	1
 4010              		.p2align 4,,15
 4011              		.global	VL53L0X_SetVcselPulsePeriod
 4012              		.syntax unified
 4013              		.thumb
 4014              		.thumb_func
 4015              		.fpu fpv4-sp-d16
 4016              		.type	VL53L0X_SetVcselPulsePeriod, %function
 4017              	VL53L0X_SetVcselPulsePeriod:
 4018              	.LFB39:
 4019              		.loc 1 1029 0
 4020              		.cfi_startproc
 4021              		@ args = 0, pretend = 0, frame = 16
 4022              		@ frame_needed = 0, uses_anonymous_args = 0
 4023 0000 00B5     		push	{lr}
 4024              		.cfi_def_cfa_offset 4
 4025              		.cfi_offset 14, -4
 4026 0002 85B0     		sub	sp, sp, #20
 4027              		.cfi_def_cfa_offset 24
 4028 0004 0190     		str	r0, [sp, #4]
 4029 0006 0B46     		mov	r3, r1
 4030 0008 8DF80330 		strb	r3, [sp, #3]
 4031 000c 1346     		mov	r3, r2
 4032 000e 8DF80230 		strb	r3, [sp, #2]
 4033              		.loc 1 1029 0
 4034 0012 0F4B     		ldr	r3, .L280
 4035 0014 1B68     		ldr	r3, [r3]
 4036 0016 0393     		str	r3, [sp, #12]
 4037              		.loc 1 1030 0
 4038 0018 0023     		movs	r3, #0
 4039 001a 8DF80B30 		strb	r3, [sp, #11]
 4040              		.loc 1 1033 0
 4041 001e 9DF80220 		ldrb	r2, [sp, #2]	@ zero_extendqisi2
 4042 0022 9DF80330 		ldrb	r3, [sp, #3]	@ zero_extendqisi2
 4043 0026 1946     		mov	r1, r3
 4044 0028 0198     		ldr	r0, [sp, #4]
 4045 002a FFF7FEFF 		bl	VL53L0X_set_vcsel_pulse_period
 4046 002e 0346     		mov	r3, r0
 4047 0030 8DF80B30 		strb	r3, [sp, #11]
ARM GAS  C:\Users\PCHAUT~1\AppData\Local\Temp\ccZvjaUR.s 			page 72


 4048              		.loc 1 1037 0
 4049 0034 9DF90B30 		ldrsb	r3, [sp, #11]
 4050              		.loc 1 1038 0
 4051 0038 1846     		mov	r0, r3
 4052 003a 054B     		ldr	r3, .L280
 4053 003c 039A     		ldr	r2, [sp, #12]
 4054 003e 1B68     		ldr	r3, [r3]
 4055 0040 9A42     		cmp	r2, r3
 4056 0042 01D0     		beq	.L279
 4057 0044 FFF7FEFF 		bl	__stack_chk_fail
 4058              	.L279:
 4059 0048 05B0     		add	sp, sp, #20
 4060              		.cfi_def_cfa_offset 4
 4061              		@ sp needed
 4062 004a 5DF804FB 		ldr	pc, [sp], #4
 4063              	.L281:
 4064 004e 00BF     		.align	2
 4065              	.L280:
 4066 0050 00000000 		.word	__stack_chk_guard
 4067              		.cfi_endproc
 4068              	.LFE39:
 4069              		.size	VL53L0X_SetVcselPulsePeriod, .-VL53L0X_SetVcselPulsePeriod
 4070              		.section	.text.VL53L0X_GetVcselPulsePeriod,"ax",%progbits
 4071              		.align	1
 4072              		.p2align 4,,15
 4073              		.global	VL53L0X_GetVcselPulsePeriod
 4074              		.syntax unified
 4075              		.thumb
 4076              		.thumb_func
 4077              		.fpu fpv4-sp-d16
 4078              		.type	VL53L0X_GetVcselPulsePeriod, %function
 4079              	VL53L0X_GetVcselPulsePeriod:
 4080              	.LFB40:
 4081              		.loc 1 1042 0
 4082              		.cfi_startproc
 4083              		@ args = 0, pretend = 0, frame = 24
 4084              		@ frame_needed = 0, uses_anonymous_args = 0
 4085 0000 00B5     		push	{lr}
 4086              		.cfi_def_cfa_offset 4
 4087              		.cfi_offset 14, -4
 4088 0002 87B0     		sub	sp, sp, #28
 4089              		.cfi_def_cfa_offset 32
 4090 0004 0390     		str	r0, [sp, #12]
 4091 0006 0B46     		mov	r3, r1
 4092 0008 0192     		str	r2, [sp, #4]
 4093 000a 8DF80B30 		strb	r3, [sp, #11]
 4094              		.loc 1 1042 0
 4095 000e 0E4B     		ldr	r3, .L285
 4096 0010 1B68     		ldr	r3, [r3]
 4097 0012 0593     		str	r3, [sp, #20]
 4098              		.loc 1 1043 0
 4099 0014 0023     		movs	r3, #0
 4100 0016 8DF81330 		strb	r3, [sp, #19]
 4101              		.loc 1 1046 0
 4102 001a 9DF80B30 		ldrb	r3, [sp, #11]	@ zero_extendqisi2
 4103 001e 019A     		ldr	r2, [sp, #4]
 4104 0020 1946     		mov	r1, r3
ARM GAS  C:\Users\PCHAUT~1\AppData\Local\Temp\ccZvjaUR.s 			page 73


 4105 0022 0398     		ldr	r0, [sp, #12]
 4106 0024 FFF7FEFF 		bl	VL53L0X_get_vcsel_pulse_period
 4107 0028 0346     		mov	r3, r0
 4108 002a 8DF81330 		strb	r3, [sp, #19]
 4109              		.loc 1 1050 0
 4110 002e 9DF91330 		ldrsb	r3, [sp, #19]
 4111              		.loc 1 1051 0
 4112 0032 1846     		mov	r0, r3
 4113 0034 044B     		ldr	r3, .L285
 4114 0036 059A     		ldr	r2, [sp, #20]
 4115 0038 1B68     		ldr	r3, [r3]
 4116 003a 9A42     		cmp	r2, r3
 4117 003c 01D0     		beq	.L284
 4118 003e FFF7FEFF 		bl	__stack_chk_fail
 4119              	.L284:
 4120 0042 07B0     		add	sp, sp, #28
 4121              		.cfi_def_cfa_offset 4
 4122              		@ sp needed
 4123 0044 5DF804FB 		ldr	pc, [sp], #4
 4124              	.L286:
 4125              		.align	2
 4126              	.L285:
 4127 0048 00000000 		.word	__stack_chk_guard
 4128              		.cfi_endproc
 4129              	.LFE40:
 4130              		.size	VL53L0X_GetVcselPulsePeriod, .-VL53L0X_GetVcselPulsePeriod
 4131              		.section	.text.VL53L0X_SetSequenceStepEnable,"ax",%progbits
 4132              		.align	1
 4133              		.p2align 4,,15
 4134              		.global	VL53L0X_SetSequenceStepEnable
 4135              		.syntax unified
 4136              		.thumb
 4137              		.thumb_func
 4138              		.fpu fpv4-sp-d16
 4139              		.type	VL53L0X_SetSequenceStepEnable, %function
 4140              	VL53L0X_SetSequenceStepEnable:
 4141              	.LFB41:
 4142              		.loc 1 1055 0
 4143              		.cfi_startproc
 4144              		@ args = 0, pretend = 0, frame = 24
 4145              		@ frame_needed = 0, uses_anonymous_args = 0
 4146 0000 00B5     		push	{lr}
 4147              		.cfi_def_cfa_offset 4
 4148              		.cfi_offset 14, -4
 4149 0002 87B0     		sub	sp, sp, #28
 4150              		.cfi_def_cfa_offset 32
 4151 0004 0190     		str	r0, [sp, #4]
 4152 0006 0B46     		mov	r3, r1
 4153 0008 8DF80330 		strb	r3, [sp, #3]
 4154 000c 1346     		mov	r3, r2
 4155 000e 8DF80230 		strb	r3, [sp, #2]
 4156              		.loc 1 1055 0
 4157 0012 644B     		ldr	r3, .L311
 4158 0014 1B68     		ldr	r3, [r3]
 4159 0016 0593     		str	r3, [sp, #20]
 4160              		.loc 1 1056 0
 4161 0018 0023     		movs	r3, #0
ARM GAS  C:\Users\PCHAUT~1\AppData\Local\Temp\ccZvjaUR.s 			page 74


 4162 001a 8DF80E30 		strb	r3, [sp, #14]
 4163              		.loc 1 1057 0
 4164 001e 0023     		movs	r3, #0
 4165 0020 8DF80D30 		strb	r3, [sp, #13]
 4166              		.loc 1 1058 0
 4167 0024 0023     		movs	r3, #0
 4168 0026 8DF80F30 		strb	r3, [sp, #15]
 4169              		.loc 1 1062 0
 4170 002a 0DF10D03 		add	r3, sp, #13
 4171 002e 1A46     		mov	r2, r3
 4172 0030 0121     		movs	r1, #1
 4173 0032 0198     		ldr	r0, [sp, #4]
 4174 0034 FFF7FEFF 		bl	VL53L0X_RdByte
 4175 0038 0346     		mov	r3, r0
 4176 003a 8DF80E30 		strb	r3, [sp, #14]
 4177              		.loc 1 1065 0
 4178 003e 9DF80D30 		ldrb	r3, [sp, #13]
 4179 0042 8DF80F30 		strb	r3, [sp, #15]
 4180              		.loc 1 1067 0
 4181 0046 9DF90E30 		ldrsb	r3, [sp, #14]
 4182 004a 002B     		cmp	r3, #0
 4183 004c 73D1     		bne	.L310
 4184              		.loc 1 1068 0
 4185 004e 9DF80230 		ldrb	r3, [sp, #2]	@ zero_extendqisi2
 4186 0052 012B     		cmp	r3, #1
 4187 0054 37D1     		bne	.L289
 4188              		.loc 1 1072 0
 4189 0056 9DF80330 		ldrb	r3, [sp, #3]	@ zero_extendqisi2
 4190 005a 042B     		cmp	r3, #4
 4191 005c 2FD8     		bhi	.L290
 4192 005e 01A2     		adr	r2, .L292
 4193 0060 52F823F0 		ldr	pc, [r2, r3, lsl #2]
 4194              		.p2align 2
 4195              	.L292:
 4196 0064 79000000 		.word	.L291+1
 4197 0068 87000000 		.word	.L293+1
 4198 006c 95000000 		.word	.L294+1
 4199 0070 A3000000 		.word	.L295+1
 4200 0074 B1000000 		.word	.L296+1
 4201              		.p2align 1
 4202              	.L291:
 4203              		.loc 1 1074 0
 4204 0078 9DF80F30 		ldrb	r3, [sp, #15]
 4205 007c 43F01003 		orr	r3, r3, #16
 4206 0080 8DF80F30 		strb	r3, [sp, #15]
 4207              		.loc 1 1075 0
 4208 0084 58E0     		b	.L288
 4209              	.L293:
 4210              		.loc 1 1077 0
 4211 0086 9DF80F30 		ldrb	r3, [sp, #15]
 4212 008a 43F02803 		orr	r3, r3, #40
 4213 008e 8DF80F30 		strb	r3, [sp, #15]
 4214              		.loc 1 1078 0
 4215 0092 51E0     		b	.L288
 4216              	.L294:
 4217              		.loc 1 1080 0
 4218 0094 9DF80F30 		ldrb	r3, [sp, #15]
ARM GAS  C:\Users\PCHAUT~1\AppData\Local\Temp\ccZvjaUR.s 			page 75


 4219 0098 43F00403 		orr	r3, r3, #4
 4220 009c 8DF80F30 		strb	r3, [sp, #15]
 4221              		.loc 1 1081 0
 4222 00a0 4AE0     		b	.L288
 4223              	.L295:
 4224              		.loc 1 1083 0
 4225 00a2 9DF80F30 		ldrb	r3, [sp, #15]
 4226 00a6 43F04003 		orr	r3, r3, #64
 4227 00aa 8DF80F30 		strb	r3, [sp, #15]
 4228              		.loc 1 1084 0
 4229 00ae 43E0     		b	.L288
 4230              	.L296:
 4231              		.loc 1 1086 0
 4232 00b0 9DF80F30 		ldrb	r3, [sp, #15]
 4233 00b4 63F07F03 		orn	r3, r3, #127
 4234 00b8 8DF80F30 		strb	r3, [sp, #15]
 4235              		.loc 1 1087 0
 4236 00bc 3CE0     		b	.L288
 4237              	.L290:
 4238              		.loc 1 1089 0
 4239 00be FC23     		movs	r3, #252
 4240 00c0 8DF80E30 		strb	r3, [sp, #14]
 4241 00c4 38E0     		b	.L288
 4242              	.L289:
 4243              		.loc 1 1094 0
 4244 00c6 9DF80330 		ldrb	r3, [sp, #3]	@ zero_extendqisi2
 4245 00ca 042B     		cmp	r3, #4
 4246 00cc 2FD8     		bhi	.L298
 4247 00ce 01A2     		adr	r2, .L300
 4248 00d0 52F823F0 		ldr	pc, [r2, r3, lsl #2]
 4249              		.p2align 2
 4250              	.L300:
 4251 00d4 E9000000 		.word	.L299+1
 4252 00d8 F7000000 		.word	.L301+1
 4253 00dc 05010000 		.word	.L302+1
 4254 00e0 13010000 		.word	.L303+1
 4255 00e4 21010000 		.word	.L304+1
 4256              		.p2align 1
 4257              	.L299:
 4258              		.loc 1 1096 0
 4259 00e8 9DF80F30 		ldrb	r3, [sp, #15]
 4260 00ec 23F01003 		bic	r3, r3, #16
 4261 00f0 8DF80F30 		strb	r3, [sp, #15]
 4262              		.loc 1 1097 0
 4263 00f4 20E0     		b	.L288
 4264              	.L301:
 4265              		.loc 1 1099 0
 4266 00f6 9DF80F30 		ldrb	r3, [sp, #15]
 4267 00fa 23F02803 		bic	r3, r3, #40
 4268 00fe 8DF80F30 		strb	r3, [sp, #15]
 4269              		.loc 1 1100 0
 4270 0102 19E0     		b	.L288
 4271              	.L302:
 4272              		.loc 1 1102 0
 4273 0104 9DF80F30 		ldrb	r3, [sp, #15]
 4274 0108 23F00403 		bic	r3, r3, #4
 4275 010c 8DF80F30 		strb	r3, [sp, #15]
ARM GAS  C:\Users\PCHAUT~1\AppData\Local\Temp\ccZvjaUR.s 			page 76


 4276              		.loc 1 1103 0
 4277 0110 12E0     		b	.L288
 4278              	.L303:
 4279              		.loc 1 1105 0
 4280 0112 9DF80F30 		ldrb	r3, [sp, #15]
 4281 0116 23F04003 		bic	r3, r3, #64
 4282 011a 8DF80F30 		strb	r3, [sp, #15]
 4283              		.loc 1 1106 0
 4284 011e 0BE0     		b	.L288
 4285              	.L304:
 4286              		.loc 1 1108 0
 4287 0120 9DF80F30 		ldrb	r3, [sp, #15]
 4288 0124 03F07F03 		and	r3, r3, #127
 4289 0128 8DF80F30 		strb	r3, [sp, #15]
 4290              		.loc 1 1109 0
 4291 012c 04E0     		b	.L288
 4292              	.L298:
 4293              		.loc 1 1111 0
 4294 012e FC23     		movs	r3, #252
 4295 0130 8DF80E30 		strb	r3, [sp, #14]
 4296 0134 00E0     		b	.L288
 4297              	.L310:
 4298              		.loc 1 1113 0
 4299 0136 00BF     		nop
 4300              	.L288:
 4301              		.loc 1 1116 0
 4302 0138 9DF80D30 		ldrb	r3, [sp, #13]	@ zero_extendqisi2
 4303 013c 9DF80F20 		ldrb	r2, [sp, #15]	@ zero_extendqisi2
 4304 0140 9A42     		cmp	r2, r3
 4305 0142 21D0     		beq	.L305
 4306              		.loc 1 1118 0
 4307 0144 9DF90E30 		ldrsb	r3, [sp, #14]
 4308 0148 002B     		cmp	r3, #0
 4309 014a 09D1     		bne	.L306
 4310              		.loc 1 1119 0
 4311 014c 9DF80F30 		ldrb	r3, [sp, #15]	@ zero_extendqisi2
 4312 0150 1A46     		mov	r2, r3
 4313 0152 0121     		movs	r1, #1
 4314 0154 0198     		ldr	r0, [sp, #4]
 4315 0156 FFF7FEFF 		bl	VL53L0X_WrByte
 4316 015a 0346     		mov	r3, r0
 4317 015c 8DF80E30 		strb	r3, [sp, #14]
 4318              	.L306:
 4319              		.loc 1 1122 0
 4320 0160 9DF90E30 		ldrsb	r3, [sp, #14]
 4321 0164 002B     		cmp	r3, #0
 4322 0166 04D1     		bne	.L307
 4323              		.loc 1 1123 0
 4324 0168 019B     		ldr	r3, [sp, #4]
 4325 016a 9DF80F20 		ldrb	r2, [sp, #15]
 4326 016e 83F83021 		strb	r2, [r3, #304]
 4327              	.L307:
 4328              		.loc 1 1127 0
 4329 0172 9DF90E30 		ldrsb	r3, [sp, #14]
 4330 0176 002B     		cmp	r3, #0
 4331 0178 06D1     		bne	.L305
 4332              		.loc 1 1128 0
ARM GAS  C:\Users\PCHAUT~1\AppData\Local\Temp\ccZvjaUR.s 			page 77


 4333 017a 019B     		ldr	r3, [sp, #4]
 4334 017c 5B69     		ldr	r3, [r3, #20]
 4335 017e 0493     		str	r3, [sp, #16]
 4336              		.loc 1 1132 0
 4337 0180 0499     		ldr	r1, [sp, #16]
 4338 0182 0198     		ldr	r0, [sp, #4]
 4339 0184 FFF7FEFF 		bl	VL53L0X_SetMeasurementTimingBudgetMicroSeconds
 4340              	.L305:
 4341              		.loc 1 1139 0
 4342 0188 9DF90E30 		ldrsb	r3, [sp, #14]
 4343              		.loc 1 1140 0
 4344 018c 1846     		mov	r0, r3
 4345 018e 054B     		ldr	r3, .L311
 4346 0190 059A     		ldr	r2, [sp, #20]
 4347 0192 1B68     		ldr	r3, [r3]
 4348 0194 9A42     		cmp	r2, r3
 4349 0196 01D0     		beq	.L309
 4350 0198 FFF7FEFF 		bl	__stack_chk_fail
 4351              	.L309:
 4352 019c 07B0     		add	sp, sp, #28
 4353              		.cfi_def_cfa_offset 4
 4354              		@ sp needed
 4355 019e 5DF804FB 		ldr	pc, [sp], #4
 4356              	.L312:
 4357 01a2 00BF     		.align	2
 4358              	.L311:
 4359 01a4 00000000 		.word	__stack_chk_guard
 4360              		.cfi_endproc
 4361              	.LFE41:
 4362              		.size	VL53L0X_SetSequenceStepEnable, .-VL53L0X_SetSequenceStepEnable
 4363              		.section	.text.sequence_step_enabled,"ax",%progbits
 4364              		.align	1
 4365              		.p2align 4,,15
 4366              		.global	sequence_step_enabled
 4367              		.syntax unified
 4368              		.thumb
 4369              		.thumb_func
 4370              		.fpu fpv4-sp-d16
 4371              		.type	sequence_step_enabled, %function
 4372              	sequence_step_enabled:
 4373              	.LFB42:
 4374              		.loc 1 1145 0
 4375              		.cfi_startproc
 4376              		@ args = 0, pretend = 0, frame = 24
 4377              		@ frame_needed = 0, uses_anonymous_args = 0
 4378 0000 00B5     		push	{lr}
 4379              		.cfi_def_cfa_offset 4
 4380              		.cfi_offset 14, -4
 4381 0002 87B0     		sub	sp, sp, #28
 4382              		.cfi_def_cfa_offset 32
 4383 0004 0390     		str	r0, [sp, #12]
 4384 0006 0193     		str	r3, [sp, #4]
 4385 0008 0B46     		mov	r3, r1
 4386 000a 8DF80B30 		strb	r3, [sp, #11]
 4387 000e 1346     		mov	r3, r2
 4388 0010 8DF80A30 		strb	r3, [sp, #10]
 4389              		.loc 1 1145 0
ARM GAS  C:\Users\PCHAUT~1\AppData\Local\Temp\ccZvjaUR.s 			page 78


 4390 0014 2C4B     		ldr	r3, .L324
 4391 0016 1B68     		ldr	r3, [r3]
 4392 0018 0593     		str	r3, [sp, #20]
 4393              		.loc 1 1147 0
 4394 001a 0023     		movs	r3, #0
 4395 001c 8DF81330 		strb	r3, [sp, #19]
 4396              		.loc 1 1148 0
 4397 0020 019B     		ldr	r3, [sp, #4]
 4398 0022 0022     		movs	r2, #0
 4399 0024 1A70     		strb	r2, [r3]
 4400              		.loc 1 1151 0
 4401 0026 9DF80B30 		ldrb	r3, [sp, #11]	@ zero_extendqisi2
 4402 002a 042B     		cmp	r3, #4
 4403 002c 3BD8     		bhi	.L314
 4404 002e 01A2     		adr	r2, .L316
 4405 0030 52F823F0 		ldr	pc, [r2, r3, lsl #2]
 4406              		.p2align 2
 4407              	.L316:
 4408 0034 49000000 		.word	.L315+1
 4409 0038 5D000000 		.word	.L317+1
 4410 003c 71000000 		.word	.L318+1
 4411 0040 85000000 		.word	.L319+1
 4412 0044 99000000 		.word	.L320+1
 4413              		.p2align 1
 4414              	.L315:
 4415              		.loc 1 1153 0
 4416 0048 9DF80A30 		ldrb	r3, [sp, #10]	@ zero_extendqisi2
 4417 004c 1B11     		asrs	r3, r3, #4
 4418 004e DBB2     		uxtb	r3, r3
 4419 0050 03F00103 		and	r3, r3, #1
 4420 0054 DAB2     		uxtb	r2, r3
 4421 0056 019B     		ldr	r3, [sp, #4]
 4422 0058 1A70     		strb	r2, [r3]
 4423              		.loc 1 1154 0
 4424 005a 27E0     		b	.L321
 4425              	.L317:
 4426              		.loc 1 1156 0
 4427 005c 9DF80A30 		ldrb	r3, [sp, #10]	@ zero_extendqisi2
 4428 0060 DB10     		asrs	r3, r3, #3
 4429 0062 DBB2     		uxtb	r3, r3
 4430 0064 03F00103 		and	r3, r3, #1
 4431 0068 DAB2     		uxtb	r2, r3
 4432 006a 019B     		ldr	r3, [sp, #4]
 4433 006c 1A70     		strb	r2, [r3]
 4434              		.loc 1 1157 0
 4435 006e 1DE0     		b	.L321
 4436              	.L318:
 4437              		.loc 1 1159 0
 4438 0070 9DF80A30 		ldrb	r3, [sp, #10]	@ zero_extendqisi2
 4439 0074 9B10     		asrs	r3, r3, #2
 4440 0076 DBB2     		uxtb	r3, r3
 4441 0078 03F00103 		and	r3, r3, #1
 4442 007c DAB2     		uxtb	r2, r3
 4443 007e 019B     		ldr	r3, [sp, #4]
 4444 0080 1A70     		strb	r2, [r3]
 4445              		.loc 1 1160 0
 4446 0082 13E0     		b	.L321
ARM GAS  C:\Users\PCHAUT~1\AppData\Local\Temp\ccZvjaUR.s 			page 79


 4447              	.L319:
 4448              		.loc 1 1162 0
 4449 0084 9DF80A30 		ldrb	r3, [sp, #10]	@ zero_extendqisi2
 4450 0088 9B11     		asrs	r3, r3, #6
 4451 008a DBB2     		uxtb	r3, r3
 4452 008c 03F00103 		and	r3, r3, #1
 4453 0090 DAB2     		uxtb	r2, r3
 4454 0092 019B     		ldr	r3, [sp, #4]
 4455 0094 1A70     		strb	r2, [r3]
 4456              		.loc 1 1163 0
 4457 0096 09E0     		b	.L321
 4458              	.L320:
 4459              		.loc 1 1165 0
 4460 0098 9DF80A30 		ldrb	r3, [sp, #10]	@ zero_extendqisi2
 4461 009c DB09     		lsrs	r3, r3, #7
 4462 009e DAB2     		uxtb	r2, r3
 4463 00a0 019B     		ldr	r3, [sp, #4]
 4464 00a2 1A70     		strb	r2, [r3]
 4465              		.loc 1 1166 0
 4466 00a4 02E0     		b	.L321
 4467              	.L314:
 4468              		.loc 1 1168 0
 4469 00a6 FC23     		movs	r3, #252
 4470 00a8 8DF81330 		strb	r3, [sp, #19]
 4471              	.L321:
 4472              		.loc 1 1172 0
 4473 00ac 9DF91330 		ldrsb	r3, [sp, #19]
 4474              		.loc 1 1173 0
 4475 00b0 1846     		mov	r0, r3
 4476 00b2 054B     		ldr	r3, .L324
 4477 00b4 059A     		ldr	r2, [sp, #20]
 4478 00b6 1B68     		ldr	r3, [r3]
 4479 00b8 9A42     		cmp	r2, r3
 4480 00ba 01D0     		beq	.L323
 4481 00bc FFF7FEFF 		bl	__stack_chk_fail
 4482              	.L323:
 4483 00c0 07B0     		add	sp, sp, #28
 4484              		.cfi_def_cfa_offset 4
 4485              		@ sp needed
 4486 00c2 5DF804FB 		ldr	pc, [sp], #4
 4487              	.L325:
 4488 00c6 00BF     		.align	2
 4489              	.L324:
 4490 00c8 00000000 		.word	__stack_chk_guard
 4491              		.cfi_endproc
 4492              	.LFE42:
 4493              		.size	sequence_step_enabled, .-sequence_step_enabled
 4494              		.section	.text.VL53L0X_GetSequenceStepEnable,"ax",%progbits
 4495              		.align	1
 4496              		.p2align 4,,15
 4497              		.global	VL53L0X_GetSequenceStepEnable
 4498              		.syntax unified
 4499              		.thumb
 4500              		.thumb_func
 4501              		.fpu fpv4-sp-d16
 4502              		.type	VL53L0X_GetSequenceStepEnable, %function
 4503              	VL53L0X_GetSequenceStepEnable:
ARM GAS  C:\Users\PCHAUT~1\AppData\Local\Temp\ccZvjaUR.s 			page 80


 4504              	.LFB43:
 4505              		.loc 1 1177 0
 4506              		.cfi_startproc
 4507              		@ args = 0, pretend = 0, frame = 24
 4508              		@ frame_needed = 0, uses_anonymous_args = 0
 4509 0000 00B5     		push	{lr}
 4510              		.cfi_def_cfa_offset 4
 4511              		.cfi_offset 14, -4
 4512 0002 87B0     		sub	sp, sp, #28
 4513              		.cfi_def_cfa_offset 32
 4514 0004 0390     		str	r0, [sp, #12]
 4515 0006 0B46     		mov	r3, r1
 4516 0008 0192     		str	r2, [sp, #4]
 4517 000a 8DF80B30 		strb	r3, [sp, #11]
 4518              		.loc 1 1177 0
 4519 000e 174B     		ldr	r3, .L330
 4520 0010 1B68     		ldr	r3, [r3]
 4521 0012 0593     		str	r3, [sp, #20]
 4522              		.loc 1 1178 0
 4523 0014 0023     		movs	r3, #0
 4524 0016 8DF81330 		strb	r3, [sp, #19]
 4525              		.loc 1 1179 0
 4526 001a 0023     		movs	r3, #0
 4527 001c 8DF81230 		strb	r3, [sp, #18]
 4528              		.loc 1 1182 0
 4529 0020 0DF11203 		add	r3, sp, #18
 4530 0024 1A46     		mov	r2, r3
 4531 0026 0121     		movs	r1, #1
 4532 0028 0398     		ldr	r0, [sp, #12]
 4533 002a FFF7FEFF 		bl	VL53L0X_RdByte
 4534 002e 0346     		mov	r3, r0
 4535 0030 8DF81330 		strb	r3, [sp, #19]
 4536              		.loc 1 1185 0
 4537 0034 9DF91330 		ldrsb	r3, [sp, #19]
 4538 0038 002B     		cmp	r3, #0
 4539 003a 0AD1     		bne	.L327
 4540              		.loc 1 1186 0
 4541 003c 9DF81220 		ldrb	r2, [sp, #18]	@ zero_extendqisi2
 4542 0040 9DF80B10 		ldrb	r1, [sp, #11]	@ zero_extendqisi2
 4543 0044 019B     		ldr	r3, [sp, #4]
 4544 0046 0398     		ldr	r0, [sp, #12]
 4545 0048 FFF7FEFF 		bl	sequence_step_enabled
 4546 004c 0346     		mov	r3, r0
 4547 004e 8DF81330 		strb	r3, [sp, #19]
 4548              	.L327:
 4549              		.loc 1 1191 0
 4550 0052 9DF91330 		ldrsb	r3, [sp, #19]
 4551              		.loc 1 1192 0
 4552 0056 1846     		mov	r0, r3
 4553 0058 044B     		ldr	r3, .L330
 4554 005a 059A     		ldr	r2, [sp, #20]
 4555 005c 1B68     		ldr	r3, [r3]
 4556 005e 9A42     		cmp	r2, r3
 4557 0060 01D0     		beq	.L329
 4558 0062 FFF7FEFF 		bl	__stack_chk_fail
 4559              	.L329:
 4560 0066 07B0     		add	sp, sp, #28
ARM GAS  C:\Users\PCHAUT~1\AppData\Local\Temp\ccZvjaUR.s 			page 81


 4561              		.cfi_def_cfa_offset 4
 4562              		@ sp needed
 4563 0068 5DF804FB 		ldr	pc, [sp], #4
 4564              	.L331:
 4565              		.align	2
 4566              	.L330:
 4567 006c 00000000 		.word	__stack_chk_guard
 4568              		.cfi_endproc
 4569              	.LFE43:
 4570              		.size	VL53L0X_GetSequenceStepEnable, .-VL53L0X_GetSequenceStepEnable
 4571              		.section	.text.VL53L0X_GetSequenceStepEnables,"ax",%progbits
 4572              		.align	1
 4573              		.p2align 4,,15
 4574              		.global	VL53L0X_GetSequenceStepEnables
 4575              		.syntax unified
 4576              		.thumb
 4577              		.thumb_func
 4578              		.fpu fpv4-sp-d16
 4579              		.type	VL53L0X_GetSequenceStepEnables, %function
 4580              	VL53L0X_GetSequenceStepEnables:
 4581              	.LFB44:
 4582              		.loc 1 1196 0
 4583              		.cfi_startproc
 4584              		@ args = 0, pretend = 0, frame = 16
 4585              		@ frame_needed = 0, uses_anonymous_args = 0
 4586 0000 00B5     		push	{lr}
 4587              		.cfi_def_cfa_offset 4
 4588              		.cfi_offset 14, -4
 4589 0002 85B0     		sub	sp, sp, #20
 4590              		.cfi_def_cfa_offset 24
 4591 0004 0190     		str	r0, [sp, #4]
 4592 0006 0091     		str	r1, [sp]
 4593              		.loc 1 1196 0
 4594 0008 344B     		ldr	r3, .L340
 4595 000a 1B68     		ldr	r3, [r3]
 4596 000c 0393     		str	r3, [sp, #12]
 4597              		.loc 1 1197 0
 4598 000e 0023     		movs	r3, #0
 4599 0010 8DF80B30 		strb	r3, [sp, #11]
 4600              		.loc 1 1198 0
 4601 0014 0023     		movs	r3, #0
 4602 0016 8DF80A30 		strb	r3, [sp, #10]
 4603              		.loc 1 1201 0
 4604 001a 0DF10A03 		add	r3, sp, #10
 4605 001e 1A46     		mov	r2, r3
 4606 0020 0121     		movs	r1, #1
 4607 0022 0198     		ldr	r0, [sp, #4]
 4608 0024 FFF7FEFF 		bl	VL53L0X_RdByte
 4609 0028 0346     		mov	r3, r0
 4610 002a 8DF80B30 		strb	r3, [sp, #11]
 4611              		.loc 1 1204 0
 4612 002e 9DF90B30 		ldrsb	r3, [sp, #11]
 4613 0032 002B     		cmp	r3, #0
 4614 0034 09D1     		bne	.L333
 4615              		.loc 1 1205 0
 4616 0036 9DF80A20 		ldrb	r2, [sp, #10]	@ zero_extendqisi2
 4617 003a 009B     		ldr	r3, [sp]
ARM GAS  C:\Users\PCHAUT~1\AppData\Local\Temp\ccZvjaUR.s 			page 82


 4618 003c 0021     		movs	r1, #0
 4619 003e 0198     		ldr	r0, [sp, #4]
 4620 0040 FFF7FEFF 		bl	sequence_step_enabled
 4621 0044 0346     		mov	r3, r0
 4622 0046 8DF80B30 		strb	r3, [sp, #11]
 4623              	.L333:
 4624              		.loc 1 1209 0
 4625 004a 9DF90B30 		ldrsb	r3, [sp, #11]
 4626 004e 002B     		cmp	r3, #0
 4627 0050 0AD1     		bne	.L334
 4628              		.loc 1 1210 0
 4629 0052 9DF80A20 		ldrb	r2, [sp, #10]	@ zero_extendqisi2
 4630 0056 009B     		ldr	r3, [sp]
 4631 0058 0233     		adds	r3, r3, #2
 4632 005a 0121     		movs	r1, #1
 4633 005c 0198     		ldr	r0, [sp, #4]
 4634 005e FFF7FEFF 		bl	sequence_step_enabled
 4635 0062 0346     		mov	r3, r0
 4636 0064 8DF80B30 		strb	r3, [sp, #11]
 4637              	.L334:
 4638              		.loc 1 1214 0
 4639 0068 9DF90B30 		ldrsb	r3, [sp, #11]
 4640 006c 002B     		cmp	r3, #0
 4641 006e 0AD1     		bne	.L335
 4642              		.loc 1 1215 0
 4643 0070 9DF80A20 		ldrb	r2, [sp, #10]	@ zero_extendqisi2
 4644 0074 009B     		ldr	r3, [sp]
 4645 0076 0133     		adds	r3, r3, #1
 4646 0078 0221     		movs	r1, #2
 4647 007a 0198     		ldr	r0, [sp, #4]
 4648 007c FFF7FEFF 		bl	sequence_step_enabled
 4649 0080 0346     		mov	r3, r0
 4650 0082 8DF80B30 		strb	r3, [sp, #11]
 4651              	.L335:
 4652              		.loc 1 1219 0
 4653 0086 9DF90B30 		ldrsb	r3, [sp, #11]
 4654 008a 002B     		cmp	r3, #0
 4655 008c 0AD1     		bne	.L336
 4656              		.loc 1 1220 0
 4657 008e 9DF80A20 		ldrb	r2, [sp, #10]	@ zero_extendqisi2
 4658 0092 009B     		ldr	r3, [sp]
 4659 0094 0333     		adds	r3, r3, #3
 4660 0096 0321     		movs	r1, #3
 4661 0098 0198     		ldr	r0, [sp, #4]
 4662 009a FFF7FEFF 		bl	sequence_step_enabled
 4663 009e 0346     		mov	r3, r0
 4664 00a0 8DF80B30 		strb	r3, [sp, #11]
 4665              	.L336:
 4666              		.loc 1 1224 0
 4667 00a4 9DF90B30 		ldrsb	r3, [sp, #11]
 4668 00a8 002B     		cmp	r3, #0
 4669 00aa 0AD1     		bne	.L337
 4670              		.loc 1 1225 0
 4671 00ac 9DF80A20 		ldrb	r2, [sp, #10]	@ zero_extendqisi2
 4672 00b0 009B     		ldr	r3, [sp]
 4673 00b2 0433     		adds	r3, r3, #4
 4674 00b4 0421     		movs	r1, #4
ARM GAS  C:\Users\PCHAUT~1\AppData\Local\Temp\ccZvjaUR.s 			page 83


 4675 00b6 0198     		ldr	r0, [sp, #4]
 4676 00b8 FFF7FEFF 		bl	sequence_step_enabled
 4677 00bc 0346     		mov	r3, r0
 4678 00be 8DF80B30 		strb	r3, [sp, #11]
 4679              	.L337:
 4680              		.loc 1 1231 0
 4681 00c2 9DF90B30 		ldrsb	r3, [sp, #11]
 4682              		.loc 1 1232 0
 4683 00c6 1846     		mov	r0, r3
 4684 00c8 044B     		ldr	r3, .L340
 4685 00ca 039A     		ldr	r2, [sp, #12]
 4686 00cc 1B68     		ldr	r3, [r3]
 4687 00ce 9A42     		cmp	r2, r3
 4688 00d0 01D0     		beq	.L339
 4689 00d2 FFF7FEFF 		bl	__stack_chk_fail
 4690              	.L339:
 4691 00d6 05B0     		add	sp, sp, #20
 4692              		.cfi_def_cfa_offset 4
 4693              		@ sp needed
 4694 00d8 5DF804FB 		ldr	pc, [sp], #4
 4695              	.L341:
 4696              		.align	2
 4697              	.L340:
 4698 00dc 00000000 		.word	__stack_chk_guard
 4699              		.cfi_endproc
 4700              	.LFE44:
 4701              		.size	VL53L0X_GetSequenceStepEnables, .-VL53L0X_GetSequenceStepEnables
 4702              		.section	.text.VL53L0X_GetNumberOfSequenceSteps,"ax",%progbits
 4703              		.align	1
 4704              		.p2align 4,,15
 4705              		.global	VL53L0X_GetNumberOfSequenceSteps
 4706              		.syntax unified
 4707              		.thumb
 4708              		.thumb_func
 4709              		.fpu fpv4-sp-d16
 4710              		.type	VL53L0X_GetNumberOfSequenceSteps, %function
 4711              	VL53L0X_GetNumberOfSequenceSteps:
 4712              	.LFB45:
 4713              		.loc 1 1236 0
 4714              		.cfi_startproc
 4715              		@ args = 0, pretend = 0, frame = 16
 4716              		@ frame_needed = 0, uses_anonymous_args = 0
 4717 0000 00B5     		push	{lr}
 4718              		.cfi_def_cfa_offset 4
 4719              		.cfi_offset 14, -4
 4720 0002 85B0     		sub	sp, sp, #20
 4721              		.cfi_def_cfa_offset 24
 4722 0004 0190     		str	r0, [sp, #4]
 4723 0006 0091     		str	r1, [sp]
 4724              		.loc 1 1236 0
 4725 0008 0A4B     		ldr	r3, .L345
 4726 000a 1B68     		ldr	r3, [r3]
 4727 000c 0393     		str	r3, [sp, #12]
 4728              		.loc 1 1238 0
 4729 000e 0023     		movs	r3, #0
 4730 0010 8DF80B30 		strb	r3, [sp, #11]
 4731              		.loc 1 1241 0
ARM GAS  C:\Users\PCHAUT~1\AppData\Local\Temp\ccZvjaUR.s 			page 84


 4732 0014 009B     		ldr	r3, [sp]
 4733 0016 0522     		movs	r2, #5
 4734 0018 1A70     		strb	r2, [r3]
 4735              		.loc 1 1244 0
 4736 001a 9DF90B30 		ldrsb	r3, [sp, #11]
 4737              		.loc 1 1245 0
 4738 001e 1846     		mov	r0, r3
 4739 0020 044B     		ldr	r3, .L345
 4740 0022 039A     		ldr	r2, [sp, #12]
 4741 0024 1B68     		ldr	r3, [r3]
 4742 0026 9A42     		cmp	r2, r3
 4743 0028 01D0     		beq	.L344
 4744 002a FFF7FEFF 		bl	__stack_chk_fail
 4745              	.L344:
 4746 002e 05B0     		add	sp, sp, #20
 4747              		.cfi_def_cfa_offset 4
 4748              		@ sp needed
 4749 0030 5DF804FB 		ldr	pc, [sp], #4
 4750              	.L346:
 4751              		.align	2
 4752              	.L345:
 4753 0034 00000000 		.word	__stack_chk_guard
 4754              		.cfi_endproc
 4755              	.LFE45:
 4756              		.size	VL53L0X_GetNumberOfSequenceSteps, .-VL53L0X_GetNumberOfSequenceSteps
 4757              		.section	.text.VL53L0X_GetSequenceStepsInfo,"ax",%progbits
 4758              		.align	1
 4759              		.p2align 4,,15
 4760              		.global	VL53L0X_GetSequenceStepsInfo
 4761              		.syntax unified
 4762              		.thumb
 4763              		.thumb_func
 4764              		.fpu fpv4-sp-d16
 4765              		.type	VL53L0X_GetSequenceStepsInfo, %function
 4766              	VL53L0X_GetSequenceStepsInfo:
 4767              	.LFB46:
 4768              		.loc 1 1249 0
 4769              		.cfi_startproc
 4770              		@ args = 0, pretend = 0, frame = 16
 4771              		@ frame_needed = 0, uses_anonymous_args = 0
 4772 0000 00B5     		push	{lr}
 4773              		.cfi_def_cfa_offset 4
 4774              		.cfi_offset 14, -4
 4775 0002 85B0     		sub	sp, sp, #20
 4776              		.cfi_def_cfa_offset 24
 4777 0004 0346     		mov	r3, r0
 4778 0006 0091     		str	r1, [sp]
 4779 0008 8DF80730 		strb	r3, [sp, #7]
 4780              		.loc 1 1249 0
 4781 000c 0D4B     		ldr	r3, .L350
 4782 000e 1B68     		ldr	r3, [r3]
 4783 0010 0393     		str	r3, [sp, #12]
 4784              		.loc 1 1250 0
 4785 0012 0023     		movs	r3, #0
 4786 0014 8DF80B30 		strb	r3, [sp, #11]
 4787              		.loc 1 1253 0
 4788 0018 9DF80730 		ldrb	r3, [sp, #7]	@ zero_extendqisi2
ARM GAS  C:\Users\PCHAUT~1\AppData\Local\Temp\ccZvjaUR.s 			page 85


 4789 001c 0099     		ldr	r1, [sp]
 4790 001e 1846     		mov	r0, r3
 4791 0020 FFF7FEFF 		bl	VL53L0X_get_sequence_steps_info
 4792 0024 0346     		mov	r3, r0
 4793 0026 8DF80B30 		strb	r3, [sp, #11]
 4794              		.loc 1 1259 0
 4795 002a 9DF90B30 		ldrsb	r3, [sp, #11]
 4796              		.loc 1 1260 0
 4797 002e 1846     		mov	r0, r3
 4798 0030 044B     		ldr	r3, .L350
 4799 0032 039A     		ldr	r2, [sp, #12]
 4800 0034 1B68     		ldr	r3, [r3]
 4801 0036 9A42     		cmp	r2, r3
 4802 0038 01D0     		beq	.L349
 4803 003a FFF7FEFF 		bl	__stack_chk_fail
 4804              	.L349:
 4805 003e 05B0     		add	sp, sp, #20
 4806              		.cfi_def_cfa_offset 4
 4807              		@ sp needed
 4808 0040 5DF804FB 		ldr	pc, [sp], #4
 4809              	.L351:
 4810              		.align	2
 4811              	.L350:
 4812 0044 00000000 		.word	__stack_chk_guard
 4813              		.cfi_endproc
 4814              	.LFE46:
 4815              		.size	VL53L0X_GetSequenceStepsInfo, .-VL53L0X_GetSequenceStepsInfo
 4816              		.section	.text.VL53L0X_SetSequenceStepTimeout,"ax",%progbits
 4817              		.align	1
 4818              		.p2align 4,,15
 4819              		.global	VL53L0X_SetSequenceStepTimeout
 4820              		.syntax unified
 4821              		.thumb
 4822              		.thumb_func
 4823              		.fpu fpv4-sp-d16
 4824              		.type	VL53L0X_SetSequenceStepTimeout, %function
 4825              	VL53L0X_SetSequenceStepTimeout:
 4826              	.LFB47:
 4827              		.loc 1 1264 0
 4828              		.cfi_startproc
 4829              		@ args = 0, pretend = 0, frame = 40
 4830              		@ frame_needed = 0, uses_anonymous_args = 0
 4831 0000 00B5     		push	{lr}
 4832              		.cfi_def_cfa_offset 4
 4833              		.cfi_offset 14, -4
 4834 0002 8BB0     		sub	sp, sp, #44
 4835              		.cfi_def_cfa_offset 48
 4836 0004 0390     		str	r0, [sp, #12]
 4837 0006 0B46     		mov	r3, r1
 4838 0008 0192     		str	r2, [sp, #4]
 4839 000a 8DF80B30 		strb	r3, [sp, #11]
 4840              		.loc 1 1264 0
 4841 000e 314B     		ldr	r3, .L358
 4842 0010 1B68     		ldr	r3, [r3]
 4843 0012 0993     		str	r3, [sp, #36]
 4844              		.loc 1 1265 0
 4845 0014 0023     		movs	r3, #0
ARM GAS  C:\Users\PCHAUT~1\AppData\Local\Temp\ccZvjaUR.s 			page 86


 4846 0016 8DF81630 		strb	r3, [sp, #22]
 4847              		.loc 1 1266 0
 4848 001a 0023     		movs	r3, #0
 4849 001c 8DF81730 		strb	r3, [sp, #23]
 4850              		.loc 1 1267 0
 4851 0020 019B     		ldr	r3, [sp, #4]
 4852 0022 4FF47A72 		mov	r2, #1000
 4853 0026 02FB03F3 		mul	r3, r2, r3
 4854 002a 03F50043 		add	r3, r3, #32768
 4855 002e 1B0C     		lsrs	r3, r3, #16
 4856 0030 0793     		str	r3, [sp, #28]
 4857              		.loc 1 1276 0
 4858 0032 06AA     		add	r2, sp, #24
 4859 0034 9DF80B30 		ldrb	r3, [sp, #11]	@ zero_extendqisi2
 4860 0038 1946     		mov	r1, r3
 4861 003a 0398     		ldr	r0, [sp, #12]
 4862 003c FFF7FEFF 		bl	get_sequence_step_timeout
 4863 0040 0346     		mov	r3, r0
 4864 0042 8DF81630 		strb	r3, [sp, #22]
 4865              		.loc 1 1279 0
 4866 0046 9DF91630 		ldrsb	r3, [sp, #22]
 4867 004a 002B     		cmp	r3, #0
 4868 004c 09D1     		bne	.L353
 4869              		.loc 1 1280 0
 4870 004e 9DF80B30 		ldrb	r3, [sp, #11]	@ zero_extendqisi2
 4871 0052 079A     		ldr	r2, [sp, #28]
 4872 0054 1946     		mov	r1, r3
 4873 0056 0398     		ldr	r0, [sp, #12]
 4874 0058 FFF7FEFF 		bl	set_sequence_step_timeout
 4875 005c 0346     		mov	r3, r0
 4876 005e 8DF81630 		strb	r3, [sp, #22]
 4877              	.L353:
 4878              		.loc 1 1284 0
 4879 0062 9DF91630 		ldrsb	r3, [sp, #22]
 4880 0066 002B     		cmp	r3, #0
 4881 0068 26D1     		bne	.L354
 4882              		.loc 1 1285 0
 4883 006a 039B     		ldr	r3, [sp, #12]
 4884 006c 5B69     		ldr	r3, [r3, #20]
 4885 006e 0893     		str	r3, [sp, #32]
 4886              		.loc 1 1293 0
 4887 0070 0899     		ldr	r1, [sp, #32]
 4888 0072 0398     		ldr	r0, [sp, #12]
 4889 0074 FFF7FEFF 		bl	VL53L0X_SetMeasurementTimingBudgetMicroSeconds
 4890 0078 0346     		mov	r3, r0
 4891 007a 8DF81630 		strb	r3, [sp, #22]
 4892              		.loc 1 1296 0
 4893 007e 9DF91630 		ldrsb	r3, [sp, #22]
 4894 0082 002B     		cmp	r3, #0
 4895 0084 18D0     		beq	.L354
 4896              		.loc 1 1297 0
 4897 0086 069A     		ldr	r2, [sp, #24]
 4898 0088 9DF80B30 		ldrb	r3, [sp, #11]	@ zero_extendqisi2
 4899 008c 1946     		mov	r1, r3
 4900 008e 0398     		ldr	r0, [sp, #12]
 4901 0090 FFF7FEFF 		bl	set_sequence_step_timeout
 4902 0094 0346     		mov	r3, r0
ARM GAS  C:\Users\PCHAUT~1\AppData\Local\Temp\ccZvjaUR.s 			page 87


 4903 0096 8DF81730 		strb	r3, [sp, #23]
 4904              		.loc 1 1300 0
 4905 009a 9DF91730 		ldrsb	r3, [sp, #23]
 4906 009e 002B     		cmp	r3, #0
 4907 00a0 06D1     		bne	.L355
 4908              		.loc 1 1301 0
 4909 00a2 0899     		ldr	r1, [sp, #32]
 4910 00a4 0398     		ldr	r0, [sp, #12]
 4911 00a6 FFF7FEFF 		bl	VL53L0X_SetMeasurementTimingBudgetMicroSeconds
 4912 00aa 0346     		mov	r3, r0
 4913 00ac 8DF81730 		strb	r3, [sp, #23]
 4914              	.L355:
 4915              		.loc 1 1307 0
 4916 00b0 9DF81730 		ldrb	r3, [sp, #23]
 4917 00b4 8DF81630 		strb	r3, [sp, #22]
 4918              	.L354:
 4919              		.loc 1 1313 0
 4920 00b8 9DF91630 		ldrsb	r3, [sp, #22]
 4921              		.loc 1 1314 0
 4922 00bc 1846     		mov	r0, r3
 4923 00be 054B     		ldr	r3, .L358
 4924 00c0 099A     		ldr	r2, [sp, #36]
 4925 00c2 1B68     		ldr	r3, [r3]
 4926 00c4 9A42     		cmp	r2, r3
 4927 00c6 01D0     		beq	.L357
 4928 00c8 FFF7FEFF 		bl	__stack_chk_fail
 4929              	.L357:
 4930 00cc 0BB0     		add	sp, sp, #44
 4931              		.cfi_def_cfa_offset 4
 4932              		@ sp needed
 4933 00ce 5DF804FB 		ldr	pc, [sp], #4
 4934              	.L359:
 4935 00d2 00BF     		.align	2
 4936              	.L358:
 4937 00d4 00000000 		.word	__stack_chk_guard
 4938              		.cfi_endproc
 4939              	.LFE47:
 4940              		.size	VL53L0X_SetSequenceStepTimeout, .-VL53L0X_SetSequenceStepTimeout
 4941              		.section	.text.VL53L0X_GetSequenceStepTimeout,"ax",%progbits
 4942              		.align	1
 4943              		.p2align 4,,15
 4944              		.global	VL53L0X_GetSequenceStepTimeout
 4945              		.syntax unified
 4946              		.thumb
 4947              		.thumb_func
 4948              		.fpu fpv4-sp-d16
 4949              		.type	VL53L0X_GetSequenceStepTimeout, %function
 4950              	VL53L0X_GetSequenceStepTimeout:
 4951              	.LFB48:
 4952              		.loc 1 1318 0
 4953              		.cfi_startproc
 4954              		@ args = 0, pretend = 0, frame = 32
 4955              		@ frame_needed = 0, uses_anonymous_args = 0
 4956 0000 00B5     		push	{lr}
 4957              		.cfi_def_cfa_offset 4
 4958              		.cfi_offset 14, -4
 4959 0002 89B0     		sub	sp, sp, #36
ARM GAS  C:\Users\PCHAUT~1\AppData\Local\Temp\ccZvjaUR.s 			page 88


 4960              		.cfi_def_cfa_offset 40
 4961 0004 0390     		str	r0, [sp, #12]
 4962 0006 0B46     		mov	r3, r1
 4963 0008 0192     		str	r2, [sp, #4]
 4964 000a 8DF80B30 		strb	r3, [sp, #11]
 4965              		.loc 1 1318 0
 4966 000e 194B     		ldr	r3, .L364
 4967 0010 1B68     		ldr	r3, [r3]
 4968 0012 0793     		str	r3, [sp, #28]
 4969              		.loc 1 1319 0
 4970 0014 0023     		movs	r3, #0
 4971 0016 8DF81730 		strb	r3, [sp, #23]
 4972              		.loc 1 1323 0
 4973 001a 06AA     		add	r2, sp, #24
 4974 001c 9DF80B30 		ldrb	r3, [sp, #11]	@ zero_extendqisi2
 4975 0020 1946     		mov	r1, r3
 4976 0022 0398     		ldr	r0, [sp, #12]
 4977 0024 FFF7FEFF 		bl	get_sequence_step_timeout
 4978 0028 0346     		mov	r3, r0
 4979 002a 8DF81730 		strb	r3, [sp, #23]
 4980              		.loc 1 1325 0
 4981 002e 9DF91730 		ldrsb	r3, [sp, #23]
 4982 0032 002B     		cmp	r3, #0
 4983 0034 10D1     		bne	.L361
 4984              		.loc 1 1326 0
 4985 0036 069B     		ldr	r3, [sp, #24]
 4986 0038 1B02     		lsls	r3, r3, #8
 4987 003a 0693     		str	r3, [sp, #24]
 4988              		.loc 1 1327 0
 4989 003c 069B     		ldr	r3, [sp, #24]
 4990 003e 03F5FA73 		add	r3, r3, #500
 4991 0042 0D4A     		ldr	r2, .L364+4
 4992 0044 A2FB0323 		umull	r2, r3, r2, r3
 4993 0048 9A09     		lsrs	r2, r3, #6
 4994 004a 019B     		ldr	r3, [sp, #4]
 4995 004c 1A60     		str	r2, [r3]
 4996              		.loc 1 1328 0
 4997 004e 019B     		ldr	r3, [sp, #4]
 4998 0050 1B68     		ldr	r3, [r3]
 4999 0052 1A02     		lsls	r2, r3, #8
 5000 0054 019B     		ldr	r3, [sp, #4]
 5001 0056 1A60     		str	r2, [r3]
 5002              	.L361:
 5003              		.loc 1 1332 0
 5004 0058 9DF91730 		ldrsb	r3, [sp, #23]
 5005              		.loc 1 1333 0
 5006 005c 1846     		mov	r0, r3
 5007 005e 054B     		ldr	r3, .L364
 5008 0060 079A     		ldr	r2, [sp, #28]
 5009 0062 1B68     		ldr	r3, [r3]
 5010 0064 9A42     		cmp	r2, r3
 5011 0066 01D0     		beq	.L363
 5012 0068 FFF7FEFF 		bl	__stack_chk_fail
 5013              	.L363:
 5014 006c 09B0     		add	sp, sp, #36
 5015              		.cfi_def_cfa_offset 4
 5016              		@ sp needed
ARM GAS  C:\Users\PCHAUT~1\AppData\Local\Temp\ccZvjaUR.s 			page 89


 5017 006e 5DF804FB 		ldr	pc, [sp], #4
 5018              	.L365:
 5019 0072 00BF     		.align	2
 5020              	.L364:
 5021 0074 00000000 		.word	__stack_chk_guard
 5022 0078 D34D6210 		.word	274877907
 5023              		.cfi_endproc
 5024              	.LFE48:
 5025              		.size	VL53L0X_GetSequenceStepTimeout, .-VL53L0X_GetSequenceStepTimeout
 5026              		.section	.text.VL53L0X_SetInterMeasurementPeriodMilliSeconds,"ax",%progbits
 5027              		.align	1
 5028              		.p2align 4,,15
 5029              		.global	VL53L0X_SetInterMeasurementPeriodMilliSeconds
 5030              		.syntax unified
 5031              		.thumb
 5032              		.thumb_func
 5033              		.fpu fpv4-sp-d16
 5034              		.type	VL53L0X_SetInterMeasurementPeriodMilliSeconds, %function
 5035              	VL53L0X_SetInterMeasurementPeriodMilliSeconds:
 5036              	.LFB49:
 5037              		.loc 1 1337 0
 5038              		.cfi_startproc
 5039              		@ args = 0, pretend = 0, frame = 24
 5040              		@ frame_needed = 0, uses_anonymous_args = 0
 5041 0000 00B5     		push	{lr}
 5042              		.cfi_def_cfa_offset 4
 5043              		.cfi_offset 14, -4
 5044 0002 87B0     		sub	sp, sp, #28
 5045              		.cfi_def_cfa_offset 32
 5046 0004 0190     		str	r0, [sp, #4]
 5047 0006 0091     		str	r1, [sp]
 5048              		.loc 1 1337 0
 5049 0008 1E4B     		ldr	r3, .L373
 5050 000a 1B68     		ldr	r3, [r3]
 5051 000c 0593     		str	r3, [sp, #20]
 5052              		.loc 1 1338 0
 5053 000e 0023     		movs	r3, #0
 5054 0010 8DF80D30 		strb	r3, [sp, #13]
 5055              		.loc 1 1344 0
 5056 0014 0DF10E03 		add	r3, sp, #14
 5057 0018 1A46     		mov	r2, r3
 5058 001a F821     		movs	r1, #248
 5059 001c 0198     		ldr	r0, [sp, #4]
 5060 001e FFF7FEFF 		bl	VL53L0X_RdWord
 5061 0022 0346     		mov	r3, r0
 5062 0024 8DF80D30 		strb	r3, [sp, #13]
 5063              		.loc 1 1347 0
 5064 0028 9DF90D30 		ldrsb	r3, [sp, #13]
 5065 002c 002B     		cmp	r3, #0
 5066 002e 15D1     		bne	.L367
 5067              		.loc 1 1348 0
 5068 0030 BDF80E30 		ldrh	r3, [sp, #14]
 5069 0034 002B     		cmp	r3, #0
 5070 0036 07D0     		beq	.L368
 5071              		.loc 1 1351 0
 5072 0038 BDF80E30 		ldrh	r3, [sp, #14]
 5073 003c 1A46     		mov	r2, r3
ARM GAS  C:\Users\PCHAUT~1\AppData\Local\Temp\ccZvjaUR.s 			page 90


 5074              		.loc 1 1349 0
 5075 003e 009B     		ldr	r3, [sp]
 5076 0040 02FB03F3 		mul	r3, r2, r3
 5077 0044 0493     		str	r3, [sp, #16]
 5078 0046 01E0     		b	.L369
 5079              	.L368:
 5080              		.loc 1 1353 0
 5081 0048 009B     		ldr	r3, [sp]
 5082 004a 0493     		str	r3, [sp, #16]
 5083              	.L369:
 5084              		.loc 1 1356 0
 5085 004c 049A     		ldr	r2, [sp, #16]
 5086 004e 0421     		movs	r1, #4
 5087 0050 0198     		ldr	r0, [sp, #4]
 5088 0052 FFF7FEFF 		bl	VL53L0X_WrDWord
 5089 0056 0346     		mov	r3, r0
 5090 0058 8DF80D30 		strb	r3, [sp, #13]
 5091              	.L367:
 5092              		.loc 1 1361 0
 5093 005c 9DF90D30 		ldrsb	r3, [sp, #13]
 5094 0060 002B     		cmp	r3, #0
 5095 0062 02D1     		bne	.L370
 5096              		.loc 1 1362 0
 5097 0064 019B     		ldr	r3, [sp, #4]
 5098 0066 009A     		ldr	r2, [sp]
 5099 0068 9A61     		str	r2, [r3, #24]
 5100              	.L370:
 5101              		.loc 1 1368 0
 5102 006a 9DF90D30 		ldrsb	r3, [sp, #13]
 5103              		.loc 1 1369 0
 5104 006e 1846     		mov	r0, r3
 5105 0070 044B     		ldr	r3, .L373
 5106 0072 059A     		ldr	r2, [sp, #20]
 5107 0074 1B68     		ldr	r3, [r3]
 5108 0076 9A42     		cmp	r2, r3
 5109 0078 01D0     		beq	.L372
 5110 007a FFF7FEFF 		bl	__stack_chk_fail
 5111              	.L372:
 5112 007e 07B0     		add	sp, sp, #28
 5113              		.cfi_def_cfa_offset 4
 5114              		@ sp needed
 5115 0080 5DF804FB 		ldr	pc, [sp], #4
 5116              	.L374:
 5117              		.align	2
 5118              	.L373:
 5119 0084 00000000 		.word	__stack_chk_guard
 5120              		.cfi_endproc
 5121              	.LFE49:
 5122              		.size	VL53L0X_SetInterMeasurementPeriodMilliSeconds, .-VL53L0X_SetInterMeasurementPeriodMilliSecon
 5123              		.section	.text.VL53L0X_GetInterMeasurementPeriodMilliSeconds,"ax",%progbits
 5124              		.align	1
 5125              		.p2align 4,,15
 5126              		.global	VL53L0X_GetInterMeasurementPeriodMilliSeconds
 5127              		.syntax unified
 5128              		.thumb
 5129              		.thumb_func
 5130              		.fpu fpv4-sp-d16
ARM GAS  C:\Users\PCHAUT~1\AppData\Local\Temp\ccZvjaUR.s 			page 91


 5131              		.type	VL53L0X_GetInterMeasurementPeriodMilliSeconds, %function
 5132              	VL53L0X_GetInterMeasurementPeriodMilliSeconds:
 5133              	.LFB50:
 5134              		.loc 1 1373 0
 5135              		.cfi_startproc
 5136              		@ args = 0, pretend = 0, frame = 24
 5137              		@ frame_needed = 0, uses_anonymous_args = 0
 5138 0000 00B5     		push	{lr}
 5139              		.cfi_def_cfa_offset 4
 5140              		.cfi_offset 14, -4
 5141 0002 87B0     		sub	sp, sp, #28
 5142              		.cfi_def_cfa_offset 32
 5143 0004 0190     		str	r0, [sp, #4]
 5144 0006 0091     		str	r1, [sp]
 5145              		.loc 1 1373 0
 5146 0008 1E4B     		ldr	r3, .L381
 5147 000a 1B68     		ldr	r3, [r3]
 5148 000c 0593     		str	r3, [sp, #20]
 5149              		.loc 1 1374 0
 5150 000e 0023     		movs	r3, #0
 5151 0010 8DF80D30 		strb	r3, [sp, #13]
 5152              		.loc 1 1380 0
 5153 0014 0DF10E03 		add	r3, sp, #14
 5154 0018 1A46     		mov	r2, r3
 5155 001a F821     		movs	r1, #248
 5156 001c 0198     		ldr	r0, [sp, #4]
 5157 001e FFF7FEFF 		bl	VL53L0X_RdWord
 5158 0022 0346     		mov	r3, r0
 5159 0024 8DF80D30 		strb	r3, [sp, #13]
 5160              		.loc 1 1383 0
 5161 0028 9DF90D30 		ldrsb	r3, [sp, #13]
 5162 002c 002B     		cmp	r3, #0
 5163 002e 08D1     		bne	.L376
 5164              		.loc 1 1384 0
 5165 0030 04AB     		add	r3, sp, #16
 5166 0032 1A46     		mov	r2, r3
 5167 0034 0421     		movs	r1, #4
 5168 0036 0198     		ldr	r0, [sp, #4]
 5169 0038 FFF7FEFF 		bl	VL53L0X_RdDWord
 5170 003c 0346     		mov	r3, r0
 5171 003e 8DF80D30 		strb	r3, [sp, #13]
 5172              	.L376:
 5173              		.loc 1 1389 0
 5174 0042 9DF90D30 		ldrsb	r3, [sp, #13]
 5175 0046 002B     		cmp	r3, #0
 5176 0048 0ED1     		bne	.L377
 5177              		.loc 1 1390 0
 5178 004a BDF80E30 		ldrh	r3, [sp, #14]
 5179 004e 002B     		cmp	r3, #0
 5180 0050 06D0     		beq	.L378
 5181              		.loc 1 1392 0
 5182 0052 049B     		ldr	r3, [sp, #16]
 5183 0054 BDF80E20 		ldrh	r2, [sp, #14]
 5184 0058 B3FBF2F2 		udiv	r2, r3, r2
 5185              		.loc 1 1391 0
 5186 005c 009B     		ldr	r3, [sp]
 5187 005e 1A60     		str	r2, [r3]
ARM GAS  C:\Users\PCHAUT~1\AppData\Local\Temp\ccZvjaUR.s 			page 92


 5188              	.L378:
 5189              		.loc 1 1394 0
 5190 0060 009B     		ldr	r3, [sp]
 5191 0062 1A68     		ldr	r2, [r3]
 5192 0064 019B     		ldr	r3, [sp, #4]
 5193 0066 9A61     		str	r2, [r3, #24]
 5194              	.L377:
 5195              		.loc 1 1400 0
 5196 0068 9DF90D30 		ldrsb	r3, [sp, #13]
 5197              		.loc 1 1401 0
 5198 006c 1846     		mov	r0, r3
 5199 006e 054B     		ldr	r3, .L381
 5200 0070 059A     		ldr	r2, [sp, #20]
 5201 0072 1B68     		ldr	r3, [r3]
 5202 0074 9A42     		cmp	r2, r3
 5203 0076 01D0     		beq	.L380
 5204 0078 FFF7FEFF 		bl	__stack_chk_fail
 5205              	.L380:
 5206 007c 07B0     		add	sp, sp, #28
 5207              		.cfi_def_cfa_offset 4
 5208              		@ sp needed
 5209 007e 5DF804FB 		ldr	pc, [sp], #4
 5210              	.L382:
 5211 0082 00BF     		.align	2
 5212              	.L381:
 5213 0084 00000000 		.word	__stack_chk_guard
 5214              		.cfi_endproc
 5215              	.LFE50:
 5216              		.size	VL53L0X_GetInterMeasurementPeriodMilliSeconds, .-VL53L0X_GetInterMeasurementPeriodMilliSecon
 5217              		.section	.text.VL53L0X_SetXTalkCompensationEnable,"ax",%progbits
 5218              		.align	1
 5219              		.p2align 4,,15
 5220              		.global	VL53L0X_SetXTalkCompensationEnable
 5221              		.syntax unified
 5222              		.thumb
 5223              		.thumb_func
 5224              		.fpu fpv4-sp-d16
 5225              		.type	VL53L0X_SetXTalkCompensationEnable, %function
 5226              	VL53L0X_SetXTalkCompensationEnable:
 5227              	.LFB51:
 5228              		.loc 1 1405 0
 5229              		.cfi_startproc
 5230              		@ args = 0, pretend = 0, frame = 24
 5231              		@ frame_needed = 0, uses_anonymous_args = 0
 5232 0000 00B5     		push	{lr}
 5233              		.cfi_def_cfa_offset 4
 5234              		.cfi_offset 14, -4
 5235 0002 87B0     		sub	sp, sp, #28
 5236              		.cfi_def_cfa_offset 32
 5237 0004 0190     		str	r0, [sp, #4]
 5238 0006 0B46     		mov	r3, r1
 5239 0008 8DF80330 		strb	r3, [sp, #3]
 5240              		.loc 1 1405 0
 5241 000c 204B     		ldr	r3, .L391
 5242 000e 1B68     		ldr	r3, [r3]
 5243 0010 0593     		str	r3, [sp, #20]
 5244              		.loc 1 1406 0
ARM GAS  C:\Users\PCHAUT~1\AppData\Local\Temp\ccZvjaUR.s 			page 93


 5245 0012 0023     		movs	r3, #0
 5246 0014 8DF80D30 		strb	r3, [sp, #13]
 5247              		.loc 1 1412 0
 5248 0018 019B     		ldr	r3, [sp, #4]
 5249 001a B3F85231 		ldrh	r3, [r3, #338]	@ movhi
 5250 001e ADF80E30 		strh	r3, [sp, #14]	@ movhi
 5251              		.loc 1 1414 0
 5252 0022 9DF80330 		ldrb	r3, [sp, #3]	@ zero_extendqisi2
 5253 0026 002B     		cmp	r3, #0
 5254 0028 04D0     		beq	.L384
 5255              		.loc 1 1415 0
 5256 002a BDF80E30 		ldrh	r3, [sp, #14]
 5257 002e B3F57A7F 		cmp	r3, #1000
 5258 0032 02D0     		beq	.L385
 5259              	.L384:
 5260              		.loc 1 1416 0
 5261 0034 0023     		movs	r3, #0
 5262 0036 0493     		str	r3, [sp, #16]
 5263 0038 02E0     		b	.L386
 5264              	.L385:
 5265              		.loc 1 1418 0
 5266 003a 019B     		ldr	r3, [sp, #4]
 5267 003c 1B6A     		ldr	r3, [r3, #32]
 5268 003e 0493     		str	r3, [sp, #16]
 5269              	.L386:
 5270              		.loc 1 1425 0
 5271 0040 049B     		ldr	r3, [sp, #16]
 5272 0042 DB08     		lsrs	r3, r3, #3
 5273              		.loc 1 1423 0
 5274 0044 9BB2     		uxth	r3, r3
 5275 0046 1A46     		mov	r2, r3
 5276 0048 2021     		movs	r1, #32
 5277 004a 0198     		ldr	r0, [sp, #4]
 5278 004c FFF7FEFF 		bl	VL53L0X_WrWord
 5279 0050 0346     		mov	r3, r0
 5280 0052 8DF80D30 		strb	r3, [sp, #13]
 5281              		.loc 1 1427 0
 5282 0056 9DF90D30 		ldrsb	r3, [sp, #13]
 5283 005a 002B     		cmp	r3, #0
 5284 005c 0AD1     		bne	.L387
 5285              		.loc 1 1428 0
 5286 005e 9DF80330 		ldrb	r3, [sp, #3]	@ zero_extendqisi2
 5287 0062 002B     		cmp	r3, #0
 5288 0064 03D1     		bne	.L388
 5289              		.loc 1 1429 0
 5290 0066 019B     		ldr	r3, [sp, #4]
 5291 0068 0022     		movs	r2, #0
 5292 006a 1A77     		strb	r2, [r3, #28]
 5293 006c 02E0     		b	.L387
 5294              	.L388:
 5295              		.loc 1 1432 0
 5296 006e 019B     		ldr	r3, [sp, #4]
 5297 0070 0122     		movs	r2, #1
 5298 0072 1A77     		strb	r2, [r3, #28]
 5299              	.L387:
 5300              		.loc 1 1438 0
 5301 0074 9DF90D30 		ldrsb	r3, [sp, #13]
ARM GAS  C:\Users\PCHAUT~1\AppData\Local\Temp\ccZvjaUR.s 			page 94


 5302              		.loc 1 1439 0
 5303 0078 1846     		mov	r0, r3
 5304 007a 054B     		ldr	r3, .L391
 5305 007c 059A     		ldr	r2, [sp, #20]
 5306 007e 1B68     		ldr	r3, [r3]
 5307 0080 9A42     		cmp	r2, r3
 5308 0082 01D0     		beq	.L390
 5309 0084 FFF7FEFF 		bl	__stack_chk_fail
 5310              	.L390:
 5311 0088 07B0     		add	sp, sp, #28
 5312              		.cfi_def_cfa_offset 4
 5313              		@ sp needed
 5314 008a 5DF804FB 		ldr	pc, [sp], #4
 5315              	.L392:
 5316 008e 00BF     		.align	2
 5317              	.L391:
 5318 0090 00000000 		.word	__stack_chk_guard
 5319              		.cfi_endproc
 5320              	.LFE51:
 5321              		.size	VL53L0X_SetXTalkCompensationEnable, .-VL53L0X_SetXTalkCompensationEnable
 5322              		.section	.text.VL53L0X_GetXTalkCompensationEnable,"ax",%progbits
 5323              		.align	1
 5324              		.p2align 4,,15
 5325              		.global	VL53L0X_GetXTalkCompensationEnable
 5326              		.syntax unified
 5327              		.thumb
 5328              		.thumb_func
 5329              		.fpu fpv4-sp-d16
 5330              		.type	VL53L0X_GetXTalkCompensationEnable, %function
 5331              	VL53L0X_GetXTalkCompensationEnable:
 5332              	.LFB52:
 5333              		.loc 1 1443 0
 5334              		.cfi_startproc
 5335              		@ args = 0, pretend = 0, frame = 16
 5336              		@ frame_needed = 0, uses_anonymous_args = 0
 5337 0000 00B5     		push	{lr}
 5338              		.cfi_def_cfa_offset 4
 5339              		.cfi_offset 14, -4
 5340 0002 85B0     		sub	sp, sp, #20
 5341              		.cfi_def_cfa_offset 24
 5342 0004 0190     		str	r0, [sp, #4]
 5343 0006 0091     		str	r1, [sp]
 5344              		.loc 1 1443 0
 5345 0008 0D4B     		ldr	r3, .L396
 5346 000a 1B68     		ldr	r3, [r3]
 5347 000c 0393     		str	r3, [sp, #12]
 5348              		.loc 1 1444 0
 5349 000e 0023     		movs	r3, #0
 5350 0010 8DF80A30 		strb	r3, [sp, #10]
 5351              		.loc 1 1448 0
 5352 0014 019B     		ldr	r3, [sp, #4]
 5353 0016 1B7F     		ldrb	r3, [r3, #28]
 5354 0018 8DF80B30 		strb	r3, [sp, #11]
 5355              		.loc 1 1449 0
 5356 001c 009B     		ldr	r3, [sp]
 5357 001e 9DF80B20 		ldrb	r2, [sp, #11]
 5358 0022 1A70     		strb	r2, [r3]
ARM GAS  C:\Users\PCHAUT~1\AppData\Local\Temp\ccZvjaUR.s 			page 95


 5359              		.loc 1 1452 0
 5360 0024 9DF90A30 		ldrsb	r3, [sp, #10]
 5361              		.loc 1 1453 0
 5362 0028 1846     		mov	r0, r3
 5363 002a 054B     		ldr	r3, .L396
 5364 002c 039A     		ldr	r2, [sp, #12]
 5365 002e 1B68     		ldr	r3, [r3]
 5366 0030 9A42     		cmp	r2, r3
 5367 0032 01D0     		beq	.L395
 5368 0034 FFF7FEFF 		bl	__stack_chk_fail
 5369              	.L395:
 5370 0038 05B0     		add	sp, sp, #20
 5371              		.cfi_def_cfa_offset 4
 5372              		@ sp needed
 5373 003a 5DF804FB 		ldr	pc, [sp], #4
 5374              	.L397:
 5375 003e 00BF     		.align	2
 5376              	.L396:
 5377 0040 00000000 		.word	__stack_chk_guard
 5378              		.cfi_endproc
 5379              	.LFE52:
 5380              		.size	VL53L0X_GetXTalkCompensationEnable, .-VL53L0X_GetXTalkCompensationEnable
 5381              		.section	.text.VL53L0X_SetXTalkCompensationRateMegaCps,"ax",%progbits
 5382              		.align	1
 5383              		.p2align 4,,15
 5384              		.global	VL53L0X_SetXTalkCompensationRateMegaCps
 5385              		.syntax unified
 5386              		.thumb
 5387              		.thumb_func
 5388              		.fpu fpv4-sp-d16
 5389              		.type	VL53L0X_SetXTalkCompensationRateMegaCps, %function
 5390              	VL53L0X_SetXTalkCompensationRateMegaCps:
 5391              	.LFB53:
 5392              		.loc 1 1457 0
 5393              		.cfi_startproc
 5394              		@ args = 0, pretend = 0, frame = 24
 5395              		@ frame_needed = 0, uses_anonymous_args = 0
 5396 0000 00B5     		push	{lr}
 5397              		.cfi_def_cfa_offset 4
 5398              		.cfi_offset 14, -4
 5399 0002 87B0     		sub	sp, sp, #28
 5400              		.cfi_def_cfa_offset 32
 5401 0004 0190     		str	r0, [sp, #4]
 5402 0006 0091     		str	r1, [sp]
 5403              		.loc 1 1457 0
 5404 0008 204B     		ldr	r3, .L405
 5405 000a 1B68     		ldr	r3, [r3]
 5406 000c 0593     		str	r3, [sp, #20]
 5407              		.loc 1 1458 0
 5408 000e 0023     		movs	r3, #0
 5409 0010 8DF80E30 		strb	r3, [sp, #14]
 5410              		.loc 1 1464 0
 5411 0014 019B     		ldr	r3, [sp, #4]
 5412 0016 1B7F     		ldrb	r3, [r3, #28]
 5413 0018 8DF80F30 		strb	r3, [sp, #15]
 5414              		.loc 1 1465 0
 5415 001c 019B     		ldr	r3, [sp, #4]
ARM GAS  C:\Users\PCHAUT~1\AppData\Local\Temp\ccZvjaUR.s 			page 96


 5416 001e B3F85231 		ldrh	r3, [r3, #338]	@ movhi
 5417 0022 ADF81230 		strh	r3, [sp, #18]	@ movhi
 5418              		.loc 1 1467 0
 5419 0026 9DF80F30 		ldrb	r3, [sp, #15]	@ zero_extendqisi2
 5420 002a 002B     		cmp	r3, #0
 5421 002c 03D1     		bne	.L399
 5422              		.loc 1 1468 0
 5423 002e 019B     		ldr	r3, [sp, #4]
 5424 0030 009A     		ldr	r2, [sp]
 5425 0032 1A62     		str	r2, [r3, #32]
 5426 0034 1DE0     		b	.L400
 5427              	.L399:
 5428              		.loc 1 1472 0
 5429 0036 BDF81230 		ldrh	r3, [sp, #18]
 5430 003a B3F57A7F 		cmp	r3, #1000
 5431 003e 04D1     		bne	.L401
 5432              		.loc 1 1473 0
 5433 0040 009B     		ldr	r3, [sp]
 5434 0042 DB08     		lsrs	r3, r3, #3
 5435 0044 ADF81030 		strh	r3, [sp, #16]	@ movhi
 5436 0048 02E0     		b	.L402
 5437              	.L401:
 5438              		.loc 1 1476 0
 5439 004a 0023     		movs	r3, #0
 5440 004c ADF81030 		strh	r3, [sp, #16]	@ movhi
 5441              	.L402:
 5442              		.loc 1 1479 0
 5443 0050 BDF81030 		ldrh	r3, [sp, #16]
 5444 0054 1A46     		mov	r2, r3
 5445 0056 2021     		movs	r1, #32
 5446 0058 0198     		ldr	r0, [sp, #4]
 5447 005a FFF7FEFF 		bl	VL53L0X_WrWord
 5448 005e 0346     		mov	r3, r0
 5449 0060 8DF80E30 		strb	r3, [sp, #14]
 5450              		.loc 1 1482 0
 5451 0064 9DF90E30 		ldrsb	r3, [sp, #14]
 5452 0068 002B     		cmp	r3, #0
 5453 006a 02D1     		bne	.L400
 5454              		.loc 1 1483 0
 5455 006c 019B     		ldr	r3, [sp, #4]
 5456 006e 009A     		ldr	r2, [sp]
 5457 0070 1A62     		str	r2, [r3, #32]
 5458              	.L400:
 5459              		.loc 1 1490 0
 5460 0072 9DF90E30 		ldrsb	r3, [sp, #14]
 5461              		.loc 1 1491 0
 5462 0076 1846     		mov	r0, r3
 5463 0078 044B     		ldr	r3, .L405
 5464 007a 059A     		ldr	r2, [sp, #20]
 5465 007c 1B68     		ldr	r3, [r3]
 5466 007e 9A42     		cmp	r2, r3
 5467 0080 01D0     		beq	.L404
 5468 0082 FFF7FEFF 		bl	__stack_chk_fail
 5469              	.L404:
 5470 0086 07B0     		add	sp, sp, #28
 5471              		.cfi_def_cfa_offset 4
 5472              		@ sp needed
ARM GAS  C:\Users\PCHAUT~1\AppData\Local\Temp\ccZvjaUR.s 			page 97


 5473 0088 5DF804FB 		ldr	pc, [sp], #4
 5474              	.L406:
 5475              		.align	2
 5476              	.L405:
 5477 008c 00000000 		.word	__stack_chk_guard
 5478              		.cfi_endproc
 5479              	.LFE53:
 5480              		.size	VL53L0X_SetXTalkCompensationRateMegaCps, .-VL53L0X_SetXTalkCompensationRateMegaCps
 5481              		.section	.text.VL53L0X_GetXTalkCompensationRateMegaCps,"ax",%progbits
 5482              		.align	1
 5483              		.p2align 4,,15
 5484              		.global	VL53L0X_GetXTalkCompensationRateMegaCps
 5485              		.syntax unified
 5486              		.thumb
 5487              		.thumb_func
 5488              		.fpu fpv4-sp-d16
 5489              		.type	VL53L0X_GetXTalkCompensationRateMegaCps, %function
 5490              	VL53L0X_GetXTalkCompensationRateMegaCps:
 5491              	.LFB54:
 5492              		.loc 1 1495 0
 5493              		.cfi_startproc
 5494              		@ args = 0, pretend = 0, frame = 24
 5495              		@ frame_needed = 0, uses_anonymous_args = 0
 5496 0000 00B5     		push	{lr}
 5497              		.cfi_def_cfa_offset 4
 5498              		.cfi_offset 14, -4
 5499 0002 87B0     		sub	sp, sp, #28
 5500              		.cfi_def_cfa_offset 32
 5501 0004 0190     		str	r0, [sp, #4]
 5502 0006 0091     		str	r1, [sp]
 5503              		.loc 1 1495 0
 5504 0008 1D4B     		ldr	r3, .L412
 5505 000a 1B68     		ldr	r3, [r3]
 5506 000c 0593     		str	r3, [sp, #20]
 5507              		.loc 1 1496 0
 5508 000e 0023     		movs	r3, #0
 5509 0010 8DF80D30 		strb	r3, [sp, #13]
 5510              		.loc 1 1502 0
 5511 0014 0DF10E03 		add	r3, sp, #14
 5512 0018 1A46     		mov	r2, r3
 5513 001a 2021     		movs	r1, #32
 5514 001c 0198     		ldr	r0, [sp, #4]
 5515 001e FFF7FEFF 		bl	VL53L0X_RdWord
 5516 0022 0346     		mov	r3, r0
 5517 0024 8DF80D30 		strb	r3, [sp, #13]
 5518              		.loc 1 1504 0
 5519 0028 9DF90D30 		ldrsb	r3, [sp, #13]
 5520 002c 002B     		cmp	r3, #0
 5521 002e 1AD1     		bne	.L408
 5522              		.loc 1 1505 0
 5523 0030 BDF80E30 		ldrh	r3, [sp, #14]
 5524 0034 002B     		cmp	r3, #0
 5525 0036 09D1     		bne	.L409
 5526              		.loc 1 1507 0
 5527 0038 019B     		ldr	r3, [sp, #4]
 5528 003a 1B6A     		ldr	r3, [r3, #32]
 5529 003c 0493     		str	r3, [sp, #16]
ARM GAS  C:\Users\PCHAUT~1\AppData\Local\Temp\ccZvjaUR.s 			page 98


 5530              		.loc 1 1509 0
 5531 003e 009B     		ldr	r3, [sp]
 5532 0040 049A     		ldr	r2, [sp, #16]
 5533 0042 1A60     		str	r2, [r3]
 5534              		.loc 1 1510 0
 5535 0044 019B     		ldr	r3, [sp, #4]
 5536 0046 0022     		movs	r2, #0
 5537 0048 1A77     		strb	r2, [r3, #28]
 5538 004a 0CE0     		b	.L408
 5539              	.L409:
 5540              		.loc 1 1513 0
 5541 004c BDF80E30 		ldrh	r3, [sp, #14]
 5542 0050 DB00     		lsls	r3, r3, #3
 5543 0052 0493     		str	r3, [sp, #16]
 5544              		.loc 1 1514 0
 5545 0054 009B     		ldr	r3, [sp]
 5546 0056 049A     		ldr	r2, [sp, #16]
 5547 0058 1A60     		str	r2, [r3]
 5548              		.loc 1 1515 0
 5549 005a 019B     		ldr	r3, [sp, #4]
 5550 005c 049A     		ldr	r2, [sp, #16]
 5551 005e 1A62     		str	r2, [r3, #32]
 5552              		.loc 1 1517 0
 5553 0060 019B     		ldr	r3, [sp, #4]
 5554 0062 0122     		movs	r2, #1
 5555 0064 1A77     		strb	r2, [r3, #28]
 5556              	.L408:
 5557              		.loc 1 1523 0
 5558 0066 9DF90D30 		ldrsb	r3, [sp, #13]
 5559              		.loc 1 1524 0
 5560 006a 1846     		mov	r0, r3
 5561 006c 044B     		ldr	r3, .L412
 5562 006e 059A     		ldr	r2, [sp, #20]
 5563 0070 1B68     		ldr	r3, [r3]
 5564 0072 9A42     		cmp	r2, r3
 5565 0074 01D0     		beq	.L411
 5566 0076 FFF7FEFF 		bl	__stack_chk_fail
 5567              	.L411:
 5568 007a 07B0     		add	sp, sp, #28
 5569              		.cfi_def_cfa_offset 4
 5570              		@ sp needed
 5571 007c 5DF804FB 		ldr	pc, [sp], #4
 5572              	.L413:
 5573              		.align	2
 5574              	.L412:
 5575 0080 00000000 		.word	__stack_chk_guard
 5576              		.cfi_endproc
 5577              	.LFE54:
 5578              		.size	VL53L0X_GetXTalkCompensationRateMegaCps, .-VL53L0X_GetXTalkCompensationRateMegaCps
 5579              		.section	.text.VL53L0X_SetRefCalibration,"ax",%progbits
 5580              		.align	1
 5581              		.p2align 4,,15
 5582              		.global	VL53L0X_SetRefCalibration
 5583              		.syntax unified
 5584              		.thumb
 5585              		.thumb_func
 5586              		.fpu fpv4-sp-d16
ARM GAS  C:\Users\PCHAUT~1\AppData\Local\Temp\ccZvjaUR.s 			page 99


 5587              		.type	VL53L0X_SetRefCalibration, %function
 5588              	VL53L0X_SetRefCalibration:
 5589              	.LFB55:
 5590              		.loc 1 1528 0
 5591              		.cfi_startproc
 5592              		@ args = 0, pretend = 0, frame = 16
 5593              		@ frame_needed = 0, uses_anonymous_args = 0
 5594 0000 00B5     		push	{lr}
 5595              		.cfi_def_cfa_offset 4
 5596              		.cfi_offset 14, -4
 5597 0002 85B0     		sub	sp, sp, #20
 5598              		.cfi_def_cfa_offset 24
 5599 0004 0190     		str	r0, [sp, #4]
 5600 0006 0B46     		mov	r3, r1
 5601 0008 8DF80330 		strb	r3, [sp, #3]
 5602 000c 1346     		mov	r3, r2
 5603 000e 8DF80230 		strb	r3, [sp, #2]
 5604              		.loc 1 1528 0
 5605 0012 0F4B     		ldr	r3, .L417
 5606 0014 1B68     		ldr	r3, [r3]
 5607 0016 0393     		str	r3, [sp, #12]
 5608              		.loc 1 1529 0
 5609 0018 0023     		movs	r3, #0
 5610 001a 8DF80B30 		strb	r3, [sp, #11]
 5611              		.loc 1 1532 0
 5612 001e 9DF80220 		ldrb	r2, [sp, #2]	@ zero_extendqisi2
 5613 0022 9DF80330 		ldrb	r3, [sp, #3]	@ zero_extendqisi2
 5614 0026 1946     		mov	r1, r3
 5615 0028 0198     		ldr	r0, [sp, #4]
 5616 002a FFF7FEFF 		bl	VL53L0X_set_ref_calibration
 5617 002e 0346     		mov	r3, r0
 5618 0030 8DF80B30 		strb	r3, [sp, #11]
 5619              		.loc 1 1535 0
 5620 0034 9DF90B30 		ldrsb	r3, [sp, #11]
 5621              		.loc 1 1536 0
 5622 0038 1846     		mov	r0, r3
 5623 003a 054B     		ldr	r3, .L417
 5624 003c 039A     		ldr	r2, [sp, #12]
 5625 003e 1B68     		ldr	r3, [r3]
 5626 0040 9A42     		cmp	r2, r3
 5627 0042 01D0     		beq	.L416
 5628 0044 FFF7FEFF 		bl	__stack_chk_fail
 5629              	.L416:
 5630 0048 05B0     		add	sp, sp, #20
 5631              		.cfi_def_cfa_offset 4
 5632              		@ sp needed
 5633 004a 5DF804FB 		ldr	pc, [sp], #4
 5634              	.L418:
 5635 004e 00BF     		.align	2
 5636              	.L417:
 5637 0050 00000000 		.word	__stack_chk_guard
 5638              		.cfi_endproc
 5639              	.LFE55:
 5640              		.size	VL53L0X_SetRefCalibration, .-VL53L0X_SetRefCalibration
 5641              		.section	.text.VL53L0X_GetRefCalibration,"ax",%progbits
 5642              		.align	1
 5643              		.p2align 4,,15
ARM GAS  C:\Users\PCHAUT~1\AppData\Local\Temp\ccZvjaUR.s 			page 100


 5644              		.global	VL53L0X_GetRefCalibration
 5645              		.syntax unified
 5646              		.thumb
 5647              		.thumb_func
 5648              		.fpu fpv4-sp-d16
 5649              		.type	VL53L0X_GetRefCalibration, %function
 5650              	VL53L0X_GetRefCalibration:
 5651              	.LFB56:
 5652              		.loc 1 1540 0
 5653              		.cfi_startproc
 5654              		@ args = 0, pretend = 0, frame = 24
 5655              		@ frame_needed = 0, uses_anonymous_args = 0
 5656 0000 00B5     		push	{lr}
 5657              		.cfi_def_cfa_offset 4
 5658              		.cfi_offset 14, -4
 5659 0002 87B0     		sub	sp, sp, #28
 5660              		.cfi_def_cfa_offset 32
 5661 0004 0390     		str	r0, [sp, #12]
 5662 0006 0291     		str	r1, [sp, #8]
 5663 0008 0192     		str	r2, [sp, #4]
 5664              		.loc 1 1540 0
 5665 000a 0D4B     		ldr	r3, .L422
 5666 000c 1B68     		ldr	r3, [r3]
 5667 000e 0593     		str	r3, [sp, #20]
 5668              		.loc 1 1541 0
 5669 0010 0023     		movs	r3, #0
 5670 0012 8DF81330 		strb	r3, [sp, #19]
 5671              		.loc 1 1544 0
 5672 0016 019A     		ldr	r2, [sp, #4]
 5673 0018 0299     		ldr	r1, [sp, #8]
 5674 001a 0398     		ldr	r0, [sp, #12]
 5675 001c FFF7FEFF 		bl	VL53L0X_get_ref_calibration
 5676 0020 0346     		mov	r3, r0
 5677 0022 8DF81330 		strb	r3, [sp, #19]
 5678              		.loc 1 1547 0
 5679 0026 9DF91330 		ldrsb	r3, [sp, #19]
 5680              		.loc 1 1548 0
 5681 002a 1846     		mov	r0, r3
 5682 002c 044B     		ldr	r3, .L422
 5683 002e 059A     		ldr	r2, [sp, #20]
 5684 0030 1B68     		ldr	r3, [r3]
 5685 0032 9A42     		cmp	r2, r3
 5686 0034 01D0     		beq	.L421
 5687 0036 FFF7FEFF 		bl	__stack_chk_fail
 5688              	.L421:
 5689 003a 07B0     		add	sp, sp, #28
 5690              		.cfi_def_cfa_offset 4
 5691              		@ sp needed
 5692 003c 5DF804FB 		ldr	pc, [sp], #4
 5693              	.L423:
 5694              		.align	2
 5695              	.L422:
 5696 0040 00000000 		.word	__stack_chk_guard
 5697              		.cfi_endproc
 5698              	.LFE56:
 5699              		.size	VL53L0X_GetRefCalibration, .-VL53L0X_GetRefCalibration
 5700              		.section	.text.VL53L0X_GetNumberOfLimitCheck,"ax",%progbits
ARM GAS  C:\Users\PCHAUT~1\AppData\Local\Temp\ccZvjaUR.s 			page 101


 5701              		.align	1
 5702              		.p2align 4,,15
 5703              		.global	VL53L0X_GetNumberOfLimitCheck
 5704              		.syntax unified
 5705              		.thumb
 5706              		.thumb_func
 5707              		.fpu fpv4-sp-d16
 5708              		.type	VL53L0X_GetNumberOfLimitCheck, %function
 5709              	VL53L0X_GetNumberOfLimitCheck:
 5710              	.LFB57:
 5711              		.loc 1 1555 0
 5712              		.cfi_startproc
 5713              		@ args = 0, pretend = 0, frame = 16
 5714              		@ frame_needed = 0, uses_anonymous_args = 0
 5715 0000 00B5     		push	{lr}
 5716              		.cfi_def_cfa_offset 4
 5717              		.cfi_offset 14, -4
 5718 0002 85B0     		sub	sp, sp, #20
 5719              		.cfi_def_cfa_offset 24
 5720 0004 0190     		str	r0, [sp, #4]
 5721              		.loc 1 1555 0
 5722 0006 0B4B     		ldr	r3, .L427
 5723 0008 1B68     		ldr	r3, [r3]
 5724 000a 0393     		str	r3, [sp, #12]
 5725              		.loc 1 1556 0
 5726 000c 0023     		movs	r3, #0
 5727 000e 8DF80B30 		strb	r3, [sp, #11]
 5728              		.loc 1 1559 0
 5729 0012 019B     		ldr	r3, [sp, #4]
 5730 0014 0622     		movs	r2, #6
 5731 0016 1A80     		strh	r2, [r3]	@ movhi
 5732              		.loc 1 1562 0
 5733 0018 9DF90B30 		ldrsb	r3, [sp, #11]
 5734              		.loc 1 1563 0
 5735 001c 1846     		mov	r0, r3
 5736 001e 054B     		ldr	r3, .L427
 5737 0020 039A     		ldr	r2, [sp, #12]
 5738 0022 1B68     		ldr	r3, [r3]
 5739 0024 9A42     		cmp	r2, r3
 5740 0026 01D0     		beq	.L426
 5741 0028 FFF7FEFF 		bl	__stack_chk_fail
 5742              	.L426:
 5743 002c 05B0     		add	sp, sp, #20
 5744              		.cfi_def_cfa_offset 4
 5745              		@ sp needed
 5746 002e 5DF804FB 		ldr	pc, [sp], #4
 5747              	.L428:
 5748 0032 00BF     		.align	2
 5749              	.L427:
 5750 0034 00000000 		.word	__stack_chk_guard
 5751              		.cfi_endproc
 5752              	.LFE57:
 5753              		.size	VL53L0X_GetNumberOfLimitCheck, .-VL53L0X_GetNumberOfLimitCheck
 5754              		.section	.text.VL53L0X_GetLimitCheckInfo,"ax",%progbits
 5755              		.align	1
 5756              		.p2align 4,,15
 5757              		.global	VL53L0X_GetLimitCheckInfo
ARM GAS  C:\Users\PCHAUT~1\AppData\Local\Temp\ccZvjaUR.s 			page 102


 5758              		.syntax unified
 5759              		.thumb
 5760              		.thumb_func
 5761              		.fpu fpv4-sp-d16
 5762              		.type	VL53L0X_GetLimitCheckInfo, %function
 5763              	VL53L0X_GetLimitCheckInfo:
 5764              	.LFB58:
 5765              		.loc 1 1567 0
 5766              		.cfi_startproc
 5767              		@ args = 0, pretend = 0, frame = 24
 5768              		@ frame_needed = 0, uses_anonymous_args = 0
 5769 0000 00B5     		push	{lr}
 5770              		.cfi_def_cfa_offset 4
 5771              		.cfi_offset 14, -4
 5772 0002 87B0     		sub	sp, sp, #28
 5773              		.cfi_def_cfa_offset 32
 5774 0004 0390     		str	r0, [sp, #12]
 5775 0006 0B46     		mov	r3, r1
 5776 0008 0192     		str	r2, [sp, #4]
 5777 000a ADF80A30 		strh	r3, [sp, #10]	@ movhi
 5778              		.loc 1 1567 0
 5779 000e 0E4B     		ldr	r3, .L432
 5780 0010 1B68     		ldr	r3, [r3]
 5781 0012 0593     		str	r3, [sp, #20]
 5782              		.loc 1 1568 0
 5783 0014 0023     		movs	r3, #0
 5784 0016 8DF81330 		strb	r3, [sp, #19]
 5785              		.loc 1 1572 0
 5786 001a BDF80A30 		ldrh	r3, [sp, #10]
 5787 001e 019A     		ldr	r2, [sp, #4]
 5788 0020 1946     		mov	r1, r3
 5789 0022 0398     		ldr	r0, [sp, #12]
 5790 0024 FFF7FEFF 		bl	VL53L0X_get_limit_check_info
 5791 0028 0346     		mov	r3, r0
 5792 002a 8DF81330 		strb	r3, [sp, #19]
 5793              		.loc 1 1576 0
 5794 002e 9DF91330 		ldrsb	r3, [sp, #19]
 5795              		.loc 1 1577 0
 5796 0032 1846     		mov	r0, r3
 5797 0034 044B     		ldr	r3, .L432
 5798 0036 059A     		ldr	r2, [sp, #20]
 5799 0038 1B68     		ldr	r3, [r3]
 5800 003a 9A42     		cmp	r2, r3
 5801 003c 01D0     		beq	.L431
 5802 003e FFF7FEFF 		bl	__stack_chk_fail
 5803              	.L431:
 5804 0042 07B0     		add	sp, sp, #28
 5805              		.cfi_def_cfa_offset 4
 5806              		@ sp needed
 5807 0044 5DF804FB 		ldr	pc, [sp], #4
 5808              	.L433:
 5809              		.align	2
 5810              	.L432:
 5811 0048 00000000 		.word	__stack_chk_guard
 5812              		.cfi_endproc
 5813              	.LFE58:
 5814              		.size	VL53L0X_GetLimitCheckInfo, .-VL53L0X_GetLimitCheckInfo
ARM GAS  C:\Users\PCHAUT~1\AppData\Local\Temp\ccZvjaUR.s 			page 103


 5815              		.section	.text.VL53L0X_GetLimitCheckStatus,"ax",%progbits
 5816              		.align	1
 5817              		.p2align 4,,15
 5818              		.global	VL53L0X_GetLimitCheckStatus
 5819              		.syntax unified
 5820              		.thumb
 5821              		.thumb_func
 5822              		.fpu fpv4-sp-d16
 5823              		.type	VL53L0X_GetLimitCheckStatus, %function
 5824              	VL53L0X_GetLimitCheckStatus:
 5825              	.LFB59:
 5826              		.loc 1 1581 0
 5827              		.cfi_startproc
 5828              		@ args = 0, pretend = 0, frame = 24
 5829              		@ frame_needed = 0, uses_anonymous_args = 0
 5830 0000 00B5     		push	{lr}
 5831              		.cfi_def_cfa_offset 4
 5832              		.cfi_offset 14, -4
 5833 0002 87B0     		sub	sp, sp, #28
 5834              		.cfi_def_cfa_offset 32
 5835 0004 0390     		str	r0, [sp, #12]
 5836 0006 0B46     		mov	r3, r1
 5837 0008 0192     		str	r2, [sp, #4]
 5838 000a ADF80A30 		strh	r3, [sp, #10]	@ movhi
 5839              		.loc 1 1581 0
 5840 000e 134B     		ldr	r3, .L439
 5841 0010 1B68     		ldr	r3, [r3]
 5842 0012 0593     		str	r3, [sp, #20]
 5843              		.loc 1 1582 0
 5844 0014 0023     		movs	r3, #0
 5845 0016 8DF81230 		strb	r3, [sp, #18]
 5846              		.loc 1 1587 0
 5847 001a BDF80A30 		ldrh	r3, [sp, #10]
 5848 001e 052B     		cmp	r3, #5
 5849 0020 03D9     		bls	.L435
 5850              		.loc 1 1588 0
 5851 0022 FC23     		movs	r3, #252
 5852 0024 8DF81230 		strb	r3, [sp, #18]
 5853 0028 0BE0     		b	.L436
 5854              	.L435:
 5855              		.loc 1 1591 0
 5856 002a BDF80A30 		ldrh	r3, [sp, #10]
 5857 002e 039A     		ldr	r2, [sp, #12]
 5858 0030 1344     		add	r3, r3, r2
 5859 0032 93F82E30 		ldrb	r3, [r3, #46]
 5860 0036 8DF81330 		strb	r3, [sp, #19]
 5861              		.loc 1 1594 0
 5862 003a 019B     		ldr	r3, [sp, #4]
 5863 003c 9DF81320 		ldrb	r2, [sp, #19]
 5864 0040 1A70     		strb	r2, [r3]
 5865              	.L436:
 5866              		.loc 1 1599 0
 5867 0042 9DF91230 		ldrsb	r3, [sp, #18]
 5868              		.loc 1 1600 0
 5869 0046 1846     		mov	r0, r3
 5870 0048 044B     		ldr	r3, .L439
 5871 004a 059A     		ldr	r2, [sp, #20]
ARM GAS  C:\Users\PCHAUT~1\AppData\Local\Temp\ccZvjaUR.s 			page 104


 5872 004c 1B68     		ldr	r3, [r3]
 5873 004e 9A42     		cmp	r2, r3
 5874 0050 01D0     		beq	.L438
 5875 0052 FFF7FEFF 		bl	__stack_chk_fail
 5876              	.L438:
 5877 0056 07B0     		add	sp, sp, #28
 5878              		.cfi_def_cfa_offset 4
 5879              		@ sp needed
 5880 0058 5DF804FB 		ldr	pc, [sp], #4
 5881              	.L440:
 5882              		.align	2
 5883              	.L439:
 5884 005c 00000000 		.word	__stack_chk_guard
 5885              		.cfi_endproc
 5886              	.LFE59:
 5887              		.size	VL53L0X_GetLimitCheckStatus, .-VL53L0X_GetLimitCheckStatus
 5888              		.section	.text.VL53L0X_SetLimitCheckEnable,"ax",%progbits
 5889              		.align	1
 5890              		.p2align 4,,15
 5891              		.global	VL53L0X_SetLimitCheckEnable
 5892              		.syntax unified
 5893              		.thumb
 5894              		.thumb_func
 5895              		.fpu fpv4-sp-d16
 5896              		.type	VL53L0X_SetLimitCheckEnable, %function
 5897              	VL53L0X_SetLimitCheckEnable:
 5898              	.LFB60:
 5899              		.loc 1 1604 0
 5900              		.cfi_startproc
 5901              		@ args = 0, pretend = 0, frame = 24
 5902              		@ frame_needed = 0, uses_anonymous_args = 0
 5903 0000 00B5     		push	{lr}
 5904              		.cfi_def_cfa_offset 4
 5905              		.cfi_offset 14, -4
 5906 0002 87B0     		sub	sp, sp, #28
 5907              		.cfi_def_cfa_offset 32
 5908 0004 0190     		str	r0, [sp, #4]
 5909 0006 0B46     		mov	r3, r1
 5910 0008 ADF80230 		strh	r3, [sp, #2]	@ movhi
 5911 000c 1346     		mov	r3, r2
 5912 000e 8DF80130 		strb	r3, [sp, #1]
 5913              		.loc 1 1604 0
 5914 0012 554B     		ldr	r3, .L458
 5915 0014 1B68     		ldr	r3, [r3]
 5916 0016 0593     		str	r3, [sp, #20]
 5917              		.loc 1 1605 0
 5918 0018 0023     		movs	r3, #0
 5919 001a 8DF80C30 		strb	r3, [sp, #12]
 5920              		.loc 1 1606 0
 5921 001e 0023     		movs	r3, #0
 5922 0020 0493     		str	r3, [sp, #16]
 5923              		.loc 1 1607 0
 5924 0022 0023     		movs	r3, #0
 5925 0024 8DF80D30 		strb	r3, [sp, #13]
 5926              		.loc 1 1608 0
 5927 0028 0023     		movs	r3, #0
 5928 002a 8DF80E30 		strb	r3, [sp, #14]
ARM GAS  C:\Users\PCHAUT~1\AppData\Local\Temp\ccZvjaUR.s 			page 105


 5929              		.loc 1 1613 0
 5930 002e BDF80230 		ldrh	r3, [sp, #2]
 5931 0032 052B     		cmp	r3, #5
 5932 0034 03D9     		bls	.L442
 5933              		.loc 1 1614 0
 5934 0036 FC23     		movs	r3, #252
 5935 0038 8DF80C30 		strb	r3, [sp, #12]
 5936 003c 6FE0     		b	.L443
 5937              	.L442:
 5938              		.loc 1 1616 0
 5939 003e 9DF80130 		ldrb	r3, [sp, #1]	@ zero_extendqisi2
 5940 0042 002B     		cmp	r3, #0
 5941 0044 08D1     		bne	.L444
 5942              		.loc 1 1617 0
 5943 0046 0023     		movs	r3, #0
 5944 0048 0493     		str	r3, [sp, #16]
 5945              		.loc 1 1618 0
 5946 004a 0023     		movs	r3, #0
 5947 004c 8DF80D30 		strb	r3, [sp, #13]
 5948              		.loc 1 1619 0
 5949 0050 0123     		movs	r3, #1
 5950 0052 8DF80E30 		strb	r3, [sp, #14]
 5951 0056 0DE0     		b	.L445
 5952              	.L444:
 5953              		.loc 1 1622 0
 5954 0058 BDF80230 		ldrh	r3, [sp, #2]
 5955 005c 019A     		ldr	r2, [sp, #4]
 5956 005e 0C33     		adds	r3, r3, #12
 5957 0060 9B00     		lsls	r3, r3, #2
 5958 0062 1344     		add	r3, r3, r2
 5959 0064 5B68     		ldr	r3, [r3, #4]
 5960 0066 0493     		str	r3, [sp, #16]
 5961              		.loc 1 1624 0
 5962 0068 0023     		movs	r3, #0
 5963 006a 8DF80E30 		strb	r3, [sp, #14]
 5964              		.loc 1 1626 0
 5965 006e 0123     		movs	r3, #1
 5966 0070 8DF80D30 		strb	r3, [sp, #13]
 5967              	.L445:
 5968              		.loc 1 1629 0
 5969 0074 BDF80230 		ldrh	r3, [sp, #2]
 5970 0078 052B     		cmp	r3, #5
 5971 007a 4DD8     		bhi	.L446
 5972 007c 01A2     		adr	r2, .L448
 5973 007e 52F823F0 		ldr	pc, [r2, r3, lsl #2]
 5974 0082 00BF     		.p2align 2
 5975              	.L448:
 5976 0084 9D000000 		.word	.L447+1
 5977 0088 A9000000 		.word	.L449+1
 5978 008c C1000000 		.word	.L450+1
 5979 0090 CD000000 		.word	.L451+1
 5980 0094 D9000000 		.word	.L452+1
 5981 0098 F9000000 		.word	.L453+1
 5982              		.p2align 1
 5983              	.L447:
 5984              		.loc 1 1633 0
 5985 009c 019B     		ldr	r3, [sp, #4]
ARM GAS  C:\Users\PCHAUT~1\AppData\Local\Temp\ccZvjaUR.s 			page 106


 5986 009e 9DF80D20 		ldrb	r2, [sp, #13]
 5987 00a2 83F82820 		strb	r2, [r3, #40]
 5988              		.loc 1 1637 0
 5989 00a6 3AE0     		b	.L443
 5990              	.L449:
 5991              		.loc 1 1643 0
 5992 00a8 049B     		ldr	r3, [sp, #16]
 5993 00aa 5B0A     		lsrs	r3, r3, #9
 5994              		.loc 1 1641 0
 5995 00ac 9BB2     		uxth	r3, r3
 5996 00ae 1A46     		mov	r2, r3
 5997 00b0 4421     		movs	r1, #68
 5998 00b2 0198     		ldr	r0, [sp, #4]
 5999 00b4 FFF7FEFF 		bl	VL53L0X_WrWord
 6000 00b8 0346     		mov	r3, r0
 6001 00ba 8DF80C30 		strb	r3, [sp, #12]
 6002              		.loc 1 1645 0
 6003 00be 2EE0     		b	.L443
 6004              	.L450:
 6005              		.loc 1 1650 0
 6006 00c0 019B     		ldr	r3, [sp, #4]
 6007 00c2 9DF80D20 		ldrb	r2, [sp, #13]
 6008 00c6 83F82A20 		strb	r2, [r3, #42]
 6009              		.loc 1 1654 0
 6010 00ca 28E0     		b	.L443
 6011              	.L451:
 6012              		.loc 1 1659 0
 6013 00cc 019B     		ldr	r3, [sp, #4]
 6014 00ce 9DF80D20 		ldrb	r2, [sp, #13]
 6015 00d2 83F82B20 		strb	r2, [r3, #43]
 6016              		.loc 1 1663 0
 6017 00d6 22E0     		b	.L443
 6018              	.L452:
 6019              		.loc 1 1667 0
 6020 00d8 9DF80E30 		ldrb	r3, [sp, #14]
 6021 00dc 5B00     		lsls	r3, r3, #1
 6022 00de 8DF80F30 		strb	r3, [sp, #15]
 6023              		.loc 1 1668 0
 6024 00e2 9DF80F30 		ldrb	r3, [sp, #15]	@ zero_extendqisi2
 6025 00e6 FE22     		movs	r2, #254
 6026 00e8 6021     		movs	r1, #96
 6027 00ea 0198     		ldr	r0, [sp, #4]
 6028 00ec FFF7FEFF 		bl	VL53L0X_UpdateByte
 6029 00f0 0346     		mov	r3, r0
 6030 00f2 8DF80C30 		strb	r3, [sp, #12]
 6031              		.loc 1 1672 0
 6032 00f6 12E0     		b	.L443
 6033              	.L453:
 6034              		.loc 1 1676 0
 6035 00f8 9DF80E30 		ldrb	r3, [sp, #14]
 6036 00fc 1B01     		lsls	r3, r3, #4
 6037 00fe 8DF80F30 		strb	r3, [sp, #15]
 6038              		.loc 1 1677 0
 6039 0102 9DF80F30 		ldrb	r3, [sp, #15]	@ zero_extendqisi2
 6040 0106 EF22     		movs	r2, #239
 6041 0108 6021     		movs	r1, #96
 6042 010a 0198     		ldr	r0, [sp, #4]
ARM GAS  C:\Users\PCHAUT~1\AppData\Local\Temp\ccZvjaUR.s 			page 107


 6043 010c FFF7FEFF 		bl	VL53L0X_UpdateByte
 6044 0110 0346     		mov	r3, r0
 6045 0112 8DF80C30 		strb	r3, [sp, #12]
 6046              		.loc 1 1681 0
 6047 0116 02E0     		b	.L443
 6048              	.L446:
 6049              		.loc 1 1685 0
 6050 0118 FC23     		movs	r3, #252
 6051 011a 8DF80C30 		strb	r3, [sp, #12]
 6052              	.L443:
 6053              		.loc 1 1691 0
 6054 011e 9DF90C30 		ldrsb	r3, [sp, #12]
 6055 0122 002B     		cmp	r3, #0
 6056 0124 12D1     		bne	.L454
 6057              		.loc 1 1692 0
 6058 0126 9DF80130 		ldrb	r3, [sp, #1]	@ zero_extendqisi2
 6059 012a 002B     		cmp	r3, #0
 6060 012c 07D1     		bne	.L455
 6061              		.loc 1 1693 0
 6062 012e BDF80230 		ldrh	r3, [sp, #2]
 6063 0132 019A     		ldr	r2, [sp, #4]
 6064 0134 1344     		add	r3, r3, r2
 6065 0136 0022     		movs	r2, #0
 6066 0138 83F82820 		strb	r2, [r3, #40]
 6067 013c 06E0     		b	.L454
 6068              	.L455:
 6069              		.loc 1 1696 0
 6070 013e BDF80230 		ldrh	r3, [sp, #2]
 6071 0142 019A     		ldr	r2, [sp, #4]
 6072 0144 1344     		add	r3, r3, r2
 6073 0146 0122     		movs	r2, #1
 6074 0148 83F82820 		strb	r2, [r3, #40]
 6075              	.L454:
 6076              		.loc 1 1702 0
 6077 014c 9DF90C30 		ldrsb	r3, [sp, #12]
 6078              		.loc 1 1703 0
 6079 0150 1846     		mov	r0, r3
 6080 0152 054B     		ldr	r3, .L458
 6081 0154 059A     		ldr	r2, [sp, #20]
 6082 0156 1B68     		ldr	r3, [r3]
 6083 0158 9A42     		cmp	r2, r3
 6084 015a 01D0     		beq	.L457
 6085 015c FFF7FEFF 		bl	__stack_chk_fail
 6086              	.L457:
 6087 0160 07B0     		add	sp, sp, #28
 6088              		.cfi_def_cfa_offset 4
 6089              		@ sp needed
 6090 0162 5DF804FB 		ldr	pc, [sp], #4
 6091              	.L459:
 6092 0166 00BF     		.align	2
 6093              	.L458:
 6094 0168 00000000 		.word	__stack_chk_guard
 6095              		.cfi_endproc
 6096              	.LFE60:
 6097              		.size	VL53L0X_SetLimitCheckEnable, .-VL53L0X_SetLimitCheckEnable
 6098              		.section	.text.VL53L0X_GetLimitCheckEnable,"ax",%progbits
 6099              		.align	1
ARM GAS  C:\Users\PCHAUT~1\AppData\Local\Temp\ccZvjaUR.s 			page 108


 6100              		.p2align 4,,15
 6101              		.global	VL53L0X_GetLimitCheckEnable
 6102              		.syntax unified
 6103              		.thumb
 6104              		.thumb_func
 6105              		.fpu fpv4-sp-d16
 6106              		.type	VL53L0X_GetLimitCheckEnable, %function
 6107              	VL53L0X_GetLimitCheckEnable:
 6108              	.LFB61:
 6109              		.loc 1 1707 0
 6110              		.cfi_startproc
 6111              		@ args = 0, pretend = 0, frame = 24
 6112              		@ frame_needed = 0, uses_anonymous_args = 0
 6113 0000 00B5     		push	{lr}
 6114              		.cfi_def_cfa_offset 4
 6115              		.cfi_offset 14, -4
 6116 0002 87B0     		sub	sp, sp, #28
 6117              		.cfi_def_cfa_offset 32
 6118 0004 0390     		str	r0, [sp, #12]
 6119 0006 0B46     		mov	r3, r1
 6120 0008 0192     		str	r2, [sp, #4]
 6121 000a ADF80A30 		strh	r3, [sp, #10]	@ movhi
 6122              		.loc 1 1707 0
 6123 000e 154B     		ldr	r3, .L465
 6124 0010 1B68     		ldr	r3, [r3]
 6125 0012 0593     		str	r3, [sp, #20]
 6126              		.loc 1 1708 0
 6127 0014 0023     		movs	r3, #0
 6128 0016 8DF81230 		strb	r3, [sp, #18]
 6129              		.loc 1 1713 0
 6130 001a BDF80A30 		ldrh	r3, [sp, #10]
 6131 001e 052B     		cmp	r3, #5
 6132 0020 06D9     		bls	.L461
 6133              		.loc 1 1714 0
 6134 0022 FC23     		movs	r3, #252
 6135 0024 8DF81230 		strb	r3, [sp, #18]
 6136              		.loc 1 1715 0
 6137 0028 019B     		ldr	r3, [sp, #4]
 6138 002a 0022     		movs	r2, #0
 6139 002c 1A70     		strb	r2, [r3]
 6140 002e 0BE0     		b	.L462
 6141              	.L461:
 6142              		.loc 1 1717 0
 6143 0030 BDF80A30 		ldrh	r3, [sp, #10]
 6144 0034 039A     		ldr	r2, [sp, #12]
 6145 0036 1344     		add	r3, r3, r2
 6146 0038 93F82830 		ldrb	r3, [r3, #40]
 6147 003c 8DF81330 		strb	r3, [sp, #19]
 6148              		.loc 1 1719 0
 6149 0040 019B     		ldr	r3, [sp, #4]
 6150 0042 9DF81320 		ldrb	r2, [sp, #19]
 6151 0046 1A70     		strb	r2, [r3]
 6152              	.L462:
 6153              		.loc 1 1723 0
 6154 0048 9DF91230 		ldrsb	r3, [sp, #18]
 6155              		.loc 1 1724 0
 6156 004c 1846     		mov	r0, r3
ARM GAS  C:\Users\PCHAUT~1\AppData\Local\Temp\ccZvjaUR.s 			page 109


 6157 004e 054B     		ldr	r3, .L465
 6158 0050 059A     		ldr	r2, [sp, #20]
 6159 0052 1B68     		ldr	r3, [r3]
 6160 0054 9A42     		cmp	r2, r3
 6161 0056 01D0     		beq	.L464
 6162 0058 FFF7FEFF 		bl	__stack_chk_fail
 6163              	.L464:
 6164 005c 07B0     		add	sp, sp, #28
 6165              		.cfi_def_cfa_offset 4
 6166              		@ sp needed
 6167 005e 5DF804FB 		ldr	pc, [sp], #4
 6168              	.L466:
 6169 0062 00BF     		.align	2
 6170              	.L465:
 6171 0064 00000000 		.word	__stack_chk_guard
 6172              		.cfi_endproc
 6173              	.LFE61:
 6174              		.size	VL53L0X_GetLimitCheckEnable, .-VL53L0X_GetLimitCheckEnable
 6175              		.section	.text.VL53L0X_SetLimitCheckValue,"ax",%progbits
 6176              		.align	1
 6177              		.p2align 4,,15
 6178              		.global	VL53L0X_SetLimitCheckValue
 6179              		.syntax unified
 6180              		.thumb
 6181              		.thumb_func
 6182              		.fpu fpv4-sp-d16
 6183              		.type	VL53L0X_SetLimitCheckValue, %function
 6184              	VL53L0X_SetLimitCheckValue:
 6185              	.LFB62:
 6186              		.loc 1 1728 0
 6187              		.cfi_startproc
 6188              		@ args = 0, pretend = 0, frame = 24
 6189              		@ frame_needed = 0, uses_anonymous_args = 0
 6190 0000 00B5     		push	{lr}
 6191              		.cfi_def_cfa_offset 4
 6192              		.cfi_offset 14, -4
 6193 0002 87B0     		sub	sp, sp, #28
 6194              		.cfi_def_cfa_offset 32
 6195 0004 0390     		str	r0, [sp, #12]
 6196 0006 0B46     		mov	r3, r1
 6197 0008 0192     		str	r2, [sp, #4]
 6198 000a ADF80A30 		strh	r3, [sp, #10]	@ movhi
 6199              		.loc 1 1728 0
 6200 000e 374B     		ldr	r3, .L480
 6201 0010 1B68     		ldr	r3, [r3]
 6202 0012 0593     		str	r3, [sp, #20]
 6203              		.loc 1 1729 0
 6204 0014 0023     		movs	r3, #0
 6205 0016 8DF81230 		strb	r3, [sp, #18]
 6206              		.loc 1 1734 0
 6207 001a BDF80A30 		ldrh	r3, [sp, #10]
 6208 001e 039A     		ldr	r2, [sp, #12]
 6209 0020 1344     		add	r3, r3, r2
 6210 0022 93F82830 		ldrb	r3, [r3, #40]
 6211 0026 8DF81330 		strb	r3, [sp, #19]
 6212              		.loc 1 1737 0
 6213 002a 9DF81330 		ldrb	r3, [sp, #19]	@ zero_extendqisi2
ARM GAS  C:\Users\PCHAUT~1\AppData\Local\Temp\ccZvjaUR.s 			page 110


 6214 002e 002B     		cmp	r3, #0
 6215 0030 08D1     		bne	.L468
 6216              		.loc 1 1738 0
 6217 0032 BDF80A30 		ldrh	r3, [sp, #10]
 6218 0036 039A     		ldr	r2, [sp, #12]
 6219 0038 0C33     		adds	r3, r3, #12
 6220 003a 9B00     		lsls	r3, r3, #2
 6221 003c 1344     		add	r3, r3, r2
 6222 003e 019A     		ldr	r2, [sp, #4]
 6223 0040 5A60     		str	r2, [r3, #4]
 6224 0042 46E0     		b	.L469
 6225              	.L468:
 6226              		.loc 1 1742 0
 6227 0044 BDF80A30 		ldrh	r3, [sp, #10]
 6228 0048 052B     		cmp	r3, #5
 6229 004a 33D8     		bhi	.L470
 6230 004c 01A2     		adr	r2, .L472
 6231 004e 52F823F0 		ldr	pc, [r2, r3, lsl #2]
 6232 0052 00BF     		.p2align 2
 6233              	.L472:
 6234 0054 6D000000 		.word	.L471+1
 6235 0058 75000000 		.word	.L473+1
 6236 005c 8D000000 		.word	.L474+1
 6237 0060 95000000 		.word	.L475+1
 6238 0064 9D000000 		.word	.L476+1
 6239 0068 9D000000 		.word	.L476+1
 6240              		.p2align 1
 6241              	.L471:
 6242              		.loc 1 1746 0
 6243 006c 039B     		ldr	r3, [sp, #12]
 6244 006e 019A     		ldr	r2, [sp, #4]
 6245 0070 5A63     		str	r2, [r3, #52]
 6246              		.loc 1 1749 0
 6247 0072 22E0     		b	.L477
 6248              	.L473:
 6249              		.loc 1 1755 0
 6250 0074 019B     		ldr	r3, [sp, #4]
 6251 0076 5B0A     		lsrs	r3, r3, #9
 6252              		.loc 1 1753 0
 6253 0078 9BB2     		uxth	r3, r3
 6254 007a 1A46     		mov	r2, r3
 6255 007c 4421     		movs	r1, #68
 6256 007e 0398     		ldr	r0, [sp, #12]
 6257 0080 FFF7FEFF 		bl	VL53L0X_WrWord
 6258 0084 0346     		mov	r3, r0
 6259 0086 8DF81230 		strb	r3, [sp, #18]
 6260              		.loc 1 1758 0
 6261 008a 16E0     		b	.L477
 6262              	.L474:
 6263              		.loc 1 1763 0
 6264 008c 039B     		ldr	r3, [sp, #12]
 6265 008e 019A     		ldr	r2, [sp, #4]
 6266 0090 DA63     		str	r2, [r3, #60]
 6267              		.loc 1 1767 0
 6268 0092 12E0     		b	.L477
 6269              	.L475:
 6270              		.loc 1 1772 0
ARM GAS  C:\Users\PCHAUT~1\AppData\Local\Temp\ccZvjaUR.s 			page 111


 6271 0094 039B     		ldr	r3, [sp, #12]
 6272 0096 019A     		ldr	r2, [sp, #4]
 6273 0098 1A64     		str	r2, [r3, #64]
 6274              		.loc 1 1776 0
 6275 009a 0EE0     		b	.L477
 6276              	.L476:
 6277              		.loc 1 1783 0
 6278 009c 019B     		ldr	r3, [sp, #4]
 6279 009e 5B0A     		lsrs	r3, r3, #9
 6280              		.loc 1 1781 0
 6281 00a0 9BB2     		uxth	r3, r3
 6282 00a2 1A46     		mov	r2, r3
 6283 00a4 6421     		movs	r1, #100
 6284 00a6 0398     		ldr	r0, [sp, #12]
 6285 00a8 FFF7FEFF 		bl	VL53L0X_WrWord
 6286 00ac 0346     		mov	r3, r0
 6287 00ae 8DF81230 		strb	r3, [sp, #18]
 6288              		.loc 1 1786 0
 6289 00b2 02E0     		b	.L477
 6290              	.L470:
 6291              		.loc 1 1789 0
 6292 00b4 FC23     		movs	r3, #252
 6293 00b6 8DF81230 		strb	r3, [sp, #18]
 6294              	.L477:
 6295              		.loc 1 1793 0
 6296 00ba 9DF91230 		ldrsb	r3, [sp, #18]
 6297 00be 002B     		cmp	r3, #0
 6298 00c0 07D1     		bne	.L469
 6299              		.loc 1 1794 0
 6300 00c2 BDF80A30 		ldrh	r3, [sp, #10]
 6301 00c6 039A     		ldr	r2, [sp, #12]
 6302 00c8 0C33     		adds	r3, r3, #12
 6303 00ca 9B00     		lsls	r3, r3, #2
 6304 00cc 1344     		add	r3, r3, r2
 6305 00ce 019A     		ldr	r2, [sp, #4]
 6306 00d0 5A60     		str	r2, [r3, #4]
 6307              	.L469:
 6308              		.loc 1 1800 0
 6309 00d2 9DF91230 		ldrsb	r3, [sp, #18]
 6310              		.loc 1 1801 0
 6311 00d6 1846     		mov	r0, r3
 6312 00d8 044B     		ldr	r3, .L480
 6313 00da 059A     		ldr	r2, [sp, #20]
 6314 00dc 1B68     		ldr	r3, [r3]
 6315 00de 9A42     		cmp	r2, r3
 6316 00e0 01D0     		beq	.L479
 6317 00e2 FFF7FEFF 		bl	__stack_chk_fail
 6318              	.L479:
 6319 00e6 07B0     		add	sp, sp, #28
 6320              		.cfi_def_cfa_offset 4
 6321              		@ sp needed
 6322 00e8 5DF804FB 		ldr	pc, [sp], #4
 6323              	.L481:
 6324              		.align	2
 6325              	.L480:
 6326 00ec 00000000 		.word	__stack_chk_guard
 6327              		.cfi_endproc
ARM GAS  C:\Users\PCHAUT~1\AppData\Local\Temp\ccZvjaUR.s 			page 112


 6328              	.LFE62:
 6329              		.size	VL53L0X_SetLimitCheckValue, .-VL53L0X_SetLimitCheckValue
 6330              		.section	.text.VL53L0X_GetLimitCheckValue,"ax",%progbits
 6331              		.align	1
 6332              		.p2align 4,,15
 6333              		.global	VL53L0X_GetLimitCheckValue
 6334              		.syntax unified
 6335              		.thumb
 6336              		.thumb_func
 6337              		.fpu fpv4-sp-d16
 6338              		.type	VL53L0X_GetLimitCheckValue, %function
 6339              	VL53L0X_GetLimitCheckValue:
 6340              	.LFB63:
 6341              		.loc 1 1805 0
 6342              		.cfi_startproc
 6343              		@ args = 0, pretend = 0, frame = 32
 6344              		@ frame_needed = 0, uses_anonymous_args = 0
 6345 0000 00B5     		push	{lr}
 6346              		.cfi_def_cfa_offset 4
 6347              		.cfi_offset 14, -4
 6348 0002 89B0     		sub	sp, sp, #36
 6349              		.cfi_def_cfa_offset 40
 6350 0004 0390     		str	r0, [sp, #12]
 6351 0006 0B46     		mov	r3, r1
 6352 0008 0192     		str	r2, [sp, #4]
 6353 000a ADF80A30 		strh	r3, [sp, #10]	@ movhi
 6354              		.loc 1 1805 0
 6355 000e 514B     		ldr	r3, .L499
 6356 0010 1B68     		ldr	r3, [r3]
 6357 0012 0793     		str	r3, [sp, #28]
 6358              		.loc 1 1806 0
 6359 0014 0023     		movs	r3, #0
 6360 0016 8DF81430 		strb	r3, [sp, #20]
 6361              		.loc 1 1807 0
 6362 001a 0023     		movs	r3, #0
 6363 001c 8DF81530 		strb	r3, [sp, #21]
 6364              		.loc 1 1813 0
 6365 0020 BDF80A30 		ldrh	r3, [sp, #10]
 6366 0024 052B     		cmp	r3, #5
 6367 0026 50D8     		bhi	.L483
 6368 0028 01A2     		adr	r2, .L485
 6369 002a 52F823F0 		ldr	pc, [r2, r3, lsl #2]
 6370 002e 00BF     		.p2align 2
 6371              	.L485:
 6372 0030 49000000 		.word	.L484+1
 6373 0034 57000000 		.word	.L486+1
 6374 0038 83000000 		.word	.L487+1
 6375 003c 91000000 		.word	.L488+1
 6376 0040 9F000000 		.word	.L489+1
 6377 0044 9F000000 		.word	.L489+1
 6378              		.p2align 1
 6379              	.L484:
 6380              		.loc 1 1817 0
 6381 0048 039B     		ldr	r3, [sp, #12]
 6382 004a 5B6B     		ldr	r3, [r3, #52]
 6383 004c 0693     		str	r3, [sp, #24]
 6384              		.loc 1 1819 0
ARM GAS  C:\Users\PCHAUT~1\AppData\Local\Temp\ccZvjaUR.s 			page 113


 6385 004e 0023     		movs	r3, #0
 6386 0050 8DF81530 		strb	r3, [sp, #21]
 6387              		.loc 1 1820 0
 6388 0054 3CE0     		b	.L490
 6389              	.L486:
 6390              		.loc 1 1823 0
 6391 0056 0DF11603 		add	r3, sp, #22
 6392 005a 1A46     		mov	r2, r3
 6393 005c 4421     		movs	r1, #68
 6394 005e 0398     		ldr	r0, [sp, #12]
 6395 0060 FFF7FEFF 		bl	VL53L0X_RdWord
 6396 0064 0346     		mov	r3, r0
 6397 0066 8DF81430 		strb	r3, [sp, #20]
 6398              		.loc 1 1826 0
 6399 006a 9DF91430 		ldrsb	r3, [sp, #20]
 6400 006e 002B     		cmp	r3, #0
 6401 0070 03D1     		bne	.L491
 6402              		.loc 1 1827 0
 6403 0072 BDF81630 		ldrh	r3, [sp, #22]
 6404 0076 5B02     		lsls	r3, r3, #9
 6405 0078 0693     		str	r3, [sp, #24]
 6406              	.L491:
 6407              		.loc 1 1830 0
 6408 007a 0123     		movs	r3, #1
 6409 007c 8DF81530 		strb	r3, [sp, #21]
 6410              		.loc 1 1831 0
 6411 0080 26E0     		b	.L490
 6412              	.L487:
 6413              		.loc 1 1835 0
 6414 0082 039B     		ldr	r3, [sp, #12]
 6415 0084 DB6B     		ldr	r3, [r3, #60]
 6416 0086 0693     		str	r3, [sp, #24]
 6417              		.loc 1 1837 0
 6418 0088 0023     		movs	r3, #0
 6419 008a 8DF81530 		strb	r3, [sp, #21]
 6420              		.loc 1 1838 0
 6421 008e 1FE0     		b	.L490
 6422              	.L488:
 6423              		.loc 1 1842 0
 6424 0090 039B     		ldr	r3, [sp, #12]
 6425 0092 1B6C     		ldr	r3, [r3, #64]
 6426 0094 0693     		str	r3, [sp, #24]
 6427              		.loc 1 1844 0
 6428 0096 0023     		movs	r3, #0
 6429 0098 8DF81530 		strb	r3, [sp, #21]
 6430              		.loc 1 1845 0
 6431 009c 18E0     		b	.L490
 6432              	.L489:
 6433              		.loc 1 1849 0
 6434 009e 0DF11603 		add	r3, sp, #22
 6435 00a2 1A46     		mov	r2, r3
 6436 00a4 6421     		movs	r1, #100
 6437 00a6 0398     		ldr	r0, [sp, #12]
 6438 00a8 FFF7FEFF 		bl	VL53L0X_RdWord
 6439 00ac 0346     		mov	r3, r0
 6440 00ae 8DF81430 		strb	r3, [sp, #20]
 6441              		.loc 1 1852 0
ARM GAS  C:\Users\PCHAUT~1\AppData\Local\Temp\ccZvjaUR.s 			page 114


 6442 00b2 9DF91430 		ldrsb	r3, [sp, #20]
 6443 00b6 002B     		cmp	r3, #0
 6444 00b8 03D1     		bne	.L492
 6445              		.loc 1 1853 0
 6446 00ba BDF81630 		ldrh	r3, [sp, #22]
 6447 00be 5B02     		lsls	r3, r3, #9
 6448 00c0 0693     		str	r3, [sp, #24]
 6449              	.L492:
 6450              		.loc 1 1856 0
 6451 00c2 0023     		movs	r3, #0
 6452 00c4 8DF81530 		strb	r3, [sp, #21]
 6453              		.loc 1 1857 0
 6454 00c8 02E0     		b	.L490
 6455              	.L483:
 6456              		.loc 1 1860 0
 6457 00ca FC23     		movs	r3, #252
 6458 00cc 8DF81430 		strb	r3, [sp, #20]
 6459              	.L490:
 6460              		.loc 1 1864 0
 6461 00d0 9DF91430 		ldrsb	r3, [sp, #20]
 6462 00d4 002B     		cmp	r3, #0
 6463 00d6 2FD1     		bne	.L493
 6464              		.loc 1 1866 0
 6465 00d8 9DF81530 		ldrb	r3, [sp, #21]	@ zero_extendqisi2
 6466 00dc 012B     		cmp	r3, #1
 6467 00de 28D1     		bne	.L494
 6468              		.loc 1 1868 0
 6469 00e0 069B     		ldr	r3, [sp, #24]
 6470 00e2 002B     		cmp	r3, #0
 6471 00e4 12D1     		bne	.L495
 6472              		.loc 1 1870 0
 6473 00e6 BDF80A30 		ldrh	r3, [sp, #10]
 6474 00ea 039A     		ldr	r2, [sp, #12]
 6475 00ec 0C33     		adds	r3, r3, #12
 6476 00ee 9B00     		lsls	r3, r3, #2
 6477 00f0 1344     		add	r3, r3, r2
 6478 00f2 5B68     		ldr	r3, [r3, #4]
 6479 00f4 0693     		str	r3, [sp, #24]
 6480              		.loc 1 1873 0
 6481 00f6 019B     		ldr	r3, [sp, #4]
 6482 00f8 069A     		ldr	r2, [sp, #24]
 6483 00fa 1A60     		str	r2, [r3]
 6484              		.loc 1 1874 0
 6485 00fc BDF80A30 		ldrh	r3, [sp, #10]
 6486 0100 039A     		ldr	r2, [sp, #12]
 6487 0102 1344     		add	r3, r3, r2
 6488 0104 0022     		movs	r2, #0
 6489 0106 83F82820 		strb	r2, [r3, #40]
 6490 010a 15E0     		b	.L493
 6491              	.L495:
 6492              		.loc 1 1877 0
 6493 010c 019B     		ldr	r3, [sp, #4]
 6494 010e 069A     		ldr	r2, [sp, #24]
 6495 0110 1A60     		str	r2, [r3]
 6496              		.loc 1 1878 0
 6497 0112 BDF80A30 		ldrh	r3, [sp, #10]
 6498 0116 039A     		ldr	r2, [sp, #12]
ARM GAS  C:\Users\PCHAUT~1\AppData\Local\Temp\ccZvjaUR.s 			page 115


 6499 0118 0C33     		adds	r3, r3, #12
 6500 011a 9B00     		lsls	r3, r3, #2
 6501 011c 1344     		add	r3, r3, r2
 6502 011e 069A     		ldr	r2, [sp, #24]
 6503 0120 5A60     		str	r2, [r3, #4]
 6504              		.loc 1 1881 0
 6505 0122 BDF80A30 		ldrh	r3, [sp, #10]
 6506 0126 039A     		ldr	r2, [sp, #12]
 6507 0128 1344     		add	r3, r3, r2
 6508 012a 0122     		movs	r2, #1
 6509 012c 83F82820 		strb	r2, [r3, #40]
 6510 0130 02E0     		b	.L493
 6511              	.L494:
 6512              		.loc 1 1885 0
 6513 0132 019B     		ldr	r3, [sp, #4]
 6514 0134 069A     		ldr	r2, [sp, #24]
 6515 0136 1A60     		str	r2, [r3]
 6516              	.L493:
 6517              		.loc 1 1890 0
 6518 0138 9DF91430 		ldrsb	r3, [sp, #20]
 6519              		.loc 1 1892 0
 6520 013c 1846     		mov	r0, r3
 6521 013e 054B     		ldr	r3, .L499
 6522 0140 079A     		ldr	r2, [sp, #28]
 6523 0142 1B68     		ldr	r3, [r3]
 6524 0144 9A42     		cmp	r2, r3
 6525 0146 01D0     		beq	.L498
 6526 0148 FFF7FEFF 		bl	__stack_chk_fail
 6527              	.L498:
 6528 014c 09B0     		add	sp, sp, #36
 6529              		.cfi_def_cfa_offset 4
 6530              		@ sp needed
 6531 014e 5DF804FB 		ldr	pc, [sp], #4
 6532              	.L500:
 6533 0152 00BF     		.align	2
 6534              	.L499:
 6535 0154 00000000 		.word	__stack_chk_guard
 6536              		.cfi_endproc
 6537              	.LFE63:
 6538              		.size	VL53L0X_GetLimitCheckValue, .-VL53L0X_GetLimitCheckValue
 6539              		.section	.text.VL53L0X_GetLimitCheckCurrent,"ax",%progbits
 6540              		.align	1
 6541              		.p2align 4,,15
 6542              		.global	VL53L0X_GetLimitCheckCurrent
 6543              		.syntax unified
 6544              		.thumb
 6545              		.thumb_func
 6546              		.fpu fpv4-sp-d16
 6547              		.type	VL53L0X_GetLimitCheckCurrent, %function
 6548              	VL53L0X_GetLimitCheckCurrent:
 6549              	.LFB64:
 6550              		.loc 1 1896 0
 6551              		.cfi_startproc
 6552              		@ args = 0, pretend = 0, frame = 56
 6553              		@ frame_needed = 0, uses_anonymous_args = 0
 6554 0000 30B5     		push	{r4, r5, lr}
 6555              		.cfi_def_cfa_offset 12
ARM GAS  C:\Users\PCHAUT~1\AppData\Local\Temp\ccZvjaUR.s 			page 116


 6556              		.cfi_offset 4, -12
 6557              		.cfi_offset 5, -8
 6558              		.cfi_offset 14, -4
 6559 0002 8FB0     		sub	sp, sp, #60
 6560              		.cfi_def_cfa_offset 72
 6561 0004 0390     		str	r0, [sp, #12]
 6562 0006 0B46     		mov	r3, r1
 6563 0008 0192     		str	r2, [sp, #4]
 6564 000a ADF80A30 		strh	r3, [sp, #10]	@ movhi
 6565              		.loc 1 1896 0
 6566 000e 3A4B     		ldr	r3, .L514
 6567 0010 1B68     		ldr	r3, [r3]
 6568 0012 0D93     		str	r3, [sp, #52]
 6569              		.loc 1 1897 0
 6570 0014 0023     		movs	r3, #0
 6571 0016 8DF81730 		strb	r3, [sp, #23]
 6572              		.loc 1 1902 0
 6573 001a BDF80A30 		ldrh	r3, [sp, #10]
 6574 001e 052B     		cmp	r3, #5
 6575 0020 03D9     		bls	.L502
 6576              		.loc 1 1903 0
 6577 0022 FC23     		movs	r3, #252
 6578 0024 8DF81730 		strb	r3, [sp, #23]
 6579 0028 59E0     		b	.L503
 6580              	.L502:
 6581              		.loc 1 1905 0
 6582 002a BDF80A30 		ldrh	r3, [sp, #10]
 6583 002e 052B     		cmp	r3, #5
 6584 0030 52D8     		bhi	.L504
 6585 0032 01A2     		adr	r2, .L506
 6586 0034 52F823F0 		ldr	pc, [r2, r3, lsl #2]
 6587              		.p2align 2
 6588              	.L506:
 6589 0038 51000000 		.word	.L505+1
 6590 003c 5D000000 		.word	.L507+1
 6591 0040 79000000 		.word	.L508+1
 6592 0044 85000000 		.word	.L509+1
 6593 0048 A1000000 		.word	.L510+1
 6594 004c BD000000 		.word	.L511+1
 6595              		.p2align 1
 6596              	.L505:
 6597              		.loc 1 1908 0
 6598 0050 039B     		ldr	r3, [sp, #12]
 6599 0052 D3F84021 		ldr	r2, [r3, #320]
 6600 0056 019B     		ldr	r3, [sp, #4]
 6601 0058 1A60     		str	r2, [r3]
 6602              		.loc 1 1910 0
 6603 005a 40E0     		b	.L503
 6604              	.L507:
 6605              		.loc 1 1914 0
 6606 005c 039B     		ldr	r3, [sp, #12]
 6607 005e 06AC     		add	r4, sp, #24
 6608 0060 03F15005 		add	r5, r3, #80
 6609 0064 0FCD     		ldmia	r5!, {r0, r1, r2, r3}
 6610 0066 0FC4     		stmia	r4!, {r0, r1, r2, r3}
 6611 0068 95E80700 		ldm	r5, {r0, r1, r2}
 6612 006c 84E80700 		stm	r4, {r0, r1, r2}
ARM GAS  C:\Users\PCHAUT~1\AppData\Local\Temp\ccZvjaUR.s 			page 117


 6613              		.loc 1 1917 0
 6614 0070 099A     		ldr	r2, [sp, #36]
 6615              		.loc 1 1916 0
 6616 0072 019B     		ldr	r3, [sp, #4]
 6617 0074 1A60     		str	r2, [r3]
 6618              		.loc 1 1919 0
 6619 0076 32E0     		b	.L503
 6620              	.L508:
 6621              		.loc 1 1923 0
 6622 0078 039B     		ldr	r3, [sp, #12]
 6623 007a D3F84821 		ldr	r2, [r3, #328]
 6624 007e 019B     		ldr	r3, [sp, #4]
 6625 0080 1A60     		str	r2, [r3]
 6626              		.loc 1 1926 0
 6627 0082 2CE0     		b	.L503
 6628              	.L509:
 6629              		.loc 1 1930 0
 6630 0084 039B     		ldr	r3, [sp, #12]
 6631 0086 06AC     		add	r4, sp, #24
 6632 0088 03F15005 		add	r5, r3, #80
 6633 008c 0FCD     		ldmia	r5!, {r0, r1, r2, r3}
 6634 008e 0FC4     		stmia	r4!, {r0, r1, r2, r3}
 6635 0090 95E80700 		ldm	r5, {r0, r1, r2}
 6636 0094 84E80700 		stm	r4, {r0, r1, r2}
 6637              		.loc 1 1933 0
 6638 0098 099A     		ldr	r2, [sp, #36]
 6639              		.loc 1 1932 0
 6640 009a 019B     		ldr	r3, [sp, #4]
 6641 009c 1A60     		str	r2, [r3]
 6642              		.loc 1 1935 0
 6643 009e 1EE0     		b	.L503
 6644              	.L510:
 6645              		.loc 1 1939 0
 6646 00a0 039B     		ldr	r3, [sp, #12]
 6647 00a2 06AC     		add	r4, sp, #24
 6648 00a4 03F15005 		add	r5, r3, #80
 6649 00a8 0FCD     		ldmia	r5!, {r0, r1, r2, r3}
 6650 00aa 0FC4     		stmia	r4!, {r0, r1, r2, r3}
 6651 00ac 95E80700 		ldm	r5, {r0, r1, r2}
 6652 00b0 84E80700 		stm	r4, {r0, r1, r2}
 6653              		.loc 1 1942 0
 6654 00b4 099A     		ldr	r2, [sp, #36]
 6655              		.loc 1 1941 0
 6656 00b6 019B     		ldr	r3, [sp, #4]
 6657 00b8 1A60     		str	r2, [r3]
 6658              		.loc 1 1944 0
 6659 00ba 10E0     		b	.L503
 6660              	.L511:
 6661              		.loc 1 1948 0
 6662 00bc 039B     		ldr	r3, [sp, #12]
 6663 00be 06AC     		add	r4, sp, #24
 6664 00c0 03F15005 		add	r5, r3, #80
 6665 00c4 0FCD     		ldmia	r5!, {r0, r1, r2, r3}
 6666 00c6 0FC4     		stmia	r4!, {r0, r1, r2, r3}
 6667 00c8 95E80700 		ldm	r5, {r0, r1, r2}
 6668 00cc 84E80700 		stm	r4, {r0, r1, r2}
 6669              		.loc 1 1951 0
ARM GAS  C:\Users\PCHAUT~1\AppData\Local\Temp\ccZvjaUR.s 			page 118


 6670 00d0 099A     		ldr	r2, [sp, #36]
 6671              		.loc 1 1950 0
 6672 00d2 019B     		ldr	r3, [sp, #4]
 6673 00d4 1A60     		str	r2, [r3]
 6674              		.loc 1 1953 0
 6675 00d6 02E0     		b	.L503
 6676              	.L504:
 6677              		.loc 1 1956 0
 6678 00d8 FC23     		movs	r3, #252
 6679 00da 8DF81730 		strb	r3, [sp, #23]
 6680              	.L503:
 6681              		.loc 1 1961 0
 6682 00de 9DF91730 		ldrsb	r3, [sp, #23]
 6683              		.loc 1 1963 0
 6684 00e2 1846     		mov	r0, r3
 6685 00e4 044B     		ldr	r3, .L514
 6686 00e6 0D9A     		ldr	r2, [sp, #52]
 6687 00e8 1B68     		ldr	r3, [r3]
 6688 00ea 9A42     		cmp	r2, r3
 6689 00ec 01D0     		beq	.L513
 6690 00ee FFF7FEFF 		bl	__stack_chk_fail
 6691              	.L513:
 6692 00f2 0FB0     		add	sp, sp, #60
 6693              		.cfi_def_cfa_offset 12
 6694              		@ sp needed
 6695 00f4 30BD     		pop	{r4, r5, pc}
 6696              	.L515:
 6697 00f6 00BF     		.align	2
 6698              	.L514:
 6699 00f8 00000000 		.word	__stack_chk_guard
 6700              		.cfi_endproc
 6701              	.LFE64:
 6702              		.size	VL53L0X_GetLimitCheckCurrent, .-VL53L0X_GetLimitCheckCurrent
 6703              		.section	.text.VL53L0X_SetWrapAroundCheckEnable,"ax",%progbits
 6704              		.align	1
 6705              		.p2align 4,,15
 6706              		.global	VL53L0X_SetWrapAroundCheckEnable
 6707              		.syntax unified
 6708              		.thumb
 6709              		.thumb_func
 6710              		.fpu fpv4-sp-d16
 6711              		.type	VL53L0X_SetWrapAroundCheckEnable, %function
 6712              	VL53L0X_SetWrapAroundCheckEnable:
 6713              	.LFB65:
 6714              		.loc 1 1970 0
 6715              		.cfi_startproc
 6716              		@ args = 0, pretend = 0, frame = 16
 6717              		@ frame_needed = 0, uses_anonymous_args = 0
 6718 0000 00B5     		push	{lr}
 6719              		.cfi_def_cfa_offset 4
 6720              		.cfi_offset 14, -4
 6721 0002 85B0     		sub	sp, sp, #20
 6722              		.cfi_def_cfa_offset 24
 6723 0004 0190     		str	r0, [sp, #4]
 6724 0006 0B46     		mov	r3, r1
 6725 0008 8DF80330 		strb	r3, [sp, #3]
 6726              		.loc 1 1970 0
ARM GAS  C:\Users\PCHAUT~1\AppData\Local\Temp\ccZvjaUR.s 			page 119


 6727 000c 264B     		ldr	r3, .L522
 6728 000e 1B68     		ldr	r3, [r3]
 6729 0010 0393     		str	r3, [sp, #12]
 6730              		.loc 1 1971 0
 6731 0012 0023     		movs	r3, #0
 6732 0014 8DF80B30 		strb	r3, [sp, #11]
 6733              		.loc 1 1977 0
 6734 0018 0DF10903 		add	r3, sp, #9
 6735 001c 1A46     		mov	r2, r3
 6736 001e 0121     		movs	r1, #1
 6737 0020 0198     		ldr	r0, [sp, #4]
 6738 0022 FFF7FEFF 		bl	VL53L0X_RdByte
 6739 0026 0346     		mov	r3, r0
 6740 0028 8DF80B30 		strb	r3, [sp, #11]
 6741              		.loc 1 1978 0
 6742 002c 9DF80330 		ldrb	r3, [sp, #3]	@ zero_extendqisi2
 6743 0030 002B     		cmp	r3, #0
 6744 0032 0AD1     		bne	.L517
 6745              		.loc 1 1980 0
 6746 0034 9DF80930 		ldrb	r3, [sp, #9]	@ zero_extendqisi2
 6747 0038 03F07F03 		and	r3, r3, #127
 6748 003c DBB2     		uxtb	r3, r3
 6749 003e 8DF80930 		strb	r3, [sp, #9]
 6750              		.loc 1 1981 0
 6751 0042 0023     		movs	r3, #0
 6752 0044 8DF80A30 		strb	r3, [sp, #10]
 6753 0048 09E0     		b	.L518
 6754              	.L517:
 6755              		.loc 1 1984 0
 6756 004a 9DF80930 		ldrb	r3, [sp, #9]	@ zero_extendqisi2
 6757 004e 63F07F03 		orn	r3, r3, #127
 6758 0052 DBB2     		uxtb	r3, r3
 6759 0054 8DF80930 		strb	r3, [sp, #9]
 6760              		.loc 1 1985 0
 6761 0058 0123     		movs	r3, #1
 6762 005a 8DF80A30 		strb	r3, [sp, #10]
 6763              	.L518:
 6764              		.loc 1 1988 0
 6765 005e 9DF80930 		ldrb	r3, [sp, #9]	@ zero_extendqisi2
 6766 0062 1A46     		mov	r2, r3
 6767 0064 0121     		movs	r1, #1
 6768 0066 0198     		ldr	r0, [sp, #4]
 6769 0068 FFF7FEFF 		bl	VL53L0X_WrByte
 6770 006c 0346     		mov	r3, r0
 6771 006e 8DF80B30 		strb	r3, [sp, #11]
 6772              		.loc 1 1990 0
 6773 0072 9DF90B30 		ldrsb	r3, [sp, #11]
 6774 0076 002B     		cmp	r3, #0
 6775 0078 09D1     		bne	.L519
 6776              		.loc 1 1991 0
 6777 007a 9DF80920 		ldrb	r2, [sp, #9]	@ zero_extendqisi2
 6778 007e 019B     		ldr	r3, [sp, #4]
 6779 0080 83F83021 		strb	r2, [r3, #304]
 6780              		.loc 1 1992 0
 6781 0084 019B     		ldr	r3, [sp, #4]
 6782 0086 9DF80A20 		ldrb	r2, [sp, #10]
 6783 008a 83F84C20 		strb	r2, [r3, #76]
ARM GAS  C:\Users\PCHAUT~1\AppData\Local\Temp\ccZvjaUR.s 			page 120


 6784              	.L519:
 6785              		.loc 1 1997 0
 6786 008e 9DF90B30 		ldrsb	r3, [sp, #11]
 6787              		.loc 1 1998 0
 6788 0092 1846     		mov	r0, r3
 6789 0094 044B     		ldr	r3, .L522
 6790 0096 039A     		ldr	r2, [sp, #12]
 6791 0098 1B68     		ldr	r3, [r3]
 6792 009a 9A42     		cmp	r2, r3
 6793 009c 01D0     		beq	.L521
 6794 009e FFF7FEFF 		bl	__stack_chk_fail
 6795              	.L521:
 6796 00a2 05B0     		add	sp, sp, #20
 6797              		.cfi_def_cfa_offset 4
 6798              		@ sp needed
 6799 00a4 5DF804FB 		ldr	pc, [sp], #4
 6800              	.L523:
 6801              		.align	2
 6802              	.L522:
 6803 00a8 00000000 		.word	__stack_chk_guard
 6804              		.cfi_endproc
 6805              	.LFE65:
 6806              		.size	VL53L0X_SetWrapAroundCheckEnable, .-VL53L0X_SetWrapAroundCheckEnable
 6807              		.section	.text.VL53L0X_GetWrapAroundCheckEnable,"ax",%progbits
 6808              		.align	1
 6809              		.p2align 4,,15
 6810              		.global	VL53L0X_GetWrapAroundCheckEnable
 6811              		.syntax unified
 6812              		.thumb
 6813              		.thumb_func
 6814              		.fpu fpv4-sp-d16
 6815              		.type	VL53L0X_GetWrapAroundCheckEnable, %function
 6816              	VL53L0X_GetWrapAroundCheckEnable:
 6817              	.LFB66:
 6818              		.loc 1 2002 0
 6819              		.cfi_startproc
 6820              		@ args = 0, pretend = 0, frame = 16
 6821              		@ frame_needed = 0, uses_anonymous_args = 0
 6822 0000 00B5     		push	{lr}
 6823              		.cfi_def_cfa_offset 4
 6824              		.cfi_offset 14, -4
 6825 0002 85B0     		sub	sp, sp, #20
 6826              		.cfi_def_cfa_offset 24
 6827 0004 0190     		str	r0, [sp, #4]
 6828 0006 0091     		str	r1, [sp]
 6829              		.loc 1 2002 0
 6830 0008 1D4B     		ldr	r3, .L530
 6831 000a 1B68     		ldr	r3, [r3]
 6832 000c 0393     		str	r3, [sp, #12]
 6833              		.loc 1 2003 0
 6834 000e 0023     		movs	r3, #0
 6835 0010 8DF80B30 		strb	r3, [sp, #11]
 6836              		.loc 1 2008 0
 6837 0014 0DF10A03 		add	r3, sp, #10
 6838 0018 1A46     		mov	r2, r3
 6839 001a 0121     		movs	r1, #1
 6840 001c 0198     		ldr	r0, [sp, #4]
ARM GAS  C:\Users\PCHAUT~1\AppData\Local\Temp\ccZvjaUR.s 			page 121


 6841 001e FFF7FEFF 		bl	VL53L0X_RdByte
 6842 0022 0346     		mov	r3, r0
 6843 0024 8DF80B30 		strb	r3, [sp, #11]
 6844              		.loc 1 2009 0
 6845 0028 9DF90B30 		ldrsb	r3, [sp, #11]
 6846 002c 002B     		cmp	r3, #0
 6847 002e 10D1     		bne	.L525
 6848              		.loc 1 2010 0
 6849 0030 9DF80A20 		ldrb	r2, [sp, #10]	@ zero_extendqisi2
 6850 0034 019B     		ldr	r3, [sp, #4]
 6851 0036 83F83021 		strb	r2, [r3, #304]
 6852              		.loc 1 2011 0
 6853 003a 9DF80A30 		ldrb	r3, [sp, #10]	@ zero_extendqisi2
 6854 003e 5BB2     		sxtb	r3, r3
 6855 0040 002B     		cmp	r3, #0
 6856 0042 03DA     		bge	.L526
 6857              		.loc 1 2012 0
 6858 0044 009B     		ldr	r3, [sp]
 6859 0046 0122     		movs	r2, #1
 6860 0048 1A70     		strb	r2, [r3]
 6861 004a 02E0     		b	.L525
 6862              	.L526:
 6863              		.loc 1 2014 0
 6864 004c 009B     		ldr	r3, [sp]
 6865 004e 0022     		movs	r2, #0
 6866 0050 1A70     		strb	r2, [r3]
 6867              	.L525:
 6868              		.loc 1 2016 0
 6869 0052 9DF90B30 		ldrsb	r3, [sp, #11]
 6870 0056 002B     		cmp	r3, #0
 6871 0058 04D1     		bne	.L527
 6872              		.loc 1 2017 0
 6873 005a 009B     		ldr	r3, [sp]
 6874 005c 1A78     		ldrb	r2, [r3]	@ zero_extendqisi2
 6875 005e 019B     		ldr	r3, [sp, #4]
 6876 0060 83F84C20 		strb	r2, [r3, #76]
 6877              	.L527:
 6878              		.loc 1 2022 0
 6879 0064 9DF90B30 		ldrsb	r3, [sp, #11]
 6880              		.loc 1 2023 0
 6881 0068 1846     		mov	r0, r3
 6882 006a 054B     		ldr	r3, .L530
 6883 006c 039A     		ldr	r2, [sp, #12]
 6884 006e 1B68     		ldr	r3, [r3]
 6885 0070 9A42     		cmp	r2, r3
 6886 0072 01D0     		beq	.L529
 6887 0074 FFF7FEFF 		bl	__stack_chk_fail
 6888              	.L529:
 6889 0078 05B0     		add	sp, sp, #20
 6890              		.cfi_def_cfa_offset 4
 6891              		@ sp needed
 6892 007a 5DF804FB 		ldr	pc, [sp], #4
 6893              	.L531:
 6894 007e 00BF     		.align	2
 6895              	.L530:
 6896 0080 00000000 		.word	__stack_chk_guard
 6897              		.cfi_endproc
ARM GAS  C:\Users\PCHAUT~1\AppData\Local\Temp\ccZvjaUR.s 			page 122


 6898              	.LFE66:
 6899              		.size	VL53L0X_GetWrapAroundCheckEnable, .-VL53L0X_GetWrapAroundCheckEnable
 6900              		.section	.text.VL53L0X_SetDmaxCalParameters,"ax",%progbits
 6901              		.align	1
 6902              		.p2align 4,,15
 6903              		.global	VL53L0X_SetDmaxCalParameters
 6904              		.syntax unified
 6905              		.thumb
 6906              		.thumb_func
 6907              		.fpu fpv4-sp-d16
 6908              		.type	VL53L0X_SetDmaxCalParameters, %function
 6909              	VL53L0X_SetDmaxCalParameters:
 6910              	.LFB67:
 6911              		.loc 1 2027 0
 6912              		.cfi_startproc
 6913              		@ args = 0, pretend = 0, frame = 32
 6914              		@ frame_needed = 0, uses_anonymous_args = 0
 6915 0000 00B5     		push	{lr}
 6916              		.cfi_def_cfa_offset 4
 6917              		.cfi_offset 14, -4
 6918 0002 89B0     		sub	sp, sp, #36
 6919              		.cfi_def_cfa_offset 40
 6920 0004 0390     		str	r0, [sp, #12]
 6921 0006 0B46     		mov	r3, r1
 6922 0008 0192     		str	r2, [sp, #4]
 6923 000a ADF80A30 		strh	r3, [sp, #10]	@ movhi
 6924              		.loc 1 2027 0
 6925 000e 1B4B     		ldr	r3, .L538
 6926 0010 1B68     		ldr	r3, [r3]
 6927 0012 0793     		str	r3, [sp, #28]
 6928              		.loc 1 2028 0
 6929 0014 0023     		movs	r3, #0
 6930 0016 8DF81730 		strb	r3, [sp, #23]
 6931              		.loc 1 2029 0
 6932 001a 0023     		movs	r3, #0
 6933 001c 0693     		str	r3, [sp, #24]
 6934              		.loc 1 2035 0
 6935 001e BDF80A30 		ldrh	r3, [sp, #10]
 6936 0022 002B     		cmp	r3, #0
 6937 0024 02D0     		beq	.L533
 6938              		.loc 1 2035 0 is_stmt 0 discriminator 1
 6939 0026 019B     		ldr	r3, [sp, #4]
 6940 0028 002B     		cmp	r3, #0
 6941 002a 11D1     		bne	.L534
 6942              	.L533:
 6943              		.loc 1 2040 0 is_stmt 1
 6944 002c 0421     		movs	r1, #4
 6945 002e 0398     		ldr	r0, [sp, #12]
 6946 0030 FFF7FEFF 		bl	VL53L0X_get_info_from_device
 6947              		.loc 1 2042 0
 6948 0034 039B     		ldr	r3, [sp, #12]
 6949 0036 D3F82031 		ldr	r3, [r3, #288]
 6950 003a 0693     		str	r3, [sp, #24]
 6951              		.loc 1 2045 0
 6952 003c 039B     		ldr	r3, [sp, #12]
 6953 003e 4FF4C872 		mov	r2, #400
 6954 0042 A3F85421 		strh	r2, [r3, #340]	@ movhi
ARM GAS  C:\Users\PCHAUT~1\AppData\Local\Temp\ccZvjaUR.s 			page 123


 6955              		.loc 1 2046 0
 6956 0046 039B     		ldr	r3, [sp, #12]
 6957 0048 069A     		ldr	r2, [sp, #24]
 6958 004a C3F85821 		str	r2, [r3, #344]
 6959 004e 08E0     		b	.L535
 6960              	.L534:
 6961              		.loc 1 2050 0
 6962 0050 039B     		ldr	r3, [sp, #12]
 6963 0052 BDF80A20 		ldrh	r2, [sp, #10]	@ movhi
 6964 0056 A3F85421 		strh	r2, [r3, #340]	@ movhi
 6965              		.loc 1 2051 0
 6966 005a 039B     		ldr	r3, [sp, #12]
 6967 005c 019A     		ldr	r2, [sp, #4]
 6968 005e C3F85821 		str	r2, [r3, #344]
 6969              	.L535:
 6970              		.loc 1 2056 0
 6971 0062 9DF91730 		ldrsb	r3, [sp, #23]
 6972              		.loc 1 2057 0
 6973 0066 1846     		mov	r0, r3
 6974 0068 044B     		ldr	r3, .L538
 6975 006a 079A     		ldr	r2, [sp, #28]
 6976 006c 1B68     		ldr	r3, [r3]
 6977 006e 9A42     		cmp	r2, r3
 6978 0070 01D0     		beq	.L537
 6979 0072 FFF7FEFF 		bl	__stack_chk_fail
 6980              	.L537:
 6981 0076 09B0     		add	sp, sp, #36
 6982              		.cfi_def_cfa_offset 4
 6983              		@ sp needed
 6984 0078 5DF804FB 		ldr	pc, [sp], #4
 6985              	.L539:
 6986              		.align	2
 6987              	.L538:
 6988 007c 00000000 		.word	__stack_chk_guard
 6989              		.cfi_endproc
 6990              	.LFE67:
 6991              		.size	VL53L0X_SetDmaxCalParameters, .-VL53L0X_SetDmaxCalParameters
 6992              		.section	.text.VL53L0X_GetDmaxCalParameters,"ax",%progbits
 6993              		.align	1
 6994              		.p2align 4,,15
 6995              		.global	VL53L0X_GetDmaxCalParameters
 6996              		.syntax unified
 6997              		.thumb
 6998              		.thumb_func
 6999              		.fpu fpv4-sp-d16
 7000              		.type	VL53L0X_GetDmaxCalParameters, %function
 7001              	VL53L0X_GetDmaxCalParameters:
 7002              	.LFB68:
 7003              		.loc 1 2061 0
 7004              		.cfi_startproc
 7005              		@ args = 0, pretend = 0, frame = 24
 7006              		@ frame_needed = 0, uses_anonymous_args = 0
 7007 0000 00B5     		push	{lr}
 7008              		.cfi_def_cfa_offset 4
 7009              		.cfi_offset 14, -4
 7010 0002 87B0     		sub	sp, sp, #28
 7011              		.cfi_def_cfa_offset 32
ARM GAS  C:\Users\PCHAUT~1\AppData\Local\Temp\ccZvjaUR.s 			page 124


 7012 0004 0390     		str	r0, [sp, #12]
 7013 0006 0291     		str	r1, [sp, #8]
 7014 0008 0192     		str	r2, [sp, #4]
 7015              		.loc 1 2061 0
 7016 000a 0E4B     		ldr	r3, .L543
 7017 000c 1B68     		ldr	r3, [r3]
 7018 000e 0593     		str	r3, [sp, #20]
 7019              		.loc 1 2062 0
 7020 0010 0023     		movs	r3, #0
 7021 0012 8DF81330 		strb	r3, [sp, #19]
 7022              		.loc 1 2066 0
 7023 0016 039B     		ldr	r3, [sp, #12]
 7024 0018 B3F85421 		ldrh	r2, [r3, #340]
 7025 001c 029B     		ldr	r3, [sp, #8]
 7026 001e 1A80     		strh	r2, [r3]	@ movhi
 7027              		.loc 1 2067 0
 7028 0020 039B     		ldr	r3, [sp, #12]
 7029 0022 D3F85821 		ldr	r2, [r3, #344]
 7030 0026 019B     		ldr	r3, [sp, #4]
 7031 0028 1A60     		str	r2, [r3]
 7032              		.loc 1 2071 0
 7033 002a 9DF91330 		ldrsb	r3, [sp, #19]
 7034              		.loc 1 2072 0
 7035 002e 1846     		mov	r0, r3
 7036 0030 044B     		ldr	r3, .L543
 7037 0032 059A     		ldr	r2, [sp, #20]
 7038 0034 1B68     		ldr	r3, [r3]
 7039 0036 9A42     		cmp	r2, r3
 7040 0038 01D0     		beq	.L542
 7041 003a FFF7FEFF 		bl	__stack_chk_fail
 7042              	.L542:
 7043 003e 07B0     		add	sp, sp, #28
 7044              		.cfi_def_cfa_offset 4
 7045              		@ sp needed
 7046 0040 5DF804FB 		ldr	pc, [sp], #4
 7047              	.L544:
 7048              		.align	2
 7049              	.L543:
 7050 0044 00000000 		.word	__stack_chk_guard
 7051              		.cfi_endproc
 7052              	.LFE68:
 7053              		.size	VL53L0X_GetDmaxCalParameters, .-VL53L0X_GetDmaxCalParameters
 7054              		.section	.text.VL53L0X_PerformSingleMeasurement,"ax",%progbits
 7055              		.align	1
 7056              		.p2align 4,,15
 7057              		.global	VL53L0X_PerformSingleMeasurement
 7058              		.syntax unified
 7059              		.thumb
 7060              		.thumb_func
 7061              		.fpu fpv4-sp-d16
 7062              		.type	VL53L0X_PerformSingleMeasurement, %function
 7063              	VL53L0X_PerformSingleMeasurement:
 7064              	.LFB69:
 7065              		.loc 1 2078 0
 7066              		.cfi_startproc
 7067              		@ args = 0, pretend = 0, frame = 16
 7068              		@ frame_needed = 0, uses_anonymous_args = 0
ARM GAS  C:\Users\PCHAUT~1\AppData\Local\Temp\ccZvjaUR.s 			page 125


 7069 0000 00B5     		push	{lr}
 7070              		.cfi_def_cfa_offset 4
 7071              		.cfi_offset 14, -4
 7072 0002 85B0     		sub	sp, sp, #20
 7073              		.cfi_def_cfa_offset 24
 7074 0004 0190     		str	r0, [sp, #4]
 7075              		.loc 1 2078 0
 7076 0006 204B     		ldr	r3, .L551
 7077 0008 1B68     		ldr	r3, [r3]
 7078 000a 0393     		str	r3, [sp, #12]
 7079              		.loc 1 2079 0
 7080 000c 0023     		movs	r3, #0
 7081 000e 8DF80B30 		strb	r3, [sp, #11]
 7082              		.loc 1 2085 0
 7083 0012 0DF10A03 		add	r3, sp, #10
 7084 0016 1946     		mov	r1, r3
 7085 0018 0198     		ldr	r0, [sp, #4]
 7086 001a FFF7FEFF 		bl	VL53L0X_GetDeviceMode
 7087 001e 0346     		mov	r3, r0
 7088 0020 8DF80B30 		strb	r3, [sp, #11]
 7089              		.loc 1 2089 0
 7090 0024 9DF90B30 		ldrsb	r3, [sp, #11]
 7091 0028 002B     		cmp	r3, #0
 7092 002a 09D1     		bne	.L546
 7093              		.loc 1 2090 0
 7094 002c 9DF80A30 		ldrb	r3, [sp, #10]	@ zero_extendqisi2
 7095 0030 002B     		cmp	r3, #0
 7096 0032 05D1     		bne	.L546
 7097              		.loc 1 2091 0
 7098 0034 0198     		ldr	r0, [sp, #4]
 7099 0036 FFF7FEFF 		bl	VL53L0X_StartMeasurement
 7100 003a 0346     		mov	r3, r0
 7101 003c 8DF80B30 		strb	r3, [sp, #11]
 7102              	.L546:
 7103              		.loc 1 2094 0
 7104 0040 9DF90B30 		ldrsb	r3, [sp, #11]
 7105 0044 002B     		cmp	r3, #0
 7106 0046 05D1     		bne	.L547
 7107              		.loc 1 2095 0
 7108 0048 0198     		ldr	r0, [sp, #4]
 7109 004a FFF7FEFF 		bl	VL53L0X_measurement_poll_for_completion
 7110 004e 0346     		mov	r3, r0
 7111 0050 8DF80B30 		strb	r3, [sp, #11]
 7112              	.L547:
 7113              		.loc 1 2099 0
 7114 0054 9DF90B30 		ldrsb	r3, [sp, #11]
 7115 0058 002B     		cmp	r3, #0
 7116 005a 07D1     		bne	.L548
 7117              		.loc 1 2100 0
 7118 005c 9DF80A30 		ldrb	r3, [sp, #10]	@ zero_extendqisi2
 7119 0060 002B     		cmp	r3, #0
 7120 0062 03D1     		bne	.L548
 7121              		.loc 1 2101 0
 7122 0064 019B     		ldr	r3, [sp, #4]
 7123 0066 0322     		movs	r2, #3
 7124 0068 83F83221 		strb	r2, [r3, #306]
 7125              	.L548:
ARM GAS  C:\Users\PCHAUT~1\AppData\Local\Temp\ccZvjaUR.s 			page 126


 7126              		.loc 1 2105 0
 7127 006c 9DF90B30 		ldrsb	r3, [sp, #11]
 7128              		.loc 1 2106 0
 7129 0070 1846     		mov	r0, r3
 7130 0072 054B     		ldr	r3, .L551
 7131 0074 039A     		ldr	r2, [sp, #12]
 7132 0076 1B68     		ldr	r3, [r3]
 7133 0078 9A42     		cmp	r2, r3
 7134 007a 01D0     		beq	.L550
 7135 007c FFF7FEFF 		bl	__stack_chk_fail
 7136              	.L550:
 7137 0080 05B0     		add	sp, sp, #20
 7138              		.cfi_def_cfa_offset 4
 7139              		@ sp needed
 7140 0082 5DF804FB 		ldr	pc, [sp], #4
 7141              	.L552:
 7142 0086 00BF     		.align	2
 7143              	.L551:
 7144 0088 00000000 		.word	__stack_chk_guard
 7145              		.cfi_endproc
 7146              	.LFE69:
 7147              		.size	VL53L0X_PerformSingleMeasurement, .-VL53L0X_PerformSingleMeasurement
 7148              		.section	.text.VL53L0X_PerformSingleHistogramMeasurement,"ax",%progbits
 7149              		.align	1
 7150              		.p2align 4,,15
 7151              		.global	VL53L0X_PerformSingleHistogramMeasurement
 7152              		.syntax unified
 7153              		.thumb
 7154              		.thumb_func
 7155              		.fpu fpv4-sp-d16
 7156              		.type	VL53L0X_PerformSingleHistogramMeasurement, %function
 7157              	VL53L0X_PerformSingleHistogramMeasurement:
 7158              	.LFB70:
 7159              		.loc 1 2110 0
 7160              		.cfi_startproc
 7161              		@ args = 0, pretend = 0, frame = 16
 7162              		@ frame_needed = 0, uses_anonymous_args = 0
 7163 0000 00B5     		push	{lr}
 7164              		.cfi_def_cfa_offset 4
 7165              		.cfi_offset 14, -4
 7166 0002 85B0     		sub	sp, sp, #20
 7167              		.cfi_def_cfa_offset 24
 7168 0004 0190     		str	r0, [sp, #4]
 7169 0006 0091     		str	r1, [sp]
 7170              		.loc 1 2110 0
 7171 0008 094B     		ldr	r3, .L556
 7172 000a 1B68     		ldr	r3, [r3]
 7173 000c 0393     		str	r3, [sp, #12]
 7174              		.loc 1 2111 0
 7175 000e 9D23     		movs	r3, #157
 7176 0010 8DF80B30 		strb	r3, [sp, #11]
 7177              		.loc 1 2119 0
 7178 0014 9DF90B30 		ldrsb	r3, [sp, #11]
 7179              		.loc 1 2120 0
 7180 0018 1846     		mov	r0, r3
 7181 001a 054B     		ldr	r3, .L556
 7182 001c 039A     		ldr	r2, [sp, #12]
ARM GAS  C:\Users\PCHAUT~1\AppData\Local\Temp\ccZvjaUR.s 			page 127


 7183 001e 1B68     		ldr	r3, [r3]
 7184 0020 9A42     		cmp	r2, r3
 7185 0022 01D0     		beq	.L555
 7186 0024 FFF7FEFF 		bl	__stack_chk_fail
 7187              	.L555:
 7188 0028 05B0     		add	sp, sp, #20
 7189              		.cfi_def_cfa_offset 4
 7190              		@ sp needed
 7191 002a 5DF804FB 		ldr	pc, [sp], #4
 7192              	.L557:
 7193 002e 00BF     		.align	2
 7194              	.L556:
 7195 0030 00000000 		.word	__stack_chk_guard
 7196              		.cfi_endproc
 7197              	.LFE70:
 7198              		.size	VL53L0X_PerformSingleHistogramMeasurement, .-VL53L0X_PerformSingleHistogramMeasurement
 7199              		.section	.text.VL53L0X_PerformRefCalibration,"ax",%progbits
 7200              		.align	1
 7201              		.p2align 4,,15
 7202              		.global	VL53L0X_PerformRefCalibration
 7203              		.syntax unified
 7204              		.thumb
 7205              		.thumb_func
 7206              		.fpu fpv4-sp-d16
 7207              		.type	VL53L0X_PerformRefCalibration, %function
 7208              	VL53L0X_PerformRefCalibration:
 7209              	.LFB71:
 7210              		.loc 1 2124 0
 7211              		.cfi_startproc
 7212              		@ args = 0, pretend = 0, frame = 24
 7213              		@ frame_needed = 0, uses_anonymous_args = 0
 7214 0000 00B5     		push	{lr}
 7215              		.cfi_def_cfa_offset 4
 7216              		.cfi_offset 14, -4
 7217 0002 87B0     		sub	sp, sp, #28
 7218              		.cfi_def_cfa_offset 32
 7219 0004 0390     		str	r0, [sp, #12]
 7220 0006 0291     		str	r1, [sp, #8]
 7221 0008 0192     		str	r2, [sp, #4]
 7222              		.loc 1 2124 0
 7223 000a 0E4B     		ldr	r3, .L561
 7224 000c 1B68     		ldr	r3, [r3]
 7225 000e 0593     		str	r3, [sp, #20]
 7226              		.loc 1 2125 0
 7227 0010 0023     		movs	r3, #0
 7228 0012 8DF81330 		strb	r3, [sp, #19]
 7229              		.loc 1 2128 0
 7230 0016 0123     		movs	r3, #1
 7231 0018 019A     		ldr	r2, [sp, #4]
 7232 001a 0299     		ldr	r1, [sp, #8]
 7233 001c 0398     		ldr	r0, [sp, #12]
 7234 001e FFF7FEFF 		bl	VL53L0X_perform_ref_calibration
 7235 0022 0346     		mov	r3, r0
 7236 0024 8DF81330 		strb	r3, [sp, #19]
 7237              		.loc 1 2132 0
 7238 0028 9DF91330 		ldrsb	r3, [sp, #19]
 7239              		.loc 1 2133 0
ARM GAS  C:\Users\PCHAUT~1\AppData\Local\Temp\ccZvjaUR.s 			page 128


 7240 002c 1846     		mov	r0, r3
 7241 002e 054B     		ldr	r3, .L561
 7242 0030 059A     		ldr	r2, [sp, #20]
 7243 0032 1B68     		ldr	r3, [r3]
 7244 0034 9A42     		cmp	r2, r3
 7245 0036 01D0     		beq	.L560
 7246 0038 FFF7FEFF 		bl	__stack_chk_fail
 7247              	.L560:
 7248 003c 07B0     		add	sp, sp, #28
 7249              		.cfi_def_cfa_offset 4
 7250              		@ sp needed
 7251 003e 5DF804FB 		ldr	pc, [sp], #4
 7252              	.L562:
 7253 0042 00BF     		.align	2
 7254              	.L561:
 7255 0044 00000000 		.word	__stack_chk_guard
 7256              		.cfi_endproc
 7257              	.LFE71:
 7258              		.size	VL53L0X_PerformRefCalibration, .-VL53L0X_PerformRefCalibration
 7259              		.section	.text.VL53L0X_PerformXTalkMeasurement,"ax",%progbits
 7260              		.align	1
 7261              		.p2align 4,,15
 7262              		.global	VL53L0X_PerformXTalkMeasurement
 7263              		.syntax unified
 7264              		.thumb
 7265              		.thumb_func
 7266              		.fpu fpv4-sp-d16
 7267              		.type	VL53L0X_PerformXTalkMeasurement, %function
 7268              	VL53L0X_PerformXTalkMeasurement:
 7269              	.LFB72:
 7270              		.loc 1 2138 0
 7271              		.cfi_startproc
 7272              		@ args = 0, pretend = 0, frame = 24
 7273              		@ frame_needed = 0, uses_anonymous_args = 0
 7274 0000 00B5     		push	{lr}
 7275              		.cfi_def_cfa_offset 4
 7276              		.cfi_offset 14, -4
 7277 0002 87B0     		sub	sp, sp, #28
 7278              		.cfi_def_cfa_offset 32
 7279 0004 0390     		str	r0, [sp, #12]
 7280 0006 0291     		str	r1, [sp, #8]
 7281 0008 0192     		str	r2, [sp, #4]
 7282 000a 0093     		str	r3, [sp]
 7283              		.loc 1 2138 0
 7284 000c 094B     		ldr	r3, .L566
 7285 000e 1B68     		ldr	r3, [r3]
 7286 0010 0593     		str	r3, [sp, #20]
 7287              		.loc 1 2139 0
 7288 0012 9D23     		movs	r3, #157
 7289 0014 8DF81330 		strb	r3, [sp, #19]
 7290              		.loc 1 2149 0
 7291 0018 9DF91330 		ldrsb	r3, [sp, #19]
 7292              		.loc 1 2150 0
 7293 001c 1846     		mov	r0, r3
 7294 001e 054B     		ldr	r3, .L566
 7295 0020 059A     		ldr	r2, [sp, #20]
 7296 0022 1B68     		ldr	r3, [r3]
ARM GAS  C:\Users\PCHAUT~1\AppData\Local\Temp\ccZvjaUR.s 			page 129


 7297 0024 9A42     		cmp	r2, r3
 7298 0026 01D0     		beq	.L565
 7299 0028 FFF7FEFF 		bl	__stack_chk_fail
 7300              	.L565:
 7301 002c 07B0     		add	sp, sp, #28
 7302              		.cfi_def_cfa_offset 4
 7303              		@ sp needed
 7304 002e 5DF804FB 		ldr	pc, [sp], #4
 7305              	.L567:
 7306 0032 00BF     		.align	2
 7307              	.L566:
 7308 0034 00000000 		.word	__stack_chk_guard
 7309              		.cfi_endproc
 7310              	.LFE72:
 7311              		.size	VL53L0X_PerformXTalkMeasurement, .-VL53L0X_PerformXTalkMeasurement
 7312              		.section	.text.VL53L0X_PerformXTalkCalibration,"ax",%progbits
 7313              		.align	1
 7314              		.p2align 4,,15
 7315              		.global	VL53L0X_PerformXTalkCalibration
 7316              		.syntax unified
 7317              		.thumb
 7318              		.thumb_func
 7319              		.fpu fpv4-sp-d16
 7320              		.type	VL53L0X_PerformXTalkCalibration, %function
 7321              	VL53L0X_PerformXTalkCalibration:
 7322              	.LFB73:
 7323              		.loc 1 2155 0
 7324              		.cfi_startproc
 7325              		@ args = 0, pretend = 0, frame = 24
 7326              		@ frame_needed = 0, uses_anonymous_args = 0
 7327 0000 00B5     		push	{lr}
 7328              		.cfi_def_cfa_offset 4
 7329              		.cfi_offset 14, -4
 7330 0002 87B0     		sub	sp, sp, #28
 7331              		.cfi_def_cfa_offset 32
 7332 0004 0390     		str	r0, [sp, #12]
 7333 0006 0291     		str	r1, [sp, #8]
 7334 0008 0192     		str	r2, [sp, #4]
 7335              		.loc 1 2155 0
 7336 000a 0D4B     		ldr	r3, .L571
 7337 000c 1B68     		ldr	r3, [r3]
 7338 000e 0593     		str	r3, [sp, #20]
 7339              		.loc 1 2156 0
 7340 0010 0023     		movs	r3, #0
 7341 0012 8DF81330 		strb	r3, [sp, #19]
 7342              		.loc 1 2159 0
 7343 0016 019A     		ldr	r2, [sp, #4]
 7344 0018 0299     		ldr	r1, [sp, #8]
 7345 001a 0398     		ldr	r0, [sp, #12]
 7346 001c FFF7FEFF 		bl	VL53L0X_perform_xtalk_calibration
 7347 0020 0346     		mov	r3, r0
 7348 0022 8DF81330 		strb	r3, [sp, #19]
 7349              		.loc 1 2163 0
 7350 0026 9DF91330 		ldrsb	r3, [sp, #19]
 7351              		.loc 1 2164 0
 7352 002a 1846     		mov	r0, r3
 7353 002c 044B     		ldr	r3, .L571
ARM GAS  C:\Users\PCHAUT~1\AppData\Local\Temp\ccZvjaUR.s 			page 130


 7354 002e 059A     		ldr	r2, [sp, #20]
 7355 0030 1B68     		ldr	r3, [r3]
 7356 0032 9A42     		cmp	r2, r3
 7357 0034 01D0     		beq	.L570
 7358 0036 FFF7FEFF 		bl	__stack_chk_fail
 7359              	.L570:
 7360 003a 07B0     		add	sp, sp, #28
 7361              		.cfi_def_cfa_offset 4
 7362              		@ sp needed
 7363 003c 5DF804FB 		ldr	pc, [sp], #4
 7364              	.L572:
 7365              		.align	2
 7366              	.L571:
 7367 0040 00000000 		.word	__stack_chk_guard
 7368              		.cfi_endproc
 7369              	.LFE73:
 7370              		.size	VL53L0X_PerformXTalkCalibration, .-VL53L0X_PerformXTalkCalibration
 7371              		.section	.text.VL53L0X_PerformOffsetCalibration,"ax",%progbits
 7372              		.align	1
 7373              		.p2align 4,,15
 7374              		.global	VL53L0X_PerformOffsetCalibration
 7375              		.syntax unified
 7376              		.thumb
 7377              		.thumb_func
 7378              		.fpu fpv4-sp-d16
 7379              		.type	VL53L0X_PerformOffsetCalibration, %function
 7380              	VL53L0X_PerformOffsetCalibration:
 7381              	.LFB74:
 7382              		.loc 1 2168 0
 7383              		.cfi_startproc
 7384              		@ args = 0, pretend = 0, frame = 24
 7385              		@ frame_needed = 0, uses_anonymous_args = 0
 7386 0000 00B5     		push	{lr}
 7387              		.cfi_def_cfa_offset 4
 7388              		.cfi_offset 14, -4
 7389 0002 87B0     		sub	sp, sp, #28
 7390              		.cfi_def_cfa_offset 32
 7391 0004 0390     		str	r0, [sp, #12]
 7392 0006 0291     		str	r1, [sp, #8]
 7393 0008 0192     		str	r2, [sp, #4]
 7394              		.loc 1 2168 0
 7395 000a 0D4B     		ldr	r3, .L576
 7396 000c 1B68     		ldr	r3, [r3]
 7397 000e 0593     		str	r3, [sp, #20]
 7398              		.loc 1 2169 0
 7399 0010 0023     		movs	r3, #0
 7400 0012 8DF81330 		strb	r3, [sp, #19]
 7401              		.loc 1 2172 0
 7402 0016 019A     		ldr	r2, [sp, #4]
 7403 0018 0299     		ldr	r1, [sp, #8]
 7404 001a 0398     		ldr	r0, [sp, #12]
 7405 001c FFF7FEFF 		bl	VL53L0X_perform_offset_calibration
 7406 0020 0346     		mov	r3, r0
 7407 0022 8DF81330 		strb	r3, [sp, #19]
 7408              		.loc 1 2176 0
 7409 0026 9DF91330 		ldrsb	r3, [sp, #19]
 7410              		.loc 1 2177 0
ARM GAS  C:\Users\PCHAUT~1\AppData\Local\Temp\ccZvjaUR.s 			page 131


 7411 002a 1846     		mov	r0, r3
 7412 002c 044B     		ldr	r3, .L576
 7413 002e 059A     		ldr	r2, [sp, #20]
 7414 0030 1B68     		ldr	r3, [r3]
 7415 0032 9A42     		cmp	r2, r3
 7416 0034 01D0     		beq	.L575
 7417 0036 FFF7FEFF 		bl	__stack_chk_fail
 7418              	.L575:
 7419 003a 07B0     		add	sp, sp, #28
 7420              		.cfi_def_cfa_offset 4
 7421              		@ sp needed
 7422 003c 5DF804FB 		ldr	pc, [sp], #4
 7423              	.L577:
 7424              		.align	2
 7425              	.L576:
 7426 0040 00000000 		.word	__stack_chk_guard
 7427              		.cfi_endproc
 7428              	.LFE74:
 7429              		.size	VL53L0X_PerformOffsetCalibration, .-VL53L0X_PerformOffsetCalibration
 7430              		.section	.text.VL53L0X_CheckAndLoadInterruptSettings,"ax",%progbits
 7431              		.align	1
 7432              		.p2align 4,,15
 7433              		.global	VL53L0X_CheckAndLoadInterruptSettings
 7434              		.syntax unified
 7435              		.thumb
 7436              		.thumb_func
 7437              		.fpu fpv4-sp-d16
 7438              		.type	VL53L0X_CheckAndLoadInterruptSettings, %function
 7439              	VL53L0X_CheckAndLoadInterruptSettings:
 7440              	.LFB75:
 7441              		.loc 1 2181 0
 7442              		.cfi_startproc
 7443              		@ args = 0, pretend = 0, frame = 24
 7444              		@ frame_needed = 0, uses_anonymous_args = 0
 7445 0000 00B5     		push	{lr}
 7446              		.cfi_def_cfa_offset 4
 7447              		.cfi_offset 14, -4
 7448 0002 87B0     		sub	sp, sp, #28
 7449              		.cfi_def_cfa_offset 32
 7450 0004 0190     		str	r0, [sp, #4]
 7451 0006 0B46     		mov	r3, r1
 7452 0008 8DF80330 		strb	r3, [sp, #3]
 7453              		.loc 1 2181 0
 7454 000c 3A4B     		ldr	r3, .L585
 7455 000e 1B68     		ldr	r3, [r3]
 7456 0010 0593     		str	r3, [sp, #20]
 7457              		.loc 1 2185 0
 7458 0012 0023     		movs	r3, #0
 7459 0014 8DF80A30 		strb	r3, [sp, #10]
 7460              		.loc 1 2187 0
 7461 0018 019B     		ldr	r3, [sp, #4]
 7462 001a 93F8DA30 		ldrb	r3, [r3, #218]
 7463 001e 8DF80B30 		strb	r3, [sp, #11]
 7464              		.loc 1 2190 0
 7465 0022 9DF80B30 		ldrb	r3, [sp, #11]	@ zero_extendqisi2
 7466 0026 012B     		cmp	r3, #1
 7467 0028 07D0     		beq	.L579
ARM GAS  C:\Users\PCHAUT~1\AppData\Local\Temp\ccZvjaUR.s 			page 132


 7468              		.loc 1 2191 0
 7469 002a 9DF80B30 		ldrb	r3, [sp, #11]	@ zero_extendqisi2
 7470 002e 022B     		cmp	r3, #2
 7471 0030 03D0     		beq	.L579
 7472              		.loc 1 2193 0
 7473 0032 9DF80B30 		ldrb	r3, [sp, #11]	@ zero_extendqisi2
 7474 0036 032B     		cmp	r3, #3
 7475 0038 50D1     		bne	.L580
 7476              	.L579:
 7477              		.loc 1 2197 0
 7478 003a 04AB     		add	r3, sp, #16
 7479 003c 03AA     		add	r2, sp, #12
 7480 003e 0121     		movs	r1, #1
 7481 0040 0198     		ldr	r0, [sp, #4]
 7482 0042 FFF7FEFF 		bl	VL53L0X_GetInterruptThresholds
 7483 0046 0346     		mov	r3, r0
 7484 0048 8DF80A30 		strb	r3, [sp, #10]
 7485              		.loc 1 2201 0
 7486 004c 039B     		ldr	r3, [sp, #12]
 7487 004e B3F57F0F 		cmp	r3, #16711680
 7488 0052 03D8     		bhi	.L581
 7489              		.loc 1 2202 0 discriminator 1
 7490 0054 049B     		ldr	r3, [sp, #16]
 7491              		.loc 1 2201 0 discriminator 1
 7492 0056 B3F57F0F 		cmp	r3, #16711680
 7493 005a 3FD9     		bls	.L580
 7494              	.L581:
 7495              		.loc 1 2202 0
 7496 005c 9DF90A30 		ldrsb	r3, [sp, #10]
 7497 0060 002B     		cmp	r3, #0
 7498 0062 3BD1     		bne	.L580
 7499              		.loc 1 2205 0
 7500 0064 9DF80330 		ldrb	r3, [sp, #3]	@ zero_extendqisi2
 7501 0068 002B     		cmp	r3, #0
 7502 006a 07D0     		beq	.L582
 7503              		.loc 1 2206 0
 7504 006c 2349     		ldr	r1, .L585+4
 7505 006e 0198     		ldr	r0, [sp, #4]
 7506 0070 FFF7FEFF 		bl	VL53L0X_load_tuning_settings
 7507 0074 0346     		mov	r3, r0
 7508 0076 8DF80A30 		strb	r3, [sp, #10]
 7509 007a 2FE0     		b	.L580
 7510              	.L582:
 7511              		.loc 1 2209 0
 7512 007c 0422     		movs	r2, #4
 7513 007e FF21     		movs	r1, #255
 7514 0080 0198     		ldr	r0, [sp, #4]
 7515 0082 FFF7FEFF 		bl	VL53L0X_WrByte
 7516 0086 0346     		mov	r3, r0
 7517 0088 1A46     		mov	r2, r3
 7518 008a 9DF80A30 		ldrb	r3, [sp, #10]
 7519 008e 1343     		orrs	r3, r3, r2
 7520 0090 8DF80A30 		strb	r3, [sp, #10]
 7521              		.loc 1 2210 0
 7522 0094 0022     		movs	r2, #0
 7523 0096 7021     		movs	r1, #112
 7524 0098 0198     		ldr	r0, [sp, #4]
ARM GAS  C:\Users\PCHAUT~1\AppData\Local\Temp\ccZvjaUR.s 			page 133


 7525 009a FFF7FEFF 		bl	VL53L0X_WrByte
 7526 009e 0346     		mov	r3, r0
 7527 00a0 1A46     		mov	r2, r3
 7528 00a2 9DF80A30 		ldrb	r3, [sp, #10]
 7529 00a6 1343     		orrs	r3, r3, r2
 7530 00a8 8DF80A30 		strb	r3, [sp, #10]
 7531              		.loc 1 2211 0
 7532 00ac 0022     		movs	r2, #0
 7533 00ae FF21     		movs	r1, #255
 7534 00b0 0198     		ldr	r0, [sp, #4]
 7535 00b2 FFF7FEFF 		bl	VL53L0X_WrByte
 7536 00b6 0346     		mov	r3, r0
 7537 00b8 1A46     		mov	r2, r3
 7538 00ba 9DF80A30 		ldrb	r3, [sp, #10]
 7539 00be 1343     		orrs	r3, r3, r2
 7540 00c0 8DF80A30 		strb	r3, [sp, #10]
 7541              		.loc 1 2212 0
 7542 00c4 0022     		movs	r2, #0
 7543 00c6 8021     		movs	r1, #128
 7544 00c8 0198     		ldr	r0, [sp, #4]
 7545 00ca FFF7FEFF 		bl	VL53L0X_WrByte
 7546 00ce 0346     		mov	r3, r0
 7547 00d0 1A46     		mov	r2, r3
 7548 00d2 9DF80A30 		ldrb	r3, [sp, #10]
 7549 00d6 1343     		orrs	r3, r3, r2
 7550 00d8 8DF80A30 		strb	r3, [sp, #10]
 7551              	.L580:
 7552              		.loc 1 2220 0
 7553 00dc 9DF90A30 		ldrsb	r3, [sp, #10]
 7554              		.loc 1 2222 0
 7555 00e0 1846     		mov	r0, r3
 7556 00e2 054B     		ldr	r3, .L585
 7557 00e4 059A     		ldr	r2, [sp, #20]
 7558 00e6 1B68     		ldr	r3, [r3]
 7559 00e8 9A42     		cmp	r2, r3
 7560 00ea 01D0     		beq	.L584
 7561 00ec FFF7FEFF 		bl	__stack_chk_fail
 7562              	.L584:
 7563 00f0 07B0     		add	sp, sp, #28
 7564              		.cfi_def_cfa_offset 4
 7565              		@ sp needed
 7566 00f2 5DF804FB 		ldr	pc, [sp], #4
 7567              	.L586:
 7568 00f6 00BF     		.align	2
 7569              	.L585:
 7570 00f8 00000000 		.word	__stack_chk_guard
 7571 00fc 00000000 		.word	InterruptThresholdSettings
 7572              		.cfi_endproc
 7573              	.LFE75:
 7574              		.size	VL53L0X_CheckAndLoadInterruptSettings, .-VL53L0X_CheckAndLoadInterruptSettings
 7575              		.section	.text.VL53L0X_StartMeasurement,"ax",%progbits
 7576              		.align	1
 7577              		.p2align 4,,15
 7578              		.global	VL53L0X_StartMeasurement
 7579              		.syntax unified
 7580              		.thumb
 7581              		.thumb_func
ARM GAS  C:\Users\PCHAUT~1\AppData\Local\Temp\ccZvjaUR.s 			page 134


 7582              		.fpu fpv4-sp-d16
 7583              		.type	VL53L0X_StartMeasurement, %function
 7584              	VL53L0X_StartMeasurement:
 7585              	.LFB76:
 7586              		.loc 1 2226 0
 7587              		.cfi_startproc
 7588              		@ args = 0, pretend = 0, frame = 24
 7589              		@ frame_needed = 0, uses_anonymous_args = 0
 7590 0000 00B5     		push	{lr}
 7591              		.cfi_def_cfa_offset 4
 7592              		.cfi_offset 14, -4
 7593 0002 87B0     		sub	sp, sp, #28
 7594              		.cfi_def_cfa_offset 32
 7595 0004 0190     		str	r0, [sp, #4]
 7596              		.loc 1 2226 0
 7597 0006 6D4B     		ldr	r3, .L607
 7598 0008 1B68     		ldr	r3, [r3]
 7599 000a 0593     		str	r3, [sp, #20]
 7600              		.loc 1 2227 0
 7601 000c 0023     		movs	r3, #0
 7602 000e 8DF80E30 		strb	r3, [sp, #14]
 7603              		.loc 1 2230 0
 7604 0012 0123     		movs	r3, #1
 7605 0014 8DF80F30 		strb	r3, [sp, #15]
 7606              		.loc 1 2235 0
 7607 0018 03AB     		add	r3, sp, #12
 7608 001a 1946     		mov	r1, r3
 7609 001c 0198     		ldr	r0, [sp, #4]
 7610 001e FFF7FEFF 		bl	VL53L0X_GetDeviceMode
 7611              		.loc 1 2237 0
 7612 0022 0122     		movs	r2, #1
 7613 0024 8021     		movs	r1, #128
 7614 0026 0198     		ldr	r0, [sp, #4]
 7615 0028 FFF7FEFF 		bl	VL53L0X_WrByte
 7616 002c 0346     		mov	r3, r0
 7617 002e 8DF80E30 		strb	r3, [sp, #14]
 7618              		.loc 1 2238 0
 7619 0032 0122     		movs	r2, #1
 7620 0034 FF21     		movs	r1, #255
 7621 0036 0198     		ldr	r0, [sp, #4]
 7622 0038 FFF7FEFF 		bl	VL53L0X_WrByte
 7623 003c 0346     		mov	r3, r0
 7624 003e 8DF80E30 		strb	r3, [sp, #14]
 7625              		.loc 1 2239 0
 7626 0042 0022     		movs	r2, #0
 7627 0044 0021     		movs	r1, #0
 7628 0046 0198     		ldr	r0, [sp, #4]
 7629 0048 FFF7FEFF 		bl	VL53L0X_WrByte
 7630 004c 0346     		mov	r3, r0
 7631 004e 8DF80E30 		strb	r3, [sp, #14]
 7632              		.loc 1 2240 0
 7633 0052 019B     		ldr	r3, [sp, #4]
 7634 0054 93F83A31 		ldrb	r3, [r3, #314]	@ zero_extendqisi2
 7635 0058 1A46     		mov	r2, r3
 7636 005a 9121     		movs	r1, #145
 7637 005c 0198     		ldr	r0, [sp, #4]
 7638 005e FFF7FEFF 		bl	VL53L0X_WrByte
ARM GAS  C:\Users\PCHAUT~1\AppData\Local\Temp\ccZvjaUR.s 			page 135


 7639 0062 0346     		mov	r3, r0
 7640 0064 8DF80E30 		strb	r3, [sp, #14]
 7641              		.loc 1 2241 0
 7642 0068 0122     		movs	r2, #1
 7643 006a 0021     		movs	r1, #0
 7644 006c 0198     		ldr	r0, [sp, #4]
 7645 006e FFF7FEFF 		bl	VL53L0X_WrByte
 7646 0072 0346     		mov	r3, r0
 7647 0074 8DF80E30 		strb	r3, [sp, #14]
 7648              		.loc 1 2242 0
 7649 0078 0022     		movs	r2, #0
 7650 007a FF21     		movs	r1, #255
 7651 007c 0198     		ldr	r0, [sp, #4]
 7652 007e FFF7FEFF 		bl	VL53L0X_WrByte
 7653 0082 0346     		mov	r3, r0
 7654 0084 8DF80E30 		strb	r3, [sp, #14]
 7655              		.loc 1 2243 0
 7656 0088 0022     		movs	r2, #0
 7657 008a 8021     		movs	r1, #128
 7658 008c 0198     		ldr	r0, [sp, #4]
 7659 008e FFF7FEFF 		bl	VL53L0X_WrByte
 7660 0092 0346     		mov	r3, r0
 7661 0094 8DF80E30 		strb	r3, [sp, #14]
 7662              		.loc 1 2245 0
 7663 0098 9DF80C30 		ldrb	r3, [sp, #12]	@ zero_extendqisi2
 7664 009c 012B     		cmp	r3, #1
 7665 009e 3FD0     		beq	.L589
 7666 00a0 032B     		cmp	r3, #3
 7667 00a2 59D0     		beq	.L590
 7668 00a4 002B     		cmp	r3, #0
 7669 00a6 73D1     		bne	.L603
 7670              		.loc 1 2247 0
 7671 00a8 0122     		movs	r2, #1
 7672 00aa 0021     		movs	r1, #0
 7673 00ac 0198     		ldr	r0, [sp, #4]
 7674 00ae FFF7FEFF 		bl	VL53L0X_WrByte
 7675 00b2 0346     		mov	r3, r0
 7676 00b4 8DF80E30 		strb	r3, [sp, #14]
 7677              		.loc 1 2249 0
 7678 00b8 9DF80F30 		ldrb	r3, [sp, #15]
 7679 00bc 8DF80D30 		strb	r3, [sp, #13]
 7680              		.loc 1 2250 0
 7681 00c0 9DF90E30 		ldrsb	r3, [sp, #14]
 7682 00c4 002B     		cmp	r3, #0
 7683 00c6 67D1     		bne	.L604
 7684              		.loc 1 2252 0
 7685 00c8 0023     		movs	r3, #0
 7686 00ca 0493     		str	r3, [sp, #16]
 7687              	.L595:
 7688              		.loc 1 2254 0
 7689 00cc 049B     		ldr	r3, [sp, #16]
 7690 00ce 002B     		cmp	r3, #0
 7691 00d0 09D0     		beq	.L593
 7692              		.loc 1 2255 0
 7693 00d2 0DF10D03 		add	r3, sp, #13
 7694 00d6 1A46     		mov	r2, r3
 7695 00d8 0021     		movs	r1, #0
ARM GAS  C:\Users\PCHAUT~1\AppData\Local\Temp\ccZvjaUR.s 			page 136


 7696 00da 0198     		ldr	r0, [sp, #4]
 7697 00dc FFF7FEFF 		bl	VL53L0X_RdByte
 7698 00e0 0346     		mov	r3, r0
 7699 00e2 8DF80E30 		strb	r3, [sp, #14]
 7700              	.L593:
 7701              		.loc 1 2257 0
 7702 00e6 049B     		ldr	r3, [sp, #16]
 7703 00e8 0133     		adds	r3, r3, #1
 7704 00ea 0493     		str	r3, [sp, #16]
 7705              		.loc 1 2258 0
 7706 00ec 9DF80D20 		ldrb	r2, [sp, #13]	@ zero_extendqisi2
 7707 00f0 9DF80F30 		ldrb	r3, [sp, #15]
 7708 00f4 1340     		ands	r3, r3, r2
 7709 00f6 DBB2     		uxtb	r3, r3
 7710              		.loc 1 2260 0
 7711 00f8 9DF80F20 		ldrb	r2, [sp, #15]	@ zero_extendqisi2
 7712 00fc 9A42     		cmp	r2, r3
 7713 00fe 07D1     		bne	.L594
 7714              		.loc 1 2259 0
 7715 0100 9DF90E30 		ldrsb	r3, [sp, #14]
 7716 0104 002B     		cmp	r3, #0
 7717 0106 03D1     		bne	.L594
 7718              		.loc 1 2260 0
 7719 0108 049B     		ldr	r3, [sp, #16]
 7720 010a B3F5FA6F 		cmp	r3, #2000
 7721 010e DDD3     		bcc	.L595
 7722              	.L594:
 7723              		.loc 1 2262 0
 7724 0110 049B     		ldr	r3, [sp, #16]
 7725 0112 B3F5FA6F 		cmp	r3, #2000
 7726 0116 3FD3     		bcc	.L604
 7727              		.loc 1 2263 0
 7728 0118 F923     		movs	r3, #249
 7729 011a 8DF80E30 		strb	r3, [sp, #14]
 7730              		.loc 1 2267 0
 7731 011e 3BE0     		b	.L604
 7732              	.L589:
 7733              		.loc 1 2272 0
 7734 0120 9DF90E30 		ldrsb	r3, [sp, #14]
 7735 0124 002B     		cmp	r3, #0
 7736 0126 06D1     		bne	.L597
 7737              		.loc 1 2273 0
 7738 0128 0121     		movs	r1, #1
 7739 012a 0198     		ldr	r0, [sp, #4]
 7740 012c FFF7FEFF 		bl	VL53L0X_CheckAndLoadInterruptSettings
 7741 0130 0346     		mov	r3, r0
 7742 0132 8DF80E30 		strb	r3, [sp, #14]
 7743              	.L597:
 7744              		.loc 1 2275 0
 7745 0136 0222     		movs	r2, #2
 7746 0138 0021     		movs	r1, #0
 7747 013a 0198     		ldr	r0, [sp, #4]
 7748 013c FFF7FEFF 		bl	VL53L0X_WrByte
 7749 0140 0346     		mov	r3, r0
 7750 0142 8DF80E30 		strb	r3, [sp, #14]
 7751              		.loc 1 2278 0
 7752 0146 9DF90E30 		ldrsb	r3, [sp, #14]
ARM GAS  C:\Users\PCHAUT~1\AppData\Local\Temp\ccZvjaUR.s 			page 137


 7753 014a 002B     		cmp	r3, #0
 7754 014c 26D1     		bne	.L605
 7755              		.loc 1 2280 0
 7756 014e 019B     		ldr	r3, [sp, #4]
 7757 0150 0422     		movs	r2, #4
 7758 0152 83F83221 		strb	r2, [r3, #306]
 7759              		.loc 1 2282 0
 7760 0156 21E0     		b	.L605
 7761              	.L590:
 7762              		.loc 1 2286 0
 7763 0158 9DF90E30 		ldrsb	r3, [sp, #14]
 7764 015c 002B     		cmp	r3, #0
 7765 015e 06D1     		bne	.L599
 7766              		.loc 1 2287 0
 7767 0160 0121     		movs	r1, #1
 7768 0162 0198     		ldr	r0, [sp, #4]
 7769 0164 FFF7FEFF 		bl	VL53L0X_CheckAndLoadInterruptSettings
 7770 0168 0346     		mov	r3, r0
 7771 016a 8DF80E30 		strb	r3, [sp, #14]
 7772              	.L599:
 7773              		.loc 1 2289 0
 7774 016e 0422     		movs	r2, #4
 7775 0170 0021     		movs	r1, #0
 7776 0172 0198     		ldr	r0, [sp, #4]
 7777 0174 FFF7FEFF 		bl	VL53L0X_WrByte
 7778 0178 0346     		mov	r3, r0
 7779 017a 8DF80E30 		strb	r3, [sp, #14]
 7780              		.loc 1 2293 0
 7781 017e 9DF90E30 		ldrsb	r3, [sp, #14]
 7782 0182 002B     		cmp	r3, #0
 7783 0184 0CD1     		bne	.L606
 7784              		.loc 1 2295 0
 7785 0186 019B     		ldr	r3, [sp, #4]
 7786 0188 0422     		movs	r2, #4
 7787 018a 83F83221 		strb	r2, [r3, #306]
 7788              		.loc 1 2297 0
 7789 018e 07E0     		b	.L606
 7790              	.L603:
 7791              		.loc 1 2300 0
 7792 0190 F823     		movs	r3, #248
 7793 0192 8DF80E30 		strb	r3, [sp, #14]
 7794 0196 04E0     		b	.L596
 7795              	.L604:
 7796              		.loc 1 2267 0
 7797 0198 00BF     		nop
 7798 019a 02E0     		b	.L596
 7799              	.L605:
 7800              		.loc 1 2282 0
 7801 019c 00BF     		nop
 7802 019e 00E0     		b	.L596
 7803              	.L606:
 7804              		.loc 1 2297 0
 7805 01a0 00BF     		nop
 7806              	.L596:
 7807              		.loc 1 2305 0
 7808 01a2 9DF90E30 		ldrsb	r3, [sp, #14]
 7809              		.loc 1 2306 0
ARM GAS  C:\Users\PCHAUT~1\AppData\Local\Temp\ccZvjaUR.s 			page 138


 7810 01a6 1846     		mov	r0, r3
 7811 01a8 044B     		ldr	r3, .L607
 7812 01aa 059A     		ldr	r2, [sp, #20]
 7813 01ac 1B68     		ldr	r3, [r3]
 7814 01ae 9A42     		cmp	r2, r3
 7815 01b0 01D0     		beq	.L602
 7816 01b2 FFF7FEFF 		bl	__stack_chk_fail
 7817              	.L602:
 7818 01b6 07B0     		add	sp, sp, #28
 7819              		.cfi_def_cfa_offset 4
 7820              		@ sp needed
 7821 01b8 5DF804FB 		ldr	pc, [sp], #4
 7822              	.L608:
 7823              		.align	2
 7824              	.L607:
 7825 01bc 00000000 		.word	__stack_chk_guard
 7826              		.cfi_endproc
 7827              	.LFE76:
 7828              		.size	VL53L0X_StartMeasurement, .-VL53L0X_StartMeasurement
 7829              		.section	.text.VL53L0X_StopMeasurement,"ax",%progbits
 7830              		.align	1
 7831              		.p2align 4,,15
 7832              		.global	VL53L0X_StopMeasurement
 7833              		.syntax unified
 7834              		.thumb
 7835              		.thumb_func
 7836              		.fpu fpv4-sp-d16
 7837              		.type	VL53L0X_StopMeasurement, %function
 7838              	VL53L0X_StopMeasurement:
 7839              	.LFB77:
 7840              		.loc 1 2309 0
 7841              		.cfi_startproc
 7842              		@ args = 0, pretend = 0, frame = 16
 7843              		@ frame_needed = 0, uses_anonymous_args = 0
 7844 0000 00B5     		push	{lr}
 7845              		.cfi_def_cfa_offset 4
 7846              		.cfi_offset 14, -4
 7847 0002 85B0     		sub	sp, sp, #20
 7848              		.cfi_def_cfa_offset 24
 7849 0004 0190     		str	r0, [sp, #4]
 7850              		.loc 1 2309 0
 7851 0006 2B4B     		ldr	r3, .L614
 7852 0008 1B68     		ldr	r3, [r3]
 7853 000a 0393     		str	r3, [sp, #12]
 7854              		.loc 1 2310 0
 7855 000c 0023     		movs	r3, #0
 7856 000e 8DF80B30 		strb	r3, [sp, #11]
 7857              		.loc 1 2313 0
 7858 0012 0022     		movs	r2, #0
 7859 0014 0021     		movs	r1, #0
 7860 0016 0198     		ldr	r0, [sp, #4]
 7861 0018 FFF7FEFF 		bl	VL53L0X_WrByte
 7862 001c 0346     		mov	r3, r0
 7863 001e 8DF80B30 		strb	r3, [sp, #11]
 7864              		.loc 1 2316 0
 7865 0022 0122     		movs	r2, #1
 7866 0024 FF21     		movs	r1, #255
ARM GAS  C:\Users\PCHAUT~1\AppData\Local\Temp\ccZvjaUR.s 			page 139


 7867 0026 0198     		ldr	r0, [sp, #4]
 7868 0028 FFF7FEFF 		bl	VL53L0X_WrByte
 7869 002c 0346     		mov	r3, r0
 7870 002e 8DF80B30 		strb	r3, [sp, #11]
 7871              		.loc 1 2317 0
 7872 0032 0022     		movs	r2, #0
 7873 0034 0021     		movs	r1, #0
 7874 0036 0198     		ldr	r0, [sp, #4]
 7875 0038 FFF7FEFF 		bl	VL53L0X_WrByte
 7876 003c 0346     		mov	r3, r0
 7877 003e 8DF80B30 		strb	r3, [sp, #11]
 7878              		.loc 1 2318 0
 7879 0042 0022     		movs	r2, #0
 7880 0044 9121     		movs	r1, #145
 7881 0046 0198     		ldr	r0, [sp, #4]
 7882 0048 FFF7FEFF 		bl	VL53L0X_WrByte
 7883 004c 0346     		mov	r3, r0
 7884 004e 8DF80B30 		strb	r3, [sp, #11]
 7885              		.loc 1 2319 0
 7886 0052 0122     		movs	r2, #1
 7887 0054 0021     		movs	r1, #0
 7888 0056 0198     		ldr	r0, [sp, #4]
 7889 0058 FFF7FEFF 		bl	VL53L0X_WrByte
 7890 005c 0346     		mov	r3, r0
 7891 005e 8DF80B30 		strb	r3, [sp, #11]
 7892              		.loc 1 2320 0
 7893 0062 0022     		movs	r2, #0
 7894 0064 FF21     		movs	r1, #255
 7895 0066 0198     		ldr	r0, [sp, #4]
 7896 0068 FFF7FEFF 		bl	VL53L0X_WrByte
 7897 006c 0346     		mov	r3, r0
 7898 006e 8DF80B30 		strb	r3, [sp, #11]
 7899              		.loc 1 2322 0
 7900 0072 9DF90B30 		ldrsb	r3, [sp, #11]
 7901 0076 002B     		cmp	r3, #0
 7902 0078 03D1     		bne	.L610
 7903              		.loc 1 2324 0
 7904 007a 019B     		ldr	r3, [sp, #4]
 7905 007c 0322     		movs	r2, #3
 7906 007e 83F83221 		strb	r2, [r3, #306]
 7907              	.L610:
 7908              		.loc 1 2328 0
 7909 0082 9DF90B30 		ldrsb	r3, [sp, #11]
 7910 0086 002B     		cmp	r3, #0
 7911 0088 06D1     		bne	.L611
 7912              		.loc 1 2329 0
 7913 008a 0021     		movs	r1, #0
 7914 008c 0198     		ldr	r0, [sp, #4]
 7915 008e FFF7FEFF 		bl	VL53L0X_CheckAndLoadInterruptSettings
 7916 0092 0346     		mov	r3, r0
 7917 0094 8DF80B30 		strb	r3, [sp, #11]
 7918              	.L611:
 7919              		.loc 1 2332 0
 7920 0098 9DF90B30 		ldrsb	r3, [sp, #11]
 7921              		.loc 1 2333 0
 7922 009c 1846     		mov	r0, r3
 7923 009e 054B     		ldr	r3, .L614
ARM GAS  C:\Users\PCHAUT~1\AppData\Local\Temp\ccZvjaUR.s 			page 140


 7924 00a0 039A     		ldr	r2, [sp, #12]
 7925 00a2 1B68     		ldr	r3, [r3]
 7926 00a4 9A42     		cmp	r2, r3
 7927 00a6 01D0     		beq	.L613
 7928 00a8 FFF7FEFF 		bl	__stack_chk_fail
 7929              	.L613:
 7930 00ac 05B0     		add	sp, sp, #20
 7931              		.cfi_def_cfa_offset 4
 7932              		@ sp needed
 7933 00ae 5DF804FB 		ldr	pc, [sp], #4
 7934              	.L615:
 7935 00b2 00BF     		.align	2
 7936              	.L614:
 7937 00b4 00000000 		.word	__stack_chk_guard
 7938              		.cfi_endproc
 7939              	.LFE77:
 7940              		.size	VL53L0X_StopMeasurement, .-VL53L0X_StopMeasurement
 7941              		.section	.text.VL53L0X_GetMeasurementDataReady,"ax",%progbits
 7942              		.align	1
 7943              		.p2align 4,,15
 7944              		.global	VL53L0X_GetMeasurementDataReady
 7945              		.syntax unified
 7946              		.thumb
 7947              		.thumb_func
 7948              		.fpu fpv4-sp-d16
 7949              		.type	VL53L0X_GetMeasurementDataReady, %function
 7950              	VL53L0X_GetMeasurementDataReady:
 7951              	.LFB78:
 7952              		.loc 1 2337 0
 7953              		.cfi_startproc
 7954              		@ args = 0, pretend = 0, frame = 24
 7955              		@ frame_needed = 0, uses_anonymous_args = 0
 7956 0000 00B5     		push	{lr}
 7957              		.cfi_def_cfa_offset 4
 7958              		.cfi_offset 14, -4
 7959 0002 87B0     		sub	sp, sp, #28
 7960              		.cfi_def_cfa_offset 32
 7961 0004 0190     		str	r0, [sp, #4]
 7962 0006 0091     		str	r1, [sp]
 7963              		.loc 1 2337 0
 7964 0008 244B     		ldr	r3, .L624
 7965 000a 1B68     		ldr	r3, [r3]
 7966 000c 0593     		str	r3, [sp, #20]
 7967              		.loc 1 2338 0
 7968 000e 0023     		movs	r3, #0
 7969 0010 8DF80E30 		strb	r3, [sp, #14]
 7970              		.loc 1 2344 0
 7971 0014 019B     		ldr	r3, [sp, #4]
 7972 0016 93F8DA30 		ldrb	r3, [r3, #218]
 7973 001a 8DF80F30 		strb	r3, [sp, #15]
 7974              		.loc 1 2347 0
 7975 001e 9DF80F30 		ldrb	r3, [sp, #15]	@ zero_extendqisi2
 7976 0022 042B     		cmp	r3, #4
 7977 0024 12D1     		bne	.L617
 7978              		.loc 1 2349 0
 7979 0026 04AB     		add	r3, sp, #16
 7980 0028 1946     		mov	r1, r3
ARM GAS  C:\Users\PCHAUT~1\AppData\Local\Temp\ccZvjaUR.s 			page 141


 7981 002a 0198     		ldr	r0, [sp, #4]
 7982 002c FFF7FEFF 		bl	VL53L0X_GetInterruptMaskStatus
 7983 0030 0346     		mov	r3, r0
 7984 0032 8DF80E30 		strb	r3, [sp, #14]
 7985              		.loc 1 2350 0
 7986 0036 049B     		ldr	r3, [sp, #16]
 7987 0038 042B     		cmp	r3, #4
 7988 003a 03D1     		bne	.L618
 7989              		.loc 1 2352 0
 7990 003c 009B     		ldr	r3, [sp]
 7991 003e 0122     		movs	r2, #1
 7992 0040 1A70     		strb	r2, [r3]
 7993 0042 1EE0     		b	.L620
 7994              	.L618:
 7995              		.loc 1 2354 0
 7996 0044 009B     		ldr	r3, [sp]
 7997 0046 0022     		movs	r2, #0
 7998 0048 1A70     		strb	r2, [r3]
 7999 004a 1AE0     		b	.L620
 8000              	.L617:
 8001              		.loc 1 2356 0
 8002 004c 0DF10D03 		add	r3, sp, #13
 8003 0050 1A46     		mov	r2, r3
 8004 0052 1421     		movs	r1, #20
 8005 0054 0198     		ldr	r0, [sp, #4]
 8006 0056 FFF7FEFF 		bl	VL53L0X_RdByte
 8007 005a 0346     		mov	r3, r0
 8008 005c 8DF80E30 		strb	r3, [sp, #14]
 8009              		.loc 1 2358 0
 8010 0060 9DF90E30 		ldrsb	r3, [sp, #14]
 8011 0064 002B     		cmp	r3, #0
 8012 0066 0CD1     		bne	.L620
 8013              		.loc 1 2359 0
 8014 0068 9DF80D30 		ldrb	r3, [sp, #13]	@ zero_extendqisi2
 8015 006c 03F00103 		and	r3, r3, #1
 8016 0070 002B     		cmp	r3, #0
 8017 0072 03D0     		beq	.L621
 8018              		.loc 1 2360 0
 8019 0074 009B     		ldr	r3, [sp]
 8020 0076 0122     		movs	r2, #1
 8021 0078 1A70     		strb	r2, [r3]
 8022 007a 02E0     		b	.L620
 8023              	.L621:
 8024              		.loc 1 2362 0
 8025 007c 009B     		ldr	r3, [sp]
 8026 007e 0022     		movs	r2, #0
 8027 0080 1A70     		strb	r2, [r3]
 8028              	.L620:
 8029              		.loc 1 2367 0
 8030 0082 9DF90E30 		ldrsb	r3, [sp, #14]
 8031              		.loc 1 2368 0
 8032 0086 1846     		mov	r0, r3
 8033 0088 044B     		ldr	r3, .L624
 8034 008a 059A     		ldr	r2, [sp, #20]
 8035 008c 1B68     		ldr	r3, [r3]
 8036 008e 9A42     		cmp	r2, r3
 8037 0090 01D0     		beq	.L623
ARM GAS  C:\Users\PCHAUT~1\AppData\Local\Temp\ccZvjaUR.s 			page 142


 8038 0092 FFF7FEFF 		bl	__stack_chk_fail
 8039              	.L623:
 8040 0096 07B0     		add	sp, sp, #28
 8041              		.cfi_def_cfa_offset 4
 8042              		@ sp needed
 8043 0098 5DF804FB 		ldr	pc, [sp], #4
 8044              	.L625:
 8045              		.align	2
 8046              	.L624:
 8047 009c 00000000 		.word	__stack_chk_guard
 8048              		.cfi_endproc
 8049              	.LFE78:
 8050              		.size	VL53L0X_GetMeasurementDataReady, .-VL53L0X_GetMeasurementDataReady
 8051              		.section	.text.VL53L0X_WaitDeviceReadyForNewMeasurement,"ax",%progbits
 8052              		.align	1
 8053              		.p2align 4,,15
 8054              		.global	VL53L0X_WaitDeviceReadyForNewMeasurement
 8055              		.syntax unified
 8056              		.thumb
 8057              		.thumb_func
 8058              		.fpu fpv4-sp-d16
 8059              		.type	VL53L0X_WaitDeviceReadyForNewMeasurement, %function
 8060              	VL53L0X_WaitDeviceReadyForNewMeasurement:
 8061              	.LFB79:
 8062              		.loc 1 2372 0
 8063              		.cfi_startproc
 8064              		@ args = 0, pretend = 0, frame = 16
 8065              		@ frame_needed = 0, uses_anonymous_args = 0
 8066 0000 00B5     		push	{lr}
 8067              		.cfi_def_cfa_offset 4
 8068              		.cfi_offset 14, -4
 8069 0002 85B0     		sub	sp, sp, #20
 8070              		.cfi_def_cfa_offset 24
 8071 0004 0190     		str	r0, [sp, #4]
 8072 0006 0091     		str	r1, [sp]
 8073              		.loc 1 2372 0
 8074 0008 094B     		ldr	r3, .L629
 8075 000a 1B68     		ldr	r3, [r3]
 8076 000c 0393     		str	r3, [sp, #12]
 8077              		.loc 1 2373 0
 8078 000e 9D23     		movs	r3, #157
 8079 0010 8DF80B30 		strb	r3, [sp, #11]
 8080              		.loc 1 2381 0
 8081 0014 9DF90B30 		ldrsb	r3, [sp, #11]
 8082              		.loc 1 2382 0
 8083 0018 1846     		mov	r0, r3
 8084 001a 054B     		ldr	r3, .L629
 8085 001c 039A     		ldr	r2, [sp, #12]
 8086 001e 1B68     		ldr	r3, [r3]
 8087 0020 9A42     		cmp	r2, r3
 8088 0022 01D0     		beq	.L628
 8089 0024 FFF7FEFF 		bl	__stack_chk_fail
 8090              	.L628:
 8091 0028 05B0     		add	sp, sp, #20
 8092              		.cfi_def_cfa_offset 4
 8093              		@ sp needed
 8094 002a 5DF804FB 		ldr	pc, [sp], #4
ARM GAS  C:\Users\PCHAUT~1\AppData\Local\Temp\ccZvjaUR.s 			page 143


 8095              	.L630:
 8096 002e 00BF     		.align	2
 8097              	.L629:
 8098 0030 00000000 		.word	__stack_chk_guard
 8099              		.cfi_endproc
 8100              	.LFE79:
 8101              		.size	VL53L0X_WaitDeviceReadyForNewMeasurement, .-VL53L0X_WaitDeviceReadyForNewMeasurement
 8102              		.section	.text.VL53L0X_GetRangingMeasurementData,"ax",%progbits
 8103              		.align	1
 8104              		.p2align 4,,15
 8105              		.global	VL53L0X_GetRangingMeasurementData
 8106              		.syntax unified
 8107              		.thumb
 8108              		.thumb_func
 8109              		.fpu fpv4-sp-d16
 8110              		.type	VL53L0X_GetRangingMeasurementData, %function
 8111              	VL53L0X_GetRangingMeasurementData:
 8112              	.LFB80:
 8113              		.loc 1 2387 0
 8114              		.cfi_startproc
 8115              		@ args = 0, pretend = 0, frame = 80
 8116              		@ frame_needed = 0, uses_anonymous_args = 0
 8117 0000 30B5     		push	{r4, r5, lr}
 8118              		.cfi_def_cfa_offset 12
 8119              		.cfi_offset 4, -12
 8120              		.cfi_offset 5, -8
 8121              		.cfi_offset 14, -4
 8122 0002 97B0     		sub	sp, sp, #92
 8123              		.cfi_def_cfa_offset 104
 8124 0004 0390     		str	r0, [sp, #12]
 8125 0006 0291     		str	r1, [sp, #8]
 8126              		.loc 1 2387 0
 8127 0008 964B     		ldr	r3, .L643
 8128 000a 1B68     		ldr	r3, [r3]
 8129 000c 1593     		str	r3, [sp, #84]
 8130              		.loc 1 2388 0
 8131 000e 0023     		movs	r3, #0
 8132 0010 8DF81830 		strb	r3, [sp, #24]
 8133              		.loc 1 2411 0
 8134 0014 12AA     		add	r2, sp, #72
 8135 0016 0C23     		movs	r3, #12
 8136 0018 1421     		movs	r1, #20
 8137 001a 0398     		ldr	r0, [sp, #12]
 8138 001c FFF7FEFF 		bl	VL53L0X_ReadMulti
 8139 0020 0346     		mov	r3, r0
 8140 0022 8DF81830 		strb	r3, [sp, #24]
 8141              		.loc 1 2413 0
 8142 0026 9DF91830 		ldrsb	r3, [sp, #24]
 8143 002a 002B     		cmp	r3, #0
 8144 002c 40F0D880 		bne	.L632
 8145              		.loc 1 2415 0
 8146 0030 029B     		ldr	r3, [sp, #8]
 8147 0032 0022     		movs	r2, #0
 8148 0034 9A75     		strb	r2, [r3, #22]
 8149              		.loc 1 2416 0
 8150 0036 029B     		ldr	r3, [sp, #8]
 8151 0038 0022     		movs	r2, #0
ARM GAS  C:\Users\PCHAUT~1\AppData\Local\Temp\ccZvjaUR.s 			page 144


 8152 003a 1A60     		str	r2, [r3]
 8153              		.loc 1 2418 0
 8154 003c 9DF85230 		ldrb	r3, [sp, #82]	@ zero_extendqisi2
 8155 0040 9BB2     		uxth	r3, r3
 8156 0042 1B02     		lsls	r3, r3, #8
 8157 0044 9AB2     		uxth	r2, r3
 8158 0046 9DF85330 		ldrb	r3, [sp, #83]	@ zero_extendqisi2
 8159 004a 9BB2     		uxth	r3, r3
 8160 004c 1344     		add	r3, r3, r2
 8161 004e ADF81C30 		strh	r3, [sp, #28]	@ movhi
 8162              		.loc 1 2423 0
 8163 0052 029B     		ldr	r3, [sp, #8]
 8164 0054 0022     		movs	r2, #0
 8165 0056 5A60     		str	r2, [r3, #4]
 8166              		.loc 1 2425 0
 8167 0058 9DF84E30 		ldrb	r3, [sp, #78]	@ zero_extendqisi2
 8168 005c 9BB2     		uxth	r3, r3
 8169 005e 1B02     		lsls	r3, r3, #8
 8170 0060 9AB2     		uxth	r2, r3
 8171 0062 9DF84F30 		ldrb	r3, [sp, #79]	@ zero_extendqisi2
 8172 0066 9BB2     		uxth	r3, r3
 8173 0068 1344     		add	r3, r3, r2
 8174 006a 9BB2     		uxth	r3, r3
 8175 006c 5B02     		lsls	r3, r3, #9
 8176 006e 0A93     		str	r3, [sp, #40]
 8177              		.loc 1 2428 0
 8178 0070 029B     		ldr	r3, [sp, #8]
 8179 0072 0A9A     		ldr	r2, [sp, #40]
 8180 0074 DA60     		str	r2, [r3, #12]
 8181              		.loc 1 2430 0
 8182 0076 9DF85030 		ldrb	r3, [sp, #80]	@ zero_extendqisi2
 8183 007a 9BB2     		uxth	r3, r3
 8184 007c 1B02     		lsls	r3, r3, #8
 8185 007e 9AB2     		uxth	r2, r3
 8186 0080 9DF85130 		ldrb	r3, [sp, #81]	@ zero_extendqisi2
 8187 0084 9BB2     		uxth	r3, r3
 8188 0086 1344     		add	r3, r3, r2
 8189 0088 ADF82030 		strh	r3, [sp, #32]	@ movhi
 8190              		.loc 1 2432 0
 8191 008c BDF82030 		ldrh	r3, [sp, #32]
 8192 0090 5B02     		lsls	r3, r3, #9
 8193 0092 1A46     		mov	r2, r3
 8194              		.loc 1 2431 0
 8195 0094 029B     		ldr	r3, [sp, #8]
 8196 0096 1A61     		str	r2, [r3, #16]
 8197              		.loc 1 2434 0
 8198 0098 9DF84A30 		ldrb	r3, [sp, #74]	@ zero_extendqisi2
 8199 009c 9BB2     		uxth	r3, r3
 8200 009e 1B02     		lsls	r3, r3, #8
 8201 00a0 9AB2     		uxth	r2, r3
 8202 00a2 9DF84B30 		ldrb	r3, [sp, #75]	@ zero_extendqisi2
 8203 00a6 9BB2     		uxth	r3, r3
 8204 00a8 1344     		add	r3, r3, r2
 8205 00aa ADF82230 		strh	r3, [sp, #34]	@ movhi
 8206              		.loc 1 2437 0
 8207 00ae 029B     		ldr	r3, [sp, #8]
 8208 00b0 BDF82220 		ldrh	r2, [sp, #34]	@ movhi
ARM GAS  C:\Users\PCHAUT~1\AppData\Local\Temp\ccZvjaUR.s 			page 145


 8209 00b4 9A82     		strh	r2, [r3, #20]	@ movhi
 8210              		.loc 1 2440 0
 8211 00b6 9DF84830 		ldrb	r3, [sp, #72]
 8212 00ba 8DF81930 		strb	r3, [sp, #25]
 8213              		.loc 1 2443 0
 8214 00be 039B     		ldr	r3, [sp, #12]
 8215 00c0 B3F85231 		ldrh	r3, [r3, #338]	@ movhi
 8216 00c4 ADF82430 		strh	r3, [sp, #36]	@ movhi
 8217              		.loc 1 2447 0
 8218 00c8 039B     		ldr	r3, [sp, #12]
 8219 00ca 93F83131 		ldrb	r3, [r3, #305]
 8220 00ce 8DF81A30 		strb	r3, [sp, #26]
 8221              		.loc 1 2450 0
 8222 00d2 BDF82430 		ldrh	r3, [sp, #36]
 8223 00d6 B3F57A7F 		cmp	r3, #1000
 8224 00da 4BD0     		beq	.L633
 8225              		.loc 1 2453 0
 8226 00dc BDF82430 		ldrh	r3, [sp, #36]
 8227 00e0 BDF81C20 		ldrh	r2, [sp, #28]
 8228 00e4 02FB03F3 		mul	r3, r2, r3
 8229 00e8 03F5FA73 		add	r3, r3, #500
 8230 00ec 5E4A     		ldr	r2, .L643+4
 8231 00ee 82FB0312 		smull	r1, r2, r2, r3
 8232 00f2 9211     		asrs	r2, r2, #6
 8233 00f4 DB17     		asrs	r3, r3, #31
 8234 00f6 D31A     		subs	r3, r2, r3
 8235              		.loc 1 2452 0
 8236 00f8 ADF81C30 		strh	r3, [sp, #28]	@ movhi
 8237              		.loc 1 2456 0
 8238 00fc 039B     		ldr	r3, [sp, #12]
 8239 00fe 1B6A     		ldr	r3, [r3, #32]
 8240 0100 ADF82630 		strh	r3, [sp, #38]	@ movhi
 8241              		.loc 1 2459 0
 8242 0104 039B     		ldr	r3, [sp, #12]
 8243 0106 1B7F     		ldrb	r3, [r3, #28]
 8244 0108 8DF81B30 		strb	r3, [sp, #27]
 8245              		.loc 1 2462 0
 8246 010c 9DF81B30 		ldrb	r3, [sp, #27]	@ zero_extendqisi2
 8247 0110 002B     		cmp	r3, #0
 8248 0112 2FD0     		beq	.L633
 8249              		.loc 1 2466 0
 8250 0114 BDF82630 		ldrh	r3, [sp, #38]
 8251 0118 BDF82220 		ldrh	r2, [sp, #34]
 8252 011c 02FB03F3 		mul	r3, r2, r3
 8253 0120 1B12     		asrs	r3, r3, #8
 8254 0122 1A46     		mov	r2, r3
 8255              		.loc 1 2464 0
 8256 0124 0A9B     		ldr	r3, [sp, #40]
 8257 0126 9342     		cmp	r3, r2
 8258 0128 0DD1     		bne	.L634
 8259              		.loc 1 2468 0
 8260 012a 9DF81A30 		ldrb	r3, [sp, #26]	@ zero_extendqisi2
 8261 012e 002B     		cmp	r3, #0
 8262 0130 04D0     		beq	.L635
 8263              		.loc 1 2469 0
 8264 0132 42F2B823 		movw	r3, #8888
 8265 0136 ADF81E30 		strh	r3, [sp, #30]	@ movhi
ARM GAS  C:\Users\PCHAUT~1\AppData\Local\Temp\ccZvjaUR.s 			page 146


 8266 013a 17E0     		b	.L637
 8267              	.L635:
 8268              		.loc 1 2471 0
 8269 013c 48F6E023 		movw	r3, #35552
 8270 0140 ADF81E30 		strh	r3, [sp, #30]	@ movhi
 8271 0144 12E0     		b	.L637
 8272              	.L634:
 8273              		.loc 1 2475 0
 8274 0146 BDF81C30 		ldrh	r3, [sp, #28]
 8275 014a 0A9A     		ldr	r2, [sp, #40]
 8276 014c 02FB03F2 		mul	r2, r2, r3
 8277              		.loc 1 2478 0
 8278 0150 BDF82630 		ldrh	r3, [sp, #38]
 8279 0154 BDF82210 		ldrh	r1, [sp, #34]
 8280 0158 01FB03F3 		mul	r3, r1, r3
 8281              		.loc 1 2479 0
 8282 015c 1B12     		asrs	r3, r3, #8
 8283 015e 1946     		mov	r1, r3
 8284              		.loc 1 2477 0
 8285 0160 0A9B     		ldr	r3, [sp, #40]
 8286 0162 5B1A     		subs	r3, r3, r1
 8287              		.loc 1 2476 0
 8288 0164 B2FBF3F3 		udiv	r3, r2, r3
 8289              		.loc 1 2474 0
 8290 0168 ADF81E30 		strh	r3, [sp, #30]	@ movhi
 8291              	.L637:
 8292              		.loc 1 2482 0
 8293 016c BDF81E30 		ldrh	r3, [sp, #30]	@ movhi
 8294 0170 ADF81C30 		strh	r3, [sp, #28]	@ movhi
 8295              	.L633:
 8296              		.loc 1 2487 0
 8297 0174 9DF81A30 		ldrb	r3, [sp, #26]	@ zero_extendqisi2
 8298 0178 002B     		cmp	r3, #0
 8299 017a 0DD0     		beq	.L638
 8300              		.loc 1 2489 0
 8301 017c BDF81C30 		ldrh	r3, [sp, #28]
 8302 0180 9B08     		lsrs	r3, r3, #2
 8303 0182 9AB2     		uxth	r2, r3
 8304              		.loc 1 2488 0
 8305 0184 029B     		ldr	r3, [sp, #8]
 8306 0186 1A81     		strh	r2, [r3, #8]	@ movhi
 8307              		.loc 1 2491 0
 8308 0188 BDF81C30 		ldrh	r3, [sp, #28]	@ movhi
 8309 018c DBB2     		uxtb	r3, r3
 8310 018e 9B01     		lsls	r3, r3, #6
 8311 0190 DAB2     		uxtb	r2, r3
 8312              		.loc 1 2490 0
 8313 0192 029B     		ldr	r3, [sp, #8]
 8314 0194 DA75     		strb	r2, [r3, #23]
 8315 0196 06E0     		b	.L639
 8316              	.L638:
 8317              		.loc 1 2493 0
 8318 0198 029B     		ldr	r3, [sp, #8]
 8319 019a BDF81C20 		ldrh	r2, [sp, #28]	@ movhi
 8320 019e 1A81     		strh	r2, [r3, #8]	@ movhi
 8321              		.loc 1 2494 0
 8322 01a0 029B     		ldr	r3, [sp, #8]
ARM GAS  C:\Users\PCHAUT~1\AppData\Local\Temp\ccZvjaUR.s 			page 147


 8323 01a2 0022     		movs	r2, #0
 8324 01a4 DA75     		strb	r2, [r3, #23]
 8325              	.L639:
 8326              		.loc 1 2503 0
 8327 01a6 BDF82220 		ldrh	r2, [sp, #34]
 8328 01aa 9DF81910 		ldrb	r1, [sp, #25]	@ zero_extendqisi2
 8329 01ae 0DF11703 		add	r3, sp, #23
 8330 01b2 0193     		str	r3, [sp, #4]
 8331 01b4 029B     		ldr	r3, [sp, #8]
 8332 01b6 0093     		str	r3, [sp]
 8333 01b8 1346     		mov	r3, r2
 8334 01ba 0A9A     		ldr	r2, [sp, #40]
 8335 01bc 0398     		ldr	r0, [sp, #12]
 8336 01be FFF7FEFF 		bl	VL53L0X_get_pal_range_status
 8337 01c2 0346     		mov	r3, r0
 8338 01c4 1A46     		mov	r2, r3
 8339 01c6 9DF81830 		ldrb	r3, [sp, #24]
 8340 01ca 1343     		orrs	r3, r3, r2
 8341 01cc 8DF81830 		strb	r3, [sp, #24]
 8342              		.loc 1 2507 0
 8343 01d0 9DF91830 		ldrsb	r3, [sp, #24]
 8344 01d4 002B     		cmp	r3, #0
 8345 01d6 03D1     		bne	.L632
 8346              		.loc 1 2508 0
 8347 01d8 9DF81720 		ldrb	r2, [sp, #23]	@ zero_extendqisi2
 8348 01dc 029B     		ldr	r3, [sp, #8]
 8349 01de 1A76     		strb	r2, [r3, #24]
 8350              	.L632:
 8351              		.loc 1 2512 0
 8352 01e0 9DF91830 		ldrsb	r3, [sp, #24]
 8353 01e4 002B     		cmp	r3, #0
 8354 01e6 30D1     		bne	.L640
 8355              		.loc 1 2514 0
 8356 01e8 039B     		ldr	r3, [sp, #12]
 8357 01ea 0BAC     		add	r4, sp, #44
 8358 01ec 03F15005 		add	r5, r3, #80
 8359 01f0 0FCD     		ldmia	r5!, {r0, r1, r2, r3}
 8360 01f2 0FC4     		stmia	r4!, {r0, r1, r2, r3}
 8361 01f4 95E80700 		ldm	r5, {r0, r1, r2}
 8362 01f8 84E80700 		stm	r4, {r0, r1, r2}
 8363              		.loc 1 2517 0
 8364 01fc 029B     		ldr	r3, [sp, #8]
 8365 01fe 1B89     		ldrh	r3, [r3, #8]
 8366              		.loc 1 2516 0
 8367 0200 ADF83430 		strh	r3, [sp, #52]	@ movhi
 8368              		.loc 1 2519 0
 8369 0204 029B     		ldr	r3, [sp, #8]
 8370 0206 DB7D     		ldrb	r3, [r3, #23]	@ zero_extendqisi2
 8371              		.loc 1 2518 0
 8372 0208 8DF84330 		strb	r3, [sp, #67]
 8373              		.loc 1 2521 0
 8374 020c 029B     		ldr	r3, [sp, #8]
 8375 020e 5B89     		ldrh	r3, [r3, #10]
 8376              		.loc 1 2520 0
 8377 0210 ADF83630 		strh	r3, [sp, #54]	@ movhi
 8378              		.loc 1 2523 0
 8379 0214 029B     		ldr	r3, [sp, #8]
ARM GAS  C:\Users\PCHAUT~1\AppData\Local\Temp\ccZvjaUR.s 			page 148


 8380 0216 5B68     		ldr	r3, [r3, #4]
 8381              		.loc 1 2522 0
 8382 0218 0C93     		str	r3, [sp, #48]
 8383              		.loc 1 2525 0
 8384 021a 029B     		ldr	r3, [sp, #8]
 8385 021c DB68     		ldr	r3, [r3, #12]
 8386              		.loc 1 2524 0
 8387 021e 0E93     		str	r3, [sp, #56]
 8388              		.loc 1 2527 0
 8389 0220 029B     		ldr	r3, [sp, #8]
 8390 0222 1B69     		ldr	r3, [r3, #16]
 8391              		.loc 1 2526 0
 8392 0224 0F93     		str	r3, [sp, #60]
 8393              		.loc 1 2529 0
 8394 0226 029B     		ldr	r3, [sp, #8]
 8395 0228 9B8A     		ldrh	r3, [r3, #20]
 8396              		.loc 1 2528 0
 8397 022a ADF84030 		strh	r3, [sp, #64]	@ movhi
 8398              		.loc 1 2531 0
 8399 022e 029B     		ldr	r3, [sp, #8]
 8400 0230 1B7E     		ldrb	r3, [r3, #24]	@ zero_extendqisi2
 8401              		.loc 1 2530 0
 8402 0232 8DF84430 		strb	r3, [sp, #68]
 8403              		.loc 1 2533 0
 8404 0236 039B     		ldr	r3, [sp, #12]
 8405 0238 03F15004 		add	r4, r3, #80
 8406 023c 0BAD     		add	r5, sp, #44
 8407 023e 0FCD     		ldmia	r5!, {r0, r1, r2, r3}
 8408 0240 0FC4     		stmia	r4!, {r0, r1, r2, r3}
 8409 0242 95E80700 		ldm	r5, {r0, r1, r2}
 8410 0246 84E80700 		stm	r4, {r0, r1, r2}
 8411              	.L640:
 8412              		.loc 1 2537 0
 8413 024a 9DF91830 		ldrsb	r3, [sp, #24]
 8414              		.loc 1 2538 0
 8415 024e 1846     		mov	r0, r3
 8416 0250 044B     		ldr	r3, .L643
 8417 0252 159A     		ldr	r2, [sp, #84]
 8418 0254 1B68     		ldr	r3, [r3]
 8419 0256 9A42     		cmp	r2, r3
 8420 0258 01D0     		beq	.L642
 8421 025a FFF7FEFF 		bl	__stack_chk_fail
 8422              	.L642:
 8423 025e 17B0     		add	sp, sp, #92
 8424              		.cfi_def_cfa_offset 12
 8425              		@ sp needed
 8426 0260 30BD     		pop	{r4, r5, pc}
 8427              	.L644:
 8428 0262 00BF     		.align	2
 8429              	.L643:
 8430 0264 00000000 		.word	__stack_chk_guard
 8431 0268 D34D6210 		.word	274877907
 8432              		.cfi_endproc
 8433              	.LFE80:
 8434              		.size	VL53L0X_GetRangingMeasurementData, .-VL53L0X_GetRangingMeasurementData
 8435              		.section	.text.VL53L0X_GetMeasurementRefSignal,"ax",%progbits
 8436              		.align	1
ARM GAS  C:\Users\PCHAUT~1\AppData\Local\Temp\ccZvjaUR.s 			page 149


 8437              		.p2align 4,,15
 8438              		.global	VL53L0X_GetMeasurementRefSignal
 8439              		.syntax unified
 8440              		.thumb
 8441              		.thumb_func
 8442              		.fpu fpv4-sp-d16
 8443              		.type	VL53L0X_GetMeasurementRefSignal, %function
 8444              	VL53L0X_GetMeasurementRefSignal:
 8445              	.LFB81:
 8446              		.loc 1 2542 0
 8447              		.cfi_startproc
 8448              		@ args = 0, pretend = 0, frame = 16
 8449              		@ frame_needed = 0, uses_anonymous_args = 0
 8450 0000 00B5     		push	{lr}
 8451              		.cfi_def_cfa_offset 4
 8452              		.cfi_offset 14, -4
 8453 0002 85B0     		sub	sp, sp, #20
 8454              		.cfi_def_cfa_offset 24
 8455 0004 0190     		str	r0, [sp, #4]
 8456 0006 0091     		str	r1, [sp]
 8457              		.loc 1 2542 0
 8458 0008 164B     		ldr	r3, .L650
 8459 000a 1B68     		ldr	r3, [r3]
 8460 000c 0393     		str	r3, [sp, #12]
 8461              		.loc 1 2543 0
 8462 000e 0023     		movs	r3, #0
 8463 0010 8DF80B30 		strb	r3, [sp, #11]
 8464              		.loc 1 2544 0
 8465 0014 0023     		movs	r3, #0
 8466 0016 8DF80A30 		strb	r3, [sp, #10]
 8467              		.loc 1 2547 0
 8468 001a 0DF10A03 		add	r3, sp, #10
 8469 001e 1A46     		mov	r2, r3
 8470 0020 0221     		movs	r1, #2
 8471 0022 0198     		ldr	r0, [sp, #4]
 8472 0024 FFF7FEFF 		bl	VL53L0X_GetLimitCheckEnable
 8473 0028 0346     		mov	r3, r0
 8474 002a 8DF80B30 		strb	r3, [sp, #11]
 8475              		.loc 1 2550 0
 8476 002e 9DF80A30 		ldrb	r3, [sp, #10]	@ zero_extendqisi2
 8477 0032 002B     		cmp	r3, #0
 8478 0034 05D0     		beq	.L646
 8479              		.loc 1 2551 0
 8480 0036 019B     		ldr	r3, [sp, #4]
 8481 0038 D3F84821 		ldr	r2, [r3, #328]
 8482 003c 009B     		ldr	r3, [sp]
 8483 003e 1A60     		str	r2, [r3]
 8484 0040 02E0     		b	.L647
 8485              	.L646:
 8486              		.loc 1 2553 0
 8487 0042 E223     		movs	r3, #226
 8488 0044 8DF80B30 		strb	r3, [sp, #11]
 8489              	.L647:
 8490              		.loc 1 2557 0
 8491 0048 9DF90B30 		ldrsb	r3, [sp, #11]
 8492              		.loc 1 2558 0
 8493 004c 1846     		mov	r0, r3
ARM GAS  C:\Users\PCHAUT~1\AppData\Local\Temp\ccZvjaUR.s 			page 150


 8494 004e 054B     		ldr	r3, .L650
 8495 0050 039A     		ldr	r2, [sp, #12]
 8496 0052 1B68     		ldr	r3, [r3]
 8497 0054 9A42     		cmp	r2, r3
 8498 0056 01D0     		beq	.L649
 8499 0058 FFF7FEFF 		bl	__stack_chk_fail
 8500              	.L649:
 8501 005c 05B0     		add	sp, sp, #20
 8502              		.cfi_def_cfa_offset 4
 8503              		@ sp needed
 8504 005e 5DF804FB 		ldr	pc, [sp], #4
 8505              	.L651:
 8506 0062 00BF     		.align	2
 8507              	.L650:
 8508 0064 00000000 		.word	__stack_chk_guard
 8509              		.cfi_endproc
 8510              	.LFE81:
 8511              		.size	VL53L0X_GetMeasurementRefSignal, .-VL53L0X_GetMeasurementRefSignal
 8512              		.section	.text.VL53L0X_GetHistogramMeasurementData,"ax",%progbits
 8513              		.align	1
 8514              		.p2align 4,,15
 8515              		.global	VL53L0X_GetHistogramMeasurementData
 8516              		.syntax unified
 8517              		.thumb
 8518              		.thumb_func
 8519              		.fpu fpv4-sp-d16
 8520              		.type	VL53L0X_GetHistogramMeasurementData, %function
 8521              	VL53L0X_GetHistogramMeasurementData:
 8522              	.LFB82:
 8523              		.loc 1 2562 0
 8524              		.cfi_startproc
 8525              		@ args = 0, pretend = 0, frame = 16
 8526              		@ frame_needed = 0, uses_anonymous_args = 0
 8527 0000 00B5     		push	{lr}
 8528              		.cfi_def_cfa_offset 4
 8529              		.cfi_offset 14, -4
 8530 0002 85B0     		sub	sp, sp, #20
 8531              		.cfi_def_cfa_offset 24
 8532 0004 0190     		str	r0, [sp, #4]
 8533 0006 0091     		str	r1, [sp]
 8534              		.loc 1 2562 0
 8535 0008 094B     		ldr	r3, .L655
 8536 000a 1B68     		ldr	r3, [r3]
 8537 000c 0393     		str	r3, [sp, #12]
 8538              		.loc 1 2563 0
 8539 000e 9D23     		movs	r3, #157
 8540 0010 8DF80B30 		strb	r3, [sp, #11]
 8541              		.loc 1 2570 0
 8542 0014 9DF90B30 		ldrsb	r3, [sp, #11]
 8543              		.loc 1 2571 0
 8544 0018 1846     		mov	r0, r3
 8545 001a 054B     		ldr	r3, .L655
 8546 001c 039A     		ldr	r2, [sp, #12]
 8547 001e 1B68     		ldr	r3, [r3]
 8548 0020 9A42     		cmp	r2, r3
 8549 0022 01D0     		beq	.L654
 8550 0024 FFF7FEFF 		bl	__stack_chk_fail
ARM GAS  C:\Users\PCHAUT~1\AppData\Local\Temp\ccZvjaUR.s 			page 151


 8551              	.L654:
 8552 0028 05B0     		add	sp, sp, #20
 8553              		.cfi_def_cfa_offset 4
 8554              		@ sp needed
 8555 002a 5DF804FB 		ldr	pc, [sp], #4
 8556              	.L656:
 8557 002e 00BF     		.align	2
 8558              	.L655:
 8559 0030 00000000 		.word	__stack_chk_guard
 8560              		.cfi_endproc
 8561              	.LFE82:
 8562              		.size	VL53L0X_GetHistogramMeasurementData, .-VL53L0X_GetHistogramMeasurementData
 8563              		.section	.text.VL53L0X_PerformSingleRangingMeasurement,"ax",%progbits
 8564              		.align	1
 8565              		.p2align 4,,15
 8566              		.global	VL53L0X_PerformSingleRangingMeasurement
 8567              		.syntax unified
 8568              		.thumb
 8569              		.thumb_func
 8570              		.fpu fpv4-sp-d16
 8571              		.type	VL53L0X_PerformSingleRangingMeasurement, %function
 8572              	VL53L0X_PerformSingleRangingMeasurement:
 8573              	.LFB83:
 8574              		.loc 1 2575 0
 8575              		.cfi_startproc
 8576              		@ args = 0, pretend = 0, frame = 16
 8577              		@ frame_needed = 0, uses_anonymous_args = 0
 8578 0000 00B5     		push	{lr}
 8579              		.cfi_def_cfa_offset 4
 8580              		.cfi_offset 14, -4
 8581 0002 85B0     		sub	sp, sp, #20
 8582              		.cfi_def_cfa_offset 24
 8583 0004 0190     		str	r0, [sp, #4]
 8584 0006 0091     		str	r1, [sp]
 8585              		.loc 1 2575 0
 8586 0008 1C4B     		ldr	r3, .L663
 8587 000a 1B68     		ldr	r3, [r3]
 8588 000c 0393     		str	r3, [sp, #12]
 8589              		.loc 1 2576 0
 8590 000e 0023     		movs	r3, #0
 8591 0010 8DF80B30 		strb	r3, [sp, #11]
 8592              		.loc 1 2582 0
 8593 0014 0021     		movs	r1, #0
 8594 0016 0198     		ldr	r0, [sp, #4]
 8595 0018 FFF7FEFF 		bl	VL53L0X_SetDeviceMode
 8596 001c 0346     		mov	r3, r0
 8597 001e 8DF80B30 		strb	r3, [sp, #11]
 8598              		.loc 1 2584 0
 8599 0022 9DF90B30 		ldrsb	r3, [sp, #11]
 8600 0026 002B     		cmp	r3, #0
 8601 0028 05D1     		bne	.L658
 8602              		.loc 1 2585 0
 8603 002a 0198     		ldr	r0, [sp, #4]
 8604 002c FFF7FEFF 		bl	VL53L0X_PerformSingleMeasurement
 8605 0030 0346     		mov	r3, r0
 8606 0032 8DF80B30 		strb	r3, [sp, #11]
 8607              	.L658:
ARM GAS  C:\Users\PCHAUT~1\AppData\Local\Temp\ccZvjaUR.s 			page 152


 8608              		.loc 1 2588 0
 8609 0036 9DF90B30 		ldrsb	r3, [sp, #11]
 8610 003a 002B     		cmp	r3, #0
 8611 003c 06D1     		bne	.L659
 8612              		.loc 1 2589 0
 8613 003e 0099     		ldr	r1, [sp]
 8614 0040 0198     		ldr	r0, [sp, #4]
 8615 0042 FFF7FEFF 		bl	VL53L0X_GetRangingMeasurementData
 8616 0046 0346     		mov	r3, r0
 8617 0048 8DF80B30 		strb	r3, [sp, #11]
 8618              	.L659:
 8619              		.loc 1 2593 0
 8620 004c 9DF90B30 		ldrsb	r3, [sp, #11]
 8621 0050 002B     		cmp	r3, #0
 8622 0052 06D1     		bne	.L660
 8623              		.loc 1 2594 0
 8624 0054 0021     		movs	r1, #0
 8625 0056 0198     		ldr	r0, [sp, #4]
 8626 0058 FFF7FEFF 		bl	VL53L0X_ClearInterruptMask
 8627 005c 0346     		mov	r3, r0
 8628 005e 8DF80B30 		strb	r3, [sp, #11]
 8629              	.L660:
 8630              		.loc 1 2598 0
 8631 0062 9DF90B30 		ldrsb	r3, [sp, #11]
 8632              		.loc 1 2599 0
 8633 0066 1846     		mov	r0, r3
 8634 0068 044B     		ldr	r3, .L663
 8635 006a 039A     		ldr	r2, [sp, #12]
 8636 006c 1B68     		ldr	r3, [r3]
 8637 006e 9A42     		cmp	r2, r3
 8638 0070 01D0     		beq	.L662
 8639 0072 FFF7FEFF 		bl	__stack_chk_fail
 8640              	.L662:
 8641 0076 05B0     		add	sp, sp, #20
 8642              		.cfi_def_cfa_offset 4
 8643              		@ sp needed
 8644 0078 5DF804FB 		ldr	pc, [sp], #4
 8645              	.L664:
 8646              		.align	2
 8647              	.L663:
 8648 007c 00000000 		.word	__stack_chk_guard
 8649              		.cfi_endproc
 8650              	.LFE83:
 8651              		.size	VL53L0X_PerformSingleRangingMeasurement, .-VL53L0X_PerformSingleRangingMeasurement
 8652              		.section	.text.VL53L0X_SetNumberOfROIZones,"ax",%progbits
 8653              		.align	1
 8654              		.p2align 4,,15
 8655              		.global	VL53L0X_SetNumberOfROIZones
 8656              		.syntax unified
 8657              		.thumb
 8658              		.thumb_func
 8659              		.fpu fpv4-sp-d16
 8660              		.type	VL53L0X_SetNumberOfROIZones, %function
 8661              	VL53L0X_SetNumberOfROIZones:
 8662              	.LFB84:
 8663              		.loc 1 2603 0
 8664              		.cfi_startproc
ARM GAS  C:\Users\PCHAUT~1\AppData\Local\Temp\ccZvjaUR.s 			page 153


 8665              		@ args = 0, pretend = 0, frame = 16
 8666              		@ frame_needed = 0, uses_anonymous_args = 0
 8667 0000 00B5     		push	{lr}
 8668              		.cfi_def_cfa_offset 4
 8669              		.cfi_offset 14, -4
 8670 0002 85B0     		sub	sp, sp, #20
 8671              		.cfi_def_cfa_offset 24
 8672 0004 0190     		str	r0, [sp, #4]
 8673 0006 0B46     		mov	r3, r1
 8674 0008 8DF80330 		strb	r3, [sp, #3]
 8675              		.loc 1 2603 0
 8676 000c 0C4B     		ldr	r3, .L669
 8677 000e 1B68     		ldr	r3, [r3]
 8678 0010 0393     		str	r3, [sp, #12]
 8679              		.loc 1 2605 0
 8680 0012 0023     		movs	r3, #0
 8681 0014 8DF80B30 		strb	r3, [sp, #11]
 8682              		.loc 1 2609 0
 8683 0018 9DF80330 		ldrb	r3, [sp, #3]	@ zero_extendqisi2
 8684 001c 012B     		cmp	r3, #1
 8685 001e 02D0     		beq	.L666
 8686              		.loc 1 2610 0
 8687 0020 FC23     		movs	r3, #252
 8688 0022 8DF80B30 		strb	r3, [sp, #11]
 8689              	.L666:
 8690              		.loc 1 2614 0
 8691 0026 9DF90B30 		ldrsb	r3, [sp, #11]
 8692              		.loc 1 2615 0
 8693 002a 1846     		mov	r0, r3
 8694 002c 044B     		ldr	r3, .L669
 8695 002e 039A     		ldr	r2, [sp, #12]
 8696 0030 1B68     		ldr	r3, [r3]
 8697 0032 9A42     		cmp	r2, r3
 8698 0034 01D0     		beq	.L668
 8699 0036 FFF7FEFF 		bl	__stack_chk_fail
 8700              	.L668:
 8701 003a 05B0     		add	sp, sp, #20
 8702              		.cfi_def_cfa_offset 4
 8703              		@ sp needed
 8704 003c 5DF804FB 		ldr	pc, [sp], #4
 8705              	.L670:
 8706              		.align	2
 8707              	.L669:
 8708 0040 00000000 		.word	__stack_chk_guard
 8709              		.cfi_endproc
 8710              	.LFE84:
 8711              		.size	VL53L0X_SetNumberOfROIZones, .-VL53L0X_SetNumberOfROIZones
 8712              		.section	.text.VL53L0X_GetNumberOfROIZones,"ax",%progbits
 8713              		.align	1
 8714              		.p2align 4,,15
 8715              		.global	VL53L0X_GetNumberOfROIZones
 8716              		.syntax unified
 8717              		.thumb
 8718              		.thumb_func
 8719              		.fpu fpv4-sp-d16
 8720              		.type	VL53L0X_GetNumberOfROIZones, %function
 8721              	VL53L0X_GetNumberOfROIZones:
ARM GAS  C:\Users\PCHAUT~1\AppData\Local\Temp\ccZvjaUR.s 			page 154


 8722              	.LFB85:
 8723              		.loc 1 2619 0
 8724              		.cfi_startproc
 8725              		@ args = 0, pretend = 0, frame = 16
 8726              		@ frame_needed = 0, uses_anonymous_args = 0
 8727 0000 00B5     		push	{lr}
 8728              		.cfi_def_cfa_offset 4
 8729              		.cfi_offset 14, -4
 8730 0002 85B0     		sub	sp, sp, #20
 8731              		.cfi_def_cfa_offset 24
 8732 0004 0190     		str	r0, [sp, #4]
 8733 0006 0091     		str	r1, [sp]
 8734              		.loc 1 2619 0
 8735 0008 0A4B     		ldr	r3, .L674
 8736 000a 1B68     		ldr	r3, [r3]
 8737 000c 0393     		str	r3, [sp, #12]
 8738              		.loc 1 2621 0
 8739 000e 0023     		movs	r3, #0
 8740 0010 8DF80B30 		strb	r3, [sp, #11]
 8741              		.loc 1 2625 0
 8742 0014 009B     		ldr	r3, [sp]
 8743 0016 0122     		movs	r2, #1
 8744 0018 1A70     		strb	r2, [r3]
 8745              		.loc 1 2628 0
 8746 001a 9DF90B30 		ldrsb	r3, [sp, #11]
 8747              		.loc 1 2629 0
 8748 001e 1846     		mov	r0, r3
 8749 0020 044B     		ldr	r3, .L674
 8750 0022 039A     		ldr	r2, [sp, #12]
 8751 0024 1B68     		ldr	r3, [r3]
 8752 0026 9A42     		cmp	r2, r3
 8753 0028 01D0     		beq	.L673
 8754 002a FFF7FEFF 		bl	__stack_chk_fail
 8755              	.L673:
 8756 002e 05B0     		add	sp, sp, #20
 8757              		.cfi_def_cfa_offset 4
 8758              		@ sp needed
 8759 0030 5DF804FB 		ldr	pc, [sp], #4
 8760              	.L675:
 8761              		.align	2
 8762              	.L674:
 8763 0034 00000000 		.word	__stack_chk_guard
 8764              		.cfi_endproc
 8765              	.LFE85:
 8766              		.size	VL53L0X_GetNumberOfROIZones, .-VL53L0X_GetNumberOfROIZones
 8767              		.section	.text.VL53L0X_GetMaxNumberOfROIZones,"ax",%progbits
 8768              		.align	1
 8769              		.p2align 4,,15
 8770              		.global	VL53L0X_GetMaxNumberOfROIZones
 8771              		.syntax unified
 8772              		.thumb
 8773              		.thumb_func
 8774              		.fpu fpv4-sp-d16
 8775              		.type	VL53L0X_GetMaxNumberOfROIZones, %function
 8776              	VL53L0X_GetMaxNumberOfROIZones:
 8777              	.LFB86:
 8778              		.loc 1 2633 0
ARM GAS  C:\Users\PCHAUT~1\AppData\Local\Temp\ccZvjaUR.s 			page 155


 8779              		.cfi_startproc
 8780              		@ args = 0, pretend = 0, frame = 16
 8781              		@ frame_needed = 0, uses_anonymous_args = 0
 8782 0000 00B5     		push	{lr}
 8783              		.cfi_def_cfa_offset 4
 8784              		.cfi_offset 14, -4
 8785 0002 85B0     		sub	sp, sp, #20
 8786              		.cfi_def_cfa_offset 24
 8787 0004 0190     		str	r0, [sp, #4]
 8788 0006 0091     		str	r1, [sp]
 8789              		.loc 1 2633 0
 8790 0008 0A4B     		ldr	r3, .L679
 8791 000a 1B68     		ldr	r3, [r3]
 8792 000c 0393     		str	r3, [sp, #12]
 8793              		.loc 1 2635 0
 8794 000e 0023     		movs	r3, #0
 8795 0010 8DF80B30 		strb	r3, [sp, #11]
 8796              		.loc 1 2639 0
 8797 0014 009B     		ldr	r3, [sp]
 8798 0016 0122     		movs	r2, #1
 8799 0018 1A70     		strb	r2, [r3]
 8800              		.loc 1 2642 0
 8801 001a 9DF90B30 		ldrsb	r3, [sp, #11]
 8802              		.loc 1 2643 0
 8803 001e 1846     		mov	r0, r3
 8804 0020 044B     		ldr	r3, .L679
 8805 0022 039A     		ldr	r2, [sp, #12]
 8806 0024 1B68     		ldr	r3, [r3]
 8807 0026 9A42     		cmp	r2, r3
 8808 0028 01D0     		beq	.L678
 8809 002a FFF7FEFF 		bl	__stack_chk_fail
 8810              	.L678:
 8811 002e 05B0     		add	sp, sp, #20
 8812              		.cfi_def_cfa_offset 4
 8813              		@ sp needed
 8814 0030 5DF804FB 		ldr	pc, [sp], #4
 8815              	.L680:
 8816              		.align	2
 8817              	.L679:
 8818 0034 00000000 		.word	__stack_chk_guard
 8819              		.cfi_endproc
 8820              	.LFE86:
 8821              		.size	VL53L0X_GetMaxNumberOfROIZones, .-VL53L0X_GetMaxNumberOfROIZones
 8822              		.section	.text.VL53L0X_SetGpioConfig,"ax",%progbits
 8823              		.align	1
 8824              		.p2align 4,,15
 8825              		.global	VL53L0X_SetGpioConfig
 8826              		.syntax unified
 8827              		.thumb
 8828              		.thumb_func
 8829              		.fpu fpv4-sp-d16
 8830              		.type	VL53L0X_SetGpioConfig, %function
 8831              	VL53L0X_SetGpioConfig:
 8832              	.LFB87:
 8833              		.loc 1 2650 0
 8834              		.cfi_startproc
 8835              		@ args = 4, pretend = 0, frame = 16
ARM GAS  C:\Users\PCHAUT~1\AppData\Local\Temp\ccZvjaUR.s 			page 156


 8836              		@ frame_needed = 0, uses_anonymous_args = 0
 8837 0000 00B5     		push	{lr}
 8838              		.cfi_def_cfa_offset 4
 8839              		.cfi_offset 14, -4
 8840 0002 85B0     		sub	sp, sp, #20
 8841              		.cfi_def_cfa_offset 24
 8842 0004 0190     		str	r0, [sp, #4]
 8843 0006 0846     		mov	r0, r1
 8844 0008 1146     		mov	r1, r2
 8845 000a 1A46     		mov	r2, r3
 8846 000c 0346     		mov	r3, r0
 8847 000e 8DF80330 		strb	r3, [sp, #3]
 8848 0012 0B46     		mov	r3, r1
 8849 0014 8DF80230 		strb	r3, [sp, #2]
 8850 0018 1346     		mov	r3, r2
 8851 001a 8DF80130 		strb	r3, [sp, #1]
 8852 001e 9DF81830 		ldrb	r3, [sp, #24]
 8853 0022 8DF80030 		strb	r3, [sp]
 8854              		.loc 1 2650 0
 8855 0026 AC4B     		ldr	r3, .L704
 8856 0028 1B68     		ldr	r3, [r3]
 8857 002a 0393     		str	r3, [sp, #12]
 8858              		.loc 1 2651 0
 8859 002c 0023     		movs	r3, #0
 8860 002e 8DF80A30 		strb	r3, [sp, #10]
 8861              		.loc 1 2656 0
 8862 0032 9DF80330 		ldrb	r3, [sp, #3]	@ zero_extendqisi2
 8863 0036 002B     		cmp	r3, #0
 8864 0038 03D0     		beq	.L682
 8865              		.loc 1 2657 0
 8866 003a F623     		movs	r3, #246
 8867 003c 8DF80A30 		strb	r3, [sp, #10]
 8868 0040 3CE1     		b	.L683
 8869              	.L682:
 8870              		.loc 1 2658 0
 8871 0042 9DF80230 		ldrb	r3, [sp, #2]	@ zero_extendqisi2
 8872 0046 142B     		cmp	r3, #20
 8873 0048 15D1     		bne	.L684
 8874              		.loc 1 2659 0
 8875 004a 9DF80030 		ldrb	r3, [sp]	@ zero_extendqisi2
 8876 004e 002B     		cmp	r3, #0
 8877 0050 03D1     		bne	.L685
 8878              		.loc 1 2660 0
 8879 0052 1023     		movs	r3, #16
 8880 0054 8DF80B30 		strb	r3, [sp, #11]
 8881 0058 02E0     		b	.L686
 8882              	.L685:
 8883              		.loc 1 2662 0
 8884 005a 0123     		movs	r3, #1
 8885 005c 8DF80B30 		strb	r3, [sp, #11]
 8886              	.L686:
 8887              		.loc 1 2664 0
 8888 0060 9DF80B30 		ldrb	r3, [sp, #11]	@ zero_extendqisi2
 8889 0064 1A46     		mov	r2, r3
 8890 0066 8421     		movs	r1, #132
 8891 0068 0198     		ldr	r0, [sp, #4]
 8892 006a FFF7FEFF 		bl	VL53L0X_WrByte
ARM GAS  C:\Users\PCHAUT~1\AppData\Local\Temp\ccZvjaUR.s 			page 157


 8893 006e 0346     		mov	r3, r0
 8894 0070 8DF80A30 		strb	r3, [sp, #10]
 8895 0074 22E1     		b	.L683
 8896              	.L684:
 8897              		.loc 1 2667 0
 8898 0076 9DF80230 		ldrb	r3, [sp, #2]	@ zero_extendqisi2
 8899 007a 152B     		cmp	r3, #21
 8900 007c 40F0B580 		bne	.L687
 8901              		.loc 1 2669 0
 8902 0080 0122     		movs	r2, #1
 8903 0082 FF21     		movs	r1, #255
 8904 0084 0198     		ldr	r0, [sp, #4]
 8905 0086 FFF7FEFF 		bl	VL53L0X_WrByte
 8906 008a 0346     		mov	r3, r0
 8907 008c 1A46     		mov	r2, r3
 8908 008e 9DF80A30 		ldrb	r3, [sp, #10]
 8909 0092 1343     		orrs	r3, r3, r2
 8910 0094 8DF80A30 		strb	r3, [sp, #10]
 8911              		.loc 1 2670 0
 8912 0098 0022     		movs	r2, #0
 8913 009a 0021     		movs	r1, #0
 8914 009c 0198     		ldr	r0, [sp, #4]
 8915 009e FFF7FEFF 		bl	VL53L0X_WrByte
 8916 00a2 0346     		mov	r3, r0
 8917 00a4 1A46     		mov	r2, r3
 8918 00a6 9DF80A30 		ldrb	r3, [sp, #10]
 8919 00aa 1343     		orrs	r3, r3, r2
 8920 00ac 8DF80A30 		strb	r3, [sp, #10]
 8921              		.loc 1 2672 0
 8922 00b0 0022     		movs	r2, #0
 8923 00b2 FF21     		movs	r1, #255
 8924 00b4 0198     		ldr	r0, [sp, #4]
 8925 00b6 FFF7FEFF 		bl	VL53L0X_WrByte
 8926 00ba 0346     		mov	r3, r0
 8927 00bc 1A46     		mov	r2, r3
 8928 00be 9DF80A30 		ldrb	r3, [sp, #10]
 8929 00c2 1343     		orrs	r3, r3, r2
 8930 00c4 8DF80A30 		strb	r3, [sp, #10]
 8931              		.loc 1 2673 0
 8932 00c8 0122     		movs	r2, #1
 8933 00ca 8021     		movs	r1, #128
 8934 00cc 0198     		ldr	r0, [sp, #4]
 8935 00ce FFF7FEFF 		bl	VL53L0X_WrByte
 8936 00d2 0346     		mov	r3, r0
 8937 00d4 1A46     		mov	r2, r3
 8938 00d6 9DF80A30 		ldrb	r3, [sp, #10]
 8939 00da 1343     		orrs	r3, r3, r2
 8940 00dc 8DF80A30 		strb	r3, [sp, #10]
 8941              		.loc 1 2674 0
 8942 00e0 0222     		movs	r2, #2
 8943 00e2 8521     		movs	r1, #133
 8944 00e4 0198     		ldr	r0, [sp, #4]
 8945 00e6 FFF7FEFF 		bl	VL53L0X_WrByte
 8946 00ea 0346     		mov	r3, r0
 8947 00ec 1A46     		mov	r2, r3
 8948 00ee 9DF80A30 		ldrb	r3, [sp, #10]
 8949 00f2 1343     		orrs	r3, r3, r2
ARM GAS  C:\Users\PCHAUT~1\AppData\Local\Temp\ccZvjaUR.s 			page 158


 8950 00f4 8DF80A30 		strb	r3, [sp, #10]
 8951              		.loc 1 2676 0
 8952 00f8 0422     		movs	r2, #4
 8953 00fa FF21     		movs	r1, #255
 8954 00fc 0198     		ldr	r0, [sp, #4]
 8955 00fe FFF7FEFF 		bl	VL53L0X_WrByte
 8956 0102 0346     		mov	r3, r0
 8957 0104 1A46     		mov	r2, r3
 8958 0106 9DF80A30 		ldrb	r3, [sp, #10]
 8959 010a 1343     		orrs	r3, r3, r2
 8960 010c 8DF80A30 		strb	r3, [sp, #10]
 8961              		.loc 1 2677 0
 8962 0110 0022     		movs	r2, #0
 8963 0112 CD21     		movs	r1, #205
 8964 0114 0198     		ldr	r0, [sp, #4]
 8965 0116 FFF7FEFF 		bl	VL53L0X_WrByte
 8966 011a 0346     		mov	r3, r0
 8967 011c 1A46     		mov	r2, r3
 8968 011e 9DF80A30 		ldrb	r3, [sp, #10]
 8969 0122 1343     		orrs	r3, r3, r2
 8970 0124 8DF80A30 		strb	r3, [sp, #10]
 8971              		.loc 1 2678 0
 8972 0128 1122     		movs	r2, #17
 8973 012a CC21     		movs	r1, #204
 8974 012c 0198     		ldr	r0, [sp, #4]
 8975 012e FFF7FEFF 		bl	VL53L0X_WrByte
 8976 0132 0346     		mov	r3, r0
 8977 0134 1A46     		mov	r2, r3
 8978 0136 9DF80A30 		ldrb	r3, [sp, #10]
 8979 013a 1343     		orrs	r3, r3, r2
 8980 013c 8DF80A30 		strb	r3, [sp, #10]
 8981              		.loc 1 2680 0
 8982 0140 0722     		movs	r2, #7
 8983 0142 FF21     		movs	r1, #255
 8984 0144 0198     		ldr	r0, [sp, #4]
 8985 0146 FFF7FEFF 		bl	VL53L0X_WrByte
 8986 014a 0346     		mov	r3, r0
 8987 014c 1A46     		mov	r2, r3
 8988 014e 9DF80A30 		ldrb	r3, [sp, #10]
 8989 0152 1343     		orrs	r3, r3, r2
 8990 0154 8DF80A30 		strb	r3, [sp, #10]
 8991              		.loc 1 2681 0
 8992 0158 0022     		movs	r2, #0
 8993 015a BE21     		movs	r1, #190
 8994 015c 0198     		ldr	r0, [sp, #4]
 8995 015e FFF7FEFF 		bl	VL53L0X_WrByte
 8996 0162 0346     		mov	r3, r0
 8997 0164 1A46     		mov	r2, r3
 8998 0166 9DF80A30 		ldrb	r3, [sp, #10]
 8999 016a 1343     		orrs	r3, r3, r2
 9000 016c 8DF80A30 		strb	r3, [sp, #10]
 9001              		.loc 1 2683 0
 9002 0170 0622     		movs	r2, #6
 9003 0172 FF21     		movs	r1, #255
 9004 0174 0198     		ldr	r0, [sp, #4]
 9005 0176 FFF7FEFF 		bl	VL53L0X_WrByte
 9006 017a 0346     		mov	r3, r0
ARM GAS  C:\Users\PCHAUT~1\AppData\Local\Temp\ccZvjaUR.s 			page 159


 9007 017c 1A46     		mov	r2, r3
 9008 017e 9DF80A30 		ldrb	r3, [sp, #10]
 9009 0182 1343     		orrs	r3, r3, r2
 9010 0184 8DF80A30 		strb	r3, [sp, #10]
 9011              		.loc 1 2684 0
 9012 0188 0922     		movs	r2, #9
 9013 018a CC21     		movs	r1, #204
 9014 018c 0198     		ldr	r0, [sp, #4]
 9015 018e FFF7FEFF 		bl	VL53L0X_WrByte
 9016 0192 0346     		mov	r3, r0
 9017 0194 1A46     		mov	r2, r3
 9018 0196 9DF80A30 		ldrb	r3, [sp, #10]
 9019 019a 1343     		orrs	r3, r3, r2
 9020 019c 8DF80A30 		strb	r3, [sp, #10]
 9021              		.loc 1 2686 0
 9022 01a0 0022     		movs	r2, #0
 9023 01a2 FF21     		movs	r1, #255
 9024 01a4 0198     		ldr	r0, [sp, #4]
 9025 01a6 FFF7FEFF 		bl	VL53L0X_WrByte
 9026 01aa 0346     		mov	r3, r0
 9027 01ac 1A46     		mov	r2, r3
 9028 01ae 9DF80A30 		ldrb	r3, [sp, #10]
 9029 01b2 1343     		orrs	r3, r3, r2
 9030 01b4 8DF80A30 		strb	r3, [sp, #10]
 9031              		.loc 1 2687 0
 9032 01b8 0122     		movs	r2, #1
 9033 01ba FF21     		movs	r1, #255
 9034 01bc 0198     		ldr	r0, [sp, #4]
 9035 01be FFF7FEFF 		bl	VL53L0X_WrByte
 9036 01c2 0346     		mov	r3, r0
 9037 01c4 1A46     		mov	r2, r3
 9038 01c6 9DF80A30 		ldrb	r3, [sp, #10]
 9039 01ca 1343     		orrs	r3, r3, r2
 9040 01cc 8DF80A30 		strb	r3, [sp, #10]
 9041              		.loc 1 2688 0
 9042 01d0 0022     		movs	r2, #0
 9043 01d2 0021     		movs	r1, #0
 9044 01d4 0198     		ldr	r0, [sp, #4]
 9045 01d6 FFF7FEFF 		bl	VL53L0X_WrByte
 9046 01da 0346     		mov	r3, r0
 9047 01dc 1A46     		mov	r2, r3
 9048 01de 9DF80A30 		ldrb	r3, [sp, #10]
 9049 01e2 1343     		orrs	r3, r3, r2
 9050 01e4 8DF80A30 		strb	r3, [sp, #10]
 9051 01e8 68E0     		b	.L683
 9052              	.L687:
 9053              		.loc 1 2692 0
 9054 01ea 9DF90A30 		ldrsb	r3, [sp, #10]
 9055 01ee 002B     		cmp	r3, #0
 9056 01f0 28D1     		bne	.L703
 9057              		.loc 1 2693 0
 9058 01f2 9DF80130 		ldrb	r3, [sp, #1]	@ zero_extendqisi2
 9059 01f6 042B     		cmp	r3, #4
 9060 01f8 20D8     		bhi	.L689
 9061 01fa 01A2     		adr	r2, .L691
 9062 01fc 52F823F0 		ldr	pc, [r2, r3, lsl #2]
 9063              		.p2align 2
ARM GAS  C:\Users\PCHAUT~1\AppData\Local\Temp\ccZvjaUR.s 			page 160


 9064              	.L691:
 9065 0200 15020000 		.word	.L690+1
 9066 0204 1D020000 		.word	.L692+1
 9067 0208 25020000 		.word	.L693+1
 9068 020c 2D020000 		.word	.L694+1
 9069 0210 35020000 		.word	.L695+1
 9070              		.p2align 1
 9071              	.L690:
 9072              		.loc 1 2695 0
 9073 0214 0023     		movs	r3, #0
 9074 0216 8DF80B30 		strb	r3, [sp, #11]
 9075              		.loc 1 2696 0
 9076 021a 14E0     		b	.L688
 9077              	.L692:
 9078              		.loc 1 2698 0
 9079 021c 0123     		movs	r3, #1
 9080 021e 8DF80B30 		strb	r3, [sp, #11]
 9081              		.loc 1 2699 0
 9082 0222 10E0     		b	.L688
 9083              	.L693:
 9084              		.loc 1 2701 0
 9085 0224 0223     		movs	r3, #2
 9086 0226 8DF80B30 		strb	r3, [sp, #11]
 9087              		.loc 1 2702 0
 9088 022a 0CE0     		b	.L688
 9089              	.L694:
 9090              		.loc 1 2704 0
 9091 022c 0323     		movs	r3, #3
 9092 022e 8DF80B30 		strb	r3, [sp, #11]
 9093              		.loc 1 2705 0
 9094 0232 08E0     		b	.L688
 9095              	.L695:
 9096              		.loc 1 2707 0
 9097 0234 0423     		movs	r3, #4
 9098 0236 8DF80B30 		strb	r3, [sp, #11]
 9099              		.loc 1 2708 0
 9100 023a 04E0     		b	.L688
 9101              	.L689:
 9102              		.loc 1 2710 0
 9103 023c F523     		movs	r3, #245
 9104 023e 8DF80A30 		strb	r3, [sp, #10]
 9105 0242 00E0     		b	.L688
 9106              	.L703:
 9107              		.loc 1 2713 0
 9108 0244 00BF     		nop
 9109              	.L688:
 9110              		.loc 1 2715 0
 9111 0246 9DF90A30 		ldrsb	r3, [sp, #10]
 9112 024a 002B     		cmp	r3, #0
 9113 024c 09D1     		bne	.L696
 9114              		.loc 1 2716 0
 9115 024e 9DF80B30 		ldrb	r3, [sp, #11]	@ zero_extendqisi2
 9116 0252 1A46     		mov	r2, r3
 9117 0254 0A21     		movs	r1, #10
 9118 0256 0198     		ldr	r0, [sp, #4]
 9119 0258 FFF7FEFF 		bl	VL53L0X_WrByte
 9120 025c 0346     		mov	r3, r0
ARM GAS  C:\Users\PCHAUT~1\AppData\Local\Temp\ccZvjaUR.s 			page 161


 9121 025e 8DF80A30 		strb	r3, [sp, #10]
 9122              	.L696:
 9123              		.loc 1 2719 0
 9124 0262 9DF90A30 		ldrsb	r3, [sp, #10]
 9125 0266 002B     		cmp	r3, #0
 9126 0268 14D1     		bne	.L697
 9127              		.loc 1 2720 0
 9128 026a 9DF80030 		ldrb	r3, [sp]	@ zero_extendqisi2
 9129 026e 002B     		cmp	r3, #0
 9130 0270 03D1     		bne	.L698
 9131              		.loc 1 2721 0
 9132 0272 0023     		movs	r3, #0
 9133 0274 8DF80B30 		strb	r3, [sp, #11]
 9134 0278 02E0     		b	.L699
 9135              	.L698:
 9136              		.loc 1 2723 0
 9137 027a 1023     		movs	r3, #16
 9138 027c 8DF80B30 		strb	r3, [sp, #11]
 9139              	.L699:
 9140              		.loc 1 2725 0
 9141 0280 9DF80B30 		ldrb	r3, [sp, #11]	@ zero_extendqisi2
 9142 0284 EF22     		movs	r2, #239
 9143 0286 8421     		movs	r1, #132
 9144 0288 0198     		ldr	r0, [sp, #4]
 9145 028a FFF7FEFF 		bl	VL53L0X_UpdateByte
 9146 028e 0346     		mov	r3, r0
 9147 0290 8DF80A30 		strb	r3, [sp, #10]
 9148              	.L697:
 9149              		.loc 1 2729 0
 9150 0294 9DF90A30 		ldrsb	r3, [sp, #10]
 9151 0298 002B     		cmp	r3, #0
 9152 029a 04D1     		bne	.L700
 9153              		.loc 1 2730 0
 9154 029c 019B     		ldr	r3, [sp, #4]
 9155 029e 9DF80120 		ldrb	r2, [sp, #1]
 9156 02a2 83F8DA20 		strb	r2, [r3, #218]
 9157              	.L700:
 9158              		.loc 1 2733 0
 9159 02a6 9DF90A30 		ldrsb	r3, [sp, #10]
 9160 02aa 002B     		cmp	r3, #0
 9161 02ac 06D1     		bne	.L683
 9162              		.loc 1 2734 0
 9163 02ae 0021     		movs	r1, #0
 9164 02b0 0198     		ldr	r0, [sp, #4]
 9165 02b2 FFF7FEFF 		bl	VL53L0X_ClearInterruptMask
 9166 02b6 0346     		mov	r3, r0
 9167 02b8 8DF80A30 		strb	r3, [sp, #10]
 9168              	.L683:
 9169              		.loc 1 2739 0
 9170 02bc 9DF90A30 		ldrsb	r3, [sp, #10]
 9171              		.loc 1 2740 0
 9172 02c0 1846     		mov	r0, r3
 9173 02c2 054B     		ldr	r3, .L704
 9174 02c4 039A     		ldr	r2, [sp, #12]
 9175 02c6 1B68     		ldr	r3, [r3]
 9176 02c8 9A42     		cmp	r2, r3
 9177 02ca 01D0     		beq	.L702
ARM GAS  C:\Users\PCHAUT~1\AppData\Local\Temp\ccZvjaUR.s 			page 162


 9178 02cc FFF7FEFF 		bl	__stack_chk_fail
 9179              	.L702:
 9180 02d0 05B0     		add	sp, sp, #20
 9181              		.cfi_def_cfa_offset 4
 9182              		@ sp needed
 9183 02d2 5DF804FB 		ldr	pc, [sp], #4
 9184              	.L705:
 9185 02d6 00BF     		.align	2
 9186              	.L704:
 9187 02d8 00000000 		.word	__stack_chk_guard
 9188              		.cfi_endproc
 9189              	.LFE87:
 9190              		.size	VL53L0X_SetGpioConfig, .-VL53L0X_SetGpioConfig
 9191              		.section	.text.VL53L0X_GetGpioConfig,"ax",%progbits
 9192              		.align	1
 9193              		.p2align 4,,15
 9194              		.global	VL53L0X_GetGpioConfig
 9195              		.syntax unified
 9196              		.thumb
 9197              		.thumb_func
 9198              		.fpu fpv4-sp-d16
 9199              		.type	VL53L0X_GetGpioConfig, %function
 9200              	VL53L0X_GetGpioConfig:
 9201              	.LFB88:
 9202              		.loc 1 2746 0
 9203              		.cfi_startproc
 9204              		@ args = 4, pretend = 0, frame = 32
 9205              		@ frame_needed = 0, uses_anonymous_args = 0
 9206 0000 00B5     		push	{lr}
 9207              		.cfi_def_cfa_offset 4
 9208              		.cfi_offset 14, -4
 9209 0002 89B0     		sub	sp, sp, #36
 9210              		.cfi_def_cfa_offset 40
 9211 0004 0590     		str	r0, [sp, #20]
 9212 0006 0392     		str	r2, [sp, #12]
 9213 0008 0293     		str	r3, [sp, #8]
 9214 000a 0B46     		mov	r3, r1
 9215 000c 8DF81330 		strb	r3, [sp, #19]
 9216 0010 0A9B     		ldr	r3, [sp, #40]
 9217 0012 0193     		str	r3, [sp, #4]
 9218              		.loc 1 2746 0
 9219 0014 454B     		ldr	r3, .L724
 9220 0016 1B68     		ldr	r3, [r3]
 9221 0018 0793     		str	r3, [sp, #28]
 9222              		.loc 1 2747 0
 9223 001a 0023     		movs	r3, #0
 9224 001c 8DF81A30 		strb	r3, [sp, #26]
 9225              		.loc 1 2755 0
 9226 0020 0399     		ldr	r1, [sp, #12]
 9227 0022 0598     		ldr	r0, [sp, #20]
 9228 0024 FFF7FEFF 		bl	VL53L0X_GetDeviceMode
 9229 0028 0346     		mov	r3, r0
 9230 002a 8DF81A30 		strb	r3, [sp, #26]
 9231              		.loc 1 2757 0
 9232 002e 9DF91A30 		ldrsb	r3, [sp, #26]
 9233 0032 002B     		cmp	r3, #0
 9234 0034 11D1     		bne	.L707
ARM GAS  C:\Users\PCHAUT~1\AppData\Local\Temp\ccZvjaUR.s 			page 163


 9235              		.loc 1 2758 0
 9236 0036 9DF81330 		ldrb	r3, [sp, #19]	@ zero_extendqisi2
 9237 003a 002B     		cmp	r3, #0
 9238 003c 03D0     		beq	.L708
 9239              		.loc 1 2759 0
 9240 003e F623     		movs	r3, #246
 9241 0040 8DF81A30 		strb	r3, [sp, #26]
 9242 0044 09E0     		b	.L707
 9243              	.L708:
 9244              		.loc 1 2761 0
 9245 0046 0DF11903 		add	r3, sp, #25
 9246 004a 1A46     		mov	r2, r3
 9247 004c 0A21     		movs	r1, #10
 9248 004e 0598     		ldr	r0, [sp, #20]
 9249 0050 FFF7FEFF 		bl	VL53L0X_RdByte
 9250 0054 0346     		mov	r3, r0
 9251 0056 8DF81A30 		strb	r3, [sp, #26]
 9252              	.L707:
 9253              		.loc 1 2766 0
 9254 005a 9DF91A30 		ldrsb	r3, [sp, #26]
 9255 005e 002B     		cmp	r3, #0
 9256 0060 2AD1     		bne	.L723
 9257              		.loc 1 2767 0
 9258 0062 9DF81930 		ldrb	r3, [sp, #25]	@ zero_extendqisi2
 9259 0066 03F00703 		and	r3, r3, #7
 9260 006a 042B     		cmp	r3, #4
 9261 006c 20D8     		bhi	.L710
 9262 006e 01A2     		adr	r2, .L712
 9263 0070 52F823F0 		ldr	pc, [r2, r3, lsl #2]
 9264              		.p2align 2
 9265              	.L712:
 9266 0074 89000000 		.word	.L711+1
 9267 0078 91000000 		.word	.L713+1
 9268 007c 99000000 		.word	.L714+1
 9269 0080 A1000000 		.word	.L715+1
 9270 0084 A9000000 		.word	.L716+1
 9271              		.p2align 1
 9272              	.L711:
 9273              		.loc 1 2769 0
 9274 0088 0023     		movs	r3, #0
 9275 008a 8DF81B30 		strb	r3, [sp, #27]
 9276              		.loc 1 2770 0
 9277 008e 14E0     		b	.L709
 9278              	.L713:
 9279              		.loc 1 2772 0
 9280 0090 0123     		movs	r3, #1
 9281 0092 8DF81B30 		strb	r3, [sp, #27]
 9282              		.loc 1 2774 0
 9283 0096 10E0     		b	.L709
 9284              	.L714:
 9285              		.loc 1 2776 0
 9286 0098 0223     		movs	r3, #2
 9287 009a 8DF81B30 		strb	r3, [sp, #27]
 9288              		.loc 1 2778 0
 9289 009e 0CE0     		b	.L709
 9290              	.L715:
 9291              		.loc 1 2780 0
ARM GAS  C:\Users\PCHAUT~1\AppData\Local\Temp\ccZvjaUR.s 			page 164


 9292 00a0 0323     		movs	r3, #3
 9293 00a2 8DF81B30 		strb	r3, [sp, #27]
 9294              		.loc 1 2782 0
 9295 00a6 08E0     		b	.L709
 9296              	.L716:
 9297              		.loc 1 2784 0
 9298 00a8 0423     		movs	r3, #4
 9299 00aa 8DF81B30 		strb	r3, [sp, #27]
 9300              		.loc 1 2786 0
 9301 00ae 04E0     		b	.L709
 9302              	.L710:
 9303              		.loc 1 2788 0
 9304 00b0 F523     		movs	r3, #245
 9305 00b2 8DF81A30 		strb	r3, [sp, #26]
 9306 00b6 00E0     		b	.L709
 9307              	.L723:
 9308              		.loc 1 2790 0
 9309 00b8 00BF     		nop
 9310              	.L709:
 9311              		.loc 1 2792 0
 9312 00ba 9DF91A30 		ldrsb	r3, [sp, #26]
 9313 00be 002B     		cmp	r3, #0
 9314 00c0 09D1     		bne	.L717
 9315              		.loc 1 2793 0
 9316 00c2 0DF11903 		add	r3, sp, #25
 9317 00c6 1A46     		mov	r2, r3
 9318 00c8 8421     		movs	r1, #132
 9319 00ca 0598     		ldr	r0, [sp, #20]
 9320 00cc FFF7FEFF 		bl	VL53L0X_RdByte
 9321 00d0 0346     		mov	r3, r0
 9322 00d2 8DF81A30 		strb	r3, [sp, #26]
 9323              	.L717:
 9324              		.loc 1 2796 0
 9325 00d6 9DF91A30 		ldrsb	r3, [sp, #26]
 9326 00da 002B     		cmp	r3, #0
 9327 00dc 0CD1     		bne	.L718
 9328              		.loc 1 2797 0
 9329 00de 9DF81930 		ldrb	r3, [sp, #25]	@ zero_extendqisi2
 9330 00e2 03F01003 		and	r3, r3, #16
 9331 00e6 002B     		cmp	r3, #0
 9332 00e8 03D1     		bne	.L719
 9333              		.loc 1 2798 0
 9334 00ea 019B     		ldr	r3, [sp, #4]
 9335 00ec 0022     		movs	r2, #0
 9336 00ee 1A70     		strb	r2, [r3]
 9337 00f0 02E0     		b	.L718
 9338              	.L719:
 9339              		.loc 1 2800 0
 9340 00f2 019B     		ldr	r3, [sp, #4]
 9341 00f4 0122     		movs	r2, #1
 9342 00f6 1A70     		strb	r2, [r3]
 9343              	.L718:
 9344              		.loc 1 2803 0
 9345 00f8 9DF91A30 		ldrsb	r3, [sp, #26]
 9346 00fc 002B     		cmp	r3, #0
 9347 00fe 08D1     		bne	.L720
 9348              		.loc 1 2804 0
ARM GAS  C:\Users\PCHAUT~1\AppData\Local\Temp\ccZvjaUR.s 			page 165


 9349 0100 029B     		ldr	r3, [sp, #8]
 9350 0102 9DF81B20 		ldrb	r2, [sp, #27]
 9351 0106 1A70     		strb	r2, [r3]
 9352              		.loc 1 2805 0
 9353 0108 059B     		ldr	r3, [sp, #20]
 9354 010a 9DF81B20 		ldrb	r2, [sp, #27]
 9355 010e 83F8DA20 		strb	r2, [r3, #218]
 9356              	.L720:
 9357              		.loc 1 2810 0
 9358 0112 9DF91A30 		ldrsb	r3, [sp, #26]
 9359              		.loc 1 2811 0
 9360 0116 1846     		mov	r0, r3
 9361 0118 044B     		ldr	r3, .L724
 9362 011a 079A     		ldr	r2, [sp, #28]
 9363 011c 1B68     		ldr	r3, [r3]
 9364 011e 9A42     		cmp	r2, r3
 9365 0120 01D0     		beq	.L722
 9366 0122 FFF7FEFF 		bl	__stack_chk_fail
 9367              	.L722:
 9368 0126 09B0     		add	sp, sp, #36
 9369              		.cfi_def_cfa_offset 4
 9370              		@ sp needed
 9371 0128 5DF804FB 		ldr	pc, [sp], #4
 9372              	.L725:
 9373              		.align	2
 9374              	.L724:
 9375 012c 00000000 		.word	__stack_chk_guard
 9376              		.cfi_endproc
 9377              	.LFE88:
 9378              		.size	VL53L0X_GetGpioConfig, .-VL53L0X_GetGpioConfig
 9379              		.section	.text.VL53L0X_SetInterruptThresholds,"ax",%progbits
 9380              		.align	1
 9381              		.p2align 4,,15
 9382              		.global	VL53L0X_SetInterruptThresholds
 9383              		.syntax unified
 9384              		.thumb
 9385              		.thumb_func
 9386              		.fpu fpv4-sp-d16
 9387              		.type	VL53L0X_SetInterruptThresholds, %function
 9388              	VL53L0X_SetInterruptThresholds:
 9389              	.LFB89:
 9390              		.loc 1 2816 0
 9391              		.cfi_startproc
 9392              		@ args = 0, pretend = 0, frame = 24
 9393              		@ frame_needed = 0, uses_anonymous_args = 0
 9394 0000 00B5     		push	{lr}
 9395              		.cfi_def_cfa_offset 4
 9396              		.cfi_offset 14, -4
 9397 0002 87B0     		sub	sp, sp, #28
 9398              		.cfi_def_cfa_offset 32
 9399 0004 0390     		str	r0, [sp, #12]
 9400 0006 0192     		str	r2, [sp, #4]
 9401 0008 0093     		str	r3, [sp]
 9402 000a 0B46     		mov	r3, r1
 9403 000c 8DF80B30 		strb	r3, [sp, #11]
 9404              		.loc 1 2816 0
 9405 0010 1C4B     		ldr	r3, .L730
ARM GAS  C:\Users\PCHAUT~1\AppData\Local\Temp\ccZvjaUR.s 			page 166


 9406 0012 1B68     		ldr	r3, [r3]
 9407 0014 0593     		str	r3, [sp, #20]
 9408              		.loc 1 2818 0
 9409 0016 0023     		movs	r3, #0
 9410 0018 8DF81130 		strb	r3, [sp, #17]
 9411              		.loc 1 2824 0
 9412 001c 019B     		ldr	r3, [sp, #4]
 9413 001e 5B0C     		lsrs	r3, r3, #17
 9414 0020 9BB2     		uxth	r3, r3
 9415 0022 C3F30B03 		ubfx	r3, r3, #0, #12
 9416 0026 ADF81230 		strh	r3, [sp, #18]	@ movhi
 9417              		.loc 1 2825 0
 9418 002a BDF81230 		ldrh	r3, [sp, #18]
 9419 002e 1A46     		mov	r2, r3
 9420 0030 0E21     		movs	r1, #14
 9421 0032 0398     		ldr	r0, [sp, #12]
 9422 0034 FFF7FEFF 		bl	VL53L0X_WrWord
 9423 0038 0346     		mov	r3, r0
 9424 003a 8DF81130 		strb	r3, [sp, #17]
 9425              		.loc 1 2827 0
 9426 003e 9DF91130 		ldrsb	r3, [sp, #17]
 9427 0042 002B     		cmp	r3, #0
 9428 0044 10D1     		bne	.L727
 9429              		.loc 1 2829 0
 9430 0046 009B     		ldr	r3, [sp]
 9431 0048 5B0C     		lsrs	r3, r3, #17
 9432 004a 9BB2     		uxth	r3, r3
 9433 004c C3F30B03 		ubfx	r3, r3, #0, #12
 9434 0050 ADF81230 		strh	r3, [sp, #18]	@ movhi
 9435              		.loc 1 2830 0
 9436 0054 BDF81230 		ldrh	r3, [sp, #18]
 9437 0058 1A46     		mov	r2, r3
 9438 005a 0C21     		movs	r1, #12
 9439 005c 0398     		ldr	r0, [sp, #12]
 9440 005e FFF7FEFF 		bl	VL53L0X_WrWord
 9441 0062 0346     		mov	r3, r0
 9442 0064 8DF81130 		strb	r3, [sp, #17]
 9443              	.L727:
 9444              		.loc 1 2835 0
 9445 0068 9DF91130 		ldrsb	r3, [sp, #17]
 9446              		.loc 1 2836 0
 9447 006c 1846     		mov	r0, r3
 9448 006e 054B     		ldr	r3, .L730
 9449 0070 059A     		ldr	r2, [sp, #20]
 9450 0072 1B68     		ldr	r3, [r3]
 9451 0074 9A42     		cmp	r2, r3
 9452 0076 01D0     		beq	.L729
 9453 0078 FFF7FEFF 		bl	__stack_chk_fail
 9454              	.L729:
 9455 007c 07B0     		add	sp, sp, #28
 9456              		.cfi_def_cfa_offset 4
 9457              		@ sp needed
 9458 007e 5DF804FB 		ldr	pc, [sp], #4
 9459              	.L731:
 9460 0082 00BF     		.align	2
 9461              	.L730:
 9462 0084 00000000 		.word	__stack_chk_guard
ARM GAS  C:\Users\PCHAUT~1\AppData\Local\Temp\ccZvjaUR.s 			page 167


 9463              		.cfi_endproc
 9464              	.LFE89:
 9465              		.size	VL53L0X_SetInterruptThresholds, .-VL53L0X_SetInterruptThresholds
 9466              		.section	.text.VL53L0X_GetInterruptThresholds,"ax",%progbits
 9467              		.align	1
 9468              		.p2align 4,,15
 9469              		.global	VL53L0X_GetInterruptThresholds
 9470              		.syntax unified
 9471              		.thumb
 9472              		.thumb_func
 9473              		.fpu fpv4-sp-d16
 9474              		.type	VL53L0X_GetInterruptThresholds, %function
 9475              	VL53L0X_GetInterruptThresholds:
 9476              	.LFB90:
 9477              		.loc 1 2841 0
 9478              		.cfi_startproc
 9479              		@ args = 0, pretend = 0, frame = 24
 9480              		@ frame_needed = 0, uses_anonymous_args = 0
 9481 0000 00B5     		push	{lr}
 9482              		.cfi_def_cfa_offset 4
 9483              		.cfi_offset 14, -4
 9484 0002 87B0     		sub	sp, sp, #28
 9485              		.cfi_def_cfa_offset 32
 9486 0004 0390     		str	r0, [sp, #12]
 9487 0006 0192     		str	r2, [sp, #4]
 9488 0008 0093     		str	r3, [sp]
 9489 000a 0B46     		mov	r3, r1
 9490 000c 8DF80B30 		strb	r3, [sp, #11]
 9491              		.loc 1 2841 0
 9492 0010 1D4B     		ldr	r3, .L736
 9493 0012 1B68     		ldr	r3, [r3]
 9494 0014 0593     		str	r3, [sp, #20]
 9495              		.loc 1 2843 0
 9496 0016 0023     		movs	r3, #0
 9497 0018 8DF81130 		strb	r3, [sp, #17]
 9498              		.loc 1 2849 0
 9499 001c 0DF11203 		add	r3, sp, #18
 9500 0020 1A46     		mov	r2, r3
 9501 0022 0E21     		movs	r1, #14
 9502 0024 0398     		ldr	r0, [sp, #12]
 9503 0026 FFF7FEFF 		bl	VL53L0X_RdWord
 9504 002a 0346     		mov	r3, r0
 9505 002c 8DF81130 		strb	r3, [sp, #17]
 9506              		.loc 1 2851 0
 9507 0030 BDF81230 		ldrh	r3, [sp, #18]
 9508 0034 5B04     		lsls	r3, r3, #17
 9509 0036 1A46     		mov	r2, r3
 9510 0038 144B     		ldr	r3, .L736+4
 9511 003a 1340     		ands	r3, r3, r2
 9512 003c 019A     		ldr	r2, [sp, #4]
 9513 003e 1360     		str	r3, [r2]
 9514              		.loc 1 2853 0
 9515 0040 9DF91130 		ldrsb	r3, [sp, #17]
 9516 0044 002B     		cmp	r3, #0
 9517 0046 11D1     		bne	.L733
 9518              		.loc 1 2854 0
 9519 0048 0DF11203 		add	r3, sp, #18
ARM GAS  C:\Users\PCHAUT~1\AppData\Local\Temp\ccZvjaUR.s 			page 168


 9520 004c 1A46     		mov	r2, r3
 9521 004e 0C21     		movs	r1, #12
 9522 0050 0398     		ldr	r0, [sp, #12]
 9523 0052 FFF7FEFF 		bl	VL53L0X_RdWord
 9524 0056 0346     		mov	r3, r0
 9525 0058 8DF81130 		strb	r3, [sp, #17]
 9526              		.loc 1 2858 0
 9527 005c BDF81230 		ldrh	r3, [sp, #18]
 9528 0060 5B04     		lsls	r3, r3, #17
 9529 0062 1A46     		mov	r2, r3
 9530 0064 094B     		ldr	r3, .L736+4
 9531 0066 1340     		ands	r3, r3, r2
 9532              		.loc 1 2857 0
 9533 0068 009A     		ldr	r2, [sp]
 9534 006a 1360     		str	r3, [r2]
 9535              	.L733:
 9536              		.loc 1 2862 0
 9537 006c 9DF91130 		ldrsb	r3, [sp, #17]
 9538              		.loc 1 2863 0
 9539 0070 1846     		mov	r0, r3
 9540 0072 054B     		ldr	r3, .L736
 9541 0074 059A     		ldr	r2, [sp, #20]
 9542 0076 1B68     		ldr	r3, [r3]
 9543 0078 9A42     		cmp	r2, r3
 9544 007a 01D0     		beq	.L735
 9545 007c FFF7FEFF 		bl	__stack_chk_fail
 9546              	.L735:
 9547 0080 07B0     		add	sp, sp, #28
 9548              		.cfi_def_cfa_offset 4
 9549              		@ sp needed
 9550 0082 5DF804FB 		ldr	pc, [sp], #4
 9551              	.L737:
 9552 0086 00BF     		.align	2
 9553              	.L736:
 9554 0088 00000000 		.word	__stack_chk_guard
 9555 008c 0000FE1F 		.word	536739840
 9556              		.cfi_endproc
 9557              	.LFE90:
 9558              		.size	VL53L0X_GetInterruptThresholds, .-VL53L0X_GetInterruptThresholds
 9559              		.section	.text.VL53L0X_GetStopCompletedStatus,"ax",%progbits
 9560              		.align	1
 9561              		.p2align 4,,15
 9562              		.global	VL53L0X_GetStopCompletedStatus
 9563              		.syntax unified
 9564              		.thumb
 9565              		.thumb_func
 9566              		.fpu fpv4-sp-d16
 9567              		.type	VL53L0X_GetStopCompletedStatus, %function
 9568              	VL53L0X_GetStopCompletedStatus:
 9569              	.LFB91:
 9570              		.loc 1 2867 0
 9571              		.cfi_startproc
 9572              		@ args = 0, pretend = 0, frame = 16
 9573              		@ frame_needed = 0, uses_anonymous_args = 0
 9574 0000 00B5     		push	{lr}
 9575              		.cfi_def_cfa_offset 4
 9576              		.cfi_offset 14, -4
ARM GAS  C:\Users\PCHAUT~1\AppData\Local\Temp\ccZvjaUR.s 			page 169


 9577 0002 85B0     		sub	sp, sp, #20
 9578              		.cfi_def_cfa_offset 24
 9579 0004 0190     		str	r0, [sp, #4]
 9580 0006 0091     		str	r1, [sp]
 9581              		.loc 1 2867 0
 9582 0008 3D4B     		ldr	r3, .L744
 9583 000a 1B68     		ldr	r3, [r3]
 9584 000c 0393     		str	r3, [sp, #12]
 9585              		.loc 1 2868 0
 9586 000e 0023     		movs	r3, #0
 9587 0010 8DF80B30 		strb	r3, [sp, #11]
 9588              		.loc 1 2869 0
 9589 0014 0023     		movs	r3, #0
 9590 0016 8DF80A30 		strb	r3, [sp, #10]
 9591              		.loc 1 2872 0
 9592 001a 0122     		movs	r2, #1
 9593 001c FF21     		movs	r1, #255
 9594 001e 0198     		ldr	r0, [sp, #4]
 9595 0020 FFF7FEFF 		bl	VL53L0X_WrByte
 9596 0024 0346     		mov	r3, r0
 9597 0026 8DF80B30 		strb	r3, [sp, #11]
 9598              		.loc 1 2874 0
 9599 002a 9DF90B30 		ldrsb	r3, [sp, #11]
 9600 002e 002B     		cmp	r3, #0
 9601 0030 09D1     		bne	.L739
 9602              		.loc 1 2875 0
 9603 0032 0DF10A03 		add	r3, sp, #10
 9604 0036 1A46     		mov	r2, r3
 9605 0038 0421     		movs	r1, #4
 9606 003a 0198     		ldr	r0, [sp, #4]
 9607 003c FFF7FEFF 		bl	VL53L0X_RdByte
 9608 0040 0346     		mov	r3, r0
 9609 0042 8DF80B30 		strb	r3, [sp, #11]
 9610              	.L739:
 9611              		.loc 1 2877 0
 9612 0046 9DF90B30 		ldrsb	r3, [sp, #11]
 9613 004a 002B     		cmp	r3, #0
 9614 004c 07D1     		bne	.L740
 9615              		.loc 1 2878 0
 9616 004e 0022     		movs	r2, #0
 9617 0050 FF21     		movs	r1, #255
 9618 0052 0198     		ldr	r0, [sp, #4]
 9619 0054 FFF7FEFF 		bl	VL53L0X_WrByte
 9620 0058 0346     		mov	r3, r0
 9621 005a 8DF80B30 		strb	r3, [sp, #11]
 9622              	.L740:
 9623              		.loc 1 2880 0
 9624 005e 9DF80A30 		ldrb	r3, [sp, #10]	@ zero_extendqisi2
 9625 0062 1A46     		mov	r2, r3
 9626 0064 009B     		ldr	r3, [sp]
 9627 0066 1A60     		str	r2, [r3]
 9628              		.loc 1 2882 0
 9629 0068 9DF80A30 		ldrb	r3, [sp, #10]	@ zero_extendqisi2
 9630 006c 002B     		cmp	r3, #0
 9631 006e 3AD1     		bne	.L741
 9632              		.loc 1 2883 0
 9633 0070 0122     		movs	r2, #1
ARM GAS  C:\Users\PCHAUT~1\AppData\Local\Temp\ccZvjaUR.s 			page 170


 9634 0072 8021     		movs	r1, #128
 9635 0074 0198     		ldr	r0, [sp, #4]
 9636 0076 FFF7FEFF 		bl	VL53L0X_WrByte
 9637 007a 0346     		mov	r3, r0
 9638 007c 8DF80B30 		strb	r3, [sp, #11]
 9639              		.loc 1 2884 0
 9640 0080 0122     		movs	r2, #1
 9641 0082 FF21     		movs	r1, #255
 9642 0084 0198     		ldr	r0, [sp, #4]
 9643 0086 FFF7FEFF 		bl	VL53L0X_WrByte
 9644 008a 0346     		mov	r3, r0
 9645 008c 8DF80B30 		strb	r3, [sp, #11]
 9646              		.loc 1 2885 0
 9647 0090 0022     		movs	r2, #0
 9648 0092 0021     		movs	r1, #0
 9649 0094 0198     		ldr	r0, [sp, #4]
 9650 0096 FFF7FEFF 		bl	VL53L0X_WrByte
 9651 009a 0346     		mov	r3, r0
 9652 009c 8DF80B30 		strb	r3, [sp, #11]
 9653              		.loc 1 2886 0
 9654 00a0 019B     		ldr	r3, [sp, #4]
 9655 00a2 93F83A31 		ldrb	r3, [r3, #314]	@ zero_extendqisi2
 9656 00a6 1A46     		mov	r2, r3
 9657 00a8 9121     		movs	r1, #145
 9658 00aa 0198     		ldr	r0, [sp, #4]
 9659 00ac FFF7FEFF 		bl	VL53L0X_WrByte
 9660 00b0 0346     		mov	r3, r0
 9661 00b2 8DF80B30 		strb	r3, [sp, #11]
 9662              		.loc 1 2888 0
 9663 00b6 0122     		movs	r2, #1
 9664 00b8 0021     		movs	r1, #0
 9665 00ba 0198     		ldr	r0, [sp, #4]
 9666 00bc FFF7FEFF 		bl	VL53L0X_WrByte
 9667 00c0 0346     		mov	r3, r0
 9668 00c2 8DF80B30 		strb	r3, [sp, #11]
 9669              		.loc 1 2889 0
 9670 00c6 0022     		movs	r2, #0
 9671 00c8 FF21     		movs	r1, #255
 9672 00ca 0198     		ldr	r0, [sp, #4]
 9673 00cc FFF7FEFF 		bl	VL53L0X_WrByte
 9674 00d0 0346     		mov	r3, r0
 9675 00d2 8DF80B30 		strb	r3, [sp, #11]
 9676              		.loc 1 2890 0
 9677 00d6 0022     		movs	r2, #0
 9678 00d8 8021     		movs	r1, #128
 9679 00da 0198     		ldr	r0, [sp, #4]
 9680 00dc FFF7FEFF 		bl	VL53L0X_WrByte
 9681 00e0 0346     		mov	r3, r0
 9682 00e2 8DF80B30 		strb	r3, [sp, #11]
 9683              	.L741:
 9684              		.loc 1 2894 0
 9685 00e6 9DF90B30 		ldrsb	r3, [sp, #11]
 9686              		.loc 1 2895 0
 9687 00ea 1846     		mov	r0, r3
 9688 00ec 044B     		ldr	r3, .L744
 9689 00ee 039A     		ldr	r2, [sp, #12]
 9690 00f0 1B68     		ldr	r3, [r3]
ARM GAS  C:\Users\PCHAUT~1\AppData\Local\Temp\ccZvjaUR.s 			page 171


 9691 00f2 9A42     		cmp	r2, r3
 9692 00f4 01D0     		beq	.L743
 9693 00f6 FFF7FEFF 		bl	__stack_chk_fail
 9694              	.L743:
 9695 00fa 05B0     		add	sp, sp, #20
 9696              		.cfi_def_cfa_offset 4
 9697              		@ sp needed
 9698 00fc 5DF804FB 		ldr	pc, [sp], #4
 9699              	.L745:
 9700              		.align	2
 9701              	.L744:
 9702 0100 00000000 		.word	__stack_chk_guard
 9703              		.cfi_endproc
 9704              	.LFE91:
 9705              		.size	VL53L0X_GetStopCompletedStatus, .-VL53L0X_GetStopCompletedStatus
 9706              		.section	.text.VL53L0X_ClearInterruptMask,"ax",%progbits
 9707              		.align	1
 9708              		.p2align 4,,15
 9709              		.global	VL53L0X_ClearInterruptMask
 9710              		.syntax unified
 9711              		.thumb
 9712              		.thumb_func
 9713              		.fpu fpv4-sp-d16
 9714              		.type	VL53L0X_ClearInterruptMask, %function
 9715              	VL53L0X_ClearInterruptMask:
 9716              	.LFB92:
 9717              		.loc 1 2899 0
 9718              		.cfi_startproc
 9719              		@ args = 0, pretend = 0, frame = 16
 9720              		@ frame_needed = 0, uses_anonymous_args = 0
 9721 0000 00B5     		push	{lr}
 9722              		.cfi_def_cfa_offset 4
 9723              		.cfi_offset 14, -4
 9724 0002 85B0     		sub	sp, sp, #20
 9725              		.cfi_def_cfa_offset 24
 9726 0004 0190     		str	r0, [sp, #4]
 9727 0006 0091     		str	r1, [sp]
 9728              		.loc 1 2899 0
 9729 0008 284B     		ldr	r3, .L752
 9730 000a 1B68     		ldr	r3, [r3]
 9731 000c 0393     		str	r3, [sp, #12]
 9732              		.loc 1 2901 0
 9733 000e 0023     		movs	r3, #0
 9734 0010 8DF80A30 		strb	r3, [sp, #10]
 9735              		.loc 1 2907 0
 9736 0014 0023     		movs	r3, #0
 9737 0016 8DF80B30 		strb	r3, [sp, #11]
 9738              	.L748:
 9739              		.loc 1 2909 0 discriminator 1
 9740 001a 0122     		movs	r2, #1
 9741 001c 0B21     		movs	r1, #11
 9742 001e 0198     		ldr	r0, [sp, #4]
 9743 0020 FFF7FEFF 		bl	VL53L0X_WrByte
 9744 0024 0346     		mov	r3, r0
 9745 0026 8DF80A30 		strb	r3, [sp, #10]
 9746              		.loc 1 2911 0 discriminator 1
 9747 002a 0022     		movs	r2, #0
ARM GAS  C:\Users\PCHAUT~1\AppData\Local\Temp\ccZvjaUR.s 			page 172


 9748 002c 0B21     		movs	r1, #11
 9749 002e 0198     		ldr	r0, [sp, #4]
 9750 0030 FFF7FEFF 		bl	VL53L0X_WrByte
 9751 0034 0346     		mov	r3, r0
 9752 0036 1A46     		mov	r2, r3
 9753 0038 9DF80A30 		ldrb	r3, [sp, #10]
 9754 003c 1343     		orrs	r3, r3, r2
 9755 003e 8DF80A30 		strb	r3, [sp, #10]
 9756              		.loc 1 2913 0 discriminator 1
 9757 0042 0DF10903 		add	r3, sp, #9
 9758 0046 1A46     		mov	r2, r3
 9759 0048 1321     		movs	r1, #19
 9760 004a 0198     		ldr	r0, [sp, #4]
 9761 004c FFF7FEFF 		bl	VL53L0X_RdByte
 9762 0050 0346     		mov	r3, r0
 9763 0052 1A46     		mov	r2, r3
 9764 0054 9DF80A30 		ldrb	r3, [sp, #10]
 9765 0058 1343     		orrs	r3, r3, r2
 9766 005a 8DF80A30 		strb	r3, [sp, #10]
 9767              		.loc 1 2915 0 discriminator 1
 9768 005e 9DF80B30 		ldrb	r3, [sp, #11]	@ zero_extendqisi2
 9769 0062 0133     		adds	r3, r3, #1
 9770 0064 8DF80B30 		strb	r3, [sp, #11]
 9771              		.loc 1 2916 0 discriminator 1
 9772 0068 9DF80930 		ldrb	r3, [sp, #9]	@ zero_extendqisi2
 9773 006c 03F00703 		and	r3, r3, #7
 9774              		.loc 1 2918 0 discriminator 1
 9775 0070 002B     		cmp	r3, #0
 9776 0072 07D0     		beq	.L747
 9777              		.loc 1 2917 0
 9778 0074 9DF80B30 		ldrb	r3, [sp, #11]	@ zero_extendqisi2
 9779 0078 022B     		cmp	r3, #2
 9780 007a 03D8     		bhi	.L747
 9781              		.loc 1 2918 0
 9782 007c 9DF90A30 		ldrsb	r3, [sp, #10]
 9783 0080 002B     		cmp	r3, #0
 9784 0082 CAD0     		beq	.L748
 9785              	.L747:
 9786              		.loc 1 2921 0
 9787 0084 9DF80B30 		ldrb	r3, [sp, #11]	@ zero_extendqisi2
 9788 0088 022B     		cmp	r3, #2
 9789 008a 02D9     		bls	.L749
 9790              		.loc 1 2922 0
 9791 008c F423     		movs	r3, #244
 9792 008e 8DF80A30 		strb	r3, [sp, #10]
 9793              	.L749:
 9794              		.loc 1 2925 0
 9795 0092 9DF90A30 		ldrsb	r3, [sp, #10]
 9796              		.loc 1 2926 0
 9797 0096 1846     		mov	r0, r3
 9798 0098 044B     		ldr	r3, .L752
 9799 009a 039A     		ldr	r2, [sp, #12]
 9800 009c 1B68     		ldr	r3, [r3]
 9801 009e 9A42     		cmp	r2, r3
 9802 00a0 01D0     		beq	.L751
 9803 00a2 FFF7FEFF 		bl	__stack_chk_fail
 9804              	.L751:
ARM GAS  C:\Users\PCHAUT~1\AppData\Local\Temp\ccZvjaUR.s 			page 173


 9805 00a6 05B0     		add	sp, sp, #20
 9806              		.cfi_def_cfa_offset 4
 9807              		@ sp needed
 9808 00a8 5DF804FB 		ldr	pc, [sp], #4
 9809              	.L753:
 9810              		.align	2
 9811              	.L752:
 9812 00ac 00000000 		.word	__stack_chk_guard
 9813              		.cfi_endproc
 9814              	.LFE92:
 9815              		.size	VL53L0X_ClearInterruptMask, .-VL53L0X_ClearInterruptMask
 9816              		.section	.text.VL53L0X_GetInterruptMaskStatus,"ax",%progbits
 9817              		.align	1
 9818              		.p2align 4,,15
 9819              		.global	VL53L0X_GetInterruptMaskStatus
 9820              		.syntax unified
 9821              		.thumb
 9822              		.thumb_func
 9823              		.fpu fpv4-sp-d16
 9824              		.type	VL53L0X_GetInterruptMaskStatus, %function
 9825              	VL53L0X_GetInterruptMaskStatus:
 9826              	.LFB93:
 9827              		.loc 1 2930 0
 9828              		.cfi_startproc
 9829              		@ args = 0, pretend = 0, frame = 16
 9830              		@ frame_needed = 0, uses_anonymous_args = 0
 9831 0000 00B5     		push	{lr}
 9832              		.cfi_def_cfa_offset 4
 9833              		.cfi_offset 14, -4
 9834 0002 85B0     		sub	sp, sp, #20
 9835              		.cfi_def_cfa_offset 24
 9836 0004 0190     		str	r0, [sp, #4]
 9837 0006 0091     		str	r1, [sp]
 9838              		.loc 1 2930 0
 9839 0008 154B     		ldr	r3, .L758
 9840 000a 1B68     		ldr	r3, [r3]
 9841 000c 0393     		str	r3, [sp, #12]
 9842              		.loc 1 2931 0
 9843 000e 0023     		movs	r3, #0
 9844 0010 8DF80B30 		strb	r3, [sp, #11]
 9845              		.loc 1 2935 0
 9846 0014 0DF10A03 		add	r3, sp, #10
 9847 0018 1A46     		mov	r2, r3
 9848 001a 1321     		movs	r1, #19
 9849 001c 0198     		ldr	r0, [sp, #4]
 9850 001e FFF7FEFF 		bl	VL53L0X_RdByte
 9851 0022 0346     		mov	r3, r0
 9852 0024 8DF80B30 		strb	r3, [sp, #11]
 9853              		.loc 1 2936 0
 9854 0028 9DF80A30 		ldrb	r3, [sp, #10]	@ zero_extendqisi2
 9855 002c 03F00702 		and	r2, r3, #7
 9856 0030 009B     		ldr	r3, [sp]
 9857 0032 1A60     		str	r2, [r3]
 9858              		.loc 1 2938 0
 9859 0034 9DF80A30 		ldrb	r3, [sp, #10]	@ zero_extendqisi2
 9860 0038 03F01803 		and	r3, r3, #24
 9861 003c 002B     		cmp	r3, #0
ARM GAS  C:\Users\PCHAUT~1\AppData\Local\Temp\ccZvjaUR.s 			page 174


 9862 003e 02D0     		beq	.L755
 9863              		.loc 1 2939 0
 9864 0040 FA23     		movs	r3, #250
 9865 0042 8DF80B30 		strb	r3, [sp, #11]
 9866              	.L755:
 9867              		.loc 1 2942 0
 9868 0046 9DF90B30 		ldrsb	r3, [sp, #11]
 9869              		.loc 1 2943 0
 9870 004a 1846     		mov	r0, r3
 9871 004c 044B     		ldr	r3, .L758
 9872 004e 039A     		ldr	r2, [sp, #12]
 9873 0050 1B68     		ldr	r3, [r3]
 9874 0052 9A42     		cmp	r2, r3
 9875 0054 01D0     		beq	.L757
 9876 0056 FFF7FEFF 		bl	__stack_chk_fail
 9877              	.L757:
 9878 005a 05B0     		add	sp, sp, #20
 9879              		.cfi_def_cfa_offset 4
 9880              		@ sp needed
 9881 005c 5DF804FB 		ldr	pc, [sp], #4
 9882              	.L759:
 9883              		.align	2
 9884              	.L758:
 9885 0060 00000000 		.word	__stack_chk_guard
 9886              		.cfi_endproc
 9887              	.LFE93:
 9888              		.size	VL53L0X_GetInterruptMaskStatus, .-VL53L0X_GetInterruptMaskStatus
 9889              		.section	.text.VL53L0X_EnableInterruptMask,"ax",%progbits
 9890              		.align	1
 9891              		.p2align 4,,15
 9892              		.global	VL53L0X_EnableInterruptMask
 9893              		.syntax unified
 9894              		.thumb
 9895              		.thumb_func
 9896              		.fpu fpv4-sp-d16
 9897              		.type	VL53L0X_EnableInterruptMask, %function
 9898              	VL53L0X_EnableInterruptMask:
 9899              	.LFB94:
 9900              		.loc 1 2946 0
 9901              		.cfi_startproc
 9902              		@ args = 0, pretend = 0, frame = 16
 9903              		@ frame_needed = 0, uses_anonymous_args = 0
 9904 0000 00B5     		push	{lr}
 9905              		.cfi_def_cfa_offset 4
 9906              		.cfi_offset 14, -4
 9907 0002 85B0     		sub	sp, sp, #20
 9908              		.cfi_def_cfa_offset 24
 9909 0004 0190     		str	r0, [sp, #4]
 9910 0006 0091     		str	r1, [sp]
 9911              		.loc 1 2946 0
 9912 0008 094B     		ldr	r3, .L763
 9913 000a 1B68     		ldr	r3, [r3]
 9914 000c 0393     		str	r3, [sp, #12]
 9915              		.loc 1 2947 0
 9916 000e 9D23     		movs	r3, #157
 9917 0010 8DF80B30 		strb	r3, [sp, #11]
 9918              		.loc 1 2955 0
ARM GAS  C:\Users\PCHAUT~1\AppData\Local\Temp\ccZvjaUR.s 			page 175


 9919 0014 9DF90B30 		ldrsb	r3, [sp, #11]
 9920              		.loc 1 2956 0
 9921 0018 1846     		mov	r0, r3
 9922 001a 054B     		ldr	r3, .L763
 9923 001c 039A     		ldr	r2, [sp, #12]
 9924 001e 1B68     		ldr	r3, [r3]
 9925 0020 9A42     		cmp	r2, r3
 9926 0022 01D0     		beq	.L762
 9927 0024 FFF7FEFF 		bl	__stack_chk_fail
 9928              	.L762:
 9929 0028 05B0     		add	sp, sp, #20
 9930              		.cfi_def_cfa_offset 4
 9931              		@ sp needed
 9932 002a 5DF804FB 		ldr	pc, [sp], #4
 9933              	.L764:
 9934 002e 00BF     		.align	2
 9935              	.L763:
 9936 0030 00000000 		.word	__stack_chk_guard
 9937              		.cfi_endproc
 9938              	.LFE94:
 9939              		.size	VL53L0X_EnableInterruptMask, .-VL53L0X_EnableInterruptMask
 9940              		.section	.text.VL53L0X_SetSpadAmbientDamperThreshold,"ax",%progbits
 9941              		.align	1
 9942              		.p2align 4,,15
 9943              		.global	VL53L0X_SetSpadAmbientDamperThreshold
 9944              		.syntax unified
 9945              		.thumb
 9946              		.thumb_func
 9947              		.fpu fpv4-sp-d16
 9948              		.type	VL53L0X_SetSpadAmbientDamperThreshold, %function
 9949              	VL53L0X_SetSpadAmbientDamperThreshold:
 9950              	.LFB95:
 9951              		.loc 1 2964 0
 9952              		.cfi_startproc
 9953              		@ args = 0, pretend = 0, frame = 16
 9954              		@ frame_needed = 0, uses_anonymous_args = 0
 9955 0000 00B5     		push	{lr}
 9956              		.cfi_def_cfa_offset 4
 9957              		.cfi_offset 14, -4
 9958 0002 85B0     		sub	sp, sp, #20
 9959              		.cfi_def_cfa_offset 24
 9960 0004 0190     		str	r0, [sp, #4]
 9961 0006 0B46     		mov	r3, r1
 9962 0008 ADF80230 		strh	r3, [sp, #2]	@ movhi
 9963              		.loc 1 2964 0
 9964 000c 1A4B     		ldr	r3, .L768
 9965 000e 1B68     		ldr	r3, [r3]
 9966 0010 0393     		str	r3, [sp, #12]
 9967              		.loc 1 2965 0
 9968 0012 0023     		movs	r3, #0
 9969 0014 8DF80B30 		strb	r3, [sp, #11]
 9970              		.loc 1 2968 0
 9971 0018 0122     		movs	r2, #1
 9972 001a FF21     		movs	r1, #255
 9973 001c 0198     		ldr	r0, [sp, #4]
 9974 001e FFF7FEFF 		bl	VL53L0X_WrByte
 9975 0022 0346     		mov	r3, r0
ARM GAS  C:\Users\PCHAUT~1\AppData\Local\Temp\ccZvjaUR.s 			page 176


 9976 0024 8DF80B30 		strb	r3, [sp, #11]
 9977              		.loc 1 2969 0
 9978 0028 BDF80230 		ldrh	r3, [sp, #2]
 9979 002c 1A46     		mov	r2, r3
 9980 002e 4021     		movs	r1, #64
 9981 0030 0198     		ldr	r0, [sp, #4]
 9982 0032 FFF7FEFF 		bl	VL53L0X_WrWord
 9983 0036 0346     		mov	r3, r0
 9984 0038 1A46     		mov	r2, r3
 9985 003a 9DF80B30 		ldrb	r3, [sp, #11]
 9986 003e 1343     		orrs	r3, r3, r2
 9987 0040 8DF80B30 		strb	r3, [sp, #11]
 9988              		.loc 1 2970 0
 9989 0044 0022     		movs	r2, #0
 9990 0046 FF21     		movs	r1, #255
 9991 0048 0198     		ldr	r0, [sp, #4]
 9992 004a FFF7FEFF 		bl	VL53L0X_WrByte
 9993 004e 0346     		mov	r3, r0
 9994 0050 1A46     		mov	r2, r3
 9995 0052 9DF80B30 		ldrb	r3, [sp, #11]
 9996 0056 1343     		orrs	r3, r3, r2
 9997 0058 8DF80B30 		strb	r3, [sp, #11]
 9998              		.loc 1 2973 0
 9999 005c 9DF90B30 		ldrsb	r3, [sp, #11]
 10000              		.loc 1 2974 0
 10001 0060 1846     		mov	r0, r3
 10002 0062 054B     		ldr	r3, .L768
 10003 0064 039A     		ldr	r2, [sp, #12]
 10004 0066 1B68     		ldr	r3, [r3]
 10005 0068 9A42     		cmp	r2, r3
 10006 006a 01D0     		beq	.L767
 10007 006c FFF7FEFF 		bl	__stack_chk_fail
 10008              	.L767:
 10009 0070 05B0     		add	sp, sp, #20
 10010              		.cfi_def_cfa_offset 4
 10011              		@ sp needed
 10012 0072 5DF804FB 		ldr	pc, [sp], #4
 10013              	.L769:
 10014 0076 00BF     		.align	2
 10015              	.L768:
 10016 0078 00000000 		.word	__stack_chk_guard
 10017              		.cfi_endproc
 10018              	.LFE95:
 10019              		.size	VL53L0X_SetSpadAmbientDamperThreshold, .-VL53L0X_SetSpadAmbientDamperThreshold
 10020              		.section	.text.VL53L0X_GetSpadAmbientDamperThreshold,"ax",%progbits
 10021              		.align	1
 10022              		.p2align 4,,15
 10023              		.global	VL53L0X_GetSpadAmbientDamperThreshold
 10024              		.syntax unified
 10025              		.thumb
 10026              		.thumb_func
 10027              		.fpu fpv4-sp-d16
 10028              		.type	VL53L0X_GetSpadAmbientDamperThreshold, %function
 10029              	VL53L0X_GetSpadAmbientDamperThreshold:
 10030              	.LFB96:
 10031              		.loc 1 2978 0
 10032              		.cfi_startproc
ARM GAS  C:\Users\PCHAUT~1\AppData\Local\Temp\ccZvjaUR.s 			page 177


 10033              		@ args = 0, pretend = 0, frame = 16
 10034              		@ frame_needed = 0, uses_anonymous_args = 0
 10035 0000 00B5     		push	{lr}
 10036              		.cfi_def_cfa_offset 4
 10037              		.cfi_offset 14, -4
 10038 0002 85B0     		sub	sp, sp, #20
 10039              		.cfi_def_cfa_offset 24
 10040 0004 0190     		str	r0, [sp, #4]
 10041 0006 0091     		str	r1, [sp]
 10042              		.loc 1 2978 0
 10043 0008 194B     		ldr	r3, .L773
 10044 000a 1B68     		ldr	r3, [r3]
 10045 000c 0393     		str	r3, [sp, #12]
 10046              		.loc 1 2979 0
 10047 000e 0023     		movs	r3, #0
 10048 0010 8DF80B30 		strb	r3, [sp, #11]
 10049              		.loc 1 2982 0
 10050 0014 0122     		movs	r2, #1
 10051 0016 FF21     		movs	r1, #255
 10052 0018 0198     		ldr	r0, [sp, #4]
 10053 001a FFF7FEFF 		bl	VL53L0X_WrByte
 10054 001e 0346     		mov	r3, r0
 10055 0020 8DF80B30 		strb	r3, [sp, #11]
 10056              		.loc 1 2983 0
 10057 0024 009A     		ldr	r2, [sp]
 10058 0026 4021     		movs	r1, #64
 10059 0028 0198     		ldr	r0, [sp, #4]
 10060 002a FFF7FEFF 		bl	VL53L0X_RdWord
 10061 002e 0346     		mov	r3, r0
 10062 0030 1A46     		mov	r2, r3
 10063 0032 9DF80B30 		ldrb	r3, [sp, #11]
 10064 0036 1343     		orrs	r3, r3, r2
 10065 0038 8DF80B30 		strb	r3, [sp, #11]
 10066              		.loc 1 2984 0
 10067 003c 0022     		movs	r2, #0
 10068 003e FF21     		movs	r1, #255
 10069 0040 0198     		ldr	r0, [sp, #4]
 10070 0042 FFF7FEFF 		bl	VL53L0X_WrByte
 10071 0046 0346     		mov	r3, r0
 10072 0048 1A46     		mov	r2, r3
 10073 004a 9DF80B30 		ldrb	r3, [sp, #11]
 10074 004e 1343     		orrs	r3, r3, r2
 10075 0050 8DF80B30 		strb	r3, [sp, #11]
 10076              		.loc 1 2987 0
 10077 0054 9DF90B30 		ldrsb	r3, [sp, #11]
 10078              		.loc 1 2988 0
 10079 0058 1846     		mov	r0, r3
 10080 005a 054B     		ldr	r3, .L773
 10081 005c 039A     		ldr	r2, [sp, #12]
 10082 005e 1B68     		ldr	r3, [r3]
 10083 0060 9A42     		cmp	r2, r3
 10084 0062 01D0     		beq	.L772
 10085 0064 FFF7FEFF 		bl	__stack_chk_fail
 10086              	.L772:
 10087 0068 05B0     		add	sp, sp, #20
 10088              		.cfi_def_cfa_offset 4
 10089              		@ sp needed
ARM GAS  C:\Users\PCHAUT~1\AppData\Local\Temp\ccZvjaUR.s 			page 178


 10090 006a 5DF804FB 		ldr	pc, [sp], #4
 10091              	.L774:
 10092 006e 00BF     		.align	2
 10093              	.L773:
 10094 0070 00000000 		.word	__stack_chk_guard
 10095              		.cfi_endproc
 10096              	.LFE96:
 10097              		.size	VL53L0X_GetSpadAmbientDamperThreshold, .-VL53L0X_GetSpadAmbientDamperThreshold
 10098              		.section	.text.VL53L0X_SetSpadAmbientDamperFactor,"ax",%progbits
 10099              		.align	1
 10100              		.p2align 4,,15
 10101              		.global	VL53L0X_SetSpadAmbientDamperFactor
 10102              		.syntax unified
 10103              		.thumb
 10104              		.thumb_func
 10105              		.fpu fpv4-sp-d16
 10106              		.type	VL53L0X_SetSpadAmbientDamperFactor, %function
 10107              	VL53L0X_SetSpadAmbientDamperFactor:
 10108              	.LFB97:
 10109              		.loc 1 2992 0
 10110              		.cfi_startproc
 10111              		@ args = 0, pretend = 0, frame = 16
 10112              		@ frame_needed = 0, uses_anonymous_args = 0
 10113 0000 00B5     		push	{lr}
 10114              		.cfi_def_cfa_offset 4
 10115              		.cfi_offset 14, -4
 10116 0002 85B0     		sub	sp, sp, #20
 10117              		.cfi_def_cfa_offset 24
 10118 0004 0190     		str	r0, [sp, #4]
 10119 0006 0B46     		mov	r3, r1
 10120 0008 ADF80230 		strh	r3, [sp, #2]	@ movhi
 10121              		.loc 1 2992 0
 10122 000c 1C4B     		ldr	r3, .L778
 10123 000e 1B68     		ldr	r3, [r3]
 10124 0010 0393     		str	r3, [sp, #12]
 10125              		.loc 1 2993 0
 10126 0012 0023     		movs	r3, #0
 10127 0014 8DF80A30 		strb	r3, [sp, #10]
 10128              		.loc 1 2997 0
 10129 0018 BDF80230 		ldrh	r3, [sp, #2]	@ movhi
 10130 001c 8DF80B30 		strb	r3, [sp, #11]
 10131              		.loc 1 2999 0
 10132 0020 0122     		movs	r2, #1
 10133 0022 FF21     		movs	r1, #255
 10134 0024 0198     		ldr	r0, [sp, #4]
 10135 0026 FFF7FEFF 		bl	VL53L0X_WrByte
 10136 002a 0346     		mov	r3, r0
 10137 002c 8DF80A30 		strb	r3, [sp, #10]
 10138              		.loc 1 3000 0
 10139 0030 9DF80B30 		ldrb	r3, [sp, #11]	@ zero_extendqisi2
 10140 0034 1A46     		mov	r2, r3
 10141 0036 4221     		movs	r1, #66
 10142 0038 0198     		ldr	r0, [sp, #4]
 10143 003a FFF7FEFF 		bl	VL53L0X_WrByte
 10144 003e 0346     		mov	r3, r0
 10145 0040 1A46     		mov	r2, r3
 10146 0042 9DF80A30 		ldrb	r3, [sp, #10]
ARM GAS  C:\Users\PCHAUT~1\AppData\Local\Temp\ccZvjaUR.s 			page 179


 10147 0046 1343     		orrs	r3, r3, r2
 10148 0048 8DF80A30 		strb	r3, [sp, #10]
 10149              		.loc 1 3001 0
 10150 004c 0022     		movs	r2, #0
 10151 004e FF21     		movs	r1, #255
 10152 0050 0198     		ldr	r0, [sp, #4]
 10153 0052 FFF7FEFF 		bl	VL53L0X_WrByte
 10154 0056 0346     		mov	r3, r0
 10155 0058 1A46     		mov	r2, r3
 10156 005a 9DF80A30 		ldrb	r3, [sp, #10]
 10157 005e 1343     		orrs	r3, r3, r2
 10158 0060 8DF80A30 		strb	r3, [sp, #10]
 10159              		.loc 1 3004 0
 10160 0064 9DF90A30 		ldrsb	r3, [sp, #10]
 10161              		.loc 1 3005 0
 10162 0068 1846     		mov	r0, r3
 10163 006a 054B     		ldr	r3, .L778
 10164 006c 039A     		ldr	r2, [sp, #12]
 10165 006e 1B68     		ldr	r3, [r3]
 10166 0070 9A42     		cmp	r2, r3
 10167 0072 01D0     		beq	.L777
 10168 0074 FFF7FEFF 		bl	__stack_chk_fail
 10169              	.L777:
 10170 0078 05B0     		add	sp, sp, #20
 10171              		.cfi_def_cfa_offset 4
 10172              		@ sp needed
 10173 007a 5DF804FB 		ldr	pc, [sp], #4
 10174              	.L779:
 10175 007e 00BF     		.align	2
 10176              	.L778:
 10177 0080 00000000 		.word	__stack_chk_guard
 10178              		.cfi_endproc
 10179              	.LFE97:
 10180              		.size	VL53L0X_SetSpadAmbientDamperFactor, .-VL53L0X_SetSpadAmbientDamperFactor
 10181              		.section	.text.VL53L0X_GetSpadAmbientDamperFactor,"ax",%progbits
 10182              		.align	1
 10183              		.p2align 4,,15
 10184              		.global	VL53L0X_GetSpadAmbientDamperFactor
 10185              		.syntax unified
 10186              		.thumb
 10187              		.thumb_func
 10188              		.fpu fpv4-sp-d16
 10189              		.type	VL53L0X_GetSpadAmbientDamperFactor, %function
 10190              	VL53L0X_GetSpadAmbientDamperFactor:
 10191              	.LFB98:
 10192              		.loc 1 3009 0
 10193              		.cfi_startproc
 10194              		@ args = 0, pretend = 0, frame = 16
 10195              		@ frame_needed = 0, uses_anonymous_args = 0
 10196 0000 00B5     		push	{lr}
 10197              		.cfi_def_cfa_offset 4
 10198              		.cfi_offset 14, -4
 10199 0002 85B0     		sub	sp, sp, #20
 10200              		.cfi_def_cfa_offset 24
 10201 0004 0190     		str	r0, [sp, #4]
 10202 0006 0091     		str	r1, [sp]
 10203              		.loc 1 3009 0
ARM GAS  C:\Users\PCHAUT~1\AppData\Local\Temp\ccZvjaUR.s 			page 180


 10204 0008 1C4B     		ldr	r3, .L783
 10205 000a 1B68     		ldr	r3, [r3]
 10206 000c 0393     		str	r3, [sp, #12]
 10207              		.loc 1 3010 0
 10208 000e 0023     		movs	r3, #0
 10209 0010 8DF80B30 		strb	r3, [sp, #11]
 10210              		.loc 1 3014 0
 10211 0014 0122     		movs	r2, #1
 10212 0016 FF21     		movs	r1, #255
 10213 0018 0198     		ldr	r0, [sp, #4]
 10214 001a FFF7FEFF 		bl	VL53L0X_WrByte
 10215 001e 0346     		mov	r3, r0
 10216 0020 8DF80B30 		strb	r3, [sp, #11]
 10217              		.loc 1 3015 0
 10218 0024 0DF10A03 		add	r3, sp, #10
 10219 0028 1A46     		mov	r2, r3
 10220 002a 4221     		movs	r1, #66
 10221 002c 0198     		ldr	r0, [sp, #4]
 10222 002e FFF7FEFF 		bl	VL53L0X_RdByte
 10223 0032 0346     		mov	r3, r0
 10224 0034 1A46     		mov	r2, r3
 10225 0036 9DF80B30 		ldrb	r3, [sp, #11]
 10226 003a 1343     		orrs	r3, r3, r2
 10227 003c 8DF80B30 		strb	r3, [sp, #11]
 10228              		.loc 1 3016 0
 10229 0040 0022     		movs	r2, #0
 10230 0042 FF21     		movs	r1, #255
 10231 0044 0198     		ldr	r0, [sp, #4]
 10232 0046 FFF7FEFF 		bl	VL53L0X_WrByte
 10233 004a 0346     		mov	r3, r0
 10234 004c 1A46     		mov	r2, r3
 10235 004e 9DF80B30 		ldrb	r3, [sp, #11]
 10236 0052 1343     		orrs	r3, r3, r2
 10237 0054 8DF80B30 		strb	r3, [sp, #11]
 10238              		.loc 1 3017 0
 10239 0058 9DF80A30 		ldrb	r3, [sp, #10]	@ zero_extendqisi2
 10240 005c 9AB2     		uxth	r2, r3
 10241 005e 009B     		ldr	r3, [sp]
 10242 0060 1A80     		strh	r2, [r3]	@ movhi
 10243              		.loc 1 3020 0
 10244 0062 9DF90B30 		ldrsb	r3, [sp, #11]
 10245              		.loc 1 3021 0
 10246 0066 1846     		mov	r0, r3
 10247 0068 044B     		ldr	r3, .L783
 10248 006a 039A     		ldr	r2, [sp, #12]
 10249 006c 1B68     		ldr	r3, [r3]
 10250 006e 9A42     		cmp	r2, r3
 10251 0070 01D0     		beq	.L782
 10252 0072 FFF7FEFF 		bl	__stack_chk_fail
 10253              	.L782:
 10254 0076 05B0     		add	sp, sp, #20
 10255              		.cfi_def_cfa_offset 4
 10256              		@ sp needed
 10257 0078 5DF804FB 		ldr	pc, [sp], #4
 10258              	.L784:
 10259              		.align	2
 10260              	.L783:
ARM GAS  C:\Users\PCHAUT~1\AppData\Local\Temp\ccZvjaUR.s 			page 181


 10261 007c 00000000 		.word	__stack_chk_guard
 10262              		.cfi_endproc
 10263              	.LFE98:
 10264              		.size	VL53L0X_GetSpadAmbientDamperFactor, .-VL53L0X_GetSpadAmbientDamperFactor
 10265              		.section	.text.VL53L0X_SetReferenceSpads,"ax",%progbits
 10266              		.align	1
 10267              		.p2align 4,,15
 10268              		.global	VL53L0X_SetReferenceSpads
 10269              		.syntax unified
 10270              		.thumb
 10271              		.thumb_func
 10272              		.fpu fpv4-sp-d16
 10273              		.type	VL53L0X_SetReferenceSpads, %function
 10274              	VL53L0X_SetReferenceSpads:
 10275              	.LFB99:
 10276              		.loc 1 3031 0
 10277              		.cfi_startproc
 10278              		@ args = 0, pretend = 0, frame = 24
 10279              		@ frame_needed = 0, uses_anonymous_args = 0
 10280 0000 00B5     		push	{lr}
 10281              		.cfi_def_cfa_offset 4
 10282              		.cfi_offset 14, -4
 10283 0002 87B0     		sub	sp, sp, #28
 10284              		.cfi_def_cfa_offset 32
 10285 0004 0390     		str	r0, [sp, #12]
 10286 0006 0291     		str	r1, [sp, #8]
 10287 0008 1346     		mov	r3, r2
 10288 000a 8DF80730 		strb	r3, [sp, #7]
 10289              		.loc 1 3031 0
 10290 000e 0E4B     		ldr	r3, .L788
 10291 0010 1B68     		ldr	r3, [r3]
 10292 0012 0593     		str	r3, [sp, #20]
 10293              		.loc 1 3032 0
 10294 0014 0023     		movs	r3, #0
 10295 0016 8DF81330 		strb	r3, [sp, #19]
 10296              		.loc 1 3035 0
 10297 001a 9DF80730 		ldrb	r3, [sp, #7]	@ zero_extendqisi2
 10298 001e 1A46     		mov	r2, r3
 10299 0020 0299     		ldr	r1, [sp, #8]
 10300 0022 0398     		ldr	r0, [sp, #12]
 10301 0024 FFF7FEFF 		bl	VL53L0X_set_reference_spads
 10302 0028 0346     		mov	r3, r0
 10303 002a 8DF81330 		strb	r3, [sp, #19]
 10304              		.loc 1 3039 0
 10305 002e 9DF91330 		ldrsb	r3, [sp, #19]
 10306              		.loc 1 3040 0
 10307 0032 1846     		mov	r0, r3
 10308 0034 044B     		ldr	r3, .L788
 10309 0036 059A     		ldr	r2, [sp, #20]
 10310 0038 1B68     		ldr	r3, [r3]
 10311 003a 9A42     		cmp	r2, r3
 10312 003c 01D0     		beq	.L787
 10313 003e FFF7FEFF 		bl	__stack_chk_fail
 10314              	.L787:
 10315 0042 07B0     		add	sp, sp, #28
 10316              		.cfi_def_cfa_offset 4
 10317              		@ sp needed
ARM GAS  C:\Users\PCHAUT~1\AppData\Local\Temp\ccZvjaUR.s 			page 182


 10318 0044 5DF804FB 		ldr	pc, [sp], #4
 10319              	.L789:
 10320              		.align	2
 10321              	.L788:
 10322 0048 00000000 		.word	__stack_chk_guard
 10323              		.cfi_endproc
 10324              	.LFE99:
 10325              		.size	VL53L0X_SetReferenceSpads, .-VL53L0X_SetReferenceSpads
 10326              		.section	.text.VL53L0X_GetReferenceSpads,"ax",%progbits
 10327              		.align	1
 10328              		.p2align 4,,15
 10329              		.global	VL53L0X_GetReferenceSpads
 10330              		.syntax unified
 10331              		.thumb
 10332              		.thumb_func
 10333              		.fpu fpv4-sp-d16
 10334              		.type	VL53L0X_GetReferenceSpads, %function
 10335              	VL53L0X_GetReferenceSpads:
 10336              	.LFB100:
 10337              		.loc 1 3044 0
 10338              		.cfi_startproc
 10339              		@ args = 0, pretend = 0, frame = 24
 10340              		@ frame_needed = 0, uses_anonymous_args = 0
 10341 0000 00B5     		push	{lr}
 10342              		.cfi_def_cfa_offset 4
 10343              		.cfi_offset 14, -4
 10344 0002 87B0     		sub	sp, sp, #28
 10345              		.cfi_def_cfa_offset 32
 10346 0004 0390     		str	r0, [sp, #12]
 10347 0006 0291     		str	r1, [sp, #8]
 10348 0008 0192     		str	r2, [sp, #4]
 10349              		.loc 1 3044 0
 10350 000a 0D4B     		ldr	r3, .L793
 10351 000c 1B68     		ldr	r3, [r3]
 10352 000e 0593     		str	r3, [sp, #20]
 10353              		.loc 1 3045 0
 10354 0010 0023     		movs	r3, #0
 10355 0012 8DF81330 		strb	r3, [sp, #19]
 10356              		.loc 1 3048 0
 10357 0016 019A     		ldr	r2, [sp, #4]
 10358 0018 0299     		ldr	r1, [sp, #8]
 10359 001a 0398     		ldr	r0, [sp, #12]
 10360 001c FFF7FEFF 		bl	VL53L0X_get_reference_spads
 10361 0020 0346     		mov	r3, r0
 10362 0022 8DF81330 		strb	r3, [sp, #19]
 10363              		.loc 1 3052 0
 10364 0026 9DF91330 		ldrsb	r3, [sp, #19]
 10365              		.loc 1 3053 0
 10366 002a 1846     		mov	r0, r3
 10367 002c 044B     		ldr	r3, .L793
 10368 002e 059A     		ldr	r2, [sp, #20]
 10369 0030 1B68     		ldr	r3, [r3]
 10370 0032 9A42     		cmp	r2, r3
 10371 0034 01D0     		beq	.L792
 10372 0036 FFF7FEFF 		bl	__stack_chk_fail
 10373              	.L792:
 10374 003a 07B0     		add	sp, sp, #28
ARM GAS  C:\Users\PCHAUT~1\AppData\Local\Temp\ccZvjaUR.s 			page 183


 10375              		.cfi_def_cfa_offset 4
 10376              		@ sp needed
 10377 003c 5DF804FB 		ldr	pc, [sp], #4
 10378              	.L794:
 10379              		.align	2
 10380              	.L793:
 10381 0040 00000000 		.word	__stack_chk_guard
 10382              		.cfi_endproc
 10383              	.LFE100:
 10384              		.size	VL53L0X_GetReferenceSpads, .-VL53L0X_GetReferenceSpads
 10385              		.section	.text.VL53L0X_PerformRefSpadManagement,"ax",%progbits
 10386              		.align	1
 10387              		.p2align 4,,15
 10388              		.global	VL53L0X_PerformRefSpadManagement
 10389              		.syntax unified
 10390              		.thumb
 10391              		.thumb_func
 10392              		.fpu fpv4-sp-d16
 10393              		.type	VL53L0X_PerformRefSpadManagement, %function
 10394              	VL53L0X_PerformRefSpadManagement:
 10395              	.LFB101:
 10396              		.loc 1 3057 0
 10397              		.cfi_startproc
 10398              		@ args = 0, pretend = 0, frame = 24
 10399              		@ frame_needed = 0, uses_anonymous_args = 0
 10400 0000 00B5     		push	{lr}
 10401              		.cfi_def_cfa_offset 4
 10402              		.cfi_offset 14, -4
 10403 0002 87B0     		sub	sp, sp, #28
 10404              		.cfi_def_cfa_offset 32
 10405 0004 0390     		str	r0, [sp, #12]
 10406 0006 0291     		str	r1, [sp, #8]
 10407 0008 0192     		str	r2, [sp, #4]
 10408              		.loc 1 3057 0
 10409 000a 0D4B     		ldr	r3, .L798
 10410 000c 1B68     		ldr	r3, [r3]
 10411 000e 0593     		str	r3, [sp, #20]
 10412              		.loc 1 3058 0
 10413 0010 0023     		movs	r3, #0
 10414 0012 8DF81330 		strb	r3, [sp, #19]
 10415              		.loc 1 3061 0
 10416 0016 019A     		ldr	r2, [sp, #4]
 10417 0018 0299     		ldr	r1, [sp, #8]
 10418 001a 0398     		ldr	r0, [sp, #12]
 10419 001c FFF7FEFF 		bl	VL53L0X_perform_ref_spad_management
 10420 0020 0346     		mov	r3, r0
 10421 0022 8DF81330 		strb	r3, [sp, #19]
 10422              		.loc 1 3066 0
 10423 0026 9DF91330 		ldrsb	r3, [sp, #19]
 10424              		.loc 1 3067 0
 10425 002a 1846     		mov	r0, r3
 10426 002c 044B     		ldr	r3, .L798
 10427 002e 059A     		ldr	r2, [sp, #20]
 10428 0030 1B68     		ldr	r3, [r3]
 10429 0032 9A42     		cmp	r2, r3
 10430 0034 01D0     		beq	.L797
 10431 0036 FFF7FEFF 		bl	__stack_chk_fail
ARM GAS  C:\Users\PCHAUT~1\AppData\Local\Temp\ccZvjaUR.s 			page 184


 10432              	.L797:
 10433 003a 07B0     		add	sp, sp, #28
 10434              		.cfi_def_cfa_offset 4
 10435              		@ sp needed
 10436 003c 5DF804FB 		ldr	pc, [sp], #4
 10437              	.L799:
 10438              		.align	2
 10439              	.L798:
 10440 0040 00000000 		.word	__stack_chk_guard
 10441              		.cfi_endproc
 10442              	.LFE101:
 10443              		.size	VL53L0X_PerformRefSpadManagement, .-VL53L0X_PerformRefSpadManagement
 10444              		.text
 10445              	.Letext0:
 10446              		.file 2 "c:\\users\\pchautems\\documents\\robotiquetp\\eclipse_e-puck2\\tools\\gcc-arm-none-eabi-7
 10447              		.file 3 "c:\\users\\pchautems\\documents\\robotiquetp\\eclipse_e-puck2\\tools\\gcc-arm-none-eabi-7
 10448              		.file 4 "../lib/e-puck2_main-processor/src/sensors/VL53L0X/Api/core/src/../inc/vl53l0x_types.h"
 10449              		.file 5 "../lib/e-puck2_main-processor/src/sensors/VL53L0X/Api/core/src/../inc/vl53l0x_device.h"
 10450              		.file 6 "../lib/e-puck2_main-processor/src/sensors/VL53L0X/Api/core/src/../inc/vl53l0x_def.h"
 10451              		.file 7 "c:\\users\\pchautems\\documents\\robotiquetp\\eclipse_e-puck2\\tools\\gcc-arm-none-eabi-7
 10452              		.file 8 "c:\\users\\pchautems\\documents\\robotiquetp\\eclipse_e-puck2\\tools\\gcc-arm-none-eabi-7
 10453              		.file 9 "c:\\users\\pchautems\\documents\\robotiquetp\\eclipse_e-puck2\\tools\\gcc-arm-none-eabi-7
 10454              		.file 10 "c:\\users\\pchautems\\documents\\robotiquetp\\eclipse_e-puck2\\tools\\gcc-arm-none-eabi-
 10455              		.file 11 "../lib/e-puck2_main-processor/src/sensors/VL53L0X/Api/core/src/../inc/../../platform/inc
 10456              		.file 12 "../lib/e-puck2_main-processor/src/sensors/VL53L0X/Api/core/src/../inc/vl53l0x_tuning.h"
 10457              		.file 13 "../lib/e-puck2_main-processor/src/sensors/VL53L0X/Api/core/src/../inc/vl53l0x_interrupt_
 10458              		.file 14 "c:\\users\\pchautems\\documents\\robotiquetp\\eclipse_e-puck2\\tools\\gcc-arm-none-eabi-
 10459              		.section	.debug_info,"",%progbits
 10460              	.Ldebug_info0:
 10461 0000 79330000 		.4byte	0x3379
 10462 0004 0400     		.2byte	0x4
 10463 0006 00000000 		.4byte	.Ldebug_abbrev0
 10464 000a 04       		.byte	0x4
 10465 000b 01       		.uleb128 0x1
 10466 000c 111B0000 		.4byte	.LASF484
 10467 0010 0C       		.byte	0xc
 10468 0011 C4150000 		.4byte	.LASF485
 10469 0015 BE050000 		.4byte	.LASF486
 10470 0019 00000000 		.4byte	.Ldebug_ranges0+0
 10471 001d 00000000 		.4byte	0
 10472 0021 00000000 		.4byte	.Ldebug_line0
 10473 0025 02       		.uleb128 0x2
 10474 0026 6E140000 		.4byte	.LASF0
 10475 002a 02       		.byte	0x2
 10476 002b 29       		.byte	0x29
 10477 002c 30000000 		.4byte	0x30
 10478 0030 03       		.uleb128 0x3
 10479 0031 01       		.byte	0x1
 10480 0032 06       		.byte	0x6
 10481 0033 92200000 		.4byte	.LASF2
 10482 0037 02       		.uleb128 0x2
 10483 0038 76190000 		.4byte	.LASF1
 10484 003c 02       		.byte	0x2
 10485 003d 2B       		.byte	0x2b
 10486 003e 42000000 		.4byte	0x42
 10487 0042 03       		.uleb128 0x3
 10488 0043 01       		.byte	0x1
ARM GAS  C:\Users\PCHAUT~1\AppData\Local\Temp\ccZvjaUR.s 			page 185


 10489 0044 08       		.byte	0x8
 10490 0045 CB1D0000 		.4byte	.LASF3
 10491 0049 02       		.uleb128 0x2
 10492 004a 1A120000 		.4byte	.LASF4
 10493 004e 02       		.byte	0x2
 10494 004f 37       		.byte	0x37
 10495 0050 54000000 		.4byte	0x54
 10496 0054 03       		.uleb128 0x3
 10497 0055 02       		.byte	0x2
 10498 0056 05       		.byte	0x5
 10499 0057 7B160000 		.4byte	.LASF5
 10500 005b 02       		.uleb128 0x2
 10501 005c 77090000 		.4byte	.LASF6
 10502 0060 02       		.byte	0x2
 10503 0061 39       		.byte	0x39
 10504 0062 66000000 		.4byte	0x66
 10505 0066 03       		.uleb128 0x3
 10506 0067 02       		.byte	0x2
 10507 0068 07       		.byte	0x7
 10508 0069 B3200000 		.4byte	.LASF7
 10509 006d 02       		.uleb128 0x2
 10510 006e 69030000 		.4byte	.LASF8
 10511 0072 02       		.byte	0x2
 10512 0073 4D       		.byte	0x4d
 10513 0074 78000000 		.4byte	0x78
 10514 0078 03       		.uleb128 0x3
 10515 0079 04       		.byte	0x4
 10516 007a 05       		.byte	0x5
 10517 007b 07170000 		.4byte	.LASF9
 10518 007f 02       		.uleb128 0x2
 10519 0080 FF1D0000 		.4byte	.LASF10
 10520 0084 02       		.byte	0x2
 10521 0085 4F       		.byte	0x4f
 10522 0086 8A000000 		.4byte	0x8a
 10523 008a 03       		.uleb128 0x3
 10524 008b 04       		.byte	0x4
 10525 008c 07       		.byte	0x7
 10526 008d CA1A0000 		.4byte	.LASF11
 10527 0091 03       		.uleb128 0x3
 10528 0092 08       		.byte	0x8
 10529 0093 05       		.byte	0x5
 10530 0094 E6100000 		.4byte	.LASF12
 10531 0098 03       		.uleb128 0x3
 10532 0099 08       		.byte	0x8
 10533 009a 07       		.byte	0x7
 10534 009b DF080000 		.4byte	.LASF13
 10535 009f 04       		.uleb128 0x4
 10536 00a0 04       		.byte	0x4
 10537 00a1 05       		.byte	0x5
 10538 00a2 696E7400 		.ascii	"int\000"
 10539 00a6 03       		.uleb128 0x3
 10540 00a7 04       		.byte	0x4
 10541 00a8 07       		.byte	0x7
 10542 00a9 5F020000 		.4byte	.LASF14
 10543 00ad 02       		.uleb128 0x2
 10544 00ae 26070000 		.4byte	.LASF15
 10545 00b2 03       		.byte	0x3
ARM GAS  C:\Users\PCHAUT~1\AppData\Local\Temp\ccZvjaUR.s 			page 186


 10546 00b3 14       		.byte	0x14
 10547 00b4 25000000 		.4byte	0x25
 10548 00b8 02       		.uleb128 0x2
 10549 00b9 580F0000 		.4byte	.LASF16
 10550 00bd 03       		.byte	0x3
 10551 00be 18       		.byte	0x18
 10552 00bf 37000000 		.4byte	0x37
 10553 00c3 02       		.uleb128 0x2
 10554 00c4 53080000 		.4byte	.LASF17
 10555 00c8 03       		.byte	0x3
 10556 00c9 20       		.byte	0x20
 10557 00ca 49000000 		.4byte	0x49
 10558 00ce 02       		.uleb128 0x2
 10559 00cf 50150000 		.4byte	.LASF18
 10560 00d3 03       		.byte	0x3
 10561 00d4 24       		.byte	0x24
 10562 00d5 5B000000 		.4byte	0x5b
 10563 00d9 02       		.uleb128 0x2
 10564 00da C91C0000 		.4byte	.LASF19
 10565 00de 03       		.byte	0x3
 10566 00df 2C       		.byte	0x2c
 10567 00e0 6D000000 		.4byte	0x6d
 10568 00e4 02       		.uleb128 0x2
 10569 00e5 1D070000 		.4byte	.LASF20
 10570 00e9 03       		.byte	0x3
 10571 00ea 30       		.byte	0x30
 10572 00eb 7F000000 		.4byte	0x7f
 10573 00ef 03       		.uleb128 0x3
 10574 00f0 08       		.byte	0x8
 10575 00f1 04       		.byte	0x4
 10576 00f2 1F150000 		.4byte	.LASF21
 10577 00f6 02       		.uleb128 0x2
 10578 00f7 EB060000 		.4byte	.LASF22
 10579 00fb 04       		.byte	0x4
 10580 00fc 6D       		.byte	0x6d
 10581 00fd E4000000 		.4byte	0xe4
 10582 0101 02       		.uleb128 0x2
 10583 0102 00080000 		.4byte	.LASF23
 10584 0106 05       		.byte	0x5
 10585 0107 36       		.byte	0x36
 10586 0108 B8000000 		.4byte	0xb8
 10587 010c 02       		.uleb128 0x2
 10588 010d B10F0000 		.4byte	.LASF24
 10589 0111 05       		.byte	0x5
 10590 0112 64       		.byte	0x64
 10591 0113 B8000000 		.4byte	0xb8
 10592 0117 05       		.uleb128 0x5
 10593 0118 08       		.byte	0x8
 10594 0119 06       		.byte	0x6
 10595 011a 64       		.byte	0x64
 10596 011b 50010000 		.4byte	0x150
 10597 011f 06       		.uleb128 0x6
 10598 0120 7E0E0000 		.4byte	.LASF25
 10599 0124 06       		.byte	0x6
 10600 0125 65       		.byte	0x65
 10601 0126 E4000000 		.4byte	0xe4
 10602 012a 00       		.byte	0
ARM GAS  C:\Users\PCHAUT~1\AppData\Local\Temp\ccZvjaUR.s 			page 187


 10603 012b 06       		.uleb128 0x6
 10604 012c 1D0C0000 		.4byte	.LASF26
 10605 0130 06       		.byte	0x6
 10606 0131 66       		.byte	0x66
 10607 0132 B8000000 		.4byte	0xb8
 10608 0136 04       		.byte	0x4
 10609 0137 06       		.uleb128 0x6
 10610 0138 F2120000 		.4byte	.LASF27
 10611 013c 06       		.byte	0x6
 10612 013d 67       		.byte	0x67
 10613 013e B8000000 		.4byte	0xb8
 10614 0142 05       		.byte	0x5
 10615 0143 06       		.uleb128 0x6
 10616 0144 54040000 		.4byte	.LASF28
 10617 0148 06       		.byte	0x6
 10618 0149 68       		.byte	0x68
 10619 014a B8000000 		.4byte	0xb8
 10620 014e 06       		.byte	0x6
 10621 014f 00       		.byte	0
 10622 0150 02       		.uleb128 0x2
 10623 0151 69160000 		.4byte	.LASF29
 10624 0155 06       		.byte	0x6
 10625 0156 69       		.byte	0x69
 10626 0157 17010000 		.4byte	0x117
 10627 015b 05       		.uleb128 0x5
 10628 015c 63       		.byte	0x63
 10629 015d 06       		.byte	0x6
 10630 015e 6E       		.byte	0x6e
 10631 015f AC010000 		.4byte	0x1ac
 10632 0163 06       		.uleb128 0x6
 10633 0164 F8090000 		.4byte	.LASF30
 10634 0168 06       		.byte	0x6
 10635 0169 6F       		.byte	0x6f
 10636 016a AC010000 		.4byte	0x1ac
 10637 016e 00       		.byte	0
 10638 016f 06       		.uleb128 0x6
 10639 0170 F80F0000 		.4byte	.LASF31
 10640 0174 06       		.byte	0x6
 10641 0175 71       		.byte	0x71
 10642 0176 AC010000 		.4byte	0x1ac
 10643 017a 20       		.byte	0x20
 10644 017b 06       		.uleb128 0x6
 10645 017c EE020000 		.4byte	.LASF32
 10646 0180 06       		.byte	0x6
 10647 0181 73       		.byte	0x73
 10648 0182 AC010000 		.4byte	0x1ac
 10649 0186 40       		.byte	0x40
 10650 0187 06       		.uleb128 0x6
 10651 0188 1C1F0000 		.4byte	.LASF33
 10652 018c 06       		.byte	0x6
 10653 018d 75       		.byte	0x75
 10654 018e B8000000 		.4byte	0xb8
 10655 0192 60       		.byte	0x60
 10656 0193 06       		.uleb128 0x6
 10657 0194 B8000000 		.4byte	.LASF34
 10658 0198 06       		.byte	0x6
 10659 0199 77       		.byte	0x77
ARM GAS  C:\Users\PCHAUT~1\AppData\Local\Temp\ccZvjaUR.s 			page 188


 10660 019a B8000000 		.4byte	0xb8
 10661 019e 61       		.byte	0x61
 10662 019f 06       		.uleb128 0x6
 10663 01a0 63080000 		.4byte	.LASF35
 10664 01a4 06       		.byte	0x6
 10665 01a5 79       		.byte	0x79
 10666 01a6 B8000000 		.4byte	0xb8
 10667 01aa 62       		.byte	0x62
 10668 01ab 00       		.byte	0
 10669 01ac 07       		.uleb128 0x7
 10670 01ad BC010000 		.4byte	0x1bc
 10671 01b1 BC010000 		.4byte	0x1bc
 10672 01b5 08       		.uleb128 0x8
 10673 01b6 A6000000 		.4byte	0xa6
 10674 01ba 1F       		.byte	0x1f
 10675 01bb 00       		.byte	0
 10676 01bc 03       		.uleb128 0x3
 10677 01bd 01       		.byte	0x1
 10678 01be 08       		.byte	0x8
 10679 01bf 830D0000 		.4byte	.LASF36
 10680 01c3 09       		.uleb128 0x9
 10681 01c4 BC010000 		.4byte	0x1bc
 10682 01c8 02       		.uleb128 0x2
 10683 01c9 F9050000 		.4byte	.LASF37
 10684 01cd 06       		.byte	0x6
 10685 01ce 7B       		.byte	0x7b
 10686 01cf 5B010000 		.4byte	0x15b
 10687 01d3 02       		.uleb128 0x2
 10688 01d4 D0190000 		.4byte	.LASF38
 10689 01d8 06       		.byte	0x6
 10690 01d9 83       		.byte	0x83
 10691 01da AD000000 		.4byte	0xad
 10692 01de 02       		.uleb128 0x2
 10693 01df FF100000 		.4byte	.LASF39
 10694 01e3 06       		.byte	0x6
 10695 01e4 B5       		.byte	0xb5
 10696 01e5 B8000000 		.4byte	0xb8
 10697 01e9 02       		.uleb128 0x2
 10698 01ea 92100000 		.4byte	.LASF40
 10699 01ee 06       		.byte	0x6
 10700 01ef C7       		.byte	0xc7
 10701 01f0 B8000000 		.4byte	0xb8
 10702 01f4 02       		.uleb128 0x2
 10703 01f5 DB020000 		.4byte	.LASF41
 10704 01f9 06       		.byte	0x6
 10705 01fa DA       		.byte	0xda
 10706 01fb B8000000 		.4byte	0xb8
 10707 01ff 05       		.uleb128 0x5
 10708 0200 40       		.byte	0x40
 10709 0201 06       		.byte	0x6
 10710 0202 EA       		.byte	0xea
 10711 0203 9B020000 		.4byte	0x29b
 10712 0207 06       		.uleb128 0x6
 10713 0208 E0140000 		.4byte	.LASF42
 10714 020c 06       		.byte	0x6
 10715 020d EB       		.byte	0xeb
 10716 020e DE010000 		.4byte	0x1de
ARM GAS  C:\Users\PCHAUT~1\AppData\Local\Temp\ccZvjaUR.s 			page 189


 10717 0212 00       		.byte	0
 10718 0213 06       		.uleb128 0x6
 10719 0214 FD000000 		.4byte	.LASF43
 10720 0218 06       		.byte	0x6
 10721 0219 ED       		.byte	0xed
 10722 021a E9010000 		.4byte	0x1e9
 10723 021e 01       		.byte	0x1
 10724 021f 06       		.uleb128 0x6
 10725 0220 020E0000 		.4byte	.LASF44
 10726 0224 06       		.byte	0x6
 10727 0225 F0       		.byte	0xf0
 10728 0226 E4000000 		.4byte	0xe4
 10729 022a 04       		.byte	0x4
 10730 022b 06       		.uleb128 0x6
 10731 022c 1A0B0000 		.4byte	.LASF45
 10732 0230 06       		.byte	0x6
 10733 0231 F2       		.byte	0xf2
 10734 0232 E4000000 		.4byte	0xe4
 10735 0236 08       		.byte	0x8
 10736 0237 06       		.uleb128 0x6
 10737 0238 41010000 		.4byte	.LASF46
 10738 023c 06       		.byte	0x6
 10739 023d F5       		.byte	0xf5
 10740 023e B8000000 		.4byte	0xb8
 10741 0242 0C       		.byte	0xc
 10742 0243 06       		.uleb128 0x6
 10743 0244 6C020000 		.4byte	.LASF47
 10744 0248 06       		.byte	0x6
 10745 0249 F7       		.byte	0xf7
 10746 024a CE000000 		.4byte	0xce
 10747 024e 0E       		.byte	0xe
 10748 024f 06       		.uleb128 0x6
 10749 0250 EB140000 		.4byte	.LASF48
 10750 0254 06       		.byte	0x6
 10751 0255 F9       		.byte	0xf9
 10752 0256 F6000000 		.4byte	0xf6
 10753 025a 10       		.byte	0x10
 10754 025b 06       		.uleb128 0x6
 10755 025c 430C0000 		.4byte	.LASF49
 10756 0260 06       		.byte	0x6
 10757 0261 FC       		.byte	0xfc
 10758 0262 D9000000 		.4byte	0xd9
 10759 0266 14       		.byte	0x14
 10760 0267 06       		.uleb128 0x6
 10761 0268 17030000 		.4byte	.LASF50
 10762 026c 06       		.byte	0x6
 10763 026d FF       		.byte	0xff
 10764 026e 9B020000 		.4byte	0x29b
 10765 0272 18       		.byte	0x18
 10766 0273 0A       		.uleb128 0xa
 10767 0274 34050000 		.4byte	.LASF51
 10768 0278 06       		.byte	0x6
 10769 0279 0101     		.2byte	0x101
 10770 027b 9B020000 		.4byte	0x29b
 10771 027f 1E       		.byte	0x1e
 10772 0280 0A       		.uleb128 0xa
 10773 0281 C10B0000 		.4byte	.LASF52
ARM GAS  C:\Users\PCHAUT~1\AppData\Local\Temp\ccZvjaUR.s 			page 190


 10774 0285 06       		.byte	0x6
 10775 0286 0401     		.2byte	0x104
 10776 0288 AB020000 		.4byte	0x2ab
 10777 028c 24       		.byte	0x24
 10778 028d 0A       		.uleb128 0xa
 10779 028e E8040000 		.4byte	.LASF53
 10780 0292 06       		.byte	0x6
 10781 0293 0701     		.2byte	0x107
 10782 0295 B8000000 		.4byte	0xb8
 10783 0299 3C       		.byte	0x3c
 10784 029a 00       		.byte	0
 10785 029b 07       		.uleb128 0x7
 10786 029c B8000000 		.4byte	0xb8
 10787 02a0 AB020000 		.4byte	0x2ab
 10788 02a4 08       		.uleb128 0x8
 10789 02a5 A6000000 		.4byte	0xa6
 10790 02a9 05       		.byte	0x5
 10791 02aa 00       		.byte	0
 10792 02ab 07       		.uleb128 0x7
 10793 02ac F6000000 		.4byte	0xf6
 10794 02b0 BB020000 		.4byte	0x2bb
 10795 02b4 08       		.uleb128 0x8
 10796 02b5 A6000000 		.4byte	0xa6
 10797 02b9 05       		.byte	0x5
 10798 02ba 00       		.byte	0
 10799 02bb 0B       		.uleb128 0xb
 10800 02bc CA070000 		.4byte	.LASF54
 10801 02c0 06       		.byte	0x6
 10802 02c1 0901     		.2byte	0x109
 10803 02c3 FF010000 		.4byte	0x1ff
 10804 02c7 09       		.uleb128 0x9
 10805 02c8 BB020000 		.4byte	0x2bb
 10806 02cc 0B       		.uleb128 0xb
 10807 02cd 1F140000 		.4byte	.LASF55
 10808 02d1 06       		.byte	0x6
 10809 02d2 1101     		.2byte	0x111
 10810 02d4 B8000000 		.4byte	0xb8
 10811 02d8 0C       		.uleb128 0xc
 10812 02d9 08       		.byte	0x8
 10813 02da 06       		.byte	0x6
 10814 02db 2701     		.2byte	0x127
 10815 02dd FC020000 		.4byte	0x2fc
 10816 02e1 0A       		.uleb128 0xa
 10817 02e2 F6080000 		.4byte	.LASF56
 10818 02e6 06       		.byte	0x6
 10819 02e7 2801     		.2byte	0x128
 10820 02e9 D9000000 		.4byte	0xd9
 10821 02ed 00       		.byte	0
 10822 02ee 0A       		.uleb128 0xa
 10823 02ef E3120000 		.4byte	.LASF57
 10824 02f3 06       		.byte	0x6
 10825 02f4 2A01     		.2byte	0x12a
 10826 02f6 D9000000 		.4byte	0xd9
 10827 02fa 04       		.byte	0x4
 10828 02fb 00       		.byte	0
 10829 02fc 0B       		.uleb128 0xb
 10830 02fd 5B140000 		.4byte	.LASF58
ARM GAS  C:\Users\PCHAUT~1\AppData\Local\Temp\ccZvjaUR.s 			page 191


 10831 0301 06       		.byte	0x6
 10832 0302 2C01     		.2byte	0x12c
 10833 0304 D8020000 		.4byte	0x2d8
 10834 0308 0C       		.uleb128 0xc
 10835 0309 1C       		.byte	0x1c
 10836 030a 06       		.byte	0x6
 10837 030b 3201     		.2byte	0x132
 10838 030d 94030000 		.4byte	0x394
 10839 0311 0A       		.uleb128 0xa
 10840 0312 A7220000 		.4byte	.LASF59
 10841 0316 06       		.byte	0x6
 10842 0317 3301     		.2byte	0x133
 10843 0319 E4000000 		.4byte	0xe4
 10844 031d 00       		.byte	0
 10845 031e 0A       		.uleb128 0xa
 10846 031f 2D0D0000 		.4byte	.LASF60
 10847 0323 06       		.byte	0x6
 10848 0324 3401     		.2byte	0x134
 10849 0326 E4000000 		.4byte	0xe4
 10850 032a 04       		.byte	0x4
 10851 032b 0A       		.uleb128 0xa
 10852 032c 18210000 		.4byte	.LASF61
 10853 0330 06       		.byte	0x6
 10854 0331 3901     		.2byte	0x139
 10855 0333 CE000000 		.4byte	0xce
 10856 0337 08       		.byte	0x8
 10857 0338 0A       		.uleb128 0xa
 10858 0339 56050000 		.4byte	.LASF62
 10859 033d 06       		.byte	0x6
 10860 033e 3B01     		.2byte	0x13b
 10861 0340 CE000000 		.4byte	0xce
 10862 0344 0A       		.byte	0xa
 10863 0345 0A       		.uleb128 0xa
 10864 0346 5E000000 		.4byte	.LASF63
 10865 034a 06       		.byte	0x6
 10866 034b 4001     		.2byte	0x140
 10867 034d F6000000 		.4byte	0xf6
 10868 0351 0C       		.byte	0xc
 10869 0352 0A       		.uleb128 0xa
 10870 0353 53030000 		.4byte	.LASF64
 10871 0357 06       		.byte	0x6
 10872 0358 4401     		.2byte	0x144
 10873 035a F6000000 		.4byte	0xf6
 10874 035e 10       		.byte	0x10
 10875 035f 0A       		.uleb128 0xa
 10876 0360 AF0A0000 		.4byte	.LASF65
 10877 0364 06       		.byte	0x6
 10878 0365 4901     		.2byte	0x149
 10879 0367 CE000000 		.4byte	0xce
 10880 036b 14       		.byte	0x14
 10881 036c 0A       		.uleb128 0xa
 10882 036d E3180000 		.4byte	.LASF66
 10883 0371 06       		.byte	0x6
 10884 0372 4D01     		.2byte	0x14d
 10885 0374 B8000000 		.4byte	0xb8
 10886 0378 16       		.byte	0x16
 10887 0379 0A       		.uleb128 0xa
ARM GAS  C:\Users\PCHAUT~1\AppData\Local\Temp\ccZvjaUR.s 			page 192


 10888 037a 69210000 		.4byte	.LASF67
 10889 037e 06       		.byte	0x6
 10890 037f 5001     		.2byte	0x150
 10891 0381 B8000000 		.4byte	0xb8
 10892 0385 17       		.byte	0x17
 10893 0386 0A       		.uleb128 0xa
 10894 0387 D1100000 		.4byte	.LASF68
 10895 038b 06       		.byte	0x6
 10896 038c 5301     		.2byte	0x153
 10897 038e B8000000 		.4byte	0xb8
 10898 0392 18       		.byte	0x18
 10899 0393 00       		.byte	0
 10900 0394 0B       		.uleb128 0xb
 10901 0395 85150000 		.4byte	.LASF69
 10902 0399 06       		.byte	0x6
 10903 039a 5701     		.2byte	0x157
 10904 039c 08030000 		.4byte	0x308
 10905 03a0 0C       		.uleb128 0xc
 10906 03a1 68       		.byte	0x68
 10907 03a2 06       		.byte	0x6
 10908 03a3 6001     		.2byte	0x160
 10909 03a5 F8030000 		.4byte	0x3f8
 10910 03a9 0A       		.uleb128 0xa
 10911 03aa 9D0B0000 		.4byte	.LASF70
 10912 03ae 06       		.byte	0x6
 10913 03af 6201     		.2byte	0x162
 10914 03b1 F8030000 		.4byte	0x3f8
 10915 03b5 00       		.byte	0
 10916 03b6 0A       		.uleb128 0xa
 10917 03b7 81070000 		.4byte	.LASF71
 10918 03bb 06       		.byte	0x6
 10919 03bc 6401     		.2byte	0x164
 10920 03be B8000000 		.4byte	0xb8
 10921 03c2 60       		.byte	0x60
 10922 03c3 0A       		.uleb128 0xa
 10923 03c4 DD100000 		.4byte	.LASF72
 10924 03c8 06       		.byte	0x6
 10925 03c9 6601     		.2byte	0x166
 10926 03cb B8000000 		.4byte	0xb8
 10927 03cf 61       		.byte	0x61
 10928 03d0 0A       		.uleb128 0xa
 10929 03d1 870E0000 		.4byte	.LASF73
 10930 03d5 06       		.byte	0x6
 10931 03d6 6701     		.2byte	0x167
 10932 03d8 B8000000 		.4byte	0xb8
 10933 03dc 62       		.byte	0x62
 10934 03dd 0A       		.uleb128 0xa
 10935 03de D91D0000 		.4byte	.LASF74
 10936 03e2 06       		.byte	0x6
 10937 03e3 6801     		.2byte	0x168
 10938 03e5 B8000000 		.4byte	0xb8
 10939 03e9 63       		.byte	0x63
 10940 03ea 0A       		.uleb128 0xa
 10941 03eb 47030000 		.4byte	.LASF75
 10942 03ef 06       		.byte	0x6
 10943 03f0 6B01     		.2byte	0x16b
 10944 03f2 01010000 		.4byte	0x101
ARM GAS  C:\Users\PCHAUT~1\AppData\Local\Temp\ccZvjaUR.s 			page 193


 10945 03f6 64       		.byte	0x64
 10946 03f7 00       		.byte	0
 10947 03f8 07       		.uleb128 0x7
 10948 03f9 E4000000 		.4byte	0xe4
 10949 03fd 08040000 		.4byte	0x408
 10950 0401 08       		.uleb128 0x8
 10951 0402 A6000000 		.4byte	0xa6
 10952 0406 17       		.byte	0x17
 10953 0407 00       		.byte	0
 10954 0408 0B       		.uleb128 0xb
 10955 0409 DE220000 		.4byte	.LASF76
 10956 040d 06       		.byte	0x6
 10957 040e 6E01     		.2byte	0x16e
 10958 0410 A0030000 		.4byte	0x3a0
 10959 0414 0C       		.uleb128 0xc
 10960 0415 0C       		.byte	0xc
 10961 0416 06       		.byte	0x6
 10962 0417 7601     		.2byte	0x176
 10963 0419 38040000 		.4byte	0x438
 10964 041d 0A       		.uleb128 0xa
 10965 041e E9090000 		.4byte	.LASF77
 10966 0422 06       		.byte	0x6
 10967 0423 7701     		.2byte	0x177
 10968 0425 9B020000 		.4byte	0x29b
 10969 0429 00       		.byte	0
 10970 042a 0A       		.uleb128 0xa
 10971 042b B7190000 		.4byte	.LASF78
 10972 042f 06       		.byte	0x6
 10973 0430 7901     		.2byte	0x179
 10974 0432 9B020000 		.4byte	0x29b
 10975 0436 06       		.byte	0x6
 10976 0437 00       		.byte	0
 10977 0438 0B       		.uleb128 0xb
 10978 0439 F30E0000 		.4byte	.LASF79
 10979 043d 06       		.byte	0x6
 10980 043e 7B01     		.2byte	0x17b
 10981 0440 14040000 		.4byte	0x414
 10982 0444 0C       		.uleb128 0xc
 10983 0445 50       		.byte	0x50
 10984 0446 06       		.byte	0x6
 10985 0447 7D01     		.2byte	0x17d
 10986 0449 52050000 		.4byte	0x552
 10987 044d 0A       		.uleb128 0xa
 10988 044e 67090000 		.4byte	.LASF80
 10989 0452 06       		.byte	0x6
 10990 0453 7E01     		.2byte	0x17e
 10991 0455 F6000000 		.4byte	0xf6
 10992 0459 00       		.byte	0
 10993 045a 0A       		.uleb128 0xa
 10994 045b E9210000 		.4byte	.LASF81
 10995 045f 06       		.byte	0x6
 10996 0460 8001     		.2byte	0x180
 10997 0462 CE000000 		.4byte	0xce
 10998 0466 04       		.byte	0x4
 10999 0467 0A       		.uleb128 0xa
 11000 0468 991F0000 		.4byte	.LASF82
 11001 046c 06       		.byte	0x6
ARM GAS  C:\Users\PCHAUT~1\AppData\Local\Temp\ccZvjaUR.s 			page 194


 11002 046d 8301     		.2byte	0x183
 11003 046f 0C010000 		.4byte	0x10c
 11004 0473 06       		.byte	0x6
 11005 0474 0A       		.uleb128 0xa
 11006 0475 A4180000 		.4byte	.LASF83
 11007 0479 06       		.byte	0x6
 11008 047a 8601     		.2byte	0x186
 11009 047c E4000000 		.4byte	0xe4
 11010 0480 08       		.byte	0x8
 11011 0481 0A       		.uleb128 0xa
 11012 0482 711E0000 		.4byte	.LASF84
 11013 0486 06       		.byte	0x6
 11014 0487 8801     		.2byte	0x188
 11015 0489 B8000000 		.4byte	0xb8
 11016 048d 0C       		.byte	0xc
 11017 048e 0A       		.uleb128 0xa
 11018 048f E61D0000 		.4byte	.LASF85
 11019 0493 06       		.byte	0x6
 11020 0494 8A01     		.2byte	0x18a
 11021 0496 E4000000 		.4byte	0xe4
 11022 049a 10       		.byte	0x10
 11023 049b 0A       		.uleb128 0xa
 11024 049c 59010000 		.4byte	.LASF86
 11025 04a0 06       		.byte	0x6
 11026 04a1 8C01     		.2byte	0x18c
 11027 04a3 B8000000 		.4byte	0xb8
 11028 04a7 14       		.byte	0x14
 11029 04a8 0A       		.uleb128 0xa
 11030 04a9 4B210000 		.4byte	.LASF87
 11031 04ad 06       		.byte	0x6
 11032 04ae 8F01     		.2byte	0x18f
 11033 04b0 CE000000 		.4byte	0xce
 11034 04b4 16       		.byte	0x16
 11035 04b5 0A       		.uleb128 0xa
 11036 04b6 AD0C0000 		.4byte	.LASF88
 11037 04ba 06       		.byte	0x6
 11038 04bb 9101     		.2byte	0x191
 11039 04bd CE000000 		.4byte	0xce
 11040 04c1 18       		.byte	0x18
 11041 04c2 0A       		.uleb128 0xa
 11042 04c3 5D1D0000 		.4byte	.LASF89
 11043 04c7 06       		.byte	0x6
 11044 04c8 9401     		.2byte	0x194
 11045 04ca CE000000 		.4byte	0xce
 11046 04ce 1A       		.byte	0x1a
 11047 04cf 0A       		.uleb128 0xa
 11048 04d0 EB0D0000 		.4byte	.LASF90
 11049 04d4 06       		.byte	0x6
 11050 04d5 9901     		.2byte	0x199
 11051 04d7 B8000000 		.4byte	0xb8
 11052 04db 1C       		.byte	0x1c
 11053 04dc 0A       		.uleb128 0xa
 11054 04dd 8A0B0000 		.4byte	.LASF91
 11055 04e1 06       		.byte	0x6
 11056 04e2 9B01     		.2byte	0x19b
 11057 04e4 B8000000 		.4byte	0xb8
 11058 04e8 1D       		.byte	0x1d
ARM GAS  C:\Users\PCHAUT~1\AppData\Local\Temp\ccZvjaUR.s 			page 195


 11059 04e9 0A       		.uleb128 0xa
 11060 04ea B5050000 		.4byte	.LASF92
 11061 04ee 06       		.byte	0x6
 11062 04ef 9C01     		.2byte	0x19c
 11063 04f1 B8000000 		.4byte	0xb8
 11064 04f5 1E       		.byte	0x1e
 11065 04f6 0A       		.uleb128 0xa
 11066 04f7 EE020000 		.4byte	.LASF32
 11067 04fb 06       		.byte	0x6
 11068 04fc 9D01     		.2byte	0x19d
 11069 04fe AC010000 		.4byte	0x1ac
 11070 0502 1F       		.byte	0x1f
 11071 0503 0A       		.uleb128 0xa
 11072 0504 3D0B0000 		.4byte	.LASF93
 11073 0508 06       		.byte	0x6
 11074 0509 9F01     		.2byte	0x19f
 11075 050b B8000000 		.4byte	0xb8
 11076 050f 3F       		.byte	0x3f
 11077 0510 0A       		.uleb128 0xa
 11078 0511 4C000000 		.4byte	.LASF94
 11079 0515 06       		.byte	0x6
 11080 0516 A001     		.2byte	0x1a0
 11081 0518 B8000000 		.4byte	0xb8
 11082 051c 40       		.byte	0x40
 11083 051d 0A       		.uleb128 0xa
 11084 051e 7D110000 		.4byte	.LASF95
 11085 0522 06       		.byte	0x6
 11086 0523 A101     		.2byte	0x1a1
 11087 0525 B8000000 		.4byte	0xb8
 11088 0529 41       		.byte	0x41
 11089 052a 0A       		.uleb128 0xa
 11090 052b 2A170000 		.4byte	.LASF96
 11091 052f 06       		.byte	0x6
 11092 0530 A201     		.2byte	0x1a2
 11093 0532 E4000000 		.4byte	0xe4
 11094 0536 44       		.byte	0x44
 11095 0537 0A       		.uleb128 0xa
 11096 0538 7B000000 		.4byte	.LASF97
 11097 053c 06       		.byte	0x6
 11098 053d A301     		.2byte	0x1a3
 11099 053f E4000000 		.4byte	0xe4
 11100 0543 48       		.byte	0x48
 11101 0544 0A       		.uleb128 0xa
 11102 0545 35230000 		.4byte	.LASF98
 11103 0549 06       		.byte	0x6
 11104 054a A401     		.2byte	0x1a4
 11105 054c F6000000 		.4byte	0xf6
 11106 0550 4C       		.byte	0x4c
 11107 0551 00       		.byte	0
 11108 0552 0B       		.uleb128 0xb
 11109 0553 FA060000 		.4byte	.LASF99
 11110 0557 06       		.byte	0x6
 11111 0558 A701     		.2byte	0x1a7
 11112 055a 44040000 		.4byte	0x444
 11113 055e 0D       		.uleb128 0xd
 11114 055f 5C01     		.2byte	0x15c
 11115 0561 06       		.byte	0x6
ARM GAS  C:\Users\PCHAUT~1\AppData\Local\Temp\ccZvjaUR.s 			page 196


 11116 0562 B101     		.2byte	0x1b1
 11117 0564 C0060000 		.4byte	0x6c0
 11118 0568 0A       		.uleb128 0xa
 11119 0569 240D0000 		.4byte	.LASF100
 11120 056d 06       		.byte	0x6
 11121 056e B201     		.2byte	0x1b2
 11122 0570 FC020000 		.4byte	0x2fc
 11123 0574 00       		.byte	0
 11124 0575 0A       		.uleb128 0xa
 11125 0576 0E060000 		.4byte	.LASF101
 11126 057a 06       		.byte	0x6
 11127 057b B401     		.2byte	0x1b4
 11128 057d D9000000 		.4byte	0xd9
 11129 0581 08       		.byte	0x8
 11130 0582 0A       		.uleb128 0xa
 11131 0583 B8080000 		.4byte	.LASF102
 11132 0587 06       		.byte	0x6
 11133 0588 B601     		.2byte	0x1b6
 11134 058a D9000000 		.4byte	0xd9
 11135 058e 0C       		.byte	0xc
 11136 058f 0A       		.uleb128 0xa
 11137 0590 B81A0000 		.4byte	.LASF103
 11138 0594 06       		.byte	0x6
 11139 0595 B801     		.2byte	0x1b8
 11140 0597 BB020000 		.4byte	0x2bb
 11141 059b 10       		.byte	0x10
 11142 059c 0A       		.uleb128 0xa
 11143 059d 3B0E0000 		.4byte	.LASF104
 11144 05a1 06       		.byte	0x6
 11145 05a2 BA01     		.2byte	0x1ba
 11146 05a4 94030000 		.4byte	0x394
 11147 05a8 50       		.byte	0x50
 11148 05a9 0A       		.uleb128 0xa
 11149 05aa 9E200000 		.4byte	.LASF105
 11150 05ae 06       		.byte	0x6
 11151 05af BC01     		.2byte	0x1bc
 11152 05b1 08040000 		.4byte	0x408
 11153 05b5 6C       		.byte	0x6c
 11154 05b6 0A       		.uleb128 0xa
 11155 05b7 551C0000 		.4byte	.LASF106
 11156 05bb 06       		.byte	0x6
 11157 05bc BE01     		.2byte	0x1be
 11158 05be 52050000 		.4byte	0x552
 11159 05c2 D4       		.byte	0xd4
 11160 05c3 0E       		.uleb128 0xe
 11161 05c4 110B0000 		.4byte	.LASF107
 11162 05c8 06       		.byte	0x6
 11163 05c9 C001     		.2byte	0x1c0
 11164 05cb 38040000 		.4byte	0x438
 11165 05cf 2401     		.2byte	0x124
 11166 05d1 0E       		.uleb128 0xe
 11167 05d2 11160000 		.4byte	.LASF108
 11168 05d6 06       		.byte	0x6
 11169 05d7 C201     		.2byte	0x1c2
 11170 05d9 B8000000 		.4byte	0xb8
 11171 05dd 3001     		.2byte	0x130
 11172 05df 0E       		.uleb128 0xe
ARM GAS  C:\Users\PCHAUT~1\AppData\Local\Temp\ccZvjaUR.s 			page 197


 11173 05e0 D7200000 		.4byte	.LASF109
 11174 05e4 06       		.byte	0x6
 11175 05e5 C401     		.2byte	0x1c4
 11176 05e7 B8000000 		.4byte	0xb8
 11177 05eb 3101     		.2byte	0x131
 11178 05ed 0E       		.uleb128 0xe
 11179 05ee 9E220000 		.4byte	.LASF110
 11180 05f2 06       		.byte	0x6
 11181 05f3 C601     		.2byte	0x1c6
 11182 05f5 CC020000 		.4byte	0x2cc
 11183 05f9 3201     		.2byte	0x132
 11184 05fb 0E       		.uleb128 0xe
 11185 05fc FE040000 		.4byte	.LASF111
 11186 0600 06       		.byte	0x6
 11187 0601 C801     		.2byte	0x1c8
 11188 0603 F4010000 		.4byte	0x1f4
 11189 0607 3301     		.2byte	0x133
 11190 0609 0E       		.uleb128 0xe
 11191 060a 4B210000 		.4byte	.LASF87
 11192 060e 06       		.byte	0x6
 11193 060f CA01     		.2byte	0x1ca
 11194 0611 CE000000 		.4byte	0xce
 11195 0615 3401     		.2byte	0x134
 11196 0617 0E       		.uleb128 0xe
 11197 0618 AD0C0000 		.4byte	.LASF88
 11198 061c 06       		.byte	0x6
 11199 061d CC01     		.2byte	0x1cc
 11200 061f CE000000 		.4byte	0xce
 11201 0623 3601     		.2byte	0x136
 11202 0625 0E       		.uleb128 0xe
 11203 0626 5D1D0000 		.4byte	.LASF89
 11204 062a 06       		.byte	0x6
 11205 062b CF01     		.2byte	0x1cf
 11206 062d CE000000 		.4byte	0xce
 11207 0631 3801     		.2byte	0x138
 11208 0633 0E       		.uleb128 0xe
 11209 0634 010D0000 		.4byte	.LASF112
 11210 0638 06       		.byte	0x6
 11211 0639 D201     		.2byte	0x1d2
 11212 063b B8000000 		.4byte	0xb8
 11213 063f 3A01     		.2byte	0x13a
 11214 0641 0E       		.uleb128 0xe
 11215 0642 30080000 		.4byte	.LASF113
 11216 0646 06       		.byte	0x6
 11217 0647 D401     		.2byte	0x1d4
 11218 0649 CE000000 		.4byte	0xce
 11219 064d 3C01     		.2byte	0x13c
 11220 064f 0E       		.uleb128 0xe
 11221 0650 28210000 		.4byte	.LASF114
 11222 0654 06       		.byte	0x6
 11223 0655 D601     		.2byte	0x1d6
 11224 0657 F6000000 		.4byte	0xf6
 11225 065b 4001     		.2byte	0x140
 11226 065d 0E       		.uleb128 0xe
 11227 065e 37170000 		.4byte	.LASF115
 11228 0662 06       		.byte	0x6
 11229 0663 D901     		.2byte	0x1d9
ARM GAS  C:\Users\PCHAUT~1\AppData\Local\Temp\ccZvjaUR.s 			page 198


 11230 0665 F6000000 		.4byte	0xf6
 11231 0669 4401     		.2byte	0x144
 11232 066b 0E       		.uleb128 0xe
 11233 066c 52180000 		.4byte	.LASF116
 11234 0670 06       		.byte	0x6
 11235 0671 DB01     		.2byte	0x1db
 11236 0673 F6000000 		.4byte	0xf6
 11237 0677 4801     		.2byte	0x148
 11238 0679 0E       		.uleb128 0xe
 11239 067a 7C1C0000 		.4byte	.LASF117
 11240 067e 06       		.byte	0x6
 11241 067f DD01     		.2byte	0x1dd
 11242 0681 C0060000 		.4byte	0x6c0
 11243 0685 4C01     		.2byte	0x14c
 11244 0687 0E       		.uleb128 0xe
 11245 0688 FD090000 		.4byte	.LASF118
 11246 068c 06       		.byte	0x6
 11247 068d DF01     		.2byte	0x1df
 11248 068f B8000000 		.4byte	0xb8
 11249 0693 5001     		.2byte	0x150
 11250 0695 0E       		.uleb128 0xe
 11251 0696 7B0A0000 		.4byte	.LASF119
 11252 069a 06       		.byte	0x6
 11253 069b E101     		.2byte	0x1e1
 11254 069d CE000000 		.4byte	0xce
 11255 06a1 5201     		.2byte	0x152
 11256 06a3 0E       		.uleb128 0xe
 11257 06a4 710C0000 		.4byte	.LASF120
 11258 06a8 06       		.byte	0x6
 11259 06a9 E301     		.2byte	0x1e3
 11260 06ab CE000000 		.4byte	0xce
 11261 06af 5401     		.2byte	0x154
 11262 06b1 0E       		.uleb128 0xe
 11263 06b2 0A1E0000 		.4byte	.LASF121
 11264 06b6 06       		.byte	0x6
 11265 06b7 E501     		.2byte	0x1e5
 11266 06b9 F6000000 		.4byte	0xf6
 11267 06bd 5801     		.2byte	0x158
 11268 06bf 00       		.byte	0
 11269 06c0 0F       		.uleb128 0xf
 11270 06c1 04       		.byte	0x4
 11271 06c2 B8000000 		.4byte	0xb8
 11272 06c6 0B       		.uleb128 0xb
 11273 06c7 B51E0000 		.4byte	.LASF122
 11274 06cb 06       		.byte	0x6
 11275 06cc E801     		.2byte	0x1e8
 11276 06ce 5E050000 		.4byte	0x55e
 11277 06d2 0B       		.uleb128 0xb
 11278 06d3 BF180000 		.4byte	.LASF123
 11279 06d7 06       		.byte	0x6
 11280 06d8 F001     		.2byte	0x1f0
 11281 06da B8000000 		.4byte	0xb8
 11282 06de 0B       		.uleb128 0xb
 11283 06df 6F200000 		.4byte	.LASF124
 11284 06e3 06       		.byte	0x6
 11285 06e4 FE01     		.2byte	0x1fe
 11286 06e6 B8000000 		.4byte	0xb8
ARM GAS  C:\Users\PCHAUT~1\AppData\Local\Temp\ccZvjaUR.s 			page 199


 11287 06ea 0C       		.uleb128 0xc
 11288 06eb 05       		.byte	0x5
 11289 06ec 06       		.byte	0x6
 11290 06ed 0D02     		.2byte	0x20d
 11291 06ef 35070000 		.4byte	0x735
 11292 06f3 0A       		.uleb128 0xa
 11293 06f4 E20B0000 		.4byte	.LASF125
 11294 06f8 06       		.byte	0x6
 11295 06f9 0E02     		.2byte	0x20e
 11296 06fb B8000000 		.4byte	0xb8
 11297 06ff 00       		.byte	0
 11298 0700 0A       		.uleb128 0xa
 11299 0701 5C210000 		.4byte	.LASF126
 11300 0705 06       		.byte	0x6
 11301 0706 0F02     		.2byte	0x20f
 11302 0708 B8000000 		.4byte	0xb8
 11303 070c 01       		.byte	0x1
 11304 070d 0A       		.uleb128 0xa
 11305 070e 77110000 		.4byte	.LASF127
 11306 0712 06       		.byte	0x6
 11307 0713 1002     		.2byte	0x210
 11308 0715 B8000000 		.4byte	0xb8
 11309 0719 02       		.byte	0x2
 11310 071a 0A       		.uleb128 0xa
 11311 071b F4100000 		.4byte	.LASF128
 11312 071f 06       		.byte	0x6
 11313 0720 1102     		.2byte	0x211
 11314 0722 B8000000 		.4byte	0xb8
 11315 0726 03       		.byte	0x3
 11316 0727 0A       		.uleb128 0xa
 11317 0728 91110000 		.4byte	.LASF129
 11318 072c 06       		.byte	0x6
 11319 072d 1202     		.2byte	0x212
 11320 072f B8000000 		.4byte	0xb8
 11321 0733 04       		.byte	0x4
 11322 0734 00       		.byte	0
 11323 0735 0B       		.uleb128 0xb
 11324 0736 7F140000 		.4byte	.LASF130
 11325 073a 06       		.byte	0x6
 11326 073b 1302     		.2byte	0x213
 11327 073d EA060000 		.4byte	0x6ea
 11328 0741 0B       		.uleb128 0xb
 11329 0742 08150000 		.4byte	.LASF131
 11330 0746 06       		.byte	0x6
 11331 0747 1C02     		.2byte	0x21c
 11332 0749 B8000000 		.4byte	0xb8
 11333 074d 10       		.uleb128 0x10
 11334 074e 04       		.byte	0x4
 11335 074f 02       		.uleb128 0x2
 11336 0750 48150000 		.4byte	.LASF132
 11337 0754 07       		.byte	0x7
 11338 0755 22       		.byte	0x22
 11339 0756 5A070000 		.4byte	0x75a
 11340 075a 0F       		.uleb128 0xf
 11341 075b 04       		.byte	0x4
 11342 075c 60070000 		.4byte	0x760
 11343 0760 11       		.uleb128 0x11
ARM GAS  C:\Users\PCHAUT~1\AppData\Local\Temp\ccZvjaUR.s 			page 200


 11344 0761 1D1D0000 		.4byte	.LASF238
 11345 0765 02       		.uleb128 0x2
 11346 0766 E2210000 		.4byte	.LASF133
 11347 076a 08       		.byte	0x8
 11348 076b 2C       		.byte	0x2c
 11349 076c 78000000 		.4byte	0x78
 11350 0770 02       		.uleb128 0x2
 11351 0771 9C050000 		.4byte	.LASF134
 11352 0775 08       		.byte	0x8
 11353 0776 72       		.byte	0x72
 11354 0777 78000000 		.4byte	0x78
 11355 077b 0B       		.uleb128 0xb
 11356 077c 751C0000 		.4byte	.LASF135
 11357 0780 09       		.byte	0x9
 11358 0781 6501     		.2byte	0x165
 11359 0783 A6000000 		.4byte	0xa6
 11360 0787 12       		.uleb128 0x12
 11361 0788 04       		.byte	0x4
 11362 0789 08       		.byte	0x8
 11363 078a A6       		.byte	0xa6
 11364 078b A6070000 		.4byte	0x7a6
 11365 078f 13       		.uleb128 0x13
 11366 0790 4C0F0000 		.4byte	.LASF136
 11367 0794 08       		.byte	0x8
 11368 0795 A8       		.byte	0xa8
 11369 0796 7B070000 		.4byte	0x77b
 11370 079a 13       		.uleb128 0x13
 11371 079b 64180000 		.4byte	.LASF137
 11372 079f 08       		.byte	0x8
 11373 07a0 A9       		.byte	0xa9
 11374 07a1 A6070000 		.4byte	0x7a6
 11375 07a5 00       		.byte	0
 11376 07a6 07       		.uleb128 0x7
 11377 07a7 42000000 		.4byte	0x42
 11378 07ab B6070000 		.4byte	0x7b6
 11379 07af 08       		.uleb128 0x8
 11380 07b0 A6000000 		.4byte	0xa6
 11381 07b4 03       		.byte	0x3
 11382 07b5 00       		.byte	0
 11383 07b6 05       		.uleb128 0x5
 11384 07b7 08       		.byte	0x8
 11385 07b8 08       		.byte	0x8
 11386 07b9 A3       		.byte	0xa3
 11387 07ba D7070000 		.4byte	0x7d7
 11388 07be 06       		.uleb128 0x6
 11389 07bf 79070000 		.4byte	.LASF138
 11390 07c3 08       		.byte	0x8
 11391 07c4 A5       		.byte	0xa5
 11392 07c5 9F000000 		.4byte	0x9f
 11393 07c9 00       		.byte	0
 11394 07ca 06       		.uleb128 0x6
 11395 07cb A50C0000 		.4byte	.LASF139
 11396 07cf 08       		.byte	0x8
 11397 07d0 AA       		.byte	0xaa
 11398 07d1 87070000 		.4byte	0x787
 11399 07d5 04       		.byte	0x4
 11400 07d6 00       		.byte	0
ARM GAS  C:\Users\PCHAUT~1\AppData\Local\Temp\ccZvjaUR.s 			page 201


 11401 07d7 02       		.uleb128 0x2
 11402 07d8 89120000 		.4byte	.LASF140
 11403 07dc 08       		.byte	0x8
 11404 07dd AB       		.byte	0xab
 11405 07de B6070000 		.4byte	0x7b6
 11406 07e2 02       		.uleb128 0x2
 11407 07e3 B50E0000 		.4byte	.LASF141
 11408 07e7 08       		.byte	0x8
 11409 07e8 AF       		.byte	0xaf
 11410 07e9 4F070000 		.4byte	0x74f
 11411 07ed 02       		.uleb128 0x2
 11412 07ee 94040000 		.4byte	.LASF142
 11413 07f2 0A       		.byte	0xa
 11414 07f3 16       		.byte	0x16
 11415 07f4 8A000000 		.4byte	0x8a
 11416 07f8 14       		.uleb128 0x14
 11417 07f9 48060000 		.4byte	.LASF147
 11418 07fd 18       		.byte	0x18
 11419 07fe 0A       		.byte	0xa
 11420 07ff 2F       		.byte	0x2f
 11421 0800 4B080000 		.4byte	0x84b
 11422 0804 06       		.uleb128 0x6
 11423 0805 0C230000 		.4byte	.LASF143
 11424 0809 0A       		.byte	0xa
 11425 080a 31       		.byte	0x31
 11426 080b 4B080000 		.4byte	0x84b
 11427 080f 00       		.byte	0
 11428 0810 15       		.uleb128 0x15
 11429 0811 5F6B00   		.ascii	"_k\000"
 11430 0814 0A       		.byte	0xa
 11431 0815 32       		.byte	0x32
 11432 0816 9F000000 		.4byte	0x9f
 11433 081a 04       		.byte	0x4
 11434 081b 06       		.uleb128 0x6
 11435 081c 73000000 		.4byte	.LASF144
 11436 0820 0A       		.byte	0xa
 11437 0821 32       		.byte	0x32
 11438 0822 9F000000 		.4byte	0x9f
 11439 0826 08       		.byte	0x8
 11440 0827 06       		.uleb128 0x6
 11441 0828 A7170000 		.4byte	.LASF145
 11442 082c 0A       		.byte	0xa
 11443 082d 32       		.byte	0x32
 11444 082e 9F000000 		.4byte	0x9f
 11445 0832 0C       		.byte	0xc
 11446 0833 06       		.uleb128 0x6
 11447 0834 2D090000 		.4byte	.LASF146
 11448 0838 0A       		.byte	0xa
 11449 0839 32       		.byte	0x32
 11450 083a 9F000000 		.4byte	0x9f
 11451 083e 10       		.byte	0x10
 11452 083f 15       		.uleb128 0x15
 11453 0840 5F7800   		.ascii	"_x\000"
 11454 0843 0A       		.byte	0xa
 11455 0844 33       		.byte	0x33
 11456 0845 51080000 		.4byte	0x851
 11457 0849 14       		.byte	0x14
ARM GAS  C:\Users\PCHAUT~1\AppData\Local\Temp\ccZvjaUR.s 			page 202


 11458 084a 00       		.byte	0
 11459 084b 0F       		.uleb128 0xf
 11460 084c 04       		.byte	0x4
 11461 084d F8070000 		.4byte	0x7f8
 11462 0851 07       		.uleb128 0x7
 11463 0852 ED070000 		.4byte	0x7ed
 11464 0856 61080000 		.4byte	0x861
 11465 085a 08       		.uleb128 0x8
 11466 085b A6000000 		.4byte	0xa6
 11467 085f 00       		.byte	0
 11468 0860 00       		.byte	0
 11469 0861 14       		.uleb128 0x14
 11470 0862 891A0000 		.4byte	.LASF148
 11471 0866 24       		.byte	0x24
 11472 0867 0A       		.byte	0xa
 11473 0868 37       		.byte	0x37
 11474 0869 DA080000 		.4byte	0x8da
 11475 086d 06       		.uleb128 0x6
 11476 086e 0D020000 		.4byte	.LASF149
 11477 0872 0A       		.byte	0xa
 11478 0873 39       		.byte	0x39
 11479 0874 9F000000 		.4byte	0x9f
 11480 0878 00       		.byte	0
 11481 0879 06       		.uleb128 0x6
 11482 087a C1070000 		.4byte	.LASF150
 11483 087e 0A       		.byte	0xa
 11484 087f 3A       		.byte	0x3a
 11485 0880 9F000000 		.4byte	0x9f
 11486 0884 04       		.byte	0x4
 11487 0885 06       		.uleb128 0x6
 11488 0886 2D070000 		.4byte	.LASF151
 11489 088a 0A       		.byte	0xa
 11490 088b 3B       		.byte	0x3b
 11491 088c 9F000000 		.4byte	0x9f
 11492 0890 08       		.byte	0x8
 11493 0891 06       		.uleb128 0x6
 11494 0892 960D0000 		.4byte	.LASF152
 11495 0896 0A       		.byte	0xa
 11496 0897 3C       		.byte	0x3c
 11497 0898 9F000000 		.4byte	0x9f
 11498 089c 0C       		.byte	0xc
 11499 089d 06       		.uleb128 0x6
 11500 089e D7140000 		.4byte	.LASF153
 11501 08a2 0A       		.byte	0xa
 11502 08a3 3D       		.byte	0x3d
 11503 08a4 9F000000 		.4byte	0x9f
 11504 08a8 10       		.byte	0x10
 11505 08a9 06       		.uleb128 0x6
 11506 08aa D9180000 		.4byte	.LASF154
 11507 08ae 0A       		.byte	0xa
 11508 08af 3E       		.byte	0x3e
 11509 08b0 9F000000 		.4byte	0x9f
 11510 08b4 14       		.byte	0x14
 11511 08b5 06       		.uleb128 0x6
 11512 08b6 8E060000 		.4byte	.LASF155
 11513 08ba 0A       		.byte	0xa
 11514 08bb 3F       		.byte	0x3f
ARM GAS  C:\Users\PCHAUT~1\AppData\Local\Temp\ccZvjaUR.s 			page 203


 11515 08bc 9F000000 		.4byte	0x9f
 11516 08c0 18       		.byte	0x18
 11517 08c1 06       		.uleb128 0x6
 11518 08c2 5A0B0000 		.4byte	.LASF156
 11519 08c6 0A       		.byte	0xa
 11520 08c7 40       		.byte	0x40
 11521 08c8 9F000000 		.4byte	0x9f
 11522 08cc 1C       		.byte	0x1c
 11523 08cd 06       		.uleb128 0x6
 11524 08ce F8120000 		.4byte	.LASF157
 11525 08d2 0A       		.byte	0xa
 11526 08d3 41       		.byte	0x41
 11527 08d4 9F000000 		.4byte	0x9f
 11528 08d8 20       		.byte	0x20
 11529 08d9 00       		.byte	0
 11530 08da 16       		.uleb128 0x16
 11531 08db EF000000 		.4byte	.LASF158
 11532 08df 0801     		.2byte	0x108
 11533 08e1 0A       		.byte	0xa
 11534 08e2 4A       		.byte	0x4a
 11535 08e3 1A090000 		.4byte	0x91a
 11536 08e7 06       		.uleb128 0x6
 11537 08e8 83200000 		.4byte	.LASF159
 11538 08ec 0A       		.byte	0xa
 11539 08ed 4B       		.byte	0x4b
 11540 08ee 1A090000 		.4byte	0x91a
 11541 08f2 00       		.byte	0
 11542 08f3 06       		.uleb128 0x6
 11543 08f4 F71C0000 		.4byte	.LASF160
 11544 08f8 0A       		.byte	0xa
 11545 08f9 4C       		.byte	0x4c
 11546 08fa 1A090000 		.4byte	0x91a
 11547 08fe 80       		.byte	0x80
 11548 08ff 17       		.uleb128 0x17
 11549 0900 C71E0000 		.4byte	.LASF161
 11550 0904 0A       		.byte	0xa
 11551 0905 4E       		.byte	0x4e
 11552 0906 ED070000 		.4byte	0x7ed
 11553 090a 0001     		.2byte	0x100
 11554 090c 17       		.uleb128 0x17
 11555 090d 6E220000 		.4byte	.LASF162
 11556 0911 0A       		.byte	0xa
 11557 0912 51       		.byte	0x51
 11558 0913 ED070000 		.4byte	0x7ed
 11559 0917 0401     		.2byte	0x104
 11560 0919 00       		.byte	0
 11561 091a 07       		.uleb128 0x7
 11562 091b 4D070000 		.4byte	0x74d
 11563 091f 2A090000 		.4byte	0x92a
 11564 0923 08       		.uleb128 0x8
 11565 0924 A6000000 		.4byte	0xa6
 11566 0928 1F       		.byte	0x1f
 11567 0929 00       		.byte	0
 11568 092a 16       		.uleb128 0x16
 11569 092b 20160000 		.4byte	.LASF163
 11570 092f 9001     		.2byte	0x190
 11571 0931 0A       		.byte	0xa
ARM GAS  C:\Users\PCHAUT~1\AppData\Local\Temp\ccZvjaUR.s 			page 204


 11572 0932 5D       		.byte	0x5d
 11573 0933 68090000 		.4byte	0x968
 11574 0937 06       		.uleb128 0x6
 11575 0938 0C230000 		.4byte	.LASF143
 11576 093c 0A       		.byte	0xa
 11577 093d 5E       		.byte	0x5e
 11578 093e 68090000 		.4byte	0x968
 11579 0942 00       		.byte	0
 11580 0943 06       		.uleb128 0x6
 11581 0944 850B0000 		.4byte	.LASF164
 11582 0948 0A       		.byte	0xa
 11583 0949 5F       		.byte	0x5f
 11584 094a 9F000000 		.4byte	0x9f
 11585 094e 04       		.byte	0x4
 11586 094f 06       		.uleb128 0x6
 11587 0950 B0050000 		.4byte	.LASF165
 11588 0954 0A       		.byte	0xa
 11589 0955 61       		.byte	0x61
 11590 0956 6E090000 		.4byte	0x96e
 11591 095a 08       		.byte	0x8
 11592 095b 06       		.uleb128 0x6
 11593 095c EF000000 		.4byte	.LASF158
 11594 0960 0A       		.byte	0xa
 11595 0961 62       		.byte	0x62
 11596 0962 DA080000 		.4byte	0x8da
 11597 0966 88       		.byte	0x88
 11598 0967 00       		.byte	0
 11599 0968 0F       		.uleb128 0xf
 11600 0969 04       		.byte	0x4
 11601 096a 2A090000 		.4byte	0x92a
 11602 096e 07       		.uleb128 0x7
 11603 096f 7E090000 		.4byte	0x97e
 11604 0973 7E090000 		.4byte	0x97e
 11605 0977 08       		.uleb128 0x8
 11606 0978 A6000000 		.4byte	0xa6
 11607 097c 1F       		.byte	0x1f
 11608 097d 00       		.byte	0
 11609 097e 0F       		.uleb128 0xf
 11610 097f 04       		.byte	0x4
 11611 0980 84090000 		.4byte	0x984
 11612 0984 18       		.uleb128 0x18
 11613 0985 14       		.uleb128 0x14
 11614 0986 4A1F0000 		.4byte	.LASF166
 11615 098a 08       		.byte	0x8
 11616 098b 0A       		.byte	0xa
 11617 098c 75       		.byte	0x75
 11618 098d AA090000 		.4byte	0x9aa
 11619 0991 06       		.uleb128 0x6
 11620 0992 13110000 		.4byte	.LASF167
 11621 0996 0A       		.byte	0xa
 11622 0997 76       		.byte	0x76
 11623 0998 AA090000 		.4byte	0x9aa
 11624 099c 00       		.byte	0
 11625 099d 06       		.uleb128 0x6
 11626 099e 63210000 		.4byte	.LASF168
 11627 09a2 0A       		.byte	0xa
 11628 09a3 77       		.byte	0x77
ARM GAS  C:\Users\PCHAUT~1\AppData\Local\Temp\ccZvjaUR.s 			page 205


 11629 09a4 9F000000 		.4byte	0x9f
 11630 09a8 04       		.byte	0x4
 11631 09a9 00       		.byte	0
 11632 09aa 0F       		.uleb128 0xf
 11633 09ab 04       		.byte	0x4
 11634 09ac 42000000 		.4byte	0x42
 11635 09b0 14       		.uleb128 0x14
 11636 09b1 25090000 		.4byte	.LASF169
 11637 09b5 68       		.byte	0x68
 11638 09b6 0A       		.byte	0xa
 11639 09b7 B5       		.byte	0xb5
 11640 09b8 DA0A0000 		.4byte	0xada
 11641 09bc 15       		.uleb128 0x15
 11642 09bd 5F7000   		.ascii	"_p\000"
 11643 09c0 0A       		.byte	0xa
 11644 09c1 B6       		.byte	0xb6
 11645 09c2 AA090000 		.4byte	0x9aa
 11646 09c6 00       		.byte	0
 11647 09c7 15       		.uleb128 0x15
 11648 09c8 5F7200   		.ascii	"_r\000"
 11649 09cb 0A       		.byte	0xa
 11650 09cc B7       		.byte	0xb7
 11651 09cd 9F000000 		.4byte	0x9f
 11652 09d1 04       		.byte	0x4
 11653 09d2 15       		.uleb128 0x15
 11654 09d3 5F7700   		.ascii	"_w\000"
 11655 09d6 0A       		.byte	0xa
 11656 09d7 B8       		.byte	0xb8
 11657 09d8 9F000000 		.4byte	0x9f
 11658 09dc 08       		.byte	0x8
 11659 09dd 06       		.uleb128 0x6
 11660 09de 29030000 		.4byte	.LASF170
 11661 09e2 0A       		.byte	0xa
 11662 09e3 B9       		.byte	0xb9
 11663 09e4 54000000 		.4byte	0x54
 11664 09e8 0C       		.byte	0xc
 11665 09e9 06       		.uleb128 0x6
 11666 09ea F5110000 		.4byte	.LASF171
 11667 09ee 0A       		.byte	0xa
 11668 09ef BA       		.byte	0xba
 11669 09f0 54000000 		.4byte	0x54
 11670 09f4 0E       		.byte	0xe
 11671 09f5 15       		.uleb128 0x15
 11672 09f6 5F626600 		.ascii	"_bf\000"
 11673 09fa 0A       		.byte	0xa
 11674 09fb BB       		.byte	0xbb
 11675 09fc 85090000 		.4byte	0x985
 11676 0a00 10       		.byte	0x10
 11677 0a01 06       		.uleb128 0x6
 11678 0a02 991E0000 		.4byte	.LASF172
 11679 0a06 0A       		.byte	0xa
 11680 0a07 BC       		.byte	0xbc
 11681 0a08 9F000000 		.4byte	0x9f
 11682 0a0c 18       		.byte	0x18
 11683 0a0d 06       		.uleb128 0x6
 11684 0a0e B0000000 		.4byte	.LASF173
 11685 0a12 0A       		.byte	0xa
ARM GAS  C:\Users\PCHAUT~1\AppData\Local\Temp\ccZvjaUR.s 			page 206


 11686 0a13 C3       		.byte	0xc3
 11687 0a14 4D070000 		.4byte	0x74d
 11688 0a18 1C       		.byte	0x1c
 11689 0a19 06       		.uleb128 0x6
 11690 0a1a 8E040000 		.4byte	.LASF174
 11691 0a1e 0A       		.byte	0xa
 11692 0a1f C5       		.byte	0xc5
 11693 0a20 3B0C0000 		.4byte	0xc3b
 11694 0a24 20       		.byte	0x20
 11695 0a25 06       		.uleb128 0x6
 11696 0a26 B0150000 		.4byte	.LASF175
 11697 0a2a 0A       		.byte	0xa
 11698 0a2b C7       		.byte	0xc7
 11699 0a2c 650C0000 		.4byte	0xc65
 11700 0a30 24       		.byte	0x24
 11701 0a31 06       		.uleb128 0x6
 11702 0a32 06230000 		.4byte	.LASF176
 11703 0a36 0A       		.byte	0xa
 11704 0a37 CA       		.byte	0xca
 11705 0a38 890C0000 		.4byte	0xc89
 11706 0a3c 28       		.byte	0x28
 11707 0a3d 06       		.uleb128 0x6
 11708 0a3e E60F0000 		.4byte	.LASF177
 11709 0a42 0A       		.byte	0xa
 11710 0a43 CB       		.byte	0xcb
 11711 0a44 A30C0000 		.4byte	0xca3
 11712 0a48 2C       		.byte	0x2c
 11713 0a49 15       		.uleb128 0x15
 11714 0a4a 5F756200 		.ascii	"_ub\000"
 11715 0a4e 0A       		.byte	0xa
 11716 0a4f CE       		.byte	0xce
 11717 0a50 85090000 		.4byte	0x985
 11718 0a54 30       		.byte	0x30
 11719 0a55 15       		.uleb128 0x15
 11720 0a56 5F757000 		.ascii	"_up\000"
 11721 0a5a 0A       		.byte	0xa
 11722 0a5b CF       		.byte	0xcf
 11723 0a5c AA090000 		.4byte	0x9aa
 11724 0a60 38       		.byte	0x38
 11725 0a61 15       		.uleb128 0x15
 11726 0a62 5F757200 		.ascii	"_ur\000"
 11727 0a66 0A       		.byte	0xa
 11728 0a67 D0       		.byte	0xd0
 11729 0a68 9F000000 		.4byte	0x9f
 11730 0a6c 3C       		.byte	0x3c
 11731 0a6d 06       		.uleb128 0x6
 11732 0a6e 2F230000 		.4byte	.LASF178
 11733 0a72 0A       		.byte	0xa
 11734 0a73 D3       		.byte	0xd3
 11735 0a74 A90C0000 		.4byte	0xca9
 11736 0a78 40       		.byte	0x40
 11737 0a79 06       		.uleb128 0x6
 11738 0a7a FC210000 		.4byte	.LASF179
 11739 0a7e 0A       		.byte	0xa
 11740 0a7f D4       		.byte	0xd4
 11741 0a80 B90C0000 		.4byte	0xcb9
 11742 0a84 43       		.byte	0x43
ARM GAS  C:\Users\PCHAUT~1\AppData\Local\Temp\ccZvjaUR.s 			page 207


 11743 0a85 15       		.uleb128 0x15
 11744 0a86 5F6C6200 		.ascii	"_lb\000"
 11745 0a8a 0A       		.byte	0xa
 11746 0a8b D7       		.byte	0xd7
 11747 0a8c 85090000 		.4byte	0x985
 11748 0a90 44       		.byte	0x44
 11749 0a91 06       		.uleb128 0x6
 11750 0a92 801A0000 		.4byte	.LASF180
 11751 0a96 0A       		.byte	0xa
 11752 0a97 DA       		.byte	0xda
 11753 0a98 9F000000 		.4byte	0x9f
 11754 0a9c 4C       		.byte	0x4c
 11755 0a9d 06       		.uleb128 0x6
 11756 0a9e A4090000 		.4byte	.LASF181
 11757 0aa2 0A       		.byte	0xa
 11758 0aa3 DB       		.byte	0xdb
 11759 0aa4 65070000 		.4byte	0x765
 11760 0aa8 50       		.byte	0x50
 11761 0aa9 06       		.uleb128 0x6
 11762 0aaa 4C180000 		.4byte	.LASF182
 11763 0aae 0A       		.byte	0xa
 11764 0aaf DE       		.byte	0xde
 11765 0ab0 F80A0000 		.4byte	0xaf8
 11766 0ab4 54       		.byte	0x54
 11767 0ab5 06       		.uleb128 0x6
 11768 0ab6 8E1A0000 		.4byte	.LASF183
 11769 0aba 0A       		.byte	0xa
 11770 0abb E2       		.byte	0xe2
 11771 0abc E2070000 		.4byte	0x7e2
 11772 0ac0 58       		.byte	0x58
 11773 0ac1 06       		.uleb128 0x6
 11774 0ac2 5A040000 		.4byte	.LASF184
 11775 0ac6 0A       		.byte	0xa
 11776 0ac7 E4       		.byte	0xe4
 11777 0ac8 D7070000 		.4byte	0x7d7
 11778 0acc 5C       		.byte	0x5c
 11779 0acd 06       		.uleb128 0x6
 11780 0ace 66220000 		.4byte	.LASF185
 11781 0ad2 0A       		.byte	0xa
 11782 0ad3 E5       		.byte	0xe5
 11783 0ad4 9F000000 		.4byte	0x9f
 11784 0ad8 64       		.byte	0x64
 11785 0ad9 00       		.byte	0
 11786 0ada 19       		.uleb128 0x19
 11787 0adb 9F000000 		.4byte	0x9f
 11788 0adf F80A0000 		.4byte	0xaf8
 11789 0ae3 1A       		.uleb128 0x1a
 11790 0ae4 F80A0000 		.4byte	0xaf8
 11791 0ae8 1A       		.uleb128 0x1a
 11792 0ae9 4D070000 		.4byte	0x74d
 11793 0aed 1A       		.uleb128 0x1a
 11794 0aee 350C0000 		.4byte	0xc35
 11795 0af2 1A       		.uleb128 0x1a
 11796 0af3 9F000000 		.4byte	0x9f
 11797 0af7 00       		.byte	0
 11798 0af8 0F       		.uleb128 0xf
 11799 0af9 04       		.byte	0x4
ARM GAS  C:\Users\PCHAUT~1\AppData\Local\Temp\ccZvjaUR.s 			page 208


 11800 0afa 030B0000 		.4byte	0xb03
 11801 0afe 09       		.uleb128 0x9
 11802 0aff F80A0000 		.4byte	0xaf8
 11803 0b03 1B       		.uleb128 0x1b
 11804 0b04 39160000 		.4byte	.LASF186
 11805 0b08 2804     		.2byte	0x428
 11806 0b0a 0A       		.byte	0xa
 11807 0b0b 3902     		.2byte	0x239
 11808 0b0d 350C0000 		.4byte	0xc35
 11809 0b11 0A       		.uleb128 0xa
 11810 0b12 84030000 		.4byte	.LASF187
 11811 0b16 0A       		.byte	0xa
 11812 0b17 3B02     		.2byte	0x23b
 11813 0b19 9F000000 		.4byte	0x9f
 11814 0b1d 00       		.byte	0
 11815 0b1e 0A       		.uleb128 0xa
 11816 0b1f BB100000 		.4byte	.LASF188
 11817 0b23 0A       		.byte	0xa
 11818 0b24 4002     		.2byte	0x240
 11819 0b26 100D0000 		.4byte	0xd10
 11820 0b2a 04       		.byte	0x4
 11821 0b2b 0A       		.uleb128 0xa
 11822 0b2c A81D0000 		.4byte	.LASF189
 11823 0b30 0A       		.byte	0xa
 11824 0b31 4002     		.2byte	0x240
 11825 0b33 100D0000 		.4byte	0xd10
 11826 0b37 08       		.byte	0x8
 11827 0b38 0A       		.uleb128 0xa
 11828 0b39 1E230000 		.4byte	.LASF190
 11829 0b3d 0A       		.byte	0xa
 11830 0b3e 4002     		.2byte	0x240
 11831 0b40 100D0000 		.4byte	0xd10
 11832 0b44 0C       		.byte	0xc
 11833 0b45 0A       		.uleb128 0xa
 11834 0b46 800B0000 		.4byte	.LASF191
 11835 0b4a 0A       		.byte	0xa
 11836 0b4b 4202     		.2byte	0x242
 11837 0b4d 9F000000 		.4byte	0x9f
 11838 0b51 10       		.byte	0x10
 11839 0b52 0A       		.uleb128 0xa
 11840 0b53 2C0A0000 		.4byte	.LASF192
 11841 0b57 0A       		.byte	0xa
 11842 0b58 4302     		.2byte	0x243
 11843 0b5a F20E0000 		.4byte	0xef2
 11844 0b5e 14       		.byte	0x14
 11845 0b5f 0A       		.uleb128 0xa
 11846 0b60 4D220000 		.4byte	.LASF193
 11847 0b64 0A       		.byte	0xa
 11848 0b65 4602     		.2byte	0x246
 11849 0b67 9F000000 		.4byte	0x9f
 11850 0b6b 30       		.byte	0x30
 11851 0b6c 0A       		.uleb128 0xa
 11852 0b6d 67200000 		.4byte	.LASF194
 11853 0b71 0A       		.byte	0xa
 11854 0b72 4702     		.2byte	0x247
 11855 0b74 070F0000 		.4byte	0xf07
 11856 0b78 34       		.byte	0x34
ARM GAS  C:\Users\PCHAUT~1\AppData\Local\Temp\ccZvjaUR.s 			page 209


 11857 0b79 0A       		.uleb128 0xa
 11858 0b7a ED0F0000 		.4byte	.LASF195
 11859 0b7e 0A       		.byte	0xa
 11860 0b7f 4902     		.2byte	0x249
 11861 0b81 9F000000 		.4byte	0x9f
 11862 0b85 38       		.byte	0x38
 11863 0b86 0A       		.uleb128 0xa
 11864 0b87 7F120000 		.4byte	.LASF196
 11865 0b8b 0A       		.byte	0xa
 11866 0b8c 4B02     		.2byte	0x24b
 11867 0b8e 180F0000 		.4byte	0xf18
 11868 0b92 3C       		.byte	0x3c
 11869 0b93 0A       		.uleb128 0xa
 11870 0b94 E3060000 		.4byte	.LASF197
 11871 0b98 0A       		.byte	0xa
 11872 0b99 4E02     		.2byte	0x24e
 11873 0b9b 4B080000 		.4byte	0x84b
 11874 0b9f 40       		.byte	0x40
 11875 0ba0 0A       		.uleb128 0xa
 11876 0ba1 AE080000 		.4byte	.LASF198
 11877 0ba5 0A       		.byte	0xa
 11878 0ba6 4F02     		.2byte	0x24f
 11879 0ba8 9F000000 		.4byte	0x9f
 11880 0bac 44       		.byte	0x44
 11881 0bad 0A       		.uleb128 0xa
 11882 0bae D40C0000 		.4byte	.LASF199
 11883 0bb2 0A       		.byte	0xa
 11884 0bb3 5002     		.2byte	0x250
 11885 0bb5 4B080000 		.4byte	0x84b
 11886 0bb9 48       		.byte	0x48
 11887 0bba 0A       		.uleb128 0xa
 11888 0bbb 49110000 		.4byte	.LASF200
 11889 0bbf 0A       		.byte	0xa
 11890 0bc0 5102     		.2byte	0x251
 11891 0bc2 1E0F0000 		.4byte	0xf1e
 11892 0bc6 4C       		.byte	0x4c
 11893 0bc7 0A       		.uleb128 0xa
 11894 0bc8 AF190000 		.4byte	.LASF201
 11895 0bcc 0A       		.byte	0xa
 11896 0bcd 5402     		.2byte	0x254
 11897 0bcf 9F000000 		.4byte	0x9f
 11898 0bd3 50       		.byte	0x50
 11899 0bd4 0A       		.uleb128 0xa
 11900 0bd5 B01D0000 		.4byte	.LASF202
 11901 0bd9 0A       		.byte	0xa
 11902 0bda 5502     		.2byte	0x255
 11903 0bdc 350C0000 		.4byte	0xc35
 11904 0be0 54       		.byte	0x54
 11905 0be1 0A       		.uleb128 0xa
 11906 0be2 9A190000 		.4byte	.LASF203
 11907 0be6 0A       		.byte	0xa
 11908 0be7 7802     		.2byte	0x278
 11909 0be9 D00E0000 		.4byte	0xed0
 11910 0bed 58       		.byte	0x58
 11911 0bee 0E       		.uleb128 0xe
 11912 0bef 20160000 		.4byte	.LASF163
 11913 0bf3 0A       		.byte	0xa
ARM GAS  C:\Users\PCHAUT~1\AppData\Local\Temp\ccZvjaUR.s 			page 210


 11914 0bf4 7C02     		.2byte	0x27c
 11915 0bf6 68090000 		.4byte	0x968
 11916 0bfa 4801     		.2byte	0x148
 11917 0bfc 0E       		.uleb128 0xe
 11918 0bfd B90D0000 		.4byte	.LASF204
 11919 0c01 0A       		.byte	0xa
 11920 0c02 7D02     		.2byte	0x27d
 11921 0c04 2A090000 		.4byte	0x92a
 11922 0c08 4C01     		.2byte	0x14c
 11923 0c0a 0E       		.uleb128 0xe
 11924 0c0b A00D0000 		.4byte	.LASF205
 11925 0c0f 0A       		.byte	0xa
 11926 0c10 8102     		.2byte	0x281
 11927 0c12 2F0F0000 		.4byte	0xf2f
 11928 0c16 DC02     		.2byte	0x2dc
 11929 0c18 0E       		.uleb128 0xe
 11930 0c19 06200000 		.4byte	.LASF206
 11931 0c1d 0A       		.byte	0xa
 11932 0c1e 8602     		.2byte	0x286
 11933 0c20 D50C0000 		.4byte	0xcd5
 11934 0c24 E002     		.2byte	0x2e0
 11935 0c26 0E       		.uleb128 0xe
 11936 0c27 A2170000 		.4byte	.LASF207
 11937 0c2b 0A       		.byte	0xa
 11938 0c2c 8802     		.2byte	0x288
 11939 0c2e 3B0F0000 		.4byte	0xf3b
 11940 0c32 EC02     		.2byte	0x2ec
 11941 0c34 00       		.byte	0
 11942 0c35 0F       		.uleb128 0xf
 11943 0c36 04       		.byte	0x4
 11944 0c37 BC010000 		.4byte	0x1bc
 11945 0c3b 0F       		.uleb128 0xf
 11946 0c3c 04       		.byte	0x4
 11947 0c3d DA0A0000 		.4byte	0xada
 11948 0c41 19       		.uleb128 0x19
 11949 0c42 9F000000 		.4byte	0x9f
 11950 0c46 5F0C0000 		.4byte	0xc5f
 11951 0c4a 1A       		.uleb128 0x1a
 11952 0c4b F80A0000 		.4byte	0xaf8
 11953 0c4f 1A       		.uleb128 0x1a
 11954 0c50 4D070000 		.4byte	0x74d
 11955 0c54 1A       		.uleb128 0x1a
 11956 0c55 5F0C0000 		.4byte	0xc5f
 11957 0c59 1A       		.uleb128 0x1a
 11958 0c5a 9F000000 		.4byte	0x9f
 11959 0c5e 00       		.byte	0
 11960 0c5f 0F       		.uleb128 0xf
 11961 0c60 04       		.byte	0x4
 11962 0c61 C3010000 		.4byte	0x1c3
 11963 0c65 0F       		.uleb128 0xf
 11964 0c66 04       		.byte	0x4
 11965 0c67 410C0000 		.4byte	0xc41
 11966 0c6b 19       		.uleb128 0x19
 11967 0c6c 70070000 		.4byte	0x770
 11968 0c70 890C0000 		.4byte	0xc89
 11969 0c74 1A       		.uleb128 0x1a
 11970 0c75 F80A0000 		.4byte	0xaf8
ARM GAS  C:\Users\PCHAUT~1\AppData\Local\Temp\ccZvjaUR.s 			page 211


 11971 0c79 1A       		.uleb128 0x1a
 11972 0c7a 4D070000 		.4byte	0x74d
 11973 0c7e 1A       		.uleb128 0x1a
 11974 0c7f 70070000 		.4byte	0x770
 11975 0c83 1A       		.uleb128 0x1a
 11976 0c84 9F000000 		.4byte	0x9f
 11977 0c88 00       		.byte	0
 11978 0c89 0F       		.uleb128 0xf
 11979 0c8a 04       		.byte	0x4
 11980 0c8b 6B0C0000 		.4byte	0xc6b
 11981 0c8f 19       		.uleb128 0x19
 11982 0c90 9F000000 		.4byte	0x9f
 11983 0c94 A30C0000 		.4byte	0xca3
 11984 0c98 1A       		.uleb128 0x1a
 11985 0c99 F80A0000 		.4byte	0xaf8
 11986 0c9d 1A       		.uleb128 0x1a
 11987 0c9e 4D070000 		.4byte	0x74d
 11988 0ca2 00       		.byte	0
 11989 0ca3 0F       		.uleb128 0xf
 11990 0ca4 04       		.byte	0x4
 11991 0ca5 8F0C0000 		.4byte	0xc8f
 11992 0ca9 07       		.uleb128 0x7
 11993 0caa 42000000 		.4byte	0x42
 11994 0cae B90C0000 		.4byte	0xcb9
 11995 0cb2 08       		.uleb128 0x8
 11996 0cb3 A6000000 		.4byte	0xa6
 11997 0cb7 02       		.byte	0x2
 11998 0cb8 00       		.byte	0
 11999 0cb9 07       		.uleb128 0x7
 12000 0cba 42000000 		.4byte	0x42
 12001 0cbe C90C0000 		.4byte	0xcc9
 12002 0cc2 08       		.uleb128 0x8
 12003 0cc3 A6000000 		.4byte	0xa6
 12004 0cc7 00       		.byte	0
 12005 0cc8 00       		.byte	0
 12006 0cc9 0B       		.uleb128 0xb
 12007 0cca 9D090000 		.4byte	.LASF208
 12008 0cce 0A       		.byte	0xa
 12009 0ccf 1F01     		.2byte	0x11f
 12010 0cd1 B0090000 		.4byte	0x9b0
 12011 0cd5 1C       		.uleb128 0x1c
 12012 0cd6 CC1F0000 		.4byte	.LASF209
 12013 0cda 0C       		.byte	0xc
 12014 0cdb 0A       		.byte	0xa
 12015 0cdc 2301     		.2byte	0x123
 12016 0cde 0A0D0000 		.4byte	0xd0a
 12017 0ce2 0A       		.uleb128 0xa
 12018 0ce3 0C230000 		.4byte	.LASF143
 12019 0ce7 0A       		.byte	0xa
 12020 0ce8 2501     		.2byte	0x125
 12021 0cea 0A0D0000 		.4byte	0xd0a
 12022 0cee 00       		.byte	0
 12023 0cef 0A       		.uleb128 0xa
 12024 0cf0 6E1C0000 		.4byte	.LASF210
 12025 0cf4 0A       		.byte	0xa
 12026 0cf5 2601     		.2byte	0x126
 12027 0cf7 9F000000 		.4byte	0x9f
ARM GAS  C:\Users\PCHAUT~1\AppData\Local\Temp\ccZvjaUR.s 			page 212


 12028 0cfb 04       		.byte	0x4
 12029 0cfc 0A       		.uleb128 0xa
 12030 0cfd 520F0000 		.4byte	.LASF211
 12031 0d01 0A       		.byte	0xa
 12032 0d02 2701     		.2byte	0x127
 12033 0d04 100D0000 		.4byte	0xd10
 12034 0d08 08       		.byte	0x8
 12035 0d09 00       		.byte	0
 12036 0d0a 0F       		.uleb128 0xf
 12037 0d0b 04       		.byte	0x4
 12038 0d0c D50C0000 		.4byte	0xcd5
 12039 0d10 0F       		.uleb128 0xf
 12040 0d11 04       		.byte	0x4
 12041 0d12 C90C0000 		.4byte	0xcc9
 12042 0d16 1C       		.uleb128 0x1c
 12043 0d17 5B080000 		.4byte	.LASF212
 12044 0d1b 0E       		.byte	0xe
 12045 0d1c 0A       		.byte	0xa
 12046 0d1d 3F01     		.2byte	0x13f
 12047 0d1f 4B0D0000 		.4byte	0xd4b
 12048 0d23 0A       		.uleb128 0xa
 12049 0d24 B1220000 		.4byte	.LASF213
 12050 0d28 0A       		.byte	0xa
 12051 0d29 4001     		.2byte	0x140
 12052 0d2b 4B0D0000 		.4byte	0xd4b
 12053 0d2f 00       		.byte	0
 12054 0d30 0A       		.uleb128 0xa
 12055 0d31 53110000 		.4byte	.LASF214
 12056 0d35 0A       		.byte	0xa
 12057 0d36 4101     		.2byte	0x141
 12058 0d38 4B0D0000 		.4byte	0xd4b
 12059 0d3c 06       		.byte	0x6
 12060 0d3d 0A       		.uleb128 0xa
 12061 0d3e D01E0000 		.4byte	.LASF215
 12062 0d42 0A       		.byte	0xa
 12063 0d43 4201     		.2byte	0x142
 12064 0d45 66000000 		.4byte	0x66
 12065 0d49 0C       		.byte	0xc
 12066 0d4a 00       		.byte	0
 12067 0d4b 07       		.uleb128 0x7
 12068 0d4c 66000000 		.4byte	0x66
 12069 0d50 5B0D0000 		.4byte	0xd5b
 12070 0d54 08       		.uleb128 0x8
 12071 0d55 A6000000 		.4byte	0xa6
 12072 0d59 02       		.byte	0x2
 12073 0d5a 00       		.byte	0
 12074 0d5b 0C       		.uleb128 0xc
 12075 0d5c D0       		.byte	0xd0
 12076 0d5d 0A       		.byte	0xa
 12077 0d5e 5902     		.2byte	0x259
 12078 0d60 5C0E0000 		.4byte	0xe5c
 12079 0d64 0A       		.uleb128 0xa
 12080 0d65 02220000 		.4byte	.LASF216
 12081 0d69 0A       		.byte	0xa
 12082 0d6a 5B02     		.2byte	0x25b
 12083 0d6c A6000000 		.4byte	0xa6
 12084 0d70 00       		.byte	0
ARM GAS  C:\Users\PCHAUT~1\AppData\Local\Temp\ccZvjaUR.s 			page 213


 12085 0d71 0A       		.uleb128 0xa
 12086 0d72 37200000 		.4byte	.LASF217
 12087 0d76 0A       		.byte	0xa
 12088 0d77 5C02     		.2byte	0x25c
 12089 0d79 350C0000 		.4byte	0xc35
 12090 0d7d 04       		.byte	0x4
 12091 0d7e 0A       		.uleb128 0xa
 12092 0d7f 0E090000 		.4byte	.LASF218
 12093 0d83 0A       		.byte	0xa
 12094 0d84 5D02     		.2byte	0x25d
 12095 0d86 5C0E0000 		.4byte	0xe5c
 12096 0d8a 08       		.byte	0x8
 12097 0d8b 0A       		.uleb128 0xa
 12098 0d8c 4E190000 		.4byte	.LASF219
 12099 0d90 0A       		.byte	0xa
 12100 0d91 5E02     		.2byte	0x25e
 12101 0d93 61080000 		.4byte	0x861
 12102 0d97 24       		.byte	0x24
 12103 0d98 0A       		.uleb128 0xa
 12104 0d99 C2100000 		.4byte	.LASF220
 12105 0d9d 0A       		.byte	0xa
 12106 0d9e 5F02     		.2byte	0x25f
 12107 0da0 9F000000 		.4byte	0x9f
 12108 0da4 48       		.byte	0x48
 12109 0da5 0A       		.uleb128 0xa
 12110 0da6 D3220000 		.4byte	.LASF221
 12111 0daa 0A       		.byte	0xa
 12112 0dab 6002     		.2byte	0x260
 12113 0dad 98000000 		.4byte	0x98
 12114 0db1 50       		.byte	0x50
 12115 0db2 0A       		.uleb128 0xa
 12116 0db3 8C010000 		.4byte	.LASF222
 12117 0db7 0A       		.byte	0xa
 12118 0db8 6102     		.2byte	0x261
 12119 0dba 160D0000 		.4byte	0xd16
 12120 0dbe 58       		.byte	0x58
 12121 0dbf 0A       		.uleb128 0xa
 12122 0dc0 410D0000 		.4byte	.LASF223
 12123 0dc4 0A       		.byte	0xa
 12124 0dc5 6202     		.2byte	0x262
 12125 0dc7 D7070000 		.4byte	0x7d7
 12126 0dcb 68       		.byte	0x68
 12127 0dcc 0A       		.uleb128 0xa
 12128 0dcd 44200000 		.4byte	.LASF224
 12129 0dd1 0A       		.byte	0xa
 12130 0dd2 6302     		.2byte	0x263
 12131 0dd4 D7070000 		.4byte	0x7d7
 12132 0dd8 70       		.byte	0x70
 12133 0dd9 0A       		.uleb128 0xa
 12134 0dda 0B010000 		.4byte	.LASF225
 12135 0dde 0A       		.byte	0xa
 12136 0ddf 6402     		.2byte	0x264
 12137 0de1 D7070000 		.4byte	0x7d7
 12138 0de5 78       		.byte	0x78
 12139 0de6 0A       		.uleb128 0xa
 12140 0de7 C6190000 		.4byte	.LASF226
 12141 0deb 0A       		.byte	0xa
ARM GAS  C:\Users\PCHAUT~1\AppData\Local\Temp\ccZvjaUR.s 			page 214


 12142 0dec 6502     		.2byte	0x265
 12143 0dee 6C0E0000 		.4byte	0xe6c
 12144 0df2 80       		.byte	0x80
 12145 0df3 0A       		.uleb128 0xa
 12146 0df4 2F020000 		.4byte	.LASF227
 12147 0df8 0A       		.byte	0xa
 12148 0df9 6602     		.2byte	0x266
 12149 0dfb 7C0E0000 		.4byte	0xe7c
 12150 0dff 88       		.byte	0x88
 12151 0e00 0A       		.uleb128 0xa
 12152 0e01 8C1E0000 		.4byte	.LASF228
 12153 0e05 0A       		.byte	0xa
 12154 0e06 6702     		.2byte	0x267
 12155 0e08 9F000000 		.4byte	0x9f
 12156 0e0c A0       		.byte	0xa0
 12157 0e0d 0A       		.uleb128 0xa
 12158 0e0e B0040000 		.4byte	.LASF229
 12159 0e12 0A       		.byte	0xa
 12160 0e13 6802     		.2byte	0x268
 12161 0e15 D7070000 		.4byte	0x7d7
 12162 0e19 A4       		.byte	0xa4
 12163 0e1a 0A       		.uleb128 0xa
 12164 0e1b AA0D0000 		.4byte	.LASF230
 12165 0e1f 0A       		.byte	0xa
 12166 0e20 6902     		.2byte	0x269
 12167 0e22 D7070000 		.4byte	0x7d7
 12168 0e26 AC       		.byte	0xac
 12169 0e27 0A       		.uleb128 0xa
 12170 0e28 E80B0000 		.4byte	.LASF231
 12171 0e2c 0A       		.byte	0xa
 12172 0e2d 6A02     		.2byte	0x26a
 12173 0e2f D7070000 		.4byte	0x7d7
 12174 0e33 B4       		.byte	0xb4
 12175 0e34 0A       		.uleb128 0xa
 12176 0e35 E6110000 		.4byte	.LASF232
 12177 0e39 0A       		.byte	0xa
 12178 0e3a 6B02     		.2byte	0x26b
 12179 0e3c D7070000 		.4byte	0x7d7
 12180 0e40 BC       		.byte	0xbc
 12181 0e41 0A       		.uleb128 0xa
 12182 0e42 3D130000 		.4byte	.LASF233
 12183 0e46 0A       		.byte	0xa
 12184 0e47 6C02     		.2byte	0x26c
 12185 0e49 D7070000 		.4byte	0x7d7
 12186 0e4d C4       		.byte	0xc4
 12187 0e4e 0A       		.uleb128 0xa
 12188 0e4f 72130000 		.4byte	.LASF234
 12189 0e53 0A       		.byte	0xa
 12190 0e54 6D02     		.2byte	0x26d
 12191 0e56 9F000000 		.4byte	0x9f
 12192 0e5a CC       		.byte	0xcc
 12193 0e5b 00       		.byte	0
 12194 0e5c 07       		.uleb128 0x7
 12195 0e5d BC010000 		.4byte	0x1bc
 12196 0e61 6C0E0000 		.4byte	0xe6c
 12197 0e65 08       		.uleb128 0x8
 12198 0e66 A6000000 		.4byte	0xa6
ARM GAS  C:\Users\PCHAUT~1\AppData\Local\Temp\ccZvjaUR.s 			page 215


 12199 0e6a 19       		.byte	0x19
 12200 0e6b 00       		.byte	0
 12201 0e6c 07       		.uleb128 0x7
 12202 0e6d BC010000 		.4byte	0x1bc
 12203 0e71 7C0E0000 		.4byte	0xe7c
 12204 0e75 08       		.uleb128 0x8
 12205 0e76 A6000000 		.4byte	0xa6
 12206 0e7a 07       		.byte	0x7
 12207 0e7b 00       		.byte	0
 12208 0e7c 07       		.uleb128 0x7
 12209 0e7d BC010000 		.4byte	0x1bc
 12210 0e81 8C0E0000 		.4byte	0xe8c
 12211 0e85 08       		.uleb128 0x8
 12212 0e86 A6000000 		.4byte	0xa6
 12213 0e8a 17       		.byte	0x17
 12214 0e8b 00       		.byte	0
 12215 0e8c 0C       		.uleb128 0xc
 12216 0e8d F0       		.byte	0xf0
 12217 0e8e 0A       		.byte	0xa
 12218 0e8f 7202     		.2byte	0x272
 12219 0e91 B00E0000 		.4byte	0xeb0
 12220 0e95 0A       		.uleb128 0xa
 12221 0e96 F9070000 		.4byte	.LASF235
 12222 0e9a 0A       		.byte	0xa
 12223 0e9b 7502     		.2byte	0x275
 12224 0e9d B00E0000 		.4byte	0xeb0
 12225 0ea1 00       		.byte	0
 12226 0ea2 0A       		.uleb128 0xa
 12227 0ea3 26230000 		.4byte	.LASF236
 12228 0ea7 0A       		.byte	0xa
 12229 0ea8 7602     		.2byte	0x276
 12230 0eaa C00E0000 		.4byte	0xec0
 12231 0eae 78       		.byte	0x78
 12232 0eaf 00       		.byte	0
 12233 0eb0 07       		.uleb128 0x7
 12234 0eb1 AA090000 		.4byte	0x9aa
 12235 0eb5 C00E0000 		.4byte	0xec0
 12236 0eb9 08       		.uleb128 0x8
 12237 0eba A6000000 		.4byte	0xa6
 12238 0ebe 1D       		.byte	0x1d
 12239 0ebf 00       		.byte	0
 12240 0ec0 07       		.uleb128 0x7
 12241 0ec1 A6000000 		.4byte	0xa6
 12242 0ec5 D00E0000 		.4byte	0xed0
 12243 0ec9 08       		.uleb128 0x8
 12244 0eca A6000000 		.4byte	0xa6
 12245 0ece 1D       		.byte	0x1d
 12246 0ecf 00       		.byte	0
 12247 0ed0 1D       		.uleb128 0x1d
 12248 0ed1 F0       		.byte	0xf0
 12249 0ed2 0A       		.byte	0xa
 12250 0ed3 5702     		.2byte	0x257
 12251 0ed5 F20E0000 		.4byte	0xef2
 12252 0ed9 1E       		.uleb128 0x1e
 12253 0eda 39160000 		.4byte	.LASF186
 12254 0ede 0A       		.byte	0xa
 12255 0edf 6E02     		.2byte	0x26e
ARM GAS  C:\Users\PCHAUT~1\AppData\Local\Temp\ccZvjaUR.s 			page 216


 12256 0ee1 5B0D0000 		.4byte	0xd5b
 12257 0ee5 1E       		.uleb128 0x1e
 12258 0ee6 6E190000 		.4byte	.LASF237
 12259 0eea 0A       		.byte	0xa
 12260 0eeb 7702     		.2byte	0x277
 12261 0eed 8C0E0000 		.4byte	0xe8c
 12262 0ef1 00       		.byte	0
 12263 0ef2 07       		.uleb128 0x7
 12264 0ef3 BC010000 		.4byte	0x1bc
 12265 0ef7 020F0000 		.4byte	0xf02
 12266 0efb 08       		.uleb128 0x8
 12267 0efc A6000000 		.4byte	0xa6
 12268 0f00 18       		.byte	0x18
 12269 0f01 00       		.byte	0
 12270 0f02 11       		.uleb128 0x11
 12271 0f03 49040000 		.4byte	.LASF239
 12272 0f07 0F       		.uleb128 0xf
 12273 0f08 04       		.byte	0x4
 12274 0f09 020F0000 		.4byte	0xf02
 12275 0f0d 1F       		.uleb128 0x1f
 12276 0f0e 180F0000 		.4byte	0xf18
 12277 0f12 1A       		.uleb128 0x1a
 12278 0f13 F80A0000 		.4byte	0xaf8
 12279 0f17 00       		.byte	0
 12280 0f18 0F       		.uleb128 0xf
 12281 0f19 04       		.byte	0x4
 12282 0f1a 0D0F0000 		.4byte	0xf0d
 12283 0f1e 0F       		.uleb128 0xf
 12284 0f1f 04       		.byte	0x4
 12285 0f20 4B080000 		.4byte	0x84b
 12286 0f24 1F       		.uleb128 0x1f
 12287 0f25 2F0F0000 		.4byte	0xf2f
 12288 0f29 1A       		.uleb128 0x1a
 12289 0f2a 9F000000 		.4byte	0x9f
 12290 0f2e 00       		.byte	0
 12291 0f2f 0F       		.uleb128 0xf
 12292 0f30 04       		.byte	0x4
 12293 0f31 350F0000 		.4byte	0xf35
 12294 0f35 0F       		.uleb128 0xf
 12295 0f36 04       		.byte	0x4
 12296 0f37 240F0000 		.4byte	0xf24
 12297 0f3b 07       		.uleb128 0x7
 12298 0f3c C90C0000 		.4byte	0xcc9
 12299 0f40 4B0F0000 		.4byte	0xf4b
 12300 0f44 08       		.uleb128 0x8
 12301 0f45 A6000000 		.4byte	0xa6
 12302 0f49 02       		.byte	0x2
 12303 0f4a 00       		.byte	0
 12304 0f4b 20       		.uleb128 0x20
 12305 0f4c A4050000 		.4byte	.LASF240
 12306 0f50 0A       		.byte	0xa
 12307 0f51 0703     		.2byte	0x307
 12308 0f53 F80A0000 		.4byte	0xaf8
 12309 0f57 20       		.uleb128 0x20
 12310 0f58 6B180000 		.4byte	.LASF241
 12311 0f5c 0A       		.byte	0xa
 12312 0f5d 0803     		.2byte	0x308
ARM GAS  C:\Users\PCHAUT~1\AppData\Local\Temp\ccZvjaUR.s 			page 217


 12313 0f5f FE0A0000 		.4byte	0xafe
 12314 0f63 21       		.uleb128 0x21
 12315 0f64 C001     		.2byte	0x1c0
 12316 0f66 0B       		.byte	0xb
 12317 0f67 44       		.byte	0x44
 12318 0f68 930F0000 		.4byte	0xf93
 12319 0f6c 06       		.uleb128 0x6
 12320 0f6d 01230000 		.4byte	.LASF242
 12321 0f71 0B       		.byte	0xb
 12322 0f72 45       		.byte	0x45
 12323 0f73 C6060000 		.4byte	0x6c6
 12324 0f77 00       		.byte	0
 12325 0f78 17       		.uleb128 0x17
 12326 0f79 36010000 		.4byte	.LASF243
 12327 0f7d 0B       		.byte	0xb
 12328 0f7e 48       		.byte	0x48
 12329 0f7f C8010000 		.4byte	0x1c8
 12330 0f83 5C01     		.2byte	0x15c
 12331 0f85 17       		.uleb128 0x17
 12332 0f86 74170000 		.4byte	.LASF244
 12333 0f8a 0B       		.byte	0xb
 12334 0f8b 49       		.byte	0x49
 12335 0f8c B8000000 		.4byte	0xb8
 12336 0f90 BF01     		.2byte	0x1bf
 12337 0f92 00       		.byte	0
 12338 0f93 02       		.uleb128 0x2
 12339 0f94 BE040000 		.4byte	.LASF245
 12340 0f98 0B       		.byte	0xb
 12341 0f99 4B       		.byte	0x4b
 12342 0f9a 630F0000 		.4byte	0xf63
 12343 0f9e 02       		.uleb128 0x2
 12344 0f9f E3000000 		.4byte	.LASF246
 12345 0fa3 0B       		.byte	0xb
 12346 0fa4 52       		.byte	0x52
 12347 0fa5 A90F0000 		.4byte	0xfa9
 12348 0fa9 0F       		.uleb128 0xf
 12349 0faa 04       		.byte	0x4
 12350 0fab 930F0000 		.4byte	0xf93
 12351 0faf 07       		.uleb128 0x7
 12352 0fb0 B8000000 		.4byte	0xb8
 12353 0fb4 BF0F0000 		.4byte	0xfbf
 12354 0fb8 08       		.uleb128 0x8
 12355 0fb9 A6000000 		.4byte	0xa6
 12356 0fbd F2       		.byte	0xf2
 12357 0fbe 00       		.byte	0
 12358 0fbf 22       		.uleb128 0x22
 12359 0fc0 1C100000 		.4byte	.LASF247
 12360 0fc4 0C       		.byte	0xc
 12361 0fc5 29       		.byte	0x29
 12362 0fc6 AF0F0000 		.4byte	0xfaf
 12363 0fca 05       		.uleb128 0x5
 12364 0fcb 03       		.byte	0x3
 12365 0fcc 00000000 		.4byte	DefaultTuningSettings
 12366 0fd0 07       		.uleb128 0x7
 12367 0fd1 B8000000 		.4byte	0xb8
 12368 0fd5 E10F0000 		.4byte	0xfe1
 12369 0fd9 23       		.uleb128 0x23
ARM GAS  C:\Users\PCHAUT~1\AppData\Local\Temp\ccZvjaUR.s 			page 218


 12370 0fda A6000000 		.4byte	0xa6
 12371 0fde B501     		.2byte	0x1b5
 12372 0fe0 00       		.byte	0
 12373 0fe1 22       		.uleb128 0x22
 12374 0fe2 AE1C0000 		.4byte	.LASF248
 12375 0fe6 0D       		.byte	0xd
 12376 0fe7 27       		.byte	0x27
 12377 0fe8 D00F0000 		.4byte	0xfd0
 12378 0fec 05       		.uleb128 0x5
 12379 0fed 03       		.byte	0x3
 12380 0fee 00000000 		.4byte	InterruptThresholdSettings
 12381 0ff2 24       		.uleb128 0x24
 12382 0ff3 500B0000 		.4byte	.LASF249
 12383 0ff7 0E       		.byte	0xe
 12384 0ff8 63       		.byte	0x63
 12385 0ff9 350C0000 		.4byte	0xc35
 12386 0ffd 25       		.uleb128 0x25
 12387 0ffe C2060000 		.4byte	.LASF252
 12388 1002 01       		.byte	0x1
 12389 1003 EF0B     		.2byte	0xbef
 12390 1005 D3010000 		.4byte	0x1d3
 12391 1009 00000000 		.4byte	.LFB101
 12392 100d 44000000 		.4byte	.LFE101-.LFB101
 12393 1011 01       		.uleb128 0x1
 12394 1012 9C       		.byte	0x9c
 12395 1013 54100000 		.4byte	0x1054
 12396 1017 26       		.uleb128 0x26
 12397 1018 44657600 		.ascii	"Dev\000"
 12398 101c 01       		.byte	0x1
 12399 101d EF0B     		.2byte	0xbef
 12400 101f 9E0F0000 		.4byte	0xf9e
 12401 1023 02       		.uleb128 0x2
 12402 1024 91       		.byte	0x91
 12403 1025 6C       		.sleb128 -20
 12404 1026 27       		.uleb128 0x27
 12405 1027 A80E0000 		.4byte	.LASF250
 12406 102b 01       		.byte	0x1
 12407 102c F00B     		.2byte	0xbf0
 12408 102e 54100000 		.4byte	0x1054
 12409 1032 02       		.uleb128 0x2
 12410 1033 91       		.byte	0x91
 12411 1034 68       		.sleb128 -24
 12412 1035 27       		.uleb128 0x27
 12413 1036 A0140000 		.4byte	.LASF251
 12414 103a 01       		.byte	0x1
 12415 103b F00B     		.2byte	0xbf0
 12416 103d C0060000 		.4byte	0x6c0
 12417 1041 02       		.uleb128 0x2
 12418 1042 91       		.byte	0x91
 12419 1043 64       		.sleb128 -28
 12420 1044 28       		.uleb128 0x28
 12421 1045 8D020000 		.4byte	.LASF256
 12422 1049 01       		.byte	0x1
 12423 104a F20B     		.2byte	0xbf2
 12424 104c D3010000 		.4byte	0x1d3
 12425 1050 02       		.uleb128 0x2
 12426 1051 91       		.byte	0x91
ARM GAS  C:\Users\PCHAUT~1\AppData\Local\Temp\ccZvjaUR.s 			page 219


 12427 1052 73       		.sleb128 -13
 12428 1053 00       		.byte	0
 12429 1054 0F       		.uleb128 0xf
 12430 1055 04       		.byte	0x4
 12431 1056 E4000000 		.4byte	0xe4
 12432 105a 25       		.uleb128 0x25
 12433 105b CC030000 		.4byte	.LASF253
 12434 105f 01       		.byte	0x1
 12435 1060 E20B     		.2byte	0xbe2
 12436 1062 D3010000 		.4byte	0x1d3
 12437 1066 00000000 		.4byte	.LFB100
 12438 106a 44000000 		.4byte	.LFE100-.LFB100
 12439 106e 01       		.uleb128 0x1
 12440 106f 9C       		.byte	0x9c
 12441 1070 B1100000 		.4byte	0x10b1
 12442 1074 26       		.uleb128 0x26
 12443 1075 44657600 		.ascii	"Dev\000"
 12444 1079 01       		.byte	0x1
 12445 107a E20B     		.2byte	0xbe2
 12446 107c 9E0F0000 		.4byte	0xf9e
 12447 1080 02       		.uleb128 0x2
 12448 1081 91       		.byte	0x91
 12449 1082 6C       		.sleb128 -20
 12450 1083 27       		.uleb128 0x27
 12451 1084 5A0C0000 		.4byte	.LASF254
 12452 1088 01       		.byte	0x1
 12453 1089 E20B     		.2byte	0xbe2
 12454 108b 54100000 		.4byte	0x1054
 12455 108f 02       		.uleb128 0x2
 12456 1090 91       		.byte	0x91
 12457 1091 68       		.sleb128 -24
 12458 1092 27       		.uleb128 0x27
 12459 1093 C30C0000 		.4byte	.LASF255
 12460 1097 01       		.byte	0x1
 12461 1098 E30B     		.2byte	0xbe3
 12462 109a C0060000 		.4byte	0x6c0
 12463 109e 02       		.uleb128 0x2
 12464 109f 91       		.byte	0x91
 12465 10a0 64       		.sleb128 -28
 12466 10a1 28       		.uleb128 0x28
 12467 10a2 8D020000 		.4byte	.LASF256
 12468 10a6 01       		.byte	0x1
 12469 10a7 E50B     		.2byte	0xbe5
 12470 10a9 D3010000 		.4byte	0x1d3
 12471 10ad 02       		.uleb128 0x2
 12472 10ae 91       		.byte	0x91
 12473 10af 73       		.sleb128 -13
 12474 10b0 00       		.byte	0
 12475 10b1 25       		.uleb128 0x25
 12476 10b2 72010000 		.4byte	.LASF257
 12477 10b6 01       		.byte	0x1
 12478 10b7 D50B     		.2byte	0xbd5
 12479 10b9 D3010000 		.4byte	0x1d3
 12480 10bd 00000000 		.4byte	.LFB99
 12481 10c1 4C000000 		.4byte	.LFE99-.LFB99
 12482 10c5 01       		.uleb128 0x1
 12483 10c6 9C       		.byte	0x9c
ARM GAS  C:\Users\PCHAUT~1\AppData\Local\Temp\ccZvjaUR.s 			page 220


 12484 10c7 08110000 		.4byte	0x1108
 12485 10cb 26       		.uleb128 0x26
 12486 10cc 44657600 		.ascii	"Dev\000"
 12487 10d0 01       		.byte	0x1
 12488 10d1 D50B     		.2byte	0xbd5
 12489 10d3 9E0F0000 		.4byte	0xf9e
 12490 10d7 02       		.uleb128 0x2
 12491 10d8 91       		.byte	0x91
 12492 10d9 6C       		.sleb128 -20
 12493 10da 27       		.uleb128 0x27
 12494 10db FB0C0000 		.4byte	.LASF258
 12495 10df 01       		.byte	0x1
 12496 10e0 D50B     		.2byte	0xbd5
 12497 10e2 E4000000 		.4byte	0xe4
 12498 10e6 02       		.uleb128 0x2
 12499 10e7 91       		.byte	0x91
 12500 10e8 68       		.sleb128 -24
 12501 10e9 27       		.uleb128 0x27
 12502 10ea A0140000 		.4byte	.LASF251
 12503 10ee 01       		.byte	0x1
 12504 10ef D60B     		.2byte	0xbd6
 12505 10f1 B8000000 		.4byte	0xb8
 12506 10f5 02       		.uleb128 0x2
 12507 10f6 91       		.byte	0x91
 12508 10f7 67       		.sleb128 -25
 12509 10f8 28       		.uleb128 0x28
 12510 10f9 8D020000 		.4byte	.LASF256
 12511 10fd 01       		.byte	0x1
 12512 10fe D80B     		.2byte	0xbd8
 12513 1100 D3010000 		.4byte	0x1d3
 12514 1104 02       		.uleb128 0x2
 12515 1105 91       		.byte	0x91
 12516 1106 73       		.sleb128 -13
 12517 1107 00       		.byte	0
 12518 1108 25       		.uleb128 0x25
 12519 1109 C8010000 		.4byte	.LASF259
 12520 110d 01       		.byte	0x1
 12521 110e BF0B     		.2byte	0xbbf
 12522 1110 D3010000 		.4byte	0x1d3
 12523 1114 00000000 		.4byte	.LFB98
 12524 1118 80000000 		.4byte	.LFE98-.LFB98
 12525 111c 01       		.uleb128 0x1
 12526 111d 9C       		.byte	0x9c
 12527 111e 5F110000 		.4byte	0x115f
 12528 1122 26       		.uleb128 0x26
 12529 1123 44657600 		.ascii	"Dev\000"
 12530 1127 01       		.byte	0x1
 12531 1128 BF0B     		.2byte	0xbbf
 12532 112a 9E0F0000 		.4byte	0xf9e
 12533 112e 02       		.uleb128 0x2
 12534 112f 91       		.byte	0x91
 12535 1130 6C       		.sleb128 -20
 12536 1131 27       		.uleb128 0x27
 12537 1132 60070000 		.4byte	.LASF260
 12538 1136 01       		.byte	0x1
 12539 1137 C00B     		.2byte	0xbc0
 12540 1139 5F110000 		.4byte	0x115f
ARM GAS  C:\Users\PCHAUT~1\AppData\Local\Temp\ccZvjaUR.s 			page 221


 12541 113d 02       		.uleb128 0x2
 12542 113e 91       		.byte	0x91
 12543 113f 68       		.sleb128 -24
 12544 1140 28       		.uleb128 0x28
 12545 1141 8D020000 		.4byte	.LASF256
 12546 1145 01       		.byte	0x1
 12547 1146 C20B     		.2byte	0xbc2
 12548 1148 D3010000 		.4byte	0x1d3
 12549 114c 02       		.uleb128 0x2
 12550 114d 91       		.byte	0x91
 12551 114e 73       		.sleb128 -13
 12552 114f 28       		.uleb128 0x28
 12553 1150 DD0B0000 		.4byte	.LASF261
 12554 1154 01       		.byte	0x1
 12555 1155 C30B     		.2byte	0xbc3
 12556 1157 B8000000 		.4byte	0xb8
 12557 115b 02       		.uleb128 0x2
 12558 115c 91       		.byte	0x91
 12559 115d 72       		.sleb128 -14
 12560 115e 00       		.byte	0
 12561 115f 0F       		.uleb128 0xf
 12562 1160 04       		.byte	0x4
 12563 1161 CE000000 		.4byte	0xce
 12564 1165 25       		.uleb128 0x25
 12565 1166 3A1D0000 		.4byte	.LASF262
 12566 116a 01       		.byte	0x1
 12567 116b AE0B     		.2byte	0xbae
 12568 116d D3010000 		.4byte	0x1d3
 12569 1171 00000000 		.4byte	.LFB97
 12570 1175 84000000 		.4byte	.LFE97-.LFB97
 12571 1179 01       		.uleb128 0x1
 12572 117a 9C       		.byte	0x9c
 12573 117b BC110000 		.4byte	0x11bc
 12574 117f 26       		.uleb128 0x26
 12575 1180 44657600 		.ascii	"Dev\000"
 12576 1184 01       		.byte	0x1
 12577 1185 AE0B     		.2byte	0xbae
 12578 1187 9E0F0000 		.4byte	0xf9e
 12579 118b 02       		.uleb128 0x2
 12580 118c 91       		.byte	0x91
 12581 118d 6C       		.sleb128 -20
 12582 118e 27       		.uleb128 0x27
 12583 118f 7C230000 		.4byte	.LASF263
 12584 1193 01       		.byte	0x1
 12585 1194 AF0B     		.2byte	0xbaf
 12586 1196 CE000000 		.4byte	0xce
 12587 119a 02       		.uleb128 0x2
 12588 119b 91       		.byte	0x91
 12589 119c 6A       		.sleb128 -22
 12590 119d 28       		.uleb128 0x28
 12591 119e 8D020000 		.4byte	.LASF256
 12592 11a2 01       		.byte	0x1
 12593 11a3 B10B     		.2byte	0xbb1
 12594 11a5 D3010000 		.4byte	0x1d3
 12595 11a9 02       		.uleb128 0x2
 12596 11aa 91       		.byte	0x91
 12597 11ab 72       		.sleb128 -14
ARM GAS  C:\Users\PCHAUT~1\AppData\Local\Temp\ccZvjaUR.s 			page 222


 12598 11ac 28       		.uleb128 0x28
 12599 11ad DD0B0000 		.4byte	.LASF261
 12600 11b1 01       		.byte	0x1
 12601 11b2 B20B     		.2byte	0xbb2
 12602 11b4 B8000000 		.4byte	0xb8
 12603 11b8 02       		.uleb128 0x2
 12604 11b9 91       		.byte	0x91
 12605 11ba 73       		.sleb128 -13
 12606 11bb 00       		.byte	0
 12607 11bc 25       		.uleb128 0x25
 12608 11bd 88080000 		.4byte	.LASF264
 12609 11c1 01       		.byte	0x1
 12610 11c2 A00B     		.2byte	0xba0
 12611 11c4 D3010000 		.4byte	0x1d3
 12612 11c8 00000000 		.4byte	.LFB96
 12613 11cc 74000000 		.4byte	.LFE96-.LFB96
 12614 11d0 01       		.uleb128 0x1
 12615 11d1 9C       		.byte	0x9c
 12616 11d2 04120000 		.4byte	0x1204
 12617 11d6 26       		.uleb128 0x26
 12618 11d7 44657600 		.ascii	"Dev\000"
 12619 11db 01       		.byte	0x1
 12620 11dc A00B     		.2byte	0xba0
 12621 11de 9E0F0000 		.4byte	0xf9e
 12622 11e2 02       		.uleb128 0x2
 12623 11e3 91       		.byte	0x91
 12624 11e4 6C       		.sleb128 -20
 12625 11e5 27       		.uleb128 0x27
 12626 11e6 00000000 		.4byte	.LASF265
 12627 11ea 01       		.byte	0x1
 12628 11eb A10B     		.2byte	0xba1
 12629 11ed 5F110000 		.4byte	0x115f
 12630 11f1 02       		.uleb128 0x2
 12631 11f2 91       		.byte	0x91
 12632 11f3 68       		.sleb128 -24
 12633 11f4 28       		.uleb128 0x28
 12634 11f5 8D020000 		.4byte	.LASF256
 12635 11f9 01       		.byte	0x1
 12636 11fa A30B     		.2byte	0xba3
 12637 11fc D3010000 		.4byte	0x1d3
 12638 1200 02       		.uleb128 0x2
 12639 1201 91       		.byte	0x91
 12640 1202 73       		.sleb128 -13
 12641 1203 00       		.byte	0
 12642 1204 25       		.uleb128 0x25
 12643 1205 F9130000 		.4byte	.LASF266
 12644 1209 01       		.byte	0x1
 12645 120a 920B     		.2byte	0xb92
 12646 120c D3010000 		.4byte	0x1d3
 12647 1210 00000000 		.4byte	.LFB95
 12648 1214 7C000000 		.4byte	.LFE95-.LFB95
 12649 1218 01       		.uleb128 0x1
 12650 1219 9C       		.byte	0x9c
 12651 121a 4C120000 		.4byte	0x124c
 12652 121e 26       		.uleb128 0x26
 12653 121f 44657600 		.ascii	"Dev\000"
 12654 1223 01       		.byte	0x1
ARM GAS  C:\Users\PCHAUT~1\AppData\Local\Temp\ccZvjaUR.s 			page 223


 12655 1224 920B     		.2byte	0xb92
 12656 1226 9E0F0000 		.4byte	0xf9e
 12657 122a 02       		.uleb128 0x2
 12658 122b 91       		.byte	0x91
 12659 122c 6C       		.sleb128 -20
 12660 122d 27       		.uleb128 0x27
 12661 122e DC1A0000 		.4byte	.LASF267
 12662 1232 01       		.byte	0x1
 12663 1233 930B     		.2byte	0xb93
 12664 1235 CE000000 		.4byte	0xce
 12665 1239 02       		.uleb128 0x2
 12666 123a 91       		.byte	0x91
 12667 123b 6A       		.sleb128 -22
 12668 123c 28       		.uleb128 0x28
 12669 123d 8D020000 		.4byte	.LASF256
 12670 1241 01       		.byte	0x1
 12671 1242 950B     		.2byte	0xb95
 12672 1244 D3010000 		.4byte	0x1d3
 12673 1248 02       		.uleb128 0x2
 12674 1249 91       		.byte	0x91
 12675 124a 73       		.sleb128 -13
 12676 124b 00       		.byte	0
 12677 124c 25       		.uleb128 0x25
 12678 124d CC040000 		.4byte	.LASF268
 12679 1251 01       		.byte	0x1
 12680 1252 810B     		.2byte	0xb81
 12681 1254 D3010000 		.4byte	0x1d3
 12682 1258 00000000 		.4byte	.LFB94
 12683 125c 34000000 		.4byte	.LFE94-.LFB94
 12684 1260 01       		.uleb128 0x1
 12685 1261 9C       		.byte	0x9c
 12686 1262 94120000 		.4byte	0x1294
 12687 1266 26       		.uleb128 0x26
 12688 1267 44657600 		.ascii	"Dev\000"
 12689 126b 01       		.byte	0x1
 12690 126c 810B     		.2byte	0xb81
 12691 126e 9E0F0000 		.4byte	0xf9e
 12692 1272 02       		.uleb128 0x2
 12693 1273 91       		.byte	0x91
 12694 1274 6C       		.sleb128 -20
 12695 1275 27       		.uleb128 0x27
 12696 1276 DE1E0000 		.4byte	.LASF269
 12697 127a 01       		.byte	0x1
 12698 127b 810B     		.2byte	0xb81
 12699 127d E4000000 		.4byte	0xe4
 12700 1281 02       		.uleb128 0x2
 12701 1282 91       		.byte	0x91
 12702 1283 68       		.sleb128 -24
 12703 1284 28       		.uleb128 0x28
 12704 1285 8D020000 		.4byte	.LASF256
 12705 1289 01       		.byte	0x1
 12706 128a 830B     		.2byte	0xb83
 12707 128c D3010000 		.4byte	0x1d3
 12708 1290 02       		.uleb128 0x2
 12709 1291 91       		.byte	0x91
 12710 1292 73       		.sleb128 -13
 12711 1293 00       		.byte	0
ARM GAS  C:\Users\PCHAUT~1\AppData\Local\Temp\ccZvjaUR.s 			page 224


 12712 1294 25       		.uleb128 0x25
 12713 1295 2F190000 		.4byte	.LASF270
 12714 1299 01       		.byte	0x1
 12715 129a 700B     		.2byte	0xb70
 12716 129c D3010000 		.4byte	0x1d3
 12717 12a0 00000000 		.4byte	.LFB93
 12718 12a4 64000000 		.4byte	.LFE93-.LFB93
 12719 12a8 01       		.uleb128 0x1
 12720 12a9 9C       		.byte	0x9c
 12721 12aa EB120000 		.4byte	0x12eb
 12722 12ae 26       		.uleb128 0x26
 12723 12af 44657600 		.ascii	"Dev\000"
 12724 12b3 01       		.byte	0x1
 12725 12b4 700B     		.2byte	0xb70
 12726 12b6 9E0F0000 		.4byte	0xf9e
 12727 12ba 02       		.uleb128 0x2
 12728 12bb 91       		.byte	0x91
 12729 12bc 6C       		.sleb128 -20
 12730 12bd 27       		.uleb128 0x27
 12731 12be 170A0000 		.4byte	.LASF271
 12732 12c2 01       		.byte	0x1
 12733 12c3 710B     		.2byte	0xb71
 12734 12c5 54100000 		.4byte	0x1054
 12735 12c9 02       		.uleb128 0x2
 12736 12ca 91       		.byte	0x91
 12737 12cb 68       		.sleb128 -24
 12738 12cc 28       		.uleb128 0x28
 12739 12cd 8D020000 		.4byte	.LASF256
 12740 12d1 01       		.byte	0x1
 12741 12d2 730B     		.2byte	0xb73
 12742 12d4 D3010000 		.4byte	0x1d3
 12743 12d8 02       		.uleb128 0x2
 12744 12d9 91       		.byte	0x91
 12745 12da 73       		.sleb128 -13
 12746 12db 28       		.uleb128 0x28
 12747 12dc DD0B0000 		.4byte	.LASF261
 12748 12e0 01       		.byte	0x1
 12749 12e1 740B     		.2byte	0xb74
 12750 12e3 B8000000 		.4byte	0xb8
 12751 12e7 02       		.uleb128 0x2
 12752 12e8 91       		.byte	0x91
 12753 12e9 72       		.sleb128 -14
 12754 12ea 00       		.byte	0
 12755 12eb 25       		.uleb128 0x25
 12756 12ec 4E0D0000 		.4byte	.LASF272
 12757 12f0 01       		.byte	0x1
 12758 12f1 520B     		.2byte	0xb52
 12759 12f3 D3010000 		.4byte	0x1d3
 12760 12f7 00000000 		.4byte	.LFB92
 12761 12fb B0000000 		.4byte	.LFE92-.LFB92
 12762 12ff 01       		.uleb128 0x1
 12763 1300 9C       		.byte	0x9c
 12764 1301 51130000 		.4byte	0x1351
 12765 1305 26       		.uleb128 0x26
 12766 1306 44657600 		.ascii	"Dev\000"
 12767 130a 01       		.byte	0x1
 12768 130b 520B     		.2byte	0xb52
ARM GAS  C:\Users\PCHAUT~1\AppData\Local\Temp\ccZvjaUR.s 			page 225


 12769 130d 9E0F0000 		.4byte	0xf9e
 12770 1311 02       		.uleb128 0x2
 12771 1312 91       		.byte	0x91
 12772 1313 6C       		.sleb128 -20
 12773 1314 27       		.uleb128 0x27
 12774 1315 DE1E0000 		.4byte	.LASF269
 12775 1319 01       		.byte	0x1
 12776 131a 520B     		.2byte	0xb52
 12777 131c E4000000 		.4byte	0xe4
 12778 1320 02       		.uleb128 0x2
 12779 1321 91       		.byte	0x91
 12780 1322 68       		.sleb128 -24
 12781 1323 28       		.uleb128 0x28
 12782 1324 8D020000 		.4byte	.LASF256
 12783 1328 01       		.byte	0x1
 12784 1329 550B     		.2byte	0xb55
 12785 132b D3010000 		.4byte	0x1d3
 12786 132f 02       		.uleb128 0x2
 12787 1330 91       		.byte	0x91
 12788 1331 72       		.sleb128 -14
 12789 1332 28       		.uleb128 0x28
 12790 1333 1B090000 		.4byte	.LASF273
 12791 1337 01       		.byte	0x1
 12792 1338 560B     		.2byte	0xb56
 12793 133a B8000000 		.4byte	0xb8
 12794 133e 02       		.uleb128 0x2
 12795 133f 91       		.byte	0x91
 12796 1340 73       		.sleb128 -13
 12797 1341 28       		.uleb128 0x28
 12798 1342 DD0B0000 		.4byte	.LASF261
 12799 1346 01       		.byte	0x1
 12800 1347 570B     		.2byte	0xb57
 12801 1349 B8000000 		.4byte	0xb8
 12802 134d 02       		.uleb128 0x2
 12803 134e 91       		.byte	0x91
 12804 134f 71       		.sleb128 -15
 12805 1350 00       		.byte	0
 12806 1351 25       		.uleb128 0x25
 12807 1352 391E0000 		.4byte	.LASF274
 12808 1356 01       		.byte	0x1
 12809 1357 310B     		.2byte	0xb31
 12810 1359 D3010000 		.4byte	0x1d3
 12811 135d 00000000 		.4byte	.LFB91
 12812 1361 04010000 		.4byte	.LFE91-.LFB91
 12813 1365 01       		.uleb128 0x1
 12814 1366 9C       		.byte	0x9c
 12815 1367 A8130000 		.4byte	0x13a8
 12816 136b 26       		.uleb128 0x26
 12817 136c 44657600 		.ascii	"Dev\000"
 12818 1370 01       		.byte	0x1
 12819 1371 310B     		.2byte	0xb31
 12820 1373 9E0F0000 		.4byte	0xf9e
 12821 1377 02       		.uleb128 0x2
 12822 1378 91       		.byte	0x91
 12823 1379 6C       		.sleb128 -20
 12824 137a 27       		.uleb128 0x27
 12825 137b 23190000 		.4byte	.LASF275
ARM GAS  C:\Users\PCHAUT~1\AppData\Local\Temp\ccZvjaUR.s 			page 226


 12826 137f 01       		.byte	0x1
 12827 1380 320B     		.2byte	0xb32
 12828 1382 54100000 		.4byte	0x1054
 12829 1386 02       		.uleb128 0x2
 12830 1387 91       		.byte	0x91
 12831 1388 68       		.sleb128 -24
 12832 1389 28       		.uleb128 0x28
 12833 138a 8D020000 		.4byte	.LASF256
 12834 138e 01       		.byte	0x1
 12835 138f 340B     		.2byte	0xb34
 12836 1391 D3010000 		.4byte	0x1d3
 12837 1395 02       		.uleb128 0x2
 12838 1396 91       		.byte	0x91
 12839 1397 73       		.sleb128 -13
 12840 1398 28       		.uleb128 0x28
 12841 1399 DD0B0000 		.4byte	.LASF261
 12842 139d 01       		.byte	0x1
 12843 139e 350B     		.2byte	0xb35
 12844 13a0 B8000000 		.4byte	0xb8
 12845 13a4 02       		.uleb128 0x2
 12846 13a5 91       		.byte	0x91
 12847 13a6 72       		.sleb128 -14
 12848 13a7 00       		.byte	0
 12849 13a8 25       		.uleb128 0x25
 12850 13a9 FB110000 		.4byte	.LASF276
 12851 13ad 01       		.byte	0x1
 12852 13ae 160B     		.2byte	0xb16
 12853 13b0 D3010000 		.4byte	0x1d3
 12854 13b4 00000000 		.4byte	.LFB90
 12855 13b8 90000000 		.4byte	.LFE90-.LFB90
 12856 13bc 01       		.uleb128 0x1
 12857 13bd 9C       		.byte	0x9c
 12858 13be 1D140000 		.4byte	0x141d
 12859 13c2 26       		.uleb128 0x26
 12860 13c3 44657600 		.ascii	"Dev\000"
 12861 13c7 01       		.byte	0x1
 12862 13c8 160B     		.2byte	0xb16
 12863 13ca 9E0F0000 		.4byte	0xf9e
 12864 13ce 02       		.uleb128 0x2
 12865 13cf 91       		.byte	0x91
 12866 13d0 6C       		.sleb128 -20
 12867 13d1 27       		.uleb128 0x27
 12868 13d2 E0140000 		.4byte	.LASF42
 12869 13d6 01       		.byte	0x1
 12870 13d7 170B     		.2byte	0xb17
 12871 13d9 DE010000 		.4byte	0x1de
 12872 13dd 02       		.uleb128 0x2
 12873 13de 91       		.byte	0x91
 12874 13df 6B       		.sleb128 -21
 12875 13e0 27       		.uleb128 0x27
 12876 13e1 13180000 		.4byte	.LASF277
 12877 13e5 01       		.byte	0x1
 12878 13e6 170B     		.2byte	0xb17
 12879 13e8 1D140000 		.4byte	0x141d
 12880 13ec 02       		.uleb128 0x2
 12881 13ed 91       		.byte	0x91
 12882 13ee 64       		.sleb128 -28
ARM GAS  C:\Users\PCHAUT~1\AppData\Local\Temp\ccZvjaUR.s 			page 227


 12883 13ef 27       		.uleb128 0x27
 12884 13f0 94230000 		.4byte	.LASF278
 12885 13f4 01       		.byte	0x1
 12886 13f5 180B     		.2byte	0xb18
 12887 13f7 1D140000 		.4byte	0x141d
 12888 13fb 02       		.uleb128 0x2
 12889 13fc 91       		.byte	0x91
 12890 13fd 60       		.sleb128 -32
 12891 13fe 28       		.uleb128 0x28
 12892 13ff 8D020000 		.4byte	.LASF256
 12893 1403 01       		.byte	0x1
 12894 1404 1B0B     		.2byte	0xb1b
 12895 1406 D3010000 		.4byte	0x1d3
 12896 140a 02       		.uleb128 0x2
 12897 140b 91       		.byte	0x91
 12898 140c 71       		.sleb128 -15
 12899 140d 28       		.uleb128 0x28
 12900 140e 12230000 		.4byte	.LASF279
 12901 1412 01       		.byte	0x1
 12902 1413 1C0B     		.2byte	0xb1c
 12903 1415 CE000000 		.4byte	0xce
 12904 1419 02       		.uleb128 0x2
 12905 141a 91       		.byte	0x91
 12906 141b 72       		.sleb128 -14
 12907 141c 00       		.byte	0
 12908 141d 0F       		.uleb128 0xf
 12909 141e 04       		.byte	0x4
 12910 141f F6000000 		.4byte	0xf6
 12911 1423 25       		.uleb128 0x25
 12912 1424 C3210000 		.4byte	.LASF280
 12913 1428 01       		.byte	0x1
 12914 1429 FD0A     		.2byte	0xafd
 12915 142b D3010000 		.4byte	0x1d3
 12916 142f 00000000 		.4byte	.LFB89
 12917 1433 88000000 		.4byte	.LFE89-.LFB89
 12918 1437 01       		.uleb128 0x1
 12919 1438 9C       		.byte	0x9c
 12920 1439 98140000 		.4byte	0x1498
 12921 143d 26       		.uleb128 0x26
 12922 143e 44657600 		.ascii	"Dev\000"
 12923 1442 01       		.byte	0x1
 12924 1443 FD0A     		.2byte	0xafd
 12925 1445 9E0F0000 		.4byte	0xf9e
 12926 1449 02       		.uleb128 0x2
 12927 144a 91       		.byte	0x91
 12928 144b 6C       		.sleb128 -20
 12929 144c 27       		.uleb128 0x27
 12930 144d E0140000 		.4byte	.LASF42
 12931 1451 01       		.byte	0x1
 12932 1452 FE0A     		.2byte	0xafe
 12933 1454 DE010000 		.4byte	0x1de
 12934 1458 02       		.uleb128 0x2
 12935 1459 91       		.byte	0x91
 12936 145a 6B       		.sleb128 -21
 12937 145b 27       		.uleb128 0x27
 12938 145c 81040000 		.4byte	.LASF281
 12939 1460 01       		.byte	0x1
ARM GAS  C:\Users\PCHAUT~1\AppData\Local\Temp\ccZvjaUR.s 			page 228


 12940 1461 FE0A     		.2byte	0xafe
 12941 1463 F6000000 		.4byte	0xf6
 12942 1467 02       		.uleb128 0x2
 12943 1468 91       		.byte	0x91
 12944 1469 64       		.sleb128 -28
 12945 146a 27       		.uleb128 0x27
 12946 146b 941A0000 		.4byte	.LASF282
 12947 146f 01       		.byte	0x1
 12948 1470 FF0A     		.2byte	0xaff
 12949 1472 F6000000 		.4byte	0xf6
 12950 1476 02       		.uleb128 0x2
 12951 1477 91       		.byte	0x91
 12952 1478 60       		.sleb128 -32
 12953 1479 28       		.uleb128 0x28
 12954 147a 8D020000 		.4byte	.LASF256
 12955 147e 01       		.byte	0x1
 12956 147f 020B     		.2byte	0xb02
 12957 1481 D3010000 		.4byte	0x1d3
 12958 1485 02       		.uleb128 0x2
 12959 1486 91       		.byte	0x91
 12960 1487 71       		.sleb128 -15
 12961 1488 28       		.uleb128 0x28
 12962 1489 12230000 		.4byte	.LASF279
 12963 148d 01       		.byte	0x1
 12964 148e 030B     		.2byte	0xb03
 12965 1490 CE000000 		.4byte	0xce
 12966 1494 02       		.uleb128 0x2
 12967 1495 91       		.byte	0x91
 12968 1496 72       		.sleb128 -14
 12969 1497 00       		.byte	0
 12970 1498 25       		.uleb128 0x25
 12971 1499 D3090000 		.4byte	.LASF283
 12972 149d 01       		.byte	0x1
 12973 149e B60A     		.2byte	0xab6
 12974 14a0 D3010000 		.4byte	0x1d3
 12975 14a4 00000000 		.4byte	.LFB88
 12976 14a8 30010000 		.4byte	.LFE88-.LFB88
 12977 14ac 01       		.uleb128 0x1
 12978 14ad 9C       		.byte	0x9c
 12979 14ae 2B150000 		.4byte	0x152b
 12980 14b2 26       		.uleb128 0x26
 12981 14b3 44657600 		.ascii	"Dev\000"
 12982 14b7 01       		.byte	0x1
 12983 14b8 B60A     		.2byte	0xab6
 12984 14ba 9E0F0000 		.4byte	0xf9e
 12985 14be 02       		.uleb128 0x2
 12986 14bf 91       		.byte	0x91
 12987 14c0 6C       		.sleb128 -20
 12988 14c1 26       		.uleb128 0x26
 12989 14c2 50696E00 		.ascii	"Pin\000"
 12990 14c6 01       		.byte	0x1
 12991 14c7 B60A     		.2byte	0xab6
 12992 14c9 B8000000 		.4byte	0xb8
 12993 14cd 02       		.uleb128 0x2
 12994 14ce 91       		.byte	0x91
 12995 14cf 6B       		.sleb128 -21
 12996 14d0 27       		.uleb128 0x27
ARM GAS  C:\Users\PCHAUT~1\AppData\Local\Temp\ccZvjaUR.s 			page 229


 12997 14d1 DE190000 		.4byte	.LASF284
 12998 14d5 01       		.byte	0x1
 12999 14d6 B70A     		.2byte	0xab7
 13000 14d8 2B150000 		.4byte	0x152b
 13001 14dc 02       		.uleb128 0x2
 13002 14dd 91       		.byte	0x91
 13003 14de 64       		.sleb128 -28
 13004 14df 27       		.uleb128 0x27
 13005 14e0 4B090000 		.4byte	.LASF285
 13006 14e4 01       		.byte	0x1
 13007 14e5 B80A     		.2byte	0xab8
 13008 14e7 31150000 		.4byte	0x1531
 13009 14eb 02       		.uleb128 0x2
 13010 14ec 91       		.byte	0x91
 13011 14ed 60       		.sleb128 -32
 13012 14ee 27       		.uleb128 0x27
 13013 14ef A6150000 		.4byte	.LASF286
 13014 14f3 01       		.byte	0x1
 13015 14f4 B90A     		.2byte	0xab9
 13016 14f6 37150000 		.4byte	0x1537
 13017 14fa 02       		.uleb128 0x2
 13018 14fb 91       		.byte	0x91
 13019 14fc 5C       		.sleb128 -36
 13020 14fd 28       		.uleb128 0x28
 13021 14fe 8D020000 		.4byte	.LASF256
 13022 1502 01       		.byte	0x1
 13023 1503 BB0A     		.2byte	0xabb
 13024 1505 D3010000 		.4byte	0x1d3
 13025 1509 02       		.uleb128 0x2
 13026 150a 91       		.byte	0x91
 13027 150b 72       		.sleb128 -14
 13028 150c 28       		.uleb128 0x28
 13029 150d 7E180000 		.4byte	.LASF287
 13030 1511 01       		.byte	0x1
 13031 1512 BC0A     		.2byte	0xabc
 13032 1514 0C010000 		.4byte	0x10c
 13033 1518 02       		.uleb128 0x2
 13034 1519 91       		.byte	0x91
 13035 151a 73       		.sleb128 -13
 13036 151b 28       		.uleb128 0x28
 13037 151c C2140000 		.4byte	.LASF288
 13038 1520 01       		.byte	0x1
 13039 1521 BD0A     		.2byte	0xabd
 13040 1523 B8000000 		.4byte	0xb8
 13041 1527 02       		.uleb128 0x2
 13042 1528 91       		.byte	0x91
 13043 1529 71       		.sleb128 -15
 13044 152a 00       		.byte	0
 13045 152b 0F       		.uleb128 0xf
 13046 152c 04       		.byte	0x4
 13047 152d DE010000 		.4byte	0x1de
 13048 1531 0F       		.uleb128 0xf
 13049 1532 04       		.byte	0x4
 13050 1533 0C010000 		.4byte	0x10c
 13051 1537 0F       		.uleb128 0xf
 13052 1538 04       		.byte	0x4
 13053 1539 D2060000 		.4byte	0x6d2
ARM GAS  C:\Users\PCHAUT~1\AppData\Local\Temp\ccZvjaUR.s 			page 230


 13054 153d 25       		.uleb128 0x25
 13055 153e 920E0000 		.4byte	.LASF289
 13056 1542 01       		.byte	0x1
 13057 1543 570A     		.2byte	0xa57
 13058 1545 D3010000 		.4byte	0x1d3
 13059 1549 00000000 		.4byte	.LFB87
 13060 154d DC020000 		.4byte	.LFE87-.LFB87
 13061 1551 01       		.uleb128 0x1
 13062 1552 9C       		.byte	0x9c
 13063 1553 C1150000 		.4byte	0x15c1
 13064 1557 26       		.uleb128 0x26
 13065 1558 44657600 		.ascii	"Dev\000"
 13066 155c 01       		.byte	0x1
 13067 155d 570A     		.2byte	0xa57
 13068 155f 9E0F0000 		.4byte	0xf9e
 13069 1563 02       		.uleb128 0x2
 13070 1564 91       		.byte	0x91
 13071 1565 6C       		.sleb128 -20
 13072 1566 26       		.uleb128 0x26
 13073 1567 50696E00 		.ascii	"Pin\000"
 13074 156b 01       		.byte	0x1
 13075 156c 570A     		.2byte	0xa57
 13076 156e B8000000 		.4byte	0xb8
 13077 1572 02       		.uleb128 0x2
 13078 1573 91       		.byte	0x91
 13079 1574 6B       		.sleb128 -21
 13080 1575 27       		.uleb128 0x27
 13081 1576 E0140000 		.4byte	.LASF42
 13082 157a 01       		.byte	0x1
 13083 157b 580A     		.2byte	0xa58
 13084 157d DE010000 		.4byte	0x1de
 13085 1581 02       		.uleb128 0x2
 13086 1582 91       		.byte	0x91
 13087 1583 6A       		.sleb128 -22
 13088 1584 27       		.uleb128 0x27
 13089 1585 A1070000 		.4byte	.LASF290
 13090 1589 01       		.byte	0x1
 13091 158a 580A     		.2byte	0xa58
 13092 158c 0C010000 		.4byte	0x10c
 13093 1590 02       		.uleb128 0x2
 13094 1591 91       		.byte	0x91
 13095 1592 69       		.sleb128 -23
 13096 1593 27       		.uleb128 0x27
 13097 1594 40040000 		.4byte	.LASF291
 13098 1598 01       		.byte	0x1
 13099 1599 590A     		.2byte	0xa59
 13100 159b D2060000 		.4byte	0x6d2
 13101 159f 02       		.uleb128 0x2
 13102 15a0 91       		.byte	0x91
 13103 15a1 68       		.sleb128 -24
 13104 15a2 28       		.uleb128 0x28
 13105 15a3 8D020000 		.4byte	.LASF256
 13106 15a7 01       		.byte	0x1
 13107 15a8 5B0A     		.2byte	0xa5b
 13108 15aa D3010000 		.4byte	0x1d3
 13109 15ae 02       		.uleb128 0x2
 13110 15af 91       		.byte	0x91
ARM GAS  C:\Users\PCHAUT~1\AppData\Local\Temp\ccZvjaUR.s 			page 231


 13111 15b0 72       		.sleb128 -14
 13112 15b1 28       		.uleb128 0x28
 13113 15b2 C2140000 		.4byte	.LASF288
 13114 15b6 01       		.byte	0x1
 13115 15b7 5C0A     		.2byte	0xa5c
 13116 15b9 B8000000 		.4byte	0xb8
 13117 15bd 02       		.uleb128 0x2
 13118 15be 91       		.byte	0x91
 13119 15bf 73       		.sleb128 -13
 13120 15c0 00       		.byte	0
 13121 15c1 25       		.uleb128 0x25
 13122 15c2 6F060000 		.4byte	.LASF292
 13123 15c6 01       		.byte	0x1
 13124 15c7 470A     		.2byte	0xa47
 13125 15c9 D3010000 		.4byte	0x1d3
 13126 15cd 00000000 		.4byte	.LFB86
 13127 15d1 38000000 		.4byte	.LFE86-.LFB86
 13128 15d5 01       		.uleb128 0x1
 13129 15d6 9C       		.byte	0x9c
 13130 15d7 09160000 		.4byte	0x1609
 13131 15db 26       		.uleb128 0x26
 13132 15dc 44657600 		.ascii	"Dev\000"
 13133 15e0 01       		.byte	0x1
 13134 15e1 470A     		.2byte	0xa47
 13135 15e3 9E0F0000 		.4byte	0xf9e
 13136 15e7 02       		.uleb128 0x2
 13137 15e8 91       		.byte	0x91
 13138 15e9 6C       		.sleb128 -20
 13139 15ea 27       		.uleb128 0x27
 13140 15eb D9170000 		.4byte	.LASF293
 13141 15ef 01       		.byte	0x1
 13142 15f0 480A     		.2byte	0xa48
 13143 15f2 C0060000 		.4byte	0x6c0
 13144 15f6 02       		.uleb128 0x2
 13145 15f7 91       		.byte	0x91
 13146 15f8 68       		.sleb128 -24
 13147 15f9 28       		.uleb128 0x28
 13148 15fa 8D020000 		.4byte	.LASF256
 13149 15fe 01       		.byte	0x1
 13150 15ff 4B0A     		.2byte	0xa4b
 13151 1601 D3010000 		.4byte	0x1d3
 13152 1605 02       		.uleb128 0x2
 13153 1606 91       		.byte	0x91
 13154 1607 73       		.sleb128 -13
 13155 1608 00       		.byte	0
 13156 1609 25       		.uleb128 0x25
 13157 160a 640B0000 		.4byte	.LASF294
 13158 160e 01       		.byte	0x1
 13159 160f 390A     		.2byte	0xa39
 13160 1611 D3010000 		.4byte	0x1d3
 13161 1615 00000000 		.4byte	.LFB85
 13162 1619 38000000 		.4byte	.LFE85-.LFB85
 13163 161d 01       		.uleb128 0x1
 13164 161e 9C       		.byte	0x9c
 13165 161f 51160000 		.4byte	0x1651
 13166 1623 26       		.uleb128 0x26
 13167 1624 44657600 		.ascii	"Dev\000"
ARM GAS  C:\Users\PCHAUT~1\AppData\Local\Temp\ccZvjaUR.s 			page 232


 13168 1628 01       		.byte	0x1
 13169 1629 390A     		.2byte	0xa39
 13170 162b 9E0F0000 		.4byte	0xf9e
 13171 162f 02       		.uleb128 0x2
 13172 1630 91       		.byte	0x91
 13173 1631 6C       		.sleb128 -20
 13174 1632 27       		.uleb128 0x27
 13175 1633 C7170000 		.4byte	.LASF295
 13176 1637 01       		.byte	0x1
 13177 1638 3A0A     		.2byte	0xa3a
 13178 163a C0060000 		.4byte	0x6c0
 13179 163e 02       		.uleb128 0x2
 13180 163f 91       		.byte	0x91
 13181 1640 68       		.sleb128 -24
 13182 1641 28       		.uleb128 0x28
 13183 1642 8D020000 		.4byte	.LASF256
 13184 1646 01       		.byte	0x1
 13185 1647 3D0A     		.2byte	0xa3d
 13186 1649 D3010000 		.4byte	0x1d3
 13187 164d 02       		.uleb128 0x2
 13188 164e 91       		.byte	0x91
 13189 164f 73       		.sleb128 -13
 13190 1650 00       		.byte	0
 13191 1651 25       		.uleb128 0x25
 13192 1652 BE110000 		.4byte	.LASF296
 13193 1656 01       		.byte	0x1
 13194 1657 290A     		.2byte	0xa29
 13195 1659 D3010000 		.4byte	0x1d3
 13196 165d 00000000 		.4byte	.LFB84
 13197 1661 44000000 		.4byte	.LFE84-.LFB84
 13198 1665 01       		.uleb128 0x1
 13199 1666 9C       		.byte	0x9c
 13200 1667 99160000 		.4byte	0x1699
 13201 166b 26       		.uleb128 0x26
 13202 166c 44657600 		.ascii	"Dev\000"
 13203 1670 01       		.byte	0x1
 13204 1671 290A     		.2byte	0xa29
 13205 1673 9E0F0000 		.4byte	0xf9e
 13206 1677 02       		.uleb128 0x2
 13207 1678 91       		.byte	0x91
 13208 1679 6C       		.sleb128 -20
 13209 167a 27       		.uleb128 0x27
 13210 167b C6200000 		.4byte	.LASF297
 13211 167f 01       		.byte	0x1
 13212 1680 2A0A     		.2byte	0xa2a
 13213 1682 B8000000 		.4byte	0xb8
 13214 1686 02       		.uleb128 0x2
 13215 1687 91       		.byte	0x91
 13216 1688 6B       		.sleb128 -21
 13217 1689 28       		.uleb128 0x28
 13218 168a 8D020000 		.4byte	.LASF256
 13219 168e 01       		.byte	0x1
 13220 168f 2D0A     		.2byte	0xa2d
 13221 1691 D3010000 		.4byte	0x1d3
 13222 1695 02       		.uleb128 0x2
 13223 1696 91       		.byte	0x91
 13224 1697 73       		.sleb128 -13
ARM GAS  C:\Users\PCHAUT~1\AppData\Local\Temp\ccZvjaUR.s 			page 233


 13225 1698 00       		.byte	0
 13226 1699 25       		.uleb128 0x25
 13227 169a EA190000 		.4byte	.LASF298
 13228 169e 01       		.byte	0x1
 13229 169f 0D0A     		.2byte	0xa0d
 13230 16a1 D3010000 		.4byte	0x1d3
 13231 16a5 00000000 		.4byte	.LFB83
 13232 16a9 80000000 		.4byte	.LFE83-.LFB83
 13233 16ad 01       		.uleb128 0x1
 13234 16ae 9C       		.byte	0x9c
 13235 16af E1160000 		.4byte	0x16e1
 13236 16b3 26       		.uleb128 0x26
 13237 16b4 44657600 		.ascii	"Dev\000"
 13238 16b8 01       		.byte	0x1
 13239 16b9 0D0A     		.2byte	0xa0d
 13240 16bb 9E0F0000 		.4byte	0xf9e
 13241 16bf 02       		.uleb128 0x2
 13242 16c0 91       		.byte	0x91
 13243 16c1 6C       		.sleb128 -20
 13244 16c2 27       		.uleb128 0x27
 13245 16c3 600F0000 		.4byte	.LASF299
 13246 16c7 01       		.byte	0x1
 13247 16c8 0E0A     		.2byte	0xa0e
 13248 16ca E1160000 		.4byte	0x16e1
 13249 16ce 02       		.uleb128 0x2
 13250 16cf 91       		.byte	0x91
 13251 16d0 68       		.sleb128 -24
 13252 16d1 28       		.uleb128 0x28
 13253 16d2 8D020000 		.4byte	.LASF256
 13254 16d6 01       		.byte	0x1
 13255 16d7 100A     		.2byte	0xa10
 13256 16d9 D3010000 		.4byte	0x1d3
 13257 16dd 02       		.uleb128 0x2
 13258 16de 91       		.byte	0x91
 13259 16df 73       		.sleb128 -13
 13260 16e0 00       		.byte	0
 13261 16e1 0F       		.uleb128 0xf
 13262 16e2 04       		.byte	0x4
 13263 16e3 94030000 		.4byte	0x394
 13264 16e7 25       		.uleb128 0x25
 13265 16e8 3B020000 		.4byte	.LASF300
 13266 16ec 01       		.byte	0x1
 13267 16ed 000A     		.2byte	0xa00
 13268 16ef D3010000 		.4byte	0x1d3
 13269 16f3 00000000 		.4byte	.LFB82
 13270 16f7 34000000 		.4byte	.LFE82-.LFB82
 13271 16fb 01       		.uleb128 0x1
 13272 16fc 9C       		.byte	0x9c
 13273 16fd 2F170000 		.4byte	0x172f
 13274 1701 26       		.uleb128 0x26
 13275 1702 44657600 		.ascii	"Dev\000"
 13276 1706 01       		.byte	0x1
 13277 1707 000A     		.2byte	0xa00
 13278 1709 9E0F0000 		.4byte	0xf9e
 13279 170d 02       		.uleb128 0x2
 13280 170e 91       		.byte	0x91
 13281 170f 6C       		.sleb128 -20
ARM GAS  C:\Users\PCHAUT~1\AppData\Local\Temp\ccZvjaUR.s 			page 234


 13282 1710 27       		.uleb128 0x27
 13283 1711 03130000 		.4byte	.LASF301
 13284 1715 01       		.byte	0x1
 13285 1716 010A     		.2byte	0xa01
 13286 1718 2F170000 		.4byte	0x172f
 13287 171c 02       		.uleb128 0x2
 13288 171d 91       		.byte	0x91
 13289 171e 68       		.sleb128 -24
 13290 171f 28       		.uleb128 0x28
 13291 1720 8D020000 		.4byte	.LASF256
 13292 1724 01       		.byte	0x1
 13293 1725 030A     		.2byte	0xa03
 13294 1727 D3010000 		.4byte	0x1d3
 13295 172b 02       		.uleb128 0x2
 13296 172c 91       		.byte	0x91
 13297 172d 73       		.sleb128 -13
 13298 172e 00       		.byte	0
 13299 172f 0F       		.uleb128 0xf
 13300 1730 04       		.byte	0x4
 13301 1731 08040000 		.4byte	0x408
 13302 1735 25       		.uleb128 0x25
 13303 1736 9E110000 		.4byte	.LASF302
 13304 173a 01       		.byte	0x1
 13305 173b EC09     		.2byte	0x9ec
 13306 173d D3010000 		.4byte	0x1d3
 13307 1741 00000000 		.4byte	.LFB81
 13308 1745 68000000 		.4byte	.LFE81-.LFB81
 13309 1749 01       		.uleb128 0x1
 13310 174a 9C       		.byte	0x9c
 13311 174b 8C170000 		.4byte	0x178c
 13312 174f 26       		.uleb128 0x26
 13313 1750 44657600 		.ascii	"Dev\000"
 13314 1754 01       		.byte	0x1
 13315 1755 EC09     		.2byte	0x9ec
 13316 1757 9E0F0000 		.4byte	0xf9e
 13317 175b 02       		.uleb128 0x2
 13318 175c 91       		.byte	0x91
 13319 175d 6C       		.sleb128 -20
 13320 175e 27       		.uleb128 0x27
 13321 175f BE0E0000 		.4byte	.LASF303
 13322 1763 01       		.byte	0x1
 13323 1764 ED09     		.2byte	0x9ed
 13324 1766 1D140000 		.4byte	0x141d
 13325 176a 02       		.uleb128 0x2
 13326 176b 91       		.byte	0x91
 13327 176c 68       		.sleb128 -24
 13328 176d 28       		.uleb128 0x28
 13329 176e 8D020000 		.4byte	.LASF256
 13330 1772 01       		.byte	0x1
 13331 1773 EF09     		.2byte	0x9ef
 13332 1775 D3010000 		.4byte	0x1d3
 13333 1779 02       		.uleb128 0x2
 13334 177a 91       		.byte	0x91
 13335 177b 73       		.sleb128 -13
 13336 177c 28       		.uleb128 0x28
 13337 177d 63040000 		.4byte	.LASF304
 13338 1781 01       		.byte	0x1
ARM GAS  C:\Users\PCHAUT~1\AppData\Local\Temp\ccZvjaUR.s 			page 235


 13339 1782 F009     		.2byte	0x9f0
 13340 1784 B8000000 		.4byte	0xb8
 13341 1788 02       		.uleb128 0x2
 13342 1789 91       		.byte	0x91
 13343 178a 72       		.sleb128 -14
 13344 178b 00       		.byte	0
 13345 178c 25       		.uleb128 0x25
 13346 178d D90C0000 		.4byte	.LASF305
 13347 1791 01       		.byte	0x1
 13348 1792 5109     		.2byte	0x951
 13349 1794 D3010000 		.4byte	0x1d3
 13350 1798 00000000 		.4byte	.LFB80
 13351 179c 6C020000 		.4byte	.LFE80-.LFB80
 13352 17a0 01       		.uleb128 0x1
 13353 17a1 9C       		.byte	0x9c
 13354 17a2 A4180000 		.4byte	0x18a4
 13355 17a6 26       		.uleb128 0x26
 13356 17a7 44657600 		.ascii	"Dev\000"
 13357 17ab 01       		.byte	0x1
 13358 17ac 5109     		.2byte	0x951
 13359 17ae 9E0F0000 		.4byte	0xf9e
 13360 17b2 03       		.uleb128 0x3
 13361 17b3 91       		.byte	0x91
 13362 17b4 A47F     		.sleb128 -92
 13363 17b6 27       		.uleb128 0x27
 13364 17b7 600F0000 		.4byte	.LASF299
 13365 17bb 01       		.byte	0x1
 13366 17bc 5209     		.2byte	0x952
 13367 17be E1160000 		.4byte	0x16e1
 13368 17c2 03       		.uleb128 0x3
 13369 17c3 91       		.byte	0x91
 13370 17c4 A07F     		.sleb128 -96
 13371 17c6 28       		.uleb128 0x28
 13372 17c7 8D020000 		.4byte	.LASF256
 13373 17cb 01       		.byte	0x1
 13374 17cc 5409     		.2byte	0x954
 13375 17ce D3010000 		.4byte	0x1d3
 13376 17d2 03       		.uleb128 0x3
 13377 17d3 91       		.byte	0x91
 13378 17d4 B07F     		.sleb128 -80
 13379 17d6 28       		.uleb128 0x28
 13380 17d7 3A000000 		.4byte	.LASF306
 13381 17db 01       		.byte	0x1
 13382 17dc 5509     		.2byte	0x955
 13383 17de B8000000 		.4byte	0xb8
 13384 17e2 03       		.uleb128 0x3
 13385 17e3 91       		.byte	0x91
 13386 17e4 B17F     		.sleb128 -79
 13387 17e6 28       		.uleb128 0x28
 13388 17e7 D7200000 		.4byte	.LASF109
 13389 17eb 01       		.byte	0x1
 13390 17ec 5609     		.2byte	0x956
 13391 17ee B8000000 		.4byte	0xb8
 13392 17f2 03       		.uleb128 0x3
 13393 17f3 91       		.byte	0x91
 13394 17f4 B27F     		.sleb128 -78
 13395 17f6 28       		.uleb128 0x28
ARM GAS  C:\Users\PCHAUT~1\AppData\Local\Temp\ccZvjaUR.s 			page 236


 13396 17f7 960C0000 		.4byte	.LASF307
 13397 17fb 01       		.byte	0x1
 13398 17fc 5709     		.2byte	0x957
 13399 17fe B8000000 		.4byte	0xb8
 13400 1802 03       		.uleb128 0x3
 13401 1803 91       		.byte	0x91
 13402 1804 AF7F     		.sleb128 -81
 13403 1806 28       		.uleb128 0x28
 13404 1807 41010000 		.4byte	.LASF46
 13405 180b 01       		.byte	0x1
 13406 180c 5809     		.2byte	0x958
 13407 180e B8000000 		.4byte	0xb8
 13408 1812 03       		.uleb128 0x3
 13409 1813 91       		.byte	0x91
 13410 1814 B37F     		.sleb128 -77
 13411 1816 28       		.uleb128 0x28
 13412 1817 FB160000 		.4byte	.LASF308
 13413 181b 01       		.byte	0x1
 13414 181c 5909     		.2byte	0x959
 13415 181e CE000000 		.4byte	0xce
 13416 1822 03       		.uleb128 0x3
 13417 1823 91       		.byte	0x91
 13418 1824 B87F     		.sleb128 -72
 13419 1826 28       		.uleb128 0x28
 13420 1827 D20B0000 		.4byte	.LASF309
 13421 182b 01       		.byte	0x1
 13422 182c 5A09     		.2byte	0x95a
 13423 182e F6000000 		.4byte	0xf6
 13424 1832 02       		.uleb128 0x2
 13425 1833 91       		.byte	0x91
 13426 1834 40       		.sleb128 -64
 13427 1835 28       		.uleb128 0x28
 13428 1836 EB140000 		.4byte	.LASF48
 13429 183a 01       		.byte	0x1
 13430 183b 5B09     		.2byte	0x95b
 13431 183d CE000000 		.4byte	0xce
 13432 1841 03       		.uleb128 0x3
 13433 1842 91       		.byte	0x91
 13434 1843 BE7F     		.sleb128 -66
 13435 1845 28       		.uleb128 0x28
 13436 1846 AF0A0000 		.4byte	.LASF65
 13437 184a 01       		.byte	0x1
 13438 184b 5C09     		.2byte	0x95c
 13439 184d CE000000 		.4byte	0xce
 13440 1851 03       		.uleb128 0x3
 13441 1852 91       		.byte	0x91
 13442 1853 BA7F     		.sleb128 -70
 13443 1855 28       		.uleb128 0x28
 13444 1856 930B0000 		.4byte	.LASF310
 13445 185a 01       		.byte	0x1
 13446 185b 5D09     		.2byte	0x95d
 13447 185d CE000000 		.4byte	0xce
 13448 1861 03       		.uleb128 0x3
 13449 1862 91       		.byte	0x91
 13450 1863 B47F     		.sleb128 -76
 13451 1865 28       		.uleb128 0x28
 13452 1866 87050000 		.4byte	.LASF311
ARM GAS  C:\Users\PCHAUT~1\AppData\Local\Temp\ccZvjaUR.s 			page 237


 13453 186a 01       		.byte	0x1
 13454 186b 5E09     		.2byte	0x95e
 13455 186d CE000000 		.4byte	0xce
 13456 1871 03       		.uleb128 0x3
 13457 1872 91       		.byte	0x91
 13458 1873 B67F     		.sleb128 -74
 13459 1875 28       		.uleb128 0x28
 13460 1876 7B0A0000 		.4byte	.LASF119
 13461 187a 01       		.byte	0x1
 13462 187b 5F09     		.2byte	0x95f
 13463 187d CE000000 		.4byte	0xce
 13464 1881 03       		.uleb128 0x3
 13465 1882 91       		.byte	0x91
 13466 1883 BC7F     		.sleb128 -68
 13467 1885 28       		.uleb128 0x28
 13468 1886 DA110000 		.4byte	.LASF312
 13469 188a 01       		.byte	0x1
 13470 188b 6009     		.2byte	0x960
 13471 188d A4180000 		.4byte	0x18a4
 13472 1891 02       		.uleb128 0x2
 13473 1892 91       		.byte	0x91
 13474 1893 60       		.sleb128 -32
 13475 1894 28       		.uleb128 0x28
 13476 1895 90180000 		.4byte	.LASF313
 13477 1899 01       		.byte	0x1
 13478 189a 6109     		.2byte	0x961
 13479 189c 94030000 		.4byte	0x394
 13480 18a0 02       		.uleb128 0x2
 13481 18a1 91       		.byte	0x91
 13482 18a2 44       		.sleb128 -60
 13483 18a3 00       		.byte	0
 13484 18a4 07       		.uleb128 0x7
 13485 18a5 B8000000 		.4byte	0xb8
 13486 18a9 B4180000 		.4byte	0x18b4
 13487 18ad 08       		.uleb128 0x8
 13488 18ae A6000000 		.4byte	0xa6
 13489 18b2 0B       		.byte	0xb
 13490 18b3 00       		.byte	0
 13491 18b4 25       		.uleb128 0x25
 13492 18b5 0E200000 		.4byte	.LASF314
 13493 18b9 01       		.byte	0x1
 13494 18ba 4209     		.2byte	0x942
 13495 18bc D3010000 		.4byte	0x1d3
 13496 18c0 00000000 		.4byte	.LFB79
 13497 18c4 34000000 		.4byte	.LFE79-.LFB79
 13498 18c8 01       		.uleb128 0x1
 13499 18c9 9C       		.byte	0x9c
 13500 18ca FC180000 		.4byte	0x18fc
 13501 18ce 26       		.uleb128 0x26
 13502 18cf 44657600 		.ascii	"Dev\000"
 13503 18d3 01       		.byte	0x1
 13504 18d4 4209     		.2byte	0x942
 13505 18d6 9E0F0000 		.4byte	0xf9e
 13506 18da 02       		.uleb128 0x2
 13507 18db 91       		.byte	0x91
 13508 18dc 6C       		.sleb128 -20
 13509 18dd 27       		.uleb128 0x27
ARM GAS  C:\Users\PCHAUT~1\AppData\Local\Temp\ccZvjaUR.s 			page 238


 13510 18de 77140000 		.4byte	.LASF315
 13511 18e2 01       		.byte	0x1
 13512 18e3 4309     		.2byte	0x943
 13513 18e5 E4000000 		.4byte	0xe4
 13514 18e9 02       		.uleb128 0x2
 13515 18ea 91       		.byte	0x91
 13516 18eb 68       		.sleb128 -24
 13517 18ec 28       		.uleb128 0x28
 13518 18ed 8D020000 		.4byte	.LASF256
 13519 18f1 01       		.byte	0x1
 13520 18f2 4509     		.2byte	0x945
 13521 18f4 D3010000 		.4byte	0x1d3
 13522 18f8 02       		.uleb128 0x2
 13523 18f9 91       		.byte	0x91
 13524 18fa 73       		.sleb128 -13
 13525 18fb 00       		.byte	0
 13526 18fc 25       		.uleb128 0x25
 13527 18fd F8200000 		.4byte	.LASF316
 13528 1901 01       		.byte	0x1
 13529 1902 1F09     		.2byte	0x91f
 13530 1904 D3010000 		.4byte	0x1d3
 13531 1908 00000000 		.4byte	.LFB78
 13532 190c A0000000 		.4byte	.LFE78-.LFB78
 13533 1910 01       		.uleb128 0x1
 13534 1911 9C       		.byte	0x9c
 13535 1912 71190000 		.4byte	0x1971
 13536 1916 26       		.uleb128 0x26
 13537 1917 44657600 		.ascii	"Dev\000"
 13538 191b 01       		.byte	0x1
 13539 191c 1F09     		.2byte	0x91f
 13540 191e 9E0F0000 		.4byte	0xf9e
 13541 1922 02       		.uleb128 0x2
 13542 1923 91       		.byte	0x91
 13543 1924 64       		.sleb128 -28
 13544 1925 27       		.uleb128 0x27
 13545 1926 1E050000 		.4byte	.LASF317
 13546 192a 01       		.byte	0x1
 13547 192b 2009     		.2byte	0x920
 13548 192d C0060000 		.4byte	0x6c0
 13549 1931 02       		.uleb128 0x2
 13550 1932 91       		.byte	0x91
 13551 1933 60       		.sleb128 -32
 13552 1934 28       		.uleb128 0x28
 13553 1935 8D020000 		.4byte	.LASF256
 13554 1939 01       		.byte	0x1
 13555 193a 2209     		.2byte	0x922
 13556 193c D3010000 		.4byte	0x1d3
 13557 1940 02       		.uleb128 0x2
 13558 1941 91       		.byte	0x91
 13559 1942 6E       		.sleb128 -18
 13560 1943 28       		.uleb128 0x28
 13561 1944 94120000 		.4byte	.LASF318
 13562 1948 01       		.byte	0x1
 13563 1949 2309     		.2byte	0x923
 13564 194b B8000000 		.4byte	0xb8
 13565 194f 02       		.uleb128 0x2
 13566 1950 91       		.byte	0x91
ARM GAS  C:\Users\PCHAUT~1\AppData\Local\Temp\ccZvjaUR.s 			page 239


 13567 1951 6D       		.sleb128 -19
 13568 1952 28       		.uleb128 0x28
 13569 1953 0D0C0000 		.4byte	.LASF319
 13570 1957 01       		.byte	0x1
 13571 1958 2409     		.2byte	0x924
 13572 195a B8000000 		.4byte	0xb8
 13573 195e 02       		.uleb128 0x2
 13574 195f 91       		.byte	0x91
 13575 1960 6F       		.sleb128 -17
 13576 1961 28       		.uleb128 0x28
 13577 1962 DE1E0000 		.4byte	.LASF269
 13578 1966 01       		.byte	0x1
 13579 1967 2509     		.2byte	0x925
 13580 1969 E4000000 		.4byte	0xe4
 13581 196d 02       		.uleb128 0x2
 13582 196e 91       		.byte	0x91
 13583 196f 70       		.sleb128 -16
 13584 1970 00       		.byte	0
 13585 1971 25       		.uleb128 0x25
 13586 1972 2D140000 		.4byte	.LASF320
 13587 1976 01       		.byte	0x1
 13588 1977 0409     		.2byte	0x904
 13589 1979 D3010000 		.4byte	0x1d3
 13590 197d 00000000 		.4byte	.LFB77
 13591 1981 B8000000 		.4byte	.LFE77-.LFB77
 13592 1985 01       		.uleb128 0x1
 13593 1986 9C       		.byte	0x9c
 13594 1987 AA190000 		.4byte	0x19aa
 13595 198b 26       		.uleb128 0x26
 13596 198c 44657600 		.ascii	"Dev\000"
 13597 1990 01       		.byte	0x1
 13598 1991 0409     		.2byte	0x904
 13599 1993 9E0F0000 		.4byte	0xf9e
 13600 1997 02       		.uleb128 0x2
 13601 1998 91       		.byte	0x91
 13602 1999 6C       		.sleb128 -20
 13603 199a 28       		.uleb128 0x28
 13604 199b 8D020000 		.4byte	.LASF256
 13605 199f 01       		.byte	0x1
 13606 19a0 0609     		.2byte	0x906
 13607 19a2 D3010000 		.4byte	0x1d3
 13608 19a6 02       		.uleb128 0x2
 13609 19a7 91       		.byte	0x91
 13610 19a8 73       		.sleb128 -13
 13611 19a9 00       		.byte	0
 13612 19aa 25       		.uleb128 0x25
 13613 19ab E2160000 		.4byte	.LASF321
 13614 19af 01       		.byte	0x1
 13615 19b0 B108     		.2byte	0x8b1
 13616 19b2 D3010000 		.4byte	0x1d3
 13617 19b6 00000000 		.4byte	.LFB76
 13618 19ba C0010000 		.4byte	.LFE76-.LFB76
 13619 19be 01       		.uleb128 0x1
 13620 19bf 9C       		.byte	0x9c
 13621 19c0 1F1A0000 		.4byte	0x1a1f
 13622 19c4 26       		.uleb128 0x26
 13623 19c5 44657600 		.ascii	"Dev\000"
ARM GAS  C:\Users\PCHAUT~1\AppData\Local\Temp\ccZvjaUR.s 			page 240


 13624 19c9 01       		.byte	0x1
 13625 19ca B108     		.2byte	0x8b1
 13626 19cc 9E0F0000 		.4byte	0xf9e
 13627 19d0 02       		.uleb128 0x2
 13628 19d1 91       		.byte	0x91
 13629 19d2 64       		.sleb128 -28
 13630 19d3 28       		.uleb128 0x28
 13631 19d4 8D020000 		.4byte	.LASF256
 13632 19d8 01       		.byte	0x1
 13633 19d9 B308     		.2byte	0x8b3
 13634 19db D3010000 		.4byte	0x1d3
 13635 19df 02       		.uleb128 0x2
 13636 19e0 91       		.byte	0x91
 13637 19e1 6E       		.sleb128 -18
 13638 19e2 28       		.uleb128 0x28
 13639 19e3 E0140000 		.4byte	.LASF42
 13640 19e7 01       		.byte	0x1
 13641 19e8 B408     		.2byte	0x8b4
 13642 19ea DE010000 		.4byte	0x1de
 13643 19ee 02       		.uleb128 0x2
 13644 19ef 91       		.byte	0x91
 13645 19f0 6C       		.sleb128 -20
 13646 19f1 28       		.uleb128 0x28
 13647 19f2 DD0B0000 		.4byte	.LASF261
 13648 19f6 01       		.byte	0x1
 13649 19f7 B508     		.2byte	0x8b5
 13650 19f9 B8000000 		.4byte	0xb8
 13651 19fd 02       		.uleb128 0x2
 13652 19fe 91       		.byte	0x91
 13653 19ff 6D       		.sleb128 -19
 13654 1a00 28       		.uleb128 0x28
 13655 1a01 880D0000 		.4byte	.LASF322
 13656 1a05 01       		.byte	0x1
 13657 1a06 B608     		.2byte	0x8b6
 13658 1a08 B8000000 		.4byte	0xb8
 13659 1a0c 02       		.uleb128 0x2
 13660 1a0d 91       		.byte	0x91
 13661 1a0e 6F       		.sleb128 -17
 13662 1a0f 28       		.uleb128 0x28
 13663 1a10 32100000 		.4byte	.LASF323
 13664 1a14 01       		.byte	0x1
 13665 1a15 B708     		.2byte	0x8b7
 13666 1a17 E4000000 		.4byte	0xe4
 13667 1a1b 02       		.uleb128 0x2
 13668 1a1c 91       		.byte	0x91
 13669 1a1d 70       		.sleb128 -16
 13670 1a1e 00       		.byte	0
 13671 1a1f 25       		.uleb128 0x25
 13672 1a20 711D0000 		.4byte	.LASF324
 13673 1a24 01       		.byte	0x1
 13674 1a25 8308     		.2byte	0x883
 13675 1a27 D3010000 		.4byte	0x1d3
 13676 1a2b 00000000 		.4byte	.LFB75
 13677 1a2f 00010000 		.4byte	.LFE75-.LFB75
 13678 1a33 01       		.uleb128 0x1
 13679 1a34 9C       		.byte	0x9c
 13680 1a35 941A0000 		.4byte	0x1a94
ARM GAS  C:\Users\PCHAUT~1\AppData\Local\Temp\ccZvjaUR.s 			page 241


 13681 1a39 26       		.uleb128 0x26
 13682 1a3a 44657600 		.ascii	"Dev\000"
 13683 1a3e 01       		.byte	0x1
 13684 1a3f 8308     		.2byte	0x883
 13685 1a41 9E0F0000 		.4byte	0xf9e
 13686 1a45 02       		.uleb128 0x2
 13687 1a46 91       		.byte	0x91
 13688 1a47 64       		.sleb128 -28
 13689 1a48 27       		.uleb128 0x27
 13690 1a49 AB120000 		.4byte	.LASF325
 13691 1a4d 01       		.byte	0x1
 13692 1a4e 8408     		.2byte	0x884
 13693 1a50 B8000000 		.4byte	0xb8
 13694 1a54 02       		.uleb128 0x2
 13695 1a55 91       		.byte	0x91
 13696 1a56 63       		.sleb128 -29
 13697 1a57 28       		.uleb128 0x28
 13698 1a58 0D0C0000 		.4byte	.LASF319
 13699 1a5c 01       		.byte	0x1
 13700 1a5d 8608     		.2byte	0x886
 13701 1a5f B8000000 		.4byte	0xb8
 13702 1a63 02       		.uleb128 0x2
 13703 1a64 91       		.byte	0x91
 13704 1a65 6B       		.sleb128 -21
 13705 1a66 28       		.uleb128 0x28
 13706 1a67 81040000 		.4byte	.LASF281
 13707 1a6b 01       		.byte	0x1
 13708 1a6c 8708     		.2byte	0x887
 13709 1a6e F6000000 		.4byte	0xf6
 13710 1a72 02       		.uleb128 0x2
 13711 1a73 91       		.byte	0x91
 13712 1a74 6C       		.sleb128 -20
 13713 1a75 28       		.uleb128 0x28
 13714 1a76 941A0000 		.4byte	.LASF282
 13715 1a7a 01       		.byte	0x1
 13716 1a7b 8808     		.2byte	0x888
 13717 1a7d F6000000 		.4byte	0xf6
 13718 1a81 02       		.uleb128 0x2
 13719 1a82 91       		.byte	0x91
 13720 1a83 70       		.sleb128 -16
 13721 1a84 28       		.uleb128 0x28
 13722 1a85 8D020000 		.4byte	.LASF256
 13723 1a89 01       		.byte	0x1
 13724 1a8a 8908     		.2byte	0x889
 13725 1a8c D3010000 		.4byte	0x1d3
 13726 1a90 02       		.uleb128 0x2
 13727 1a91 91       		.byte	0x91
 13728 1a92 6A       		.sleb128 -22
 13729 1a93 00       		.byte	0
 13730 1a94 25       		.uleb128 0x25
 13731 1a95 BC120000 		.4byte	.LASF326
 13732 1a99 01       		.byte	0x1
 13733 1a9a 7608     		.2byte	0x876
 13734 1a9c D3010000 		.4byte	0x1d3
 13735 1aa0 00000000 		.4byte	.LFB74
 13736 1aa4 44000000 		.4byte	.LFE74-.LFB74
 13737 1aa8 01       		.uleb128 0x1
ARM GAS  C:\Users\PCHAUT~1\AppData\Local\Temp\ccZvjaUR.s 			page 242


 13738 1aa9 9C       		.byte	0x9c
 13739 1aaa EB1A0000 		.4byte	0x1aeb
 13740 1aae 26       		.uleb128 0x26
 13741 1aaf 44657600 		.ascii	"Dev\000"
 13742 1ab3 01       		.byte	0x1
 13743 1ab4 7608     		.2byte	0x876
 13744 1ab6 9E0F0000 		.4byte	0xf9e
 13745 1aba 02       		.uleb128 0x2
 13746 1abb 91       		.byte	0x91
 13747 1abc 6C       		.sleb128 -20
 13748 1abd 27       		.uleb128 0x27
 13749 1abe 20040000 		.4byte	.LASF327
 13750 1ac2 01       		.byte	0x1
 13751 1ac3 7708     		.2byte	0x877
 13752 1ac5 F6000000 		.4byte	0xf6
 13753 1ac9 02       		.uleb128 0x2
 13754 1aca 91       		.byte	0x91
 13755 1acb 68       		.sleb128 -24
 13756 1acc 27       		.uleb128 0x27
 13757 1acd AC030000 		.4byte	.LASF328
 13758 1ad1 01       		.byte	0x1
 13759 1ad2 7708     		.2byte	0x877
 13760 1ad4 EB1A0000 		.4byte	0x1aeb
 13761 1ad8 02       		.uleb128 0x2
 13762 1ad9 91       		.byte	0x91
 13763 1ada 64       		.sleb128 -28
 13764 1adb 28       		.uleb128 0x28
 13765 1adc 8D020000 		.4byte	.LASF256
 13766 1ae0 01       		.byte	0x1
 13767 1ae1 7908     		.2byte	0x879
 13768 1ae3 D3010000 		.4byte	0x1d3
 13769 1ae7 02       		.uleb128 0x2
 13770 1ae8 91       		.byte	0x91
 13771 1ae9 73       		.sleb128 -13
 13772 1aea 00       		.byte	0
 13773 1aeb 0F       		.uleb128 0xf
 13774 1aec 04       		.byte	0x4
 13775 1aed D9000000 		.4byte	0xd9
 13776 1af1 25       		.uleb128 0x25
 13777 1af2 230C0000 		.4byte	.LASF329
 13778 1af6 01       		.byte	0x1
 13779 1af7 6808     		.2byte	0x868
 13780 1af9 D3010000 		.4byte	0x1d3
 13781 1afd 00000000 		.4byte	.LFB73
 13782 1b01 44000000 		.4byte	.LFE73-.LFB73
 13783 1b05 01       		.uleb128 0x1
 13784 1b06 9C       		.byte	0x9c
 13785 1b07 481B0000 		.4byte	0x1b48
 13786 1b0b 26       		.uleb128 0x26
 13787 1b0c 44657600 		.ascii	"Dev\000"
 13788 1b10 01       		.byte	0x1
 13789 1b11 6808     		.2byte	0x868
 13790 1b13 9E0F0000 		.4byte	0xf9e
 13791 1b17 02       		.uleb128 0x2
 13792 1b18 91       		.byte	0x91
 13793 1b19 6C       		.sleb128 -20
 13794 1b1a 27       		.uleb128 0x27
ARM GAS  C:\Users\PCHAUT~1\AppData\Local\Temp\ccZvjaUR.s 			page 243


 13795 1b1b 73030000 		.4byte	.LASF330
 13796 1b1f 01       		.byte	0x1
 13797 1b20 6908     		.2byte	0x869
 13798 1b22 F6000000 		.4byte	0xf6
 13799 1b26 02       		.uleb128 0x2
 13800 1b27 91       		.byte	0x91
 13801 1b28 68       		.sleb128 -24
 13802 1b29 27       		.uleb128 0x27
 13803 1b2a 59110000 		.4byte	.LASF331
 13804 1b2e 01       		.byte	0x1
 13805 1b2f 6A08     		.2byte	0x86a
 13806 1b31 1D140000 		.4byte	0x141d
 13807 1b35 02       		.uleb128 0x2
 13808 1b36 91       		.byte	0x91
 13809 1b37 64       		.sleb128 -28
 13810 1b38 28       		.uleb128 0x28
 13811 1b39 8D020000 		.4byte	.LASF256
 13812 1b3d 01       		.byte	0x1
 13813 1b3e 6C08     		.2byte	0x86c
 13814 1b40 D3010000 		.4byte	0x1d3
 13815 1b44 02       		.uleb128 0x2
 13816 1b45 91       		.byte	0x91
 13817 1b46 73       		.sleb128 -13
 13818 1b47 00       		.byte	0
 13819 1b48 25       		.uleb128 0x25
 13820 1b49 1D130000 		.4byte	.LASF332
 13821 1b4d 01       		.byte	0x1
 13822 1b4e 5708     		.2byte	0x857
 13823 1b50 D3010000 		.4byte	0x1d3
 13824 1b54 00000000 		.4byte	.LFB72
 13825 1b58 38000000 		.4byte	.LFE72-.LFB72
 13826 1b5c 01       		.uleb128 0x1
 13827 1b5d 9C       		.byte	0x9c
 13828 1b5e AE1B0000 		.4byte	0x1bae
 13829 1b62 26       		.uleb128 0x26
 13830 1b63 44657600 		.ascii	"Dev\000"
 13831 1b67 01       		.byte	0x1
 13832 1b68 5708     		.2byte	0x857
 13833 1b6a 9E0F0000 		.4byte	0xf9e
 13834 1b6e 02       		.uleb128 0x2
 13835 1b6f 91       		.byte	0x91
 13836 1b70 6C       		.sleb128 -20
 13837 1b71 27       		.uleb128 0x27
 13838 1b72 36040000 		.4byte	.LASF333
 13839 1b76 01       		.byte	0x1
 13840 1b77 5808     		.2byte	0x858
 13841 1b79 E4000000 		.4byte	0xe4
 13842 1b7d 02       		.uleb128 0x2
 13843 1b7e 91       		.byte	0x91
 13844 1b7f 68       		.sleb128 -24
 13845 1b80 27       		.uleb128 0x27
 13846 1b81 BE030000 		.4byte	.LASF334
 13847 1b85 01       		.byte	0x1
 13848 1b86 5808     		.2byte	0x858
 13849 1b88 1D140000 		.4byte	0x141d
 13850 1b8c 02       		.uleb128 0x2
 13851 1b8d 91       		.byte	0x91
ARM GAS  C:\Users\PCHAUT~1\AppData\Local\Temp\ccZvjaUR.s 			page 244


 13852 1b8e 64       		.sleb128 -28
 13853 1b8f 27       		.uleb128 0x27
 13854 1b90 78080000 		.4byte	.LASF335
 13855 1b94 01       		.byte	0x1
 13856 1b95 5908     		.2byte	0x859
 13857 1b97 C0060000 		.4byte	0x6c0
 13858 1b9b 02       		.uleb128 0x2
 13859 1b9c 91       		.byte	0x91
 13860 1b9d 60       		.sleb128 -32
 13861 1b9e 28       		.uleb128 0x28
 13862 1b9f 8D020000 		.4byte	.LASF256
 13863 1ba3 01       		.byte	0x1
 13864 1ba4 5B08     		.2byte	0x85b
 13865 1ba6 D3010000 		.4byte	0x1d3
 13866 1baa 02       		.uleb128 0x2
 13867 1bab 91       		.byte	0x91
 13868 1bac 73       		.sleb128 -13
 13869 1bad 00       		.byte	0
 13870 1bae 25       		.uleb128 0x25
 13871 1baf 371A0000 		.4byte	.LASF336
 13872 1bb3 01       		.byte	0x1
 13873 1bb4 4A08     		.2byte	0x84a
 13874 1bb6 D3010000 		.4byte	0x1d3
 13875 1bba 00000000 		.4byte	.LFB71
 13876 1bbe 48000000 		.4byte	.LFE71-.LFB71
 13877 1bc2 01       		.uleb128 0x1
 13878 1bc3 9C       		.byte	0x9c
 13879 1bc4 051C0000 		.4byte	0x1c05
 13880 1bc8 26       		.uleb128 0x26
 13881 1bc9 44657600 		.ascii	"Dev\000"
 13882 1bcd 01       		.byte	0x1
 13883 1bce 4A08     		.2byte	0x84a
 13884 1bd0 9E0F0000 		.4byte	0xf9e
 13885 1bd4 02       		.uleb128 0x2
 13886 1bd5 91       		.byte	0x91
 13887 1bd6 6C       		.sleb128 -20
 13888 1bd7 27       		.uleb128 0x27
 13889 1bd8 C20D0000 		.4byte	.LASF337
 13890 1bdc 01       		.byte	0x1
 13891 1bdd 4A08     		.2byte	0x84a
 13892 1bdf C0060000 		.4byte	0x6c0
 13893 1be3 02       		.uleb128 0x2
 13894 1be4 91       		.byte	0x91
 13895 1be5 68       		.sleb128 -24
 13896 1be6 27       		.uleb128 0x27
 13897 1be7 3E060000 		.4byte	.LASF338
 13898 1beb 01       		.byte	0x1
 13899 1bec 4B08     		.2byte	0x84b
 13900 1bee C0060000 		.4byte	0x6c0
 13901 1bf2 02       		.uleb128 0x2
 13902 1bf3 91       		.byte	0x91
 13903 1bf4 64       		.sleb128 -28
 13904 1bf5 28       		.uleb128 0x28
 13905 1bf6 8D020000 		.4byte	.LASF256
 13906 1bfa 01       		.byte	0x1
 13907 1bfb 4D08     		.2byte	0x84d
 13908 1bfd D3010000 		.4byte	0x1d3
ARM GAS  C:\Users\PCHAUT~1\AppData\Local\Temp\ccZvjaUR.s 			page 245


 13909 1c01 02       		.uleb128 0x2
 13910 1c02 91       		.byte	0x91
 13911 1c03 73       		.sleb128 -13
 13912 1c04 00       		.byte	0
 13913 1c05 25       		.uleb128 0x25
 13914 1c06 98060000 		.4byte	.LASF339
 13915 1c0a 01       		.byte	0x1
 13916 1c0b 3C08     		.2byte	0x83c
 13917 1c0d D3010000 		.4byte	0x1d3
 13918 1c11 00000000 		.4byte	.LFB70
 13919 1c15 34000000 		.4byte	.LFE70-.LFB70
 13920 1c19 01       		.uleb128 0x1
 13921 1c1a 9C       		.byte	0x9c
 13922 1c1b 4D1C0000 		.4byte	0x1c4d
 13923 1c1f 26       		.uleb128 0x26
 13924 1c20 44657600 		.ascii	"Dev\000"
 13925 1c24 01       		.byte	0x1
 13926 1c25 3C08     		.2byte	0x83c
 13927 1c27 9E0F0000 		.4byte	0xf9e
 13928 1c2b 02       		.uleb128 0x2
 13929 1c2c 91       		.byte	0x91
 13930 1c2d 6C       		.sleb128 -20
 13931 1c2e 27       		.uleb128 0x27
 13932 1c2f 03130000 		.4byte	.LASF301
 13933 1c33 01       		.byte	0x1
 13934 1c34 3D08     		.2byte	0x83d
 13935 1c36 2F170000 		.4byte	0x172f
 13936 1c3a 02       		.uleb128 0x2
 13937 1c3b 91       		.byte	0x91
 13938 1c3c 68       		.sleb128 -24
 13939 1c3d 28       		.uleb128 0x28
 13940 1c3e 8D020000 		.4byte	.LASF256
 13941 1c42 01       		.byte	0x1
 13942 1c43 3F08     		.2byte	0x83f
 13943 1c45 D3010000 		.4byte	0x1d3
 13944 1c49 02       		.uleb128 0x2
 13945 1c4a 91       		.byte	0x91
 13946 1c4b 73       		.sleb128 -13
 13947 1c4c 00       		.byte	0
 13948 1c4d 25       		.uleb128 0x25
 13949 1c4e 4C0E0000 		.4byte	.LASF340
 13950 1c52 01       		.byte	0x1
 13951 1c53 1D08     		.2byte	0x81d
 13952 1c55 D3010000 		.4byte	0x1d3
 13953 1c59 00000000 		.4byte	.LFB69
 13954 1c5d 8C000000 		.4byte	.LFE69-.LFB69
 13955 1c61 01       		.uleb128 0x1
 13956 1c62 9C       		.byte	0x9c
 13957 1c63 951C0000 		.4byte	0x1c95
 13958 1c67 26       		.uleb128 0x26
 13959 1c68 44657600 		.ascii	"Dev\000"
 13960 1c6c 01       		.byte	0x1
 13961 1c6d 1D08     		.2byte	0x81d
 13962 1c6f 9E0F0000 		.4byte	0xf9e
 13963 1c73 02       		.uleb128 0x2
 13964 1c74 91       		.byte	0x91
 13965 1c75 6C       		.sleb128 -20
ARM GAS  C:\Users\PCHAUT~1\AppData\Local\Temp\ccZvjaUR.s 			page 246


 13966 1c76 28       		.uleb128 0x28
 13967 1c77 8D020000 		.4byte	.LASF256
 13968 1c7b 01       		.byte	0x1
 13969 1c7c 1F08     		.2byte	0x81f
 13970 1c7e D3010000 		.4byte	0x1d3
 13971 1c82 02       		.uleb128 0x2
 13972 1c83 91       		.byte	0x91
 13973 1c84 73       		.sleb128 -13
 13974 1c85 28       		.uleb128 0x28
 13975 1c86 E0140000 		.4byte	.LASF42
 13976 1c8a 01       		.byte	0x1
 13977 1c8b 2008     		.2byte	0x820
 13978 1c8d DE010000 		.4byte	0x1de
 13979 1c91 02       		.uleb128 0x2
 13980 1c92 91       		.byte	0x91
 13981 1c93 72       		.sleb128 -14
 13982 1c94 00       		.byte	0
 13983 1c95 25       		.uleb128 0x25
 13984 1c96 AF1F0000 		.4byte	.LASF341
 13985 1c9a 01       		.byte	0x1
 13986 1c9b 0B08     		.2byte	0x80b
 13987 1c9d D3010000 		.4byte	0x1d3
 13988 1ca1 00000000 		.4byte	.LFB68
 13989 1ca5 48000000 		.4byte	.LFE68-.LFB68
 13990 1ca9 01       		.uleb128 0x1
 13991 1caa 9C       		.byte	0x9c
 13992 1cab EC1C0000 		.4byte	0x1cec
 13993 1caf 26       		.uleb128 0x26
 13994 1cb0 44657600 		.ascii	"Dev\000"
 13995 1cb4 01       		.byte	0x1
 13996 1cb5 0B08     		.2byte	0x80b
 13997 1cb7 9E0F0000 		.4byte	0xf9e
 13998 1cbb 02       		.uleb128 0x2
 13999 1cbc 91       		.byte	0x91
 14000 1cbd 6C       		.sleb128 -20
 14001 1cbe 27       		.uleb128 0x27
 14002 1cbf 5D190000 		.4byte	.LASF342
 14003 1cc3 01       		.byte	0x1
 14004 1cc4 0C08     		.2byte	0x80c
 14005 1cc6 5F110000 		.4byte	0x115f
 14006 1cca 02       		.uleb128 0x2
 14007 1ccb 91       		.byte	0x91
 14008 1ccc 68       		.sleb128 -24
 14009 1ccd 27       		.uleb128 0x27
 14010 1cce CD000000 		.4byte	.LASF343
 14011 1cd2 01       		.byte	0x1
 14012 1cd3 0C08     		.2byte	0x80c
 14013 1cd5 1D140000 		.4byte	0x141d
 14014 1cd9 02       		.uleb128 0x2
 14015 1cda 91       		.byte	0x91
 14016 1cdb 64       		.sleb128 -28
 14017 1cdc 28       		.uleb128 0x28
 14018 1cdd 8D020000 		.4byte	.LASF256
 14019 1ce1 01       		.byte	0x1
 14020 1ce2 0E08     		.2byte	0x80e
 14021 1ce4 D3010000 		.4byte	0x1d3
 14022 1ce8 02       		.uleb128 0x2
ARM GAS  C:\Users\PCHAUT~1\AppData\Local\Temp\ccZvjaUR.s 			page 247


 14023 1ce9 91       		.byte	0x91
 14024 1cea 73       		.sleb128 -13
 14025 1ceb 00       		.byte	0
 14026 1cec 25       		.uleb128 0x25
 14027 1ced EC1E0000 		.4byte	.LASF344
 14028 1cf1 01       		.byte	0x1
 14029 1cf2 E907     		.2byte	0x7e9
 14030 1cf4 D3010000 		.4byte	0x1d3
 14031 1cf8 00000000 		.4byte	.LFB67
 14032 1cfc 80000000 		.4byte	.LFE67-.LFB67
 14033 1d00 01       		.uleb128 0x1
 14034 1d01 9C       		.byte	0x9c
 14035 1d02 521D0000 		.4byte	0x1d52
 14036 1d06 26       		.uleb128 0x26
 14037 1d07 44657600 		.ascii	"Dev\000"
 14038 1d0b 01       		.byte	0x1
 14039 1d0c E907     		.2byte	0x7e9
 14040 1d0e 9E0F0000 		.4byte	0xf9e
 14041 1d12 02       		.uleb128 0x2
 14042 1d13 91       		.byte	0x91
 14043 1d14 64       		.sleb128 -28
 14044 1d15 27       		.uleb128 0x27
 14045 1d16 18210000 		.4byte	.LASF61
 14046 1d1a 01       		.byte	0x1
 14047 1d1b EA07     		.2byte	0x7ea
 14048 1d1d CE000000 		.4byte	0xce
 14049 1d21 02       		.uleb128 0x2
 14050 1d22 91       		.byte	0x91
 14051 1d23 62       		.sleb128 -30
 14052 1d24 27       		.uleb128 0x27
 14053 1d25 5E000000 		.4byte	.LASF63
 14054 1d29 01       		.byte	0x1
 14055 1d2a EA07     		.2byte	0x7ea
 14056 1d2c F6000000 		.4byte	0xf6
 14057 1d30 02       		.uleb128 0x2
 14058 1d31 91       		.byte	0x91
 14059 1d32 5C       		.sleb128 -36
 14060 1d33 28       		.uleb128 0x28
 14061 1d34 8D020000 		.4byte	.LASF256
 14062 1d38 01       		.byte	0x1
 14063 1d39 EC07     		.2byte	0x7ec
 14064 1d3b D3010000 		.4byte	0x1d3
 14065 1d3f 02       		.uleb128 0x2
 14066 1d40 91       		.byte	0x91
 14067 1d41 6F       		.sleb128 -17
 14068 1d42 28       		.uleb128 0x28
 14069 1d43 7B130000 		.4byte	.LASF345
 14070 1d47 01       		.byte	0x1
 14071 1d48 ED07     		.2byte	0x7ed
 14072 1d4a F6000000 		.4byte	0xf6
 14073 1d4e 02       		.uleb128 0x2
 14074 1d4f 91       		.byte	0x91
 14075 1d50 70       		.sleb128 -16
 14076 1d51 00       		.byte	0
 14077 1d52 25       		.uleb128 0x25
 14078 1d53 8B030000 		.4byte	.LASF346
 14079 1d57 01       		.byte	0x1
ARM GAS  C:\Users\PCHAUT~1\AppData\Local\Temp\ccZvjaUR.s 			page 248


 14080 1d58 D007     		.2byte	0x7d0
 14081 1d5a D3010000 		.4byte	0x1d3
 14082 1d5e 00000000 		.4byte	.LFB66
 14083 1d62 84000000 		.4byte	.LFE66-.LFB66
 14084 1d66 01       		.uleb128 0x1
 14085 1d67 9C       		.byte	0x9c
 14086 1d68 A91D0000 		.4byte	0x1da9
 14087 1d6c 26       		.uleb128 0x26
 14088 1d6d 44657600 		.ascii	"Dev\000"
 14089 1d71 01       		.byte	0x1
 14090 1d72 D007     		.2byte	0x7d0
 14091 1d74 9E0F0000 		.4byte	0xf9e
 14092 1d78 02       		.uleb128 0x2
 14093 1d79 91       		.byte	0x91
 14094 1d7a 6C       		.sleb128 -20
 14095 1d7b 27       		.uleb128 0x27
 14096 1d7c 85160000 		.4byte	.LASF347
 14097 1d80 01       		.byte	0x1
 14098 1d81 D107     		.2byte	0x7d1
 14099 1d83 C0060000 		.4byte	0x6c0
 14100 1d87 02       		.uleb128 0x2
 14101 1d88 91       		.byte	0x91
 14102 1d89 68       		.sleb128 -24
 14103 1d8a 28       		.uleb128 0x28
 14104 1d8b 8D020000 		.4byte	.LASF256
 14105 1d8f 01       		.byte	0x1
 14106 1d90 D307     		.2byte	0x7d3
 14107 1d92 D3010000 		.4byte	0x1d3
 14108 1d96 02       		.uleb128 0x2
 14109 1d97 91       		.byte	0x91
 14110 1d98 73       		.sleb128 -13
 14111 1d99 28       		.uleb128 0x28
 14112 1d9a C2140000 		.4byte	.LASF288
 14113 1d9e 01       		.byte	0x1
 14114 1d9f D407     		.2byte	0x7d4
 14115 1da1 B8000000 		.4byte	0xb8
 14116 1da5 02       		.uleb128 0x2
 14117 1da6 91       		.byte	0x91
 14118 1da7 72       		.sleb128 -14
 14119 1da8 00       		.byte	0
 14120 1da9 25       		.uleb128 0x25
 14121 1daa 671F0000 		.4byte	.LASF348
 14122 1dae 01       		.byte	0x1
 14123 1daf B007     		.2byte	0x7b0
 14124 1db1 D3010000 		.4byte	0x1d3
 14125 1db5 00000000 		.4byte	.LFB65
 14126 1db9 AC000000 		.4byte	.LFE65-.LFB65
 14127 1dbd 01       		.uleb128 0x1
 14128 1dbe 9C       		.byte	0x9c
 14129 1dbf 0F1E0000 		.4byte	0x1e0f
 14130 1dc3 26       		.uleb128 0x26
 14131 1dc4 44657600 		.ascii	"Dev\000"
 14132 1dc8 01       		.byte	0x1
 14133 1dc9 B007     		.2byte	0x7b0
 14134 1dcb 9E0F0000 		.4byte	0xf9e
 14135 1dcf 02       		.uleb128 0x2
 14136 1dd0 91       		.byte	0x91
ARM GAS  C:\Users\PCHAUT~1\AppData\Local\Temp\ccZvjaUR.s 			page 249


 14137 1dd1 6C       		.sleb128 -20
 14138 1dd2 27       		.uleb128 0x27
 14139 1dd3 E8040000 		.4byte	.LASF53
 14140 1dd7 01       		.byte	0x1
 14141 1dd8 B107     		.2byte	0x7b1
 14142 1dda B8000000 		.4byte	0xb8
 14143 1dde 02       		.uleb128 0x2
 14144 1ddf 91       		.byte	0x91
 14145 1de0 6B       		.sleb128 -21
 14146 1de1 28       		.uleb128 0x28
 14147 1de2 8D020000 		.4byte	.LASF256
 14148 1de6 01       		.byte	0x1
 14149 1de7 B307     		.2byte	0x7b3
 14150 1de9 D3010000 		.4byte	0x1d3
 14151 1ded 02       		.uleb128 0x2
 14152 1dee 91       		.byte	0x91
 14153 1def 73       		.sleb128 -13
 14154 1df0 28       		.uleb128 0x28
 14155 1df1 DD0B0000 		.4byte	.LASF261
 14156 1df5 01       		.byte	0x1
 14157 1df6 B407     		.2byte	0x7b4
 14158 1df8 B8000000 		.4byte	0xb8
 14159 1dfc 02       		.uleb128 0x2
 14160 1dfd 91       		.byte	0x91
 14161 1dfe 71       		.sleb128 -15
 14162 1dff 28       		.uleb128 0x28
 14163 1e00 16020000 		.4byte	.LASF349
 14164 1e04 01       		.byte	0x1
 14165 1e05 B507     		.2byte	0x7b5
 14166 1e07 B8000000 		.4byte	0xb8
 14167 1e0b 02       		.uleb128 0x2
 14168 1e0c 91       		.byte	0x91
 14169 1e0d 72       		.sleb128 -14
 14170 1e0e 00       		.byte	0
 14171 1e0f 25       		.uleb128 0x25
 14172 1e10 B1160000 		.4byte	.LASF350
 14173 1e14 01       		.byte	0x1
 14174 1e15 6607     		.2byte	0x766
 14175 1e17 D3010000 		.4byte	0x1d3
 14176 1e1b 00000000 		.4byte	.LFB64
 14177 1e1f FC000000 		.4byte	.LFE64-.LFB64
 14178 1e23 01       		.uleb128 0x1
 14179 1e24 9C       		.byte	0x9c
 14180 1e25 761E0000 		.4byte	0x1e76
 14181 1e29 26       		.uleb128 0x26
 14182 1e2a 44657600 		.ascii	"Dev\000"
 14183 1e2e 01       		.byte	0x1
 14184 1e2f 6607     		.2byte	0x766
 14185 1e31 9E0F0000 		.4byte	0xf9e
 14186 1e35 02       		.uleb128 0x2
 14187 1e36 91       		.byte	0x91
 14188 1e37 44       		.sleb128 -60
 14189 1e38 27       		.uleb128 0x27
 14190 1e39 5A090000 		.4byte	.LASF351
 14191 1e3d 01       		.byte	0x1
 14192 1e3e 6607     		.2byte	0x766
 14193 1e40 CE000000 		.4byte	0xce
ARM GAS  C:\Users\PCHAUT~1\AppData\Local\Temp\ccZvjaUR.s 			page 250


 14194 1e44 02       		.uleb128 0x2
 14195 1e45 91       		.byte	0x91
 14196 1e46 42       		.sleb128 -62
 14197 1e47 27       		.uleb128 0x27
 14198 1e48 AC090000 		.4byte	.LASF352
 14199 1e4c 01       		.byte	0x1
 14200 1e4d 6707     		.2byte	0x767
 14201 1e4f 1D140000 		.4byte	0x141d
 14202 1e53 03       		.uleb128 0x3
 14203 1e54 91       		.byte	0x91
 14204 1e55 BC7F     		.sleb128 -68
 14205 1e57 28       		.uleb128 0x28
 14206 1e58 8D020000 		.4byte	.LASF256
 14207 1e5c 01       		.byte	0x1
 14208 1e5d 6907     		.2byte	0x769
 14209 1e5f D3010000 		.4byte	0x1d3
 14210 1e63 02       		.uleb128 0x2
 14211 1e64 91       		.byte	0x91
 14212 1e65 4F       		.sleb128 -49
 14213 1e66 28       		.uleb128 0x28
 14214 1e67 90180000 		.4byte	.LASF313
 14215 1e6b 01       		.byte	0x1
 14216 1e6c 6A07     		.2byte	0x76a
 14217 1e6e 94030000 		.4byte	0x394
 14218 1e72 02       		.uleb128 0x2
 14219 1e73 91       		.byte	0x91
 14220 1e74 50       		.sleb128 -48
 14221 1e75 00       		.byte	0
 14222 1e76 25       		.uleb128 0x25
 14223 1e77 59150000 		.4byte	.LASF353
 14224 1e7b 01       		.byte	0x1
 14225 1e7c 0B07     		.2byte	0x70b
 14226 1e7e D3010000 		.4byte	0x1d3
 14227 1e82 00000000 		.4byte	.LFB63
 14228 1e86 58010000 		.4byte	.LFE63-.LFB63
 14229 1e8a 01       		.uleb128 0x1
 14230 1e8b 9C       		.byte	0x9c
 14231 1e8c FA1E0000 		.4byte	0x1efa
 14232 1e90 26       		.uleb128 0x26
 14233 1e91 44657600 		.ascii	"Dev\000"
 14234 1e95 01       		.byte	0x1
 14235 1e96 0B07     		.2byte	0x70b
 14236 1e98 9E0F0000 		.4byte	0xf9e
 14237 1e9c 02       		.uleb128 0x2
 14238 1e9d 91       		.byte	0x91
 14239 1e9e 64       		.sleb128 -28
 14240 1e9f 27       		.uleb128 0x27
 14241 1ea0 5A090000 		.4byte	.LASF351
 14242 1ea4 01       		.byte	0x1
 14243 1ea5 0B07     		.2byte	0x70b
 14244 1ea7 CE000000 		.4byte	0xce
 14245 1eab 02       		.uleb128 0x2
 14246 1eac 91       		.byte	0x91
 14247 1ead 62       		.sleb128 -30
 14248 1eae 27       		.uleb128 0x27
 14249 1eaf 971D0000 		.4byte	.LASF354
 14250 1eb3 01       		.byte	0x1
ARM GAS  C:\Users\PCHAUT~1\AppData\Local\Temp\ccZvjaUR.s 			page 251


 14251 1eb4 0C07     		.2byte	0x70c
 14252 1eb6 1D140000 		.4byte	0x141d
 14253 1eba 02       		.uleb128 0x2
 14254 1ebb 91       		.byte	0x91
 14255 1ebc 5C       		.sleb128 -36
 14256 1ebd 28       		.uleb128 0x28
 14257 1ebe 8D020000 		.4byte	.LASF256
 14258 1ec2 01       		.byte	0x1
 14259 1ec3 0E07     		.2byte	0x70e
 14260 1ec5 D3010000 		.4byte	0x1d3
 14261 1ec9 02       		.uleb128 0x2
 14262 1eca 91       		.byte	0x91
 14263 1ecb 6C       		.sleb128 -20
 14264 1ecc 28       		.uleb128 0x28
 14265 1ecd 6B0A0000 		.4byte	.LASF355
 14266 1ed1 01       		.byte	0x1
 14267 1ed2 0F07     		.2byte	0x70f
 14268 1ed4 B8000000 		.4byte	0xb8
 14269 1ed8 02       		.uleb128 0x2
 14270 1ed9 91       		.byte	0x91
 14271 1eda 6D       		.sleb128 -19
 14272 1edb 28       		.uleb128 0x28
 14273 1edc 301A0000 		.4byte	.LASF356
 14274 1ee0 01       		.byte	0x1
 14275 1ee1 1007     		.2byte	0x710
 14276 1ee3 CE000000 		.4byte	0xce
 14277 1ee7 02       		.uleb128 0x2
 14278 1ee8 91       		.byte	0x91
 14279 1ee9 6E       		.sleb128 -18
 14280 1eea 28       		.uleb128 0x28
 14281 1eeb 82090000 		.4byte	.LASF357
 14282 1eef 01       		.byte	0x1
 14283 1ef0 1107     		.2byte	0x711
 14284 1ef2 F6000000 		.4byte	0xf6
 14285 1ef6 02       		.uleb128 0x2
 14286 1ef7 91       		.byte	0x91
 14287 1ef8 70       		.sleb128 -16
 14288 1ef9 00       		.byte	0
 14289 1efa 25       		.uleb128 0x25
 14290 1efb 500A0000 		.4byte	.LASF358
 14291 1eff 01       		.byte	0x1
 14292 1f00 BE06     		.2byte	0x6be
 14293 1f02 D3010000 		.4byte	0x1d3
 14294 1f06 00000000 		.4byte	.LFB62
 14295 1f0a F0000000 		.4byte	.LFE62-.LFB62
 14296 1f0e 01       		.uleb128 0x1
 14297 1f0f 9C       		.byte	0x9c
 14298 1f10 601F0000 		.4byte	0x1f60
 14299 1f14 26       		.uleb128 0x26
 14300 1f15 44657600 		.ascii	"Dev\000"
 14301 1f19 01       		.byte	0x1
 14302 1f1a BE06     		.2byte	0x6be
 14303 1f1c 9E0F0000 		.4byte	0xf9e
 14304 1f20 02       		.uleb128 0x2
 14305 1f21 91       		.byte	0x91
 14306 1f22 6C       		.sleb128 -20
 14307 1f23 27       		.uleb128 0x27
ARM GAS  C:\Users\PCHAUT~1\AppData\Local\Temp\ccZvjaUR.s 			page 252


 14308 1f24 5A090000 		.4byte	.LASF351
 14309 1f28 01       		.byte	0x1
 14310 1f29 BE06     		.2byte	0x6be
 14311 1f2b CE000000 		.4byte	0xce
 14312 1f2f 02       		.uleb128 0x2
 14313 1f30 91       		.byte	0x91
 14314 1f31 6A       		.sleb128 -22
 14315 1f32 27       		.uleb128 0x27
 14316 1f33 46050000 		.4byte	.LASF359
 14317 1f37 01       		.byte	0x1
 14318 1f38 BF06     		.2byte	0x6bf
 14319 1f3a F6000000 		.4byte	0xf6
 14320 1f3e 02       		.uleb128 0x2
 14321 1f3f 91       		.byte	0x91
 14322 1f40 64       		.sleb128 -28
 14323 1f41 28       		.uleb128 0x28
 14324 1f42 8D020000 		.4byte	.LASF256
 14325 1f46 01       		.byte	0x1
 14326 1f47 C106     		.2byte	0x6c1
 14327 1f49 D3010000 		.4byte	0x1d3
 14328 1f4d 02       		.uleb128 0x2
 14329 1f4e 91       		.byte	0x91
 14330 1f4f 72       		.sleb128 -14
 14331 1f50 28       		.uleb128 0x28
 14332 1f51 5A070000 		.4byte	.LASF360
 14333 1f55 01       		.byte	0x1
 14334 1f56 C206     		.2byte	0x6c2
 14335 1f58 B8000000 		.4byte	0xb8
 14336 1f5c 02       		.uleb128 0x2
 14337 1f5d 91       		.byte	0x91
 14338 1f5e 73       		.sleb128 -13
 14339 1f5f 00       		.byte	0
 14340 1f60 25       		.uleb128 0x25
 14341 1f61 A7210000 		.4byte	.LASF361
 14342 1f65 01       		.byte	0x1
 14343 1f66 A906     		.2byte	0x6a9
 14344 1f68 D3010000 		.4byte	0x1d3
 14345 1f6c 00000000 		.4byte	.LFB61
 14346 1f70 68000000 		.4byte	.LFE61-.LFB61
 14347 1f74 01       		.uleb128 0x1
 14348 1f75 9C       		.byte	0x9c
 14349 1f76 C61F0000 		.4byte	0x1fc6
 14350 1f7a 26       		.uleb128 0x26
 14351 1f7b 44657600 		.ascii	"Dev\000"
 14352 1f7f 01       		.byte	0x1
 14353 1f80 A906     		.2byte	0x6a9
 14354 1f82 9E0F0000 		.4byte	0xf9e
 14355 1f86 02       		.uleb128 0x2
 14356 1f87 91       		.byte	0x91
 14357 1f88 6C       		.sleb128 -20
 14358 1f89 27       		.uleb128 0x27
 14359 1f8a 5A090000 		.4byte	.LASF351
 14360 1f8e 01       		.byte	0x1
 14361 1f8f A906     		.2byte	0x6a9
 14362 1f91 CE000000 		.4byte	0xce
 14363 1f95 02       		.uleb128 0x2
 14364 1f96 91       		.byte	0x91
ARM GAS  C:\Users\PCHAUT~1\AppData\Local\Temp\ccZvjaUR.s 			page 253


 14365 1f97 6A       		.sleb128 -22
 14366 1f98 27       		.uleb128 0x27
 14367 1f99 C50A0000 		.4byte	.LASF362
 14368 1f9d 01       		.byte	0x1
 14369 1f9e AA06     		.2byte	0x6aa
 14370 1fa0 C0060000 		.4byte	0x6c0
 14371 1fa4 02       		.uleb128 0x2
 14372 1fa5 91       		.byte	0x91
 14373 1fa6 64       		.sleb128 -28
 14374 1fa7 28       		.uleb128 0x28
 14375 1fa8 8D020000 		.4byte	.LASF256
 14376 1fac 01       		.byte	0x1
 14377 1fad AC06     		.2byte	0x6ac
 14378 1faf D3010000 		.4byte	0x1d3
 14379 1fb3 02       		.uleb128 0x2
 14380 1fb4 91       		.byte	0x91
 14381 1fb5 72       		.sleb128 -14
 14382 1fb6 28       		.uleb128 0x28
 14383 1fb7 5A070000 		.4byte	.LASF360
 14384 1fbb 01       		.byte	0x1
 14385 1fbc AD06     		.2byte	0x6ad
 14386 1fbe B8000000 		.4byte	0xb8
 14387 1fc2 02       		.uleb128 0x2
 14388 1fc3 91       		.byte	0x91
 14389 1fc4 73       		.sleb128 -13
 14390 1fc5 00       		.byte	0
 14391 1fc6 25       		.uleb128 0x25
 14392 1fc7 14080000 		.4byte	.LASF363
 14393 1fcb 01       		.byte	0x1
 14394 1fcc 4206     		.2byte	0x642
 14395 1fce D3010000 		.4byte	0x1d3
 14396 1fd2 00000000 		.4byte	.LFB60
 14397 1fd6 6C010000 		.4byte	.LFE60-.LFB60
 14398 1fda 01       		.uleb128 0x1
 14399 1fdb 9C       		.byte	0x9c
 14400 1fdc 59200000 		.4byte	0x2059
 14401 1fe0 26       		.uleb128 0x26
 14402 1fe1 44657600 		.ascii	"Dev\000"
 14403 1fe5 01       		.byte	0x1
 14404 1fe6 4206     		.2byte	0x642
 14405 1fe8 9E0F0000 		.4byte	0xf9e
 14406 1fec 02       		.uleb128 0x2
 14407 1fed 91       		.byte	0x91
 14408 1fee 64       		.sleb128 -28
 14409 1fef 27       		.uleb128 0x27
 14410 1ff0 5A090000 		.4byte	.LASF351
 14411 1ff4 01       		.byte	0x1
 14412 1ff5 4206     		.2byte	0x642
 14413 1ff7 CE000000 		.4byte	0xce
 14414 1ffb 02       		.uleb128 0x2
 14415 1ffc 91       		.byte	0x91
 14416 1ffd 62       		.sleb128 -30
 14417 1ffe 27       		.uleb128 0x27
 14418 1fff 74150000 		.4byte	.LASF364
 14419 2003 01       		.byte	0x1
 14420 2004 4306     		.2byte	0x643
 14421 2006 B8000000 		.4byte	0xb8
ARM GAS  C:\Users\PCHAUT~1\AppData\Local\Temp\ccZvjaUR.s 			page 254


 14422 200a 02       		.uleb128 0x2
 14423 200b 91       		.byte	0x91
 14424 200c 61       		.sleb128 -31
 14425 200d 28       		.uleb128 0x28
 14426 200e 8D020000 		.4byte	.LASF256
 14427 2012 01       		.byte	0x1
 14428 2013 4506     		.2byte	0x645
 14429 2015 D3010000 		.4byte	0x1d3
 14430 2019 02       		.uleb128 0x2
 14431 201a 91       		.byte	0x91
 14432 201b 6C       		.sleb128 -20
 14433 201c 28       		.uleb128 0x28
 14434 201d 82090000 		.4byte	.LASF357
 14435 2021 01       		.byte	0x1
 14436 2022 4606     		.2byte	0x646
 14437 2024 F6000000 		.4byte	0xf6
 14438 2028 02       		.uleb128 0x2
 14439 2029 91       		.byte	0x91
 14440 202a 70       		.sleb128 -16
 14441 202b 28       		.uleb128 0x28
 14442 202c E5070000 		.4byte	.LASF365
 14443 2030 01       		.byte	0x1
 14444 2031 4706     		.2byte	0x647
 14445 2033 B8000000 		.4byte	0xb8
 14446 2037 02       		.uleb128 0x2
 14447 2038 91       		.byte	0x91
 14448 2039 6D       		.sleb128 -19
 14449 203a 28       		.uleb128 0x28
 14450 203b 281F0000 		.4byte	.LASF366
 14451 203f 01       		.byte	0x1
 14452 2040 4806     		.2byte	0x648
 14453 2042 B8000000 		.4byte	0xb8
 14454 2046 02       		.uleb128 0x2
 14455 2047 91       		.byte	0x91
 14456 2048 6E       		.sleb128 -18
 14457 2049 28       		.uleb128 0x28
 14458 204a 5A070000 		.4byte	.LASF360
 14459 204e 01       		.byte	0x1
 14460 204f 4906     		.2byte	0x649
 14461 2051 B8000000 		.4byte	0xb8
 14462 2055 02       		.uleb128 0x2
 14463 2056 91       		.byte	0x91
 14464 2057 6F       		.sleb128 -17
 14465 2058 00       		.byte	0
 14466 2059 25       		.uleb128 0x25
 14467 205a 04040000 		.4byte	.LASF367
 14468 205e 01       		.byte	0x1
 14469 205f 2B06     		.2byte	0x62b
 14470 2061 D3010000 		.4byte	0x1d3
 14471 2065 00000000 		.4byte	.LFB59
 14472 2069 60000000 		.4byte	.LFE59-.LFB59
 14473 206d 01       		.uleb128 0x1
 14474 206e 9C       		.byte	0x9c
 14475 206f BF200000 		.4byte	0x20bf
 14476 2073 26       		.uleb128 0x26
 14477 2074 44657600 		.ascii	"Dev\000"
 14478 2078 01       		.byte	0x1
ARM GAS  C:\Users\PCHAUT~1\AppData\Local\Temp\ccZvjaUR.s 			page 255


 14479 2079 2B06     		.2byte	0x62b
 14480 207b 9E0F0000 		.4byte	0xf9e
 14481 207f 02       		.uleb128 0x2
 14482 2080 91       		.byte	0x91
 14483 2081 6C       		.sleb128 -20
 14484 2082 27       		.uleb128 0x27
 14485 2083 5A090000 		.4byte	.LASF351
 14486 2087 01       		.byte	0x1
 14487 2088 2B06     		.2byte	0x62b
 14488 208a CE000000 		.4byte	0xce
 14489 208e 02       		.uleb128 0x2
 14490 208f 91       		.byte	0x91
 14491 2090 6A       		.sleb128 -22
 14492 2091 27       		.uleb128 0x27
 14493 2092 A9100000 		.4byte	.LASF368
 14494 2096 01       		.byte	0x1
 14495 2097 2C06     		.2byte	0x62c
 14496 2099 C0060000 		.4byte	0x6c0
 14497 209d 02       		.uleb128 0x2
 14498 209e 91       		.byte	0x91
 14499 209f 64       		.sleb128 -28
 14500 20a0 28       		.uleb128 0x28
 14501 20a1 8D020000 		.4byte	.LASF256
 14502 20a5 01       		.byte	0x1
 14503 20a6 2E06     		.2byte	0x62e
 14504 20a8 D3010000 		.4byte	0x1d3
 14505 20ac 02       		.uleb128 0x2
 14506 20ad 91       		.byte	0x91
 14507 20ae 72       		.sleb128 -14
 14508 20af 28       		.uleb128 0x28
 14509 20b0 5A070000 		.4byte	.LASF360
 14510 20b4 01       		.byte	0x1
 14511 20b5 2F06     		.2byte	0x62f
 14512 20b7 B8000000 		.4byte	0xb8
 14513 20bb 02       		.uleb128 0x2
 14514 20bc 91       		.byte	0x91
 14515 20bd 73       		.sleb128 -13
 14516 20be 00       		.byte	0
 14517 20bf 25       		.uleb128 0x25
 14518 20c0 F71A0000 		.4byte	.LASF369
 14519 20c4 01       		.byte	0x1
 14520 20c5 1D06     		.2byte	0x61d
 14521 20c7 D3010000 		.4byte	0x1d3
 14522 20cb 00000000 		.4byte	.LFB58
 14523 20cf 4C000000 		.4byte	.LFE58-.LFB58
 14524 20d3 01       		.uleb128 0x1
 14525 20d4 9C       		.byte	0x9c
 14526 20d5 16210000 		.4byte	0x2116
 14527 20d9 26       		.uleb128 0x26
 14528 20da 44657600 		.ascii	"Dev\000"
 14529 20de 01       		.byte	0x1
 14530 20df 1D06     		.2byte	0x61d
 14531 20e1 9E0F0000 		.4byte	0xf9e
 14532 20e5 02       		.uleb128 0x2
 14533 20e6 91       		.byte	0x91
 14534 20e7 6C       		.sleb128 -20
 14535 20e8 27       		.uleb128 0x27
ARM GAS  C:\Users\PCHAUT~1\AppData\Local\Temp\ccZvjaUR.s 			page 256


 14536 20e9 5A090000 		.4byte	.LASF351
 14537 20ed 01       		.byte	0x1
 14538 20ee 1D06     		.2byte	0x61d
 14539 20f0 CE000000 		.4byte	0xce
 14540 20f4 02       		.uleb128 0x2
 14541 20f5 91       		.byte	0x91
 14542 20f6 6A       		.sleb128 -22
 14543 20f7 27       		.uleb128 0x27
 14544 20f8 CB0F0000 		.4byte	.LASF370
 14545 20fc 01       		.byte	0x1
 14546 20fd 1E06     		.2byte	0x61e
 14547 20ff 350C0000 		.4byte	0xc35
 14548 2103 02       		.uleb128 0x2
 14549 2104 91       		.byte	0x91
 14550 2105 64       		.sleb128 -28
 14551 2106 28       		.uleb128 0x28
 14552 2107 8D020000 		.4byte	.LASF256
 14553 210b 01       		.byte	0x1
 14554 210c 2006     		.2byte	0x620
 14555 210e D3010000 		.4byte	0x1d3
 14556 2112 02       		.uleb128 0x2
 14557 2113 91       		.byte	0x91
 14558 2114 73       		.sleb128 -13
 14559 2115 00       		.byte	0
 14560 2116 25       		.uleb128 0x25
 14561 2117 1C000000 		.4byte	.LASF371
 14562 211b 01       		.byte	0x1
 14563 211c 1206     		.2byte	0x612
 14564 211e D3010000 		.4byte	0x1d3
 14565 2122 00000000 		.4byte	.LFB57
 14566 2126 38000000 		.4byte	.LFE57-.LFB57
 14567 212a 01       		.uleb128 0x1
 14568 212b 9C       		.byte	0x9c
 14569 212c 4F210000 		.4byte	0x214f
 14570 2130 27       		.uleb128 0x27
 14571 2131 55160000 		.4byte	.LASF372
 14572 2135 01       		.byte	0x1
 14573 2136 1206     		.2byte	0x612
 14574 2138 5F110000 		.4byte	0x115f
 14575 213c 02       		.uleb128 0x2
 14576 213d 91       		.byte	0x91
 14577 213e 6C       		.sleb128 -20
 14578 213f 28       		.uleb128 0x28
 14579 2140 8D020000 		.4byte	.LASF256
 14580 2144 01       		.byte	0x1
 14581 2145 1406     		.2byte	0x614
 14582 2147 D3010000 		.4byte	0x1d3
 14583 214b 02       		.uleb128 0x2
 14584 214c 91       		.byte	0x91
 14585 214d 73       		.sleb128 -13
 14586 214e 00       		.byte	0
 14587 214f 25       		.uleb128 0x25
 14588 2150 690D0000 		.4byte	.LASF373
 14589 2154 01       		.byte	0x1
 14590 2155 0206     		.2byte	0x602
 14591 2157 D3010000 		.4byte	0x1d3
 14592 215b 00000000 		.4byte	.LFB56
ARM GAS  C:\Users\PCHAUT~1\AppData\Local\Temp\ccZvjaUR.s 			page 257


 14593 215f 44000000 		.4byte	.LFE56-.LFB56
 14594 2163 01       		.uleb128 0x1
 14595 2164 9C       		.byte	0x9c
 14596 2165 A6210000 		.4byte	0x21a6
 14597 2169 26       		.uleb128 0x26
 14598 216a 44657600 		.ascii	"Dev\000"
 14599 216e 01       		.byte	0x1
 14600 216f 0206     		.2byte	0x602
 14601 2171 9E0F0000 		.4byte	0xf9e
 14602 2175 02       		.uleb128 0x2
 14603 2176 91       		.byte	0x91
 14604 2177 6C       		.sleb128 -20
 14605 2178 27       		.uleb128 0x27
 14606 2179 C20D0000 		.4byte	.LASF337
 14607 217d 01       		.byte	0x1
 14608 217e 0206     		.2byte	0x602
 14609 2180 C0060000 		.4byte	0x6c0
 14610 2184 02       		.uleb128 0x2
 14611 2185 91       		.byte	0x91
 14612 2186 68       		.sleb128 -24
 14613 2187 27       		.uleb128 0x27
 14614 2188 3E060000 		.4byte	.LASF338
 14615 218c 01       		.byte	0x1
 14616 218d 0306     		.2byte	0x603
 14617 218f C0060000 		.4byte	0x6c0
 14618 2193 02       		.uleb128 0x2
 14619 2194 91       		.byte	0x91
 14620 2195 64       		.sleb128 -28
 14621 2196 28       		.uleb128 0x28
 14622 2197 8D020000 		.4byte	.LASF256
 14623 219b 01       		.byte	0x1
 14624 219c 0506     		.2byte	0x605
 14625 219e D3010000 		.4byte	0x1d3
 14626 21a2 02       		.uleb128 0x2
 14627 21a3 91       		.byte	0x91
 14628 21a4 73       		.sleb128 -13
 14629 21a5 00       		.byte	0
 14630 21a6 25       		.uleb128 0x25
 14631 21a7 031D0000 		.4byte	.LASF374
 14632 21ab 01       		.byte	0x1
 14633 21ac F605     		.2byte	0x5f6
 14634 21ae D3010000 		.4byte	0x1d3
 14635 21b2 00000000 		.4byte	.LFB55
 14636 21b6 54000000 		.4byte	.LFE55-.LFB55
 14637 21ba 01       		.uleb128 0x1
 14638 21bb 9C       		.byte	0x9c
 14639 21bc FD210000 		.4byte	0x21fd
 14640 21c0 26       		.uleb128 0x26
 14641 21c1 44657600 		.ascii	"Dev\000"
 14642 21c5 01       		.byte	0x1
 14643 21c6 F605     		.2byte	0x5f6
 14644 21c8 9E0F0000 		.4byte	0xf9e
 14645 21cc 02       		.uleb128 0x2
 14646 21cd 91       		.byte	0x91
 14647 21ce 6C       		.sleb128 -20
 14648 21cf 27       		.uleb128 0x27
 14649 21d0 80190000 		.4byte	.LASF375
ARM GAS  C:\Users\PCHAUT~1\AppData\Local\Temp\ccZvjaUR.s 			page 258


 14650 21d4 01       		.byte	0x1
 14651 21d5 F605     		.2byte	0x5f6
 14652 21d7 B8000000 		.4byte	0xb8
 14653 21db 02       		.uleb128 0x2
 14654 21dc 91       		.byte	0x91
 14655 21dd 6B       		.sleb128 -21
 14656 21de 27       		.uleb128 0x27
 14657 21df DD0F0000 		.4byte	.LASF376
 14658 21e3 01       		.byte	0x1
 14659 21e4 F705     		.2byte	0x5f7
 14660 21e6 B8000000 		.4byte	0xb8
 14661 21ea 02       		.uleb128 0x2
 14662 21eb 91       		.byte	0x91
 14663 21ec 6A       		.sleb128 -22
 14664 21ed 28       		.uleb128 0x28
 14665 21ee 8D020000 		.4byte	.LASF256
 14666 21f2 01       		.byte	0x1
 14667 21f3 F905     		.2byte	0x5f9
 14668 21f5 D3010000 		.4byte	0x1d3
 14669 21f9 02       		.uleb128 0x2
 14670 21fa 91       		.byte	0x91
 14671 21fb 73       		.sleb128 -13
 14672 21fc 00       		.byte	0
 14673 21fd 25       		.uleb128 0x25
 14674 21fe 88000000 		.4byte	.LASF377
 14675 2202 01       		.byte	0x1
 14676 2203 D505     		.2byte	0x5d5
 14677 2205 D3010000 		.4byte	0x1d3
 14678 2209 00000000 		.4byte	.LFB54
 14679 220d 84000000 		.4byte	.LFE54-.LFB54
 14680 2211 01       		.uleb128 0x1
 14681 2212 9C       		.byte	0x9c
 14682 2213 63220000 		.4byte	0x2263
 14683 2217 26       		.uleb128 0x26
 14684 2218 44657600 		.ascii	"Dev\000"
 14685 221c 01       		.byte	0x1
 14686 221d D505     		.2byte	0x5d5
 14687 221f 9E0F0000 		.4byte	0xf9e
 14688 2223 02       		.uleb128 0x2
 14689 2224 91       		.byte	0x91
 14690 2225 64       		.sleb128 -28
 14691 2226 27       		.uleb128 0x27
 14692 2227 59110000 		.4byte	.LASF331
 14693 222b 01       		.byte	0x1
 14694 222c D605     		.2byte	0x5d6
 14695 222e 1D140000 		.4byte	0x141d
 14696 2232 02       		.uleb128 0x2
 14697 2233 91       		.byte	0x91
 14698 2234 60       		.sleb128 -32
 14699 2235 28       		.uleb128 0x28
 14700 2236 8D020000 		.4byte	.LASF256
 14701 223a 01       		.byte	0x1
 14702 223b D805     		.2byte	0x5d8
 14703 223d D3010000 		.4byte	0x1d3
 14704 2241 02       		.uleb128 0x2
 14705 2242 91       		.byte	0x91
 14706 2243 6D       		.sleb128 -19
ARM GAS  C:\Users\PCHAUT~1\AppData\Local\Temp\ccZvjaUR.s 			page 259


 14707 2244 28       		.uleb128 0x28
 14708 2245 DD120000 		.4byte	.LASF378
 14709 2249 01       		.byte	0x1
 14710 224a D905     		.2byte	0x5d9
 14711 224c CE000000 		.4byte	0xce
 14712 2250 02       		.uleb128 0x2
 14713 2251 91       		.byte	0x91
 14714 2252 6E       		.sleb128 -18
 14715 2253 28       		.uleb128 0x28
 14716 2254 82090000 		.4byte	.LASF357
 14717 2258 01       		.byte	0x1
 14718 2259 DA05     		.2byte	0x5da
 14719 225b F6000000 		.4byte	0xf6
 14720 225f 02       		.uleb128 0x2
 14721 2260 91       		.byte	0x91
 14722 2261 70       		.sleb128 -16
 14723 2262 00       		.byte	0
 14724 2263 25       		.uleb128 0x25
 14725 2264 76220000 		.4byte	.LASF379
 14726 2268 01       		.byte	0x1
 14727 2269 AF05     		.2byte	0x5af
 14728 226b D3010000 		.4byte	0x1d3
 14729 226f 00000000 		.4byte	.LFB53
 14730 2273 90000000 		.4byte	.LFE53-.LFB53
 14731 2277 01       		.uleb128 0x1
 14732 2278 9C       		.byte	0x9c
 14733 2279 D8220000 		.4byte	0x22d8
 14734 227d 26       		.uleb128 0x26
 14735 227e 44657600 		.ascii	"Dev\000"
 14736 2282 01       		.byte	0x1
 14737 2283 AF05     		.2byte	0x5af
 14738 2285 9E0F0000 		.4byte	0xf9e
 14739 2289 02       		.uleb128 0x2
 14740 228a 91       		.byte	0x91
 14741 228b 64       		.sleb128 -28
 14742 228c 27       		.uleb128 0x27
 14743 228d EB140000 		.4byte	.LASF48
 14744 2291 01       		.byte	0x1
 14745 2292 B005     		.2byte	0x5b0
 14746 2294 F6000000 		.4byte	0xf6
 14747 2298 02       		.uleb128 0x2
 14748 2299 91       		.byte	0x91
 14749 229a 60       		.sleb128 -32
 14750 229b 28       		.uleb128 0x28
 14751 229c 8D020000 		.4byte	.LASF256
 14752 22a0 01       		.byte	0x1
 14753 22a1 B205     		.2byte	0x5b2
 14754 22a3 D3010000 		.4byte	0x1d3
 14755 22a7 02       		.uleb128 0x2
 14756 22a8 91       		.byte	0x91
 14757 22a9 6E       		.sleb128 -18
 14758 22aa 28       		.uleb128 0x28
 14759 22ab 5A070000 		.4byte	.LASF360
 14760 22af 01       		.byte	0x1
 14761 22b0 B305     		.2byte	0x5b3
 14762 22b2 B8000000 		.4byte	0xb8
 14763 22b6 02       		.uleb128 0x2
ARM GAS  C:\Users\PCHAUT~1\AppData\Local\Temp\ccZvjaUR.s 			page 260


 14764 22b7 91       		.byte	0x91
 14765 22b8 6F       		.sleb128 -17
 14766 22b9 28       		.uleb128 0x28
 14767 22ba 7B0A0000 		.4byte	.LASF119
 14768 22be 01       		.byte	0x1
 14769 22bf B405     		.2byte	0x5b4
 14770 22c1 CE000000 		.4byte	0xce
 14771 22c5 02       		.uleb128 0x2
 14772 22c6 91       		.byte	0x91
 14773 22c7 72       		.sleb128 -14
 14774 22c8 28       		.uleb128 0x28
 14775 22c9 C2140000 		.4byte	.LASF288
 14776 22cd 01       		.byte	0x1
 14777 22ce B505     		.2byte	0x5b5
 14778 22d0 CE000000 		.4byte	0xce
 14779 22d4 02       		.uleb128 0x2
 14780 22d5 91       		.byte	0x91
 14781 22d6 70       		.sleb128 -16
 14782 22d7 00       		.byte	0
 14783 22d8 25       		.uleb128 0x25
 14784 22d9 060F0000 		.4byte	.LASF380
 14785 22dd 01       		.byte	0x1
 14786 22de A105     		.2byte	0x5a1
 14787 22e0 D3010000 		.4byte	0x1d3
 14788 22e4 00000000 		.4byte	.LFB52
 14789 22e8 44000000 		.4byte	.LFE52-.LFB52
 14790 22ec 01       		.uleb128 0x1
 14791 22ed 9C       		.byte	0x9c
 14792 22ee 2F230000 		.4byte	0x232f
 14793 22f2 26       		.uleb128 0x26
 14794 22f3 44657600 		.ascii	"Dev\000"
 14795 22f7 01       		.byte	0x1
 14796 22f8 A105     		.2byte	0x5a1
 14797 22fa 9E0F0000 		.4byte	0xf9e
 14798 22fe 02       		.uleb128 0x2
 14799 22ff 91       		.byte	0x91
 14800 2300 6C       		.sleb128 -20
 14801 2301 27       		.uleb128 0x27
 14802 2302 EB010000 		.4byte	.LASF381
 14803 2306 01       		.byte	0x1
 14804 2307 A205     		.2byte	0x5a2
 14805 2309 C0060000 		.4byte	0x6c0
 14806 230d 02       		.uleb128 0x2
 14807 230e 91       		.byte	0x91
 14808 230f 68       		.sleb128 -24
 14809 2310 28       		.uleb128 0x28
 14810 2311 8D020000 		.4byte	.LASF256
 14811 2315 01       		.byte	0x1
 14812 2316 A405     		.2byte	0x5a4
 14813 2318 D3010000 		.4byte	0x1d3
 14814 231c 02       		.uleb128 0x2
 14815 231d 91       		.byte	0x91
 14816 231e 72       		.sleb128 -14
 14817 231f 28       		.uleb128 0x28
 14818 2320 5A070000 		.4byte	.LASF360
 14819 2324 01       		.byte	0x1
 14820 2325 A505     		.2byte	0x5a5
ARM GAS  C:\Users\PCHAUT~1\AppData\Local\Temp\ccZvjaUR.s 			page 261


 14821 2327 B8000000 		.4byte	0xb8
 14822 232b 02       		.uleb128 0x2
 14823 232c 91       		.byte	0x91
 14824 232d 73       		.sleb128 -13
 14825 232e 00       		.byte	0
 14826 232f 25       		.uleb128 0x25
 14827 2330 37070000 		.4byte	.LASF382
 14828 2334 01       		.byte	0x1
 14829 2335 7B05     		.2byte	0x57b
 14830 2337 D3010000 		.4byte	0x1d3
 14831 233b 00000000 		.4byte	.LFB51
 14832 233f 94000000 		.4byte	.LFE51-.LFB51
 14833 2343 01       		.uleb128 0x1
 14834 2344 9C       		.byte	0x9c
 14835 2345 95230000 		.4byte	0x2395
 14836 2349 26       		.uleb128 0x26
 14837 234a 44657600 		.ascii	"Dev\000"
 14838 234e 01       		.byte	0x1
 14839 234f 7B05     		.2byte	0x57b
 14840 2351 9E0F0000 		.4byte	0xf9e
 14841 2355 02       		.uleb128 0x2
 14842 2356 91       		.byte	0x91
 14843 2357 64       		.sleb128 -28
 14844 2358 27       		.uleb128 0x27
 14845 2359 41010000 		.4byte	.LASF46
 14846 235d 01       		.byte	0x1
 14847 235e 7C05     		.2byte	0x57c
 14848 2360 B8000000 		.4byte	0xb8
 14849 2364 02       		.uleb128 0x2
 14850 2365 91       		.byte	0x91
 14851 2366 63       		.sleb128 -29
 14852 2367 28       		.uleb128 0x28
 14853 2368 8D020000 		.4byte	.LASF256
 14854 236c 01       		.byte	0x1
 14855 236d 7E05     		.2byte	0x57e
 14856 236f D3010000 		.4byte	0x1d3
 14857 2373 02       		.uleb128 0x2
 14858 2374 91       		.byte	0x91
 14859 2375 6D       		.sleb128 -19
 14860 2376 28       		.uleb128 0x28
 14861 2377 82090000 		.4byte	.LASF357
 14862 237b 01       		.byte	0x1
 14863 237c 7F05     		.2byte	0x57f
 14864 237e F6000000 		.4byte	0xf6
 14865 2382 02       		.uleb128 0x2
 14866 2383 91       		.byte	0x91
 14867 2384 70       		.sleb128 -16
 14868 2385 28       		.uleb128 0x28
 14869 2386 7B0A0000 		.4byte	.LASF119
 14870 238a 01       		.byte	0x1
 14871 238b 8005     		.2byte	0x580
 14872 238d CE000000 		.4byte	0xce
 14873 2391 02       		.uleb128 0x2
 14874 2392 91       		.byte	0x91
 14875 2393 6E       		.sleb128 -18
 14876 2394 00       		.byte	0
 14877 2395 25       		.uleb128 0x25
ARM GAS  C:\Users\PCHAUT~1\AppData\Local\Temp\ccZvjaUR.s 			page 262


 14878 2396 4E230000 		.4byte	.LASF383
 14879 239a 01       		.byte	0x1
 14880 239b 5B05     		.2byte	0x55b
 14881 239d D3010000 		.4byte	0x1d3
 14882 23a1 00000000 		.4byte	.LFB50
 14883 23a5 88000000 		.4byte	.LFE50-.LFB50
 14884 23a9 01       		.uleb128 0x1
 14885 23aa 9C       		.byte	0x9c
 14886 23ab FB230000 		.4byte	0x23fb
 14887 23af 26       		.uleb128 0x26
 14888 23b0 44657600 		.ascii	"Dev\000"
 14889 23b4 01       		.byte	0x1
 14890 23b5 5B05     		.2byte	0x55b
 14891 23b7 9E0F0000 		.4byte	0xf9e
 14892 23bb 02       		.uleb128 0x2
 14893 23bc 91       		.byte	0x91
 14894 23bd 64       		.sleb128 -28
 14895 23be 27       		.uleb128 0x27
 14896 23bf 4E130000 		.4byte	.LASF384
 14897 23c3 01       		.byte	0x1
 14898 23c4 5C05     		.2byte	0x55c
 14899 23c6 54100000 		.4byte	0x1054
 14900 23ca 02       		.uleb128 0x2
 14901 23cb 91       		.byte	0x91
 14902 23cc 60       		.sleb128 -32
 14903 23cd 28       		.uleb128 0x28
 14904 23ce 8D020000 		.4byte	.LASF256
 14905 23d2 01       		.byte	0x1
 14906 23d3 5E05     		.2byte	0x55e
 14907 23d5 D3010000 		.4byte	0x1d3
 14908 23d9 02       		.uleb128 0x2
 14909 23da 91       		.byte	0x91
 14910 23db 6D       		.sleb128 -19
 14911 23dc 28       		.uleb128 0x28
 14912 23dd 8F070000 		.4byte	.LASF385
 14913 23e1 01       		.byte	0x1
 14914 23e2 5F05     		.2byte	0x55f
 14915 23e4 CE000000 		.4byte	0xce
 14916 23e8 02       		.uleb128 0x2
 14917 23e9 91       		.byte	0x91
 14918 23ea 6E       		.sleb128 -18
 14919 23eb 28       		.uleb128 0x28
 14920 23ec 52200000 		.4byte	.LASF386
 14921 23f0 01       		.byte	0x1
 14922 23f1 6005     		.2byte	0x560
 14923 23f3 E4000000 		.4byte	0xe4
 14924 23f7 02       		.uleb128 0x2
 14925 23f8 91       		.byte	0x91
 14926 23f9 70       		.sleb128 -16
 14927 23fa 00       		.byte	0
 14928 23fb 25       		.uleb128 0x25
 14929 23fc 46170000 		.4byte	.LASF387
 14930 2400 01       		.byte	0x1
 14931 2401 3705     		.2byte	0x537
 14932 2403 D3010000 		.4byte	0x1d3
 14933 2407 00000000 		.4byte	.LFB49
 14934 240b 88000000 		.4byte	.LFE49-.LFB49
ARM GAS  C:\Users\PCHAUT~1\AppData\Local\Temp\ccZvjaUR.s 			page 263


 14935 240f 01       		.uleb128 0x1
 14936 2410 9C       		.byte	0x9c
 14937 2411 61240000 		.4byte	0x2461
 14938 2415 26       		.uleb128 0x26
 14939 2416 44657600 		.ascii	"Dev\000"
 14940 241a 01       		.byte	0x1
 14941 241b 3705     		.2byte	0x537
 14942 241d 9E0F0000 		.4byte	0xf9e
 14943 2421 02       		.uleb128 0x2
 14944 2422 91       		.byte	0x91
 14945 2423 64       		.sleb128 -28
 14946 2424 27       		.uleb128 0x27
 14947 2425 1A0B0000 		.4byte	.LASF45
 14948 2429 01       		.byte	0x1
 14949 242a 3805     		.2byte	0x538
 14950 242c E4000000 		.4byte	0xe4
 14951 2430 02       		.uleb128 0x2
 14952 2431 91       		.byte	0x91
 14953 2432 60       		.sleb128 -32
 14954 2433 28       		.uleb128 0x28
 14955 2434 8D020000 		.4byte	.LASF256
 14956 2438 01       		.byte	0x1
 14957 2439 3A05     		.2byte	0x53a
 14958 243b D3010000 		.4byte	0x1d3
 14959 243f 02       		.uleb128 0x2
 14960 2440 91       		.byte	0x91
 14961 2441 6D       		.sleb128 -19
 14962 2442 28       		.uleb128 0x28
 14963 2443 8F070000 		.4byte	.LASF385
 14964 2447 01       		.byte	0x1
 14965 2448 3B05     		.2byte	0x53b
 14966 244a CE000000 		.4byte	0xce
 14967 244e 02       		.uleb128 0x2
 14968 244f 91       		.byte	0x91
 14969 2450 6E       		.sleb128 -18
 14970 2451 28       		.uleb128 0x28
 14971 2452 52200000 		.4byte	.LASF386
 14972 2456 01       		.byte	0x1
 14973 2457 3C05     		.2byte	0x53c
 14974 2459 E4000000 		.4byte	0xe4
 14975 245d 02       		.uleb128 0x2
 14976 245e 91       		.byte	0x91
 14977 245f 70       		.sleb128 -16
 14978 2460 00       		.byte	0
 14979 2461 25       		.uleb128 0x25
 14980 2462 39120000 		.4byte	.LASF388
 14981 2466 01       		.byte	0x1
 14982 2467 2405     		.2byte	0x524
 14983 2469 D3010000 		.4byte	0x1d3
 14984 246d 00000000 		.4byte	.LFB48
 14985 2471 7C000000 		.4byte	.LFE48-.LFB48
 14986 2475 01       		.uleb128 0x1
 14987 2476 9C       		.byte	0x9c
 14988 2477 C7240000 		.4byte	0x24c7
 14989 247b 26       		.uleb128 0x26
 14990 247c 44657600 		.ascii	"Dev\000"
 14991 2480 01       		.byte	0x1
ARM GAS  C:\Users\PCHAUT~1\AppData\Local\Temp\ccZvjaUR.s 			page 264


 14992 2481 2405     		.2byte	0x524
 14993 2483 9E0F0000 		.4byte	0xf9e
 14994 2487 02       		.uleb128 0x2
 14995 2488 91       		.byte	0x91
 14996 2489 64       		.sleb128 -28
 14997 248a 27       		.uleb128 0x27
 14998 248b 8E090000 		.4byte	.LASF389
 14999 248f 01       		.byte	0x1
 15000 2490 2505     		.2byte	0x525
 15001 2492 41070000 		.4byte	0x741
 15002 2496 02       		.uleb128 0x2
 15003 2497 91       		.byte	0x91
 15004 2498 63       		.sleb128 -29
 15005 2499 27       		.uleb128 0x27
 15006 249a AF070000 		.4byte	.LASF390
 15007 249e 01       		.byte	0x1
 15008 249f 2505     		.2byte	0x525
 15009 24a1 1D140000 		.4byte	0x141d
 15010 24a5 02       		.uleb128 0x2
 15011 24a6 91       		.byte	0x91
 15012 24a7 5C       		.sleb128 -36
 15013 24a8 28       		.uleb128 0x28
 15014 24a9 8D020000 		.4byte	.LASF256
 15015 24ad 01       		.byte	0x1
 15016 24ae 2705     		.2byte	0x527
 15017 24b0 D3010000 		.4byte	0x1d3
 15018 24b4 02       		.uleb128 0x2
 15019 24b5 91       		.byte	0x91
 15020 24b6 6F       		.sleb128 -17
 15021 24b7 28       		.uleb128 0x28
 15022 24b8 9C040000 		.4byte	.LASF391
 15023 24bc 01       		.byte	0x1
 15024 24bd 2805     		.2byte	0x528
 15025 24bf E4000000 		.4byte	0xe4
 15026 24c3 02       		.uleb128 0x2
 15027 24c4 91       		.byte	0x91
 15028 24c5 70       		.sleb128 -16
 15029 24c6 00       		.byte	0
 15030 24c7 25       		.uleb128 0x25
 15031 24c8 D40E0000 		.4byte	.LASF392
 15032 24cc 01       		.byte	0x1
 15033 24cd EE04     		.2byte	0x4ee
 15034 24cf D3010000 		.4byte	0x1d3
 15035 24d3 00000000 		.4byte	.LFB47
 15036 24d7 D8000000 		.4byte	.LFE47-.LFB47
 15037 24db 01       		.uleb128 0x1
 15038 24dc 9C       		.byte	0x9c
 15039 24dd 5A250000 		.4byte	0x255a
 15040 24e1 26       		.uleb128 0x26
 15041 24e2 44657600 		.ascii	"Dev\000"
 15042 24e6 01       		.byte	0x1
 15043 24e7 EE04     		.2byte	0x4ee
 15044 24e9 9E0F0000 		.4byte	0xf9e
 15045 24ed 02       		.uleb128 0x2
 15046 24ee 91       		.byte	0x91
 15047 24ef 5C       		.sleb128 -36
 15048 24f0 27       		.uleb128 0x27
ARM GAS  C:\Users\PCHAUT~1\AppData\Local\Temp\ccZvjaUR.s 			page 265


 15049 24f1 8E090000 		.4byte	.LASF389
 15050 24f5 01       		.byte	0x1
 15051 24f6 EF04     		.2byte	0x4ef
 15052 24f8 41070000 		.4byte	0x741
 15053 24fc 02       		.uleb128 0x2
 15054 24fd 91       		.byte	0x91
 15055 24fe 5B       		.sleb128 -37
 15056 24ff 27       		.uleb128 0x27
 15057 2500 6D0E0000 		.4byte	.LASF393
 15058 2504 01       		.byte	0x1
 15059 2505 EF04     		.2byte	0x4ef
 15060 2507 F6000000 		.4byte	0xf6
 15061 250b 02       		.uleb128 0x2
 15062 250c 91       		.byte	0x91
 15063 250d 54       		.sleb128 -44
 15064 250e 28       		.uleb128 0x28
 15065 250f 8D020000 		.4byte	.LASF256
 15066 2513 01       		.byte	0x1
 15067 2514 F104     		.2byte	0x4f1
 15068 2516 D3010000 		.4byte	0x1d3
 15069 251a 02       		.uleb128 0x2
 15070 251b 91       		.byte	0x91
 15071 251c 66       		.sleb128 -26
 15072 251d 28       		.uleb128 0x28
 15073 251e C0010000 		.4byte	.LASF394
 15074 2522 01       		.byte	0x1
 15075 2523 F204     		.2byte	0x4f2
 15076 2525 D3010000 		.4byte	0x1d3
 15077 2529 02       		.uleb128 0x2
 15078 252a 91       		.byte	0x91
 15079 252b 67       		.sleb128 -25
 15080 252c 28       		.uleb128 0x28
 15081 252d 9C040000 		.4byte	.LASF391
 15082 2531 01       		.byte	0x1
 15083 2532 F304     		.2byte	0x4f3
 15084 2534 E4000000 		.4byte	0xe4
 15085 2538 02       		.uleb128 0x2
 15086 2539 91       		.byte	0x91
 15087 253a 6C       		.sleb128 -20
 15088 253b 28       		.uleb128 0x28
 15089 253c 020E0000 		.4byte	.LASF44
 15090 2540 01       		.byte	0x1
 15091 2541 F504     		.2byte	0x4f5
 15092 2543 E4000000 		.4byte	0xe4
 15093 2547 02       		.uleb128 0x2
 15094 2548 91       		.byte	0x91
 15095 2549 70       		.sleb128 -16
 15096 254a 28       		.uleb128 0x28
 15097 254b 30030000 		.4byte	.LASF395
 15098 254f 01       		.byte	0x1
 15099 2550 F604     		.2byte	0x4f6
 15100 2552 F6000000 		.4byte	0xf6
 15101 2556 02       		.uleb128 0x2
 15102 2557 91       		.byte	0x91
 15103 2558 68       		.sleb128 -24
 15104 2559 00       		.byte	0
 15105 255a 25       		.uleb128 0x25
ARM GAS  C:\Users\PCHAUT~1\AppData\Local\Temp\ccZvjaUR.s 			page 266


 15106 255b 2B150000 		.4byte	.LASF396
 15107 255f 01       		.byte	0x1
 15108 2560 DF04     		.2byte	0x4df
 15109 2562 D3010000 		.4byte	0x1d3
 15110 2566 00000000 		.4byte	.LFB46
 15111 256a 48000000 		.4byte	.LFE46-.LFB46
 15112 256e 01       		.uleb128 0x1
 15113 256f 9C       		.byte	0x9c
 15114 2570 A2250000 		.4byte	0x25a2
 15115 2574 27       		.uleb128 0x27
 15116 2575 8E090000 		.4byte	.LASF389
 15117 2579 01       		.byte	0x1
 15118 257a DF04     		.2byte	0x4df
 15119 257c 41070000 		.4byte	0x741
 15120 2580 02       		.uleb128 0x2
 15121 2581 91       		.byte	0x91
 15122 2582 6F       		.sleb128 -17
 15123 2583 27       		.uleb128 0x27
 15124 2584 3E080000 		.4byte	.LASF397
 15125 2588 01       		.byte	0x1
 15126 2589 E004     		.2byte	0x4e0
 15127 258b 350C0000 		.4byte	0xc35
 15128 258f 02       		.uleb128 0x2
 15129 2590 91       		.byte	0x91
 15130 2591 68       		.sleb128 -24
 15131 2592 28       		.uleb128 0x28
 15132 2593 8D020000 		.4byte	.LASF256
 15133 2597 01       		.byte	0x1
 15134 2598 E204     		.2byte	0x4e2
 15135 259a D3010000 		.4byte	0x1d3
 15136 259e 02       		.uleb128 0x2
 15137 259f 91       		.byte	0x91
 15138 25a0 73       		.sleb128 -13
 15139 25a1 00       		.byte	0
 15140 25a2 25       		.uleb128 0x25
 15141 25a3 CE130000 		.4byte	.LASF398
 15142 25a7 01       		.byte	0x1
 15143 25a8 D204     		.2byte	0x4d2
 15144 25aa D3010000 		.4byte	0x1d3
 15145 25ae 00000000 		.4byte	.LFB45
 15146 25b2 38000000 		.4byte	.LFE45-.LFB45
 15147 25b6 01       		.uleb128 0x1
 15148 25b7 9C       		.byte	0x9c
 15149 25b8 EA250000 		.4byte	0x25ea
 15150 25bc 26       		.uleb128 0x26
 15151 25bd 44657600 		.ascii	"Dev\000"
 15152 25c1 01       		.byte	0x1
 15153 25c2 D204     		.2byte	0x4d2
 15154 25c4 9E0F0000 		.4byte	0xf9e
 15155 25c8 02       		.uleb128 0x2
 15156 25c9 91       		.byte	0x91
 15157 25ca 6C       		.sleb128 -20
 15158 25cb 27       		.uleb128 0x27
 15159 25cc D11C0000 		.4byte	.LASF399
 15160 25d0 01       		.byte	0x1
 15161 25d1 D304     		.2byte	0x4d3
 15162 25d3 C0060000 		.4byte	0x6c0
ARM GAS  C:\Users\PCHAUT~1\AppData\Local\Temp\ccZvjaUR.s 			page 267


 15163 25d7 02       		.uleb128 0x2
 15164 25d8 91       		.byte	0x91
 15165 25d9 68       		.sleb128 -24
 15166 25da 28       		.uleb128 0x28
 15167 25db 8D020000 		.4byte	.LASF256
 15168 25df 01       		.byte	0x1
 15169 25e0 D604     		.2byte	0x4d6
 15170 25e2 D3010000 		.4byte	0x1d3
 15171 25e6 02       		.uleb128 0x2
 15172 25e7 91       		.byte	0x91
 15173 25e8 73       		.sleb128 -13
 15174 25e9 00       		.byte	0
 15175 25ea 25       		.uleb128 0x25
 15176 25eb FD0F0000 		.4byte	.LASF400
 15177 25ef 01       		.byte	0x1
 15178 25f0 AA04     		.2byte	0x4aa
 15179 25f2 D3010000 		.4byte	0x1d3
 15180 25f6 00000000 		.4byte	.LFB44
 15181 25fa E0000000 		.4byte	.LFE44-.LFB44
 15182 25fe 01       		.uleb128 0x1
 15183 25ff 9C       		.byte	0x9c
 15184 2600 41260000 		.4byte	0x2641
 15185 2604 26       		.uleb128 0x26
 15186 2605 44657600 		.ascii	"Dev\000"
 15187 2609 01       		.byte	0x1
 15188 260a AA04     		.2byte	0x4aa
 15189 260c 9E0F0000 		.4byte	0xf9e
 15190 2610 02       		.uleb128 0x2
 15191 2611 91       		.byte	0x91
 15192 2612 6C       		.sleb128 -20
 15193 2613 27       		.uleb128 0x27
 15194 2614 21220000 		.4byte	.LASF401
 15195 2618 01       		.byte	0x1
 15196 2619 AB04     		.2byte	0x4ab
 15197 261b 41260000 		.4byte	0x2641
 15198 261f 02       		.uleb128 0x2
 15199 2620 91       		.byte	0x91
 15200 2621 68       		.sleb128 -24
 15201 2622 28       		.uleb128 0x28
 15202 2623 8D020000 		.4byte	.LASF256
 15203 2627 01       		.byte	0x1
 15204 2628 AD04     		.2byte	0x4ad
 15205 262a D3010000 		.4byte	0x1d3
 15206 262e 02       		.uleb128 0x2
 15207 262f 91       		.byte	0x91
 15208 2630 73       		.sleb128 -13
 15209 2631 28       		.uleb128 0x28
 15210 2632 11160000 		.4byte	.LASF108
 15211 2636 01       		.byte	0x1
 15212 2637 AE04     		.2byte	0x4ae
 15213 2639 B8000000 		.4byte	0xb8
 15214 263d 02       		.uleb128 0x2
 15215 263e 91       		.byte	0x91
 15216 263f 72       		.sleb128 -14
 15217 2640 00       		.byte	0
 15218 2641 0F       		.uleb128 0xf
 15219 2642 04       		.byte	0x4
ARM GAS  C:\Users\PCHAUT~1\AppData\Local\Temp\ccZvjaUR.s 			page 268


 15220 2643 35070000 		.4byte	0x735
 15221 2647 25       		.uleb128 0x25
 15222 2648 E6030000 		.4byte	.LASF402
 15223 264c 01       		.byte	0x1
 15224 264d 9704     		.2byte	0x497
 15225 264f D3010000 		.4byte	0x1d3
 15226 2653 00000000 		.4byte	.LFB43
 15227 2657 70000000 		.4byte	.LFE43-.LFB43
 15228 265b 01       		.uleb128 0x1
 15229 265c 9C       		.byte	0x9c
 15230 265d AD260000 		.4byte	0x26ad
 15231 2661 26       		.uleb128 0x26
 15232 2662 44657600 		.ascii	"Dev\000"
 15233 2666 01       		.byte	0x1
 15234 2667 9704     		.2byte	0x497
 15235 2669 9E0F0000 		.4byte	0xf9e
 15236 266d 02       		.uleb128 0x2
 15237 266e 91       		.byte	0x91
 15238 266f 6C       		.sleb128 -20
 15239 2670 27       		.uleb128 0x27
 15240 2671 8E090000 		.4byte	.LASF389
 15241 2675 01       		.byte	0x1
 15242 2676 9804     		.2byte	0x498
 15243 2678 41070000 		.4byte	0x741
 15244 267c 02       		.uleb128 0x2
 15245 267d 91       		.byte	0x91
 15246 267e 6B       		.sleb128 -21
 15247 267f 27       		.uleb128 0x27
 15248 2680 36210000 		.4byte	.LASF403
 15249 2684 01       		.byte	0x1
 15250 2685 9804     		.2byte	0x498
 15251 2687 C0060000 		.4byte	0x6c0
 15252 268b 02       		.uleb128 0x2
 15253 268c 91       		.byte	0x91
 15254 268d 64       		.sleb128 -28
 15255 268e 28       		.uleb128 0x28
 15256 268f 8D020000 		.4byte	.LASF256
 15257 2693 01       		.byte	0x1
 15258 2694 9A04     		.2byte	0x49a
 15259 2696 D3010000 		.4byte	0x1d3
 15260 269a 02       		.uleb128 0x2
 15261 269b 91       		.byte	0x91
 15262 269c 73       		.sleb128 -13
 15263 269d 28       		.uleb128 0x28
 15264 269e 11160000 		.4byte	.LASF108
 15265 26a2 01       		.byte	0x1
 15266 26a3 9B04     		.2byte	0x49b
 15267 26a5 B8000000 		.4byte	0xb8
 15268 26a9 02       		.uleb128 0x2
 15269 26aa 91       		.byte	0x91
 15270 26ab 72       		.sleb128 -14
 15271 26ac 00       		.byte	0
 15272 26ad 25       		.uleb128 0x25
 15273 26ae 511F0000 		.4byte	.LASF404
 15274 26b2 01       		.byte	0x1
 15275 26b3 7604     		.2byte	0x476
 15276 26b5 D3010000 		.4byte	0x1d3
ARM GAS  C:\Users\PCHAUT~1\AppData\Local\Temp\ccZvjaUR.s 			page 269


 15277 26b9 00000000 		.4byte	.LFB42
 15278 26bd CC000000 		.4byte	.LFE42-.LFB42
 15279 26c1 01       		.uleb128 0x1
 15280 26c2 9C       		.byte	0x9c
 15281 26c3 13270000 		.4byte	0x2713
 15282 26c7 26       		.uleb128 0x26
 15283 26c8 44657600 		.ascii	"Dev\000"
 15284 26cc 01       		.byte	0x1
 15285 26cd 7604     		.2byte	0x476
 15286 26cf 9E0F0000 		.4byte	0xf9e
 15287 26d3 02       		.uleb128 0x2
 15288 26d4 91       		.byte	0x91
 15289 26d5 6C       		.sleb128 -20
 15290 26d6 27       		.uleb128 0x27
 15291 26d7 8E090000 		.4byte	.LASF389
 15292 26db 01       		.byte	0x1
 15293 26dc 7704     		.2byte	0x477
 15294 26de 41070000 		.4byte	0x741
 15295 26e2 02       		.uleb128 0x2
 15296 26e3 91       		.byte	0x91
 15297 26e4 6B       		.sleb128 -21
 15298 26e5 27       		.uleb128 0x27
 15299 26e6 11160000 		.4byte	.LASF108
 15300 26ea 01       		.byte	0x1
 15301 26eb 7704     		.2byte	0x477
 15302 26ed B8000000 		.4byte	0xb8
 15303 26f1 02       		.uleb128 0x2
 15304 26f2 91       		.byte	0x91
 15305 26f3 6A       		.sleb128 -22
 15306 26f4 27       		.uleb128 0x27
 15307 26f5 36210000 		.4byte	.LASF403
 15308 26f9 01       		.byte	0x1
 15309 26fa 7804     		.2byte	0x478
 15310 26fc C0060000 		.4byte	0x6c0
 15311 2700 02       		.uleb128 0x2
 15312 2701 91       		.byte	0x91
 15313 2702 64       		.sleb128 -28
 15314 2703 28       		.uleb128 0x28
 15315 2704 8D020000 		.4byte	.LASF256
 15316 2708 01       		.byte	0x1
 15317 2709 7B04     		.2byte	0x47b
 15318 270b D3010000 		.4byte	0x1d3
 15319 270f 02       		.uleb128 0x2
 15320 2710 91       		.byte	0x91
 15321 2711 73       		.sleb128 -13
 15322 2712 00       		.byte	0
 15323 2713 25       		.uleb128 0x25
 15324 2714 121A0000 		.4byte	.LASF405
 15325 2718 01       		.byte	0x1
 15326 2719 1D04     		.2byte	0x41d
 15327 271b D3010000 		.4byte	0x1d3
 15328 271f 00000000 		.4byte	.LFB41
 15329 2723 A8010000 		.4byte	.LFE41-.LFB41
 15330 2727 01       		.uleb128 0x1
 15331 2728 9C       		.byte	0x9c
 15332 2729 97270000 		.4byte	0x2797
 15333 272d 26       		.uleb128 0x26
ARM GAS  C:\Users\PCHAUT~1\AppData\Local\Temp\ccZvjaUR.s 			page 270


 15334 272e 44657600 		.ascii	"Dev\000"
 15335 2732 01       		.byte	0x1
 15336 2733 1D04     		.2byte	0x41d
 15337 2735 9E0F0000 		.4byte	0xf9e
 15338 2739 02       		.uleb128 0x2
 15339 273a 91       		.byte	0x91
 15340 273b 64       		.sleb128 -28
 15341 273c 27       		.uleb128 0x27
 15342 273d 8E090000 		.4byte	.LASF389
 15343 2741 01       		.byte	0x1
 15344 2742 1E04     		.2byte	0x41e
 15345 2744 41070000 		.4byte	0x741
 15346 2748 02       		.uleb128 0x2
 15347 2749 91       		.byte	0x91
 15348 274a 63       		.sleb128 -29
 15349 274b 27       		.uleb128 0x27
 15350 274c 7D210000 		.4byte	.LASF406
 15351 2750 01       		.byte	0x1
 15352 2751 1E04     		.2byte	0x41e
 15353 2753 B8000000 		.4byte	0xb8
 15354 2757 02       		.uleb128 0x2
 15355 2758 91       		.byte	0x91
 15356 2759 62       		.sleb128 -30
 15357 275a 28       		.uleb128 0x28
 15358 275b 8D020000 		.4byte	.LASF256
 15359 275f 01       		.byte	0x1
 15360 2760 2004     		.2byte	0x420
 15361 2762 D3010000 		.4byte	0x1d3
 15362 2766 02       		.uleb128 0x2
 15363 2767 91       		.byte	0x91
 15364 2768 6E       		.sleb128 -18
 15365 2769 28       		.uleb128 0x28
 15366 276a 11160000 		.4byte	.LASF108
 15367 276e 01       		.byte	0x1
 15368 276f 2104     		.2byte	0x421
 15369 2771 B8000000 		.4byte	0xb8
 15370 2775 02       		.uleb128 0x2
 15371 2776 91       		.byte	0x91
 15372 2777 6D       		.sleb128 -19
 15373 2778 28       		.uleb128 0x28
 15374 2779 0F220000 		.4byte	.LASF407
 15375 277d 01       		.byte	0x1
 15376 277e 2204     		.2byte	0x422
 15377 2780 B8000000 		.4byte	0xb8
 15378 2784 02       		.uleb128 0x2
 15379 2785 91       		.byte	0x91
 15380 2786 6F       		.sleb128 -17
 15381 2787 28       		.uleb128 0x28
 15382 2788 020E0000 		.4byte	.LASF44
 15383 278c 01       		.byte	0x1
 15384 278d 2304     		.2byte	0x423
 15385 278f E4000000 		.4byte	0xe4
 15386 2793 02       		.uleb128 0x2
 15387 2794 91       		.byte	0x91
 15388 2795 70       		.sleb128 -16
 15389 2796 00       		.byte	0
 15390 2797 25       		.uleb128 0x25
ARM GAS  C:\Users\PCHAUT~1\AppData\Local\Temp\ccZvjaUR.s 			page 271


 15391 2798 930A0000 		.4byte	.LASF408
 15392 279c 01       		.byte	0x1
 15393 279d 1004     		.2byte	0x410
 15394 279f D3010000 		.4byte	0x1d3
 15395 27a3 00000000 		.4byte	.LFB40
 15396 27a7 4C000000 		.4byte	.LFE40-.LFB40
 15397 27ab 01       		.uleb128 0x1
 15398 27ac 9C       		.byte	0x9c
 15399 27ad EE270000 		.4byte	0x27ee
 15400 27b1 26       		.uleb128 0x26
 15401 27b2 44657600 		.ascii	"Dev\000"
 15402 27b6 01       		.byte	0x1
 15403 27b7 1004     		.2byte	0x410
 15404 27b9 9E0F0000 		.4byte	0xf9e
 15405 27bd 02       		.uleb128 0x2
 15406 27be 91       		.byte	0x91
 15407 27bf 6C       		.sleb128 -20
 15408 27c0 27       		.uleb128 0x27
 15409 27c1 9F190000 		.4byte	.LASF409
 15410 27c5 01       		.byte	0x1
 15411 27c6 1104     		.2byte	0x411
 15412 27c8 DE060000 		.4byte	0x6de
 15413 27cc 02       		.uleb128 0x2
 15414 27cd 91       		.byte	0x91
 15415 27ce 6B       		.sleb128 -21
 15416 27cf 27       		.uleb128 0x27
 15417 27d0 08050000 		.4byte	.LASF410
 15418 27d4 01       		.byte	0x1
 15419 27d5 1104     		.2byte	0x411
 15420 27d7 C0060000 		.4byte	0x6c0
 15421 27db 02       		.uleb128 0x2
 15422 27dc 91       		.byte	0x91
 15423 27dd 64       		.sleb128 -28
 15424 27de 28       		.uleb128 0x28
 15425 27df 8D020000 		.4byte	.LASF256
 15426 27e3 01       		.byte	0x1
 15427 27e4 1304     		.2byte	0x413
 15428 27e6 D3010000 		.4byte	0x1d3
 15429 27ea 02       		.uleb128 0x2
 15430 27eb 91       		.byte	0x91
 15431 27ec 73       		.sleb128 -13
 15432 27ed 00       		.byte	0
 15433 27ee 25       		.uleb128 0x25
 15434 27ef B7220000 		.4byte	.LASF411
 15435 27f3 01       		.byte	0x1
 15436 27f4 0304     		.2byte	0x403
 15437 27f6 D3010000 		.4byte	0x1d3
 15438 27fa 00000000 		.4byte	.LFB39
 15439 27fe 54000000 		.4byte	.LFE39-.LFB39
 15440 2802 01       		.uleb128 0x1
 15441 2803 9C       		.byte	0x9c
 15442 2804 45280000 		.4byte	0x2845
 15443 2808 26       		.uleb128 0x26
 15444 2809 44657600 		.ascii	"Dev\000"
 15445 280d 01       		.byte	0x1
 15446 280e 0304     		.2byte	0x403
 15447 2810 9E0F0000 		.4byte	0xf9e
ARM GAS  C:\Users\PCHAUT~1\AppData\Local\Temp\ccZvjaUR.s 			page 272


 15448 2814 02       		.uleb128 0x2
 15449 2815 91       		.byte	0x91
 15450 2816 6C       		.sleb128 -20
 15451 2817 27       		.uleb128 0x27
 15452 2818 9F190000 		.4byte	.LASF409
 15453 281c 01       		.byte	0x1
 15454 281d 0404     		.2byte	0x404
 15455 281f DE060000 		.4byte	0x6de
 15456 2823 02       		.uleb128 0x2
 15457 2824 91       		.byte	0x91
 15458 2825 6B       		.sleb128 -21
 15459 2826 27       		.uleb128 0x27
 15460 2827 260E0000 		.4byte	.LASF412
 15461 282b 01       		.byte	0x1
 15462 282c 0404     		.2byte	0x404
 15463 282e B8000000 		.4byte	0xb8
 15464 2832 02       		.uleb128 0x2
 15465 2833 91       		.byte	0x91
 15466 2834 6A       		.sleb128 -22
 15467 2835 28       		.uleb128 0x28
 15468 2836 8D020000 		.4byte	.LASF256
 15469 283a 01       		.byte	0x1
 15470 283b 0604     		.2byte	0x406
 15471 283d D3010000 		.4byte	0x1d3
 15472 2841 02       		.uleb128 0x2
 15473 2842 91       		.byte	0x91
 15474 2843 73       		.sleb128 -13
 15475 2844 00       		.byte	0
 15476 2845 25       		.uleb128 0x25
 15477 2846 A3020000 		.4byte	.LASF413
 15478 284a 01       		.byte	0x1
 15479 284b F603     		.2byte	0x3f6
 15480 284d D3010000 		.4byte	0x1d3
 15481 2851 00000000 		.4byte	.LFB38
 15482 2855 40000000 		.4byte	.LFE38-.LFB38
 15483 2859 01       		.uleb128 0x1
 15484 285a 9C       		.byte	0x9c
 15485 285b 8D280000 		.4byte	0x288d
 15486 285f 26       		.uleb128 0x26
 15487 2860 44657600 		.ascii	"Dev\000"
 15488 2864 01       		.byte	0x1
 15489 2865 F603     		.2byte	0x3f6
 15490 2867 9E0F0000 		.4byte	0xf9e
 15491 286b 02       		.uleb128 0x2
 15492 286c 91       		.byte	0x91
 15493 286d 6C       		.sleb128 -20
 15494 286e 27       		.uleb128 0x27
 15495 286f EE170000 		.4byte	.LASF414
 15496 2873 01       		.byte	0x1
 15497 2874 F703     		.2byte	0x3f7
 15498 2876 54100000 		.4byte	0x1054
 15499 287a 02       		.uleb128 0x2
 15500 287b 91       		.byte	0x91
 15501 287c 68       		.sleb128 -24
 15502 287d 28       		.uleb128 0x28
 15503 287e 8D020000 		.4byte	.LASF256
 15504 2882 01       		.byte	0x1
ARM GAS  C:\Users\PCHAUT~1\AppData\Local\Temp\ccZvjaUR.s 			page 273


 15505 2883 F903     		.2byte	0x3f9
 15506 2885 D3010000 		.4byte	0x1d3
 15507 2889 02       		.uleb128 0x2
 15508 288a 91       		.byte	0x91
 15509 288b 73       		.sleb128 -13
 15510 288c 00       		.byte	0
 15511 288d 25       		.uleb128 0x25
 15512 288e 91010000 		.4byte	.LASF415
 15513 2892 01       		.byte	0x1
 15514 2893 E803     		.2byte	0x3e8
 15515 2895 D3010000 		.4byte	0x1d3
 15516 2899 00000000 		.4byte	.LFB37
 15517 289d 40000000 		.4byte	.LFE37-.LFB37
 15518 28a1 01       		.uleb128 0x1
 15519 28a2 9C       		.byte	0x9c
 15520 28a3 D5280000 		.4byte	0x28d5
 15521 28a7 26       		.uleb128 0x26
 15522 28a8 44657600 		.ascii	"Dev\000"
 15523 28ac 01       		.byte	0x1
 15524 28ad E803     		.2byte	0x3e8
 15525 28af 9E0F0000 		.4byte	0xf9e
 15526 28b3 02       		.uleb128 0x2
 15527 28b4 91       		.byte	0x91
 15528 28b5 6C       		.sleb128 -20
 15529 28b6 27       		.uleb128 0x27
 15530 28b7 020E0000 		.4byte	.LASF44
 15531 28bb 01       		.byte	0x1
 15532 28bc E903     		.2byte	0x3e9
 15533 28be E4000000 		.4byte	0xe4
 15534 28c2 02       		.uleb128 0x2
 15535 28c3 91       		.byte	0x91
 15536 28c4 68       		.sleb128 -24
 15537 28c5 28       		.uleb128 0x28
 15538 28c6 8D020000 		.4byte	.LASF256
 15539 28ca 01       		.byte	0x1
 15540 28cb EB03     		.2byte	0x3eb
 15541 28cd D3010000 		.4byte	0x1d3
 15542 28d1 02       		.uleb128 0x2
 15543 28d2 91       		.byte	0x91
 15544 28d3 73       		.sleb128 -13
 15545 28d4 00       		.byte	0
 15546 28d5 25       		.uleb128 0x25
 15547 28d6 D70A0000 		.4byte	.LASF416
 15548 28da 01       		.byte	0x1
 15549 28db DA03     		.2byte	0x3da
 15550 28dd D3010000 		.4byte	0x1d3
 15551 28e1 00000000 		.4byte	.LFB36
 15552 28e5 34000000 		.4byte	.LFE36-.LFB36
 15553 28e9 01       		.uleb128 0x1
 15554 28ea 9C       		.byte	0x9c
 15555 28eb 1D290000 		.4byte	0x291d
 15556 28ef 26       		.uleb128 0x26
 15557 28f0 44657600 		.ascii	"Dev\000"
 15558 28f4 01       		.byte	0x1
 15559 28f5 DA03     		.2byte	0x3da
 15560 28f7 9E0F0000 		.4byte	0xf9e
 15561 28fb 02       		.uleb128 0x2
ARM GAS  C:\Users\PCHAUT~1\AppData\Local\Temp\ccZvjaUR.s 			page 274


 15562 28fc 91       		.byte	0x91
 15563 28fd 6C       		.sleb128 -20
 15564 28fe 27       		.uleb128 0x27
 15565 28ff 94020000 		.4byte	.LASF417
 15566 2903 01       		.byte	0x1
 15567 2904 DB03     		.2byte	0x3db
 15568 2906 1D290000 		.4byte	0x291d
 15569 290a 02       		.uleb128 0x2
 15570 290b 91       		.byte	0x91
 15571 290c 68       		.sleb128 -24
 15572 290d 28       		.uleb128 0x28
 15573 290e 8D020000 		.4byte	.LASF256
 15574 2912 01       		.byte	0x1
 15575 2913 DD03     		.2byte	0x3dd
 15576 2915 D3010000 		.4byte	0x1d3
 15577 2919 02       		.uleb128 0x2
 15578 291a 91       		.byte	0x91
 15579 291b 73       		.sleb128 -13
 15580 291c 00       		.byte	0
 15581 291d 0F       		.uleb128 0xf
 15582 291e 04       		.byte	0x4
 15583 291f E9010000 		.4byte	0x1e9
 15584 2923 25       		.uleb128 0x25
 15585 2924 39100000 		.4byte	.LASF418
 15586 2928 01       		.byte	0x1
 15587 2929 CC03     		.2byte	0x3cc
 15588 292b D3010000 		.4byte	0x1d3
 15589 292f 00000000 		.4byte	.LFB35
 15590 2933 38000000 		.4byte	.LFE35-.LFB35
 15591 2937 01       		.uleb128 0x1
 15592 2938 9C       		.byte	0x9c
 15593 2939 6B290000 		.4byte	0x296b
 15594 293d 26       		.uleb128 0x26
 15595 293e 44657600 		.ascii	"Dev\000"
 15596 2942 01       		.byte	0x1
 15597 2943 CC03     		.2byte	0x3cc
 15598 2945 9E0F0000 		.4byte	0xf9e
 15599 2949 02       		.uleb128 0x2
 15600 294a 91       		.byte	0x91
 15601 294b 6C       		.sleb128 -20
 15602 294c 27       		.uleb128 0x27
 15603 294d FD000000 		.4byte	.LASF43
 15604 2951 01       		.byte	0x1
 15605 2952 CD03     		.2byte	0x3cd
 15606 2954 E9010000 		.4byte	0x1e9
 15607 2958 02       		.uleb128 0x2
 15608 2959 91       		.byte	0x91
 15609 295a 6B       		.sleb128 -21
 15610 295b 28       		.uleb128 0x28
 15611 295c 8D020000 		.4byte	.LASF256
 15612 2960 01       		.byte	0x1
 15613 2961 CF03     		.2byte	0x3cf
 15614 2963 D3010000 		.4byte	0x1d3
 15615 2967 02       		.uleb128 0x2
 15616 2968 91       		.byte	0x91
 15617 2969 73       		.sleb128 -13
 15618 296a 00       		.byte	0
ARM GAS  C:\Users\PCHAUT~1\AppData\Local\Temp\ccZvjaUR.s 			page 275


 15619 296b 25       		.uleb128 0x25
 15620 296c AD170000 		.4byte	.LASF419
 15621 2970 01       		.byte	0x1
 15622 2971 BE03     		.2byte	0x3be
 15623 2973 D3010000 		.4byte	0x1d3
 15624 2977 00000000 		.4byte	.LFB34
 15625 297b 58000000 		.4byte	.LFE34-.LFB34
 15626 297f 01       		.uleb128 0x1
 15627 2980 9C       		.byte	0x9c
 15628 2981 B3290000 		.4byte	0x29b3
 15629 2985 26       		.uleb128 0x26
 15630 2986 44657600 		.ascii	"Dev\000"
 15631 298a 01       		.byte	0x1
 15632 298b BE03     		.2byte	0x3be
 15633 298d 9E0F0000 		.4byte	0xf9e
 15634 2991 02       		.uleb128 0x2
 15635 2992 91       		.byte	0x91
 15636 2993 6C       		.sleb128 -20
 15637 2994 27       		.uleb128 0x27
 15638 2995 04020000 		.4byte	.LASF420
 15639 2999 01       		.byte	0x1
 15640 299a BE03     		.2byte	0x3be
 15641 299c C0060000 		.4byte	0x6c0
 15642 29a0 02       		.uleb128 0x2
 15643 29a1 91       		.byte	0x91
 15644 29a2 68       		.sleb128 -24
 15645 29a3 28       		.uleb128 0x28
 15646 29a4 8D020000 		.4byte	.LASF256
 15647 29a8 01       		.byte	0x1
 15648 29a9 C003     		.2byte	0x3c0
 15649 29ab D3010000 		.4byte	0x1d3
 15650 29af 02       		.uleb128 0x2
 15651 29b0 91       		.byte	0x91
 15652 29b1 73       		.sleb128 -13
 15653 29b2 00       		.byte	0
 15654 29b3 25       		.uleb128 0x25
 15655 29b4 94130000 		.4byte	.LASF421
 15656 29b8 01       		.byte	0x1
 15657 29b9 AF03     		.2byte	0x3af
 15658 29bb D3010000 		.4byte	0x1d3
 15659 29bf 00000000 		.4byte	.LFB33
 15660 29c3 5C000000 		.4byte	.LFE33-.LFB33
 15661 29c7 01       		.uleb128 0x1
 15662 29c8 9C       		.byte	0x9c
 15663 29c9 FB290000 		.4byte	0x29fb
 15664 29cd 26       		.uleb128 0x26
 15665 29ce 44657600 		.ascii	"Dev\000"
 15666 29d2 01       		.byte	0x1
 15667 29d3 AF03     		.2byte	0x3af
 15668 29d5 9E0F0000 		.4byte	0xf9e
 15669 29d9 02       		.uleb128 0x2
 15670 29da 91       		.byte	0x91
 15671 29db 6C       		.sleb128 -20
 15672 29dc 27       		.uleb128 0x27
 15673 29dd 8B200000 		.4byte	.LASF422
 15674 29e1 01       		.byte	0x1
 15675 29e2 AF03     		.2byte	0x3af
ARM GAS  C:\Users\PCHAUT~1\AppData\Local\Temp\ccZvjaUR.s 			page 276


 15676 29e4 B8000000 		.4byte	0xb8
 15677 29e8 02       		.uleb128 0x2
 15678 29e9 91       		.byte	0x91
 15679 29ea 6B       		.sleb128 -21
 15680 29eb 28       		.uleb128 0x28
 15681 29ec 8D020000 		.4byte	.LASF256
 15682 29f0 01       		.byte	0x1
 15683 29f1 B103     		.2byte	0x3b1
 15684 29f3 D3010000 		.4byte	0x1d3
 15685 29f7 02       		.uleb128 0x2
 15686 29f8 91       		.byte	0x91
 15687 29f9 73       		.sleb128 -13
 15688 29fa 00       		.byte	0
 15689 29fb 25       		.uleb128 0x25
 15690 29fc AB0B0000 		.4byte	.LASF423
 15691 2a00 01       		.byte	0x1
 15692 2a01 A303     		.2byte	0x3a3
 15693 2a03 D3010000 		.4byte	0x1d3
 15694 2a07 00000000 		.4byte	.LFB32
 15695 2a0b 3C000000 		.4byte	.LFE32-.LFB32
 15696 2a0f 01       		.uleb128 0x1
 15697 2a10 9C       		.byte	0x9c
 15698 2a11 432A0000 		.4byte	0x2a43
 15699 2a15 26       		.uleb128 0x26
 15700 2a16 44657600 		.ascii	"Dev\000"
 15701 2a1a 01       		.byte	0x1
 15702 2a1b A303     		.2byte	0x3a3
 15703 2a1d 9E0F0000 		.4byte	0xf9e
 15704 2a21 02       		.uleb128 0x2
 15705 2a22 91       		.byte	0x91
 15706 2a23 6C       		.sleb128 -20
 15707 2a24 27       		.uleb128 0x27
 15708 2a25 DE190000 		.4byte	.LASF284
 15709 2a29 01       		.byte	0x1
 15710 2a2a A403     		.2byte	0x3a4
 15711 2a2c 2B150000 		.4byte	0x152b
 15712 2a30 02       		.uleb128 0x2
 15713 2a31 91       		.byte	0x91
 15714 2a32 68       		.sleb128 -24
 15715 2a33 28       		.uleb128 0x28
 15716 2a34 8D020000 		.4byte	.LASF256
 15717 2a38 01       		.byte	0x1
 15718 2a39 A603     		.2byte	0x3a6
 15719 2a3b D3010000 		.4byte	0x1d3
 15720 2a3f 02       		.uleb128 0x2
 15721 2a40 91       		.byte	0x91
 15722 2a41 73       		.sleb128 -13
 15723 2a42 00       		.byte	0
 15724 2a43 25       		.uleb128 0x25
 15725 2a44 91210000 		.4byte	.LASF424
 15726 2a48 01       		.byte	0x1
 15727 2a49 8B03     		.2byte	0x38b
 15728 2a4b D3010000 		.4byte	0x1d3
 15729 2a4f 00000000 		.4byte	.LFB31
 15730 2a53 B0000000 		.4byte	.LFE31-.LFB31
 15731 2a57 01       		.uleb128 0x1
 15732 2a58 9C       		.byte	0x9c
ARM GAS  C:\Users\PCHAUT~1\AppData\Local\Temp\ccZvjaUR.s 			page 277


 15733 2a59 8B2A0000 		.4byte	0x2a8b
 15734 2a5d 26       		.uleb128 0x26
 15735 2a5e 44657600 		.ascii	"Dev\000"
 15736 2a62 01       		.byte	0x1
 15737 2a63 8B03     		.2byte	0x38b
 15738 2a65 9E0F0000 		.4byte	0xf9e
 15739 2a69 02       		.uleb128 0x2
 15740 2a6a 91       		.byte	0x91
 15741 2a6b 6C       		.sleb128 -20
 15742 2a6c 27       		.uleb128 0x27
 15743 2a6d E0140000 		.4byte	.LASF42
 15744 2a71 01       		.byte	0x1
 15745 2a72 8B03     		.2byte	0x38b
 15746 2a74 DE010000 		.4byte	0x1de
 15747 2a78 02       		.uleb128 0x2
 15748 2a79 91       		.byte	0x91
 15749 2a7a 6B       		.sleb128 -21
 15750 2a7b 28       		.uleb128 0x28
 15751 2a7c 8D020000 		.4byte	.LASF256
 15752 2a80 01       		.byte	0x1
 15753 2a81 8D03     		.2byte	0x38d
 15754 2a83 D3010000 		.4byte	0x1d3
 15755 2a87 02       		.uleb128 0x2
 15756 2a88 91       		.byte	0x91
 15757 2a89 73       		.sleb128 -13
 15758 2a8a 00       		.byte	0
 15759 2a8b 25       		.uleb128 0x25
 15760 2a8c EA180000 		.4byte	.LASF425
 15761 2a90 01       		.byte	0x1
 15762 2a91 4B03     		.2byte	0x34b
 15763 2a93 D3010000 		.4byte	0x1d3
 15764 2a97 00000000 		.4byte	.LFB30
 15765 2a9b 4C010000 		.4byte	.LFE30-.LFB30
 15766 2a9f 01       		.uleb128 0x1
 15767 2aa0 9C       		.byte	0x9c
 15768 2aa1 E02A0000 		.4byte	0x2ae0
 15769 2aa5 26       		.uleb128 0x26
 15770 2aa6 44657600 		.ascii	"Dev\000"
 15771 2aaa 01       		.byte	0x1
 15772 2aab 4B03     		.2byte	0x34b
 15773 2aad 9E0F0000 		.4byte	0xf9e
 15774 2ab1 02       		.uleb128 0x2
 15775 2ab2 91       		.byte	0x91
 15776 2ab3 64       		.sleb128 -28
 15777 2ab4 27       		.uleb128 0x27
 15778 2ab5 B0140000 		.4byte	.LASF426
 15779 2ab9 01       		.byte	0x1
 15780 2aba 4C03     		.2byte	0x34c
 15781 2abc E02A0000 		.4byte	0x2ae0
 15782 2ac0 02       		.uleb128 0x2
 15783 2ac1 91       		.byte	0x91
 15784 2ac2 60       		.sleb128 -32
 15785 2ac3 28       		.uleb128 0x28
 15786 2ac4 8D020000 		.4byte	.LASF256
 15787 2ac8 01       		.byte	0x1
 15788 2ac9 4E03     		.2byte	0x34e
 15789 2acb D3010000 		.4byte	0x1d3
ARM GAS  C:\Users\PCHAUT~1\AppData\Local\Temp\ccZvjaUR.s 			page 278


 15790 2acf 02       		.uleb128 0x2
 15791 2ad0 91       		.byte	0x91
 15792 2ad1 6F       		.sleb128 -17
 15793 2ad2 29       		.uleb128 0x29
 15794 2ad3 6900     		.ascii	"i\000"
 15795 2ad5 01       		.byte	0x1
 15796 2ad6 4F03     		.2byte	0x34f
 15797 2ad8 9F000000 		.4byte	0x9f
 15798 2adc 02       		.uleb128 0x2
 15799 2add 91       		.byte	0x91
 15800 2ade 70       		.sleb128 -16
 15801 2adf 00       		.byte	0
 15802 2ae0 0F       		.uleb128 0xf
 15803 2ae1 04       		.byte	0x4
 15804 2ae2 BB020000 		.4byte	0x2bb
 15805 2ae6 25       		.uleb128 0x25
 15806 2ae7 CF0D0000 		.4byte	.LASF427
 15807 2aeb 01       		.byte	0x1
 15808 2aec 1803     		.2byte	0x318
 15809 2aee D3010000 		.4byte	0x1d3
 15810 2af2 00000000 		.4byte	.LFB29
 15811 2af6 3C010000 		.4byte	.LFE29-.LFB29
 15812 2afa 01       		.uleb128 0x1
 15813 2afb 9C       		.byte	0x9c
 15814 2afc 3B2B0000 		.4byte	0x2b3b
 15815 2b00 26       		.uleb128 0x26
 15816 2b01 44657600 		.ascii	"Dev\000"
 15817 2b05 01       		.byte	0x1
 15818 2b06 1803     		.2byte	0x318
 15819 2b08 9E0F0000 		.4byte	0xf9e
 15820 2b0c 02       		.uleb128 0x2
 15821 2b0d 91       		.byte	0x91
 15822 2b0e 64       		.sleb128 -28
 15823 2b0f 27       		.uleb128 0x27
 15824 2b10 B0140000 		.4byte	.LASF426
 15825 2b14 01       		.byte	0x1
 15826 2b15 1903     		.2byte	0x319
 15827 2b17 3B2B0000 		.4byte	0x2b3b
 15828 2b1b 02       		.uleb128 0x2
 15829 2b1c 91       		.byte	0x91
 15830 2b1d 60       		.sleb128 -32
 15831 2b1e 28       		.uleb128 0x28
 15832 2b1f 8D020000 		.4byte	.LASF256
 15833 2b23 01       		.byte	0x1
 15834 2b24 1B03     		.2byte	0x31b
 15835 2b26 D3010000 		.4byte	0x1d3
 15836 2b2a 02       		.uleb128 0x2
 15837 2b2b 91       		.byte	0x91
 15838 2b2c 6F       		.sleb128 -17
 15839 2b2d 29       		.uleb128 0x29
 15840 2b2e 6900     		.ascii	"i\000"
 15841 2b30 01       		.byte	0x1
 15842 2b31 1C03     		.2byte	0x31c
 15843 2b33 9F000000 		.4byte	0x9f
 15844 2b37 02       		.uleb128 0x2
 15845 2b38 91       		.byte	0x91
 15846 2b39 70       		.sleb128 -16
ARM GAS  C:\Users\PCHAUT~1\AppData\Local\Temp\ccZvjaUR.s 			page 279


 15847 2b3a 00       		.byte	0
 15848 2b3b 0F       		.uleb128 0xf
 15849 2b3c 04       		.byte	0x4
 15850 2b3d C7020000 		.4byte	0x2c7
 15851 2b41 25       		.uleb128 0x25
 15852 2b42 39220000 		.4byte	.LASF428
 15853 2b46 01       		.byte	0x1
 15854 2b47 EB02     		.2byte	0x2eb
 15855 2b49 D3010000 		.4byte	0x1d3
 15856 2b4d 00000000 		.4byte	.LFB28
 15857 2b51 B4000000 		.4byte	.LFE28-.LFB28
 15858 2b55 01       		.uleb128 0x1
 15859 2b56 9C       		.byte	0x9c
 15860 2b57 892B0000 		.4byte	0x2b89
 15861 2b5b 26       		.uleb128 0x26
 15862 2b5c 44657600 		.ascii	"Dev\000"
 15863 2b60 01       		.byte	0x1
 15864 2b61 EB02     		.2byte	0x2eb
 15865 2b63 9E0F0000 		.4byte	0xf9e
 15866 2b67 02       		.uleb128 0x2
 15867 2b68 91       		.byte	0x91
 15868 2b69 6C       		.sleb128 -20
 15869 2b6a 28       		.uleb128 0x28
 15870 2b6b 8D020000 		.4byte	.LASF256
 15871 2b6f 01       		.byte	0x1
 15872 2b70 ED02     		.2byte	0x2ed
 15873 2b72 D3010000 		.4byte	0x1d3
 15874 2b76 02       		.uleb128 0x2
 15875 2b77 91       		.byte	0x91
 15876 2b78 73       		.sleb128 -13
 15877 2b79 28       		.uleb128 0x28
 15878 2b7a DD0B0000 		.4byte	.LASF261
 15879 2b7e 01       		.byte	0x1
 15880 2b7f EE02     		.2byte	0x2ee
 15881 2b81 B8000000 		.4byte	0xb8
 15882 2b85 02       		.uleb128 0x2
 15883 2b86 91       		.byte	0x91
 15884 2b87 72       		.sleb128 -14
 15885 2b88 00       		.byte	0
 15886 2b89 25       		.uleb128 0x25
 15887 2b8a 370A0000 		.4byte	.LASF429
 15888 2b8e 01       		.byte	0x1
 15889 2b8f DF02     		.2byte	0x2df
 15890 2b91 D3010000 		.4byte	0x1d3
 15891 2b95 00000000 		.4byte	.LFB27
 15892 2b99 30000000 		.4byte	.LFE27-.LFB27
 15893 2b9d 01       		.uleb128 0x1
 15894 2b9e 9C       		.byte	0x9c
 15895 2b9f C22B0000 		.4byte	0x2bc2
 15896 2ba3 26       		.uleb128 0x26
 15897 2ba4 44657600 		.ascii	"Dev\000"
 15898 2ba8 01       		.byte	0x1
 15899 2ba9 DF02     		.2byte	0x2df
 15900 2bab 9E0F0000 		.4byte	0xf9e
 15901 2baf 02       		.uleb128 0x2
 15902 2bb0 91       		.byte	0x91
 15903 2bb1 6C       		.sleb128 -20
ARM GAS  C:\Users\PCHAUT~1\AppData\Local\Temp\ccZvjaUR.s 			page 280


 15904 2bb2 28       		.uleb128 0x28
 15905 2bb3 8D020000 		.4byte	.LASF256
 15906 2bb7 01       		.byte	0x1
 15907 2bb8 E102     		.2byte	0x2e1
 15908 2bba D3010000 		.4byte	0x1d3
 15909 2bbe 02       		.uleb128 0x2
 15910 2bbf 91       		.byte	0x91
 15911 2bc0 73       		.sleb128 -13
 15912 2bc1 00       		.byte	0
 15913 2bc2 25       		.uleb128 0x25
 15914 2bc3 B81D0000 		.4byte	.LASF430
 15915 2bc7 01       		.byte	0x1
 15916 2bc8 2C02     		.2byte	0x22c
 15917 2bca D3010000 		.4byte	0x1d3
 15918 2bce 00000000 		.4byte	.LFB26
 15919 2bd2 18030000 		.4byte	.LFE26-.LFB26
 15920 2bd6 01       		.uleb128 0x1
 15921 2bd7 9C       		.byte	0x9c
 15922 2bd8 AD2C0000 		.4byte	0x2cad
 15923 2bdc 26       		.uleb128 0x26
 15924 2bdd 44657600 		.ascii	"Dev\000"
 15925 2be1 01       		.byte	0x1
 15926 2be2 2C02     		.2byte	0x22c
 15927 2be4 9E0F0000 		.4byte	0xf9e
 15928 2be8 03       		.uleb128 0x3
 15929 2be9 91       		.byte	0x91
 15930 2bea 8C7F     		.sleb128 -116
 15931 2bec 28       		.uleb128 0x28
 15932 2bed 8D020000 		.4byte	.LASF256
 15933 2bf1 01       		.byte	0x1
 15934 2bf2 2E02     		.2byte	0x22e
 15935 2bf4 D3010000 		.4byte	0x1d3
 15936 2bf8 03       		.uleb128 0x3
 15937 2bf9 91       		.byte	0x91
 15938 2bfa 977F     		.sleb128 -105
 15939 2bfc 28       		.uleb128 0x28
 15940 2bfd B81A0000 		.4byte	.LASF103
 15941 2c01 01       		.byte	0x1
 15942 2c02 2F02     		.2byte	0x22f
 15943 2c04 BB020000 		.4byte	0x2bb
 15944 2c08 03       		.uleb128 0x3
 15945 2c09 91       		.byte	0x91
 15946 2c0a AC7F     		.sleb128 -84
 15947 2c0c 28       		.uleb128 0x28
 15948 2c0d 9C160000 		.4byte	.LASF431
 15949 2c11 01       		.byte	0x1
 15950 2c12 3002     		.2byte	0x230
 15951 2c14 C0060000 		.4byte	0x6c0
 15952 2c18 03       		.uleb128 0x3
 15953 2c19 91       		.byte	0x91
 15954 2c1a A47F     		.sleb128 -92
 15955 2c1c 28       		.uleb128 0x28
 15956 2c1d D2020000 		.4byte	.LASF432
 15957 2c21 01       		.byte	0x1
 15958 2c22 3102     		.2byte	0x231
 15959 2c24 CE000000 		.4byte	0xce
 15960 2c28 03       		.uleb128 0x3
ARM GAS  C:\Users\PCHAUT~1\AppData\Local\Temp\ccZvjaUR.s 			page 281


 15961 2c29 91       		.byte	0x91
 15962 2c2a 9A7F     		.sleb128 -102
 15963 2c2c 28       		.uleb128 0x28
 15964 2c2d 430F0000 		.4byte	.LASF433
 15965 2c31 01       		.byte	0x1
 15966 2c32 3202     		.2byte	0x232
 15967 2c34 B8000000 		.4byte	0xb8
 15968 2c38 03       		.uleb128 0x3
 15969 2c39 91       		.byte	0x91
 15970 2c3a 947F     		.sleb128 -108
 15971 2c3c 28       		.uleb128 0x28
 15972 2c3d FD090000 		.4byte	.LASF118
 15973 2c41 01       		.byte	0x1
 15974 2c42 3302     		.2byte	0x233
 15975 2c44 B8000000 		.4byte	0xb8
 15976 2c48 03       		.uleb128 0x3
 15977 2c49 91       		.byte	0x91
 15978 2c4a 987F     		.sleb128 -104
 15979 2c4c 28       		.uleb128 0x28
 15980 2c4d FB0C0000 		.4byte	.LASF258
 15981 2c51 01       		.byte	0x1
 15982 2c52 3402     		.2byte	0x234
 15983 2c54 E4000000 		.4byte	0xe4
 15984 2c58 03       		.uleb128 0x3
 15985 2c59 91       		.byte	0x91
 15986 2c5a A87F     		.sleb128 -88
 15987 2c5c 28       		.uleb128 0x28
 15988 2c5d A0140000 		.4byte	.LASF251
 15989 2c61 01       		.byte	0x1
 15990 2c62 3502     		.2byte	0x235
 15991 2c64 B8000000 		.4byte	0xb8
 15992 2c68 03       		.uleb128 0x3
 15993 2c69 91       		.byte	0x91
 15994 2c6a 957F     		.sleb128 -107
 15995 2c6c 28       		.uleb128 0x28
 15996 2c6d A80E0000 		.4byte	.LASF250
 15997 2c71 01       		.byte	0x1
 15998 2c72 3602     		.2byte	0x236
 15999 2c74 E4000000 		.4byte	0xe4
 16000 2c78 03       		.uleb128 0x3
 16001 2c79 91       		.byte	0x91
 16002 2c7a 9C7F     		.sleb128 -100
 16003 2c7c 28       		.uleb128 0x28
 16004 2c7d 8C190000 		.4byte	.LASF434
 16005 2c81 01       		.byte	0x1
 16006 2c82 3702     		.2byte	0x237
 16007 2c84 B8000000 		.4byte	0xb8
 16008 2c88 03       		.uleb128 0x3
 16009 2c89 91       		.byte	0x91
 16010 2c8a 997F     		.sleb128 -103
 16011 2c8c 28       		.uleb128 0x28
 16012 2c8d 24120000 		.4byte	.LASF435
 16013 2c91 01       		.byte	0x1
 16014 2c92 3802     		.2byte	0x238
 16015 2c94 B8000000 		.4byte	0xb8
 16016 2c98 03       		.uleb128 0x3
 16017 2c99 91       		.byte	0x91
ARM GAS  C:\Users\PCHAUT~1\AppData\Local\Temp\ccZvjaUR.s 			page 282


 16018 2c9a 967F     		.sleb128 -106
 16019 2c9c 28       		.uleb128 0x28
 16020 2c9d BF090000 		.4byte	.LASF436
 16021 2ca1 01       		.byte	0x1
 16022 2ca2 3902     		.2byte	0x239
 16023 2ca4 E4000000 		.4byte	0xe4
 16024 2ca8 03       		.uleb128 0x3
 16025 2ca9 91       		.byte	0x91
 16026 2caa A07F     		.sleb128 -96
 16027 2cac 00       		.byte	0
 16028 2cad 25       		.uleb128 0x25
 16029 2cae 50060000 		.4byte	.LASF437
 16030 2cb2 01       		.byte	0x1
 16031 2cb3 1D02     		.2byte	0x21d
 16032 2cb5 D3010000 		.4byte	0x1d3
 16033 2cb9 00000000 		.4byte	.LFB25
 16034 2cbd 48000000 		.4byte	.LFE25-.LFB25
 16035 2cc1 01       		.uleb128 0x1
 16036 2cc2 9C       		.byte	0x9c
 16037 2cc3 042D0000 		.4byte	0x2d04
 16038 2cc7 26       		.uleb128 0x26
 16039 2cc8 44657600 		.ascii	"Dev\000"
 16040 2ccc 01       		.byte	0x1
 16041 2ccd 1D02     		.2byte	0x21d
 16042 2ccf 9E0F0000 		.4byte	0xf9e
 16043 2cd3 02       		.uleb128 0x2
 16044 2cd4 91       		.byte	0x91
 16045 2cd5 6C       		.sleb128 -20
 16046 2cd6 27       		.uleb128 0x27
 16047 2cd7 9B0F0000 		.4byte	.LASF438
 16048 2cdb 01       		.byte	0x1
 16049 2cdc 1E02     		.2byte	0x21e
 16050 2cde 042D0000 		.4byte	0x2d04
 16051 2ce2 02       		.uleb128 0x2
 16052 2ce3 91       		.byte	0x91
 16053 2ce4 68       		.sleb128 -24
 16054 2ce5 27       		.uleb128 0x27
 16055 2ce6 2E110000 		.4byte	.LASF439
 16056 2cea 01       		.byte	0x1
 16057 2ceb 1E02     		.2byte	0x21e
 16058 2ced C0060000 		.4byte	0x6c0
 16059 2cf1 02       		.uleb128 0x2
 16060 2cf2 91       		.byte	0x91
 16061 2cf3 64       		.sleb128 -28
 16062 2cf4 28       		.uleb128 0x28
 16063 2cf5 8D020000 		.4byte	.LASF256
 16064 2cf9 01       		.byte	0x1
 16065 2cfa 2002     		.2byte	0x220
 16066 2cfc D3010000 		.4byte	0x1d3
 16067 2d00 02       		.uleb128 0x2
 16068 2d01 91       		.byte	0x91
 16069 2d02 73       		.sleb128 -13
 16070 2d03 00       		.byte	0
 16071 2d04 0F       		.uleb128 0xf
 16072 2d05 04       		.byte	0x4
 16073 2d06 C0060000 		.4byte	0x6c0
 16074 2d0a 25       		.uleb128 0x25
ARM GAS  C:\Users\PCHAUT~1\AppData\Local\Temp\ccZvjaUR.s 			page 283


 16075 2d0b F8020000 		.4byte	.LASF440
 16076 2d0f 01       		.byte	0x1
 16077 2d10 0202     		.2byte	0x202
 16078 2d12 D3010000 		.4byte	0x1d3
 16079 2d16 00000000 		.4byte	.LFB24
 16080 2d1a 6C000000 		.4byte	.LFE24-.LFB24
 16081 2d1e 01       		.uleb128 0x1
 16082 2d1f 9C       		.byte	0x9c
 16083 2d20 612D0000 		.4byte	0x2d61
 16084 2d24 26       		.uleb128 0x26
 16085 2d25 44657600 		.ascii	"Dev\000"
 16086 2d29 01       		.byte	0x1
 16087 2d2a 0202     		.2byte	0x202
 16088 2d2c 9E0F0000 		.4byte	0xf9e
 16089 2d30 02       		.uleb128 0x2
 16090 2d31 91       		.byte	0x91
 16091 2d32 6C       		.sleb128 -20
 16092 2d33 27       		.uleb128 0x27
 16093 2d34 9C160000 		.4byte	.LASF431
 16094 2d38 01       		.byte	0x1
 16095 2d39 0302     		.2byte	0x203
 16096 2d3b C0060000 		.4byte	0x6c0
 16097 2d3f 02       		.uleb128 0x2
 16098 2d40 91       		.byte	0x91
 16099 2d41 68       		.sleb128 -24
 16100 2d42 27       		.uleb128 0x27
 16101 2d43 FD090000 		.4byte	.LASF118
 16102 2d47 01       		.byte	0x1
 16103 2d48 0302     		.2byte	0x203
 16104 2d4a B8000000 		.4byte	0xb8
 16105 2d4e 02       		.uleb128 0x2
 16106 2d4f 91       		.byte	0x91
 16107 2d50 67       		.sleb128 -25
 16108 2d51 28       		.uleb128 0x28
 16109 2d52 8D020000 		.4byte	.LASF256
 16110 2d56 01       		.byte	0x1
 16111 2d57 0502     		.2byte	0x205
 16112 2d59 D3010000 		.4byte	0x1d3
 16113 2d5d 02       		.uleb128 0x2
 16114 2d5e 91       		.byte	0x91
 16115 2d5f 73       		.sleb128 -13
 16116 2d60 00       		.byte	0
 16117 2d61 25       		.uleb128 0x25
 16118 2d62 28160000 		.4byte	.LASF441
 16119 2d66 01       		.byte	0x1
 16120 2d67 7501     		.2byte	0x175
 16121 2d69 D3010000 		.4byte	0x1d3
 16122 2d6d 00000000 		.4byte	.LFB23
 16123 2d71 DC020000 		.4byte	.LFE23-.LFB23
 16124 2d75 01       		.uleb128 0x1
 16125 2d76 9C       		.byte	0x9c
 16126 2d77 CA2D0000 		.4byte	0x2dca
 16127 2d7b 26       		.uleb128 0x26
 16128 2d7c 44657600 		.ascii	"Dev\000"
 16129 2d80 01       		.byte	0x1
 16130 2d81 7501     		.2byte	0x175
 16131 2d83 9E0F0000 		.4byte	0xf9e
ARM GAS  C:\Users\PCHAUT~1\AppData\Local\Temp\ccZvjaUR.s 			page 284


 16132 2d87 03       		.uleb128 0x3
 16133 2d88 91       		.byte	0x91
 16134 2d89 9C7F     		.sleb128 -100
 16135 2d8b 28       		.uleb128 0x28
 16136 2d8c 8D020000 		.4byte	.LASF256
 16137 2d90 01       		.byte	0x1
 16138 2d91 7701     		.2byte	0x177
 16139 2d93 D3010000 		.4byte	0x1d3
 16140 2d97 03       		.uleb128 0x3
 16141 2d98 91       		.byte	0x91
 16142 2d99 A77F     		.sleb128 -89
 16143 2d9b 28       		.uleb128 0x28
 16144 2d9c B81A0000 		.4byte	.LASF103
 16145 2da0 01       		.byte	0x1
 16146 2da1 7801     		.2byte	0x178
 16147 2da3 BB020000 		.4byte	0x2bb
 16148 2da7 03       		.uleb128 0x3
 16149 2da8 91       		.byte	0x91
 16150 2da9 AC7F     		.sleb128 -84
 16151 2dab 29       		.uleb128 0x29
 16152 2dac 6900     		.ascii	"i\000"
 16153 2dae 01       		.byte	0x1
 16154 2daf 7901     		.2byte	0x179
 16155 2db1 9F000000 		.4byte	0x9f
 16156 2db5 03       		.uleb128 0x3
 16157 2db6 91       		.byte	0x91
 16158 2db7 A87F     		.sleb128 -88
 16159 2db9 28       		.uleb128 0x28
 16160 2dba 010D0000 		.4byte	.LASF112
 16161 2dbe 01       		.byte	0x1
 16162 2dbf 7A01     		.2byte	0x17a
 16163 2dc1 B8000000 		.4byte	0xb8
 16164 2dc5 03       		.uleb128 0x3
 16165 2dc6 91       		.byte	0x91
 16166 2dc7 A67F     		.sleb128 -90
 16167 2dc9 00       		.byte	0
 16168 2dca 25       		.uleb128 0x25
 16169 2dcb 32090000 		.4byte	.LASF442
 16170 2dcf 01       		.byte	0x1
 16171 2dd0 6901     		.2byte	0x169
 16172 2dd2 D3010000 		.4byte	0x1d3
 16173 2dd6 00000000 		.4byte	.LFB22
 16174 2dda 50000000 		.4byte	.LFE22-.LFB22
 16175 2dde 01       		.uleb128 0x1
 16176 2ddf 9C       		.byte	0x9c
 16177 2de0 122E0000 		.4byte	0x2e12
 16178 2de4 26       		.uleb128 0x26
 16179 2de5 44657600 		.ascii	"Dev\000"
 16180 2de9 01       		.byte	0x1
 16181 2dea 6901     		.2byte	0x169
 16182 2dec 9E0F0000 		.4byte	0xf9e
 16183 2df0 02       		.uleb128 0x2
 16184 2df1 91       		.byte	0x91
 16185 2df2 6C       		.sleb128 -20
 16186 2df3 27       		.uleb128 0x27
 16187 2df4 880C0000 		.4byte	.LASF443
 16188 2df8 01       		.byte	0x1
ARM GAS  C:\Users\PCHAUT~1\AppData\Local\Temp\ccZvjaUR.s 			page 285


 16189 2df9 6901     		.2byte	0x169
 16190 2dfb B8000000 		.4byte	0xb8
 16191 2dff 02       		.uleb128 0x2
 16192 2e00 91       		.byte	0x91
 16193 2e01 6B       		.sleb128 -21
 16194 2e02 28       		.uleb128 0x28
 16195 2e03 8D020000 		.4byte	.LASF256
 16196 2e07 01       		.byte	0x1
 16197 2e08 6B01     		.2byte	0x16b
 16198 2e0a D3010000 		.4byte	0x1d3
 16199 2e0e 02       		.uleb128 0x2
 16200 2e0f 91       		.byte	0x91
 16201 2e10 73       		.sleb128 -13
 16202 2e11 00       		.byte	0
 16203 2e12 25       		.uleb128 0x25
 16204 2e13 B3130000 		.4byte	.LASF444
 16205 2e17 01       		.byte	0x1
 16206 2e18 5501     		.2byte	0x155
 16207 2e1a D3010000 		.4byte	0x1d3
 16208 2e1e 00000000 		.4byte	.LFB21
 16209 2e22 58000000 		.4byte	.LFE21-.LFB21
 16210 2e26 01       		.uleb128 0x1
 16211 2e27 9C       		.byte	0x9c
 16212 2e28 692E0000 		.4byte	0x2e69
 16213 2e2c 26       		.uleb128 0x26
 16214 2e2d 44657600 		.ascii	"Dev\000"
 16215 2e31 01       		.byte	0x1
 16216 2e32 5501     		.2byte	0x155
 16217 2e34 9E0F0000 		.4byte	0xf9e
 16218 2e38 02       		.uleb128 0x2
 16219 2e39 91       		.byte	0x91
 16220 2e3a 44       		.sleb128 -60
 16221 2e3b 27       		.uleb128 0x27
 16222 2e3c 881F0000 		.4byte	.LASF445
 16223 2e40 01       		.byte	0x1
 16224 2e41 5601     		.2byte	0x156
 16225 2e43 1D140000 		.4byte	0x141d
 16226 2e47 02       		.uleb128 0x2
 16227 2e48 91       		.byte	0x91
 16228 2e49 40       		.sleb128 -64
 16229 2e4a 28       		.uleb128 0x28
 16230 2e4b 8D020000 		.4byte	.LASF256
 16231 2e4f 01       		.byte	0x1
 16232 2e50 5801     		.2byte	0x158
 16233 2e52 D3010000 		.4byte	0x1d3
 16234 2e56 02       		.uleb128 0x2
 16235 2e57 91       		.byte	0x91
 16236 2e58 4F       		.sleb128 -49
 16237 2e59 28       		.uleb128 0x28
 16238 2e5a 90180000 		.4byte	.LASF313
 16239 2e5e 01       		.byte	0x1
 16240 2e5f 5901     		.2byte	0x159
 16241 2e61 94030000 		.4byte	0x394
 16242 2e65 02       		.uleb128 0x2
 16243 2e66 91       		.byte	0x91
 16244 2e67 50       		.sleb128 -48
 16245 2e68 00       		.byte	0
ARM GAS  C:\Users\PCHAUT~1\AppData\Local\Temp\ccZvjaUR.s 			page 286


 16246 2e69 25       		.uleb128 0x25
 16247 2e6a 72100000 		.4byte	.LASF446
 16248 2e6e 01       		.byte	0x1
 16249 2e6f 4701     		.2byte	0x147
 16250 2e71 D3010000 		.4byte	0x1d3
 16251 2e75 00000000 		.4byte	.LFB20
 16252 2e79 34000000 		.4byte	.LFE20-.LFB20
 16253 2e7d 01       		.uleb128 0x1
 16254 2e7e 9C       		.byte	0x9c
 16255 2e7f B12E0000 		.4byte	0x2eb1
 16256 2e83 26       		.uleb128 0x26
 16257 2e84 44657600 		.ascii	"Dev\000"
 16258 2e88 01       		.byte	0x1
 16259 2e89 4701     		.2byte	0x147
 16260 2e8b 9E0F0000 		.4byte	0xf9e
 16261 2e8f 02       		.uleb128 0x2
 16262 2e90 91       		.byte	0x91
 16263 2e91 6C       		.sleb128 -20
 16264 2e92 27       		.uleb128 0x27
 16265 2e93 241D0000 		.4byte	.LASF447
 16266 2e97 01       		.byte	0x1
 16267 2e98 4801     		.2byte	0x148
 16268 2e9a 5F110000 		.4byte	0x115f
 16269 2e9e 02       		.uleb128 0x2
 16270 2e9f 91       		.byte	0x91
 16271 2ea0 68       		.sleb128 -24
 16272 2ea1 28       		.uleb128 0x28
 16273 2ea2 8D020000 		.4byte	.LASF256
 16274 2ea6 01       		.byte	0x1
 16275 2ea7 4A01     		.2byte	0x14a
 16276 2ea9 D3010000 		.4byte	0x1d3
 16277 2ead 02       		.uleb128 0x2
 16278 2eae 91       		.byte	0x91
 16279 2eaf 73       		.sleb128 -13
 16280 2eb0 00       		.byte	0
 16281 2eb1 25       		.uleb128 0x25
 16282 2eb2 10170000 		.4byte	.LASF448
 16283 2eb6 01       		.byte	0x1
 16284 2eb7 3A01     		.2byte	0x13a
 16285 2eb9 D3010000 		.4byte	0x1d3
 16286 2ebd 00000000 		.4byte	.LFB19
 16287 2ec1 38000000 		.4byte	.LFE19-.LFB19
 16288 2ec5 01       		.uleb128 0x1
 16289 2ec6 9C       		.byte	0x9c
 16290 2ec7 F92E0000 		.4byte	0x2ef9
 16291 2ecb 26       		.uleb128 0x26
 16292 2ecc 44657600 		.ascii	"Dev\000"
 16293 2ed0 01       		.byte	0x1
 16294 2ed1 3A01     		.2byte	0x13a
 16295 2ed3 9E0F0000 		.4byte	0xf9e
 16296 2ed7 02       		.uleb128 0x2
 16297 2ed8 91       		.byte	0x91
 16298 2ed9 6C       		.sleb128 -20
 16299 2eda 27       		.uleb128 0x27
 16300 2edb E81C0000 		.4byte	.LASF449
 16301 2edf 01       		.byte	0x1
 16302 2ee0 3A01     		.2byte	0x13a
ARM GAS  C:\Users\PCHAUT~1\AppData\Local\Temp\ccZvjaUR.s 			page 287


 16303 2ee2 B8000000 		.4byte	0xb8
 16304 2ee6 02       		.uleb128 0x2
 16305 2ee7 91       		.byte	0x91
 16306 2ee8 6B       		.sleb128 -21
 16307 2ee9 28       		.uleb128 0x28
 16308 2eea 8D020000 		.4byte	.LASF256
 16309 2eee 01       		.byte	0x1
 16310 2eef 3C01     		.2byte	0x13c
 16311 2ef1 D3010000 		.4byte	0x1d3
 16312 2ef5 02       		.uleb128 0x2
 16313 2ef6 91       		.byte	0x91
 16314 2ef7 73       		.sleb128 -13
 16315 2ef8 00       		.byte	0
 16316 2ef9 25       		.uleb128 0x25
 16317 2efa 7F170000 		.4byte	.LASF450
 16318 2efe 01       		.byte	0x1
 16319 2eff 2E01     		.2byte	0x12e
 16320 2f01 D3010000 		.4byte	0x1d3
 16321 2f05 00000000 		.4byte	.LFB18
 16322 2f09 3C000000 		.4byte	.LFE18-.LFB18
 16323 2f0d 01       		.uleb128 0x1
 16324 2f0e 9C       		.byte	0x9c
 16325 2f0f 412F0000 		.4byte	0x2f41
 16326 2f13 26       		.uleb128 0x26
 16327 2f14 44657600 		.ascii	"Dev\000"
 16328 2f18 01       		.byte	0x1
 16329 2f19 2E01     		.2byte	0x12e
 16330 2f1b 9E0F0000 		.4byte	0xf9e
 16331 2f1f 02       		.uleb128 0x2
 16332 2f20 91       		.byte	0x91
 16333 2f21 6C       		.sleb128 -20
 16334 2f22 27       		.uleb128 0x27
 16335 2f23 581E0000 		.4byte	.LASF451
 16336 2f27 01       		.byte	0x1
 16337 2f28 2F01     		.2byte	0x12f
 16338 2f2a 5F110000 		.4byte	0x115f
 16339 2f2e 02       		.uleb128 0x2
 16340 2f2f 91       		.byte	0x91
 16341 2f30 68       		.sleb128 -24
 16342 2f31 28       		.uleb128 0x28
 16343 2f32 8D020000 		.4byte	.LASF256
 16344 2f36 01       		.byte	0x1
 16345 2f37 3101     		.2byte	0x131
 16346 2f39 D3010000 		.4byte	0x1d3
 16347 2f3d 02       		.uleb128 0x2
 16348 2f3e 91       		.byte	0x91
 16349 2f3f 73       		.sleb128 -13
 16350 2f40 00       		.byte	0
 16351 2f41 25       		.uleb128 0x25
 16352 2f42 780F0000 		.4byte	.LASF452
 16353 2f46 01       		.byte	0x1
 16354 2f47 1701     		.2byte	0x117
 16355 2f49 D3010000 		.4byte	0x1d3
 16356 2f4d 00000000 		.4byte	.LFB17
 16357 2f51 74000000 		.4byte	.LFE17-.LFB17
 16358 2f55 01       		.uleb128 0x1
 16359 2f56 9C       		.byte	0x9c
ARM GAS  C:\Users\PCHAUT~1\AppData\Local\Temp\ccZvjaUR.s 			page 288


 16360 2f57 892F0000 		.4byte	0x2f89
 16361 2f5b 26       		.uleb128 0x26
 16362 2f5c 44657600 		.ascii	"Dev\000"
 16363 2f60 01       		.byte	0x1
 16364 2f61 1701     		.2byte	0x117
 16365 2f63 9E0F0000 		.4byte	0xf9e
 16366 2f67 02       		.uleb128 0x2
 16367 2f68 91       		.byte	0x91
 16368 2f69 6C       		.sleb128 -20
 16369 2f6a 27       		.uleb128 0x27
 16370 2f6b 7B0A0000 		.4byte	.LASF119
 16371 2f6f 01       		.byte	0x1
 16372 2f70 1801     		.2byte	0x118
 16373 2f72 C3000000 		.4byte	0xc3
 16374 2f76 02       		.uleb128 0x2
 16375 2f77 91       		.byte	0x91
 16376 2f78 6A       		.sleb128 -22
 16377 2f79 28       		.uleb128 0x28
 16378 2f7a 8D020000 		.4byte	.LASF256
 16379 2f7e 01       		.byte	0x1
 16380 2f7f 1A01     		.2byte	0x11a
 16381 2f81 D3010000 		.4byte	0x1d3
 16382 2f85 02       		.uleb128 0x2
 16383 2f86 91       		.byte	0x91
 16384 2f87 73       		.sleb128 -13
 16385 2f88 00       		.byte	0
 16386 2f89 25       		.uleb128 0x25
 16387 2f8a 551A0000 		.4byte	.LASF453
 16388 2f8e 01       		.byte	0x1
 16389 2f8f 0A01     		.2byte	0x10a
 16390 2f91 D3010000 		.4byte	0x1d3
 16391 2f95 00000000 		.4byte	.LFB16
 16392 2f99 40000000 		.4byte	.LFE16-.LFB16
 16393 2f9d 01       		.uleb128 0x1
 16394 2f9e 9C       		.byte	0x9c
 16395 2f9f D12F0000 		.4byte	0x2fd1
 16396 2fa3 26       		.uleb128 0x26
 16397 2fa4 44657600 		.ascii	"Dev\000"
 16398 2fa8 01       		.byte	0x1
 16399 2fa9 0A01     		.2byte	0x10a
 16400 2fab 9E0F0000 		.4byte	0xf9e
 16401 2faf 02       		.uleb128 0x2
 16402 2fb0 91       		.byte	0x91
 16403 2fb1 6C       		.sleb128 -20
 16404 2fb2 27       		.uleb128 0x27
 16405 2fb3 F00A0000 		.4byte	.LASF454
 16406 2fb7 01       		.byte	0x1
 16407 2fb8 0B01     		.2byte	0x10b
 16408 2fba EB1A0000 		.4byte	0x1aeb
 16409 2fbe 02       		.uleb128 0x2
 16410 2fbf 91       		.byte	0x91
 16411 2fc0 68       		.sleb128 -24
 16412 2fc1 28       		.uleb128 0x28
 16413 2fc2 8D020000 		.4byte	.LASF256
 16414 2fc6 01       		.byte	0x1
 16415 2fc7 0D01     		.2byte	0x10d
 16416 2fc9 D3010000 		.4byte	0x1d3
ARM GAS  C:\Users\PCHAUT~1\AppData\Local\Temp\ccZvjaUR.s 			page 289


 16417 2fcd 02       		.uleb128 0x2
 16418 2fce 91       		.byte	0x91
 16419 2fcf 73       		.sleb128 -13
 16420 2fd0 00       		.byte	0
 16421 2fd1 2A       		.uleb128 0x2a
 16422 2fd2 21180000 		.4byte	.LASF455
 16423 2fd6 01       		.byte	0x1
 16424 2fd7 FD       		.byte	0xfd
 16425 2fd8 D3010000 		.4byte	0x1d3
 16426 2fdc 00000000 		.4byte	.LFB15
 16427 2fe0 40000000 		.4byte	.LFE15-.LFB15
 16428 2fe4 01       		.uleb128 0x1
 16429 2fe5 9C       		.byte	0x9c
 16430 2fe6 16300000 		.4byte	0x3016
 16431 2fea 2B       		.uleb128 0x2b
 16432 2feb 44657600 		.ascii	"Dev\000"
 16433 2fef 01       		.byte	0x1
 16434 2ff0 FD       		.byte	0xfd
 16435 2ff1 9E0F0000 		.4byte	0xf9e
 16436 2ff5 02       		.uleb128 0x2
 16437 2ff6 91       		.byte	0x91
 16438 2ff7 6C       		.sleb128 -20
 16439 2ff8 2C       		.uleb128 0x2c
 16440 2ff9 52100000 		.4byte	.LASF456
 16441 2ffd 01       		.byte	0x1
 16442 2ffe FE       		.byte	0xfe
 16443 2fff D9000000 		.4byte	0xd9
 16444 3003 02       		.uleb128 0x2
 16445 3004 91       		.byte	0x91
 16446 3005 68       		.sleb128 -24
 16447 3006 28       		.uleb128 0x28
 16448 3007 8D020000 		.4byte	.LASF256
 16449 300b 01       		.byte	0x1
 16450 300c 0001     		.2byte	0x100
 16451 300e D3010000 		.4byte	0x1d3
 16452 3012 02       		.uleb128 0x2
 16453 3013 91       		.byte	0x91
 16454 3014 73       		.sleb128 -13
 16455 3015 00       		.byte	0
 16456 3016 2A       		.uleb128 0x2a
 16457 3017 19110000 		.4byte	.LASF457
 16458 301b 01       		.byte	0x1
 16459 301c E5       		.byte	0xe5
 16460 301d D3010000 		.4byte	0x1d3
 16461 3021 00000000 		.4byte	.LFB14
 16462 3025 68000000 		.4byte	.LFE14-.LFB14
 16463 3029 01       		.uleb128 0x1
 16464 302a 9C       		.byte	0x9c
 16465 302b 68300000 		.4byte	0x3068
 16466 302f 2B       		.uleb128 0x2b
 16467 3030 44657600 		.ascii	"Dev\000"
 16468 3034 01       		.byte	0x1
 16469 3035 E5       		.byte	0xe5
 16470 3036 9E0F0000 		.4byte	0xf9e
 16471 303a 02       		.uleb128 0x2
 16472 303b 91       		.byte	0x91
 16473 303c 6C       		.sleb128 -20
ARM GAS  C:\Users\PCHAUT~1\AppData\Local\Temp\ccZvjaUR.s 			page 290


 16474 303d 2C       		.uleb128 0x2c
 16475 303e ED200000 		.4byte	.LASF458
 16476 3042 01       		.byte	0x1
 16477 3043 E5       		.byte	0xe5
 16478 3044 68300000 		.4byte	0x3068
 16479 3048 02       		.uleb128 0x2
 16480 3049 91       		.byte	0x91
 16481 304a 68       		.sleb128 -24
 16482 304b 2D       		.uleb128 0x2d
 16483 304c 8D020000 		.4byte	.LASF256
 16484 3050 01       		.byte	0x1
 16485 3051 E8       		.byte	0xe8
 16486 3052 D3010000 		.4byte	0x1d3
 16487 3056 02       		.uleb128 0x2
 16488 3057 91       		.byte	0x91
 16489 3058 73       		.sleb128 -13
 16490 3059 2D       		.uleb128 0x2d
 16491 305a DD0B0000 		.4byte	.LASF261
 16492 305e 01       		.byte	0x1
 16493 305f E9       		.byte	0xe9
 16494 3060 B8000000 		.4byte	0xb8
 16495 3064 02       		.uleb128 0x2
 16496 3065 91       		.byte	0x91
 16497 3066 72       		.sleb128 -14
 16498 3067 00       		.byte	0
 16499 3068 0F       		.uleb128 0xf
 16500 3069 04       		.byte	0x4
 16501 306a F4010000 		.4byte	0x1f4
 16502 306e 2A       		.uleb128 0x2a
 16503 306f 40160000 		.4byte	.LASF459
 16504 3073 01       		.byte	0x1
 16505 3074 C1       		.byte	0xc1
 16506 3075 D3010000 		.4byte	0x1d3
 16507 3079 00000000 		.4byte	.LFB13
 16508 307d B4000000 		.4byte	.LFE13-.LFB13
 16509 3081 01       		.uleb128 0x1
 16510 3082 9C       		.byte	0x9c
 16511 3083 B2300000 		.4byte	0x30b2
 16512 3087 2B       		.uleb128 0x2b
 16513 3088 44657600 		.ascii	"Dev\000"
 16514 308c 01       		.byte	0x1
 16515 308d C1       		.byte	0xc1
 16516 308e 9E0F0000 		.4byte	0xf9e
 16517 3092 02       		.uleb128 0x2
 16518 3093 91       		.byte	0x91
 16519 3094 6C       		.sleb128 -20
 16520 3095 2C       		.uleb128 0x2c
 16521 3096 FE040000 		.4byte	.LASF111
 16522 309a 01       		.byte	0x1
 16523 309b C1       		.byte	0xc1
 16524 309c F4010000 		.4byte	0x1f4
 16525 30a0 02       		.uleb128 0x2
 16526 30a1 91       		.byte	0x91
 16527 30a2 6B       		.sleb128 -21
 16528 30a3 2D       		.uleb128 0x2d
 16529 30a4 8D020000 		.4byte	.LASF256
 16530 30a8 01       		.byte	0x1
ARM GAS  C:\Users\PCHAUT~1\AppData\Local\Temp\ccZvjaUR.s 			page 291


 16531 30a9 C4       		.byte	0xc4
 16532 30aa D3010000 		.4byte	0x1d3
 16533 30ae 02       		.uleb128 0x2
 16534 30af 91       		.byte	0x91
 16535 30b0 73       		.sleb128 -13
 16536 30b1 00       		.byte	0
 16537 30b2 2A       		.uleb128 0x2a
 16538 30b3 F90B0000 		.4byte	.LASF460
 16539 30b7 01       		.byte	0x1
 16540 30b8 B6       		.byte	0xb6
 16541 30b9 D3010000 		.4byte	0x1d3
 16542 30bd 00000000 		.4byte	.LFB12
 16543 30c1 3C000000 		.4byte	.LFE12-.LFB12
 16544 30c5 01       		.uleb128 0x1
 16545 30c6 9C       		.byte	0x9c
 16546 30c7 F6300000 		.4byte	0x30f6
 16547 30cb 2B       		.uleb128 0x2b
 16548 30cc 44657600 		.ascii	"Dev\000"
 16549 30d0 01       		.byte	0x1
 16550 30d1 B6       		.byte	0xb6
 16551 30d2 9E0F0000 		.4byte	0xf9e
 16552 30d6 02       		.uleb128 0x2
 16553 30d7 91       		.byte	0x91
 16554 30d8 6C       		.sleb128 -20
 16555 30d9 2C       		.uleb128 0x2c
 16556 30da D21F0000 		.4byte	.LASF461
 16557 30de 01       		.byte	0x1
 16558 30df B6       		.byte	0xb6
 16559 30e0 F6300000 		.4byte	0x30f6
 16560 30e4 02       		.uleb128 0x2
 16561 30e5 91       		.byte	0x91
 16562 30e6 68       		.sleb128 -24
 16563 30e7 2D       		.uleb128 0x2d
 16564 30e8 8D020000 		.4byte	.LASF256
 16565 30ec 01       		.byte	0x1
 16566 30ed B8       		.byte	0xb8
 16567 30ee D3010000 		.4byte	0x1d3
 16568 30f2 02       		.uleb128 0x2
 16569 30f3 91       		.byte	0x91
 16570 30f4 73       		.sleb128 -13
 16571 30f5 00       		.byte	0
 16572 30f6 0F       		.uleb128 0xf
 16573 30f7 04       		.byte	0x4
 16574 30f8 CC020000 		.4byte	0x2cc
 16575 30fc 2A       		.uleb128 0x2a
 16576 30fd 290F0000 		.4byte	.LASF462
 16577 3101 01       		.byte	0x1
 16578 3102 AA       		.byte	0xaa
 16579 3103 D3010000 		.4byte	0x1d3
 16580 3107 00000000 		.4byte	.LFB11
 16581 310b 48000000 		.4byte	.LFE11-.LFB11
 16582 310f 01       		.uleb128 0x1
 16583 3110 9C       		.byte	0x9c
 16584 3111 40310000 		.4byte	0x3140
 16585 3115 2C       		.uleb128 0x2c
 16586 3116 72120000 		.4byte	.LASF463
 16587 311a 01       		.byte	0x1
ARM GAS  C:\Users\PCHAUT~1\AppData\Local\Temp\ccZvjaUR.s 			page 292


 16588 311b AA       		.byte	0xaa
 16589 311c CC020000 		.4byte	0x2cc
 16590 3120 02       		.uleb128 0x2
 16591 3121 91       		.byte	0x91
 16592 3122 6F       		.sleb128 -17
 16593 3123 2C       		.uleb128 0x2c
 16594 3124 3A1F0000 		.4byte	.LASF464
 16595 3128 01       		.byte	0x1
 16596 3129 AB       		.byte	0xab
 16597 312a 350C0000 		.4byte	0xc35
 16598 312e 02       		.uleb128 0x2
 16599 312f 91       		.byte	0x91
 16600 3130 68       		.sleb128 -24
 16601 3131 2D       		.uleb128 0x2d
 16602 3132 8D020000 		.4byte	.LASF256
 16603 3136 01       		.byte	0x1
 16604 3137 AD       		.byte	0xad
 16605 3138 D3010000 		.4byte	0x1d3
 16606 313c 02       		.uleb128 0x2
 16607 313d 91       		.byte	0x91
 16608 313e 73       		.sleb128 -13
 16609 313f 00       		.byte	0
 16610 3140 2A       		.uleb128 0x2a
 16611 3141 DC1F0000 		.4byte	.LASF465
 16612 3145 01       		.byte	0x1
 16613 3146 9E       		.byte	0x9e
 16614 3147 D3010000 		.4byte	0x1d3
 16615 314b 00000000 		.4byte	.LFB10
 16616 314f 48000000 		.4byte	.LFE10-.LFB10
 16617 3153 01       		.uleb128 0x1
 16618 3154 9C       		.byte	0x9c
 16619 3155 84310000 		.4byte	0x3184
 16620 3159 2C       		.uleb128 0x2c
 16621 315a B7150000 		.4byte	.LASF466
 16622 315e 01       		.byte	0x1
 16623 315f 9E       		.byte	0x9e
 16624 3160 D3010000 		.4byte	0x1d3
 16625 3164 02       		.uleb128 0x2
 16626 3165 91       		.byte	0x91
 16627 3166 6F       		.sleb128 -17
 16628 3167 2C       		.uleb128 0x2c
 16629 3168 F61F0000 		.4byte	.LASF467
 16630 316c 01       		.byte	0x1
 16631 316d 9F       		.byte	0x9f
 16632 316e 350C0000 		.4byte	0xc35
 16633 3172 02       		.uleb128 0x2
 16634 3173 91       		.byte	0x91
 16635 3174 68       		.sleb128 -24
 16636 3175 2D       		.uleb128 0x2d
 16637 3176 8D020000 		.4byte	.LASF256
 16638 317a 01       		.byte	0x1
 16639 317b A1       		.byte	0xa1
 16640 317c D3010000 		.4byte	0x1d3
 16641 3180 02       		.uleb128 0x2
 16642 3181 91       		.byte	0x91
 16643 3182 73       		.sleb128 -13
 16644 3183 00       		.byte	0
ARM GAS  C:\Users\PCHAUT~1\AppData\Local\Temp\ccZvjaUR.s 			page 293


 16645 3184 2A       		.uleb128 0x2a
 16646 3185 19010000 		.4byte	.LASF468
 16647 3189 01       		.byte	0x1
 16648 318a 91       		.byte	0x91
 16649 318b D3010000 		.4byte	0x1d3
 16650 318f 00000000 		.4byte	.LFB9
 16651 3193 48000000 		.4byte	.LFE9-.LFB9
 16652 3197 01       		.uleb128 0x1
 16653 3198 9C       		.byte	0x9c
 16654 3199 C8310000 		.4byte	0x31c8
 16655 319d 2C       		.uleb128 0x2c
 16656 319e D1100000 		.4byte	.LASF68
 16657 31a2 01       		.byte	0x1
 16658 31a3 91       		.byte	0x91
 16659 31a4 B8000000 		.4byte	0xb8
 16660 31a8 02       		.uleb128 0x2
 16661 31a9 91       		.byte	0x91
 16662 31aa 6F       		.sleb128 -17
 16663 31ab 2C       		.uleb128 0x2c
 16664 31ac 2B060000 		.4byte	.LASF469
 16665 31b0 01       		.byte	0x1
 16666 31b1 92       		.byte	0x92
 16667 31b2 350C0000 		.4byte	0xc35
 16668 31b6 02       		.uleb128 0x2
 16669 31b7 91       		.byte	0x91
 16670 31b8 68       		.sleb128 -24
 16671 31b9 2D       		.uleb128 0x2d
 16672 31ba 8D020000 		.4byte	.LASF256
 16673 31be 01       		.byte	0x1
 16674 31bf 94       		.byte	0x94
 16675 31c0 D3010000 		.4byte	0x1d3
 16676 31c4 02       		.uleb128 0x2
 16677 31c5 91       		.byte	0x91
 16678 31c6 73       		.sleb128 -13
 16679 31c7 00       		.byte	0
 16680 31c8 2A       		.uleb128 0x2a
 16681 31c9 06190000 		.4byte	.LASF470
 16682 31cd 01       		.byte	0x1
 16683 31ce 84       		.byte	0x84
 16684 31cf D3010000 		.4byte	0x1d3
 16685 31d3 00000000 		.4byte	.LFB8
 16686 31d7 48000000 		.4byte	.LFE8-.LFB8
 16687 31db 01       		.uleb128 0x1
 16688 31dc 9C       		.byte	0x9c
 16689 31dd 0C320000 		.4byte	0x320c
 16690 31e1 2C       		.uleb128 0x2c
 16691 31e2 EF130000 		.4byte	.LASF471
 16692 31e6 01       		.byte	0x1
 16693 31e7 84       		.byte	0x84
 16694 31e8 01010000 		.4byte	0x101
 16695 31ec 02       		.uleb128 0x2
 16696 31ed 91       		.byte	0x91
 16697 31ee 6F       		.sleb128 -17
 16698 31ef 2C       		.uleb128 0x2c
 16699 31f0 261E0000 		.4byte	.LASF472
 16700 31f4 01       		.byte	0x1
 16701 31f5 85       		.byte	0x85
ARM GAS  C:\Users\PCHAUT~1\AppData\Local\Temp\ccZvjaUR.s 			page 294


 16702 31f6 350C0000 		.4byte	0xc35
 16703 31fa 02       		.uleb128 0x2
 16704 31fb 91       		.byte	0x91
 16705 31fc 68       		.sleb128 -24
 16706 31fd 2D       		.uleb128 0x2d
 16707 31fe 8D020000 		.4byte	.LASF256
 16708 3202 01       		.byte	0x1
 16709 3203 87       		.byte	0x87
 16710 3204 D3010000 		.4byte	0x1d3
 16711 3208 02       		.uleb128 0x2
 16712 3209 91       		.byte	0x91
 16713 320a 73       		.sleb128 -13
 16714 320b 00       		.byte	0
 16715 320c 2A       		.uleb128 0x2a
 16716 320d 6A050000 		.4byte	.LASF473
 16717 3211 01       		.byte	0x1
 16718 3212 72       		.byte	0x72
 16719 3213 D3010000 		.4byte	0x1d3
 16720 3217 00000000 		.4byte	.LFB7
 16721 321b 58000000 		.4byte	.LFE7-.LFB7
 16722 321f 01       		.uleb128 0x1
 16723 3220 9C       		.byte	0x9c
 16724 3221 5E320000 		.4byte	0x325e
 16725 3225 2B       		.uleb128 0x2b
 16726 3226 44657600 		.ascii	"Dev\000"
 16727 322a 01       		.byte	0x1
 16728 322b 72       		.byte	0x72
 16729 322c 9E0F0000 		.4byte	0xf9e
 16730 3230 02       		.uleb128 0x2
 16731 3231 91       		.byte	0x91
 16732 3232 6C       		.sleb128 -20
 16733 3233 2C       		.uleb128 0x2c
 16734 3234 091F0000 		.4byte	.LASF474
 16735 3238 01       		.byte	0x1
 16736 3239 73       		.byte	0x73
 16737 323a 5E320000 		.4byte	0x325e
 16738 323e 02       		.uleb128 0x2
 16739 323f 91       		.byte	0x91
 16740 3240 68       		.sleb128 -24
 16741 3241 2D       		.uleb128 0x2d
 16742 3242 8D020000 		.4byte	.LASF256
 16743 3246 01       		.byte	0x1
 16744 3247 75       		.byte	0x75
 16745 3248 D3010000 		.4byte	0x1d3
 16746 324c 02       		.uleb128 0x2
 16747 324d 91       		.byte	0x91
 16748 324e 73       		.sleb128 -13
 16749 324f 2D       		.uleb128 0x2d
 16750 3250 D1100000 		.4byte	.LASF68
 16751 3254 01       		.byte	0x1
 16752 3255 76       		.byte	0x76
 16753 3256 B8000000 		.4byte	0xb8
 16754 325a 02       		.uleb128 0x2
 16755 325b 91       		.byte	0x91
 16756 325c 72       		.sleb128 -14
 16757 325d 00       		.byte	0
 16758 325e 0F       		.uleb128 0xf
ARM GAS  C:\Users\PCHAUT~1\AppData\Local\Temp\ccZvjaUR.s 			page 295


 16759 325f 04       		.byte	0x4
 16760 3260 01010000 		.4byte	0x101
 16761 3264 2A       		.uleb128 0x2a
 16762 3265 A21A0000 		.4byte	.LASF475
 16763 3269 01       		.byte	0x1
 16764 326a 66       		.byte	0x66
 16765 326b D3010000 		.4byte	0x1d3
 16766 326f 00000000 		.4byte	.LFB6
 16767 3273 40000000 		.4byte	.LFE6-.LFB6
 16768 3277 01       		.uleb128 0x1
 16769 3278 9C       		.byte	0x9c
 16770 3279 A8320000 		.4byte	0x32a8
 16771 327d 2B       		.uleb128 0x2b
 16772 327e 44657600 		.ascii	"Dev\000"
 16773 3282 01       		.byte	0x1
 16774 3283 66       		.byte	0x66
 16775 3284 9E0F0000 		.4byte	0xf9e
 16776 3288 02       		.uleb128 0x2
 16777 3289 91       		.byte	0x91
 16778 328a 6C       		.sleb128 -20
 16779 328b 2C       		.uleb128 0x2c
 16780 328c CE160000 		.4byte	.LASF476
 16781 3290 01       		.byte	0x1
 16782 3291 67       		.byte	0x67
 16783 3292 A8320000 		.4byte	0x32a8
 16784 3296 02       		.uleb128 0x2
 16785 3297 91       		.byte	0x91
 16786 3298 68       		.sleb128 -24
 16787 3299 2D       		.uleb128 0x2d
 16788 329a 8D020000 		.4byte	.LASF256
 16789 329e 01       		.byte	0x1
 16790 329f 69       		.byte	0x69
 16791 32a0 D3010000 		.4byte	0x1d3
 16792 32a4 02       		.uleb128 0x2
 16793 32a5 91       		.byte	0x91
 16794 32a6 73       		.sleb128 -13
 16795 32a7 00       		.byte	0
 16796 32a8 0F       		.uleb128 0xf
 16797 32a9 04       		.byte	0x4
 16798 32aa C8010000 		.4byte	0x1c8
 16799 32ae 2A       		.uleb128 0x2a
 16800 32af 931C0000 		.4byte	.LASF477
 16801 32b3 01       		.byte	0x1
 16802 32b4 54       		.byte	0x54
 16803 32b5 D3010000 		.4byte	0x1d3
 16804 32b9 00000000 		.4byte	.LFB5
 16805 32bd 5C000000 		.4byte	.LFE5-.LFB5
 16806 32c1 01       		.uleb128 0x1
 16807 32c2 9C       		.byte	0x9c
 16808 32c3 0E330000 		.4byte	0x330e
 16809 32c7 2B       		.uleb128 0x2b
 16810 32c8 44657600 		.ascii	"Dev\000"
 16811 32cc 01       		.byte	0x1
 16812 32cd 54       		.byte	0x54
 16813 32ce 9E0F0000 		.4byte	0xf9e
 16814 32d2 02       		.uleb128 0x2
 16815 32d3 91       		.byte	0x91
ARM GAS  C:\Users\PCHAUT~1\AppData\Local\Temp\ccZvjaUR.s 			page 296


 16816 32d4 6C       		.sleb128 -20
 16817 32d5 2C       		.uleb128 0x2c
 16818 32d6 0E0D0000 		.4byte	.LASF478
 16819 32da 01       		.byte	0x1
 16820 32db 55       		.byte	0x55
 16821 32dc C0060000 		.4byte	0x6c0
 16822 32e0 02       		.uleb128 0x2
 16823 32e1 91       		.byte	0x91
 16824 32e2 68       		.sleb128 -24
 16825 32e3 2C       		.uleb128 0x2c
 16826 32e4 45140000 		.4byte	.LASF479
 16827 32e8 01       		.byte	0x1
 16828 32e9 55       		.byte	0x55
 16829 32ea C0060000 		.4byte	0x6c0
 16830 32ee 02       		.uleb128 0x2
 16831 32ef 91       		.byte	0x91
 16832 32f0 64       		.sleb128 -28
 16833 32f1 2D       		.uleb128 0x2d
 16834 32f2 8D020000 		.4byte	.LASF256
 16835 32f6 01       		.byte	0x1
 16836 32f7 57       		.byte	0x57
 16837 32f8 D3010000 		.4byte	0x1d3
 16838 32fc 02       		.uleb128 0x2
 16839 32fd 91       		.byte	0x91
 16840 32fe 73       		.sleb128 -13
 16841 32ff 2D       		.uleb128 0x2d
 16842 3300 650C0000 		.4byte	.LASF480
 16843 3304 01       		.byte	0x1
 16844 3305 58       		.byte	0x58
 16845 3306 B8000000 		.4byte	0xb8
 16846 330a 02       		.uleb128 0x2
 16847 330b 91       		.byte	0x91
 16848 330c 72       		.sleb128 -14
 16849 330d 00       		.byte	0
 16850 330e 2A       		.uleb128 0x2a
 16851 330f 58120000 		.4byte	.LASF481
 16852 3313 01       		.byte	0x1
 16853 3314 44       		.byte	0x44
 16854 3315 D3010000 		.4byte	0x1d3
 16855 3319 00000000 		.4byte	.LFB4
 16856 331d 4C000000 		.4byte	.LFE4-.LFB4
 16857 3321 01       		.uleb128 0x1
 16858 3322 9C       		.byte	0x9c
 16859 3323 44330000 		.4byte	0x3344
 16860 3327 2C       		.uleb128 0x2c
 16861 3328 C7140000 		.4byte	.LASF482
 16862 332c 01       		.byte	0x1
 16863 332d 44       		.byte	0x44
 16864 332e 44330000 		.4byte	0x3344
 16865 3332 02       		.uleb128 0x2
 16866 3333 91       		.byte	0x91
 16867 3334 6C       		.sleb128 -20
 16868 3335 2D       		.uleb128 0x2d
 16869 3336 8D020000 		.4byte	.LASF256
 16870 333a 01       		.byte	0x1
 16871 333b 46       		.byte	0x46
 16872 333c D3010000 		.4byte	0x1d3
ARM GAS  C:\Users\PCHAUT~1\AppData\Local\Temp\ccZvjaUR.s 			page 297


 16873 3340 02       		.uleb128 0x2
 16874 3341 91       		.byte	0x91
 16875 3342 73       		.sleb128 -13
 16876 3343 00       		.byte	0
 16877 3344 0F       		.uleb128 0xf
 16878 3345 04       		.byte	0x4
 16879 3346 50010000 		.4byte	0x150
 16880 334a 2E       		.uleb128 0x2e
 16881 334b A21E0000 		.4byte	.LASF487
 16882 334f 01       		.byte	0x1
 16883 3350 35       		.byte	0x35
 16884 3351 D3010000 		.4byte	0x1d3
 16885 3355 00000000 		.4byte	.LFB3
 16886 3359 4C000000 		.4byte	.LFE3-.LFB3
 16887 335d 01       		.uleb128 0x1
 16888 335e 9C       		.byte	0x9c
 16889 335f 2C       		.uleb128 0x2c
 16890 3360 D51E0000 		.4byte	.LASF483
 16891 3364 01       		.byte	0x1
 16892 3365 35       		.byte	0x35
 16893 3366 44330000 		.4byte	0x3344
 16894 336a 02       		.uleb128 0x2
 16895 336b 91       		.byte	0x91
 16896 336c 6C       		.sleb128 -20
 16897 336d 2D       		.uleb128 0x2d
 16898 336e 8D020000 		.4byte	.LASF256
 16899 3372 01       		.byte	0x1
 16900 3373 37       		.byte	0x37
 16901 3374 D3010000 		.4byte	0x1d3
 16902 3378 02       		.uleb128 0x2
 16903 3379 91       		.byte	0x91
 16904 337a 73       		.sleb128 -13
 16905 337b 00       		.byte	0
 16906 337c 00       		.byte	0
 16907              		.section	.debug_abbrev,"",%progbits
 16908              	.Ldebug_abbrev0:
 16909 0000 01       		.uleb128 0x1
 16910 0001 11       		.uleb128 0x11
 16911 0002 01       		.byte	0x1
 16912 0003 25       		.uleb128 0x25
 16913 0004 0E       		.uleb128 0xe
 16914 0005 13       		.uleb128 0x13
 16915 0006 0B       		.uleb128 0xb
 16916 0007 03       		.uleb128 0x3
 16917 0008 0E       		.uleb128 0xe
 16918 0009 1B       		.uleb128 0x1b
 16919 000a 0E       		.uleb128 0xe
 16920 000b 55       		.uleb128 0x55
 16921 000c 17       		.uleb128 0x17
 16922 000d 11       		.uleb128 0x11
 16923 000e 01       		.uleb128 0x1
 16924 000f 10       		.uleb128 0x10
 16925 0010 17       		.uleb128 0x17
 16926 0011 00       		.byte	0
 16927 0012 00       		.byte	0
 16928 0013 02       		.uleb128 0x2
 16929 0014 16       		.uleb128 0x16
ARM GAS  C:\Users\PCHAUT~1\AppData\Local\Temp\ccZvjaUR.s 			page 298


 16930 0015 00       		.byte	0
 16931 0016 03       		.uleb128 0x3
 16932 0017 0E       		.uleb128 0xe
 16933 0018 3A       		.uleb128 0x3a
 16934 0019 0B       		.uleb128 0xb
 16935 001a 3B       		.uleb128 0x3b
 16936 001b 0B       		.uleb128 0xb
 16937 001c 49       		.uleb128 0x49
 16938 001d 13       		.uleb128 0x13
 16939 001e 00       		.byte	0
 16940 001f 00       		.byte	0
 16941 0020 03       		.uleb128 0x3
 16942 0021 24       		.uleb128 0x24
 16943 0022 00       		.byte	0
 16944 0023 0B       		.uleb128 0xb
 16945 0024 0B       		.uleb128 0xb
 16946 0025 3E       		.uleb128 0x3e
 16947 0026 0B       		.uleb128 0xb
 16948 0027 03       		.uleb128 0x3
 16949 0028 0E       		.uleb128 0xe
 16950 0029 00       		.byte	0
 16951 002a 00       		.byte	0
 16952 002b 04       		.uleb128 0x4
 16953 002c 24       		.uleb128 0x24
 16954 002d 00       		.byte	0
 16955 002e 0B       		.uleb128 0xb
 16956 002f 0B       		.uleb128 0xb
 16957 0030 3E       		.uleb128 0x3e
 16958 0031 0B       		.uleb128 0xb
 16959 0032 03       		.uleb128 0x3
 16960 0033 08       		.uleb128 0x8
 16961 0034 00       		.byte	0
 16962 0035 00       		.byte	0
 16963 0036 05       		.uleb128 0x5
 16964 0037 13       		.uleb128 0x13
 16965 0038 01       		.byte	0x1
 16966 0039 0B       		.uleb128 0xb
 16967 003a 0B       		.uleb128 0xb
 16968 003b 3A       		.uleb128 0x3a
 16969 003c 0B       		.uleb128 0xb
 16970 003d 3B       		.uleb128 0x3b
 16971 003e 0B       		.uleb128 0xb
 16972 003f 01       		.uleb128 0x1
 16973 0040 13       		.uleb128 0x13
 16974 0041 00       		.byte	0
 16975 0042 00       		.byte	0
 16976 0043 06       		.uleb128 0x6
 16977 0044 0D       		.uleb128 0xd
 16978 0045 00       		.byte	0
 16979 0046 03       		.uleb128 0x3
 16980 0047 0E       		.uleb128 0xe
 16981 0048 3A       		.uleb128 0x3a
 16982 0049 0B       		.uleb128 0xb
 16983 004a 3B       		.uleb128 0x3b
 16984 004b 0B       		.uleb128 0xb
 16985 004c 49       		.uleb128 0x49
 16986 004d 13       		.uleb128 0x13
ARM GAS  C:\Users\PCHAUT~1\AppData\Local\Temp\ccZvjaUR.s 			page 299


 16987 004e 38       		.uleb128 0x38
 16988 004f 0B       		.uleb128 0xb
 16989 0050 00       		.byte	0
 16990 0051 00       		.byte	0
 16991 0052 07       		.uleb128 0x7
 16992 0053 01       		.uleb128 0x1
 16993 0054 01       		.byte	0x1
 16994 0055 49       		.uleb128 0x49
 16995 0056 13       		.uleb128 0x13
 16996 0057 01       		.uleb128 0x1
 16997 0058 13       		.uleb128 0x13
 16998 0059 00       		.byte	0
 16999 005a 00       		.byte	0
 17000 005b 08       		.uleb128 0x8
 17001 005c 21       		.uleb128 0x21
 17002 005d 00       		.byte	0
 17003 005e 49       		.uleb128 0x49
 17004 005f 13       		.uleb128 0x13
 17005 0060 2F       		.uleb128 0x2f
 17006 0061 0B       		.uleb128 0xb
 17007 0062 00       		.byte	0
 17008 0063 00       		.byte	0
 17009 0064 09       		.uleb128 0x9
 17010 0065 26       		.uleb128 0x26
 17011 0066 00       		.byte	0
 17012 0067 49       		.uleb128 0x49
 17013 0068 13       		.uleb128 0x13
 17014 0069 00       		.byte	0
 17015 006a 00       		.byte	0
 17016 006b 0A       		.uleb128 0xa
 17017 006c 0D       		.uleb128 0xd
 17018 006d 00       		.byte	0
 17019 006e 03       		.uleb128 0x3
 17020 006f 0E       		.uleb128 0xe
 17021 0070 3A       		.uleb128 0x3a
 17022 0071 0B       		.uleb128 0xb
 17023 0072 3B       		.uleb128 0x3b
 17024 0073 05       		.uleb128 0x5
 17025 0074 49       		.uleb128 0x49
 17026 0075 13       		.uleb128 0x13
 17027 0076 38       		.uleb128 0x38
 17028 0077 0B       		.uleb128 0xb
 17029 0078 00       		.byte	0
 17030 0079 00       		.byte	0
 17031 007a 0B       		.uleb128 0xb
 17032 007b 16       		.uleb128 0x16
 17033 007c 00       		.byte	0
 17034 007d 03       		.uleb128 0x3
 17035 007e 0E       		.uleb128 0xe
 17036 007f 3A       		.uleb128 0x3a
 17037 0080 0B       		.uleb128 0xb
 17038 0081 3B       		.uleb128 0x3b
 17039 0082 05       		.uleb128 0x5
 17040 0083 49       		.uleb128 0x49
 17041 0084 13       		.uleb128 0x13
 17042 0085 00       		.byte	0
 17043 0086 00       		.byte	0
ARM GAS  C:\Users\PCHAUT~1\AppData\Local\Temp\ccZvjaUR.s 			page 300


 17044 0087 0C       		.uleb128 0xc
 17045 0088 13       		.uleb128 0x13
 17046 0089 01       		.byte	0x1
 17047 008a 0B       		.uleb128 0xb
 17048 008b 0B       		.uleb128 0xb
 17049 008c 3A       		.uleb128 0x3a
 17050 008d 0B       		.uleb128 0xb
 17051 008e 3B       		.uleb128 0x3b
 17052 008f 05       		.uleb128 0x5
 17053 0090 01       		.uleb128 0x1
 17054 0091 13       		.uleb128 0x13
 17055 0092 00       		.byte	0
 17056 0093 00       		.byte	0
 17057 0094 0D       		.uleb128 0xd
 17058 0095 13       		.uleb128 0x13
 17059 0096 01       		.byte	0x1
 17060 0097 0B       		.uleb128 0xb
 17061 0098 05       		.uleb128 0x5
 17062 0099 3A       		.uleb128 0x3a
 17063 009a 0B       		.uleb128 0xb
 17064 009b 3B       		.uleb128 0x3b
 17065 009c 05       		.uleb128 0x5
 17066 009d 01       		.uleb128 0x1
 17067 009e 13       		.uleb128 0x13
 17068 009f 00       		.byte	0
 17069 00a0 00       		.byte	0
 17070 00a1 0E       		.uleb128 0xe
 17071 00a2 0D       		.uleb128 0xd
 17072 00a3 00       		.byte	0
 17073 00a4 03       		.uleb128 0x3
 17074 00a5 0E       		.uleb128 0xe
 17075 00a6 3A       		.uleb128 0x3a
 17076 00a7 0B       		.uleb128 0xb
 17077 00a8 3B       		.uleb128 0x3b
 17078 00a9 05       		.uleb128 0x5
 17079 00aa 49       		.uleb128 0x49
 17080 00ab 13       		.uleb128 0x13
 17081 00ac 38       		.uleb128 0x38
 17082 00ad 05       		.uleb128 0x5
 17083 00ae 00       		.byte	0
 17084 00af 00       		.byte	0
 17085 00b0 0F       		.uleb128 0xf
 17086 00b1 0F       		.uleb128 0xf
 17087 00b2 00       		.byte	0
 17088 00b3 0B       		.uleb128 0xb
 17089 00b4 0B       		.uleb128 0xb
 17090 00b5 49       		.uleb128 0x49
 17091 00b6 13       		.uleb128 0x13
 17092 00b7 00       		.byte	0
 17093 00b8 00       		.byte	0
 17094 00b9 10       		.uleb128 0x10
 17095 00ba 0F       		.uleb128 0xf
 17096 00bb 00       		.byte	0
 17097 00bc 0B       		.uleb128 0xb
 17098 00bd 0B       		.uleb128 0xb
 17099 00be 00       		.byte	0
 17100 00bf 00       		.byte	0
ARM GAS  C:\Users\PCHAUT~1\AppData\Local\Temp\ccZvjaUR.s 			page 301


 17101 00c0 11       		.uleb128 0x11
 17102 00c1 13       		.uleb128 0x13
 17103 00c2 00       		.byte	0
 17104 00c3 03       		.uleb128 0x3
 17105 00c4 0E       		.uleb128 0xe
 17106 00c5 3C       		.uleb128 0x3c
 17107 00c6 19       		.uleb128 0x19
 17108 00c7 00       		.byte	0
 17109 00c8 00       		.byte	0
 17110 00c9 12       		.uleb128 0x12
 17111 00ca 17       		.uleb128 0x17
 17112 00cb 01       		.byte	0x1
 17113 00cc 0B       		.uleb128 0xb
 17114 00cd 0B       		.uleb128 0xb
 17115 00ce 3A       		.uleb128 0x3a
 17116 00cf 0B       		.uleb128 0xb
 17117 00d0 3B       		.uleb128 0x3b
 17118 00d1 0B       		.uleb128 0xb
 17119 00d2 01       		.uleb128 0x1
 17120 00d3 13       		.uleb128 0x13
 17121 00d4 00       		.byte	0
 17122 00d5 00       		.byte	0
 17123 00d6 13       		.uleb128 0x13
 17124 00d7 0D       		.uleb128 0xd
 17125 00d8 00       		.byte	0
 17126 00d9 03       		.uleb128 0x3
 17127 00da 0E       		.uleb128 0xe
 17128 00db 3A       		.uleb128 0x3a
 17129 00dc 0B       		.uleb128 0xb
 17130 00dd 3B       		.uleb128 0x3b
 17131 00de 0B       		.uleb128 0xb
 17132 00df 49       		.uleb128 0x49
 17133 00e0 13       		.uleb128 0x13
 17134 00e1 00       		.byte	0
 17135 00e2 00       		.byte	0
 17136 00e3 14       		.uleb128 0x14
 17137 00e4 13       		.uleb128 0x13
 17138 00e5 01       		.byte	0x1
 17139 00e6 03       		.uleb128 0x3
 17140 00e7 0E       		.uleb128 0xe
 17141 00e8 0B       		.uleb128 0xb
 17142 00e9 0B       		.uleb128 0xb
 17143 00ea 3A       		.uleb128 0x3a
 17144 00eb 0B       		.uleb128 0xb
 17145 00ec 3B       		.uleb128 0x3b
 17146 00ed 0B       		.uleb128 0xb
 17147 00ee 01       		.uleb128 0x1
 17148 00ef 13       		.uleb128 0x13
 17149 00f0 00       		.byte	0
 17150 00f1 00       		.byte	0
 17151 00f2 15       		.uleb128 0x15
 17152 00f3 0D       		.uleb128 0xd
 17153 00f4 00       		.byte	0
 17154 00f5 03       		.uleb128 0x3
 17155 00f6 08       		.uleb128 0x8
 17156 00f7 3A       		.uleb128 0x3a
 17157 00f8 0B       		.uleb128 0xb
ARM GAS  C:\Users\PCHAUT~1\AppData\Local\Temp\ccZvjaUR.s 			page 302


 17158 00f9 3B       		.uleb128 0x3b
 17159 00fa 0B       		.uleb128 0xb
 17160 00fb 49       		.uleb128 0x49
 17161 00fc 13       		.uleb128 0x13
 17162 00fd 38       		.uleb128 0x38
 17163 00fe 0B       		.uleb128 0xb
 17164 00ff 00       		.byte	0
 17165 0100 00       		.byte	0
 17166 0101 16       		.uleb128 0x16
 17167 0102 13       		.uleb128 0x13
 17168 0103 01       		.byte	0x1
 17169 0104 03       		.uleb128 0x3
 17170 0105 0E       		.uleb128 0xe
 17171 0106 0B       		.uleb128 0xb
 17172 0107 05       		.uleb128 0x5
 17173 0108 3A       		.uleb128 0x3a
 17174 0109 0B       		.uleb128 0xb
 17175 010a 3B       		.uleb128 0x3b
 17176 010b 0B       		.uleb128 0xb
 17177 010c 01       		.uleb128 0x1
 17178 010d 13       		.uleb128 0x13
 17179 010e 00       		.byte	0
 17180 010f 00       		.byte	0
 17181 0110 17       		.uleb128 0x17
 17182 0111 0D       		.uleb128 0xd
 17183 0112 00       		.byte	0
 17184 0113 03       		.uleb128 0x3
 17185 0114 0E       		.uleb128 0xe
 17186 0115 3A       		.uleb128 0x3a
 17187 0116 0B       		.uleb128 0xb
 17188 0117 3B       		.uleb128 0x3b
 17189 0118 0B       		.uleb128 0xb
 17190 0119 49       		.uleb128 0x49
 17191 011a 13       		.uleb128 0x13
 17192 011b 38       		.uleb128 0x38
 17193 011c 05       		.uleb128 0x5
 17194 011d 00       		.byte	0
 17195 011e 00       		.byte	0
 17196 011f 18       		.uleb128 0x18
 17197 0120 15       		.uleb128 0x15
 17198 0121 00       		.byte	0
 17199 0122 27       		.uleb128 0x27
 17200 0123 19       		.uleb128 0x19
 17201 0124 00       		.byte	0
 17202 0125 00       		.byte	0
 17203 0126 19       		.uleb128 0x19
 17204 0127 15       		.uleb128 0x15
 17205 0128 01       		.byte	0x1
 17206 0129 27       		.uleb128 0x27
 17207 012a 19       		.uleb128 0x19
 17208 012b 49       		.uleb128 0x49
 17209 012c 13       		.uleb128 0x13
 17210 012d 01       		.uleb128 0x1
 17211 012e 13       		.uleb128 0x13
 17212 012f 00       		.byte	0
 17213 0130 00       		.byte	0
 17214 0131 1A       		.uleb128 0x1a
ARM GAS  C:\Users\PCHAUT~1\AppData\Local\Temp\ccZvjaUR.s 			page 303


 17215 0132 05       		.uleb128 0x5
 17216 0133 00       		.byte	0
 17217 0134 49       		.uleb128 0x49
 17218 0135 13       		.uleb128 0x13
 17219 0136 00       		.byte	0
 17220 0137 00       		.byte	0
 17221 0138 1B       		.uleb128 0x1b
 17222 0139 13       		.uleb128 0x13
 17223 013a 01       		.byte	0x1
 17224 013b 03       		.uleb128 0x3
 17225 013c 0E       		.uleb128 0xe
 17226 013d 0B       		.uleb128 0xb
 17227 013e 05       		.uleb128 0x5
 17228 013f 3A       		.uleb128 0x3a
 17229 0140 0B       		.uleb128 0xb
 17230 0141 3B       		.uleb128 0x3b
 17231 0142 05       		.uleb128 0x5
 17232 0143 01       		.uleb128 0x1
 17233 0144 13       		.uleb128 0x13
 17234 0145 00       		.byte	0
 17235 0146 00       		.byte	0
 17236 0147 1C       		.uleb128 0x1c
 17237 0148 13       		.uleb128 0x13
 17238 0149 01       		.byte	0x1
 17239 014a 03       		.uleb128 0x3
 17240 014b 0E       		.uleb128 0xe
 17241 014c 0B       		.uleb128 0xb
 17242 014d 0B       		.uleb128 0xb
 17243 014e 3A       		.uleb128 0x3a
 17244 014f 0B       		.uleb128 0xb
 17245 0150 3B       		.uleb128 0x3b
 17246 0151 05       		.uleb128 0x5
 17247 0152 01       		.uleb128 0x1
 17248 0153 13       		.uleb128 0x13
 17249 0154 00       		.byte	0
 17250 0155 00       		.byte	0
 17251 0156 1D       		.uleb128 0x1d
 17252 0157 17       		.uleb128 0x17
 17253 0158 01       		.byte	0x1
 17254 0159 0B       		.uleb128 0xb
 17255 015a 0B       		.uleb128 0xb
 17256 015b 3A       		.uleb128 0x3a
 17257 015c 0B       		.uleb128 0xb
 17258 015d 3B       		.uleb128 0x3b
 17259 015e 05       		.uleb128 0x5
 17260 015f 01       		.uleb128 0x1
 17261 0160 13       		.uleb128 0x13
 17262 0161 00       		.byte	0
 17263 0162 00       		.byte	0
 17264 0163 1E       		.uleb128 0x1e
 17265 0164 0D       		.uleb128 0xd
 17266 0165 00       		.byte	0
 17267 0166 03       		.uleb128 0x3
 17268 0167 0E       		.uleb128 0xe
 17269 0168 3A       		.uleb128 0x3a
 17270 0169 0B       		.uleb128 0xb
 17271 016a 3B       		.uleb128 0x3b
ARM GAS  C:\Users\PCHAUT~1\AppData\Local\Temp\ccZvjaUR.s 			page 304


 17272 016b 05       		.uleb128 0x5
 17273 016c 49       		.uleb128 0x49
 17274 016d 13       		.uleb128 0x13
 17275 016e 00       		.byte	0
 17276 016f 00       		.byte	0
 17277 0170 1F       		.uleb128 0x1f
 17278 0171 15       		.uleb128 0x15
 17279 0172 01       		.byte	0x1
 17280 0173 27       		.uleb128 0x27
 17281 0174 19       		.uleb128 0x19
 17282 0175 01       		.uleb128 0x1
 17283 0176 13       		.uleb128 0x13
 17284 0177 00       		.byte	0
 17285 0178 00       		.byte	0
 17286 0179 20       		.uleb128 0x20
 17287 017a 34       		.uleb128 0x34
 17288 017b 00       		.byte	0
 17289 017c 03       		.uleb128 0x3
 17290 017d 0E       		.uleb128 0xe
 17291 017e 3A       		.uleb128 0x3a
 17292 017f 0B       		.uleb128 0xb
 17293 0180 3B       		.uleb128 0x3b
 17294 0181 05       		.uleb128 0x5
 17295 0182 49       		.uleb128 0x49
 17296 0183 13       		.uleb128 0x13
 17297 0184 3F       		.uleb128 0x3f
 17298 0185 19       		.uleb128 0x19
 17299 0186 3C       		.uleb128 0x3c
 17300 0187 19       		.uleb128 0x19
 17301 0188 00       		.byte	0
 17302 0189 00       		.byte	0
 17303 018a 21       		.uleb128 0x21
 17304 018b 13       		.uleb128 0x13
 17305 018c 01       		.byte	0x1
 17306 018d 0B       		.uleb128 0xb
 17307 018e 05       		.uleb128 0x5
 17308 018f 3A       		.uleb128 0x3a
 17309 0190 0B       		.uleb128 0xb
 17310 0191 3B       		.uleb128 0x3b
 17311 0192 0B       		.uleb128 0xb
 17312 0193 01       		.uleb128 0x1
 17313 0194 13       		.uleb128 0x13
 17314 0195 00       		.byte	0
 17315 0196 00       		.byte	0
 17316 0197 22       		.uleb128 0x22
 17317 0198 34       		.uleb128 0x34
 17318 0199 00       		.byte	0
 17319 019a 03       		.uleb128 0x3
 17320 019b 0E       		.uleb128 0xe
 17321 019c 3A       		.uleb128 0x3a
 17322 019d 0B       		.uleb128 0xb
 17323 019e 3B       		.uleb128 0x3b
 17324 019f 0B       		.uleb128 0xb
 17325 01a0 49       		.uleb128 0x49
 17326 01a1 13       		.uleb128 0x13
 17327 01a2 3F       		.uleb128 0x3f
 17328 01a3 19       		.uleb128 0x19
ARM GAS  C:\Users\PCHAUT~1\AppData\Local\Temp\ccZvjaUR.s 			page 305


 17329 01a4 02       		.uleb128 0x2
 17330 01a5 18       		.uleb128 0x18
 17331 01a6 00       		.byte	0
 17332 01a7 00       		.byte	0
 17333 01a8 23       		.uleb128 0x23
 17334 01a9 21       		.uleb128 0x21
 17335 01aa 00       		.byte	0
 17336 01ab 49       		.uleb128 0x49
 17337 01ac 13       		.uleb128 0x13
 17338 01ad 2F       		.uleb128 0x2f
 17339 01ae 05       		.uleb128 0x5
 17340 01af 00       		.byte	0
 17341 01b0 00       		.byte	0
 17342 01b1 24       		.uleb128 0x24
 17343 01b2 34       		.uleb128 0x34
 17344 01b3 00       		.byte	0
 17345 01b4 03       		.uleb128 0x3
 17346 01b5 0E       		.uleb128 0xe
 17347 01b6 3A       		.uleb128 0x3a
 17348 01b7 0B       		.uleb128 0xb
 17349 01b8 3B       		.uleb128 0x3b
 17350 01b9 0B       		.uleb128 0xb
 17351 01ba 49       		.uleb128 0x49
 17352 01bb 13       		.uleb128 0x13
 17353 01bc 3F       		.uleb128 0x3f
 17354 01bd 19       		.uleb128 0x19
 17355 01be 3C       		.uleb128 0x3c
 17356 01bf 19       		.uleb128 0x19
 17357 01c0 00       		.byte	0
 17358 01c1 00       		.byte	0
 17359 01c2 25       		.uleb128 0x25
 17360 01c3 2E       		.uleb128 0x2e
 17361 01c4 01       		.byte	0x1
 17362 01c5 3F       		.uleb128 0x3f
 17363 01c6 19       		.uleb128 0x19
 17364 01c7 03       		.uleb128 0x3
 17365 01c8 0E       		.uleb128 0xe
 17366 01c9 3A       		.uleb128 0x3a
 17367 01ca 0B       		.uleb128 0xb
 17368 01cb 3B       		.uleb128 0x3b
 17369 01cc 05       		.uleb128 0x5
 17370 01cd 27       		.uleb128 0x27
 17371 01ce 19       		.uleb128 0x19
 17372 01cf 49       		.uleb128 0x49
 17373 01d0 13       		.uleb128 0x13
 17374 01d1 11       		.uleb128 0x11
 17375 01d2 01       		.uleb128 0x1
 17376 01d3 12       		.uleb128 0x12
 17377 01d4 06       		.uleb128 0x6
 17378 01d5 40       		.uleb128 0x40
 17379 01d6 18       		.uleb128 0x18
 17380 01d7 9642     		.uleb128 0x2116
 17381 01d9 19       		.uleb128 0x19
 17382 01da 01       		.uleb128 0x1
 17383 01db 13       		.uleb128 0x13
 17384 01dc 00       		.byte	0
 17385 01dd 00       		.byte	0
ARM GAS  C:\Users\PCHAUT~1\AppData\Local\Temp\ccZvjaUR.s 			page 306


 17386 01de 26       		.uleb128 0x26
 17387 01df 05       		.uleb128 0x5
 17388 01e0 00       		.byte	0
 17389 01e1 03       		.uleb128 0x3
 17390 01e2 08       		.uleb128 0x8
 17391 01e3 3A       		.uleb128 0x3a
 17392 01e4 0B       		.uleb128 0xb
 17393 01e5 3B       		.uleb128 0x3b
 17394 01e6 05       		.uleb128 0x5
 17395 01e7 49       		.uleb128 0x49
 17396 01e8 13       		.uleb128 0x13
 17397 01e9 02       		.uleb128 0x2
 17398 01ea 18       		.uleb128 0x18
 17399 01eb 00       		.byte	0
 17400 01ec 00       		.byte	0
 17401 01ed 27       		.uleb128 0x27
 17402 01ee 05       		.uleb128 0x5
 17403 01ef 00       		.byte	0
 17404 01f0 03       		.uleb128 0x3
 17405 01f1 0E       		.uleb128 0xe
 17406 01f2 3A       		.uleb128 0x3a
 17407 01f3 0B       		.uleb128 0xb
 17408 01f4 3B       		.uleb128 0x3b
 17409 01f5 05       		.uleb128 0x5
 17410 01f6 49       		.uleb128 0x49
 17411 01f7 13       		.uleb128 0x13
 17412 01f8 02       		.uleb128 0x2
 17413 01f9 18       		.uleb128 0x18
 17414 01fa 00       		.byte	0
 17415 01fb 00       		.byte	0
 17416 01fc 28       		.uleb128 0x28
 17417 01fd 34       		.uleb128 0x34
 17418 01fe 00       		.byte	0
 17419 01ff 03       		.uleb128 0x3
 17420 0200 0E       		.uleb128 0xe
 17421 0201 3A       		.uleb128 0x3a
 17422 0202 0B       		.uleb128 0xb
 17423 0203 3B       		.uleb128 0x3b
 17424 0204 05       		.uleb128 0x5
 17425 0205 49       		.uleb128 0x49
 17426 0206 13       		.uleb128 0x13
 17427 0207 02       		.uleb128 0x2
 17428 0208 18       		.uleb128 0x18
 17429 0209 00       		.byte	0
 17430 020a 00       		.byte	0
 17431 020b 29       		.uleb128 0x29
 17432 020c 34       		.uleb128 0x34
 17433 020d 00       		.byte	0
 17434 020e 03       		.uleb128 0x3
 17435 020f 08       		.uleb128 0x8
 17436 0210 3A       		.uleb128 0x3a
 17437 0211 0B       		.uleb128 0xb
 17438 0212 3B       		.uleb128 0x3b
 17439 0213 05       		.uleb128 0x5
 17440 0214 49       		.uleb128 0x49
 17441 0215 13       		.uleb128 0x13
 17442 0216 02       		.uleb128 0x2
ARM GAS  C:\Users\PCHAUT~1\AppData\Local\Temp\ccZvjaUR.s 			page 307


 17443 0217 18       		.uleb128 0x18
 17444 0218 00       		.byte	0
 17445 0219 00       		.byte	0
 17446 021a 2A       		.uleb128 0x2a
 17447 021b 2E       		.uleb128 0x2e
 17448 021c 01       		.byte	0x1
 17449 021d 3F       		.uleb128 0x3f
 17450 021e 19       		.uleb128 0x19
 17451 021f 03       		.uleb128 0x3
 17452 0220 0E       		.uleb128 0xe
 17453 0221 3A       		.uleb128 0x3a
 17454 0222 0B       		.uleb128 0xb
 17455 0223 3B       		.uleb128 0x3b
 17456 0224 0B       		.uleb128 0xb
 17457 0225 27       		.uleb128 0x27
 17458 0226 19       		.uleb128 0x19
 17459 0227 49       		.uleb128 0x49
 17460 0228 13       		.uleb128 0x13
 17461 0229 11       		.uleb128 0x11
 17462 022a 01       		.uleb128 0x1
 17463 022b 12       		.uleb128 0x12
 17464 022c 06       		.uleb128 0x6
 17465 022d 40       		.uleb128 0x40
 17466 022e 18       		.uleb128 0x18
 17467 022f 9642     		.uleb128 0x2116
 17468 0231 19       		.uleb128 0x19
 17469 0232 01       		.uleb128 0x1
 17470 0233 13       		.uleb128 0x13
 17471 0234 00       		.byte	0
 17472 0235 00       		.byte	0
 17473 0236 2B       		.uleb128 0x2b
 17474 0237 05       		.uleb128 0x5
 17475 0238 00       		.byte	0
 17476 0239 03       		.uleb128 0x3
 17477 023a 08       		.uleb128 0x8
 17478 023b 3A       		.uleb128 0x3a
 17479 023c 0B       		.uleb128 0xb
 17480 023d 3B       		.uleb128 0x3b
 17481 023e 0B       		.uleb128 0xb
 17482 023f 49       		.uleb128 0x49
 17483 0240 13       		.uleb128 0x13
 17484 0241 02       		.uleb128 0x2
 17485 0242 18       		.uleb128 0x18
 17486 0243 00       		.byte	0
 17487 0244 00       		.byte	0
 17488 0245 2C       		.uleb128 0x2c
 17489 0246 05       		.uleb128 0x5
 17490 0247 00       		.byte	0
 17491 0248 03       		.uleb128 0x3
 17492 0249 0E       		.uleb128 0xe
 17493 024a 3A       		.uleb128 0x3a
 17494 024b 0B       		.uleb128 0xb
 17495 024c 3B       		.uleb128 0x3b
 17496 024d 0B       		.uleb128 0xb
 17497 024e 49       		.uleb128 0x49
 17498 024f 13       		.uleb128 0x13
 17499 0250 02       		.uleb128 0x2
ARM GAS  C:\Users\PCHAUT~1\AppData\Local\Temp\ccZvjaUR.s 			page 308


 17500 0251 18       		.uleb128 0x18
 17501 0252 00       		.byte	0
 17502 0253 00       		.byte	0
 17503 0254 2D       		.uleb128 0x2d
 17504 0255 34       		.uleb128 0x34
 17505 0256 00       		.byte	0
 17506 0257 03       		.uleb128 0x3
 17507 0258 0E       		.uleb128 0xe
 17508 0259 3A       		.uleb128 0x3a
 17509 025a 0B       		.uleb128 0xb
 17510 025b 3B       		.uleb128 0x3b
 17511 025c 0B       		.uleb128 0xb
 17512 025d 49       		.uleb128 0x49
 17513 025e 13       		.uleb128 0x13
 17514 025f 02       		.uleb128 0x2
 17515 0260 18       		.uleb128 0x18
 17516 0261 00       		.byte	0
 17517 0262 00       		.byte	0
 17518 0263 2E       		.uleb128 0x2e
 17519 0264 2E       		.uleb128 0x2e
 17520 0265 01       		.byte	0x1
 17521 0266 3F       		.uleb128 0x3f
 17522 0267 19       		.uleb128 0x19
 17523 0268 03       		.uleb128 0x3
 17524 0269 0E       		.uleb128 0xe
 17525 026a 3A       		.uleb128 0x3a
 17526 026b 0B       		.uleb128 0xb
 17527 026c 3B       		.uleb128 0x3b
 17528 026d 0B       		.uleb128 0xb
 17529 026e 27       		.uleb128 0x27
 17530 026f 19       		.uleb128 0x19
 17531 0270 49       		.uleb128 0x49
 17532 0271 13       		.uleb128 0x13
 17533 0272 11       		.uleb128 0x11
 17534 0273 01       		.uleb128 0x1
 17535 0274 12       		.uleb128 0x12
 17536 0275 06       		.uleb128 0x6
 17537 0276 40       		.uleb128 0x40
 17538 0277 18       		.uleb128 0x18
 17539 0278 9642     		.uleb128 0x2116
 17540 027a 19       		.uleb128 0x19
 17541 027b 00       		.byte	0
 17542 027c 00       		.byte	0
 17543 027d 00       		.byte	0
 17544              		.section	.debug_aranges,"",%progbits
 17545 0000 2C030000 		.4byte	0x32c
 17546 0004 0200     		.2byte	0x2
 17547 0006 00000000 		.4byte	.Ldebug_info0
 17548 000a 04       		.byte	0x4
 17549 000b 00       		.byte	0
 17550 000c 0000     		.2byte	0
 17551 000e 0000     		.2byte	0
 17552 0010 00000000 		.4byte	.LFB3
 17553 0014 4C000000 		.4byte	.LFE3-.LFB3
 17554 0018 00000000 		.4byte	.LFB4
 17555 001c 4C000000 		.4byte	.LFE4-.LFB4
 17556 0020 00000000 		.4byte	.LFB5
ARM GAS  C:\Users\PCHAUT~1\AppData\Local\Temp\ccZvjaUR.s 			page 309


 17557 0024 5C000000 		.4byte	.LFE5-.LFB5
 17558 0028 00000000 		.4byte	.LFB6
 17559 002c 40000000 		.4byte	.LFE6-.LFB6
 17560 0030 00000000 		.4byte	.LFB7
 17561 0034 58000000 		.4byte	.LFE7-.LFB7
 17562 0038 00000000 		.4byte	.LFB8
 17563 003c 48000000 		.4byte	.LFE8-.LFB8
 17564 0040 00000000 		.4byte	.LFB9
 17565 0044 48000000 		.4byte	.LFE9-.LFB9
 17566 0048 00000000 		.4byte	.LFB10
 17567 004c 48000000 		.4byte	.LFE10-.LFB10
 17568 0050 00000000 		.4byte	.LFB11
 17569 0054 48000000 		.4byte	.LFE11-.LFB11
 17570 0058 00000000 		.4byte	.LFB12
 17571 005c 3C000000 		.4byte	.LFE12-.LFB12
 17572 0060 00000000 		.4byte	.LFB13
 17573 0064 B4000000 		.4byte	.LFE13-.LFB13
 17574 0068 00000000 		.4byte	.LFB14
 17575 006c 68000000 		.4byte	.LFE14-.LFB14
 17576 0070 00000000 		.4byte	.LFB15
 17577 0074 40000000 		.4byte	.LFE15-.LFB15
 17578 0078 00000000 		.4byte	.LFB16
 17579 007c 40000000 		.4byte	.LFE16-.LFB16
 17580 0080 00000000 		.4byte	.LFB17
 17581 0084 74000000 		.4byte	.LFE17-.LFB17
 17582 0088 00000000 		.4byte	.LFB18
 17583 008c 3C000000 		.4byte	.LFE18-.LFB18
 17584 0090 00000000 		.4byte	.LFB19
 17585 0094 38000000 		.4byte	.LFE19-.LFB19
 17586 0098 00000000 		.4byte	.LFB20
 17587 009c 34000000 		.4byte	.LFE20-.LFB20
 17588 00a0 00000000 		.4byte	.LFB21
 17589 00a4 58000000 		.4byte	.LFE21-.LFB21
 17590 00a8 00000000 		.4byte	.LFB22
 17591 00ac 50000000 		.4byte	.LFE22-.LFB22
 17592 00b0 00000000 		.4byte	.LFB23
 17593 00b4 DC020000 		.4byte	.LFE23-.LFB23
 17594 00b8 00000000 		.4byte	.LFB24
 17595 00bc 6C000000 		.4byte	.LFE24-.LFB24
 17596 00c0 00000000 		.4byte	.LFB25
 17597 00c4 48000000 		.4byte	.LFE25-.LFB25
 17598 00c8 00000000 		.4byte	.LFB26
 17599 00cc 18030000 		.4byte	.LFE26-.LFB26
 17600 00d0 00000000 		.4byte	.LFB27
 17601 00d4 30000000 		.4byte	.LFE27-.LFB27
 17602 00d8 00000000 		.4byte	.LFB28
 17603 00dc B4000000 		.4byte	.LFE28-.LFB28
 17604 00e0 00000000 		.4byte	.LFB29
 17605 00e4 3C010000 		.4byte	.LFE29-.LFB29
 17606 00e8 00000000 		.4byte	.LFB30
 17607 00ec 4C010000 		.4byte	.LFE30-.LFB30
 17608 00f0 00000000 		.4byte	.LFB31
 17609 00f4 B0000000 		.4byte	.LFE31-.LFB31
 17610 00f8 00000000 		.4byte	.LFB32
 17611 00fc 3C000000 		.4byte	.LFE32-.LFB32
 17612 0100 00000000 		.4byte	.LFB33
 17613 0104 5C000000 		.4byte	.LFE33-.LFB33
ARM GAS  C:\Users\PCHAUT~1\AppData\Local\Temp\ccZvjaUR.s 			page 310


 17614 0108 00000000 		.4byte	.LFB34
 17615 010c 58000000 		.4byte	.LFE34-.LFB34
 17616 0110 00000000 		.4byte	.LFB35
 17617 0114 38000000 		.4byte	.LFE35-.LFB35
 17618 0118 00000000 		.4byte	.LFB36
 17619 011c 34000000 		.4byte	.LFE36-.LFB36
 17620 0120 00000000 		.4byte	.LFB37
 17621 0124 40000000 		.4byte	.LFE37-.LFB37
 17622 0128 00000000 		.4byte	.LFB38
 17623 012c 40000000 		.4byte	.LFE38-.LFB38
 17624 0130 00000000 		.4byte	.LFB39
 17625 0134 54000000 		.4byte	.LFE39-.LFB39
 17626 0138 00000000 		.4byte	.LFB40
 17627 013c 4C000000 		.4byte	.LFE40-.LFB40
 17628 0140 00000000 		.4byte	.LFB41
 17629 0144 A8010000 		.4byte	.LFE41-.LFB41
 17630 0148 00000000 		.4byte	.LFB42
 17631 014c CC000000 		.4byte	.LFE42-.LFB42
 17632 0150 00000000 		.4byte	.LFB43
 17633 0154 70000000 		.4byte	.LFE43-.LFB43
 17634 0158 00000000 		.4byte	.LFB44
 17635 015c E0000000 		.4byte	.LFE44-.LFB44
 17636 0160 00000000 		.4byte	.LFB45
 17637 0164 38000000 		.4byte	.LFE45-.LFB45
 17638 0168 00000000 		.4byte	.LFB46
 17639 016c 48000000 		.4byte	.LFE46-.LFB46
 17640 0170 00000000 		.4byte	.LFB47
 17641 0174 D8000000 		.4byte	.LFE47-.LFB47
 17642 0178 00000000 		.4byte	.LFB48
 17643 017c 7C000000 		.4byte	.LFE48-.LFB48
 17644 0180 00000000 		.4byte	.LFB49
 17645 0184 88000000 		.4byte	.LFE49-.LFB49
 17646 0188 00000000 		.4byte	.LFB50
 17647 018c 88000000 		.4byte	.LFE50-.LFB50
 17648 0190 00000000 		.4byte	.LFB51
 17649 0194 94000000 		.4byte	.LFE51-.LFB51
 17650 0198 00000000 		.4byte	.LFB52
 17651 019c 44000000 		.4byte	.LFE52-.LFB52
 17652 01a0 00000000 		.4byte	.LFB53
 17653 01a4 90000000 		.4byte	.LFE53-.LFB53
 17654 01a8 00000000 		.4byte	.LFB54
 17655 01ac 84000000 		.4byte	.LFE54-.LFB54
 17656 01b0 00000000 		.4byte	.LFB55
 17657 01b4 54000000 		.4byte	.LFE55-.LFB55
 17658 01b8 00000000 		.4byte	.LFB56
 17659 01bc 44000000 		.4byte	.LFE56-.LFB56
 17660 01c0 00000000 		.4byte	.LFB57
 17661 01c4 38000000 		.4byte	.LFE57-.LFB57
 17662 01c8 00000000 		.4byte	.LFB58
 17663 01cc 4C000000 		.4byte	.LFE58-.LFB58
 17664 01d0 00000000 		.4byte	.LFB59
 17665 01d4 60000000 		.4byte	.LFE59-.LFB59
 17666 01d8 00000000 		.4byte	.LFB60
 17667 01dc 6C010000 		.4byte	.LFE60-.LFB60
 17668 01e0 00000000 		.4byte	.LFB61
 17669 01e4 68000000 		.4byte	.LFE61-.LFB61
 17670 01e8 00000000 		.4byte	.LFB62
ARM GAS  C:\Users\PCHAUT~1\AppData\Local\Temp\ccZvjaUR.s 			page 311


 17671 01ec F0000000 		.4byte	.LFE62-.LFB62
 17672 01f0 00000000 		.4byte	.LFB63
 17673 01f4 58010000 		.4byte	.LFE63-.LFB63
 17674 01f8 00000000 		.4byte	.LFB64
 17675 01fc FC000000 		.4byte	.LFE64-.LFB64
 17676 0200 00000000 		.4byte	.LFB65
 17677 0204 AC000000 		.4byte	.LFE65-.LFB65
 17678 0208 00000000 		.4byte	.LFB66
 17679 020c 84000000 		.4byte	.LFE66-.LFB66
 17680 0210 00000000 		.4byte	.LFB67
 17681 0214 80000000 		.4byte	.LFE67-.LFB67
 17682 0218 00000000 		.4byte	.LFB68
 17683 021c 48000000 		.4byte	.LFE68-.LFB68
 17684 0220 00000000 		.4byte	.LFB69
 17685 0224 8C000000 		.4byte	.LFE69-.LFB69
 17686 0228 00000000 		.4byte	.LFB70
 17687 022c 34000000 		.4byte	.LFE70-.LFB70
 17688 0230 00000000 		.4byte	.LFB71
 17689 0234 48000000 		.4byte	.LFE71-.LFB71
 17690 0238 00000000 		.4byte	.LFB72
 17691 023c 38000000 		.4byte	.LFE72-.LFB72
 17692 0240 00000000 		.4byte	.LFB73
 17693 0244 44000000 		.4byte	.LFE73-.LFB73
 17694 0248 00000000 		.4byte	.LFB74
 17695 024c 44000000 		.4byte	.LFE74-.LFB74
 17696 0250 00000000 		.4byte	.LFB75
 17697 0254 00010000 		.4byte	.LFE75-.LFB75
 17698 0258 00000000 		.4byte	.LFB76
 17699 025c C0010000 		.4byte	.LFE76-.LFB76
 17700 0260 00000000 		.4byte	.LFB77
 17701 0264 B8000000 		.4byte	.LFE77-.LFB77
 17702 0268 00000000 		.4byte	.LFB78
 17703 026c A0000000 		.4byte	.LFE78-.LFB78
 17704 0270 00000000 		.4byte	.LFB79
 17705 0274 34000000 		.4byte	.LFE79-.LFB79
 17706 0278 00000000 		.4byte	.LFB80
 17707 027c 6C020000 		.4byte	.LFE80-.LFB80
 17708 0280 00000000 		.4byte	.LFB81
 17709 0284 68000000 		.4byte	.LFE81-.LFB81
 17710 0288 00000000 		.4byte	.LFB82
 17711 028c 34000000 		.4byte	.LFE82-.LFB82
 17712 0290 00000000 		.4byte	.LFB83
 17713 0294 80000000 		.4byte	.LFE83-.LFB83
 17714 0298 00000000 		.4byte	.LFB84
 17715 029c 44000000 		.4byte	.LFE84-.LFB84
 17716 02a0 00000000 		.4byte	.LFB85
 17717 02a4 38000000 		.4byte	.LFE85-.LFB85
 17718 02a8 00000000 		.4byte	.LFB86
 17719 02ac 38000000 		.4byte	.LFE86-.LFB86
 17720 02b0 00000000 		.4byte	.LFB87
 17721 02b4 DC020000 		.4byte	.LFE87-.LFB87
 17722 02b8 00000000 		.4byte	.LFB88
 17723 02bc 30010000 		.4byte	.LFE88-.LFB88
 17724 02c0 00000000 		.4byte	.LFB89
 17725 02c4 88000000 		.4byte	.LFE89-.LFB89
 17726 02c8 00000000 		.4byte	.LFB90
 17727 02cc 90000000 		.4byte	.LFE90-.LFB90
ARM GAS  C:\Users\PCHAUT~1\AppData\Local\Temp\ccZvjaUR.s 			page 312


 17728 02d0 00000000 		.4byte	.LFB91
 17729 02d4 04010000 		.4byte	.LFE91-.LFB91
 17730 02d8 00000000 		.4byte	.LFB92
 17731 02dc B0000000 		.4byte	.LFE92-.LFB92
 17732 02e0 00000000 		.4byte	.LFB93
 17733 02e4 64000000 		.4byte	.LFE93-.LFB93
 17734 02e8 00000000 		.4byte	.LFB94
 17735 02ec 34000000 		.4byte	.LFE94-.LFB94
 17736 02f0 00000000 		.4byte	.LFB95
 17737 02f4 7C000000 		.4byte	.LFE95-.LFB95
 17738 02f8 00000000 		.4byte	.LFB96
 17739 02fc 74000000 		.4byte	.LFE96-.LFB96
 17740 0300 00000000 		.4byte	.LFB97
 17741 0304 84000000 		.4byte	.LFE97-.LFB97
 17742 0308 00000000 		.4byte	.LFB98
 17743 030c 80000000 		.4byte	.LFE98-.LFB98
 17744 0310 00000000 		.4byte	.LFB99
 17745 0314 4C000000 		.4byte	.LFE99-.LFB99
 17746 0318 00000000 		.4byte	.LFB100
 17747 031c 44000000 		.4byte	.LFE100-.LFB100
 17748 0320 00000000 		.4byte	.LFB101
 17749 0324 44000000 		.4byte	.LFE101-.LFB101
 17750 0328 00000000 		.4byte	0
 17751 032c 00000000 		.4byte	0
 17752              		.section	.debug_ranges,"",%progbits
 17753              	.Ldebug_ranges0:
 17754 0000 00000000 		.4byte	.LFB3
 17755 0004 4C000000 		.4byte	.LFE3
 17756 0008 00000000 		.4byte	.LFB4
 17757 000c 4C000000 		.4byte	.LFE4
 17758 0010 00000000 		.4byte	.LFB5
 17759 0014 5C000000 		.4byte	.LFE5
 17760 0018 00000000 		.4byte	.LFB6
 17761 001c 40000000 		.4byte	.LFE6
 17762 0020 00000000 		.4byte	.LFB7
 17763 0024 58000000 		.4byte	.LFE7
 17764 0028 00000000 		.4byte	.LFB8
 17765 002c 48000000 		.4byte	.LFE8
 17766 0030 00000000 		.4byte	.LFB9
 17767 0034 48000000 		.4byte	.LFE9
 17768 0038 00000000 		.4byte	.LFB10
 17769 003c 48000000 		.4byte	.LFE10
 17770 0040 00000000 		.4byte	.LFB11
 17771 0044 48000000 		.4byte	.LFE11
 17772 0048 00000000 		.4byte	.LFB12
 17773 004c 3C000000 		.4byte	.LFE12
 17774 0050 00000000 		.4byte	.LFB13
 17775 0054 B4000000 		.4byte	.LFE13
 17776 0058 00000000 		.4byte	.LFB14
 17777 005c 68000000 		.4byte	.LFE14
 17778 0060 00000000 		.4byte	.LFB15
 17779 0064 40000000 		.4byte	.LFE15
 17780 0068 00000000 		.4byte	.LFB16
 17781 006c 40000000 		.4byte	.LFE16
 17782 0070 00000000 		.4byte	.LFB17
 17783 0074 74000000 		.4byte	.LFE17
 17784 0078 00000000 		.4byte	.LFB18
ARM GAS  C:\Users\PCHAUT~1\AppData\Local\Temp\ccZvjaUR.s 			page 313


 17785 007c 3C000000 		.4byte	.LFE18
 17786 0080 00000000 		.4byte	.LFB19
 17787 0084 38000000 		.4byte	.LFE19
 17788 0088 00000000 		.4byte	.LFB20
 17789 008c 34000000 		.4byte	.LFE20
 17790 0090 00000000 		.4byte	.LFB21
 17791 0094 58000000 		.4byte	.LFE21
 17792 0098 00000000 		.4byte	.LFB22
 17793 009c 50000000 		.4byte	.LFE22
 17794 00a0 00000000 		.4byte	.LFB23
 17795 00a4 DC020000 		.4byte	.LFE23
 17796 00a8 00000000 		.4byte	.LFB24
 17797 00ac 6C000000 		.4byte	.LFE24
 17798 00b0 00000000 		.4byte	.LFB25
 17799 00b4 48000000 		.4byte	.LFE25
 17800 00b8 00000000 		.4byte	.LFB26
 17801 00bc 18030000 		.4byte	.LFE26
 17802 00c0 00000000 		.4byte	.LFB27
 17803 00c4 30000000 		.4byte	.LFE27
 17804 00c8 00000000 		.4byte	.LFB28
 17805 00cc B4000000 		.4byte	.LFE28
 17806 00d0 00000000 		.4byte	.LFB29
 17807 00d4 3C010000 		.4byte	.LFE29
 17808 00d8 00000000 		.4byte	.LFB30
 17809 00dc 4C010000 		.4byte	.LFE30
 17810 00e0 00000000 		.4byte	.LFB31
 17811 00e4 B0000000 		.4byte	.LFE31
 17812 00e8 00000000 		.4byte	.LFB32
 17813 00ec 3C000000 		.4byte	.LFE32
 17814 00f0 00000000 		.4byte	.LFB33
 17815 00f4 5C000000 		.4byte	.LFE33
 17816 00f8 00000000 		.4byte	.LFB34
 17817 00fc 58000000 		.4byte	.LFE34
 17818 0100 00000000 		.4byte	.LFB35
 17819 0104 38000000 		.4byte	.LFE35
 17820 0108 00000000 		.4byte	.LFB36
 17821 010c 34000000 		.4byte	.LFE36
 17822 0110 00000000 		.4byte	.LFB37
 17823 0114 40000000 		.4byte	.LFE37
 17824 0118 00000000 		.4byte	.LFB38
 17825 011c 40000000 		.4byte	.LFE38
 17826 0120 00000000 		.4byte	.LFB39
 17827 0124 54000000 		.4byte	.LFE39
 17828 0128 00000000 		.4byte	.LFB40
 17829 012c 4C000000 		.4byte	.LFE40
 17830 0130 00000000 		.4byte	.LFB41
 17831 0134 A8010000 		.4byte	.LFE41
 17832 0138 00000000 		.4byte	.LFB42
 17833 013c CC000000 		.4byte	.LFE42
 17834 0140 00000000 		.4byte	.LFB43
 17835 0144 70000000 		.4byte	.LFE43
 17836 0148 00000000 		.4byte	.LFB44
 17837 014c E0000000 		.4byte	.LFE44
 17838 0150 00000000 		.4byte	.LFB45
 17839 0154 38000000 		.4byte	.LFE45
 17840 0158 00000000 		.4byte	.LFB46
 17841 015c 48000000 		.4byte	.LFE46
ARM GAS  C:\Users\PCHAUT~1\AppData\Local\Temp\ccZvjaUR.s 			page 314


 17842 0160 00000000 		.4byte	.LFB47
 17843 0164 D8000000 		.4byte	.LFE47
 17844 0168 00000000 		.4byte	.LFB48
 17845 016c 7C000000 		.4byte	.LFE48
 17846 0170 00000000 		.4byte	.LFB49
 17847 0174 88000000 		.4byte	.LFE49
 17848 0178 00000000 		.4byte	.LFB50
 17849 017c 88000000 		.4byte	.LFE50
 17850 0180 00000000 		.4byte	.LFB51
 17851 0184 94000000 		.4byte	.LFE51
 17852 0188 00000000 		.4byte	.LFB52
 17853 018c 44000000 		.4byte	.LFE52
 17854 0190 00000000 		.4byte	.LFB53
 17855 0194 90000000 		.4byte	.LFE53
 17856 0198 00000000 		.4byte	.LFB54
 17857 019c 84000000 		.4byte	.LFE54
 17858 01a0 00000000 		.4byte	.LFB55
 17859 01a4 54000000 		.4byte	.LFE55
 17860 01a8 00000000 		.4byte	.LFB56
 17861 01ac 44000000 		.4byte	.LFE56
 17862 01b0 00000000 		.4byte	.LFB57
 17863 01b4 38000000 		.4byte	.LFE57
 17864 01b8 00000000 		.4byte	.LFB58
 17865 01bc 4C000000 		.4byte	.LFE58
 17866 01c0 00000000 		.4byte	.LFB59
 17867 01c4 60000000 		.4byte	.LFE59
 17868 01c8 00000000 		.4byte	.LFB60
 17869 01cc 6C010000 		.4byte	.LFE60
 17870 01d0 00000000 		.4byte	.LFB61
 17871 01d4 68000000 		.4byte	.LFE61
 17872 01d8 00000000 		.4byte	.LFB62
 17873 01dc F0000000 		.4byte	.LFE62
 17874 01e0 00000000 		.4byte	.LFB63
 17875 01e4 58010000 		.4byte	.LFE63
 17876 01e8 00000000 		.4byte	.LFB64
 17877 01ec FC000000 		.4byte	.LFE64
 17878 01f0 00000000 		.4byte	.LFB65
 17879 01f4 AC000000 		.4byte	.LFE65
 17880 01f8 00000000 		.4byte	.LFB66
 17881 01fc 84000000 		.4byte	.LFE66
 17882 0200 00000000 		.4byte	.LFB67
 17883 0204 80000000 		.4byte	.LFE67
 17884 0208 00000000 		.4byte	.LFB68
 17885 020c 48000000 		.4byte	.LFE68
 17886 0210 00000000 		.4byte	.LFB69
 17887 0214 8C000000 		.4byte	.LFE69
 17888 0218 00000000 		.4byte	.LFB70
 17889 021c 34000000 		.4byte	.LFE70
 17890 0220 00000000 		.4byte	.LFB71
 17891 0224 48000000 		.4byte	.LFE71
 17892 0228 00000000 		.4byte	.LFB72
 17893 022c 38000000 		.4byte	.LFE72
 17894 0230 00000000 		.4byte	.LFB73
 17895 0234 44000000 		.4byte	.LFE73
 17896 0238 00000000 		.4byte	.LFB74
 17897 023c 44000000 		.4byte	.LFE74
 17898 0240 00000000 		.4byte	.LFB75
ARM GAS  C:\Users\PCHAUT~1\AppData\Local\Temp\ccZvjaUR.s 			page 315


 17899 0244 00010000 		.4byte	.LFE75
 17900 0248 00000000 		.4byte	.LFB76
 17901 024c C0010000 		.4byte	.LFE76
 17902 0250 00000000 		.4byte	.LFB77
 17903 0254 B8000000 		.4byte	.LFE77
 17904 0258 00000000 		.4byte	.LFB78
 17905 025c A0000000 		.4byte	.LFE78
 17906 0260 00000000 		.4byte	.LFB79
 17907 0264 34000000 		.4byte	.LFE79
 17908 0268 00000000 		.4byte	.LFB80
 17909 026c 6C020000 		.4byte	.LFE80
 17910 0270 00000000 		.4byte	.LFB81
 17911 0274 68000000 		.4byte	.LFE81
 17912 0278 00000000 		.4byte	.LFB82
 17913 027c 34000000 		.4byte	.LFE82
 17914 0280 00000000 		.4byte	.LFB83
 17915 0284 80000000 		.4byte	.LFE83
 17916 0288 00000000 		.4byte	.LFB84
 17917 028c 44000000 		.4byte	.LFE84
 17918 0290 00000000 		.4byte	.LFB85
 17919 0294 38000000 		.4byte	.LFE85
 17920 0298 00000000 		.4byte	.LFB86
 17921 029c 38000000 		.4byte	.LFE86
 17922 02a0 00000000 		.4byte	.LFB87
 17923 02a4 DC020000 		.4byte	.LFE87
 17924 02a8 00000000 		.4byte	.LFB88
 17925 02ac 30010000 		.4byte	.LFE88
 17926 02b0 00000000 		.4byte	.LFB89
 17927 02b4 88000000 		.4byte	.LFE89
 17928 02b8 00000000 		.4byte	.LFB90
 17929 02bc 90000000 		.4byte	.LFE90
 17930 02c0 00000000 		.4byte	.LFB91
 17931 02c4 04010000 		.4byte	.LFE91
 17932 02c8 00000000 		.4byte	.LFB92
 17933 02cc B0000000 		.4byte	.LFE92
 17934 02d0 00000000 		.4byte	.LFB93
 17935 02d4 64000000 		.4byte	.LFE93
 17936 02d8 00000000 		.4byte	.LFB94
 17937 02dc 34000000 		.4byte	.LFE94
 17938 02e0 00000000 		.4byte	.LFB95
 17939 02e4 7C000000 		.4byte	.LFE95
 17940 02e8 00000000 		.4byte	.LFB96
 17941 02ec 74000000 		.4byte	.LFE96
 17942 02f0 00000000 		.4byte	.LFB97
 17943 02f4 84000000 		.4byte	.LFE97
 17944 02f8 00000000 		.4byte	.LFB98
 17945 02fc 80000000 		.4byte	.LFE98
 17946 0300 00000000 		.4byte	.LFB99
 17947 0304 4C000000 		.4byte	.LFE99
 17948 0308 00000000 		.4byte	.LFB100
 17949 030c 44000000 		.4byte	.LFE100
 17950 0310 00000000 		.4byte	.LFB101
 17951 0314 44000000 		.4byte	.LFE101
 17952 0318 00000000 		.4byte	0
 17953 031c 00000000 		.4byte	0
 17954              		.section	.debug_line,"",%progbits
 17955              	.Ldebug_line0:
ARM GAS  C:\Users\PCHAUT~1\AppData\Local\Temp\ccZvjaUR.s 			page 316


 17956 0000 7E0F0000 		.section	.debug_str,"MS",%progbits,1
 17956      0200F603 
 17956      00000201 
 17956      FB0E0D00 
 17956      01010101 
 17957              	.LASF265:
 17958 0000 70537061 		.ascii	"pSpadAmbientDamperThreshold\000"
 17958      64416D62 
 17958      69656E74 
 17958      44616D70 
 17958      65725468 
 17959              	.LASF371:
 17960 001c 564C3533 		.ascii	"VL53L0X_GetNumberOfLimitCheck\000"
 17960      4C30585F 
 17960      4765744E 
 17960      756D6265 
 17960      724F664C 
 17961              	.LASF306:
 17962 003a 44657669 		.ascii	"DeviceRangeStatus\000"
 17962      63655261 
 17962      6E676553 
 17962      74617475 
 17962      7300
 17963              	.LASF94:
 17964 004c 52656665 		.ascii	"ReferenceSpadType\000"
 17964      72656E63 
 17964      65537061 
 17964      64547970 
 17964      6500
 17965              	.LASF63:
 17966 005e 5369676E 		.ascii	"SignalRateRtnMegaCps\000"
 17966      616C5261 
 17966      74655274 
 17966      6E4D6567 
 17966      61437073 
 17967              	.LASF144:
 17968 0073 5F6D6178 		.ascii	"_maxwds\000"
 17968      77647300 
 17969              	.LASF97:
 17970 007b 50617274 		.ascii	"PartUIDLower\000"
 17970      5549444C 
 17970      6F776572 
 17970      00
 17971              	.LASF377:
 17972 0088 564C3533 		.ascii	"VL53L0X_GetXTalkCompensationRateMegaCps\000"
 17972      4C30585F 
 17972      47657458 
 17972      54616C6B 
 17972      436F6D70 
 17973              	.LASF173:
 17974 00b0 5F636F6F 		.ascii	"_cookie\000"
 17974      6B696500 
 17975              	.LASF34:
 17976 00b8 50726F64 		.ascii	"ProductRevisionMajor\000"
 17976      75637452 
 17976      65766973 
 17976      696F6E4D 
ARM GAS  C:\Users\PCHAUT~1\AppData\Local\Temp\ccZvjaUR.s 			page 317


 17976      616A6F72 
 17977              	.LASF343:
 17978 00cd 70536967 		.ascii	"pSignalRateRtnMegaCps\000"
 17978      6E616C52 
 17978      61746552 
 17978      746E4D65 
 17978      67614370 
 17979              	.LASF246:
 17980 00e3 564C3533 		.ascii	"VL53L0X_DEV\000"
 17980      4C30585F 
 17980      44455600 
 17981              	.LASF158:
 17982 00ef 5F6F6E5F 		.ascii	"_on_exit_args\000"
 17982      65786974 
 17982      5F617267 
 17982      7300
 17983              	.LASF43:
 17984 00fd 48697374 		.ascii	"HistogramMode\000"
 17984      6F677261 
 17984      6D4D6F64 
 17984      6500
 17985              	.LASF225:
 17986 010b 5F776374 		.ascii	"_wctomb_state\000"
 17986      6F6D625F 
 17986      73746174 
 17986      6500
 17987              	.LASF468:
 17988 0119 564C3533 		.ascii	"VL53L0X_GetRangeStatusString\000"
 17988      4C30585F 
 17988      47657452 
 17988      616E6765 
 17988      53746174 
 17989              	.LASF243:
 17990 0136 44657669 		.ascii	"DeviceInfo\000"
 17990      6365496E 
 17990      666F00
 17991              	.LASF46:
 17992 0141 5854616C 		.ascii	"XTalkCompensationEnable\000"
 17992      6B436F6D 
 17992      70656E73 
 17992      6174696F 
 17992      6E456E61 
 17993              	.LASF86:
 17994 0159 50726552 		.ascii	"PreRangeVcselPulsePeriod\000"
 17994      616E6765 
 17994      56637365 
 17994      6C50756C 
 17994      73655065 
 17995              	.LASF257:
 17996 0172 564C3533 		.ascii	"VL53L0X_SetReferenceSpads\000"
 17996      4C30585F 
 17996      53657452 
 17996      65666572 
 17996      656E6365 
 17997              	.LASF222:
 17998 018c 5F723438 		.ascii	"_r48\000"
 17998      00
ARM GAS  C:\Users\PCHAUT~1\AppData\Local\Temp\ccZvjaUR.s 			page 318


 17999              	.LASF415:
 18000 0191 564C3533 		.ascii	"VL53L0X_SetMeasurementTimingBudgetMicroSeconds\000"
 18000      4C30585F 
 18000      5365744D 
 18000      65617375 
 18000      72656D65 
 18001              	.LASF394:
 18002 01c0 53746174 		.ascii	"Status1\000"
 18002      75733100 
 18003              	.LASF259:
 18004 01c8 564C3533 		.ascii	"VL53L0X_GetSpadAmbientDamperFactor\000"
 18004      4C30585F 
 18004      47657453 
 18004      70616441 
 18004      6D626965 
 18005              	.LASF381:
 18006 01eb 70585461 		.ascii	"pXTalkCompensationEnable\000"
 18006      6C6B436F 
 18006      6D70656E 
 18006      73617469 
 18006      6F6E456E 
 18007              	.LASF420:
 18008 0204 70456E61 		.ascii	"pEnabled\000"
 18008      626C6564 
 18008      00
 18009              	.LASF149:
 18010 020d 5F5F746D 		.ascii	"__tm_sec\000"
 18010      5F736563 
 18010      00
 18011              	.LASF349:
 18012 0216 57726170 		.ascii	"WrapAroundCheckEnableInt\000"
 18012      41726F75 
 18012      6E644368 
 18012      65636B45 
 18012      6E61626C 
 18013              	.LASF227:
 18014 022f 5F736967 		.ascii	"_signal_buf\000"
 18014      6E616C5F 
 18014      62756600 
 18015              	.LASF300:
 18016 023b 564C3533 		.ascii	"VL53L0X_GetHistogramMeasurementData\000"
 18016      4C30585F 
 18016      47657448 
 18016      6973746F 
 18016      6772616D 
 18017              	.LASF14:
 18018 025f 756E7369 		.ascii	"unsigned int\000"
 18018      676E6564 
 18018      20696E74 
 18018      00
 18019              	.LASF47:
 18020 026c 5854616C 		.ascii	"XTalkCompensationRangeMilliMeter\000"
 18020      6B436F6D 
 18020      70656E73 
 18020      6174696F 
 18020      6E52616E 
 18021              	.LASF256:
ARM GAS  C:\Users\PCHAUT~1\AppData\Local\Temp\ccZvjaUR.s 			page 319


 18022 028d 53746174 		.ascii	"Status\000"
 18022      757300
 18023              	.LASF417:
 18024 0294 70486973 		.ascii	"pHistogramMode\000"
 18024      746F6772 
 18024      616D4D6F 
 18024      646500
 18025              	.LASF413:
 18026 02a3 564C3533 		.ascii	"VL53L0X_GetMeasurementTimingBudgetMicroSeconds\000"
 18026      4C30585F 
 18026      4765744D 
 18026      65617375 
 18026      72656D65 
 18027              	.LASF432:
 18028 02d2 74656D70 		.ascii	"tempword\000"
 18028      776F7264 
 18028      00
 18029              	.LASF41:
 18030 02db 564C3533 		.ascii	"VL53L0X_PowerModes\000"
 18030      4C30585F 
 18030      506F7765 
 18030      724D6F64 
 18030      657300
 18031              	.LASF32:
 18032 02ee 50726F64 		.ascii	"ProductId\000"
 18032      75637449 
 18032      6400
 18033              	.LASF440:
 18034 02f8 564C3533 		.ascii	"VL53L0X_SetTuningSettingBuffer\000"
 18034      4C30585F 
 18034      53657454 
 18034      756E696E 
 18034      67536574 
 18035              	.LASF50:
 18036 0317 4C696D69 		.ascii	"LimitChecksEnable\000"
 18036      74436865 
 18036      636B7345 
 18036      6E61626C 
 18036      6500
 18037              	.LASF170:
 18038 0329 5F666C61 		.ascii	"_flags\000"
 18038      677300
 18039              	.LASF395:
 18040 0330 4F6C6454 		.ascii	"OldTimeOutMicroSeconds\000"
 18040      696D654F 
 18040      75744D69 
 18040      63726F53 
 18040      65636F6E 
 18041              	.LASF75:
 18042 0347 4572726F 		.ascii	"ErrorStatus\000"
 18042      72537461 
 18042      74757300 
 18043              	.LASF64:
 18044 0353 416D6269 		.ascii	"AmbientRateRtnMegaCps\000"
 18044      656E7452 
 18044      61746552 
 18044      746E4D65 
ARM GAS  C:\Users\PCHAUT~1\AppData\Local\Temp\ccZvjaUR.s 			page 320


 18044      67614370 
 18045              	.LASF8:
 18046 0369 5F5F696E 		.ascii	"__int32_t\000"
 18046      7433325F 
 18046      7400
 18047              	.LASF330:
 18048 0373 5854616C 		.ascii	"XTalkCalDistance\000"
 18048      6B43616C 
 18048      44697374 
 18048      616E6365 
 18048      00
 18049              	.LASF187:
 18050 0384 5F657272 		.ascii	"_errno\000"
 18050      6E6F00
 18051              	.LASF346:
 18052 038b 564C3533 		.ascii	"VL53L0X_GetWrapAroundCheckEnable\000"
 18052      4C30585F 
 18052      47657457 
 18052      72617041 
 18052      726F756E 
 18053              	.LASF328:
 18054 03ac 704F6666 		.ascii	"pOffsetMicroMeter\000"
 18054      7365744D 
 18054      6963726F 
 18054      4D657465 
 18054      7200
 18055              	.LASF334:
 18056 03be 70587461 		.ascii	"pXtalkPerSpad\000"
 18056      6C6B5065 
 18056      72537061 
 18056      6400
 18057              	.LASF253:
 18058 03cc 564C3533 		.ascii	"VL53L0X_GetReferenceSpads\000"
 18058      4C30585F 
 18058      47657452 
 18058      65666572 
 18058      656E6365 
 18059              	.LASF402:
 18060 03e6 564C3533 		.ascii	"VL53L0X_GetSequenceStepEnable\000"
 18060      4C30585F 
 18060      47657453 
 18060      65717565 
 18060      6E636553 
 18061              	.LASF367:
 18062 0404 564C3533 		.ascii	"VL53L0X_GetLimitCheckStatus\000"
 18062      4C30585F 
 18062      4765744C 
 18062      696D6974 
 18062      43686563 
 18063              	.LASF327:
 18064 0420 43616C44 		.ascii	"CalDistanceMilliMeter\000"
 18064      69737461 
 18064      6E63654D 
 18064      696C6C69 
 18064      4D657465 
 18065              	.LASF333:
 18066 0436 54696D65 		.ascii	"TimeoutMs\000"
ARM GAS  C:\Users\PCHAUT~1\AppData\Local\Temp\ccZvjaUR.s 			page 321


 18066      6F75744D 
 18066      7300
 18067              	.LASF291:
 18068 0440 506F6C61 		.ascii	"Polarity\000"
 18068      72697479 
 18068      00
 18069              	.LASF239:
 18070 0449 5F5F6C6F 		.ascii	"__locale_t\000"
 18070      63616C65 
 18070      5F7400
 18071              	.LASF28:
 18072 0454 6275696C 		.ascii	"build\000"
 18072      6400
 18073              	.LASF184:
 18074 045a 5F6D6273 		.ascii	"_mbstate\000"
 18074      74617465 
 18074      00
 18075              	.LASF304:
 18076 0463 5369676E 		.ascii	"SignalRefClipLimitCheckEnable\000"
 18076      616C5265 
 18076      66436C69 
 18076      704C696D 
 18076      69744368 
 18077              	.LASF281:
 18078 0481 54687265 		.ascii	"ThresholdLow\000"
 18078      73686F6C 
 18078      644C6F77 
 18078      00
 18079              	.LASF174:
 18080 048e 5F726561 		.ascii	"_read\000"
 18080      6400
 18081              	.LASF142:
 18082 0494 5F5F554C 		.ascii	"__ULong\000"
 18082      6F6E6700 
 18083              	.LASF391:
 18084 049c 54696D65 		.ascii	"TimeoutMicroSeconds\000"
 18084      6F75744D 
 18084      6963726F 
 18084      5365636F 
 18084      6E647300 
 18085              	.LASF229:
 18086 04b0 5F6D6272 		.ascii	"_mbrlen_state\000"
 18086      6C656E5F 
 18086      73746174 
 18086      6500
 18087              	.LASF245:
 18088 04be 564C3533 		.ascii	"VL53L0X_Dev_t\000"
 18088      4C30585F 
 18088      4465765F 
 18088      7400
 18089              	.LASF268:
 18090 04cc 564C3533 		.ascii	"VL53L0X_EnableInterruptMask\000"
 18090      4C30585F 
 18090      456E6162 
 18090      6C65496E 
 18090      74657272 
 18091              	.LASF53:
ARM GAS  C:\Users\PCHAUT~1\AppData\Local\Temp\ccZvjaUR.s 			page 322


 18092 04e8 57726170 		.ascii	"WrapAroundCheckEnable\000"
 18092      41726F75 
 18092      6E644368 
 18092      65636B45 
 18092      6E61626C 
 18093              	.LASF111:
 18094 04fe 506F7765 		.ascii	"PowerMode\000"
 18094      724D6F64 
 18094      6500
 18095              	.LASF410:
 18096 0508 70564353 		.ascii	"pVCSELPulsePeriodPCLK\000"
 18096      454C5075 
 18096      6C736550 
 18096      6572696F 
 18096      6450434C 
 18097              	.LASF317:
 18098 051e 704D6561 		.ascii	"pMeasurementDataReady\000"
 18098      73757265 
 18098      6D656E74 
 18098      44617461 
 18098      52656164 
 18099              	.LASF51:
 18100 0534 4C696D69 		.ascii	"LimitChecksStatus\000"
 18100      74436865 
 18100      636B7353 
 18100      74617475 
 18100      7300
 18101              	.LASF359:
 18102 0546 4C696D69 		.ascii	"LimitCheckValue\000"
 18102      74436865 
 18102      636B5661 
 18102      6C756500 
 18103              	.LASF62:
 18104 0556 52616E67 		.ascii	"RangeDMaxMilliMeter\000"
 18104      65444D61 
 18104      784D696C 
 18104      6C694D65 
 18104      74657200 
 18105              	.LASF473:
 18106 056a 564C3533 		.ascii	"VL53L0X_GetDeviceErrorStatus\000"
 18106      4C30585F 
 18106      47657444 
 18106      65766963 
 18106      65457272 
 18107              	.LASF311:
 18108 0587 5874616C 		.ascii	"XtalkRangeMilliMeter\000"
 18108      6B52616E 
 18108      67654D69 
 18108      6C6C694D 
 18108      65746572 
 18109              	.LASF134:
 18110 059c 5F66706F 		.ascii	"_fpos_t\000"
 18110      735F7400 
 18111              	.LASF240:
 18112 05a4 5F696D70 		.ascii	"_impure_ptr\000"
 18112      7572655F 
 18112      70747200 
ARM GAS  C:\Users\PCHAUT~1\AppData\Local\Temp\ccZvjaUR.s 			page 323


 18113              	.LASF165:
 18114 05b0 5F666E73 		.ascii	"_fns\000"
 18114      00
 18115              	.LASF92:
 18116 05b5 52657669 		.ascii	"Revision\000"
 18116      73696F6E 
 18116      00
 18117              	.LASF486:
 18118 05be 433A5C55 		.ascii	"C:\\Users\\Pchautems\\Documents\\RobotiqueTP\\Proje"
 18118      73657273 
 18118      5C506368 
 18118      61757465 
 18118      6D735C44 
 18119 05ec 745C6D69 		.ascii	"t\\miniprojet\000"
 18119      6E697072 
 18119      6F6A6574 
 18119      00
 18120              	.LASF37:
 18121 05f9 564C3533 		.ascii	"VL53L0X_DeviceInfo_t\000"
 18121      4C30585F 
 18121      44657669 
 18121      6365496E 
 18121      666F5F74 
 18122              	.LASF101:
 18123 060e 50617274 		.ascii	"Part2PartOffsetNVMMicroMeter\000"
 18123      32506172 
 18123      744F6666 
 18123      7365744E 
 18123      564D4D69 
 18124              	.LASF469:
 18125 062b 7052616E 		.ascii	"pRangeStatusString\000"
 18125      67655374 
 18125      61747573 
 18125      53747269 
 18125      6E6700
 18126              	.LASF338:
 18127 063e 70506861 		.ascii	"pPhaseCal\000"
 18127      73654361 
 18127      6C00
 18128              	.LASF147:
 18129 0648 5F426967 		.ascii	"_Bigint\000"
 18129      696E7400 
 18130              	.LASF437:
 18131 0650 564C3533 		.ascii	"VL53L0X_GetTuningSettingBuffer\000"
 18131      4C30585F 
 18131      47657454 
 18131      756E696E 
 18131      67536574 
 18132              	.LASF292:
 18133 066f 564C3533 		.ascii	"VL53L0X_GetMaxNumberOfROIZones\000"
 18133      4C30585F 
 18133      4765744D 
 18133      61784E75 
 18133      6D626572 
 18134              	.LASF155:
 18135 068e 5F5F746D 		.ascii	"__tm_wday\000"
 18135      5F776461 
ARM GAS  C:\Users\PCHAUT~1\AppData\Local\Temp\ccZvjaUR.s 			page 324


 18135      7900
 18136              	.LASF339:
 18137 0698 564C3533 		.ascii	"VL53L0X_PerformSingleHistogramMeasurement\000"
 18137      4C30585F 
 18137      50657266 
 18137      6F726D53 
 18137      696E676C 
 18138              	.LASF252:
 18139 06c2 564C3533 		.ascii	"VL53L0X_PerformRefSpadManagement\000"
 18139      4C30585F 
 18139      50657266 
 18139      6F726D52 
 18139      65665370 
 18140              	.LASF197:
 18141 06e3 5F726573 		.ascii	"_result\000"
 18141      756C7400 
 18142              	.LASF22:
 18143 06eb 46697850 		.ascii	"FixPoint1616_t\000"
 18143      6F696E74 
 18143      31363136 
 18143      5F7400
 18144              	.LASF99:
 18145 06fa 564C3533 		.ascii	"VL53L0X_DeviceSpecificParameters_t\000"
 18145      4C30585F 
 18145      44657669 
 18145      63655370 
 18145      65636966 
 18146              	.LASF20:
 18147 071d 75696E74 		.ascii	"uint32_t\000"
 18147      33325F74 
 18147      00
 18148              	.LASF15:
 18149 0726 696E7438 		.ascii	"int8_t\000"
 18149      5F7400
 18150              	.LASF151:
 18151 072d 5F5F746D 		.ascii	"__tm_hour\000"
 18151      5F686F75 
 18151      7200
 18152              	.LASF382:
 18153 0737 564C3533 		.ascii	"VL53L0X_SetXTalkCompensationEnable\000"
 18153      4C30585F 
 18153      53657458 
 18153      54616C6B 
 18153      436F6D70 
 18154              	.LASF360:
 18155 075a 54656D70 		.ascii	"Temp8\000"
 18155      3800
 18156              	.LASF260:
 18157 0760 70537061 		.ascii	"pSpadAmbientDamperFactor\000"
 18157      64416D62 
 18157      69656E74 
 18157      44616D70 
 18157      65724661 
 18158              	.LASF138:
 18159 0779 5F5F636F 		.ascii	"__count\000"
 18159      756E7400 
 18160              	.LASF71:
ARM GAS  C:\Users\PCHAUT~1\AppData\Local\Temp\ccZvjaUR.s 			page 325


 18161 0781 48697374 		.ascii	"HistogramType\000"
 18161      6F677261 
 18161      6D547970 
 18161      6500
 18162              	.LASF385:
 18163 078f 6F73635F 		.ascii	"osc_calibrate_val\000"
 18163      63616C69 
 18163      62726174 
 18163      655F7661 
 18163      6C00
 18164              	.LASF290:
 18165 07a1 46756E63 		.ascii	"Functionality\000"
 18165      74696F6E 
 18165      616C6974 
 18165      7900
 18166              	.LASF390:
 18167 07af 7054696D 		.ascii	"pTimeOutMilliSecs\000"
 18167      654F7574 
 18167      4D696C6C 
 18167      69536563 
 18167      7300
 18168              	.LASF150:
 18169 07c1 5F5F746D 		.ascii	"__tm_min\000"
 18169      5F6D696E 
 18169      00
 18170              	.LASF54:
 18171 07ca 564C3533 		.ascii	"VL53L0X_DeviceParameters_t\000"
 18171      4C30585F 
 18171      44657669 
 18171      63655061 
 18171      72616D65 
 18172              	.LASF365:
 18173 07e5 4C696D69 		.ascii	"LimitCheckEnableInt\000"
 18173      74436865 
 18173      636B456E 
 18173      61626C65 
 18173      496E7400 
 18174              	.LASF235:
 18175 07f9 5F6E6578 		.ascii	"_nextf\000"
 18175      746600
 18176              	.LASF23:
 18177 0800 564C3533 		.ascii	"VL53L0X_DeviceError\000"
 18177      4C30585F 
 18177      44657669 
 18177      63654572 
 18177      726F7200 
 18178              	.LASF363:
 18179 0814 564C3533 		.ascii	"VL53L0X_SetLimitCheckEnable\000"
 18179      4C30585F 
 18179      5365744C 
 18179      696D6974 
 18179      43686563 
 18180              	.LASF113:
 18181 0830 74617267 		.ascii	"targetRefRate\000"
 18181      65745265 
 18181      66526174 
 18181      6500
ARM GAS  C:\Users\PCHAUT~1\AppData\Local\Temp\ccZvjaUR.s 			page 326


 18182              	.LASF397:
 18183 083e 70536571 		.ascii	"pSequenceStepsString\000"
 18183      75656E63 
 18183      65537465 
 18183      70735374 
 18183      72696E67 
 18184              	.LASF17:
 18185 0853 696E7431 		.ascii	"int16_t\000"
 18185      365F7400 
 18186              	.LASF212:
 18187 085b 5F72616E 		.ascii	"_rand48\000"
 18187      64343800 
 18188              	.LASF35:
 18189 0863 50726F64 		.ascii	"ProductRevisionMinor\000"
 18189      75637452 
 18189      65766973 
 18189      696F6E4D 
 18189      696E6F72 
 18190              	.LASF335:
 18191 0878 70416D62 		.ascii	"pAmbientTooHigh\000"
 18191      69656E74 
 18191      546F6F48 
 18191      69676800 
 18192              	.LASF264:
 18193 0888 564C3533 		.ascii	"VL53L0X_GetSpadAmbientDamperThreshold\000"
 18193      4C30585F 
 18193      47657453 
 18193      70616441 
 18193      6D626965 
 18194              	.LASF198:
 18195 08ae 5F726573 		.ascii	"_result_k\000"
 18195      756C745F 
 18195      6B00
 18196              	.LASF102:
 18197 08b8 50617274 		.ascii	"Part2PartOffsetAdjustmentNVMMicroMeter\000"
 18197      32506172 
 18197      744F6666 
 18197      73657441 
 18197      646A7573 
 18198              	.LASF13:
 18199 08df 6C6F6E67 		.ascii	"long long unsigned int\000"
 18199      206C6F6E 
 18199      6720756E 
 18199      7369676E 
 18199      65642069 
 18200              	.LASF56:
 18201 08f6 416D6254 		.ascii	"AmbTuningWindowFactor_K\000"
 18201      756E696E 
 18201      6757696E 
 18201      646F7746 
 18201      6163746F 
 18202              	.LASF218:
 18203 090e 5F617363 		.ascii	"_asctime_buf\000"
 18203      74696D65 
 18203      5F627566 
 18203      00
 18204              	.LASF273:
ARM GAS  C:\Users\PCHAUT~1\AppData\Local\Temp\ccZvjaUR.s 			page 327


 18205 091b 4C6F6F70 		.ascii	"LoopCount\000"
 18205      436F756E 
 18205      7400
 18206              	.LASF169:
 18207 0925 5F5F7346 		.ascii	"__sFILE\000"
 18207      494C4500 
 18208              	.LASF146:
 18209 092d 5F776473 		.ascii	"_wds\000"
 18209      00
 18210              	.LASF442:
 18211 0932 564C3533 		.ascii	"VL53L0X_SetDeviceAddress\000"
 18211      4C30585F 
 18211      53657444 
 18211      65766963 
 18211      65416464 
 18212              	.LASF285:
 18213 094b 7046756E 		.ascii	"pFunctionality\000"
 18213      6374696F 
 18213      6E616C69 
 18213      747900
 18214              	.LASF351:
 18215 095a 4C696D69 		.ascii	"LimitCheckId\000"
 18215      74436865 
 18215      636B4964 
 18215      00
 18216              	.LASF80:
 18217 0967 4F736346 		.ascii	"OscFrequencyMHz\000"
 18217      72657175 
 18217      656E6379 
 18217      4D487A00 
 18218              	.LASF6:
 18219 0977 5F5F7569 		.ascii	"__uint16_t\000"
 18219      6E743136 
 18219      5F7400
 18220              	.LASF357:
 18221 0982 54656D70 		.ascii	"TempFix1616\000"
 18221      46697831 
 18221      36313600 
 18222              	.LASF389:
 18223 098e 53657175 		.ascii	"SequenceStepId\000"
 18223      656E6365 
 18223      53746570 
 18223      496400
 18224              	.LASF208:
 18225 099d 5F5F4649 		.ascii	"__FILE\000"
 18225      4C4500
 18226              	.LASF181:
 18227 09a4 5F6F6666 		.ascii	"_offset\000"
 18227      73657400 
 18228              	.LASF352:
 18229 09ac 704C696D 		.ascii	"pLimitCheckCurrent\000"
 18229      69744368 
 18229      65636B43 
 18229      75727265 
 18229      6E7400
 18230              	.LASF436:
 18231 09bf 73657154 		.ascii	"seqTimeoutMicroSecs\000"
ARM GAS  C:\Users\PCHAUT~1\AppData\Local\Temp\ccZvjaUR.s 			page 328


 18231      696D656F 
 18231      75744D69 
 18231      63726F53 
 18231      65637300 
 18232              	.LASF283:
 18233 09d3 564C3533 		.ascii	"VL53L0X_GetGpioConfig\000"
 18233      4C30585F 
 18233      47657447 
 18233      70696F43 
 18233      6F6E6669 
 18234              	.LASF77:
 18235 09e9 52656653 		.ascii	"RefSpadEnables\000"
 18235      70616445 
 18235      6E61626C 
 18235      657300
 18236              	.LASF30:
 18237 09f8 4E616D65 		.ascii	"Name\000"
 18237      00
 18238              	.LASF118:
 18239 09fd 55736549 		.ascii	"UseInternalTuningSettings\000"
 18239      6E746572 
 18239      6E616C54 
 18239      756E696E 
 18239      67536574 
 18240              	.LASF271:
 18241 0a17 70496E74 		.ascii	"pInterruptMaskStatus\000"
 18241      65727275 
 18241      70744D61 
 18241      736B5374 
 18241      61747573 
 18242              	.LASF192:
 18243 0a2c 5F656D65 		.ascii	"_emergency\000"
 18243      7267656E 
 18243      637900
 18244              	.LASF429:
 18245 0a37 564C3533 		.ascii	"VL53L0X_WaitDeviceBooted\000"
 18245      4C30585F 
 18245      57616974 
 18245      44657669 
 18245      6365426F 
 18246              	.LASF358:
 18247 0a50 564C3533 		.ascii	"VL53L0X_SetLimitCheckValue\000"
 18247      4C30585F 
 18247      5365744C 
 18247      696D6974 
 18247      43686563 
 18248              	.LASF355:
 18249 0a6b 456E6162 		.ascii	"EnableZeroValue\000"
 18249      6C655A65 
 18249      726F5661 
 18249      6C756500 
 18250              	.LASF119:
 18251 0a7b 4C696E65 		.ascii	"LinearityCorrectiveGain\000"
 18251      61726974 
 18251      79436F72 
 18251      72656374 
 18251      69766547 
ARM GAS  C:\Users\PCHAUT~1\AppData\Local\Temp\ccZvjaUR.s 			page 329


 18252              	.LASF408:
 18253 0a93 564C3533 		.ascii	"VL53L0X_GetVcselPulsePeriod\000"
 18253      4C30585F 
 18253      47657456 
 18253      6373656C 
 18253      50756C73 
 18254              	.LASF65:
 18255 0aaf 45666665 		.ascii	"EffectiveSpadRtnCount\000"
 18255      63746976 
 18255      65537061 
 18255      6452746E 
 18255      436F756E 
 18256              	.LASF362:
 18257 0ac5 704C696D 		.ascii	"pLimitCheckEnable\000"
 18257      69744368 
 18257      65636B45 
 18257      6E61626C 
 18257      6500
 18258              	.LASF416:
 18259 0ad7 564C3533 		.ascii	"VL53L0X_GetHistogramMode\000"
 18259      4C30585F 
 18259      47657448 
 18259      6973746F 
 18259      6772616D 
 18260              	.LASF454:
 18261 0af0 704F6666 		.ascii	"pOffsetCalibrationDataMicroMeter\000"
 18261      73657443 
 18261      616C6962 
 18261      72617469 
 18261      6F6E4461 
 18262              	.LASF107:
 18263 0b11 53706164 		.ascii	"SpadData\000"
 18263      44617461 
 18263      00
 18264              	.LASF45:
 18265 0b1a 496E7465 		.ascii	"InterMeasurementPeriodMilliSeconds\000"
 18265      724D6561 
 18265      73757265 
 18265      6D656E74 
 18265      50657269 
 18266              	.LASF93:
 18267 0b3d 52656665 		.ascii	"ReferenceSpadCount\000"
 18267      72656E63 
 18267      65537061 
 18267      64436F75 
 18267      6E7400
 18268              	.LASF249:
 18269 0b50 7375626F 		.ascii	"suboptarg\000"
 18269      70746172 
 18269      6700
 18270              	.LASF156:
 18271 0b5a 5F5F746D 		.ascii	"__tm_yday\000"
 18271      5F796461 
 18271      7900
 18272              	.LASF294:
 18273 0b64 564C3533 		.ascii	"VL53L0X_GetNumberOfROIZones\000"
 18273      4C30585F 
ARM GAS  C:\Users\PCHAUT~1\AppData\Local\Temp\ccZvjaUR.s 			page 330


 18273      4765744E 
 18273      756D6265 
 18273      724F6652 
 18274              	.LASF191:
 18275 0b80 5F696E63 		.ascii	"_inc\000"
 18275      00
 18276              	.LASF164:
 18277 0b85 5F696E64 		.ascii	"_ind\000"
 18277      00
 18278              	.LASF91:
 18279 0b8a 4D6F6475 		.ascii	"ModuleId\000"
 18279      6C654964 
 18279      00
 18280              	.LASF310:
 18281 0b93 746D7075 		.ascii	"tmpuint16\000"
 18281      696E7431 
 18281      3600
 18282              	.LASF70:
 18283 0b9d 48697374 		.ascii	"HistogramData\000"
 18283      6F677261 
 18283      6D446174 
 18283      6100
 18284              	.LASF423:
 18285 0bab 564C3533 		.ascii	"VL53L0X_GetDeviceMode\000"
 18285      4C30585F 
 18285      47657444 
 18285      65766963 
 18285      654D6F64 
 18286              	.LASF52:
 18287 0bc1 4C696D69 		.ascii	"LimitChecksValue\000"
 18287      74436865 
 18287      636B7356 
 18287      616C7565 
 18287      00
 18288              	.LASF309:
 18289 0bd2 5369676E 		.ascii	"SignalRate\000"
 18289      616C5261 
 18289      746500
 18290              	.LASF261:
 18291 0bdd 42797465 		.ascii	"Byte\000"
 18291      00
 18292              	.LASF125:
 18293 0be2 5463634F 		.ascii	"TccOn\000"
 18293      6E00
 18294              	.LASF231:
 18295 0be8 5F6D6273 		.ascii	"_mbsrtowcs_state\000"
 18295      72746F77 
 18295      63735F73 
 18295      74617465 
 18295      00
 18296              	.LASF460:
 18297 0bf9 564C3533 		.ascii	"VL53L0X_GetPalState\000"
 18297      4C30585F 
 18297      47657450 
 18297      616C5374 
 18297      61746500 
 18298              	.LASF319:
ARM GAS  C:\Users\PCHAUT~1\AppData\Local\Temp\ccZvjaUR.s 			page 331


 18299 0c0d 496E7465 		.ascii	"InterruptConfig\000"
 18299      72727570 
 18299      74436F6E 
 18299      66696700 
 18300              	.LASF26:
 18301 0c1d 6D616A6F 		.ascii	"major\000"
 18301      7200
 18302              	.LASF329:
 18303 0c23 564C3533 		.ascii	"VL53L0X_PerformXTalkCalibration\000"
 18303      4C30585F 
 18303      50657266 
 18303      6F726D58 
 18303      54616C6B 
 18304              	.LASF49:
 18305 0c43 52616E67 		.ascii	"RangeOffsetMicroMeters\000"
 18305      654F6666 
 18305      7365744D 
 18305      6963726F 
 18305      4D657465 
 18306              	.LASF254:
 18307 0c5a 70537061 		.ascii	"pSpadCount\000"
 18307      64436F75 
 18307      6E7400
 18308              	.LASF480:
 18309 0c65 72657669 		.ascii	"revision_id\000"
 18309      73696F6E 
 18309      5F696400 
 18310              	.LASF120:
 18311 0c71 446D6178 		.ascii	"DmaxCalRangeMilliMeter\000"
 18311      43616C52 
 18311      616E6765 
 18311      4D696C6C 
 18311      694D6574 
 18312              	.LASF443:
 18313 0c88 44657669 		.ascii	"DeviceAddress\000"
 18313      63654164 
 18313      64726573 
 18313      7300
 18314              	.LASF307:
 18315 0c96 50616C52 		.ascii	"PalRangeStatus\000"
 18315      616E6765 
 18315      53746174 
 18315      757300
 18316              	.LASF139:
 18317 0ca5 5F5F7661 		.ascii	"__value\000"
 18317      6C756500 
 18318              	.LASF88:
 18319 0cad 5369676D 		.ascii	"SigmaEstEffPulseWidth\000"
 18319      61457374 
 18319      45666650 
 18319      756C7365 
 18319      57696474 
 18320              	.LASF255:
 18321 0cc3 70497341 		.ascii	"pIsApertureSpads\000"
 18321      70657274 
 18321      75726553 
 18321      70616473 
ARM GAS  C:\Users\PCHAUT~1\AppData\Local\Temp\ccZvjaUR.s 			page 332


 18321      00
 18322              	.LASF199:
 18323 0cd4 5F703573 		.ascii	"_p5s\000"
 18323      00
 18324              	.LASF305:
 18325 0cd9 564C3533 		.ascii	"VL53L0X_GetRangingMeasurementData\000"
 18325      4C30585F 
 18325      47657452 
 18325      616E6769 
 18325      6E674D65 
 18326              	.LASF258:
 18327 0cfb 636F756E 		.ascii	"count\000"
 18327      7400
 18328              	.LASF112:
 18329 0d01 53746F70 		.ascii	"StopVariable\000"
 18329      56617269 
 18329      61626C65 
 18329      00
 18330              	.LASF478:
 18331 0d0e 7050726F 		.ascii	"pProductRevisionMajor\000"
 18331      64756374 
 18331      52657669 
 18331      73696F6E 
 18331      4D616A6F 
 18332              	.LASF100:
 18333 0d24 444D6178 		.ascii	"DMaxData\000"
 18333      44617461 
 18333      00
 18334              	.LASF60:
 18335 0d2d 4D656173 		.ascii	"MeasurementTimeUsec\000"
 18335      7572656D 
 18335      656E7454 
 18335      696D6555 
 18335      73656300 
 18336              	.LASF223:
 18337 0d41 5F6D626C 		.ascii	"_mblen_state\000"
 18337      656E5F73 
 18337      74617465 
 18337      00
 18338              	.LASF272:
 18339 0d4e 564C3533 		.ascii	"VL53L0X_ClearInterruptMask\000"
 18339      4C30585F 
 18339      436C6561 
 18339      72496E74 
 18339      65727275 
 18340              	.LASF373:
 18341 0d69 564C3533 		.ascii	"VL53L0X_GetRefCalibration\000"
 18341      4C30585F 
 18341      47657452 
 18341      65664361 
 18341      6C696272 
 18342              	.LASF36:
 18343 0d83 63686172 		.ascii	"char\000"
 18343      00
 18344              	.LASF322:
 18345 0d88 53746172 		.ascii	"StartStopByte\000"
 18345      7453746F 
ARM GAS  C:\Users\PCHAUT~1\AppData\Local\Temp\ccZvjaUR.s 			page 333


 18345      70427974 
 18345      6500
 18346              	.LASF152:
 18347 0d96 5F5F746D 		.ascii	"__tm_mday\000"
 18347      5F6D6461 
 18347      7900
 18348              	.LASF205:
 18349 0da0 5F736967 		.ascii	"_sig_func\000"
 18349      5F66756E 
 18349      6300
 18350              	.LASF230:
 18351 0daa 5F6D6272 		.ascii	"_mbrtowc_state\000"
 18351      746F7763 
 18351      5F737461 
 18351      746500
 18352              	.LASF204:
 18353 0db9 5F617465 		.ascii	"_atexit0\000"
 18353      78697430 
 18353      00
 18354              	.LASF337:
 18355 0dc2 70566876 		.ascii	"pVhvSettings\000"
 18355      53657474 
 18355      696E6773 
 18355      00
 18356              	.LASF427:
 18357 0dcf 564C3533 		.ascii	"VL53L0X_SetDeviceParameters\000"
 18357      4C30585F 
 18357      53657444 
 18357      65766963 
 18357      65506172 
 18358              	.LASF90:
 18359 0deb 52656164 		.ascii	"ReadDataFromDeviceDone\000"
 18359      44617461 
 18359      46726F6D 
 18359      44657669 
 18359      6365446F 
 18360              	.LASF44:
 18361 0e02 4D656173 		.ascii	"MeasurementTimingBudgetMicroSeconds\000"
 18361      7572656D 
 18361      656E7454 
 18361      696D696E 
 18361      67427564 
 18362              	.LASF412:
 18363 0e26 56435345 		.ascii	"VCSELPulsePeriodPCLK\000"
 18363      4C50756C 
 18363      73655065 
 18363      72696F64 
 18363      50434C4B 
 18364              	.LASF104:
 18365 0e3b 4C617374 		.ascii	"LastRangeMeasure\000"
 18365      52616E67 
 18365      654D6561 
 18365      73757265 
 18365      00
 18366              	.LASF340:
 18367 0e4c 564C3533 		.ascii	"VL53L0X_PerformSingleMeasurement\000"
 18367      4C30585F 
ARM GAS  C:\Users\PCHAUT~1\AppData\Local\Temp\ccZvjaUR.s 			page 334


 18367      50657266 
 18367      6F726D53 
 18367      696E676C 
 18368              	.LASF393:
 18369 0e6d 54696D65 		.ascii	"TimeOutMilliSecs\000"
 18369      4F75744D 
 18369      696C6C69 
 18369      53656373 
 18369      00
 18370              	.LASF25:
 18371 0e7e 72657669 		.ascii	"revision\000"
 18371      73696F6E 
 18371      00
 18372              	.LASF73:
 18373 0e87 42756666 		.ascii	"BufferSize\000"
 18373      65725369 
 18373      7A6500
 18374              	.LASF289:
 18375 0e92 564C3533 		.ascii	"VL53L0X_SetGpioConfig\000"
 18375      4C30585F 
 18375      53657447 
 18375      70696F43 
 18375      6F6E6669 
 18376              	.LASF250:
 18377 0ea8 72656653 		.ascii	"refSpadCount\000"
 18377      70616443 
 18377      6F756E74 
 18377      00
 18378              	.LASF141:
 18379 0eb5 5F666C6F 		.ascii	"_flock_t\000"
 18379      636B5F74 
 18379      00
 18380              	.LASF303:
 18381 0ebe 704D6561 		.ascii	"pMeasurementRefSignal\000"
 18381      73757265 
 18381      6D656E74 
 18381      52656653 
 18381      69676E61 
 18382              	.LASF392:
 18383 0ed4 564C3533 		.ascii	"VL53L0X_SetSequenceStepTimeout\000"
 18383      4C30585F 
 18383      53657453 
 18383      65717565 
 18383      6E636553 
 18384              	.LASF79:
 18385 0ef3 564C3533 		.ascii	"VL53L0X_SpadData_t\000"
 18385      4C30585F 
 18385      53706164 
 18385      44617461 
 18385      5F7400
 18386              	.LASF380:
 18387 0f06 564C3533 		.ascii	"VL53L0X_GetXTalkCompensationEnable\000"
 18387      4C30585F 
 18387      47657458 
 18387      54616C6B 
 18387      436F6D70 
 18388              	.LASF462:
ARM GAS  C:\Users\PCHAUT~1\AppData\Local\Temp\ccZvjaUR.s 			page 335


 18389 0f29 564C3533 		.ascii	"VL53L0X_GetPalStateString\000"
 18389      4C30585F 
 18389      47657450 
 18389      616C5374 
 18389      61746553 
 18390              	.LASF433:
 18391 0f43 74656D70 		.ascii	"tempbyte\000"
 18391      62797465 
 18391      00
 18392              	.LASF136:
 18393 0f4c 5F5F7763 		.ascii	"__wch\000"
 18393      6800
 18394              	.LASF211:
 18395 0f52 5F696F62 		.ascii	"_iobs\000"
 18395      7300
 18396              	.LASF16:
 18397 0f58 75696E74 		.ascii	"uint8_t\000"
 18397      385F7400 
 18398              	.LASF299:
 18399 0f60 7052616E 		.ascii	"pRangingMeasurementData\000"
 18399      67696E67 
 18399      4D656173 
 18399      7572656D 
 18399      656E7444 
 18400              	.LASF452:
 18401 0f78 564C3533 		.ascii	"VL53L0X_SetLinearityCorrectiveGain\000"
 18401      4C30585F 
 18401      5365744C 
 18401      696E6561 
 18401      72697479 
 18402              	.LASF438:
 18403 0f9b 70705475 		.ascii	"ppTuningSettingBuffer\000"
 18403      6E696E67 
 18403      53657474 
 18403      696E6742 
 18403      75666665 
 18404              	.LASF24:
 18405 0fb1 564C3533 		.ascii	"VL53L0X_GpioFunctionality\000"
 18405      4C30585F 
 18405      4770696F 
 18405      46756E63 
 18405      74696F6E 
 18406              	.LASF370:
 18407 0fcb 704C696D 		.ascii	"pLimitCheckString\000"
 18407      69744368 
 18407      65636B53 
 18407      7472696E 
 18407      6700
 18408              	.LASF376:
 18409 0fdd 50686173 		.ascii	"PhaseCal\000"
 18409      6543616C 
 18409      00
 18410              	.LASF177:
 18411 0fe6 5F636C6F 		.ascii	"_close\000"
 18411      736500
 18412              	.LASF195:
 18413 0fed 5F5F7364 		.ascii	"__sdidinit\000"
ARM GAS  C:\Users\PCHAUT~1\AppData\Local\Temp\ccZvjaUR.s 			page 336


 18413      6964696E 
 18413      697400
 18414              	.LASF31:
 18415 0ff8 54797065 		.ascii	"Type\000"
 18415      00
 18416              	.LASF400:
 18417 0ffd 564C3533 		.ascii	"VL53L0X_GetSequenceStepEnables\000"
 18417      4C30585F 
 18417      47657453 
 18417      65717565 
 18417      6E636553 
 18418              	.LASF247:
 18419 101c 44656661 		.ascii	"DefaultTuningSettings\000"
 18419      756C7454 
 18419      756E696E 
 18419      67536574 
 18419      74696E67 
 18420              	.LASF323:
 18421 1032 4C6F6F70 		.ascii	"LoopNb\000"
 18421      4E6200
 18422              	.LASF418:
 18423 1039 564C3533 		.ascii	"VL53L0X_SetHistogramMode\000"
 18423      4C30585F 
 18423      53657448 
 18423      6973746F 
 18423      6772616D 
 18424              	.LASF456:
 18425 1052 4F666673 		.ascii	"OffsetCalibrationDataMicroMeter\000"
 18425      65744361 
 18425      6C696272 
 18425      6174696F 
 18425      6E446174 
 18426              	.LASF446:
 18427 1072 564C3533 		.ascii	"VL53L0X_GetUpperLimitMilliMeter\000"
 18427      4C30585F 
 18427      47657455 
 18427      70706572 
 18427      4C696D69 
 18428              	.LASF40:
 18429 1092 564C3533 		.ascii	"VL53L0X_HistogramModes\000"
 18429      4C30585F 
 18429      48697374 
 18429      6F677261 
 18429      6D4D6F64 
 18430              	.LASF368:
 18431 10a9 704C696D 		.ascii	"pLimitCheckStatus\000"
 18431      69744368 
 18431      65636B53 
 18431      74617475 
 18431      7300
 18432              	.LASF188:
 18433 10bb 5F737464 		.ascii	"_stdin\000"
 18433      696E00
 18434              	.LASF220:
 18435 10c2 5F67616D 		.ascii	"_gamma_signgam\000"
 18435      6D615F73 
 18435      69676E67 
ARM GAS  C:\Users\PCHAUT~1\AppData\Local\Temp\ccZvjaUR.s 			page 337


 18435      616D00
 18436              	.LASF68:
 18437 10d1 52616E67 		.ascii	"RangeStatus\000"
 18437      65537461 
 18437      74757300 
 18438              	.LASF72:
 18439 10dd 46697273 		.ascii	"FirstBin\000"
 18439      7442696E 
 18439      00
 18440              	.LASF12:
 18441 10e6 6C6F6E67 		.ascii	"long long int\000"
 18441      206C6F6E 
 18441      6720696E 
 18441      7400
 18442              	.LASF128:
 18443 10f4 50726552 		.ascii	"PreRangeOn\000"
 18443      616E6765 
 18443      4F6E00
 18444              	.LASF39:
 18445 10ff 564C3533 		.ascii	"VL53L0X_DeviceModes\000"
 18445      4C30585F 
 18445      44657669 
 18445      63654D6F 
 18445      64657300 
 18446              	.LASF167:
 18447 1113 5F626173 		.ascii	"_base\000"
 18447      6500
 18448              	.LASF457:
 18449 1119 564C3533 		.ascii	"VL53L0X_GetPowerMode\000"
 18449      4C30585F 
 18449      47657450 
 18449      6F776572 
 18449      4D6F6465 
 18450              	.LASF439:
 18451 112e 70557365 		.ascii	"pUseInternalTuningSettings\000"
 18451      496E7465 
 18451      726E616C 
 18451      54756E69 
 18451      6E675365 
 18452              	.LASF200:
 18453 1149 5F667265 		.ascii	"_freelist\000"
 18453      656C6973 
 18453      7400
 18454              	.LASF214:
 18455 1153 5F6D756C 		.ascii	"_mult\000"
 18455      7400
 18456              	.LASF331:
 18457 1159 70585461 		.ascii	"pXTalkCompensationRateMegaCps\000"
 18457      6C6B436F 
 18457      6D70656E 
 18457      73617469 
 18457      6F6E5261 
 18458              	.LASF127:
 18459 1177 4473734F 		.ascii	"DssOn\000"
 18459      6E00
 18460              	.LASF95:
 18461 117d 52656653 		.ascii	"RefSpadsInitialised\000"
ARM GAS  C:\Users\PCHAUT~1\AppData\Local\Temp\ccZvjaUR.s 			page 338


 18461      70616473 
 18461      496E6974 
 18461      69616C69 
 18461      73656400 
 18462              	.LASF129:
 18463 1191 46696E61 		.ascii	"FinalRangeOn\000"
 18463      6C52616E 
 18463      67654F6E 
 18463      00
 18464              	.LASF302:
 18465 119e 564C3533 		.ascii	"VL53L0X_GetMeasurementRefSignal\000"
 18465      4C30585F 
 18465      4765744D 
 18465      65617375 
 18465      72656D65 
 18466              	.LASF296:
 18467 11be 564C3533 		.ascii	"VL53L0X_SetNumberOfROIZones\000"
 18467      4C30585F 
 18467      5365744E 
 18467      756D6265 
 18467      724F6652 
 18468              	.LASF312:
 18469 11da 6C6F6361 		.ascii	"localBuffer\000"
 18469      6C427566 
 18469      66657200 
 18470              	.LASF232:
 18471 11e6 5F776372 		.ascii	"_wcrtomb_state\000"
 18471      746F6D62 
 18471      5F737461 
 18471      746500
 18472              	.LASF171:
 18473 11f5 5F66696C 		.ascii	"_file\000"
 18473      6500
 18474              	.LASF276:
 18475 11fb 564C3533 		.ascii	"VL53L0X_GetInterruptThresholds\000"
 18475      4C30585F 
 18475      47657449 
 18475      6E746572 
 18475      72757074 
 18476              	.LASF4:
 18477 121a 5F5F696E 		.ascii	"__int16_t\000"
 18477      7431365F 
 18477      7400
 18478              	.LASF435:
 18479 1224 76637365 		.ascii	"vcselPulsePeriodPCLK\000"
 18479      6C50756C 
 18479      73655065 
 18479      72696F64 
 18479      50434C4B 
 18480              	.LASF388:
 18481 1239 564C3533 		.ascii	"VL53L0X_GetSequenceStepTimeout\000"
 18481      4C30585F 
 18481      47657453 
 18481      65717565 
 18481      6E636553 
 18482              	.LASF481:
 18483 1258 564C3533 		.ascii	"VL53L0X_GetPalSpecVersion\000"
ARM GAS  C:\Users\PCHAUT~1\AppData\Local\Temp\ccZvjaUR.s 			page 339


 18483      4C30585F 
 18483      47657450 
 18483      616C5370 
 18483      65635665 
 18484              	.LASF463:
 18485 1272 50616C53 		.ascii	"PalStateCode\000"
 18485      74617465 
 18485      436F6465 
 18485      00
 18486              	.LASF196:
 18487 127f 5F5F636C 		.ascii	"__cleanup\000"
 18487      65616E75 
 18487      7000
 18488              	.LASF140:
 18489 1289 5F6D6273 		.ascii	"_mbstate_t\000"
 18489      74617465 
 18489      5F7400
 18490              	.LASF318:
 18491 1294 53797352 		.ascii	"SysRangeStatusRegister\000"
 18491      616E6765 
 18491      53746174 
 18491      75735265 
 18491      67697374 
 18492              	.LASF325:
 18493 12ab 53746172 		.ascii	"StartNotStopFlag\000"
 18493      744E6F74 
 18493      53746F70 
 18493      466C6167 
 18493      00
 18494              	.LASF326:
 18495 12bc 564C3533 		.ascii	"VL53L0X_PerformOffsetCalibration\000"
 18495      4C30585F 
 18495      50657266 
 18495      6F726D4F 
 18495      66667365 
 18496              	.LASF378:
 18497 12dd 56616C75 		.ascii	"Value\000"
 18497      6500
 18498              	.LASF57:
 18499 12e3 52657453 		.ascii	"RetSignalAt0mm\000"
 18499      69676E61 
 18499      6C417430 
 18499      6D6D00
 18500              	.LASF27:
 18501 12f2 6D696E6F 		.ascii	"minor\000"
 18501      7200
 18502              	.LASF157:
 18503 12f8 5F5F746D 		.ascii	"__tm_isdst\000"
 18503      5F697364 
 18503      737400
 18504              	.LASF301:
 18505 1303 70486973 		.ascii	"pHistogramMeasurementData\000"
 18505      746F6772 
 18505      616D4D65 
 18505      61737572 
 18505      656D656E 
 18506              	.LASF332:
ARM GAS  C:\Users\PCHAUT~1\AppData\Local\Temp\ccZvjaUR.s 			page 340


 18507 131d 564C3533 		.ascii	"VL53L0X_PerformXTalkMeasurement\000"
 18507      4C30585F 
 18507      50657266 
 18507      6F726D58 
 18507      54616C6B 
 18508              	.LASF233:
 18509 133d 5F776373 		.ascii	"_wcsrtombs_state\000"
 18509      72746F6D 
 18509      62735F73 
 18509      74617465 
 18509      00
 18510              	.LASF384:
 18511 134e 70496E74 		.ascii	"pInterMeasurementPeriodMilliSeconds\000"
 18511      65724D65 
 18511      61737572 
 18511      656D656E 
 18511      74506572 
 18512              	.LASF234:
 18513 1372 5F685F65 		.ascii	"_h_errno\000"
 18513      72726E6F 
 18513      00
 18514              	.LASF345:
 18515 137b 5369676E 		.ascii	"SignalRateRtnMegaCpsTemp\000"
 18515      616C5261 
 18515      74655274 
 18515      6E4D6567 
 18515      61437073 
 18516              	.LASF421:
 18517 1394 564C3533 		.ascii	"VL53L0X_SetRangeFractionEnable\000"
 18517      4C30585F 
 18517      53657452 
 18517      616E6765 
 18517      46726163 
 18518              	.LASF444:
 18519 13b3 564C3533 		.ascii	"VL53L0X_GetTotalSignalRate\000"
 18519      4C30585F 
 18519      47657454 
 18519      6F74616C 
 18519      5369676E 
 18520              	.LASF398:
 18521 13ce 564C3533 		.ascii	"VL53L0X_GetNumberOfSequenceSteps\000"
 18521      4C30585F 
 18521      4765744E 
 18521      756D6265 
 18521      724F6653 
 18522              	.LASF471:
 18523 13ef 4572726F 		.ascii	"ErrorCode\000"
 18523      72436F64 
 18523      6500
 18524              	.LASF266:
 18525 13f9 564C3533 		.ascii	"VL53L0X_SetSpadAmbientDamperThreshold\000"
 18525      4C30585F 
 18525      53657453 
 18525      70616441 
 18525      6D626965 
 18526              	.LASF55:
 18527 141f 564C3533 		.ascii	"VL53L0X_State\000"
ARM GAS  C:\Users\PCHAUT~1\AppData\Local\Temp\ccZvjaUR.s 			page 341


 18527      4C30585F 
 18527      53746174 
 18527      6500
 18528              	.LASF320:
 18529 142d 564C3533 		.ascii	"VL53L0X_StopMeasurement\000"
 18529      4C30585F 
 18529      53746F70 
 18529      4D656173 
 18529      7572656D 
 18530              	.LASF479:
 18531 1445 7050726F 		.ascii	"pProductRevisionMinor\000"
 18531      64756374 
 18531      52657669 
 18531      73696F6E 
 18531      4D696E6F 
 18532              	.LASF58:
 18533 145b 564C3533 		.ascii	"VL53L0X_DMaxData_t\000"
 18533      4C30585F 
 18533      444D6178 
 18533      44617461 
 18533      5F7400
 18534              	.LASF0:
 18535 146e 5F5F696E 		.ascii	"__int8_t\000"
 18535      74385F74 
 18535      00
 18536              	.LASF315:
 18537 1477 4D61784C 		.ascii	"MaxLoop\000"
 18537      6F6F7000 
 18538              	.LASF130:
 18539 147f 564C3533 		.ascii	"VL53L0X_SchedulerSequenceSteps_t\000"
 18539      4C30585F 
 18539      53636865 
 18539      64756C65 
 18539      72536571 
 18540              	.LASF251:
 18541 14a0 69734170 		.ascii	"isApertureSpads\000"
 18541      65727475 
 18541      72655370 
 18541      61647300 
 18542              	.LASF426:
 18543 14b0 70446576 		.ascii	"pDeviceParameters\000"
 18543      69636550 
 18543      6172616D 
 18543      65746572 
 18543      7300
 18544              	.LASF288:
 18545 14c2 64617461 		.ascii	"data\000"
 18545      00
 18546              	.LASF482:
 18547 14c7 7050616C 		.ascii	"pPalSpecVersion\000"
 18547      53706563 
 18547      56657273 
 18547      696F6E00 
 18548              	.LASF153:
 18549 14d7 5F5F746D 		.ascii	"__tm_mon\000"
 18549      5F6D6F6E 
 18549      00
ARM GAS  C:\Users\PCHAUT~1\AppData\Local\Temp\ccZvjaUR.s 			page 342


 18550              	.LASF42:
 18551 14e0 44657669 		.ascii	"DeviceMode\000"
 18551      63654D6F 
 18551      646500
 18552              	.LASF48:
 18553 14eb 5854616C 		.ascii	"XTalkCompensationRateMegaCps\000"
 18553      6B436F6D 
 18553      70656E73 
 18553      6174696F 
 18553      6E526174 
 18554              	.LASF131:
 18555 1508 564C3533 		.ascii	"VL53L0X_SequenceStepId\000"
 18555      4C30585F 
 18555      53657175 
 18555      656E6365 
 18555      53746570 
 18556              	.LASF21:
 18557 151f 6C6F6E67 		.ascii	"long double\000"
 18557      20646F75 
 18557      626C6500 
 18558              	.LASF396:
 18559 152b 564C3533 		.ascii	"VL53L0X_GetSequenceStepsInfo\000"
 18559      4C30585F 
 18559      47657453 
 18559      65717565 
 18559      6E636553 
 18560              	.LASF132:
 18561 1548 5F4C4F43 		.ascii	"_LOCK_T\000"
 18561      4B5F5400 
 18562              	.LASF18:
 18563 1550 75696E74 		.ascii	"uint16_t\000"
 18563      31365F74 
 18563      00
 18564              	.LASF353:
 18565 1559 564C3533 		.ascii	"VL53L0X_GetLimitCheckValue\000"
 18565      4C30585F 
 18565      4765744C 
 18565      696D6974 
 18565      43686563 
 18566              	.LASF364:
 18567 1574 4C696D69 		.ascii	"LimitCheckEnable\000"
 18567      74436865 
 18567      636B456E 
 18567      61626C65 
 18567      00
 18568              	.LASF69:
 18569 1585 564C3533 		.ascii	"VL53L0X_RangingMeasurementData_t\000"
 18569      4C30585F 
 18569      52616E67 
 18569      696E674D 
 18569      65617375 
 18570              	.LASF286:
 18571 15a6 70506F6C 		.ascii	"pPolarity\000"
 18571      61726974 
 18571      7900
 18572              	.LASF175:
 18573 15b0 5F777269 		.ascii	"_write\000"
ARM GAS  C:\Users\PCHAUT~1\AppData\Local\Temp\ccZvjaUR.s 			page 343


 18573      746500
 18574              	.LASF466:
 18575 15b7 50616C45 		.ascii	"PalErrorCode\000"
 18575      72726F72 
 18575      436F6465 
 18575      00
 18576              	.LASF485:
 18577 15c4 2E2E2F6C 		.ascii	"../lib/e-puck2_main-processor/src/sensors/VL53L0X/A"
 18577      69622F65 
 18577      2D707563 
 18577      6B325F6D 
 18577      61696E2D 
 18578 15f7 70692F63 		.ascii	"pi/core/src/vl53l0x_api.c\000"
 18578      6F72652F 
 18578      7372632F 
 18578      766C3533 
 18578      6C30785F 
 18579              	.LASF108:
 18580 1611 53657175 		.ascii	"SequenceConfig\000"
 18580      656E6365 
 18580      436F6E66 
 18580      696700
 18581              	.LASF163:
 18582 1620 5F617465 		.ascii	"_atexit\000"
 18582      78697400 
 18583              	.LASF441:
 18584 1628 564C3533 		.ascii	"VL53L0X_DataInit\000"
 18584      4C30585F 
 18584      44617461 
 18584      496E6974 
 18584      00
 18585              	.LASF186:
 18586 1639 5F726565 		.ascii	"_reent\000"
 18586      6E7400
 18587              	.LASF459:
 18588 1640 564C3533 		.ascii	"VL53L0X_SetPowerMode\000"
 18588      4C30585F 
 18588      53657450 
 18588      6F776572 
 18588      4D6F6465 
 18589              	.LASF372:
 18590 1655 704E756D 		.ascii	"pNumberOfLimitCheck\000"
 18590      6265724F 
 18590      664C696D 
 18590      69744368 
 18590      65636B00 
 18591              	.LASF29:
 18592 1669 564C3533 		.ascii	"VL53L0X_Version_t\000"
 18592      4C30585F 
 18592      56657273 
 18592      696F6E5F 
 18592      7400
 18593              	.LASF5:
 18594 167b 73686F72 		.ascii	"short int\000"
 18594      7420696E 
 18594      7400
 18595              	.LASF347:
ARM GAS  C:\Users\PCHAUT~1\AppData\Local\Temp\ccZvjaUR.s 			page 344


 18596 1685 70577261 		.ascii	"pWrapAroundCheckEnable\000"
 18596      7041726F 
 18596      756E6443 
 18596      6865636B 
 18596      456E6162 
 18597              	.LASF431:
 18598 169c 7054756E 		.ascii	"pTuningSettingBuffer\000"
 18598      696E6753 
 18598      65747469 
 18598      6E674275 
 18598      66666572 
 18599              	.LASF350:
 18600 16b1 564C3533 		.ascii	"VL53L0X_GetLimitCheckCurrent\000"
 18600      4C30585F 
 18600      4765744C 
 18600      696D6974 
 18600      43686563 
 18601              	.LASF476:
 18602 16ce 70564C35 		.ascii	"pVL53L0X_DeviceInfo\000"
 18602      334C3058 
 18602      5F446576 
 18602      69636549 
 18602      6E666F00 
 18603              	.LASF321:
 18604 16e2 564C3533 		.ascii	"VL53L0X_StartMeasurement\000"
 18604      4C30585F 
 18604      53746172 
 18604      744D6561 
 18604      73757265 
 18605              	.LASF308:
 18606 16fb 416D6269 		.ascii	"AmbientRate\000"
 18606      656E7452 
 18606      61746500 
 18607              	.LASF9:
 18608 1707 6C6F6E67 		.ascii	"long int\000"
 18608      20696E74 
 18608      00
 18609              	.LASF448:
 18610 1710 564C3533 		.ascii	"VL53L0X_SetGroupParamHold\000"
 18610      4C30585F 
 18610      53657447 
 18610      726F7570 
 18610      50617261 
 18611              	.LASF96:
 18612 172a 50617274 		.ascii	"PartUIDUpper\000"
 18612      55494455 
 18612      70706572 
 18612      00
 18613              	.LASF115:
 18614 1737 5369676E 		.ascii	"SignalEstimate\000"
 18614      616C4573 
 18614      74696D61 
 18614      746500
 18615              	.LASF387:
 18616 1746 564C3533 		.ascii	"VL53L0X_SetInterMeasurementPeriodMilliSeconds\000"
 18616      4C30585F 
 18616      53657449 
ARM GAS  C:\Users\PCHAUT~1\AppData\Local\Temp\ccZvjaUR.s 			page 345


 18616      6E746572 
 18616      4D656173 
 18617              	.LASF244:
 18618 1774 49326344 		.ascii	"I2cDevAddr\000"
 18618      65764164 
 18618      647200
 18619              	.LASF450:
 18620 177f 564C3533 		.ascii	"VL53L0X_GetLinearityCorrectiveGain\000"
 18620      4C30585F 
 18620      4765744C 
 18620      696E6561 
 18620      72697479 
 18621              	.LASF207:
 18622 17a2 5F5F7366 		.ascii	"__sf\000"
 18622      00
 18623              	.LASF145:
 18624 17a7 5F736967 		.ascii	"_sign\000"
 18624      6E00
 18625              	.LASF419:
 18626 17ad 564C3533 		.ascii	"VL53L0X_GetFractionEnable\000"
 18626      4C30585F 
 18626      47657446 
 18626      72616374 
 18626      696F6E45 
 18627              	.LASF295:
 18628 17c7 704E756D 		.ascii	"pNumberOfROIZones\000"
 18628      6265724F 
 18628      66524F49 
 18628      5A6F6E65 
 18628      7300
 18629              	.LASF293:
 18630 17d9 704D6178 		.ascii	"pMaxNumberOfROIZones\000"
 18630      4E756D62 
 18630      65724F66 
 18630      524F495A 
 18630      6F6E6573 
 18631              	.LASF414:
 18632 17ee 704D6561 		.ascii	"pMeasurementTimingBudgetMicroSeconds\000"
 18632      73757265 
 18632      6D656E74 
 18632      54696D69 
 18632      6E674275 
 18633              	.LASF277:
 18634 1813 70546872 		.ascii	"pThresholdLow\000"
 18634      6573686F 
 18634      6C644C6F 
 18634      7700
 18635              	.LASF455:
 18636 1821 564C3533 		.ascii	"VL53L0X_SetOffsetCalibrationDataMicroMeter\000"
 18636      4C30585F 
 18636      5365744F 
 18636      66667365 
 18636      7443616C 
 18637              	.LASF182:
 18638 184c 5F646174 		.ascii	"_data\000"
 18638      6100
 18639              	.LASF116:
ARM GAS  C:\Users\PCHAUT~1\AppData\Local\Temp\ccZvjaUR.s 			page 346


 18640 1852 4C617374 		.ascii	"LastSignalRefMcps\000"
 18640      5369676E 
 18640      616C5265 
 18640      664D6370 
 18640      7300
 18641              	.LASF137:
 18642 1864 5F5F7763 		.ascii	"__wchb\000"
 18642      686200
 18643              	.LASF241:
 18644 186b 5F676C6F 		.ascii	"_global_impure_ptr\000"
 18644      62616C5F 
 18644      696D7075 
 18644      72655F70 
 18644      747200
 18645              	.LASF287:
 18646 187e 4770696F 		.ascii	"GpioFunctionality\000"
 18646      46756E63 
 18646      74696F6E 
 18646      616C6974 
 18646      7900
 18647              	.LASF313:
 18648 1890 4C617374 		.ascii	"LastRangeDataBuffer\000"
 18648      52616E67 
 18648      65446174 
 18648      61427566 
 18648      66657200 
 18649              	.LASF83:
 18650 18a4 46696E61 		.ascii	"FinalRangeTimeoutMicroSecs\000"
 18650      6C52616E 
 18650      67655469 
 18650      6D656F75 
 18650      744D6963 
 18651              	.LASF123:
 18652 18bf 564C3533 		.ascii	"VL53L0X_InterruptPolarity\000"
 18652      4C30585F 
 18652      496E7465 
 18652      72727570 
 18652      74506F6C 
 18653              	.LASF154:
 18654 18d9 5F5F746D 		.ascii	"__tm_year\000"
 18654      5F796561 
 18654      7200
 18655              	.LASF66:
 18656 18e3 5A6F6E65 		.ascii	"ZoneId\000"
 18656      496400
 18657              	.LASF425:
 18658 18ea 564C3533 		.ascii	"VL53L0X_GetDeviceParameters\000"
 18658      4C30585F 
 18658      47657444 
 18658      65766963 
 18658      65506172 
 18659              	.LASF470:
 18660 1906 564C3533 		.ascii	"VL53L0X_GetDeviceErrorString\000"
 18660      4C30585F 
 18660      47657444 
 18660      65766963 
 18660      65457272 
ARM GAS  C:\Users\PCHAUT~1\AppData\Local\Temp\ccZvjaUR.s 			page 347


 18661              	.LASF275:
 18662 1923 7053746F 		.ascii	"pStopStatus\000"
 18662      70537461 
 18662      74757300 
 18663              	.LASF270:
 18664 192f 564C3533 		.ascii	"VL53L0X_GetInterruptMaskStatus\000"
 18664      4C30585F 
 18664      47657449 
 18664      6E746572 
 18664      72757074 
 18665              	.LASF219:
 18666 194e 5F6C6F63 		.ascii	"_localtime_buf\000"
 18666      616C7469 
 18666      6D655F62 
 18666      756600
 18667              	.LASF342:
 18668 195d 7052616E 		.ascii	"pRangeMilliMeter\000"
 18668      67654D69 
 18668      6C6C694D 
 18668      65746572 
 18668      00
 18669              	.LASF237:
 18670 196e 5F756E75 		.ascii	"_unused\000"
 18670      73656400 
 18671              	.LASF1:
 18672 1976 5F5F7569 		.ascii	"__uint8_t\000"
 18672      6E74385F 
 18672      7400
 18673              	.LASF375:
 18674 1980 56687653 		.ascii	"VhvSettings\000"
 18674      65747469 
 18674      6E677300 
 18675              	.LASF434:
 18676 198c 41706572 		.ascii	"ApertureSpads\000"
 18676      74757265 
 18676      53706164 
 18676      7300
 18677              	.LASF203:
 18678 199a 5F6E6577 		.ascii	"_new\000"
 18678      00
 18679              	.LASF409:
 18680 199f 56637365 		.ascii	"VcselPeriodType\000"
 18680      6C506572 
 18680      696F6454 
 18680      79706500 
 18681              	.LASF201:
 18682 19af 5F637674 		.ascii	"_cvtlen\000"
 18682      6C656E00 
 18683              	.LASF78:
 18684 19b7 52656647 		.ascii	"RefGoodSpadMap\000"
 18684      6F6F6453 
 18684      7061644D 
 18684      617000
 18685              	.LASF226:
 18686 19c6 5F6C3634 		.ascii	"_l64a_buf\000"
 18686      615F6275 
 18686      6600
ARM GAS  C:\Users\PCHAUT~1\AppData\Local\Temp\ccZvjaUR.s 			page 348


 18687              	.LASF38:
 18688 19d0 564C3533 		.ascii	"VL53L0X_Error\000"
 18688      4C30585F 
 18688      4572726F 
 18688      7200
 18689              	.LASF284:
 18690 19de 70446576 		.ascii	"pDeviceMode\000"
 18690      6963654D 
 18690      6F646500 
 18691              	.LASF298:
 18692 19ea 564C3533 		.ascii	"VL53L0X_PerformSingleRangingMeasurement\000"
 18692      4C30585F 
 18692      50657266 
 18692      6F726D53 
 18692      696E676C 
 18693              	.LASF405:
 18694 1a12 564C3533 		.ascii	"VL53L0X_SetSequenceStepEnable\000"
 18694      4C30585F 
 18694      53657453 
 18694      65717565 
 18694      6E636553 
 18695              	.LASF356:
 18696 1a30 54656D70 		.ascii	"Temp16\000"
 18696      313600
 18697              	.LASF336:
 18698 1a37 564C3533 		.ascii	"VL53L0X_PerformRefCalibration\000"
 18698      4C30585F 
 18698      50657266 
 18698      6F726D52 
 18698      65664361 
 18699              	.LASF453:
 18700 1a55 564C3533 		.ascii	"VL53L0X_GetOffsetCalibrationDataMicroMeter\000"
 18700      4C30585F 
 18700      4765744F 
 18700      66667365 
 18700      7443616C 
 18701              	.LASF180:
 18702 1a80 5F626C6B 		.ascii	"_blksize\000"
 18702      73697A65 
 18702      00
 18703              	.LASF148:
 18704 1a89 5F5F746D 		.ascii	"__tm\000"
 18704      00
 18705              	.LASF183:
 18706 1a8e 5F6C6F63 		.ascii	"_lock\000"
 18706      6B00
 18707              	.LASF282:
 18708 1a94 54687265 		.ascii	"ThresholdHigh\000"
 18708      73686F6C 
 18708      64486967 
 18708      6800
 18709              	.LASF475:
 18710 1aa2 564C3533 		.ascii	"VL53L0X_GetDeviceInfo\000"
 18710      4C30585F 
 18710      47657444 
 18710      65766963 
 18710      65496E66 
ARM GAS  C:\Users\PCHAUT~1\AppData\Local\Temp\ccZvjaUR.s 			page 349


 18711              	.LASF103:
 18712 1ab8 43757272 		.ascii	"CurrentParameters\000"
 18712      656E7450 
 18712      6172616D 
 18712      65746572 
 18712      7300
 18713              	.LASF11:
 18714 1aca 6C6F6E67 		.ascii	"long unsigned int\000"
 18714      20756E73 
 18714      69676E65 
 18714      6420696E 
 18714      7400
 18715              	.LASF267:
 18716 1adc 53706164 		.ascii	"SpadAmbientDamperThreshold\000"
 18716      416D6269 
 18716      656E7444 
 18716      616D7065 
 18716      72546872 
 18717              	.LASF369:
 18718 1af7 564C3533 		.ascii	"VL53L0X_GetLimitCheckInfo\000"
 18718      4C30585F 
 18718      4765744C 
 18718      696D6974 
 18718      43686563 
 18719              	.LASF484:
 18720 1b11 474E5520 		.ascii	"GNU C11 7.2.1 20170904 (release) [ARM/embedded-7-br"
 18720      43313120 
 18720      372E322E 
 18720      31203230 
 18720      31373039 
 18721 1b44 616E6368 		.ascii	"anch revision 255204] -mcpu=cortex-m4 -mfloat-abi=h"
 18721      20726576 
 18721      6973696F 
 18721      6E203235 
 18721      35323034 
 18722 1b77 61726420 		.ascii	"ard -mfpu=fpv4-sp-d16 -mno-thumb-interwork -mthumb "
 18722      2D6D6670 
 18722      753D6670 
 18722      76342D73 
 18722      702D6431 
 18723 1baa 2D676764 		.ascii	"-ggdb -O0 -fomit-frame-pointer -falign-functions=16"
 18723      62202D4F 
 18723      30202D66 
 18723      6F6D6974 
 18723      2D667261 
 18724 1bdd 202D666E 		.ascii	" -fno-strict-aliasing -fstack-protector-all -ffunct"
 18724      6F2D7374 
 18724      72696374 
 18724      2D616C69 
 18724      6173696E 
 18725 1c10 696F6E2D 		.ascii	"ion-sections -fdata-sections -fno-common -fsingle-p"
 18725      73656374 
 18725      696F6E73 
 18725      202D6664 
 18725      6174612D 
 18726 1c43 72656369 		.ascii	"recision-constant\000"
 18726      73696F6E 
ARM GAS  C:\Users\PCHAUT~1\AppData\Local\Temp\ccZvjaUR.s 			page 350


 18726      2D636F6E 
 18726      7374616E 
 18726      7400
 18727              	.LASF106:
 18728 1c55 44657669 		.ascii	"DeviceSpecificParameters\000"
 18728      63655370 
 18728      65636966 
 18728      69635061 
 18728      72616D65 
 18729              	.LASF210:
 18730 1c6e 5F6E696F 		.ascii	"_niobs\000"
 18730      627300
 18731              	.LASF135:
 18732 1c75 77696E74 		.ascii	"wint_t\000"
 18732      5F7400
 18733              	.LASF117:
 18734 1c7c 7054756E 		.ascii	"pTuningSettingsPointer\000"
 18734      696E6753 
 18734      65747469 
 18734      6E677350 
 18734      6F696E74 
 18735              	.LASF477:
 18736 1c93 564C3533 		.ascii	"VL53L0X_GetProductRevision\000"
 18736      4C30585F 
 18736      47657450 
 18736      726F6475 
 18736      63745265 
 18737              	.LASF248:
 18738 1cae 496E7465 		.ascii	"InterruptThresholdSettings\000"
 18738      72727570 
 18738      74546872 
 18738      6573686F 
 18738      6C645365 
 18739              	.LASF19:
 18740 1cc9 696E7433 		.ascii	"int32_t\000"
 18740      325F7400 
 18741              	.LASF399:
 18742 1cd1 704E756D 		.ascii	"pNumberOfSequenceSteps\000"
 18742      6265724F 
 18742      66536571 
 18742      75656E63 
 18742      65537465 
 18743              	.LASF449:
 18744 1ce8 47726F75 		.ascii	"GroupParamHold\000"
 18744      70506172 
 18744      616D486F 
 18744      6C6400
 18745              	.LASF160:
 18746 1cf7 5F64736F 		.ascii	"_dso_handle\000"
 18746      5F68616E 
 18746      646C6500 
 18747              	.LASF374:
 18748 1d03 564C3533 		.ascii	"VL53L0X_SetRefCalibration\000"
 18748      4C30585F 
 18748      53657452 
 18748      65664361 
 18748      6C696272 
ARM GAS  C:\Users\PCHAUT~1\AppData\Local\Temp\ccZvjaUR.s 			page 351


 18749              	.LASF238:
 18750 1d1d 5F5F6C6F 		.ascii	"__lock\000"
 18750      636B00
 18751              	.LASF447:
 18752 1d24 70557070 		.ascii	"pUpperLimitMilliMeter\000"
 18752      65724C69 
 18752      6D69744D 
 18752      696C6C69 
 18752      4D657465 
 18753              	.LASF262:
 18754 1d3a 564C3533 		.ascii	"VL53L0X_SetSpadAmbientDamperFactor\000"
 18754      4C30585F 
 18754      53657453 
 18754      70616441 
 18754      6D626965 
 18755              	.LASF89:
 18756 1d5d 5369676D 		.ascii	"SigmaEstEffAmbWidth\000"
 18756      61457374 
 18756      45666641 
 18756      6D625769 
 18756      64746800 
 18757              	.LASF324:
 18758 1d71 564C3533 		.ascii	"VL53L0X_CheckAndLoadInterruptSettings\000"
 18758      4C30585F 
 18758      43686563 
 18758      6B416E64 
 18758      4C6F6164 
 18759              	.LASF354:
 18760 1d97 704C696D 		.ascii	"pLimitCheckValue\000"
 18760      69744368 
 18760      65636B56 
 18760      616C7565 
 18760      00
 18761              	.LASF189:
 18762 1da8 5F737464 		.ascii	"_stdout\000"
 18762      6F757400 
 18763              	.LASF202:
 18764 1db0 5F637674 		.ascii	"_cvtbuf\000"
 18764      62756600 
 18765              	.LASF430:
 18766 1db8 564C3533 		.ascii	"VL53L0X_StaticInit\000"
 18766      4C30585F 
 18766      53746174 
 18766      6963496E 
 18766      697400
 18767              	.LASF3:
 18768 1dcb 756E7369 		.ascii	"unsigned char\000"
 18768      676E6564 
 18768      20636861 
 18768      7200
 18769              	.LASF74:
 18770 1dd9 4E756D62 		.ascii	"NumberOfBins\000"
 18770      65724F66 
 18770      42696E73 
 18770      00
 18771              	.LASF85:
 18772 1de6 50726552 		.ascii	"PreRangeTimeoutMicroSecs\000"
ARM GAS  C:\Users\PCHAUT~1\AppData\Local\Temp\ccZvjaUR.s 			page 352


 18772      616E6765 
 18772      54696D65 
 18772      6F75744D 
 18772      6963726F 
 18773              	.LASF10:
 18774 1dff 5F5F7569 		.ascii	"__uint32_t\000"
 18774      6E743332 
 18774      5F7400
 18775              	.LASF121:
 18776 1e0a 446D6178 		.ascii	"DmaxCalSignalRateRtnMegaCps\000"
 18776      43616C53 
 18776      69676E61 
 18776      6C526174 
 18776      6552746E 
 18777              	.LASF472:
 18778 1e26 70446576 		.ascii	"pDeviceErrorString\000"
 18778      69636545 
 18778      72726F72 
 18778      53747269 
 18778      6E6700
 18779              	.LASF274:
 18780 1e39 564C3533 		.ascii	"VL53L0X_GetStopCompletedStatus\000"
 18780      4C30585F 
 18780      47657453 
 18780      746F7043 
 18780      6F6D706C 
 18781              	.LASF451:
 18782 1e58 704C696E 		.ascii	"pLinearityCorrectiveGain\000"
 18782      65617269 
 18782      7479436F 
 18782      72726563 
 18782      74697665 
 18783              	.LASF84:
 18784 1e71 46696E61 		.ascii	"FinalRangeVcselPulsePeriod\000"
 18784      6C52616E 
 18784      67655663 
 18784      73656C50 
 18784      756C7365 
 18785              	.LASF228:
 18786 1e8c 5F676574 		.ascii	"_getdate_err\000"
 18786      64617465 
 18786      5F657272 
 18786      00
 18787              	.LASF172:
 18788 1e99 5F6C6266 		.ascii	"_lbfsize\000"
 18788      73697A65 
 18788      00
 18789              	.LASF487:
 18790 1ea2 564C3533 		.ascii	"VL53L0X_GetVersion\000"
 18790      4C30585F 
 18790      47657456 
 18790      65727369 
 18790      6F6E00
 18791              	.LASF122:
 18792 1eb5 564C3533 		.ascii	"VL53L0X_DevData_t\000"
 18792      4C30585F 
 18792      44657644 
ARM GAS  C:\Users\PCHAUT~1\AppData\Local\Temp\ccZvjaUR.s 			page 353


 18792      6174615F 
 18792      7400
 18793              	.LASF161:
 18794 1ec7 5F666E74 		.ascii	"_fntypes\000"
 18794      79706573 
 18794      00
 18795              	.LASF215:
 18796 1ed0 5F616464 		.ascii	"_add\000"
 18796      00
 18797              	.LASF483:
 18798 1ed5 70566572 		.ascii	"pVersion\000"
 18798      73696F6E 
 18798      00
 18799              	.LASF269:
 18800 1ede 496E7465 		.ascii	"InterruptMask\000"
 18800      72727570 
 18800      744D6173 
 18800      6B00
 18801              	.LASF344:
 18802 1eec 564C3533 		.ascii	"VL53L0X_SetDmaxCalParameters\000"
 18802      4C30585F 
 18802      53657444 
 18802      6D617843 
 18802      616C5061 
 18803              	.LASF474:
 18804 1f09 70446576 		.ascii	"pDeviceErrorStatus\000"
 18804      69636545 
 18804      72726F72 
 18804      53746174 
 18804      757300
 18805              	.LASF33:
 18806 1f1c 50726F64 		.ascii	"ProductType\000"
 18806      75637454 
 18806      79706500 
 18807              	.LASF366:
 18808 1f28 4C696D69 		.ascii	"LimitCheckDisable\000"
 18808      74436865 
 18808      636B4469 
 18808      7361626C 
 18808      6500
 18809              	.LASF464:
 18810 1f3a 7050616C 		.ascii	"pPalStateString\000"
 18810      53746174 
 18810      65537472 
 18810      696E6700 
 18811              	.LASF166:
 18812 1f4a 5F5F7362 		.ascii	"__sbuf\000"
 18812      756600
 18813              	.LASF404:
 18814 1f51 73657175 		.ascii	"sequence_step_enabled\000"
 18814      656E6365 
 18814      5F737465 
 18814      705F656E 
 18814      61626C65 
 18815              	.LASF348:
 18816 1f67 564C3533 		.ascii	"VL53L0X_SetWrapAroundCheckEnable\000"
 18816      4C30585F 
ARM GAS  C:\Users\PCHAUT~1\AppData\Local\Temp\ccZvjaUR.s 			page 354


 18816      53657457 
 18816      72617041 
 18816      726F756E 
 18817              	.LASF445:
 18818 1f88 70546F74 		.ascii	"pTotalSignalRate\000"
 18818      616C5369 
 18818      676E616C 
 18818      52617465 
 18818      00
 18819              	.LASF82:
 18820 1f99 50696E30 		.ascii	"Pin0GpioFunctionality\000"
 18820      4770696F 
 18820      46756E63 
 18820      74696F6E 
 18820      616C6974 
 18821              	.LASF341:
 18822 1faf 564C3533 		.ascii	"VL53L0X_GetDmaxCalParameters\000"
 18822      4C30585F 
 18822      47657444 
 18822      6D617843 
 18822      616C5061 
 18823              	.LASF209:
 18824 1fcc 5F676C75 		.ascii	"_glue\000"
 18824      6500
 18825              	.LASF461:
 18826 1fd2 7050616C 		.ascii	"pPalState\000"
 18826      53746174 
 18826      6500
 18827              	.LASF465:
 18828 1fdc 564C3533 		.ascii	"VL53L0X_GetPalErrorString\000"
 18828      4C30585F 
 18828      47657450 
 18828      616C4572 
 18828      726F7253 
 18829              	.LASF467:
 18830 1ff6 7050616C 		.ascii	"pPalErrorString\000"
 18830      4572726F 
 18830      72537472 
 18830      696E6700 
 18831              	.LASF206:
 18832 2006 5F5F7367 		.ascii	"__sglue\000"
 18832      6C756500 
 18833              	.LASF314:
 18834 200e 564C3533 		.ascii	"VL53L0X_WaitDeviceReadyForNewMeasurement\000"
 18834      4C30585F 
 18834      57616974 
 18834      44657669 
 18834      63655265 
 18835              	.LASF217:
 18836 2037 5F737472 		.ascii	"_strtok_last\000"
 18836      746F6B5F 
 18836      6C617374 
 18836      00
 18837              	.LASF224:
 18838 2044 5F6D6274 		.ascii	"_mbtowc_state\000"
 18838      6F77635F 
 18838      73746174 
ARM GAS  C:\Users\PCHAUT~1\AppData\Local\Temp\ccZvjaUR.s 			page 355


 18838      6500
 18839              	.LASF386:
 18840 2052 494D5065 		.ascii	"IMPeriodMilliSeconds\000"
 18840      72696F64 
 18840      4D696C6C 
 18840      69536563 
 18840      6F6E6473 
 18841              	.LASF194:
 18842 2067 5F6C6F63 		.ascii	"_locale\000"
 18842      616C6500 
 18843              	.LASF124:
 18844 206f 564C3533 		.ascii	"VL53L0X_VcselPeriod\000"
 18844      4C30585F 
 18844      56637365 
 18844      6C506572 
 18844      696F6400 
 18845              	.LASF159:
 18846 2083 5F666E61 		.ascii	"_fnargs\000"
 18846      72677300 
 18847              	.LASF422:
 18848 208b 456E6162 		.ascii	"Enable\000"
 18848      6C6500
 18849              	.LASF2:
 18850 2092 7369676E 		.ascii	"signed char\000"
 18850      65642063 
 18850      68617200 
 18851              	.LASF105:
 18852 209e 4C617374 		.ascii	"LastHistogramMeasure\000"
 18852      48697374 
 18852      6F677261 
 18852      6D4D6561 
 18852      73757265 
 18853              	.LASF7:
 18854 20b3 73686F72 		.ascii	"short unsigned int\000"
 18854      7420756E 
 18854      7369676E 
 18854      65642069 
 18854      6E7400
 18855              	.LASF297:
 18856 20c6 4E756D62 		.ascii	"NumberOfROIZones\000"
 18856      65724F66 
 18856      524F495A 
 18856      6F6E6573 
 18856      00
 18857              	.LASF109:
 18858 20d7 52616E67 		.ascii	"RangeFractionalEnable\000"
 18858      65467261 
 18858      6374696F 
 18858      6E616C45 
 18858      6E61626C 
 18859              	.LASF458:
 18860 20ed 70506F77 		.ascii	"pPowerMode\000"
 18860      65724D6F 
 18860      646500
 18861              	.LASF316:
 18862 20f8 564C3533 		.ascii	"VL53L0X_GetMeasurementDataReady\000"
 18862      4C30585F 
ARM GAS  C:\Users\PCHAUT~1\AppData\Local\Temp\ccZvjaUR.s 			page 356


 18862      4765744D 
 18862      65617375 
 18862      72656D65 
 18863              	.LASF61:
 18864 2118 52616E67 		.ascii	"RangeMilliMeter\000"
 18864      654D696C 
 18864      6C694D65 
 18864      74657200 
 18865              	.LASF114:
 18866 2128 5369676D 		.ascii	"SigmaEstimate\000"
 18866      61457374 
 18866      696D6174 
 18866      6500
 18867              	.LASF403:
 18868 2136 70536571 		.ascii	"pSequenceStepEnabled\000"
 18868      75656E63 
 18868      65537465 
 18868      70456E61 
 18868      626C6564 
 18869              	.LASF87:
 18870 214b 5369676D 		.ascii	"SigmaEstRefArray\000"
 18870      61457374 
 18870      52656641 
 18870      72726179 
 18870      00
 18871              	.LASF126:
 18872 215c 4D737263 		.ascii	"MsrcOn\000"
 18872      4F6E00
 18873              	.LASF168:
 18874 2163 5F73697A 		.ascii	"_size\000"
 18874      6500
 18875              	.LASF67:
 18876 2169 52616E67 		.ascii	"RangeFractionalPart\000"
 18876      65467261 
 18876      6374696F 
 18876      6E616C50 
 18876      61727400 
 18877              	.LASF406:
 18878 217d 53657175 		.ascii	"SequenceStepEnabled\000"
 18878      656E6365 
 18878      53746570 
 18878      456E6162 
 18878      6C656400 
 18879              	.LASF424:
 18880 2191 564C3533 		.ascii	"VL53L0X_SetDeviceMode\000"
 18880      4C30585F 
 18880      53657444 
 18880      65766963 
 18880      654D6F64 
 18881              	.LASF361:
 18882 21a7 564C3533 		.ascii	"VL53L0X_GetLimitCheckEnable\000"
 18882      4C30585F 
 18882      4765744C 
 18882      696D6974 
 18882      43686563 
 18883              	.LASF280:
 18884 21c3 564C3533 		.ascii	"VL53L0X_SetInterruptThresholds\000"
ARM GAS  C:\Users\PCHAUT~1\AppData\Local\Temp\ccZvjaUR.s 			page 357


 18884      4C30585F 
 18884      53657449 
 18884      6E746572 
 18884      72757074 
 18885              	.LASF133:
 18886 21e2 5F6F6666 		.ascii	"_off_t\000"
 18886      5F7400
 18887              	.LASF81:
 18888 21e9 4C617374 		.ascii	"LastEncodedTimeout\000"
 18888      456E636F 
 18888      64656454 
 18888      696D656F 
 18888      757400
 18889              	.LASF179:
 18890 21fc 5F6E6275 		.ascii	"_nbuf\000"
 18890      6600
 18891              	.LASF216:
 18892 2202 5F756E75 		.ascii	"_unused_rand\000"
 18892      7365645F 
 18892      72616E64 
 18892      00
 18893              	.LASF407:
 18894 220f 53657175 		.ascii	"SequenceConfigNew\000"
 18894      656E6365 
 18894      436F6E66 
 18894      69674E65 
 18894      7700
 18895              	.LASF401:
 18896 2221 70536368 		.ascii	"pSchedulerSequenceSteps\000"
 18896      6564756C 
 18896      65725365 
 18896      7175656E 
 18896      63655374 
 18897              	.LASF428:
 18898 2239 564C3533 		.ascii	"VL53L0X_ResetDevice\000"
 18898      4C30585F 
 18898      52657365 
 18898      74446576 
 18898      69636500 
 18899              	.LASF193:
 18900 224d 5F756E73 		.ascii	"_unspecified_locale_info\000"
 18900      70656369 
 18900      66696564 
 18900      5F6C6F63 
 18900      616C655F 
 18901              	.LASF185:
 18902 2266 5F666C61 		.ascii	"_flags2\000"
 18902      67733200 
 18903              	.LASF162:
 18904 226e 5F69735F 		.ascii	"_is_cxa\000"
 18904      63786100 
 18905              	.LASF379:
 18906 2276 564C3533 		.ascii	"VL53L0X_SetXTalkCompensationRateMegaCps\000"
 18906      4C30585F 
 18906      53657458 
 18906      54616C6B 
 18906      436F6D70 
ARM GAS  C:\Users\PCHAUT~1\AppData\Local\Temp\ccZvjaUR.s 			page 358


 18907              	.LASF110:
 18908 229e 50616C53 		.ascii	"PalState\000"
 18908      74617465 
 18908      00
 18909              	.LASF59:
 18910 22a7 54696D65 		.ascii	"TimeStamp\000"
 18910      5374616D 
 18910      7000
 18911              	.LASF213:
 18912 22b1 5F736565 		.ascii	"_seed\000"
 18912      6400
 18913              	.LASF411:
 18914 22b7 564C3533 		.ascii	"VL53L0X_SetVcselPulsePeriod\000"
 18914      4C30585F 
 18914      53657456 
 18914      6373656C 
 18914      50756C73 
 18915              	.LASF221:
 18916 22d3 5F72616E 		.ascii	"_rand_next\000"
 18916      645F6E65 
 18916      787400
 18917              	.LASF76:
 18918 22de 564C3533 		.ascii	"VL53L0X_HistogramMeasurementData_t\000"
 18918      4C30585F 
 18918      48697374 
 18918      6F677261 
 18918      6D4D6561 
 18919              	.LASF242:
 18920 2301 44617461 		.ascii	"Data\000"
 18920      00
 18921              	.LASF176:
 18922 2306 5F736565 		.ascii	"_seek\000"
 18922      6B00
 18923              	.LASF143:
 18924 230c 5F6E6578 		.ascii	"_next\000"
 18924      7400
 18925              	.LASF279:
 18926 2312 54687265 		.ascii	"Threshold16\000"
 18926      73686F6C 
 18926      64313600 
 18927              	.LASF190:
 18928 231e 5F737464 		.ascii	"_stderr\000"
 18928      65727200 
 18929              	.LASF236:
 18930 2326 5F6E6D61 		.ascii	"_nmalloc\000"
 18930      6C6C6F63 
 18930      00
 18931              	.LASF178:
 18932 232f 5F756275 		.ascii	"_ubuf\000"
 18932      6600
 18933              	.LASF98:
 18934 2335 5369676E 		.ascii	"SignalRateMeasFixed400mm\000"
 18934      616C5261 
 18934      74654D65 
 18934      61734669 
 18934      78656434 
 18935              	.LASF383:
ARM GAS  C:\Users\PCHAUT~1\AppData\Local\Temp\ccZvjaUR.s 			page 359


 18936 234e 564C3533 		.ascii	"VL53L0X_GetInterMeasurementPeriodMilliSeconds\000"
 18936      4C30585F 
 18936      47657449 
 18936      6E746572 
 18936      4D656173 
 18937              	.LASF263:
 18938 237c 53706164 		.ascii	"SpadAmbientDamperFactor\000"
 18938      416D6269 
 18938      656E7444 
 18938      616D7065 
 18938      72466163 
 18939              	.LASF278:
 18940 2394 70546872 		.ascii	"pThresholdHigh\000"
 18940      6573686F 
 18940      6C644869 
 18940      676800
 18941              		.ident	"GCC: (GNU Tools for Arm Embedded Processors 7-2017-q4-major) 7.2.1 20170904 (release) [ARM
ARM GAS  C:\Users\PCHAUT~1\AppData\Local\Temp\ccZvjaUR.s 			page 360


DEFINED SYMBOLS
                            *ABS*:00000000 vl53l0x_api.c
C:\Users\PCHAUT~1\AppData\Local\Temp\ccZvjaUR.s:22     .data.DefaultTuningSettings:00000000 DefaultTuningSettings
C:\Users\PCHAUT~1\AppData\Local\Temp\ccZvjaUR.s:19     .data.DefaultTuningSettings:00000000 $d
C:\Users\PCHAUT~1\AppData\Local\Temp\ccZvjaUR.s:271    .data.InterruptThresholdSettings:00000000 InterruptThresholdSettings
C:\Users\PCHAUT~1\AppData\Local\Temp\ccZvjaUR.s:268    .data.InterruptThresholdSettings:00000000 $d
C:\Users\PCHAUT~1\AppData\Local\Temp\ccZvjaUR.s:711    .text.VL53L0X_GetVersion:00000000 $t
C:\Users\PCHAUT~1\AppData\Local\Temp\ccZvjaUR.s:719    .text.VL53L0X_GetVersion:00000000 VL53L0X_GetVersion
C:\Users\PCHAUT~1\AppData\Local\Temp\ccZvjaUR.s:773    .text.VL53L0X_GetVersion:00000048 $d
C:\Users\PCHAUT~1\AppData\Local\Temp\ccZvjaUR.s:778    .text.VL53L0X_GetPalSpecVersion:00000000 $t
C:\Users\PCHAUT~1\AppData\Local\Temp\ccZvjaUR.s:786    .text.VL53L0X_GetPalSpecVersion:00000000 VL53L0X_GetPalSpecVersion
C:\Users\PCHAUT~1\AppData\Local\Temp\ccZvjaUR.s:839    .text.VL53L0X_GetPalSpecVersion:00000048 $d
C:\Users\PCHAUT~1\AppData\Local\Temp\ccZvjaUR.s:844    .text.VL53L0X_GetProductRevision:00000000 $t
C:\Users\PCHAUT~1\AppData\Local\Temp\ccZvjaUR.s:852    .text.VL53L0X_GetProductRevision:00000000 VL53L0X_GetProductRevision
C:\Users\PCHAUT~1\AppData\Local\Temp\ccZvjaUR.s:909    .text.VL53L0X_GetProductRevision:00000058 $d
C:\Users\PCHAUT~1\AppData\Local\Temp\ccZvjaUR.s:914    .text.VL53L0X_GetDeviceInfo:00000000 $t
C:\Users\PCHAUT~1\AppData\Local\Temp\ccZvjaUR.s:922    .text.VL53L0X_GetDeviceInfo:00000000 VL53L0X_GetDeviceInfo
C:\Users\PCHAUT~1\AppData\Local\Temp\ccZvjaUR.s:966    .text.VL53L0X_GetDeviceInfo:0000003c $d
C:\Users\PCHAUT~1\AppData\Local\Temp\ccZvjaUR.s:971    .text.VL53L0X_GetDeviceErrorStatus:00000000 $t
C:\Users\PCHAUT~1\AppData\Local\Temp\ccZvjaUR.s:979    .text.VL53L0X_GetDeviceErrorStatus:00000000 VL53L0X_GetDeviceErrorStatus
C:\Users\PCHAUT~1\AppData\Local\Temp\ccZvjaUR.s:1033   .text.VL53L0X_GetDeviceErrorStatus:00000054 $d
C:\Users\PCHAUT~1\AppData\Local\Temp\ccZvjaUR.s:1038   .text.VL53L0X_GetDeviceErrorString:00000000 $t
C:\Users\PCHAUT~1\AppData\Local\Temp\ccZvjaUR.s:1046   .text.VL53L0X_GetDeviceErrorString:00000000 VL53L0X_GetDeviceErrorString
C:\Users\PCHAUT~1\AppData\Local\Temp\ccZvjaUR.s:1092   .text.VL53L0X_GetDeviceErrorString:00000044 $d
C:\Users\PCHAUT~1\AppData\Local\Temp\ccZvjaUR.s:1097   .text.VL53L0X_GetRangeStatusString:00000000 $t
C:\Users\PCHAUT~1\AppData\Local\Temp\ccZvjaUR.s:1105   .text.VL53L0X_GetRangeStatusString:00000000 VL53L0X_GetRangeStatusString
C:\Users\PCHAUT~1\AppData\Local\Temp\ccZvjaUR.s:1151   .text.VL53L0X_GetRangeStatusString:00000044 $d
C:\Users\PCHAUT~1\AppData\Local\Temp\ccZvjaUR.s:1156   .text.VL53L0X_GetPalErrorString:00000000 $t
C:\Users\PCHAUT~1\AppData\Local\Temp\ccZvjaUR.s:1164   .text.VL53L0X_GetPalErrorString:00000000 VL53L0X_GetPalErrorString
C:\Users\PCHAUT~1\AppData\Local\Temp\ccZvjaUR.s:1210   .text.VL53L0X_GetPalErrorString:00000044 $d
C:\Users\PCHAUT~1\AppData\Local\Temp\ccZvjaUR.s:1215   .text.VL53L0X_GetPalStateString:00000000 $t
C:\Users\PCHAUT~1\AppData\Local\Temp\ccZvjaUR.s:1223   .text.VL53L0X_GetPalStateString:00000000 VL53L0X_GetPalStateString
C:\Users\PCHAUT~1\AppData\Local\Temp\ccZvjaUR.s:1269   .text.VL53L0X_GetPalStateString:00000044 $d
C:\Users\PCHAUT~1\AppData\Local\Temp\ccZvjaUR.s:1274   .text.VL53L0X_GetPalState:00000000 $t
C:\Users\PCHAUT~1\AppData\Local\Temp\ccZvjaUR.s:1282   .text.VL53L0X_GetPalState:00000000 VL53L0X_GetPalState
C:\Users\PCHAUT~1\AppData\Local\Temp\ccZvjaUR.s:1325   .text.VL53L0X_GetPalState:00000038 $d
C:\Users\PCHAUT~1\AppData\Local\Temp\ccZvjaUR.s:1330   .text.VL53L0X_SetPowerMode:00000000 $t
C:\Users\PCHAUT~1\AppData\Local\Temp\ccZvjaUR.s:1338   .text.VL53L0X_SetPowerMode:00000000 VL53L0X_SetPowerMode
C:\Users\PCHAUT~1\AppData\Local\Temp\ccZvjaUR.s:2537   .text.VL53L0X_StaticInit:00000000 VL53L0X_StaticInit
C:\Users\PCHAUT~1\AppData\Local\Temp\ccZvjaUR.s:1441   .text.VL53L0X_SetPowerMode:000000b0 $d
C:\Users\PCHAUT~1\AppData\Local\Temp\ccZvjaUR.s:1446   .text.VL53L0X_GetPowerMode:00000000 $t
C:\Users\PCHAUT~1\AppData\Local\Temp\ccZvjaUR.s:1454   .text.VL53L0X_GetPowerMode:00000000 VL53L0X_GetPowerMode
C:\Users\PCHAUT~1\AppData\Local\Temp\ccZvjaUR.s:1519   .text.VL53L0X_GetPowerMode:00000064 $d
C:\Users\PCHAUT~1\AppData\Local\Temp\ccZvjaUR.s:1524   .text.VL53L0X_SetOffsetCalibrationDataMicroMeter:00000000 $t
C:\Users\PCHAUT~1\AppData\Local\Temp\ccZvjaUR.s:1532   .text.VL53L0X_SetOffsetCalibrationDataMicroMeter:00000000 VL53L0X_SetOffsetCalibrationDataMicroMeter
C:\Users\PCHAUT~1\AppData\Local\Temp\ccZvjaUR.s:1576   .text.VL53L0X_SetOffsetCalibrationDataMicroMeter:0000003c $d
C:\Users\PCHAUT~1\AppData\Local\Temp\ccZvjaUR.s:1581   .text.VL53L0X_GetOffsetCalibrationDataMicroMeter:00000000 $t
C:\Users\PCHAUT~1\AppData\Local\Temp\ccZvjaUR.s:1589   .text.VL53L0X_GetOffsetCalibrationDataMicroMeter:00000000 VL53L0X_GetOffsetCalibrationDataMicroMeter
C:\Users\PCHAUT~1\AppData\Local\Temp\ccZvjaUR.s:1633   .text.VL53L0X_GetOffsetCalibrationDataMicroMeter:0000003c $d
C:\Users\PCHAUT~1\AppData\Local\Temp\ccZvjaUR.s:1638   .text.VL53L0X_SetLinearityCorrectiveGain:00000000 $t
C:\Users\PCHAUT~1\AppData\Local\Temp\ccZvjaUR.s:1646   .text.VL53L0X_SetLinearityCorrectiveGain:00000000 VL53L0X_SetLinearityCorrectiveGain
C:\Users\PCHAUT~1\AppData\Local\Temp\ccZvjaUR.s:1715   .text.VL53L0X_SetLinearityCorrectiveGain:00000070 $d
C:\Users\PCHAUT~1\AppData\Local\Temp\ccZvjaUR.s:1720   .text.VL53L0X_GetLinearityCorrectiveGain:00000000 $t
C:\Users\PCHAUT~1\AppData\Local\Temp\ccZvjaUR.s:1728   .text.VL53L0X_GetLinearityCorrectiveGain:00000000 VL53L0X_GetLinearityCorrectiveGain
C:\Users\PCHAUT~1\AppData\Local\Temp\ccZvjaUR.s:1771   .text.VL53L0X_GetLinearityCorrectiveGain:00000038 $d
C:\Users\PCHAUT~1\AppData\Local\Temp\ccZvjaUR.s:1776   .text.VL53L0X_SetGroupParamHold:00000000 $t
C:\Users\PCHAUT~1\AppData\Local\Temp\ccZvjaUR.s:1784   .text.VL53L0X_SetGroupParamHold:00000000 VL53L0X_SetGroupParamHold
ARM GAS  C:\Users\PCHAUT~1\AppData\Local\Temp\ccZvjaUR.s 			page 361


C:\Users\PCHAUT~1\AppData\Local\Temp\ccZvjaUR.s:1823   .text.VL53L0X_SetGroupParamHold:00000034 $d
C:\Users\PCHAUT~1\AppData\Local\Temp\ccZvjaUR.s:1828   .text.VL53L0X_GetUpperLimitMilliMeter:00000000 $t
C:\Users\PCHAUT~1\AppData\Local\Temp\ccZvjaUR.s:1836   .text.VL53L0X_GetUpperLimitMilliMeter:00000000 VL53L0X_GetUpperLimitMilliMeter
C:\Users\PCHAUT~1\AppData\Local\Temp\ccZvjaUR.s:1874   .text.VL53L0X_GetUpperLimitMilliMeter:00000030 $d
C:\Users\PCHAUT~1\AppData\Local\Temp\ccZvjaUR.s:1879   .text.VL53L0X_GetTotalSignalRate:00000000 $t
C:\Users\PCHAUT~1\AppData\Local\Temp\ccZvjaUR.s:1887   .text.VL53L0X_GetTotalSignalRate:00000000 VL53L0X_GetTotalSignalRate
C:\Users\PCHAUT~1\AppData\Local\Temp\ccZvjaUR.s:1943   .text.VL53L0X_GetTotalSignalRate:00000054 $d
C:\Users\PCHAUT~1\AppData\Local\Temp\ccZvjaUR.s:1948   .text.VL53L0X_SetDeviceAddress:00000000 $t
C:\Users\PCHAUT~1\AppData\Local\Temp\ccZvjaUR.s:1956   .text.VL53L0X_SetDeviceAddress:00000000 VL53L0X_SetDeviceAddress
C:\Users\PCHAUT~1\AppData\Local\Temp\ccZvjaUR.s:2005   .text.VL53L0X_SetDeviceAddress:0000004c $d
C:\Users\PCHAUT~1\AppData\Local\Temp\ccZvjaUR.s:2010   .text.VL53L0X_DataInit:00000000 $t
C:\Users\PCHAUT~1\AppData\Local\Temp\ccZvjaUR.s:2018   .text.VL53L0X_DataInit:00000000 VL53L0X_DataInit
C:\Users\PCHAUT~1\AppData\Local\Temp\ccZvjaUR.s:3311   .text.VL53L0X_GetDeviceParameters:00000000 VL53L0X_GetDeviceParameters
C:\Users\PCHAUT~1\AppData\Local\Temp\ccZvjaUR.s:5897   .text.VL53L0X_SetLimitCheckEnable:00000000 VL53L0X_SetLimitCheckEnable
C:\Users\PCHAUT~1\AppData\Local\Temp\ccZvjaUR.s:6184   .text.VL53L0X_SetLimitCheckValue:00000000 VL53L0X_SetLimitCheckValue
C:\Users\PCHAUT~1\AppData\Local\Temp\ccZvjaUR.s:2378   .text.VL53L0X_DataInit:000002d0 $d
C:\Users\PCHAUT~1\AppData\Local\Temp\ccZvjaUR.s:2385   .text.VL53L0X_SetTuningSettingBuffer:00000000 $t
C:\Users\PCHAUT~1\AppData\Local\Temp\ccZvjaUR.s:2393   .text.VL53L0X_SetTuningSettingBuffer:00000000 VL53L0X_SetTuningSettingBuffer
C:\Users\PCHAUT~1\AppData\Local\Temp\ccZvjaUR.s:2462   .text.VL53L0X_SetTuningSettingBuffer:00000068 $d
C:\Users\PCHAUT~1\AppData\Local\Temp\ccZvjaUR.s:2467   .text.VL53L0X_GetTuningSettingBuffer:00000000 $t
C:\Users\PCHAUT~1\AppData\Local\Temp\ccZvjaUR.s:2475   .text.VL53L0X_GetTuningSettingBuffer:00000000 VL53L0X_GetTuningSettingBuffer
C:\Users\PCHAUT~1\AppData\Local\Temp\ccZvjaUR.s:2524   .text.VL53L0X_GetTuningSettingBuffer:00000044 $d
C:\Users\PCHAUT~1\AppData\Local\Temp\ccZvjaUR.s:2529   .text.VL53L0X_StaticInit:00000000 $t
C:\Users\PCHAUT~1\AppData\Local\Temp\ccZvjaUR.s:8831   .text.VL53L0X_SetGpioConfig:00000000 VL53L0X_SetGpioConfig
C:\Users\PCHAUT~1\AppData\Local\Temp\ccZvjaUR.s:3730   .text.VL53L0X_GetFractionEnable:00000000 VL53L0X_GetFractionEnable
C:\Users\PCHAUT~1\AppData\Local\Temp\ccZvjaUR.s:4140   .text.VL53L0X_SetSequenceStepEnable:00000000 VL53L0X_SetSequenceStepEnable
C:\Users\PCHAUT~1\AppData\Local\Temp\ccZvjaUR.s:4079   .text.VL53L0X_GetVcselPulsePeriod:00000000 VL53L0X_GetVcselPulsePeriod
C:\Users\PCHAUT~1\AppData\Local\Temp\ccZvjaUR.s:2944   .text.VL53L0X_StaticInit:00000310 $d
C:\Users\PCHAUT~1\AppData\Local\Temp\ccZvjaUR.s:2950   .text.VL53L0X_WaitDeviceBooted:00000000 $t
C:\Users\PCHAUT~1\AppData\Local\Temp\ccZvjaUR.s:2958   .text.VL53L0X_WaitDeviceBooted:00000000 VL53L0X_WaitDeviceBooted
C:\Users\PCHAUT~1\AppData\Local\Temp\ccZvjaUR.s:2995   .text.VL53L0X_WaitDeviceBooted:0000002c $d
C:\Users\PCHAUT~1\AppData\Local\Temp\ccZvjaUR.s:3000   .text.VL53L0X_ResetDevice:00000000 $t
C:\Users\PCHAUT~1\AppData\Local\Temp\ccZvjaUR.s:3008   .text.VL53L0X_ResetDevice:00000000 VL53L0X_ResetDevice
C:\Users\PCHAUT~1\AppData\Local\Temp\ccZvjaUR.s:3110   .text.VL53L0X_ResetDevice:000000b0 $d
C:\Users\PCHAUT~1\AppData\Local\Temp\ccZvjaUR.s:3115   .text.VL53L0X_SetDeviceParameters:00000000 $t
C:\Users\PCHAUT~1\AppData\Local\Temp\ccZvjaUR.s:3123   .text.VL53L0X_SetDeviceParameters:00000000 VL53L0X_SetDeviceParameters
C:\Users\PCHAUT~1\AppData\Local\Temp\ccZvjaUR.s:3510   .text.VL53L0X_SetDeviceMode:00000000 VL53L0X_SetDeviceMode
C:\Users\PCHAUT~1\AppData\Local\Temp\ccZvjaUR.s:5035   .text.VL53L0X_SetInterMeasurementPeriodMilliSeconds:00000000 VL53L0X_SetInterMeasurementPeriodMilliSeconds
C:\Users\PCHAUT~1\AppData\Local\Temp\ccZvjaUR.s:5390   .text.VL53L0X_SetXTalkCompensationRateMegaCps:00000000 VL53L0X_SetXTalkCompensationRateMegaCps
C:\Users\PCHAUT~1\AppData\Local\Temp\ccZvjaUR.s:6712   .text.VL53L0X_SetWrapAroundCheckEnable:00000000 VL53L0X_SetWrapAroundCheckEnable
C:\Users\PCHAUT~1\AppData\Local\Temp\ccZvjaUR.s:3903   .text.VL53L0X_SetMeasurementTimingBudgetMicroSeconds:00000000 VL53L0X_SetMeasurementTimingBudgetMicroSeconds
C:\Users\PCHAUT~1\AppData\Local\Temp\ccZvjaUR.s:3298   .text.VL53L0X_SetDeviceParameters:00000138 $d
C:\Users\PCHAUT~1\AppData\Local\Temp\ccZvjaUR.s:3303   .text.VL53L0X_GetDeviceParameters:00000000 $t
C:\Users\PCHAUT~1\AppData\Local\Temp\ccZvjaUR.s:3605   .text.VL53L0X_GetDeviceMode:00000000 VL53L0X_GetDeviceMode
C:\Users\PCHAUT~1\AppData\Local\Temp\ccZvjaUR.s:5132   .text.VL53L0X_GetInterMeasurementPeriodMilliSeconds:00000000 VL53L0X_GetInterMeasurementPeriodMilliSeconds
C:\Users\PCHAUT~1\AppData\Local\Temp\ccZvjaUR.s:5490   .text.VL53L0X_GetXTalkCompensationRateMegaCps:00000000 VL53L0X_GetXTalkCompensationRateMegaCps
C:\Users\PCHAUT~1\AppData\Local\Temp\ccZvjaUR.s:6339   .text.VL53L0X_GetLimitCheckValue:00000000 VL53L0X_GetLimitCheckValue
C:\Users\PCHAUT~1\AppData\Local\Temp\ccZvjaUR.s:6107   .text.VL53L0X_GetLimitCheckEnable:00000000 VL53L0X_GetLimitCheckEnable
C:\Users\PCHAUT~1\AppData\Local\Temp\ccZvjaUR.s:6816   .text.VL53L0X_GetWrapAroundCheckEnable:00000000 VL53L0X_GetWrapAroundCheckEnable
C:\Users\PCHAUT~1\AppData\Local\Temp\ccZvjaUR.s:3960   .text.VL53L0X_GetMeasurementTimingBudgetMicroSeconds:00000000 VL53L0X_GetMeasurementTimingBudgetMicroSeconds
C:\Users\PCHAUT~1\AppData\Local\Temp\ccZvjaUR.s:3497   .text.VL53L0X_GetDeviceParameters:00000148 $d
C:\Users\PCHAUT~1\AppData\Local\Temp\ccZvjaUR.s:3502   .text.VL53L0X_SetDeviceMode:00000000 $t
C:\Users\PCHAUT~1\AppData\Local\Temp\ccZvjaUR.s:3539   .text.VL53L0X_SetDeviceMode:00000028 $d
C:\Users\PCHAUT~1\AppData\Local\Temp\ccZvjaUR.s:3561   .text.VL53L0X_SetDeviceMode:00000080 $t
C:\Users\PCHAUT~1\AppData\Local\Temp\ccZvjaUR.s:3592   .text.VL53L0X_SetDeviceMode:000000ac $d
C:\Users\PCHAUT~1\AppData\Local\Temp\ccZvjaUR.s:3597   .text.VL53L0X_GetDeviceMode:00000000 $t
C:\Users\PCHAUT~1\AppData\Local\Temp\ccZvjaUR.s:3648   .text.VL53L0X_GetDeviceMode:00000038 $d
ARM GAS  C:\Users\PCHAUT~1\AppData\Local\Temp\ccZvjaUR.s 			page 362


C:\Users\PCHAUT~1\AppData\Local\Temp\ccZvjaUR.s:3653   .text.VL53L0X_SetRangeFractionEnable:00000000 $t
C:\Users\PCHAUT~1\AppData\Local\Temp\ccZvjaUR.s:3661   .text.VL53L0X_SetRangeFractionEnable:00000000 VL53L0X_SetRangeFractionEnable
C:\Users\PCHAUT~1\AppData\Local\Temp\ccZvjaUR.s:3717   .text.VL53L0X_SetRangeFractionEnable:00000058 $d
C:\Users\PCHAUT~1\AppData\Local\Temp\ccZvjaUR.s:3722   .text.VL53L0X_GetFractionEnable:00000000 $t
C:\Users\PCHAUT~1\AppData\Local\Temp\ccZvjaUR.s:3787   .text.VL53L0X_GetFractionEnable:00000054 $d
C:\Users\PCHAUT~1\AppData\Local\Temp\ccZvjaUR.s:3792   .text.VL53L0X_SetHistogramMode:00000000 $t
C:\Users\PCHAUT~1\AppData\Local\Temp\ccZvjaUR.s:3800   .text.VL53L0X_SetHistogramMode:00000000 VL53L0X_SetHistogramMode
C:\Users\PCHAUT~1\AppData\Local\Temp\ccZvjaUR.s:3839   .text.VL53L0X_SetHistogramMode:00000034 $d
C:\Users\PCHAUT~1\AppData\Local\Temp\ccZvjaUR.s:3844   .text.VL53L0X_GetHistogramMode:00000000 $t
C:\Users\PCHAUT~1\AppData\Local\Temp\ccZvjaUR.s:3852   .text.VL53L0X_GetHistogramMode:00000000 VL53L0X_GetHistogramMode
C:\Users\PCHAUT~1\AppData\Local\Temp\ccZvjaUR.s:3890   .text.VL53L0X_GetHistogramMode:00000030 $d
C:\Users\PCHAUT~1\AppData\Local\Temp\ccZvjaUR.s:3895   .text.VL53L0X_SetMeasurementTimingBudgetMicroSeconds:00000000 $t
C:\Users\PCHAUT~1\AppData\Local\Temp\ccZvjaUR.s:3947   .text.VL53L0X_SetMeasurementTimingBudgetMicroSeconds:0000003c $d
C:\Users\PCHAUT~1\AppData\Local\Temp\ccZvjaUR.s:3952   .text.VL53L0X_GetMeasurementTimingBudgetMicroSeconds:00000000 $t
C:\Users\PCHAUT~1\AppData\Local\Temp\ccZvjaUR.s:4004   .text.VL53L0X_GetMeasurementTimingBudgetMicroSeconds:0000003c $d
C:\Users\PCHAUT~1\AppData\Local\Temp\ccZvjaUR.s:4009   .text.VL53L0X_SetVcselPulsePeriod:00000000 $t
C:\Users\PCHAUT~1\AppData\Local\Temp\ccZvjaUR.s:4017   .text.VL53L0X_SetVcselPulsePeriod:00000000 VL53L0X_SetVcselPulsePeriod
C:\Users\PCHAUT~1\AppData\Local\Temp\ccZvjaUR.s:4066   .text.VL53L0X_SetVcselPulsePeriod:00000050 $d
C:\Users\PCHAUT~1\AppData\Local\Temp\ccZvjaUR.s:4071   .text.VL53L0X_GetVcselPulsePeriod:00000000 $t
C:\Users\PCHAUT~1\AppData\Local\Temp\ccZvjaUR.s:4127   .text.VL53L0X_GetVcselPulsePeriod:00000048 $d
C:\Users\PCHAUT~1\AppData\Local\Temp\ccZvjaUR.s:4132   .text.VL53L0X_SetSequenceStepEnable:00000000 $t
C:\Users\PCHAUT~1\AppData\Local\Temp\ccZvjaUR.s:4196   .text.VL53L0X_SetSequenceStepEnable:00000064 $d
C:\Users\PCHAUT~1\AppData\Local\Temp\ccZvjaUR.s:4201   .text.VL53L0X_SetSequenceStepEnable:00000078 $t
C:\Users\PCHAUT~1\AppData\Local\Temp\ccZvjaUR.s:4251   .text.VL53L0X_SetSequenceStepEnable:000000d4 $d
C:\Users\PCHAUT~1\AppData\Local\Temp\ccZvjaUR.s:4256   .text.VL53L0X_SetSequenceStepEnable:000000e8 $t
C:\Users\PCHAUT~1\AppData\Local\Temp\ccZvjaUR.s:4359   .text.VL53L0X_SetSequenceStepEnable:000001a4 $d
C:\Users\PCHAUT~1\AppData\Local\Temp\ccZvjaUR.s:4364   .text.sequence_step_enabled:00000000 $t
C:\Users\PCHAUT~1\AppData\Local\Temp\ccZvjaUR.s:4372   .text.sequence_step_enabled:00000000 sequence_step_enabled
C:\Users\PCHAUT~1\AppData\Local\Temp\ccZvjaUR.s:4408   .text.sequence_step_enabled:00000034 $d
C:\Users\PCHAUT~1\AppData\Local\Temp\ccZvjaUR.s:4413   .text.sequence_step_enabled:00000048 $t
C:\Users\PCHAUT~1\AppData\Local\Temp\ccZvjaUR.s:4490   .text.sequence_step_enabled:000000c8 $d
C:\Users\PCHAUT~1\AppData\Local\Temp\ccZvjaUR.s:4495   .text.VL53L0X_GetSequenceStepEnable:00000000 $t
C:\Users\PCHAUT~1\AppData\Local\Temp\ccZvjaUR.s:4503   .text.VL53L0X_GetSequenceStepEnable:00000000 VL53L0X_GetSequenceStepEnable
C:\Users\PCHAUT~1\AppData\Local\Temp\ccZvjaUR.s:4567   .text.VL53L0X_GetSequenceStepEnable:0000006c $d
C:\Users\PCHAUT~1\AppData\Local\Temp\ccZvjaUR.s:4572   .text.VL53L0X_GetSequenceStepEnables:00000000 $t
C:\Users\PCHAUT~1\AppData\Local\Temp\ccZvjaUR.s:4580   .text.VL53L0X_GetSequenceStepEnables:00000000 VL53L0X_GetSequenceStepEnables
C:\Users\PCHAUT~1\AppData\Local\Temp\ccZvjaUR.s:4698   .text.VL53L0X_GetSequenceStepEnables:000000dc $d
C:\Users\PCHAUT~1\AppData\Local\Temp\ccZvjaUR.s:4703   .text.VL53L0X_GetNumberOfSequenceSteps:00000000 $t
C:\Users\PCHAUT~1\AppData\Local\Temp\ccZvjaUR.s:4711   .text.VL53L0X_GetNumberOfSequenceSteps:00000000 VL53L0X_GetNumberOfSequenceSteps
C:\Users\PCHAUT~1\AppData\Local\Temp\ccZvjaUR.s:4753   .text.VL53L0X_GetNumberOfSequenceSteps:00000034 $d
C:\Users\PCHAUT~1\AppData\Local\Temp\ccZvjaUR.s:4758   .text.VL53L0X_GetSequenceStepsInfo:00000000 $t
C:\Users\PCHAUT~1\AppData\Local\Temp\ccZvjaUR.s:4766   .text.VL53L0X_GetSequenceStepsInfo:00000000 VL53L0X_GetSequenceStepsInfo
C:\Users\PCHAUT~1\AppData\Local\Temp\ccZvjaUR.s:4812   .text.VL53L0X_GetSequenceStepsInfo:00000044 $d
C:\Users\PCHAUT~1\AppData\Local\Temp\ccZvjaUR.s:4817   .text.VL53L0X_SetSequenceStepTimeout:00000000 $t
C:\Users\PCHAUT~1\AppData\Local\Temp\ccZvjaUR.s:4825   .text.VL53L0X_SetSequenceStepTimeout:00000000 VL53L0X_SetSequenceStepTimeout
C:\Users\PCHAUT~1\AppData\Local\Temp\ccZvjaUR.s:4937   .text.VL53L0X_SetSequenceStepTimeout:000000d4 $d
C:\Users\PCHAUT~1\AppData\Local\Temp\ccZvjaUR.s:4942   .text.VL53L0X_GetSequenceStepTimeout:00000000 $t
C:\Users\PCHAUT~1\AppData\Local\Temp\ccZvjaUR.s:4950   .text.VL53L0X_GetSequenceStepTimeout:00000000 VL53L0X_GetSequenceStepTimeout
C:\Users\PCHAUT~1\AppData\Local\Temp\ccZvjaUR.s:5021   .text.VL53L0X_GetSequenceStepTimeout:00000074 $d
C:\Users\PCHAUT~1\AppData\Local\Temp\ccZvjaUR.s:5027   .text.VL53L0X_SetInterMeasurementPeriodMilliSeconds:00000000 $t
C:\Users\PCHAUT~1\AppData\Local\Temp\ccZvjaUR.s:5119   .text.VL53L0X_SetInterMeasurementPeriodMilliSeconds:00000084 $d
C:\Users\PCHAUT~1\AppData\Local\Temp\ccZvjaUR.s:5124   .text.VL53L0X_GetInterMeasurementPeriodMilliSeconds:00000000 $t
C:\Users\PCHAUT~1\AppData\Local\Temp\ccZvjaUR.s:5213   .text.VL53L0X_GetInterMeasurementPeriodMilliSeconds:00000084 $d
C:\Users\PCHAUT~1\AppData\Local\Temp\ccZvjaUR.s:5218   .text.VL53L0X_SetXTalkCompensationEnable:00000000 $t
C:\Users\PCHAUT~1\AppData\Local\Temp\ccZvjaUR.s:5226   .text.VL53L0X_SetXTalkCompensationEnable:00000000 VL53L0X_SetXTalkCompensationEnable
C:\Users\PCHAUT~1\AppData\Local\Temp\ccZvjaUR.s:5318   .text.VL53L0X_SetXTalkCompensationEnable:00000090 $d
C:\Users\PCHAUT~1\AppData\Local\Temp\ccZvjaUR.s:5323   .text.VL53L0X_GetXTalkCompensationEnable:00000000 $t
ARM GAS  C:\Users\PCHAUT~1\AppData\Local\Temp\ccZvjaUR.s 			page 363


C:\Users\PCHAUT~1\AppData\Local\Temp\ccZvjaUR.s:5331   .text.VL53L0X_GetXTalkCompensationEnable:00000000 VL53L0X_GetXTalkCompensationEnable
C:\Users\PCHAUT~1\AppData\Local\Temp\ccZvjaUR.s:5377   .text.VL53L0X_GetXTalkCompensationEnable:00000040 $d
C:\Users\PCHAUT~1\AppData\Local\Temp\ccZvjaUR.s:5382   .text.VL53L0X_SetXTalkCompensationRateMegaCps:00000000 $t
C:\Users\PCHAUT~1\AppData\Local\Temp\ccZvjaUR.s:5477   .text.VL53L0X_SetXTalkCompensationRateMegaCps:0000008c $d
C:\Users\PCHAUT~1\AppData\Local\Temp\ccZvjaUR.s:5482   .text.VL53L0X_GetXTalkCompensationRateMegaCps:00000000 $t
C:\Users\PCHAUT~1\AppData\Local\Temp\ccZvjaUR.s:5575   .text.VL53L0X_GetXTalkCompensationRateMegaCps:00000080 $d
C:\Users\PCHAUT~1\AppData\Local\Temp\ccZvjaUR.s:5580   .text.VL53L0X_SetRefCalibration:00000000 $t
C:\Users\PCHAUT~1\AppData\Local\Temp\ccZvjaUR.s:5588   .text.VL53L0X_SetRefCalibration:00000000 VL53L0X_SetRefCalibration
C:\Users\PCHAUT~1\AppData\Local\Temp\ccZvjaUR.s:5637   .text.VL53L0X_SetRefCalibration:00000050 $d
C:\Users\PCHAUT~1\AppData\Local\Temp\ccZvjaUR.s:5642   .text.VL53L0X_GetRefCalibration:00000000 $t
C:\Users\PCHAUT~1\AppData\Local\Temp\ccZvjaUR.s:5650   .text.VL53L0X_GetRefCalibration:00000000 VL53L0X_GetRefCalibration
C:\Users\PCHAUT~1\AppData\Local\Temp\ccZvjaUR.s:5696   .text.VL53L0X_GetRefCalibration:00000040 $d
C:\Users\PCHAUT~1\AppData\Local\Temp\ccZvjaUR.s:5701   .text.VL53L0X_GetNumberOfLimitCheck:00000000 $t
C:\Users\PCHAUT~1\AppData\Local\Temp\ccZvjaUR.s:5709   .text.VL53L0X_GetNumberOfLimitCheck:00000000 VL53L0X_GetNumberOfLimitCheck
C:\Users\PCHAUT~1\AppData\Local\Temp\ccZvjaUR.s:5750   .text.VL53L0X_GetNumberOfLimitCheck:00000034 $d
C:\Users\PCHAUT~1\AppData\Local\Temp\ccZvjaUR.s:5755   .text.VL53L0X_GetLimitCheckInfo:00000000 $t
C:\Users\PCHAUT~1\AppData\Local\Temp\ccZvjaUR.s:5763   .text.VL53L0X_GetLimitCheckInfo:00000000 VL53L0X_GetLimitCheckInfo
C:\Users\PCHAUT~1\AppData\Local\Temp\ccZvjaUR.s:5811   .text.VL53L0X_GetLimitCheckInfo:00000048 $d
C:\Users\PCHAUT~1\AppData\Local\Temp\ccZvjaUR.s:5816   .text.VL53L0X_GetLimitCheckStatus:00000000 $t
C:\Users\PCHAUT~1\AppData\Local\Temp\ccZvjaUR.s:5824   .text.VL53L0X_GetLimitCheckStatus:00000000 VL53L0X_GetLimitCheckStatus
C:\Users\PCHAUT~1\AppData\Local\Temp\ccZvjaUR.s:5884   .text.VL53L0X_GetLimitCheckStatus:0000005c $d
C:\Users\PCHAUT~1\AppData\Local\Temp\ccZvjaUR.s:5889   .text.VL53L0X_SetLimitCheckEnable:00000000 $t
C:\Users\PCHAUT~1\AppData\Local\Temp\ccZvjaUR.s:5976   .text.VL53L0X_SetLimitCheckEnable:00000084 $d
C:\Users\PCHAUT~1\AppData\Local\Temp\ccZvjaUR.s:5982   .text.VL53L0X_SetLimitCheckEnable:0000009c $t
C:\Users\PCHAUT~1\AppData\Local\Temp\ccZvjaUR.s:6094   .text.VL53L0X_SetLimitCheckEnable:00000168 $d
C:\Users\PCHAUT~1\AppData\Local\Temp\ccZvjaUR.s:6099   .text.VL53L0X_GetLimitCheckEnable:00000000 $t
C:\Users\PCHAUT~1\AppData\Local\Temp\ccZvjaUR.s:6171   .text.VL53L0X_GetLimitCheckEnable:00000064 $d
C:\Users\PCHAUT~1\AppData\Local\Temp\ccZvjaUR.s:6176   .text.VL53L0X_SetLimitCheckValue:00000000 $t
C:\Users\PCHAUT~1\AppData\Local\Temp\ccZvjaUR.s:6234   .text.VL53L0X_SetLimitCheckValue:00000054 $d
C:\Users\PCHAUT~1\AppData\Local\Temp\ccZvjaUR.s:6240   .text.VL53L0X_SetLimitCheckValue:0000006c $t
C:\Users\PCHAUT~1\AppData\Local\Temp\ccZvjaUR.s:6326   .text.VL53L0X_SetLimitCheckValue:000000ec $d
C:\Users\PCHAUT~1\AppData\Local\Temp\ccZvjaUR.s:6331   .text.VL53L0X_GetLimitCheckValue:00000000 $t
C:\Users\PCHAUT~1\AppData\Local\Temp\ccZvjaUR.s:6372   .text.VL53L0X_GetLimitCheckValue:00000030 $d
C:\Users\PCHAUT~1\AppData\Local\Temp\ccZvjaUR.s:6378   .text.VL53L0X_GetLimitCheckValue:00000048 $t
C:\Users\PCHAUT~1\AppData\Local\Temp\ccZvjaUR.s:6535   .text.VL53L0X_GetLimitCheckValue:00000154 $d
C:\Users\PCHAUT~1\AppData\Local\Temp\ccZvjaUR.s:6540   .text.VL53L0X_GetLimitCheckCurrent:00000000 $t
C:\Users\PCHAUT~1\AppData\Local\Temp\ccZvjaUR.s:6548   .text.VL53L0X_GetLimitCheckCurrent:00000000 VL53L0X_GetLimitCheckCurrent
C:\Users\PCHAUT~1\AppData\Local\Temp\ccZvjaUR.s:6589   .text.VL53L0X_GetLimitCheckCurrent:00000038 $d
C:\Users\PCHAUT~1\AppData\Local\Temp\ccZvjaUR.s:6595   .text.VL53L0X_GetLimitCheckCurrent:00000050 $t
C:\Users\PCHAUT~1\AppData\Local\Temp\ccZvjaUR.s:6699   .text.VL53L0X_GetLimitCheckCurrent:000000f8 $d
C:\Users\PCHAUT~1\AppData\Local\Temp\ccZvjaUR.s:6704   .text.VL53L0X_SetWrapAroundCheckEnable:00000000 $t
C:\Users\PCHAUT~1\AppData\Local\Temp\ccZvjaUR.s:6803   .text.VL53L0X_SetWrapAroundCheckEnable:000000a8 $d
C:\Users\PCHAUT~1\AppData\Local\Temp\ccZvjaUR.s:6808   .text.VL53L0X_GetWrapAroundCheckEnable:00000000 $t
C:\Users\PCHAUT~1\AppData\Local\Temp\ccZvjaUR.s:6896   .text.VL53L0X_GetWrapAroundCheckEnable:00000080 $d
C:\Users\PCHAUT~1\AppData\Local\Temp\ccZvjaUR.s:6901   .text.VL53L0X_SetDmaxCalParameters:00000000 $t
C:\Users\PCHAUT~1\AppData\Local\Temp\ccZvjaUR.s:6909   .text.VL53L0X_SetDmaxCalParameters:00000000 VL53L0X_SetDmaxCalParameters
C:\Users\PCHAUT~1\AppData\Local\Temp\ccZvjaUR.s:6988   .text.VL53L0X_SetDmaxCalParameters:0000007c $d
C:\Users\PCHAUT~1\AppData\Local\Temp\ccZvjaUR.s:6993   .text.VL53L0X_GetDmaxCalParameters:00000000 $t
C:\Users\PCHAUT~1\AppData\Local\Temp\ccZvjaUR.s:7001   .text.VL53L0X_GetDmaxCalParameters:00000000 VL53L0X_GetDmaxCalParameters
C:\Users\PCHAUT~1\AppData\Local\Temp\ccZvjaUR.s:7050   .text.VL53L0X_GetDmaxCalParameters:00000044 $d
C:\Users\PCHAUT~1\AppData\Local\Temp\ccZvjaUR.s:7055   .text.VL53L0X_PerformSingleMeasurement:00000000 $t
C:\Users\PCHAUT~1\AppData\Local\Temp\ccZvjaUR.s:7063   .text.VL53L0X_PerformSingleMeasurement:00000000 VL53L0X_PerformSingleMeasurement
C:\Users\PCHAUT~1\AppData\Local\Temp\ccZvjaUR.s:7584   .text.VL53L0X_StartMeasurement:00000000 VL53L0X_StartMeasurement
C:\Users\PCHAUT~1\AppData\Local\Temp\ccZvjaUR.s:7144   .text.VL53L0X_PerformSingleMeasurement:00000088 $d
C:\Users\PCHAUT~1\AppData\Local\Temp\ccZvjaUR.s:7149   .text.VL53L0X_PerformSingleHistogramMeasurement:00000000 $t
C:\Users\PCHAUT~1\AppData\Local\Temp\ccZvjaUR.s:7157   .text.VL53L0X_PerformSingleHistogramMeasurement:00000000 VL53L0X_PerformSingleHistogramMeasurement
C:\Users\PCHAUT~1\AppData\Local\Temp\ccZvjaUR.s:7195   .text.VL53L0X_PerformSingleHistogramMeasurement:00000030 $d
ARM GAS  C:\Users\PCHAUT~1\AppData\Local\Temp\ccZvjaUR.s 			page 364


C:\Users\PCHAUT~1\AppData\Local\Temp\ccZvjaUR.s:7200   .text.VL53L0X_PerformRefCalibration:00000000 $t
C:\Users\PCHAUT~1\AppData\Local\Temp\ccZvjaUR.s:7208   .text.VL53L0X_PerformRefCalibration:00000000 VL53L0X_PerformRefCalibration
C:\Users\PCHAUT~1\AppData\Local\Temp\ccZvjaUR.s:7255   .text.VL53L0X_PerformRefCalibration:00000044 $d
C:\Users\PCHAUT~1\AppData\Local\Temp\ccZvjaUR.s:7260   .text.VL53L0X_PerformXTalkMeasurement:00000000 $t
C:\Users\PCHAUT~1\AppData\Local\Temp\ccZvjaUR.s:7268   .text.VL53L0X_PerformXTalkMeasurement:00000000 VL53L0X_PerformXTalkMeasurement
C:\Users\PCHAUT~1\AppData\Local\Temp\ccZvjaUR.s:7308   .text.VL53L0X_PerformXTalkMeasurement:00000034 $d
C:\Users\PCHAUT~1\AppData\Local\Temp\ccZvjaUR.s:7313   .text.VL53L0X_PerformXTalkCalibration:00000000 $t
C:\Users\PCHAUT~1\AppData\Local\Temp\ccZvjaUR.s:7321   .text.VL53L0X_PerformXTalkCalibration:00000000 VL53L0X_PerformXTalkCalibration
C:\Users\PCHAUT~1\AppData\Local\Temp\ccZvjaUR.s:7367   .text.VL53L0X_PerformXTalkCalibration:00000040 $d
C:\Users\PCHAUT~1\AppData\Local\Temp\ccZvjaUR.s:7372   .text.VL53L0X_PerformOffsetCalibration:00000000 $t
C:\Users\PCHAUT~1\AppData\Local\Temp\ccZvjaUR.s:7380   .text.VL53L0X_PerformOffsetCalibration:00000000 VL53L0X_PerformOffsetCalibration
C:\Users\PCHAUT~1\AppData\Local\Temp\ccZvjaUR.s:7426   .text.VL53L0X_PerformOffsetCalibration:00000040 $d
C:\Users\PCHAUT~1\AppData\Local\Temp\ccZvjaUR.s:7431   .text.VL53L0X_CheckAndLoadInterruptSettings:00000000 $t
C:\Users\PCHAUT~1\AppData\Local\Temp\ccZvjaUR.s:7439   .text.VL53L0X_CheckAndLoadInterruptSettings:00000000 VL53L0X_CheckAndLoadInterruptSettings
C:\Users\PCHAUT~1\AppData\Local\Temp\ccZvjaUR.s:9475   .text.VL53L0X_GetInterruptThresholds:00000000 VL53L0X_GetInterruptThresholds
C:\Users\PCHAUT~1\AppData\Local\Temp\ccZvjaUR.s:7570   .text.VL53L0X_CheckAndLoadInterruptSettings:000000f8 $d
C:\Users\PCHAUT~1\AppData\Local\Temp\ccZvjaUR.s:7576   .text.VL53L0X_StartMeasurement:00000000 $t
C:\Users\PCHAUT~1\AppData\Local\Temp\ccZvjaUR.s:7825   .text.VL53L0X_StartMeasurement:000001bc $d
C:\Users\PCHAUT~1\AppData\Local\Temp\ccZvjaUR.s:7830   .text.VL53L0X_StopMeasurement:00000000 $t
C:\Users\PCHAUT~1\AppData\Local\Temp\ccZvjaUR.s:7838   .text.VL53L0X_StopMeasurement:00000000 VL53L0X_StopMeasurement
C:\Users\PCHAUT~1\AppData\Local\Temp\ccZvjaUR.s:7937   .text.VL53L0X_StopMeasurement:000000b4 $d
C:\Users\PCHAUT~1\AppData\Local\Temp\ccZvjaUR.s:7942   .text.VL53L0X_GetMeasurementDataReady:00000000 $t
C:\Users\PCHAUT~1\AppData\Local\Temp\ccZvjaUR.s:7950   .text.VL53L0X_GetMeasurementDataReady:00000000 VL53L0X_GetMeasurementDataReady
C:\Users\PCHAUT~1\AppData\Local\Temp\ccZvjaUR.s:9825   .text.VL53L0X_GetInterruptMaskStatus:00000000 VL53L0X_GetInterruptMaskStatus
C:\Users\PCHAUT~1\AppData\Local\Temp\ccZvjaUR.s:8047   .text.VL53L0X_GetMeasurementDataReady:0000009c $d
C:\Users\PCHAUT~1\AppData\Local\Temp\ccZvjaUR.s:8052   .text.VL53L0X_WaitDeviceReadyForNewMeasurement:00000000 $t
C:\Users\PCHAUT~1\AppData\Local\Temp\ccZvjaUR.s:8060   .text.VL53L0X_WaitDeviceReadyForNewMeasurement:00000000 VL53L0X_WaitDeviceReadyForNewMeasurement
C:\Users\PCHAUT~1\AppData\Local\Temp\ccZvjaUR.s:8098   .text.VL53L0X_WaitDeviceReadyForNewMeasurement:00000030 $d
C:\Users\PCHAUT~1\AppData\Local\Temp\ccZvjaUR.s:8103   .text.VL53L0X_GetRangingMeasurementData:00000000 $t
C:\Users\PCHAUT~1\AppData\Local\Temp\ccZvjaUR.s:8111   .text.VL53L0X_GetRangingMeasurementData:00000000 VL53L0X_GetRangingMeasurementData
C:\Users\PCHAUT~1\AppData\Local\Temp\ccZvjaUR.s:8430   .text.VL53L0X_GetRangingMeasurementData:00000264 $d
C:\Users\PCHAUT~1\AppData\Local\Temp\ccZvjaUR.s:8436   .text.VL53L0X_GetMeasurementRefSignal:00000000 $t
C:\Users\PCHAUT~1\AppData\Local\Temp\ccZvjaUR.s:8444   .text.VL53L0X_GetMeasurementRefSignal:00000000 VL53L0X_GetMeasurementRefSignal
C:\Users\PCHAUT~1\AppData\Local\Temp\ccZvjaUR.s:8508   .text.VL53L0X_GetMeasurementRefSignal:00000064 $d
C:\Users\PCHAUT~1\AppData\Local\Temp\ccZvjaUR.s:8513   .text.VL53L0X_GetHistogramMeasurementData:00000000 $t
C:\Users\PCHAUT~1\AppData\Local\Temp\ccZvjaUR.s:8521   .text.VL53L0X_GetHistogramMeasurementData:00000000 VL53L0X_GetHistogramMeasurementData
C:\Users\PCHAUT~1\AppData\Local\Temp\ccZvjaUR.s:8559   .text.VL53L0X_GetHistogramMeasurementData:00000030 $d
C:\Users\PCHAUT~1\AppData\Local\Temp\ccZvjaUR.s:8564   .text.VL53L0X_PerformSingleRangingMeasurement:00000000 $t
C:\Users\PCHAUT~1\AppData\Local\Temp\ccZvjaUR.s:8572   .text.VL53L0X_PerformSingleRangingMeasurement:00000000 VL53L0X_PerformSingleRangingMeasurement
C:\Users\PCHAUT~1\AppData\Local\Temp\ccZvjaUR.s:9715   .text.VL53L0X_ClearInterruptMask:00000000 VL53L0X_ClearInterruptMask
C:\Users\PCHAUT~1\AppData\Local\Temp\ccZvjaUR.s:8648   .text.VL53L0X_PerformSingleRangingMeasurement:0000007c $d
C:\Users\PCHAUT~1\AppData\Local\Temp\ccZvjaUR.s:8653   .text.VL53L0X_SetNumberOfROIZones:00000000 $t
C:\Users\PCHAUT~1\AppData\Local\Temp\ccZvjaUR.s:8661   .text.VL53L0X_SetNumberOfROIZones:00000000 VL53L0X_SetNumberOfROIZones
C:\Users\PCHAUT~1\AppData\Local\Temp\ccZvjaUR.s:8708   .text.VL53L0X_SetNumberOfROIZones:00000040 $d
C:\Users\PCHAUT~1\AppData\Local\Temp\ccZvjaUR.s:8713   .text.VL53L0X_GetNumberOfROIZones:00000000 $t
C:\Users\PCHAUT~1\AppData\Local\Temp\ccZvjaUR.s:8721   .text.VL53L0X_GetNumberOfROIZones:00000000 VL53L0X_GetNumberOfROIZones
C:\Users\PCHAUT~1\AppData\Local\Temp\ccZvjaUR.s:8763   .text.VL53L0X_GetNumberOfROIZones:00000034 $d
C:\Users\PCHAUT~1\AppData\Local\Temp\ccZvjaUR.s:8768   .text.VL53L0X_GetMaxNumberOfROIZones:00000000 $t
C:\Users\PCHAUT~1\AppData\Local\Temp\ccZvjaUR.s:8776   .text.VL53L0X_GetMaxNumberOfROIZones:00000000 VL53L0X_GetMaxNumberOfROIZones
C:\Users\PCHAUT~1\AppData\Local\Temp\ccZvjaUR.s:8818   .text.VL53L0X_GetMaxNumberOfROIZones:00000034 $d
C:\Users\PCHAUT~1\AppData\Local\Temp\ccZvjaUR.s:8823   .text.VL53L0X_SetGpioConfig:00000000 $t
C:\Users\PCHAUT~1\AppData\Local\Temp\ccZvjaUR.s:9065   .text.VL53L0X_SetGpioConfig:00000200 $d
C:\Users\PCHAUT~1\AppData\Local\Temp\ccZvjaUR.s:9070   .text.VL53L0X_SetGpioConfig:00000214 $t
C:\Users\PCHAUT~1\AppData\Local\Temp\ccZvjaUR.s:9187   .text.VL53L0X_SetGpioConfig:000002d8 $d
C:\Users\PCHAUT~1\AppData\Local\Temp\ccZvjaUR.s:9192   .text.VL53L0X_GetGpioConfig:00000000 $t
C:\Users\PCHAUT~1\AppData\Local\Temp\ccZvjaUR.s:9200   .text.VL53L0X_GetGpioConfig:00000000 VL53L0X_GetGpioConfig
C:\Users\PCHAUT~1\AppData\Local\Temp\ccZvjaUR.s:9266   .text.VL53L0X_GetGpioConfig:00000074 $d
ARM GAS  C:\Users\PCHAUT~1\AppData\Local\Temp\ccZvjaUR.s 			page 365


C:\Users\PCHAUT~1\AppData\Local\Temp\ccZvjaUR.s:9271   .text.VL53L0X_GetGpioConfig:00000088 $t
C:\Users\PCHAUT~1\AppData\Local\Temp\ccZvjaUR.s:9375   .text.VL53L0X_GetGpioConfig:0000012c $d
C:\Users\PCHAUT~1\AppData\Local\Temp\ccZvjaUR.s:9380   .text.VL53L0X_SetInterruptThresholds:00000000 $t
C:\Users\PCHAUT~1\AppData\Local\Temp\ccZvjaUR.s:9388   .text.VL53L0X_SetInterruptThresholds:00000000 VL53L0X_SetInterruptThresholds
C:\Users\PCHAUT~1\AppData\Local\Temp\ccZvjaUR.s:9462   .text.VL53L0X_SetInterruptThresholds:00000084 $d
C:\Users\PCHAUT~1\AppData\Local\Temp\ccZvjaUR.s:9467   .text.VL53L0X_GetInterruptThresholds:00000000 $t
C:\Users\PCHAUT~1\AppData\Local\Temp\ccZvjaUR.s:9554   .text.VL53L0X_GetInterruptThresholds:00000088 $d
C:\Users\PCHAUT~1\AppData\Local\Temp\ccZvjaUR.s:9560   .text.VL53L0X_GetStopCompletedStatus:00000000 $t
C:\Users\PCHAUT~1\AppData\Local\Temp\ccZvjaUR.s:9568   .text.VL53L0X_GetStopCompletedStatus:00000000 VL53L0X_GetStopCompletedStatus
C:\Users\PCHAUT~1\AppData\Local\Temp\ccZvjaUR.s:9702   .text.VL53L0X_GetStopCompletedStatus:00000100 $d
C:\Users\PCHAUT~1\AppData\Local\Temp\ccZvjaUR.s:9707   .text.VL53L0X_ClearInterruptMask:00000000 $t
C:\Users\PCHAUT~1\AppData\Local\Temp\ccZvjaUR.s:9812   .text.VL53L0X_ClearInterruptMask:000000ac $d
C:\Users\PCHAUT~1\AppData\Local\Temp\ccZvjaUR.s:9817   .text.VL53L0X_GetInterruptMaskStatus:00000000 $t
C:\Users\PCHAUT~1\AppData\Local\Temp\ccZvjaUR.s:9885   .text.VL53L0X_GetInterruptMaskStatus:00000060 $d
C:\Users\PCHAUT~1\AppData\Local\Temp\ccZvjaUR.s:9890   .text.VL53L0X_EnableInterruptMask:00000000 $t
C:\Users\PCHAUT~1\AppData\Local\Temp\ccZvjaUR.s:9898   .text.VL53L0X_EnableInterruptMask:00000000 VL53L0X_EnableInterruptMask
C:\Users\PCHAUT~1\AppData\Local\Temp\ccZvjaUR.s:9936   .text.VL53L0X_EnableInterruptMask:00000030 $d
C:\Users\PCHAUT~1\AppData\Local\Temp\ccZvjaUR.s:9941   .text.VL53L0X_SetSpadAmbientDamperThreshold:00000000 $t
C:\Users\PCHAUT~1\AppData\Local\Temp\ccZvjaUR.s:9949   .text.VL53L0X_SetSpadAmbientDamperThreshold:00000000 VL53L0X_SetSpadAmbientDamperThreshold
C:\Users\PCHAUT~1\AppData\Local\Temp\ccZvjaUR.s:10016  .text.VL53L0X_SetSpadAmbientDamperThreshold:00000078 $d
C:\Users\PCHAUT~1\AppData\Local\Temp\ccZvjaUR.s:10021  .text.VL53L0X_GetSpadAmbientDamperThreshold:00000000 $t
C:\Users\PCHAUT~1\AppData\Local\Temp\ccZvjaUR.s:10029  .text.VL53L0X_GetSpadAmbientDamperThreshold:00000000 VL53L0X_GetSpadAmbientDamperThreshold
C:\Users\PCHAUT~1\AppData\Local\Temp\ccZvjaUR.s:10094  .text.VL53L0X_GetSpadAmbientDamperThreshold:00000070 $d
C:\Users\PCHAUT~1\AppData\Local\Temp\ccZvjaUR.s:10099  .text.VL53L0X_SetSpadAmbientDamperFactor:00000000 $t
C:\Users\PCHAUT~1\AppData\Local\Temp\ccZvjaUR.s:10107  .text.VL53L0X_SetSpadAmbientDamperFactor:00000000 VL53L0X_SetSpadAmbientDamperFactor
C:\Users\PCHAUT~1\AppData\Local\Temp\ccZvjaUR.s:10177  .text.VL53L0X_SetSpadAmbientDamperFactor:00000080 $d
C:\Users\PCHAUT~1\AppData\Local\Temp\ccZvjaUR.s:10182  .text.VL53L0X_GetSpadAmbientDamperFactor:00000000 $t
C:\Users\PCHAUT~1\AppData\Local\Temp\ccZvjaUR.s:10190  .text.VL53L0X_GetSpadAmbientDamperFactor:00000000 VL53L0X_GetSpadAmbientDamperFactor
C:\Users\PCHAUT~1\AppData\Local\Temp\ccZvjaUR.s:10261  .text.VL53L0X_GetSpadAmbientDamperFactor:0000007c $d
C:\Users\PCHAUT~1\AppData\Local\Temp\ccZvjaUR.s:10266  .text.VL53L0X_SetReferenceSpads:00000000 $t
C:\Users\PCHAUT~1\AppData\Local\Temp\ccZvjaUR.s:10274  .text.VL53L0X_SetReferenceSpads:00000000 VL53L0X_SetReferenceSpads
C:\Users\PCHAUT~1\AppData\Local\Temp\ccZvjaUR.s:10322  .text.VL53L0X_SetReferenceSpads:00000048 $d
C:\Users\PCHAUT~1\AppData\Local\Temp\ccZvjaUR.s:10327  .text.VL53L0X_GetReferenceSpads:00000000 $t
C:\Users\PCHAUT~1\AppData\Local\Temp\ccZvjaUR.s:10335  .text.VL53L0X_GetReferenceSpads:00000000 VL53L0X_GetReferenceSpads
C:\Users\PCHAUT~1\AppData\Local\Temp\ccZvjaUR.s:10381  .text.VL53L0X_GetReferenceSpads:00000040 $d
C:\Users\PCHAUT~1\AppData\Local\Temp\ccZvjaUR.s:10386  .text.VL53L0X_PerformRefSpadManagement:00000000 $t
C:\Users\PCHAUT~1\AppData\Local\Temp\ccZvjaUR.s:10394  .text.VL53L0X_PerformRefSpadManagement:00000000 VL53L0X_PerformRefSpadManagement
C:\Users\PCHAUT~1\AppData\Local\Temp\ccZvjaUR.s:10440  .text.VL53L0X_PerformRefSpadManagement:00000040 $d

UNDEFINED SYMBOLS
__stack_chk_fail
__stack_chk_guard
VL53L0X_RdByte
VL53L0X_get_device_info
VL53L0X_get_device_error_string
VL53L0X_get_range_status_string
VL53L0X_get_pal_error_string
VL53L0X_get_pal_state_string
VL53L0X_WrByte
VL53L0X_set_offset_calibration_data_micro_meter
VL53L0X_get_offset_calibration_data_micro_meter
VL53L0X_WrWord
VL53L0X_get_total_signal_rate
memset
VL53L0X_get_info_from_device
VL53L0X_perform_ref_spad_management
VL53L0X_set_reference_spads
ARM GAS  C:\Users\PCHAUT~1\AppData\Local\Temp\ccZvjaUR.s 			page 366


VL53L0X_load_tuning_settings
VL53L0X_RdWord
get_sequence_step_timeout
VL53L0X_PollingDelay
VL53L0X_set_measurement_timing_budget_micro_seconds
VL53L0X_get_measurement_timing_budget_micro_seconds
VL53L0X_set_vcsel_pulse_period
VL53L0X_get_vcsel_pulse_period
VL53L0X_get_sequence_steps_info
set_sequence_step_timeout
VL53L0X_WrDWord
VL53L0X_RdDWord
VL53L0X_set_ref_calibration
VL53L0X_get_ref_calibration
VL53L0X_get_limit_check_info
VL53L0X_UpdateByte
VL53L0X_measurement_poll_for_completion
VL53L0X_perform_ref_calibration
VL53L0X_perform_xtalk_calibration
VL53L0X_perform_offset_calibration
VL53L0X_ReadMulti
VL53L0X_get_pal_range_status
VL53L0X_get_reference_spads
