ARM GAS  C:\Users\PCHAUT~1\AppData\Local\Temp\ccYc6BCi.s 			page 1


   1              		.cpu cortex-m4
   2              		.eabi_attribute 27, 1
   3              		.eabi_attribute 28, 1
   4              		.eabi_attribute 20, 1
   5              		.eabi_attribute 21, 1
   6              		.eabi_attribute 23, 3
   7              		.eabi_attribute 24, 1
   8              		.eabi_attribute 25, 1
   9              		.eabi_attribute 26, 1
  10              		.eabi_attribute 30, 6
  11              		.eabi_attribute 34, 1
  12              		.eabi_attribute 18, 4
  13              		.file	"vl53l0x_api_calibration.c"
  14              		.text
  15              	.Ltext0:
  16              		.cfi_sections	.debug_frame
  17              		.global	refArrayQuadrants
  18              		.section	.data.refArrayQuadrants,"aw",%progbits
  19              		.align	2
  20              		.type	refArrayQuadrants, %object
  21              		.size	refArrayQuadrants, 16
  22              	refArrayQuadrants:
  23 0000 0A000000 		.word	10
  24 0004 05000000 		.word	5
  25 0008 00000000 		.word	0
  26 000c 05000000 		.word	5
  27              		.section	.text.VL53L0X_perform_xtalk_calibration,"ax",%progbits
  28              		.align	1
  29              		.p2align 4,,15
  30              		.global	VL53L0X_perform_xtalk_calibration
  31              		.syntax unified
  32              		.thumb
  33              		.thumb_func
  34              		.fpu fpv4-sp-d16
  35              		.type	VL53L0X_perform_xtalk_calibration, %function
  36              	VL53L0X_perform_xtalk_calibration:
  37              	.LFB3:
  38              		.file 1 "../lib/e-puck2_main-processor/src/sensors/VL53L0X/Api/core/src/vl53l0x_api_calibration.c"
  39              		.loc 1 54 0
  40              		.cfi_startproc
  41              		@ args = 0, pretend = 0, frame = 96
  42              		@ frame_needed = 0, uses_anonymous_args = 0
  43 0000 00B5     		push	{lr}
  44              		.cfi_def_cfa_offset 4
  45              		.cfi_offset 14, -4
  46 0002 99B0     		sub	sp, sp, #100
  47              		.cfi_def_cfa_offset 104
  48 0004 0390     		str	r0, [sp, #12]
  49 0006 0291     		str	r1, [sp, #8]
  50 0008 0192     		str	r2, [sp, #4]
  51              		.loc 1 54 0
  52 000a 744B     		ldr	r3, .L19
  53 000c 1B68     		ldr	r3, [r3]
  54 000e 1793     		str	r3, [sp, #92]
  55              		.loc 1 55 0
  56 0010 0023     		movs	r3, #0
  57 0012 8DF81630 		strb	r3, [sp, #22]
ARM GAS  C:\Users\PCHAUT~1\AppData\Local\Temp\ccYc6BCi.s 			page 2


  58              		.loc 1 56 0
  59 0016 0023     		movs	r3, #0
  60 0018 ADF81830 		strh	r3, [sp, #24]	@ movhi
  61              		.loc 1 57 0
  62 001c 0023     		movs	r3, #0
  63 001e ADF81A30 		strh	r3, [sp, #26]	@ movhi
  64              		.loc 1 58 0
  65 0022 0023     		movs	r3, #0
  66 0024 0793     		str	r3, [sp, #28]
  67              		.loc 1 59 0
  68 0026 0023     		movs	r3, #0
  69 0028 0893     		str	r3, [sp, #32]
  70              		.loc 1 60 0
  71 002a 0023     		movs	r3, #0
  72 002c 8DF81730 		strb	r3, [sp, #23]
  73              		.loc 1 70 0
  74 0030 029B     		ldr	r3, [sp, #8]
  75 0032 002B     		cmp	r3, #0
  76 0034 02D1     		bne	.L2
  77              		.loc 1 71 0
  78 0036 FC23     		movs	r3, #252
  79 0038 8DF81630 		strb	r3, [sp, #22]
  80              	.L2:
  81              		.loc 1 74 0
  82 003c 9DF91630 		ldrsb	r3, [sp, #22]
  83 0040 002B     		cmp	r3, #0
  84 0042 06D1     		bne	.L3
  85              		.loc 1 75 0
  86 0044 0021     		movs	r1, #0
  87 0046 0398     		ldr	r0, [sp, #12]
  88 0048 FFF7FEFF 		bl	VL53L0X_SetXTalkCompensationEnable
  89 004c 0346     		mov	r3, r0
  90 004e 8DF81630 		strb	r3, [sp, #22]
  91              	.L3:
  92              		.loc 1 78 0
  93 0052 9DF91630 		ldrsb	r3, [sp, #22]
  94 0056 002B     		cmp	r3, #0
  95 0058 07D1     		bne	.L4
  96              		.loc 1 79 0
  97 005a 0022     		movs	r2, #0
  98 005c 0321     		movs	r1, #3
  99 005e 0398     		ldr	r0, [sp, #12]
 100 0060 FFF7FEFF 		bl	VL53L0X_SetLimitCheckEnable
 101 0064 0346     		mov	r3, r0
 102 0066 8DF81630 		strb	r3, [sp, #22]
 103              	.L4:
 104              		.loc 1 84 0
 105 006a 9DF91630 		ldrsb	r3, [sp, #22]
 106 006e 002B     		cmp	r3, #0
 107 0070 45D1     		bne	.L5
 108              		.loc 1 85 0
 109 0072 0023     		movs	r3, #0
 110 0074 ADF81830 		strh	r3, [sp, #24]	@ movhi
 111              		.loc 1 86 0
 112 0078 0023     		movs	r3, #0
 113 007a ADF81A30 		strh	r3, [sp, #26]	@ movhi
 114              		.loc 1 87 0
ARM GAS  C:\Users\PCHAUT~1\AppData\Local\Temp\ccYc6BCi.s 			page 3


 115 007e 0023     		movs	r3, #0
 116 0080 0793     		str	r3, [sp, #28]
 117              		.loc 1 88 0
 118 0082 0023     		movs	r3, #0
 119 0084 0893     		str	r3, [sp, #32]
 120              		.loc 1 89 0
 121 0086 0023     		movs	r3, #0
 122 0088 8DF81730 		strb	r3, [sp, #23]
 123 008c 2BE0     		b	.L6
 124              	.L10:
 125              		.loc 1 90 0
 126 008e 10AB     		add	r3, sp, #64
 127 0090 1946     		mov	r1, r3
 128 0092 0398     		ldr	r0, [sp, #12]
 129 0094 FFF7FEFF 		bl	VL53L0X_PerformSingleRangingMeasurement
 130 0098 0346     		mov	r3, r0
 131 009a 8DF81630 		strb	r3, [sp, #22]
 132              		.loc 1 93 0
 133 009e 9DF91630 		ldrsb	r3, [sp, #22]
 134 00a2 002B     		cmp	r3, #0
 135 00a4 24D1     		bne	.L18
 136              		.loc 1 97 0
 137 00a6 9DF85830 		ldrb	r3, [sp, #88]	@ zero_extendqisi2
 138 00aa 002B     		cmp	r3, #0
 139 00ac 16D1     		bne	.L9
 140              		.loc 1 99 0
 141 00ae BDF84820 		ldrh	r2, [sp, #72]
 142              		.loc 1 98 0
 143 00b2 BDF81830 		ldrh	r3, [sp, #24]	@ movhi
 144 00b6 1344     		add	r3, r3, r2
 145 00b8 ADF81830 		strh	r3, [sp, #24]	@ movhi
 146              		.loc 1 101 0
 147 00bc 139B     		ldr	r3, [sp, #76]
 148              		.loc 1 100 0
 149 00be 079A     		ldr	r2, [sp, #28]
 150 00c0 1344     		add	r3, r3, r2
 151 00c2 0793     		str	r3, [sp, #28]
 152              		.loc 1 103 0
 153 00c4 BDF85430 		ldrh	r3, [sp, #84]
 154              		.loc 1 102 0
 155 00c8 1B0A     		lsrs	r3, r3, #8
 156 00ca 9AB2     		uxth	r2, r3
 157 00cc BDF81A30 		ldrh	r3, [sp, #26]	@ movhi
 158 00d0 1344     		add	r3, r3, r2
 159 00d2 ADF81A30 		strh	r3, [sp, #26]	@ movhi
 160              		.loc 1 105 0
 161 00d6 089B     		ldr	r3, [sp, #32]
 162 00d8 0133     		adds	r3, r3, #1
 163 00da 0893     		str	r3, [sp, #32]
 164              	.L9:
 165              		.loc 1 89 0 discriminator 2
 166 00dc 9DF81730 		ldrb	r3, [sp, #23]	@ zero_extendqisi2
 167 00e0 0133     		adds	r3, r3, #1
 168 00e2 8DF81730 		strb	r3, [sp, #23]
 169              	.L6:
 170              		.loc 1 89 0 is_stmt 0 discriminator 1
 171 00e6 9DF81730 		ldrb	r3, [sp, #23]	@ zero_extendqisi2
ARM GAS  C:\Users\PCHAUT~1\AppData\Local\Temp\ccYc6BCi.s 			page 4


 172 00ea 312B     		cmp	r3, #49
 173 00ec CFD9     		bls	.L10
 174 00ee 00E0     		b	.L8
 175              	.L18:
 176              		.loc 1 94 0 is_stmt 1
 177 00f0 00BF     		nop
 178              	.L8:
 179              		.loc 1 110 0
 180 00f2 089B     		ldr	r3, [sp, #32]
 181 00f4 002B     		cmp	r3, #0
 182 00f6 02D1     		bne	.L5
 183              		.loc 1 111 0
 184 00f8 FA23     		movs	r3, #250
 185 00fa 8DF81630 		strb	r3, [sp, #22]
 186              	.L5:
 187              		.loc 1 116 0
 188 00fe 9DF91630 		ldrsb	r3, [sp, #22]
 189 0102 002B     		cmp	r3, #0
 190 0104 5DD1     		bne	.L11
 191              		.loc 1 118 0
 192 0106 079A     		ldr	r2, [sp, #28]
 193 0108 089B     		ldr	r3, [sp, #32]
 194 010a B2FBF3F3 		udiv	r3, r2, r3
 195 010e 0A93     		str	r3, [sp, #40]
 196              		.loc 1 120 0
 197 0110 BDF81830 		ldrh	r3, [sp, #24]
 198 0114 1B04     		lsls	r3, r3, #16
 199              		.loc 1 119 0
 200 0116 1A46     		mov	r2, r3
 201 0118 089B     		ldr	r3, [sp, #32]
 202 011a B2FBF3F3 		udiv	r3, r2, r3
 203 011e 0B93     		str	r3, [sp, #44]
 204              		.loc 1 122 0
 205 0120 BDF81A30 		ldrh	r3, [sp, #26]
 206 0124 1B04     		lsls	r3, r3, #16
 207              		.loc 1 121 0
 208 0126 1A46     		mov	r2, r3
 209 0128 089B     		ldr	r3, [sp, #32]
 210 012a B2FBF3F3 		udiv	r3, r2, r3
 211 012e 0C93     		str	r3, [sp, #48]
 212              		.loc 1 135 0
 213 0130 0C9B     		ldr	r3, [sp, #48]
 214 0132 03F50043 		add	r3, r3, #32768
 215 0136 1B0C     		lsrs	r3, r3, #16
 216 0138 0D93     		str	r3, [sp, #52]
 217              		.loc 1 141 0
 218 013a 029B     		ldr	r3, [sp, #8]
 219 013c 03F50043 		add	r3, r3, #32768
 220 0140 1B0C     		lsrs	r3, r3, #16
 221 0142 0E93     		str	r3, [sp, #56]
 222              		.loc 1 143 0
 223 0144 0D9B     		ldr	r3, [sp, #52]
 224 0146 002B     		cmp	r3, #0
 225 0148 06D0     		beq	.L12
 226              		.loc 1 143 0 is_stmt 0 discriminator 1
 227 014a 0E9B     		ldr	r3, [sp, #56]
 228 014c 002B     		cmp	r3, #0
ARM GAS  C:\Users\PCHAUT~1\AppData\Local\Temp\ccYc6BCi.s 			page 5


 229 014e 03D0     		beq	.L12
 230              		.loc 1 144 0 is_stmt 1
 231 0150 0B9A     		ldr	r2, [sp, #44]
 232 0152 029B     		ldr	r3, [sp, #8]
 233 0154 9A42     		cmp	r2, r3
 234 0156 02D3     		bcc	.L13
 235              	.L12:
 236              		.loc 1 146 0
 237 0158 0023     		movs	r3, #0
 238 015a 0993     		str	r3, [sp, #36]
 239 015c 18E0     		b	.L14
 240              	.L13:
 241              		.loc 1 151 0
 242 015e 029B     		ldr	r3, [sp, #8]
 243 0160 03F50043 		add	r3, r3, #32768
 244 0164 1B0C     		lsrs	r3, r3, #16
 245 0166 0E93     		str	r3, [sp, #56]
 246              		.loc 1 158 0
 247 0168 0A9A     		ldr	r2, [sp, #40]
 248 016a 0D9B     		ldr	r3, [sp, #52]
 249 016c B2FBF3F3 		udiv	r3, r2, r3
 250 0170 0F93     		str	r3, [sp, #60]
 251              		.loc 1 167 0
 252 0172 0B9A     		ldr	r2, [sp, #44]
 253 0174 0E9B     		ldr	r3, [sp, #56]
 254 0176 B2FBF3F3 		udiv	r3, r2, r3
 255              		.loc 1 166 0
 256 017a C3F58032 		rsb	r2, r3, #65536
 257 017e 0F9B     		ldr	r3, [sp, #60]
 258 0180 02FB03F3 		mul	r3, r2, r3
 259 0184 0F93     		str	r3, [sp, #60]
 260              		.loc 1 171 0
 261 0186 0F9B     		ldr	r3, [sp, #60]
 262 0188 03F50043 		add	r3, r3, #32768
 263              		.loc 1 170 0
 264 018c 1B0C     		lsrs	r3, r3, #16
 265 018e 0993     		str	r3, [sp, #36]
 266              	.L14:
 267              		.loc 1 174 0
 268 0190 019B     		ldr	r3, [sp, #4]
 269 0192 099A     		ldr	r2, [sp, #36]
 270 0194 1A60     		str	r2, [r3]
 271              		.loc 1 177 0
 272 0196 9DF91630 		ldrsb	r3, [sp, #22]
 273 019a 002B     		cmp	r3, #0
 274 019c 06D1     		bne	.L15
 275              		.loc 1 178 0
 276 019e 0121     		movs	r1, #1
 277 01a0 0398     		ldr	r0, [sp, #12]
 278 01a2 FFF7FEFF 		bl	VL53L0X_SetXTalkCompensationEnable
 279 01a6 0346     		mov	r3, r0
 280 01a8 8DF81630 		strb	r3, [sp, #22]
 281              	.L15:
 282              		.loc 1 181 0
 283 01ac 9DF91630 		ldrsb	r3, [sp, #22]
 284 01b0 002B     		cmp	r3, #0
 285 01b2 06D1     		bne	.L11
ARM GAS  C:\Users\PCHAUT~1\AppData\Local\Temp\ccYc6BCi.s 			page 6


 286              		.loc 1 182 0
 287 01b4 0999     		ldr	r1, [sp, #36]
 288 01b6 0398     		ldr	r0, [sp, #12]
 289 01b8 FFF7FEFF 		bl	VL53L0X_SetXTalkCompensationRateMegaCps
 290 01bc 0346     		mov	r3, r0
 291 01be 8DF81630 		strb	r3, [sp, #22]
 292              	.L11:
 293              		.loc 1 187 0
 294 01c2 9DF91630 		ldrsb	r3, [sp, #22]
 295              		.loc 1 188 0
 296 01c6 1846     		mov	r0, r3
 297 01c8 044B     		ldr	r3, .L19
 298 01ca 179A     		ldr	r2, [sp, #92]
 299 01cc 1B68     		ldr	r3, [r3]
 300 01ce 9A42     		cmp	r2, r3
 301 01d0 01D0     		beq	.L17
 302 01d2 FFF7FEFF 		bl	__stack_chk_fail
 303              	.L17:
 304 01d6 19B0     		add	sp, sp, #100
 305              		.cfi_def_cfa_offset 4
 306              		@ sp needed
 307 01d8 5DF804FB 		ldr	pc, [sp], #4
 308              	.L20:
 309              		.align	2
 310              	.L19:
 311 01dc 00000000 		.word	__stack_chk_guard
 312              		.cfi_endproc
 313              	.LFE3:
 314              		.size	VL53L0X_perform_xtalk_calibration, .-VL53L0X_perform_xtalk_calibration
 315              		.section	.text.VL53L0X_perform_offset_calibration,"ax",%progbits
 316              		.align	1
 317              		.p2align 4,,15
 318              		.global	VL53L0X_perform_offset_calibration
 319              		.syntax unified
 320              		.thumb
 321              		.thumb_func
 322              		.fpu fpv4-sp-d16
 323              		.type	VL53L0X_perform_offset_calibration, %function
 324              	VL53L0X_perform_offset_calibration:
 325              	.LFB4:
 326              		.loc 1 193 0
 327              		.cfi_startproc
 328              		@ args = 0, pretend = 0, frame = 72
 329              		@ frame_needed = 0, uses_anonymous_args = 0
 330 0000 00B5     		push	{lr}
 331              		.cfi_def_cfa_offset 4
 332              		.cfi_offset 14, -4
 333 0002 93B0     		sub	sp, sp, #76
 334              		.cfi_def_cfa_offset 80
 335 0004 0390     		str	r0, [sp, #12]
 336 0006 0291     		str	r1, [sp, #8]
 337 0008 0192     		str	r2, [sp, #4]
 338              		.loc 1 193 0
 339 000a 624B     		ldr	r3, .L38
 340 000c 1B68     		ldr	r3, [r3]
 341 000e 1193     		str	r3, [sp, #68]
 342              		.loc 1 194 0
ARM GAS  C:\Users\PCHAUT~1\AppData\Local\Temp\ccYc6BCi.s 			page 7


 343 0010 0023     		movs	r3, #0
 344 0012 8DF81130 		strb	r3, [sp, #17]
 345              		.loc 1 195 0
 346 0016 0023     		movs	r3, #0
 347 0018 ADF81230 		strh	r3, [sp, #18]	@ movhi
 348              		.loc 1 196 0
 349 001c 0023     		movs	r3, #0
 350 001e 0593     		str	r3, [sp, #20]
 351              		.loc 1 202 0
 352 0020 0023     		movs	r3, #0
 353 0022 0693     		str	r3, [sp, #24]
 354              		.loc 1 204 0
 355 0024 029B     		ldr	r3, [sp, #8]
 356 0026 002B     		cmp	r3, #0
 357 0028 02D1     		bne	.L22
 358              		.loc 1 205 0
 359 002a FC23     		movs	r3, #252
 360 002c 8DF81130 		strb	r3, [sp, #17]
 361              	.L22:
 362              		.loc 1 207 0
 363 0030 9DF91130 		ldrsb	r3, [sp, #17]
 364 0034 002B     		cmp	r3, #0
 365 0036 06D1     		bne	.L23
 366              		.loc 1 208 0
 367 0038 0021     		movs	r1, #0
 368 003a 0398     		ldr	r0, [sp, #12]
 369 003c FFF7FEFF 		bl	VL53L0X_SetOffsetCalibrationDataMicroMeter
 370 0040 0346     		mov	r3, r0
 371 0042 8DF81130 		strb	r3, [sp, #17]
 372              	.L23:
 373              		.loc 1 212 0
 374 0046 9DF91130 		ldrsb	r3, [sp, #17]
 375 004a 002B     		cmp	r3, #0
 376 004c 08D1     		bne	.L24
 377              		.loc 1 213 0
 378 004e 04AB     		add	r3, sp, #16
 379 0050 1A46     		mov	r2, r3
 380 0052 0021     		movs	r1, #0
 381 0054 0398     		ldr	r0, [sp, #12]
 382 0056 FFF7FEFF 		bl	VL53L0X_GetSequenceStepEnable
 383 005a 0346     		mov	r3, r0
 384 005c 8DF81130 		strb	r3, [sp, #17]
 385              	.L24:
 386              		.loc 1 218 0
 387 0060 9DF91130 		ldrsb	r3, [sp, #17]
 388 0064 002B     		cmp	r3, #0
 389 0066 07D1     		bne	.L25
 390              		.loc 1 219 0
 391 0068 0022     		movs	r2, #0
 392 006a 0021     		movs	r1, #0
 393 006c 0398     		ldr	r0, [sp, #12]
 394 006e FFF7FEFF 		bl	VL53L0X_SetSequenceStepEnable
 395 0072 0346     		mov	r3, r0
 396 0074 8DF81130 		strb	r3, [sp, #17]
 397              	.L25:
 398              		.loc 1 224 0
 399 0078 9DF91130 		ldrsb	r3, [sp, #17]
ARM GAS  C:\Users\PCHAUT~1\AppData\Local\Temp\ccYc6BCi.s 			page 8


 400 007c 002B     		cmp	r3, #0
 401 007e 07D1     		bne	.L26
 402              		.loc 1 225 0
 403 0080 0022     		movs	r2, #0
 404 0082 0321     		movs	r1, #3
 405 0084 0398     		ldr	r0, [sp, #12]
 406 0086 FFF7FEFF 		bl	VL53L0X_SetLimitCheckEnable
 407 008a 0346     		mov	r3, r0
 408 008c 8DF81130 		strb	r3, [sp, #17]
 409              	.L26:
 410              		.loc 1 229 0
 411 0090 9DF91130 		ldrsb	r3, [sp, #17]
 412 0094 002B     		cmp	r3, #0
 413 0096 2FD1     		bne	.L27
 414              		.loc 1 230 0
 415 0098 0023     		movs	r3, #0
 416 009a ADF81230 		strh	r3, [sp, #18]	@ movhi
 417              		.loc 1 231 0
 418 009e 0023     		movs	r3, #0
 419 00a0 0593     		str	r3, [sp, #20]
 420              		.loc 1 232 0
 421 00a2 0023     		movs	r3, #0
 422 00a4 0693     		str	r3, [sp, #24]
 423 00a6 1CE0     		b	.L28
 424              	.L32:
 425              		.loc 1 233 0
 426 00a8 0AAB     		add	r3, sp, #40
 427 00aa 1946     		mov	r1, r3
 428 00ac 0398     		ldr	r0, [sp, #12]
 429 00ae FFF7FEFF 		bl	VL53L0X_PerformSingleRangingMeasurement
 430 00b2 0346     		mov	r3, r0
 431 00b4 8DF81130 		strb	r3, [sp, #17]
 432              		.loc 1 236 0
 433 00b8 9DF91130 		ldrsb	r3, [sp, #17]
 434 00bc 002B     		cmp	r3, #0
 435 00be 14D1     		bne	.L37
 436              		.loc 1 240 0
 437 00c0 9DF84030 		ldrb	r3, [sp, #64]	@ zero_extendqisi2
 438 00c4 002B     		cmp	r3, #0
 439 00c6 09D1     		bne	.L31
 440              		.loc 1 242 0
 441 00c8 BDF83020 		ldrh	r2, [sp, #48]
 442              		.loc 1 241 0
 443 00cc BDF81230 		ldrh	r3, [sp, #18]	@ movhi
 444 00d0 1344     		add	r3, r3, r2
 445 00d2 ADF81230 		strh	r3, [sp, #18]	@ movhi
 446              		.loc 1 243 0
 447 00d6 059B     		ldr	r3, [sp, #20]
 448 00d8 0133     		adds	r3, r3, #1
 449 00da 0593     		str	r3, [sp, #20]
 450              	.L31:
 451              		.loc 1 232 0 discriminator 2
 452 00dc 069B     		ldr	r3, [sp, #24]
 453 00de 0133     		adds	r3, r3, #1
 454 00e0 0693     		str	r3, [sp, #24]
 455              	.L28:
 456              		.loc 1 232 0 is_stmt 0 discriminator 1
ARM GAS  C:\Users\PCHAUT~1\AppData\Local\Temp\ccYc6BCi.s 			page 9


 457 00e2 069B     		ldr	r3, [sp, #24]
 458 00e4 312B     		cmp	r3, #49
 459 00e6 DFDD     		ble	.L32
 460 00e8 00E0     		b	.L30
 461              	.L37:
 462              		.loc 1 237 0 is_stmt 1
 463 00ea 00BF     		nop
 464              	.L30:
 465              		.loc 1 248 0
 466 00ec 059B     		ldr	r3, [sp, #20]
 467 00ee 002B     		cmp	r3, #0
 468 00f0 02D1     		bne	.L27
 469              		.loc 1 249 0
 470 00f2 FA23     		movs	r3, #250
 471 00f4 8DF81130 		strb	r3, [sp, #17]
 472              	.L27:
 473              		.loc 1 253 0
 474 00f8 9DF91130 		ldrsb	r3, [sp, #17]
 475 00fc 002B     		cmp	r3, #0
 476 00fe 2CD1     		bne	.L33
 477              		.loc 1 255 0
 478 0100 BDF81230 		ldrh	r3, [sp, #18]
 479 0104 1B04     		lsls	r3, r3, #16
 480 0106 1A46     		mov	r2, r3
 481 0108 059B     		ldr	r3, [sp, #20]
 482 010a B2FBF3F3 		udiv	r3, r2, r3
 483 010e 0793     		str	r3, [sp, #28]
 484              		.loc 1 258 0
 485 0110 079B     		ldr	r3, [sp, #28]
 486 0112 03F50043 		add	r3, r3, #32768
 487 0116 1B0C     		lsrs	r3, r3, #16
 488 0118 0893     		str	r3, [sp, #32]
 489              		.loc 1 263 0
 490 011a 029B     		ldr	r3, [sp, #8]
 491 011c 03F50043 		add	r3, r3, #32768
 492 0120 1B0C     		lsrs	r3, r3, #16
 493 0122 0993     		str	r3, [sp, #36]
 494              		.loc 1 265 0
 495 0124 099A     		ldr	r2, [sp, #36]
 496 0126 089B     		ldr	r3, [sp, #32]
 497 0128 D31A     		subs	r3, r2, r3
 498              		.loc 1 266 0
 499 012a 4FF47A72 		mov	r2, #1000
 500 012e 02FB03F3 		mul	r3, r2, r3
 501 0132 1A46     		mov	r2, r3
 502              		.loc 1 265 0
 503 0134 019B     		ldr	r3, [sp, #4]
 504 0136 1A60     		str	r2, [r3]
 505              		.loc 1 269 0
 506 0138 9DF91130 		ldrsb	r3, [sp, #17]
 507 013c 002B     		cmp	r3, #0
 508 013e 0CD1     		bne	.L33
 509              		.loc 1 270 0
 510 0140 019B     		ldr	r3, [sp, #4]
 511 0142 1A68     		ldr	r2, [r3]
 512 0144 039B     		ldr	r3, [sp, #12]
 513 0146 5A62     		str	r2, [r3, #36]
ARM GAS  C:\Users\PCHAUT~1\AppData\Local\Temp\ccYc6BCi.s 			page 10


 514              		.loc 1 272 0
 515 0148 019B     		ldr	r3, [sp, #4]
 516 014a 1B68     		ldr	r3, [r3]
 517 014c 1946     		mov	r1, r3
 518 014e 0398     		ldr	r0, [sp, #12]
 519 0150 FFF7FEFF 		bl	VL53L0X_SetOffsetCalibrationDataMicroMeter
 520 0154 0346     		mov	r3, r0
 521 0156 8DF81130 		strb	r3, [sp, #17]
 522              	.L33:
 523              		.loc 1 279 0
 524 015a 9DF91130 		ldrsb	r3, [sp, #17]
 525 015e 002B     		cmp	r3, #0
 526 0160 0BD1     		bne	.L34
 527              		.loc 1 280 0
 528 0162 9DF81030 		ldrb	r3, [sp, #16]	@ zero_extendqisi2
 529 0166 002B     		cmp	r3, #0
 530 0168 07D0     		beq	.L34
 531              		.loc 1 281 0
 532 016a 0122     		movs	r2, #1
 533 016c 0021     		movs	r1, #0
 534 016e 0398     		ldr	r0, [sp, #12]
 535 0170 FFF7FEFF 		bl	VL53L0X_SetSequenceStepEnable
 536 0174 0346     		mov	r3, r0
 537 0176 8DF81130 		strb	r3, [sp, #17]
 538              	.L34:
 539              		.loc 1 285 0
 540 017a 9DF91130 		ldrsb	r3, [sp, #17]
 541              		.loc 1 286 0
 542 017e 1846     		mov	r0, r3
 543 0180 044B     		ldr	r3, .L38
 544 0182 119A     		ldr	r2, [sp, #68]
 545 0184 1B68     		ldr	r3, [r3]
 546 0186 9A42     		cmp	r2, r3
 547 0188 01D0     		beq	.L36
 548 018a FFF7FEFF 		bl	__stack_chk_fail
 549              	.L36:
 550 018e 13B0     		add	sp, sp, #76
 551              		.cfi_def_cfa_offset 4
 552              		@ sp needed
 553 0190 5DF804FB 		ldr	pc, [sp], #4
 554              	.L39:
 555              		.align	2
 556              	.L38:
 557 0194 00000000 		.word	__stack_chk_guard
 558              		.cfi_endproc
 559              	.LFE4:
 560              		.size	VL53L0X_perform_offset_calibration, .-VL53L0X_perform_offset_calibration
 561              		.section	.text.VL53L0X_set_offset_calibration_data_micro_meter,"ax",%progbits
 562              		.align	1
 563              		.p2align 4,,15
 564              		.global	VL53L0X_set_offset_calibration_data_micro_meter
 565              		.syntax unified
 566              		.thumb
 567              		.thumb_func
 568              		.fpu fpv4-sp-d16
 569              		.type	VL53L0X_set_offset_calibration_data_micro_meter, %function
 570              	VL53L0X_set_offset_calibration_data_micro_meter:
ARM GAS  C:\Users\PCHAUT~1\AppData\Local\Temp\ccYc6BCi.s 			page 11


 571              	.LFB5:
 572              		.loc 1 291 0
 573              		.cfi_startproc
 574              		@ args = 0, pretend = 0, frame = 32
 575              		@ frame_needed = 0, uses_anonymous_args = 0
 576 0000 00B5     		push	{lr}
 577              		.cfi_def_cfa_offset 4
 578              		.cfi_offset 14, -4
 579 0002 89B0     		sub	sp, sp, #36
 580              		.cfi_def_cfa_offset 40
 581 0004 0190     		str	r0, [sp, #4]
 582 0006 0091     		str	r1, [sp]
 583              		.loc 1 291 0
 584 0008 244B     		ldr	r3, .L47
 585 000a 1B68     		ldr	r3, [r3]
 586 000c 0793     		str	r3, [sp, #28]
 587              		.loc 1 292 0
 588 000e 0023     		movs	r3, #0
 589 0010 8DF80D30 		strb	r3, [sp, #13]
 590              		.loc 1 293 0
 591 0014 224B     		ldr	r3, .L47+4
 592 0016 0593     		str	r3, [sp, #20]
 593              		.loc 1 294 0
 594 0018 224B     		ldr	r3, .L47+8
 595 001a 0693     		str	r3, [sp, #24]
 596              		.loc 1 295 0
 597 001c 4FF48053 		mov	r3, #4096
 598 0020 ADF80E30 		strh	r3, [sp, #14]	@ movhi
 599              		.loc 1 300 0
 600 0024 009A     		ldr	r2, [sp]
 601 0026 059B     		ldr	r3, [sp, #20]
 602 0028 9A42     		cmp	r2, r3
 603 002a 02DD     		ble	.L41
 604              		.loc 1 301 0
 605 002c 059B     		ldr	r3, [sp, #20]
 606 002e 0093     		str	r3, [sp]
 607 0030 05E0     		b	.L42
 608              	.L41:
 609              		.loc 1 302 0
 610 0032 009A     		ldr	r2, [sp]
 611 0034 069B     		ldr	r3, [sp, #24]
 612 0036 9A42     		cmp	r2, r3
 613 0038 01DA     		bge	.L42
 614              		.loc 1 303 0
 615 003a 069B     		ldr	r3, [sp, #24]
 616 003c 0093     		str	r3, [sp]
 617              	.L42:
 618              		.loc 1 309 0
 619 003e 009B     		ldr	r3, [sp]
 620 0040 002B     		cmp	r3, #0
 621 0042 08DB     		blt	.L43
 622              		.loc 1 311 0
 623 0044 009B     		ldr	r3, [sp]
 624 0046 184A     		ldr	r2, .L47+12
 625 0048 82FB0312 		smull	r1, r2, r2, r3
 626 004c 1211     		asrs	r2, r2, #4
 627 004e DB17     		asrs	r3, r3, #31
ARM GAS  C:\Users\PCHAUT~1\AppData\Local\Temp\ccYc6BCi.s 			page 12


 628 0050 D31A     		subs	r3, r2, r3
 629              		.loc 1 310 0
 630 0052 0493     		str	r3, [sp, #16]
 631 0054 0AE0     		b	.L44
 632              	.L43:
 633              		.loc 1 314 0
 634 0056 BDF90E20 		ldrsh	r2, [sp, #14]
 635              		.loc 1 315 0
 636 005a 009B     		ldr	r3, [sp]
 637 005c 1249     		ldr	r1, .L47+12
 638 005e 81FB0301 		smull	r0, r1, r1, r3
 639 0062 0911     		asrs	r1, r1, #4
 640 0064 DB17     		asrs	r3, r3, #31
 641 0066 CB1A     		subs	r3, r1, r3
 642              		.loc 1 314 0
 643 0068 1344     		add	r3, r3, r2
 644              		.loc 1 313 0
 645 006a 0493     		str	r3, [sp, #16]
 646              	.L44:
 647              		.loc 1 318 0
 648 006c 049B     		ldr	r3, [sp, #16]
 649 006e 9BB2     		uxth	r3, r3
 650 0070 1A46     		mov	r2, r3
 651 0072 2821     		movs	r1, #40
 652 0074 0198     		ldr	r0, [sp, #4]
 653 0076 FFF7FEFF 		bl	VL53L0X_WrWord
 654 007a 0346     		mov	r3, r0
 655 007c 8DF80D30 		strb	r3, [sp, #13]
 656              		.loc 1 323 0
 657 0080 9DF90D30 		ldrsb	r3, [sp, #13]
 658              		.loc 1 324 0
 659 0084 1846     		mov	r0, r3
 660 0086 054B     		ldr	r3, .L47
 661 0088 079A     		ldr	r2, [sp, #28]
 662 008a 1B68     		ldr	r3, [r3]
 663 008c 9A42     		cmp	r2, r3
 664 008e 01D0     		beq	.L46
 665 0090 FFF7FEFF 		bl	__stack_chk_fail
 666              	.L46:
 667 0094 09B0     		add	sp, sp, #36
 668              		.cfi_def_cfa_offset 4
 669              		@ sp needed
 670 0096 5DF804FB 		ldr	pc, [sp], #4
 671              	.L48:
 672 009a 00BF     		.align	2
 673              	.L47:
 674 009c 00000000 		.word	__stack_chk_guard
 675 00a0 18CC0700 		.word	511000
 676 00a4 0030F8FF 		.word	-512000
 677 00a8 D34D6210 		.word	274877907
 678              		.cfi_endproc
 679              	.LFE5:
 680              		.size	VL53L0X_set_offset_calibration_data_micro_meter, .-VL53L0X_set_offset_calibration_data_micro
 681              		.section	.text.VL53L0X_get_offset_calibration_data_micro_meter,"ax",%progbits
 682              		.align	1
 683              		.p2align 4,,15
 684              		.global	VL53L0X_get_offset_calibration_data_micro_meter
ARM GAS  C:\Users\PCHAUT~1\AppData\Local\Temp\ccYc6BCi.s 			page 13


 685              		.syntax unified
 686              		.thumb
 687              		.thumb_func
 688              		.fpu fpv4-sp-d16
 689              		.type	VL53L0X_get_offset_calibration_data_micro_meter, %function
 690              	VL53L0X_get_offset_calibration_data_micro_meter:
 691              	.LFB6:
 692              		.loc 1 328 0
 693              		.cfi_startproc
 694              		@ args = 0, pretend = 0, frame = 24
 695              		@ frame_needed = 0, uses_anonymous_args = 0
 696 0000 00B5     		push	{lr}
 697              		.cfi_def_cfa_offset 4
 698              		.cfi_offset 14, -4
 699 0002 87B0     		sub	sp, sp, #28
 700              		.cfi_def_cfa_offset 32
 701 0004 0190     		str	r0, [sp, #4]
 702 0006 0091     		str	r1, [sp]
 703              		.loc 1 328 0
 704 0008 264B     		ldr	r3, .L54
 705 000a 1B68     		ldr	r3, [r3]
 706 000c 0593     		str	r3, [sp, #20]
 707              		.loc 1 329 0
 708 000e 0023     		movs	r3, #0
 709 0010 8DF80D30 		strb	r3, [sp, #13]
 710              		.loc 1 331 0
 711 0014 40F2FF73 		movw	r3, #2047
 712 0018 ADF81030 		strh	r3, [sp, #16]	@ movhi
 713              		.loc 1 332 0
 714 001c 4FF48053 		mov	r3, #4096
 715 0020 ADF81230 		strh	r3, [sp, #18]	@ movhi
 716              		.loc 1 336 0
 717 0024 0DF10E03 		add	r3, sp, #14
 718 0028 1A46     		mov	r2, r3
 719 002a 2821     		movs	r1, #40
 720 002c 0198     		ldr	r0, [sp, #4]
 721 002e FFF7FEFF 		bl	VL53L0X_RdWord
 722 0032 0346     		mov	r3, r0
 723 0034 8DF80D30 		strb	r3, [sp, #13]
 724              		.loc 1 340 0
 725 0038 9DF90D30 		ldrsb	r3, [sp, #13]
 726 003c 002B     		cmp	r3, #0
 727 003e 24D1     		bne	.L50
 728              		.loc 1 341 0
 729 0040 BDF80E30 		ldrh	r3, [sp, #14]
 730 0044 C3F30B03 		ubfx	r3, r3, #0, #12
 731 0048 9BB2     		uxth	r3, r3
 732 004a ADF80E30 		strh	r3, [sp, #14]	@ movhi
 733              		.loc 1 344 0
 734 004e BDF80E30 		ldrh	r3, [sp, #14]
 735 0052 1A46     		mov	r2, r3
 736 0054 BDF91030 		ldrsh	r3, [sp, #16]
 737 0058 9A42     		cmp	r2, r3
 738 005a 0DDD     		ble	.L51
 739              		.loc 1 346 0
 740 005c BDF80E20 		ldrh	r2, [sp, #14]
 741 0060 BDF81230 		ldrh	r3, [sp, #18]
ARM GAS  C:\Users\PCHAUT~1\AppData\Local\Temp\ccYc6BCi.s 			page 14


 742 0064 D31A     		subs	r3, r2, r3
 743 0066 9BB2     		uxth	r3, r3
 744 0068 1BB2     		sxth	r3, r3
 745 006a 1A46     		mov	r2, r3
 746              		.loc 1 347 0
 747 006c FA23     		movs	r3, #250
 748 006e 03FB02F2 		mul	r2, r3, r2
 749              		.loc 1 345 0
 750 0072 009B     		ldr	r3, [sp]
 751 0074 1A60     		str	r2, [r3]
 752 0076 08E0     		b	.L50
 753              	.L51:
 754              		.loc 1 350 0
 755 0078 BDF80E30 		ldrh	r3, [sp, #14]
 756 007c 1BB2     		sxth	r3, r3
 757 007e 1A46     		mov	r2, r3
 758 0080 FA23     		movs	r3, #250
 759 0082 03FB02F2 		mul	r2, r3, r2
 760              		.loc 1 349 0
 761 0086 009B     		ldr	r3, [sp]
 762 0088 1A60     		str	r2, [r3]
 763              	.L50:
 764              		.loc 1 354 0
 765 008a 9DF90D30 		ldrsb	r3, [sp, #13]
 766              		.loc 1 355 0
 767 008e 1846     		mov	r0, r3
 768 0090 044B     		ldr	r3, .L54
 769 0092 059A     		ldr	r2, [sp, #20]
 770 0094 1B68     		ldr	r3, [r3]
 771 0096 9A42     		cmp	r2, r3
 772 0098 01D0     		beq	.L53
 773 009a FFF7FEFF 		bl	__stack_chk_fail
 774              	.L53:
 775 009e 07B0     		add	sp, sp, #28
 776              		.cfi_def_cfa_offset 4
 777              		@ sp needed
 778 00a0 5DF804FB 		ldr	pc, [sp], #4
 779              	.L55:
 780              		.align	2
 781              	.L54:
 782 00a4 00000000 		.word	__stack_chk_guard
 783              		.cfi_endproc
 784              	.LFE6:
 785              		.size	VL53L0X_get_offset_calibration_data_micro_meter, .-VL53L0X_get_offset_calibration_data_micro
 786              		.section	.text.VL53L0X_apply_offset_adjustment,"ax",%progbits
 787              		.align	1
 788              		.p2align 4,,15
 789              		.global	VL53L0X_apply_offset_adjustment
 790              		.syntax unified
 791              		.thumb
 792              		.thumb_func
 793              		.fpu fpv4-sp-d16
 794              		.type	VL53L0X_apply_offset_adjustment, %function
 795              	VL53L0X_apply_offset_adjustment:
 796              	.LFB7:
 797              		.loc 1 359 0
 798              		.cfi_startproc
ARM GAS  C:\Users\PCHAUT~1\AppData\Local\Temp\ccYc6BCi.s 			page 15


 799              		@ args = 0, pretend = 0, frame = 24
 800              		@ frame_needed = 0, uses_anonymous_args = 0
 801 0000 00B5     		push	{lr}
 802              		.cfi_def_cfa_offset 4
 803              		.cfi_offset 14, -4
 804 0002 87B0     		sub	sp, sp, #28
 805              		.cfi_def_cfa_offset 32
 806 0004 0190     		str	r0, [sp, #4]
 807              		.loc 1 359 0
 808 0006 204B     		ldr	r3, .L61
 809 0008 1B68     		ldr	r3, [r3]
 810 000a 0593     		str	r3, [sp, #20]
 811              		.loc 1 360 0
 812 000c 0023     		movs	r3, #0
 813 000e 8DF80B30 		strb	r3, [sp, #11]
 814              		.loc 1 366 0
 815 0012 0721     		movs	r1, #7
 816 0014 0198     		ldr	r0, [sp, #4]
 817 0016 FFF7FEFF 		bl	VL53L0X_get_info_from_device
 818 001a 0346     		mov	r3, r0
 819 001c 8DF80B30 		strb	r3, [sp, #11]
 820              		.loc 1 369 0
 821 0020 9DF90B30 		ldrsb	r3, [sp, #11]
 822 0024 002B     		cmp	r3, #0
 823 0026 07D1     		bne	.L57
 824              		.loc 1 370 0
 825 0028 03AB     		add	r3, sp, #12
 826 002a 1946     		mov	r1, r3
 827 002c 0198     		ldr	r0, [sp, #4]
 828 002e FFF7FEFF 		bl	VL53L0X_GetOffsetCalibrationDataMicroMeter
 829 0032 0346     		mov	r3, r0
 830 0034 8DF80B30 		strb	r3, [sp, #11]
 831              	.L57:
 832              		.loc 1 375 0
 833 0038 9DF90B30 		ldrsb	r3, [sp, #11]
 834 003c 002B     		cmp	r3, #0
 835 003e 15D1     		bne	.L58
 836              		.loc 1 378 0
 837 0040 039A     		ldr	r2, [sp, #12]
 838 0042 019B     		ldr	r3, [sp, #4]
 839 0044 9A60     		str	r2, [r3, #8]
 840              		.loc 1 382 0
 841 0046 019B     		ldr	r3, [sp, #4]
 842 0048 DA68     		ldr	r2, [r3, #12]
 843              		.loc 1 381 0
 844 004a 039B     		ldr	r3, [sp, #12]
 845 004c 1344     		add	r3, r3, r2
 846 004e 0493     		str	r3, [sp, #16]
 847              		.loc 1 385 0
 848 0050 0499     		ldr	r1, [sp, #16]
 849 0052 0198     		ldr	r0, [sp, #4]
 850 0054 FFF7FEFF 		bl	VL53L0X_SetOffsetCalibrationDataMicroMeter
 851 0058 0346     		mov	r3, r0
 852 005a 8DF80B30 		strb	r3, [sp, #11]
 853              		.loc 1 389 0
 854 005e 9DF90B30 		ldrsb	r3, [sp, #11]
 855 0062 002B     		cmp	r3, #0
ARM GAS  C:\Users\PCHAUT~1\AppData\Local\Temp\ccYc6BCi.s 			page 16


 856 0064 02D1     		bne	.L58
 857              		.loc 1 390 0
 858 0066 019B     		ldr	r3, [sp, #4]
 859 0068 049A     		ldr	r2, [sp, #16]
 860 006a 5A62     		str	r2, [r3, #36]
 861              	.L58:
 862              		.loc 1 395 0
 863 006c 9DF90B30 		ldrsb	r3, [sp, #11]
 864              		.loc 1 396 0
 865 0070 1846     		mov	r0, r3
 866 0072 054B     		ldr	r3, .L61
 867 0074 059A     		ldr	r2, [sp, #20]
 868 0076 1B68     		ldr	r3, [r3]
 869 0078 9A42     		cmp	r2, r3
 870 007a 01D0     		beq	.L60
 871 007c FFF7FEFF 		bl	__stack_chk_fail
 872              	.L60:
 873 0080 07B0     		add	sp, sp, #28
 874              		.cfi_def_cfa_offset 4
 875              		@ sp needed
 876 0082 5DF804FB 		ldr	pc, [sp], #4
 877              	.L62:
 878 0086 00BF     		.align	2
 879              	.L61:
 880 0088 00000000 		.word	__stack_chk_guard
 881              		.cfi_endproc
 882              	.LFE7:
 883              		.size	VL53L0X_apply_offset_adjustment, .-VL53L0X_apply_offset_adjustment
 884              		.section	.text.get_next_good_spad,"ax",%progbits
 885              		.align	1
 886              		.p2align 4,,15
 887              		.global	get_next_good_spad
 888              		.syntax unified
 889              		.thumb
 890              		.thumb_func
 891              		.fpu fpv4-sp-d16
 892              		.type	get_next_good_spad, %function
 893              	get_next_good_spad:
 894              	.LFB8:
 895              		.loc 1 400 0
 896              		.cfi_startproc
 897              		@ args = 0, pretend = 0, frame = 48
 898              		@ frame_needed = 0, uses_anonymous_args = 0
 899 0000 00B5     		push	{lr}
 900              		.cfi_def_cfa_offset 4
 901              		.cfi_offset 14, -4
 902 0002 8DB0     		sub	sp, sp, #52
 903              		.cfi_def_cfa_offset 56
 904 0004 0390     		str	r0, [sp, #12]
 905 0006 0291     		str	r1, [sp, #8]
 906 0008 0192     		str	r2, [sp, #4]
 907 000a 0093     		str	r3, [sp]
 908              		.loc 1 400 0
 909 000c 334B     		ldr	r3, .L74
 910 000e 1B68     		ldr	r3, [r3]
 911 0010 0B93     		str	r3, [sp, #44]
 912              		.loc 1 403 0
ARM GAS  C:\Users\PCHAUT~1\AppData\Local\Temp\ccYc6BCi.s 			page 17


 913 0012 0823     		movs	r3, #8
 914 0014 0893     		str	r3, [sp, #32]
 915              		.loc 1 407 0
 916 0016 0023     		movs	r3, #0
 917 0018 8DF81730 		strb	r3, [sp, #23]
 918              		.loc 1 417 0
 919 001c 009B     		ldr	r3, [sp]
 920 001e 4FF0FF32 		mov	r2, #-1
 921 0022 1A60     		str	r2, [r3]
 922              		.loc 1 419 0
 923 0024 019A     		ldr	r2, [sp, #4]
 924 0026 089B     		ldr	r3, [sp, #32]
 925 0028 B2FBF3F3 		udiv	r3, r2, r3
 926 002c 0993     		str	r3, [sp, #36]
 927              		.loc 1 420 0
 928 002e 019B     		ldr	r3, [sp, #4]
 929 0030 089A     		ldr	r2, [sp, #32]
 930 0032 B3FBF2F2 		udiv	r2, r3, r2
 931 0036 0899     		ldr	r1, [sp, #32]
 932 0038 01FB02F2 		mul	r2, r1, r2
 933 003c 9B1A     		subs	r3, r3, r2
 934 003e 0A93     		str	r3, [sp, #40]
 935              		.loc 1 422 0
 936 0040 099B     		ldr	r3, [sp, #36]
 937 0042 0693     		str	r3, [sp, #24]
 938 0044 37E0     		b	.L64
 939              	.L71:
 940              		.loc 1 424 0
 941 0046 0023     		movs	r3, #0
 942 0048 0793     		str	r3, [sp, #28]
 943              		.loc 1 425 0
 944 004a 039A     		ldr	r2, [sp, #12]
 945 004c 069B     		ldr	r3, [sp, #24]
 946 004e 1344     		add	r3, r3, r2
 947 0050 1B78     		ldrb	r3, [r3]
 948 0052 8DF81630 		strb	r3, [sp, #22]
 949              		.loc 1 427 0
 950 0056 069A     		ldr	r2, [sp, #24]
 951 0058 099B     		ldr	r3, [sp, #36]
 952 005a 9A42     		cmp	r2, r3
 953 005c 24D1     		bne	.L66
 954              		.loc 1 430 0
 955 005e 9DF81620 		ldrb	r2, [sp, #22]	@ zero_extendqisi2
 956 0062 0A9B     		ldr	r3, [sp, #40]
 957 0064 42FA03F3 		asr	r3, r2, r3
 958 0068 8DF81630 		strb	r3, [sp, #22]
 959              		.loc 1 431 0
 960 006c 0A9B     		ldr	r3, [sp, #40]
 961 006e 0793     		str	r3, [sp, #28]
 962              		.loc 1 434 0
 963 0070 1AE0     		b	.L66
 964              	.L69:
 965              		.loc 1 435 0
 966 0072 9DF81630 		ldrb	r3, [sp, #22]	@ zero_extendqisi2
 967 0076 03F00103 		and	r3, r3, #1
 968 007a 002B     		cmp	r3, #0
 969 007c 0CD0     		beq	.L67
ARM GAS  C:\Users\PCHAUT~1\AppData\Local\Temp\ccYc6BCi.s 			page 18


 970              		.loc 1 436 0
 971 007e 0123     		movs	r3, #1
 972 0080 8DF81730 		strb	r3, [sp, #23]
 973              		.loc 1 437 0
 974 0084 069B     		ldr	r3, [sp, #24]
 975 0086 089A     		ldr	r2, [sp, #32]
 976 0088 02FB03F2 		mul	r2, r2, r3
 977 008c 079B     		ldr	r3, [sp, #28]
 978 008e 1344     		add	r3, r3, r2
 979 0090 1A46     		mov	r2, r3
 980 0092 009B     		ldr	r3, [sp]
 981 0094 1A60     		str	r2, [r3]
 982              		.loc 1 438 0
 983 0096 0BE0     		b	.L68
 984              	.L67:
 985              		.loc 1 440 0
 986 0098 9DF81630 		ldrb	r3, [sp, #22]	@ zero_extendqisi2
 987 009c 5B08     		lsrs	r3, r3, #1
 988 009e 8DF81630 		strb	r3, [sp, #22]
 989              		.loc 1 441 0
 990 00a2 079B     		ldr	r3, [sp, #28]
 991 00a4 0133     		adds	r3, r3, #1
 992 00a6 0793     		str	r3, [sp, #28]
 993              	.L66:
 994              		.loc 1 434 0
 995 00a8 079A     		ldr	r2, [sp, #28]
 996 00aa 089B     		ldr	r3, [sp, #32]
 997 00ac 9A42     		cmp	r2, r3
 998 00ae E0D3     		bcc	.L69
 999              	.L68:
 1000              		.loc 1 423 0
 1001 00b0 069B     		ldr	r3, [sp, #24]
 1002 00b2 0133     		adds	r3, r3, #1
 1003 00b4 0693     		str	r3, [sp, #24]
 1004              	.L64:
 1005              		.loc 1 422 0 discriminator 1
 1006 00b6 069A     		ldr	r2, [sp, #24]
 1007 00b8 029B     		ldr	r3, [sp, #8]
 1008 00ba 9A42     		cmp	r2, r3
 1009 00bc 03D2     		bcs	.L73
 1010              		.loc 1 422 0 is_stmt 0 discriminator 2
 1011 00be 9DF81730 		ldrb	r3, [sp, #23]	@ zero_extendqisi2
 1012 00c2 002B     		cmp	r3, #0
 1013 00c4 BFD0     		beq	.L71
 1014              	.L73:
 1015              		.loc 1 444 0 is_stmt 1
 1016 00c6 00BF     		nop
 1017 00c8 044B     		ldr	r3, .L74
 1018 00ca 0B9A     		ldr	r2, [sp, #44]
 1019 00cc 1B68     		ldr	r3, [r3]
 1020 00ce 9A42     		cmp	r2, r3
 1021 00d0 01D0     		beq	.L72
 1022 00d2 FFF7FEFF 		bl	__stack_chk_fail
 1023              	.L72:
 1024 00d6 0DB0     		add	sp, sp, #52
 1025              		.cfi_def_cfa_offset 4
 1026              		@ sp needed
ARM GAS  C:\Users\PCHAUT~1\AppData\Local\Temp\ccYc6BCi.s 			page 19


 1027 00d8 5DF804FB 		ldr	pc, [sp], #4
 1028              	.L75:
 1029              		.align	2
 1030              	.L74:
 1031 00dc 00000000 		.word	__stack_chk_guard
 1032              		.cfi_endproc
 1033              	.LFE8:
 1034              		.size	get_next_good_spad, .-get_next_good_spad
 1035              		.section	.text.is_aperture,"ax",%progbits
 1036              		.align	1
 1037              		.p2align 4,,15
 1038              		.global	is_aperture
 1039              		.syntax unified
 1040              		.thumb
 1041              		.thumb_func
 1042              		.fpu fpv4-sp-d16
 1043              		.type	is_aperture, %function
 1044              	is_aperture:
 1045              	.LFB9:
 1046              		.loc 1 448 0
 1047              		.cfi_startproc
 1048              		@ args = 0, pretend = 0, frame = 24
 1049              		@ frame_needed = 0, uses_anonymous_args = 0
 1050 0000 00B5     		push	{lr}
 1051              		.cfi_def_cfa_offset 4
 1052              		.cfi_offset 14, -4
 1053 0002 87B0     		sub	sp, sp, #28
 1054              		.cfi_def_cfa_offset 32
 1055 0004 0190     		str	r0, [sp, #4]
 1056              		.loc 1 448 0
 1057 0006 0F4B     		ldr	r3, .L80
 1058 0008 1B68     		ldr	r3, [r3]
 1059 000a 0593     		str	r3, [sp, #20]
 1060              		.loc 1 454 0
 1061 000c 0123     		movs	r3, #1
 1062 000e 8DF80F30 		strb	r3, [sp, #15]
 1063              		.loc 1 455 0
 1064 0012 019B     		ldr	r3, [sp, #4]
 1065 0014 9B09     		lsrs	r3, r3, #6
 1066 0016 0493     		str	r3, [sp, #16]
 1067              		.loc 1 456 0
 1068 0018 0B4A     		ldr	r2, .L80+4
 1069 001a 049B     		ldr	r3, [sp, #16]
 1070 001c 52F82330 		ldr	r3, [r2, r3, lsl #2]
 1071 0020 002B     		cmp	r3, #0
 1072 0022 02D1     		bne	.L77
 1073              		.loc 1 457 0
 1074 0024 0023     		movs	r3, #0
 1075 0026 8DF80F30 		strb	r3, [sp, #15]
 1076              	.L77:
 1077              		.loc 1 459 0
 1078 002a 9DF80F30 		ldrb	r3, [sp, #15]	@ zero_extendqisi2
 1079              		.loc 1 460 0
 1080 002e 1846     		mov	r0, r3
 1081 0030 044B     		ldr	r3, .L80
 1082 0032 059A     		ldr	r2, [sp, #20]
 1083 0034 1B68     		ldr	r3, [r3]
ARM GAS  C:\Users\PCHAUT~1\AppData\Local\Temp\ccYc6BCi.s 			page 20


 1084 0036 9A42     		cmp	r2, r3
 1085 0038 01D0     		beq	.L79
 1086 003a FFF7FEFF 		bl	__stack_chk_fail
 1087              	.L79:
 1088 003e 07B0     		add	sp, sp, #28
 1089              		.cfi_def_cfa_offset 4
 1090              		@ sp needed
 1091 0040 5DF804FB 		ldr	pc, [sp], #4
 1092              	.L81:
 1093              		.align	2
 1094              	.L80:
 1095 0044 00000000 		.word	__stack_chk_guard
 1096 0048 00000000 		.word	refArrayQuadrants
 1097              		.cfi_endproc
 1098              	.LFE9:
 1099              		.size	is_aperture, .-is_aperture
 1100              		.section	.text.enable_spad_bit,"ax",%progbits
 1101              		.align	1
 1102              		.p2align 4,,15
 1103              		.global	enable_spad_bit
 1104              		.syntax unified
 1105              		.thumb
 1106              		.thumb_func
 1107              		.fpu fpv4-sp-d16
 1108              		.type	enable_spad_bit, %function
 1109              	enable_spad_bit:
 1110              	.LFB10:
 1111              		.loc 1 465 0
 1112              		.cfi_startproc
 1113              		@ args = 0, pretend = 0, frame = 40
 1114              		@ frame_needed = 0, uses_anonymous_args = 0
 1115 0000 00B5     		push	{lr}
 1116              		.cfi_def_cfa_offset 4
 1117              		.cfi_offset 14, -4
 1118 0002 8BB0     		sub	sp, sp, #44
 1119              		.cfi_def_cfa_offset 48
 1120 0004 0390     		str	r0, [sp, #12]
 1121 0006 0291     		str	r1, [sp, #8]
 1122 0008 0192     		str	r2, [sp, #4]
 1123              		.loc 1 465 0
 1124 000a 1E4B     		ldr	r3, .L87
 1125 000c 1B68     		ldr	r3, [r3]
 1126 000e 0993     		str	r3, [sp, #36]
 1127              		.loc 1 466 0
 1128 0010 0023     		movs	r3, #0
 1129 0012 8DF81730 		strb	r3, [sp, #23]
 1130              		.loc 1 467 0
 1131 0016 0823     		movs	r3, #8
 1132 0018 0693     		str	r3, [sp, #24]
 1133              		.loc 1 471 0
 1134 001a 019A     		ldr	r2, [sp, #4]
 1135 001c 069B     		ldr	r3, [sp, #24]
 1136 001e B2FBF3F3 		udiv	r3, r2, r3
 1137 0022 0793     		str	r3, [sp, #28]
 1138              		.loc 1 472 0
 1139 0024 019B     		ldr	r3, [sp, #4]
 1140 0026 069A     		ldr	r2, [sp, #24]
ARM GAS  C:\Users\PCHAUT~1\AppData\Local\Temp\ccYc6BCi.s 			page 21


 1141 0028 B3FBF2F2 		udiv	r2, r3, r2
 1142 002c 0699     		ldr	r1, [sp, #24]
 1143 002e 01FB02F2 		mul	r2, r1, r2
 1144 0032 9B1A     		subs	r3, r3, r2
 1145 0034 0893     		str	r3, [sp, #32]
 1146              		.loc 1 473 0
 1147 0036 079A     		ldr	r2, [sp, #28]
 1148 0038 029B     		ldr	r3, [sp, #8]
 1149 003a 9A42     		cmp	r2, r3
 1150 003c 03D3     		bcc	.L83
 1151              		.loc 1 474 0
 1152 003e CE23     		movs	r3, #206
 1153 0040 8DF81730 		strb	r3, [sp, #23]
 1154 0044 10E0     		b	.L84
 1155              	.L83:
 1156              		.loc 1 476 0
 1157 0046 039A     		ldr	r2, [sp, #12]
 1158 0048 079B     		ldr	r3, [sp, #28]
 1159 004a 1344     		add	r3, r3, r2
 1160 004c 1B78     		ldrb	r3, [r3]	@ zero_extendqisi2
 1161 004e 5AB2     		sxtb	r2, r3
 1162 0050 0121     		movs	r1, #1
 1163 0052 089B     		ldr	r3, [sp, #32]
 1164 0054 01FA03F3 		lsl	r3, r1, r3
 1165 0058 5BB2     		sxtb	r3, r3
 1166 005a 1343     		orrs	r3, r3, r2
 1167 005c 59B2     		sxtb	r1, r3
 1168 005e 039A     		ldr	r2, [sp, #12]
 1169 0060 079B     		ldr	r3, [sp, #28]
 1170 0062 1344     		add	r3, r3, r2
 1171 0064 CAB2     		uxtb	r2, r1
 1172 0066 1A70     		strb	r2, [r3]
 1173              	.L84:
 1174              		.loc 1 478 0
 1175 0068 9DF91730 		ldrsb	r3, [sp, #23]
 1176              		.loc 1 479 0
 1177 006c 1846     		mov	r0, r3
 1178 006e 054B     		ldr	r3, .L87
 1179 0070 099A     		ldr	r2, [sp, #36]
 1180 0072 1B68     		ldr	r3, [r3]
 1181 0074 9A42     		cmp	r2, r3
 1182 0076 01D0     		beq	.L86
 1183 0078 FFF7FEFF 		bl	__stack_chk_fail
 1184              	.L86:
 1185 007c 0BB0     		add	sp, sp, #44
 1186              		.cfi_def_cfa_offset 4
 1187              		@ sp needed
 1188 007e 5DF804FB 		ldr	pc, [sp], #4
 1189              	.L88:
 1190 0082 00BF     		.align	2
 1191              	.L87:
 1192 0084 00000000 		.word	__stack_chk_guard
 1193              		.cfi_endproc
 1194              	.LFE10:
 1195              		.size	enable_spad_bit, .-enable_spad_bit
 1196              		.section	.text.count_enabled_spads,"ax",%progbits
 1197              		.align	1
ARM GAS  C:\Users\PCHAUT~1\AppData\Local\Temp\ccYc6BCi.s 			page 22


 1198              		.p2align 4,,15
 1199              		.global	count_enabled_spads
 1200              		.syntax unified
 1201              		.thumb
 1202              		.thumb_func
 1203              		.fpu fpv4-sp-d16
 1204              		.type	count_enabled_spads, %function
 1205              	count_enabled_spads:
 1206              	.LFB11:
 1207              		.loc 1 484 0
 1208              		.cfi_startproc
 1209              		@ args = 4, pretend = 0, frame = 56
 1210              		@ frame_needed = 0, uses_anonymous_args = 0
 1211 0000 00B5     		push	{lr}
 1212              		.cfi_def_cfa_offset 4
 1213              		.cfi_offset 14, -4
 1214 0002 8FB0     		sub	sp, sp, #60
 1215              		.cfi_def_cfa_offset 64
 1216 0004 0590     		str	r0, [sp, #20]
 1217 0006 0491     		str	r1, [sp, #16]
 1218 0008 0392     		str	r2, [sp, #12]
 1219 000a 0293     		str	r3, [sp, #8]
 1220 000c 109B     		ldr	r3, [sp, #64]
 1221 000e 0193     		str	r3, [sp, #4]
 1222              		.loc 1 484 0
 1223 0010 464B     		ldr	r3, .L102
 1224 0012 1B68     		ldr	r3, [r3]
 1225 0014 0D93     		str	r3, [sp, #52]
 1226              		.loc 1 485 0
 1227 0016 0023     		movs	r3, #0
 1228 0018 8DF81D30 		strb	r3, [sp, #29]
 1229              		.loc 1 486 0
 1230 001c 0823     		movs	r3, #8
 1231 001e 0A93     		str	r3, [sp, #40]
 1232              		.loc 1 489 0
 1233 0020 0023     		movs	r3, #0
 1234 0022 0893     		str	r3, [sp, #32]
 1235              		.loc 1 490 0
 1236 0024 0023     		movs	r3, #0
 1237 0026 0993     		str	r3, [sp, #36]
 1238              		.loc 1 492 0
 1239 0028 0023     		movs	r3, #0
 1240 002a 8DF81F30 		strb	r3, [sp, #31]
 1241              		.loc 1 498 0
 1242 002e 039A     		ldr	r2, [sp, #12]
 1243 0030 0A9B     		ldr	r3, [sp, #40]
 1244 0032 B2FBF3F3 		udiv	r3, r2, r3
 1245 0036 0B93     		str	r3, [sp, #44]
 1246              		.loc 1 499 0
 1247 0038 039B     		ldr	r3, [sp, #12]
 1248 003a 0A9A     		ldr	r2, [sp, #40]
 1249 003c B3FBF2F2 		udiv	r2, r3, r2
 1250 0040 0A99     		ldr	r1, [sp, #40]
 1251 0042 01FB02F2 		mul	r2, r1, r2
 1252 0046 9B1A     		subs	r3, r3, r2
 1253 0048 0C93     		str	r3, [sp, #48]
 1254              		.loc 1 502 0
ARM GAS  C:\Users\PCHAUT~1\AppData\Local\Temp\ccYc6BCi.s 			page 23


 1255 004a 0B9A     		ldr	r2, [sp, #44]
 1256 004c 049B     		ldr	r3, [sp, #16]
 1257 004e 9A42     		cmp	r2, r3
 1258 0050 02D3     		bcc	.L90
 1259              		.loc 1 503 0
 1260 0052 CE23     		movs	r3, #206
 1261 0054 8DF81D30 		strb	r3, [sp, #29]
 1262              	.L90:
 1263              		.loc 1 505 0
 1264 0058 029B     		ldr	r3, [sp, #8]
 1265 005a 0022     		movs	r2, #0
 1266 005c 1A60     		str	r2, [r3]
 1267              		.loc 1 508 0
 1268 005e 0023     		movs	r3, #0
 1269 0060 0893     		str	r3, [sp, #32]
 1270 0062 35E0     		b	.L91
 1271              	.L96:
 1272              		.loc 1 509 0
 1273 0064 059A     		ldr	r2, [sp, #20]
 1274 0066 089B     		ldr	r3, [sp, #32]
 1275 0068 1344     		add	r3, r3, r2
 1276 006a 1B78     		ldrb	r3, [r3]
 1277 006c 8DF81E30 		strb	r3, [sp, #30]
 1278              		.loc 1 511 0
 1279 0070 0023     		movs	r3, #0
 1280 0072 0993     		str	r3, [sp, #36]
 1281 0074 25E0     		b	.L92
 1282              	.L95:
 1283              		.loc 1 512 0
 1284 0076 9DF81E30 		ldrb	r3, [sp, #30]	@ zero_extendqisi2
 1285 007a 03F00103 		and	r3, r3, #1
 1286 007e 002B     		cmp	r3, #0
 1287 0080 17D0     		beq	.L93
 1288              		.loc 1 513 0
 1289 0082 029B     		ldr	r3, [sp, #8]
 1290 0084 1B68     		ldr	r3, [r3]
 1291 0086 5A1C     		adds	r2, r3, #1
 1292 0088 029B     		ldr	r3, [sp, #8]
 1293 008a 1A60     		str	r2, [r3]
 1294              		.loc 1 515 0
 1295 008c 9DF81F30 		ldrb	r3, [sp, #31]	@ zero_extendqisi2
 1296 0090 002B     		cmp	r3, #0
 1297 0092 0ED1     		bne	.L93
 1298              		.loc 1 516 0
 1299 0094 019B     		ldr	r3, [sp, #4]
 1300 0096 0122     		movs	r2, #1
 1301 0098 1A70     		strb	r2, [r3]
 1302              		.loc 1 517 0
 1303 009a 089B     		ldr	r3, [sp, #32]
 1304 009c 012B     		cmp	r3, #1
 1305 009e 05D8     		bhi	.L94
 1306              		.loc 1 517 0 is_stmt 0 discriminator 1
 1307 00a0 099B     		ldr	r3, [sp, #36]
 1308 00a2 032B     		cmp	r3, #3
 1309 00a4 02D8     		bhi	.L94
 1310              		.loc 1 518 0 is_stmt 1
 1311 00a6 019B     		ldr	r3, [sp, #4]
ARM GAS  C:\Users\PCHAUT~1\AppData\Local\Temp\ccYc6BCi.s 			page 24


 1312 00a8 0022     		movs	r2, #0
 1313 00aa 1A70     		strb	r2, [r3]
 1314              	.L94:
 1315              		.loc 1 519 0
 1316 00ac 0123     		movs	r3, #1
 1317 00ae 8DF81F30 		strb	r3, [sp, #31]
 1318              	.L93:
 1319              		.loc 1 522 0 discriminator 2
 1320 00b2 9DF81E30 		ldrb	r3, [sp, #30]	@ zero_extendqisi2
 1321 00b6 5B08     		lsrs	r3, r3, #1
 1322 00b8 8DF81E30 		strb	r3, [sp, #30]
 1323              		.loc 1 511 0 discriminator 2
 1324 00bc 099B     		ldr	r3, [sp, #36]
 1325 00be 0133     		adds	r3, r3, #1
 1326 00c0 0993     		str	r3, [sp, #36]
 1327              	.L92:
 1328              		.loc 1 511 0 is_stmt 0 discriminator 1
 1329 00c2 099A     		ldr	r2, [sp, #36]
 1330 00c4 0A9B     		ldr	r3, [sp, #40]
 1331 00c6 9A42     		cmp	r2, r3
 1332 00c8 D5D9     		bls	.L95
 1333              		.loc 1 508 0 is_stmt 1 discriminator 2
 1334 00ca 089B     		ldr	r3, [sp, #32]
 1335 00cc 0133     		adds	r3, r3, #1
 1336 00ce 0893     		str	r3, [sp, #32]
 1337              	.L91:
 1338              		.loc 1 508 0 is_stmt 0 discriminator 1
 1339 00d0 0B9B     		ldr	r3, [sp, #44]
 1340 00d2 013B     		subs	r3, r3, #1
 1341 00d4 089A     		ldr	r2, [sp, #32]
 1342 00d6 9A42     		cmp	r2, r3
 1343 00d8 C4D9     		bls	.L96
 1344              		.loc 1 529 0 is_stmt 1
 1345 00da 059A     		ldr	r2, [sp, #20]
 1346 00dc 0B9B     		ldr	r3, [sp, #44]
 1347 00de 1344     		add	r3, r3, r2
 1348 00e0 1B78     		ldrb	r3, [r3]
 1349 00e2 8DF81E30 		strb	r3, [sp, #30]
 1350              		.loc 1 531 0
 1351 00e6 0023     		movs	r3, #0
 1352 00e8 0993     		str	r3, [sp, #36]
 1353 00ea 0DE0     		b	.L97
 1354              	.L99:
 1355              		.loc 1 532 0
 1356 00ec 9DF81E30 		ldrb	r3, [sp, #30]	@ zero_extendqisi2
 1357 00f0 03F00103 		and	r3, r3, #1
 1358 00f4 002B     		cmp	r3, #0
 1359 00f6 04D0     		beq	.L98
 1360              		.loc 1 533 0
 1361 00f8 029B     		ldr	r3, [sp, #8]
 1362 00fa 1B68     		ldr	r3, [r3]
 1363 00fc 5A1C     		adds	r2, r3, #1
 1364 00fe 029B     		ldr	r3, [sp, #8]
 1365 0100 1A60     		str	r2, [r3]
 1366              	.L98:
 1367              		.loc 1 531 0 discriminator 2
 1368 0102 099B     		ldr	r3, [sp, #36]
ARM GAS  C:\Users\PCHAUT~1\AppData\Local\Temp\ccYc6BCi.s 			page 25


 1369 0104 0133     		adds	r3, r3, #1
 1370 0106 0993     		str	r3, [sp, #36]
 1371              	.L97:
 1372              		.loc 1 531 0 is_stmt 0 discriminator 1
 1373 0108 099A     		ldr	r2, [sp, #36]
 1374 010a 0C9B     		ldr	r3, [sp, #48]
 1375 010c 9A42     		cmp	r2, r3
 1376 010e EDD9     		bls	.L99
 1377              		.loc 1 536 0 is_stmt 1
 1378 0110 9DF91D30 		ldrsb	r3, [sp, #29]
 1379              		.loc 1 537 0
 1380 0114 1846     		mov	r0, r3
 1381 0116 054B     		ldr	r3, .L102
 1382 0118 0D9A     		ldr	r2, [sp, #52]
 1383 011a 1B68     		ldr	r3, [r3]
 1384 011c 9A42     		cmp	r2, r3
 1385 011e 01D0     		beq	.L101
 1386 0120 FFF7FEFF 		bl	__stack_chk_fail
 1387              	.L101:
 1388 0124 0FB0     		add	sp, sp, #60
 1389              		.cfi_def_cfa_offset 4
 1390              		@ sp needed
 1391 0126 5DF804FB 		ldr	pc, [sp], #4
 1392              	.L103:
 1393 012a 00BF     		.align	2
 1394              	.L102:
 1395 012c 00000000 		.word	__stack_chk_guard
 1396              		.cfi_endproc
 1397              	.LFE11:
 1398              		.size	count_enabled_spads, .-count_enabled_spads
 1399              		.section	.text.set_ref_spad_map,"ax",%progbits
 1400              		.align	1
 1401              		.p2align 4,,15
 1402              		.global	set_ref_spad_map
 1403              		.syntax unified
 1404              		.thumb
 1405              		.thumb_func
 1406              		.fpu fpv4-sp-d16
 1407              		.type	set_ref_spad_map, %function
 1408              	set_ref_spad_map:
 1409              	.LFB12:
 1410              		.loc 1 540 0
 1411              		.cfi_startproc
 1412              		@ args = 0, pretend = 0, frame = 16
 1413              		@ frame_needed = 0, uses_anonymous_args = 0
 1414 0000 00B5     		push	{lr}
 1415              		.cfi_def_cfa_offset 4
 1416              		.cfi_offset 14, -4
 1417 0002 85B0     		sub	sp, sp, #20
 1418              		.cfi_def_cfa_offset 24
 1419 0004 0190     		str	r0, [sp, #4]
 1420 0006 0091     		str	r1, [sp]
 1421              		.loc 1 540 0
 1422 0008 0C4B     		ldr	r3, .L107
 1423 000a 1B68     		ldr	r3, [r3]
 1424 000c 0393     		str	r3, [sp, #12]
 1425              		.loc 1 541 0
ARM GAS  C:\Users\PCHAUT~1\AppData\Local\Temp\ccYc6BCi.s 			page 26


 1426 000e 0623     		movs	r3, #6
 1427 0010 009A     		ldr	r2, [sp]
 1428 0012 B021     		movs	r1, #176
 1429 0014 0198     		ldr	r0, [sp, #4]
 1430 0016 FFF7FEFF 		bl	VL53L0X_WriteMulti
 1431 001a 0346     		mov	r3, r0
 1432 001c 8DF80B30 		strb	r3, [sp, #11]
 1433              		.loc 1 544 0
 1434 0020 9DF90B30 		ldrsb	r3, [sp, #11]
 1435              		.loc 1 545 0
 1436 0024 1846     		mov	r0, r3
 1437 0026 054B     		ldr	r3, .L107
 1438 0028 039A     		ldr	r2, [sp, #12]
 1439 002a 1B68     		ldr	r3, [r3]
 1440 002c 9A42     		cmp	r2, r3
 1441 002e 01D0     		beq	.L106
 1442 0030 FFF7FEFF 		bl	__stack_chk_fail
 1443              	.L106:
 1444 0034 05B0     		add	sp, sp, #20
 1445              		.cfi_def_cfa_offset 4
 1446              		@ sp needed
 1447 0036 5DF804FB 		ldr	pc, [sp], #4
 1448              	.L108:
 1449 003a 00BF     		.align	2
 1450              	.L107:
 1451 003c 00000000 		.word	__stack_chk_guard
 1452              		.cfi_endproc
 1453              	.LFE12:
 1454              		.size	set_ref_spad_map, .-set_ref_spad_map
 1455              		.section	.text.get_ref_spad_map,"ax",%progbits
 1456              		.align	1
 1457              		.p2align 4,,15
 1458              		.global	get_ref_spad_map
 1459              		.syntax unified
 1460              		.thumb
 1461              		.thumb_func
 1462              		.fpu fpv4-sp-d16
 1463              		.type	get_ref_spad_map, %function
 1464              	get_ref_spad_map:
 1465              	.LFB13:
 1466              		.loc 1 548 0
 1467              		.cfi_startproc
 1468              		@ args = 0, pretend = 0, frame = 16
 1469              		@ frame_needed = 0, uses_anonymous_args = 0
 1470 0000 00B5     		push	{lr}
 1471              		.cfi_def_cfa_offset 4
 1472              		.cfi_offset 14, -4
 1473 0002 85B0     		sub	sp, sp, #20
 1474              		.cfi_def_cfa_offset 24
 1475 0004 0190     		str	r0, [sp, #4]
 1476 0006 0091     		str	r1, [sp]
 1477              		.loc 1 548 0
 1478 0008 0C4B     		ldr	r3, .L112
 1479 000a 1B68     		ldr	r3, [r3]
 1480 000c 0393     		str	r3, [sp, #12]
 1481              		.loc 1 549 0
 1482 000e 0623     		movs	r3, #6
ARM GAS  C:\Users\PCHAUT~1\AppData\Local\Temp\ccYc6BCi.s 			page 27


 1483 0010 009A     		ldr	r2, [sp]
 1484 0012 B021     		movs	r1, #176
 1485 0014 0198     		ldr	r0, [sp, #4]
 1486 0016 FFF7FEFF 		bl	VL53L0X_ReadMulti
 1487 001a 0346     		mov	r3, r0
 1488 001c 8DF80B30 		strb	r3, [sp, #11]
 1489              		.loc 1 553 0
 1490 0020 9DF90B30 		ldrsb	r3, [sp, #11]
 1491              		.loc 1 554 0
 1492 0024 1846     		mov	r0, r3
 1493 0026 054B     		ldr	r3, .L112
 1494 0028 039A     		ldr	r2, [sp, #12]
 1495 002a 1B68     		ldr	r3, [r3]
 1496 002c 9A42     		cmp	r2, r3
 1497 002e 01D0     		beq	.L111
 1498 0030 FFF7FEFF 		bl	__stack_chk_fail
 1499              	.L111:
 1500 0034 05B0     		add	sp, sp, #20
 1501              		.cfi_def_cfa_offset 4
 1502              		@ sp needed
 1503 0036 5DF804FB 		ldr	pc, [sp], #4
 1504              	.L113:
 1505 003a 00BF     		.align	2
 1506              	.L112:
 1507 003c 00000000 		.word	__stack_chk_guard
 1508              		.cfi_endproc
 1509              	.LFE13:
 1510              		.size	get_ref_spad_map, .-get_ref_spad_map
 1511              		.section	.text.enable_ref_spads,"ax",%progbits
 1512              		.align	1
 1513              		.p2align 4,,15
 1514              		.global	enable_ref_spads
 1515              		.syntax unified
 1516              		.thumb
 1517              		.thumb_func
 1518              		.fpu fpv4-sp-d16
 1519              		.type	enable_ref_spads, %function
 1520              	enable_ref_spads:
 1521              	.LFB14:
 1522              		.loc 1 565 0
 1523              		.cfi_startproc
 1524              		@ args = 20, pretend = 0, frame = 72
 1525              		@ frame_needed = 0, uses_anonymous_args = 0
 1526 0000 00B5     		push	{lr}
 1527              		.cfi_def_cfa_offset 4
 1528              		.cfi_offset 14, -4
 1529 0002 93B0     		sub	sp, sp, #76
 1530              		.cfi_def_cfa_offset 80
 1531 0004 0990     		str	r0, [sp, #36]
 1532 0006 0792     		str	r2, [sp, #28]
 1533 0008 0693     		str	r3, [sp, #24]
 1534 000a 0B46     		mov	r3, r1
 1535 000c 8DF82330 		strb	r3, [sp, #35]
 1536 0010 149B     		ldr	r3, [sp, #80]
 1537 0012 0593     		str	r3, [sp, #20]
 1538 0014 159B     		ldr	r3, [sp, #84]
 1539 0016 0493     		str	r3, [sp, #16]
ARM GAS  C:\Users\PCHAUT~1\AppData\Local\Temp\ccYc6BCi.s 			page 28


 1540 0018 169B     		ldr	r3, [sp, #88]
 1541 001a 0393     		str	r3, [sp, #12]
 1542 001c 179B     		ldr	r3, [sp, #92]
 1543 001e 0293     		str	r3, [sp, #8]
 1544 0020 189B     		ldr	r3, [sp, #96]
 1545 0022 0193     		str	r3, [sp, #4]
 1546              		.loc 1 565 0
 1547 0024 3D4B     		ldr	r3, .L127
 1548 0026 1B68     		ldr	r3, [r3]
 1549 0028 1193     		str	r3, [sp, #68]
 1550              		.loc 1 566 0
 1551 002a 0023     		movs	r3, #0
 1552 002c 8DF82B30 		strb	r3, [sp, #43]
 1553              		.loc 1 569 0
 1554 0030 039B     		ldr	r3, [sp, #12]
 1555 0032 0B93     		str	r3, [sp, #44]
 1556              		.loc 1 583 0
 1557 0034 039B     		ldr	r3, [sp, #12]
 1558 0036 0E93     		str	r3, [sp, #56]
 1559              		.loc 1 584 0
 1560 0038 0023     		movs	r3, #0
 1561 003a 0C93     		str	r3, [sp, #48]
 1562 003c 2BE0     		b	.L115
 1563              	.L119:
 1564              		.loc 1 585 0
 1565 003e 0BAB     		add	r3, sp, #44
 1566 0040 0E9A     		ldr	r2, [sp, #56]
 1567 0042 0599     		ldr	r1, [sp, #20]
 1568 0044 0798     		ldr	r0, [sp, #28]
 1569 0046 FFF7FEFF 		bl	get_next_good_spad
 1570              		.loc 1 588 0
 1571 004a 0B9B     		ldr	r3, [sp, #44]
 1572 004c B3F1FF3F 		cmp	r3, #-1
 1573 0050 03D1     		bne	.L116
 1574              		.loc 1 589 0
 1575 0052 CE23     		movs	r3, #206
 1576 0054 8DF82B30 		strb	r3, [sp, #43]
 1577              		.loc 1 590 0
 1578 0058 21E0     		b	.L117
 1579              	.L116:
 1580              		.loc 1 594 0
 1581 005a 0B9B     		ldr	r3, [sp, #44]
 1582 005c 1A46     		mov	r2, r3
 1583 005e 049B     		ldr	r3, [sp, #16]
 1584 0060 1344     		add	r3, r3, r2
 1585 0062 1846     		mov	r0, r3
 1586 0064 FFF7FEFF 		bl	is_aperture
 1587 0068 0346     		mov	r3, r0
 1588 006a 1A46     		mov	r2, r3
 1589 006c 9DF82330 		ldrb	r3, [sp, #35]	@ zero_extendqisi2
 1590 0070 9342     		cmp	r3, r2
 1591 0072 03D0     		beq	.L118
 1592              		.loc 1 598 0
 1593 0074 CE23     		movs	r3, #206
 1594 0076 8DF82B30 		strb	r3, [sp, #43]
 1595              		.loc 1 599 0
 1596 007a 10E0     		b	.L117
ARM GAS  C:\Users\PCHAUT~1\AppData\Local\Temp\ccYc6BCi.s 			page 29


 1597              	.L118:
 1598              		.loc 1 601 0 discriminator 2
 1599 007c 0B9B     		ldr	r3, [sp, #44]
 1600 007e 0E93     		str	r3, [sp, #56]
 1601              		.loc 1 602 0 discriminator 2
 1602 0080 0E9A     		ldr	r2, [sp, #56]
 1603 0082 0599     		ldr	r1, [sp, #20]
 1604 0084 0698     		ldr	r0, [sp, #24]
 1605 0086 FFF7FEFF 		bl	enable_spad_bit
 1606              		.loc 1 603 0 discriminator 2
 1607 008a 0E9B     		ldr	r3, [sp, #56]
 1608 008c 0133     		adds	r3, r3, #1
 1609 008e 0E93     		str	r3, [sp, #56]
 1610              		.loc 1 584 0 discriminator 2
 1611 0090 0C9B     		ldr	r3, [sp, #48]
 1612 0092 0133     		adds	r3, r3, #1
 1613 0094 0C93     		str	r3, [sp, #48]
 1614              	.L115:
 1615              		.loc 1 584 0 is_stmt 0 discriminator 1
 1616 0096 0C9A     		ldr	r2, [sp, #48]
 1617 0098 029B     		ldr	r3, [sp, #8]
 1618 009a 9A42     		cmp	r2, r3
 1619 009c CFD3     		bcc	.L119
 1620              	.L117:
 1621              		.loc 1 605 0 is_stmt 1
 1622 009e 019B     		ldr	r3, [sp, #4]
 1623 00a0 0E9A     		ldr	r2, [sp, #56]
 1624 00a2 1A60     		str	r2, [r3]
 1625              		.loc 1 607 0
 1626 00a4 9DF92B30 		ldrsb	r3, [sp, #43]
 1627 00a8 002B     		cmp	r3, #0
 1628 00aa 06D1     		bne	.L120
 1629              		.loc 1 608 0
 1630 00ac 0699     		ldr	r1, [sp, #24]
 1631 00ae 0998     		ldr	r0, [sp, #36]
 1632 00b0 FFF7FEFF 		bl	set_ref_spad_map
 1633 00b4 0346     		mov	r3, r0
 1634 00b6 8DF82B30 		strb	r3, [sp, #43]
 1635              	.L120:
 1636              		.loc 1 611 0
 1637 00ba 9DF92B30 		ldrsb	r3, [sp, #43]
 1638 00be 002B     		cmp	r3, #0
 1639 00c0 1FD1     		bne	.L121
 1640              		.loc 1 612 0
 1641 00c2 0FAB     		add	r3, sp, #60
 1642 00c4 1946     		mov	r1, r3
 1643 00c6 0998     		ldr	r0, [sp, #36]
 1644 00c8 FFF7FEFF 		bl	get_ref_spad_map
 1645 00cc 0346     		mov	r3, r0
 1646 00ce 8DF82B30 		strb	r3, [sp, #43]
 1647              		.loc 1 614 0
 1648 00d2 0023     		movs	r3, #0
 1649 00d4 0D93     		str	r3, [sp, #52]
 1650              		.loc 1 617 0
 1651 00d6 10E0     		b	.L122
 1652              	.L124:
 1653              		.loc 1 618 0
ARM GAS  C:\Users\PCHAUT~1\AppData\Local\Temp\ccYc6BCi.s 			page 30


 1654 00d8 069A     		ldr	r2, [sp, #24]
 1655 00da 0D9B     		ldr	r3, [sp, #52]
 1656 00dc 1344     		add	r3, r3, r2
 1657 00de 1A78     		ldrb	r2, [r3]	@ zero_extendqisi2
 1658 00e0 0FA9     		add	r1, sp, #60
 1659 00e2 0D9B     		ldr	r3, [sp, #52]
 1660 00e4 0B44     		add	r3, r3, r1
 1661 00e6 1B78     		ldrb	r3, [r3]	@ zero_extendqisi2
 1662 00e8 9A42     		cmp	r2, r3
 1663 00ea 03D0     		beq	.L123
 1664              		.loc 1 619 0
 1665 00ec CE23     		movs	r3, #206
 1666 00ee 8DF82B30 		strb	r3, [sp, #43]
 1667              		.loc 1 620 0
 1668 00f2 06E0     		b	.L121
 1669              	.L123:
 1670              		.loc 1 622 0
 1671 00f4 0D9B     		ldr	r3, [sp, #52]
 1672 00f6 0133     		adds	r3, r3, #1
 1673 00f8 0D93     		str	r3, [sp, #52]
 1674              	.L122:
 1675              		.loc 1 617 0
 1676 00fa 0D9A     		ldr	r2, [sp, #52]
 1677 00fc 059B     		ldr	r3, [sp, #20]
 1678 00fe 9A42     		cmp	r2, r3
 1679 0100 EAD3     		bcc	.L124
 1680              	.L121:
 1681              		.loc 1 625 0
 1682 0102 9DF92B30 		ldrsb	r3, [sp, #43]
 1683              		.loc 1 626 0
 1684 0106 1846     		mov	r0, r3
 1685 0108 044B     		ldr	r3, .L127
 1686 010a 119A     		ldr	r2, [sp, #68]
 1687 010c 1B68     		ldr	r3, [r3]
 1688 010e 9A42     		cmp	r2, r3
 1689 0110 01D0     		beq	.L126
 1690 0112 FFF7FEFF 		bl	__stack_chk_fail
 1691              	.L126:
 1692 0116 13B0     		add	sp, sp, #76
 1693              		.cfi_def_cfa_offset 4
 1694              		@ sp needed
 1695 0118 5DF804FB 		ldr	pc, [sp], #4
 1696              	.L128:
 1697              		.align	2
 1698              	.L127:
 1699 011c 00000000 		.word	__stack_chk_guard
 1700              		.cfi_endproc
 1701              	.LFE14:
 1702              		.size	enable_ref_spads, .-enable_ref_spads
 1703              		.section	.text.perform_ref_signal_measurement,"ax",%progbits
 1704              		.align	1
 1705              		.p2align 4,,15
 1706              		.global	perform_ref_signal_measurement
 1707              		.syntax unified
 1708              		.thumb
 1709              		.thumb_func
 1710              		.fpu fpv4-sp-d16
ARM GAS  C:\Users\PCHAUT~1\AppData\Local\Temp\ccYc6BCi.s 			page 31


 1711              		.type	perform_ref_signal_measurement, %function
 1712              	perform_ref_signal_measurement:
 1713              	.LFB15:
 1714              		.loc 1 631 0
 1715              		.cfi_startproc
 1716              		@ args = 0, pretend = 0, frame = 48
 1717              		@ frame_needed = 0, uses_anonymous_args = 0
 1718 0000 00B5     		push	{lr}
 1719              		.cfi_def_cfa_offset 4
 1720              		.cfi_offset 14, -4
 1721 0002 8DB0     		sub	sp, sp, #52
 1722              		.cfi_def_cfa_offset 56
 1723 0004 0190     		str	r0, [sp, #4]
 1724 0006 0091     		str	r1, [sp]
 1725              		.loc 1 631 0
 1726 0008 364B     		ldr	r3, .L138
 1727 000a 1B68     		ldr	r3, [r3]
 1728 000c 0B93     		str	r3, [sp, #44]
 1729              		.loc 1 632 0
 1730 000e 0023     		movs	r3, #0
 1731 0010 8DF80E30 		strb	r3, [sp, #14]
 1732              		.loc 1 635 0
 1733 0014 0023     		movs	r3, #0
 1734 0016 8DF80F30 		strb	r3, [sp, #15]
 1735              		.loc 1 641 0
 1736 001a 019B     		ldr	r3, [sp, #4]
 1737 001c 93F83031 		ldrb	r3, [r3, #304]
 1738 0020 8DF80F30 		strb	r3, [sp, #15]
 1739              		.loc 1 646 0
 1740 0024 9DF90E30 		ldrsb	r3, [sp, #14]
 1741 0028 002B     		cmp	r3, #0
 1742 002a 07D1     		bne	.L130
 1743              		.loc 1 647 0
 1744 002c C022     		movs	r2, #192
 1745 002e 0121     		movs	r1, #1
 1746 0030 0198     		ldr	r0, [sp, #4]
 1747 0032 FFF7FEFF 		bl	VL53L0X_WrByte
 1748 0036 0346     		mov	r3, r0
 1749 0038 8DF80E30 		strb	r3, [sp, #14]
 1750              	.L130:
 1751              		.loc 1 650 0
 1752 003c 9DF90E30 		ldrsb	r3, [sp, #14]
 1753 0040 002B     		cmp	r3, #0
 1754 0042 07D1     		bne	.L131
 1755              		.loc 1 651 0
 1756 0044 04AB     		add	r3, sp, #16
 1757 0046 1946     		mov	r1, r3
 1758 0048 0198     		ldr	r0, [sp, #4]
 1759 004a FFF7FEFF 		bl	VL53L0X_PerformSingleRangingMeasurement
 1760 004e 0346     		mov	r3, r0
 1761 0050 8DF80E30 		strb	r3, [sp, #14]
 1762              	.L131:
 1763              		.loc 1 654 0
 1764 0054 9DF90E30 		ldrsb	r3, [sp, #14]
 1765 0058 002B     		cmp	r3, #0
 1766 005a 07D1     		bne	.L132
 1767              		.loc 1 655 0
ARM GAS  C:\Users\PCHAUT~1\AppData\Local\Temp\ccYc6BCi.s 			page 32


 1768 005c 0122     		movs	r2, #1
 1769 005e FF21     		movs	r1, #255
 1770 0060 0198     		ldr	r0, [sp, #4]
 1771 0062 FFF7FEFF 		bl	VL53L0X_WrByte
 1772 0066 0346     		mov	r3, r0
 1773 0068 8DF80E30 		strb	r3, [sp, #14]
 1774              	.L132:
 1775              		.loc 1 657 0
 1776 006c 9DF90E30 		ldrsb	r3, [sp, #14]
 1777 0070 002B     		cmp	r3, #0
 1778 0072 07D1     		bne	.L133
 1779              		.loc 1 658 0
 1780 0074 009A     		ldr	r2, [sp]
 1781 0076 B621     		movs	r1, #182
 1782 0078 0198     		ldr	r0, [sp, #4]
 1783 007a FFF7FEFF 		bl	VL53L0X_RdWord
 1784 007e 0346     		mov	r3, r0
 1785 0080 8DF80E30 		strb	r3, [sp, #14]
 1786              	.L133:
 1787              		.loc 1 662 0
 1788 0084 9DF90E30 		ldrsb	r3, [sp, #14]
 1789 0088 002B     		cmp	r3, #0
 1790 008a 07D1     		bne	.L134
 1791              		.loc 1 663 0
 1792 008c 0022     		movs	r2, #0
 1793 008e FF21     		movs	r1, #255
 1794 0090 0198     		ldr	r0, [sp, #4]
 1795 0092 FFF7FEFF 		bl	VL53L0X_WrByte
 1796 0096 0346     		mov	r3, r0
 1797 0098 8DF80E30 		strb	r3, [sp, #14]
 1798              	.L134:
 1799              		.loc 1 665 0
 1800 009c 9DF90E30 		ldrsb	r3, [sp, #14]
 1801 00a0 002B     		cmp	r3, #0
 1802 00a2 12D1     		bne	.L135
 1803              		.loc 1 667 0
 1804 00a4 9DF80F30 		ldrb	r3, [sp, #15]	@ zero_extendqisi2
 1805 00a8 1A46     		mov	r2, r3
 1806 00aa 0121     		movs	r1, #1
 1807 00ac 0198     		ldr	r0, [sp, #4]
 1808 00ae FFF7FEFF 		bl	VL53L0X_WrByte
 1809 00b2 0346     		mov	r3, r0
 1810 00b4 8DF80E30 		strb	r3, [sp, #14]
 1811              		.loc 1 669 0
 1812 00b8 9DF90E30 		ldrsb	r3, [sp, #14]
 1813 00bc 002B     		cmp	r3, #0
 1814 00be 04D1     		bne	.L135
 1815              		.loc 1 670 0
 1816 00c0 019B     		ldr	r3, [sp, #4]
 1817 00c2 9DF80F20 		ldrb	r2, [sp, #15]
 1818 00c6 83F83021 		strb	r2, [r3, #304]
 1819              	.L135:
 1820              		.loc 1 673 0
 1821 00ca 9DF90E30 		ldrsb	r3, [sp, #14]
 1822              		.loc 1 674 0
 1823 00ce 1846     		mov	r0, r3
 1824 00d0 044B     		ldr	r3, .L138
ARM GAS  C:\Users\PCHAUT~1\AppData\Local\Temp\ccYc6BCi.s 			page 33


 1825 00d2 0B9A     		ldr	r2, [sp, #44]
 1826 00d4 1B68     		ldr	r3, [r3]
 1827 00d6 9A42     		cmp	r2, r3
 1828 00d8 01D0     		beq	.L137
 1829 00da FFF7FEFF 		bl	__stack_chk_fail
 1830              	.L137:
 1831 00de 0DB0     		add	sp, sp, #52
 1832              		.cfi_def_cfa_offset 4
 1833              		@ sp needed
 1834 00e0 5DF804FB 		ldr	pc, [sp], #4
 1835              	.L139:
 1836              		.align	2
 1837              	.L138:
 1838 00e4 00000000 		.word	__stack_chk_guard
 1839              		.cfi_endproc
 1840              	.LFE15:
 1841              		.size	perform_ref_signal_measurement, .-perform_ref_signal_measurement
 1842              		.section	.text.VL53L0X_perform_ref_spad_management,"ax",%progbits
 1843              		.align	1
 1844              		.p2align 4,,15
 1845              		.global	VL53L0X_perform_ref_spad_management
 1846              		.syntax unified
 1847              		.thumb
 1848              		.thumb_func
 1849              		.fpu fpv4-sp-d16
 1850              		.type	VL53L0X_perform_ref_spad_management, %function
 1851              	VL53L0X_perform_ref_spad_management:
 1852              	.LFB16:
 1853              		.loc 1 679 0
 1854              		.cfi_startproc
 1855              		@ args = 0, pretend = 0, frame = 88
 1856              		@ frame_needed = 0, uses_anonymous_args = 0
 1857 0000 10B5     		push	{r4, lr}
 1858              		.cfi_def_cfa_offset 8
 1859              		.cfi_offset 4, -8
 1860              		.cfi_offset 14, -4
 1861 0002 9CB0     		sub	sp, sp, #112
 1862              		.cfi_def_cfa_offset 120
 1863 0004 0990     		str	r0, [sp, #36]
 1864 0006 0891     		str	r1, [sp, #32]
 1865 0008 0792     		str	r2, [sp, #28]
 1866              		.loc 1 679 0
 1867 000a B84B     		ldr	r3, .L174
 1868 000c 1B68     		ldr	r3, [r3]
 1869 000e 1B93     		str	r3, [sp, #108]
 1870              		.loc 1 680 0
 1871 0010 0023     		movs	r3, #0
 1872 0012 8DF83030 		strb	r3, [sp, #48]
 1873              		.loc 1 682 0
 1874 0016 B423     		movs	r3, #180
 1875 0018 8DF83330 		strb	r3, [sp, #51]
 1876              		.loc 1 683 0
 1877 001c 0323     		movs	r3, #3
 1878 001e 1593     		str	r3, [sp, #84]
 1879              		.loc 1 684 0
 1880 0020 2C23     		movs	r3, #44
 1881 0022 1693     		str	r3, [sp, #88]
ARM GAS  C:\Users\PCHAUT~1\AppData\Local\Temp\ccYc6BCi.s 			page 34


 1882              		.loc 1 685 0
 1883 0024 0023     		movs	r3, #0
 1884 0026 1093     		str	r3, [sp, #64]
 1885              		.loc 1 686 0
 1886 0028 0023     		movs	r3, #0
 1887 002a 0E93     		str	r3, [sp, #56]
 1888              		.loc 1 687 0
 1889 002c 0023     		movs	r3, #0
 1890 002e 0F93     		str	r3, [sp, #60]
 1891              		.loc 1 688 0
 1892 0030 4FF42063 		mov	r3, #2560
 1893 0034 ADF83630 		strh	r3, [sp, #54]	@ movhi
 1894              		.loc 1 690 0
 1895 0038 0023     		movs	r3, #0
 1896 003a 1193     		str	r3, [sp, #68]
 1897              		.loc 1 691 0
 1898 003c 0023     		movs	r3, #0
 1899 003e 1293     		str	r3, [sp, #72]
 1900              		.loc 1 692 0
 1901 0040 0623     		movs	r3, #6
 1902 0042 1793     		str	r3, [sp, #92]
 1903              		.loc 1 693 0
 1904 0044 0023     		movs	r3, #0
 1905 0046 1893     		str	r3, [sp, #96]
 1906              		.loc 1 694 0
 1907 0048 0023     		movs	r3, #0
 1908 004a 1393     		str	r3, [sp, #76]
 1909              		.loc 1 695 0
 1910 004c 0023     		movs	r3, #0
 1911 004e 8DF83130 		strb	r3, [sp, #49]
 1912              		.loc 1 696 0
 1913 0052 0023     		movs	r3, #0
 1914 0054 8DF82E30 		strb	r3, [sp, #46]
 1915              		.loc 1 697 0
 1916 0058 0023     		movs	r3, #0
 1917 005a 8DF82F30 		strb	r3, [sp, #47]
 1918              		.loc 1 698 0
 1919 005e 0023     		movs	r3, #0
 1920 0060 1493     		str	r3, [sp, #80]
 1921              		.loc 1 699 0
 1922 0062 0023     		movs	r3, #0
 1923 0064 8DF83230 		strb	r3, [sp, #50]
 1924              		.loc 1 724 0
 1925 0068 099B     		ldr	r3, [sp, #36]
 1926 006a B3F83C31 		ldrh	r3, [r3, #316]	@ movhi
 1927 006e ADF83630 		strh	r3, [sp, #54]	@ movhi
 1928              		.loc 1 734 0
 1929 0072 0023     		movs	r3, #0
 1930 0074 1293     		str	r3, [sp, #72]
 1931 0076 09E0     		b	.L141
 1932              	.L142:
 1933              		.loc 1 735 0 discriminator 3
 1934 0078 099A     		ldr	r2, [sp, #36]
 1935 007a 129B     		ldr	r3, [sp, #72]
 1936 007c 1344     		add	r3, r3, r2
 1937 007e 03F59273 		add	r3, r3, #292
 1938 0082 0022     		movs	r2, #0
ARM GAS  C:\Users\PCHAUT~1\AppData\Local\Temp\ccYc6BCi.s 			page 35


 1939 0084 1A70     		strb	r2, [r3]
 1940              		.loc 1 734 0 discriminator 3
 1941 0086 129B     		ldr	r3, [sp, #72]
 1942 0088 0133     		adds	r3, r3, #1
 1943 008a 1293     		str	r3, [sp, #72]
 1944              	.L141:
 1945              		.loc 1 734 0 is_stmt 0 discriminator 1
 1946 008c 129A     		ldr	r2, [sp, #72]
 1947 008e 179B     		ldr	r3, [sp, #92]
 1948 0090 9A42     		cmp	r2, r3
 1949 0092 F1D3     		bcc	.L142
 1950              		.loc 1 738 0 is_stmt 1
 1951 0094 0122     		movs	r2, #1
 1952 0096 FF21     		movs	r1, #255
 1953 0098 0998     		ldr	r0, [sp, #36]
 1954 009a FFF7FEFF 		bl	VL53L0X_WrByte
 1955 009e 0346     		mov	r3, r0
 1956 00a0 8DF83030 		strb	r3, [sp, #48]
 1957              		.loc 1 740 0
 1958 00a4 9DF93030 		ldrsb	r3, [sp, #48]
 1959 00a8 002B     		cmp	r3, #0
 1960 00aa 07D1     		bne	.L143
 1961              		.loc 1 741 0
 1962 00ac 0022     		movs	r2, #0
 1963 00ae 4F21     		movs	r1, #79
 1964 00b0 0998     		ldr	r0, [sp, #36]
 1965 00b2 FFF7FEFF 		bl	VL53L0X_WrByte
 1966 00b6 0346     		mov	r3, r0
 1967 00b8 8DF83030 		strb	r3, [sp, #48]
 1968              	.L143:
 1969              		.loc 1 744 0
 1970 00bc 9DF93030 		ldrsb	r3, [sp, #48]
 1971 00c0 002B     		cmp	r3, #0
 1972 00c2 07D1     		bne	.L144
 1973              		.loc 1 745 0
 1974 00c4 2C22     		movs	r2, #44
 1975 00c6 4E21     		movs	r1, #78
 1976 00c8 0998     		ldr	r0, [sp, #36]
 1977 00ca FFF7FEFF 		bl	VL53L0X_WrByte
 1978 00ce 0346     		mov	r3, r0
 1979 00d0 8DF83030 		strb	r3, [sp, #48]
 1980              	.L144:
 1981              		.loc 1 748 0
 1982 00d4 9DF93030 		ldrsb	r3, [sp, #48]
 1983 00d8 002B     		cmp	r3, #0
 1984 00da 07D1     		bne	.L145
 1985              		.loc 1 749 0
 1986 00dc 0022     		movs	r2, #0
 1987 00de FF21     		movs	r1, #255
 1988 00e0 0998     		ldr	r0, [sp, #36]
 1989 00e2 FFF7FEFF 		bl	VL53L0X_WrByte
 1990 00e6 0346     		mov	r3, r0
 1991 00e8 8DF83030 		strb	r3, [sp, #48]
 1992              	.L145:
 1993              		.loc 1 751 0
 1994 00ec 9DF93030 		ldrsb	r3, [sp, #48]
 1995 00f0 002B     		cmp	r3, #0
ARM GAS  C:\Users\PCHAUT~1\AppData\Local\Temp\ccYc6BCi.s 			page 36


 1996 00f2 09D1     		bne	.L146
 1997              		.loc 1 752 0
 1998 00f4 9DF83330 		ldrb	r3, [sp, #51]	@ zero_extendqisi2
 1999 00f8 1A46     		mov	r2, r3
 2000 00fa B621     		movs	r1, #182
 2001 00fc 0998     		ldr	r0, [sp, #36]
 2002 00fe FFF7FEFF 		bl	VL53L0X_WrByte
 2003 0102 0346     		mov	r3, r0
 2004 0104 8DF83030 		strb	r3, [sp, #48]
 2005              	.L146:
 2006              		.loc 1 757 0
 2007 0108 9DF93030 		ldrsb	r3, [sp, #48]
 2008 010c 002B     		cmp	r3, #0
 2009 010e 07D1     		bne	.L147
 2010              		.loc 1 758 0
 2011 0110 0022     		movs	r2, #0
 2012 0112 8021     		movs	r1, #128
 2013 0114 0998     		ldr	r0, [sp, #36]
 2014 0116 FFF7FEFF 		bl	VL53L0X_WrByte
 2015 011a 0346     		mov	r3, r0
 2016 011c 8DF83030 		strb	r3, [sp, #48]
 2017              	.L147:
 2018              		.loc 1 762 0
 2019 0120 9DF93030 		ldrsb	r3, [sp, #48]
 2020 0124 002B     		cmp	r3, #0
 2021 0126 0AD1     		bne	.L148
 2022              		.loc 1 763 0
 2023 0128 0DF12F02 		add	r2, sp, #47
 2024 012c 0DF12E01 		add	r1, sp, #46
 2025 0130 0023     		movs	r3, #0
 2026 0132 0998     		ldr	r0, [sp, #36]
 2027 0134 FFF7FEFF 		bl	VL53L0X_perform_ref_calibration
 2028 0138 0346     		mov	r3, r0
 2029 013a 8DF83030 		strb	r3, [sp, #48]
 2030              	.L148:
 2031              		.loc 1 766 0
 2032 013e 9DF93030 		ldrsb	r3, [sp, #48]
 2033 0142 002B     		cmp	r3, #0
 2034 0144 20D1     		bne	.L149
 2035              		.loc 1 768 0
 2036 0146 0023     		movs	r3, #0
 2037 0148 1093     		str	r3, [sp, #64]
 2038              		.loc 1 769 0
 2039 014a 109B     		ldr	r3, [sp, #64]
 2040 014c 0E93     		str	r3, [sp, #56]
 2041              		.loc 1 770 0
 2042 014e 0023     		movs	r3, #0
 2043 0150 1193     		str	r3, [sp, #68]
 2044              		.loc 1 771 0
 2045 0152 119B     		ldr	r3, [sp, #68]
 2046 0154 D9B2     		uxtb	r1, r3
 2047              		.loc 1 773 0
 2048 0156 099B     		ldr	r3, [sp, #36]
 2049 0158 03F59570 		add	r0, r3, #298
 2050              		.loc 1 774 0
 2051 015c 099B     		ldr	r3, [sp, #36]
 2052 015e 03F59274 		add	r4, r3, #292
ARM GAS  C:\Users\PCHAUT~1\AppData\Local\Temp\ccYc6BCi.s 			page 37


 2053              		.loc 1 771 0
 2054 0162 9DF83330 		ldrb	r3, [sp, #51]	@ zero_extendqisi2
 2055 0166 0EAA     		add	r2, sp, #56
 2056 0168 0492     		str	r2, [sp, #16]
 2057 016a 159A     		ldr	r2, [sp, #84]
 2058 016c 0392     		str	r2, [sp, #12]
 2059 016e 109A     		ldr	r2, [sp, #64]
 2060 0170 0292     		str	r2, [sp, #8]
 2061 0172 0193     		str	r3, [sp, #4]
 2062 0174 179B     		ldr	r3, [sp, #92]
 2063 0176 0093     		str	r3, [sp]
 2064 0178 2346     		mov	r3, r4
 2065 017a 0246     		mov	r2, r0
 2066 017c 0998     		ldr	r0, [sp, #36]
 2067 017e FFF7FEFF 		bl	enable_ref_spads
 2068 0182 0346     		mov	r3, r0
 2069 0184 8DF83030 		strb	r3, [sp, #48]
 2070              	.L149:
 2071              		.loc 1 782 0
 2072 0188 9DF93030 		ldrsb	r3, [sp, #48]
 2073 018c 002B     		cmp	r3, #0
 2074 018e 75D1     		bne	.L150
 2075              		.loc 1 783 0
 2076 0190 0E9B     		ldr	r3, [sp, #56]
 2077 0192 1093     		str	r3, [sp, #64]
 2078              		.loc 1 785 0
 2079 0194 0DAB     		add	r3, sp, #52
 2080 0196 1946     		mov	r1, r3
 2081 0198 0998     		ldr	r0, [sp, #36]
 2082 019a FFF7FEFF 		bl	perform_ref_signal_measurement
 2083 019e 0346     		mov	r3, r0
 2084 01a0 8DF83030 		strb	r3, [sp, #48]
 2085              		.loc 1 787 0
 2086 01a4 9DF93030 		ldrsb	r3, [sp, #48]
 2087 01a8 002B     		cmp	r3, #0
 2088 01aa 63D1     		bne	.L151
 2089              		.loc 1 788 0 discriminator 1
 2090 01ac BDF83430 		ldrh	r3, [sp, #52]
 2091              		.loc 1 787 0 discriminator 1
 2092 01b0 BDF83620 		ldrh	r2, [sp, #54]
 2093 01b4 9A42     		cmp	r2, r3
 2094 01b6 5DD2     		bcs	.L151
 2095              		.loc 1 792 0
 2096 01b8 0023     		movs	r3, #0
 2097 01ba 1293     		str	r3, [sp, #72]
 2098 01bc 09E0     		b	.L152
 2099              	.L153:
 2100              		.loc 1 793 0 discriminator 3
 2101 01be 099A     		ldr	r2, [sp, #36]
 2102 01c0 129B     		ldr	r3, [sp, #72]
 2103 01c2 1344     		add	r3, r3, r2
 2104 01c4 03F59273 		add	r3, r3, #292
 2105 01c8 0022     		movs	r2, #0
 2106 01ca 1A70     		strb	r2, [r3]
 2107              		.loc 1 792 0 discriminator 3
 2108 01cc 129B     		ldr	r3, [sp, #72]
 2109 01ce 0133     		adds	r3, r3, #1
ARM GAS  C:\Users\PCHAUT~1\AppData\Local\Temp\ccYc6BCi.s 			page 38


 2110 01d0 1293     		str	r3, [sp, #72]
 2111              	.L152:
 2112              		.loc 1 792 0 is_stmt 0 discriminator 1
 2113 01d2 129A     		ldr	r2, [sp, #72]
 2114 01d4 179B     		ldr	r3, [sp, #92]
 2115 01d6 9A42     		cmp	r2, r3
 2116 01d8 F1D3     		bcc	.L153
 2117              		.loc 1 797 0 is_stmt 1
 2118 01da 02E0     		b	.L154
 2119              	.L156:
 2120              		.loc 1 799 0
 2121 01dc 109B     		ldr	r3, [sp, #64]
 2122 01de 0133     		adds	r3, r3, #1
 2123 01e0 1093     		str	r3, [sp, #64]
 2124              	.L154:
 2125              		.loc 1 797 0
 2126 01e2 9DF83320 		ldrb	r2, [sp, #51]	@ zero_extendqisi2
 2127 01e6 109B     		ldr	r3, [sp, #64]
 2128 01e8 1344     		add	r3, r3, r2
 2129 01ea 1846     		mov	r0, r3
 2130 01ec FFF7FEFF 		bl	is_aperture
 2131 01f0 0346     		mov	r3, r0
 2132 01f2 002B     		cmp	r3, #0
 2133 01f4 03D1     		bne	.L155
 2134              		.loc 1 798 0
 2135 01f6 109A     		ldr	r2, [sp, #64]
 2136 01f8 169B     		ldr	r3, [sp, #88]
 2137 01fa 9A42     		cmp	r2, r3
 2138 01fc EED3     		bcc	.L156
 2139              	.L155:
 2140              		.loc 1 802 0
 2141 01fe 0123     		movs	r3, #1
 2142 0200 1193     		str	r3, [sp, #68]
 2143              		.loc 1 804 0
 2144 0202 119B     		ldr	r3, [sp, #68]
 2145 0204 D9B2     		uxtb	r1, r3
 2146              		.loc 1 806 0
 2147 0206 099B     		ldr	r3, [sp, #36]
 2148 0208 03F59570 		add	r0, r3, #298
 2149              		.loc 1 807 0
 2150 020c 099B     		ldr	r3, [sp, #36]
 2151 020e 03F59274 		add	r4, r3, #292
 2152              		.loc 1 804 0
 2153 0212 9DF83330 		ldrb	r3, [sp, #51]	@ zero_extendqisi2
 2154 0216 0EAA     		add	r2, sp, #56
 2155 0218 0492     		str	r2, [sp, #16]
 2156 021a 159A     		ldr	r2, [sp, #84]
 2157 021c 0392     		str	r2, [sp, #12]
 2158 021e 109A     		ldr	r2, [sp, #64]
 2159 0220 0292     		str	r2, [sp, #8]
 2160 0222 0193     		str	r3, [sp, #4]
 2161 0224 179B     		ldr	r3, [sp, #92]
 2162 0226 0093     		str	r3, [sp]
 2163 0228 2346     		mov	r3, r4
 2164 022a 0246     		mov	r2, r0
 2165 022c 0998     		ldr	r0, [sp, #36]
 2166 022e FFF7FEFF 		bl	enable_ref_spads
ARM GAS  C:\Users\PCHAUT~1\AppData\Local\Temp\ccYc6BCi.s 			page 39


 2167 0232 0346     		mov	r3, r0
 2168 0234 8DF83030 		strb	r3, [sp, #48]
 2169              		.loc 1 814 0
 2170 0238 9DF93030 		ldrsb	r3, [sp, #48]
 2171 023c 002B     		cmp	r3, #0
 2172 023e 1CD1     		bne	.L171
 2173              		.loc 1 815 0
 2174 0240 0E9B     		ldr	r3, [sp, #56]
 2175 0242 1093     		str	r3, [sp, #64]
 2176              		.loc 1 816 0
 2177 0244 0DAB     		add	r3, sp, #52
 2178 0246 1946     		mov	r1, r3
 2179 0248 0998     		ldr	r0, [sp, #36]
 2180 024a FFF7FEFF 		bl	perform_ref_signal_measurement
 2181 024e 0346     		mov	r3, r0
 2182 0250 8DF83030 		strb	r3, [sp, #48]
 2183              		.loc 1 819 0
 2184 0254 9DF93030 		ldrsb	r3, [sp, #48]
 2185 0258 002B     		cmp	r3, #0
 2186 025a 0ED1     		bne	.L171
 2187              		.loc 1 820 0 discriminator 1
 2188 025c BDF83430 		ldrh	r3, [sp, #52]
 2189              		.loc 1 819 0 discriminator 1
 2190 0260 BDF83620 		ldrh	r2, [sp, #54]
 2191 0264 9A42     		cmp	r2, r3
 2192 0266 08D2     		bcs	.L171
 2193              		.loc 1 827 0
 2194 0268 0123     		movs	r3, #1
 2195 026a 8DF83230 		strb	r3, [sp, #50]
 2196              		.loc 1 828 0
 2197 026e 159B     		ldr	r3, [sp, #84]
 2198 0270 1493     		str	r3, [sp, #80]
 2199              		.loc 1 814 0
 2200 0272 02E0     		b	.L171
 2201              	.L151:
 2202              		.loc 1 832 0
 2203 0274 0023     		movs	r3, #0
 2204 0276 1193     		str	r3, [sp, #68]
 2205 0278 00E0     		b	.L150
 2206              	.L171:
 2207              		.loc 1 814 0
 2208 027a 00BF     		nop
 2209              	.L150:
 2210              		.loc 1 836 0
 2211 027c 9DF93030 		ldrsb	r3, [sp, #48]
 2212 0280 002B     		cmp	r3, #0
 2213 0282 40F0B480 		bne	.L158
 2214              		.loc 1 837 0 discriminator 1
 2215 0286 BDF83430 		ldrh	r3, [sp, #52]
 2216              		.loc 1 836 0 discriminator 1
 2217 028a BDF83620 		ldrh	r2, [sp, #54]
 2218 028e 9A42     		cmp	r2, r3
 2219 0290 40F2AD80 		bls	.L158
 2220              		.loc 1 843 0
 2221 0294 119B     		ldr	r3, [sp, #68]
 2222 0296 8DF83230 		strb	r3, [sp, #50]
 2223              		.loc 1 844 0
ARM GAS  C:\Users\PCHAUT~1\AppData\Local\Temp\ccYc6BCi.s 			page 40


 2224 029a 159B     		ldr	r3, [sp, #84]
 2225 029c 1493     		str	r3, [sp, #80]
 2226              		.loc 1 846 0
 2227 029e 099B     		ldr	r3, [sp, #36]
 2228 02a0 03F59271 		add	r1, r3, #292
 2229 02a4 19AB     		add	r3, sp, #100
 2230 02a6 179A     		ldr	r2, [sp, #92]
 2231 02a8 1846     		mov	r0, r3
 2232 02aa FFF7FEFF 		bl	memcpy
 2233              		.loc 1 848 0
 2234 02ae BDF83430 		ldrh	r3, [sp, #52]
 2235 02b2 1A46     		mov	r2, r3
 2236 02b4 BDF83630 		ldrh	r3, [sp, #54]
 2237 02b8 D31A     		subs	r3, r2, r3
 2238 02ba 002B     		cmp	r3, #0
 2239 02bc B8BF     		it	lt
 2240 02be 5B42     		rsblt	r3, r3, #0
 2241 02c0 1393     		str	r3, [sp, #76]
 2242              		.loc 1 850 0
 2243 02c2 0023     		movs	r3, #0
 2244 02c4 8DF83130 		strb	r3, [sp, #49]
 2245              		.loc 1 852 0
 2246 02c8 88E0     		b	.L159
 2247              	.L167:
 2248              		.loc 1 854 0
 2249 02ca 099B     		ldr	r3, [sp, #36]
 2250 02cc 03F59570 		add	r0, r3, #298
 2251              		.loc 1 853 0
 2252 02d0 0FAB     		add	r3, sp, #60
 2253 02d2 109A     		ldr	r2, [sp, #64]
 2254 02d4 1799     		ldr	r1, [sp, #92]
 2255 02d6 FFF7FEFF 		bl	get_next_good_spad
 2256              		.loc 1 858 0
 2257 02da 0F9B     		ldr	r3, [sp, #60]
 2258 02dc B3F1FF3F 		cmp	r3, #-1
 2259 02e0 06D1     		bne	.L160
 2260              		.loc 1 859 0
 2261 02e2 CE23     		movs	r3, #206
 2262 02e4 8DF83030 		strb	r3, [sp, #48]
 2263              		.loc 1 860 0
 2264 02e8 81E0     		b	.L158
 2265              	.L175:
 2266 02ea 00BF     		.align	2
 2267              	.L174:
 2268 02ec 00000000 		.word	__stack_chk_guard
 2269              	.L160:
 2270              		.loc 1 866 0
 2271 02f0 9DF83330 		ldrb	r3, [sp, #51]	@ zero_extendqisi2
 2272 02f4 0F9A     		ldr	r2, [sp, #60]
 2273 02f6 1344     		add	r3, r3, r2
 2274 02f8 1846     		mov	r0, r3
 2275 02fa FFF7FEFF 		bl	is_aperture
 2276 02fe 0346     		mov	r3, r0
 2277 0300 1A46     		mov	r2, r3
 2278 0302 119B     		ldr	r3, [sp, #68]
 2279 0304 9342     		cmp	r3, r2
 2280 0306 03D0     		beq	.L161
ARM GAS  C:\Users\PCHAUT~1\AppData\Local\Temp\ccYc6BCi.s 			page 41


 2281              		.loc 1 871 0
 2282 0308 0123     		movs	r3, #1
 2283 030a 8DF83130 		strb	r3, [sp, #49]
 2284              		.loc 1 872 0
 2285 030e 6EE0     		b	.L158
 2286              	.L161:
 2287              		.loc 1 875 0
 2288 0310 149B     		ldr	r3, [sp, #80]
 2289 0312 0133     		adds	r3, r3, #1
 2290 0314 1493     		str	r3, [sp, #80]
 2291              		.loc 1 877 0
 2292 0316 0F9B     		ldr	r3, [sp, #60]
 2293 0318 1093     		str	r3, [sp, #64]
 2294              		.loc 1 879 0
 2295 031a 099B     		ldr	r3, [sp, #36]
 2296 031c 03F59273 		add	r3, r3, #292
 2297              		.loc 1 878 0
 2298 0320 109A     		ldr	r2, [sp, #64]
 2299 0322 1799     		ldr	r1, [sp, #92]
 2300 0324 1846     		mov	r0, r3
 2301 0326 FFF7FEFF 		bl	enable_spad_bit
 2302 032a 0346     		mov	r3, r0
 2303 032c 8DF83030 		strb	r3, [sp, #48]
 2304              		.loc 1 882 0
 2305 0330 9DF93030 		ldrsb	r3, [sp, #48]
 2306 0334 002B     		cmp	r3, #0
 2307 0336 0CD1     		bne	.L162
 2308              		.loc 1 883 0
 2309 0338 109B     		ldr	r3, [sp, #64]
 2310 033a 0133     		adds	r3, r3, #1
 2311 033c 1093     		str	r3, [sp, #64]
 2312              		.loc 1 887 0
 2313 033e 099B     		ldr	r3, [sp, #36]
 2314 0340 03F59273 		add	r3, r3, #292
 2315              		.loc 1 886 0
 2316 0344 1946     		mov	r1, r3
 2317 0346 0998     		ldr	r0, [sp, #36]
 2318 0348 FFF7FEFF 		bl	set_ref_spad_map
 2319 034c 0346     		mov	r3, r0
 2320 034e 8DF83030 		strb	r3, [sp, #48]
 2321              	.L162:
 2322              		.loc 1 890 0
 2323 0352 9DF93030 		ldrsb	r3, [sp, #48]
 2324 0356 002B     		cmp	r3, #0
 2325 0358 46D1     		bne	.L172
 2326              		.loc 1 893 0
 2327 035a 0DAB     		add	r3, sp, #52
 2328 035c 1946     		mov	r1, r3
 2329 035e 0998     		ldr	r0, [sp, #36]
 2330 0360 FFF7FEFF 		bl	perform_ref_signal_measurement
 2331 0364 0346     		mov	r3, r0
 2332 0366 8DF83030 		strb	r3, [sp, #48]
 2333              		.loc 1 896 0
 2334 036a 9DF93030 		ldrsb	r3, [sp, #48]
 2335 036e 002B     		cmp	r3, #0
 2336 0370 3CD1     		bne	.L173
 2337              		.loc 1 899 0
ARM GAS  C:\Users\PCHAUT~1\AppData\Local\Temp\ccYc6BCi.s 			page 42


 2338 0372 BDF83430 		ldrh	r3, [sp, #52]
 2339 0376 1A46     		mov	r2, r3
 2340 0378 BDF83630 		ldrh	r3, [sp, #54]
 2341 037c D31A     		subs	r3, r2, r3
 2342 037e 002B     		cmp	r3, #0
 2343 0380 B8BF     		it	lt
 2344 0382 5B42     		rsblt	r3, r3, #0
 2345 0384 1893     		str	r3, [sp, #96]
 2346              		.loc 1 901 0
 2347 0386 BDF83430 		ldrh	r3, [sp, #52]
 2348 038a BDF83620 		ldrh	r2, [sp, #54]
 2349 038e 9A42     		cmp	r2, r3
 2350 0390 1AD2     		bcs	.L165
 2351              		.loc 1 906 0
 2352 0392 189A     		ldr	r2, [sp, #96]
 2353 0394 139B     		ldr	r3, [sp, #76]
 2354 0396 9A42     		cmp	r2, r3
 2355 0398 12D9     		bls	.L166
 2356              		.loc 1 909 0
 2357 039a 19AB     		add	r3, sp, #100
 2358 039c 1946     		mov	r1, r3
 2359 039e 0998     		ldr	r0, [sp, #36]
 2360 03a0 FFF7FEFF 		bl	set_ref_spad_map
 2361 03a4 0346     		mov	r3, r0
 2362 03a6 8DF83030 		strb	r3, [sp, #48]
 2363              		.loc 1 912 0
 2364 03aa 099B     		ldr	r3, [sp, #36]
 2365 03ac 03F59273 		add	r3, r3, #292
 2366              		.loc 1 911 0
 2367 03b0 19A9     		add	r1, sp, #100
 2368 03b2 179A     		ldr	r2, [sp, #92]
 2369 03b4 1846     		mov	r0, r3
 2370 03b6 FFF7FEFF 		bl	memcpy
 2371              		.loc 1 915 0
 2372 03ba 149B     		ldr	r3, [sp, #80]
 2373 03bc 013B     		subs	r3, r3, #1
 2374 03be 1493     		str	r3, [sp, #80]
 2375              	.L166:
 2376              		.loc 1 917 0
 2377 03c0 0123     		movs	r3, #1
 2378 03c2 8DF83130 		strb	r3, [sp, #49]
 2379 03c6 09E0     		b	.L159
 2380              	.L165:
 2381              		.loc 1 920 0
 2382 03c8 189B     		ldr	r3, [sp, #96]
 2383 03ca 1393     		str	r3, [sp, #76]
 2384              		.loc 1 922 0
 2385 03cc 099B     		ldr	r3, [sp, #36]
 2386 03ce 03F59271 		add	r1, r3, #292
 2387              		.loc 1 921 0
 2388 03d2 19AB     		add	r3, sp, #100
 2389 03d4 179A     		ldr	r2, [sp, #92]
 2390 03d6 1846     		mov	r0, r3
 2391 03d8 FFF7FEFF 		bl	memcpy
 2392              	.L159:
 2393              		.loc 1 852 0
 2394 03dc 9DF83130 		ldrb	r3, [sp, #49]	@ zero_extendqisi2
ARM GAS  C:\Users\PCHAUT~1\AppData\Local\Temp\ccYc6BCi.s 			page 43


 2395 03e0 002B     		cmp	r3, #0
 2396 03e2 3FF472AF 		beq	.L167
 2397 03e6 02E0     		b	.L158
 2398              	.L172:
 2399              		.loc 1 891 0
 2400 03e8 00BF     		nop
 2401 03ea 00E0     		b	.L158
 2402              	.L173:
 2403              		.loc 1 897 0
 2404 03ec 00BF     		nop
 2405              	.L158:
 2406              		.loc 1 929 0
 2407 03ee 9DF93030 		ldrsb	r3, [sp, #48]
 2408 03f2 002B     		cmp	r3, #0
 2409 03f4 15D1     		bne	.L168
 2410              		.loc 1 930 0
 2411 03f6 089B     		ldr	r3, [sp, #32]
 2412 03f8 149A     		ldr	r2, [sp, #80]
 2413 03fa 1A60     		str	r2, [r3]
 2414              		.loc 1 931 0
 2415 03fc 079B     		ldr	r3, [sp, #28]
 2416 03fe 9DF83220 		ldrb	r2, [sp, #50]
 2417 0402 1A70     		strb	r2, [r3]
 2418              		.loc 1 933 0
 2419 0404 099B     		ldr	r3, [sp, #36]
 2420 0406 0122     		movs	r2, #1
 2421 0408 83F81521 		strb	r2, [r3, #277]
 2422              		.loc 1 934 0
 2423 040c 089B     		ldr	r3, [sp, #32]
 2424 040e 1B68     		ldr	r3, [r3]
 2425 0410 DAB2     		uxtb	r2, r3
 2426 0412 099B     		ldr	r3, [sp, #36]
 2427 0414 83F81321 		strb	r2, [r3, #275]
 2428              		.loc 1 936 0
 2429 0418 079B     		ldr	r3, [sp, #28]
 2430 041a 1A78     		ldrb	r2, [r3]	@ zero_extendqisi2
 2431 041c 099B     		ldr	r3, [sp, #36]
 2432 041e 83F81421 		strb	r2, [r3, #276]
 2433              	.L168:
 2434              		.loc 1 940 0
 2435 0422 9DF93030 		ldrsb	r3, [sp, #48]
 2436              		.loc 1 941 0
 2437 0426 1846     		mov	r0, r3
 2438 0428 044B     		ldr	r3, .L176
 2439 042a 1B9A     		ldr	r2, [sp, #108]
 2440 042c 1B68     		ldr	r3, [r3]
 2441 042e 9A42     		cmp	r2, r3
 2442 0430 01D0     		beq	.L170
 2443 0432 FFF7FEFF 		bl	__stack_chk_fail
 2444              	.L170:
 2445 0436 1CB0     		add	sp, sp, #112
 2446              		.cfi_def_cfa_offset 8
 2447              		@ sp needed
 2448 0438 10BD     		pop	{r4, pc}
 2449              	.L177:
 2450 043a 00BF     		.align	2
 2451              	.L176:
ARM GAS  C:\Users\PCHAUT~1\AppData\Local\Temp\ccYc6BCi.s 			page 44


 2452 043c 00000000 		.word	__stack_chk_guard
 2453              		.cfi_endproc
 2454              	.LFE16:
 2455              		.size	VL53L0X_perform_ref_spad_management, .-VL53L0X_perform_ref_spad_management
 2456              		.section	.text.VL53L0X_set_reference_spads,"ax",%progbits
 2457              		.align	1
 2458              		.p2align 4,,15
 2459              		.global	VL53L0X_set_reference_spads
 2460              		.syntax unified
 2461              		.thumb
 2462              		.thumb_func
 2463              		.fpu fpv4-sp-d16
 2464              		.type	VL53L0X_set_reference_spads, %function
 2465              	VL53L0X_set_reference_spads:
 2466              	.LFB17:
 2467              		.loc 1 945 0
 2468              		.cfi_startproc
 2469              		@ args = 0, pretend = 0, frame = 48
 2470              		@ frame_needed = 0, uses_anonymous_args = 0
 2471 0000 10B5     		push	{r4, lr}
 2472              		.cfi_def_cfa_offset 8
 2473              		.cfi_offset 4, -8
 2474              		.cfi_offset 14, -4
 2475 0002 92B0     		sub	sp, sp, #72
 2476              		.cfi_def_cfa_offset 80
 2477 0004 0990     		str	r0, [sp, #36]
 2478 0006 0891     		str	r1, [sp, #32]
 2479 0008 1346     		mov	r3, r2
 2480 000a 8DF81F30 		strb	r3, [sp, #31]
 2481              		.loc 1 945 0
 2482 000e 544B     		ldr	r3, .L191
 2483 0010 1B68     		ldr	r3, [r3]
 2484 0012 1193     		str	r3, [sp, #68]
 2485              		.loc 1 946 0
 2486 0014 0023     		movs	r3, #0
 2487 0016 8DF82E30 		strb	r3, [sp, #46]
 2488              		.loc 1 947 0
 2489 001a 0023     		movs	r3, #0
 2490 001c 0D93     		str	r3, [sp, #52]
 2491              		.loc 1 948 0
 2492 001e B423     		movs	r3, #180
 2493 0020 8DF82F30 		strb	r3, [sp, #47]
 2494              		.loc 1 949 0
 2495 0024 0623     		movs	r3, #6
 2496 0026 0F93     		str	r3, [sp, #60]
 2497              		.loc 1 950 0
 2498 0028 2C23     		movs	r3, #44
 2499 002a 1093     		str	r3, [sp, #64]
 2500              		.loc 1 961 0
 2501 002c 0122     		movs	r2, #1
 2502 002e FF21     		movs	r1, #255
 2503 0030 0998     		ldr	r0, [sp, #36]
 2504 0032 FFF7FEFF 		bl	VL53L0X_WrByte
 2505 0036 0346     		mov	r3, r0
 2506 0038 8DF82E30 		strb	r3, [sp, #46]
 2507              		.loc 1 963 0
 2508 003c 9DF92E30 		ldrsb	r3, [sp, #46]
ARM GAS  C:\Users\PCHAUT~1\AppData\Local\Temp\ccYc6BCi.s 			page 45


 2509 0040 002B     		cmp	r3, #0
 2510 0042 07D1     		bne	.L179
 2511              		.loc 1 964 0
 2512 0044 0022     		movs	r2, #0
 2513 0046 4F21     		movs	r1, #79
 2514 0048 0998     		ldr	r0, [sp, #36]
 2515 004a FFF7FEFF 		bl	VL53L0X_WrByte
 2516 004e 0346     		mov	r3, r0
 2517 0050 8DF82E30 		strb	r3, [sp, #46]
 2518              	.L179:
 2519              		.loc 1 967 0
 2520 0054 9DF92E30 		ldrsb	r3, [sp, #46]
 2521 0058 002B     		cmp	r3, #0
 2522 005a 07D1     		bne	.L180
 2523              		.loc 1 968 0
 2524 005c 2C22     		movs	r2, #44
 2525 005e 4E21     		movs	r1, #78
 2526 0060 0998     		ldr	r0, [sp, #36]
 2527 0062 FFF7FEFF 		bl	VL53L0X_WrByte
 2528 0066 0346     		mov	r3, r0
 2529 0068 8DF82E30 		strb	r3, [sp, #46]
 2530              	.L180:
 2531              		.loc 1 971 0
 2532 006c 9DF92E30 		ldrsb	r3, [sp, #46]
 2533 0070 002B     		cmp	r3, #0
 2534 0072 07D1     		bne	.L181
 2535              		.loc 1 972 0
 2536 0074 0022     		movs	r2, #0
 2537 0076 FF21     		movs	r1, #255
 2538 0078 0998     		ldr	r0, [sp, #36]
 2539 007a FFF7FEFF 		bl	VL53L0X_WrByte
 2540 007e 0346     		mov	r3, r0
 2541 0080 8DF82E30 		strb	r3, [sp, #46]
 2542              	.L181:
 2543              		.loc 1 974 0
 2544 0084 9DF92E30 		ldrsb	r3, [sp, #46]
 2545 0088 002B     		cmp	r3, #0
 2546 008a 09D1     		bne	.L182
 2547              		.loc 1 975 0
 2548 008c 9DF82F30 		ldrb	r3, [sp, #47]	@ zero_extendqisi2
 2549 0090 1A46     		mov	r2, r3
 2550 0092 B621     		movs	r1, #182
 2551 0094 0998     		ldr	r0, [sp, #36]
 2552 0096 FFF7FEFF 		bl	VL53L0X_WrByte
 2553 009a 0346     		mov	r3, r0
 2554 009c 8DF82E30 		strb	r3, [sp, #46]
 2555              	.L182:
 2556              		.loc 1 979 0
 2557 00a0 0023     		movs	r3, #0
 2558 00a2 0E93     		str	r3, [sp, #56]
 2559 00a4 09E0     		b	.L183
 2560              	.L184:
 2561              		.loc 1 980 0 discriminator 3
 2562 00a6 099A     		ldr	r2, [sp, #36]
 2563 00a8 0E9B     		ldr	r3, [sp, #56]
 2564 00aa 1344     		add	r3, r3, r2
 2565 00ac 03F59273 		add	r3, r3, #292
ARM GAS  C:\Users\PCHAUT~1\AppData\Local\Temp\ccYc6BCi.s 			page 46


 2566 00b0 0022     		movs	r2, #0
 2567 00b2 1A70     		strb	r2, [r3]
 2568              		.loc 1 979 0 discriminator 3
 2569 00b4 0E9B     		ldr	r3, [sp, #56]
 2570 00b6 0133     		adds	r3, r3, #1
 2571 00b8 0E93     		str	r3, [sp, #56]
 2572              	.L183:
 2573              		.loc 1 979 0 is_stmt 0 discriminator 1
 2574 00ba 0E9A     		ldr	r2, [sp, #56]
 2575 00bc 0F9B     		ldr	r3, [sp, #60]
 2576 00be 9A42     		cmp	r2, r3
 2577 00c0 F1D3     		bcc	.L184
 2578              		.loc 1 982 0 is_stmt 1
 2579 00c2 9DF81F30 		ldrb	r3, [sp, #31]	@ zero_extendqisi2
 2580 00c6 002B     		cmp	r3, #0
 2581 00c8 11D0     		beq	.L185
 2582              		.loc 1 984 0
 2583 00ca 02E0     		b	.L186
 2584              	.L187:
 2585              		.loc 1 986 0
 2586 00cc 0D9B     		ldr	r3, [sp, #52]
 2587 00ce 0133     		adds	r3, r3, #1
 2588 00d0 0D93     		str	r3, [sp, #52]
 2589              	.L186:
 2590              		.loc 1 984 0
 2591 00d2 9DF82F20 		ldrb	r2, [sp, #47]	@ zero_extendqisi2
 2592 00d6 0D9B     		ldr	r3, [sp, #52]
 2593 00d8 1344     		add	r3, r3, r2
 2594 00da 1846     		mov	r0, r3
 2595 00dc FFF7FEFF 		bl	is_aperture
 2596 00e0 0346     		mov	r3, r0
 2597 00e2 002B     		cmp	r3, #0
 2598 00e4 03D1     		bne	.L185
 2599              		.loc 1 984 0 is_stmt 0 discriminator 1
 2600 00e6 0D9A     		ldr	r2, [sp, #52]
 2601 00e8 109B     		ldr	r3, [sp, #64]
 2602 00ea 9A42     		cmp	r2, r3
 2603 00ec EED3     		bcc	.L187
 2604              	.L185:
 2605              		.loc 1 991 0 is_stmt 1
 2606 00ee 099B     		ldr	r3, [sp, #36]
 2607 00f0 03F59570 		add	r0, r3, #298
 2608              		.loc 1 992 0
 2609 00f4 099B     		ldr	r3, [sp, #36]
 2610 00f6 03F59274 		add	r4, r3, #292
 2611              		.loc 1 989 0
 2612 00fa 9DF82F30 		ldrb	r3, [sp, #47]	@ zero_extendqisi2
 2613 00fe 9DF81F10 		ldrb	r1, [sp, #31]	@ zero_extendqisi2
 2614 0102 0CAA     		add	r2, sp, #48
 2615 0104 0492     		str	r2, [sp, #16]
 2616 0106 089A     		ldr	r2, [sp, #32]
 2617 0108 0392     		str	r2, [sp, #12]
 2618 010a 0D9A     		ldr	r2, [sp, #52]
 2619 010c 0292     		str	r2, [sp, #8]
 2620 010e 0193     		str	r3, [sp, #4]
 2621 0110 0F9B     		ldr	r3, [sp, #60]
 2622 0112 0093     		str	r3, [sp]
ARM GAS  C:\Users\PCHAUT~1\AppData\Local\Temp\ccYc6BCi.s 			page 47


 2623 0114 2346     		mov	r3, r4
 2624 0116 0246     		mov	r2, r0
 2625 0118 0998     		ldr	r0, [sp, #36]
 2626 011a FFF7FEFF 		bl	enable_ref_spads
 2627 011e 0346     		mov	r3, r0
 2628 0120 8DF82E30 		strb	r3, [sp, #46]
 2629              		.loc 1 999 0
 2630 0124 9DF92E30 		ldrsb	r3, [sp, #46]
 2631 0128 002B     		cmp	r3, #0
 2632 012a 0DD1     		bne	.L188
 2633              		.loc 1 1000 0
 2634 012c 099B     		ldr	r3, [sp, #36]
 2635 012e 0122     		movs	r2, #1
 2636 0130 83F81521 		strb	r2, [r3, #277]
 2637              		.loc 1 1001 0
 2638 0134 089B     		ldr	r3, [sp, #32]
 2639 0136 DAB2     		uxtb	r2, r3
 2640 0138 099B     		ldr	r3, [sp, #36]
 2641 013a 83F81321 		strb	r2, [r3, #275]
 2642              		.loc 1 1003 0
 2643 013e 099B     		ldr	r3, [sp, #36]
 2644 0140 9DF81F20 		ldrb	r2, [sp, #31]
 2645 0144 83F81421 		strb	r2, [r3, #276]
 2646              	.L188:
 2647              		.loc 1 1007 0
 2648 0148 9DF92E30 		ldrsb	r3, [sp, #46]
 2649              		.loc 1 1008 0
 2650 014c 1846     		mov	r0, r3
 2651 014e 044B     		ldr	r3, .L191
 2652 0150 119A     		ldr	r2, [sp, #68]
 2653 0152 1B68     		ldr	r3, [r3]
 2654 0154 9A42     		cmp	r2, r3
 2655 0156 01D0     		beq	.L190
 2656 0158 FFF7FEFF 		bl	__stack_chk_fail
 2657              	.L190:
 2658 015c 12B0     		add	sp, sp, #72
 2659              		.cfi_def_cfa_offset 8
 2660              		@ sp needed
 2661 015e 10BD     		pop	{r4, pc}
 2662              	.L192:
 2663              		.align	2
 2664              	.L191:
 2665 0160 00000000 		.word	__stack_chk_guard
 2666              		.cfi_endproc
 2667              	.LFE17:
 2668              		.size	VL53L0X_set_reference_spads, .-VL53L0X_set_reference_spads
 2669              		.section	.text.VL53L0X_get_reference_spads,"ax",%progbits
 2670              		.align	1
 2671              		.p2align 4,,15
 2672              		.global	VL53L0X_get_reference_spads
 2673              		.syntax unified
 2674              		.thumb
 2675              		.thumb_func
 2676              		.fpu fpv4-sp-d16
 2677              		.type	VL53L0X_get_reference_spads, %function
 2678              	VL53L0X_get_reference_spads:
 2679              	.LFB18:
ARM GAS  C:\Users\PCHAUT~1\AppData\Local\Temp\ccYc6BCi.s 			page 48


 2680              		.loc 1 1012 0
 2681              		.cfi_startproc
 2682              		@ args = 0, pretend = 0, frame = 48
 2683              		@ frame_needed = 0, uses_anonymous_args = 0
 2684 0000 00B5     		push	{lr}
 2685              		.cfi_def_cfa_offset 4
 2686              		.cfi_offset 14, -4
 2687 0002 8FB0     		sub	sp, sp, #60
 2688              		.cfi_def_cfa_offset 64
 2689 0004 0590     		str	r0, [sp, #20]
 2690 0006 0491     		str	r1, [sp, #16]
 2691 0008 0392     		str	r2, [sp, #12]
 2692              		.loc 1 1012 0
 2693 000a 304B     		ldr	r3, .L198
 2694 000c 1B68     		ldr	r3, [r3]
 2695 000e 0D93     		str	r3, [sp, #52]
 2696              		.loc 1 1013 0
 2697 0010 0023     		movs	r3, #0
 2698 0012 8DF81E30 		strb	r3, [sp, #30]
 2699              		.loc 1 1016 0
 2700 0016 2C23     		movs	r3, #44
 2701 0018 0993     		str	r3, [sp, #36]
 2702              		.loc 1 1017 0
 2703 001a 0623     		movs	r3, #6
 2704 001c 0A93     		str	r3, [sp, #40]
 2705              		.loc 1 1019 0
 2706 001e 0023     		movs	r3, #0
 2707 0020 8DF81D30 		strb	r3, [sp, #29]
 2708              		.loc 1 1021 0
 2709 0024 059B     		ldr	r3, [sp, #20]
 2710 0026 93F81531 		ldrb	r3, [r3, #277]
 2711 002a 8DF81F30 		strb	r3, [sp, #31]
 2712              		.loc 1 1024 0
 2713 002e 9DF81F30 		ldrb	r3, [sp, #31]	@ zero_extendqisi2
 2714 0032 012B     		cmp	r3, #1
 2715 0034 0BD1     		bne	.L194
 2716              		.loc 1 1026 0
 2717 0036 059B     		ldr	r3, [sp, #20]
 2718 0038 93F81331 		ldrb	r3, [r3, #275]	@ zero_extendqisi2
 2719 003c 1A46     		mov	r2, r3
 2720 003e 049B     		ldr	r3, [sp, #16]
 2721 0040 1A60     		str	r2, [r3]
 2722              		.loc 1 1028 0
 2723 0042 059B     		ldr	r3, [sp, #20]
 2724 0044 93F81421 		ldrb	r2, [r3, #276]	@ zero_extendqisi2
 2725 0048 039B     		ldr	r3, [sp, #12]
 2726 004a 1A70     		strb	r2, [r3]
 2727 004c 31E0     		b	.L195
 2728              	.L194:
 2729              		.loc 1 1033 0
 2730 004e 0BAB     		add	r3, sp, #44
 2731 0050 1946     		mov	r1, r3
 2732 0052 0598     		ldr	r0, [sp, #20]
 2733 0054 FFF7FEFF 		bl	get_ref_spad_map
 2734 0058 0346     		mov	r3, r0
 2735 005a 8DF81E30 		strb	r3, [sp, #30]
 2736              		.loc 1 1035 0
ARM GAS  C:\Users\PCHAUT~1\AppData\Local\Temp\ccYc6BCi.s 			page 49


 2737 005e 9DF91E30 		ldrsb	r3, [sp, #30]
 2738 0062 002B     		cmp	r3, #0
 2739 0064 25D1     		bne	.L195
 2740              		.loc 1 1039 0
 2741 0066 08AA     		add	r2, sp, #32
 2742 0068 0BA8     		add	r0, sp, #44
 2743 006a 0DF11D03 		add	r3, sp, #29
 2744 006e 0093     		str	r3, [sp]
 2745 0070 1346     		mov	r3, r2
 2746 0072 099A     		ldr	r2, [sp, #36]
 2747 0074 0A99     		ldr	r1, [sp, #40]
 2748 0076 FFF7FEFF 		bl	count_enabled_spads
 2749 007a 0346     		mov	r3, r0
 2750 007c 8DF81E30 		strb	r3, [sp, #30]
 2751              		.loc 1 1045 0
 2752 0080 9DF91E30 		ldrsb	r3, [sp, #30]
 2753 0084 002B     		cmp	r3, #0
 2754 0086 14D1     		bne	.L195
 2755              		.loc 1 1047 0
 2756 0088 089A     		ldr	r2, [sp, #32]
 2757 008a 049B     		ldr	r3, [sp, #16]
 2758 008c 1A60     		str	r2, [r3]
 2759              		.loc 1 1048 0
 2760 008e 9DF81D20 		ldrb	r2, [sp, #29]	@ zero_extendqisi2
 2761 0092 039B     		ldr	r3, [sp, #12]
 2762 0094 1A70     		strb	r2, [r3]
 2763              		.loc 1 1050 0
 2764 0096 059B     		ldr	r3, [sp, #20]
 2765 0098 0122     		movs	r2, #1
 2766 009a 83F81521 		strb	r2, [r3, #277]
 2767              		.loc 1 1052 0
 2768 009e 089B     		ldr	r3, [sp, #32]
 2769 00a0 DAB2     		uxtb	r2, r3
 2770 00a2 059B     		ldr	r3, [sp, #20]
 2771 00a4 83F81321 		strb	r2, [r3, #275]
 2772              		.loc 1 1055 0
 2773 00a8 9DF81D20 		ldrb	r2, [sp, #29]	@ zero_extendqisi2
 2774 00ac 059B     		ldr	r3, [sp, #20]
 2775 00ae 83F81421 		strb	r2, [r3, #276]
 2776              	.L195:
 2777              		.loc 1 1061 0
 2778 00b2 9DF91E30 		ldrsb	r3, [sp, #30]
 2779              		.loc 1 1062 0
 2780 00b6 1846     		mov	r0, r3
 2781 00b8 044B     		ldr	r3, .L198
 2782 00ba 0D9A     		ldr	r2, [sp, #52]
 2783 00bc 1B68     		ldr	r3, [r3]
 2784 00be 9A42     		cmp	r2, r3
 2785 00c0 01D0     		beq	.L197
 2786 00c2 FFF7FEFF 		bl	__stack_chk_fail
 2787              	.L197:
 2788 00c6 0FB0     		add	sp, sp, #60
 2789              		.cfi_def_cfa_offset 4
 2790              		@ sp needed
 2791 00c8 5DF804FB 		ldr	pc, [sp], #4
 2792              	.L199:
 2793              		.align	2
ARM GAS  C:\Users\PCHAUT~1\AppData\Local\Temp\ccYc6BCi.s 			page 50


 2794              	.L198:
 2795 00cc 00000000 		.word	__stack_chk_guard
 2796              		.cfi_endproc
 2797              	.LFE18:
 2798              		.size	VL53L0X_get_reference_spads, .-VL53L0X_get_reference_spads
 2799              		.section	.text.VL53L0X_perform_single_ref_calibration,"ax",%progbits
 2800              		.align	1
 2801              		.p2align 4,,15
 2802              		.global	VL53L0X_perform_single_ref_calibration
 2803              		.syntax unified
 2804              		.thumb
 2805              		.thumb_func
 2806              		.fpu fpv4-sp-d16
 2807              		.type	VL53L0X_perform_single_ref_calibration, %function
 2808              	VL53L0X_perform_single_ref_calibration:
 2809              	.LFB19:
 2810              		.loc 1 1067 0
 2811              		.cfi_startproc
 2812              		@ args = 0, pretend = 0, frame = 16
 2813              		@ frame_needed = 0, uses_anonymous_args = 0
 2814 0000 00B5     		push	{lr}
 2815              		.cfi_def_cfa_offset 4
 2816              		.cfi_offset 14, -4
 2817 0002 85B0     		sub	sp, sp, #20
 2818              		.cfi_def_cfa_offset 24
 2819 0004 0190     		str	r0, [sp, #4]
 2820 0006 0B46     		mov	r3, r1
 2821 0008 8DF80330 		strb	r3, [sp, #3]
 2822              		.loc 1 1067 0
 2823 000c 224B     		ldr	r3, .L207
 2824 000e 1B68     		ldr	r3, [r3]
 2825 0010 0393     		str	r3, [sp, #12]
 2826              		.loc 1 1068 0
 2827 0012 0023     		movs	r3, #0
 2828 0014 8DF80B30 		strb	r3, [sp, #11]
 2829              		.loc 1 1070 0
 2830 0018 9DF90B30 		ldrsb	r3, [sp, #11]
 2831 001c 002B     		cmp	r3, #0
 2832 001e 0CD1     		bne	.L201
 2833              		.loc 1 1071 0
 2834 0020 9DF80330 		ldrb	r3, [sp, #3]
 2835 0024 43F00103 		orr	r3, r3, #1
 2836 0028 DBB2     		uxtb	r3, r3
 2837 002a 1A46     		mov	r2, r3
 2838 002c 0021     		movs	r1, #0
 2839 002e 0198     		ldr	r0, [sp, #4]
 2840 0030 FFF7FEFF 		bl	VL53L0X_WrByte
 2841 0034 0346     		mov	r3, r0
 2842 0036 8DF80B30 		strb	r3, [sp, #11]
 2843              	.L201:
 2844              		.loc 1 1075 0
 2845 003a 9DF90B30 		ldrsb	r3, [sp, #11]
 2846 003e 002B     		cmp	r3, #0
 2847 0040 05D1     		bne	.L202
 2848              		.loc 1 1076 0
 2849 0042 0198     		ldr	r0, [sp, #4]
 2850 0044 FFF7FEFF 		bl	VL53L0X_measurement_poll_for_completion
ARM GAS  C:\Users\PCHAUT~1\AppData\Local\Temp\ccYc6BCi.s 			page 51


 2851 0048 0346     		mov	r3, r0
 2852 004a 8DF80B30 		strb	r3, [sp, #11]
 2853              	.L202:
 2854              		.loc 1 1078 0
 2855 004e 9DF90B30 		ldrsb	r3, [sp, #11]
 2856 0052 002B     		cmp	r3, #0
 2857 0054 06D1     		bne	.L203
 2858              		.loc 1 1079 0
 2859 0056 0021     		movs	r1, #0
 2860 0058 0198     		ldr	r0, [sp, #4]
 2861 005a FFF7FEFF 		bl	VL53L0X_ClearInterruptMask
 2862 005e 0346     		mov	r3, r0
 2863 0060 8DF80B30 		strb	r3, [sp, #11]
 2864              	.L203:
 2865              		.loc 1 1081 0
 2866 0064 9DF90B30 		ldrsb	r3, [sp, #11]
 2867 0068 002B     		cmp	r3, #0
 2868 006a 07D1     		bne	.L204
 2869              		.loc 1 1082 0
 2870 006c 0022     		movs	r2, #0
 2871 006e 0021     		movs	r1, #0
 2872 0070 0198     		ldr	r0, [sp, #4]
 2873 0072 FFF7FEFF 		bl	VL53L0X_WrByte
 2874 0076 0346     		mov	r3, r0
 2875 0078 8DF80B30 		strb	r3, [sp, #11]
 2876              	.L204:
 2877              		.loc 1 1084 0
 2878 007c 9DF90B30 		ldrsb	r3, [sp, #11]
 2879              		.loc 1 1085 0
 2880 0080 1846     		mov	r0, r3
 2881 0082 054B     		ldr	r3, .L207
 2882 0084 039A     		ldr	r2, [sp, #12]
 2883 0086 1B68     		ldr	r3, [r3]
 2884 0088 9A42     		cmp	r2, r3
 2885 008a 01D0     		beq	.L206
 2886 008c FFF7FEFF 		bl	__stack_chk_fail
 2887              	.L206:
 2888 0090 05B0     		add	sp, sp, #20
 2889              		.cfi_def_cfa_offset 4
 2890              		@ sp needed
 2891 0092 5DF804FB 		ldr	pc, [sp], #4
 2892              	.L208:
 2893 0096 00BF     		.align	2
 2894              	.L207:
 2895 0098 00000000 		.word	__stack_chk_guard
 2896              		.cfi_endproc
 2897              	.LFE19:
 2898              		.size	VL53L0X_perform_single_ref_calibration, .-VL53L0X_perform_single_ref_calibration
 2899              		.section	.text.VL53L0X_ref_calibration_io,"ax",%progbits
 2900              		.align	1
 2901              		.p2align 4,,15
 2902              		.global	VL53L0X_ref_calibration_io
 2903              		.syntax unified
 2904              		.thumb
 2905              		.thumb_func
 2906              		.fpu fpv4-sp-d16
 2907              		.type	VL53L0X_ref_calibration_io, %function
ARM GAS  C:\Users\PCHAUT~1\AppData\Local\Temp\ccYc6BCi.s 			page 52


 2908              	VL53L0X_ref_calibration_io:
 2909              	.LFB20:
 2910              		.loc 1 1092 0
 2911              		.cfi_startproc
 2912              		@ args = 16, pretend = 0, frame = 32
 2913              		@ frame_needed = 0, uses_anonymous_args = 0
 2914 0000 00B5     		push	{lr}
 2915              		.cfi_def_cfa_offset 4
 2916              		.cfi_offset 14, -4
 2917 0002 89B0     		sub	sp, sp, #36
 2918              		.cfi_def_cfa_offset 40
 2919 0004 0590     		str	r0, [sp, #20]
 2920 0006 0846     		mov	r0, r1
 2921 0008 1146     		mov	r1, r2
 2922 000a 1A46     		mov	r2, r3
 2923 000c 0346     		mov	r3, r0
 2924 000e 8DF81330 		strb	r3, [sp, #19]
 2925 0012 0B46     		mov	r3, r1
 2926 0014 8DF81230 		strb	r3, [sp, #18]
 2927 0018 1346     		mov	r3, r2
 2928 001a 8DF81130 		strb	r3, [sp, #17]
 2929 001e 0A9B     		ldr	r3, [sp, #40]
 2930 0020 0393     		str	r3, [sp, #12]
 2931 0022 0B9B     		ldr	r3, [sp, #44]
 2932 0024 0293     		str	r3, [sp, #8]
 2933 0026 9DF83030 		ldrb	r3, [sp, #48]
 2934 002a 8DF81030 		strb	r3, [sp, #16]
 2935 002e 9DF83430 		ldrb	r3, [sp, #52]
 2936 0032 8DF80730 		strb	r3, [sp, #7]
 2937              		.loc 1 1092 0
 2938 0036 584B     		ldr	r3, .L217
 2939 0038 1B68     		ldr	r3, [r3]
 2940 003a 0793     		str	r3, [sp, #28]
 2941              		.loc 1 1093 0
 2942 003c 0023     		movs	r3, #0
 2943 003e 8DF81B30 		strb	r3, [sp, #27]
 2944              		.loc 1 1094 0
 2945 0042 0023     		movs	r3, #0
 2946 0044 8DF81A30 		strb	r3, [sp, #26]
 2947              		.loc 1 1097 0
 2948 0048 0122     		movs	r2, #1
 2949 004a FF21     		movs	r1, #255
 2950 004c 0598     		ldr	r0, [sp, #20]
 2951 004e FFF7FEFF 		bl	VL53L0X_WrByte
 2952 0052 0346     		mov	r3, r0
 2953 0054 1A46     		mov	r2, r3
 2954 0056 9DF81B30 		ldrb	r3, [sp, #27]
 2955 005a 1343     		orrs	r3, r3, r2
 2956 005c 8DF81B30 		strb	r3, [sp, #27]
 2957              		.loc 1 1098 0
 2958 0060 0022     		movs	r2, #0
 2959 0062 0021     		movs	r1, #0
 2960 0064 0598     		ldr	r0, [sp, #20]
 2961 0066 FFF7FEFF 		bl	VL53L0X_WrByte
 2962 006a 0346     		mov	r3, r0
 2963 006c 1A46     		mov	r2, r3
 2964 006e 9DF81B30 		ldrb	r3, [sp, #27]
ARM GAS  C:\Users\PCHAUT~1\AppData\Local\Temp\ccYc6BCi.s 			page 53


 2965 0072 1343     		orrs	r3, r3, r2
 2966 0074 8DF81B30 		strb	r3, [sp, #27]
 2967              		.loc 1 1099 0
 2968 0078 0022     		movs	r2, #0
 2969 007a FF21     		movs	r1, #255
 2970 007c 0598     		ldr	r0, [sp, #20]
 2971 007e FFF7FEFF 		bl	VL53L0X_WrByte
 2972 0082 0346     		mov	r3, r0
 2973 0084 1A46     		mov	r2, r3
 2974 0086 9DF81B30 		ldrb	r3, [sp, #27]
 2975 008a 1343     		orrs	r3, r3, r2
 2976 008c 8DF81B30 		strb	r3, [sp, #27]
 2977              		.loc 1 1101 0
 2978 0090 9DF81330 		ldrb	r3, [sp, #19]	@ zero_extendqisi2
 2979 0094 002B     		cmp	r3, #0
 2980 0096 22D0     		beq	.L210
 2981              		.loc 1 1102 0
 2982 0098 9DF81030 		ldrb	r3, [sp, #16]	@ zero_extendqisi2
 2983 009c 002B     		cmp	r3, #0
 2984 009e 0BD0     		beq	.L211
 2985              		.loc 1 1103 0
 2986 00a0 039A     		ldr	r2, [sp, #12]
 2987 00a2 CB21     		movs	r1, #203
 2988 00a4 0598     		ldr	r0, [sp, #20]
 2989 00a6 FFF7FEFF 		bl	VL53L0X_RdByte
 2990 00aa 0346     		mov	r3, r0
 2991 00ac 1A46     		mov	r2, r3
 2992 00ae 9DF81B30 		ldrb	r3, [sp, #27]
 2993 00b2 1343     		orrs	r3, r3, r2
 2994 00b4 8DF81B30 		strb	r3, [sp, #27]
 2995              	.L211:
 2996              		.loc 1 1104 0
 2997 00b8 9DF80730 		ldrb	r3, [sp, #7]	@ zero_extendqisi2
 2998 00bc 002B     		cmp	r3, #0
 2999 00be 32D0     		beq	.L213
 3000              		.loc 1 1105 0
 3001 00c0 0DF11A03 		add	r3, sp, #26
 3002 00c4 1A46     		mov	r2, r3
 3003 00c6 EE21     		movs	r1, #238
 3004 00c8 0598     		ldr	r0, [sp, #20]
 3005 00ca FFF7FEFF 		bl	VL53L0X_RdByte
 3006 00ce 0346     		mov	r3, r0
 3007 00d0 1A46     		mov	r2, r3
 3008 00d2 9DF81B30 		ldrb	r3, [sp, #27]
 3009 00d6 1343     		orrs	r3, r3, r2
 3010 00d8 8DF81B30 		strb	r3, [sp, #27]
 3011 00dc 23E0     		b	.L213
 3012              	.L210:
 3013              		.loc 1 1107 0
 3014 00de 9DF81030 		ldrb	r3, [sp, #16]	@ zero_extendqisi2
 3015 00e2 002B     		cmp	r3, #0
 3016 00e4 0DD0     		beq	.L214
 3017              		.loc 1 1108 0
 3018 00e6 9DF81230 		ldrb	r3, [sp, #18]	@ zero_extendqisi2
 3019 00ea 1A46     		mov	r2, r3
 3020 00ec CB21     		movs	r1, #203
 3021 00ee 0598     		ldr	r0, [sp, #20]
ARM GAS  C:\Users\PCHAUT~1\AppData\Local\Temp\ccYc6BCi.s 			page 54


 3022 00f0 FFF7FEFF 		bl	VL53L0X_WrByte
 3023 00f4 0346     		mov	r3, r0
 3024 00f6 1A46     		mov	r2, r3
 3025 00f8 9DF81B30 		ldrb	r3, [sp, #27]
 3026 00fc 1343     		orrs	r3, r3, r2
 3027 00fe 8DF81B30 		strb	r3, [sp, #27]
 3028              	.L214:
 3029              		.loc 1 1109 0
 3030 0102 9DF80730 		ldrb	r3, [sp, #7]	@ zero_extendqisi2
 3031 0106 002B     		cmp	r3, #0
 3032 0108 0DD0     		beq	.L213
 3033              		.loc 1 1110 0
 3034 010a 9DF81130 		ldrb	r3, [sp, #17]	@ zero_extendqisi2
 3035 010e 8022     		movs	r2, #128
 3036 0110 EE21     		movs	r1, #238
 3037 0112 0598     		ldr	r0, [sp, #20]
 3038 0114 FFF7FEFF 		bl	VL53L0X_UpdateByte
 3039 0118 0346     		mov	r3, r0
 3040 011a 1A46     		mov	r2, r3
 3041 011c 9DF81B30 		ldrb	r3, [sp, #27]
 3042 0120 1343     		orrs	r3, r3, r2
 3043 0122 8DF81B30 		strb	r3, [sp, #27]
 3044              	.L213:
 3045              		.loc 1 1113 0
 3046 0126 0122     		movs	r2, #1
 3047 0128 FF21     		movs	r1, #255
 3048 012a 0598     		ldr	r0, [sp, #20]
 3049 012c FFF7FEFF 		bl	VL53L0X_WrByte
 3050 0130 0346     		mov	r3, r0
 3051 0132 1A46     		mov	r2, r3
 3052 0134 9DF81B30 		ldrb	r3, [sp, #27]
 3053 0138 1343     		orrs	r3, r3, r2
 3054 013a 8DF81B30 		strb	r3, [sp, #27]
 3055              		.loc 1 1114 0
 3056 013e 0122     		movs	r2, #1
 3057 0140 0021     		movs	r1, #0
 3058 0142 0598     		ldr	r0, [sp, #20]
 3059 0144 FFF7FEFF 		bl	VL53L0X_WrByte
 3060 0148 0346     		mov	r3, r0
 3061 014a 1A46     		mov	r2, r3
 3062 014c 9DF81B30 		ldrb	r3, [sp, #27]
 3063 0150 1343     		orrs	r3, r3, r2
 3064 0152 8DF81B30 		strb	r3, [sp, #27]
 3065              		.loc 1 1115 0
 3066 0156 0022     		movs	r2, #0
 3067 0158 FF21     		movs	r1, #255
 3068 015a 0598     		ldr	r0, [sp, #20]
 3069 015c FFF7FEFF 		bl	VL53L0X_WrByte
 3070 0160 0346     		mov	r3, r0
 3071 0162 1A46     		mov	r2, r3
 3072 0164 9DF81B30 		ldrb	r3, [sp, #27]
 3073 0168 1343     		orrs	r3, r3, r2
 3074 016a 8DF81B30 		strb	r3, [sp, #27]
 3075              		.loc 1 1117 0
 3076 016e 9DF81A30 		ldrb	r3, [sp, #26]	@ zero_extendqisi2
 3077 0172 23F01003 		bic	r3, r3, #16
 3078 0176 DAB2     		uxtb	r2, r3
ARM GAS  C:\Users\PCHAUT~1\AppData\Local\Temp\ccYc6BCi.s 			page 55


 3079 0178 029B     		ldr	r3, [sp, #8]
 3080 017a 1A70     		strb	r2, [r3]
 3081              		.loc 1 1119 0
 3082 017c 9DF91B30 		ldrsb	r3, [sp, #27]
 3083              		.loc 1 1120 0
 3084 0180 1846     		mov	r0, r3
 3085 0182 054B     		ldr	r3, .L217
 3086 0184 079A     		ldr	r2, [sp, #28]
 3087 0186 1B68     		ldr	r3, [r3]
 3088 0188 9A42     		cmp	r2, r3
 3089 018a 01D0     		beq	.L216
 3090 018c FFF7FEFF 		bl	__stack_chk_fail
 3091              	.L216:
 3092 0190 09B0     		add	sp, sp, #36
 3093              		.cfi_def_cfa_offset 4
 3094              		@ sp needed
 3095 0192 5DF804FB 		ldr	pc, [sp], #4
 3096              	.L218:
 3097 0196 00BF     		.align	2
 3098              	.L217:
 3099 0198 00000000 		.word	__stack_chk_guard
 3100              		.cfi_endproc
 3101              	.LFE20:
 3102              		.size	VL53L0X_ref_calibration_io, .-VL53L0X_ref_calibration_io
 3103              		.section	.text.VL53L0X_perform_vhv_calibration,"ax",%progbits
 3104              		.align	1
 3105              		.p2align 4,,15
 3106              		.global	VL53L0X_perform_vhv_calibration
 3107              		.syntax unified
 3108              		.thumb
 3109              		.thumb_func
 3110              		.fpu fpv4-sp-d16
 3111              		.type	VL53L0X_perform_vhv_calibration, %function
 3112              	VL53L0X_perform_vhv_calibration:
 3113              	.LFB21:
 3114              		.loc 1 1126 0
 3115              		.cfi_startproc
 3116              		@ args = 0, pretend = 0, frame = 32
 3117              		@ frame_needed = 0, uses_anonymous_args = 0
 3118 0000 00B5     		push	{lr}
 3119              		.cfi_def_cfa_offset 4
 3120              		.cfi_offset 14, -4
 3121 0002 8DB0     		sub	sp, sp, #52
 3122              		.cfi_def_cfa_offset 56
 3123 0004 0790     		str	r0, [sp, #28]
 3124 0006 0691     		str	r1, [sp, #24]
 3125 0008 1146     		mov	r1, r2
 3126 000a 1A46     		mov	r2, r3
 3127 000c 0B46     		mov	r3, r1
 3128 000e 8DF81730 		strb	r3, [sp, #23]
 3129 0012 1346     		mov	r3, r2
 3130 0014 8DF81630 		strb	r3, [sp, #22]
 3131              		.loc 1 1126 0
 3132 0018 3B4B     		ldr	r3, .L227
 3133 001a 1B68     		ldr	r3, [r3]
 3134 001c 0B93     		str	r3, [sp, #44]
 3135              		.loc 1 1127 0
ARM GAS  C:\Users\PCHAUT~1\AppData\Local\Temp\ccYc6BCi.s 			page 56


 3136 001e 0023     		movs	r3, #0
 3137 0020 8DF82830 		strb	r3, [sp, #40]
 3138              		.loc 1 1128 0
 3139 0024 0023     		movs	r3, #0
 3140 0026 8DF82930 		strb	r3, [sp, #41]
 3141              		.loc 1 1129 0
 3142 002a 0023     		movs	r3, #0
 3143 002c 8DF82A30 		strb	r3, [sp, #42]
 3144              		.loc 1 1130 0
 3145 0030 0023     		movs	r3, #0
 3146 0032 8DF82B30 		strb	r3, [sp, #43]
 3147              		.loc 1 1131 0
 3148 0036 0023     		movs	r3, #0
 3149 0038 8DF82730 		strb	r3, [sp, #39]
 3150              		.loc 1 1137 0
 3151 003c 9DF81630 		ldrb	r3, [sp, #22]	@ zero_extendqisi2
 3152 0040 002B     		cmp	r3, #0
 3153 0042 04D0     		beq	.L220
 3154              		.loc 1 1138 0
 3155 0044 079B     		ldr	r3, [sp, #28]
 3156 0046 93F83031 		ldrb	r3, [r3, #304]
 3157 004a 8DF82930 		strb	r3, [sp, #41]
 3158              	.L220:
 3159              		.loc 1 1141 0
 3160 004e 0122     		movs	r2, #1
 3161 0050 0121     		movs	r1, #1
 3162 0052 0798     		ldr	r0, [sp, #28]
 3163 0054 FFF7FEFF 		bl	VL53L0X_WrByte
 3164 0058 0346     		mov	r3, r0
 3165 005a 8DF82830 		strb	r3, [sp, #40]
 3166              		.loc 1 1143 0
 3167 005e 9DF92830 		ldrsb	r3, [sp, #40]
 3168 0062 002B     		cmp	r3, #0
 3169 0064 06D1     		bne	.L221
 3170              		.loc 1 1144 0
 3171 0066 4021     		movs	r1, #64
 3172 0068 0798     		ldr	r0, [sp, #28]
 3173 006a FFF7FEFF 		bl	VL53L0X_perform_single_ref_calibration
 3174 006e 0346     		mov	r3, r0
 3175 0070 8DF82830 		strb	r3, [sp, #40]
 3176              	.L221:
 3177              		.loc 1 1147 0
 3178 0074 9DF92830 		ldrsb	r3, [sp, #40]
 3179 0078 002B     		cmp	r3, #0
 3180 007a 19D1     		bne	.L222
 3181              		.loc 1 1147 0 is_stmt 0 discriminator 1
 3182 007c 9DF81730 		ldrb	r3, [sp, #23]	@ zero_extendqisi2
 3183 0080 012B     		cmp	r3, #1
 3184 0082 15D1     		bne	.L222
 3185              		.loc 1 1148 0 is_stmt 1
 3186 0084 9DF82B10 		ldrb	r1, [sp, #43]	@ zero_extendqisi2
 3187 0088 9DF82A20 		ldrb	r2, [sp, #42]	@ zero_extendqisi2
 3188 008c 0023     		movs	r3, #0
 3189 008e 0393     		str	r3, [sp, #12]
 3190 0090 0123     		movs	r3, #1
 3191 0092 0293     		str	r3, [sp, #8]
 3192 0094 0DF12703 		add	r3, sp, #39
ARM GAS  C:\Users\PCHAUT~1\AppData\Local\Temp\ccYc6BCi.s 			page 57


 3193 0098 0193     		str	r3, [sp, #4]
 3194 009a 069B     		ldr	r3, [sp, #24]
 3195 009c 0093     		str	r3, [sp]
 3196 009e 0B46     		mov	r3, r1
 3197 00a0 0121     		movs	r1, #1
 3198 00a2 0798     		ldr	r0, [sp, #28]
 3199 00a4 FFF7FEFF 		bl	VL53L0X_ref_calibration_io
 3200 00a8 0346     		mov	r3, r0
 3201 00aa 8DF82830 		strb	r3, [sp, #40]
 3202 00ae 02E0     		b	.L223
 3203              	.L222:
 3204              		.loc 1 1153 0
 3205 00b0 069B     		ldr	r3, [sp, #24]
 3206 00b2 0022     		movs	r2, #0
 3207 00b4 1A70     		strb	r2, [r3]
 3208              	.L223:
 3209              		.loc 1 1156 0
 3210 00b6 9DF92830 		ldrsb	r3, [sp, #40]
 3211 00ba 002B     		cmp	r3, #0
 3212 00bc 16D1     		bne	.L224
 3213              		.loc 1 1156 0 is_stmt 0 discriminator 1
 3214 00be 9DF81630 		ldrb	r3, [sp, #22]	@ zero_extendqisi2
 3215 00c2 002B     		cmp	r3, #0
 3216 00c4 12D0     		beq	.L224
 3217              		.loc 1 1158 0 is_stmt 1
 3218 00c6 9DF82930 		ldrb	r3, [sp, #41]	@ zero_extendqisi2
 3219 00ca 1A46     		mov	r2, r3
 3220 00cc 0121     		movs	r1, #1
 3221 00ce 0798     		ldr	r0, [sp, #28]
 3222 00d0 FFF7FEFF 		bl	VL53L0X_WrByte
 3223 00d4 0346     		mov	r3, r0
 3224 00d6 8DF82830 		strb	r3, [sp, #40]
 3225              		.loc 1 1160 0
 3226 00da 9DF92830 		ldrsb	r3, [sp, #40]
 3227 00de 002B     		cmp	r3, #0
 3228 00e0 04D1     		bne	.L224
 3229              		.loc 1 1161 0
 3230 00e2 079B     		ldr	r3, [sp, #28]
 3231 00e4 9DF82920 		ldrb	r2, [sp, #41]
 3232 00e8 83F83021 		strb	r2, [r3, #304]
 3233              	.L224:
 3234              		.loc 1 1165 0
 3235 00ec 9DF92830 		ldrsb	r3, [sp, #40]
 3236              		.loc 1 1166 0
 3237 00f0 1846     		mov	r0, r3
 3238 00f2 054B     		ldr	r3, .L227
 3239 00f4 0B9A     		ldr	r2, [sp, #44]
 3240 00f6 1B68     		ldr	r3, [r3]
 3241 00f8 9A42     		cmp	r2, r3
 3242 00fa 01D0     		beq	.L226
 3243 00fc FFF7FEFF 		bl	__stack_chk_fail
 3244              	.L226:
 3245 0100 0DB0     		add	sp, sp, #52
 3246              		.cfi_def_cfa_offset 4
 3247              		@ sp needed
 3248 0102 5DF804FB 		ldr	pc, [sp], #4
 3249              	.L228:
ARM GAS  C:\Users\PCHAUT~1\AppData\Local\Temp\ccYc6BCi.s 			page 58


 3250 0106 00BF     		.align	2
 3251              	.L227:
 3252 0108 00000000 		.word	__stack_chk_guard
 3253              		.cfi_endproc
 3254              	.LFE21:
 3255              		.size	VL53L0X_perform_vhv_calibration, .-VL53L0X_perform_vhv_calibration
 3256              		.section	.text.VL53L0X_perform_phase_calibration,"ax",%progbits
 3257              		.align	1
 3258              		.p2align 4,,15
 3259              		.global	VL53L0X_perform_phase_calibration
 3260              		.syntax unified
 3261              		.thumb
 3262              		.thumb_func
 3263              		.fpu fpv4-sp-d16
 3264              		.type	VL53L0X_perform_phase_calibration, %function
 3265              	VL53L0X_perform_phase_calibration:
 3266              	.LFB22:
 3267              		.loc 1 1171 0
 3268              		.cfi_startproc
 3269              		@ args = 0, pretend = 0, frame = 32
 3270              		@ frame_needed = 0, uses_anonymous_args = 0
 3271 0000 00B5     		push	{lr}
 3272              		.cfi_def_cfa_offset 4
 3273              		.cfi_offset 14, -4
 3274 0002 8DB0     		sub	sp, sp, #52
 3275              		.cfi_def_cfa_offset 56
 3276 0004 0790     		str	r0, [sp, #28]
 3277 0006 0691     		str	r1, [sp, #24]
 3278 0008 1146     		mov	r1, r2
 3279 000a 1A46     		mov	r2, r3
 3280 000c 0B46     		mov	r3, r1
 3281 000e 8DF81730 		strb	r3, [sp, #23]
 3282 0012 1346     		mov	r3, r2
 3283 0014 8DF81630 		strb	r3, [sp, #22]
 3284              		.loc 1 1171 0
 3285 0018 394B     		ldr	r3, .L237
 3286 001a 1B68     		ldr	r3, [r3]
 3287 001c 0B93     		str	r3, [sp, #44]
 3288              		.loc 1 1172 0
 3289 001e 0023     		movs	r3, #0
 3290 0020 8DF82830 		strb	r3, [sp, #40]
 3291              		.loc 1 1173 0
 3292 0024 0023     		movs	r3, #0
 3293 0026 8DF82930 		strb	r3, [sp, #41]
 3294              		.loc 1 1174 0
 3295 002a 0023     		movs	r3, #0
 3296 002c 8DF82A30 		strb	r3, [sp, #42]
 3297              		.loc 1 1175 0
 3298 0030 0023     		movs	r3, #0
 3299 0032 8DF82B30 		strb	r3, [sp, #43]
 3300              		.loc 1 1182 0
 3301 0036 9DF81630 		ldrb	r3, [sp, #22]	@ zero_extendqisi2
 3302 003a 002B     		cmp	r3, #0
 3303 003c 04D0     		beq	.L230
 3304              		.loc 1 1183 0
 3305 003e 079B     		ldr	r3, [sp, #28]
 3306 0040 93F83031 		ldrb	r3, [r3, #304]
ARM GAS  C:\Users\PCHAUT~1\AppData\Local\Temp\ccYc6BCi.s 			page 59


 3307 0044 8DF82930 		strb	r3, [sp, #41]
 3308              	.L230:
 3309              		.loc 1 1186 0
 3310 0048 0222     		movs	r2, #2
 3311 004a 0121     		movs	r1, #1
 3312 004c 0798     		ldr	r0, [sp, #28]
 3313 004e FFF7FEFF 		bl	VL53L0X_WrByte
 3314 0052 0346     		mov	r3, r0
 3315 0054 8DF82830 		strb	r3, [sp, #40]
 3316              		.loc 1 1188 0
 3317 0058 9DF92830 		ldrsb	r3, [sp, #40]
 3318 005c 002B     		cmp	r3, #0
 3319 005e 06D1     		bne	.L231
 3320              		.loc 1 1189 0
 3321 0060 0021     		movs	r1, #0
 3322 0062 0798     		ldr	r0, [sp, #28]
 3323 0064 FFF7FEFF 		bl	VL53L0X_perform_single_ref_calibration
 3324 0068 0346     		mov	r3, r0
 3325 006a 8DF82830 		strb	r3, [sp, #40]
 3326              	.L231:
 3327              		.loc 1 1192 0
 3328 006e 9DF92830 		ldrsb	r3, [sp, #40]
 3329 0072 002B     		cmp	r3, #0
 3330 0074 19D1     		bne	.L232
 3331              		.loc 1 1192 0 is_stmt 0 discriminator 1
 3332 0076 9DF81730 		ldrb	r3, [sp, #23]	@ zero_extendqisi2
 3333 007a 012B     		cmp	r3, #1
 3334 007c 15D1     		bne	.L232
 3335              		.loc 1 1193 0 is_stmt 1
 3336 007e 9DF82B10 		ldrb	r1, [sp, #43]	@ zero_extendqisi2
 3337 0082 9DF82A20 		ldrb	r2, [sp, #42]	@ zero_extendqisi2
 3338 0086 0123     		movs	r3, #1
 3339 0088 0393     		str	r3, [sp, #12]
 3340 008a 0023     		movs	r3, #0
 3341 008c 0293     		str	r3, [sp, #8]
 3342 008e 069B     		ldr	r3, [sp, #24]
 3343 0090 0193     		str	r3, [sp, #4]
 3344 0092 0DF12703 		add	r3, sp, #39
 3345 0096 0093     		str	r3, [sp]
 3346 0098 0B46     		mov	r3, r1
 3347 009a 0121     		movs	r1, #1
 3348 009c 0798     		ldr	r0, [sp, #28]
 3349 009e FFF7FEFF 		bl	VL53L0X_ref_calibration_io
 3350 00a2 0346     		mov	r3, r0
 3351 00a4 8DF82830 		strb	r3, [sp, #40]
 3352 00a8 02E0     		b	.L233
 3353              	.L232:
 3354              		.loc 1 1198 0
 3355 00aa 069B     		ldr	r3, [sp, #24]
 3356 00ac 0022     		movs	r2, #0
 3357 00ae 1A70     		strb	r2, [r3]
 3358              	.L233:
 3359              		.loc 1 1201 0
 3360 00b0 9DF92830 		ldrsb	r3, [sp, #40]
 3361 00b4 002B     		cmp	r3, #0
 3362 00b6 16D1     		bne	.L234
 3363              		.loc 1 1201 0 is_stmt 0 discriminator 1
ARM GAS  C:\Users\PCHAUT~1\AppData\Local\Temp\ccYc6BCi.s 			page 60


 3364 00b8 9DF81630 		ldrb	r3, [sp, #22]	@ zero_extendqisi2
 3365 00bc 002B     		cmp	r3, #0
 3366 00be 12D0     		beq	.L234
 3367              		.loc 1 1203 0 is_stmt 1
 3368 00c0 9DF82930 		ldrb	r3, [sp, #41]	@ zero_extendqisi2
 3369 00c4 1A46     		mov	r2, r3
 3370 00c6 0121     		movs	r1, #1
 3371 00c8 0798     		ldr	r0, [sp, #28]
 3372 00ca FFF7FEFF 		bl	VL53L0X_WrByte
 3373 00ce 0346     		mov	r3, r0
 3374 00d0 8DF82830 		strb	r3, [sp, #40]
 3375              		.loc 1 1205 0
 3376 00d4 9DF92830 		ldrsb	r3, [sp, #40]
 3377 00d8 002B     		cmp	r3, #0
 3378 00da 04D1     		bne	.L234
 3379              		.loc 1 1206 0
 3380 00dc 079B     		ldr	r3, [sp, #28]
 3381 00de 9DF82920 		ldrb	r2, [sp, #41]
 3382 00e2 83F83021 		strb	r2, [r3, #304]
 3383              	.L234:
 3384              		.loc 1 1210 0
 3385 00e6 9DF92830 		ldrsb	r3, [sp, #40]
 3386              		.loc 1 1211 0
 3387 00ea 1846     		mov	r0, r3
 3388 00ec 044B     		ldr	r3, .L237
 3389 00ee 0B9A     		ldr	r2, [sp, #44]
 3390 00f0 1B68     		ldr	r3, [r3]
 3391 00f2 9A42     		cmp	r2, r3
 3392 00f4 01D0     		beq	.L236
 3393 00f6 FFF7FEFF 		bl	__stack_chk_fail
 3394              	.L236:
 3395 00fa 0DB0     		add	sp, sp, #52
 3396              		.cfi_def_cfa_offset 4
 3397              		@ sp needed
 3398 00fc 5DF804FB 		ldr	pc, [sp], #4
 3399              	.L238:
 3400              		.align	2
 3401              	.L237:
 3402 0100 00000000 		.word	__stack_chk_guard
 3403              		.cfi_endproc
 3404              	.LFE22:
 3405              		.size	VL53L0X_perform_phase_calibration, .-VL53L0X_perform_phase_calibration
 3406              		.section	.text.VL53L0X_perform_ref_calibration,"ax",%progbits
 3407              		.align	1
 3408              		.p2align 4,,15
 3409              		.global	VL53L0X_perform_ref_calibration
 3410              		.syntax unified
 3411              		.thumb
 3412              		.thumb_func
 3413              		.fpu fpv4-sp-d16
 3414              		.type	VL53L0X_perform_ref_calibration, %function
 3415              	VL53L0X_perform_ref_calibration:
 3416              	.LFB23:
 3417              		.loc 1 1215 0
 3418              		.cfi_startproc
 3419              		@ args = 0, pretend = 0, frame = 24
 3420              		@ frame_needed = 0, uses_anonymous_args = 0
ARM GAS  C:\Users\PCHAUT~1\AppData\Local\Temp\ccYc6BCi.s 			page 61


 3421 0000 00B5     		push	{lr}
 3422              		.cfi_def_cfa_offset 4
 3423              		.cfi_offset 14, -4
 3424 0002 87B0     		sub	sp, sp, #28
 3425              		.cfi_def_cfa_offset 32
 3426 0004 0390     		str	r0, [sp, #12]
 3427 0006 0291     		str	r1, [sp, #8]
 3428 0008 0192     		str	r2, [sp, #4]
 3429 000a 8DF80330 		strb	r3, [sp, #3]
 3430              		.loc 1 1215 0
 3431 000e 254B     		ldr	r3, .L244
 3432 0010 1B68     		ldr	r3, [r3]
 3433 0012 0593     		str	r3, [sp, #20]
 3434              		.loc 1 1216 0
 3435 0014 0023     		movs	r3, #0
 3436 0016 8DF81230 		strb	r3, [sp, #18]
 3437              		.loc 1 1217 0
 3438 001a 0023     		movs	r3, #0
 3439 001c 8DF81330 		strb	r3, [sp, #19]
 3440              		.loc 1 1223 0
 3441 0020 039B     		ldr	r3, [sp, #12]
 3442 0022 93F83031 		ldrb	r3, [r3, #304]
 3443 0026 8DF81330 		strb	r3, [sp, #19]
 3444              		.loc 1 1227 0
 3445 002a 9DF80320 		ldrb	r2, [sp, #3]	@ zero_extendqisi2
 3446 002e 0023     		movs	r3, #0
 3447 0030 0299     		ldr	r1, [sp, #8]
 3448 0032 0398     		ldr	r0, [sp, #12]
 3449 0034 FFF7FEFF 		bl	VL53L0X_perform_vhv_calibration
 3450 0038 0346     		mov	r3, r0
 3451 003a 8DF81230 		strb	r3, [sp, #18]
 3452              		.loc 1 1231 0
 3453 003e 9DF91230 		ldrsb	r3, [sp, #18]
 3454 0042 002B     		cmp	r3, #0
 3455 0044 09D1     		bne	.L240
 3456              		.loc 1 1232 0
 3457 0046 9DF80320 		ldrb	r2, [sp, #3]	@ zero_extendqisi2
 3458 004a 0023     		movs	r3, #0
 3459 004c 0199     		ldr	r1, [sp, #4]
 3460 004e 0398     		ldr	r0, [sp, #12]
 3461 0050 FFF7FEFF 		bl	VL53L0X_perform_phase_calibration
 3462 0054 0346     		mov	r3, r0
 3463 0056 8DF81230 		strb	r3, [sp, #18]
 3464              	.L240:
 3465              		.loc 1 1236 0
 3466 005a 9DF91230 		ldrsb	r3, [sp, #18]
 3467 005e 002B     		cmp	r3, #0
 3468 0060 12D1     		bne	.L241
 3469              		.loc 1 1238 0
 3470 0062 9DF81330 		ldrb	r3, [sp, #19]	@ zero_extendqisi2
 3471 0066 1A46     		mov	r2, r3
 3472 0068 0121     		movs	r1, #1
 3473 006a 0398     		ldr	r0, [sp, #12]
 3474 006c FFF7FEFF 		bl	VL53L0X_WrByte
 3475 0070 0346     		mov	r3, r0
 3476 0072 8DF81230 		strb	r3, [sp, #18]
 3477              		.loc 1 1240 0
ARM GAS  C:\Users\PCHAUT~1\AppData\Local\Temp\ccYc6BCi.s 			page 62


 3478 0076 9DF91230 		ldrsb	r3, [sp, #18]
 3479 007a 002B     		cmp	r3, #0
 3480 007c 04D1     		bne	.L241
 3481              		.loc 1 1241 0
 3482 007e 039B     		ldr	r3, [sp, #12]
 3483 0080 9DF81320 		ldrb	r2, [sp, #19]
 3484 0084 83F83021 		strb	r2, [r3, #304]
 3485              	.L241:
 3486              		.loc 1 1245 0
 3487 0088 9DF91230 		ldrsb	r3, [sp, #18]
 3488              		.loc 1 1246 0
 3489 008c 1846     		mov	r0, r3
 3490 008e 054B     		ldr	r3, .L244
 3491 0090 059A     		ldr	r2, [sp, #20]
 3492 0092 1B68     		ldr	r3, [r3]
 3493 0094 9A42     		cmp	r2, r3
 3494 0096 01D0     		beq	.L243
 3495 0098 FFF7FEFF 		bl	__stack_chk_fail
 3496              	.L243:
 3497 009c 07B0     		add	sp, sp, #28
 3498              		.cfi_def_cfa_offset 4
 3499              		@ sp needed
 3500 009e 5DF804FB 		ldr	pc, [sp], #4
 3501              	.L245:
 3502 00a2 00BF     		.align	2
 3503              	.L244:
 3504 00a4 00000000 		.word	__stack_chk_guard
 3505              		.cfi_endproc
 3506              	.LFE23:
 3507              		.size	VL53L0X_perform_ref_calibration, .-VL53L0X_perform_ref_calibration
 3508              		.section	.text.VL53L0X_set_ref_calibration,"ax",%progbits
 3509              		.align	1
 3510              		.p2align 4,,15
 3511              		.global	VL53L0X_set_ref_calibration
 3512              		.syntax unified
 3513              		.thumb
 3514              		.thumb_func
 3515              		.fpu fpv4-sp-d16
 3516              		.type	VL53L0X_set_ref_calibration, %function
 3517              	VL53L0X_set_ref_calibration:
 3518              	.LFB24:
 3519              		.loc 1 1250 0
 3520              		.cfi_startproc
 3521              		@ args = 0, pretend = 0, frame = 16
 3522              		@ frame_needed = 0, uses_anonymous_args = 0
 3523 0000 00B5     		push	{lr}
 3524              		.cfi_def_cfa_offset 4
 3525              		.cfi_offset 14, -4
 3526 0002 89B0     		sub	sp, sp, #36
 3527              		.cfi_def_cfa_offset 40
 3528 0004 0590     		str	r0, [sp, #20]
 3529 0006 0B46     		mov	r3, r1
 3530 0008 8DF81330 		strb	r3, [sp, #19]
 3531 000c 1346     		mov	r3, r2
 3532 000e 8DF81230 		strb	r3, [sp, #18]
 3533              		.loc 1 1250 0
 3534 0012 144B     		ldr	r3, .L249
ARM GAS  C:\Users\PCHAUT~1\AppData\Local\Temp\ccYc6BCi.s 			page 63


 3535 0014 1B68     		ldr	r3, [r3]
 3536 0016 0793     		str	r3, [sp, #28]
 3537              		.loc 1 1251 0
 3538 0018 0023     		movs	r3, #0
 3539 001a 8DF81B30 		strb	r3, [sp, #27]
 3540              		.loc 1 1255 0
 3541 001e 9DF81210 		ldrb	r1, [sp, #18]	@ zero_extendqisi2
 3542 0022 9DF81320 		ldrb	r2, [sp, #19]	@ zero_extendqisi2
 3543 0026 0123     		movs	r3, #1
 3544 0028 0393     		str	r3, [sp, #12]
 3545 002a 0123     		movs	r3, #1
 3546 002c 0293     		str	r3, [sp, #8]
 3547 002e 0DF11A03 		add	r3, sp, #26
 3548 0032 0193     		str	r3, [sp, #4]
 3549 0034 0DF11903 		add	r3, sp, #25
 3550 0038 0093     		str	r3, [sp]
 3551 003a 0B46     		mov	r3, r1
 3552 003c 0021     		movs	r1, #0
 3553 003e 0598     		ldr	r0, [sp, #20]
 3554 0040 FFF7FEFF 		bl	VL53L0X_ref_calibration_io
 3555 0044 0346     		mov	r3, r0
 3556 0046 8DF81B30 		strb	r3, [sp, #27]
 3557              		.loc 1 1260 0
 3558 004a 9DF91B30 		ldrsb	r3, [sp, #27]
 3559              		.loc 1 1261 0
 3560 004e 1846     		mov	r0, r3
 3561 0050 044B     		ldr	r3, .L249
 3562 0052 079A     		ldr	r2, [sp, #28]
 3563 0054 1B68     		ldr	r3, [r3]
 3564 0056 9A42     		cmp	r2, r3
 3565 0058 01D0     		beq	.L248
 3566 005a FFF7FEFF 		bl	__stack_chk_fail
 3567              	.L248:
 3568 005e 09B0     		add	sp, sp, #36
 3569              		.cfi_def_cfa_offset 4
 3570              		@ sp needed
 3571 0060 5DF804FB 		ldr	pc, [sp], #4
 3572              	.L250:
 3573              		.align	2
 3574              	.L249:
 3575 0064 00000000 		.word	__stack_chk_guard
 3576              		.cfi_endproc
 3577              	.LFE24:
 3578              		.size	VL53L0X_set_ref_calibration, .-VL53L0X_set_ref_calibration
 3579              		.section	.text.VL53L0X_get_ref_calibration,"ax",%progbits
 3580              		.align	1
 3581              		.p2align 4,,15
 3582              		.global	VL53L0X_get_ref_calibration
 3583              		.syntax unified
 3584              		.thumb
 3585              		.thumb_func
 3586              		.fpu fpv4-sp-d16
 3587              		.type	VL53L0X_get_ref_calibration, %function
 3588              	VL53L0X_get_ref_calibration:
 3589              	.LFB25:
 3590              		.loc 1 1265 0
 3591              		.cfi_startproc
ARM GAS  C:\Users\PCHAUT~1\AppData\Local\Temp\ccYc6BCi.s 			page 64


 3592              		@ args = 0, pretend = 0, frame = 24
 3593              		@ frame_needed = 0, uses_anonymous_args = 0
 3594 0000 00B5     		push	{lr}
 3595              		.cfi_def_cfa_offset 4
 3596              		.cfi_offset 14, -4
 3597 0002 8BB0     		sub	sp, sp, #44
 3598              		.cfi_def_cfa_offset 48
 3599 0004 0790     		str	r0, [sp, #28]
 3600 0006 0691     		str	r1, [sp, #24]
 3601 0008 0592     		str	r2, [sp, #20]
 3602              		.loc 1 1265 0
 3603 000a 164B     		ldr	r3, .L254
 3604 000c 1B68     		ldr	r3, [r3]
 3605 000e 0993     		str	r3, [sp, #36]
 3606              		.loc 1 1266 0
 3607 0010 0023     		movs	r3, #0
 3608 0012 8DF82130 		strb	r3, [sp, #33]
 3609              		.loc 1 1267 0
 3610 0016 0023     		movs	r3, #0
 3611 0018 8DF82230 		strb	r3, [sp, #34]
 3612              		.loc 1 1268 0
 3613 001c 0023     		movs	r3, #0
 3614 001e 8DF82330 		strb	r3, [sp, #35]
 3615              		.loc 1 1270 0
 3616 0022 9DF82310 		ldrb	r1, [sp, #35]	@ zero_extendqisi2
 3617 0026 9DF82220 		ldrb	r2, [sp, #34]	@ zero_extendqisi2
 3618 002a 0123     		movs	r3, #1
 3619 002c 0393     		str	r3, [sp, #12]
 3620 002e 0123     		movs	r3, #1
 3621 0030 0293     		str	r3, [sp, #8]
 3622 0032 059B     		ldr	r3, [sp, #20]
 3623 0034 0193     		str	r3, [sp, #4]
 3624 0036 069B     		ldr	r3, [sp, #24]
 3625 0038 0093     		str	r3, [sp]
 3626 003a 0B46     		mov	r3, r1
 3627 003c 0121     		movs	r1, #1
 3628 003e 0798     		ldr	r0, [sp, #28]
 3629 0040 FFF7FEFF 		bl	VL53L0X_ref_calibration_io
 3630 0044 0346     		mov	r3, r0
 3631 0046 8DF82130 		strb	r3, [sp, #33]
 3632              		.loc 1 1275 0
 3633 004a 9DF92130 		ldrsb	r3, [sp, #33]
 3634              		.loc 1 1276 0
 3635 004e 1846     		mov	r0, r3
 3636 0050 044B     		ldr	r3, .L254
 3637 0052 099A     		ldr	r2, [sp, #36]
 3638 0054 1B68     		ldr	r3, [r3]
 3639 0056 9A42     		cmp	r2, r3
 3640 0058 01D0     		beq	.L253
 3641 005a FFF7FEFF 		bl	__stack_chk_fail
 3642              	.L253:
 3643 005e 0BB0     		add	sp, sp, #44
 3644              		.cfi_def_cfa_offset 4
 3645              		@ sp needed
 3646 0060 5DF804FB 		ldr	pc, [sp], #4
 3647              	.L255:
 3648              		.align	2
ARM GAS  C:\Users\PCHAUT~1\AppData\Local\Temp\ccYc6BCi.s 			page 65


 3649              	.L254:
 3650 0064 00000000 		.word	__stack_chk_guard
 3651              		.cfi_endproc
 3652              	.LFE25:
 3653              		.size	VL53L0X_get_ref_calibration, .-VL53L0X_get_ref_calibration
 3654              		.text
 3655              	.Letext0:
 3656              		.file 2 "c:\\users\\pchautems\\documents\\robotiquetp\\eclipse_e-puck2\\tools\\gcc-arm-none-eabi-7
 3657              		.file 3 "c:\\users\\pchautems\\documents\\robotiquetp\\eclipse_e-puck2\\tools\\gcc-arm-none-eabi-7
 3658              		.file 4 "../lib/e-puck2_main-processor/src/sensors/VL53L0X/Api/core/src/../inc/vl53l0x_types.h"
 3659              		.file 5 "../lib/e-puck2_main-processor/src/sensors/VL53L0X/Api/core/src/../inc/vl53l0x_device.h"
 3660              		.file 6 "../lib/e-puck2_main-processor/src/sensors/VL53L0X/Api/core/src/../inc/vl53l0x_def.h"
 3661              		.file 7 "c:\\users\\pchautems\\documents\\robotiquetp\\eclipse_e-puck2\\tools\\gcc-arm-none-eabi-7
 3662              		.file 8 "c:\\users\\pchautems\\documents\\robotiquetp\\eclipse_e-puck2\\tools\\gcc-arm-none-eabi-7
 3663              		.file 9 "c:\\users\\pchautems\\documents\\robotiquetp\\eclipse_e-puck2\\tools\\gcc-arm-none-eabi-7
 3664              		.file 10 "c:\\users\\pchautems\\documents\\robotiquetp\\eclipse_e-puck2\\tools\\gcc-arm-none-eabi-
 3665              		.file 11 "../lib/e-puck2_main-processor/src/sensors/VL53L0X/Api/core/src/../inc/../../platform/inc
 3666              		.file 12 "c:\\users\\pchautems\\documents\\robotiquetp\\eclipse_e-puck2\\tools\\gcc-arm-none-eabi-