ARM GAS  C:\Users\PCHAUT~1\AppData\Local\Temp\ccIbTcpS.s 			page 1


   1              		.cpu cortex-m4
   2              		.eabi_attribute 27, 1
   3              		.eabi_attribute 28, 1
   4              		.eabi_attribute 20, 1
   5              		.eabi_attribute 21, 1
   6              		.eabi_attribute 23, 3
   7              		.eabi_attribute 24, 1
   8              		.eabi_attribute 25, 1
   9              		.eabi_attribute 26, 1
  10              		.eabi_attribute 30, 6
  11              		.eabi_attribute 34, 1
  12              		.eabi_attribute 18, 4
  13              		.file	"vm-buffer.c"
  14              		.text
  15              	.Ltext0:
  16              		.cfi_sections	.debug_frame
  17              		.section	.bss.buffer,"aw",%nobits
  18              		.align	2
  19              		.type	buffer, %object
  20              		.size	buffer, 518
  21              	buffer:
  22 0000 00000000 		.space	518
  22      00000000 
  22      00000000 
  22      00000000 
  22      00000000 
  23              		.section	.bss.buffer_pos,"aw",%nobits
  24              		.align	2
  25              		.type	buffer_pos, %object
  26              		.size	buffer_pos, 4
  27              	buffer_pos:
  28 0000 00000000 		.space	4
  29              		.section	.text.buffer_add,"ax",%progbits
  30              		.align	1
  31              		.p2align 4,,15
  32              		.syntax unified
  33              		.thumb
  34              		.thumb_func
  35              		.fpu fpv4-sp-d16
  36              		.type	buffer_add, %function
  37              	buffer_add:
  38              	.LFB1:
  39              		.file 1 "../lib/e-puck2_main-processor/aseba/transport/buffer/vm-buffer.c"
  40              		.loc 1 31 0
  41              		.cfi_startproc
  42              		@ args = 0, pretend = 0, frame = 16
  43              		@ frame_needed = 0, uses_anonymous_args = 0
  44 0000 00B5     		push	{lr}
  45              		.cfi_def_cfa_offset 4
  46              		.cfi_offset 14, -4
  47 0002 85B0     		sub	sp, sp, #20
  48              		.cfi_def_cfa_offset 24
  49 0004 0190     		str	r0, [sp, #4]
  50 0006 0B46     		mov	r3, r1
  51 0008 ADF80230 		strh	r3, [sp, #2]	@ movhi
  52              		.loc 1 31 0
  53 000c 134B     		ldr	r3, .L5
ARM GAS  C:\Users\PCHAUT~1\AppData\Local\Temp\ccIbTcpS.s 			page 2


  54 000e 1B68     		ldr	r3, [r3]
  55 0010 0393     		str	r3, [sp, #12]
  56              		.loc 1 32 0
  57 0012 0023     		movs	r3, #0
  58 0014 ADF80A30 		strh	r3, [sp, #10]	@ movhi
  59              		.loc 1 33 0
  60 0018 0FE0     		b	.L2
  61              	.L3:
  62              		.loc 1 41 0
  63 001a BDF80A30 		ldrh	r3, [sp, #10]
  64 001e 5A1C     		adds	r2, r3, #1
  65 0020 ADF80A20 		strh	r2, [sp, #10]	@ movhi
  66 0024 1A46     		mov	r2, r3
  67 0026 019B     		ldr	r3, [sp, #4]
  68 0028 1A44     		add	r2, r2, r3
  69 002a 0D4B     		ldr	r3, .L5+4
  70 002c 1B68     		ldr	r3, [r3]
  71 002e 591C     		adds	r1, r3, #1
  72 0030 0B48     		ldr	r0, .L5+4
  73 0032 0160     		str	r1, [r0]
  74 0034 1178     		ldrb	r1, [r2]	@ zero_extendqisi2
  75 0036 0B4A     		ldr	r2, .L5+8
  76 0038 D154     		strb	r1, [r2, r3]
  77              	.L2:
  78              		.loc 1 33 0
  79 003a BDF80A20 		ldrh	r2, [sp, #10]
  80 003e BDF80230 		ldrh	r3, [sp, #2]
  81 0042 9A42     		cmp	r2, r3
  82 0044 E9D3     		bcc	.L3
  83              		.loc 1 43 0
  84 0046 00BF     		nop
  85 0048 044B     		ldr	r3, .L5
  86 004a 039A     		ldr	r2, [sp, #12]
  87 004c 1B68     		ldr	r3, [r3]
  88 004e 9A42     		cmp	r2, r3
  89 0050 01D0     		beq	.L4
  90 0052 FFF7FEFF 		bl	__stack_chk_fail
  91              	.L4:
  92 0056 05B0     		add	sp, sp, #20
  93              		.cfi_def_cfa_offset 4
  94              		@ sp needed
  95 0058 5DF804FB 		ldr	pc, [sp], #4
  96              	.L6:
  97              		.align	2
  98              	.L5:
  99 005c 00000000 		.word	__stack_chk_guard
 100 0060 00000000 		.word	buffer_pos
 101 0064 00000000 		.word	buffer
 102              		.cfi_endproc
 103              	.LFE1:
 104              		.size	buffer_add, .-buffer_add
 105              		.section	.text.buffer_add_uint8,"ax",%progbits
 106              		.align	1
 107              		.p2align 4,,15
 108              		.syntax unified
 109              		.thumb
 110              		.thumb_func
ARM GAS  C:\Users\PCHAUT~1\AppData\Local\Temp\ccIbTcpS.s 			page 3


 111              		.fpu fpv4-sp-d16
 112              		.type	buffer_add_uint8, %function
 113              	buffer_add_uint8:
 114              	.LFB2:
 115              		.loc 1 46 0
 116              		.cfi_startproc
 117              		@ args = 0, pretend = 0, frame = 16
 118              		@ frame_needed = 0, uses_anonymous_args = 0
 119 0000 00B5     		push	{lr}
 120              		.cfi_def_cfa_offset 4
 121              		.cfi_offset 14, -4
 122 0002 85B0     		sub	sp, sp, #20
 123              		.cfi_def_cfa_offset 24
 124 0004 0346     		mov	r3, r0
 125 0006 8DF80730 		strb	r3, [sp, #7]
 126              		.loc 1 46 0
 127 000a 0A4B     		ldr	r3, .L9
 128 000c 1B68     		ldr	r3, [r3]
 129 000e 0393     		str	r3, [sp, #12]
 130              		.loc 1 47 0
 131 0010 0DF10703 		add	r3, sp, #7
 132 0014 0121     		movs	r1, #1
 133 0016 1846     		mov	r0, r3
 134 0018 FFF7FEFF 		bl	buffer_add
 135              		.loc 1 48 0
 136 001c 00BF     		nop
 137 001e 054B     		ldr	r3, .L9
 138 0020 039A     		ldr	r2, [sp, #12]
 139 0022 1B68     		ldr	r3, [r3]
 140 0024 9A42     		cmp	r2, r3
 141 0026 01D0     		beq	.L8
 142 0028 FFF7FEFF 		bl	__stack_chk_fail
 143              	.L8:
 144 002c 05B0     		add	sp, sp, #20
 145              		.cfi_def_cfa_offset 4
 146              		@ sp needed
 147 002e 5DF804FB 		ldr	pc, [sp], #4
 148              	.L10:
 149 0032 00BF     		.align	2
 150              	.L9:
 151 0034 00000000 		.word	__stack_chk_guard
 152              		.cfi_endproc
 153              	.LFE2:
 154              		.size	buffer_add_uint8, .-buffer_add_uint8
 155              		.section	.text.buffer_add_uint16,"ax",%progbits
 156              		.align	1
 157              		.p2align 4,,15
 158              		.syntax unified
 159              		.thumb
 160              		.thumb_func
 161              		.fpu fpv4-sp-d16
 162              		.type	buffer_add_uint16, %function
 163              	buffer_add_uint16:
 164              	.LFB3:
 165              		.loc 1 51 0
 166              		.cfi_startproc
 167              		@ args = 0, pretend = 0, frame = 16
ARM GAS  C:\Users\PCHAUT~1\AppData\Local\Temp\ccIbTcpS.s 			page 4


 168              		@ frame_needed = 0, uses_anonymous_args = 0
 169 0000 00B5     		push	{lr}
 170              		.cfi_def_cfa_offset 4
 171              		.cfi_offset 14, -4
 172 0002 85B0     		sub	sp, sp, #20
 173              		.cfi_def_cfa_offset 24
 174 0004 0346     		mov	r3, r0
 175 0006 ADF80630 		strh	r3, [sp, #6]	@ movhi
 176              		.loc 1 51 0
 177 000a 0C4B     		ldr	r3, .L13
 178 000c 1B68     		ldr	r3, [r3]
 179 000e 0393     		str	r3, [sp, #12]
 180              		.loc 1 52 0
 181 0010 BDF80630 		ldrh	r3, [sp, #6]	@ movhi
 182 0014 ADF80A30 		strh	r3, [sp, #10]	@ movhi
 183              		.loc 1 53 0
 184 0018 0DF10A03 		add	r3, sp, #10
 185 001c 0221     		movs	r1, #2
 186 001e 1846     		mov	r0, r3
 187 0020 FFF7FEFF 		bl	buffer_add
 188              		.loc 1 54 0
 189 0024 00BF     		nop
 190 0026 054B     		ldr	r3, .L13
 191 0028 039A     		ldr	r2, [sp, #12]
 192 002a 1B68     		ldr	r3, [r3]
 193 002c 9A42     		cmp	r2, r3
 194 002e 01D0     		beq	.L12
 195 0030 FFF7FEFF 		bl	__stack_chk_fail
 196              	.L12:
 197 0034 05B0     		add	sp, sp, #20
 198              		.cfi_def_cfa_offset 4
 199              		@ sp needed
 200 0036 5DF804FB 		ldr	pc, [sp], #4
 201              	.L14:
 202 003a 00BF     		.align	2
 203              	.L13:
 204 003c 00000000 		.word	__stack_chk_guard
 205              		.cfi_endproc
 206              	.LFE3:
 207              		.size	buffer_add_uint16, .-buffer_add_uint16
 208              		.section	.text.buffer_add_sint16,"ax",%progbits
 209              		.align	1
 210              		.p2align 4,,15
 211              		.syntax unified
 212              		.thumb
 213              		.thumb_func
 214              		.fpu fpv4-sp-d16
 215              		.type	buffer_add_sint16, %function
 216              	buffer_add_sint16:
 217              	.LFB4:
 218              		.loc 1 57 0
 219              		.cfi_startproc
 220              		@ args = 0, pretend = 0, frame = 16
 221              		@ frame_needed = 0, uses_anonymous_args = 0
 222 0000 00B5     		push	{lr}
 223              		.cfi_def_cfa_offset 4
 224              		.cfi_offset 14, -4
ARM GAS  C:\Users\PCHAUT~1\AppData\Local\Temp\ccIbTcpS.s 			page 5


 225 0002 85B0     		sub	sp, sp, #20
 226              		.cfi_def_cfa_offset 24
 227 0004 0346     		mov	r3, r0
 228 0006 ADF80630 		strh	r3, [sp, #6]	@ movhi
 229              		.loc 1 57 0
 230 000a 0C4B     		ldr	r3, .L17
 231 000c 1B68     		ldr	r3, [r3]
 232 000e 0393     		str	r3, [sp, #12]
 233              		.loc 1 58 0
 234 0010 BDF80630 		ldrh	r3, [sp, #6]
 235 0014 ADF80A30 		strh	r3, [sp, #10]	@ movhi
 236              		.loc 1 59 0
 237 0018 0DF10A03 		add	r3, sp, #10
 238 001c 0221     		movs	r1, #2
 239 001e 1846     		mov	r0, r3
 240 0020 FFF7FEFF 		bl	buffer_add
 241              		.loc 1 60 0
 242 0024 00BF     		nop
 243 0026 054B     		ldr	r3, .L17
 244 0028 039A     		ldr	r2, [sp, #12]
 245 002a 1B68     		ldr	r3, [r3]
 246 002c 9A42     		cmp	r2, r3
 247 002e 01D0     		beq	.L16
 248 0030 FFF7FEFF 		bl	__stack_chk_fail
 249              	.L16:
 250 0034 05B0     		add	sp, sp, #20
 251              		.cfi_def_cfa_offset 4
 252              		@ sp needed
 253 0036 5DF804FB 		ldr	pc, [sp], #4
 254              	.L18:
 255 003a 00BF     		.align	2
 256              	.L17:
 257 003c 00000000 		.word	__stack_chk_guard
 258              		.cfi_endproc
 259              	.LFE4:
 260              		.size	buffer_add_sint16, .-buffer_add_sint16
 261              		.section	.text.buffer_add_string,"ax",%progbits
 262              		.align	1
 263              		.p2align 4,,15
 264              		.syntax unified
 265              		.thumb
 266              		.thumb_func
 267              		.fpu fpv4-sp-d16
 268              		.type	buffer_add_string, %function
 269              	buffer_add_string:
 270              	.LFB5:
 271              		.loc 1 63 0
 272              		.cfi_startproc
 273              		@ args = 0, pretend = 0, frame = 16
 274              		@ frame_needed = 0, uses_anonymous_args = 0
 275 0000 00B5     		push	{lr}
 276              		.cfi_def_cfa_offset 4
 277              		.cfi_offset 14, -4
 278 0002 85B0     		sub	sp, sp, #20
 279              		.cfi_def_cfa_offset 24
 280 0004 0190     		str	r0, [sp, #4]
 281              		.loc 1 63 0
ARM GAS  C:\Users\PCHAUT~1\AppData\Local\Temp\ccIbTcpS.s 			page 6


 282 0006 134B     		ldr	r3, .L23
 283 0008 1B68     		ldr	r3, [r3]
 284 000a 0393     		str	r3, [sp, #12]
 285              		.loc 1 64 0
 286 000c 0198     		ldr	r0, [sp, #4]
 287 000e FFF7FEFF 		bl	strlen
 288 0012 0346     		mov	r3, r0
 289 0014 ADF80A30 		strh	r3, [sp, #10]	@ movhi
 290              		.loc 1 65 0
 291 0018 BDF80A30 		ldrh	r3, [sp, #10]	@ movhi
 292 001c DBB2     		uxtb	r3, r3
 293 001e 1846     		mov	r0, r3
 294 0020 FFF7FEFF 		bl	buffer_add_uint8
 295              		.loc 1 66 0
 296 0024 06E0     		b	.L20
 297              	.L21:
 298              		.loc 1 67 0
 299 0026 019B     		ldr	r3, [sp, #4]
 300 0028 5A1C     		adds	r2, r3, #1
 301 002a 0192     		str	r2, [sp, #4]
 302 002c 1B78     		ldrb	r3, [r3]	@ zero_extendqisi2
 303 002e 1846     		mov	r0, r3
 304 0030 FFF7FEFF 		bl	buffer_add_uint8
 305              	.L20:
 306              		.loc 1 66 0
 307 0034 019B     		ldr	r3, [sp, #4]
 308 0036 1B78     		ldrb	r3, [r3]	@ zero_extendqisi2
 309 0038 002B     		cmp	r3, #0
 310 003a F4D1     		bne	.L21
 311              		.loc 1 68 0
 312 003c 00BF     		nop
 313 003e 054B     		ldr	r3, .L23
 314 0040 039A     		ldr	r2, [sp, #12]
 315 0042 1B68     		ldr	r3, [r3]
 316 0044 9A42     		cmp	r2, r3
 317 0046 01D0     		beq	.L22
 318 0048 FFF7FEFF 		bl	__stack_chk_fail
 319              	.L22:
 320 004c 05B0     		add	sp, sp, #20
 321              		.cfi_def_cfa_offset 4
 322              		@ sp needed
 323 004e 5DF804FB 		ldr	pc, [sp], #4
 324              	.L24:
 325 0052 00BF     		.align	2
 326              	.L23:
 327 0054 00000000 		.word	__stack_chk_guard
 328              		.cfi_endproc
 329              	.LFE5:
 330              		.size	buffer_add_string, .-buffer_add_string
 331              		.section	.text.AsebaSendMessage,"ax",%progbits
 332              		.align	1
 333              		.p2align 4,,15
 334              		.global	AsebaSendMessage
 335              		.syntax unified
 336              		.thumb
 337              		.thumb_func
 338              		.fpu fpv4-sp-d16
ARM GAS  C:\Users\PCHAUT~1\AppData\Local\Temp\ccIbTcpS.s 			page 7


 339              		.type	AsebaSendMessage, %function
 340              	AsebaSendMessage:
 341              	.LFB6:
 342              		.loc 1 73 0
 343              		.cfi_startproc
 344              		@ args = 0, pretend = 0, frame = 24
 345              		@ frame_needed = 0, uses_anonymous_args = 0
 346 0000 00B5     		push	{lr}
 347              		.cfi_def_cfa_offset 4
 348              		.cfi_offset 14, -4
 349 0002 87B0     		sub	sp, sp, #28
 350              		.cfi_def_cfa_offset 32
 351 0004 0390     		str	r0, [sp, #12]
 352 0006 0192     		str	r2, [sp, #4]
 353 0008 1A46     		mov	r2, r3
 354 000a 0B46     		mov	r3, r1	@ movhi
 355 000c ADF80A30 		strh	r3, [sp, #10]	@ movhi
 356 0010 1346     		mov	r3, r2	@ movhi
 357 0012 ADF80830 		strh	r3, [sp, #8]	@ movhi
 358              		.loc 1 73 0
 359 0016 1A4B     		ldr	r3, .L29
 360 0018 1B68     		ldr	r3, [r3]
 361 001a 0593     		str	r3, [sp, #20]
 362              		.loc 1 76 0
 363 001c 194B     		ldr	r3, .L29+4
 364 001e 0022     		movs	r2, #0
 365 0020 1A60     		str	r2, [r3]
 366              		.loc 1 77 0
 367 0022 BDF80A30 		ldrh	r3, [sp, #10]
 368 0026 1846     		mov	r0, r3
 369 0028 FFF7FEFF 		bl	buffer_add_uint16
 370              		.loc 1 78 0
 371 002c 0023     		movs	r3, #0
 372 002e ADF81230 		strh	r3, [sp, #18]	@ movhi
 373 0032 0CE0     		b	.L26
 374              	.L27:
 375              		.loc 1 79 0 discriminator 3
 376 0034 BDF81230 		ldrh	r3, [sp, #18]
 377 0038 019A     		ldr	r2, [sp, #4]
 378 003a 1344     		add	r3, r3, r2
 379 003c 1B78     		ldrb	r3, [r3]	@ zero_extendqisi2
 380 003e 1846     		mov	r0, r3
 381 0040 FFF7FEFF 		bl	buffer_add_uint8
 382              		.loc 1 78 0 discriminator 3
 383 0044 BDF81230 		ldrh	r3, [sp, #18]
 384 0048 0133     		adds	r3, r3, #1
 385 004a ADF81230 		strh	r3, [sp, #18]	@ movhi
 386              	.L26:
 387              		.loc 1 78 0 is_stmt 0 discriminator 1
 388 004e BDF81220 		ldrh	r2, [sp, #18]
 389 0052 BDF80830 		ldrh	r3, [sp, #8]
 390 0056 9A42     		cmp	r2, r3
 391 0058 ECD3     		bcc	.L27
 392              		.loc 1 81 0 is_stmt 1
 393 005a 0A4B     		ldr	r3, .L29+4
 394 005c 1B68     		ldr	r3, [r3]
 395 005e 9BB2     		uxth	r3, r3
ARM GAS  C:\Users\PCHAUT~1\AppData\Local\Temp\ccIbTcpS.s 			page 8


 396 0060 1A46     		mov	r2, r3
 397 0062 0949     		ldr	r1, .L29+8
 398 0064 0398     		ldr	r0, [sp, #12]
 399 0066 FFF7FEFF 		bl	AsebaSendBuffer
 400              		.loc 1 82 0
 401 006a 00BF     		nop
 402 006c 044B     		ldr	r3, .L29
 403 006e 059A     		ldr	r2, [sp, #20]
 404 0070 1B68     		ldr	r3, [r3]
 405 0072 9A42     		cmp	r2, r3
 406 0074 01D0     		beq	.L28
 407 0076 FFF7FEFF 		bl	__stack_chk_fail
 408              	.L28:
 409 007a 07B0     		add	sp, sp, #28
 410              		.cfi_def_cfa_offset 4
 411              		@ sp needed
 412 007c 5DF804FB 		ldr	pc, [sp], #4
 413              	.L30:
 414              		.align	2
 415              	.L29:
 416 0080 00000000 		.word	__stack_chk_guard
 417 0084 00000000 		.word	buffer_pos
 418 0088 00000000 		.word	buffer
 419              		.cfi_endproc
 420              	.LFE6:
 421              		.size	AsebaSendMessage, .-AsebaSendMessage
 422              		.section	.text.AsebaSendVariables,"ax",%progbits
 423              		.align	1
 424              		.p2align 4,,15
 425              		.global	AsebaSendVariables
 426              		.syntax unified
 427              		.thumb
 428              		.thumb_func
 429              		.fpu fpv4-sp-d16
 430              		.type	AsebaSendVariables, %function
 431              	AsebaSendVariables:
 432              	.LFB7:
 433              		.loc 1 99 0
 434              		.cfi_startproc
 435              		@ args = 0, pretend = 0, frame = 16
 436              		@ frame_needed = 0, uses_anonymous_args = 0
 437 0000 00B5     		push	{lr}
 438              		.cfi_def_cfa_offset 4
 439              		.cfi_offset 14, -4
 440 0002 85B0     		sub	sp, sp, #20
 441              		.cfi_def_cfa_offset 24
 442 0004 0190     		str	r0, [sp, #4]
 443 0006 0B46     		mov	r3, r1
 444 0008 ADF80230 		strh	r3, [sp, #2]	@ movhi
 445 000c 1346     		mov	r3, r2	@ movhi
 446 000e ADF80030 		strh	r3, [sp]	@ movhi
 447              		.loc 1 99 0
 448 0012 204B     		ldr	r3, .L35
 449 0014 1B68     		ldr	r3, [r3]
 450 0016 0393     		str	r3, [sp, #12]
 451              		.loc 1 102 0
 452 0018 1F4B     		ldr	r3, .L35+4
ARM GAS  C:\Users\PCHAUT~1\AppData\Local\Temp\ccIbTcpS.s 			page 9


 453 001a 0022     		movs	r2, #0
 454 001c 1A60     		str	r2, [r3]
 455              		.loc 1 103 0
 456 001e 49F20500 		movw	r0, #36869
 457 0022 FFF7FEFF 		bl	buffer_add_uint16
 458              		.loc 1 104 0
 459 0026 BDF80230 		ldrh	r3, [sp, #2]
 460 002a 1846     		mov	r0, r3
 461 002c FFF7FEFF 		bl	buffer_add_uint16
 462              		.loc 1 105 0
 463 0030 BDF80230 		ldrh	r3, [sp, #2]	@ movhi
 464 0034 ADF80A30 		strh	r3, [sp, #10]	@ movhi
 465 0038 10E0     		b	.L32
 466              	.L33:
 467              		.loc 1 106 0 discriminator 3
 468 003a 019B     		ldr	r3, [sp, #4]
 469 003c DA68     		ldr	r2, [r3, #12]
 470 003e BDF80A30 		ldrh	r3, [sp, #10]
 471 0042 5B00     		lsls	r3, r3, #1
 472 0044 1344     		add	r3, r3, r2
 473 0046 B3F90030 		ldrsh	r3, [r3]
 474 004a 9BB2     		uxth	r3, r3
 475 004c 1846     		mov	r0, r3
 476 004e FFF7FEFF 		bl	buffer_add_uint16
 477              		.loc 1 105 0 discriminator 3
 478 0052 BDF80A30 		ldrh	r3, [sp, #10]
 479 0056 0133     		adds	r3, r3, #1
 480 0058 ADF80A30 		strh	r3, [sp, #10]	@ movhi
 481              	.L32:
 482              		.loc 1 105 0 is_stmt 0 discriminator 1
 483 005c BDF80A20 		ldrh	r2, [sp, #10]
 484 0060 BDF80210 		ldrh	r1, [sp, #2]
 485 0064 BDF80030 		ldrh	r3, [sp]
 486 0068 0B44     		add	r3, r3, r1
 487 006a 9A42     		cmp	r2, r3
 488 006c E5DB     		blt	.L33
 489              		.loc 1 108 0 is_stmt 1
 490 006e 0A4B     		ldr	r3, .L35+4
 491 0070 1B68     		ldr	r3, [r3]
 492 0072 9BB2     		uxth	r3, r3
 493 0074 1A46     		mov	r2, r3
 494 0076 0949     		ldr	r1, .L35+8
 495 0078 0198     		ldr	r0, [sp, #4]
 496 007a FFF7FEFF 		bl	AsebaSendBuffer
 497              		.loc 1 129 0
 498 007e 00BF     		nop
 499 0080 044B     		ldr	r3, .L35
 500 0082 039A     		ldr	r2, [sp, #12]
 501 0084 1B68     		ldr	r3, [r3]
 502 0086 9A42     		cmp	r2, r3
 503 0088 01D0     		beq	.L34
 504 008a FFF7FEFF 		bl	__stack_chk_fail
 505              	.L34:
 506 008e 05B0     		add	sp, sp, #20
 507              		.cfi_def_cfa_offset 4
 508              		@ sp needed
 509 0090 5DF804FB 		ldr	pc, [sp], #4
ARM GAS  C:\Users\PCHAUT~1\AppData\Local\Temp\ccIbTcpS.s 			page 10


 510              	.L36:
 511              		.align	2
 512              	.L35:
 513 0094 00000000 		.word	__stack_chk_guard
 514 0098 00000000 		.word	buffer_pos
 515 009c 00000000 		.word	buffer
 516              		.cfi_endproc
 517              	.LFE7:
 518              		.size	AsebaSendVariables, .-AsebaSendVariables
 519              		.section	.text.AsebaSendDescription,"ax",%progbits
 520              		.align	1
 521              		.p2align 4,,15
 522              		.global	AsebaSendDescription
 523              		.syntax unified
 524              		.thumb
 525              		.thumb_func
 526              		.fpu fpv4-sp-d16
 527              		.type	AsebaSendDescription, %function
 528              	AsebaSendDescription:
 529              	.LFB8:
 530              		.loc 1 132 0
 531              		.cfi_startproc
 532              		@ args = 0, pretend = 0, frame = 32
 533              		@ frame_needed = 0, uses_anonymous_args = 0
 534 0000 00B5     		push	{lr}
 535              		.cfi_def_cfa_offset 4
 536              		.cfi_offset 14, -4
 537 0002 89B0     		sub	sp, sp, #36
 538              		.cfi_def_cfa_offset 40
 539 0004 0190     		str	r0, [sp, #4]
 540              		.loc 1 132 0
 541 0006 B74B     		ldr	r3, .L55
 542 0008 1B68     		ldr	r3, [r3]
 543 000a 0793     		str	r3, [sp, #28]
 544              		.loc 1 133 0
 545 000c 0198     		ldr	r0, [sp, #4]
 546 000e FFF7FEFF 		bl	AsebaGetVMDescription
 547 0012 0390     		str	r0, [sp, #12]
 548              		.loc 1 134 0
 549 0014 039B     		ldr	r3, [sp, #12]
 550 0016 0433     		adds	r3, r3, #4
 551 0018 0493     		str	r3, [sp, #16]
 552              		.loc 1 135 0
 553 001a 0198     		ldr	r0, [sp, #4]
 554 001c FFF7FEFF 		bl	AsebaGetNativeFunctionsDescriptions
 555 0020 0590     		str	r0, [sp, #20]
 556              		.loc 1 136 0
 557 0022 0198     		ldr	r0, [sp, #4]
 558 0024 FFF7FEFF 		bl	AsebaGetLocalEventsDescriptions
 559 0028 0690     		str	r0, [sp, #24]
 560              		.loc 1 138 0
 561 002a 0023     		movs	r3, #0
 562 002c ADF80830 		strh	r3, [sp, #8]	@ movhi
 563              		.loc 1 139 0
 564 0030 AD4B     		ldr	r3, .L55+4
 565 0032 0022     		movs	r2, #0
 566 0034 1A60     		str	r2, [r3]
ARM GAS  C:\Users\PCHAUT~1\AppData\Local\Temp\ccIbTcpS.s 			page 11


 567              		.loc 1 141 0
 568 0036 4FF41040 		mov	r0, #36864
 569 003a FFF7FEFF 		bl	buffer_add_uint16
 570              		.loc 1 143 0
 571 003e 039B     		ldr	r3, [sp, #12]
 572 0040 1B68     		ldr	r3, [r3]
 573 0042 1846     		mov	r0, r3
 574 0044 FFF7FEFF 		bl	buffer_add_string
 575              		.loc 1 145 0
 576 0048 0520     		movs	r0, #5
 577 004a FFF7FEFF 		bl	buffer_add_uint16
 578              		.loc 1 147 0
 579 004e 019B     		ldr	r3, [sp, #4]
 580 0050 5B88     		ldrh	r3, [r3, #2]
 581 0052 1846     		mov	r0, r3
 582 0054 FFF7FEFF 		bl	buffer_add_uint16
 583              		.loc 1 148 0
 584 0058 019B     		ldr	r3, [sp, #4]
 585 005a 1B8A     		ldrh	r3, [r3, #16]
 586 005c 1846     		mov	r0, r3
 587 005e FFF7FEFF 		bl	buffer_add_uint16
 588              		.loc 1 149 0
 589 0062 019B     		ldr	r3, [sp, #4]
 590 0064 1B89     		ldrh	r3, [r3, #8]
 591 0066 1846     		mov	r0, r3
 592 0068 FFF7FEFF 		bl	buffer_add_uint16
 593              		.loc 1 152 0
 594 006c 0023     		movs	r3, #0
 595 006e ADF80830 		strh	r3, [sp, #8]	@ movhi
 596 0072 04E0     		b	.L38
 597              	.L39:
 598              		.loc 1 152 0 is_stmt 0 discriminator 3
 599 0074 BDF80830 		ldrh	r3, [sp, #8]
 600 0078 0133     		adds	r3, r3, #1
 601 007a ADF80830 		strh	r3, [sp, #8]	@ movhi
 602              	.L38:
 603              		.loc 1 152 0 discriminator 1
 604 007e BDF80830 		ldrh	r3, [sp, #8]
 605 0082 DB00     		lsls	r3, r3, #3
 606 0084 049A     		ldr	r2, [sp, #16]
 607 0086 1344     		add	r3, r3, r2
 608 0088 1B88     		ldrh	r3, [r3]
 609 008a 002B     		cmp	r3, #0
 610 008c F2D1     		bne	.L39
 611              		.loc 1 154 0 is_stmt 1
 612 008e BDF80830 		ldrh	r3, [sp, #8]
 613 0092 1846     		mov	r0, r3
 614 0094 FFF7FEFF 		bl	buffer_add_uint16
 615              		.loc 1 157 0
 616 0098 0023     		movs	r3, #0
 617 009a ADF80830 		strh	r3, [sp, #8]	@ movhi
 618 009e 04E0     		b	.L40
 619              	.L41:
 620              		.loc 1 157 0 is_stmt 0 discriminator 3
 621 00a0 BDF80830 		ldrh	r3, [sp, #8]
 622 00a4 0133     		adds	r3, r3, #1
 623 00a6 ADF80830 		strh	r3, [sp, #8]	@ movhi
ARM GAS  C:\Users\PCHAUT~1\AppData\Local\Temp\ccIbTcpS.s 			page 12


 624              	.L40:
 625              		.loc 1 157 0 discriminator 1
 626 00aa BDF80830 		ldrh	r3, [sp, #8]
 627 00ae DB00     		lsls	r3, r3, #3
 628 00b0 069A     		ldr	r2, [sp, #24]
 629 00b2 1344     		add	r3, r3, r2
 630 00b4 1B68     		ldr	r3, [r3]
 631 00b6 002B     		cmp	r3, #0
 632 00b8 F2D1     		bne	.L41
 633              		.loc 1 159 0 is_stmt 1
 634 00ba BDF80830 		ldrh	r3, [sp, #8]
 635 00be 1846     		mov	r0, r3
 636 00c0 FFF7FEFF 		bl	buffer_add_uint16
 637              		.loc 1 162 0
 638 00c4 0023     		movs	r3, #0
 639 00c6 ADF80830 		strh	r3, [sp, #8]	@ movhi
 640 00ca 04E0     		b	.L42
 641              	.L43:
 642              		.loc 1 162 0 is_stmt 0 discriminator 3
 643 00cc BDF80830 		ldrh	r3, [sp, #8]
 644 00d0 0133     		adds	r3, r3, #1
 645 00d2 ADF80830 		strh	r3, [sp, #8]	@ movhi
 646              	.L42:
 647              		.loc 1 162 0 discriminator 1
 648 00d6 BDF80830 		ldrh	r3, [sp, #8]
 649 00da 9B00     		lsls	r3, r3, #2
 650 00dc 059A     		ldr	r2, [sp, #20]
 651 00de 1344     		add	r3, r3, r2
 652 00e0 1B68     		ldr	r3, [r3]
 653 00e2 002B     		cmp	r3, #0
 654 00e4 F2D1     		bne	.L43
 655              		.loc 1 164 0 is_stmt 1
 656 00e6 BDF80830 		ldrh	r3, [sp, #8]
 657 00ea 1846     		mov	r0, r3
 658 00ec FFF7FEFF 		bl	buffer_add_uint16
 659              		.loc 1 167 0
 660 00f0 7D4B     		ldr	r3, .L55+4
 661 00f2 1B68     		ldr	r3, [r3]
 662 00f4 9BB2     		uxth	r3, r3
 663 00f6 1A46     		mov	r2, r3
 664 00f8 7C49     		ldr	r1, .L55+8
 665 00fa 0198     		ldr	r0, [sp, #4]
 666 00fc FFF7FEFF 		bl	AsebaSendBuffer
 667              		.loc 1 170 0
 668 0100 0023     		movs	r3, #0
 669 0102 ADF80830 		strh	r3, [sp, #8]	@ movhi
 670 0106 25E0     		b	.L44
 671              	.L45:
 672              		.loc 1 172 0 discriminator 3
 673 0108 774B     		ldr	r3, .L55+4
 674 010a 0022     		movs	r2, #0
 675 010c 1A60     		str	r2, [r3]
 676              		.loc 1 174 0 discriminator 3
 677 010e 49F20100 		movw	r0, #36865
 678 0112 FFF7FEFF 		bl	buffer_add_uint16
 679              		.loc 1 176 0 discriminator 3
 680 0116 BDF80830 		ldrh	r3, [sp, #8]
ARM GAS  C:\Users\PCHAUT~1\AppData\Local\Temp\ccIbTcpS.s 			page 13


 681 011a DB00     		lsls	r3, r3, #3
 682 011c 049A     		ldr	r2, [sp, #16]
 683 011e 1344     		add	r3, r3, r2
 684 0120 1B88     		ldrh	r3, [r3]
 685 0122 1846     		mov	r0, r3
 686 0124 FFF7FEFF 		bl	buffer_add_uint16
 687              		.loc 1 177 0 discriminator 3
 688 0128 BDF80830 		ldrh	r3, [sp, #8]
 689 012c DB00     		lsls	r3, r3, #3
 690 012e 049A     		ldr	r2, [sp, #16]
 691 0130 1344     		add	r3, r3, r2
 692 0132 5B68     		ldr	r3, [r3, #4]
 693 0134 1846     		mov	r0, r3
 694 0136 FFF7FEFF 		bl	buffer_add_string
 695              		.loc 1 180 0 discriminator 3
 696 013a 6B4B     		ldr	r3, .L55+4
 697 013c 1B68     		ldr	r3, [r3]
 698 013e 9BB2     		uxth	r3, r3
 699 0140 1A46     		mov	r2, r3
 700 0142 6A49     		ldr	r1, .L55+8
 701 0144 0198     		ldr	r0, [sp, #4]
 702 0146 FFF7FEFF 		bl	AsebaSendBuffer
 703              		.loc 1 170 0 discriminator 3
 704 014a BDF80830 		ldrh	r3, [sp, #8]
 705 014e 0133     		adds	r3, r3, #1
 706 0150 ADF80830 		strh	r3, [sp, #8]	@ movhi
 707              	.L44:
 708              		.loc 1 170 0 is_stmt 0 discriminator 1
 709 0154 BDF80830 		ldrh	r3, [sp, #8]
 710 0158 DB00     		lsls	r3, r3, #3
 711 015a 049A     		ldr	r2, [sp, #16]
 712 015c 1344     		add	r3, r3, r2
 713 015e 5B68     		ldr	r3, [r3, #4]
 714 0160 002B     		cmp	r3, #0
 715 0162 D1D1     		bne	.L45
 716              		.loc 1 184 0 is_stmt 1
 717 0164 0023     		movs	r3, #0
 718 0166 ADF80830 		strh	r3, [sp, #8]	@ movhi
 719 016a 25E0     		b	.L46
 720              	.L47:
 721              		.loc 1 186 0 discriminator 3
 722 016c 5E4B     		ldr	r3, .L55+4
 723 016e 0022     		movs	r2, #0
 724 0170 1A60     		str	r2, [r3]
 725              		.loc 1 188 0 discriminator 3
 726 0172 49F20200 		movw	r0, #36866
 727 0176 FFF7FEFF 		bl	buffer_add_uint16
 728              		.loc 1 190 0 discriminator 3
 729 017a BDF80830 		ldrh	r3, [sp, #8]
 730 017e DB00     		lsls	r3, r3, #3
 731 0180 069A     		ldr	r2, [sp, #24]
 732 0182 1344     		add	r3, r3, r2
 733 0184 1B68     		ldr	r3, [r3]
 734 0186 1846     		mov	r0, r3
 735 0188 FFF7FEFF 		bl	buffer_add_string
 736              		.loc 1 191 0 discriminator 3
 737 018c BDF80830 		ldrh	r3, [sp, #8]
ARM GAS  C:\Users\PCHAUT~1\AppData\Local\Temp\ccIbTcpS.s 			page 14


 738 0190 DB00     		lsls	r3, r3, #3
 739 0192 069A     		ldr	r2, [sp, #24]
 740 0194 1344     		add	r3, r3, r2
 741 0196 5B68     		ldr	r3, [r3, #4]
 742 0198 1846     		mov	r0, r3
 743 019a FFF7FEFF 		bl	buffer_add_string
 744              		.loc 1 194 0 discriminator 3
 745 019e 524B     		ldr	r3, .L55+4
 746 01a0 1B68     		ldr	r3, [r3]
 747 01a2 9BB2     		uxth	r3, r3
 748 01a4 1A46     		mov	r2, r3
 749 01a6 5149     		ldr	r1, .L55+8
 750 01a8 0198     		ldr	r0, [sp, #4]
 751 01aa FFF7FEFF 		bl	AsebaSendBuffer
 752              		.loc 1 184 0 discriminator 3
 753 01ae BDF80830 		ldrh	r3, [sp, #8]
 754 01b2 0133     		adds	r3, r3, #1
 755 01b4 ADF80830 		strh	r3, [sp, #8]	@ movhi
 756              	.L46:
 757              		.loc 1 184 0 is_stmt 0 discriminator 1
 758 01b8 BDF80830 		ldrh	r3, [sp, #8]
 759 01bc DB00     		lsls	r3, r3, #3
 760 01be 069A     		ldr	r2, [sp, #24]
 761 01c0 1344     		add	r3, r3, r2
 762 01c2 1B68     		ldr	r3, [r3]
 763 01c4 002B     		cmp	r3, #0
 764 01c6 D1D1     		bne	.L47
 765              		.loc 1 198 0 is_stmt 1
 766 01c8 0023     		movs	r3, #0
 767 01ca ADF80830 		strh	r3, [sp, #8]	@ movhi
 768 01ce 75E0     		b	.L48
 769              	.L53:
 770              	.LBB2:
 771              		.loc 1 202 0
 772 01d0 454B     		ldr	r3, .L55+4
 773 01d2 0022     		movs	r2, #0
 774 01d4 1A60     		str	r2, [r3]
 775              		.loc 1 204 0
 776 01d6 49F20300 		movw	r0, #36867
 777 01da FFF7FEFF 		bl	buffer_add_uint16
 778              		.loc 1 207 0
 779 01de BDF80830 		ldrh	r3, [sp, #8]
 780 01e2 9B00     		lsls	r3, r3, #2
 781 01e4 059A     		ldr	r2, [sp, #20]
 782 01e6 1344     		add	r3, r3, r2
 783 01e8 1B68     		ldr	r3, [r3]
 784 01ea 1B68     		ldr	r3, [r3]
 785 01ec 1846     		mov	r0, r3
 786 01ee FFF7FEFF 		bl	buffer_add_string
 787              		.loc 1 208 0
 788 01f2 BDF80830 		ldrh	r3, [sp, #8]
 789 01f6 9B00     		lsls	r3, r3, #2
 790 01f8 059A     		ldr	r2, [sp, #20]
 791 01fa 1344     		add	r3, r3, r2
 792 01fc 1B68     		ldr	r3, [r3]
 793 01fe 5B68     		ldr	r3, [r3, #4]
 794 0200 1846     		mov	r0, r3
ARM GAS  C:\Users\PCHAUT~1\AppData\Local\Temp\ccIbTcpS.s 			page 15


 795 0202 FFF7FEFF 		bl	buffer_add_string
 796              		.loc 1 209 0
 797 0206 0023     		movs	r3, #0
 798 0208 ADF80A30 		strh	r3, [sp, #10]	@ movhi
 799 020c 04E0     		b	.L49
 800              	.L50:
 801              		.loc 1 209 0 is_stmt 0 discriminator 3
 802 020e BDF80A30 		ldrh	r3, [sp, #10]
 803 0212 0133     		adds	r3, r3, #1
 804 0214 ADF80A30 		strh	r3, [sp, #10]	@ movhi
 805              	.L49:
 806              		.loc 1 209 0 discriminator 1
 807 0218 BDF80830 		ldrh	r3, [sp, #8]
 808 021c 9B00     		lsls	r3, r3, #2
 809 021e 059A     		ldr	r2, [sp, #20]
 810 0220 1344     		add	r3, r3, r2
 811 0222 1B68     		ldr	r3, [r3]
 812 0224 BDF80A20 		ldrh	r2, [sp, #10]
 813 0228 0132     		adds	r2, r2, #1
 814 022a 33F93230 		ldrsh	r3, [r3, r2, lsl #3]
 815 022e 002B     		cmp	r3, #0
 816 0230 EDD1     		bne	.L50
 817              		.loc 1 211 0 is_stmt 1
 818 0232 BDF80A30 		ldrh	r3, [sp, #10]
 819 0236 1846     		mov	r0, r3
 820 0238 FFF7FEFF 		bl	buffer_add_uint16
 821              		.loc 1 212 0
 822 023c 0023     		movs	r3, #0
 823 023e ADF80A30 		strh	r3, [sp, #10]	@ movhi
 824 0242 21E0     		b	.L51
 825              	.L52:
 826              		.loc 1 214 0 discriminator 3
 827 0244 BDF80830 		ldrh	r3, [sp, #8]
 828 0248 9B00     		lsls	r3, r3, #2
 829 024a 059A     		ldr	r2, [sp, #20]
 830 024c 1344     		add	r3, r3, r2
 831 024e 1B68     		ldr	r3, [r3]
 832 0250 BDF80A20 		ldrh	r2, [sp, #10]
 833 0254 0132     		adds	r2, r2, #1
 834 0256 33F93230 		ldrsh	r3, [r3, r2, lsl #3]
 835 025a 1846     		mov	r0, r3
 836 025c FFF7FEFF 		bl	buffer_add_sint16
 837              		.loc 1 215 0 discriminator 3
 838 0260 BDF80830 		ldrh	r3, [sp, #8]
 839 0264 9B00     		lsls	r3, r3, #2
 840 0266 059A     		ldr	r2, [sp, #20]
 841 0268 1344     		add	r3, r3, r2
 842 026a 1A68     		ldr	r2, [r3]
 843 026c BDF80A30 		ldrh	r3, [sp, #10]
 844 0270 0133     		adds	r3, r3, #1
 845 0272 DB00     		lsls	r3, r3, #3
 846 0274 1344     		add	r3, r3, r2
 847 0276 5B68     		ldr	r3, [r3, #4]
 848 0278 1846     		mov	r0, r3
 849 027a FFF7FEFF 		bl	buffer_add_string
 850              		.loc 1 212 0 discriminator 3
 851 027e BDF80A30 		ldrh	r3, [sp, #10]
ARM GAS  C:\Users\PCHAUT~1\AppData\Local\Temp\ccIbTcpS.s 			page 16


 852 0282 0133     		adds	r3, r3, #1
 853 0284 ADF80A30 		strh	r3, [sp, #10]	@ movhi
 854              	.L51:
 855              		.loc 1 212 0 is_stmt 0 discriminator 1
 856 0288 BDF80830 		ldrh	r3, [sp, #8]
 857 028c 9B00     		lsls	r3, r3, #2
 858 028e 059A     		ldr	r2, [sp, #20]
 859 0290 1344     		add	r3, r3, r2
 860 0292 1B68     		ldr	r3, [r3]
 861 0294 BDF80A20 		ldrh	r2, [sp, #10]
 862 0298 0132     		adds	r2, r2, #1
 863 029a 33F93230 		ldrsh	r3, [r3, r2, lsl #3]
 864 029e 002B     		cmp	r3, #0
 865 02a0 D0D1     		bne	.L52
 866              		.loc 1 219 0 is_stmt 1 discriminator 2
 867 02a2 114B     		ldr	r3, .L55+4
 868 02a4 1B68     		ldr	r3, [r3]
 869 02a6 9BB2     		uxth	r3, r3
 870 02a8 1A46     		mov	r2, r3
 871 02aa 1049     		ldr	r1, .L55+8
 872 02ac 0198     		ldr	r0, [sp, #4]
 873 02ae FFF7FEFF 		bl	AsebaSendBuffer
 874              	.LBE2:
 875              		.loc 1 198 0 discriminator 2
 876 02b2 BDF80830 		ldrh	r3, [sp, #8]
 877 02b6 0133     		adds	r3, r3, #1
 878 02b8 ADF80830 		strh	r3, [sp, #8]	@ movhi
 879              	.L48:
 880              		.loc 1 198 0 is_stmt 0 discriminator 1
 881 02bc BDF80830 		ldrh	r3, [sp, #8]
 882 02c0 9B00     		lsls	r3, r3, #2
 883 02c2 059A     		ldr	r2, [sp, #20]
 884 02c4 1344     		add	r3, r3, r2
 885 02c6 1B68     		ldr	r3, [r3]
 886 02c8 002B     		cmp	r3, #0
 887 02ca 81D1     		bne	.L53
 888              		.loc 1 221 0 is_stmt 1
 889 02cc 00BF     		nop
 890 02ce 054B     		ldr	r3, .L55
 891 02d0 079A     		ldr	r2, [sp, #28]
 892 02d2 1B68     		ldr	r3, [r3]
 893 02d4 9A42     		cmp	r2, r3
 894 02d6 01D0     		beq	.L54
 895 02d8 FFF7FEFF 		bl	__stack_chk_fail
 896              	.L54:
 897 02dc 09B0     		add	sp, sp, #36
 898              		.cfi_def_cfa_offset 4
 899              		@ sp needed
 900 02de 5DF804FB 		ldr	pc, [sp], #4
 901              	.L56:
 902 02e2 00BF     		.align	2
 903              	.L55:
 904 02e4 00000000 		.word	__stack_chk_guard
 905 02e8 00000000 		.word	buffer_pos
 906 02ec 00000000 		.word	buffer
 907              		.cfi_endproc
 908              	.LFE8:
ARM GAS  C:\Users\PCHAUT~1\AppData\Local\Temp\ccIbTcpS.s 			page 17


 909              		.size	AsebaSendDescription, .-AsebaSendDescription
 910              		.section	.text.AsebaProcessIncomingEvents,"ax",%progbits
 911              		.align	1
 912              		.p2align 4,,15
 913              		.global	AsebaProcessIncomingEvents
 914              		.syntax unified
 915              		.thumb
 916              		.thumb_func
 917              		.fpu fpv4-sp-d16
 918              		.type	AsebaProcessIncomingEvents, %function
 919              	AsebaProcessIncomingEvents:
 920              	.LFB9:
 921              		.loc 1 224 0
 922              		.cfi_startproc
 923              		@ args = 0, pretend = 0, frame = 40
 924              		@ frame_needed = 0, uses_anonymous_args = 0
 925 0000 00B5     		push	{lr}
 926              		.cfi_def_cfa_offset 4
 927              		.cfi_offset 14, -4
 928 0002 8BB0     		sub	sp, sp, #44
 929              		.cfi_def_cfa_offset 48
 930 0004 0190     		str	r0, [sp, #4]
 931              		.loc 1 224 0
 932 0006 444B     		ldr	r3, .L67
 933 0008 1B68     		ldr	r3, [r3]
 934 000a 0993     		str	r3, [sp, #36]
 935              		.loc 1 226 0
 936 000c 0198     		ldr	r0, [sp, #4]
 937 000e FFF7FEFF 		bl	AsebaGetVMDescription
 938 0012 0790     		str	r0, [sp, #28]
 939              		.loc 1 228 0
 940 0014 0DF10E03 		add	r3, sp, #14
 941 0018 40F20622 		movw	r2, #518
 942 001c 3F49     		ldr	r1, .L67+4
 943 001e 0198     		ldr	r0, [sp, #4]
 944 0020 FFF7FEFF 		bl	AsebaGetBuffer
 945 0024 0346     		mov	r3, r0
 946 0026 ADF81230 		strh	r3, [sp, #18]	@ movhi
 947              		.loc 1 230 0
 948 002a BDF81230 		ldrh	r3, [sp, #18]
 949 002e 002B     		cmp	r3, #0
 950 0030 67D0     		beq	.L66
 951              	.LBB3:
 952              		.loc 1 232 0
 953 0032 3A4B     		ldr	r3, .L67+4
 954 0034 1B88     		ldrh	r3, [r3]	@ movhi
 955 0036 ADF81430 		strh	r3, [sp, #20]	@ movhi
 956              		.loc 1 233 0
 957 003a 394B     		ldr	r3, .L67+8
 958 003c 0893     		str	r3, [sp, #32]
 959              		.loc 1 234 0
 960 003e BDF81230 		ldrh	r3, [sp, #18]
 961 0042 023B     		subs	r3, r3, #2
 962 0044 DA0F     		lsrs	r2, r3, #31
 963 0046 1344     		add	r3, r3, r2
 964 0048 5B10     		asrs	r3, r3, #1
 965 004a ADF81630 		strh	r3, [sp, #22]	@ movhi
ARM GAS  C:\Users\PCHAUT~1\AppData\Local\Temp\ccIbTcpS.s 			page 18


 966              		.loc 1 235 0
 967 004e BDF91430 		ldrsh	r3, [sp, #20]
 968 0052 002B     		cmp	r3, #0
 969 0054 4DDB     		blt	.L59
 970              		.loc 1 238 0
 971 0056 019B     		ldr	r3, [sp, #4]
 972 0058 1B8B     		ldrh	r3, [r3, #24]
 973 005a 03F00203 		and	r3, r3, #2
 974 005e 002B     		cmp	r3, #0
 975 0060 05D0     		beq	.L60
 976              		.loc 1 238 0 is_stmt 0 discriminator 1
 977 0062 019B     		ldr	r3, [sp, #4]
 978 0064 1B8B     		ldrh	r3, [r3, #24]
 979 0066 03F00103 		and	r3, r3, #1
 980 006a 002B     		cmp	r3, #0
 981 006c 49D1     		bne	.L66
 982              	.L60:
 983              	.LBB4:
 984              		.loc 1 242 0 is_stmt 1
 985 006e 079B     		ldr	r3, [sp, #28]
 986 0070 9B89     		ldrh	r3, [r3, #12]	@ movhi
 987 0072 ADF81830 		strh	r3, [sp, #24]	@ movhi
 988              		.loc 1 243 0
 989 0076 079B     		ldr	r3, [sp, #28]
 990 0078 9B8A     		ldrh	r3, [r3, #20]	@ movhi
 991 007a ADF81A30 		strh	r3, [sp, #26]	@ movhi
 992              		.loc 1 245 0
 993 007e BDF80E10 		ldrh	r1, [sp, #14]
 994 0082 019B     		ldr	r3, [sp, #4]
 995 0084 DA68     		ldr	r2, [r3, #12]
 996 0086 BDF81830 		ldrh	r3, [sp, #24]
 997 008a 581C     		adds	r0, r3, #1
 998 008c ADF81800 		strh	r0, [sp, #24]	@ movhi
 999 0090 5B00     		lsls	r3, r3, #1
 1000 0092 1344     		add	r3, r3, r2
 1001 0094 0AB2     		sxth	r2, r1
 1002 0096 1A80     		strh	r2, [r3]	@ movhi
 1003              		.loc 1 246 0
 1004 0098 0023     		movs	r3, #0
 1005 009a ADF81030 		strh	r3, [sp, #16]	@ movhi
 1006 009e 15E0     		b	.L62
 1007              	.L64:
 1008              		.loc 1 247 0 discriminator 4
 1009 00a0 BDF81030 		ldrh	r3, [sp, #16]
 1010 00a4 5B00     		lsls	r3, r3, #1
 1011 00a6 089A     		ldr	r2, [sp, #32]
 1012 00a8 1344     		add	r3, r3, r2
 1013 00aa 1888     		ldrh	r0, [r3]
 1014 00ac 019B     		ldr	r3, [sp, #4]
 1015 00ae DA68     		ldr	r2, [r3, #12]
 1016 00b0 BDF81810 		ldrh	r1, [sp, #24]
 1017 00b4 BDF81030 		ldrh	r3, [sp, #16]
 1018 00b8 0B44     		add	r3, r3, r1
 1019 00ba 5B00     		lsls	r3, r3, #1
 1020 00bc 1344     		add	r3, r3, r2
 1021 00be 02B2     		sxth	r2, r0
 1022 00c0 1A80     		strh	r2, [r3]	@ movhi
ARM GAS  C:\Users\PCHAUT~1\AppData\Local\Temp\ccIbTcpS.s 			page 19


 1023              		.loc 1 246 0 discriminator 4
 1024 00c2 BDF81030 		ldrh	r3, [sp, #16]
 1025 00c6 0133     		adds	r3, r3, #1
 1026 00c8 ADF81030 		strh	r3, [sp, #16]	@ movhi
 1027              	.L62:
 1028              		.loc 1 246 0 is_stmt 0 discriminator 1
 1029 00cc BDF81020 		ldrh	r2, [sp, #16]
 1030 00d0 BDF81A30 		ldrh	r3, [sp, #26]
 1031 00d4 9A42     		cmp	r2, r3
 1032 00d6 05D2     		bcs	.L63
 1033              		.loc 1 246 0 discriminator 3
 1034 00d8 BDF81020 		ldrh	r2, [sp, #16]
 1035 00dc BDF81630 		ldrh	r3, [sp, #22]
 1036 00e0 9A42     		cmp	r2, r3
 1037 00e2 DDD3     		bcc	.L64
 1038              	.L63:
 1039              		.loc 1 248 0 is_stmt 1
 1040 00e4 BDF81430 		ldrh	r3, [sp, #20]
 1041 00e8 1946     		mov	r1, r3
 1042 00ea 0198     		ldr	r0, [sp, #4]
 1043 00ec FFF7FEFF 		bl	AsebaVMSetupEvent
 1044              	.LBE4:
 1045              	.LBE3:
 1046              		.loc 1 257 0
 1047 00f0 07E0     		b	.L66
 1048              	.L59:
 1049              	.LBB5:
 1050              		.loc 1 254 0
 1051 00f2 BDF81630 		ldrh	r3, [sp, #22]
 1052 00f6 BDF81410 		ldrh	r1, [sp, #20]
 1053 00fa 089A     		ldr	r2, [sp, #32]
 1054 00fc 0198     		ldr	r0, [sp, #4]
 1055 00fe FFF7FEFF 		bl	AsebaVMDebugMessage
 1056              	.L66:
 1057              	.LBE5:
 1058              		.loc 1 257 0
 1059 0102 00BF     		nop
 1060 0104 044B     		ldr	r3, .L67
 1061 0106 099A     		ldr	r2, [sp, #36]
 1062 0108 1B68     		ldr	r3, [r3]
 1063 010a 9A42     		cmp	r2, r3
 1064 010c 01D0     		beq	.L65
 1065 010e FFF7FEFF 		bl	__stack_chk_fail
 1066              	.L65:
 1067 0112 0BB0     		add	sp, sp, #44
 1068              		.cfi_def_cfa_offset 4
 1069              		@ sp needed
 1070 0114 5DF804FB 		ldr	pc, [sp], #4
 1071              	.L68:
 1072              		.align	2
 1073              	.L67:
 1074 0118 00000000 		.word	__stack_chk_guard
 1075 011c 00000000 		.word	buffer
 1076 0120 02000000 		.word	buffer+2
 1077              		.cfi_endproc
 1078              	.LFE9:
 1079              		.size	AsebaProcessIncomingEvents, .-AsebaProcessIncomingEvents
ARM GAS  C:\Users\PCHAUT~1\AppData\Local\Temp\ccIbTcpS.s 			page 20


 1080              		.text
 1081              	.Letext0:
 1082              		.file 2 "c:\\users\\pchautems\\documents\\robotiquetp\\eclipse_e-puck2\\tools\\gcc-arm-none-eabi-7
 1083              		.file 3 "c:\\users\\pchautems\\documents\\robotiquetp\\eclipse_e-puck2\\tools\\gcc-arm-none-eabi-7
 1084              		.file 4 "c:\\users\\pchautems\\documents\\robotiquetp\\eclipse_e-puck2\\tools\\gcc-arm-none-eabi-7
 1085              		.file 5 "c:\\users\\pchautems\\documents\\robotiquetp\\eclipse_e-puck2\\tools\\gcc-arm-none-eabi-7
 1086              		.file 6 "c:\\users\\pchautems\\documents\\robotiquetp\\eclipse_e-puck2\\tools\\gcc-arm-none-eabi-7
 1087              		.file 7 "../lib/e-puck2_main-processor/aseba/transport/buffer/../../common/types.h"
 1088              		.file 8 "../lib/e-puck2_main-processor/aseba/transport/buffer/../../vm/vm.h"
 1089              		.file 9 "../lib/e-puck2_main-processor/aseba/transport/buffer/../../vm/natives.h"
 1090              		.file 10 "../lib/e-puck2_main-processor/aseba/transport/buffer/../../common/consts.h"