ARM GAS  C:\Users\PCHAUT~1\AppData\Local\Temp\cc7zwTNO.s 			page 1


   1              		.cpu cortex-m4
   2              		.eabi_attribute 27, 1
   3              		.eabi_attribute 28, 1
   4              		.eabi_attribute 20, 1
   5              		.eabi_attribute 21, 1
   6              		.eabi_attribute 23, 3
   7              		.eabi_attribute 24, 1
   8              		.eabi_attribute 25, 1
   9              		.eabi_attribute 26, 1
  10              		.eabi_attribute 30, 6
  11              		.eabi_attribute 34, 1
  12              		.eabi_attribute 18, 4
  13              		.file	"vm.c"
  14              		.text
  15              	.Ltext0:
  16              		.cfi_sections	.debug_frame
  17              		.section	.text.AsebaVMInit,"ax",%progbits
  18              		.align	1
  19              		.p2align 4,,15
  20              		.global	AsebaVMInit
  21              		.syntax unified
  22              		.thumb
  23              		.thumb_func
  24              		.fpu fpv4-sp-d16
  25              		.type	AsebaVMInit, %function
  26              	AsebaVMInit:
  27              	.LFB0:
  28              		.file 1 "../lib/e-puck2_main-processor/aseba/vm/vm.c"
  29              		.loc 1 45 0
  30              		.cfi_startproc
  31              		@ args = 0, pretend = 0, frame = 16
  32              		@ frame_needed = 0, uses_anonymous_args = 0
  33 0000 00B5     		push	{lr}
  34              		.cfi_def_cfa_offset 4
  35              		.cfi_offset 14, -4
  36 0002 85B0     		sub	sp, sp, #20
  37              		.cfi_def_cfa_offset 24
  38 0004 0190     		str	r0, [sp, #4]
  39              		.loc 1 45 0
  40 0006 124B     		ldr	r3, .L3
  41 0008 1B68     		ldr	r3, [r3]
  42 000a 0393     		str	r3, [sp, #12]
  43              		.loc 1 46 0
  44 000c 019B     		ldr	r3, [sp, #4]
  45 000e 0022     		movs	r2, #0
  46 0010 5A83     		strh	r2, [r3, #26]	@ movhi
  47              		.loc 1 47 0
  48 0012 019B     		ldr	r3, [sp, #4]
  49 0014 0022     		movs	r2, #0
  50 0016 1A83     		strh	r2, [r3, #24]	@ movhi
  51              		.loc 1 48 0
  52 0018 019B     		ldr	r3, [sp, #4]
  53 001a 0022     		movs	r2, #0
  54 001c DA87     		strh	r2, [r3, #62]	@ movhi
  55              		.loc 1 51 0
  56 001e 019B     		ldr	r3, [sp, #4]
  57 0020 5B68     		ldr	r3, [r3, #4]
ARM GAS  C:\Users\PCHAUT~1\AppData\Local\Temp\cc7zwTNO.s 			page 2


  58 0022 0022     		movs	r2, #0
  59 0024 1A80     		strh	r2, [r3]	@ movhi
  60              		.loc 1 52 0
  61 0026 019B     		ldr	r3, [sp, #4]
  62 0028 D868     		ldr	r0, [r3, #12]
  63 002a 019B     		ldr	r3, [sp, #4]
  64 002c 1B89     		ldrh	r3, [r3, #8]
  65 002e 5B00     		lsls	r3, r3, #1
  66 0030 1A46     		mov	r2, r3
  67 0032 0021     		movs	r1, #0
  68 0034 FFF7FEFF 		bl	memset
  69              		.loc 1 53 0
  70 0038 00BF     		nop
  71 003a 054B     		ldr	r3, .L3
  72 003c 039A     		ldr	r2, [sp, #12]
  73 003e 1B68     		ldr	r3, [r3]
  74 0040 9A42     		cmp	r2, r3
  75 0042 01D0     		beq	.L2
  76 0044 FFF7FEFF 		bl	__stack_chk_fail
  77              	.L2:
  78 0048 05B0     		add	sp, sp, #20
  79              		.cfi_def_cfa_offset 4
  80              		@ sp needed
  81 004a 5DF804FB 		ldr	pc, [sp], #4
  82              	.L4:
  83 004e 00BF     		.align	2
  84              	.L3:
  85 0050 00000000 		.word	__stack_chk_guard
  86              		.cfi_endproc
  87              	.LFE0:
  88              		.size	AsebaVMInit, .-AsebaVMInit
  89              		.section	.text.AsebaVMGetEventAddress,"ax",%progbits
  90              		.align	1
  91              		.p2align 4,,15
  92              		.global	AsebaVMGetEventAddress
  93              		.syntax unified
  94              		.thumb
  95              		.thumb_func
  96              		.fpu fpv4-sp-d16
  97              		.type	AsebaVMGetEventAddress, %function
  98              	AsebaVMGetEventAddress:
  99              	.LFB1:
 100              		.loc 1 56 0
 101              		.cfi_startproc
 102              		@ args = 0, pretend = 0, frame = 16
 103              		@ frame_needed = 0, uses_anonymous_args = 0
 104 0000 00B5     		push	{lr}
 105              		.cfi_def_cfa_offset 4
 106              		.cfi_offset 14, -4
 107 0002 85B0     		sub	sp, sp, #20
 108              		.cfi_def_cfa_offset 24
 109 0004 0190     		str	r0, [sp, #4]
 110 0006 0B46     		mov	r3, r1
 111 0008 ADF80230 		strh	r3, [sp, #2]	@ movhi
 112              		.loc 1 56 0
 113 000c 1B4B     		ldr	r3, .L11
 114 000e 1B68     		ldr	r3, [r3]
ARM GAS  C:\Users\PCHAUT~1\AppData\Local\Temp\cc7zwTNO.s 			page 3


 115 0010 0393     		str	r3, [sp, #12]
 116              		.loc 1 57 0
 117 0012 019B     		ldr	r3, [sp, #4]
 118 0014 5B68     		ldr	r3, [r3, #4]
 119 0016 1B88     		ldrh	r3, [r3]	@ movhi
 120 0018 ADF80A30 		strh	r3, [sp, #10]	@ movhi
 121              		.loc 1 61 0
 122 001c 0123     		movs	r3, #1
 123 001e ADF80830 		strh	r3, [sp, #8]	@ movhi
 124 0022 18E0     		b	.L6
 125              	.L9:
 126              		.loc 1 62 0
 127 0024 019B     		ldr	r3, [sp, #4]
 128 0026 5A68     		ldr	r2, [r3, #4]
 129 0028 BDF80830 		ldrh	r3, [sp, #8]
 130 002c 5B00     		lsls	r3, r3, #1
 131 002e 1344     		add	r3, r3, r2
 132 0030 1B88     		ldrh	r3, [r3]
 133 0032 BDF80220 		ldrh	r2, [sp, #2]
 134 0036 9A42     		cmp	r2, r3
 135 0038 08D1     		bne	.L7
 136              		.loc 1 63 0
 137 003a 019B     		ldr	r3, [sp, #4]
 138 003c 5A68     		ldr	r2, [r3, #4]
 139 003e BDF80830 		ldrh	r3, [sp, #8]
 140 0042 0133     		adds	r3, r3, #1
 141 0044 5B00     		lsls	r3, r3, #1
 142 0046 1344     		add	r3, r3, r2
 143 0048 1B88     		ldrh	r3, [r3]
 144 004a 0BE0     		b	.L8
 145              	.L7:
 146              		.loc 1 61 0 discriminator 2
 147 004c BDF80830 		ldrh	r3, [sp, #8]	@ movhi
 148 0050 0233     		adds	r3, r3, #2
 149 0052 ADF80830 		strh	r3, [sp, #8]	@ movhi
 150              	.L6:
 151              		.loc 1 61 0 is_stmt 0 discriminator 1
 152 0056 BDF80820 		ldrh	r2, [sp, #8]
 153 005a BDF80A30 		ldrh	r3, [sp, #10]
 154 005e 9A42     		cmp	r2, r3
 155 0060 E0D3     		bcc	.L9
 156              		.loc 1 64 0 is_stmt 1
 157 0062 0023     		movs	r3, #0
 158              	.L8:
 159              		.loc 1 65 0
 160 0064 1846     		mov	r0, r3
 161 0066 054B     		ldr	r3, .L11
 162 0068 039A     		ldr	r2, [sp, #12]
 163 006a 1B68     		ldr	r3, [r3]
 164 006c 9A42     		cmp	r2, r3
 165 006e 01D0     		beq	.L10
 166 0070 FFF7FEFF 		bl	__stack_chk_fail
 167              	.L10:
 168 0074 05B0     		add	sp, sp, #20
 169              		.cfi_def_cfa_offset 4
 170              		@ sp needed
 171 0076 5DF804FB 		ldr	pc, [sp], #4
ARM GAS  C:\Users\PCHAUT~1\AppData\Local\Temp\cc7zwTNO.s 			page 4


 172              	.L12:
 173 007a 00BF     		.align	2
 174              	.L11:
 175 007c 00000000 		.word	__stack_chk_guard
 176              		.cfi_endproc
 177              	.LFE1:
 178              		.size	AsebaVMGetEventAddress, .-AsebaVMGetEventAddress
 179              		.section	.text.AsebaVMSetupEvent,"ax",%progbits
 180              		.align	1
 181              		.p2align 4,,15
 182              		.global	AsebaVMSetupEvent
 183              		.syntax unified
 184              		.thumb
 185              		.thumb_func
 186              		.fpu fpv4-sp-d16
 187              		.type	AsebaVMSetupEvent, %function
 188              	AsebaVMSetupEvent:
 189              	.LFB2:
 190              		.loc 1 69 0
 191              		.cfi_startproc
 192              		@ args = 0, pretend = 0, frame = 16
 193              		@ frame_needed = 0, uses_anonymous_args = 0
 194 0000 00B5     		push	{lr}
 195              		.cfi_def_cfa_offset 4
 196              		.cfi_offset 14, -4
 197 0002 85B0     		sub	sp, sp, #20
 198              		.cfi_def_cfa_offset 24
 199 0004 0190     		str	r0, [sp, #4]
 200 0006 0B46     		mov	r3, r1
 201 0008 ADF80230 		strh	r3, [sp, #2]	@ movhi
 202              		.loc 1 69 0
 203 000c 214B     		ldr	r3, .L18
 204 000e 1B68     		ldr	r3, [r3]
 205 0010 0393     		str	r3, [sp, #12]
 206              		.loc 1 70 0
 207 0012 BDF80230 		ldrh	r3, [sp, #2]
 208 0016 1946     		mov	r1, r3
 209 0018 0198     		ldr	r0, [sp, #4]
 210 001a FFF7FEFF 		bl	AsebaVMGetEventAddress
 211 001e 0346     		mov	r3, r0
 212 0020 ADF80A30 		strh	r3, [sp, #10]	@ movhi
 213              		.loc 1 71 0
 214 0024 BDF80A30 		ldrh	r3, [sp, #10]
 215 0028 002B     		cmp	r3, #0
 216 002a 26D0     		beq	.L14
 217              		.loc 1 74 0
 218 002c 019B     		ldr	r3, [sp, #4]
 219 002e 1B8B     		ldrh	r3, [r3, #24]
 220 0030 03F00103 		and	r3, r3, #1
 221 0034 002B     		cmp	r3, #0
 222 0036 08D0     		beq	.L15
 223              		.loc 1 76 0
 224 0038 019B     		ldr	r3, [sp, #4]
 225 003a 03F11A02 		add	r2, r3, #26
 226 003e 0223     		movs	r3, #2
 227 0040 49F20801 		movw	r1, #36872
 228 0044 0198     		ldr	r0, [sp, #4]
ARM GAS  C:\Users\PCHAUT~1\AppData\Local\Temp\cc7zwTNO.s 			page 5


 229 0046 FFF7FEFF 		bl	AsebaSendMessage
 230              	.L15:
 231              		.loc 1 79 0
 232 004a 019B     		ldr	r3, [sp, #4]
 233 004c BDF80A20 		ldrh	r2, [sp, #10]	@ movhi
 234 0050 5A83     		strh	r2, [r3, #26]	@ movhi
 235              		.loc 1 80 0
 236 0052 019B     		ldr	r3, [sp, #4]
 237 0054 4FF6FF72 		movw	r2, #65535
 238 0058 9A83     		strh	r2, [r3, #28]	@ movhi
 239              		.loc 1 81 0
 240 005a 019B     		ldr	r3, [sp, #4]
 241 005c 1B8B     		ldrh	r3, [r3, #24]
 242 005e 43F00103 		orr	r3, r3, #1
 243 0062 9AB2     		uxth	r2, r3
 244 0064 019B     		ldr	r3, [sp, #4]
 245 0066 1A83     		strh	r2, [r3, #24]	@ movhi
 246              		.loc 1 84 0
 247 0068 019B     		ldr	r3, [sp, #4]
 248 006a 1B8B     		ldrh	r3, [r3, #24]
 249 006c 03F00203 		and	r3, r3, #2
 250 0070 002B     		cmp	r3, #0
 251 0072 02D0     		beq	.L14
 252              		.loc 1 85 0
 253 0074 0198     		ldr	r0, [sp, #4]
 254 0076 FFF7FEFF 		bl	AsebaVMSendExecutionStateChanged
 255              	.L14:
 256              		.loc 1 87 0
 257 007a BDF80A30 		ldrh	r3, [sp, #10]
 258              		.loc 1 88 0
 259 007e 1846     		mov	r0, r3
 260 0080 044B     		ldr	r3, .L18
 261 0082 039A     		ldr	r2, [sp, #12]
 262 0084 1B68     		ldr	r3, [r3]
 263 0086 9A42     		cmp	r2, r3
 264 0088 01D0     		beq	.L17
 265 008a FFF7FEFF 		bl	__stack_chk_fail
 266              	.L17:
 267 008e 05B0     		add	sp, sp, #20
 268              		.cfi_def_cfa_offset 4
 269              		@ sp needed
 270 0090 5DF804FB 		ldr	pc, [sp], #4
 271              	.L19:
 272              		.align	2
 273              	.L18:
 274 0094 00000000 		.word	__stack_chk_guard
 275              		.cfi_endproc
 276              	.LFE2:
 277              		.size	AsebaVMSetupEvent, .-AsebaVMSetupEvent
 278              		.section	.text.AsebaVMDoBinaryOperation,"ax",%progbits
 279              		.align	1
 280              		.p2align 4,,15
 281              		.syntax unified
 282              		.thumb
 283              		.thumb_func
 284              		.fpu fpv4-sp-d16
 285              		.type	AsebaVMDoBinaryOperation, %function
ARM GAS  C:\Users\PCHAUT~1\AppData\Local\Temp\cc7zwTNO.s 			page 6


 286              	AsebaVMDoBinaryOperation:
 287              	.LFB3:
 288              		.loc 1 91 0
 289              		.cfi_startproc
 290              		@ args = 0, pretend = 0, frame = 24
 291              		@ frame_needed = 0, uses_anonymous_args = 0
 292 0000 00B5     		push	{lr}
 293              		.cfi_def_cfa_offset 4
 294              		.cfi_offset 14, -4
 295 0002 87B0     		sub	sp, sp, #28
 296              		.cfi_def_cfa_offset 32
 297 0004 0390     		str	r0, [sp, #12]
 298 0006 0846     		mov	r0, r1
 299 0008 1146     		mov	r1, r2
 300 000a 1A46     		mov	r2, r3
 301 000c 0346     		mov	r3, r0	@ movhi
 302 000e ADF80A30 		strh	r3, [sp, #10]	@ movhi
 303 0012 0B46     		mov	r3, r1	@ movhi
 304 0014 ADF80830 		strh	r3, [sp, #8]	@ movhi
 305 0018 1346     		mov	r3, r2	@ movhi
 306 001a ADF80630 		strh	r3, [sp, #6]	@ movhi
 307              		.loc 1 91 0
 308 001e 8D4B     		ldr	r3, .L52
 309 0020 1B68     		ldr	r3, [r3]
 310 0022 0593     		str	r3, [sp, #20]
 311              		.loc 1 92 0
 312 0024 BDF80630 		ldrh	r3, [sp, #6]
 313 0028 112B     		cmp	r3, #17
 314 002a 00F20681 		bhi	.L21
 315 002e 01A2     		adr	r2, .L23
 316 0030 52F823F0 		ldr	pc, [r2, r3, lsl #2]
 317              		.p2align 2
 318              	.L23:
 319 0034 7D000000 		.word	.L22+1
 320 0038 8D000000 		.word	.L24+1
 321 003c 9D000000 		.word	.L25+1
 322 0040 AD000000 		.word	.L26+1
 323 0044 BD000000 		.word	.L27+1
 324 0048 CF000000 		.word	.L28+1
 325 004c 11010000 		.word	.L29+1
 326 0050 59010000 		.word	.L30+1
 327 0054 67010000 		.word	.L31+1
 328 0058 75010000 		.word	.L32+1
 329 005c 83010000 		.word	.L33+1
 330 0060 99010000 		.word	.L34+1
 331 0064 AF010000 		.word	.L35+1
 332 0068 C5010000 		.word	.L36+1
 333 006c DB010000 		.word	.L37+1
 334 0070 F1010000 		.word	.L38+1
 335 0074 07020000 		.word	.L39+1
 336 0078 21020000 		.word	.L40+1
 337              		.p2align 1
 338              	.L22:
 339              		.loc 1 94 0
 340 007c BDF90A20 		ldrsh	r2, [sp, #10]
 341 0080 BDF90830 		ldrsh	r3, [sp, #8]
 342 0084 02FA03F3 		lsl	r3, r2, r3
ARM GAS  C:\Users\PCHAUT~1\AppData\Local\Temp\cc7zwTNO.s 			page 7


 343 0088 1BB2     		sxth	r3, r3
 344 008a D7E0     		b	.L41
 345              	.L24:
 346              		.loc 1 95 0
 347 008c BDF90A20 		ldrsh	r2, [sp, #10]
 348 0090 BDF90830 		ldrsh	r3, [sp, #8]
 349 0094 42FA03F3 		asr	r3, r2, r3
 350 0098 1BB2     		sxth	r3, r3
 351 009a CFE0     		b	.L41
 352              	.L25:
 353              		.loc 1 96 0
 354 009c BDF80A20 		ldrh	r2, [sp, #10]
 355 00a0 BDF80830 		ldrh	r3, [sp, #8]
 356 00a4 1344     		add	r3, r3, r2
 357 00a6 9BB2     		uxth	r3, r3
 358 00a8 1BB2     		sxth	r3, r3
 359 00aa C7E0     		b	.L41
 360              	.L26:
 361              		.loc 1 97 0
 362 00ac BDF80A20 		ldrh	r2, [sp, #10]
 363 00b0 BDF80830 		ldrh	r3, [sp, #8]
 364 00b4 D31A     		subs	r3, r2, r3
 365 00b6 9BB2     		uxth	r3, r3
 366 00b8 1BB2     		sxth	r3, r3
 367 00ba BFE0     		b	.L41
 368              	.L27:
 369              		.loc 1 98 0
 370 00bc BDF80A20 		ldrh	r2, [sp, #10]
 371 00c0 BDF80830 		ldrh	r3, [sp, #8]
 372 00c4 12FB03F3 		smulbb	r3, r2, r3
 373 00c8 9BB2     		uxth	r3, r3
 374 00ca 1BB2     		sxth	r3, r3
 375 00cc B6E0     		b	.L41
 376              	.L28:
 377              		.loc 1 101 0
 378 00ce BDF90830 		ldrsh	r3, [sp, #8]
 379 00d2 002B     		cmp	r3, #0
 380 00d4 14D1     		bne	.L42
 381              		.loc 1 103 0
 382 00d6 604B     		ldr	r3, .L52+4
 383 00d8 002B     		cmp	r3, #0
 384 00da 03D0     		beq	.L43
 385              		.loc 1 104 0
 386 00dc 0021     		movs	r1, #0
 387 00de 0398     		ldr	r0, [sp, #12]
 388 00e0 FFF7FEFF 		bl	AsebaVMErrorCB
 389              	.L43:
 390              		.loc 1 105 0
 391 00e4 039B     		ldr	r3, [sp, #12]
 392 00e6 0222     		movs	r2, #2
 393 00e8 1A83     		strh	r2, [r3, #24]	@ movhi
 394              		.loc 1 106 0
 395 00ea 039B     		ldr	r3, [sp, #12]
 396 00ec 03F11A02 		add	r2, r3, #26
 397 00f0 0223     		movs	r3, #2
 398 00f2 49F20701 		movw	r1, #36871
 399 00f6 0398     		ldr	r0, [sp, #12]
ARM GAS  C:\Users\PCHAUT~1\AppData\Local\Temp\cc7zwTNO.s 			page 8


 400 00f8 FFF7FEFF 		bl	AsebaSendMessage
 401              		.loc 1 107 0
 402 00fc 0023     		movs	r3, #0
 403 00fe 9DE0     		b	.L41
 404              	.L42:
 405              		.loc 1 111 0
 406 0100 BDF90A20 		ldrsh	r2, [sp, #10]
 407 0104 BDF90830 		ldrsh	r3, [sp, #8]
 408 0108 92FBF3F3 		sdiv	r3, r2, r3
 409 010c 1BB2     		sxth	r3, r3
 410 010e 95E0     		b	.L41
 411              	.L29:
 412              		.loc 1 115 0
 413 0110 BDF90830 		ldrsh	r3, [sp, #8]
 414 0114 002B     		cmp	r3, #0
 415 0116 14D1     		bne	.L44
 416              		.loc 1 117 0
 417 0118 4F4B     		ldr	r3, .L52+4
 418 011a 002B     		cmp	r3, #0
 419 011c 03D0     		beq	.L45
 420              		.loc 1 118 0
 421 011e 0021     		movs	r1, #0
 422 0120 0398     		ldr	r0, [sp, #12]
 423 0122 FFF7FEFF 		bl	AsebaVMErrorCB
 424              	.L45:
 425              		.loc 1 119 0
 426 0126 039B     		ldr	r3, [sp, #12]
 427 0128 0222     		movs	r2, #2
 428 012a 1A83     		strh	r2, [r3, #24]	@ movhi
 429              		.loc 1 120 0
 430 012c 039B     		ldr	r3, [sp, #12]
 431 012e 03F11A02 		add	r2, r3, #26
 432 0132 0223     		movs	r3, #2
 433 0134 49F20701 		movw	r1, #36871
 434 0138 0398     		ldr	r0, [sp, #12]
 435 013a FFF7FEFF 		bl	AsebaSendMessage
 436              		.loc 1 121 0
 437 013e 0023     		movs	r3, #0
 438 0140 7CE0     		b	.L41
 439              	.L44:
 440              		.loc 1 125 0
 441 0142 BDF90A30 		ldrsh	r3, [sp, #10]
 442 0146 BDF90820 		ldrsh	r2, [sp, #8]
 443 014a 93FBF2F1 		sdiv	r1, r3, r2
 444 014e 02FB01F2 		mul	r2, r2, r1
 445 0152 9B1A     		subs	r3, r3, r2
 446 0154 1BB2     		sxth	r3, r3
 447 0156 71E0     		b	.L41
 448              	.L30:
 449              		.loc 1 128 0
 450 0158 BDF80A20 		ldrh	r2, [sp, #10]	@ movhi
 451 015c BDF80830 		ldrh	r3, [sp, #8]	@ movhi
 452 0160 1343     		orrs	r3, r3, r2
 453 0162 1BB2     		sxth	r3, r3
 454 0164 6AE0     		b	.L41
 455              	.L31:
 456              		.loc 1 129 0
ARM GAS  C:\Users\PCHAUT~1\AppData\Local\Temp\cc7zwTNO.s 			page 9


 457 0166 BDF80A20 		ldrh	r2, [sp, #10]	@ movhi
 458 016a BDF80830 		ldrh	r3, [sp, #8]	@ movhi
 459 016e 5340     		eors	r3, r3, r2
 460 0170 1BB2     		sxth	r3, r3
 461 0172 63E0     		b	.L41
 462              	.L32:
 463              		.loc 1 130 0
 464 0174 BDF80A20 		ldrh	r2, [sp, #10]	@ movhi
 465 0178 BDF80830 		ldrh	r3, [sp, #8]	@ movhi
 466 017c 1340     		ands	r3, r3, r2
 467 017e 1BB2     		sxth	r3, r3
 468 0180 5CE0     		b	.L41
 469              	.L33:
 470              		.loc 1 132 0
 471 0182 BDF90A20 		ldrsh	r2, [sp, #10]
 472 0186 BDF90830 		ldrsh	r3, [sp, #8]
 473 018a 9A42     		cmp	r2, r3
 474 018c 0CBF     		ite	eq
 475 018e 0123     		moveq	r3, #1
 476 0190 0023     		movne	r3, #0
 477 0192 DBB2     		uxtb	r3, r3
 478 0194 1BB2     		sxth	r3, r3
 479 0196 51E0     		b	.L41
 480              	.L34:
 481              		.loc 1 133 0
 482 0198 BDF90A20 		ldrsh	r2, [sp, #10]
 483 019c BDF90830 		ldrsh	r3, [sp, #8]
 484 01a0 9A42     		cmp	r2, r3
 485 01a2 14BF     		ite	ne
 486 01a4 0123     		movne	r3, #1
 487 01a6 0023     		moveq	r3, #0
 488 01a8 DBB2     		uxtb	r3, r3
 489 01aa 1BB2     		sxth	r3, r3
 490 01ac 46E0     		b	.L41
 491              	.L35:
 492              		.loc 1 134 0
 493 01ae BDF90A20 		ldrsh	r2, [sp, #10]
 494 01b2 BDF90830 		ldrsh	r3, [sp, #8]
 495 01b6 9A42     		cmp	r2, r3
 496 01b8 CCBF     		ite	gt
 497 01ba 0123     		movgt	r3, #1
 498 01bc 0023     		movle	r3, #0
 499 01be DBB2     		uxtb	r3, r3
 500 01c0 1BB2     		sxth	r3, r3
 501 01c2 3BE0     		b	.L41
 502              	.L36:
 503              		.loc 1 135 0
 504 01c4 BDF90A20 		ldrsh	r2, [sp, #10]
 505 01c8 BDF90830 		ldrsh	r3, [sp, #8]
 506 01cc 9A42     		cmp	r2, r3
 507 01ce ACBF     		ite	ge
 508 01d0 0123     		movge	r3, #1
 509 01d2 0023     		movlt	r3, #0
 510 01d4 DBB2     		uxtb	r3, r3
 511 01d6 1BB2     		sxth	r3, r3
 512 01d8 30E0     		b	.L41
 513              	.L37:
ARM GAS  C:\Users\PCHAUT~1\AppData\Local\Temp\cc7zwTNO.s 			page 10


 514              		.loc 1 136 0
 515 01da BDF90A20 		ldrsh	r2, [sp, #10]
 516 01de BDF90830 		ldrsh	r3, [sp, #8]
 517 01e2 9A42     		cmp	r2, r3
 518 01e4 B4BF     		ite	lt
 519 01e6 0123     		movlt	r3, #1
 520 01e8 0023     		movge	r3, #0
 521 01ea DBB2     		uxtb	r3, r3
 522 01ec 1BB2     		sxth	r3, r3
 523 01ee 25E0     		b	.L41
 524              	.L38:
 525              		.loc 1 137 0
 526 01f0 BDF90A20 		ldrsh	r2, [sp, #10]
 527 01f4 BDF90830 		ldrsh	r3, [sp, #8]
 528 01f8 9A42     		cmp	r2, r3
 529 01fa D4BF     		ite	le
 530 01fc 0123     		movle	r3, #1
 531 01fe 0023     		movgt	r3, #0
 532 0200 DBB2     		uxtb	r3, r3
 533 0202 1BB2     		sxth	r3, r3
 534 0204 1AE0     		b	.L41
 535              	.L39:
 536              		.loc 1 139 0
 537 0206 BDF90A30 		ldrsh	r3, [sp, #10]
 538 020a 002B     		cmp	r3, #0
 539 020c 03D1     		bne	.L46
 540              		.loc 1 139 0 is_stmt 0 discriminator 2
 541 020e BDF90830 		ldrsh	r3, [sp, #8]
 542 0212 002B     		cmp	r3, #0
 543 0214 01D0     		beq	.L47
 544              	.L46:
 545              		.loc 1 139 0 discriminator 3
 546 0216 0123     		movs	r3, #1
 547 0218 00E0     		b	.L48
 548              	.L47:
 549              		.loc 1 139 0 discriminator 4
 550 021a 0023     		movs	r3, #0
 551              	.L48:
 552              		.loc 1 139 0 discriminator 6
 553 021c 1BB2     		sxth	r3, r3
 554 021e 0DE0     		b	.L41
 555              	.L40:
 556              		.loc 1 140 0 is_stmt 1
 557 0220 BDF90A30 		ldrsh	r3, [sp, #10]
 558 0224 002B     		cmp	r3, #0
 559 0226 05D0     		beq	.L49
 560              		.loc 1 140 0 is_stmt 0 discriminator 1
 561 0228 BDF90830 		ldrsh	r3, [sp, #8]
 562 022c 002B     		cmp	r3, #0
 563 022e 01D0     		beq	.L49
 564              		.loc 1 140 0 discriminator 3
 565 0230 0123     		movs	r3, #1
 566 0232 00E0     		b	.L50
 567              	.L49:
 568              		.loc 1 140 0 discriminator 4
 569 0234 0023     		movs	r3, #0
 570              	.L50:
ARM GAS  C:\Users\PCHAUT~1\AppData\Local\Temp\cc7zwTNO.s 			page 11


 571              		.loc 1 140 0 discriminator 6
 572 0236 1BB2     		sxth	r3, r3
 573 0238 00E0     		b	.L41
 574              	.L21:
 575              		.loc 1 146 0 is_stmt 1
 576 023a 0023     		movs	r3, #0
 577              	.L41:
 578              		.loc 1 148 0
 579 023c 1846     		mov	r0, r3
 580 023e 054B     		ldr	r3, .L52
 581 0240 059A     		ldr	r2, [sp, #20]
 582 0242 1B68     		ldr	r3, [r3]
 583 0244 9A42     		cmp	r2, r3
 584 0246 01D0     		beq	.L51
 585 0248 FFF7FEFF 		bl	__stack_chk_fail
 586              	.L51:
 587 024c 07B0     		add	sp, sp, #28
 588              		.cfi_def_cfa_offset 4
 589              		@ sp needed
 590 024e 5DF804FB 		ldr	pc, [sp], #4
 591              	.L53:
 592 0252 00BF     		.align	2
 593              	.L52:
 594 0254 00000000 		.word	__stack_chk_guard
 595 0258 00000000 		.word	AsebaVMErrorCB
 596              		.cfi_endproc
 597              	.LFE3:
 598              		.size	AsebaVMDoBinaryOperation, .-AsebaVMDoBinaryOperation
 599              		.section	.text.AsebaVMDoUnaryOperation,"ax",%progbits
 600              		.align	1
 601              		.p2align 4,,15
 602              		.syntax unified
 603              		.thumb
 604              		.thumb_func
 605              		.fpu fpv4-sp-d16
 606              		.type	AsebaVMDoUnaryOperation, %function
 607              	AsebaVMDoUnaryOperation:
 608              	.LFB4:
 609              		.loc 1 151 0
 610              		.cfi_startproc
 611              		@ args = 0, pretend = 0, frame = 16
 612              		@ frame_needed = 0, uses_anonymous_args = 0
 613 0000 00B5     		push	{lr}
 614              		.cfi_def_cfa_offset 4
 615              		.cfi_offset 14, -4
 616 0002 85B0     		sub	sp, sp, #20
 617              		.cfi_def_cfa_offset 24
 618 0004 0190     		str	r0, [sp, #4]
 619 0006 0B46     		mov	r3, r1
 620 0008 ADF80230 		strh	r3, [sp, #2]	@ movhi
 621 000c 1346     		mov	r3, r2	@ movhi
 622 000e ADF80030 		strh	r3, [sp]	@ movhi
 623              		.loc 1 151 0
 624 0012 144B     		ldr	r3, .L62
 625 0014 1B68     		ldr	r3, [r3]
 626 0016 0393     		str	r3, [sp, #12]
 627              		.loc 1 153 0
ARM GAS  C:\Users\PCHAUT~1\AppData\Local\Temp\cc7zwTNO.s 			page 12


 628 0018 BDF80030 		ldrh	r3, [sp]
 629 001c 012B     		cmp	r3, #1
 630 001e 09D0     		beq	.L56
 631 0020 022B     		cmp	r3, #2
 632 0022 0ED0     		beq	.L57
 633 0024 002B     		cmp	r3, #0
 634 0026 11D1     		bne	.L61
 635              		.loc 1 155 0
 636 0028 BDF80230 		ldrh	r3, [sp, #2]
 637 002c 5B42     		negs	r3, r3
 638 002e 9BB2     		uxth	r3, r3
 639 0030 1BB2     		sxth	r3, r3
 640 0032 0CE0     		b	.L59
 641              	.L56:
 642              		.loc 1 156 0
 643 0034 BDF90230 		ldrsh	r3, [sp, #2]
 644 0038 002B     		cmp	r3, #0
 645 003a B8BF     		it	lt
 646 003c 5B42     		rsblt	r3, r3, #0
 647 003e 1BB2     		sxth	r3, r3
 648 0040 05E0     		b	.L59
 649              	.L57:
 650              		.loc 1 157 0
 651 0042 BDF80230 		ldrh	r3, [sp, #2]	@ movhi
 652 0046 DB43     		mvns	r3, r3
 653 0048 1BB2     		sxth	r3, r3
 654 004a 00E0     		b	.L59
 655              	.L61:
 656              		.loc 1 163 0
 657 004c 0023     		movs	r3, #0
 658              	.L59:
 659              		.loc 1 165 0
 660 004e 1846     		mov	r0, r3
 661 0050 044B     		ldr	r3, .L62
 662 0052 039A     		ldr	r2, [sp, #12]
 663 0054 1B68     		ldr	r3, [r3]
 664 0056 9A42     		cmp	r2, r3
 665 0058 01D0     		beq	.L60
 666 005a FFF7FEFF 		bl	__stack_chk_fail
 667              	.L60:
 668 005e 05B0     		add	sp, sp, #20
 669              		.cfi_def_cfa_offset 4
 670              		@ sp needed
 671 0060 5DF804FB 		ldr	pc, [sp], #4
 672              	.L63:
 673              		.align	2
 674              	.L62:
 675 0064 00000000 		.word	__stack_chk_guard
 676              		.cfi_endproc
 677              	.LFE4:
 678              		.size	AsebaVMDoUnaryOperation, .-AsebaVMDoUnaryOperation
 679              		.section	.text.AsebaVMStep,"ax",%progbits
 680              		.align	1
 681              		.p2align 4,,15
 682              		.global	AsebaVMStep
 683              		.syntax unified
 684              		.thumb
ARM GAS  C:\Users\PCHAUT~1\AppData\Local\Temp\cc7zwTNO.s 			page 13


 685              		.thumb_func
 686              		.fpu fpv4-sp-d16
 687              		.type	AsebaVMStep, %function
 688              	AsebaVMStep:
 689              	.LFB5:
 690              		.loc 1 170 0
 691              		.cfi_startproc
 692              		@ args = 0, pretend = 0, frame = 72
 693              		@ frame_needed = 0, uses_anonymous_args = 0
 694 0000 00B5     		push	{lr}
 695              		.cfi_def_cfa_offset 4
 696              		.cfi_offset 14, -4
 697 0002 93B0     		sub	sp, sp, #76
 698              		.cfi_def_cfa_offset 80
 699 0004 0190     		str	r0, [sp, #4]
 700              		.loc 1 170 0
 701 0006 924B     		ldr	r3, .L96
 702 0008 1B68     		ldr	r3, [r3]
 703 000a 1193     		str	r3, [sp, #68]
 704              		.loc 1 171 0
 705 000c 019B     		ldr	r3, [sp, #4]
 706 000e 5A68     		ldr	r2, [r3, #4]
 707 0010 019B     		ldr	r3, [sp, #4]
 708 0012 5B8B     		ldrh	r3, [r3, #26]
 709 0014 5B00     		lsls	r3, r3, #1
 710 0016 1344     		add	r3, r3, r2
 711 0018 1B88     		ldrh	r3, [r3]	@ movhi
 712 001a ADF80E30 		strh	r3, [sp, #14]	@ movhi
 713              		.loc 1 178 0
 714 001e BDF80E30 		ldrh	r3, [sp, #14]
 715 0022 1B0B     		lsrs	r3, r3, #12
 716 0024 9BB2     		uxth	r3, r3
 717 0026 0E2B     		cmp	r3, #14
 718 0028 00F2EB82 		bhi	.L93
 719 002c 01A2     		adr	r2, .L67
 720 002e 52F823F0 		ldr	pc, [r2, r3, lsl #2]
 721 0032 00BF     		.p2align 2
 722              	.L67:
 723 0034 71000000 		.word	.L66+1
 724 0038 81000000 		.word	.L68+1
 725 003c C3000000 		.word	.L69+1
 726 0040 05010000 		.word	.L70+1
 727 0044 51010000 		.word	.L71+1
 728 0048 99010000 		.word	.L72+1
 729 004c 59020000 		.word	.L73+1
 730 0050 2D030000 		.word	.L74+1
 731 0054 7D030000 		.word	.L75+1
 732 0058 FB030000 		.word	.L76+1
 733 005c 1B040000 		.word	.L77+1
 734 0060 1B050000 		.word	.L78+1
 735 0064 75050000 		.word	.L79+1
 736 0068 99050000 		.word	.L80+1
 737 006c DB050000 		.word	.L81+1
 738              		.p2align 1
 739              	.L66:
 740              		.loc 1 183 0
 741 0070 019B     		ldr	r3, [sp, #4]
ARM GAS  C:\Users\PCHAUT~1\AppData\Local\Temp\cc7zwTNO.s 			page 14


 742 0072 1B8B     		ldrh	r3, [r3, #24]
 743 0074 23F00103 		bic	r3, r3, #1
 744 0078 9AB2     		uxth	r2, r3
 745 007a 019B     		ldr	r3, [sp, #4]
 746 007c 1A83     		strh	r2, [r3, #24]	@ movhi
 747              		.loc 1 185 0
 748 007e C5E2     		b	.L82
 749              	.L68:
 750              	.LBB2:
 751              		.loc 1 190 0
 752 0080 BDF80E30 		ldrh	r3, [sp, #14]
 753 0084 1B01     		lsls	r3, r3, #4
 754 0086 1BB2     		sxth	r3, r3
 755 0088 1B11     		asrs	r3, r3, #4
 756 008a ADF83A30 		strh	r3, [sp, #58]	@ movhi
 757              		.loc 1 199 0
 758 008e 019B     		ldr	r3, [sp, #4]
 759 0090 5A69     		ldr	r2, [r3, #20]
 760 0092 019B     		ldr	r3, [sp, #4]
 761 0094 B3F91C30 		ldrsh	r3, [r3, #28]
 762 0098 9BB2     		uxth	r3, r3
 763 009a 0133     		adds	r3, r3, #1
 764 009c 9BB2     		uxth	r3, r3
 765 009e 19B2     		sxth	r1, r3
 766 00a0 019B     		ldr	r3, [sp, #4]
 767 00a2 9983     		strh	r1, [r3, #28]	@ movhi
 768 00a4 019B     		ldr	r3, [sp, #4]
 769 00a6 B3F91C30 		ldrsh	r3, [r3, #28]
 770 00aa 5B00     		lsls	r3, r3, #1
 771 00ac 1344     		add	r3, r3, r2
 772 00ae BDF83A20 		ldrh	r2, [sp, #58]	@ movhi
 773 00b2 1A80     		strh	r2, [r3]	@ movhi
 774              		.loc 1 202 0
 775 00b4 019B     		ldr	r3, [sp, #4]
 776 00b6 5B8B     		ldrh	r3, [r3, #26]
 777 00b8 0133     		adds	r3, r3, #1
 778 00ba 9AB2     		uxth	r2, r3
 779 00bc 019B     		ldr	r3, [sp, #4]
 780 00be 5A83     		strh	r2, [r3, #26]	@ movhi
 781              	.LBE2:
 782              		.loc 1 204 0
 783 00c0 A4E2     		b	.L82
 784              	.L69:
 785              		.loc 1 216 0
 786 00c2 019B     		ldr	r3, [sp, #4]
 787 00c4 5A68     		ldr	r2, [r3, #4]
 788 00c6 019B     		ldr	r3, [sp, #4]
 789 00c8 5B8B     		ldrh	r3, [r3, #26]
 790 00ca 0133     		adds	r3, r3, #1
 791 00cc 5B00     		lsls	r3, r3, #1
 792 00ce 1344     		add	r3, r3, r2
 793 00d0 1988     		ldrh	r1, [r3]
 794 00d2 019B     		ldr	r3, [sp, #4]
 795 00d4 5A69     		ldr	r2, [r3, #20]
 796 00d6 019B     		ldr	r3, [sp, #4]
 797 00d8 B3F91C30 		ldrsh	r3, [r3, #28]
 798 00dc 9BB2     		uxth	r3, r3
ARM GAS  C:\Users\PCHAUT~1\AppData\Local\Temp\cc7zwTNO.s 			page 15


 799 00de 0133     		adds	r3, r3, #1
 800 00e0 9BB2     		uxth	r3, r3
 801 00e2 18B2     		sxth	r0, r3
 802 00e4 019B     		ldr	r3, [sp, #4]
 803 00e6 9883     		strh	r0, [r3, #28]	@ movhi
 804 00e8 019B     		ldr	r3, [sp, #4]
 805 00ea B3F91C30 		ldrsh	r3, [r3, #28]
 806 00ee 5B00     		lsls	r3, r3, #1
 807 00f0 1344     		add	r3, r3, r2
 808 00f2 0AB2     		sxth	r2, r1
 809 00f4 1A80     		strh	r2, [r3]	@ movhi
 810              		.loc 1 219 0
 811 00f6 019B     		ldr	r3, [sp, #4]
 812 00f8 5B8B     		ldrh	r3, [r3, #26]
 813 00fa 0233     		adds	r3, r3, #2
 814 00fc 9AB2     		uxth	r2, r3
 815 00fe 019B     		ldr	r3, [sp, #4]
 816 0100 5A83     		strh	r2, [r3, #26]	@ movhi
 817              		.loc 1 221 0
 818 0102 83E2     		b	.L82
 819              	.L70:
 820              	.LBB3:
 821              		.loc 1 226 0
 822 0104 BDF80E30 		ldrh	r3, [sp, #14]	@ movhi
 823 0108 C3F30B03 		ubfx	r3, r3, #0, #12
 824 010c ADF83830 		strh	r3, [sp, #56]	@ movhi
 825              		.loc 1 237 0
 826 0110 019B     		ldr	r3, [sp, #4]
 827 0112 DA68     		ldr	r2, [r3, #12]
 828 0114 BDF83830 		ldrh	r3, [sp, #56]
 829 0118 5B00     		lsls	r3, r3, #1
 830 011a 1A44     		add	r2, r2, r3
 831 011c 019B     		ldr	r3, [sp, #4]
 832 011e 5969     		ldr	r1, [r3, #20]
 833 0120 019B     		ldr	r3, [sp, #4]
 834 0122 B3F91C30 		ldrsh	r3, [r3, #28]
 835 0126 9BB2     		uxth	r3, r3
 836 0128 0133     		adds	r3, r3, #1
 837 012a 9BB2     		uxth	r3, r3
 838 012c 18B2     		sxth	r0, r3
 839 012e 019B     		ldr	r3, [sp, #4]
 840 0130 9883     		strh	r0, [r3, #28]	@ movhi
 841 0132 019B     		ldr	r3, [sp, #4]
 842 0134 B3F91C30 		ldrsh	r3, [r3, #28]
 843 0138 5B00     		lsls	r3, r3, #1
 844 013a 0B44     		add	r3, r3, r1
 845 013c B2F90020 		ldrsh	r2, [r2]
 846 0140 1A80     		strh	r2, [r3]	@ movhi
 847              		.loc 1 240 0
 848 0142 019B     		ldr	r3, [sp, #4]
 849 0144 5B8B     		ldrh	r3, [r3, #26]
 850 0146 0133     		adds	r3, r3, #1
 851 0148 9AB2     		uxth	r2, r3
 852 014a 019B     		ldr	r3, [sp, #4]
 853 014c 5A83     		strh	r2, [r3, #26]	@ movhi
 854              	.LBE3:
 855              		.loc 1 242 0
ARM GAS  C:\Users\PCHAUT~1\AppData\Local\Temp\cc7zwTNO.s 			page 16


 856 014e 5DE2     		b	.L82
 857              	.L71:
 858              	.LBB4:
 859              		.loc 1 247 0
 860 0150 BDF80E30 		ldrh	r3, [sp, #14]	@ movhi
 861 0154 C3F30B03 		ubfx	r3, r3, #0, #12
 862 0158 ADF83630 		strh	r3, [sp, #54]	@ movhi
 863              		.loc 1 258 0
 864 015c 019B     		ldr	r3, [sp, #4]
 865 015e 5A69     		ldr	r2, [r3, #20]
 866 0160 019B     		ldr	r3, [sp, #4]
 867 0162 B3F91C10 		ldrsh	r1, [r3, #28]
 868 0166 8BB2     		uxth	r3, r1
 869 0168 013B     		subs	r3, r3, #1
 870 016a 9BB2     		uxth	r3, r3
 871 016c 18B2     		sxth	r0, r3
 872 016e 019B     		ldr	r3, [sp, #4]
 873 0170 9883     		strh	r0, [r3, #28]	@ movhi
 874 0172 0B46     		mov	r3, r1
 875 0174 5B00     		lsls	r3, r3, #1
 876 0176 1A44     		add	r2, r2, r3
 877 0178 019B     		ldr	r3, [sp, #4]
 878 017a D968     		ldr	r1, [r3, #12]
 879 017c BDF83630 		ldrh	r3, [sp, #54]
 880 0180 5B00     		lsls	r3, r3, #1
 881 0182 0B44     		add	r3, r3, r1
 882 0184 B2F90020 		ldrsh	r2, [r2]
 883 0188 1A80     		strh	r2, [r3]	@ movhi
 884              		.loc 1 261 0
 885 018a 019B     		ldr	r3, [sp, #4]
 886 018c 5B8B     		ldrh	r3, [r3, #26]
 887 018e 0133     		adds	r3, r3, #1
 888 0190 9AB2     		uxth	r2, r3
 889 0192 019B     		ldr	r3, [sp, #4]
 890 0194 5A83     		strh	r2, [r3, #26]	@ movhi
 891              	.LBE4:
 892              		.loc 1 263 0
 893 0196 39E2     		b	.L82
 894              	.L72:
 895              	.LBB5:
 896              		.loc 1 279 0
 897 0198 BDF80E30 		ldrh	r3, [sp, #14]	@ movhi
 898 019c C3F30B03 		ubfx	r3, r3, #0, #12
 899 01a0 ADF83030 		strh	r3, [sp, #48]	@ movhi
 900              		.loc 1 280 0
 901 01a4 019B     		ldr	r3, [sp, #4]
 902 01a6 5A68     		ldr	r2, [r3, #4]
 903 01a8 019B     		ldr	r3, [sp, #4]
 904 01aa 5B8B     		ldrh	r3, [r3, #26]
 905 01ac 0133     		adds	r3, r3, #1
 906 01ae 5B00     		lsls	r3, r3, #1
 907 01b0 1344     		add	r3, r3, r2
 908 01b2 1B88     		ldrh	r3, [r3]	@ movhi
 909 01b4 ADF83230 		strh	r3, [sp, #50]	@ movhi
 910              		.loc 1 281 0
 911 01b8 019B     		ldr	r3, [sp, #4]
 912 01ba 5A69     		ldr	r2, [r3, #20]
ARM GAS  C:\Users\PCHAUT~1\AppData\Local\Temp\cc7zwTNO.s 			page 17


 913 01bc 019B     		ldr	r3, [sp, #4]
 914 01be B3F91C30 		ldrsh	r3, [r3, #28]
 915 01c2 5B00     		lsls	r3, r3, #1
 916 01c4 1344     		add	r3, r3, r2
 917 01c6 B3F90030 		ldrsh	r3, [r3]
 918 01ca ADF83430 		strh	r3, [sp, #52]	@ movhi
 919              		.loc 1 284 0
 920 01ce BDF83420 		ldrh	r2, [sp, #52]
 921 01d2 BDF83230 		ldrh	r3, [sp, #50]
 922 01d6 9A42     		cmp	r2, r3
 923 01d8 1FD3     		bcc	.L83
 924              	.LBB6:
 925              		.loc 1 287 0
 926 01da 019B     		ldr	r3, [sp, #4]
 927 01dc 5B8B     		ldrh	r3, [r3, #26]
 928 01de ADF83C30 		strh	r3, [sp, #60]	@ movhi
 929              		.loc 1 288 0
 930 01e2 BDF83230 		ldrh	r3, [sp, #50]	@ movhi
 931 01e6 ADF83E30 		strh	r3, [sp, #62]	@ movhi
 932              		.loc 1 289 0
 933 01ea BDF83430 		ldrh	r3, [sp, #52]	@ movhi
 934 01ee ADF84030 		strh	r3, [sp, #64]	@ movhi
 935              		.loc 1 290 0
 936 01f2 019B     		ldr	r3, [sp, #4]
 937 01f4 0222     		movs	r2, #2
 938 01f6 1A83     		strh	r2, [r3, #24]	@ movhi
 939              		.loc 1 291 0
 940 01f8 0FAA     		add	r2, sp, #60
 941 01fa 0623     		movs	r3, #6
 942 01fc 49F20601 		movw	r1, #36870
 943 0200 0198     		ldr	r0, [sp, #4]
 944 0202 FFF7FEFF 		bl	AsebaSendMessage
 945              		.loc 1 292 0
 946 0206 134B     		ldr	r3, .L96+4
 947 0208 002B     		cmp	r3, #0
 948 020a 00F0FC81 		beq	.L94
 949              		.loc 1 293 0
 950 020e 0021     		movs	r1, #0
 951 0210 0198     		ldr	r0, [sp, #4]
 952 0212 FFF7FEFF 		bl	AsebaVMErrorCB
 953              		.loc 1 294 0
 954 0216 00BF     		nop
 955 0218 F5E1     		b	.L94
 956              	.L83:
 957              	.LBE6:
 958              		.loc 1 298 0
 959 021a 019B     		ldr	r3, [sp, #4]
 960 021c DA68     		ldr	r2, [r3, #12]
 961 021e BDF83010 		ldrh	r1, [sp, #48]
 962 0222 BDF83430 		ldrh	r3, [sp, #52]
 963 0226 0B44     		add	r3, r3, r1
 964 0228 5B00     		lsls	r3, r3, #1
 965 022a 1A44     		add	r2, r2, r3
 966 022c 019B     		ldr	r3, [sp, #4]
 967 022e 5969     		ldr	r1, [r3, #20]
 968 0230 019B     		ldr	r3, [sp, #4]
 969 0232 B3F91C30 		ldrsh	r3, [r3, #28]
ARM GAS  C:\Users\PCHAUT~1\AppData\Local\Temp\cc7zwTNO.s 			page 18


 970 0236 5B00     		lsls	r3, r3, #1
 971 0238 0B44     		add	r3, r3, r1
 972 023a B2F90020 		ldrsh	r2, [r2]
 973 023e 1A80     		strh	r2, [r3]	@ movhi
 974              		.loc 1 301 0
 975 0240 019B     		ldr	r3, [sp, #4]
 976 0242 5B8B     		ldrh	r3, [r3, #26]
 977 0244 0233     		adds	r3, r3, #2
 978 0246 9AB2     		uxth	r2, r3
 979 0248 019B     		ldr	r3, [sp, #4]
 980 024a 5A83     		strh	r2, [r3, #26]	@ movhi
 981              	.LBE5:
 982              		.loc 1 303 0
 983 024c DEE1     		b	.L82
 984              	.L97:
 985 024e 00BF     		.align	2
 986              	.L96:
 987 0250 00000000 		.word	__stack_chk_guard
 988 0254 00000000 		.word	AsebaVMErrorCB
 989              	.L73:
 990              	.LBB8:
 991              		.loc 1 320 0
 992 0258 BDF80E30 		ldrh	r3, [sp, #14]	@ movhi
 993 025c C3F30B03 		ubfx	r3, r3, #0, #12
 994 0260 ADF82830 		strh	r3, [sp, #40]	@ movhi
 995              		.loc 1 321 0
 996 0264 019B     		ldr	r3, [sp, #4]
 997 0266 5A68     		ldr	r2, [r3, #4]
 998 0268 019B     		ldr	r3, [sp, #4]
 999 026a 5B8B     		ldrh	r3, [r3, #26]
 1000 026c 0133     		adds	r3, r3, #1
 1001 026e 5B00     		lsls	r3, r3, #1
 1002 0270 1344     		add	r3, r3, r2
 1003 0272 1B88     		ldrh	r3, [r3]	@ movhi
 1004 0274 ADF82A30 		strh	r3, [sp, #42]	@ movhi
 1005              		.loc 1 322 0
 1006 0278 019B     		ldr	r3, [sp, #4]
 1007 027a 5A69     		ldr	r2, [r3, #20]
 1008 027c 019B     		ldr	r3, [sp, #4]
 1009 027e B3F91C30 		ldrsh	r3, [r3, #28]
 1010 0282 03F10043 		add	r3, r3, #-2147483648
 1011 0286 013B     		subs	r3, r3, #1
 1012 0288 5B00     		lsls	r3, r3, #1
 1013 028a 1344     		add	r3, r3, r2
 1014 028c 1B88     		ldrh	r3, [r3]	@ movhi
 1015 028e ADF82C30 		strh	r3, [sp, #44]	@ movhi
 1016              		.loc 1 323 0
 1017 0292 019B     		ldr	r3, [sp, #4]
 1018 0294 5A69     		ldr	r2, [r3, #20]
 1019 0296 019B     		ldr	r3, [sp, #4]
 1020 0298 B3F91C30 		ldrsh	r3, [r3, #28]
 1021 029c 5B00     		lsls	r3, r3, #1
 1022 029e 1344     		add	r3, r3, r2
 1023 02a0 B3F90030 		ldrsh	r3, [r3]
 1024 02a4 ADF82E30 		strh	r3, [sp, #46]	@ movhi
 1025              		.loc 1 326 0
 1026 02a8 BDF82E20 		ldrh	r2, [sp, #46]
ARM GAS  C:\Users\PCHAUT~1\AppData\Local\Temp\cc7zwTNO.s 			page 19


 1027 02ac BDF82A30 		ldrh	r3, [sp, #42]
 1028 02b0 9A42     		cmp	r2, r3
 1029 02b2 1FD3     		bcc	.L85
 1030              	.LBB9:
 1031              		.loc 1 329 0
 1032 02b4 019B     		ldr	r3, [sp, #4]
 1033 02b6 5B8B     		ldrh	r3, [r3, #26]
 1034 02b8 ADF83C30 		strh	r3, [sp, #60]	@ movhi
 1035              		.loc 1 330 0
 1036 02bc BDF82A30 		ldrh	r3, [sp, #42]	@ movhi
 1037 02c0 ADF83E30 		strh	r3, [sp, #62]	@ movhi
 1038              		.loc 1 331 0
 1039 02c4 BDF82E30 		ldrh	r3, [sp, #46]	@ movhi
 1040 02c8 ADF84030 		strh	r3, [sp, #64]	@ movhi
 1041              		.loc 1 332 0
 1042 02cc 019B     		ldr	r3, [sp, #4]
 1043 02ce 0222     		movs	r2, #2
 1044 02d0 1A83     		strh	r2, [r3, #24]	@ movhi
 1045              		.loc 1 333 0
 1046 02d2 0FAA     		add	r2, sp, #60
 1047 02d4 0623     		movs	r3, #6
 1048 02d6 49F20601 		movw	r1, #36870
 1049 02da 0198     		ldr	r0, [sp, #4]
 1050 02dc FFF7FEFF 		bl	AsebaSendMessage
 1051              		.loc 1 334 0
 1052 02e0 AC4B     		ldr	r3, .L98
 1053 02e2 002B     		cmp	r3, #0
 1054 02e4 00F09181 		beq	.L95
 1055              		.loc 1 335 0
 1056 02e8 0021     		movs	r1, #0
 1057 02ea 0198     		ldr	r0, [sp, #4]
 1058 02ec FFF7FEFF 		bl	AsebaVMErrorCB
 1059              		.loc 1 336 0
 1060 02f0 00BF     		nop
 1061 02f2 8AE1     		b	.L95
 1062              	.L85:
 1063              	.LBE9:
 1064              		.loc 1 340 0
 1065 02f4 019B     		ldr	r3, [sp, #4]
 1066 02f6 DA68     		ldr	r2, [r3, #12]
 1067 02f8 BDF82810 		ldrh	r1, [sp, #40]
 1068 02fc BDF82E30 		ldrh	r3, [sp, #46]
 1069 0300 0B44     		add	r3, r3, r1
 1070 0302 5B00     		lsls	r3, r3, #1
 1071 0304 1344     		add	r3, r3, r2
 1072 0306 BDF82C20 		ldrh	r2, [sp, #44]	@ movhi
 1073 030a 1A80     		strh	r2, [r3]	@ movhi
 1074              		.loc 1 341 0
 1075 030c 019B     		ldr	r3, [sp, #4]
 1076 030e B3F91C30 		ldrsh	r3, [r3, #28]
 1077 0312 9BB2     		uxth	r3, r3
 1078 0314 023B     		subs	r3, r3, #2
 1079 0316 9BB2     		uxth	r3, r3
 1080 0318 1AB2     		sxth	r2, r3
 1081 031a 019B     		ldr	r3, [sp, #4]
 1082 031c 9A83     		strh	r2, [r3, #28]	@ movhi
 1083              		.loc 1 344 0
ARM GAS  C:\Users\PCHAUT~1\AppData\Local\Temp\cc7zwTNO.s 			page 20


 1084 031e 019B     		ldr	r3, [sp, #4]
 1085 0320 5B8B     		ldrh	r3, [r3, #26]
 1086 0322 0233     		adds	r3, r3, #2
 1087 0324 9AB2     		uxth	r2, r3
 1088 0326 019B     		ldr	r3, [sp, #4]
 1089 0328 5A83     		strh	r2, [r3, #26]	@ movhi
 1090              	.LBE8:
 1091              		.loc 1 346 0
 1092 032a 6FE1     		b	.L82
 1093              	.L74:
 1094              	.LBB11:
 1095              		.loc 1 360 0
 1096 032c 019B     		ldr	r3, [sp, #4]
 1097 032e 5A69     		ldr	r2, [r3, #20]
 1098 0330 019B     		ldr	r3, [sp, #4]
 1099 0332 B3F91C30 		ldrsh	r3, [r3, #28]
 1100 0336 5B00     		lsls	r3, r3, #1
 1101 0338 1344     		add	r3, r3, r2
 1102 033a 1B88     		ldrh	r3, [r3]	@ movhi
 1103 033c ADF82430 		strh	r3, [sp, #36]	@ movhi
 1104              		.loc 1 363 0
 1105 0340 BDF80E30 		ldrh	r3, [sp, #14]	@ movhi
 1106 0344 DBB2     		uxtb	r3, r3
 1107 0346 9AB2     		uxth	r2, r3
 1108 0348 BDF92430 		ldrsh	r3, [sp, #36]
 1109 034c 1946     		mov	r1, r3
 1110 034e 0198     		ldr	r0, [sp, #4]
 1111 0350 FFF7FEFF 		bl	AsebaVMDoUnaryOperation
 1112 0354 0346     		mov	r3, r0
 1113 0356 ADF82630 		strh	r3, [sp, #38]	@ movhi
 1114              		.loc 1 366 0
 1115 035a 019B     		ldr	r3, [sp, #4]
 1116 035c 5A69     		ldr	r2, [r3, #20]
 1117 035e 019B     		ldr	r3, [sp, #4]
 1118 0360 B3F91C30 		ldrsh	r3, [r3, #28]
 1119 0364 5B00     		lsls	r3, r3, #1
 1120 0366 1344     		add	r3, r3, r2
 1121 0368 BDF82620 		ldrh	r2, [sp, #38]	@ movhi
 1122 036c 1A80     		strh	r2, [r3]	@ movhi
 1123              		.loc 1 369 0
 1124 036e 019B     		ldr	r3, [sp, #4]
 1125 0370 5B8B     		ldrh	r3, [r3, #26]
 1126 0372 0133     		adds	r3, r3, #1
 1127 0374 9AB2     		uxth	r2, r3
 1128 0376 019B     		ldr	r3, [sp, #4]
 1129 0378 5A83     		strh	r2, [r3, #26]	@ movhi
 1130              	.LBE11:
 1131              		.loc 1 371 0
 1132 037a 47E1     		b	.L82
 1133              	.L75:
 1134              	.LBB12:
 1135              		.loc 1 385 0
 1136 037c 019B     		ldr	r3, [sp, #4]
 1137 037e 5A69     		ldr	r2, [r3, #20]
 1138 0380 019B     		ldr	r3, [sp, #4]
 1139 0382 B3F91C30 		ldrsh	r3, [r3, #28]
 1140 0386 03F10043 		add	r3, r3, #-2147483648
ARM GAS  C:\Users\PCHAUT~1\AppData\Local\Temp\cc7zwTNO.s 			page 21


 1141 038a 013B     		subs	r3, r3, #1
 1142 038c 5B00     		lsls	r3, r3, #1
 1143 038e 1344     		add	r3, r3, r2
 1144 0390 1B88     		ldrh	r3, [r3]	@ movhi
 1145 0392 ADF81E30 		strh	r3, [sp, #30]	@ movhi
 1146              		.loc 1 386 0
 1147 0396 019B     		ldr	r3, [sp, #4]
 1148 0398 5A69     		ldr	r2, [r3, #20]
 1149 039a 019B     		ldr	r3, [sp, #4]
 1150 039c B3F91C30 		ldrsh	r3, [r3, #28]
 1151 03a0 5B00     		lsls	r3, r3, #1
 1152 03a2 1344     		add	r3, r3, r2
 1153 03a4 1B88     		ldrh	r3, [r3]	@ movhi
 1154 03a6 ADF82030 		strh	r3, [sp, #32]	@ movhi
 1155              		.loc 1 389 0
 1156 03aa BDF80E30 		ldrh	r3, [sp, #14]	@ movhi
 1157 03ae DBB2     		uxtb	r3, r3
 1158 03b0 9BB2     		uxth	r3, r3
 1159 03b2 BDF92020 		ldrsh	r2, [sp, #32]
 1160 03b6 BDF91E10 		ldrsh	r1, [sp, #30]
 1161 03ba 0198     		ldr	r0, [sp, #4]
 1162 03bc FFF7FEFF 		bl	AsebaVMDoBinaryOperation
 1163 03c0 0346     		mov	r3, r0
 1164 03c2 ADF82230 		strh	r3, [sp, #34]	@ movhi
 1165              		.loc 1 392 0
 1166 03c6 019B     		ldr	r3, [sp, #4]
 1167 03c8 B3F91C30 		ldrsh	r3, [r3, #28]
 1168 03cc 9BB2     		uxth	r3, r3
 1169 03ce 013B     		subs	r3, r3, #1
 1170 03d0 9BB2     		uxth	r3, r3
 1171 03d2 1AB2     		sxth	r2, r3
 1172 03d4 019B     		ldr	r3, [sp, #4]
 1173 03d6 9A83     		strh	r2, [r3, #28]	@ movhi
 1174              		.loc 1 393 0
 1175 03d8 019B     		ldr	r3, [sp, #4]
 1176 03da 5A69     		ldr	r2, [r3, #20]
 1177 03dc 019B     		ldr	r3, [sp, #4]
 1178 03de B3F91C30 		ldrsh	r3, [r3, #28]
 1179 03e2 5B00     		lsls	r3, r3, #1
 1180 03e4 1344     		add	r3, r3, r2
 1181 03e6 BDF82220 		ldrh	r2, [sp, #34]	@ movhi
 1182 03ea 1A80     		strh	r2, [r3]	@ movhi
 1183              		.loc 1 396 0
 1184 03ec 019B     		ldr	r3, [sp, #4]
 1185 03ee 5B8B     		ldrh	r3, [r3, #26]
 1186 03f0 0133     		adds	r3, r3, #1
 1187 03f2 9AB2     		uxth	r2, r3
 1188 03f4 019B     		ldr	r3, [sp, #4]
 1189 03f6 5A83     		strh	r2, [r3, #26]	@ movhi
 1190              	.LBE12:
 1191              		.loc 1 398 0
 1192 03f8 08E1     		b	.L82
 1193              	.L76:
 1194              	.LBB13:
 1195              		.loc 1 403 0
 1196 03fa BDF80E30 		ldrh	r3, [sp, #14]
 1197 03fe 1B01     		lsls	r3, r3, #4
ARM GAS  C:\Users\PCHAUT~1\AppData\Local\Temp\cc7zwTNO.s 			page 22


 1198 0400 1BB2     		sxth	r3, r3
 1199 0402 1B11     		asrs	r3, r3, #4
 1200 0404 ADF81C30 		strh	r3, [sp, #28]	@ movhi
 1201              		.loc 1 412 0
 1202 0408 019B     		ldr	r3, [sp, #4]
 1203 040a 5A8B     		ldrh	r2, [r3, #26]
 1204 040c BDF81C30 		ldrh	r3, [sp, #28]
 1205 0410 1344     		add	r3, r3, r2
 1206 0412 9AB2     		uxth	r2, r3
 1207 0414 019B     		ldr	r3, [sp, #4]
 1208 0416 5A83     		strh	r2, [r3, #26]	@ movhi
 1209              	.LBE13:
 1210              		.loc 1 414 0
 1211 0418 F8E0     		b	.L82
 1212              	.L77:
 1213              	.LBB14:
 1214              		.loc 1 430 0
 1215 041a 019B     		ldr	r3, [sp, #4]
 1216 041c 5A69     		ldr	r2, [r3, #20]
 1217 041e 019B     		ldr	r3, [sp, #4]
 1218 0420 B3F91C30 		ldrsh	r3, [r3, #28]
 1219 0424 03F10043 		add	r3, r3, #-2147483648
 1220 0428 013B     		subs	r3, r3, #1
 1221 042a 5B00     		lsls	r3, r3, #1
 1222 042c 1344     		add	r3, r3, r2
 1223 042e 1B88     		ldrh	r3, [r3]	@ movhi
 1224 0430 ADF81630 		strh	r3, [sp, #22]	@ movhi
 1225              		.loc 1 431 0
 1226 0434 019B     		ldr	r3, [sp, #4]
 1227 0436 5A69     		ldr	r2, [r3, #20]
 1228 0438 019B     		ldr	r3, [sp, #4]
 1229 043a B3F91C30 		ldrsh	r3, [r3, #28]
 1230 043e 5B00     		lsls	r3, r3, #1
 1231 0440 1344     		add	r3, r3, r2
 1232 0442 1B88     		ldrh	r3, [r3]	@ movhi
 1233 0444 ADF81830 		strh	r3, [sp, #24]	@ movhi
 1234              		.loc 1 432 0
 1235 0448 BDF80E30 		ldrh	r3, [sp, #14]	@ movhi
 1236 044c DBB2     		uxtb	r3, r3
 1237 044e 9BB2     		uxth	r3, r3
 1238 0450 BDF91820 		ldrsh	r2, [sp, #24]
 1239 0454 BDF91610 		ldrsh	r1, [sp, #22]
 1240 0458 0198     		ldr	r0, [sp, #4]
 1241 045a FFF7FEFF 		bl	AsebaVMDoBinaryOperation
 1242 045e 0346     		mov	r3, r0
 1243 0460 ADF81A30 		strh	r3, [sp, #26]	@ movhi
 1244              		.loc 1 433 0
 1245 0464 019B     		ldr	r3, [sp, #4]
 1246 0466 B3F91C30 		ldrsh	r3, [r3, #28]
 1247 046a 9BB2     		uxth	r3, r3
 1248 046c 023B     		subs	r3, r3, #2
 1249 046e 9BB2     		uxth	r3, r3
 1250 0470 1AB2     		sxth	r2, r3
 1251 0472 019B     		ldr	r3, [sp, #4]
 1252 0474 9A83     		strh	r2, [r3, #28]	@ movhi
 1253              		.loc 1 436 0
 1254 0476 BDF91A30 		ldrsh	r3, [sp, #26]
ARM GAS  C:\Users\PCHAUT~1\AppData\Local\Temp\cc7zwTNO.s 			page 23


 1255 047a 002B     		cmp	r3, #0
 1256 047c 13D0     		beq	.L87
 1257              		.loc 1 436 0 is_stmt 0 discriminator 1
 1258 047e BDF80E30 		ldrh	r3, [sp, #14]
 1259 0482 1B0A     		lsrs	r3, r3, #8
 1260 0484 9BB2     		uxth	r3, r3
 1261 0486 03F00103 		and	r3, r3, #1
 1262 048a 002B     		cmp	r3, #0
 1263 048c 07D0     		beq	.L88
 1264              		.loc 1 436 0 discriminator 2
 1265 048e BDF80E30 		ldrh	r3, [sp, #14]
 1266 0492 5B0A     		lsrs	r3, r3, #9
 1267 0494 9BB2     		uxth	r3, r3
 1268 0496 03F00103 		and	r3, r3, #1
 1269 049a 002B     		cmp	r3, #0
 1270 049c 03D1     		bne	.L87
 1271              	.L88:
 1272              		.loc 1 439 0 is_stmt 1
 1273 049e 0223     		movs	r3, #2
 1274 04a0 ADF80C30 		strh	r3, [sp, #12]	@ movhi
 1275 04a4 09E0     		b	.L89
 1276              	.L87:
 1277              		.loc 1 444 0
 1278 04a6 019B     		ldr	r3, [sp, #4]
 1279 04a8 5A68     		ldr	r2, [r3, #4]
 1280 04aa 019B     		ldr	r3, [sp, #4]
 1281 04ac 5B8B     		ldrh	r3, [r3, #26]
 1282 04ae 0133     		adds	r3, r3, #1
 1283 04b0 5B00     		lsls	r3, r3, #1
 1284 04b2 1344     		add	r3, r3, r2
 1285 04b4 1B88     		ldrh	r3, [r3]
 1286 04b6 ADF80C30 		strh	r3, [sp, #12]	@ movhi
 1287              	.L89:
 1288              		.loc 1 448 0
 1289 04ba BDF91A30 		ldrsh	r3, [sp, #26]
 1290 04be 002B     		cmp	r3, #0
 1291 04c0 11D0     		beq	.L90
 1292              		.loc 1 449 0
 1293 04c2 019B     		ldr	r3, [sp, #4]
 1294 04c4 5A68     		ldr	r2, [r3, #4]
 1295 04c6 019B     		ldr	r3, [sp, #4]
 1296 04c8 5B8B     		ldrh	r3, [r3, #26]
 1297 04ca 5B00     		lsls	r3, r3, #1
 1298 04cc 1344     		add	r3, r3, r2
 1299 04ce 1A88     		ldrh	r2, [r3]
 1300 04d0 019B     		ldr	r3, [sp, #4]
 1301 04d2 5968     		ldr	r1, [r3, #4]
 1302 04d4 019B     		ldr	r3, [sp, #4]
 1303 04d6 5B8B     		ldrh	r3, [r3, #26]
 1304 04d8 5B00     		lsls	r3, r3, #1
 1305 04da 0B44     		add	r3, r3, r1
 1306 04dc 42F40072 		orr	r2, r2, #512
 1307 04e0 92B2     		uxth	r2, r2
 1308 04e2 1A80     		strh	r2, [r3]	@ movhi
 1309 04e4 10E0     		b	.L91
 1310              	.L90:
 1311              		.loc 1 451 0
ARM GAS  C:\Users\PCHAUT~1\AppData\Local\Temp\cc7zwTNO.s 			page 24


 1312 04e6 019B     		ldr	r3, [sp, #4]
 1313 04e8 5A68     		ldr	r2, [r3, #4]
 1314 04ea 019B     		ldr	r3, [sp, #4]
 1315 04ec 5B8B     		ldrh	r3, [r3, #26]
 1316 04ee 5B00     		lsls	r3, r3, #1
 1317 04f0 1344     		add	r3, r3, r2
 1318 04f2 1A88     		ldrh	r2, [r3]
 1319 04f4 019B     		ldr	r3, [sp, #4]
 1320 04f6 5968     		ldr	r1, [r3, #4]
 1321 04f8 019B     		ldr	r3, [sp, #4]
 1322 04fa 5B8B     		ldrh	r3, [r3, #26]
 1323 04fc 5B00     		lsls	r3, r3, #1
 1324 04fe 0B44     		add	r3, r3, r1
 1325 0500 22F40072 		bic	r2, r2, #512
 1326 0504 92B2     		uxth	r2, r2
 1327 0506 1A80     		strh	r2, [r3]	@ movhi
 1328              	.L91:
 1329              		.loc 1 460 0
 1330 0508 019B     		ldr	r3, [sp, #4]
 1331 050a 5A8B     		ldrh	r2, [r3, #26]
 1332 050c BDF80C30 		ldrh	r3, [sp, #12]
 1333 0510 1344     		add	r3, r3, r2
 1334 0512 9AB2     		uxth	r2, r3
 1335 0514 019B     		ldr	r3, [sp, #4]
 1336 0516 5A83     		strh	r2, [r3, #26]	@ movhi
 1337              	.LBE14:
 1338              		.loc 1 462 0
 1339 0518 78E0     		b	.L82
 1340              	.L78:
 1341              	.LBB15:
 1342              		.loc 1 468 0
 1343 051a 019B     		ldr	r3, [sp, #4]
 1344 051c 5A68     		ldr	r2, [r3, #4]
 1345 051e 019B     		ldr	r3, [sp, #4]
 1346 0520 5B8B     		ldrh	r3, [r3, #26]
 1347 0522 0133     		adds	r3, r3, #1
 1348 0524 5B00     		lsls	r3, r3, #1
 1349 0526 1344     		add	r3, r3, r2
 1350 0528 1B88     		ldrh	r3, [r3]	@ movhi
 1351 052a ADF81230 		strh	r3, [sp, #18]	@ movhi
 1352              		.loc 1 469 0
 1353 052e 019B     		ldr	r3, [sp, #4]
 1354 0530 5A68     		ldr	r2, [r3, #4]
 1355 0532 019B     		ldr	r3, [sp, #4]
 1356 0534 5B8B     		ldrh	r3, [r3, #26]
 1357 0536 0233     		adds	r3, r3, #2
 1358 0538 5B00     		lsls	r3, r3, #1
 1359 053a 1344     		add	r3, r3, r2
 1360 053c 1B88     		ldrh	r3, [r3]	@ movhi
 1361 053e ADF81430 		strh	r3, [sp, #20]	@ movhi
 1362              		.loc 1 475 0
 1363 0542 BDF80E30 		ldrh	r3, [sp, #14]	@ movhi
 1364 0546 C3F30B03 		ubfx	r3, r3, #0, #12
 1365 054a 99B2     		uxth	r1, r3
 1366 054c 019B     		ldr	r3, [sp, #4]
 1367 054e DA68     		ldr	r2, [r3, #12]
 1368 0550 BDF81230 		ldrh	r3, [sp, #18]
ARM GAS  C:\Users\PCHAUT~1\AppData\Local\Temp\cc7zwTNO.s 			page 25


 1369 0554 5B00     		lsls	r3, r3, #1
 1370 0556 1A44     		add	r2, r2, r3
 1371 0558 BDF81430 		ldrh	r3, [sp, #20]	@ movhi
 1372 055c 5B00     		lsls	r3, r3, #1
 1373 055e 9BB2     		uxth	r3, r3
 1374 0560 0198     		ldr	r0, [sp, #4]
 1375 0562 FFF7FEFF 		bl	AsebaSendMessage
 1376              		.loc 1 478 0
 1377 0566 019B     		ldr	r3, [sp, #4]
 1378 0568 5B8B     		ldrh	r3, [r3, #26]
 1379 056a 0333     		adds	r3, r3, #3
 1380 056c 9AB2     		uxth	r2, r3
 1381 056e 019B     		ldr	r3, [sp, #4]
 1382 0570 5A83     		strh	r2, [r3, #26]	@ movhi
 1383              	.LBE15:
 1384              		.loc 1 480 0
 1385 0572 4BE0     		b	.L82
 1386              	.L79:
 1387              		.loc 1 486 0
 1388 0574 BDF80E30 		ldrh	r3, [sp, #14]	@ movhi
 1389 0578 C3F30B03 		ubfx	r3, r3, #0, #12
 1390 057c 9BB2     		uxth	r3, r3
 1391 057e 1946     		mov	r1, r3
 1392 0580 0198     		ldr	r0, [sp, #4]
 1393 0582 FFF7FEFF 		bl	AsebaNativeFunction
 1394              		.loc 1 489 0
 1395 0586 019B     		ldr	r3, [sp, #4]
 1396 0588 5B8B     		ldrh	r3, [r3, #26]
 1397 058a 0133     		adds	r3, r3, #1
 1398 058c 9AB2     		uxth	r2, r3
 1399 058e 019B     		ldr	r3, [sp, #4]
 1400 0590 5A83     		strh	r2, [r3, #26]	@ movhi
 1401              		.loc 1 491 0
 1402 0592 3BE0     		b	.L82
 1403              	.L99:
 1404              		.align	2
 1405              	.L98:
 1406 0594 00000000 		.word	AsebaVMErrorCB
 1407              	.L80:
 1408              	.LBB16:
 1409              		.loc 1 496 0
 1410 0598 BDF80E30 		ldrh	r3, [sp, #14]	@ movhi
 1411 059c C3F30B03 		ubfx	r3, r3, #0, #12
 1412 05a0 ADF81030 		strh	r3, [sp, #16]	@ movhi
 1413              		.loc 1 505 0
 1414 05a4 019B     		ldr	r3, [sp, #4]
 1415 05a6 5B8B     		ldrh	r3, [r3, #26]
 1416 05a8 0133     		adds	r3, r3, #1
 1417 05aa 99B2     		uxth	r1, r3
 1418 05ac 019B     		ldr	r3, [sp, #4]
 1419 05ae 5A69     		ldr	r2, [r3, #20]
 1420 05b0 019B     		ldr	r3, [sp, #4]
 1421 05b2 B3F91C30 		ldrsh	r3, [r3, #28]
 1422 05b6 9BB2     		uxth	r3, r3
 1423 05b8 0133     		adds	r3, r3, #1
 1424 05ba 9BB2     		uxth	r3, r3
 1425 05bc 18B2     		sxth	r0, r3
ARM GAS  C:\Users\PCHAUT~1\AppData\Local\Temp\cc7zwTNO.s 			page 26


 1426 05be 019B     		ldr	r3, [sp, #4]
 1427 05c0 9883     		strh	r0, [r3, #28]	@ movhi
 1428 05c2 019B     		ldr	r3, [sp, #4]
 1429 05c4 B3F91C30 		ldrsh	r3, [r3, #28]
 1430 05c8 5B00     		lsls	r3, r3, #1
 1431 05ca 1344     		add	r3, r3, r2
 1432 05cc 0AB2     		sxth	r2, r1
 1433 05ce 1A80     		strh	r2, [r3]	@ movhi
 1434              		.loc 1 508 0
 1435 05d0 019B     		ldr	r3, [sp, #4]
 1436 05d2 BDF81020 		ldrh	r2, [sp, #16]	@ movhi
 1437 05d6 5A83     		strh	r2, [r3, #26]	@ movhi
 1438              	.LBE16:
 1439              		.loc 1 510 0
 1440 05d8 18E0     		b	.L82
 1441              	.L81:
 1442              		.loc 1 522 0
 1443 05da 019B     		ldr	r3, [sp, #4]
 1444 05dc 5A69     		ldr	r2, [r3, #20]
 1445 05de 019B     		ldr	r3, [sp, #4]
 1446 05e0 B3F91C10 		ldrsh	r1, [r3, #28]
 1447 05e4 8BB2     		uxth	r3, r1
 1448 05e6 013B     		subs	r3, r3, #1
 1449 05e8 9BB2     		uxth	r3, r3
 1450 05ea 18B2     		sxth	r0, r3
 1451 05ec 019B     		ldr	r3, [sp, #4]
 1452 05ee 9883     		strh	r0, [r3, #28]	@ movhi
 1453 05f0 0B46     		mov	r3, r1
 1454 05f2 5B00     		lsls	r3, r3, #1
 1455 05f4 1344     		add	r3, r3, r2
 1456 05f6 B3F90030 		ldrsh	r3, [r3]
 1457 05fa 9AB2     		uxth	r2, r3
 1458 05fc 019B     		ldr	r3, [sp, #4]
 1459 05fe 5A83     		strh	r2, [r3, #26]	@ movhi
 1460              		.loc 1 524 0
 1461 0600 04E0     		b	.L82
 1462              	.L93:
 1463              		.loc 1 530 0
 1464 0602 00BF     		nop
 1465 0604 02E0     		b	.L82
 1466              	.L94:
 1467              	.LBB17:
 1468              	.LBB7:
 1469              		.loc 1 294 0
 1470 0606 00BF     		nop
 1471 0608 00E0     		b	.L82
 1472              	.L95:
 1473              	.LBE7:
 1474              	.LBE17:
 1475              	.LBB18:
 1476              	.LBB10:
 1477              		.loc 1 336 0
 1478 060a 00BF     		nop
 1479              	.L82:
 1480              	.LBE10:
 1481              	.LBE18:
 1482              		.loc 1 532 0
ARM GAS  C:\Users\PCHAUT~1\AppData\Local\Temp\cc7zwTNO.s 			page 27


 1483 060c 00BF     		nop
 1484 060e 054B     		ldr	r3, .L100
 1485 0610 119A     		ldr	r2, [sp, #68]
 1486 0612 1B68     		ldr	r3, [r3]
 1487 0614 9A42     		cmp	r2, r3
 1488 0616 01D0     		beq	.L92
 1489 0618 FFF7FEFF 		bl	__stack_chk_fail
 1490              	.L92:
 1491 061c 13B0     		add	sp, sp, #76
 1492              		.cfi_def_cfa_offset 4
 1493              		@ sp needed
 1494 061e 5DF804FB 		ldr	pc, [sp], #4
 1495              	.L101:
 1496 0622 00BF     		.align	2
 1497              	.L100:
 1498 0624 00000000 		.word	__stack_chk_guard
 1499              		.cfi_endproc
 1500              	.LFE5:
 1501              		.size	AsebaVMStep, .-AsebaVMStep
 1502              		.section	.text.AsebaVMEmitNodeSpecificError,"ax",%progbits
 1503              		.align	1
 1504              		.p2align 4,,15
 1505              		.global	AsebaVMEmitNodeSpecificError
 1506              		.syntax unified
 1507              		.thumb
 1508              		.thumb_func
 1509              		.fpu fpv4-sp-d16
 1510              		.type	AsebaVMEmitNodeSpecificError, %function
 1511              	AsebaVMEmitNodeSpecificError:
 1512              	.LFB6:
 1513              		.loc 1 535 0
 1514              		.cfi_startproc
 1515              		@ args = 0, pretend = 0, frame = 24
 1516              		@ frame_needed = 1, uses_anonymous_args = 0
 1517 0000 B0B5     		push	{r4, r5, r7, lr}
 1518              		.cfi_def_cfa_offset 16
 1519              		.cfi_offset 4, -16
 1520              		.cfi_offset 5, -12
 1521              		.cfi_offset 7, -8
 1522              		.cfi_offset 14, -4
 1523 0002 86B0     		sub	sp, sp, #24
 1524              		.cfi_def_cfa_offset 40
 1525 0004 00AF     		add	r7, sp, #0
 1526              		.cfi_def_cfa_register 7
 1527 0006 7860     		str	r0, [r7, #4]
 1528 0008 3960     		str	r1, [r7]
 1529              		.loc 1 535 0
 1530 000a 2E4B     		ldr	r3, .L105
 1531 000c 1B68     		ldr	r3, [r3]
 1532 000e 7B61     		str	r3, [r7, #20]
 1533 0010 6B46     		mov	r3, sp
 1534 0012 1D46     		mov	r5, r3
 1535              		.loc 1 536 0
 1536 0014 3868     		ldr	r0, [r7]
 1537 0016 FFF7FEFF 		bl	strlen
 1538 001a 0346     		mov	r3, r0
 1539 001c 7B81     		strh	r3, [r7, #10]	@ movhi
ARM GAS  C:\Users\PCHAUT~1\AppData\Local\Temp\cc7zwTNO.s 			page 28


 1540              		.loc 1 538 0
 1541 001e 7B89     		ldrh	r3, [r7, #10]
 1542 0020 D81C     		adds	r0, r3, #3
 1543 0022 431E     		subs	r3, r0, #1
 1544 0024 FB60     		str	r3, [r7, #12]
 1545 0026 0346     		mov	r3, r0
 1546 0028 1946     		mov	r1, r3
 1547 002a 4FF00002 		mov	r2, #0
 1548 002e 4FF00003 		mov	r3, #0
 1549 0032 4FF00004 		mov	r4, #0
 1550 0036 D400     		lsls	r4, r2, #3
 1551 0038 44EA5174 		orr	r4, r4, r1, lsr #29
 1552 003c CB00     		lsls	r3, r1, #3
 1553 003e 0346     		mov	r3, r0
 1554 0040 1946     		mov	r1, r3
 1555 0042 4FF00002 		mov	r2, #0
 1556 0046 4FF00003 		mov	r3, #0
 1557 004a 4FF00004 		mov	r4, #0
 1558 004e D400     		lsls	r4, r2, #3
 1559 0050 44EA5174 		orr	r4, r4, r1, lsr #29
 1560 0054 CB00     		lsls	r3, r1, #3
 1561 0056 0346     		mov	r3, r0
 1562 0058 0733     		adds	r3, r3, #7
 1563 005a DB08     		lsrs	r3, r3, #3
 1564 005c DB00     		lsls	r3, r3, #3
 1565 005e ADEB030D 		sub	sp, sp, r3
 1566 0062 6B46     		mov	r3, sp
 1567 0064 0033     		adds	r3, r3, #0
 1568 0066 3B61     		str	r3, [r7, #16]
 1569              		.loc 1 545 0
 1570 0068 174B     		ldr	r3, .L105+4
 1571 006a 002B     		cmp	r3, #0
 1572 006c 03D0     		beq	.L103
 1573              		.loc 1 546 0
 1574 006e 3968     		ldr	r1, [r7]
 1575 0070 7868     		ldr	r0, [r7, #4]
 1576 0072 FFF7FEFF 		bl	AsebaVMErrorCB
 1577              	.L103:
 1578              		.loc 1 548 0
 1579 0076 7B68     		ldr	r3, [r7, #4]
 1580 0078 0222     		movs	r2, #2
 1581 007a 1A83     		strh	r2, [r3, #24]	@ movhi
 1582              		.loc 1 550 0
 1583 007c 3B69     		ldr	r3, [r7, #16]
 1584 007e 7A68     		ldr	r2, [r7, #4]
 1585 0080 528B     		ldrh	r2, [r2, #26]
 1586 0082 1A80     		strh	r2, [r3]	@ movhi
 1587              		.loc 1 551 0
 1588 0084 7B89     		ldrh	r3, [r7, #10]	@ movhi
 1589 0086 DAB2     		uxtb	r2, r3
 1590 0088 3B69     		ldr	r3, [r7, #16]
 1591 008a 9A70     		strb	r2, [r3, #2]
 1592              		.loc 1 552 0
 1593 008c 3B69     		ldr	r3, [r7, #16]
 1594 008e 0333     		adds	r3, r3, #3
 1595 0090 7A89     		ldrh	r2, [r7, #10]
 1596 0092 3968     		ldr	r1, [r7]
ARM GAS  C:\Users\PCHAUT~1\AppData\Local\Temp\cc7zwTNO.s 			page 29


 1597 0094 1846     		mov	r0, r3
 1598 0096 FFF7FEFF 		bl	memcpy
 1599              		.loc 1 554 0
 1600 009a 3A69     		ldr	r2, [r7, #16]
 1601 009c 7B89     		ldrh	r3, [r7, #10]	@ movhi
 1602 009e 0333     		adds	r3, r3, #3
 1603 00a0 9BB2     		uxth	r3, r3
 1604 00a2 49F20901 		movw	r1, #36873
 1605 00a6 7868     		ldr	r0, [r7, #4]
 1606 00a8 FFF7FEFF 		bl	AsebaSendMessage
 1607 00ac AD46     		mov	sp, r5
 1608              		.loc 1 555 0
 1609 00ae 00BF     		nop
 1610 00b0 044B     		ldr	r3, .L105
 1611 00b2 7A69     		ldr	r2, [r7, #20]
 1612 00b4 1B68     		ldr	r3, [r3]
 1613 00b6 9A42     		cmp	r2, r3
 1614 00b8 01D0     		beq	.L104
 1615 00ba FFF7FEFF 		bl	__stack_chk_fail
 1616              	.L104:
 1617 00be 1837     		adds	r7, r7, #24
 1618              		.cfi_def_cfa_offset 16
 1619 00c0 BD46     		mov	sp, r7
 1620              		.cfi_def_cfa_register 13
 1621              		@ sp needed
 1622 00c2 B0BD     		pop	{r4, r5, r7, pc}
 1623              	.L106:
 1624              		.align	2
 1625              	.L105:
 1626 00c4 00000000 		.word	__stack_chk_guard
 1627 00c8 00000000 		.word	AsebaVMErrorCB
 1628              		.cfi_endproc
 1629              	.LFE6:
 1630              		.size	AsebaVMEmitNodeSpecificError, .-AsebaVMEmitNodeSpecificError
 1631              		.section	.text.AsebaVMCheckBreakpoint,"ax",%progbits
 1632              		.align	1
 1633              		.p2align 4,,15
 1634              		.global	AsebaVMCheckBreakpoint
 1635              		.syntax unified
 1636              		.thumb
 1637              		.thumb_func
 1638              		.fpu fpv4-sp-d16
 1639              		.type	AsebaVMCheckBreakpoint, %function
 1640              	AsebaVMCheckBreakpoint:
 1641              	.LFB7:
 1642              		.loc 1 561 0
 1643              		.cfi_startproc
 1644              		@ args = 0, pretend = 0, frame = 16
 1645              		@ frame_needed = 0, uses_anonymous_args = 0
 1646 0000 00B5     		push	{lr}
 1647              		.cfi_def_cfa_offset 4
 1648              		.cfi_offset 14, -4
 1649 0002 85B0     		sub	sp, sp, #20
 1650              		.cfi_def_cfa_offset 24
 1651 0004 0190     		str	r0, [sp, #4]
 1652              		.loc 1 561 0
 1653 0006 194B     		ldr	r3, .L113
ARM GAS  C:\Users\PCHAUT~1\AppData\Local\Temp\cc7zwTNO.s 			page 30


 1654 0008 1B68     		ldr	r3, [r3]
 1655 000a 0393     		str	r3, [sp, #12]
 1656              		.loc 1 563 0
 1657 000c 0023     		movs	r3, #0
 1658 000e ADF80A30 		strh	r3, [sp, #10]	@ movhi
 1659 0012 18E0     		b	.L108
 1660              	.L111:
 1661              		.loc 1 565 0
 1662 0014 BDF80A30 		ldrh	r3, [sp, #10]
 1663 0018 019A     		ldr	r2, [sp, #4]
 1664 001a 0C33     		adds	r3, r3, #12
 1665 001c 5B00     		lsls	r3, r3, #1
 1666 001e 1344     		add	r3, r3, r2
 1667 0020 DA88     		ldrh	r2, [r3, #6]
 1668 0022 019B     		ldr	r3, [sp, #4]
 1669 0024 5B8B     		ldrh	r3, [r3, #26]
 1670 0026 9A42     		cmp	r2, r3
 1671 0028 08D1     		bne	.L109
 1672              		.loc 1 567 0
 1673 002a 019B     		ldr	r3, [sp, #4]
 1674 002c 1B8B     		ldrh	r3, [r3, #24]
 1675 002e 43F00203 		orr	r3, r3, #2
 1676 0032 9AB2     		uxth	r2, r3
 1677 0034 019B     		ldr	r3, [sp, #4]
 1678 0036 1A83     		strh	r2, [r3, #24]	@ movhi
 1679              		.loc 1 568 0
 1680 0038 0123     		movs	r3, #1
 1681 003a 0BE0     		b	.L110
 1682              	.L109:
 1683              		.loc 1 563 0 discriminator 2
 1684 003c BDF80A30 		ldrh	r3, [sp, #10]
 1685 0040 0133     		adds	r3, r3, #1
 1686 0042 ADF80A30 		strh	r3, [sp, #10]	@ movhi
 1687              	.L108:
 1688              		.loc 1 563 0 is_stmt 0 discriminator 1
 1689 0046 019B     		ldr	r3, [sp, #4]
 1690 0048 DB8F     		ldrh	r3, [r3, #62]
 1691 004a BDF80A20 		ldrh	r2, [sp, #10]
 1692 004e 9A42     		cmp	r2, r3
 1693 0050 E0D3     		bcc	.L111
 1694              		.loc 1 572 0 is_stmt 1
 1695 0052 0023     		movs	r3, #0
 1696              	.L110:
 1697              		.loc 1 573 0
 1698 0054 1846     		mov	r0, r3
 1699 0056 054B     		ldr	r3, .L113
 1700 0058 039A     		ldr	r2, [sp, #12]
 1701 005a 1B68     		ldr	r3, [r3]
 1702 005c 9A42     		cmp	r2, r3
 1703 005e 01D0     		beq	.L112
 1704 0060 FFF7FEFF 		bl	__stack_chk_fail
 1705              	.L112:
 1706 0064 05B0     		add	sp, sp, #20
 1707              		.cfi_def_cfa_offset 4
 1708              		@ sp needed
 1709 0066 5DF804FB 		ldr	pc, [sp], #4
 1710              	.L114:
ARM GAS  C:\Users\PCHAUT~1\AppData\Local\Temp\cc7zwTNO.s 			page 31


 1711 006a 00BF     		.align	2
 1712              	.L113:
 1713 006c 00000000 		.word	__stack_chk_guard
 1714              		.cfi_endproc
 1715              	.LFE7:
 1716              		.size	AsebaVMCheckBreakpoint, .-AsebaVMCheckBreakpoint
 1717              		.section	.text.AsebaDebugBareRun,"ax",%progbits
 1718              		.align	1
 1719              		.p2align 4,,15
 1720              		.global	AsebaDebugBareRun
 1721              		.syntax unified
 1722              		.thumb
 1723              		.thumb_func
 1724              		.fpu fpv4-sp-d16
 1725              		.type	AsebaDebugBareRun, %function
 1726              	AsebaDebugBareRun:
 1727              	.LFB8:
 1728              		.loc 1 578 0
 1729              		.cfi_startproc
 1730              		@ args = 0, pretend = 0, frame = 16
 1731              		@ frame_needed = 0, uses_anonymous_args = 0
 1732 0000 00B5     		push	{lr}
 1733              		.cfi_def_cfa_offset 4
 1734              		.cfi_offset 14, -4
 1735 0002 85B0     		sub	sp, sp, #20
 1736              		.cfi_def_cfa_offset 24
 1737 0004 0190     		str	r0, [sp, #4]
 1738 0006 0B46     		mov	r3, r1
 1739 0008 ADF80230 		strh	r3, [sp, #2]	@ movhi
 1740              		.loc 1 578 0
 1741 000c 244B     		ldr	r3, .L123
 1742 000e 1B68     		ldr	r3, [r3]
 1743 0010 0393     		str	r3, [sp, #12]
 1744              		.loc 1 579 0
 1745 0012 019B     		ldr	r3, [sp, #4]
 1746 0014 1B8B     		ldrh	r3, [r3, #24]
 1747 0016 43F00403 		orr	r3, r3, #4
 1748 001a 9AB2     		uxth	r2, r3
 1749 001c 019B     		ldr	r3, [sp, #4]
 1750 001e 1A83     		strh	r2, [r3, #24]	@ movhi
 1751              		.loc 1 581 0
 1752 0020 BDF80230 		ldrh	r3, [sp, #2]
 1753 0024 002B     		cmp	r3, #0
 1754 0026 1CD0     		beq	.L120
 1755              		.loc 1 584 0
 1756 0028 07E0     		b	.L117
 1757              	.L119:
 1758              		.loc 1 589 0
 1759 002a 0198     		ldr	r0, [sp, #4]
 1760 002c FFF7FEFF 		bl	AsebaVMStep
 1761              		.loc 1 590 0
 1762 0030 BDF80230 		ldrh	r3, [sp, #2]
 1763 0034 013B     		subs	r3, r3, #1
 1764 0036 ADF80230 		strh	r3, [sp, #2]	@ movhi
 1765              	.L117:
 1766              		.loc 1 584 0
 1767 003a 019B     		ldr	r3, [sp, #4]
ARM GAS  C:\Users\PCHAUT~1\AppData\Local\Temp\cc7zwTNO.s 			page 32


 1768 003c 1B8B     		ldrh	r3, [r3, #24]
 1769 003e 03F00103 		and	r3, r3, #1
 1770 0042 002B     		cmp	r3, #0
 1771 0044 19D0     		beq	.L118
 1772              		.loc 1 585 0 discriminator 1
 1773 0046 019B     		ldr	r3, [sp, #4]
 1774 0048 1B8B     		ldrh	r3, [r3, #24]
 1775 004a 03F00403 		and	r3, r3, #4
 1776              		.loc 1 584 0 discriminator 1
 1777 004e 002B     		cmp	r3, #0
 1778 0050 13D0     		beq	.L118
 1779              		.loc 1 585 0
 1780 0052 BDF80230 		ldrh	r3, [sp, #2]
 1781 0056 002B     		cmp	r3, #0
 1782 0058 E7D1     		bne	.L119
 1783 005a 0EE0     		b	.L118
 1784              	.L121:
 1785              		.loc 1 600 0
 1786 005c 0198     		ldr	r0, [sp, #4]
 1787 005e FFF7FEFF 		bl	AsebaVMStep
 1788              	.L120:
 1789              		.loc 1 597 0
 1790 0062 019B     		ldr	r3, [sp, #4]
 1791 0064 1B8B     		ldrh	r3, [r3, #24]
 1792 0066 03F00103 		and	r3, r3, #1
 1793 006a 002B     		cmp	r3, #0
 1794 006c 05D0     		beq	.L118
 1795              		.loc 1 598 0 discriminator 1
 1796 006e 019B     		ldr	r3, [sp, #4]
 1797 0070 1B8B     		ldrh	r3, [r3, #24]
 1798 0072 03F00403 		and	r3, r3, #4
 1799              		.loc 1 597 0 discriminator 1
 1800 0076 002B     		cmp	r3, #0
 1801 0078 F0D1     		bne	.L121
 1802              	.L118:
 1803              		.loc 1 603 0
 1804 007a 019B     		ldr	r3, [sp, #4]
 1805 007c 1B8B     		ldrh	r3, [r3, #24]
 1806 007e 23F00403 		bic	r3, r3, #4
 1807 0082 9AB2     		uxth	r2, r3
 1808 0084 019B     		ldr	r3, [sp, #4]
 1809 0086 1A83     		strh	r2, [r3, #24]	@ movhi
 1810              		.loc 1 604 0
 1811 0088 00BF     		nop
 1812 008a 054B     		ldr	r3, .L123
 1813 008c 039A     		ldr	r2, [sp, #12]
 1814 008e 1B68     		ldr	r3, [r3]
 1815 0090 9A42     		cmp	r2, r3
 1816 0092 01D0     		beq	.L122
 1817 0094 FFF7FEFF 		bl	__stack_chk_fail
 1818              	.L122:
 1819 0098 05B0     		add	sp, sp, #20
 1820              		.cfi_def_cfa_offset 4
 1821              		@ sp needed
 1822 009a 5DF804FB 		ldr	pc, [sp], #4
 1823              	.L124:
 1824 009e 00BF     		.align	2
ARM GAS  C:\Users\PCHAUT~1\AppData\Local\Temp\cc7zwTNO.s 			page 33


 1825              	.L123:
 1826 00a0 00000000 		.word	__stack_chk_guard
 1827              		.cfi_endproc
 1828              	.LFE8:
 1829              		.size	AsebaDebugBareRun, .-AsebaDebugBareRun
 1830              		.section	.text.AsebaDebugBreakpointRun,"ax",%progbits
 1831              		.align	1
 1832              		.p2align 4,,15
 1833              		.global	AsebaDebugBreakpointRun
 1834              		.syntax unified
 1835              		.thumb
 1836              		.thumb_func
 1837              		.fpu fpv4-sp-d16
 1838              		.type	AsebaDebugBreakpointRun, %function
 1839              	AsebaDebugBreakpointRun:
 1840              	.LFB9:
 1841              		.loc 1 609 0
 1842              		.cfi_startproc
 1843              		@ args = 0, pretend = 0, frame = 16
 1844              		@ frame_needed = 0, uses_anonymous_args = 0
 1845 0000 00B5     		push	{lr}
 1846              		.cfi_def_cfa_offset 4
 1847              		.cfi_offset 14, -4
 1848 0002 85B0     		sub	sp, sp, #20
 1849              		.cfi_def_cfa_offset 24
 1850 0004 0190     		str	r0, [sp, #4]
 1851 0006 0B46     		mov	r3, r1
 1852 0008 ADF80230 		strh	r3, [sp, #2]	@ movhi
 1853              		.loc 1 609 0
 1854 000c 344B     		ldr	r3, .L136
 1855 000e 1B68     		ldr	r3, [r3]
 1856 0010 0393     		str	r3, [sp, #12]
 1857              		.loc 1 610 0
 1858 0012 019B     		ldr	r3, [sp, #4]
 1859 0014 1B8B     		ldrh	r3, [r3, #24]
 1860 0016 43F00403 		orr	r3, r3, #4
 1861 001a 9AB2     		uxth	r2, r3
 1862 001c 019B     		ldr	r3, [sp, #4]
 1863 001e 1A83     		strh	r2, [r3, #24]	@ movhi
 1864              		.loc 1 612 0
 1865 0020 BDF80230 		ldrh	r3, [sp, #2]
 1866 0024 002B     		cmp	r3, #0
 1867 0026 3ED0     		beq	.L132
 1868              		.loc 1 615 0
 1869 0028 18E0     		b	.L127
 1870              	.L131:
 1871              		.loc 1 620 0
 1872 002a 0198     		ldr	r0, [sp, #4]
 1873 002c FFF7FEFF 		bl	AsebaVMCheckBreakpoint
 1874 0030 0346     		mov	r3, r0
 1875 0032 002B     		cmp	r3, #0
 1876 0034 0AD0     		beq	.L128
 1877              		.loc 1 622 0
 1878 0036 019B     		ldr	r3, [sp, #4]
 1879 0038 1B8B     		ldrh	r3, [r3, #24]
 1880 003a 43F00203 		orr	r3, r3, #2
 1881 003e 9AB2     		uxth	r2, r3
ARM GAS  C:\Users\PCHAUT~1\AppData\Local\Temp\cc7zwTNO.s 			page 34


 1882 0040 019B     		ldr	r3, [sp, #4]
 1883 0042 1A83     		strh	r2, [r3, #24]	@ movhi
 1884              		.loc 1 623 0
 1885 0044 0198     		ldr	r0, [sp, #4]
 1886 0046 FFF7FEFF 		bl	AsebaVMSendExecutionStateChanged
 1887              		.loc 1 624 0
 1888 004a 3FE0     		b	.L125
 1889              	.L128:
 1890              		.loc 1 626 0
 1891 004c 0198     		ldr	r0, [sp, #4]
 1892 004e FFF7FEFF 		bl	AsebaVMStep
 1893              		.loc 1 627 0
 1894 0052 BDF80230 		ldrh	r3, [sp, #2]
 1895 0056 013B     		subs	r3, r3, #1
 1896 0058 ADF80230 		strh	r3, [sp, #2]	@ movhi
 1897              	.L127:
 1898              		.loc 1 615 0
 1899 005c 019B     		ldr	r3, [sp, #4]
 1900 005e 1B8B     		ldrh	r3, [r3, #24]
 1901 0060 03F00103 		and	r3, r3, #1
 1902 0064 002B     		cmp	r3, #0
 1903 0066 2AD0     		beq	.L130
 1904              		.loc 1 616 0 discriminator 1
 1905 0068 019B     		ldr	r3, [sp, #4]
 1906 006a 1B8B     		ldrh	r3, [r3, #24]
 1907 006c 03F00403 		and	r3, r3, #4
 1908              		.loc 1 615 0 discriminator 1
 1909 0070 002B     		cmp	r3, #0
 1910 0072 24D0     		beq	.L130
 1911              		.loc 1 616 0
 1912 0074 BDF80230 		ldrh	r3, [sp, #2]
 1913 0078 002B     		cmp	r3, #0
 1914 007a D6D1     		bne	.L131
 1915 007c 1FE0     		b	.L130
 1916              	.L134:
 1917              		.loc 1 638 0
 1918 007e 0198     		ldr	r0, [sp, #4]
 1919 0080 FFF7FEFF 		bl	AsebaVMCheckBreakpoint
 1920 0084 0346     		mov	r3, r0
 1921 0086 002B     		cmp	r3, #0
 1922 0088 0AD0     		beq	.L133
 1923              		.loc 1 640 0
 1924 008a 019B     		ldr	r3, [sp, #4]
 1925 008c 1B8B     		ldrh	r3, [r3, #24]
 1926 008e 43F00203 		orr	r3, r3, #2
 1927 0092 9AB2     		uxth	r2, r3
 1928 0094 019B     		ldr	r3, [sp, #4]
 1929 0096 1A83     		strh	r2, [r3, #24]	@ movhi
 1930              		.loc 1 641 0
 1931 0098 0198     		ldr	r0, [sp, #4]
 1932 009a FFF7FEFF 		bl	AsebaVMSendExecutionStateChanged
 1933              		.loc 1 642 0
 1934 009e 15E0     		b	.L125
 1935              	.L133:
 1936              		.loc 1 644 0
 1937 00a0 0198     		ldr	r0, [sp, #4]
 1938 00a2 FFF7FEFF 		bl	AsebaVMStep
ARM GAS  C:\Users\PCHAUT~1\AppData\Local\Temp\cc7zwTNO.s 			page 35


 1939              	.L132:
 1940              		.loc 1 634 0
 1941 00a6 019B     		ldr	r3, [sp, #4]
 1942 00a8 1B8B     		ldrh	r3, [r3, #24]
 1943 00aa 03F00103 		and	r3, r3, #1
 1944 00ae 002B     		cmp	r3, #0
 1945 00b0 05D0     		beq	.L130
 1946              		.loc 1 635 0 discriminator 1
 1947 00b2 019B     		ldr	r3, [sp, #4]
 1948 00b4 1B8B     		ldrh	r3, [r3, #24]
 1949 00b6 03F00403 		and	r3, r3, #4
 1950              		.loc 1 634 0 discriminator 1
 1951 00ba 002B     		cmp	r3, #0
 1952 00bc DFD1     		bne	.L134
 1953              	.L130:
 1954              		.loc 1 648 0
 1955 00be 019B     		ldr	r3, [sp, #4]
 1956 00c0 1B8B     		ldrh	r3, [r3, #24]
 1957 00c2 23F00403 		bic	r3, r3, #4
 1958 00c6 9AB2     		uxth	r2, r3
 1959 00c8 019B     		ldr	r3, [sp, #4]
 1960 00ca 1A83     		strh	r2, [r3, #24]	@ movhi
 1961              	.L125:
 1962              		.loc 1 649 0
 1963 00cc 044B     		ldr	r3, .L136
 1964 00ce 039A     		ldr	r2, [sp, #12]
 1965 00d0 1B68     		ldr	r3, [r3]
 1966 00d2 9A42     		cmp	r2, r3
 1967 00d4 01D0     		beq	.L135
 1968 00d6 FFF7FEFF 		bl	__stack_chk_fail
 1969              	.L135:
 1970 00da 05B0     		add	sp, sp, #20
 1971              		.cfi_def_cfa_offset 4
 1972              		@ sp needed
 1973 00dc 5DF804FB 		ldr	pc, [sp], #4
 1974              	.L137:
 1975              		.align	2
 1976              	.L136:
 1977 00e0 00000000 		.word	__stack_chk_guard
 1978              		.cfi_endproc
 1979              	.LFE9:
 1980              		.size	AsebaDebugBreakpointRun, .-AsebaDebugBreakpointRun
 1981              		.section	.text.AsebaVMRun,"ax",%progbits
 1982              		.align	1
 1983              		.p2align 4,,15
 1984              		.global	AsebaVMRun
 1985              		.syntax unified
 1986              		.thumb
 1987              		.thumb_func
 1988              		.fpu fpv4-sp-d16
 1989              		.type	AsebaVMRun, %function
 1990              	AsebaVMRun:
 1991              	.LFB10:
 1992              		.loc 1 652 0
 1993              		.cfi_startproc
 1994              		@ args = 0, pretend = 0, frame = 16
 1995              		@ frame_needed = 0, uses_anonymous_args = 0
ARM GAS  C:\Users\PCHAUT~1\AppData\Local\Temp\cc7zwTNO.s 			page 36


 1996 0000 00B5     		push	{lr}
 1997              		.cfi_def_cfa_offset 4
 1998              		.cfi_offset 14, -4
 1999 0002 85B0     		sub	sp, sp, #20
 2000              		.cfi_def_cfa_offset 24
 2001 0004 0190     		str	r0, [sp, #4]
 2002 0006 0B46     		mov	r3, r1
 2003 0008 ADF80230 		strh	r3, [sp, #2]	@ movhi
 2004              		.loc 1 652 0
 2005 000c 174B     		ldr	r3, .L145
 2006 000e 1B68     		ldr	r3, [r3]
 2007 0010 0393     		str	r3, [sp, #12]
 2008              		.loc 1 654 0
 2009 0012 019B     		ldr	r3, [sp, #4]
 2010 0014 1B8B     		ldrh	r3, [r3, #24]
 2011 0016 03F00103 		and	r3, r3, #1
 2012 001a 002B     		cmp	r3, #0
 2013 001c 01D1     		bne	.L139
 2014              		.loc 1 655 0
 2015 001e 0023     		movs	r3, #0
 2016 0020 19E0     		b	.L140
 2017              	.L139:
 2018              		.loc 1 658 0
 2019 0022 019B     		ldr	r3, [sp, #4]
 2020 0024 1B8B     		ldrh	r3, [r3, #24]
 2021 0026 03F00203 		and	r3, r3, #2
 2022 002a 002B     		cmp	r3, #0
 2023 002c 01D0     		beq	.L141
 2024              		.loc 1 659 0
 2025 002e 0023     		movs	r3, #0
 2026 0030 11E0     		b	.L140
 2027              	.L141:
 2028              		.loc 1 662 0
 2029 0032 019B     		ldr	r3, [sp, #4]
 2030 0034 DB8F     		ldrh	r3, [r3, #62]
 2031 0036 002B     		cmp	r3, #0
 2032 0038 06D0     		beq	.L142
 2033              		.loc 1 663 0
 2034 003a BDF80230 		ldrh	r3, [sp, #2]
 2035 003e 1946     		mov	r1, r3
 2036 0040 0198     		ldr	r0, [sp, #4]
 2037 0042 FFF7FEFF 		bl	AsebaDebugBreakpointRun
 2038 0046 05E0     		b	.L143
 2039              	.L142:
 2040              		.loc 1 665 0
 2041 0048 BDF80230 		ldrh	r3, [sp, #2]
 2042 004c 1946     		mov	r1, r3
 2043 004e 0198     		ldr	r0, [sp, #4]
 2044 0050 FFF7FEFF 		bl	AsebaDebugBareRun
 2045              	.L143:
 2046              		.loc 1 667 0
 2047 0054 0123     		movs	r3, #1
 2048              	.L140:
 2049              		.loc 1 668 0
 2050 0056 1846     		mov	r0, r3
 2051 0058 044B     		ldr	r3, .L145
 2052 005a 039A     		ldr	r2, [sp, #12]
ARM GAS  C:\Users\PCHAUT~1\AppData\Local\Temp\cc7zwTNO.s 			page 37


 2053 005c 1B68     		ldr	r3, [r3]
 2054 005e 9A42     		cmp	r2, r3
 2055 0060 01D0     		beq	.L144
 2056 0062 FFF7FEFF 		bl	__stack_chk_fail
 2057              	.L144:
 2058 0066 05B0     		add	sp, sp, #20
 2059              		.cfi_def_cfa_offset 4
 2060              		@ sp needed
 2061 0068 5DF804FB 		ldr	pc, [sp], #4
 2062              	.L146:
 2063              		.align	2
 2064              	.L145:
 2065 006c 00000000 		.word	__stack_chk_guard
 2066              		.cfi_endproc
 2067              	.LFE10:
 2068              		.size	AsebaVMRun, .-AsebaVMRun
 2069              		.section	.text.AsebaVMSetBreakpoint,"ax",%progbits
 2070              		.align	1
 2071              		.p2align 4,,15
 2072              		.global	AsebaVMSetBreakpoint
 2073              		.syntax unified
 2074              		.thumb
 2075              		.thumb_func
 2076              		.fpu fpv4-sp-d16
 2077              		.type	AsebaVMSetBreakpoint, %function
 2078              	AsebaVMSetBreakpoint:
 2079              	.LFB11:
 2080              		.loc 1 673 0
 2081              		.cfi_startproc
 2082              		@ args = 0, pretend = 0, frame = 16
 2083              		@ frame_needed = 0, uses_anonymous_args = 0
 2084 0000 00B5     		push	{lr}
 2085              		.cfi_def_cfa_offset 4
 2086              		.cfi_offset 14, -4
 2087 0002 85B0     		sub	sp, sp, #20
 2088              		.cfi_def_cfa_offset 24
 2089 0004 0190     		str	r0, [sp, #4]
 2090 0006 0B46     		mov	r3, r1
 2091 0008 ADF80230 		strh	r3, [sp, #2]	@ movhi
 2092              		.loc 1 673 0
 2093 000c 104B     		ldr	r3, .L151
 2094 000e 1B68     		ldr	r3, [r3]
 2095 0010 0393     		str	r3, [sp, #12]
 2096              		.loc 1 679 0
 2097 0012 019B     		ldr	r3, [sp, #4]
 2098 0014 DB8F     		ldrh	r3, [r3, #62]
 2099 0016 0F2B     		cmp	r3, #15
 2100 0018 0ED8     		bhi	.L148
 2101              		.loc 1 681 0
 2102 001a 019B     		ldr	r3, [sp, #4]
 2103 001c DB8F     		ldrh	r3, [r3, #62]
 2104 001e 5A1C     		adds	r2, r3, #1
 2105 0020 91B2     		uxth	r1, r2
 2106 0022 019A     		ldr	r2, [sp, #4]
 2107 0024 D187     		strh	r1, [r2, #62]	@ movhi
 2108 0026 019A     		ldr	r2, [sp, #4]
 2109 0028 0C33     		adds	r3, r3, #12
ARM GAS  C:\Users\PCHAUT~1\AppData\Local\Temp\cc7zwTNO.s 			page 38


 2110 002a 5B00     		lsls	r3, r3, #1
 2111 002c 1344     		add	r3, r3, r2
 2112 002e BDF80220 		ldrh	r2, [sp, #2]	@ movhi
 2113 0032 DA80     		strh	r2, [r3, #6]	@ movhi
 2114              		.loc 1 682 0
 2115 0034 0123     		movs	r3, #1
 2116 0036 00E0     		b	.L149
 2117              	.L148:
 2118              		.loc 1 685 0
 2119 0038 0023     		movs	r3, #0
 2120              	.L149:
 2121              		.loc 1 686 0
 2122 003a 1846     		mov	r0, r3
 2123 003c 044B     		ldr	r3, .L151
 2124 003e 039A     		ldr	r2, [sp, #12]
 2125 0040 1B68     		ldr	r3, [r3]
 2126 0042 9A42     		cmp	r2, r3
 2127 0044 01D0     		beq	.L150
 2128 0046 FFF7FEFF 		bl	__stack_chk_fail
 2129              	.L150:
 2130 004a 05B0     		add	sp, sp, #20
 2131              		.cfi_def_cfa_offset 4
 2132              		@ sp needed
 2133 004c 5DF804FB 		ldr	pc, [sp], #4
 2134              	.L152:
 2135              		.align	2
 2136              	.L151:
 2137 0050 00000000 		.word	__stack_chk_guard
 2138              		.cfi_endproc
 2139              	.LFE11:
 2140              		.size	AsebaVMSetBreakpoint, .-AsebaVMSetBreakpoint
 2141              		.section	.text.AsebaVMClearBreakpoint,"ax",%progbits
 2142              		.align	1
 2143              		.p2align 4,,15
 2144              		.global	AsebaVMClearBreakpoint
 2145              		.syntax unified
 2146              		.thumb
 2147              		.thumb_func
 2148              		.fpu fpv4-sp-d16
 2149              		.type	AsebaVMClearBreakpoint, %function
 2150              	AsebaVMClearBreakpoint:
 2151              	.LFB12:
 2152              		.loc 1 690 0
 2153              		.cfi_startproc
 2154              		@ args = 0, pretend = 0, frame = 16
 2155              		@ frame_needed = 0, uses_anonymous_args = 0
 2156 0000 00B5     		push	{lr}
 2157              		.cfi_def_cfa_offset 4
 2158              		.cfi_offset 14, -4
 2159 0002 85B0     		sub	sp, sp, #20
 2160              		.cfi_def_cfa_offset 24
 2161 0004 0190     		str	r0, [sp, #4]
 2162 0006 0B46     		mov	r3, r1
 2163 0008 ADF80230 		strh	r3, [sp, #2]	@ movhi
 2164              		.loc 1 690 0
 2165 000c 284B     		ldr	r3, .L161
 2166 000e 1B68     		ldr	r3, [r3]
ARM GAS  C:\Users\PCHAUT~1\AppData\Local\Temp\cc7zwTNO.s 			page 39


 2167 0010 0393     		str	r3, [sp, #12]
 2168              		.loc 1 692 0
 2169 0012 0023     		movs	r3, #0
 2170 0014 ADF80830 		strh	r3, [sp, #8]	@ movhi
 2171 0018 38E0     		b	.L154
 2172              	.L159:
 2173              		.loc 1 694 0
 2174 001a BDF80830 		ldrh	r3, [sp, #8]
 2175 001e 019A     		ldr	r2, [sp, #4]
 2176 0020 0C33     		adds	r3, r3, #12
 2177 0022 5B00     		lsls	r3, r3, #1
 2178 0024 1344     		add	r3, r3, r2
 2179 0026 DB88     		ldrh	r3, [r3, #6]
 2180 0028 BDF80220 		ldrh	r2, [sp, #2]
 2181 002c 9A42     		cmp	r2, r3
 2182 002e 28D1     		bne	.L155
 2183              	.LBB19:
 2184              		.loc 1 698 0
 2185 0030 019B     		ldr	r3, [sp, #4]
 2186 0032 DB8F     		ldrh	r3, [r3, #62]
 2187 0034 013B     		subs	r3, r3, #1
 2188 0036 9AB2     		uxth	r2, r3
 2189 0038 019B     		ldr	r3, [sp, #4]
 2190 003a DA87     		strh	r2, [r3, #62]	@ movhi
 2191              		.loc 1 699 0
 2192 003c BDF80830 		ldrh	r3, [sp, #8]	@ movhi
 2193 0040 ADF80A30 		strh	r3, [sp, #10]	@ movhi
 2194 0044 15E0     		b	.L156
 2195              	.L157:
 2196              		.loc 1 700 0 discriminator 3
 2197 0046 BDF80A30 		ldrh	r3, [sp, #10]
 2198 004a 0133     		adds	r3, r3, #1
 2199 004c BDF80A10 		ldrh	r1, [sp, #10]
 2200 0050 019A     		ldr	r2, [sp, #4]
 2201 0052 0C33     		adds	r3, r3, #12
 2202 0054 5B00     		lsls	r3, r3, #1
 2203 0056 1344     		add	r3, r3, r2
 2204 0058 D888     		ldrh	r0, [r3, #6]
 2205 005a 019A     		ldr	r2, [sp, #4]
 2206 005c 01F10C03 		add	r3, r1, #12
 2207 0060 5B00     		lsls	r3, r3, #1
 2208 0062 1344     		add	r3, r3, r2
 2209 0064 0246     		mov	r2, r0	@ movhi
 2210 0066 DA80     		strh	r2, [r3, #6]	@ movhi
 2211              		.loc 1 699 0 discriminator 3
 2212 0068 BDF80A30 		ldrh	r3, [sp, #10]
 2213 006c 0133     		adds	r3, r3, #1
 2214 006e ADF80A30 		strh	r3, [sp, #10]	@ movhi
 2215              	.L156:
 2216              		.loc 1 699 0 is_stmt 0 discriminator 1
 2217 0072 019B     		ldr	r3, [sp, #4]
 2218 0074 DB8F     		ldrh	r3, [r3, #62]
 2219 0076 BDF80A20 		ldrh	r2, [sp, #10]
 2220 007a 9A42     		cmp	r2, r3
 2221 007c E3D3     		bcc	.L157
 2222              		.loc 1 701 0 is_stmt 1
 2223 007e 0123     		movs	r3, #1
ARM GAS  C:\Users\PCHAUT~1\AppData\Local\Temp\cc7zwTNO.s 			page 40


 2224 0080 0BE0     		b	.L158
 2225              	.L155:
 2226              	.LBE19:
 2227              		.loc 1 692 0 discriminator 2
 2228 0082 BDF80830 		ldrh	r3, [sp, #8]
 2229 0086 0133     		adds	r3, r3, #1
 2230 0088 ADF80830 		strh	r3, [sp, #8]	@ movhi
 2231              	.L154:
 2232              		.loc 1 692 0 is_stmt 0 discriminator 1
 2233 008c 019B     		ldr	r3, [sp, #4]
 2234 008e DB8F     		ldrh	r3, [r3, #62]
 2235 0090 BDF80820 		ldrh	r2, [sp, #8]
 2236 0094 9A42     		cmp	r2, r3
 2237 0096 C0D3     		bcc	.L159
 2238              		.loc 1 704 0 is_stmt 1
 2239 0098 0023     		movs	r3, #0
 2240              	.L158:
 2241              		.loc 1 705 0
 2242 009a 1846     		mov	r0, r3
 2243 009c 044B     		ldr	r3, .L161
 2244 009e 039A     		ldr	r2, [sp, #12]
 2245 00a0 1B68     		ldr	r3, [r3]
 2246 00a2 9A42     		cmp	r2, r3
 2247 00a4 01D0     		beq	.L160
 2248 00a6 FFF7FEFF 		bl	__stack_chk_fail
 2249              	.L160:
 2250 00aa 05B0     		add	sp, sp, #20
 2251              		.cfi_def_cfa_offset 4
 2252              		@ sp needed
 2253 00ac 5DF804FB 		ldr	pc, [sp], #4
 2254              	.L162:
 2255              		.align	2
 2256              	.L161:
 2257 00b0 00000000 		.word	__stack_chk_guard
 2258              		.cfi_endproc
 2259              	.LFE12:
 2260              		.size	AsebaVMClearBreakpoint, .-AsebaVMClearBreakpoint
 2261              		.section	.text.AsebaVMClearBreakpoints,"ax",%progbits
 2262              		.align	1
 2263              		.p2align 4,,15
 2264              		.global	AsebaVMClearBreakpoints
 2265              		.syntax unified
 2266              		.thumb
 2267              		.thumb_func
 2268              		.fpu fpv4-sp-d16
 2269              		.type	AsebaVMClearBreakpoints, %function
 2270              	AsebaVMClearBreakpoints:
 2271              	.LFB13:
 2272              		.loc 1 709 0
 2273              		.cfi_startproc
 2274              		@ args = 0, pretend = 0, frame = 16
 2275              		@ frame_needed = 0, uses_anonymous_args = 0
 2276 0000 00B5     		push	{lr}
 2277              		.cfi_def_cfa_offset 4
 2278              		.cfi_offset 14, -4
 2279 0002 85B0     		sub	sp, sp, #20
 2280              		.cfi_def_cfa_offset 24
ARM GAS  C:\Users\PCHAUT~1\AppData\Local\Temp\cc7zwTNO.s 			page 41


 2281 0004 0190     		str	r0, [sp, #4]
 2282              		.loc 1 709 0
 2283 0006 084B     		ldr	r3, .L165
 2284 0008 1B68     		ldr	r3, [r3]
 2285 000a 0393     		str	r3, [sp, #12]
 2286              		.loc 1 710 0
 2287 000c 019B     		ldr	r3, [sp, #4]
 2288 000e 0022     		movs	r2, #0
 2289 0010 DA87     		strh	r2, [r3, #62]	@ movhi
 2290              		.loc 1 711 0
 2291 0012 00BF     		nop
 2292 0014 044B     		ldr	r3, .L165
 2293 0016 039A     		ldr	r2, [sp, #12]
 2294 0018 1B68     		ldr	r3, [r3]
 2295 001a 9A42     		cmp	r2, r3
 2296 001c 01D0     		beq	.L164
 2297 001e FFF7FEFF 		bl	__stack_chk_fail
 2298              	.L164:
 2299 0022 05B0     		add	sp, sp, #20
 2300              		.cfi_def_cfa_offset 4
 2301              		@ sp needed
 2302 0024 5DF804FB 		ldr	pc, [sp], #4
 2303              	.L166:
 2304              		.align	2
 2305              	.L165:
 2306 0028 00000000 		.word	__stack_chk_guard
 2307              		.cfi_endproc
 2308              	.LFE13:
 2309              		.size	AsebaVMClearBreakpoints, .-AsebaVMClearBreakpoints
 2310              		.section	.text.AsebaVMSendExecutionStateChanged,"ax",%progbits
 2311              		.align	1
 2312              		.p2align 4,,15
 2313              		.global	AsebaVMSendExecutionStateChanged
 2314              		.syntax unified
 2315              		.thumb
 2316              		.thumb_func
 2317              		.fpu fpv4-sp-d16
 2318              		.type	AsebaVMSendExecutionStateChanged, %function
 2319              	AsebaVMSendExecutionStateChanged:
 2320              	.LFB14:
 2321              		.loc 1 715 0
 2322              		.cfi_startproc
 2323              		@ args = 0, pretend = 0, frame = 16
 2324              		@ frame_needed = 0, uses_anonymous_args = 0
 2325 0000 00B5     		push	{lr}
 2326              		.cfi_def_cfa_offset 4
 2327              		.cfi_offset 14, -4
 2328 0002 85B0     		sub	sp, sp, #20
 2329              		.cfi_def_cfa_offset 24
 2330 0004 0190     		str	r0, [sp, #4]
 2331              		.loc 1 715 0
 2332 0006 0E4B     		ldr	r3, .L169
 2333 0008 1B68     		ldr	r3, [r3]
 2334 000a 0393     		str	r3, [sp, #12]
 2335              		.loc 1 717 0
 2336 000c 019B     		ldr	r3, [sp, #4]
 2337 000e 5B8B     		ldrh	r3, [r3, #26]
ARM GAS  C:\Users\PCHAUT~1\AppData\Local\Temp\cc7zwTNO.s 			page 42


 2338 0010 ADF80830 		strh	r3, [sp, #8]	@ movhi
 2339              		.loc 1 718 0
 2340 0014 019B     		ldr	r3, [sp, #4]
 2341 0016 1B8B     		ldrh	r3, [r3, #24]
 2342 0018 ADF80A30 		strh	r3, [sp, #10]	@ movhi
 2343              		.loc 1 719 0
 2344 001c 02AA     		add	r2, sp, #8
 2345 001e 0423     		movs	r3, #4
 2346 0020 49F20A01 		movw	r1, #36874
 2347 0024 0198     		ldr	r0, [sp, #4]
 2348 0026 FFF7FEFF 		bl	AsebaSendMessage
 2349              		.loc 1 720 0
 2350 002a 00BF     		nop
 2351 002c 044B     		ldr	r3, .L169
 2352 002e 039A     		ldr	r2, [sp, #12]
 2353 0030 1B68     		ldr	r3, [r3]
 2354 0032 9A42     		cmp	r2, r3
 2355 0034 01D0     		beq	.L168
 2356 0036 FFF7FEFF 		bl	__stack_chk_fail
 2357              	.L168:
 2358 003a 05B0     		add	sp, sp, #20
 2359              		.cfi_def_cfa_offset 4
 2360              		@ sp needed
 2361 003c 5DF804FB 		ldr	pc, [sp], #4
 2362              	.L170:
 2363              		.align	2
 2364              	.L169:
 2365 0040 00000000 		.word	__stack_chk_guard
 2366              		.cfi_endproc
 2367              	.LFE14:
 2368              		.size	AsebaVMSendExecutionStateChanged, .-AsebaVMSendExecutionStateChanged
 2369              		.section	.text.AsebaVMResetWhenFlags,"ax",%progbits
 2370              		.align	1
 2371              		.p2align 4,,15
 2372              		.syntax unified
 2373              		.thumb
 2374              		.thumb_func
 2375              		.fpu fpv4-sp-d16
 2376              		.type	AsebaVMResetWhenFlags, %function
 2377              	AsebaVMResetWhenFlags:
 2378              	.LFB15:
 2379              		.loc 1 724 0
 2380              		.cfi_startproc
 2381              		@ args = 0, pretend = 0, frame = 16
 2382              		@ frame_needed = 0, uses_anonymous_args = 0
 2383 0000 00B5     		push	{lr}
 2384              		.cfi_def_cfa_offset 4
 2385              		.cfi_offset 14, -4
 2386 0002 85B0     		sub	sp, sp, #20
 2387              		.cfi_def_cfa_offset 24
 2388 0004 0190     		str	r0, [sp, #4]
 2389              		.loc 1 724 0
 2390 0006 1E4B     		ldr	r3, .L176
 2391 0008 1B68     		ldr	r3, [r3]
 2392 000a 0393     		str	r3, [sp, #12]
 2393              		.loc 1 726 0
 2394 000c 0023     		movs	r3, #0
ARM GAS  C:\Users\PCHAUT~1\AppData\Local\Temp\cc7zwTNO.s 			page 43


 2395 000e ADF80830 		strh	r3, [sp, #8]	@ movhi
 2396 0012 24E0     		b	.L172
 2397              	.L174:
 2398              	.LBB20:
 2399              		.loc 1 728 0
 2400 0014 019B     		ldr	r3, [sp, #4]
 2401 0016 5A68     		ldr	r2, [r3, #4]
 2402 0018 BDF80830 		ldrh	r3, [sp, #8]
 2403 001c 5B00     		lsls	r3, r3, #1
 2404 001e 1344     		add	r3, r3, r2
 2405 0020 1B88     		ldrh	r3, [r3]	@ movhi
 2406 0022 ADF80A30 		strh	r3, [sp, #10]	@ movhi
 2407              		.loc 1 729 0
 2408 0026 BDF80A30 		ldrh	r3, [sp, #10]
 2409 002a 1B0B     		lsrs	r3, r3, #12
 2410 002c 9BB2     		uxth	r3, r3
 2411 002e 0A2B     		cmp	r3, #10
 2412 0030 10D1     		bne	.L173
 2413              		.loc 1 730 0
 2414 0032 019B     		ldr	r3, [sp, #4]
 2415 0034 5A68     		ldr	r2, [r3, #4]
 2416 0036 BDF80830 		ldrh	r3, [sp, #8]
 2417 003a 5B00     		lsls	r3, r3, #1
 2418 003c 1344     		add	r3, r3, r2
 2419 003e 1A88     		ldrh	r2, [r3]
 2420 0040 019B     		ldr	r3, [sp, #4]
 2421 0042 5968     		ldr	r1, [r3, #4]
 2422 0044 BDF80830 		ldrh	r3, [sp, #8]
 2423 0048 5B00     		lsls	r3, r3, #1
 2424 004a 0B44     		add	r3, r3, r1
 2425 004c 22F40072 		bic	r2, r2, #512
 2426 0050 92B2     		uxth	r2, r2
 2427 0052 1A80     		strh	r2, [r3]	@ movhi
 2428              	.L173:
 2429              	.LBE20:
 2430              		.loc 1 726 0 discriminator 2
 2431 0054 BDF80830 		ldrh	r3, [sp, #8]
 2432 0058 0133     		adds	r3, r3, #1
 2433 005a ADF80830 		strh	r3, [sp, #8]	@ movhi
 2434              	.L172:
 2435              		.loc 1 726 0 is_stmt 0 discriminator 1
 2436 005e 019B     		ldr	r3, [sp, #4]
 2437 0060 5B88     		ldrh	r3, [r3, #2]
 2438 0062 BDF80820 		ldrh	r2, [sp, #8]
 2439 0066 9A42     		cmp	r2, r3
 2440 0068 D4D3     		bcc	.L174
 2441              		.loc 1 732 0 is_stmt 1
 2442 006a 00BF     		nop
 2443 006c 044B     		ldr	r3, .L176
 2444 006e 039A     		ldr	r2, [sp, #12]
 2445 0070 1B68     		ldr	r3, [r3]
 2446 0072 9A42     		cmp	r2, r3
 2447 0074 01D0     		beq	.L175
 2448 0076 FFF7FEFF 		bl	__stack_chk_fail
 2449              	.L175:
 2450 007a 05B0     		add	sp, sp, #20
 2451              		.cfi_def_cfa_offset 4
ARM GAS  C:\Users\PCHAUT~1\AppData\Local\Temp\cc7zwTNO.s 			page 44


 2452              		@ sp needed
 2453 007c 5DF804FB 		ldr	pc, [sp], #4
 2454              	.L177:
 2455              		.align	2
 2456              	.L176:
 2457 0080 00000000 		.word	__stack_chk_guard
 2458              		.cfi_endproc
 2459              	.LFE15:
 2460              		.size	AsebaVMResetWhenFlags, .-AsebaVMResetWhenFlags
 2461              		.section	.text.AsebaVMDebugMessage,"ax",%progbits
 2462              		.align	1
 2463              		.p2align 4,,15
 2464              		.global	AsebaVMDebugMessage
 2465              		.syntax unified
 2466              		.thumb
 2467              		.thumb_func
 2468              		.fpu fpv4-sp-d16
 2469              		.type	AsebaVMDebugMessage, %function
 2470              	AsebaVMDebugMessage:
 2471              	.LFB16:
 2472              		.loc 1 735 0
 2473              		.cfi_startproc
 2474              		@ args = 0, pretend = 0, frame = 48
 2475              		@ frame_needed = 0, uses_anonymous_args = 0
 2476 0000 00B5     		push	{lr}
 2477              		.cfi_def_cfa_offset 4
 2478              		.cfi_offset 14, -4
 2479 0002 8DB0     		sub	sp, sp, #52
 2480              		.cfi_def_cfa_offset 56
 2481 0004 0390     		str	r0, [sp, #12]
 2482 0006 0192     		str	r2, [sp, #4]
 2483 0008 1A46     		mov	r2, r3
 2484 000a 0B46     		mov	r3, r1	@ movhi
 2485 000c ADF80A30 		strh	r3, [sp, #10]	@ movhi
 2486 0010 1346     		mov	r3, r2	@ movhi
 2487 0012 ADF80830 		strh	r3, [sp, #8]	@ movhi
 2488              		.loc 1 735 0
 2489 0016 B14B     		ldr	r3, .L219
 2490 0018 1B68     		ldr	r3, [r3]
 2491 001a 0B93     		str	r3, [sp, #44]
 2492              		.loc 1 737 0
 2493 001c BDF80A30 		ldrh	r3, [sp, #10]
 2494 0020 B3F5204F 		cmp	r3, #40960
 2495 0024 0CD1     		bne	.L179
 2496              	.LBB21:
 2497              		.loc 1 739 0
 2498 0026 019B     		ldr	r3, [sp, #4]
 2499 0028 1B88     		ldrh	r3, [r3]	@ movhi
 2500 002a ADF82630 		strh	r3, [sp, #38]	@ movhi
 2501              		.loc 1 741 0
 2502 002e BDF82630 		ldrh	r3, [sp, #38]
 2503 0032 042B     		cmp	r3, #4
 2504 0034 00F23B81 		bhi	.L212
 2505              		.loc 1 742 0
 2506 0038 0398     		ldr	r0, [sp, #12]
 2507 003a FFF7FEFF 		bl	AsebaSendDescription
 2508              		.loc 1 743 0
ARM GAS  C:\Users\PCHAUT~1\AppData\Local\Temp\cc7zwTNO.s 			page 45


 2509 003e 36E1     		b	.L212
 2510              	.L179:
 2511              	.LBE21:
 2512              		.loc 1 746 0
 2513 0040 BDF80A30 		ldrh	r3, [sp, #10]
 2514 0044 4AF21102 		movw	r2, #40977
 2515 0048 9342     		cmp	r3, r2
 2516 004a 0BD1     		bne	.L182
 2517              	.LBB22:
 2518              		.loc 1 748 0
 2519 004c 0523     		movs	r3, #5
 2520 004e ADF81430 		strh	r3, [sp, #20]	@ movhi
 2521              		.loc 1 749 0
 2522 0052 05AA     		add	r2, sp, #20
 2523 0054 0223     		movs	r3, #2
 2524 0056 49F20C01 		movw	r1, #36876
 2525 005a 0398     		ldr	r0, [sp, #12]
 2526 005c FFF7FEFF 		bl	AsebaSendMessage
 2527              		.loc 1 750 0
 2528 0060 00BF     		nop
 2529 0062 31E1     		b	.L178
 2530              	.L182:
 2531              	.LBE22:
 2532              		.loc 1 754 0
 2533 0064 BDF80830 		ldrh	r3, [sp, #8]
 2534 0068 002B     		cmp	r3, #0
 2535 006a 00F02281 		beq	.L213
 2536              		.loc 1 758 0
 2537 006e 019B     		ldr	r3, [sp, #4]
 2538 0070 1A88     		ldrh	r2, [r3]
 2539 0072 039B     		ldr	r3, [sp, #12]
 2540 0074 1B88     		ldrh	r3, [r3]
 2541 0076 9A42     		cmp	r2, r3
 2542 0078 40F01D81 		bne	.L214
 2543              		.loc 1 761 0
 2544 007c 019B     		ldr	r3, [sp, #4]
 2545 007e 0233     		adds	r3, r3, #2
 2546 0080 0193     		str	r3, [sp, #4]
 2547              		.loc 1 762 0
 2548 0082 BDF80830 		ldrh	r3, [sp, #8]
 2549 0086 013B     		subs	r3, r3, #1
 2550 0088 ADF80830 		strh	r3, [sp, #8]	@ movhi
 2551              		.loc 1 764 0
 2552 008c BDF80A30 		ldrh	r3, [sp, #10]
 2553 0090 A3F52043 		sub	r3, r3, #40960
 2554 0094 013B     		subs	r3, r3, #1
 2555 0096 0F2B     		cmp	r3, #15
 2556 0098 00F20F81 		bhi	.L215
 2557 009c 01A2     		adr	r2, .L187
 2558 009e 52F823F0 		ldr	pc, [r2, r3, lsl #2]
 2559 00a2 00BF     		.p2align 2
 2560              	.L187:
 2561 00a4 E5000000 		.word	.L186+1
 2562 00a8 37010000 		.word	.L188+1
 2563 00ac 69010000 		.word	.L189+1
 2564 00b0 8D010000 		.word	.L190+1
 2565 00b4 A3010000 		.word	.L191+1
ARM GAS  C:\Users\PCHAUT~1\AppData\Local\Temp\cc7zwTNO.s 			page 46


 2566 00b8 BF010000 		.word	.L192+1
 2567 00bc CD010000 		.word	.L193+1
 2568 00c0 D5010000 		.word	.L194+1
 2569 00c4 01020000 		.word	.L195+1
 2570 00c8 0F020000 		.word	.L196+1
 2571 00cc 17020000 		.word	.L197+1
 2572 00d0 39020000 		.word	.L198+1
 2573 00d4 8F020000 		.word	.L199+1
 2574 00d8 97020000 		.word	.L200+1
 2575 00dc 9F020000 		.word	.L201+1
 2576 00e0 A7020000 		.word	.L202+1
 2577              		.p2align 1
 2578              	.L186:
 2579              	.LBB23:
 2580              		.loc 1 768 0
 2581 00e4 019B     		ldr	r3, [sp, #4]
 2582 00e6 1B88     		ldrh	r3, [r3]	@ movhi
 2583 00e8 ADF82230 		strh	r3, [sp, #34]	@ movhi
 2584              		.loc 1 769 0
 2585 00ec BDF80830 		ldrh	r3, [sp, #8]	@ movhi
 2586 00f0 013B     		subs	r3, r3, #1
 2587 00f2 ADF82430 		strh	r3, [sp, #36]	@ movhi
 2588              		.loc 1 775 0
 2589 00f6 0023     		movs	r3, #0
 2590 00f8 ADF81630 		strh	r3, [sp, #22]	@ movhi
 2591 00fc 15E0     		b	.L203
 2592              	.L204:
 2593              		.loc 1 776 0 discriminator 3
 2594 00fe BDF81630 		ldrh	r3, [sp, #22]
 2595 0102 0133     		adds	r3, r3, #1
 2596 0104 5B00     		lsls	r3, r3, #1
 2597 0106 019A     		ldr	r2, [sp, #4]
 2598 0108 1A44     		add	r2, r2, r3
 2599 010a 039B     		ldr	r3, [sp, #12]
 2600 010c 5968     		ldr	r1, [r3, #4]
 2601 010e BDF82200 		ldrh	r0, [sp, #34]
 2602 0112 BDF81630 		ldrh	r3, [sp, #22]
 2603 0116 0344     		add	r3, r3, r0
 2604 0118 5B00     		lsls	r3, r3, #1
 2605 011a 0B44     		add	r3, r3, r1
 2606 011c 1288     		ldrh	r2, [r2]
 2607 011e 1A80     		strh	r2, [r3]	@ movhi
 2608              		.loc 1 775 0 discriminator 3
 2609 0120 BDF81630 		ldrh	r3, [sp, #22]
 2610 0124 0133     		adds	r3, r3, #1
 2611 0126 ADF81630 		strh	r3, [sp, #22]	@ movhi
 2612              	.L203:
 2613              		.loc 1 775 0 is_stmt 0 discriminator 1
 2614 012a BDF81620 		ldrh	r2, [sp, #22]
 2615 012e BDF82430 		ldrh	r3, [sp, #36]
 2616 0132 9A42     		cmp	r2, r3
 2617 0134 E3D3     		bcc	.L204
 2618              	.L188:
 2619              	.LBE23:
 2620              		.loc 1 781 0 is_stmt 1
 2621 0136 039B     		ldr	r3, [sp, #12]
 2622 0138 0222     		movs	r2, #2
ARM GAS  C:\Users\PCHAUT~1\AppData\Local\Temp\cc7zwTNO.s 			page 47


 2623 013a 1A83     		strh	r2, [r3, #24]	@ movhi
 2624              		.loc 1 782 0
 2625 013c 0398     		ldr	r0, [sp, #12]
 2626 013e FFF7FEFF 		bl	AsebaVMResetWhenFlags
 2627              		.loc 1 783 0
 2628 0142 674B     		ldr	r3, .L219+4
 2629 0144 002B     		cmp	r3, #0
 2630 0146 02D0     		beq	.L205
 2631              		.loc 1 784 0
 2632 0148 0398     		ldr	r0, [sp, #12]
 2633 014a FFF7FEFF 		bl	AsebaVMResetCB
 2634              	.L205:
 2635              		.loc 1 786 0
 2636 014e 4FF6FF71 		movw	r1, #65535
 2637 0152 0398     		ldr	r0, [sp, #12]
 2638 0154 FFF7FEFF 		bl	AsebaVMSetupEvent
 2639 0158 0346     		mov	r3, r0
 2640 015a 002B     		cmp	r3, #0
 2641 015c 40F0AF80 		bne	.L216
 2642              		.loc 1 787 0
 2643 0160 0398     		ldr	r0, [sp, #12]
 2644 0162 FFF7FEFF 		bl	AsebaVMSendExecutionStateChanged
 2645              		.loc 1 788 0
 2646 0166 AAE0     		b	.L216
 2647              	.L189:
 2648              		.loc 1 791 0
 2649 0168 039B     		ldr	r3, [sp, #12]
 2650 016a 1B8B     		ldrh	r3, [r3, #24]
 2651 016c 23F00203 		bic	r3, r3, #2
 2652 0170 9AB2     		uxth	r2, r3
 2653 0172 039B     		ldr	r3, [sp, #12]
 2654 0174 1A83     		strh	r2, [r3, #24]	@ movhi
 2655              		.loc 1 792 0
 2656 0176 0398     		ldr	r0, [sp, #12]
 2657 0178 FFF7FEFF 		bl	AsebaVMSendExecutionStateChanged
 2658              		.loc 1 793 0
 2659 017c 594B     		ldr	r3, .L219+8
 2660 017e 002B     		cmp	r3, #0
 2661 0180 00F09F80 		beq	.L217
 2662              		.loc 1 794 0
 2663 0184 0398     		ldr	r0, [sp, #12]
 2664 0186 FFF7FEFF 		bl	AsebaVMRunCB
 2665              		.loc 1 795 0
 2666 018a 9AE0     		b	.L217
 2667              	.L190:
 2668              		.loc 1 798 0
 2669 018c 039B     		ldr	r3, [sp, #12]
 2670 018e 1B8B     		ldrh	r3, [r3, #24]
 2671 0190 43F00203 		orr	r3, r3, #2
 2672 0194 9AB2     		uxth	r2, r3
 2673 0196 039B     		ldr	r3, [sp, #12]
 2674 0198 1A83     		strh	r2, [r3, #24]	@ movhi
 2675              		.loc 1 799 0
 2676 019a 0398     		ldr	r0, [sp, #12]
 2677 019c FFF7FEFF 		bl	AsebaVMSendExecutionStateChanged
 2678              		.loc 1 800 0
 2679 01a0 92E0     		b	.L178
ARM GAS  C:\Users\PCHAUT~1\AppData\Local\Temp\cc7zwTNO.s 			page 48


 2680              	.L191:
 2681              		.loc 1 803 0
 2682 01a2 039B     		ldr	r3, [sp, #12]
 2683 01a4 1B8B     		ldrh	r3, [r3, #24]
 2684 01a6 03F00103 		and	r3, r3, #1
 2685 01aa 002B     		cmp	r3, #0
 2686 01ac 00F08B80 		beq	.L218
 2687              		.loc 1 805 0
 2688 01b0 0398     		ldr	r0, [sp, #12]
 2689 01b2 FFF7FEFF 		bl	AsebaVMStep
 2690              		.loc 1 806 0
 2691 01b6 0398     		ldr	r0, [sp, #12]
 2692 01b8 FFF7FEFF 		bl	AsebaVMSendExecutionStateChanged
 2693              		.loc 1 808 0
 2694 01bc 83E0     		b	.L218
 2695              	.L192:
 2696              		.loc 1 811 0
 2697 01be 039B     		ldr	r3, [sp, #12]
 2698 01c0 0222     		movs	r2, #2
 2699 01c2 1A83     		strh	r2, [r3, #24]	@ movhi
 2700              		.loc 1 812 0
 2701 01c4 0398     		ldr	r0, [sp, #12]
 2702 01c6 FFF7FEFF 		bl	AsebaVMSendExecutionStateChanged
 2703              		.loc 1 813 0
 2704 01ca 7DE0     		b	.L178
 2705              	.L193:
 2706              		.loc 1 816 0
 2707 01cc 0398     		ldr	r0, [sp, #12]
 2708 01ce FFF7FEFF 		bl	AsebaVMSendExecutionStateChanged
 2709              		.loc 1 817 0
 2710 01d2 79E0     		b	.L178
 2711              	.L194:
 2712              	.LBB24:
 2713              		.loc 1 822 0 discriminator 8
 2714 01d4 019B     		ldr	r3, [sp, #4]
 2715 01d6 1B88     		ldrh	r3, [r3]
 2716 01d8 ADF82830 		strh	r3, [sp, #40]	@ movhi
 2717              		.loc 1 823 0 discriminator 8
 2718 01dc BDF82830 		ldrh	r3, [sp, #40]
 2719 01e0 1946     		mov	r1, r3
 2720 01e2 0398     		ldr	r0, [sp, #12]
 2721 01e4 FFF7FEFF 		bl	AsebaVMSetBreakpoint
 2722 01e8 0346     		mov	r3, r0
 2723 01ea 9BB2     		uxth	r3, r3
 2724 01ec ADF82A30 		strh	r3, [sp, #42]	@ movhi
 2725              		.loc 1 824 0 discriminator 8
 2726 01f0 0AAA     		add	r2, sp, #40
 2727 01f2 0423     		movs	r3, #4
 2728 01f4 49F20B01 		movw	r1, #36875
 2729 01f8 0398     		ldr	r0, [sp, #12]
 2730 01fa FFF7FEFF 		bl	AsebaSendMessage
 2731              	.LBE24:
 2732              		.loc 1 826 0 discriminator 8
 2733 01fe 63E0     		b	.L178
 2734              	.L195:
 2735              		.loc 1 829 0
 2736 0200 019B     		ldr	r3, [sp, #4]
ARM GAS  C:\Users\PCHAUT~1\AppData\Local\Temp\cc7zwTNO.s 			page 49


 2737 0202 1B88     		ldrh	r3, [r3]
 2738 0204 1946     		mov	r1, r3
 2739 0206 0398     		ldr	r0, [sp, #12]
 2740 0208 FFF7FEFF 		bl	AsebaVMClearBreakpoint
 2741              		.loc 1 830 0
 2742 020c 5CE0     		b	.L178
 2743              	.L196:
 2744              		.loc 1 833 0
 2745 020e 0398     		ldr	r0, [sp, #12]
 2746 0210 FFF7FEFF 		bl	AsebaVMClearBreakpoints
 2747              		.loc 1 834 0
 2748 0214 58E0     		b	.L178
 2749              	.L197:
 2750              	.LBB25:
 2751              		.loc 1 838 0
 2752 0216 019B     		ldr	r3, [sp, #4]
 2753 0218 1B88     		ldrh	r3, [r3]	@ movhi
 2754 021a ADF81E30 		strh	r3, [sp, #30]	@ movhi
 2755              		.loc 1 839 0
 2756 021e 019B     		ldr	r3, [sp, #4]
 2757 0220 5B88     		ldrh	r3, [r3, #2]	@ movhi
 2758 0222 ADF82030 		strh	r3, [sp, #32]	@ movhi
 2759              		.loc 1 844 0
 2760 0226 BDF82020 		ldrh	r2, [sp, #32]
 2761 022a BDF81E30 		ldrh	r3, [sp, #30]
 2762 022e 1946     		mov	r1, r3
 2763 0230 0398     		ldr	r0, [sp, #12]
 2764 0232 FFF7FEFF 		bl	AsebaSendVariables
 2765              	.LBE25:
 2766              		.loc 1 846 0
 2767 0236 47E0     		b	.L178
 2768              	.L198:
 2769              	.LBB26:
 2770              		.loc 1 850 0
 2771 0238 019B     		ldr	r3, [sp, #4]
 2772 023a 1B88     		ldrh	r3, [r3]	@ movhi
 2773 023c ADF81A30 		strh	r3, [sp, #26]	@ movhi
 2774              		.loc 1 851 0
 2775 0240 BDF80830 		ldrh	r3, [sp, #8]	@ movhi
 2776 0244 013B     		subs	r3, r3, #1
 2777 0246 ADF81C30 		strh	r3, [sp, #28]	@ movhi
 2778              		.loc 1 857 0
 2779 024a 0023     		movs	r3, #0
 2780 024c ADF81830 		strh	r3, [sp, #24]	@ movhi
 2781 0250 16E0     		b	.L209
 2782              	.L210:
 2783              		.loc 1 858 0 discriminator 3
 2784 0252 BDF81830 		ldrh	r3, [sp, #24]
 2785 0256 0133     		adds	r3, r3, #1
 2786 0258 5B00     		lsls	r3, r3, #1
 2787 025a 019A     		ldr	r2, [sp, #4]
 2788 025c 1344     		add	r3, r3, r2
 2789 025e 1888     		ldrh	r0, [r3]
 2790 0260 039B     		ldr	r3, [sp, #12]
 2791 0262 DA68     		ldr	r2, [r3, #12]
 2792 0264 BDF81A10 		ldrh	r1, [sp, #26]
 2793 0268 BDF81830 		ldrh	r3, [sp, #24]
ARM GAS  C:\Users\PCHAUT~1\AppData\Local\Temp\cc7zwTNO.s 			page 50


 2794 026c 0B44     		add	r3, r3, r1
 2795 026e 5B00     		lsls	r3, r3, #1
 2796 0270 1344     		add	r3, r3, r2
 2797 0272 02B2     		sxth	r2, r0
 2798 0274 1A80     		strh	r2, [r3]	@ movhi
 2799              		.loc 1 857 0 discriminator 3
 2800 0276 BDF81830 		ldrh	r3, [sp, #24]
 2801 027a 0133     		adds	r3, r3, #1
 2802 027c ADF81830 		strh	r3, [sp, #24]	@ movhi
 2803              	.L209:
 2804              		.loc 1 857 0 is_stmt 0 discriminator 1
 2805 0280 BDF81820 		ldrh	r2, [sp, #24]
 2806 0284 BDF81C30 		ldrh	r3, [sp, #28]
 2807 0288 9A42     		cmp	r2, r3
 2808 028a E2D3     		bcc	.L210
 2809              	.LBE26:
 2810              		.loc 1 860 0 is_stmt 1
 2811 028c 1CE0     		b	.L178
 2812              	.L199:
 2813              		.loc 1 863 0
 2814 028e 0398     		ldr	r0, [sp, #12]
 2815 0290 FFF7FEFF 		bl	AsebaWriteBytecode
 2816              		.loc 1 864 0
 2817 0294 18E0     		b	.L178
 2818              	.L200:
 2819              		.loc 1 867 0
 2820 0296 0398     		ldr	r0, [sp, #12]
 2821 0298 FFF7FEFF 		bl	AsebaResetIntoBootloader
 2822              		.loc 1 868 0
 2823 029c 14E0     		b	.L178
 2824              	.L201:
 2825              		.loc 1 871 0
 2826 029e 0398     		ldr	r0, [sp, #12]
 2827 02a0 FFF7FEFF 		bl	AsebaPutVmToSleep
 2828              		.loc 1 872 0
 2829 02a4 10E0     		b	.L178
 2830              	.L202:
 2831              		.loc 1 875 0
 2832 02a6 0398     		ldr	r0, [sp, #12]
 2833 02a8 FFF7FEFF 		bl	AsebaSendDescription
 2834              		.loc 1 876 0
 2835 02ac 0CE0     		b	.L178
 2836              	.L212:
 2837              	.LBB27:
 2838              		.loc 1 743 0
 2839 02ae 00BF     		nop
 2840 02b0 0AE0     		b	.L178
 2841              	.L213:
 2842              	.LBE27:
 2843              		.loc 1 755 0
 2844 02b2 00BF     		nop
 2845 02b4 08E0     		b	.L178
 2846              	.L214:
 2847              		.loc 1 759 0
 2848 02b6 00BF     		nop
 2849 02b8 06E0     		b	.L178
 2850              	.L215:
ARM GAS  C:\Users\PCHAUT~1\AppData\Local\Temp\cc7zwTNO.s 			page 51


 2851              		.loc 1 879 0
 2852 02ba 00BF     		nop
 2853 02bc 04E0     		b	.L178
 2854              	.L216:
 2855              		.loc 1 788 0
 2856 02be 00BF     		nop
 2857 02c0 02E0     		b	.L178
 2858              	.L217:
 2859              		.loc 1 795 0
 2860 02c2 00BF     		nop
 2861 02c4 00E0     		b	.L178
 2862              	.L218:
 2863              		.loc 1 808 0
 2864 02c6 00BF     		nop
 2865              	.L178:
 2866              		.loc 1 881 0
 2867 02c8 044B     		ldr	r3, .L219
 2868 02ca 0B9A     		ldr	r2, [sp, #44]
 2869 02cc 1B68     		ldr	r3, [r3]
 2870 02ce 9A42     		cmp	r2, r3
 2871 02d0 01D0     		beq	.L211
 2872 02d2 FFF7FEFF 		bl	__stack_chk_fail
 2873              	.L211:
 2874 02d6 0DB0     		add	sp, sp, #52
 2875              		.cfi_def_cfa_offset 4
 2876              		@ sp needed
 2877 02d8 5DF804FB 		ldr	pc, [sp], #4
 2878              	.L220:
 2879              		.align	2
 2880              	.L219:
 2881 02dc 00000000 		.word	__stack_chk_guard
 2882 02e0 00000000 		.word	AsebaVMResetCB
 2883 02e4 00000000 		.word	AsebaVMRunCB
 2884              		.cfi_endproc
 2885              	.LFE16:
 2886              		.size	AsebaVMDebugMessage, .-AsebaVMDebugMessage
 2887              		.section	.text.AsebaVMShouldDropPacket,"ax",%progbits
 2888              		.align	1
 2889              		.p2align 4,,15
 2890              		.global	AsebaVMShouldDropPacket
 2891              		.syntax unified
 2892              		.thumb
 2893              		.thumb_func
 2894              		.fpu fpv4-sp-d16
 2895              		.type	AsebaVMShouldDropPacket, %function
 2896              	AsebaVMShouldDropPacket:
 2897              	.LFB17:
 2898              		.loc 1 884 0
 2899              		.cfi_startproc
 2900              		@ args = 0, pretend = 0, frame = 24
 2901              		@ frame_needed = 0, uses_anonymous_args = 0
 2902 0000 00B5     		push	{lr}
 2903              		.cfi_def_cfa_offset 4
 2904              		.cfi_offset 14, -4
 2905 0002 87B0     		sub	sp, sp, #28
 2906              		.cfi_def_cfa_offset 32
 2907 0004 0390     		str	r0, [sp, #12]
ARM GAS  C:\Users\PCHAUT~1\AppData\Local\Temp\cc7zwTNO.s 			page 52


 2908 0006 0B46     		mov	r3, r1
 2909 0008 0192     		str	r2, [sp, #4]
 2910 000a ADF80A30 		strh	r3, [sp, #10]	@ movhi
 2911              		.loc 1 884 0
 2912 000e 234B     		ldr	r3, .L228
 2913 0010 1B68     		ldr	r3, [r3]
 2914 0012 0593     		str	r3, [sp, #20]
 2915              		.loc 1 886 0
 2916 0014 019B     		ldr	r3, [sp, #4]
 2917 0016 1B88     		ldrh	r3, [r3]	@ movhi
 2918 0018 ADF81030 		strh	r3, [sp, #16]	@ movhi
 2919              		.loc 1 887 0
 2920 001c BDF91030 		ldrsh	r3, [sp, #16]
 2921 0020 002B     		cmp	r3, #0
 2922 0022 0DDB     		blt	.L222
 2923              		.loc 1 890 0
 2924 0024 BDF81030 		ldrh	r3, [sp, #16]
 2925 0028 1946     		mov	r1, r3
 2926 002a 0398     		ldr	r0, [sp, #12]
 2927 002c FFF7FEFF 		bl	AsebaVMGetEventAddress
 2928 0030 0346     		mov	r3, r0
 2929 0032 002B     		cmp	r3, #0
 2930 0034 0CBF     		ite	eq
 2931 0036 0123     		moveq	r3, #1
 2932 0038 0023     		movne	r3, #0
 2933 003a DBB2     		uxtb	r3, r3
 2934 003c 9BB2     		uxth	r3, r3
 2935 003e 21E0     		b	.L223
 2936              	.L222:
 2937              		.loc 1 892 0
 2938 0040 BDF81030 		ldrh	r3, [sp, #16]
 2939 0044 B3F5204F 		cmp	r3, #40960
 2940 0048 1BD3     		bcc	.L224
 2941              	.LBB28:
 2942              		.loc 1 895 0
 2943 004a 019B     		ldr	r3, [sp, #4]
 2944 004c 5B88     		ldrh	r3, [r3, #2]	@ movhi
 2945 004e ADF81230 		strh	r3, [sp, #18]	@ movhi
 2946              		.loc 1 896 0
 2947 0052 BDF81030 		ldrh	r3, [sp, #16]
 2948 0056 B3F5204F 		cmp	r3, #40960
 2949 005a 05D0     		beq	.L225
 2950              		.loc 1 896 0 is_stmt 0 discriminator 1
 2951 005c BDF81030 		ldrh	r3, [sp, #16]
 2952 0060 4AF21102 		movw	r2, #40977
 2953 0064 9342     		cmp	r3, r2
 2954 0066 01D1     		bne	.L226
 2955              	.L225:
 2956              		.loc 1 898 0 is_stmt 1
 2957 0068 0023     		movs	r3, #0
 2958 006a 0BE0     		b	.L223
 2959              	.L226:
 2960              		.loc 1 901 0
 2961 006c 039B     		ldr	r3, [sp, #12]
 2962 006e 1B88     		ldrh	r3, [r3]
 2963 0070 BDF81220 		ldrh	r2, [sp, #18]
 2964 0074 9A42     		cmp	r2, r3
ARM GAS  C:\Users\PCHAUT~1\AppData\Local\Temp\cc7zwTNO.s 			page 53


 2965 0076 14BF     		ite	ne
 2966 0078 0123     		movne	r3, #1
 2967 007a 0023     		moveq	r3, #0
 2968 007c DBB2     		uxtb	r3, r3
 2969 007e 9BB2     		uxth	r3, r3
 2970 0080 00E0     		b	.L223
 2971              	.L224:
 2972              	.LBE28:
 2973              		.loc 1 903 0
 2974 0082 0123     		movs	r3, #1
 2975              	.L223:
 2976              		.loc 1 904 0
 2977 0084 1846     		mov	r0, r3
 2978 0086 054B     		ldr	r3, .L228
 2979 0088 059A     		ldr	r2, [sp, #20]
 2980 008a 1B68     		ldr	r3, [r3]
 2981 008c 9A42     		cmp	r2, r3
 2982 008e 01D0     		beq	.L227
 2983 0090 FFF7FEFF 		bl	__stack_chk_fail
 2984              	.L227:
 2985 0094 07B0     		add	sp, sp, #28
 2986              		.cfi_def_cfa_offset 4
 2987              		@ sp needed
 2988 0096 5DF804FB 		ldr	pc, [sp], #4
 2989              	.L229:
 2990 009a 00BF     		.align	2
 2991              	.L228:
 2992 009c 00000000 		.word	__stack_chk_guard
 2993              		.cfi_endproc
 2994              	.LFE17:
 2995              		.size	AsebaVMShouldDropPacket, .-AsebaVMShouldDropPacket
 2996              		.weak	AsebaVMRunCB
 2997              		.weak	AsebaVMResetCB
 2998              		.weak	AsebaVMErrorCB
 2999              		.text
 3000              	.Letext0:
 3001              		.file 2 "../lib/e-puck2_main-processor/aseba/vm/../common/consts.h"
 3002              		.file 3 "c:\\users\\pchautems\\documents\\robotiquetp\\eclipse_e-puck2\\tools\\gcc-arm-none-eabi-7
 3003              		.file 4 "c:\\users\\pchautems\\documents\\robotiquetp\\eclipse_e-puck2\\tools\\gcc-arm-none-eabi-7
 3004              		.file 5 "c:\\users\\pchautems\\documents\\robotiquetp\\eclipse_e-puck2\\tools\\gcc-arm-none-eabi-7
 3005              		.file 6 "c:\\users\\pchautems\\documents\\robotiquetp\\eclipse_e-puck2\\tools\\gcc-arm-none-eabi-7
 3006              		.file 7 "c:\\users\\pchautems\\documents\\robotiquetp\\eclipse_e-puck2\\tools\\gcc-arm-none-eabi-7
 3007              		.file 8 "../lib/e-puck2_main-processor/aseba/vm/../common/types.h"
 3008              		.file 9 "../lib/e-puck2_main-processor/aseba/vm/vm.h"
 3009              		.section	.debug_info,"",%progbits
 3010              	.Ldebug_info0:
 3011 0000 CC130000 		.4byte	0x13cc
 3012 0004 0400     		.2byte	0x4
 3013 0006 00000000 		.4byte	.Ldebug_abbrev0
 3014 000a 04       		.byte	0x4
 3015 000b 01       		.uleb128 0x1
 3016 000c 40030000 		.4byte	.LASF259
 3017 0010 0C       		.byte	0xc
 3018 0011 00110000 		.4byte	.LASF260
 3019 0015 950C0000 		.4byte	.LASF261
 3020 0019 78000000 		.4byte	.Ldebug_ranges0+0x78
 3021 001d 00000000 		.4byte	0
ARM GAS  C:\Users\PCHAUT~1\AppData\Local\Temp\cc7zwTNO.s 			page 54


 3022 0021 00000000 		.4byte	.Ldebug_line0
 3023 0025 02       		.uleb128 0x2
 3024 0026 07       		.byte	0x7
 3025 0027 01       		.byte	0x1
 3026 0028 8D000000 		.4byte	0x8d
 3027 002c 02       		.byte	0x2
 3028 002d 38       		.byte	0x38
 3029 002e 8D000000 		.4byte	0x8d
 3030 0032 03       		.uleb128 0x3
 3031 0033 0A0D0000 		.4byte	.LASF0
 3032 0037 00       		.byte	0
 3033 0038 03       		.uleb128 0x3
 3034 0039 80020000 		.4byte	.LASF1
 3035 003d 01       		.byte	0x1
 3036 003e 03       		.uleb128 0x3
 3037 003f C7050000 		.4byte	.LASF2
 3038 0043 02       		.byte	0x2
 3039 0044 03       		.uleb128 0x3
 3040 0045 8D090000 		.4byte	.LASF3
 3041 0049 03       		.byte	0x3
 3042 004a 03       		.uleb128 0x3
 3043 004b C0080000 		.4byte	.LASF4
 3044 004f 04       		.byte	0x4
 3045 0050 03       		.uleb128 0x3
 3046 0051 180E0000 		.4byte	.LASF5
 3047 0055 05       		.byte	0x5
 3048 0056 03       		.uleb128 0x3
 3049 0057 480E0000 		.4byte	.LASF6
 3050 005b 06       		.byte	0x6
 3051 005c 03       		.uleb128 0x3
 3052 005d E70B0000 		.4byte	.LASF7
 3053 0061 07       		.byte	0x7
 3054 0062 03       		.uleb128 0x3
 3055 0063 520A0000 		.4byte	.LASF8
 3056 0067 08       		.byte	0x8
 3057 0068 03       		.uleb128 0x3
 3058 0069 98050000 		.4byte	.LASF9
 3059 006d 09       		.byte	0x9
 3060 006e 03       		.uleb128 0x3
 3061 006f 51070000 		.4byte	.LASF10
 3062 0073 0A       		.byte	0xa
 3063 0074 03       		.uleb128 0x3
 3064 0075 8E0D0000 		.4byte	.LASF11
 3065 0079 0B       		.byte	0xb
 3066 007a 03       		.uleb128 0x3
 3067 007b AC050000 		.4byte	.LASF12
 3068 007f 0C       		.byte	0xc
 3069 0080 03       		.uleb128 0x3
 3070 0081 A3070000 		.4byte	.LASF13
 3071 0085 0D       		.byte	0xd
 3072 0086 03       		.uleb128 0x3
 3073 0087 E1040000 		.4byte	.LASF14
 3074 008b 0E       		.byte	0xe
 3075 008c 00       		.byte	0
 3076 008d 04       		.uleb128 0x4
 3077 008e 01       		.byte	0x1
 3078 008f 08       		.byte	0x8
ARM GAS  C:\Users\PCHAUT~1\AppData\Local\Temp\cc7zwTNO.s 			page 55


 3079 0090 5E0B0000 		.4byte	.LASF42
 3080 0094 02       		.uleb128 0x2
 3081 0095 07       		.byte	0x7
 3082 0096 01       		.byte	0x1
 3083 0097 8D000000 		.4byte	0x8d
 3084 009b 02       		.byte	0x2
 3085 009c 4C       		.byte	0x4c
 3086 009d 0E010000 		.4byte	0x10e
 3087 00a1 03       		.uleb128 0x3
 3088 00a2 FD050000 		.4byte	.LASF15
 3089 00a6 00       		.byte	0
 3090 00a7 03       		.uleb128 0x3
 3091 00a8 0A0B0000 		.4byte	.LASF16
 3092 00ac 01       		.byte	0x1
 3093 00ad 03       		.uleb128 0x3
 3094 00ae DE0A0000 		.4byte	.LASF17
 3095 00b2 02       		.byte	0x2
 3096 00b3 03       		.uleb128 0x3
 3097 00b4 A20A0000 		.4byte	.LASF18
 3098 00b8 03       		.byte	0x3
 3099 00b9 03       		.uleb128 0x3
 3100 00ba EC0F0000 		.4byte	.LASF19
 3101 00be 04       		.byte	0x4
 3102 00bf 03       		.uleb128 0x3
 3103 00c0 B60D0000 		.4byte	.LASF20
 3104 00c4 05       		.byte	0x5
 3105 00c5 03       		.uleb128 0x3
 3106 00c6 840F0000 		.4byte	.LASF21
 3107 00ca 06       		.byte	0x6
 3108 00cb 03       		.uleb128 0x3
 3109 00cc 740D0000 		.4byte	.LASF22
 3110 00d0 07       		.byte	0x7
 3111 00d1 03       		.uleb128 0x3
 3112 00d2 EF100000 		.4byte	.LASF23
 3113 00d6 08       		.byte	0x8
 3114 00d7 03       		.uleb128 0x3
 3115 00d8 DE100000 		.4byte	.LASF24
 3116 00dc 09       		.byte	0x9
 3117 00dd 03       		.uleb128 0x3
 3118 00de 58000000 		.4byte	.LASF25
 3119 00e2 0A       		.byte	0xa
 3120 00e3 03       		.uleb128 0x3
 3121 00e4 150F0000 		.4byte	.LASF26
 3122 00e8 0B       		.byte	0xb
 3123 00e9 03       		.uleb128 0x3
 3124 00ea 1F0B0000 		.4byte	.LASF27
 3125 00ee 0C       		.byte	0xc
 3126 00ef 03       		.uleb128 0x3
 3127 00f0 3D000000 		.4byte	.LASF28
 3128 00f4 0D       		.byte	0xd
 3129 00f5 03       		.uleb128 0x3
 3130 00f6 7A070000 		.4byte	.LASF29
 3131 00fa 0E       		.byte	0xe
 3132 00fb 03       		.uleb128 0x3
 3133 00fc 630F0000 		.4byte	.LASF30
 3134 0100 0F       		.byte	0xf
 3135 0101 03       		.uleb128 0x3
ARM GAS  C:\Users\PCHAUT~1\AppData\Local\Temp\cc7zwTNO.s 			page 56


 3136 0102 4E100000 		.4byte	.LASF31
 3137 0106 10       		.byte	0x10
 3138 0107 03       		.uleb128 0x3
 3139 0108 1A100000 		.4byte	.LASF32
 3140 010c 11       		.byte	0x11
 3141 010d 00       		.byte	0
 3142 010e 02       		.uleb128 0x2
 3143 010f 07       		.byte	0x7
 3144 0110 01       		.byte	0x1
 3145 0111 8D000000 		.4byte	0x8d
 3146 0115 02       		.byte	0x2
 3147 0116 6A       		.byte	0x6a
 3148 0117 34010000 		.4byte	0x134
 3149 011b 03       		.uleb128 0x3
 3150 011c D6000000 		.4byte	.LASF33
 3151 0120 00       		.byte	0
 3152 0121 03       		.uleb128 0x3
 3153 0122 020F0000 		.4byte	.LASF34
 3154 0126 01       		.byte	0x1
 3155 0127 03       		.uleb128 0x3
 3156 0128 20000000 		.4byte	.LASF35
 3157 012c 02       		.byte	0x2
 3158 012d 03       		.uleb128 0x3
 3159 012e B5040000 		.4byte	.LASF36
 3160 0132 03       		.byte	0x3
 3161 0133 00       		.byte	0
 3162 0134 02       		.uleb128 0x2
 3163 0135 07       		.byte	0x7
 3164 0136 01       		.byte	0x1
 3165 0137 8D000000 		.4byte	0x8d
 3166 013b 02       		.byte	0x2
 3167 013c 7B       		.byte	0x7b
 3168 013d 54010000 		.4byte	0x154
 3169 0141 03       		.uleb128 0x3
 3170 0142 7D050000 		.4byte	.LASF37
 3171 0146 01       		.byte	0x1
 3172 0147 03       		.uleb128 0x3
 3173 0148 BB000000 		.4byte	.LASF38
 3174 014c 02       		.byte	0x2
 3175 014d 03       		.uleb128 0x3
 3176 014e F0080000 		.4byte	.LASF39
 3177 0152 04       		.byte	0x4
 3178 0153 00       		.byte	0
 3179 0154 02       		.uleb128 0x2
 3180 0155 07       		.byte	0x7
 3181 0156 02       		.byte	0x2
 3182 0157 70010000 		.4byte	0x170
 3183 015b 02       		.byte	0x2
 3184 015c 86       		.byte	0x86
 3185 015d 70010000 		.4byte	0x170
 3186 0161 05       		.uleb128 0x5
 3187 0162 F4020000 		.4byte	.LASF40
 3188 0166 FFFF     		.2byte	0xffff
 3189 0168 05       		.uleb128 0x5
 3190 0169 5F0C0000 		.4byte	.LASF41
 3191 016d FEFF     		.2byte	0xfffe
 3192 016f 00       		.byte	0
ARM GAS  C:\Users\PCHAUT~1\AppData\Local\Temp\cc7zwTNO.s 			page 57


 3193 0170 04       		.uleb128 0x4
 3194 0171 02       		.byte	0x2
 3195 0172 07       		.byte	0x7
 3196 0173 90070000 		.4byte	.LASF43
 3197 0177 02       		.uleb128 0x2
 3198 0178 07       		.byte	0x7
 3199 0179 02       		.byte	0x2
 3200 017a 70010000 		.4byte	0x170
 3201 017e 02       		.byte	0x2
 3202 017f 90       		.byte	0x90
 3203 0180 96020000 		.4byte	0x296
 3204 0184 05       		.uleb128 0x5
 3205 0185 D9070000 		.4byte	.LASF44
 3206 0189 0080     		.2byte	0x8000
 3207 018b 05       		.uleb128 0x5
 3208 018c C40B0000 		.4byte	.LASF45
 3209 0190 0180     		.2byte	0x8001
 3210 0192 05       		.uleb128 0x5
 3211 0193 72060000 		.4byte	.LASF46
 3212 0197 0280     		.2byte	0x8002
 3213 0199 05       		.uleb128 0x5
 3214 019a 4B020000 		.4byte	.LASF47
 3215 019e 0380     		.2byte	0x8003
 3216 01a0 05       		.uleb128 0x5
 3217 01a1 26020000 		.4byte	.LASF48
 3218 01a5 0480     		.2byte	0x8004
 3219 01a7 05       		.uleb128 0x5
 3220 01a8 BB060000 		.4byte	.LASF49
 3221 01ac 0580     		.2byte	0x8005
 3222 01ae 05       		.uleb128 0x5
 3223 01af BF0F0000 		.4byte	.LASF50
 3224 01b3 0680     		.2byte	0x8006
 3225 01b5 05       		.uleb128 0x5
 3226 01b6 08050000 		.4byte	.LASF51
 3227 01ba 0090     		.2byte	0x9000
 3228 01bc 05       		.uleb128 0x5
 3229 01bd 240D0000 		.4byte	.LASF52
 3230 01c1 0190     		.2byte	0x9001
 3231 01c3 05       		.uleb128 0x5
 3232 01c4 D1090000 		.4byte	.LASF53
 3233 01c8 0290     		.2byte	0x9002
 3234 01ca 05       		.uleb128 0x5
 3235 01cb 340B0000 		.4byte	.LASF54
 3236 01cf 0390     		.2byte	0x9003
 3237 01d1 05       		.uleb128 0x5
 3238 01d2 00080000 		.4byte	.LASF55
 3239 01d6 0490     		.2byte	0x9004
 3240 01d8 05       		.uleb128 0x5
 3241 01d9 54080000 		.4byte	.LASF56
 3242 01dd 0590     		.2byte	0x9005
 3243 01df 05       		.uleb128 0x5
 3244 01e0 A1090000 		.4byte	.LASF57
 3245 01e4 0690     		.2byte	0x9006
 3246 01e6 05       		.uleb128 0x5
 3247 01e7 27100000 		.4byte	.LASF58
 3248 01eb 0790     		.2byte	0x9007
 3249 01ed 05       		.uleb128 0x5
ARM GAS  C:\Users\PCHAUT~1\AppData\Local\Temp\cc7zwTNO.s 			page 58


 3250 01ee B90A0000 		.4byte	.LASF59
 3251 01f2 0890     		.2byte	0x9008
 3252 01f4 05       		.uleb128 0x5
 3253 01f5 5C010000 		.4byte	.LASF60
 3254 01f9 0990     		.2byte	0x9009
 3255 01fb 05       		.uleb128 0x5
 3256 01fc C0010000 		.4byte	.LASF61
 3257 0200 0A90     		.2byte	0x900a
 3258 0202 05       		.uleb128 0x5
 3259 0203 49060000 		.4byte	.LASF62
 3260 0207 0B90     		.2byte	0x900b
 3261 0209 05       		.uleb128 0x5
 3262 020a 05070000 		.4byte	.LASF63
 3263 020e 0C90     		.2byte	0x900c
 3264 0210 05       		.uleb128 0x5
 3265 0211 D6020000 		.4byte	.LASF64
 3266 0215 00A0     		.2byte	0xa000
 3267 0217 05       		.uleb128 0x5
 3268 0218 D5080000 		.4byte	.LASF65
 3269 021c 01A0     		.2byte	0xa001
 3270 021e 05       		.uleb128 0x5
 3271 021f 67000000 		.4byte	.LASF66
 3272 0223 02A0     		.2byte	0xa002
 3273 0225 05       		.uleb128 0x5
 3274 0226 AB020000 		.4byte	.LASF67
 3275 022a 03A0     		.2byte	0xa003
 3276 022c 05       		.uleb128 0x5
 3277 022d B00B0000 		.4byte	.LASF68
 3278 0231 04A0     		.2byte	0xa004
 3279 0233 05       		.uleb128 0x5
 3280 0234 15090000 		.4byte	.LASF69
 3281 0238 05A0     		.2byte	0xa005
 3282 023a 05       		.uleb128 0x5
 3283 023b 660E0000 		.4byte	.LASF70
 3284 023f 06A0     		.2byte	0xa006
 3285 0241 05       		.uleb128 0x5
 3286 0242 8E0B0000 		.4byte	.LASF71
 3287 0246 07A0     		.2byte	0xa007
 3288 0248 05       		.uleb128 0x5
 3289 0249 98100000 		.4byte	.LASF72
 3290 024d 08A0     		.2byte	0xa008
 3291 024f 05       		.uleb128 0x5
 3292 0250 790E0000 		.4byte	.LASF73
 3293 0254 09A0     		.2byte	0xa009
 3294 0256 05       		.uleb128 0x5
 3295 0257 280A0000 		.4byte	.LASF74
 3296 025b 0AA0     		.2byte	0xa00a
 3297 025d 05       		.uleb128 0x5
 3298 025e 2D050000 		.4byte	.LASF75
 3299 0262 0BA0     		.2byte	0xa00b
 3300 0264 05       		.uleb128 0x5
 3301 0265 2A080000 		.4byte	.LASF76
 3302 0269 0CA0     		.2byte	0xa00c
 3303 026b 05       		.uleb128 0x5
 3304 026c 5A100000 		.4byte	.LASF77
 3305 0270 0DA0     		.2byte	0xa00d
 3306 0272 05       		.uleb128 0x5
ARM GAS  C:\Users\PCHAUT~1\AppData\Local\Temp\cc7zwTNO.s 			page 59


 3307 0273 3C070000 		.4byte	.LASF78
 3308 0277 0EA0     		.2byte	0xa00e
 3309 0279 05       		.uleb128 0x5
 3310 027a 0F010000 		.4byte	.LASF79
 3311 027e 0FA0     		.2byte	0xa00f
 3312 0280 05       		.uleb128 0x5
 3313 0281 50090000 		.4byte	.LASF80
 3314 0285 10A0     		.2byte	0xa010
 3315 0287 05       		.uleb128 0x5
 3316 0288 FF0D0000 		.4byte	.LASF81
 3317 028c 11A0     		.2byte	0xa011
 3318 028e 05       		.uleb128 0x5
 3319 028f 7B080000 		.4byte	.LASF82
 3320 0293 FFFF     		.2byte	0xffff
 3321 0295 00       		.byte	0
 3322 0296 04       		.uleb128 0x4
 3323 0297 04       		.byte	0x4
 3324 0298 07       		.byte	0x7
 3325 0299 96060000 		.4byte	.LASF83
 3326 029d 06       		.uleb128 0x6
 3327 029e 04       		.byte	0x4
 3328 029f 05       		.byte	0x5
 3329 02a0 696E7400 		.ascii	"int\000"
 3330 02a4 04       		.uleb128 0x4
 3331 02a5 08       		.byte	0x8
 3332 02a6 05       		.byte	0x5
 3333 02a7 C8040000 		.4byte	.LASF84
 3334 02ab 04       		.uleb128 0x4
 3335 02ac 08       		.byte	0x8
 3336 02ad 04       		.byte	0x4
 3337 02ae 73090000 		.4byte	.LASF85
 3338 02b2 04       		.uleb128 0x4
 3339 02b3 01       		.byte	0x1
 3340 02b4 06       		.byte	0x6
 3341 02b5 74020000 		.4byte	.LASF86
 3342 02b9 04       		.uleb128 0x4
 3343 02ba 02       		.byte	0x2
 3344 02bb 05       		.byte	0x5
 3345 02bc 100C0000 		.4byte	.LASF87
 3346 02c0 04       		.uleb128 0x4
 3347 02c1 04       		.byte	0x4
 3348 02c2 05       		.byte	0x5
 3349 02c3 2B030000 		.4byte	.LASF88
 3350 02c7 04       		.uleb128 0x4
 3351 02c8 04       		.byte	0x4
 3352 02c9 07       		.byte	0x7
 3353 02ca F3060000 		.4byte	.LASF89
 3354 02ce 04       		.uleb128 0x4
 3355 02cf 08       		.byte	0x8
 3356 02d0 07       		.byte	0x7
 3357 02d1 3A010000 		.4byte	.LASF90
 3358 02d5 07       		.uleb128 0x7
 3359 02d6 1B080000 		.4byte	.LASF91
 3360 02da 03       		.byte	0x3
 3361 02db 22       		.byte	0x22
 3362 02dc E0020000 		.4byte	0x2e0
 3363 02e0 08       		.uleb128 0x8
ARM GAS  C:\Users\PCHAUT~1\AppData\Local\Temp\cc7zwTNO.s 			page 60


 3364 02e1 04       		.byte	0x4
 3365 02e2 E6020000 		.4byte	0x2e6
 3366 02e6 09       		.uleb128 0x9
 3367 02e7 550D0000 		.4byte	.LASF198
 3368 02eb 07       		.uleb128 0x7
 3369 02ec 4B0A0000 		.4byte	.LASF92
 3370 02f0 04       		.byte	0x4
 3371 02f1 2C       		.byte	0x2c
 3372 02f2 C0020000 		.4byte	0x2c0
 3373 02f6 07       		.uleb128 0x7
 3374 02f7 A20D0000 		.4byte	.LASF93
 3375 02fb 04       		.byte	0x4
 3376 02fc 72       		.byte	0x72
 3377 02fd C0020000 		.4byte	0x2c0
 3378 0301 0A       		.uleb128 0xa
 3379 0302 23080000 		.4byte	.LASF94
 3380 0306 05       		.byte	0x5
 3381 0307 6501     		.2byte	0x165
 3382 0309 96020000 		.4byte	0x296
 3383 030d 0B       		.uleb128 0xb
 3384 030e 04       		.byte	0x4
 3385 030f 04       		.byte	0x4
 3386 0310 A6       		.byte	0xa6
 3387 0311 2C030000 		.4byte	0x32c
 3388 0315 0C       		.uleb128 0xc
 3389 0316 BD020000 		.4byte	.LASF95
 3390 031a 04       		.byte	0x4
 3391 031b A8       		.byte	0xa8
 3392 031c 01030000 		.4byte	0x301
 3393 0320 0C       		.uleb128 0xc
 3394 0321 A3060000 		.4byte	.LASF96
 3395 0325 04       		.byte	0x4
 3396 0326 A9       		.byte	0xa9
 3397 0327 2C030000 		.4byte	0x32c
 3398 032b 00       		.byte	0
 3399 032c 0D       		.uleb128 0xd
 3400 032d 8D000000 		.4byte	0x8d
 3401 0331 3C030000 		.4byte	0x33c
 3402 0335 0E       		.uleb128 0xe
 3403 0336 96020000 		.4byte	0x296
 3404 033a 03       		.byte	0x3
 3405 033b 00       		.byte	0
 3406 033c 0F       		.uleb128 0xf
 3407 033d 08       		.byte	0x8
 3408 033e 04       		.byte	0x4
 3409 033f A3       		.byte	0xa3
 3410 0340 5D030000 		.4byte	0x35d
 3411 0344 10       		.uleb128 0x10
 3412 0345 4D0D0000 		.4byte	.LASF97
 3413 0349 04       		.byte	0x4
 3414 034a A5       		.byte	0xa5
 3415 034b 9D020000 		.4byte	0x29d
 3416 034f 00       		.byte	0
 3417 0350 10       		.uleb128 0x10
 3418 0351 5C0D0000 		.4byte	.LASF98
 3419 0355 04       		.byte	0x4
 3420 0356 AA       		.byte	0xaa
ARM GAS  C:\Users\PCHAUT~1\AppData\Local\Temp\cc7zwTNO.s 			page 61


 3421 0357 0D030000 		.4byte	0x30d
 3422 035b 04       		.byte	0x4
 3423 035c 00       		.byte	0
 3424 035d 07       		.uleb128 0x7
 3425 035e 380C0000 		.4byte	.LASF99
 3426 0362 04       		.byte	0x4
 3427 0363 AB       		.byte	0xab
 3428 0364 3C030000 		.4byte	0x33c
 3429 0368 07       		.uleb128 0x7
 3430 0369 11060000 		.4byte	.LASF100
 3431 036d 04       		.byte	0x4
 3432 036e AF       		.byte	0xaf
 3433 036f D5020000 		.4byte	0x2d5
 3434 0373 11       		.uleb128 0x11
 3435 0374 04       		.byte	0x4
 3436 0375 08       		.uleb128 0x8
 3437 0376 04       		.byte	0x4
 3438 0377 7B030000 		.4byte	0x37b
 3439 037b 04       		.uleb128 0x4
 3440 037c 01       		.byte	0x1
 3441 037d 08       		.byte	0x8
 3442 037e AA0D0000 		.4byte	.LASF101
 3443 0382 12       		.uleb128 0x12
 3444 0383 7B030000 		.4byte	0x37b
 3445 0387 07       		.uleb128 0x7
 3446 0388 B20E0000 		.4byte	.LASF102
 3447 038c 06       		.byte	0x6
 3448 038d 16       		.byte	0x16
 3449 038e C7020000 		.4byte	0x2c7
 3450 0392 13       		.uleb128 0x13
 3451 0393 22060000 		.4byte	.LASF107
 3452 0397 18       		.byte	0x18
 3453 0398 06       		.byte	0x6
 3454 0399 2F       		.byte	0x2f
 3455 039a E5030000 		.4byte	0x3e5
 3456 039e 10       		.uleb128 0x10
 3457 039f 420E0000 		.4byte	.LASF103
 3458 03a3 06       		.byte	0x6
 3459 03a4 31       		.byte	0x31
 3460 03a5 E5030000 		.4byte	0x3e5
 3461 03a9 00       		.byte	0
 3462 03aa 14       		.uleb128 0x14
 3463 03ab 5F6B00   		.ascii	"_k\000"
 3464 03ae 06       		.byte	0x6
 3465 03af 32       		.byte	0x32
 3466 03b0 9D020000 		.4byte	0x29d
 3467 03b4 04       		.byte	0x4
 3468 03b5 10       		.uleb128 0x10
 3469 03b6 FB0C0000 		.4byte	.LASF104
 3470 03ba 06       		.byte	0x6
 3471 03bb 32       		.byte	0x32
 3472 03bc 9D020000 		.4byte	0x29d
 3473 03c0 08       		.byte	0x8
 3474 03c1 10       		.uleb128 0x10
 3475 03c2 F7050000 		.4byte	.LASF105
 3476 03c6 06       		.byte	0x6
 3477 03c7 32       		.byte	0x32
ARM GAS  C:\Users\PCHAUT~1\AppData\Local\Temp\cc7zwTNO.s 			page 62


 3478 03c8 9D020000 		.4byte	0x29d
 3479 03cc 0C       		.byte	0xc
 3480 03cd 10       		.uleb128 0x10
 3481 03ce 7F0F0000 		.4byte	.LASF106
 3482 03d2 06       		.byte	0x6
 3483 03d3 32       		.byte	0x32
 3484 03d4 9D020000 		.4byte	0x29d
 3485 03d8 10       		.byte	0x10
 3486 03d9 14       		.uleb128 0x14
 3487 03da 5F7800   		.ascii	"_x\000"
 3488 03dd 06       		.byte	0x6
 3489 03de 33       		.byte	0x33
 3490 03df EB030000 		.4byte	0x3eb
 3491 03e3 14       		.byte	0x14
 3492 03e4 00       		.byte	0
 3493 03e5 08       		.uleb128 0x8
 3494 03e6 04       		.byte	0x4
 3495 03e7 92030000 		.4byte	0x392
 3496 03eb 0D       		.uleb128 0xd
 3497 03ec 87030000 		.4byte	0x387
 3498 03f0 FB030000 		.4byte	0x3fb
 3499 03f4 0E       		.uleb128 0xe
 3500 03f5 96020000 		.4byte	0x296
 3501 03f9 00       		.byte	0
 3502 03fa 00       		.byte	0
 3503 03fb 13       		.uleb128 0x13
 3504 03fc 6D060000 		.4byte	.LASF108
 3505 0400 24       		.byte	0x24
 3506 0401 06       		.byte	0x6
 3507 0402 37       		.byte	0x37
 3508 0403 74040000 		.4byte	0x474
 3509 0407 10       		.uleb128 0x10
 3510 0408 1D020000 		.4byte	.LASF109
 3511 040c 06       		.byte	0x6
 3512 040d 39       		.byte	0x39
 3513 040e 9D020000 		.4byte	0x29d
 3514 0412 00       		.byte	0
 3515 0413 10       		.uleb128 0x10
 3516 0414 C30D0000 		.4byte	.LASF110
 3517 0418 06       		.byte	0x6
 3518 0419 3A       		.byte	0x3a
 3519 041a 9D020000 		.4byte	0x29d
 3520 041e 04       		.byte	0x4
 3521 041f 10       		.uleb128 0x10
 3522 0420 640D0000 		.4byte	.LASF111
 3523 0424 06       		.byte	0x6
 3524 0425 3B       		.byte	0x3b
 3525 0426 9D020000 		.4byte	0x29d
 3526 042a 08       		.byte	0x8
 3527 042b 10       		.uleb128 0x10
 3528 042c 2C110000 		.4byte	.LASF112
 3529 0430 06       		.byte	0x6
 3530 0431 3C       		.byte	0x3c
 3531 0432 9D020000 		.4byte	0x29d
 3532 0436 0C       		.byte	0xc
 3533 0437 10       		.uleb128 0x10
 3534 0438 FF090000 		.4byte	.LASF113
ARM GAS  C:\Users\PCHAUT~1\AppData\Local\Temp\cc7zwTNO.s 			page 63


 3535 043c 06       		.byte	0x6
 3536 043d 3D       		.byte	0x3d
 3537 043e 9D020000 		.4byte	0x29d
 3538 0442 10       		.byte	0x10
 3539 0443 10       		.uleb128 0x10
 3540 0444 9F080000 		.4byte	.LASF114
 3541 0448 06       		.byte	0x6
 3542 0449 3E       		.byte	0x3e
 3543 044a 9D020000 		.4byte	0x29d
 3544 044e 14       		.byte	0x14
 3545 044f 10       		.uleb128 0x10
 3546 0450 840D0000 		.4byte	.LASF115
 3547 0454 06       		.byte	0x6
 3548 0455 3F       		.byte	0x3f
 3549 0456 9D020000 		.4byte	0x29d
 3550 045a 18       		.byte	0x18
 3551 045b 10       		.uleb128 0x10
 3552 045c 1A0C0000 		.4byte	.LASF116
 3553 0460 06       		.byte	0x6
 3554 0461 40       		.byte	0x40
 3555 0462 9D020000 		.4byte	0x29d
 3556 0466 1C       		.byte	0x1c
 3557 0467 10       		.uleb128 0x10
 3558 0468 77100000 		.4byte	.LASF117
 3559 046c 06       		.byte	0x6
 3560 046d 41       		.byte	0x41
 3561 046e 9D020000 		.4byte	0x29d
 3562 0472 20       		.byte	0x20
 3563 0473 00       		.byte	0
 3564 0474 15       		.uleb128 0x15
 3565 0475 C8020000 		.4byte	.LASF118
 3566 0479 0801     		.2byte	0x108
 3567 047b 06       		.byte	0x6
 3568 047c 4A       		.byte	0x4a
 3569 047d B4040000 		.4byte	0x4b4
 3570 0481 10       		.uleb128 0x10
 3571 0482 64050000 		.4byte	.LASF119
 3572 0486 06       		.byte	0x6
 3573 0487 4B       		.byte	0x4b
 3574 0488 B4040000 		.4byte	0x4b4
 3575 048c 00       		.byte	0
 3576 048d 10       		.uleb128 0x10
 3577 048e 00000000 		.4byte	.LASF120
 3578 0492 06       		.byte	0x6
 3579 0493 4C       		.byte	0x4c
 3580 0494 B4040000 		.4byte	0x4b4
 3581 0498 80       		.byte	0x80
 3582 0499 16       		.uleb128 0x16
 3583 049a 980E0000 		.4byte	.LASF121
 3584 049e 06       		.byte	0x6
 3585 049f 4E       		.byte	0x4e
 3586 04a0 87030000 		.4byte	0x387
 3587 04a4 0001     		.2byte	0x100
 3588 04a6 16       		.uleb128 0x16
 3589 04a7 97040000 		.4byte	.LASF122
 3590 04ab 06       		.byte	0x6
 3591 04ac 51       		.byte	0x51
ARM GAS  C:\Users\PCHAUT~1\AppData\Local\Temp\cc7zwTNO.s 			page 64


 3592 04ad 87030000 		.4byte	0x387
 3593 04b1 0401     		.2byte	0x104
 3594 04b3 00       		.byte	0
 3595 04b4 0D       		.uleb128 0xd
 3596 04b5 73030000 		.4byte	0x373
 3597 04b9 C4040000 		.4byte	0x4c4
 3598 04bd 0E       		.uleb128 0xe
 3599 04be 96020000 		.4byte	0x296
 3600 04c2 1F       		.byte	0x1f
 3601 04c3 00       		.byte	0
 3602 04c4 15       		.uleb128 0x15
 3603 04c5 110A0000 		.4byte	.LASF123
 3604 04c9 9001     		.2byte	0x190
 3605 04cb 06       		.byte	0x6
 3606 04cc 5D       		.byte	0x5d
 3607 04cd 02050000 		.4byte	0x502
 3608 04d1 10       		.uleb128 0x10
 3609 04d2 420E0000 		.4byte	.LASF103
 3610 04d6 06       		.byte	0x6
 3611 04d7 5E       		.byte	0x5e
 3612 04d8 02050000 		.4byte	0x502
 3613 04dc 00       		.byte	0
 3614 04dd 10       		.uleb128 0x10
 3615 04de 900C0000 		.4byte	.LASF124
 3616 04e2 06       		.byte	0x6
 3617 04e3 5F       		.byte	0x5f
 3618 04e4 9D020000 		.4byte	0x29d
 3619 04e8 04       		.byte	0x4
 3620 04e9 10       		.uleb128 0x10
 3621 04ea E6050000 		.4byte	.LASF125
 3622 04ee 06       		.byte	0x6
 3623 04ef 61       		.byte	0x61
 3624 04f0 08050000 		.4byte	0x508
 3625 04f4 08       		.byte	0x8
 3626 04f5 10       		.uleb128 0x10
 3627 04f6 C8020000 		.4byte	.LASF118
 3628 04fa 06       		.byte	0x6
 3629 04fb 62       		.byte	0x62
 3630 04fc 74040000 		.4byte	0x474
 3631 0500 88       		.byte	0x88
 3632 0501 00       		.byte	0
 3633 0502 08       		.uleb128 0x8
 3634 0503 04       		.byte	0x4
 3635 0504 C4040000 		.4byte	0x4c4
 3636 0508 0D       		.uleb128 0xd
 3637 0509 18050000 		.4byte	0x518
 3638 050d 18050000 		.4byte	0x518
 3639 0511 0E       		.uleb128 0xe
 3640 0512 96020000 		.4byte	0x296
 3641 0516 1F       		.byte	0x1f
 3642 0517 00       		.byte	0
 3643 0518 08       		.uleb128 0x8
 3644 0519 04       		.byte	0x4
 3645 051a 1E050000 		.4byte	0x51e
 3646 051e 17       		.uleb128 0x17
 3647 051f 13       		.uleb128 0x13
 3648 0520 240C0000 		.4byte	.LASF126
ARM GAS  C:\Users\PCHAUT~1\AppData\Local\Temp\cc7zwTNO.s 			page 65


 3649 0524 08       		.byte	0x8
 3650 0525 06       		.byte	0x6
 3651 0526 75       		.byte	0x75
 3652 0527 44050000 		.4byte	0x544
 3653 052b 10       		.uleb128 0x10
 3654 052c A5020000 		.4byte	.LASF127
 3655 0530 06       		.byte	0x6
 3656 0531 76       		.byte	0x76
 3657 0532 44050000 		.4byte	0x544
 3658 0536 00       		.byte	0
 3659 0537 10       		.uleb128 0x10
 3660 0538 87090000 		.4byte	.LASF128
 3661 053c 06       		.byte	0x6
 3662 053d 77       		.byte	0x77
 3663 053e 9D020000 		.4byte	0x29d
 3664 0542 04       		.byte	0x4
 3665 0543 00       		.byte	0
 3666 0544 08       		.uleb128 0x8
 3667 0545 04       		.byte	0x4
 3668 0546 8D000000 		.4byte	0x8d
 3669 054a 13       		.uleb128 0x13
 3670 054b 430C0000 		.4byte	.LASF129
 3671 054f 68       		.byte	0x68
 3672 0550 06       		.byte	0x6
 3673 0551 B5       		.byte	0xb5
 3674 0552 74060000 		.4byte	0x674
 3675 0556 14       		.uleb128 0x14
 3676 0557 5F7000   		.ascii	"_p\000"
 3677 055a 06       		.byte	0x6
 3678 055b B6       		.byte	0xb6
 3679 055c 44050000 		.4byte	0x544
 3680 0560 00       		.byte	0
 3681 0561 14       		.uleb128 0x14
 3682 0562 5F7200   		.ascii	"_r\000"
 3683 0565 06       		.byte	0x6
 3684 0566 B7       		.byte	0xb7
 3685 0567 9D020000 		.4byte	0x29d
 3686 056b 04       		.byte	0x4
 3687 056c 14       		.uleb128 0x14
 3688 056d 5F7700   		.ascii	"_w\000"
 3689 0570 06       		.byte	0x6
 3690 0571 B8       		.byte	0xb8
 3691 0572 9D020000 		.4byte	0x29d
 3692 0576 08       		.byte	0x8
 3693 0577 10       		.uleb128 0x10
 3694 0578 90040000 		.4byte	.LASF130
 3695 057c 06       		.byte	0x6
 3696 057d B9       		.byte	0xb9
 3697 057e B9020000 		.4byte	0x2b9
 3698 0582 0C       		.byte	0xc
 3699 0583 10       		.uleb128 0x10
 3700 0584 20070000 		.4byte	.LASF131
 3701 0588 06       		.byte	0x6
 3702 0589 BA       		.byte	0xba
 3703 058a B9020000 		.4byte	0x2b9
 3704 058e 0E       		.byte	0xe
 3705 058f 14       		.uleb128 0x14
ARM GAS  C:\Users\PCHAUT~1\AppData\Local\Temp\cc7zwTNO.s 			page 66


 3706 0590 5F626600 		.ascii	"_bf\000"
 3707 0594 06       		.byte	0x6
 3708 0595 BB       		.byte	0xbb
 3709 0596 1F050000 		.4byte	0x51f
 3710 059a 10       		.byte	0x10
 3711 059b 10       		.uleb128 0x10
 3712 059c 080A0000 		.4byte	.LASF132
 3713 05a0 06       		.byte	0x6
 3714 05a1 BC       		.byte	0xbc
 3715 05a2 9D020000 		.4byte	0x29d
 3716 05a6 18       		.byte	0x18
 3717 05a7 10       		.uleb128 0x10
 3718 05a8 05030000 		.4byte	.LASF133
 3719 05ac 06       		.byte	0x6
 3720 05ad C3       		.byte	0xc3
 3721 05ae 73030000 		.4byte	0x373
 3722 05b2 1C       		.byte	0x1c
 3723 05b3 10       		.uleb128 0x10
 3724 05b4 39060000 		.4byte	.LASF134
 3725 05b8 06       		.byte	0x6
 3726 05b9 C5       		.byte	0xc5
 3727 05ba CF070000 		.4byte	0x7cf
 3728 05be 20       		.byte	0x20
 3729 05bf 10       		.uleb128 0x10
 3730 05c0 98080000 		.4byte	.LASF135
 3731 05c4 06       		.byte	0x6
 3732 05c5 C7       		.byte	0xc7
 3733 05c6 F9070000 		.4byte	0x7f9
 3734 05ca 24       		.byte	0x24
 3735 05cb 10       		.uleb128 0x10
 3736 05cc 6E0D0000 		.4byte	.LASF136
 3737 05d0 06       		.byte	0x6
 3738 05d1 CA       		.byte	0xca
 3739 05d2 1D080000 		.4byte	0x81d
 3740 05d6 28       		.byte	0x28
 3741 05d7 10       		.uleb128 0x10
 3742 05d8 91100000 		.4byte	.LASF137
 3743 05dc 06       		.byte	0x6
 3744 05dd CB       		.byte	0xcb
 3745 05de 37080000 		.4byte	0x837
 3746 05e2 2C       		.byte	0x2c
 3747 05e3 14       		.uleb128 0x14
 3748 05e4 5F756200 		.ascii	"_ub\000"
 3749 05e8 06       		.byte	0x6
 3750 05e9 CE       		.byte	0xce
 3751 05ea 1F050000 		.4byte	0x51f
 3752 05ee 30       		.byte	0x30
 3753 05ef 14       		.uleb128 0x14
 3754 05f0 5F757000 		.ascii	"_up\000"
 3755 05f4 06       		.byte	0x6
 3756 05f5 CF       		.byte	0xcf
 3757 05f6 44050000 		.4byte	0x544
 3758 05fa 38       		.byte	0x38
 3759 05fb 14       		.uleb128 0x14
 3760 05fc 5F757200 		.ascii	"_ur\000"
 3761 0600 06       		.byte	0x6
 3762 0601 D0       		.byte	0xd0
ARM GAS  C:\Users\PCHAUT~1\AppData\Local\Temp\cc7zwTNO.s 			page 67


 3763 0602 9D020000 		.4byte	0x29d
 3764 0606 3C       		.byte	0x3c
 3765 0607 10       		.uleb128 0x10
 3766 0608 9F020000 		.4byte	.LASF138
 3767 060c 06       		.byte	0x6
 3768 060d D3       		.byte	0xd3
 3769 060e 3D080000 		.4byte	0x83d
 3770 0612 40       		.byte	0x40
 3771 0613 10       		.uleb128 0x10
 3772 0614 75080000 		.4byte	.LASF139
 3773 0618 06       		.byte	0x6
 3774 0619 D4       		.byte	0xd4
 3775 061a 4D080000 		.4byte	0x84d
 3776 061e 43       		.byte	0x43
 3777 061f 14       		.uleb128 0x14
 3778 0620 5F6C6200 		.ascii	"_lb\000"
 3779 0624 06       		.byte	0x6
 3780 0625 D7       		.byte	0xd7
 3781 0626 1F050000 		.4byte	0x51f
 3782 062a 44       		.byte	0x44
 3783 062b 10       		.uleb128 0x10
 3784 062c A6040000 		.4byte	.LASF140
 3785 0630 06       		.byte	0x6
 3786 0631 DA       		.byte	0xda
 3787 0632 9D020000 		.4byte	0x29d
 3788 0636 4C       		.byte	0x4c
 3789 0637 10       		.uleb128 0x10
 3790 0638 00050000 		.4byte	.LASF141
 3791 063c 06       		.byte	0x6
 3792 063d DB       		.byte	0xdb
 3793 063e EB020000 		.4byte	0x2eb
 3794 0642 50       		.byte	0x50
 3795 0643 10       		.uleb128 0x10
 3796 0644 B5000000 		.4byte	.LASF142
 3797 0648 06       		.byte	0x6
 3798 0649 DE       		.byte	0xde
 3799 064a 92060000 		.4byte	0x692
 3800 064e 54       		.byte	0x54
 3801 064f 10       		.uleb128 0x10
 3802 0650 46080000 		.4byte	.LASF143
 3803 0654 06       		.byte	0x6
 3804 0655 E2       		.byte	0xe2
 3805 0656 68030000 		.4byte	0x368
 3806 065a 58       		.byte	0x58
 3807 065b 10       		.uleb128 0x10
 3808 065c 4B0C0000 		.4byte	.LASF144
 3809 0660 06       		.byte	0x6
 3810 0661 E4       		.byte	0xe4
 3811 0662 5D030000 		.4byte	0x35d
 3812 0666 5C       		.byte	0x5c
 3813 0667 10       		.uleb128 0x10
 3814 0668 4C080000 		.4byte	.LASF145
 3815 066c 06       		.byte	0x6
 3816 066d E5       		.byte	0xe5
 3817 066e 9D020000 		.4byte	0x29d
 3818 0672 64       		.byte	0x64
 3819 0673 00       		.byte	0
ARM GAS  C:\Users\PCHAUT~1\AppData\Local\Temp\cc7zwTNO.s 			page 68


 3820 0674 18       		.uleb128 0x18
 3821 0675 9D020000 		.4byte	0x29d
 3822 0679 92060000 		.4byte	0x692
 3823 067d 19       		.uleb128 0x19
 3824 067e 92060000 		.4byte	0x692
 3825 0682 19       		.uleb128 0x19
 3826 0683 73030000 		.4byte	0x373
 3827 0687 19       		.uleb128 0x19
 3828 0688 75030000 		.4byte	0x375
 3829 068c 19       		.uleb128 0x19
 3830 068d 9D020000 		.4byte	0x29d
 3831 0691 00       		.byte	0
 3832 0692 08       		.uleb128 0x8
 3833 0693 04       		.byte	0x4
 3834 0694 9D060000 		.4byte	0x69d
 3835 0698 12       		.uleb128 0x12
 3836 0699 92060000 		.4byte	0x692
 3837 069d 1A       		.uleb128 0x1a
 3838 069e 030D0000 		.4byte	.LASF146
 3839 06a2 2804     		.2byte	0x428
 3840 06a4 06       		.byte	0x6
 3841 06a5 3902     		.2byte	0x239
 3842 06a7 CF070000 		.4byte	0x7cf
 3843 06ab 1B       		.uleb128 0x1b
 3844 06ac AF0D0000 		.4byte	.LASF147
 3845 06b0 06       		.byte	0x6
 3846 06b1 3B02     		.2byte	0x23b
 3847 06b3 9D020000 		.4byte	0x29d
 3848 06b7 00       		.byte	0
 3849 06b8 1B       		.uleb128 0x1b
 3850 06b9 9F040000 		.4byte	.LASF148
 3851 06bd 06       		.byte	0x6
 3852 06be 4002     		.2byte	0x240
 3853 06c0 A4080000 		.4byte	0x8a4
 3854 06c4 04       		.byte	0x4
 3855 06c5 1B       		.uleb128 0x1b
 3856 06c6 E3060000 		.4byte	.LASF149
 3857 06ca 06       		.byte	0x6
 3858 06cb 4002     		.2byte	0x240
 3859 06cd A4080000 		.4byte	0x8a4
 3860 06d1 08       		.byte	0x8
 3861 06d2 1B       		.uleb128 0x1b
 3862 06d3 1A060000 		.4byte	.LASF150
 3863 06d7 06       		.byte	0x6
 3864 06d8 4002     		.2byte	0x240
 3865 06da A4080000 		.4byte	0x8a4
 3866 06de 0C       		.byte	0xc
 3867 06df 1B       		.uleb128 0x1b
 3868 06e0 8B0C0000 		.4byte	.LASF151
 3869 06e4 06       		.byte	0x6
 3870 06e5 4202     		.2byte	0x242
 3871 06e7 9D020000 		.4byte	0x29d
 3872 06eb 10       		.byte	0x10
 3873 06ec 1B       		.uleb128 0x1b
 3874 06ed 8D000000 		.4byte	.LASF152
 3875 06f1 06       		.byte	0x6
 3876 06f2 4302     		.2byte	0x243
ARM GAS  C:\Users\PCHAUT~1\AppData\Local\Temp\cc7zwTNO.s 			page 69


 3877 06f4 860A0000 		.4byte	0xa86
 3878 06f8 14       		.byte	0x14
 3879 06f9 1B       		.uleb128 0x1b
 3880 06fa E20C0000 		.4byte	.LASF153
 3881 06fe 06       		.byte	0x6
 3882 06ff 4602     		.2byte	0x246
 3883 0701 9D020000 		.4byte	0x29d
 3884 0705 30       		.byte	0x30
 3885 0706 1B       		.uleb128 0x1b
 3886 0707 D00C0000 		.4byte	.LASF154
 3887 070b 06       		.byte	0x6
 3888 070c 4702     		.2byte	0x247
 3889 070e 9B0A0000 		.4byte	0xa9b
 3890 0712 34       		.byte	0x34
 3891 0713 1B       		.uleb128 0x1b
 3892 0714 D6040000 		.4byte	.LASF155
 3893 0718 06       		.byte	0x6
 3894 0719 4902     		.2byte	0x249
 3895 071b 9D020000 		.4byte	0x29d
 3896 071f 38       		.byte	0x38
 3897 0720 1B       		.uleb128 0x1b
 3898 0721 D80C0000 		.4byte	.LASF156
 3899 0725 06       		.byte	0x6
 3900 0726 4B02     		.2byte	0x24b
 3901 0728 AC0A0000 		.4byte	0xaac
 3902 072c 3C       		.byte	0x3c
 3903 072d 1B       		.uleb128 0x1b
 3904 072e F8070000 		.4byte	.LASF157
 3905 0732 06       		.byte	0x6
 3906 0733 4E02     		.2byte	0x24e
 3907 0735 E5030000 		.4byte	0x3e5
 3908 0739 40       		.byte	0x40
 3909 073a 1B       		.uleb128 0x1b
 3910 073b 3F060000 		.4byte	.LASF158
 3911 073f 06       		.byte	0x6
 3912 0740 4F02     		.2byte	0x24f
 3913 0742 9D020000 		.4byte	0x29d
 3914 0746 44       		.byte	0x44
 3915 0747 1B       		.uleb128 0x1b
 3916 0748 CE100000 		.4byte	.LASF159
 3917 074c 06       		.byte	0x6
 3918 074d 5002     		.2byte	0x250
 3919 074f E5030000 		.4byte	0x3e5
 3920 0753 48       		.byte	0x48
 3921 0754 1B       		.uleb128 0x1b
 3922 0755 AF0A0000 		.4byte	.LASF160
 3923 0759 06       		.byte	0x6
 3924 075a 5102     		.2byte	0x251
 3925 075c B20A0000 		.4byte	0xab2
 3926 0760 4C       		.byte	0x4c
 3927 0761 1B       		.uleb128 0x1b
 3928 0762 EB060000 		.4byte	.LASF161
 3929 0766 06       		.byte	0x6
 3930 0767 5402     		.2byte	0x254
 3931 0769 9D020000 		.4byte	0x29d
 3932 076d 50       		.byte	0x50
 3933 076e 1B       		.uleb128 0x1b
ARM GAS  C:\Users\PCHAUT~1\AppData\Local\Temp\cc7zwTNO.s 			page 70


 3934 076f F8040000 		.4byte	.LASF162
 3935 0773 06       		.byte	0x6
 3936 0774 5502     		.2byte	0x255
 3937 0776 75030000 		.4byte	0x375
 3938 077a 54       		.byte	0x54
 3939 077b 1B       		.uleb128 0x1b
 3940 077c 6C0B0000 		.4byte	.LASF163
 3941 0780 06       		.byte	0x6
 3942 0781 7802     		.2byte	0x278
 3943 0783 640A0000 		.4byte	0xa64
 3944 0787 58       		.byte	0x58
 3945 0788 1C       		.uleb128 0x1c
 3946 0789 110A0000 		.4byte	.LASF123
 3947 078d 06       		.byte	0x6
 3948 078e 7C02     		.2byte	0x27c
 3949 0790 02050000 		.4byte	0x502
 3950 0794 4801     		.2byte	0x148
 3951 0796 1C       		.uleb128 0x1c
 3952 0797 98000000 		.4byte	.LASF164
 3953 079b 06       		.byte	0x6
 3954 079c 7D02     		.2byte	0x27d
 3955 079e C4040000 		.4byte	0x4c4
 3956 07a2 4C01     		.2byte	0x14c
 3957 07a4 1C       		.uleb128 0x1c
 3958 07a5 FA0F0000 		.4byte	.LASF165
 3959 07a9 06       		.byte	0x6
 3960 07aa 8102     		.2byte	0x281
 3961 07ac C30A0000 		.4byte	0xac3
 3962 07b0 DC02     		.2byte	0x2dc
 3963 07b2 1C       		.uleb128 0x1c
 3964 07b3 23030000 		.4byte	.LASF166
 3965 07b7 06       		.byte	0x6
 3966 07b8 8602     		.2byte	0x286
 3967 07ba 69080000 		.4byte	0x869
 3968 07be E002     		.2byte	0x2e0
 3969 07c0 1C       		.uleb128 0x1c
 3970 07c1 C3020000 		.4byte	.LASF167
 3971 07c5 06       		.byte	0x6
 3972 07c6 8802     		.2byte	0x288
 3973 07c8 CF0A0000 		.4byte	0xacf
 3974 07cc EC02     		.2byte	0x2ec
 3975 07ce 00       		.byte	0
 3976 07cf 08       		.uleb128 0x8
 3977 07d0 04       		.byte	0x4
 3978 07d1 74060000 		.4byte	0x674
 3979 07d5 18       		.uleb128 0x18
 3980 07d6 9D020000 		.4byte	0x29d
 3981 07da F3070000 		.4byte	0x7f3
 3982 07de 19       		.uleb128 0x19
 3983 07df 92060000 		.4byte	0x692
 3984 07e3 19       		.uleb128 0x19
 3985 07e4 73030000 		.4byte	0x373
 3986 07e8 19       		.uleb128 0x19
 3987 07e9 F3070000 		.4byte	0x7f3
 3988 07ed 19       		.uleb128 0x19
 3989 07ee 9D020000 		.4byte	0x29d
 3990 07f2 00       		.byte	0
ARM GAS  C:\Users\PCHAUT~1\AppData\Local\Temp\cc7zwTNO.s 			page 71


 3991 07f3 08       		.uleb128 0x8
 3992 07f4 04       		.byte	0x4
 3993 07f5 82030000 		.4byte	0x382
 3994 07f9 08       		.uleb128 0x8
 3995 07fa 04       		.byte	0x4
 3996 07fb D5070000 		.4byte	0x7d5
 3997 07ff 18       		.uleb128 0x18
 3998 0800 F6020000 		.4byte	0x2f6
 3999 0804 1D080000 		.4byte	0x81d
 4000 0808 19       		.uleb128 0x19
 4001 0809 92060000 		.4byte	0x692
 4002 080d 19       		.uleb128 0x19
 4003 080e 73030000 		.4byte	0x373
 4004 0812 19       		.uleb128 0x19
 4005 0813 F6020000 		.4byte	0x2f6
 4006 0817 19       		.uleb128 0x19
 4007 0818 9D020000 		.4byte	0x29d
 4008 081c 00       		.byte	0
 4009 081d 08       		.uleb128 0x8
 4010 081e 04       		.byte	0x4
 4011 081f FF070000 		.4byte	0x7ff
 4012 0823 18       		.uleb128 0x18
 4013 0824 9D020000 		.4byte	0x29d
 4014 0828 37080000 		.4byte	0x837
 4015 082c 19       		.uleb128 0x19
 4016 082d 92060000 		.4byte	0x692
 4017 0831 19       		.uleb128 0x19
 4018 0832 73030000 		.4byte	0x373
 4019 0836 00       		.byte	0
 4020 0837 08       		.uleb128 0x8
 4021 0838 04       		.byte	0x4
 4022 0839 23080000 		.4byte	0x823
 4023 083d 0D       		.uleb128 0xd
 4024 083e 8D000000 		.4byte	0x8d
 4025 0842 4D080000 		.4byte	0x84d
 4026 0846 0E       		.uleb128 0xe
 4027 0847 96020000 		.4byte	0x296
 4028 084b 02       		.byte	0x2
 4029 084c 00       		.byte	0
 4030 084d 0D       		.uleb128 0xd
 4031 084e 8D000000 		.4byte	0x8d
 4032 0852 5D080000 		.4byte	0x85d
 4033 0856 0E       		.uleb128 0xe
 4034 0857 96020000 		.4byte	0x296
 4035 085b 00       		.byte	0
 4036 085c 00       		.byte	0
 4037 085d 0A       		.uleb128 0xa
 4038 085e 310C0000 		.4byte	.LASF168
 4039 0862 06       		.byte	0x6
 4040 0863 1F01     		.2byte	0x11f
 4041 0865 4A050000 		.4byte	0x54a
 4042 0869 1D       		.uleb128 0x1d
 4043 086a 910F0000 		.4byte	.LASF169
 4044 086e 0C       		.byte	0xc
 4045 086f 06       		.byte	0x6
 4046 0870 2301     		.2byte	0x123
 4047 0872 9E080000 		.4byte	0x89e
ARM GAS  C:\Users\PCHAUT~1\AppData\Local\Temp\cc7zwTNO.s 			page 72


 4048 0876 1B       		.uleb128 0x1b
 4049 0877 420E0000 		.4byte	.LASF103
 4050 087b 06       		.byte	0x6
 4051 087c 2501     		.2byte	0x125
 4052 087e 9E080000 		.4byte	0x89e
 4053 0882 00       		.byte	0
 4054 0883 1B       		.uleb128 0x1b
 4055 0884 73070000 		.4byte	.LASF170
 4056 0888 06       		.byte	0x6
 4057 0889 2601     		.2byte	0x126
 4058 088b 9D020000 		.4byte	0x29d
 4059 088f 04       		.byte	0x4
 4060 0890 1B       		.uleb128 0x1b
 4061 0891 2B0C0000 		.4byte	.LASF171
 4062 0895 06       		.byte	0x6
 4063 0896 2701     		.2byte	0x127
 4064 0898 A4080000 		.4byte	0x8a4
 4065 089c 08       		.byte	0x8
 4066 089d 00       		.byte	0
 4067 089e 08       		.uleb128 0x8
 4068 089f 04       		.byte	0x4
 4069 08a0 69080000 		.4byte	0x869
 4070 08a4 08       		.uleb128 0x8
 4071 08a5 04       		.byte	0x4
 4072 08a6 5D080000 		.4byte	0x85d
 4073 08aa 1D       		.uleb128 0x1d
 4074 08ab 85000000 		.4byte	.LASF172
 4075 08af 0E       		.byte	0xe
 4076 08b0 06       		.byte	0x6
 4077 08b1 3F01     		.2byte	0x13f
 4078 08b3 DF080000 		.4byte	0x8df
 4079 08b7 1B       		.uleb128 0x1b
 4080 08b8 1E0D0000 		.4byte	.LASF173
 4081 08bc 06       		.byte	0x6
 4082 08bd 4001     		.2byte	0x140
 4083 08bf DF080000 		.4byte	0x8df
 4084 08c3 00       		.byte	0
 4085 08c4 1B       		.uleb128 0x1b
 4086 08c5 3C0E0000 		.4byte	.LASF174
 4087 08c9 06       		.byte	0x6
 4088 08ca 4101     		.2byte	0x141
 4089 08cc DF080000 		.4byte	0x8df
 4090 08d0 06       		.byte	0x6
 4091 08d1 1B       		.uleb128 0x1b
 4092 08d2 AD0E0000 		.4byte	.LASF175
 4093 08d6 06       		.byte	0x6
 4094 08d7 4201     		.2byte	0x142
 4095 08d9 70010000 		.4byte	0x170
 4096 08dd 0C       		.byte	0xc
 4097 08de 00       		.byte	0
 4098 08df 0D       		.uleb128 0xd
 4099 08e0 70010000 		.4byte	0x170
 4100 08e4 EF080000 		.4byte	0x8ef
 4101 08e8 0E       		.uleb128 0xe
 4102 08e9 96020000 		.4byte	0x296
 4103 08ed 02       		.byte	0x2
 4104 08ee 00       		.byte	0
ARM GAS  C:\Users\PCHAUT~1\AppData\Local\Temp\cc7zwTNO.s 			page 73


 4105 08ef 1E       		.uleb128 0x1e
 4106 08f0 D0       		.byte	0xd0
 4107 08f1 06       		.byte	0x6
 4108 08f2 5902     		.2byte	0x259
 4109 08f4 F0090000 		.4byte	0x9f0
 4110 08f8 1B       		.uleb128 0x1b
 4111 08f9 280F0000 		.4byte	.LASF176
 4112 08fd 06       		.byte	0x6
 4113 08fe 5B02     		.2byte	0x25b
 4114 0900 96020000 		.4byte	0x296
 4115 0904 00       		.byte	0
 4116 0905 1B       		.uleb128 0x1b
 4117 0906 49050000 		.4byte	.LASF177
 4118 090a 06       		.byte	0x6
 4119 090b 5C02     		.2byte	0x25c
 4120 090d 75030000 		.4byte	0x375
 4121 0911 04       		.byte	0x4
 4122 0912 1B       		.uleb128 0x1b
 4123 0913 C7070000 		.4byte	.LASF178
 4124 0917 06       		.byte	0x6
 4125 0918 5D02     		.2byte	0x25d
 4126 091a F0090000 		.4byte	0x9f0
 4127 091e 08       		.byte	0x8
 4128 091f 1B       		.uleb128 0x1b
 4129 0920 82100000 		.4byte	.LASF179
 4130 0924 06       		.byte	0x6
 4131 0925 5E02     		.2byte	0x25e
 4132 0927 FB030000 		.4byte	0x3fb
 4133 092b 24       		.byte	0x24
 4134 092c 1B       		.uleb128 0x1b
 4135 092d 2A060000 		.4byte	.LASF180
 4136 0931 06       		.byte	0x6
 4137 0932 5F02     		.2byte	0x25f
 4138 0934 9D020000 		.4byte	0x29d
 4139 0938 48       		.byte	0x48
 4140 0939 1B       		.uleb128 0x1b
 4141 093a 540C0000 		.4byte	.LASF181
 4142 093e 06       		.byte	0x6
 4143 093f 6002     		.2byte	0x260
 4144 0941 CE020000 		.4byte	0x2ce
 4145 0945 50       		.byte	0x50
 4146 0946 1B       		.uleb128 0x1b
 4147 0947 B5100000 		.4byte	.LASF182
 4148 094b 06       		.byte	0x6
 4149 094c 6102     		.2byte	0x261
 4150 094e AA080000 		.4byte	0x8aa
 4151 0952 58       		.byte	0x58
 4152 0953 1B       		.uleb128 0x1b
 4153 0954 7E0C0000 		.4byte	.LASF183
 4154 0958 06       		.byte	0x6
 4155 0959 6202     		.2byte	0x262
 4156 095b 5D030000 		.4byte	0x35d
 4157 095f 68       		.byte	0x68
 4158 0960 1B       		.uleb128 0x1b
 4159 0961 C0100000 		.4byte	.LASF184
 4160 0965 06       		.byte	0x6
 4161 0966 6302     		.2byte	0x263
ARM GAS  C:\Users\PCHAUT~1\AppData\Local\Temp\cc7zwTNO.s 			page 74


 4162 0968 5D030000 		.4byte	0x35d
 4163 096c 70       		.byte	0x70
 4164 096d 1B       		.uleb128 0x1b
 4165 096e EB0A0000 		.4byte	.LASF185
 4166 0972 06       		.byte	0x6
 4167 0973 6402     		.2byte	0x264
 4168 0975 5D030000 		.4byte	0x35d
 4169 0979 78       		.byte	0x78
 4170 097a 1B       		.uleb128 0x1b
 4171 097b DC0F0000 		.4byte	.LASF186
 4172 097f 06       		.byte	0x6
 4173 0980 6502     		.2byte	0x265
 4174 0982 000A0000 		.4byte	0xa00
 4175 0986 80       		.byte	0x80
 4176 0987 1B       		.uleb128 0x1b
 4177 0988 BB070000 		.4byte	.LASF187
 4178 098c 06       		.byte	0x6
 4179 098d 6602     		.2byte	0x266
 4180 098f 100A0000 		.4byte	0xa10
 4181 0993 88       		.byte	0x88
 4182 0994 1B       		.uleb128 0x1b
 4183 0995 BA0E0000 		.4byte	.LASF188
 4184 0999 06       		.byte	0x6
 4185 099a 6702     		.2byte	0x267
 4186 099c 9D020000 		.4byte	0x29d
 4187 09a0 A0       		.byte	0xa0
 4188 09a1 1B       		.uleb128 0x1b
 4189 09a2 56050000 		.4byte	.LASF189
 4190 09a6 06       		.byte	0x6
 4191 09a7 6802     		.2byte	0x268
 4192 09a9 5D030000 		.4byte	0x35d
 4193 09ad A4       		.byte	0xa4
 4194 09ae 1B       		.uleb128 0x1b
 4195 09af E6010000 		.4byte	.LASF190
 4196 09b3 06       		.byte	0x6
 4197 09b4 6902     		.2byte	0x269
 4198 09b6 5D030000 		.4byte	0x35d
 4199 09ba AC       		.byte	0xac
 4200 09bb 1B       		.uleb128 0x1b
 4201 09bc 6C050000 		.4byte	.LASF191
 4202 09c0 06       		.byte	0x6
 4203 09c1 6A02     		.2byte	0x26a
 4204 09c3 5D030000 		.4byte	0x35d
 4205 09c7 B4       		.byte	0xb4
 4206 09c8 1B       		.uleb128 0x1b
 4207 09c9 E9000000 		.4byte	.LASF192
 4208 09cd 06       		.byte	0x6
 4209 09ce 6B02     		.2byte	0x26b
 4210 09d0 5D030000 		.4byte	0x35d
 4211 09d4 BC       		.byte	0xbc
 4212 09d5 1B       		.uleb128 0x1b
 4213 09d6 AA060000 		.4byte	.LASF193
 4214 09da 06       		.byte	0x6
 4215 09db 6C02     		.2byte	0x26c
 4216 09dd 5D030000 		.4byte	0x35d
 4217 09e1 C4       		.byte	0xc4
 4218 09e2 1B       		.uleb128 0x1b
ARM GAS  C:\Users\PCHAUT~1\AppData\Local\Temp\cc7zwTNO.s 			page 75


 4219 09e3 070C0000 		.4byte	.LASF194
 4220 09e7 06       		.byte	0x6
 4221 09e8 6D02     		.2byte	0x26d
 4222 09ea 9D020000 		.4byte	0x29d
 4223 09ee CC       		.byte	0xcc
 4224 09ef 00       		.byte	0
 4225 09f0 0D       		.uleb128 0xd
 4226 09f1 7B030000 		.4byte	0x37b
 4227 09f5 000A0000 		.4byte	0xa00
 4228 09f9 0E       		.uleb128 0xe
 4229 09fa 96020000 		.4byte	0x296
 4230 09fe 19       		.byte	0x19
 4231 09ff 00       		.byte	0
 4232 0a00 0D       		.uleb128 0xd
 4233 0a01 7B030000 		.4byte	0x37b
 4234 0a05 100A0000 		.4byte	0xa10
 4235 0a09 0E       		.uleb128 0xe
 4236 0a0a 96020000 		.4byte	0x296
 4237 0a0e 07       		.byte	0x7
 4238 0a0f 00       		.byte	0
 4239 0a10 0D       		.uleb128 0xd
 4240 0a11 7B030000 		.4byte	0x37b
 4241 0a15 200A0000 		.4byte	0xa20
 4242 0a19 0E       		.uleb128 0xe
 4243 0a1a 96020000 		.4byte	0x296
 4244 0a1e 17       		.byte	0x17
 4245 0a1f 00       		.byte	0
 4246 0a20 1E       		.uleb128 0x1e
 4247 0a21 F0       		.byte	0xf0
 4248 0a22 06       		.byte	0x6
 4249 0a23 7202     		.2byte	0x272
 4250 0a25 440A0000 		.4byte	0xa44
 4251 0a29 1B       		.uleb128 0x1b
 4252 0a2a CA090000 		.4byte	.LASF195
 4253 0a2e 06       		.byte	0x6
 4254 0a2f 7502     		.2byte	0x275
 4255 0a31 440A0000 		.4byte	0xa44
 4256 0a35 00       		.byte	0
 4257 0a36 1B       		.uleb128 0x1b
 4258 0a37 0C090000 		.4byte	.LASF196
 4259 0a3b 06       		.byte	0x6
 4260 0a3c 7602     		.2byte	0x276
 4261 0a3e 540A0000 		.4byte	0xa54
 4262 0a42 78       		.byte	0x78
 4263 0a43 00       		.byte	0
 4264 0a44 0D       		.uleb128 0xd
 4265 0a45 44050000 		.4byte	0x544
 4266 0a49 540A0000 		.4byte	0xa54
 4267 0a4d 0E       		.uleb128 0xe
 4268 0a4e 96020000 		.4byte	0x296
 4269 0a52 1D       		.byte	0x1d
 4270 0a53 00       		.byte	0
 4271 0a54 0D       		.uleb128 0xd
 4272 0a55 96020000 		.4byte	0x296
 4273 0a59 640A0000 		.4byte	0xa64
 4274 0a5d 0E       		.uleb128 0xe
 4275 0a5e 96020000 		.4byte	0x296
ARM GAS  C:\Users\PCHAUT~1\AppData\Local\Temp\cc7zwTNO.s 			page 76


 4276 0a62 1D       		.byte	0x1d
 4277 0a63 00       		.byte	0
 4278 0a64 1F       		.uleb128 0x1f
 4279 0a65 F0       		.byte	0xf0
 4280 0a66 06       		.byte	0x6
 4281 0a67 5702     		.2byte	0x257
 4282 0a69 860A0000 		.4byte	0xa86
 4283 0a6d 20       		.uleb128 0x20
 4284 0a6e 030D0000 		.4byte	.LASF146
 4285 0a72 06       		.byte	0x6
 4286 0a73 6E02     		.2byte	0x26e
 4287 0a75 EF080000 		.4byte	0x8ef
 4288 0a79 20       		.uleb128 0x20
 4289 0a7a 46100000 		.4byte	.LASF197
 4290 0a7e 06       		.byte	0x6
 4291 0a7f 7702     		.2byte	0x277
 4292 0a81 200A0000 		.4byte	0xa20
 4293 0a85 00       		.byte	0
 4294 0a86 0D       		.uleb128 0xd
 4295 0a87 7B030000 		.4byte	0x37b
 4296 0a8b 960A0000 		.4byte	0xa96
 4297 0a8f 0E       		.uleb128 0xe
 4298 0a90 96020000 		.4byte	0x296
 4299 0a94 18       		.byte	0x18
 4300 0a95 00       		.byte	0
 4301 0a96 09       		.uleb128 0x9
 4302 0a97 8F010000 		.4byte	.LASF199
 4303 0a9b 08       		.uleb128 0x8
 4304 0a9c 04       		.byte	0x4
 4305 0a9d 960A0000 		.4byte	0xa96
 4306 0aa1 21       		.uleb128 0x21
 4307 0aa2 AC0A0000 		.4byte	0xaac
 4308 0aa6 19       		.uleb128 0x19
 4309 0aa7 92060000 		.4byte	0x692
 4310 0aab 00       		.byte	0
 4311 0aac 08       		.uleb128 0x8
 4312 0aad 04       		.byte	0x4
 4313 0aae A10A0000 		.4byte	0xaa1
 4314 0ab2 08       		.uleb128 0x8
 4315 0ab3 04       		.byte	0x4
 4316 0ab4 E5030000 		.4byte	0x3e5
 4317 0ab8 21       		.uleb128 0x21
 4318 0ab9 C30A0000 		.4byte	0xac3
 4319 0abd 19       		.uleb128 0x19
 4320 0abe 9D020000 		.4byte	0x29d
 4321 0ac2 00       		.byte	0
 4322 0ac3 08       		.uleb128 0x8
 4323 0ac4 04       		.byte	0x4
 4324 0ac5 C90A0000 		.4byte	0xac9
 4325 0ac9 08       		.uleb128 0x8
 4326 0aca 04       		.byte	0x4
 4327 0acb B80A0000 		.4byte	0xab8
 4328 0acf 0D       		.uleb128 0xd
 4329 0ad0 5D080000 		.4byte	0x85d
 4330 0ad4 DF0A0000 		.4byte	0xadf
 4331 0ad8 0E       		.uleb128 0xe
 4332 0ad9 96020000 		.4byte	0x296
ARM GAS  C:\Users\PCHAUT~1\AppData\Local\Temp\cc7zwTNO.s 			page 77


 4333 0add 02       		.byte	0x2
 4334 0ade 00       		.byte	0
 4335 0adf 22       		.uleb128 0x22
 4336 0ae0 34030000 		.4byte	.LASF200
 4337 0ae4 06       		.byte	0x6
 4338 0ae5 0703     		.2byte	0x307
 4339 0ae7 92060000 		.4byte	0x692
 4340 0aeb 22       		.uleb128 0x22
 4341 0aec EF0E0000 		.4byte	.LASF201
 4342 0af0 06       		.byte	0x6
 4343 0af1 0803     		.2byte	0x308
 4344 0af3 98060000 		.4byte	0x698
 4345 0af7 23       		.uleb128 0x23
 4346 0af8 190A0000 		.4byte	.LASF202
 4347 0afc 07       		.byte	0x7
 4348 0afd 63       		.byte	0x63
 4349 0afe 75030000 		.4byte	0x375
 4350 0b02 07       		.uleb128 0x7
 4351 0b03 91080000 		.4byte	.LASF203
 4352 0b07 08       		.byte	0x8
 4353 0b08 23       		.byte	0x23
 4354 0b09 B9020000 		.4byte	0x2b9
 4355 0b0d 07       		.uleb128 0x7
 4356 0b0e 19000000 		.4byte	.LASF204
 4357 0b12 08       		.byte	0x8
 4358 0b13 24       		.byte	0x24
 4359 0b14 70010000 		.4byte	0x170
 4360 0b18 12       		.uleb128 0x12
 4361 0b19 0D0B0000 		.4byte	0xb0d
 4362 0b1d 07       		.uleb128 0x7
 4363 0b1e AF040000 		.4byte	.LASF205
 4364 0b22 08       		.byte	0x8
 4365 0b23 26       		.byte	0x26
 4366 0b24 8D000000 		.4byte	0x8d
 4367 0b28 12       		.uleb128 0x12
 4368 0b29 1D0B0000 		.4byte	0xb1d
 4369 0b2d 02       		.uleb128 0x2
 4370 0b2e 07       		.byte	0x7
 4371 0b2f 01       		.byte	0x1
 4372 0b30 8D000000 		.4byte	0x8d
 4373 0b34 09       		.byte	0x9
 4374 0b35 37       		.byte	0x37
 4375 0b36 410B0000 		.4byte	0xb41
 4376 0b3a 03       		.uleb128 0x3
 4377 0b3b 0D030000 		.4byte	.LASF206
 4378 0b3f 10       		.byte	0x10
 4379 0b40 00       		.byte	0
 4380 0b41 0F       		.uleb128 0xf
 4381 0b42 40       		.byte	0x40
 4382 0b43 09       		.byte	0x9
 4383 0b44 45       		.byte	0x45
 4384 0b45 D80B0000 		.4byte	0xbd8
 4385 0b49 10       		.uleb128 0x10
 4386 0b4a EB050000 		.4byte	.LASF207
 4387 0b4e 09       		.byte	0x9
 4388 0b4f 48       		.byte	0x48
 4389 0b50 0D0B0000 		.4byte	0xb0d
ARM GAS  C:\Users\PCHAUT~1\AppData\Local\Temp\cc7zwTNO.s 			page 78


 4390 0b54 00       		.byte	0
 4391 0b55 10       		.uleb128 0x10
 4392 0b56 0C000000 		.4byte	.LASF208
 4393 0b5a 09       		.byte	0x9
 4394 0b5b 4B       		.byte	0x4b
 4395 0b5c 0D0B0000 		.4byte	0xb0d
 4396 0b60 02       		.byte	0x2
 4397 0b61 10       		.uleb128 0x10
 4398 0b62 6C080000 		.4byte	.LASF209
 4399 0b66 09       		.byte	0x9
 4400 0b67 4C       		.byte	0x4c
 4401 0b68 D80B0000 		.4byte	0xbd8
 4402 0b6c 04       		.byte	0x4
 4403 0b6d 10       		.uleb128 0x10
 4404 0b6e 2C010000 		.4byte	.LASF210
 4405 0b72 09       		.byte	0x9
 4406 0b73 4F       		.byte	0x4f
 4407 0b74 0D0B0000 		.4byte	0xb0d
 4408 0b78 08       		.byte	0x8
 4409 0b79 10       		.uleb128 0x10
 4410 0b7a 7B000000 		.4byte	.LASF211
 4411 0b7e 09       		.byte	0x9
 4412 0b7f 50       		.byte	0x50
 4413 0b80 DE0B0000 		.4byte	0xbde
 4414 0b84 0C       		.byte	0xc
 4415 0b85 10       		.uleb128 0x10
 4416 0b86 CC0D0000 		.4byte	.LASF212
 4417 0b8a 09       		.byte	0x9
 4418 0b8b 53       		.byte	0x53
 4419 0b8c 0D0B0000 		.4byte	0xb0d
 4420 0b90 10       		.byte	0x10
 4421 0b91 10       		.uleb128 0x10
 4422 0b92 04100000 		.4byte	.LASF213
 4423 0b96 09       		.byte	0x9
 4424 0b97 54       		.byte	0x54
 4425 0b98 DE0B0000 		.4byte	0xbde
 4426 0b9c 14       		.byte	0x14
 4427 0b9d 10       		.uleb128 0x10
 4428 0b9e E60F0000 		.4byte	.LASF214
 4429 0ba2 09       		.byte	0x9
 4430 0ba3 57       		.byte	0x57
 4431 0ba4 0D0B0000 		.4byte	0xb0d
 4432 0ba8 18       		.byte	0x18
 4433 0ba9 14       		.uleb128 0x14
 4434 0baa 706300   		.ascii	"pc\000"
 4435 0bad 09       		.byte	0x9
 4436 0bae 58       		.byte	0x58
 4437 0baf 0D0B0000 		.4byte	0xb0d
 4438 0bb3 1A       		.byte	0x1a
 4439 0bb4 14       		.uleb128 0x14
 4440 0bb5 737000   		.ascii	"sp\000"
 4441 0bb8 09       		.byte	0x9
 4442 0bb9 59       		.byte	0x59
 4443 0bba 020B0000 		.4byte	0xb02
 4444 0bbe 1C       		.byte	0x1c
 4445 0bbf 10       		.uleb128 0x10
 4446 0bc0 84040000 		.4byte	.LASF215
ARM GAS  C:\Users\PCHAUT~1\AppData\Local\Temp\cc7zwTNO.s 			page 79


 4447 0bc4 09       		.byte	0x9
 4448 0bc5 5C       		.byte	0x5c
 4449 0bc6 E40B0000 		.4byte	0xbe4
 4450 0bca 1E       		.byte	0x1e
 4451 0bcb 10       		.uleb128 0x10
 4452 0bcc F90A0000 		.4byte	.LASF216
 4453 0bd0 09       		.byte	0x9
 4454 0bd1 5D       		.byte	0x5d
 4455 0bd2 0D0B0000 		.4byte	0xb0d
 4456 0bd6 3E       		.byte	0x3e
 4457 0bd7 00       		.byte	0
 4458 0bd8 08       		.uleb128 0x8
 4459 0bd9 04       		.byte	0x4
 4460 0bda 0D0B0000 		.4byte	0xb0d
 4461 0bde 08       		.uleb128 0x8
 4462 0bdf 04       		.byte	0x4
 4463 0be0 020B0000 		.4byte	0xb02
 4464 0be4 0D       		.uleb128 0xd
 4465 0be5 0D0B0000 		.4byte	0xb0d
 4466 0be9 F40B0000 		.4byte	0xbf4
 4467 0bed 0E       		.uleb128 0xe
 4468 0bee 96020000 		.4byte	0x296
 4469 0bf2 0F       		.byte	0xf
 4470 0bf3 00       		.byte	0
 4471 0bf4 07       		.uleb128 0x7
 4472 0bf5 2F090000 		.4byte	.LASF217
 4473 0bf9 09       		.byte	0x9
 4474 0bfa 5E       		.byte	0x5e
 4475 0bfb 410B0000 		.4byte	0xb41
 4476 0bff 24       		.uleb128 0x24
 4477 0c00 9A010000 		.4byte	.LASF230
 4478 0c04 01       		.byte	0x1
 4479 0c05 7303     		.2byte	0x373
 4480 0c07 0D0B0000 		.4byte	0xb0d
 4481 0c0b 00000000 		.4byte	.LFB17
 4482 0c0f A0000000 		.4byte	.LFE17-.LFB17
 4483 0c13 01       		.uleb128 0x1
 4484 0c14 9C       		.byte	0x9c
 4485 0c15 6E0C0000 		.4byte	0xc6e
 4486 0c19 25       		.uleb128 0x25
 4487 0c1a 766D00   		.ascii	"vm\000"
 4488 0c1d 01       		.byte	0x1
 4489 0c1e 7303     		.2byte	0x373
 4490 0c20 6E0C0000 		.4byte	0xc6e
 4491 0c24 02       		.uleb128 0x2
 4492 0c25 91       		.byte	0x91
 4493 0c26 6C       		.sleb128 -20
 4494 0c27 26       		.uleb128 0x26
 4495 0c28 28090000 		.4byte	.LASF218
 4496 0c2c 01       		.byte	0x1
 4497 0c2d 7303     		.2byte	0x373
 4498 0c2f 0D0B0000 		.4byte	0xb0d
 4499 0c33 02       		.uleb128 0x2
 4500 0c34 91       		.byte	0x91
 4501 0c35 6A       		.sleb128 -22
 4502 0c36 26       		.uleb128 0x26
 4503 0c37 7E010000 		.4byte	.LASF219
ARM GAS  C:\Users\PCHAUT~1\AppData\Local\Temp\cc7zwTNO.s 			page 80


 4504 0c3b 01       		.byte	0x1
 4505 0c3c 7303     		.2byte	0x373
 4506 0c3e 740C0000 		.4byte	0xc74
 4507 0c42 02       		.uleb128 0x2
 4508 0c43 91       		.byte	0x91
 4509 0c44 64       		.sleb128 -28
 4510 0c45 27       		.uleb128 0x27
 4511 0c46 D4070000 		.4byte	.LASF220
 4512 0c4a 01       		.byte	0x1
 4513 0c4b 7603     		.2byte	0x376
 4514 0c4d 0D0B0000 		.4byte	0xb0d
 4515 0c51 02       		.uleb128 0x2
 4516 0c52 91       		.byte	0x91
 4517 0c53 70       		.sleb128 -16
 4518 0c54 28       		.uleb128 0x28
 4519 0c55 4A000000 		.4byte	.LBB28
 4520 0c59 38000000 		.4byte	.LBE28-.LBB28
 4521 0c5d 27       		.uleb128 0x27
 4522 0c5e 230A0000 		.4byte	.LASF221
 4523 0c62 01       		.byte	0x1
 4524 0c63 7F03     		.2byte	0x37f
 4525 0c65 0D0B0000 		.4byte	0xb0d
 4526 0c69 02       		.uleb128 0x2
 4527 0c6a 91       		.byte	0x91
 4528 0c6b 72       		.sleb128 -14
 4529 0c6c 00       		.byte	0
 4530 0c6d 00       		.byte	0
 4531 0c6e 08       		.uleb128 0x8
 4532 0c6f 04       		.byte	0x4
 4533 0c70 F40B0000 		.4byte	0xbf4
 4534 0c74 08       		.uleb128 0x8
 4535 0c75 04       		.byte	0x4
 4536 0c76 280B0000 		.4byte	0xb28
 4537 0c7a 29       		.uleb128 0x29
 4538 0c7b A1000000 		.4byte	.LASF227
 4539 0c7f 01       		.byte	0x1
 4540 0c80 DE02     		.2byte	0x2de
 4541 0c82 00000000 		.4byte	.LFB16
 4542 0c86 E8020000 		.4byte	.LFE16-.LFB16
 4543 0c8a 01       		.uleb128 0x1
 4544 0c8b 9C       		.byte	0x9c
 4545 0c8c B80D0000 		.4byte	0xdb8
 4546 0c90 25       		.uleb128 0x25
 4547 0c91 766D00   		.ascii	"vm\000"
 4548 0c94 01       		.byte	0x1
 4549 0c95 DE02     		.2byte	0x2de
 4550 0c97 6E0C0000 		.4byte	0xc6e
 4551 0c9b 02       		.uleb128 0x2
 4552 0c9c 91       		.byte	0x91
 4553 0c9d 54       		.sleb128 -44
 4554 0c9e 25       		.uleb128 0x25
 4555 0c9f 696400   		.ascii	"id\000"
 4556 0ca2 01       		.byte	0x1
 4557 0ca3 DE02     		.2byte	0x2de
 4558 0ca5 0D0B0000 		.4byte	0xb0d
 4559 0ca9 02       		.uleb128 0x2
 4560 0caa 91       		.byte	0x91
ARM GAS  C:\Users\PCHAUT~1\AppData\Local\Temp\cc7zwTNO.s 			page 81


 4561 0cab 52       		.sleb128 -46
 4562 0cac 26       		.uleb128 0x26
 4563 0cad 7E010000 		.4byte	.LASF219
 4564 0cb1 01       		.byte	0x1
 4565 0cb2 DE02     		.2byte	0x2de
 4566 0cb4 D80B0000 		.4byte	0xbd8
 4567 0cb8 02       		.uleb128 0x2
 4568 0cb9 91       		.byte	0x91
 4569 0cba 4C       		.sleb128 -52
 4570 0cbb 26       		.uleb128 0x26
 4571 0cbc 22050000 		.4byte	.LASF222
 4572 0cc0 01       		.byte	0x1
 4573 0cc1 DE02     		.2byte	0x2de
 4574 0cc3 0D0B0000 		.4byte	0xb0d
 4575 0cc7 02       		.uleb128 0x2
 4576 0cc8 91       		.byte	0x91
 4577 0cc9 50       		.sleb128 -48
 4578 0cca 2A       		.uleb128 0x2a
 4579 0ccb 60000000 		.4byte	.Ldebug_ranges0+0x60
 4580 0ccf E30C0000 		.4byte	0xce3
 4581 0cd3 27       		.uleb128 0x27
 4582 0cd4 F5010000 		.4byte	.LASF223
 4583 0cd8 01       		.byte	0x1
 4584 0cd9 E302     		.2byte	0x2e3
 4585 0cdb 180B0000 		.4byte	0xb18
 4586 0cdf 02       		.uleb128 0x2
 4587 0ce0 91       		.byte	0x91
 4588 0ce1 6E       		.sleb128 -18
 4589 0ce2 00       		.byte	0
 4590 0ce3 2B       		.uleb128 0x2b
 4591 0ce4 4C000000 		.4byte	.LBB22
 4592 0ce8 18000000 		.4byte	.LBE22-.LBB22
 4593 0cec 000D0000 		.4byte	0xd00
 4594 0cf0 27       		.uleb128 0x27
 4595 0cf1 F5010000 		.4byte	.LASF223
 4596 0cf5 01       		.byte	0x1
 4597 0cf6 EC02     		.2byte	0x2ec
 4598 0cf8 180B0000 		.4byte	0xb18
 4599 0cfc 02       		.uleb128 0x2
 4600 0cfd 91       		.byte	0x91
 4601 0cfe 5C       		.sleb128 -36
 4602 0cff 00       		.byte	0
 4603 0d00 2B       		.uleb128 0x2b
 4604 0d01 E4000000 		.4byte	.LBB23
 4605 0d05 52000000 		.4byte	.LBE23-.LBB23
 4606 0d09 390D0000 		.4byte	0xd39
 4607 0d0d 27       		.uleb128 0x27
 4608 0d0e BA100000 		.4byte	.LASF224
 4609 0d12 01       		.byte	0x1
 4610 0d13 0003     		.2byte	0x300
 4611 0d15 0D0B0000 		.4byte	0xb0d
 4612 0d19 02       		.uleb128 0x2
 4613 0d1a 91       		.byte	0x91
 4614 0d1b 6A       		.sleb128 -22
 4615 0d1c 27       		.uleb128 0x27
 4616 0d1d 0A100000 		.4byte	.LASF225
 4617 0d21 01       		.byte	0x1
ARM GAS  C:\Users\PCHAUT~1\AppData\Local\Temp\cc7zwTNO.s 			page 82


 4618 0d22 0103     		.2byte	0x301
 4619 0d24 0D0B0000 		.4byte	0xb0d
 4620 0d28 02       		.uleb128 0x2
 4621 0d29 91       		.byte	0x91
 4622 0d2a 6C       		.sleb128 -20
 4623 0d2b 2C       		.uleb128 0x2c
 4624 0d2c 6900     		.ascii	"i\000"
 4625 0d2e 01       		.byte	0x1
 4626 0d2f 0203     		.2byte	0x302
 4627 0d31 0D0B0000 		.4byte	0xb0d
 4628 0d35 02       		.uleb128 0x2
 4629 0d36 91       		.byte	0x91
 4630 0d37 5E       		.sleb128 -34
 4631 0d38 00       		.byte	0
 4632 0d39 2B       		.uleb128 0x2b
 4633 0d3a D4010000 		.4byte	.LBB24
 4634 0d3e 2A000000 		.4byte	.LBE24-.LBB24
 4635 0d42 560D0000 		.4byte	0xd56
 4636 0d46 27       		.uleb128 0x27
 4637 0d47 350E0000 		.4byte	.LASF226
 4638 0d4b 01       		.byte	0x1
 4639 0d4c 3503     		.2byte	0x335
 4640 0d4e B80D0000 		.4byte	0xdb8
 4641 0d52 02       		.uleb128 0x2
 4642 0d53 91       		.byte	0x91
 4643 0d54 70       		.sleb128 -16
 4644 0d55 00       		.byte	0
 4645 0d56 2B       		.uleb128 0x2b
 4646 0d57 16020000 		.4byte	.LBB25
 4647 0d5b 20000000 		.4byte	.LBE25-.LBB25
 4648 0d5f 820D0000 		.4byte	0xd82
 4649 0d63 27       		.uleb128 0x27
 4650 0d64 BA100000 		.4byte	.LASF224
 4651 0d68 01       		.byte	0x1
 4652 0d69 4603     		.2byte	0x346
 4653 0d6b 0D0B0000 		.4byte	0xb0d
 4654 0d6f 02       		.uleb128 0x2
 4655 0d70 91       		.byte	0x91
 4656 0d71 66       		.sleb128 -26
 4657 0d72 27       		.uleb128 0x27
 4658 0d73 0A100000 		.4byte	.LASF225
 4659 0d77 01       		.byte	0x1
 4660 0d78 4703     		.2byte	0x347
 4661 0d7a 0D0B0000 		.4byte	0xb0d
 4662 0d7e 02       		.uleb128 0x2
 4663 0d7f 91       		.byte	0x91
 4664 0d80 68       		.sleb128 -24
 4665 0d81 00       		.byte	0
 4666 0d82 28       		.uleb128 0x28
 4667 0d83 38020000 		.4byte	.LBB26
 4668 0d87 54000000 		.4byte	.LBE26-.LBB26
 4669 0d8b 27       		.uleb128 0x27
 4670 0d8c BA100000 		.4byte	.LASF224
 4671 0d90 01       		.byte	0x1
 4672 0d91 5203     		.2byte	0x352
 4673 0d93 0D0B0000 		.4byte	0xb0d
 4674 0d97 02       		.uleb128 0x2
ARM GAS  C:\Users\PCHAUT~1\AppData\Local\Temp\cc7zwTNO.s 			page 83


 4675 0d98 91       		.byte	0x91
 4676 0d99 62       		.sleb128 -30
 4677 0d9a 27       		.uleb128 0x27
 4678 0d9b 0A100000 		.4byte	.LASF225
 4679 0d9f 01       		.byte	0x1
 4680 0da0 5303     		.2byte	0x353
 4681 0da2 0D0B0000 		.4byte	0xb0d
 4682 0da6 02       		.uleb128 0x2
 4683 0da7 91       		.byte	0x91
 4684 0da8 64       		.sleb128 -28
 4685 0da9 2C       		.uleb128 0x2c
 4686 0daa 6900     		.ascii	"i\000"
 4687 0dac 01       		.byte	0x1
 4688 0dad 5403     		.2byte	0x354
 4689 0daf 0D0B0000 		.4byte	0xb0d
 4690 0db3 02       		.uleb128 0x2
 4691 0db4 91       		.byte	0x91
 4692 0db5 60       		.sleb128 -32
 4693 0db6 00       		.byte	0
 4694 0db7 00       		.byte	0
 4695 0db8 0D       		.uleb128 0xd
 4696 0db9 0D0B0000 		.4byte	0xb0d
 4697 0dbd C80D0000 		.4byte	0xdc8
 4698 0dc1 0E       		.uleb128 0xe
 4699 0dc2 96020000 		.4byte	0x296
 4700 0dc6 01       		.byte	0x1
 4701 0dc7 00       		.byte	0
 4702 0dc8 2D       		.uleb128 0x2d
 4703 0dc9 26070000 		.4byte	.LASF262
 4704 0dcd 01       		.byte	0x1
 4705 0dce D302     		.2byte	0x2d3
 4706 0dd0 00000000 		.4byte	.LFB15
 4707 0dd4 84000000 		.4byte	.LFE15-.LFB15
 4708 0dd8 01       		.uleb128 0x1
 4709 0dd9 9C       		.byte	0x9c
 4710 0dda 130E0000 		.4byte	0xe13
 4711 0dde 25       		.uleb128 0x25
 4712 0ddf 766D00   		.ascii	"vm\000"
 4713 0de2 01       		.byte	0x1
 4714 0de3 D302     		.2byte	0x2d3
 4715 0de5 6E0C0000 		.4byte	0xc6e
 4716 0de9 02       		.uleb128 0x2
 4717 0dea 91       		.byte	0x91
 4718 0deb 6C       		.sleb128 -20
 4719 0dec 2C       		.uleb128 0x2c
 4720 0ded 6900     		.ascii	"i\000"
 4721 0def 01       		.byte	0x1
 4722 0df0 D502     		.2byte	0x2d5
 4723 0df2 0D0B0000 		.4byte	0xb0d
 4724 0df6 02       		.uleb128 0x2
 4725 0df7 91       		.byte	0x91
 4726 0df8 70       		.sleb128 -16
 4727 0df9 28       		.uleb128 0x28
 4728 0dfa 14000000 		.4byte	.LBB20
 4729 0dfe 40000000 		.4byte	.LBE20-.LBB20
 4730 0e02 27       		.uleb128 0x27
 4731 0e03 6C080000 		.4byte	.LASF209
ARM GAS  C:\Users\PCHAUT~1\AppData\Local\Temp\cc7zwTNO.s 			page 84


 4732 0e07 01       		.byte	0x1
 4733 0e08 D802     		.2byte	0x2d8
 4734 0e0a 0D0B0000 		.4byte	0xb0d
 4735 0e0e 02       		.uleb128 0x2
 4736 0e0f 91       		.byte	0x91
 4737 0e10 72       		.sleb128 -14
 4738 0e11 00       		.byte	0
 4739 0e12 00       		.byte	0
 4740 0e13 29       		.uleb128 0x29
 4741 0e14 810A0000 		.4byte	.LASF228
 4742 0e18 01       		.byte	0x1
 4743 0e19 CA02     		.2byte	0x2ca
 4744 0e1b 00000000 		.4byte	.LFB14
 4745 0e1f 44000000 		.4byte	.LFE14-.LFB14
 4746 0e23 01       		.uleb128 0x1
 4747 0e24 9C       		.byte	0x9c
 4748 0e25 470E0000 		.4byte	0xe47
 4749 0e29 25       		.uleb128 0x25
 4750 0e2a 766D00   		.ascii	"vm\000"
 4751 0e2d 01       		.byte	0x1
 4752 0e2e CA02     		.2byte	0x2ca
 4753 0e30 6E0C0000 		.4byte	0xc6e
 4754 0e34 02       		.uleb128 0x2
 4755 0e35 91       		.byte	0x91
 4756 0e36 6C       		.sleb128 -20
 4757 0e37 27       		.uleb128 0x27
 4758 0e38 350E0000 		.4byte	.LASF226
 4759 0e3c 01       		.byte	0x1
 4760 0e3d CC02     		.2byte	0x2cc
 4761 0e3f B80D0000 		.4byte	0xdb8
 4762 0e43 02       		.uleb128 0x2
 4763 0e44 91       		.byte	0x91
 4764 0e45 70       		.sleb128 -16
 4765 0e46 00       		.byte	0
 4766 0e47 29       		.uleb128 0x29
 4767 0e48 D70E0000 		.4byte	.LASF229
 4768 0e4c 01       		.byte	0x1
 4769 0e4d C402     		.2byte	0x2c4
 4770 0e4f 00000000 		.4byte	.LFB13
 4771 0e53 2C000000 		.4byte	.LFE13-.LFB13
 4772 0e57 01       		.uleb128 0x1
 4773 0e58 9C       		.byte	0x9c
 4774 0e59 6C0E0000 		.4byte	0xe6c
 4775 0e5d 25       		.uleb128 0x25
 4776 0e5e 766D00   		.ascii	"vm\000"
 4777 0e61 01       		.byte	0x1
 4778 0e62 C402     		.2byte	0x2c4
 4779 0e64 6E0C0000 		.4byte	0xc6e
 4780 0e68 02       		.uleb128 0x2
 4781 0e69 91       		.byte	0x91
 4782 0e6a 6C       		.sleb128 -20
 4783 0e6b 00       		.byte	0
 4784 0e6c 24       		.uleb128 0x24
 4785 0e6d A9080000 		.4byte	.LASF231
 4786 0e71 01       		.byte	0x1
 4787 0e72 B102     		.2byte	0x2b1
 4788 0e74 0D0B0000 		.4byte	0xb0d
ARM GAS  C:\Users\PCHAUT~1\AppData\Local\Temp\cc7zwTNO.s 			page 85


 4789 0e78 00000000 		.4byte	.LFB12
 4790 0e7c B4000000 		.4byte	.LFE12-.LFB12
 4791 0e80 01       		.uleb128 0x1
 4792 0e81 9C       		.byte	0x9c
 4793 0e82 C70E0000 		.4byte	0xec7
 4794 0e86 25       		.uleb128 0x25
 4795 0e87 766D00   		.ascii	"vm\000"
 4796 0e8a 01       		.byte	0x1
 4797 0e8b B102     		.2byte	0x2b1
 4798 0e8d 6E0C0000 		.4byte	0xc6e
 4799 0e91 02       		.uleb128 0x2
 4800 0e92 91       		.byte	0x91
 4801 0e93 6C       		.sleb128 -20
 4802 0e94 25       		.uleb128 0x25
 4803 0e95 706300   		.ascii	"pc\000"
 4804 0e98 01       		.byte	0x1
 4805 0e99 B102     		.2byte	0x2b1
 4806 0e9b 0D0B0000 		.4byte	0xb0d
 4807 0e9f 02       		.uleb128 0x2
 4808 0ea0 91       		.byte	0x91
 4809 0ea1 6A       		.sleb128 -22
 4810 0ea2 2C       		.uleb128 0x2c
 4811 0ea3 6900     		.ascii	"i\000"
 4812 0ea5 01       		.byte	0x1
 4813 0ea6 B302     		.2byte	0x2b3
 4814 0ea8 0D0B0000 		.4byte	0xb0d
 4815 0eac 02       		.uleb128 0x2
 4816 0ead 91       		.byte	0x91
 4817 0eae 70       		.sleb128 -16
 4818 0eaf 28       		.uleb128 0x28
 4819 0eb0 30000000 		.4byte	.LBB19
 4820 0eb4 52000000 		.4byte	.LBE19-.LBB19
 4821 0eb8 2C       		.uleb128 0x2c
 4822 0eb9 6A00     		.ascii	"j\000"
 4823 0ebb 01       		.byte	0x1
 4824 0ebc B802     		.2byte	0x2b8
 4825 0ebe 0D0B0000 		.4byte	0xb0d
 4826 0ec2 02       		.uleb128 0x2
 4827 0ec3 91       		.byte	0x91
 4828 0ec4 72       		.sleb128 -14
 4829 0ec5 00       		.byte	0
 4830 0ec6 00       		.byte	0
 4831 0ec7 24       		.uleb128 0x24
 4832 0ec8 4E0F0000 		.4byte	.LASF232
 4833 0ecc 01       		.byte	0x1
 4834 0ecd A002     		.2byte	0x2a0
 4835 0ecf 1D0B0000 		.4byte	0xb1d
 4836 0ed3 00000000 		.4byte	.LFB11
 4837 0ed7 54000000 		.4byte	.LFE11-.LFB11
 4838 0edb 01       		.uleb128 0x1
 4839 0edc 9C       		.byte	0x9c
 4840 0edd FE0E0000 		.4byte	0xefe
 4841 0ee1 25       		.uleb128 0x25
 4842 0ee2 766D00   		.ascii	"vm\000"
 4843 0ee5 01       		.byte	0x1
 4844 0ee6 A002     		.2byte	0x2a0
 4845 0ee8 6E0C0000 		.4byte	0xc6e
ARM GAS  C:\Users\PCHAUT~1\AppData\Local\Temp\cc7zwTNO.s 			page 86


 4846 0eec 02       		.uleb128 0x2
 4847 0eed 91       		.byte	0x91
 4848 0eee 6C       		.sleb128 -20
 4849 0eef 25       		.uleb128 0x25
 4850 0ef0 706300   		.ascii	"pc\000"
 4851 0ef3 01       		.byte	0x1
 4852 0ef4 A002     		.2byte	0x2a0
 4853 0ef6 0D0B0000 		.4byte	0xb0d
 4854 0efa 02       		.uleb128 0x2
 4855 0efb 91       		.byte	0x91
 4856 0efc 6A       		.sleb128 -22
 4857 0efd 00       		.byte	0
 4858 0efe 24       		.uleb128 0x24
 4859 0eff D3100000 		.4byte	.LASF233
 4860 0f03 01       		.byte	0x1
 4861 0f04 8B02     		.2byte	0x28b
 4862 0f06 0D0B0000 		.4byte	0xb0d
 4863 0f0a 00000000 		.4byte	.LFB10
 4864 0f0e 70000000 		.4byte	.LFE10-.LFB10
 4865 0f12 01       		.uleb128 0x1
 4866 0f13 9C       		.byte	0x9c
 4867 0f14 360F0000 		.4byte	0xf36
 4868 0f18 25       		.uleb128 0x25
 4869 0f19 766D00   		.ascii	"vm\000"
 4870 0f1c 01       		.byte	0x1
 4871 0f1d 8B02     		.2byte	0x28b
 4872 0f1f 6E0C0000 		.4byte	0xc6e
 4873 0f23 02       		.uleb128 0x2
 4874 0f24 91       		.byte	0x91
 4875 0f25 6C       		.sleb128 -20
 4876 0f26 26       		.uleb128 0x26
 4877 0f27 45090000 		.4byte	.LASF234
 4878 0f2b 01       		.byte	0x1
 4879 0f2c 8B02     		.2byte	0x28b
 4880 0f2e 0D0B0000 		.4byte	0xb0d
 4881 0f32 02       		.uleb128 0x2
 4882 0f33 91       		.byte	0x91
 4883 0f34 6A       		.sleb128 -22
 4884 0f35 00       		.byte	0
 4885 0f36 29       		.uleb128 0x29
 4886 0f37 970F0000 		.4byte	.LASF235
 4887 0f3b 01       		.byte	0x1
 4888 0f3c 6002     		.2byte	0x260
 4889 0f3e 00000000 		.4byte	.LFB9
 4890 0f42 E4000000 		.4byte	.LFE9-.LFB9
 4891 0f46 01       		.uleb128 0x1
 4892 0f47 9C       		.byte	0x9c
 4893 0f48 6A0F0000 		.4byte	0xf6a
 4894 0f4c 25       		.uleb128 0x25
 4895 0f4d 766D00   		.ascii	"vm\000"
 4896 0f50 01       		.byte	0x1
 4897 0f51 6002     		.2byte	0x260
 4898 0f53 6E0C0000 		.4byte	0xc6e
 4899 0f57 02       		.uleb128 0x2
 4900 0f58 91       		.byte	0x91
 4901 0f59 6C       		.sleb128 -20
 4902 0f5a 26       		.uleb128 0x26
ARM GAS  C:\Users\PCHAUT~1\AppData\Local\Temp\cc7zwTNO.s 			page 87


 4903 0f5b 45090000 		.4byte	.LASF234
 4904 0f5f 01       		.byte	0x1
 4905 0f60 6002     		.2byte	0x260
 4906 0f62 0D0B0000 		.4byte	0xb0d
 4907 0f66 02       		.uleb128 0x2
 4908 0f67 91       		.byte	0x91
 4909 0f68 6A       		.sleb128 -22
 4910 0f69 00       		.byte	0
 4911 0f6a 29       		.uleb128 0x29
 4912 0f6b 0B020000 		.4byte	.LASF236
 4913 0f6f 01       		.byte	0x1
 4914 0f70 4102     		.2byte	0x241
 4915 0f72 00000000 		.4byte	.LFB8
 4916 0f76 A4000000 		.4byte	.LFE8-.LFB8
 4917 0f7a 01       		.uleb128 0x1
 4918 0f7b 9C       		.byte	0x9c
 4919 0f7c 9E0F0000 		.4byte	0xf9e
 4920 0f80 25       		.uleb128 0x25
 4921 0f81 766D00   		.ascii	"vm\000"
 4922 0f84 01       		.byte	0x1
 4923 0f85 4102     		.2byte	0x241
 4924 0f87 6E0C0000 		.4byte	0xc6e
 4925 0f8b 02       		.uleb128 0x2
 4926 0f8c 91       		.byte	0x91
 4927 0f8d 6C       		.sleb128 -20
 4928 0f8e 26       		.uleb128 0x26
 4929 0f8f 45090000 		.4byte	.LASF234
 4930 0f93 01       		.byte	0x1
 4931 0f94 4102     		.2byte	0x241
 4932 0f96 0D0B0000 		.4byte	0xb0d
 4933 0f9a 02       		.uleb128 0x2
 4934 0f9b 91       		.byte	0x91
 4935 0f9c 6A       		.sleb128 -22
 4936 0f9d 00       		.byte	0
 4937 0f9e 24       		.uleb128 0x24
 4938 0f9f F8000000 		.4byte	.LASF237
 4939 0fa3 01       		.byte	0x1
 4940 0fa4 3002     		.2byte	0x230
 4941 0fa6 0D0B0000 		.4byte	0xb0d
 4942 0faa 00000000 		.4byte	.LFB7
 4943 0fae 70000000 		.4byte	.LFE7-.LFB7
 4944 0fb2 01       		.uleb128 0x1
 4945 0fb3 9C       		.byte	0x9c
 4946 0fb4 D40F0000 		.4byte	0xfd4
 4947 0fb8 25       		.uleb128 0x25
 4948 0fb9 766D00   		.ascii	"vm\000"
 4949 0fbc 01       		.byte	0x1
 4950 0fbd 3002     		.2byte	0x230
 4951 0fbf 6E0C0000 		.4byte	0xc6e
 4952 0fc3 02       		.uleb128 0x2
 4953 0fc4 91       		.byte	0x91
 4954 0fc5 6C       		.sleb128 -20
 4955 0fc6 2C       		.uleb128 0x2c
 4956 0fc7 6900     		.ascii	"i\000"
 4957 0fc9 01       		.byte	0x1
 4958 0fca 3202     		.2byte	0x232
 4959 0fcc 0D0B0000 		.4byte	0xb0d
ARM GAS  C:\Users\PCHAUT~1\AppData\Local\Temp\cc7zwTNO.s 			page 88


 4960 0fd0 02       		.uleb128 0x2
 4961 0fd1 91       		.byte	0x91
 4962 0fd2 72       		.sleb128 -14
 4963 0fd3 00       		.byte	0
 4964 0fd4 29       		.uleb128 0x29
 4965 0fd5 710B0000 		.4byte	.LASF238
 4966 0fd9 01       		.byte	0x1
 4967 0fda 1602     		.2byte	0x216
 4968 0fdc 00000000 		.4byte	.LFB6
 4969 0fe0 CC000000 		.4byte	.LFE6-.LFB6
 4970 0fe4 01       		.uleb128 0x1
 4971 0fe5 9C       		.byte	0x9c
 4972 0fe6 27100000 		.4byte	0x1027
 4973 0fea 25       		.uleb128 0x25
 4974 0feb 766D00   		.ascii	"vm\000"
 4975 0fee 01       		.byte	0x1
 4976 0fef 1602     		.2byte	0x216
 4977 0ff1 6E0C0000 		.4byte	0xc6e
 4978 0ff5 02       		.uleb128 0x2
 4979 0ff6 91       		.byte	0x91
 4980 0ff7 5C       		.sleb128 -36
 4981 0ff8 26       		.uleb128 0x26
 4982 0ff9 F7090000 		.4byte	.LASF239
 4983 0ffd 01       		.byte	0x1
 4984 0ffe 1602     		.2byte	0x216
 4985 1000 F3070000 		.4byte	0x7f3
 4986 1004 02       		.uleb128 0x2
 4987 1005 91       		.byte	0x91
 4988 1006 58       		.sleb128 -40
 4989 1007 27       		.uleb128 0x27
 4990 1008 C70E0000 		.4byte	.LASF240
 4991 100c 01       		.byte	0x1
 4992 100d 1802     		.2byte	0x218
 4993 100f 0D0B0000 		.4byte	0xb0d
 4994 1013 02       		.uleb128 0x2
 4995 1014 91       		.byte	0x91
 4996 1015 62       		.sleb128 -30
 4997 1016 27       		.uleb128 0x27
 4998 1017 350E0000 		.4byte	.LASF226
 4999 101b 01       		.byte	0x1
 5000 101c 1A02     		.2byte	0x21a
 5001 101e 27100000 		.4byte	0x1027
 5002 1022 03       		.uleb128 0x3
 5003 1023 91       		.byte	0x91
 5004 1024 68       		.sleb128 -24
 5005 1025 06       		.byte	0x6
 5006 1026 00       		.byte	0
 5007 1027 0D       		.uleb128 0xd
 5008 1028 1D0B0000 		.4byte	0xb1d
 5009 102c 3A100000 		.4byte	0x103a
 5010 1030 2E       		.uleb128 0x2e
 5011 1031 96020000 		.4byte	0x296
 5012 1035 03       		.uleb128 0x3
 5013 1036 91       		.byte	0x91
 5014 1037 64       		.sleb128 -28
 5015 1038 06       		.byte	0x6
 5016 1039 00       		.byte	0
ARM GAS  C:\Users\PCHAUT~1\AppData\Local\Temp\cc7zwTNO.s 			page 89


 5017 103a 2F       		.uleb128 0x2f
 5018 103b 83010000 		.4byte	.LASF241
 5019 103f 01       		.byte	0x1
 5020 1040 A9       		.byte	0xa9
 5021 1041 00000000 		.4byte	.LFB5
 5022 1045 28060000 		.4byte	.LFE5-.LFB5
 5023 1049 01       		.uleb128 0x1
 5024 104a 9C       		.byte	0x9c
 5025 104b 7C120000 		.4byte	0x127c
 5026 104f 30       		.uleb128 0x30
 5027 1050 766D00   		.ascii	"vm\000"
 5028 1053 01       		.byte	0x1
 5029 1054 A9       		.byte	0xa9
 5030 1055 6E0C0000 		.4byte	0xc6e
 5031 1059 03       		.uleb128 0x3
 5032 105a 91       		.byte	0x91
 5033 105b B47F     		.sleb128 -76
 5034 105d 31       		.uleb128 0x31
 5035 105e 6C080000 		.4byte	.LASF209
 5036 1062 01       		.byte	0x1
 5037 1063 AB       		.byte	0xab
 5038 1064 0D0B0000 		.4byte	0xb0d
 5039 1068 03       		.uleb128 0x3
 5040 1069 91       		.byte	0x91
 5041 106a BE7F     		.sleb128 -66
 5042 106c 2B       		.uleb128 0x2b
 5043 106d 80000000 		.4byte	.LBB2
 5044 1071 40000000 		.4byte	.LBE2-.LBB2
 5045 1075 88100000 		.4byte	0x1088
 5046 1079 31       		.uleb128 0x31
 5047 107a 37000000 		.4byte	.LASF242
 5048 107e 01       		.byte	0x1
 5049 107f BE       		.byte	0xbe
 5050 1080 020B0000 		.4byte	0xb02
 5051 1084 02       		.uleb128 0x2
 5052 1085 91       		.byte	0x91
 5053 1086 6A       		.sleb128 -22
 5054 1087 00       		.byte	0
 5055 1088 2B       		.uleb128 0x2b
 5056 1089 04010000 		.4byte	.LBB3
 5057 108d 4A000000 		.4byte	.LBE3-.LBB3
 5058 1091 A4100000 		.4byte	0x10a4
 5059 1095 31       		.uleb128 0x31
 5060 1096 730A0000 		.4byte	.LASF243
 5061 109a 01       		.byte	0x1
 5062 109b E2       		.byte	0xe2
 5063 109c 0D0B0000 		.4byte	0xb0d
 5064 10a0 02       		.uleb128 0x2
 5065 10a1 91       		.byte	0x91
 5066 10a2 68       		.sleb128 -24
 5067 10a3 00       		.byte	0
 5068 10a4 2B       		.uleb128 0x2b
 5069 10a5 50010000 		.4byte	.LBB4
 5070 10a9 46000000 		.4byte	.LBE4-.LBB4
 5071 10ad C0100000 		.4byte	0x10c0
 5072 10b1 31       		.uleb128 0x31
 5073 10b2 730A0000 		.4byte	.LASF243
ARM GAS  C:\Users\PCHAUT~1\AppData\Local\Temp\cc7zwTNO.s 			page 90


 5074 10b6 01       		.byte	0x1
 5075 10b7 F7       		.byte	0xf7
 5076 10b8 0D0B0000 		.4byte	0xb0d
 5077 10bc 02       		.uleb128 0x2
 5078 10bd 91       		.byte	0x91
 5079 10be 66       		.sleb128 -26
 5080 10bf 00       		.byte	0
 5081 10c0 2A       		.uleb128 0x2a
 5082 10c1 00000000 		.4byte	.Ldebug_ranges0+0
 5083 10c5 0C110000 		.4byte	0x110c
 5084 10c9 27       		.uleb128 0x27
 5085 10ca 51010000 		.4byte	.LASF244
 5086 10ce 01       		.byte	0x1
 5087 10cf 0C01     		.2byte	0x10c
 5088 10d1 0D0B0000 		.4byte	0xb0d
 5089 10d5 02       		.uleb128 0x2
 5090 10d6 91       		.byte	0x91
 5091 10d7 60       		.sleb128 -32
 5092 10d8 27       		.uleb128 0x27
 5093 10d9 36110000 		.4byte	.LASF245
 5094 10dd 01       		.byte	0x1
 5095 10de 0D01     		.2byte	0x10d
 5096 10e0 0D0B0000 		.4byte	0xb0d
 5097 10e4 02       		.uleb128 0x2
 5098 10e5 91       		.byte	0x91
 5099 10e6 62       		.sleb128 -30
 5100 10e7 27       		.uleb128 0x27
 5101 10e8 730A0000 		.4byte	.LASF243
 5102 10ec 01       		.byte	0x1
 5103 10ed 0E01     		.2byte	0x10e
 5104 10ef 0D0B0000 		.4byte	0xb0d
 5105 10f3 02       		.uleb128 0x2
 5106 10f4 91       		.byte	0x91
 5107 10f5 64       		.sleb128 -28
 5108 10f6 32       		.uleb128 0x32
 5109 10f7 18000000 		.4byte	.Ldebug_ranges0+0x18
 5110 10fb 27       		.uleb128 0x27
 5111 10fc 350E0000 		.4byte	.LASF226
 5112 1100 01       		.byte	0x1
 5113 1101 1E01     		.2byte	0x11e
 5114 1103 7C120000 		.4byte	0x127c
 5115 1107 02       		.uleb128 0x2
 5116 1108 91       		.byte	0x91
 5117 1109 6C       		.sleb128 -20
 5118 110a 00       		.byte	0
 5119 110b 00       		.byte	0
 5120 110c 2A       		.uleb128 0x2a
 5121 110d 30000000 		.4byte	.Ldebug_ranges0+0x30
 5122 1111 67110000 		.4byte	0x1167
 5123 1115 27       		.uleb128 0x27
 5124 1116 51010000 		.4byte	.LASF244
 5125 111a 01       		.byte	0x1
 5126 111b 3401     		.2byte	0x134
 5127 111d 0D0B0000 		.4byte	0xb0d
 5128 1121 02       		.uleb128 0x2
 5129 1122 91       		.byte	0x91
 5130 1123 58       		.sleb128 -40
ARM GAS  C:\Users\PCHAUT~1\AppData\Local\Temp\cc7zwTNO.s 			page 91


 5131 1124 27       		.uleb128 0x27
 5132 1125 36110000 		.4byte	.LASF245
 5133 1129 01       		.byte	0x1
 5134 112a 3501     		.2byte	0x135
 5135 112c 0D0B0000 		.4byte	0xb0d
 5136 1130 02       		.uleb128 0x2
 5137 1131 91       		.byte	0x91
 5138 1132 5A       		.sleb128 -38
 5139 1133 27       		.uleb128 0x27
 5140 1134 730A0000 		.4byte	.LASF243
 5141 1138 01       		.byte	0x1
 5142 1139 3601     		.2byte	0x136
 5143 113b 0D0B0000 		.4byte	0xb0d
 5144 113f 02       		.uleb128 0x2
 5145 1140 91       		.byte	0x91
 5146 1141 5E       		.sleb128 -34
 5147 1142 27       		.uleb128 0x27
 5148 1143 B2010000 		.4byte	.LASF246
 5149 1147 01       		.byte	0x1
 5150 1148 3701     		.2byte	0x137
 5151 114a 020B0000 		.4byte	0xb02
 5152 114e 02       		.uleb128 0x2
 5153 114f 91       		.byte	0x91
 5154 1150 5C       		.sleb128 -36
 5155 1151 32       		.uleb128 0x32
 5156 1152 48000000 		.4byte	.Ldebug_ranges0+0x48
 5157 1156 27       		.uleb128 0x27
 5158 1157 350E0000 		.4byte	.LASF226
 5159 115b 01       		.byte	0x1
 5160 115c 4801     		.2byte	0x148
 5161 115e 7C120000 		.4byte	0x127c
 5162 1162 02       		.uleb128 0x2
 5163 1163 91       		.byte	0x91
 5164 1164 6C       		.sleb128 -20
 5165 1165 00       		.byte	0
 5166 1166 00       		.byte	0
 5167 1167 2B       		.uleb128 0x2b
 5168 1168 2C030000 		.4byte	.LBB11
 5169 116c 4E000000 		.4byte	.LBE11-.LBB11
 5170 1170 93110000 		.4byte	0x1193
 5171 1174 27       		.uleb128 0x27
 5172 1175 37000000 		.4byte	.LASF242
 5173 1179 01       		.byte	0x1
 5174 117a 5F01     		.2byte	0x15f
 5175 117c 020B0000 		.4byte	0xb02
 5176 1180 02       		.uleb128 0x2
 5177 1181 91       		.byte	0x91
 5178 1182 54       		.sleb128 -44
 5179 1183 27       		.uleb128 0x27
 5180 1184 CE0E0000 		.4byte	.LASF247
 5181 1188 01       		.byte	0x1
 5182 1189 5F01     		.2byte	0x15f
 5183 118b 020B0000 		.4byte	0xb02
 5184 118f 02       		.uleb128 0x2
 5185 1190 91       		.byte	0x91
 5186 1191 56       		.sleb128 -42
 5187 1192 00       		.byte	0
ARM GAS  C:\Users\PCHAUT~1\AppData\Local\Temp\cc7zwTNO.s 			page 92


 5188 1193 2B       		.uleb128 0x2b
 5189 1194 7C030000 		.4byte	.LBB12
 5190 1198 7C000000 		.4byte	.LBE12-.LBB12
 5191 119c CE110000 		.4byte	0x11ce
 5192 11a0 27       		.uleb128 0x27
 5193 11a1 11100000 		.4byte	.LASF248
 5194 11a5 01       		.byte	0x1
 5195 11a6 7801     		.2byte	0x178
 5196 11a8 020B0000 		.4byte	0xb02
 5197 11ac 02       		.uleb128 0x2
 5198 11ad 91       		.byte	0x91
 5199 11ae 4E       		.sleb128 -50
 5200 11af 27       		.uleb128 0x27
 5201 11b0 3C090000 		.4byte	.LASF249
 5202 11b4 01       		.byte	0x1
 5203 11b5 7801     		.2byte	0x178
 5204 11b7 020B0000 		.4byte	0xb02
 5205 11bb 02       		.uleb128 0x2
 5206 11bc 91       		.byte	0x91
 5207 11bd 50       		.sleb128 -48
 5208 11be 27       		.uleb128 0x27
 5209 11bf CE0E0000 		.4byte	.LASF247
 5210 11c3 01       		.byte	0x1
 5211 11c4 7801     		.2byte	0x178
 5212 11c6 020B0000 		.4byte	0xb02
 5213 11ca 02       		.uleb128 0x2
 5214 11cb 91       		.byte	0x91
 5215 11cc 52       		.sleb128 -46
 5216 11cd 00       		.byte	0
 5217 11ce 2B       		.uleb128 0x2b
 5218 11cf FA030000 		.4byte	.LBB13
 5219 11d3 1E000000 		.4byte	.LBE13-.LBB13
 5220 11d7 EB110000 		.4byte	0x11eb
 5221 11db 27       		.uleb128 0x27
 5222 11dc F2050000 		.4byte	.LASF250
 5223 11e0 01       		.byte	0x1
 5224 11e1 9301     		.2byte	0x193
 5225 11e3 020B0000 		.4byte	0xb02
 5226 11e7 02       		.uleb128 0x2
 5227 11e8 91       		.byte	0x91
 5228 11e9 4C       		.sleb128 -52
 5229 11ea 00       		.byte	0
 5230 11eb 2B       		.uleb128 0x2b
 5231 11ec 1A040000 		.4byte	.LBB14
 5232 11f0 FE000000 		.4byte	.LBE14-.LBB14
 5233 11f4 36120000 		.4byte	0x1236
 5234 11f8 27       		.uleb128 0x27
 5235 11f9 AF0F0000 		.4byte	.LASF251
 5236 11fd 01       		.byte	0x1
 5237 11fe A301     		.2byte	0x1a3
 5238 1200 020B0000 		.4byte	0xb02
 5239 1204 02       		.uleb128 0x2
 5240 1205 91       		.byte	0x91
 5241 1206 4A       		.sleb128 -54
 5242 1207 27       		.uleb128 0x27
 5243 1208 11100000 		.4byte	.LASF248
 5244 120c 01       		.byte	0x1
ARM GAS  C:\Users\PCHAUT~1\AppData\Local\Temp\cc7zwTNO.s 			page 93


 5245 120d A401     		.2byte	0x1a4
 5246 120f 020B0000 		.4byte	0xb02
 5247 1213 02       		.uleb128 0x2
 5248 1214 91       		.byte	0x91
 5249 1215 46       		.sleb128 -58
 5250 1216 27       		.uleb128 0x27
 5251 1217 3C090000 		.4byte	.LASF249
 5252 121b 01       		.byte	0x1
 5253 121c A401     		.2byte	0x1a4
 5254 121e 020B0000 		.4byte	0xb02
 5255 1222 02       		.uleb128 0x2
 5256 1223 91       		.byte	0x91
 5257 1224 48       		.sleb128 -56
 5258 1225 27       		.uleb128 0x27
 5259 1226 F2050000 		.4byte	.LASF250
 5260 122a 01       		.byte	0x1
 5261 122b A501     		.2byte	0x1a5
 5262 122d 020B0000 		.4byte	0xb02
 5263 1231 03       		.uleb128 0x3
 5264 1232 91       		.byte	0x91
 5265 1233 BC7F     		.sleb128 -68
 5266 1235 00       		.byte	0
 5267 1236 2B       		.uleb128 0x2b
 5268 1237 1A050000 		.4byte	.LBB15
 5269 123b 58000000 		.4byte	.LBE15-.LBB15
 5270 123f 62120000 		.4byte	0x1262
 5271 1243 27       		.uleb128 0x27
 5272 1244 BA100000 		.4byte	.LASF224
 5273 1248 01       		.byte	0x1
 5274 1249 D401     		.2byte	0x1d4
 5275 124b 0D0B0000 		.4byte	0xb0d
 5276 124f 02       		.uleb128 0x2
 5277 1250 91       		.byte	0x91
 5278 1251 42       		.sleb128 -62
 5279 1252 27       		.uleb128 0x27
 5280 1253 0A100000 		.4byte	.LASF225
 5281 1257 01       		.byte	0x1
 5282 1258 D501     		.2byte	0x1d5
 5283 125a 0D0B0000 		.4byte	0xb0d
 5284 125e 02       		.uleb128 0x2
 5285 125f 91       		.byte	0x91
 5286 1260 44       		.sleb128 -60
 5287 1261 00       		.byte	0
 5288 1262 28       		.uleb128 0x28
 5289 1263 98050000 		.4byte	.LBB16
 5290 1267 40000000 		.4byte	.LBE16-.LBB16
 5291 126b 27       		.uleb128 0x27
 5292 126c 230A0000 		.4byte	.LASF221
 5293 1270 01       		.byte	0x1
 5294 1271 F001     		.2byte	0x1f0
 5295 1273 0D0B0000 		.4byte	0xb0d
 5296 1277 02       		.uleb128 0x2
 5297 1278 91       		.byte	0x91
 5298 1279 40       		.sleb128 -64
 5299 127a 00       		.byte	0
 5300 127b 00       		.byte	0
 5301 127c 0D       		.uleb128 0xd
ARM GAS  C:\Users\PCHAUT~1\AppData\Local\Temp\cc7zwTNO.s 			page 94


 5302 127d 0D0B0000 		.4byte	0xb0d
 5303 1281 8C120000 		.4byte	0x128c
 5304 1285 0E       		.uleb128 0xe
 5305 1286 96020000 		.4byte	0x296
 5306 128a 02       		.byte	0x2
 5307 128b 00       		.byte	0
 5308 128c 33       		.uleb128 0x33
 5309 128d 40110000 		.4byte	.LASF252
 5310 1291 01       		.byte	0x1
 5311 1292 96       		.byte	0x96
 5312 1293 020B0000 		.4byte	0xb02
 5313 1297 00000000 		.4byte	.LFB4
 5314 129b 68000000 		.4byte	.LFE4-.LFB4
 5315 129f 01       		.uleb128 0x1
 5316 12a0 9C       		.byte	0x9c
 5317 12a1 CE120000 		.4byte	0x12ce
 5318 12a5 30       		.uleb128 0x30
 5319 12a6 766D00   		.ascii	"vm\000"
 5320 12a9 01       		.byte	0x1
 5321 12aa 96       		.byte	0x96
 5322 12ab 6E0C0000 		.4byte	0xc6e
 5323 12af 02       		.uleb128 0x2
 5324 12b0 91       		.byte	0x91
 5325 12b1 6C       		.sleb128 -20
 5326 12b2 34       		.uleb128 0x34
 5327 12b3 37000000 		.4byte	.LASF242
 5328 12b7 01       		.byte	0x1
 5329 12b8 96       		.byte	0x96
 5330 12b9 020B0000 		.4byte	0xb02
 5331 12bd 02       		.uleb128 0x2
 5332 12be 91       		.byte	0x91
 5333 12bf 6A       		.sleb128 -22
 5334 12c0 30       		.uleb128 0x30
 5335 12c1 6F7000   		.ascii	"op\000"
 5336 12c4 01       		.byte	0x1
 5337 12c5 96       		.byte	0x96
 5338 12c6 0D0B0000 		.4byte	0xb0d
 5339 12ca 02       		.uleb128 0x2
 5340 12cb 91       		.byte	0x91
 5341 12cc 68       		.sleb128 -24
 5342 12cd 00       		.byte	0
 5343 12ce 33       		.uleb128 0x33
 5344 12cf 350F0000 		.4byte	.LASF253
 5345 12d3 01       		.byte	0x1
 5346 12d4 5A       		.byte	0x5a
 5347 12d5 020B0000 		.4byte	0xb02
 5348 12d9 00000000 		.4byte	.LFB3
 5349 12dd 5C020000 		.4byte	.LFE3-.LFB3
 5350 12e1 01       		.uleb128 0x1
 5351 12e2 9C       		.byte	0x9c
 5352 12e3 1E130000 		.4byte	0x131e
 5353 12e7 30       		.uleb128 0x30
 5354 12e8 766D00   		.ascii	"vm\000"
 5355 12eb 01       		.byte	0x1
 5356 12ec 5A       		.byte	0x5a
 5357 12ed 6E0C0000 		.4byte	0xc6e
 5358 12f1 02       		.uleb128 0x2
ARM GAS  C:\Users\PCHAUT~1\AppData\Local\Temp\cc7zwTNO.s 			page 95


 5359 12f2 91       		.byte	0x91
 5360 12f3 6C       		.sleb128 -20
 5361 12f4 34       		.uleb128 0x34
 5362 12f5 11100000 		.4byte	.LASF248
 5363 12f9 01       		.byte	0x1
 5364 12fa 5A       		.byte	0x5a
 5365 12fb 020B0000 		.4byte	0xb02
 5366 12ff 02       		.uleb128 0x2
 5367 1300 91       		.byte	0x91
 5368 1301 6A       		.sleb128 -22
 5369 1302 34       		.uleb128 0x34
 5370 1303 3C090000 		.4byte	.LASF249
 5371 1307 01       		.byte	0x1
 5372 1308 5A       		.byte	0x5a
 5373 1309 020B0000 		.4byte	0xb02
 5374 130d 02       		.uleb128 0x2
 5375 130e 91       		.byte	0x91
 5376 130f 68       		.sleb128 -24
 5377 1310 30       		.uleb128 0x30
 5378 1311 6F7000   		.ascii	"op\000"
 5379 1314 01       		.byte	0x1
 5380 1315 5A       		.byte	0x5a
 5381 1316 0D0B0000 		.4byte	0xb0d
 5382 131a 02       		.uleb128 0x2
 5383 131b 91       		.byte	0x91
 5384 131c 66       		.sleb128 -26
 5385 131d 00       		.byte	0
 5386 131e 35       		.uleb128 0x35
 5387 131f D60D0000 		.4byte	.LASF254
 5388 1323 01       		.byte	0x1
 5389 1324 44       		.byte	0x44
 5390 1325 0D0B0000 		.4byte	0xb0d
 5391 1329 00000000 		.4byte	.LFB2
 5392 132d 98000000 		.4byte	.LFE2-.LFB2
 5393 1331 01       		.uleb128 0x1
 5394 1332 9C       		.byte	0x9c
 5395 1333 61130000 		.4byte	0x1361
 5396 1337 30       		.uleb128 0x30
 5397 1338 766D00   		.ascii	"vm\000"
 5398 133b 01       		.byte	0x1
 5399 133c 44       		.byte	0x44
 5400 133d 6E0C0000 		.4byte	0xc6e
 5401 1341 02       		.uleb128 0x2
 5402 1342 91       		.byte	0x91
 5403 1343 6C       		.sleb128 -20
 5404 1344 34       		.uleb128 0x34
 5405 1345 05020000 		.4byte	.LASF255
 5406 1349 01       		.byte	0x1
 5407 134a 44       		.byte	0x44
 5408 134b 0D0B0000 		.4byte	0xb0d
 5409 134f 02       		.uleb128 0x2
 5410 1350 91       		.byte	0x91
 5411 1351 6A       		.sleb128 -22
 5412 1352 31       		.uleb128 0x31
 5413 1353 7F090000 		.4byte	.LASF256
 5414 1357 01       		.byte	0x1
 5415 1358 46       		.byte	0x46
ARM GAS  C:\Users\PCHAUT~1\AppData\Local\Temp\cc7zwTNO.s 			page 96


 5416 1359 0D0B0000 		.4byte	0xb0d
 5417 135d 02       		.uleb128 0x2
 5418 135e 91       		.byte	0x91
 5419 135f 72       		.sleb128 -14
 5420 1360 00       		.byte	0
 5421 1361 35       		.uleb128 0x35
 5422 1362 E80D0000 		.4byte	.LASF257
 5423 1366 01       		.byte	0x1
 5424 1367 37       		.byte	0x37
 5425 1368 0D0B0000 		.4byte	0xb0d
 5426 136c 00000000 		.4byte	.LFB1
 5427 1370 80000000 		.4byte	.LFE1-.LFB1
 5428 1374 01       		.uleb128 0x1
 5429 1375 9C       		.byte	0x9c
 5430 1376 B0130000 		.4byte	0x13b0
 5431 137a 30       		.uleb128 0x30
 5432 137b 766D00   		.ascii	"vm\000"
 5433 137e 01       		.byte	0x1
 5434 137f 37       		.byte	0x37
 5435 1380 6E0C0000 		.4byte	0xc6e
 5436 1384 02       		.uleb128 0x2
 5437 1385 91       		.byte	0x91
 5438 1386 6C       		.sleb128 -20
 5439 1387 34       		.uleb128 0x34
 5440 1388 05020000 		.4byte	.LASF255
 5441 138c 01       		.byte	0x1
 5442 138d 37       		.byte	0x37
 5443 138e 0D0B0000 		.4byte	0xb0d
 5444 1392 02       		.uleb128 0x2
 5445 1393 91       		.byte	0x91
 5446 1394 6A       		.sleb128 -22
 5447 1395 31       		.uleb128 0x31
 5448 1396 58110000 		.4byte	.LASF258
 5449 139a 01       		.byte	0x1
 5450 139b 39       		.byte	0x39
 5451 139c 0D0B0000 		.4byte	0xb0d
 5452 13a0 02       		.uleb128 0x2
 5453 13a1 91       		.byte	0x91
 5454 13a2 72       		.sleb128 -14
 5455 13a3 36       		.uleb128 0x36
 5456 13a4 6900     		.ascii	"i\000"
 5457 13a6 01       		.byte	0x1
 5458 13a7 3A       		.byte	0x3a
 5459 13a8 0D0B0000 		.4byte	0xb0d
 5460 13ac 02       		.uleb128 0x2
 5461 13ad 91       		.byte	0x91
 5462 13ae 70       		.sleb128 -16
 5463 13af 00       		.byte	0
 5464 13b0 37       		.uleb128 0x37
 5465 13b1 A10E0000 		.4byte	.LASF263
 5466 13b5 01       		.byte	0x1
 5467 13b6 2C       		.byte	0x2c
 5468 13b7 00000000 		.4byte	.LFB0
 5469 13bb 54000000 		.4byte	.LFE0-.LFB0
 5470 13bf 01       		.uleb128 0x1
 5471 13c0 9C       		.byte	0x9c
 5472 13c1 30       		.uleb128 0x30
ARM GAS  C:\Users\PCHAUT~1\AppData\Local\Temp\cc7zwTNO.s 			page 97


 5473 13c2 766D00   		.ascii	"vm\000"
 5474 13c5 01       		.byte	0x1
 5475 13c6 2C       		.byte	0x2c
 5476 13c7 6E0C0000 		.4byte	0xc6e
 5477 13cb 02       		.uleb128 0x2
 5478 13cc 91       		.byte	0x91
 5479 13cd 6C       		.sleb128 -20
 5480 13ce 00       		.byte	0
 5481 13cf 00       		.byte	0
 5482              		.section	.debug_abbrev,"",%progbits
 5483              	.Ldebug_abbrev0:
 5484 0000 01       		.uleb128 0x1
 5485 0001 11       		.uleb128 0x11
 5486 0002 01       		.byte	0x1
 5487 0003 25       		.uleb128 0x25
 5488 0004 0E       		.uleb128 0xe
 5489 0005 13       		.uleb128 0x13
 5490 0006 0B       		.uleb128 0xb
 5491 0007 03       		.uleb128 0x3
 5492 0008 0E       		.uleb128 0xe
 5493 0009 1B       		.uleb128 0x1b
 5494 000a 0E       		.uleb128 0xe
 5495 000b 55       		.uleb128 0x55
 5496 000c 17       		.uleb128 0x17
 5497 000d 11       		.uleb128 0x11
 5498 000e 01       		.uleb128 0x1
 5499 000f 10       		.uleb128 0x10
 5500 0010 17       		.uleb128 0x17
 5501 0011 00       		.byte	0
 5502 0012 00       		.byte	0
 5503 0013 02       		.uleb128 0x2
 5504 0014 04       		.uleb128 0x4
 5505 0015 01       		.byte	0x1
 5506 0016 3E       		.uleb128 0x3e
 5507 0017 0B       		.uleb128 0xb
 5508 0018 0B       		.uleb128 0xb
 5509 0019 0B       		.uleb128 0xb
 5510 001a 49       		.uleb128 0x49
 5511 001b 13       		.uleb128 0x13
 5512 001c 3A       		.uleb128 0x3a
 5513 001d 0B       		.uleb128 0xb
 5514 001e 3B       		.uleb128 0x3b
 5515 001f 0B       		.uleb128 0xb
 5516 0020 01       		.uleb128 0x1
 5517 0021 13       		.uleb128 0x13
 5518 0022 00       		.byte	0
 5519 0023 00       		.byte	0
 5520 0024 03       		.uleb128 0x3
 5521 0025 28       		.uleb128 0x28
 5522 0026 00       		.byte	0
 5523 0027 03       		.uleb128 0x3
 5524 0028 0E       		.uleb128 0xe
 5525 0029 1C       		.uleb128 0x1c
 5526 002a 0B       		.uleb128 0xb
 5527 002b 00       		.byte	0
 5528 002c 00       		.byte	0
 5529 002d 04       		.uleb128 0x4
ARM GAS  C:\Users\PCHAUT~1\AppData\Local\Temp\cc7zwTNO.s 			page 98


 5530 002e 24       		.uleb128 0x24
 5531 002f 00       		.byte	0
 5532 0030 0B       		.uleb128 0xb
 5533 0031 0B       		.uleb128 0xb
 5534 0032 3E       		.uleb128 0x3e
 5535 0033 0B       		.uleb128 0xb
 5536 0034 03       		.uleb128 0x3
 5537 0035 0E       		.uleb128 0xe
 5538 0036 00       		.byte	0
 5539 0037 00       		.byte	0
 5540 0038 05       		.uleb128 0x5
 5541 0039 28       		.uleb128 0x28
 5542 003a 00       		.byte	0
 5543 003b 03       		.uleb128 0x3
 5544 003c 0E       		.uleb128 0xe
 5545 003d 1C       		.uleb128 0x1c
 5546 003e 05       		.uleb128 0x5
 5547 003f 00       		.byte	0
 5548 0040 00       		.byte	0
 5549 0041 06       		.uleb128 0x6
 5550 0042 24       		.uleb128 0x24
 5551 0043 00       		.byte	0
 5552 0044 0B       		.uleb128 0xb
 5553 0045 0B       		.uleb128 0xb
 5554 0046 3E       		.uleb128 0x3e
 5555 0047 0B       		.uleb128 0xb
 5556 0048 03       		.uleb128 0x3
 5557 0049 08       		.uleb128 0x8
 5558 004a 00       		.byte	0
 5559 004b 00       		.byte	0
 5560 004c 07       		.uleb128 0x7
 5561 004d 16       		.uleb128 0x16
 5562 004e 00       		.byte	0
 5563 004f 03       		.uleb128 0x3
 5564 0050 0E       		.uleb128 0xe
 5565 0051 3A       		.uleb128 0x3a
 5566 0052 0B       		.uleb128 0xb
 5567 0053 3B       		.uleb128 0x3b
 5568 0054 0B       		.uleb128 0xb
 5569 0055 49       		.uleb128 0x49
 5570 0056 13       		.uleb128 0x13
 5571 0057 00       		.byte	0
 5572 0058 00       		.byte	0
 5573 0059 08       		.uleb128 0x8
 5574 005a 0F       		.uleb128 0xf
 5575 005b 00       		.byte	0
 5576 005c 0B       		.uleb128 0xb
 5577 005d 0B       		.uleb128 0xb
 5578 005e 49       		.uleb128 0x49
 5579 005f 13       		.uleb128 0x13
 5580 0060 00       		.byte	0
 5581 0061 00       		.byte	0
 5582 0062 09       		.uleb128 0x9
 5583 0063 13       		.uleb128 0x13
 5584 0064 00       		.byte	0
 5585 0065 03       		.uleb128 0x3
 5586 0066 0E       		.uleb128 0xe
ARM GAS  C:\Users\PCHAUT~1\AppData\Local\Temp\cc7zwTNO.s 			page 99


 5587 0067 3C       		.uleb128 0x3c
 5588 0068 19       		.uleb128 0x19
 5589 0069 00       		.byte	0
 5590 006a 00       		.byte	0
 5591 006b 0A       		.uleb128 0xa
 5592 006c 16       		.uleb128 0x16
 5593 006d 00       		.byte	0
 5594 006e 03       		.uleb128 0x3
 5595 006f 0E       		.uleb128 0xe
 5596 0070 3A       		.uleb128 0x3a
 5597 0071 0B       		.uleb128 0xb
 5598 0072 3B       		.uleb128 0x3b
 5599 0073 05       		.uleb128 0x5
 5600 0074 49       		.uleb128 0x49
 5601 0075 13       		.uleb128 0x13
 5602 0076 00       		.byte	0
 5603 0077 00       		.byte	0
 5604 0078 0B       		.uleb128 0xb
 5605 0079 17       		.uleb128 0x17
 5606 007a 01       		.byte	0x1
 5607 007b 0B       		.uleb128 0xb
 5608 007c 0B       		.uleb128 0xb
 5609 007d 3A       		.uleb128 0x3a
 5610 007e 0B       		.uleb128 0xb
 5611 007f 3B       		.uleb128 0x3b
 5612 0080 0B       		.uleb128 0xb
 5613 0081 01       		.uleb128 0x1
 5614 0082 13       		.uleb128 0x13
 5615 0083 00       		.byte	0
 5616 0084 00       		.byte	0
 5617 0085 0C       		.uleb128 0xc
 5618 0086 0D       		.uleb128 0xd
 5619 0087 00       		.byte	0
 5620 0088 03       		.uleb128 0x3
 5621 0089 0E       		.uleb128 0xe
 5622 008a 3A       		.uleb128 0x3a
 5623 008b 0B       		.uleb128 0xb
 5624 008c 3B       		.uleb128 0x3b
 5625 008d 0B       		.uleb128 0xb
 5626 008e 49       		.uleb128 0x49
 5627 008f 13       		.uleb128 0x13
 5628 0090 00       		.byte	0
 5629 0091 00       		.byte	0
 5630 0092 0D       		.uleb128 0xd
 5631 0093 01       		.uleb128 0x1
 5632 0094 01       		.byte	0x1
 5633 0095 49       		.uleb128 0x49
 5634 0096 13       		.uleb128 0x13
 5635 0097 01       		.uleb128 0x1
 5636 0098 13       		.uleb128 0x13
 5637 0099 00       		.byte	0
 5638 009a 00       		.byte	0
 5639 009b 0E       		.uleb128 0xe
 5640 009c 21       		.uleb128 0x21
 5641 009d 00       		.byte	0
 5642 009e 49       		.uleb128 0x49
 5643 009f 13       		.uleb128 0x13
ARM GAS  C:\Users\PCHAUT~1\AppData\Local\Temp\cc7zwTNO.s 			page 100


 5644 00a0 2F       		.uleb128 0x2f
 5645 00a1 0B       		.uleb128 0xb
 5646 00a2 00       		.byte	0
 5647 00a3 00       		.byte	0
 5648 00a4 0F       		.uleb128 0xf
 5649 00a5 13       		.uleb128 0x13
 5650 00a6 01       		.byte	0x1
 5651 00a7 0B       		.uleb128 0xb
 5652 00a8 0B       		.uleb128 0xb
 5653 00a9 3A       		.uleb128 0x3a
 5654 00aa 0B       		.uleb128 0xb
 5655 00ab 3B       		.uleb128 0x3b
 5656 00ac 0B       		.uleb128 0xb
 5657 00ad 01       		.uleb128 0x1
 5658 00ae 13       		.uleb128 0x13
 5659 00af 00       		.byte	0
 5660 00b0 00       		.byte	0
 5661 00b1 10       		.uleb128 0x10
 5662 00b2 0D       		.uleb128 0xd
 5663 00b3 00       		.byte	0
 5664 00b4 03       		.uleb128 0x3
 5665 00b5 0E       		.uleb128 0xe
 5666 00b6 3A       		.uleb128 0x3a
 5667 00b7 0B       		.uleb128 0xb
 5668 00b8 3B       		.uleb128 0x3b
 5669 00b9 0B       		.uleb128 0xb
 5670 00ba 49       		.uleb128 0x49
 5671 00bb 13       		.uleb128 0x13
 5672 00bc 38       		.uleb128 0x38
 5673 00bd 0B       		.uleb128 0xb
 5674 00be 00       		.byte	0
 5675 00bf 00       		.byte	0
 5676 00c0 11       		.uleb128 0x11
 5677 00c1 0F       		.uleb128 0xf
 5678 00c2 00       		.byte	0
 5679 00c3 0B       		.uleb128 0xb
 5680 00c4 0B       		.uleb128 0xb
 5681 00c5 00       		.byte	0
 5682 00c6 00       		.byte	0
 5683 00c7 12       		.uleb128 0x12
 5684 00c8 26       		.uleb128 0x26
 5685 00c9 00       		.byte	0
 5686 00ca 49       		.uleb128 0x49
 5687 00cb 13       		.uleb128 0x13
 5688 00cc 00       		.byte	0
 5689 00cd 00       		.byte	0
 5690 00ce 13       		.uleb128 0x13
 5691 00cf 13       		.uleb128 0x13
 5692 00d0 01       		.byte	0x1
 5693 00d1 03       		.uleb128 0x3
 5694 00d2 0E       		.uleb128 0xe
 5695 00d3 0B       		.uleb128 0xb
 5696 00d4 0B       		.uleb128 0xb
 5697 00d5 3A       		.uleb128 0x3a
 5698 00d6 0B       		.uleb128 0xb
 5699 00d7 3B       		.uleb128 0x3b
 5700 00d8 0B       		.uleb128 0xb
ARM GAS  C:\Users\PCHAUT~1\AppData\Local\Temp\cc7zwTNO.s 			page 101


 5701 00d9 01       		.uleb128 0x1
 5702 00da 13       		.uleb128 0x13
 5703 00db 00       		.byte	0
 5704 00dc 00       		.byte	0
 5705 00dd 14       		.uleb128 0x14
 5706 00de 0D       		.uleb128 0xd
 5707 00df 00       		.byte	0
 5708 00e0 03       		.uleb128 0x3
 5709 00e1 08       		.uleb128 0x8
 5710 00e2 3A       		.uleb128 0x3a
 5711 00e3 0B       		.uleb128 0xb
 5712 00e4 3B       		.uleb128 0x3b
 5713 00e5 0B       		.uleb128 0xb
 5714 00e6 49       		.uleb128 0x49
 5715 00e7 13       		.uleb128 0x13
 5716 00e8 38       		.uleb128 0x38
 5717 00e9 0B       		.uleb128 0xb
 5718 00ea 00       		.byte	0
 5719 00eb 00       		.byte	0
 5720 00ec 15       		.uleb128 0x15
 5721 00ed 13       		.uleb128 0x13
 5722 00ee 01       		.byte	0x1
 5723 00ef 03       		.uleb128 0x3
 5724 00f0 0E       		.uleb128 0xe
 5725 00f1 0B       		.uleb128 0xb
 5726 00f2 05       		.uleb128 0x5
 5727 00f3 3A       		.uleb128 0x3a
 5728 00f4 0B       		.uleb128 0xb
 5729 00f5 3B       		.uleb128 0x3b
 5730 00f6 0B       		.uleb128 0xb
 5731 00f7 01       		.uleb128 0x1
 5732 00f8 13       		.uleb128 0x13
 5733 00f9 00       		.byte	0
 5734 00fa 00       		.byte	0
 5735 00fb 16       		.uleb128 0x16
 5736 00fc 0D       		.uleb128 0xd
 5737 00fd 00       		.byte	0
 5738 00fe 03       		.uleb128 0x3
 5739 00ff 0E       		.uleb128 0xe
 5740 0100 3A       		.uleb128 0x3a
 5741 0101 0B       		.uleb128 0xb
 5742 0102 3B       		.uleb128 0x3b
 5743 0103 0B       		.uleb128 0xb
 5744 0104 49       		.uleb128 0x49
 5745 0105 13       		.uleb128 0x13
 5746 0106 38       		.uleb128 0x38
 5747 0107 05       		.uleb128 0x5
 5748 0108 00       		.byte	0
 5749 0109 00       		.byte	0
 5750 010a 17       		.uleb128 0x17
 5751 010b 15       		.uleb128 0x15
 5752 010c 00       		.byte	0
 5753 010d 27       		.uleb128 0x27
 5754 010e 19       		.uleb128 0x19
 5755 010f 00       		.byte	0
 5756 0110 00       		.byte	0
 5757 0111 18       		.uleb128 0x18
ARM GAS  C:\Users\PCHAUT~1\AppData\Local\Temp\cc7zwTNO.s 			page 102


 5758 0112 15       		.uleb128 0x15
 5759 0113 01       		.byte	0x1
 5760 0114 27       		.uleb128 0x27
 5761 0115 19       		.uleb128 0x19
 5762 0116 49       		.uleb128 0x49
 5763 0117 13       		.uleb128 0x13
 5764 0118 01       		.uleb128 0x1
 5765 0119 13       		.uleb128 0x13
 5766 011a 00       		.byte	0
 5767 011b 00       		.byte	0
 5768 011c 19       		.uleb128 0x19
 5769 011d 05       		.uleb128 0x5
 5770 011e 00       		.byte	0
 5771 011f 49       		.uleb128 0x49
 5772 0120 13       		.uleb128 0x13
 5773 0121 00       		.byte	0
 5774 0122 00       		.byte	0
 5775 0123 1A       		.uleb128 0x1a
 5776 0124 13       		.uleb128 0x13
 5777 0125 01       		.byte	0x1
 5778 0126 03       		.uleb128 0x3
 5779 0127 0E       		.uleb128 0xe
 5780 0128 0B       		.uleb128 0xb
 5781 0129 05       		.uleb128 0x5
 5782 012a 3A       		.uleb128 0x3a
 5783 012b 0B       		.uleb128 0xb
 5784 012c 3B       		.uleb128 0x3b
 5785 012d 05       		.uleb128 0x5
 5786 012e 01       		.uleb128 0x1
 5787 012f 13       		.uleb128 0x13
 5788 0130 00       		.byte	0
 5789 0131 00       		.byte	0
 5790 0132 1B       		.uleb128 0x1b
 5791 0133 0D       		.uleb128 0xd
 5792 0134 00       		.byte	0
 5793 0135 03       		.uleb128 0x3
 5794 0136 0E       		.uleb128 0xe
 5795 0137 3A       		.uleb128 0x3a
 5796 0138 0B       		.uleb128 0xb
 5797 0139 3B       		.uleb128 0x3b
 5798 013a 05       		.uleb128 0x5
 5799 013b 49       		.uleb128 0x49
 5800 013c 13       		.uleb128 0x13
 5801 013d 38       		.uleb128 0x38
 5802 013e 0B       		.uleb128 0xb
 5803 013f 00       		.byte	0
 5804 0140 00       		.byte	0
 5805 0141 1C       		.uleb128 0x1c
 5806 0142 0D       		.uleb128 0xd
 5807 0143 00       		.byte	0
 5808 0144 03       		.uleb128 0x3
 5809 0145 0E       		.uleb128 0xe
 5810 0146 3A       		.uleb128 0x3a
 5811 0147 0B       		.uleb128 0xb
 5812 0148 3B       		.uleb128 0x3b
 5813 0149 05       		.uleb128 0x5
 5814 014a 49       		.uleb128 0x49
ARM GAS  C:\Users\PCHAUT~1\AppData\Local\Temp\cc7zwTNO.s 			page 103


 5815 014b 13       		.uleb128 0x13
 5816 014c 38       		.uleb128 0x38
 5817 014d 05       		.uleb128 0x5
 5818 014e 00       		.byte	0
 5819 014f 00       		.byte	0
 5820 0150 1D       		.uleb128 0x1d
 5821 0151 13       		.uleb128 0x13
 5822 0152 01       		.byte	0x1
 5823 0153 03       		.uleb128 0x3
 5824 0154 0E       		.uleb128 0xe
 5825 0155 0B       		.uleb128 0xb
 5826 0156 0B       		.uleb128 0xb
 5827 0157 3A       		.uleb128 0x3a
 5828 0158 0B       		.uleb128 0xb
 5829 0159 3B       		.uleb128 0x3b
 5830 015a 05       		.uleb128 0x5
 5831 015b 01       		.uleb128 0x1
 5832 015c 13       		.uleb128 0x13
 5833 015d 00       		.byte	0
 5834 015e 00       		.byte	0
 5835 015f 1E       		.uleb128 0x1e
 5836 0160 13       		.uleb128 0x13
 5837 0161 01       		.byte	0x1
 5838 0162 0B       		.uleb128 0xb
 5839 0163 0B       		.uleb128 0xb
 5840 0164 3A       		.uleb128 0x3a
 5841 0165 0B       		.uleb128 0xb
 5842 0166 3B       		.uleb128 0x3b
 5843 0167 05       		.uleb128 0x5
 5844 0168 01       		.uleb128 0x1
 5845 0169 13       		.uleb128 0x13
 5846 016a 00       		.byte	0
 5847 016b 00       		.byte	0
 5848 016c 1F       		.uleb128 0x1f
 5849 016d 17       		.uleb128 0x17
 5850 016e 01       		.byte	0x1
 5851 016f 0B       		.uleb128 0xb
 5852 0170 0B       		.uleb128 0xb
 5853 0171 3A       		.uleb128 0x3a
 5854 0172 0B       		.uleb128 0xb
 5855 0173 3B       		.uleb128 0x3b
 5856 0174 05       		.uleb128 0x5
 5857 0175 01       		.uleb128 0x1
 5858 0176 13       		.uleb128 0x13
 5859 0177 00       		.byte	0
 5860 0178 00       		.byte	0
 5861 0179 20       		.uleb128 0x20
 5862 017a 0D       		.uleb128 0xd
 5863 017b 00       		.byte	0
 5864 017c 03       		.uleb128 0x3
 5865 017d 0E       		.uleb128 0xe
 5866 017e 3A       		.uleb128 0x3a
 5867 017f 0B       		.uleb128 0xb
 5868 0180 3B       		.uleb128 0x3b
 5869 0181 05       		.uleb128 0x5
 5870 0182 49       		.uleb128 0x49
 5871 0183 13       		.uleb128 0x13
ARM GAS  C:\Users\PCHAUT~1\AppData\Local\Temp\cc7zwTNO.s 			page 104


 5872 0184 00       		.byte	0
 5873 0185 00       		.byte	0
 5874 0186 21       		.uleb128 0x21
 5875 0187 15       		.uleb128 0x15
 5876 0188 01       		.byte	0x1
 5877 0189 27       		.uleb128 0x27
 5878 018a 19       		.uleb128 0x19
 5879 018b 01       		.uleb128 0x1
 5880 018c 13       		.uleb128 0x13
 5881 018d 00       		.byte	0
 5882 018e 00       		.byte	0
 5883 018f 22       		.uleb128 0x22
 5884 0190 34       		.uleb128 0x34
 5885 0191 00       		.byte	0
 5886 0192 03       		.uleb128 0x3
 5887 0193 0E       		.uleb128 0xe
 5888 0194 3A       		.uleb128 0x3a
 5889 0195 0B       		.uleb128 0xb
 5890 0196 3B       		.uleb128 0x3b
 5891 0197 05       		.uleb128 0x5
 5892 0198 49       		.uleb128 0x49
 5893 0199 13       		.uleb128 0x13
 5894 019a 3F       		.uleb128 0x3f
 5895 019b 19       		.uleb128 0x19
 5896 019c 3C       		.uleb128 0x3c
 5897 019d 19       		.uleb128 0x19
 5898 019e 00       		.byte	0
 5899 019f 00       		.byte	0
 5900 01a0 23       		.uleb128 0x23
 5901 01a1 34       		.uleb128 0x34
 5902 01a2 00       		.byte	0
 5903 01a3 03       		.uleb128 0x3
 5904 01a4 0E       		.uleb128 0xe
 5905 01a5 3A       		.uleb128 0x3a
 5906 01a6 0B       		.uleb128 0xb
 5907 01a7 3B       		.uleb128 0x3b
 5908 01a8 0B       		.uleb128 0xb
 5909 01a9 49       		.uleb128 0x49
 5910 01aa 13       		.uleb128 0x13
 5911 01ab 3F       		.uleb128 0x3f
 5912 01ac 19       		.uleb128 0x19
 5913 01ad 3C       		.uleb128 0x3c
 5914 01ae 19       		.uleb128 0x19
 5915 01af 00       		.byte	0
 5916 01b0 00       		.byte	0
 5917 01b1 24       		.uleb128 0x24
 5918 01b2 2E       		.uleb128 0x2e
 5919 01b3 01       		.byte	0x1
 5920 01b4 3F       		.uleb128 0x3f
 5921 01b5 19       		.uleb128 0x19
 5922 01b6 03       		.uleb128 0x3
 5923 01b7 0E       		.uleb128 0xe
 5924 01b8 3A       		.uleb128 0x3a
 5925 01b9 0B       		.uleb128 0xb
 5926 01ba 3B       		.uleb128 0x3b
 5927 01bb 05       		.uleb128 0x5
 5928 01bc 27       		.uleb128 0x27
ARM GAS  C:\Users\PCHAUT~1\AppData\Local\Temp\cc7zwTNO.s 			page 105


 5929 01bd 19       		.uleb128 0x19
 5930 01be 49       		.uleb128 0x49
 5931 01bf 13       		.uleb128 0x13
 5932 01c0 11       		.uleb128 0x11
 5933 01c1 01       		.uleb128 0x1
 5934 01c2 12       		.uleb128 0x12
 5935 01c3 06       		.uleb128 0x6
 5936 01c4 40       		.uleb128 0x40
 5937 01c5 18       		.uleb128 0x18
 5938 01c6 9642     		.uleb128 0x2116
 5939 01c8 19       		.uleb128 0x19
 5940 01c9 01       		.uleb128 0x1
 5941 01ca 13       		.uleb128 0x13
 5942 01cb 00       		.byte	0
 5943 01cc 00       		.byte	0
 5944 01cd 25       		.uleb128 0x25
 5945 01ce 05       		.uleb128 0x5
 5946 01cf 00       		.byte	0
 5947 01d0 03       		.uleb128 0x3
 5948 01d1 08       		.uleb128 0x8
 5949 01d2 3A       		.uleb128 0x3a
 5950 01d3 0B       		.uleb128 0xb
 5951 01d4 3B       		.uleb128 0x3b
 5952 01d5 05       		.uleb128 0x5
 5953 01d6 49       		.uleb128 0x49
 5954 01d7 13       		.uleb128 0x13
 5955 01d8 02       		.uleb128 0x2
 5956 01d9 18       		.uleb128 0x18
 5957 01da 00       		.byte	0
 5958 01db 00       		.byte	0
 5959 01dc 26       		.uleb128 0x26
 5960 01dd 05       		.uleb128 0x5
 5961 01de 00       		.byte	0
 5962 01df 03       		.uleb128 0x3
 5963 01e0 0E       		.uleb128 0xe
 5964 01e1 3A       		.uleb128 0x3a
 5965 01e2 0B       		.uleb128 0xb
 5966 01e3 3B       		.uleb128 0x3b
 5967 01e4 05       		.uleb128 0x5
 5968 01e5 49       		.uleb128 0x49
 5969 01e6 13       		.uleb128 0x13
 5970 01e7 02       		.uleb128 0x2
 5971 01e8 18       		.uleb128 0x18
 5972 01e9 00       		.byte	0
 5973 01ea 00       		.byte	0
 5974 01eb 27       		.uleb128 0x27
 5975 01ec 34       		.uleb128 0x34
 5976 01ed 00       		.byte	0
 5977 01ee 03       		.uleb128 0x3
 5978 01ef 0E       		.uleb128 0xe
 5979 01f0 3A       		.uleb128 0x3a
 5980 01f1 0B       		.uleb128 0xb
 5981 01f2 3B       		.uleb128 0x3b
 5982 01f3 05       		.uleb128 0x5
 5983 01f4 49       		.uleb128 0x49
 5984 01f5 13       		.uleb128 0x13
 5985 01f6 02       		.uleb128 0x2
ARM GAS  C:\Users\PCHAUT~1\AppData\Local\Temp\cc7zwTNO.s 			page 106


 5986 01f7 18       		.uleb128 0x18
 5987 01f8 00       		.byte	0
 5988 01f9 00       		.byte	0
 5989 01fa 28       		.uleb128 0x28
 5990 01fb 0B       		.uleb128 0xb
 5991 01fc 01       		.byte	0x1
 5992 01fd 11       		.uleb128 0x11
 5993 01fe 01       		.uleb128 0x1
 5994 01ff 12       		.uleb128 0x12
 5995 0200 06       		.uleb128 0x6
 5996 0201 00       		.byte	0
 5997 0202 00       		.byte	0
 5998 0203 29       		.uleb128 0x29
 5999 0204 2E       		.uleb128 0x2e
 6000 0205 01       		.byte	0x1
 6001 0206 3F       		.uleb128 0x3f
 6002 0207 19       		.uleb128 0x19
 6003 0208 03       		.uleb128 0x3
 6004 0209 0E       		.uleb128 0xe
 6005 020a 3A       		.uleb128 0x3a
 6006 020b 0B       		.uleb128 0xb
 6007 020c 3B       		.uleb128 0x3b
 6008 020d 05       		.uleb128 0x5
 6009 020e 27       		.uleb128 0x27
 6010 020f 19       		.uleb128 0x19
 6011 0210 11       		.uleb128 0x11
 6012 0211 01       		.uleb128 0x1
 6013 0212 12       		.uleb128 0x12
 6014 0213 06       		.uleb128 0x6
 6015 0214 40       		.uleb128 0x40
 6016 0215 18       		.uleb128 0x18
 6017 0216 9642     		.uleb128 0x2116
 6018 0218 19       		.uleb128 0x19
 6019 0219 01       		.uleb128 0x1
 6020 021a 13       		.uleb128 0x13
 6021 021b 00       		.byte	0
 6022 021c 00       		.byte	0
 6023 021d 2A       		.uleb128 0x2a
 6024 021e 0B       		.uleb128 0xb
 6025 021f 01       		.byte	0x1
 6026 0220 55       		.uleb128 0x55
 6027 0221 17       		.uleb128 0x17
 6028 0222 01       		.uleb128 0x1
 6029 0223 13       		.uleb128 0x13
 6030 0224 00       		.byte	0
 6031 0225 00       		.byte	0
 6032 0226 2B       		.uleb128 0x2b
 6033 0227 0B       		.uleb128 0xb
 6034 0228 01       		.byte	0x1
 6035 0229 11       		.uleb128 0x11
 6036 022a 01       		.uleb128 0x1
 6037 022b 12       		.uleb128 0x12
 6038 022c 06       		.uleb128 0x6
 6039 022d 01       		.uleb128 0x1
 6040 022e 13       		.uleb128 0x13
 6041 022f 00       		.byte	0
 6042 0230 00       		.byte	0
ARM GAS  C:\Users\PCHAUT~1\AppData\Local\Temp\cc7zwTNO.s 			page 107


 6043 0231 2C       		.uleb128 0x2c
 6044 0232 34       		.uleb128 0x34
 6045 0233 00       		.byte	0
 6046 0234 03       		.uleb128 0x3
 6047 0235 08       		.uleb128 0x8
 6048 0236 3A       		.uleb128 0x3a
 6049 0237 0B       		.uleb128 0xb
 6050 0238 3B       		.uleb128 0x3b
 6051 0239 05       		.uleb128 0x5
 6052 023a 49       		.uleb128 0x49
 6053 023b 13       		.uleb128 0x13
 6054 023c 02       		.uleb128 0x2
 6055 023d 18       		.uleb128 0x18
 6056 023e 00       		.byte	0
 6057 023f 00       		.byte	0
 6058 0240 2D       		.uleb128 0x2d
 6059 0241 2E       		.uleb128 0x2e
 6060 0242 01       		.byte	0x1
 6061 0243 03       		.uleb128 0x3
 6062 0244 0E       		.uleb128 0xe
 6063 0245 3A       		.uleb128 0x3a
 6064 0246 0B       		.uleb128 0xb
 6065 0247 3B       		.uleb128 0x3b
 6066 0248 05       		.uleb128 0x5
 6067 0249 27       		.uleb128 0x27
 6068 024a 19       		.uleb128 0x19
 6069 024b 11       		.uleb128 0x11
 6070 024c 01       		.uleb128 0x1
 6071 024d 12       		.uleb128 0x12
 6072 024e 06       		.uleb128 0x6
 6073 024f 40       		.uleb128 0x40
 6074 0250 18       		.uleb128 0x18
 6075 0251 9642     		.uleb128 0x2116
 6076 0253 19       		.uleb128 0x19
 6077 0254 01       		.uleb128 0x1
 6078 0255 13       		.uleb128 0x13
 6079 0256 00       		.byte	0
 6080 0257 00       		.byte	0
 6081 0258 2E       		.uleb128 0x2e
 6082 0259 21       		.uleb128 0x21
 6083 025a 00       		.byte	0
 6084 025b 49       		.uleb128 0x49
 6085 025c 13       		.uleb128 0x13
 6086 025d 2F       		.uleb128 0x2f
 6087 025e 18       		.uleb128 0x18
 6088 025f 00       		.byte	0
 6089 0260 00       		.byte	0
 6090 0261 2F       		.uleb128 0x2f
 6091 0262 2E       		.uleb128 0x2e
 6092 0263 01       		.byte	0x1
 6093 0264 3F       		.uleb128 0x3f
 6094 0265 19       		.uleb128 0x19
 6095 0266 03       		.uleb128 0x3
 6096 0267 0E       		.uleb128 0xe
 6097 0268 3A       		.uleb128 0x3a
 6098 0269 0B       		.uleb128 0xb
 6099 026a 3B       		.uleb128 0x3b
ARM GAS  C:\Users\PCHAUT~1\AppData\Local\Temp\cc7zwTNO.s 			page 108


 6100 026b 0B       		.uleb128 0xb
 6101 026c 27       		.uleb128 0x27
 6102 026d 19       		.uleb128 0x19
 6103 026e 11       		.uleb128 0x11
 6104 026f 01       		.uleb128 0x1
 6105 0270 12       		.uleb128 0x12
 6106 0271 06       		.uleb128 0x6
 6107 0272 40       		.uleb128 0x40
 6108 0273 18       		.uleb128 0x18
 6109 0274 9642     		.uleb128 0x2116
 6110 0276 19       		.uleb128 0x19
 6111 0277 01       		.uleb128 0x1
 6112 0278 13       		.uleb128 0x13
 6113 0279 00       		.byte	0
 6114 027a 00       		.byte	0
 6115 027b 30       		.uleb128 0x30
 6116 027c 05       		.uleb128 0x5
 6117 027d 00       		.byte	0
 6118 027e 03       		.uleb128 0x3
 6119 027f 08       		.uleb128 0x8
 6120 0280 3A       		.uleb128 0x3a
 6121 0281 0B       		.uleb128 0xb
 6122 0282 3B       		.uleb128 0x3b
 6123 0283 0B       		.uleb128 0xb
 6124 0284 49       		.uleb128 0x49
 6125 0285 13       		.uleb128 0x13
 6126 0286 02       		.uleb128 0x2
 6127 0287 18       		.uleb128 0x18
 6128 0288 00       		.byte	0
 6129 0289 00       		.byte	0
 6130 028a 31       		.uleb128 0x31
 6131 028b 34       		.uleb128 0x34
 6132 028c 00       		.byte	0
 6133 028d 03       		.uleb128 0x3
 6134 028e 0E       		.uleb128 0xe
 6135 028f 3A       		.uleb128 0x3a
 6136 0290 0B       		.uleb128 0xb
 6137 0291 3B       		.uleb128 0x3b
 6138 0292 0B       		.uleb128 0xb
 6139 0293 49       		.uleb128 0x49
 6140 0294 13       		.uleb128 0x13
 6141 0295 02       		.uleb128 0x2
 6142 0296 18       		.uleb128 0x18
 6143 0297 00       		.byte	0
 6144 0298 00       		.byte	0
 6145 0299 32       		.uleb128 0x32
 6146 029a 0B       		.uleb128 0xb
 6147 029b 01       		.byte	0x1
 6148 029c 55       		.uleb128 0x55
 6149 029d 17       		.uleb128 0x17
 6150 029e 00       		.byte	0
 6151 029f 00       		.byte	0
 6152 02a0 33       		.uleb128 0x33
 6153 02a1 2E       		.uleb128 0x2e
 6154 02a2 01       		.byte	0x1
 6155 02a3 03       		.uleb128 0x3
 6156 02a4 0E       		.uleb128 0xe
ARM GAS  C:\Users\PCHAUT~1\AppData\Local\Temp\cc7zwTNO.s 			page 109


 6157 02a5 3A       		.uleb128 0x3a
 6158 02a6 0B       		.uleb128 0xb
 6159 02a7 3B       		.uleb128 0x3b
 6160 02a8 0B       		.uleb128 0xb
 6161 02a9 27       		.uleb128 0x27
 6162 02aa 19       		.uleb128 0x19
 6163 02ab 49       		.uleb128 0x49
 6164 02ac 13       		.uleb128 0x13
 6165 02ad 11       		.uleb128 0x11
 6166 02ae 01       		.uleb128 0x1
 6167 02af 12       		.uleb128 0x12
 6168 02b0 06       		.uleb128 0x6
 6169 02b1 40       		.uleb128 0x40
 6170 02b2 18       		.uleb128 0x18
 6171 02b3 9642     		.uleb128 0x2116
 6172 02b5 19       		.uleb128 0x19
 6173 02b6 01       		.uleb128 0x1
 6174 02b7 13       		.uleb128 0x13
 6175 02b8 00       		.byte	0
 6176 02b9 00       		.byte	0
 6177 02ba 34       		.uleb128 0x34
 6178 02bb 05       		.uleb128 0x5
 6179 02bc 00       		.byte	0
 6180 02bd 03       		.uleb128 0x3
 6181 02be 0E       		.uleb128 0xe
 6182 02bf 3A       		.uleb128 0x3a
 6183 02c0 0B       		.uleb128 0xb
 6184 02c1 3B       		.uleb128 0x3b
 6185 02c2 0B       		.uleb128 0xb
 6186 02c3 49       		.uleb128 0x49
 6187 02c4 13       		.uleb128 0x13
 6188 02c5 02       		.uleb128 0x2
 6189 02c6 18       		.uleb128 0x18
 6190 02c7 00       		.byte	0
 6191 02c8 00       		.byte	0
 6192 02c9 35       		.uleb128 0x35
 6193 02ca 2E       		.uleb128 0x2e
 6194 02cb 01       		.byte	0x1
 6195 02cc 3F       		.uleb128 0x3f
 6196 02cd 19       		.uleb128 0x19
 6197 02ce 03       		.uleb128 0x3
 6198 02cf 0E       		.uleb128 0xe
 6199 02d0 3A       		.uleb128 0x3a
 6200 02d1 0B       		.uleb128 0xb
 6201 02d2 3B       		.uleb128 0x3b
 6202 02d3 0B       		.uleb128 0xb
 6203 02d4 27       		.uleb128 0x27
 6204 02d5 19       		.uleb128 0x19
 6205 02d6 49       		.uleb128 0x49
 6206 02d7 13       		.uleb128 0x13
 6207 02d8 11       		.uleb128 0x11
 6208 02d9 01       		.uleb128 0x1
 6209 02da 12       		.uleb128 0x12
 6210 02db 06       		.uleb128 0x6
 6211 02dc 40       		.uleb128 0x40
 6212 02dd 18       		.uleb128 0x18
 6213 02de 9642     		.uleb128 0x2116
ARM GAS  C:\Users\PCHAUT~1\AppData\Local\Temp\cc7zwTNO.s 			page 110


 6214 02e0 19       		.uleb128 0x19
 6215 02e1 01       		.uleb128 0x1
 6216 02e2 13       		.uleb128 0x13
 6217 02e3 00       		.byte	0
 6218 02e4 00       		.byte	0
 6219 02e5 36       		.uleb128 0x36
 6220 02e6 34       		.uleb128 0x34
 6221 02e7 00       		.byte	0
 6222 02e8 03       		.uleb128 0x3
 6223 02e9 08       		.uleb128 0x8
 6224 02ea 3A       		.uleb128 0x3a
 6225 02eb 0B       		.uleb128 0xb
 6226 02ec 3B       		.uleb128 0x3b
 6227 02ed 0B       		.uleb128 0xb
 6228 02ee 49       		.uleb128 0x49
 6229 02ef 13       		.uleb128 0x13
 6230 02f0 02       		.uleb128 0x2
 6231 02f1 18       		.uleb128 0x18
 6232 02f2 00       		.byte	0
 6233 02f3 00       		.byte	0
 6234 02f4 37       		.uleb128 0x37
 6235 02f5 2E       		.uleb128 0x2e
 6236 02f6 01       		.byte	0x1
 6237 02f7 3F       		.uleb128 0x3f
 6238 02f8 19       		.uleb128 0x19
 6239 02f9 03       		.uleb128 0x3
 6240 02fa 0E       		.uleb128 0xe
 6241 02fb 3A       		.uleb128 0x3a
 6242 02fc 0B       		.uleb128 0xb
 6243 02fd 3B       		.uleb128 0x3b
 6244 02fe 0B       		.uleb128 0xb
 6245 02ff 27       		.uleb128 0x27
 6246 0300 19       		.uleb128 0x19
 6247 0301 11       		.uleb128 0x11
 6248 0302 01       		.uleb128 0x1
 6249 0303 12       		.uleb128 0x12
 6250 0304 06       		.uleb128 0x6
 6251 0305 40       		.uleb128 0x40
 6252 0306 18       		.uleb128 0x18
 6253 0307 9642     		.uleb128 0x2116
 6254 0309 19       		.uleb128 0x19
 6255 030a 00       		.byte	0
 6256 030b 00       		.byte	0
 6257 030c 00       		.byte	0
 6258              		.section	.debug_aranges,"",%progbits
 6259 0000 A4000000 		.4byte	0xa4
 6260 0004 0200     		.2byte	0x2
 6261 0006 00000000 		.4byte	.Ldebug_info0
 6262 000a 04       		.byte	0x4
 6263 000b 00       		.byte	0
 6264 000c 0000     		.2byte	0
 6265 000e 0000     		.2byte	0
 6266 0010 00000000 		.4byte	.LFB0
 6267 0014 54000000 		.4byte	.LFE0-.LFB0
 6268 0018 00000000 		.4byte	.LFB1
 6269 001c 80000000 		.4byte	.LFE1-.LFB1
 6270 0020 00000000 		.4byte	.LFB2
ARM GAS  C:\Users\PCHAUT~1\AppData\Local\Temp\cc7zwTNO.s 			page 111


 6271 0024 98000000 		.4byte	.LFE2-.LFB2
 6272 0028 00000000 		.4byte	.LFB3
 6273 002c 5C020000 		.4byte	.LFE3-.LFB3
 6274 0030 00000000 		.4byte	.LFB4
 6275 0034 68000000 		.4byte	.LFE4-.LFB4
 6276 0038 00000000 		.4byte	.LFB5
 6277 003c 28060000 		.4byte	.LFE5-.LFB5
 6278 0040 00000000 		.4byte	.LFB6
 6279 0044 CC000000 		.4byte	.LFE6-.LFB6
 6280 0048 00000000 		.4byte	.LFB7
 6281 004c 70000000 		.4byte	.LFE7-.LFB7
 6282 0050 00000000 		.4byte	.LFB8
 6283 0054 A4000000 		.4byte	.LFE8-.LFB8
 6284 0058 00000000 		.4byte	.LFB9
 6285 005c E4000000 		.4byte	.LFE9-.LFB9
 6286 0060 00000000 		.4byte	.LFB10
 6287 0064 70000000 		.4byte	.LFE10-.LFB10
 6288 0068 00000000 		.4byte	.LFB11
 6289 006c 54000000 		.4byte	.LFE11-.LFB11
 6290 0070 00000000 		.4byte	.LFB12
 6291 0074 B4000000 		.4byte	.LFE12-.LFB12
 6292 0078 00000000 		.4byte	.LFB13
 6293 007c 2C000000 		.4byte	.LFE13-.LFB13
 6294 0080 00000000 		.4byte	.LFB14
 6295 0084 44000000 		.4byte	.LFE14-.LFB14
 6296 0088 00000000 		.4byte	.LFB15
 6297 008c 84000000 		.4byte	.LFE15-.LFB15
 6298 0090 00000000 		.4byte	.LFB16
 6299 0094 E8020000 		.4byte	.LFE16-.LFB16
 6300 0098 00000000 		.4byte	.LFB17
 6301 009c A0000000 		.4byte	.LFE17-.LFB17
 6302 00a0 00000000 		.4byte	0
 6303 00a4 00000000 		.4byte	0
 6304              		.section	.debug_ranges,"",%progbits
 6305              	.Ldebug_ranges0:
 6306 0000 98010000 		.4byte	.LBB5
 6307 0004 4C020000 		.4byte	.LBE5
 6308 0008 06060000 		.4byte	.LBB17
 6309 000c 0A060000 		.4byte	.LBE17
 6310 0010 00000000 		.4byte	0
 6311 0014 00000000 		.4byte	0
 6312 0018 DA010000 		.4byte	.LBB6
 6313 001c 1A020000 		.4byte	.LBE6
 6314 0020 06060000 		.4byte	.LBB7
 6315 0024 0A060000 		.4byte	.LBE7
 6316 0028 00000000 		.4byte	0
 6317 002c 00000000 		.4byte	0
 6318 0030 58020000 		.4byte	.LBB8
 6319 0034 2A030000 		.4byte	.LBE8
 6320 0038 0A060000 		.4byte	.LBB18
 6321 003c 0C060000 		.4byte	.LBE18
 6322 0040 00000000 		.4byte	0
 6323 0044 00000000 		.4byte	0
 6324 0048 B4020000 		.4byte	.LBB9
 6325 004c F4020000 		.4byte	.LBE9
 6326 0050 0A060000 		.4byte	.LBB10
 6327 0054 0C060000 		.4byte	.LBE10
ARM GAS  C:\Users\PCHAUT~1\AppData\Local\Temp\cc7zwTNO.s 			page 112


 6328 0058 00000000 		.4byte	0
 6329 005c 00000000 		.4byte	0
 6330 0060 26000000 		.4byte	.LBB21
 6331 0064 40000000 		.4byte	.LBE21
 6332 0068 AE020000 		.4byte	.LBB27
 6333 006c B2020000 		.4byte	.LBE27
 6334 0070 00000000 		.4byte	0
 6335 0074 00000000 		.4byte	0
 6336 0078 00000000 		.4byte	.LFB0
 6337 007c 54000000 		.4byte	.LFE0
 6338 0080 00000000 		.4byte	.LFB1
 6339 0084 80000000 		.4byte	.LFE1
 6340 0088 00000000 		.4byte	.LFB2
 6341 008c 98000000 		.4byte	.LFE2
 6342 0090 00000000 		.4byte	.LFB3
 6343 0094 5C020000 		.4byte	.LFE3
 6344 0098 00000000 		.4byte	.LFB4
 6345 009c 68000000 		.4byte	.LFE4
 6346 00a0 00000000 		.4byte	.LFB5
 6347 00a4 28060000 		.4byte	.LFE5
 6348 00a8 00000000 		.4byte	.LFB6
 6349 00ac CC000000 		.4byte	.LFE6
 6350 00b0 00000000 		.4byte	.LFB7
 6351 00b4 70000000 		.4byte	.LFE7
 6352 00b8 00000000 		.4byte	.LFB8
 6353 00bc A4000000 		.4byte	.LFE8
 6354 00c0 00000000 		.4byte	.LFB9
 6355 00c4 E4000000 		.4byte	.LFE9
 6356 00c8 00000000 		.4byte	.LFB10
 6357 00cc 70000000 		.4byte	.LFE10
 6358 00d0 00000000 		.4byte	.LFB11
 6359 00d4 54000000 		.4byte	.LFE11
 6360 00d8 00000000 		.4byte	.LFB12
 6361 00dc B4000000 		.4byte	.LFE12
 6362 00e0 00000000 		.4byte	.LFB13
 6363 00e4 2C000000 		.4byte	.LFE13
 6364 00e8 00000000 		.4byte	.LFB14
 6365 00ec 44000000 		.4byte	.LFE14
 6366 00f0 00000000 		.4byte	.LFB15
 6367 00f4 84000000 		.4byte	.LFE15
 6368 00f8 00000000 		.4byte	.LFB16
 6369 00fc E8020000 		.4byte	.LFE16
 6370 0100 00000000 		.4byte	.LFB17
 6371 0104 A0000000 		.4byte	.LFE17
 6372 0108 00000000 		.4byte	0
 6373 010c 00000000 		.4byte	0
 6374              		.section	.debug_line,"",%progbits
 6375              	.Ldebug_line0:
 6376 0000 FA050000 		.section	.debug_str,"MS",%progbits,1
 6376      02005402 
 6376      00000201 
 6376      FB0E0D00 
 6376      01010101 
 6377              	.LASF120:
 6378 0000 5F64736F 		.ascii	"_dso_handle\000"
 6378      5F68616E 
 6378      646C6500 
ARM GAS  C:\Users\PCHAUT~1\AppData\Local\Temp\cc7zwTNO.s 			page 113


 6379              	.LASF208:
 6380 000c 62797465 		.ascii	"bytecodeSize\000"
 6380      636F6465 
 6380      53697A65 
 6380      00
 6381              	.LASF204:
 6382 0019 75696E74 		.ascii	"uint16\000"
 6382      313600
 6383              	.LASF35:
 6384 0020 41534542 		.ascii	"ASEBA_UNARY_OP_BIT_NOT\000"
 6384      415F554E 
 6384      4152595F 
 6384      4F505F42 
 6384      49545F4E 
 6385              	.LASF242:
 6386 0037 76616C75 		.ascii	"value\000"
 6386      6500
 6387              	.LASF28:
 6388 003d 41534542 		.ascii	"ASEBA_OP_BIGGER_EQUAL_THAN\000"
 6388      415F4F50 
 6388      5F424947 
 6388      4745525F 
 6388      45515541 
 6389              	.LASF25:
 6390 0058 41534542 		.ascii	"ASEBA_OP_EQUAL\000"
 6390      415F4F50 
 6390      5F455155 
 6390      414C00
 6391              	.LASF66:
 6392 0067 41534542 		.ascii	"ASEBA_MESSAGE_RESET\000"
 6392      415F4D45 
 6392      53534147 
 6392      455F5245 
 6392      53455400 
 6393              	.LASF211:
 6394 007b 76617269 		.ascii	"variables\000"
 6394      61626C65 
 6394      7300
 6395              	.LASF172:
 6396 0085 5F72616E 		.ascii	"_rand48\000"
 6396      64343800 
 6397              	.LASF152:
 6398 008d 5F656D65 		.ascii	"_emergency\000"
 6398      7267656E 
 6398      637900
 6399              	.LASF164:
 6400 0098 5F617465 		.ascii	"_atexit0\000"
 6400      78697430 
 6400      00
 6401              	.LASF227:
 6402 00a1 41736562 		.ascii	"AsebaVMDebugMessage\000"
 6402      61564D44 
 6402      65627567 
 6402      4D657373 
 6402      61676500 
 6403              	.LASF142:
 6404 00b5 5F646174 		.ascii	"_data\000"
ARM GAS  C:\Users\PCHAUT~1\AppData\Local\Temp\cc7zwTNO.s 			page 114


 6404      6100
 6405              	.LASF38:
 6406 00bb 41534542 		.ascii	"ASEBA_VM_STEP_BY_STEP_MASK\000"
 6406      415F564D 
 6406      5F535445 
 6406      505F4259 
 6406      5F535445 
 6407              	.LASF33:
 6408 00d6 41534542 		.ascii	"ASEBA_UNARY_OP_SUB\000"
 6408      415F554E 
 6408      4152595F 
 6408      4F505F53 
 6408      554200
 6409              	.LASF192:
 6410 00e9 5F776372 		.ascii	"_wcrtomb_state\000"
 6410      746F6D62 
 6410      5F737461 
 6410      746500
 6411              	.LASF237:
 6412 00f8 41736562 		.ascii	"AsebaVMCheckBreakpoint\000"
 6412      61564D43 
 6412      6865636B 
 6412      42726561 
 6412      6B706F69 
 6413              	.LASF79:
 6414 010f 41534542 		.ascii	"ASEBA_MESSAGE_SUSPEND_TO_RAM\000"
 6414      415F4D45 
 6414      53534147 
 6414      455F5355 
 6414      5350454E 
 6415              	.LASF210:
 6416 012c 76617269 		.ascii	"variablesSize\000"
 6416      61626C65 
 6416      7353697A 
 6416      6500
 6417              	.LASF90:
 6418 013a 6C6F6E67 		.ascii	"long long unsigned int\000"
 6418      206C6F6E 
 6418      6720756E 
 6418      7369676E 
 6418      65642069 
 6419              	.LASF244:
 6420 0151 61727261 		.ascii	"arrayIndex\000"
 6420      79496E64 
 6420      657800
 6421              	.LASF60:
 6422 015c 41534542 		.ascii	"ASEBA_MESSAGE_NODE_SPECIFIC_ERROR\000"
 6422      415F4D45 
 6422      53534147 
 6422      455F4E4F 
 6422      44455F53 
 6423              	.LASF219:
 6424 017e 64617461 		.ascii	"data\000"
 6424      00
 6425              	.LASF241:
 6426 0183 41736562 		.ascii	"AsebaVMStep\000"
 6426      61564D53 
ARM GAS  C:\Users\PCHAUT~1\AppData\Local\Temp\cc7zwTNO.s 			page 115


 6426      74657000 
 6427              	.LASF199:
 6428 018f 5F5F6C6F 		.ascii	"__locale_t\000"
 6428      63616C65 
 6428      5F7400
 6429              	.LASF230:
 6430 019a 41736562 		.ascii	"AsebaVMShouldDropPacket\000"
 6430      61564D53 
 6430      686F756C 
 6430      6444726F 
 6430      70506163 
 6431              	.LASF246:
 6432 01b2 76617269 		.ascii	"variableValue\000"
 6432      61626C65 
 6432      56616C75 
 6432      6500
 6433              	.LASF61:
 6434 01c0 41534542 		.ascii	"ASEBA_MESSAGE_EXECUTION_STATE_CHANGED\000"
 6434      415F4D45 
 6434      53534147 
 6434      455F4558 
 6434      45435554 
 6435              	.LASF190:
 6436 01e6 5F6D6272 		.ascii	"_mbrtowc_state\000"
 6436      746F7763 
 6436      5F737461 
 6436      746500
 6437              	.LASF223:
 6438 01f5 70726F74 		.ascii	"protocolVersion\000"
 6438      6F636F6C 
 6438      56657273 
 6438      696F6E00 
 6439              	.LASF255:
 6440 0205 6576656E 		.ascii	"event\000"
 6440      7400
 6441              	.LASF236:
 6442 020b 41736562 		.ascii	"AsebaDebugBareRun\000"
 6442      61446562 
 6442      75674261 
 6442      72655275 
 6442      6E00
 6443              	.LASF109:
 6444 021d 5F5F746D 		.ascii	"__tm_sec\000"
 6444      5F736563 
 6444      00
 6445              	.LASF48:
 6446 0226 41534542 		.ascii	"ASEBA_MESSAGE_BOOTLOADER_DESCRIPTION\000"
 6446      415F4D45 
 6446      53534147 
 6446      455F424F 
 6446      4F544C4F 
 6447              	.LASF47:
 6448 024b 41534542 		.ascii	"ASEBA_MESSAGE_BOOTLOADER_PAGE_DATA_WRITE\000"
 6448      415F4D45 
 6448      53534147 
 6448      455F424F 
 6448      4F544C4F 
ARM GAS  C:\Users\PCHAUT~1\AppData\Local\Temp\cc7zwTNO.s 			page 116


 6449              	.LASF86:
 6450 0274 7369676E 		.ascii	"signed char\000"
 6450      65642063 
 6450      68617200 
 6451              	.LASF1:
 6452 0280 41534542 		.ascii	"ASEBA_BYTECODE_SMALL_IMMEDIATE\000"
 6452      415F4259 
 6452      5445434F 
 6452      44455F53 
 6452      4D414C4C 
 6453              	.LASF138:
 6454 029f 5F756275 		.ascii	"_ubuf\000"
 6454      6600
 6455              	.LASF127:
 6456 02a5 5F626173 		.ascii	"_base\000"
 6456      6500
 6457              	.LASF67:
 6458 02ab 41534542 		.ascii	"ASEBA_MESSAGE_RUN\000"
 6458      415F4D45 
 6458      53534147 
 6458      455F5255 
 6458      4E00
 6459              	.LASF95:
 6460 02bd 5F5F7763 		.ascii	"__wch\000"
 6460      6800
 6461              	.LASF167:
 6462 02c3 5F5F7366 		.ascii	"__sf\000"
 6462      00
 6463              	.LASF118:
 6464 02c8 5F6F6E5F 		.ascii	"_on_exit_args\000"
 6464      65786974 
 6464      5F617267 
 6464      7300
 6465              	.LASF64:
 6466 02d6 41534542 		.ascii	"ASEBA_MESSAGE_GET_DESCRIPTION\000"
 6466      415F4D45 
 6466      53534147 
 6466      455F4745 
 6466      545F4445 
 6467              	.LASF40:
 6468 02f4 41534542 		.ascii	"ASEBA_EVENT_INIT\000"
 6468      415F4556 
 6468      454E545F 
 6468      494E4954 
 6468      00
 6469              	.LASF133:
 6470 0305 5F636F6F 		.ascii	"_cookie\000"
 6470      6B696500 
 6471              	.LASF206:
 6472 030d 41534542 		.ascii	"ASEBA_MAX_BREAKPOINTS\000"
 6472      415F4D41 
 6472      585F4252 
 6472      45414B50 
 6472      4F494E54 
 6473              	.LASF166:
 6474 0323 5F5F7367 		.ascii	"__sglue\000"
 6474      6C756500 
ARM GAS  C:\Users\PCHAUT~1\AppData\Local\Temp\cc7zwTNO.s 			page 117


 6475              	.LASF88:
 6476 032b 6C6F6E67 		.ascii	"long int\000"
 6476      20696E74 
 6476      00
 6477              	.LASF200:
 6478 0334 5F696D70 		.ascii	"_impure_ptr\000"
 6478      7572655F 
 6478      70747200 
 6479              	.LASF259:
 6480 0340 474E5520 		.ascii	"GNU C11 7.2.1 20170904 (release) [ARM/embedded-7-br"
 6480      43313120 
 6480      372E322E 
 6480      31203230 
 6480      31373039 
 6481 0373 616E6368 		.ascii	"anch revision 255204] -mcpu=cortex-m4 -mfloat-abi=h"
 6481      20726576 
 6481      6973696F 
 6481      6E203235 
 6481      35323034 
 6482 03a6 61726420 		.ascii	"ard -mfpu=fpv4-sp-d16 -mno-thumb-interwork -mthumb "
 6482      2D6D6670 
 6482      753D6670 
 6482      76342D73 
 6482      702D6431 
 6483 03d9 2D676764 		.ascii	"-ggdb -O0 -fomit-frame-pointer -falign-functions=16"
 6483      62202D4F 
 6483      30202D66 
 6483      6F6D6974 
 6483      2D667261 
 6484 040c 202D666E 		.ascii	" -fno-strict-aliasing -fstack-protector-all -ffunct"
 6484      6F2D7374 
 6484      72696374 
 6484      2D616C69 
 6484      6173696E 
 6485 043f 696F6E2D 		.ascii	"ion-sections -fdata-sections -fno-common -fsingle-p"
 6485      73656374 
 6485      696F6E73 
 6485      202D6664 
 6485      6174612D 
 6486 0472 72656369 		.ascii	"recision-constant\000"
 6486      73696F6E 
 6486      2D636F6E 
 6486      7374616E 
 6486      7400
 6487              	.LASF215:
 6488 0484 62726561 		.ascii	"breakpoints\000"
 6488      6B706F69 
 6488      6E747300 
 6489              	.LASF130:
 6490 0490 5F666C61 		.ascii	"_flags\000"
 6490      677300
 6491              	.LASF122:
 6492 0497 5F69735F 		.ascii	"_is_cxa\000"
 6492      63786100 
 6493              	.LASF148:
 6494 049f 5F737464 		.ascii	"_stdin\000"
 6494      696E00
ARM GAS  C:\Users\PCHAUT~1\AppData\Local\Temp\cc7zwTNO.s 			page 118


 6495              	.LASF140:
 6496 04a6 5F626C6B 		.ascii	"_blksize\000"
 6496      73697A65 
 6496      00
 6497              	.LASF205:
 6498 04af 75696E74 		.ascii	"uint8\000"
 6498      3800
 6499              	.LASF36:
 6500 04b5 41534542 		.ascii	"ASEBA_UNARY_OP_NOT\000"
 6500      415F554E 
 6500      4152595F 
 6500      4F505F4E 
 6500      4F5400
 6501              	.LASF84:
 6502 04c8 6C6F6E67 		.ascii	"long long int\000"
 6502      206C6F6E 
 6502      6720696E 
 6502      7400
 6503              	.LASF155:
 6504 04d6 5F5F7364 		.ascii	"__sdidinit\000"
 6504      6964696E 
 6504      697400
 6505              	.LASF14:
 6506 04e1 41534542 		.ascii	"ASEBA_BYTECODE_SUB_RET\000"
 6506      415F4259 
 6506      5445434F 
 6506      44455F53 
 6506      55425F52 
 6507              	.LASF162:
 6508 04f8 5F637674 		.ascii	"_cvtbuf\000"
 6508      62756600 
 6509              	.LASF141:
 6510 0500 5F6F6666 		.ascii	"_offset\000"
 6510      73657400 
 6511              	.LASF51:
 6512 0508 41534542 		.ascii	"ASEBA_MESSAGE_DESCRIPTION\000"
 6512      415F4D45 
 6512      53534147 
 6512      455F4445 
 6512      53435249 
 6513              	.LASF222:
 6514 0522 64617461 		.ascii	"dataLength\000"
 6514      4C656E67 
 6514      746800
 6515              	.LASF75:
 6516 052d 41534542 		.ascii	"ASEBA_MESSAGE_GET_VARIABLES\000"
 6516      415F4D45 
 6516      53534147 
 6516      455F4745 
 6516      545F5641 
 6517              	.LASF177:
 6518 0549 5F737472 		.ascii	"_strtok_last\000"
 6518      746F6B5F 
 6518      6C617374 
 6518      00
 6519              	.LASF189:
 6520 0556 5F6D6272 		.ascii	"_mbrlen_state\000"
ARM GAS  C:\Users\PCHAUT~1\AppData\Local\Temp\cc7zwTNO.s 			page 119


 6520      6C656E5F 
 6520      73746174 
 6520      6500
 6521              	.LASF119:
 6522 0564 5F666E61 		.ascii	"_fnargs\000"
 6522      72677300 
 6523              	.LASF191:
 6524 056c 5F6D6273 		.ascii	"_mbsrtowcs_state\000"
 6524      72746F77 
 6524      63735F73 
 6524      74617465 
 6524      00
 6525              	.LASF37:
 6526 057d 41534542 		.ascii	"ASEBA_VM_EVENT_ACTIVE_MASK\000"
 6526      415F564D 
 6526      5F455645 
 6526      4E545F41 
 6526      43544956 
 6527              	.LASF9:
 6528 0598 41534542 		.ascii	"ASEBA_BYTECODE_JUMP\000"
 6528      415F4259 
 6528      5445434F 
 6528      44455F4A 
 6528      554D5000 
 6529              	.LASF12:
 6530 05ac 41534542 		.ascii	"ASEBA_BYTECODE_NATIVE_CALL\000"
 6530      415F4259 
 6530      5445434F 
 6530      44455F4E 
 6530      41544956 
 6531              	.LASF2:
 6532 05c7 41534542 		.ascii	"ASEBA_BYTECODE_LARGE_IMMEDIATE\000"
 6532      415F4259 
 6532      5445434F 
 6532      44455F4C 
 6532      41524745 
 6533              	.LASF125:
 6534 05e6 5F666E73 		.ascii	"_fns\000"
 6534      00
 6535              	.LASF207:
 6536 05eb 6E6F6465 		.ascii	"nodeId\000"
 6536      496400
 6537              	.LASF250:
 6538 05f2 64697370 		.ascii	"disp\000"
 6538      00
 6539              	.LASF105:
 6540 05f7 5F736967 		.ascii	"_sign\000"
 6540      6E00
 6541              	.LASF15:
 6542 05fd 41534542 		.ascii	"ASEBA_OP_SHIFT_LEFT\000"
 6542      415F4F50 
 6542      5F534849 
 6542      46545F4C 
 6542      45465400 
 6543              	.LASF100:
 6544 0611 5F666C6F 		.ascii	"_flock_t\000"
 6544      636B5F74 
ARM GAS  C:\Users\PCHAUT~1\AppData\Local\Temp\cc7zwTNO.s 			page 120


 6544      00
 6545              	.LASF150:
 6546 061a 5F737464 		.ascii	"_stderr\000"
 6546      65727200 
 6547              	.LASF107:
 6548 0622 5F426967 		.ascii	"_Bigint\000"
 6548      696E7400 
 6549              	.LASF180:
 6550 062a 5F67616D 		.ascii	"_gamma_signgam\000"
 6550      6D615F73 
 6550      69676E67 
 6550      616D00
 6551              	.LASF134:
 6552 0639 5F726561 		.ascii	"_read\000"
 6552      6400
 6553              	.LASF158:
 6554 063f 5F726573 		.ascii	"_result_k\000"
 6554      756C745F 
 6554      6B00
 6555              	.LASF62:
 6556 0649 41534542 		.ascii	"ASEBA_MESSAGE_BREAKPOINT_SET_RESULT\000"
 6556      415F4D45 
 6556      53534147 
 6556      455F4252 
 6556      45414B50 
 6557              	.LASF108:
 6558 066d 5F5F746D 		.ascii	"__tm\000"
 6558      00
 6559              	.LASF46:
 6560 0672 41534542 		.ascii	"ASEBA_MESSAGE_BOOTLOADER_WRITE_PAGE\000"
 6560      415F4D45 
 6560      53534147 
 6560      455F424F 
 6560      4F544C4F 
 6561              	.LASF83:
 6562 0696 756E7369 		.ascii	"unsigned int\000"
 6562      676E6564 
 6562      20696E74 
 6562      00
 6563              	.LASF96:
 6564 06a3 5F5F7763 		.ascii	"__wchb\000"
 6564      686200
 6565              	.LASF193:
 6566 06aa 5F776373 		.ascii	"_wcsrtombs_state\000"
 6566      72746F6D 
 6566      62735F73 
 6566      74617465 
 6566      00
 6567              	.LASF49:
 6568 06bb 41534542 		.ascii	"ASEBA_MESSAGE_BOOTLOADER_PAGE_DATA_READ\000"
 6568      415F4D45 
 6568      53534147 
 6568      455F424F 
 6568      4F544C4F 
 6569              	.LASF149:
 6570 06e3 5F737464 		.ascii	"_stdout\000"
 6570      6F757400 
ARM GAS  C:\Users\PCHAUT~1\AppData\Local\Temp\cc7zwTNO.s 			page 121


 6571              	.LASF161:
 6572 06eb 5F637674 		.ascii	"_cvtlen\000"
 6572      6C656E00 
 6573              	.LASF89:
 6574 06f3 6C6F6E67 		.ascii	"long unsigned int\000"
 6574      20756E73 
 6574      69676E65 
 6574      6420696E 
 6574      7400
 6575              	.LASF63:
 6576 0705 41534542 		.ascii	"ASEBA_MESSAGE_NODE_PRESENT\000"
 6576      415F4D45 
 6576      53534147 
 6576      455F4E4F 
 6576      44455F50 
 6577              	.LASF131:
 6578 0720 5F66696C 		.ascii	"_file\000"
 6578      6500
 6579              	.LASF262:
 6580 0726 41736562 		.ascii	"AsebaVMResetWhenFlags\000"
 6580      61564D52 
 6580      65736574 
 6580      5768656E 
 6580      466C6167 
 6581              	.LASF78:
 6582 073c 41534542 		.ascii	"ASEBA_MESSAGE_REBOOT\000"
 6582      415F4D45 
 6582      53534147 
 6582      455F5245 
 6582      424F4F54 
 6583              	.LASF10:
 6584 0751 41534542 		.ascii	"ASEBA_BYTECODE_CONDITIONAL_BRANCH\000"
 6584      415F4259 
 6584      5445434F 
 6584      44455F43 
 6584      4F4E4449 
 6585              	.LASF170:
 6586 0773 5F6E696F 		.ascii	"_niobs\000"
 6586      627300
 6587              	.LASF29:
 6588 077a 41534542 		.ascii	"ASEBA_OP_SMALLER_THAN\000"
 6588      415F4F50 
 6588      5F534D41 
 6588      4C4C4552 
 6588      5F544841 
 6589              	.LASF43:
 6590 0790 73686F72 		.ascii	"short unsigned int\000"
 6590      7420756E 
 6590      7369676E 
 6590      65642069 
 6590      6E7400
 6591              	.LASF13:
 6592 07a3 41534542 		.ascii	"ASEBA_BYTECODE_SUB_CALL\000"
 6592      415F4259 
 6592      5445434F 
 6592      44455F53 
 6592      55425F43 
ARM GAS  C:\Users\PCHAUT~1\AppData\Local\Temp\cc7zwTNO.s 			page 122


 6593              	.LASF187:
 6594 07bb 5F736967 		.ascii	"_signal_buf\000"
 6594      6E616C5F 
 6594      62756600 
 6595              	.LASF178:
 6596 07c7 5F617363 		.ascii	"_asctime_buf\000"
 6596      74696D65 
 6596      5F627566 
 6596      00
 6597              	.LASF220:
 6598 07d4 74797065 		.ascii	"type\000"
 6598      00
 6599              	.LASF44:
 6600 07d9 41534542 		.ascii	"ASEBA_MESSAGE_BOOTLOADER_RESET\000"
 6600      415F4D45 
 6600      53534147 
 6600      455F424F 
 6600      4F544C4F 
 6601              	.LASF157:
 6602 07f8 5F726573 		.ascii	"_result\000"
 6602      756C7400 
 6603              	.LASF55:
 6604 0800 41534542 		.ascii	"ASEBA_MESSAGE_DISCONNECTED\000"
 6604      415F4D45 
 6604      53534147 
 6604      455F4449 
 6604      53434F4E 
 6605              	.LASF91:
 6606 081b 5F4C4F43 		.ascii	"_LOCK_T\000"
 6606      4B5F5400 
 6607              	.LASF94:
 6608 0823 77696E74 		.ascii	"wint_t\000"
 6608      5F7400
 6609              	.LASF76:
 6610 082a 41534542 		.ascii	"ASEBA_MESSAGE_SET_VARIABLES\000"
 6610      415F4D45 
 6610      53534147 
 6610      455F5345 
 6610      545F5641 
 6611              	.LASF143:
 6612 0846 5F6C6F63 		.ascii	"_lock\000"
 6612      6B00
 6613              	.LASF145:
 6614 084c 5F666C61 		.ascii	"_flags2\000"
 6614      67733200 
 6615              	.LASF56:
 6616 0854 41534542 		.ascii	"ASEBA_MESSAGE_VARIABLES\000"
 6616      415F4D45 
 6616      53534147 
 6616      455F5641 
 6616      52494142 
 6617              	.LASF209:
 6618 086c 62797465 		.ascii	"bytecode\000"
 6618      636F6465 
 6618      00
 6619              	.LASF139:
 6620 0875 5F6E6275 		.ascii	"_nbuf\000"
ARM GAS  C:\Users\PCHAUT~1\AppData\Local\Temp\cc7zwTNO.s 			page 123


 6620      6600
 6621              	.LASF82:
 6622 087b 41534542 		.ascii	"ASEBA_MESSAGE_INVALID\000"
 6622      415F4D45 
 6622      53534147 
 6622      455F494E 
 6622      56414C49 
 6623              	.LASF203:
 6624 0891 73696E74 		.ascii	"sint16\000"
 6624      313600
 6625              	.LASF135:
 6626 0898 5F777269 		.ascii	"_write\000"
 6626      746500
 6627              	.LASF114:
 6628 089f 5F5F746D 		.ascii	"__tm_year\000"
 6628      5F796561 
 6628      7200
 6629              	.LASF231:
 6630 08a9 41736562 		.ascii	"AsebaVMClearBreakpoint\000"
 6630      61564D43 
 6630      6C656172 
 6630      42726561 
 6630      6B706F69 
 6631              	.LASF4:
 6632 08c0 41534542 		.ascii	"ASEBA_BYTECODE_STORE\000"
 6632      415F4259 
 6632      5445434F 
 6632      44455F53 
 6632      544F5245 
 6633              	.LASF65:
 6634 08d5 41534542 		.ascii	"ASEBA_MESSAGE_SET_BYTECODE\000"
 6634      415F4D45 
 6634      53534147 
 6634      455F5345 
 6634      545F4259 
 6635              	.LASF39:
 6636 08f0 41534542 		.ascii	"ASEBA_VM_EVENT_RUNNING_MASK\000"
 6636      415F564D 
 6636      5F455645 
 6636      4E545F52 
 6636      554E4E49 
 6637              	.LASF196:
 6638 090c 5F6E6D61 		.ascii	"_nmalloc\000"
 6638      6C6C6F63 
 6638      00
 6639              	.LASF69:
 6640 0915 41534542 		.ascii	"ASEBA_MESSAGE_STEP\000"
 6640      415F4D45 
 6640      53534147 
 6640      455F5354 
 6640      455000
 6641              	.LASF218:
 6642 0928 736F7572 		.ascii	"source\000"
 6642      636500
 6643              	.LASF217:
 6644 092f 41736562 		.ascii	"AsebaVMState\000"
 6644      61564D53 
ARM GAS  C:\Users\PCHAUT~1\AppData\Local\Temp\cc7zwTNO.s 			page 124


 6644      74617465 
 6644      00
 6645              	.LASF249:
 6646 093c 76616C75 		.ascii	"valueTwo\000"
 6646      6554776F 
 6646      00
 6647              	.LASF234:
 6648 0945 73746570 		.ascii	"stepsLimit\000"
 6648      734C696D 
 6648      697400
 6649              	.LASF80:
 6650 0950 41534542 		.ascii	"ASEBA_MESSAGE_GET_NODE_DESCRIPTION\000"
 6650      415F4D45 
 6650      53534147 
 6650      455F4745 
 6650      545F4E4F 
 6651              	.LASF85:
 6652 0973 6C6F6E67 		.ascii	"long double\000"
 6652      20646F75 
 6652      626C6500 
 6653              	.LASF256:
 6654 097f 61646472 		.ascii	"address\000"
 6654      65737300 
 6655              	.LASF128:
 6656 0987 5F73697A 		.ascii	"_size\000"
 6656      6500
 6657              	.LASF3:
 6658 098d 41534542 		.ascii	"ASEBA_BYTECODE_LOAD\000"
 6658      415F4259 
 6658      5445434F 
 6658      44455F4C 
 6658      4F414400 
 6659              	.LASF57:
 6660 09a1 41534542 		.ascii	"ASEBA_MESSAGE_ARRAY_ACCESS_OUT_OF_BOUNDS\000"
 6660      415F4D45 
 6660      53534147 
 6660      455F4152 
 6660      5241595F 
 6661              	.LASF195:
 6662 09ca 5F6E6578 		.ascii	"_nextf\000"
 6662      746600
 6663              	.LASF53:
 6664 09d1 41534542 		.ascii	"ASEBA_MESSAGE_LOCAL_EVENT_DESCRIPTION\000"
 6664      415F4D45 
 6664      53534147 
 6664      455F4C4F 
 6664      43414C5F 
 6665              	.LASF239:
 6666 09f7 6D657373 		.ascii	"message\000"
 6666      61676500 
 6667              	.LASF113:
 6668 09ff 5F5F746D 		.ascii	"__tm_mon\000"
 6668      5F6D6F6E 
 6668      00
 6669              	.LASF132:
 6670 0a08 5F6C6266 		.ascii	"_lbfsize\000"
 6670      73697A65 
ARM GAS  C:\Users\PCHAUT~1\AppData\Local\Temp\cc7zwTNO.s 			page 125


 6670      00
 6671              	.LASF123:
 6672 0a11 5F617465 		.ascii	"_atexit\000"
 6672      78697400 
 6673              	.LASF202:
 6674 0a19 7375626F 		.ascii	"suboptarg\000"
 6674      70746172 
 6674      6700
 6675              	.LASF221:
 6676 0a23 64657374 		.ascii	"dest\000"
 6676      00
 6677              	.LASF74:
 6678 0a28 41534542 		.ascii	"ASEBA_MESSAGE_BREAKPOINT_CLEAR_ALL\000"
 6678      415F4D45 
 6678      53534147 
 6678      455F4252 
 6678      45414B50 
 6679              	.LASF92:
 6680 0a4b 5F6F6666 		.ascii	"_off_t\000"
 6680      5F7400
 6681              	.LASF8:
 6682 0a52 41534542 		.ascii	"ASEBA_BYTECODE_BINARY_ARITHMETIC\000"
 6682      415F4259 
 6682      5445434F 
 6682      44455F42 
 6682      494E4152 
 6683              	.LASF243:
 6684 0a73 76617269 		.ascii	"variableIndex\000"
 6684      61626C65 
 6684      496E6465 
 6684      7800
 6685              	.LASF228:
 6686 0a81 41736562 		.ascii	"AsebaVMSendExecutionStateChanged\000"
 6686      61564D53 
 6686      656E6445 
 6686      78656375 
 6686      74696F6E 
 6687              	.LASF18:
 6688 0aa2 41534542 		.ascii	"ASEBA_OP_SUB\000"
 6688      415F4F50 
 6688      5F535542 
 6688      00
 6689              	.LASF160:
 6690 0aaf 5F667265 		.ascii	"_freelist\000"
 6690      656C6973 
 6690      7400
 6691              	.LASF59:
 6692 0ab9 41534542 		.ascii	"ASEBA_MESSAGE_EVENT_EXECUTION_KILLED\000"
 6692      415F4D45 
 6692      53534147 
 6692      455F4556 
 6692      454E545F 
 6693              	.LASF17:
 6694 0ade 41534542 		.ascii	"ASEBA_OP_ADD\000"
 6694      415F4F50 
 6694      5F414444 
 6694      00
ARM GAS  C:\Users\PCHAUT~1\AppData\Local\Temp\cc7zwTNO.s 			page 126


 6695              	.LASF185:
 6696 0aeb 5F776374 		.ascii	"_wctomb_state\000"
 6696      6F6D625F 
 6696      73746174 
 6696      6500
 6697              	.LASF216:
 6698 0af9 62726561 		.ascii	"breakpointsCount\000"
 6698      6B706F69 
 6698      6E747343 
 6698      6F756E74 
 6698      00
 6699              	.LASF16:
 6700 0b0a 41534542 		.ascii	"ASEBA_OP_SHIFT_RIGHT\000"
 6700      415F4F50 
 6700      5F534849 
 6700      46545F52 
 6700      49474854 
 6701              	.LASF27:
 6702 0b1f 41534542 		.ascii	"ASEBA_OP_BIGGER_THAN\000"
 6702      415F4F50 
 6702      5F424947 
 6702      4745525F 
 6702      5448414E 
 6703              	.LASF54:
 6704 0b34 41534542 		.ascii	"ASEBA_MESSAGE_NATIVE_FUNCTION_DESCRIPTION\000"
 6704      415F4D45 
 6704      53534147 
 6704      455F4E41 
 6704      54495645 
 6705              	.LASF42:
 6706 0b5e 756E7369 		.ascii	"unsigned char\000"
 6706      676E6564 
 6706      20636861 
 6706      7200
 6707              	.LASF163:
 6708 0b6c 5F6E6577 		.ascii	"_new\000"
 6708      00
 6709              	.LASF238:
 6710 0b71 41736562 		.ascii	"AsebaVMEmitNodeSpecificError\000"
 6710      61564D45 
 6710      6D69744E 
 6710      6F646553 
 6710      70656369 
 6711              	.LASF71:
 6712 0b8e 41534542 		.ascii	"ASEBA_MESSAGE_GET_EXECUTION_STATE\000"
 6712      415F4D45 
 6712      53534147 
 6712      455F4745 
 6712      545F4558 
 6713              	.LASF68:
 6714 0bb0 41534542 		.ascii	"ASEBA_MESSAGE_PAUSE\000"
 6714      415F4D45 
 6714      53534147 
 6714      455F5041 
 6714      55534500 
 6715              	.LASF45:
 6716 0bc4 41534542 		.ascii	"ASEBA_MESSAGE_BOOTLOADER_READ_PAGE\000"
ARM GAS  C:\Users\PCHAUT~1\AppData\Local\Temp\cc7zwTNO.s 			page 127


 6716      415F4D45 
 6716      53534147 
 6716      455F424F 
 6716      4F544C4F 
 6717              	.LASF7:
 6718 0be7 41534542 		.ascii	"ASEBA_BYTECODE_UNARY_ARITHMETIC\000"
 6718      415F4259 
 6718      5445434F 
 6718      44455F55 
 6718      4E415259 
 6719              	.LASF194:
 6720 0c07 5F685F65 		.ascii	"_h_errno\000"
 6720      72726E6F 
 6720      00
 6721              	.LASF87:
 6722 0c10 73686F72 		.ascii	"short int\000"
 6722      7420696E 
 6722      7400
 6723              	.LASF116:
 6724 0c1a 5F5F746D 		.ascii	"__tm_yday\000"
 6724      5F796461 
 6724      7900
 6725              	.LASF126:
 6726 0c24 5F5F7362 		.ascii	"__sbuf\000"
 6726      756600
 6727              	.LASF171:
 6728 0c2b 5F696F62 		.ascii	"_iobs\000"
 6728      7300
 6729              	.LASF168:
 6730 0c31 5F5F4649 		.ascii	"__FILE\000"
 6730      4C4500
 6731              	.LASF99:
 6732 0c38 5F6D6273 		.ascii	"_mbstate_t\000"
 6732      74617465 
 6732      5F7400
 6733              	.LASF129:
 6734 0c43 5F5F7346 		.ascii	"__sFILE\000"
 6734      494C4500 
 6735              	.LASF144:
 6736 0c4b 5F6D6273 		.ascii	"_mbstate\000"
 6736      74617465 
 6736      00
 6737              	.LASF181:
 6738 0c54 5F72616E 		.ascii	"_rand_next\000"
 6738      645F6E65 
 6738      787400
 6739              	.LASF41:
 6740 0c5f 41534542 		.ascii	"ASEBA_EVENT_LOCAL_EVENTS_START\000"
 6740      415F4556 
 6740      454E545F 
 6740      4C4F4341 
 6740      4C5F4556 
 6741              	.LASF183:
 6742 0c7e 5F6D626C 		.ascii	"_mblen_state\000"
 6742      656E5F73 
 6742      74617465 
 6742      00
ARM GAS  C:\Users\PCHAUT~1\AppData\Local\Temp\cc7zwTNO.s 			page 128


 6743              	.LASF151:
 6744 0c8b 5F696E63 		.ascii	"_inc\000"
 6744      00
 6745              	.LASF124:
 6746 0c90 5F696E64 		.ascii	"_ind\000"
 6746      00
 6747              	.LASF261:
 6748 0c95 433A5C55 		.ascii	"C:\\Users\\Pchautems\\Documents\\RobotiqueTP\\Proje"
 6748      73657273 
 6748      5C506368 
 6748      61757465 
 6748      6D735C44 
 6749 0cc3 745C6D69 		.ascii	"t\\miniprojet\000"
 6749      6E697072 
 6749      6F6A6574 
 6749      00
 6750              	.LASF154:
 6751 0cd0 5F6C6F63 		.ascii	"_locale\000"
 6751      616C6500 
 6752              	.LASF156:
 6753 0cd8 5F5F636C 		.ascii	"__cleanup\000"
 6753      65616E75 
 6753      7000
 6754              	.LASF153:
 6755 0ce2 5F756E73 		.ascii	"_unspecified_locale_info\000"
 6755      70656369 
 6755      66696564 
 6755      5F6C6F63 
 6755      616C655F 
 6756              	.LASF104:
 6757 0cfb 5F6D6178 		.ascii	"_maxwds\000"
 6757      77647300 
 6758              	.LASF146:
 6759 0d03 5F726565 		.ascii	"_reent\000"
 6759      6E7400
 6760              	.LASF0:
 6761 0d0a 41534542 		.ascii	"ASEBA_BYTECODE_STOP\000"
 6761      415F4259 
 6761      5445434F 
 6761      44455F53 
 6761      544F5000 
 6762              	.LASF173:
 6763 0d1e 5F736565 		.ascii	"_seed\000"
 6763      6400
 6764              	.LASF52:
 6765 0d24 41534542 		.ascii	"ASEBA_MESSAGE_NAMED_VARIABLE_DESCRIPTION\000"
 6765      415F4D45 
 6765      53534147 
 6765      455F4E41 
 6765      4D45445F 
 6766              	.LASF97:
 6767 0d4d 5F5F636F 		.ascii	"__count\000"
 6767      756E7400 
 6768              	.LASF198:
 6769 0d55 5F5F6C6F 		.ascii	"__lock\000"
 6769      636B00
 6770              	.LASF98:
ARM GAS  C:\Users\PCHAUT~1\AppData\Local\Temp\cc7zwTNO.s 			page 129


 6771 0d5c 5F5F7661 		.ascii	"__value\000"
 6771      6C756500 
 6772              	.LASF111:
 6773 0d64 5F5F746D 		.ascii	"__tm_hour\000"
 6773      5F686F75 
 6773      7200
 6774              	.LASF136:
 6775 0d6e 5F736565 		.ascii	"_seek\000"
 6775      6B00
 6776              	.LASF22:
 6777 0d74 41534542 		.ascii	"ASEBA_OP_BIT_OR\000"
 6777      415F4F50 
 6777      5F424954 
 6777      5F4F5200 
 6778              	.LASF115:
 6779 0d84 5F5F746D 		.ascii	"__tm_wday\000"
 6779      5F776461 
 6779      7900
 6780              	.LASF11:
 6781 0d8e 41534542 		.ascii	"ASEBA_BYTECODE_EMIT\000"
 6781      415F4259 
 6781      5445434F 
 6781      44455F45 
 6781      4D495400 
 6782              	.LASF93:
 6783 0da2 5F66706F 		.ascii	"_fpos_t\000"
 6783      735F7400 
 6784              	.LASF101:
 6785 0daa 63686172 		.ascii	"char\000"
 6785      00
 6786              	.LASF147:
 6787 0daf 5F657272 		.ascii	"_errno\000"
 6787      6E6F00
 6788              	.LASF20:
 6789 0db6 41534542 		.ascii	"ASEBA_OP_DIV\000"
 6789      415F4F50 
 6789      5F444956 
 6789      00
 6790              	.LASF110:
 6791 0dc3 5F5F746D 		.ascii	"__tm_min\000"
 6791      5F6D696E 
 6791      00
 6792              	.LASF212:
 6793 0dcc 73746163 		.ascii	"stackSize\000"
 6793      6B53697A 
 6793      6500
 6794              	.LASF254:
 6795 0dd6 41736562 		.ascii	"AsebaVMSetupEvent\000"
 6795      61564D53 
 6795      65747570 
 6795      4576656E 
 6795      7400
 6796              	.LASF257:
 6797 0de8 41736562 		.ascii	"AsebaVMGetEventAddress\000"
 6797      61564D47 
 6797      65744576 
 6797      656E7441 
ARM GAS  C:\Users\PCHAUT~1\AppData\Local\Temp\cc7zwTNO.s 			page 130


 6797      64647265 
 6798              	.LASF81:
 6799 0dff 41534542 		.ascii	"ASEBA_MESSAGE_LIST_NODES\000"
 6799      415F4D45 
 6799      53534147 
 6799      455F4C49 
 6799      53545F4E 
 6800              	.LASF5:
 6801 0e18 41534542 		.ascii	"ASEBA_BYTECODE_LOAD_INDIRECT\000"
 6801      415F4259 
 6801      5445434F 
 6801      44455F4C 
 6801      4F41445F 
 6802              	.LASF226:
 6803 0e35 62756666 		.ascii	"buffer\000"
 6803      657200
 6804              	.LASF174:
 6805 0e3c 5F6D756C 		.ascii	"_mult\000"
 6805      7400
 6806              	.LASF103:
 6807 0e42 5F6E6578 		.ascii	"_next\000"
 6807      7400
 6808              	.LASF6:
 6809 0e48 41534542 		.ascii	"ASEBA_BYTECODE_STORE_INDIRECT\000"
 6809      415F4259 
 6809      5445434F 
 6809      44455F53 
 6809      544F5245 
 6810              	.LASF70:
 6811 0e66 41534542 		.ascii	"ASEBA_MESSAGE_STOP\000"
 6811      415F4D45 
 6811      53534147 
 6811      455F5354 
 6811      4F5000
 6812              	.LASF73:
 6813 0e79 41534542 		.ascii	"ASEBA_MESSAGE_BREAKPOINT_CLEAR\000"
 6813      415F4D45 
 6813      53534147 
 6813      455F4252 
 6813      45414B50 
 6814              	.LASF121:
 6815 0e98 5F666E74 		.ascii	"_fntypes\000"
 6815      79706573 
 6815      00
 6816              	.LASF263:
 6817 0ea1 41736562 		.ascii	"AsebaVMInit\000"
 6817      61564D49 
 6817      6E697400 
 6818              	.LASF175:
 6819 0ead 5F616464 		.ascii	"_add\000"
 6819      00
 6820              	.LASF102:
 6821 0eb2 5F5F554C 		.ascii	"__ULong\000"
 6821      6F6E6700 
 6822              	.LASF188:
 6823 0eba 5F676574 		.ascii	"_getdate_err\000"
 6823      64617465 
ARM GAS  C:\Users\PCHAUT~1\AppData\Local\Temp\cc7zwTNO.s 			page 131


 6823      5F657272 
 6823      00
 6824              	.LASF240:
 6825 0ec7 6D73674C 		.ascii	"msgLen\000"
 6825      656E00
 6826              	.LASF247:
 6827 0ece 6F705265 		.ascii	"opResult\000"
 6827      73756C74 
 6827      00
 6828              	.LASF229:
 6829 0ed7 41736562 		.ascii	"AsebaVMClearBreakpoints\000"
 6829      61564D43 
 6829      6C656172 
 6829      42726561 
 6829      6B706F69 
 6830              	.LASF201:
 6831 0eef 5F676C6F 		.ascii	"_global_impure_ptr\000"
 6831      62616C5F 
 6831      696D7075 
 6831      72655F70 
 6831      747200
 6832              	.LASF34:
 6833 0f02 41534542 		.ascii	"ASEBA_UNARY_OP_ABS\000"
 6833      415F554E 
 6833      4152595F 
 6833      4F505F41 
 6833      425300
 6834              	.LASF26:
 6835 0f15 41534542 		.ascii	"ASEBA_OP_NOT_EQUAL\000"
 6835      415F4F50 
 6835      5F4E4F54 
 6835      5F455155 
 6835      414C00
 6836              	.LASF176:
 6837 0f28 5F756E75 		.ascii	"_unused_rand\000"
 6837      7365645F 
 6837      72616E64 
 6837      00
 6838              	.LASF253:
 6839 0f35 41736562 		.ascii	"AsebaVMDoBinaryOperation\000"
 6839      61564D44 
 6839      6F42696E 
 6839      6172794F 
 6839      70657261 
 6840              	.LASF232:
 6841 0f4e 41736562 		.ascii	"AsebaVMSetBreakpoint\000"
 6841      61564D53 
 6841      65744272 
 6841      65616B70 
 6841      6F696E74 
 6842              	.LASF30:
 6843 0f63 41534542 		.ascii	"ASEBA_OP_SMALLER_EQUAL_THAN\000"
 6843      415F4F50 
 6843      5F534D41 
 6843      4C4C4552 
 6843      5F455155 
 6844              	.LASF106:
ARM GAS  C:\Users\PCHAUT~1\AppData\Local\Temp\cc7zwTNO.s 			page 132


 6845 0f7f 5F776473 		.ascii	"_wds\000"
 6845      00
 6846              	.LASF21:
 6847 0f84 41534542 		.ascii	"ASEBA_OP_MOD\000"
 6847      415F4F50 
 6847      5F4D4F44 
 6847      00
 6848              	.LASF169:
 6849 0f91 5F676C75 		.ascii	"_glue\000"
 6849      6500
 6850              	.LASF235:
 6851 0f97 41736562 		.ascii	"AsebaDebugBreakpointRun\000"
 6851      61446562 
 6851      75674272 
 6851      65616B70 
 6851      6F696E74 
 6852              	.LASF251:
 6853 0faf 636F6E64 		.ascii	"conditionResult\000"
 6853      6974696F 
 6853      6E526573 
 6853      756C7400 
 6854              	.LASF50:
 6855 0fbf 41534542 		.ascii	"ASEBA_MESSAGE_BOOTLOADER_ACK\000"
 6855      415F4D45 
 6855      53534147 
 6855      455F424F 
 6855      4F544C4F 
 6856              	.LASF186:
 6857 0fdc 5F6C3634 		.ascii	"_l64a_buf\000"
 6857      615F6275 
 6857      6600
 6858              	.LASF214:
 6859 0fe6 666C6167 		.ascii	"flags\000"
 6859      7300
 6860              	.LASF19:
 6861 0fec 41534542 		.ascii	"ASEBA_OP_MULT\000"
 6861      415F4F50 
 6861      5F4D554C 
 6861      5400
 6862              	.LASF165:
 6863 0ffa 5F736967 		.ascii	"_sig_func\000"
 6863      5F66756E 
 6863      6300
 6864              	.LASF213:
 6865 1004 73746163 		.ascii	"stack\000"
 6865      6B00
 6866              	.LASF225:
 6867 100a 6C656E67 		.ascii	"length\000"
 6867      746800
 6868              	.LASF248:
 6869 1011 76616C75 		.ascii	"valueOne\000"
 6869      654F6E65 
 6869      00
 6870              	.LASF32:
 6871 101a 41534542 		.ascii	"ASEBA_OP_AND\000"
 6871      415F4F50 
 6871      5F414E44 
ARM GAS  C:\Users\PCHAUT~1\AppData\Local\Temp\cc7zwTNO.s 			page 133


 6871      00
 6872              	.LASF58:
 6873 1027 41534542 		.ascii	"ASEBA_MESSAGE_DIVISION_BY_ZERO\000"
 6873      415F4D45 
 6873      53534147 
 6873      455F4449 
 6873      56495349 
 6874              	.LASF197:
 6875 1046 5F756E75 		.ascii	"_unused\000"
 6875      73656400 
 6876              	.LASF31:
 6877 104e 41534542 		.ascii	"ASEBA_OP_OR\000"
 6877      415F4F50 
 6877      5F4F5200 
 6878              	.LASF77:
 6879 105a 41534542 		.ascii	"ASEBA_MESSAGE_WRITE_BYTECODE\000"
 6879      415F4D45 
 6879      53534147 
 6879      455F5752 
 6879      4954455F 
 6880              	.LASF117:
 6881 1077 5F5F746D 		.ascii	"__tm_isdst\000"
 6881      5F697364 
 6881      737400
 6882              	.LASF179:
 6883 1082 5F6C6F63 		.ascii	"_localtime_buf\000"
 6883      616C7469 
 6883      6D655F62 
 6883      756600
 6884              	.LASF137:
 6885 1091 5F636C6F 		.ascii	"_close\000"
 6885      736500
 6886              	.LASF72:
 6887 1098 41534542 		.ascii	"ASEBA_MESSAGE_BREAKPOINT_SET\000"
 6887      415F4D45 
 6887      53534147 
 6887      455F4252 
 6887      45414B50 
 6888              	.LASF182:
 6889 10b5 5F723438 		.ascii	"_r48\000"
 6889      00
 6890              	.LASF224:
 6891 10ba 73746172 		.ascii	"start\000"
 6891      7400
 6892              	.LASF184:
 6893 10c0 5F6D6274 		.ascii	"_mbtowc_state\000"
 6893      6F77635F 
 6893      73746174 
 6893      6500
 6894              	.LASF159:
 6895 10ce 5F703573 		.ascii	"_p5s\000"
 6895      00
 6896              	.LASF233:
 6897 10d3 41736562 		.ascii	"AsebaVMRun\000"
 6897      61564D52 
 6897      756E00
 6898              	.LASF24:
ARM GAS  C:\Users\PCHAUT~1\AppData\Local\Temp\cc7zwTNO.s 			page 134


 6899 10de 41534542 		.ascii	"ASEBA_OP_BIT_AND\000"
 6899      415F4F50 
 6899      5F424954 
 6899      5F414E44 
 6899      00
 6900              	.LASF23:
 6901 10ef 41534542 		.ascii	"ASEBA_OP_BIT_XOR\000"
 6901      415F4F50 
 6901      5F424954 
 6901      5F584F52 
 6901      00
 6902              	.LASF260:
 6903 1100 2E2E2F6C 		.ascii	"../lib/e-puck2_main-processor/aseba/vm/vm.c\000"
 6903      69622F65 
 6903      2D707563 
 6903      6B325F6D 
 6903      61696E2D 
 6904              	.LASF112:
 6905 112c 5F5F746D 		.ascii	"__tm_mday\000"
 6905      5F6D6461 
 6905      7900
 6906              	.LASF245:
 6907 1136 61727261 		.ascii	"arraySize\000"
 6907      7953697A 
 6907      6500
 6908              	.LASF252:
 6909 1140 41736562 		.ascii	"AsebaVMDoUnaryOperation\000"
 6909      61564D44 
 6909      6F556E61 
 6909      72794F70 
 6909      65726174 
 6910              	.LASF258:
 6911 1158 6576656E 		.ascii	"eventVectorSize\000"
 6911      74566563 
 6911      746F7253 
 6911      697A6500 
 6912              		.ident	"GCC: (GNU Tools for Arm Embedded Processors 7-2017-q4-major) 7.2.1 20170904 (release) [ARM
ARM GAS  C:\Users\PCHAUT~1\AppData\Local\Temp\cc7zwTNO.s 			page 135


DEFINED SYMBOLS
                            *ABS*:00000000 vm.c
C:\Users\PCHAUT~1\AppData\Local\Temp\cc7zwTNO.s:18     .text.AsebaVMInit:00000000 $t
C:\Users\PCHAUT~1\AppData\Local\Temp\cc7zwTNO.s:26     .text.AsebaVMInit:00000000 AsebaVMInit
C:\Users\PCHAUT~1\AppData\Local\Temp\cc7zwTNO.s:85     .text.AsebaVMInit:00000050 $d
C:\Users\PCHAUT~1\AppData\Local\Temp\cc7zwTNO.s:90     .text.AsebaVMGetEventAddress:00000000 $t
C:\Users\PCHAUT~1\AppData\Local\Temp\cc7zwTNO.s:98     .text.AsebaVMGetEventAddress:00000000 AsebaVMGetEventAddress
C:\Users\PCHAUT~1\AppData\Local\Temp\cc7zwTNO.s:175    .text.AsebaVMGetEventAddress:0000007c $d
C:\Users\PCHAUT~1\AppData\Local\Temp\cc7zwTNO.s:180    .text.AsebaVMSetupEvent:00000000 $t
C:\Users\PCHAUT~1\AppData\Local\Temp\cc7zwTNO.s:188    .text.AsebaVMSetupEvent:00000000 AsebaVMSetupEvent
C:\Users\PCHAUT~1\AppData\Local\Temp\cc7zwTNO.s:2319   .text.AsebaVMSendExecutionStateChanged:00000000 AsebaVMSendExecutionStateChanged
C:\Users\PCHAUT~1\AppData\Local\Temp\cc7zwTNO.s:274    .text.AsebaVMSetupEvent:00000094 $d
C:\Users\PCHAUT~1\AppData\Local\Temp\cc7zwTNO.s:279    .text.AsebaVMDoBinaryOperation:00000000 $t
C:\Users\PCHAUT~1\AppData\Local\Temp\cc7zwTNO.s:286    .text.AsebaVMDoBinaryOperation:00000000 AsebaVMDoBinaryOperation
C:\Users\PCHAUT~1\AppData\Local\Temp\cc7zwTNO.s:319    .text.AsebaVMDoBinaryOperation:00000034 $d
C:\Users\PCHAUT~1\AppData\Local\Temp\cc7zwTNO.s:337    .text.AsebaVMDoBinaryOperation:0000007c $t
C:\Users\PCHAUT~1\AppData\Local\Temp\cc7zwTNO.s:594    .text.AsebaVMDoBinaryOperation:00000254 $d
C:\Users\PCHAUT~1\AppData\Local\Temp\cc7zwTNO.s:600    .text.AsebaVMDoUnaryOperation:00000000 $t
C:\Users\PCHAUT~1\AppData\Local\Temp\cc7zwTNO.s:607    .text.AsebaVMDoUnaryOperation:00000000 AsebaVMDoUnaryOperation
C:\Users\PCHAUT~1\AppData\Local\Temp\cc7zwTNO.s:675    .text.AsebaVMDoUnaryOperation:00000064 $d
C:\Users\PCHAUT~1\AppData\Local\Temp\cc7zwTNO.s:680    .text.AsebaVMStep:00000000 $t
C:\Users\PCHAUT~1\AppData\Local\Temp\cc7zwTNO.s:688    .text.AsebaVMStep:00000000 AsebaVMStep
C:\Users\PCHAUT~1\AppData\Local\Temp\cc7zwTNO.s:723    .text.AsebaVMStep:00000034 $d
C:\Users\PCHAUT~1\AppData\Local\Temp\cc7zwTNO.s:738    .text.AsebaVMStep:00000070 $t
C:\Users\PCHAUT~1\AppData\Local\Temp\cc7zwTNO.s:987    .text.AsebaVMStep:00000250 $d
C:\Users\PCHAUT~1\AppData\Local\Temp\cc7zwTNO.s:992    .text.AsebaVMStep:00000258 $t
C:\Users\PCHAUT~1\AppData\Local\Temp\cc7zwTNO.s:1406   .text.AsebaVMStep:00000594 $d
C:\Users\PCHAUT~1\AppData\Local\Temp\cc7zwTNO.s:1410   .text.AsebaVMStep:00000598 $t
C:\Users\PCHAUT~1\AppData\Local\Temp\cc7zwTNO.s:1498   .text.AsebaVMStep:00000624 $d
C:\Users\PCHAUT~1\AppData\Local\Temp\cc7zwTNO.s:1503   .text.AsebaVMEmitNodeSpecificError:00000000 $t
C:\Users\PCHAUT~1\AppData\Local\Temp\cc7zwTNO.s:1511   .text.AsebaVMEmitNodeSpecificError:00000000 AsebaVMEmitNodeSpecificError
C:\Users\PCHAUT~1\AppData\Local\Temp\cc7zwTNO.s:1626   .text.AsebaVMEmitNodeSpecificError:000000c4 $d
C:\Users\PCHAUT~1\AppData\Local\Temp\cc7zwTNO.s:1632   .text.AsebaVMCheckBreakpoint:00000000 $t
C:\Users\PCHAUT~1\AppData\Local\Temp\cc7zwTNO.s:1640   .text.AsebaVMCheckBreakpoint:00000000 AsebaVMCheckBreakpoint
C:\Users\PCHAUT~1\AppData\Local\Temp\cc7zwTNO.s:1713   .text.AsebaVMCheckBreakpoint:0000006c $d
C:\Users\PCHAUT~1\AppData\Local\Temp\cc7zwTNO.s:1718   .text.AsebaDebugBareRun:00000000 $t
C:\Users\PCHAUT~1\AppData\Local\Temp\cc7zwTNO.s:1726   .text.AsebaDebugBareRun:00000000 AsebaDebugBareRun
C:\Users\PCHAUT~1\AppData\Local\Temp\cc7zwTNO.s:1826   .text.AsebaDebugBareRun:000000a0 $d
C:\Users\PCHAUT~1\AppData\Local\Temp\cc7zwTNO.s:1831   .text.AsebaDebugBreakpointRun:00000000 $t
C:\Users\PCHAUT~1\AppData\Local\Temp\cc7zwTNO.s:1839   .text.AsebaDebugBreakpointRun:00000000 AsebaDebugBreakpointRun
C:\Users\PCHAUT~1\AppData\Local\Temp\cc7zwTNO.s:1977   .text.AsebaDebugBreakpointRun:000000e0 $d
C:\Users\PCHAUT~1\AppData\Local\Temp\cc7zwTNO.s:1982   .text.AsebaVMRun:00000000 $t
C:\Users\PCHAUT~1\AppData\Local\Temp\cc7zwTNO.s:1990   .text.AsebaVMRun:00000000 AsebaVMRun
C:\Users\PCHAUT~1\AppData\Local\Temp\cc7zwTNO.s:2065   .text.AsebaVMRun:0000006c $d
C:\Users\PCHAUT~1\AppData\Local\Temp\cc7zwTNO.s:2070   .text.AsebaVMSetBreakpoint:00000000 $t
C:\Users\PCHAUT~1\AppData\Local\Temp\cc7zwTNO.s:2078   .text.AsebaVMSetBreakpoint:00000000 AsebaVMSetBreakpoint
C:\Users\PCHAUT~1\AppData\Local\Temp\cc7zwTNO.s:2137   .text.AsebaVMSetBreakpoint:00000050 $d
C:\Users\PCHAUT~1\AppData\Local\Temp\cc7zwTNO.s:2142   .text.AsebaVMClearBreakpoint:00000000 $t
C:\Users\PCHAUT~1\AppData\Local\Temp\cc7zwTNO.s:2150   .text.AsebaVMClearBreakpoint:00000000 AsebaVMClearBreakpoint
C:\Users\PCHAUT~1\AppData\Local\Temp\cc7zwTNO.s:2257   .text.AsebaVMClearBreakpoint:000000b0 $d
C:\Users\PCHAUT~1\AppData\Local\Temp\cc7zwTNO.s:2262   .text.AsebaVMClearBreakpoints:00000000 $t
C:\Users\PCHAUT~1\AppData\Local\Temp\cc7zwTNO.s:2270   .text.AsebaVMClearBreakpoints:00000000 AsebaVMClearBreakpoints
C:\Users\PCHAUT~1\AppData\Local\Temp\cc7zwTNO.s:2306   .text.AsebaVMClearBreakpoints:00000028 $d
C:\Users\PCHAUT~1\AppData\Local\Temp\cc7zwTNO.s:2311   .text.AsebaVMSendExecutionStateChanged:00000000 $t
C:\Users\PCHAUT~1\AppData\Local\Temp\cc7zwTNO.s:2365   .text.AsebaVMSendExecutionStateChanged:00000040 $d
C:\Users\PCHAUT~1\AppData\Local\Temp\cc7zwTNO.s:2370   .text.AsebaVMResetWhenFlags:00000000 $t
C:\Users\PCHAUT~1\AppData\Local\Temp\cc7zwTNO.s:2377   .text.AsebaVMResetWhenFlags:00000000 AsebaVMResetWhenFlags
ARM GAS  C:\Users\PCHAUT~1\AppData\Local\Temp\cc7zwTNO.s 			page 136


C:\Users\PCHAUT~1\AppData\Local\Temp\cc7zwTNO.s:2457   .text.AsebaVMResetWhenFlags:00000080 $d
C:\Users\PCHAUT~1\AppData\Local\Temp\cc7zwTNO.s:2462   .text.AsebaVMDebugMessage:00000000 $t
C:\Users\PCHAUT~1\AppData\Local\Temp\cc7zwTNO.s:2470   .text.AsebaVMDebugMessage:00000000 AsebaVMDebugMessage
C:\Users\PCHAUT~1\AppData\Local\Temp\cc7zwTNO.s:2561   .text.AsebaVMDebugMessage:000000a4 $d
C:\Users\PCHAUT~1\AppData\Local\Temp\cc7zwTNO.s:2577   .text.AsebaVMDebugMessage:000000e4 $t
C:\Users\PCHAUT~1\AppData\Local\Temp\cc7zwTNO.s:2881   .text.AsebaVMDebugMessage:000002dc $d
C:\Users\PCHAUT~1\AppData\Local\Temp\cc7zwTNO.s:2888   .text.AsebaVMShouldDropPacket:00000000 $t
C:\Users\PCHAUT~1\AppData\Local\Temp\cc7zwTNO.s:2896   .text.AsebaVMShouldDropPacket:00000000 AsebaVMShouldDropPacket
C:\Users\PCHAUT~1\AppData\Local\Temp\cc7zwTNO.s:2992   .text.AsebaVMShouldDropPacket:0000009c $d

UNDEFINED SYMBOLS
memset
__stack_chk_fail
__stack_chk_guard
AsebaSendMessage
AsebaVMErrorCB
AsebaNativeFunction
strlen
memcpy
AsebaSendDescription
AsebaVMResetCB
AsebaVMRunCB
AsebaSendVariables
AsebaWriteBytecode
AsebaResetIntoBootloader
AsebaPutVmToSleep
