ARM GAS  C:\Users\PCHAUT~1\AppData\Local\Temp\cc7zwTNO.s 			page 1


   1              		.cpu cortex-m4
   2              		.eabi_attribute 27, 1
   3              		.eabi_attribute 28, 1
   4              		.eabi_attribute 20, 1
   5              		.eabi_attribute 21, 1
   6              		.eabi_attribute 23, 3
   7              		.eabi_attribute 24, 1
   8              		.eabi_attribute 25, 1
   9              		.eabi_attribute 26, 1
  10              		.eabi_attribute 30, 6
  11              		.eabi_attribute 34, 1
  12              		.eabi_attribute 18, 4
  13              		.file	"vm.c"
  14              		.text
  15              	.Ltext0:
  16              		.cfi_sections	.debug_frame
  17              		.section	.text.AsebaVMInit,"ax",%progbits
  18              		.align	1
  19              		.p2align 4,,15
  20              		.global	AsebaVMInit
  21              		.syntax unified
  22              		.thumb
  23              		.thumb_func
  24              		.fpu fpv4-sp-d16
  25              		.type	AsebaVMInit, %function
  26              	AsebaVMInit:
  27              	.LFB0:
  28              		.file 1 "../lib/e-puck2_main-processor/aseba/vm/vm.c"
  29              		.loc 1 45 0
  30              		.cfi_startproc
  31              		@ args = 0, pretend = 0, frame = 16
  32              		@ frame_needed = 0, uses_anonymous_args = 0
  33 0000 00B5     		push	{lr}
  34              		.cfi_def_cfa_offset 4
  35              		.cfi_offset 14, -4
  36 0002 85B0     		sub	sp, sp, #20
  37              		.cfi_def_cfa_offset 24
  38 0004 0190     		str	r0, [sp, #4]
  39              		.loc 1 45 0
  40 0006 124B     		ldr	r3, .L3
  41 0008 1B68     		ldr	r3, [r3]
  42 000a 0393     		str	r3, [sp, #12]
  43              		.loc 1 46 0
  44 000c 019B     		ldr	r3, [sp, #4]
  45 000e 0022     		movs	r2, #0
  46 0010 5A83     		strh	r2, [r3, #26]	@ movhi
  47              		.loc 1 47 0
  48 0012 019B     		ldr	r3, [sp, #4]
  49 0014 0022     		movs	r2, #0
  50 0016 1A83     		strh	r2, [r3, #24]	@ movhi
  51              		.loc 1 48 0
  52 0018 019B     		ldr	r3, [sp, #4]
  53 001a 0022     		movs	r2, #0
  54 001c DA87     		strh	r2, [r3, #62]	@ movhi
  55              		.loc 1 51 0
  56 001e 019B     		ldr	r3, [sp, #4]
  57 0020 5B68     		ldr	r3, [r3, #4]
ARM GAS  C:\Users\PCHAUT~1\AppData\Local\Temp\cc7zwTNO.s 			page 2


  58 0022 0022     		movs	r2, #0
  59 0024 1A80     		strh	r2, [r3]	@ movhi
  60              		.loc 1 52 0
  61 0026 019B     		ldr	r3, [sp, #4]
  62 0028 D868     		ldr	r0, [r3, #12]
  63 002a 019B     		ldr	r3, [sp, #4]
  64 002c 1B89     		ldrh	r3, [r3, #8]
  65 002e 5B00     		lsls	r3, r3, #1
  66 0030 1A46     		mov	r2, r3
  67 0032 0021     		movs	r1, #0
  68 0034 FFF7FEFF 		bl	memset
  69              		.loc 1 53 0
  70 0038 00BF     		nop
  71 003a 054B     		ldr	r3, .L3
  72 003c 039A     		ldr	r2, [sp, #12]
  73 003e 1B68     		ldr	r3, [r3]
  74 0040 9A42     		cmp	r2, r3
  75 0042 01D0     		beq	.L2
  76 0044 FFF7FEFF 		bl	__stack_chk_fail
  77              	.L2:
  78 0048 05B0     		add	sp, sp, #20
  79              		.cfi_def_cfa_offset 4
  80              		@ sp needed
  81 004a 5DF804FB 		ldr	pc, [sp], #4
  82              	.L4:
  83 004e 00BF     		.align	2
  84              	.L3:
  85 0050 00000000 		.word	__stack_chk_guard
  86              		.cfi_endproc
  87              	.LFE0:
  88              		.size	AsebaVMInit, .-AsebaVMInit
  89              		.section	.text.AsebaVMGetEventAddress,"ax",%progbits
  90              		.align	1
  91              		.p2align 4,,15
  92              		.global	AsebaVMGetEventAddress
  93              		.syntax unified
  94              		.thumb
  95              		.thumb_func
  96              		.fpu fpv4-sp-d16
  97              		.type	AsebaVMGetEventAddress, %function
  98              	AsebaVMGetEventAddress:
  99              	.LFB1:
 100              		.loc 1 56 0
 101              		.cfi_startproc
 102              		@ args = 0, pretend = 0, frame = 16
 103              		@ frame_needed = 0, uses_anonymous_args = 0
 104 0000 00B5     		push	{lr}
 105              		.cfi_def_cfa_offset 4
 106              		.cfi_offset 14, -4
 107 0002 85B0     		sub	sp, sp, #20
 108              		.cfi_def_cfa_offset 24
 109 0004 0190     		str	r0, [sp, #4]
 110 0006 0B46     		mov	r3, r1
 111 0008 ADF80230 		strh	r3, [sp, #2]	@ movhi
 112              		.loc 1 56 0
 113 000c 1B4B     		ldr	r3, .L11
 114 000e 1B68     		ldr	r3, [r3]
ARM GAS  C:\Users\PCHAUT~1\AppData\Local\Temp\cc7zwTNO.s 			page 3


 115 0010 0393     		str	r3, [sp, #12]
 116              		.loc 1 57 0
 117 0012 019B     		ldr	r3, [sp, #4]
 118 0014 5B68     		ldr	r3, [r3, #4]
 119 0016 1B88     		ldrh	r3, [r3]	@ movhi
 120 0018 ADF80A30 		strh	r3, [sp, #10]	@ movhi
 121              		.loc 1 61 0
 122 001c 0123     		movs	r3, #1
 123 001e ADF80830 		strh	r3, [sp, #8]	@ movhi
 124 0022 18E0     		b	.L6
 125              	.L9:
 126              		.loc 1 62 0
 127 0024 019B     		ldr	r3, [sp, #4]
 128 0026 5A68     		ldr	r2, [r3, #4]
 129 0028 BDF80830 		ldrh	r3, [sp, #8]
 130 002c 5B00     		lsls	r3, r3, #1
 131 002e 1344     		add	r3, r3, r2
 132 0030 1B88     		ldrh	r3, [r3]
 133 0032 BDF80220 		ldrh	r2, [sp, #2]
 134 0036 9A42     		cmp	r2, r3
 135 0038 08D1     		bne	.L7
 136              		.loc 1 63 0
 137 003a 019B     		ldr	r3, [sp, #4]
 138 003c 5A68     		ldr	r2, [r3, #4]
 139 003e BDF80830 		ldrh	r3, [sp, #8]
 140 0042 0133     		adds	r3, r3, #1
 141 0044 5B00     		lsls	r3, r3, #1
 142 0046 1344     		add	r3, r3, r2
 143 0048 1B88     		ldrh	r3, [r3]
 144 004a 0BE0     		b	.L8
 145              	.L7:
 146              		.loc 1 61 0 discriminator 2
 147 004c BDF80830 		ldrh	r3, [sp, #8]	@ movhi
 148 0050 0233     		adds	r3, r3, #2
 149 0052 ADF80830 		strh	r3, [sp, #8]	@ movhi
 150              	.L6:
 151              		.loc 1 61 0 is_stmt 0 discriminator 1
 152 0056 BDF80820 		ldrh	r2, [sp, #8]
 153 005a BDF80A30 		ldrh	r3, [sp, #10]
 154 005e 9A42     		cmp	r2, r3
 155 0060 E0D3     		bcc	.L9
 156              		.loc 1 64 0 is_stmt 1
 157 0062 0023     		movs	r3, #0
 158              	.L8:
 159              		.loc 1 65 0
 160 0064 1846     		mov	r0, r3
 161 0066 054B     		ldr	r3, .L11
 162 0068 039A     		ldr	r2, [sp, #12]
 163 006a 1B68     		ldr	r3, [r3]
 164 006c 9A42     		cmp	r2, r3
 165 006e 01D0     		beq	.L10
 166 0070 FFF7FEFF 		bl	__stack_chk_fail
 167              	.L10:
 168 0074 05B0     		add	sp, sp, #20
 169              		.cfi_def_cfa_offset 4
 170              		@ sp needed
 171 0076 5DF804FB 		ldr	pc, [sp], #4
ARM GAS  C:\Users\PCHAUT~1\AppData\Local\Temp\cc7zwTNO.s 			page 4


 172              	.L12:
 173 007a 00BF     		.align	2
 174              	.L11:
 175 007c 00000000 		.word	__stack_chk_guard
 176              		.cfi_endproc
 177              	.LFE1:
 178              		.size	AsebaVMGetEventAddress, .-AsebaVMGetEventAddress
 179              		.section	.text.AsebaVMSetupEvent,"ax",%progbits
 180              		.align	1
 181              		.p2align 4,,15
 182              		.global	AsebaVMSetupEvent
 183              		.syntax unified
 184              		.thumb
 185              		.thumb_func
 186              		.fpu fpv4-sp-d16
 187              		.type	AsebaVMSetupEvent, %function
 188              	AsebaVMSetupEvent:
 189              	.LFB2:
 190              		.loc 1 69 0
 191              		.cfi_startproc
 192              		@ args = 0, pretend = 0, frame = 16
 193              		@ frame_needed = 0, uses_anonymous_args = 0
 194 0000 00B5     		push	{lr}
 195              		.cfi_def_cfa_offset 4
 196              		.cfi_offset 14, -4
 197 0002 85B0     		sub	sp, sp, #20
 198              		.cfi_def_cfa_offset 24
 199 0004 0190     		str	r0, [sp, #4]
 200 0006 0B46     		mov	r3, r1
 201 0008 ADF80230 		strh	r3, [sp, #2]	@ movhi
 202              		.loc 1 69 0
 203 000c 214B     		ldr	r3, .L18
 204 000e 1B68     		ldr	r3, [r3]
 205 0010 0393     		str	r3, [sp, #12]
 206              		.loc 1 70 0
 207 0012 BDF80230 		ldrh	r3, [sp, #2]
 208 0016 1946     		mov	r1, r3
 209 0018 0198     		ldr	r0, [sp, #4]
 210 001a FFF7FEFF 		bl	AsebaVMGetEventAddress
 211 001e 0346     		mov	r3, r0
 212 0020 ADF80A30 		strh	r3, [sp, #10]	@ movhi
 213              		.loc 1 71 0
 214 0024 BDF80A30 		ldrh	r3, [sp, #10]
 215 0028 002B     		cmp	r3, #0
 216 002a 26D0     		beq	.L14
 217              		.loc 1 74 0
 218 002c 019B     		ldr	r3, [sp, #4]
 219 002e 1B8B     		ldrh	r3, [r3, #24]
 220 0030 03F00103 		and	r3, r3, #1
 221 0034 002B     		cmp	r3, #0
 222 0036 08D0     		beq	.L15
 223              		.loc 1 76 0
 224 0038 019B     		ldr	r3, [sp, #4]
 225 003a 03F11A02 		add	r2, r3, #26
 226 003e 0223     		movs	r3, #2
 227 0040 49F20801 		movw	r1, #36872
 228 0044 0198     		ldr	r0, [sp, #4]
ARM GAS  C:\Users\PCHAUT~1\AppData\Local\Temp\cc7zwTNO.s 			page 5


 229 0046 FFF7FEFF 		bl	AsebaSendMessage
 230              	.L15:
 231              		.loc 1 79 0
 232 004a 019B     		ldr	r3, [sp, #4]
 233 004c BDF80A20 		ldrh	r2, [sp, #10]	@ movhi
 234 0050 5A83     		strh	r2, [r3, #26]	@ movhi
 235              		.loc 1 80 0
 236 0052 019B     		ldr	r3, [sp, #4]
 237 0054 4FF6FF72 		movw	r2, #65535
 238 0058 9A83     		strh	r2, [r3, #28]	@ movhi
 239              		.loc 1 81 0
 240 005a 019B     		ldr	r3, [sp, #4]
 241 005c 1B8B     		ldrh	r3, [r3, #24]
 242 005e 43F00103 		orr	r3, r3, #1
 243 0062 9AB2     		uxth	r2, r3
 244 0064 019B     		ldr	r3, [sp, #4]
 245 0066 1A83     		strh	r2, [r3, #24]	@ movhi
 246              		.loc 1 84 0
 247 0068 019B     		ldr	r3, [sp, #4]
 248 006a 1B8B     		ldrh	r3, [r3, #24]
 249 006c 03F00203 		and	r3, r3, #2
 250 0070 002B     		cmp	r3, #0
 251 0072 02D0     		beq	.L14
 252              		.loc 1 85 0
 253 0074 0198     		ldr	r0, [sp, #4]
 254 0076 FFF7FEFF 		bl	AsebaVMSendExecutionStateChanged
 255              	.L14:
 256              		.loc 1 87 0
 257 007a BDF80A30 		ldrh	r3, [sp, #10]
 258              		.loc 1 88 0
 259 007e 1846     		mov	r0, r3
 260 0080 044B     		ldr	r3, .L18
 261 0082 039A     		ldr	r2, [sp, #12]
 262 0084 1B68     		ldr	r3, [r3]
 263 0086 9A42     		cmp	r2, r3
 264 0088 01D0     		beq	.L17
 265 008a FFF7FEFF 		bl	__stack_chk_fail
 266              	.L17:
 267 008e 05B0     		add	sp, sp, #20
 268              		.cfi_def_cfa_offset 4
 269              		@ sp needed
 270 0090 5DF804FB 		ldr	pc, [sp], #4
 271              	.L19:
 272              		.align	2
 273              	.L18:
 274 0094 00000000 		.word	__stack_chk_guard
 275              		.cfi_endproc
 276              	.LFE2:
 277              		.size	AsebaVMSetupEvent, .-AsebaVMSetupEvent
 278              		.section	.text.AsebaVMDoBinaryOperation,"ax",%progbits
 279              		.align	1
 280              		.p2align 4,,15
 281              		.syntax unified
 282              		.thumb
 283              		.thumb_func
 284              		.fpu fpv4-sp-d16
 285              		.type	AsebaVMDoBinaryOperation, %function
ARM GAS  C:\Users\PCHAUT~1\AppData\Local\Temp\cc7zwTNO.s 			page 6


 286              	AsebaVMDoBinaryOperation:
 287              	.LFB3:
 288              		.loc 1 91 0
 289              		.cfi_startproc
 290              		@ args = 0, pretend = 0, frame = 24
 291              		@ frame_needed = 0, uses_anonymous_args = 0
 292 0000 00B5     		push	{lr}
 293              		.cfi_def_cfa_offset 4
 294              		.cfi_offset 14, -4
 295 0002 87B0     		sub	sp, sp, #28
 296              		.cfi_def_cfa_offset 32
 297 0004 0390     		str	r0, [sp, #12]
 298 0006 0846     		mov	r0, r1
 299 0008 1146     		mov	r1, r2
 300 000a 1A46     		mov	r2, r3
 301 000c 0346     		mov	r3, r0	@ movhi
 302 000e ADF80A30 		strh	r3, [sp, #10]	@ movhi
 303 0012 0B46     		mov	r3, r1	@ movhi
 304 0014 ADF80830 		strh	r3, [sp, #8]	@ movhi
 305 0018 1346     		mov	r3, r2	@ movhi
 306 001a ADF80630 		strh	r3, [sp, #6]	@ movhi
 307              		.loc 1 91 0
 308 001e 8D4B     		ldr	r3, .L52
 309 0020 1B68     		ldr	r3, [r3]
 310 0022 0593     		str	r3, [sp, #20]
 311              		.loc 1 92 0
 312 0024 BDF80630 		ldrh	r3, [sp, #6]
 313 0028 112B     		cmp	r3, #17
 314 002a 00F20681 		bhi	.L21
 315 002e 01A2     		adr	r2, .L23
 316 0030 52F823F0 		ldr	pc, [r2, r3, lsl #2]
 317              		.p2align 2
 318              	.L23:
 319 0034 7D000000 		.word	.L22+1
 320 0038 8D000000 		.word	.L24+1
 321 003c 9D000000 		.word	.L25+1
 322 0040 AD000000 		.word	.L26+1
 323 0044 BD000000 		.word	.L27+1
 324 0048 CF000000 		.word	.L28+1
 325 004c 11010000 		.word	.L29+1
 326 0050 59010000 		.word	.L30+1
 327 0054 67010000 		.word	.L31+1
 328 0058 75010000 		.word	.L32+1
 329 005c 83010000 		.word	.L33+1
 330 0060 99010000 		.word	.L34+1
 331 0064 AF010000 		.word	.L35+1
 332 0068 C5010000 		.word	.L36+1
 333 006c DB010000 		.word	.L37+1
 334 0070 F1010000 		.word	.L38+1
 335 0074 07020000 		.word	.L39+1
 336 0078 21020000 		.word	.L40+1
 337              		.p2align 1
 338              	.L22:
 339              		.loc 1 94 0
 340 007c BDF90A20 		ldrsh	r2, [sp, #10]
 341 0080 BDF90830 		ldrsh	r3, [sp, #8]
 342 0084 02FA03F3 		lsl	r3, r2, r3
ARM GAS  C:\Users\PCHAUT~1\AppData\Local\Temp\cc7zwTNO.s 			page 7


 343 0088 1BB2     		sxth	r3, r3
 344 008a D7E0     		b	.L41
 345              	.L24:
 346              		.loc 1 95 0
 347 008c BDF90A20 		ldrsh	r2, [sp, #10]
 348 0090 BDF90830 		ldrsh	r3, [sp, #8]
 349 0094 42FA03F3 		asr	r3, r2, r3
 350 0098 1BB2     		sxth	r3, r3
 351 009a CFE0     		b	.L41
 352              	.L25:
 353              		.loc 1 96 0
 354 009c BDF80A20 		ldrh	r2, [sp, #10]
 355 00a0 BDF80830 		ldrh	r3, [sp, #8]
 356 00a4 1344     		add	r3, r3, r2
 357 00a6 9BB2     		uxth	r3, r3
 358 00a8 1BB2     		sxth	r3, r3
 359 00aa C7E0     		b	.L41
 360              	.L26:
 361              		.loc 1 97 0
 362 00ac BDF80A20 		ldrh	r2, [sp, #10]
 363 00b0 BDF80830 		ldrh	r3, [sp, #8]
 364 00b4 D31A     		subs	r3, r2, r3
 365 00b6 9BB2     		uxth	r3, r3
 366 00b8 1BB2     		sxth	r3, r3
 367 00ba BFE0     		b	.L41
 368              	.L27:
 369              		.loc 1 98 0
 370 00bc BDF80A20 		ldrh	r2, [sp, #10]
 371 00c0 BDF80830 		ldrh	r3, [sp, #8]
 372 00c4 12FB03F3 		smulbb	r3, r2, r3
 373 00c8 9BB2     		uxth	r3, r3
 374 00ca 1BB2     		sxth	r3, r3
 375 00cc B6E0     		b	.L41
 376              	.L28:
 377              		.loc 1 101 0
 378 00ce BDF90830 		ldrsh	r3, [sp, #8]
 379 00d2 002B     		cmp	r3, #0
 380 00d4 14D1     		bne	.L42
 381              		.loc 1 103 0
 382 00d6 604B     		ldr	r3, .L52+4
 383 00d8 002B     		cmp	r3, #0
 384 00da 03D0     		beq	.L43
 385              		.loc 1 104 0
 386 00dc 0021     		movs	r1, #0
 387 00de 0398     		ldr	r0, [sp, #12]
 388 00e0 FFF7FEFF 		bl	AsebaVMErrorCB
 389              	.L43:
 390              		.loc 1 105 0
 391 00e4 039B     		ldr	r3, [sp, #12]
 392 00e6 0222     		movs	r2, #2
 393 00e8 1A83     		strh	r2, [r3, #24]	@ movhi
 394              		.loc 1 106 0
 395 00ea 039B     		ldr	r3, [sp, #12]
 396 00ec 03F11A02 		add	r2, r3, #26
 397 00f0 0223     		movs	r3, #2
 398 00f2 49F20701 		movw	r1, #36871
 399 00f6 0398     		ldr	r0, [sp, #12]
ARM GAS  C:\Users\PCHAUT~1\AppData\Local\Temp\cc7zwTNO.s 			page 8


 400 00f8 FFF7FEFF 		bl	AsebaSendMessage
 401              		.loc 1 107 0
 402 00fc 0023     		movs	r3, #0
 403 00fe 9DE0     		b	.L41
 404              	.L42:
 405              		.loc 1 111 0
 406 0100 BDF90A20 		ldrsh	r2, [sp, #10]
 407 0104 BDF90830 		ldrsh	r3, [sp, #8]
 408 0108 92FBF3F3 		sdiv	r3, r2, r3
 409 010c 1BB2     		sxth	r3, r3
 410 010e 95E0     		b	.L41
 411              	.L29:
 412              		.loc 1 115 0
 413 0110 BDF90830 		ldrsh	r3, [sp, #8]
 414 0114 002B     		cmp	r3, #0
 415 0116 14D1     		bne	.L44
 416              		.loc 1 117 0
 417 0118 4F4B     		ldr	r3, .L52+4
 418 011a 002B     		cmp	r3, #0
 419 011c 03D0     		beq	.L45
 420              		.loc 1 118 0
 421 011e 0021     		movs	r1, #0
 422 0120 0398     		ldr	r0, [sp, #12]
 423 0122 FFF7FEFF 		bl	AsebaVMErrorCB
 424              	.L45:
 425              		.loc 1 119 0
 426 0126 039B     		ldr	r3, [sp, #12]
 427 0128 0222     		movs	r2, #2
 428 012a 1A83     		strh	r2, [r3, #24]	@ movhi
 429              		.loc 1 120 0
 430 012c 039B     		ldr	r3, [sp, #12]
 431 012e 03F11A02 		add	r2, r3, #26
 432 0132 0223     		movs	r3, #2
 433 0134 49F20701 		movw	r1, #36871
 434 0138 0398     		ldr	r0, [sp, #12]
 435 013a FFF7FEFF 		bl	AsebaSendMessage
 436              		.loc 1 121 0
 437 013e 0023     		movs	r3, #0
 438 0140 7CE0     		b	.L41
 439              	.L44:
 440              		.loc 1 125 0
 441 0142 BDF90A30 		ldrsh	r3, [sp, #10]
 442 0146 BDF90820 		ldrsh	r2, [sp, #8]
 443 014a 93FBF2F1 		sdiv	r1, r3, r2
 444 014e 02FB01F2 		mul	r2, r2, r1
 445 0152 9B1A     		subs	r3, r3, r2
 446 0154 1BB2     		sxth	r3, r3
 447 0156 71E0     		b	.L41
 448              	.L30:
 449              		.loc 1 128 0
 450 0158 BDF80A20 		ldrh	r2, [sp, #10]	@ movhi
 451 015c BDF80830 		ldrh	r3, [sp, #8]	@ movhi
 452 0160 1343     		orrs	r3, r3, r2
 453 0162 1BB2     		sxth	r3, r3
 454 0164 6AE0     		b	.L41
 455              	.L31:
 456              		.loc 1 129 0
ARM GAS  C:\Users\PCHAUT~1\AppData\Local\Temp\cc7zwTNO.s 			page 9


 457 0166 BDF80A20 		ldrh	r2, [sp, #10]	@ movhi
 458 016a BDF80830 		ldrh	r3, [sp, #8]	@ movhi
 459 016e 5340     		eors	r3, r3, r2
 460 0170 1BB2     		sxth	r3, r3
 461 0172 63E0     		b	.L41
 462              	.L32:
 463              		.loc 1 130 0
 464 0174 BDF80A20 		ldrh	r2, [sp, #10]	@ movhi
 465 0178 BDF80830 		ldrh	r3, [sp, #8]	@ movhi
 466 017c 1340     		ands	r3, r3, r2
 467 017e 1BB2     		sxth	r3, r3
 468 0180 5CE0     		b	.L41
 469              	.L33:
 470              		.loc 1 132 0
 471 0182 BDF90A20 		ldrsh	r2, [sp, #10]
 472 0186 BDF90830 		ldrsh	r3, [sp, #8]
 473 018a 9A42     		cmp	r2, r3
 474 018c 0CBF     		ite	eq
 475 018e 0123     		moveq	r3, #1
 476 0190 0023     		movne	r3, #0
 477 0192 DBB2     		uxtb	r3, r3
 478 0194 1BB2     		sxth	r3, r3
 479 0196 51E0     		b	.L41
 480              	.L34:
 481              		.loc 1 133 0
 482 0198 BDF90A20 		ldrsh	r2, [sp, #10]
 483 019c BDF90830 		ldrsh	r3, [sp, #8]
 484 01a0 9A42     		cmp	r2, r3
 485 01a2 14BF     		ite	ne
 486 01a4 0123     		movne	r3, #1
 487 01a6 0023     		moveq	r3, #0
 488 01a8 DBB2     		uxtb	r3, r3
 489 01aa 1BB2     		sxth	r3, r3
 490 01ac 46E0     		b	.L41
 491              	.L35:
 492              		.loc 1 134 0
 493 01ae BDF90A20 		ldrsh	r2, [sp, #10]
 494 01b2 BDF90830 		ldrsh	r3, [sp, #8]
 495 01b6 9A42     		cmp	r2, r3
 496 01b8 CCBF     		ite	gt
 497 01ba 0123     		movgt	r3, #1
 498 01bc 0023     		movle	r3, #0
 499 01be DBB2     		uxtb	r3, r3
 500 01c0 1BB2     		sxth	r3, r3
 501 01c2 3BE0     		b	.L41
 502              	.L36:
 503              		.loc 1 135 0
 504 01c4 BDF90A20 		ldrsh	r2, [sp, #10]
 505 01c8 BDF90830 		ldrsh	r3, [sp, #8]
 506 01cc 9A42     		cmp	r2, r3
 507 01ce ACBF     		ite	ge
 508 01d0 0123     		movge	r3, #1
 509 01d2 0023     		movlt	r3, #0
 510 01d4 DBB2     		uxtb	r3, r3
 511 01d6 1BB2     		sxth	r3, r3
 512 01d8 30E0     		b	.L41
 513              	.L37:
ARM GAS  C:\Users\PCHAUT~1\AppData\Local\Temp\cc7zwTNO.s 			page 10


 514              		.loc 1 136 0
 515 01da BDF90A20 		ldrsh	r2, [sp, #10]
 516 01de BDF90830 		ldrsh	r3, [sp, #8]
 517 01e2 9A42     		cmp	r2, r3
 518 01e4 B4BF     		ite	lt
 519 01e6 0123     		movlt	r3, #1
 520 01e8 0023     		movge	r3, #0
 521 01ea DBB2     		uxtb	r3, r3
 522 01ec 1BB2     		sxth	r3, r3
 523 01ee 25E0     		b	.L41
 524              	.L38:
 525              		.loc 1 137 0
 526 01f0 BDF90A20 		ldrsh	r2, [sp, #10]
 527 01f4 BDF90830 		ldrsh	r3, [sp, #8]
 528 01f8 9A42     		cmp	r2, r3
 529 01fa D4BF     		ite	le
 530 01fc 0123     		movle	r3, #1
 531 01fe 0023     		movgt	r3, #0
 532 0200 DBB2     		uxtb	r3, r3
 533 0202 1BB2     		sxth	r3, r3
 534 0204 1AE0     		b	.L41
 535              	.L39:
 536              		.loc 1 139 0
 537 0206 BDF90A30 		ldrsh	r3, [sp, #10]
 538 020a 002B     		cmp	r3, #0
 539 020c 03D1     		bne	.L46
 540              		.loc 1 139 0 is_stmt 0 discriminator 2
 541 020e BDF90830 		ldrsh	r3, [sp, #8]
 542 0212 002B     		cmp	r3, #0
 543 0214 01D0     		beq	.L47
 544              	.L46:
 545              		.loc 1 139 0 discriminator 3
 546 0216 0123     		movs	r3, #1
 547 0218 00E0     		b	.L48
 548              	.L47:
 549              		.loc 1 139 0 discriminator 4
 550 021a 0023     		movs	r3, #0
 551              	.L48:
 552              		.loc 1 139 0 discriminator 6
 553 021c 1BB2     		sxth	r3, r3
 554 021e 0DE0     		b	.L41
 555              	.L40:
 556              		.loc 1 140 0 is_stmt 1
 557 0220 BDF90A30 		ldrsh	r3, [sp, #10]
 558 0224 002B     		cmp	r3, #0
 559 0226 05D0     		beq	.L49
 560              		.loc 1 140 0 is_stmt 0 discriminator 1
 561 0228 BDF90830 		ldrsh	r3, [sp, #8]
 562 022c 002B     		cmp	r3, #0
 563 022e 01D0     		beq	.L49
 564              		.loc 1 140 0 discriminator 3
 565 0230 0123     		movs	r3, #1
 566 0232 00E0     		b	.L50
 567              	.L49:
 568              		.loc 1 140 0 discriminator 4
 569 0234 0023     		movs	r3, #0
 570              	.L50:
ARM GAS  C:\Users\PCHAUT~1\AppData\Local\Temp\cc7zwTNO.s 			page 11


 571              		.loc 1 140 0 discriminator 6
 572 0236 1BB2     		sxth	r3, r3
 573 0238 00E0     		b	.L41
 574              	.L21:
 575              		.loc 1 146 0 is_stmt 1
 576 023a 0023     		movs	r3, #0
 577              	.L41:
 578              		.loc 1 148 0
 579 023c 1846     		mov	r0, r3
 580 023e 054B     		ldr	r3, .L52
 581 0240 059A     		ldr	r2, [sp, #20]
 582 0242 1B68     		ldr	r3, [r3]
 583 0244 9A42     		cmp	r2, r3
 584 0246 01D0     		beq	.L51
 585 0248 FFF7FEFF 		bl	__stack_chk_fail
 586              	.L51:
 587 024c 07B0     		add	sp, sp, #28
 588              		.cfi_def_cfa_offset 4
 589              		@ sp needed
 590 024e 5DF804FB 		ldr	pc, [sp], #4
 591              	.L53:
 592 0252 00BF     		.align	2
 593              	.L52:
 594 0254 00000000 		.word	__stack_chk_guard
 595 0258 00000000 		.word	AsebaVMErrorCB
 596              		.cfi_endproc
 597              	.LFE3:
 598              		.size	AsebaVMDoBinaryOperation, .-AsebaVMDoBinaryOperation
 599              		.section	.text.AsebaVMDoUnaryOperation,"ax",%progbits
 600              		.align	1
 601              		.p2align 4,,15
 602              		.syntax unified
 603              		.thumb
 604              		.thumb_func
 605              		.fpu fpv4-sp-d16
 606              		.type	AsebaVMDoUnaryOperation, %function
 607              	AsebaVMDoUnaryOperation:
 608              	.LFB4:
 609              		.loc 1 151 0
 610              		.cfi_startproc
 611              		@ args = 0, pretend = 0, frame = 16
 612              		@ frame_needed = 0, uses_anonymous_args = 0
 613 0000 00B5     		push	{lr}
 614              		.cfi_def_cfa_offset 4
 615              		.cfi_offset 14, -4
 616 0002 85B0     		sub	sp, sp, #20
 617              		.cfi_def_cfa_offset 24
 618 0004 0190     		str	r0, [sp, #4]
 619 0006 0B46     		mov	r3, r1
 620 0008 ADF80230 		strh	r3, [sp, #2]	@ movhi
 621 000c 1346     		mov	r3, r2	@ movhi
 622 000e ADF80030 		strh	r3, [sp]	@ movhi
 623              		.loc 1 151 0
 624 0012 144B     		ldr	r3, .L62
 625 0014 1B68     		ldr	r3, [r3]
 626 0016 0393     		str	r3, [sp, #12]
 627              		.loc 1 153 0
ARM GAS  C:\Users\PCHAUT~1\AppData\Local\Temp\cc7zwTNO.s 			page 12


 628 0018 BDF80030 		ldrh	r3, [sp]
 629 001c 012B     		cmp	r3, #1
 630 001e 09D0     		beq	.L56
 631 0020 022B     		cmp	r3, #2
 632 0022 0ED0     		beq	.L57
 633 0024 002B     		cmp	r3, #0
 634 0026 11D1     		bne	.L61
 635              		.loc 1 155 0
 636 0028 BDF80230 		ldrh	r3, [sp, #2]
 637 002c 5B42     		negs	r3, r3
 638 002e 9BB2     		uxth	r3, r3
 639 0030 1BB2     		sxth	r3, r3
 640 0032 0CE0     		b	.L59
 641              	.L56:
 642              		.loc 1 156 0
 643 0034 BDF90230 		ldrsh	r3, [sp, #2]
 644 0038 002B     		cmp	r3, #0
 645 003a B8BF     		it	lt
 646 003c 5B42     		rsblt	r3, r3, #0
 647 003e 1BB2     		sxth	r3, r3
 648 0040 05E0     		b	.L59
 649              	.L57:
 650              		.loc 1 157 0
 651 0042 BDF80230 		ldrh	r3, [sp, #2]	@ movhi
 652 0046 DB43     		mvns	r3, r3
 653 0048 1BB2     		sxth	r3, r3
 654 004a 00E0     		b	.L59
 655              	.L61:
 656              		.loc 1 163 0
 657 004c 0023     		movs	r3, #0
 658              	.L59:
 659              		.loc 1 165 0
 660 004e 1846     		mov	r0, r3
 661 0050 044B     		ldr	r3, .L62
 662 0052 039A     		ldr	r2, [sp, #12]
 663 0054 1B68     		ldr	r3, [r3]
 664 0056 9A42     		cmp	r2, r3
 665 0058 01D0     		beq	.L60
 666 005a FFF7FEFF 		bl	__stack_chk_fail
 667              	.L60:
 668 005e 05B0     		add	sp, sp, #20
 669              		.cfi_def_cfa_offset 4
 670              		@ sp needed
 671 0060 5DF804FB 		ldr	pc, [sp], #4
 672              	.L63:
 673              		.align	2
 674              	.L62:
 675 0064 00000000 		.word	__stack_chk_guard
 676              		.cfi_endproc
 677              	.LFE4:
 678              		.size	AsebaVMDoUnaryOperation, .-AsebaVMDoUnaryOperation
 679              		.section	.text.AsebaVMStep,"ax",%progbits
 680              		.align	1
 681              		.p2align 4,,15
 682              		.global	AsebaVMStep
 683              		.syntax unified
 684              		.thumb
ARM GAS  C:\Users\PCHAUT~1\AppData\Local\Temp\cc7zwTNO.s 			page 13


 685              		.thumb_func
 686              		.fpu fpv4-sp-d16
 687              		.type	AsebaVMStep, %function
 688              	AsebaVMStep:
 689              	.LFB5:
 690              		.loc 1 170 0
 691              		.cfi_startproc
 692              		@ args = 0, pretend = 0, frame = 72
 693              		@ frame_needed = 0, uses_anonymous_args = 0
 694 0000 00B5     		push	{lr}
 695              		.cfi_def_cfa_offset 4
 696              		.cfi_offset 14, -4
 697 0002 93B0     		sub	sp, sp, #76
 698              		.cfi_def_cfa_offset 80
 699 0004 0190     		str	r0, [sp, #4]
 700              		.loc 1 170 0
 701 0006 924B     		ldr	r3, .L96
 702 0008 1B68     		ldr	r3, [r3]
 703 000a 1193     		str	r3, [sp, #68]
 704              		.loc 1 171 0
 705 000c 019B     		ldr	r3, [sp, #4]
 706 000e 5A68     		ldr	r2, [r3, #4]
 707 0010 019B     		ldr	r3, [sp, #4]
 708 0012 5B8B     		ldrh	r3, [r3, #26]
 709 0014 5B00     		lsls	r3, r3, #1
 710 0016 1344     		add	r3, r3, r2
 711 0018 1B88     		ldrh	r3, [r3]	@ movhi
 712 001a ADF80E30 		strh	r3, [sp, #14]	@ movhi
 713              		.loc 1 178 0
 714 001e BDF80E30 		ldrh	r3, [sp, #14]
 715 0022 1B0B     		lsrs	r3, r3, #12
 716 0024 9BB2     		uxth	r3, r3
 717 0026 0E2B     		cmp	r3, #14
 718 0028 00F2EB82 		bhi	.L93
 719 002c 01A2     		adr	r2, .L67
 720 002e 52F823F0 		ldr	pc, [r2, r3, lsl #2]
 721 0032 00BF     		.p2align 2
 722              	.L67:
 723 0034 71000000 		.word	.L66+1
 724 0038 81000000 		.word	.L68+1
 725 003c C3000000 		.word	.L69+1
 726 0040 05010000 		.word	.L70+1
 727 0044 51010000 		.word	.L71+1
 728 0048 99010000 		.word	.L72+1
 729 004c 59020000 		.word	.L73+1
 730 0050 2D030000 		.word	.L74+1
 731 0054 7D030000 		.word	.L75+1
 732 0058 FB030000 		.word	.L76+1
 733 005c 1B040000 		.word	.L77+1
 734 0060 1B050000 		.word	.L78+1
 735 0064 75050000 		.word	.L79+1
 736 0068 99050000 		.word	.L80+1
 737 006c DB050000 		.word	.L81+1
 738              		.p2align 1
 739              	.L66:
 740              		.loc 1 183 0
 741 0070 019B     		ldr	r3, [sp, #4]
ARM GAS  C:\Users\PCHAUT~1\AppData\Local\Temp\cc7zwTNO.s 			page 14


 742 0072 1B8B     		ldrh	r3, [r3, #24]
 743 0074 23F00103 		bic	r3, r3, #1
 744 0078 9AB2     		uxth	r2, r3
 745 007a 019B     		ldr	r3, [sp, #4]
 746 007c 1A83     		strh	r2, [r3, #24]	@ movhi
 747              		.loc 1 185 0
 748 007e C5E2     		b	.L82
 749              	.L68:
 750              	.LBB2:
 751              		.loc 1 190 0
 752 0080 BDF80E30 		ldrh	r3, [sp, #14]
 753 0084 1B01     		lsls	r3, r3, #4
 754 0086 1BB2     		sxth	r3, r3
 755 0088 1B11     		asrs	r3, r3, #4
 756 008a ADF83A30 		strh	r3, [sp, #58]	@ movhi
 757              		.loc 1 199 0
 758 008e 019B     		ldr	r3, [sp, #4]
 759 0090 5A69     		ldr	r2, [r3, #20]
 760 0092 019B     		ldr	r3, [sp, #4]
 761 0094 B3F91C30 		ldrsh	r3, [r3, #28]
 762 0098 9BB2     		uxth	r3, r3
 763 009a 0133     		adds	r3, r3, #1
 764 009c 9BB2     		uxth	r3, r3
 765 009e 19B2     		sxth	r1, r3
 766 00a0 019B     		ldr	r3, [sp, #4]
 767 00a2 9983     		strh	r1, [r3, #28]	@ movhi
 768 00a4 019B     		ldr	r3, [sp, #4]
 769 00a6 B3F91C30 		ldrsh	r3, [r3, #28]
 770 00aa 5B00     		lsls	r3, r3, #1
 771 00ac 1344     		add	r3, r3, r2
 772 00ae BDF83A20 		ldrh	r2, [sp, #58]	@ movhi
 773 00b2 1A80     		strh	r2, [r3]	@ movhi
 774              		.loc 1 202 0
 775 00b4 019B     		ldr	r3, [sp, #4]
 776 00b6 5B8B     		ldrh	r3, [r3, #26]
 777 00b8 0133     		adds	r3, r3, #1
 778 00ba 9AB2     		uxth	r2, r3
 779 00bc 019B     		ldr	r3, [sp, #4]
 780 00be 5A83     		strh	r2, [r3, #26]	@ movhi
 781              	.LBE2:
 782              		.loc 1 204 0
 783 00c0 A4E2     		b	.L82
 784              	.L69:
 785              		.loc 1 216 0
 786 00c2 019B     		ldr	r3, [sp, #4]
 787 00c4 5A68     		ldr	r2, [r3, #4]
 788 00c6 019B     		ldr	r3, [sp, #4]
 789 00c8 5B8B     		ldrh	r3, [r3, #26]
 790 00ca 0133     		adds	r3, r3, #1
 791 00cc 5B00     		lsls	r3, r3, #1
 792 00ce 1344     		add	r3, r3, r2
 793 00d0 1988     		ldrh	r1, [r3]
 794 00d2 019B     		ldr	r3, [sp, #4]
 795 00d4 5A69     		ldr	r2, [r3, #20]
 796 00d6 019B     		ldr	r3, [sp, #4]
 797 00d8 B3F91C30 		ldrsh	r3, [r3, #28]
 798 00dc 9BB2     		uxth	r3, r3
ARM GAS  C:\Users\PCHAUT~1\AppData\Local\Temp\cc7zwTNO.s 			page 15


 799 00de 0133     		adds	r3, r3, #1
 800 00e0 9BB2     		uxth	r3, r3
 801 00e2 18B2     		sxth	r0, r3
 802 00e4 019B     		ldr	r3, [sp, #4]
 803 00e6 9883     		strh	r0, [r3, #28]	@ movhi
 804 00e8 019B     		ldr	r3, [sp, #4]
 805 00ea B3F91C30 		ldrsh	r3, [r3, #28]
 806 00ee 5B00     		lsls	r3, r3, #1
 807 00f0 1344     		add	r3, r3, r2
 808 00f2 0AB2     		sxth	r2, r1
 809 00f4 1A80     		strh	r2, [r3]	@ movhi
 810              		.loc 1 219 0
 811 00f6 019B     		ldr	r3, [sp, #4]
 812 00f8 5B8B     		ldrh	r3, [r3, #26]
 813 00fa 0233     		adds	r3, r3, #2
 814 00fc 9AB2     		uxth	r2, r3
 815 00fe 019B     		ldr	r3, [sp, #4]
 816 0100 5A83     		strh	r2, [r3, #26]	@ movhi
 817              		.loc 1 221 0
 818 0102 83E2     		b	.L82
 819              	.L70:
 820              	.LBB3:
 821              		.loc 1 226 0
 822 0104 BDF80E30 		ldrh	r3, [sp, #14]	@ movhi
 823 0108 C3F30B03 		ubfx	r3, r3, #0, #12
 824 010c ADF83830 		strh	r3, [sp, #56]	@ movhi
 825              		.loc 1 237 0
 826 0110 019B     		ldr	r3, [sp, #4]
 827 0112 DA68     		ldr	r2, [r3, #12]
 828 0114 BDF83830 		ldrh	r3, [sp, #56]
 829 0118 5B00     		lsls	r3, r3, #1
 830 011a 1A44     		add	r2, r2, r3
 831 011c 019B     		ldr	r3, [sp, #4]
 832 011e 5969     		ldr	r1, [r3, #20]
 833 0120 019B     		ldr	r3, [sp, #4]
 834 0122 B3F91C30 		ldrsh	r3, [r3, #28]
 835 0126 9BB2     		uxth	r3, r3
 836 0128 0133     		adds	r3, r3, #1
 837 012a 9BB2     		uxth	r3, r3
 838 012c 18B2     		sxth	r0, r3
 839 012e 019B     		ldr	r3, [sp, #4]
 840 0130 9883     		strh	r0, [r3, #28]	@ movhi
 841 0132 019B     		ldr	r3, [sp, #4]
 842 0134 B3F91C30 		ldrsh	r3, [r3, #28]
 843 0138 5B00     		lsls	r3, r3, #1
 844 013a 0B44     		add	r3, r3, r1
 845 013c B2F90020 		ldrsh	r2, [r2]
 846 0140 1A80     		strh	r2, [r3]	@ movhi
 847              		.loc 1 240 0
 848 0142 019B     		ldr	r3, [sp, #4]
 849 0144 5B8B     		ldrh	r3, [r3, #26]
 850 0146 0133     		adds	r3, r3, #1
 851 0148 9AB2     		uxth	r2, r3
 852 014a 019B     		ldr	r3, [sp, #4]
 853 014c 5A83     		strh	r2, [r3, #26]	@ movhi
 854              	.LBE3:
 855              		.loc 1 242 0
ARM GAS  C:\Users\PCHAUT~1\AppData\Local\Temp\cc7zwTNO.s 			page 16


 856 014e 5DE2     		b	.L82
 857              	.L71:
 858              	.LBB4:
 859              		.loc 1 247 0
 860 0150 BDF80E30 		ldrh	r3, [sp, #14]	@ movhi
 861 0154 C3F30B03 		ubfx	r3, r3, #0, #12
 862 0158 ADF83630 		strh	r3, [sp, #54]	@ movhi
 863              		.loc 1 258 0
 864 015c 019B     		ldr	r3, [sp, #4]
 865 015e 5A69     		ldr	r2, [r3, #20]
 866 0160 019B     		ldr	r3, [sp, #4]
 867 0162 B3F91C10 		ldrsh	r1, [r3, #28]
 868 0166 8BB2     		uxth	r3, r1
 869 0168 013B     		subs	r3, r3, #1
 870 016a 9BB2     		uxth	r3, r3
 871 016c 18B2     		sxth	r0, r3
 872 016e 019B     		ldr	r3, [sp, #4]
 873 0170 9883     		strh	r0, [r3, #28]	@ movhi
 874 0172 0B46     		mov	r3, r1
 875 0174 5B00     		lsls	r3, r3, #1
 876 0176 1A44     		add	r2, r2, r3
 877 0178 019B     		ldr	r3, [sp, #4]
 878 017a D968     		ldr	r1, [r3, #12]
 879 017c BDF83630 		ldrh	r3, [sp, #54]
 880 0180 5B00     		lsls	r3, r3, #1
 881 0182 0B44     		add	r3, r3, r1
 882 0184 B2F90020 		ldrsh	r2, [r2]
 883 0188 1A80     		strh	r2, [r3]	@ movhi
 884              		.loc 1 261 0
 885 018a 019B     		ldr	r3, [sp, #4]
 886 018c 5B8B     		ldrh	r3, [r3, #26]
 887 018e 0133     		adds	r3, r3, #1
 888 0190 9AB2     		uxth	r2, r3
 889 0192 019B     		ldr	r3, [sp, #4]
 890 0194 5A83     		strh	r2, [r3, #26]	@ movhi
 891              	.LBE4:
 892              		.loc 1 263 0
 893 0196 39E2     		b	.L82
 894              	.L72:
 895              	.LBB5:
 896              		.loc 1 279 0
 897 0198 BDF80E30 		ldrh	r3, [sp, #14]	@ movhi
 898 019c C3F30B03 		ubfx	r3, r3, #0, #12
 899 01a0 ADF83030 		strh	r3, [sp, #48]	@ movhi
 900              		.loc 1 280 0
 901 01a4 019B     		ldr	r3, [sp, #4]
 902 01a6 5A68     		ldr	r2, [r3, #4]
 903 01a8 019B     		ldr	r3, [sp, #4]
 904 01aa 5B8B     		ldrh	r3, [r3, #26]
 905 01ac 0133     		adds	r3, r3, #1
 906 01ae 5B00     		lsls	r3, r3, #1
 907 01b0 1344     		add	r3, r3, r2
 908 01b2 1B88     		ldrh	r3, [r3]	@ movhi
 909 01b4 ADF83230 		strh	r3, [sp, #50]	@ movhi
 910              		.loc 1 281 0
 911 01b8 019B     		ldr	r3, [sp, #4]
 912 01ba 5A69     		ldr	r2, [r3, #20]
ARM GAS  C:\Users\PCHAUT~1\AppData\Local\Temp\cc7zwTNO.s 			page 17


 913 01bc 019B     		ldr	r3, [sp, #4]
 914 01be B3F91C30 		ldrsh	r3, [r3, #28]
 915 01c2 5B00     		lsls	r3, r3, #1
 916 01c4 1344     		add	r3, r3, r2
 917 01c6 B3F90030 		ldrsh	r3, [r3]
 918 01ca ADF83430 		strh	r3, [sp, #52]	@ movhi
 919              		.loc 1 284 0
 920 01ce BDF83420 		ldrh	r2, [sp, #52]
 921 01d2 BDF83230 		ldrh	r3, [sp, #50]
 922 01d6 9A42     		cmp	r2, r3
 923 01d8 1FD3     		bcc	.L83
 924              	.LBB6:
 925              		.loc 1 287 0
 926 01da 019B     		ldr	r3, [sp, #4]
 927 01dc 5B8B     		ldrh	r3, [r3, #26]
 928 01de ADF83C30 		strh	r3, [sp, #60]	@ movhi
 929              		.loc 1 288 0
 930 01e2 BDF83230 		ldrh	r3, [sp, #50]	@ movhi
 931 01e6 ADF83E30 		strh	r3, [sp, #62]	@ movhi
 932              		.loc 1 289 0
 933 01ea BDF83430 		ldrh	r3, [sp, #52]	@ movhi
 934 01ee ADF84030 		strh	r3, [sp, #64]	@ movhi
 935              		.loc 1 290 0
 936 01f2 019B     		ldr	r3, [sp, #4]
 937 01f4 0222     		movs	r2, #2
 938 01f6 1A83     		strh	r2, [r3, #24]	@ movhi
 939              		.loc 1 291 0
 940 01f8 0FAA     		add	r2, sp, #60
 941 01fa 0623     		movs	r3, #6
 942 01fc 49F20601 		movw	r1, #36870
 943 0200 0198     		ldr	r0, [sp, #4]
 944 0202 FFF7FEFF 		bl	AsebaSendMessage
 945              		.loc 1 292 0
 946 0206 134B     		ldr	r3, .L96+4
 947 0208 002B     		cmp	r3, #0
 948 020a 00F0FC81 		beq	.L94
 949              		.loc 1 293 0
 950 020e 0021     		movs	r1, #0
 951 0210 0198     		ldr	r0, [sp, #4]
 952 0212 FFF7FEFF 		bl	AsebaVMErrorCB
 953              		.loc 1 294 0
 954 0216 00BF     		nop
 955 0218 F5E1     		b	.L94
 956              	.L83:
 957              	.LBE6:
 958              		.loc 1 298 0
 959 021a 019B     		ldr	r3, [sp, #4]
 960 021c DA68     		ldr	r2, [r3, #12]
 961 021e BDF83010 		ldrh	r1, [sp, #48]
 962 0222 BDF83430 		ldrh	r3, [sp, #52]
 963 0226 0B44     		add	r3, r3, r1
 964 0228 5B00     		lsls	r3, r3, #1
 965 022a 1A44     		add	r2, r2, r3
 966 022c 019B     		ldr	r3, [sp, #4]
 967 022e 5969     		ldr	r1, [r3, #20]
 968 0230 019B     		ldr	r3, [sp, #4]
 969 0232 B3F91C30 		ldrsh	r3, [r3, #28]
ARM GAS  C:\Users\PCHAUT~1\AppData\Local\Temp\cc7zwTNO.s 			page 18


 970 0236 5B00     		lsls	r3, r3, #1
 971 0238 0B44     		add	r3, r3, r1
 972 023a B2F90020 		ldrsh	r2, [r2]
 973 023e 1A80     		strh	r2, [r3]	@ movhi
 974              		.loc 1 301 0
 975 0240 019B     		ldr	r3, [sp, #4]
 976 0242 5B8B     		ldrh	r3, [r3, #26]
 977 0244 0233     		adds	r3, r3, #2
 978 0246 9AB2     		uxth	r2, r3
 979 0248 019B     		ldr	r3, [sp, #4]
 980 024a 5A83     		strh	r2, [r3, #26]	@ movhi
 981              	.LBE5:
 982              		.loc 1 303 0
 983 024c DEE1     		b	.L82
 984              	.L97:
 985 024e 00BF     		.align	2
 986              	.L96:
 987 0250 00000000 		.word	__stack_chk_guard
 988 0254 00000000 		.word	AsebaVMErrorCB
 989              	.L73:
 990              	.LBB8:
 991              		.loc 1 320 0
 992 0258 BDF80E30 		ldrh	r3, [sp, #14]	@ movhi
 993 025c C3F30B03 		ubfx	r3, r3, #0, #12
 994 0260 ADF82830 		strh	r3, [sp, #40]	@ movhi
 995              		.loc 1 321 0
 996 0264 019B     		ldr	r3, [sp, #4]
 997 0266 5A68     		ldr	r2, [r3, #4]
 998 0268 019B     		ldr	r3, [sp, #4]
 999 026a 5B8B     		ldrh	r3, [r3, #26]
 1000 026c 0133     		adds	r3, r3, #1
 1001 026e 5B00     		lsls	r3, r3, #1
 1002 0270 1344     		add	r3, r3, r2
 1003 0272 1B88     		ldrh	r3, [r3]	@ movhi
 1004 0274 ADF82A30 		strh	r3, [sp, #42]	@ movhi
 1005              		.loc 1 322 0
 1006 0278 019B     		ldr	r3, [sp, #4]
 1007 027a 5A69     		ldr	r2, [r3, #20]
 1008 027c 019B     		ldr	r3, [sp, #4]
 1009 027e B3F91C30 		ldrsh	r3, [r3, #28]
 1010 0282 03F10043 		add	r3, r3, #-2147483648
 1011 0286 013B     		subs	r3, r3, #1
 1012 0288 5B00     		lsls	r3, r3, #1
 1013 028a 1344     		add	r3, r3, r2
 1014 028c 1B88     		ldrh	r3, [r3]	@ movhi
 1015 028e ADF82C30 		strh	r3, [sp, #44]	@ movhi
 1016              		.loc 1 323 0
 1017 0292 019B     		ldr	r3, [sp, #4]
 1018 0294 5A69     		ldr	r2, [r3, #20]
 1019 0296 019B     		ldr	r3, [sp, #4]
 1020 0298 B3F91C30 		ldrsh	r3, [r3, #28]
 1021 029c 5B00     		lsls	r3, r3, #1
 1022 029e 1344     		add	r3, r3, r2
 1023 02a0 B3F90030 		ldrsh	r3, [r3]
 1024 02a4 ADF82E30 		strh	r3, [sp, #46]	@ movhi
 1025              		.loc 1 326 0
 1026 02a8 BDF82E20 		ldrh	r2, [sp, #46]
ARM GAS  C:\Users\PCHAUT~1\AppData\Local\Temp\cc7zwTNO.s 			page 19


 1027 02ac BDF82A30 		ldrh	r3, [sp, #42]
 1028 02b0 9A42     		cmp	r2, r3
 1029 02b2 1FD3     		bcc	.L85
 1030              	.LBB9:
 1031              		.loc 1 329 0
 1032 02b4 019B     		ldr	r3, [sp, #4]
 1033 02b6 5B8B     		ldrh	r3, [r3, #26]
 1034 02b8 ADF83C30 		strh	r3, [sp, #60]	@ movhi
 1035              		.loc 1 330 0
 1036 02bc BDF82A30 		ldrh	r3, [sp, #42]	@ movhi
 1037 02c0 ADF83E30 		strh	r3, [sp, #62]	@ movhi
 1038              		.loc 1 331 0
 1039 02c4 BDF82E30 		ldrh	r3, [sp, #46]	@ movhi
 1040 02c8 ADF84030 		strh	r3, [sp, #64]	@ movhi
 1041              		.loc 1 332 0
 1042 02cc 019B     		ldr	r3, [sp, #4]
 1043 02ce 0222     		movs	r2, #2
 1044 02d0 1A83     		strh	r2, [r3, #24]	@ movhi
 1045              		.loc 1 333 0
 1046 02d2 0FAA     		add	r2, sp, #60
 1047 02d4 0623     		movs	r3, #6
 1048 02d6 49F20601 		movw	r1, #36870
 1049 02da 0198     		ldr	r0, [sp, #4]
 1050 02dc FFF7FEFF 		bl	AsebaSendMessage
 1051              		.loc 1 334 0
 1052 02e0 AC4B     		ldr	r3, .L98
 1053 02e2 002B     		cmp	r3, #0
 1054 02e4 00F09181 		beq	.L95
 1055              		.loc 1 335 0
 1056 02e8 0021     		movs	r1, #0
 1057 02ea 0198     		ldr	r0, [sp, #4]
 1058 02ec FFF7FEFF 		bl	AsebaVMErrorCB
 1059              		.loc 1 336 0
 1060 02f0 00BF     		nop
 1061 02f2 8AE1     		b	.L95
 1062              	.L85:
 1063              	.LBE9:
 1064              		.loc 1 340 0
 1065 02f4 019B     		ldr	r3, [sp, #4]
 1066 02f6 DA68     		ldr	r2, [r3, #12]
 1067 02f8 BDF82810 		ldrh	r1, [sp, #40]
 1068 02fc BDF82E30 		ldrh	r3, [sp, #46]
 1069 0300 0B44     		add	r3, r3, r1
 1070 0302 5B00     		lsls	r3, r3, #1
 1071 0304 1344     		add	r3, r3, r2
 1072 0306 BDF82C20 		ldrh	r2, [sp, #44]	@ movhi
 1073 030a 1A80     		strh	r2, [r3]	@ movhi
 1074              		.loc 1 341 0
 1075 030c 019B     		ldr	r3, [sp, #4]
 1076 030e B3F91C30 		ldrsh	r3, [r3, #28]
 1077 0312 9BB2     		uxth	r3, r3
 1078 0314 023B     		subs	r3, r3, #2
 1079 0316 9BB2     		uxth	r3, r3
 1080 0318 1AB2     		sxth	r2, r3
 1081 031a 019B     		ldr	r3, [sp, #4]
 1082 031c 9A83     		strh	r2, [r3, #28]	@ movhi
 1083              		.loc 1 344 0
ARM GAS  C:\Users\PCHAUT~1\AppData\Local\Temp\cc7zwTNO.s 			page 20


 1084 031e 019B     		ldr	r3, [sp, #4]
 1085 0320 5B8B     		ldrh	r3, [r3, #26]
 1086 0322 0233     		adds	r3, r3, #2
 1087 0324 9AB2     		uxth	r2, r3
 1088 0326 019B     		ldr	r3, [sp, #4]
 1089 0328 5A83     		strh	r2, [r3, #26]	@ movhi
 1090              	.LBE8:
 1091              		.loc 1 346 0
 1092 032a 6FE1     		b	.L82
 1093              	.L74:
 1094              	.LBB11:
 1095              		.loc 1 360 0
 1096 032c 019B     		ldr	r3, [sp, #4]
 1097 032e 5A69     		ldr	r2, [r3, #20]
 1098 0330 019B     		ldr	r3, [sp, #4]
 1099 0332 B3F91C30 		ldrsh	r3, [r3, #28]
 1100 0336 5B00     		lsls	r3, r3, #1
 1101 0338 1344     		add	r3, r3, r2
 1102 033a 1B88     		ldrh	r3, [r3]	@ movhi
 1103 033c ADF82430 		strh	r3, [sp, #36]	@ movhi
 1104              		.loc 1 363 0
 1105 0340 BDF80E30 		ldrh	r3, [sp, #14]	@ movhi
 1106 0344 DBB2     		uxtb	r3, r3
 1107 0346 9AB2     		uxth	r2, r3
 1108 0348 BDF92430 		ldrsh	r3, [sp, #36]
 1109 034c 1946     		mov	r1, r3
 1110 034e 0198     		ldr	r0, [sp, #4]
 1111 0350 FFF7FEFF 		bl	AsebaVMDoUnaryOperation
 1112 0354 0346     		mov	r3, r0
 1113 0356 ADF82630 		strh	r3, [sp, #38]	@ movhi
 1114              		.loc 1 366 0
 1115 035a 019B     		ldr	r3, [sp, #4]
 1116 035c 5A69     		ldr	r2, [r3, #20]
 1117 035e 019B     		ldr	r3, [sp, #4]
 1118 0360 B3F91C30 		ldrsh	r3, [r3, #28]
 1119 0364 5B00     		lsls	r3, r3, #1
 1120 0366 1344     		add	r3, r3, r2
 1121 0368 BDF82620 		ldrh	r2, [sp, #38]	@ movhi
 1122 036c 1A80     		strh	r2, [r3]	@ movhi
 1123              		.loc 1 369 0
 1124 036e 019B     		ldr	r3, [sp, #4]
 1125 0370 5B8B     		ldrh	r3, [r3, #26]
 1126 0372 0133     		adds	r3, r3, #1
 1127 0374 9AB2     		uxth	r2, r3
 1128 0376 019B     		ldr	r3, [sp, #4]
 1129 0378 5A83     		strh	r2, [r3, #26]	@ movhi
 1130              	.LBE11:
 1131              		.loc 1 371 0
 1132 037a 47E1     		b	.L82
 1133              	.L75:
 1134              	.LBB12:
 1135              		.loc 1 385 0
 1136 037c 019B     		ldr	r3, [sp, #4]
 1137 037e 5A69     		ldr	r2, [r3, #20]
 1138 0380 019B     		ldr	r3, [sp, #4]
 1139 0382 B3F91C30 		ldrsh	r3, [r3, #28]
 1140 0386 03F10043 		add	r3, r3, #-2147483648
ARM GAS  C:\Users\PCHAUT~1\AppData\Local\Temp\cc7zwTNO.s 			page 21


 1141 038a 013B     		subs	r3, r3, #1
 1142 038c 5B00     		lsls	r3, r3, #1
 1143 038e 1344     		add	r3, r3, r2
 1144 0390 1B88     		ldrh	r3, [r3]	@ movhi
 1145 0392 ADF81E30 		strh	r3, [sp, #30]	@ movhi
 1146              		.loc 1 386 0
 1147 0396 019B     		ldr	r3, [sp, #4]
 1148 0398 5A69     		ldr	r2, [r3, #20]
 1149 039a 019B     		ldr	r3, [sp, #4]
 1150 039c B3F91C30 		ldrsh	r3, [r3, #28]
 1151 03a0 5B00     		lsls	r3, r3, #1
 1152 03a2 1344     		add	r3, r3, r2
 1153 03a4 1B88     		ldrh	r3, [r3]	@ movhi
 1154 03a6 ADF82030 		strh	r3, [sp, #32]	@ movhi
 1155              		.loc 1 389 0
 1156 03aa BDF80E30 		ldrh	r3, [sp, #14]	@ movhi
 1157 03ae DBB2     		uxtb	r3, r3
 1158 03b0 9BB2     		uxth	r3, r3
 1159 03b2 BDF92020 		ldrsh	r2, [sp, #32]
 1160 03b6 BDF91E10 		ldrsh	r1, [sp, #30]
 1161 03ba 0198     		ldr	r0, [sp, #4]
 1162 03bc FFF7FEFF 		bl	AsebaVMDoBinaryOperation
 1163 03c0 0346     		mov	r3, r0
 1164 03c2 ADF82230 		strh	r3, [sp, #34]	@ movhi
 1165              		.loc 1 392 0
 1166 03c6 019B     		ldr	r3, [sp, #4]
 1167 03c8 B3F91C30 		ldrsh	r3, [r3, #28]
 1168 03cc 9BB2     		uxth	r3, r3
 1169 03ce 013B     		subs	r3, r3, #1
 1170 03d0 9BB2     		uxth	r3, r3
 1171 03d2 1AB2     		sxth	r2, r3
 1172 03d4 019B     		ldr	r3, [sp, #4]
 1173 03d6 9A83     		strh	r2, [r3, #28]	@ movhi
 1174              		.loc 1 393 0
 1175 03d8 019B     		ldr	r3, [sp, #4]
 1176 03da 5A69     		ldr	r2, [r3, #20]
 1177 03dc 019B     		ldr	r3, [sp, #4]
 1178 03de B3F91C30 		ldrsh	r3, [r3, #28]
 1179 03e2 5B00     		lsls	r3, r3, #1
 1180 03e4 1344     		add	r3, r3, r2
 1181 03e6 BDF82220 		ldrh	r2, [sp, #34]	@ movhi
 1182 03ea 1A80     		strh	r2, [r3]	@ movhi
 1183              		.loc 1 396 0
 1184 03ec 019B     		ldr	r3, [sp, #4]
 1185 03ee 5B8B     		ldrh	r3, [r3, #26]
 1186 03f0 0133     		adds	r3, r3, #1
 1187 03f2 9AB2     		uxth	r2, r3
 1188 03f4 019B     		ldr	r3, [sp, #4]
 1189 03f6 5A83     		strh	r2, [r3, #26]	@ movhi
 1190              	.LBE12:
 1191              		.loc 1 398 0
 1192 03f8 08E1     		b	.L82
 1193              	.L76:
 1194              	.LBB13:
 1195              		.loc 1 403 0
 1196 03fa BDF80E30 		ldrh	r3, [sp, #14]
 1197 03fe 1B01     		lsls	r3, r3, #4
ARM GAS  C:\Users\PCHAUT~1\AppData\Local\Temp\cc7zwTNO.s 			page 22


 1198 0400 1BB2     		sxth	r3, r3
 1199 0402 1B11     		asrs	r3, r3, #4
 1200 0404 ADF81C30 		strh	r3, [sp, #28]	@ movhi
 1201              		.loc 1 412 0
 1202 0408 019B     		ldr	r3, [sp, #4]
 1203 040a 5A8B     		ldrh	r2, [r3, #26]
 1204 040c BDF81C30 		ldrh	r3, [sp, #28]
 1205 0410 1344     		add	r3, r3, r2
 1206 0412 9AB2     		uxth	r2, r3
 1207 0414 019B     		ldr	r3, [sp, #4]
 1208 0416 5A83     		strh	r2, [r3, #26]	@ movhi
 1209              	.LBE13:
 1210              		.loc 1 414 0
 1211 0418 F8E0     		b	.L82
 1212              	.L77:
 1213              	.LBB14:
 1214              		.loc 1 430 0
 1215 041a 019B     		ldr	r3, [sp, #4]
 1216 041c 5A69     		ldr	r2, [r3, #20]
 1217 041e 019B     		ldr	r3, [sp, #4]
 1218 0420 B3F91C30 		ldrsh	r3, [r3, #28]
 1219 0424 03F10043 		add	r3, r3, #-2147483648
 1220 0428 013B     		subs	r3, r3, #1
 1221 042a 5B00     		lsls	r3, r3, #1
 1222 042c 1344     		add	r3, r3, r2
 1223 042e 1B88     		ldrh	r3, [r3]	@ movhi
 1224 0430 ADF81630 		strh	r3, [sp, #22]	@ movhi
 1225              		.loc 1 431 0
 1226 0434 019B     		ldr	r3, [sp, #4]
 1227 0436 5A69     		ldr	r2, [r3, #20]
 1228 0438 019B     		ldr	r3, [sp, #4]
 1229 043a B3F91C30 		ldrsh	r3, [r3, #28]
 1230 043e 5B00     		lsls	r3, r3, #1
 1231 0440 1344     		add	r3, r3, r2
 1232 0442 1B88     		ldrh	r3, [r3]	@ movhi
 1233 0444 ADF81830 		strh	r3, [sp, #24]	@ movhi
 1234              		.loc 1 432 0
 1235 0448 BDF80E30 		ldrh	r3, [sp, #14]	@ movhi
 1236 044c DBB2     		uxtb	r3, r3
 1237 044e 9BB2     		uxth	r3, r3
 1238 0450 BDF91820 		ldrsh	r2, [sp, #24]
 1239 0454 BDF91610 		ldrsh	r1, [sp, #22]
 1240 0458 0198     		ldr	r0, [sp, #4]
 1241 045a FFF7FEFF 		bl	AsebaVMDoBinaryOperation
 1242 045e 0346     		mov	r3, r0
 1243 0460 ADF81A30 		strh	r3, [sp, #26]	@ movhi
 1244              		.loc 1 433 0
 1245 0464 019B     		ldr	r3, [sp, #4]
 1246 0466 B3F91C30 		ldrsh	r3, [r3, #28]
 1247 046a 9BB2     		uxth	r3, r3
 1248 046c 023B     		subs	r3, r3, #2
 1249 046e 9BB2     		uxth	r3, r3
 1250 0470 1AB2     		sxth	r2, r3
 1251 0472 019B     		ldr	r3, [sp, #4]
 1252 0474 9A83     		strh	r2, [r3, #28]	@ movhi
 1253              		.loc 1 436 0
 1254 0476 BDF91A30 		ldrsh	r3, [sp, #26]
ARM GAS  C:\Users\PCHAUT~1\AppData\Local\Temp\cc7zwTNO.s 			page 23


 1255 047a 002B     		cmp	r3, #0
 1256 047c 13D0     		beq	.L87
 1257              		.loc 1 436 0 is_stmt 0 discriminator 1
 1258 047e BDF80E30 		ldrh	r3, [sp, #14]
 1259 0482 1B0A     		lsrs	r3, r3, #8
 1260 0484 9BB2     		uxth	r3, r3
 1261 0486 03F00103 		and	r3, r3, #1
 1262 048a 002B     		cmp	r3, #0
 1263 048c 07D0     		beq	.L88
 1264              		.loc 1 436 0 discriminator 2
 1265 048e BDF80E30 		ldrh	r3, [sp, #14]
 1266 0492 5B0A     		lsrs	r3, r3, #9
 1267 0494 9BB2     		uxth	r3, r3
 1268 0496 03F00103 		and	r3, r3, #1
 1269 049a 002B     		cmp	r3, #0
 1270 049c 03D1     		bne	.L87
 1271              	.L88:
 1272              		.loc 1 439 0 is_stmt 1
 1273 049e 0223     		movs	r3, #2
 1274 04a0 ADF80C30 		strh	r3, [sp, #12]	@ movhi
 1275 04a4 09E0     		b	.L89
 1276              	.L87:
 1277              		.loc 1 444 0
 1278 04a6 019B     		ldr	r3, [sp, #4]
 1279 04a8 5A68     		ldr	r2, [r3, #4]
 1280 04aa 019B     		ldr	r3, [sp, #4]
 1281 04ac 5B8B     		ldrh	r3, [r3, #26]
 1282 04ae 0133     		adds	r3, r3, #1
 1283 04b0 5B00     		lsls	r3, r3, #1
 1284 04b2 1344     		add	r3, r3, r2
 1285 04b4 1B88     		ldrh	r3, [r3]
 1286 04b6 ADF80C30 		strh	r3, [sp, #12]	@ movhi
 1287              	.L89:
 1288              		.loc 1 448 0
 1289 04ba BDF91A30 		ldrsh	r3, [sp, #26]
 1290 04be 002B     		cmp	r3, #0
 1291 04c0 11D0     		beq	.L90
 1292              		.loc 1 449 0
 1293 04c2 019B     		ldr	r3, [sp, #4]
 1294 04c4 5A68     		ldr	r2, [r3, #4]
 1295 04c6 019B     		ldr	r3, [sp, #4]
 1296 04c8 5B8B     		ldrh	r3, [r3, #26]
 1297 04ca 5B00     		lsls	r3, r3, #1
 1298 04cc 1344     		add	r3, r3, r2
 1299 04ce 1A88     		ldrh	r2, [r3]
 1300 04d0 019B     		ldr	r3, [sp, #4]
 1301 04d2 5968     		ldr	r1, [r3, #4]
 1302 04d4 019B     		ldr	r3, [sp, #4]
 1303 04d6 5B8B     		ldrh	r3, [r3, #26]
 1304 04d8 5B00     		lsls	r3, r3, #1
 1305 04da 0B44     		add	r3, r3, r1
 1306 04dc 42F40072 		orr	r2, r2, #512
 1307 04e0 92B2     		uxth	r2, r2
 1308 04e2 1A80     		strh	r2, [r3]	@ movhi
 1309 04e4 10E0     		b	.L91
 1310              	.L90:
 1311              		.loc 1 451 0
ARM GAS  C:\Users\PCHAUT~1\AppData\Local\Temp\cc7zwTNO.s 			page 24


 1312 04e6 019B     		ldr	r3, [sp, #4]
 1313 04e8 5A68     		ldr	r2, [r3, #4]
 1314 04ea 019B     		ldr	r3, [sp, #4]
 1315 04ec 5B8B     		ldrh	r3, [r3, #26]
 1316 04ee 5B00     		lsls	r3, r3, #1
 1317 04f0 1344     		add	r3, r3, r2
 1318 04f2 1A88     		ldrh	r2, [r3]
 1319 04f4 019B     		ldr	r3, [sp, #4]
 1320 04f6 5968     		ldr	r1, [r3, #4]
 1321 04f8 019B     		ldr	r3, [sp, #4]
 1322 04fa 5B8B     		ldrh	r3, [r3, #26]
 1323 04fc 5B00     		lsls	r3, r3, #1
 1324 04fe 0B44     		add	r3, r3, r1
 1325 0500 22F40072 		bic	r2, r2, #512
 1326 0504 92B2     		uxth	r2, r2
 1327 0506 1A80     		strh	r2, [r3]	@ movhi
 1328              	.L91:
 1329              		.loc 1 460 0
 1330 0508 019B     		ldr	r3, [sp, #4]
 1331 050a 5A8B     		ldrh	r2, [r3, #26]
 1332 050c BDF80C30 		ldrh	r3, [sp, #12]
 1333 0510 1344     		add	r3, r3, r2
 1334 0512 9AB2     		uxth	r2, r3
 1335 0514 019B     		ldr	r3, [sp, #4]
 1336 0516 5A83     		strh	r2, [r3, #26]	@ movhi
 1337              	.LBE14:
 1338              		.loc 1 462 0
 1339 0518 78E0     		b	.L82
 1340              	.L78:
 1341              	.LBB15:
 1342              		.loc 1 468 0
 1343 051a 019B     		ldr	r3, [sp, #4]
 1344 051c 5A68     		ldr	r2, [r3, #4]
 1345 051e 019B     		ldr	r3, [sp, #4]
 1346 0520 5B8B     		ldrh	r3, [r3, #26]
 1347 0522 0133     		adds	r3, r3, #1
 1348 0524 5B00     		lsls	r3, r3, #1
 1349 0526 1344     		add	r3, r3, r2
 1350 0528 1B88     		ldrh	r3, [r3]	@ movhi
 1351 052a ADF81230 		strh	r3, [sp, #18]	@ movhi
 1352              		.loc 1 469 0
 1353 052e 019B     		ldr	r3, [sp, #4]
 1354 0530 5A68     		ldr	r2, [r3, #4]
 1355 0532 019B     		ldr	r3, [sp, #4]
 1356 0534 5B8B     		ldrh	r3, [r3, #26]
 1357 0536 0233     		adds	r3, r3, #2
 1358 0538 5B00     		lsls	r3, r3, #1
 1359 053a 1344     		add	r3, r3, r2
 1360 053c 1B88     		ldrh	r3, [r3]	@ movhi
 1361 053e ADF81430 		strh	r3, [sp, #20]	@ movhi
 1362              		.loc 1 475 0
 1363 0542 BDF80E30 		ldrh	r3, [sp, #14]	@ movhi
 1364 0546 C3F30B03 		ubfx	r3, r3, #0, #12
 1365 054a 99B2     		uxth	r1, r3
 1366 054c 019B     		ldr	r3, [sp, #4]
 1367 054e DA68     		ldr	r2, [r3, #12]
 1368 0550 BDF81230 		ldrh	r3, [sp, #18]
ARM GAS  C:\Users\PCHAUT~1\AppData\Local\Temp\cc7zwTNO.s 			page 25


 1369 0554 5B00     		lsls	r3, r3, #1
 1370 0556 1A44     		add	r2, r2, r3
 1371 0558 BDF81430 		ldrh	r3, [sp, #20]	@ movhi
 1372 055c 5B00     		lsls	r3, r3, #1
 1373 055e 9BB2     		uxth	r3, r3
 1374 0560 0198     		ldr	r0, [sp, #4]
 1375 0562 FFF7FEFF 		bl	AsebaSendMessage
 1376              		.loc 1 478 0
 1377 0566 019B     		ldr	r3, [sp, #4]
 1378 0568 5B8B     		ldrh	r3, [r3, #26]
 1379 056a 0333     		adds	r3, r3, #3
 1380 056c 9AB2     		uxth	r2, r3
 1381 056e 019B     		ldr	r3, [sp, #4]
 1382 0570 5A83     		strh	r2, [r3, #26]	@ movhi
 1383              	.LBE15:
 1384              		.loc 1 480 0
 1385 0572 4BE0     		b	.L82
 1386              	.L79:
 1387              		.loc 1 486 0
 1388 0574 BDF80E30 		ldrh	r3, [sp, #14]	@ movhi
 1389 0578 C3F30B03 		ubfx	r3, r3, #0, #12
 1390 057c 9BB2     		uxth	r3, r3
 1391 057e 1946     		mov	r1, r3
 1392 0580 0198     		ldr	r0, [sp, #4]
 1393 0582 FFF7FEFF 		bl	AsebaNativeFunction
 1394              		.loc 1 489 0
 1395 0586 019B     		ldr	r3, [sp, #4]
 1396 0588 5B8B     		ldrh	r3, [r3, #26]
 1397 058a 0133     		adds	r3, r3, #1
 1398 058c 9AB2     		uxth	r2, r3
 1399 058e 019B     		ldr	r3, [sp, #4]
 1400 0590 5A83     		strh	r2, [r3, #26]	@ movhi
 1401              		.loc 1 491 0
 1402 0592 3BE0     		b	.L82
 1403              	.L99:
 1404              		.align	2
 1405              	.L98:
 1406 0594 00000000 		.word	AsebaVMErrorCB
 1407              	.L80:
 1408              	.LBB16:
 1409              		.loc 1 496 0
 1410 0598 BDF80E30 		ldrh	r3, [sp, #14]	@ movhi
 1411 059c C3F30B03 		ubfx	r3, r3, #0, #12
 1412 05a0 ADF81030 		strh	r3, [sp, #16]	@ movhi
 1413              		.loc 1 505 0
 1414 05a4 019B     		ldr	r3, [sp, #4]
 1415 05a6 5B8B     		ldrh	r3, [r3, #26]
 1416 05a8 0133     		adds	r3, r3, #1
 1417 05aa 99B2     		uxth	r1, r3
 1418 05ac 019B     		ldr	r3, [sp, #4]
 1419 05ae 5A69     		ldr	r2, [r3, #20]
 1420 05b0 019B     		ldr	r3, [sp, #4]
 1421 05b2 B3F91C30 		ldrsh	r3, [r3, #28]
 1422 05b6 9BB2     		uxth	r3, r3
 1423 05b8 0133     		adds	r3, r3, #1
 1424 05ba 9BB2     		uxth	r3, r3
 1425 05bc 18B2     		sxth	r0, r3
ARM GAS  C:\Users\PCHAUT~1\AppData\Local\Temp\cc7zwTNO.s 			page 26


 1426 05be 019B     		ldr	r3, [sp, #4]
 1427 05c0 9883     		strh	r0, [r3, #28]	@ movhi
 1428 05c2 019B     		ldr	r3, [sp, #4]
 1429 05c4 B3F91C30 		ldrsh	r3, [r3, #28]
 1430 05c8 5B00     		lsls	r3, r3, #1
 1431 05ca 1344     		add	r3, r3, r2
 1432 05cc 0AB2     		sxth	r2, r1
 1433 05ce 1A80     		strh	r2, [r3]	@ movhi
 1434              		.loc 1 508 0
 1435 05d0 019B     		ldr	r3, [sp, #4]
 1436 05d2 BDF81020 		ldrh	r2, [sp, #16]	@ movhi
 1437 05d6 5A83     		strh	r2, [r3, #26]	@ movhi
 1438              	.LBE16:
 1439              		.loc 1 510 0
 1440 05d8 18E0     		b	.L82
 1441              	.L81:
 1442              		.loc 1 522 0
 1443 05da 019B     		ldr	r3, [sp, #4]
 1444 05dc 5A69     		ldr	r2, [r3, #20]
 1445 05de 019B     		ldr	r3, [sp, #4]
 1446 05e0 B3F91C10 		ldrsh	r1, [r3, #28]
 1447 05e4 8BB2     		uxth	r3, r1
 1448 05e6 013B     		subs	r3, r3, #1
 1449 05e8 9BB2     		uxth	r3, r3
 1450 05ea 18B2     		sxth	r0, r3
 1451 05ec 019B     		ldr	r3, [sp, #4]
 1452 05ee 9883     		strh	r0, [r3, #28]	@ movhi
 1453 05f0 0B46     		mov	r3, r1
 1454 05f2 5B00     		lsls	r3, r3, #1
 1455 05f4 1344     		add	r3, r3, r2
 1456 05f6 B3F90030 		ldrsh	r3, [r3]
 1457 05fa 9AB2     		uxth	r2, r3
 1458 05fc 019B     		ldr	r3, [sp, #4]
 1459 05fe 5A83     		strh	r2, [r3, #26]	@ movhi
 1460              		.loc 1 524 0
 1461 0600 04E0     		b	.L82
 1462              	.L93:
 1463              		.loc 1 530 0
 1464 0602 00BF     		nop
 1465 0604 02E0     		b	.L82
 1466              	.L94:
 1467              	.LBB17:
 1468              	.LBB7:
 1469              		.loc 1 294 0
 1470 0606 00BF     		nop
 1471 0608 00E0     		b	.L82
 1472              	.L95:
 1473              	.LBE7:
 1474              	.LBE17:
 1475              	.LBB18:
 1476              	.LBB10:
 1477              		.loc 1 336 0
 1478 060a 00BF     		nop
 1479              	.L82:
 1480              	.LBE10:
 1481              	.LBE18:
 1482              		.loc 1 532 0
ARM GAS  C:\Users\PCHAUT~1\AppData\Local\Temp\cc7zwTNO.s 			page 27


 1483 060c 00BF     		nop
 1484 060e 054B     		ldr	r3, .L100
 1485 0610 119A     		ldr	r2, [sp, #68]
 1486 0612 1B68     		ldr	r3, [r3]
 1487 0614 9A42     		cmp	r2, r3
 1488 0616 01D0     		beq	.L92
 1489 0618 FFF7FEFF 		bl	__stack_chk_fail
 1490              	.L92:
 1491 061c 13B0     		add	sp, sp, #76
 1492              		.cfi_def_cfa_offset 4
 1493              		@ sp needed
 1494 061e 5DF804FB 		ldr	pc, [sp], #4
 1495              	.L101:
 1496 0622 00BF     		.align	2
 1497              	.L100:
 1498 0624 00000000 		.word	__stack_chk_guard
 1499              		.cfi_endproc
 1500              	.LFE5:
 1501              		.size	AsebaVMStep, .-AsebaVMStep
 1502              		.section	.text.AsebaVMEmitNodeSpecificError,"ax",%progbits
 1503              		.align	1
 1504              		.p2align 4,,15
 1505              		.global	AsebaVMEmitNodeSpecificError
 1506              		.syntax unified
 1507              		.thumb
 1508              		.thumb_func
 1509              		.fpu fpv4-sp-d16
 1510              		.type	AsebaVMEmitNodeSpecificError, %function
 1511              	AsebaVMEmitNodeSpecificError:
 1512              	.LFB6:
 1513              		.loc 1 535 0
 1514              		.cfi_startproc
 1515              		@ args = 0, pretend = 0, frame = 24
 1516              		@ frame_needed = 1, uses_anonymous_args = 0
 1517 0000 B0B5     		push	{r4, r5, r7, lr}
 1518              		.cfi_def_cfa_offset 16
 1519              		.cfi_offset 4, -16
 1520              		.cfi_offset 5, -12
 1521              		.cfi_offset 7, -8
 1522              		.cfi_offset 14, -4
 1523 0002 86B0     		sub	sp, sp, #24
 1524              		.cfi_def_cfa_offset 40
 1525 0004 00AF     		add	r7, sp, #0
 1526              		.cfi_def_cfa_register 7
 1527 0006 7860     		str	r0, [r7, #4]
 1528 0008 3960     		str	r1, [r7]
 1529              		.loc 1 535 0
 1530 000a 2E4B     		ldr	r3, .L105
 1531 000c 1B68     		ldr	r3, [r3]
 1532 000e 7B61     		str	r3, [r7, #20]
 1533 0010 6B46     		mov	r3, sp
 1534 0012 1D46     		mov	r5, r3
 1535              		.loc 1 536 0
 1536 0014 3868     		ldr	r0, [r7]
 1537 0016 FFF7FEFF 		bl	strlen
 1538 001a 0346     		mov	r3, r0
 1539 001c 7B81     		strh	r3, [r7, #10]	@ movhi
ARM GAS  C:\Users\PCHAUT~1\AppData\Local\Temp\cc7zwTNO.s 			page 28


 1540              		.loc 1 538 0
 1541 001e 7B89     		ldrh	r3, [r7, #10]
 1542 0020 D81C     		adds	r0, r3, #3
 1543 0022 431E     		subs	r3, r0, #1
 1544 0024 FB60     		str	r3, [r7, #12]
 1545 0026 0346     		mov	r3, r0
 1546 0028 1946     		mov	r1, r3
 1547 002a 4FF00002 		mov	r2, #0
 1548 002e 4FF00003 		mov	r3, #0
 1549 0032 4FF00004 		mov	r4, #0
 1550 0036 D400     		lsls	r4, r2, #3
 1551 0038 44EA5174 		orr	r4, r4, r1, lsr #29
 1552 003c CB00     		lsls	r3, r1, #3
 1553 003e 0346     		mov	r3, r0
 1554 0040 1946     		mov	r1, r3
 1555 0042 4FF00002 		mov	r2, #0
 1556 0046 4FF00003 		mov	r3, #0
 1557 004a 4FF00004 		mov	r4, #0
 1558 004e D400     		lsls	r4, r2, #3
 1559 0050 44EA5174 		orr	r4, r4, r1, lsr #29
 1560 0054 CB00     		lsls	r3, r1, #3
 1561 0056 0346     		mov	r3, r0
 1562 0058 0733     		adds	r3, r3, #7
 1563 005a DB08     		lsrs	r3, r3, #3
 1564 005c DB00     		lsls	r3, r3, #3
 1565 005e ADEB030D 		sub	sp, sp, r3
 1566 0062 6B46     		mov	r3, sp
 1567 0064 0033     		adds	r3, r3, #0
 1568 0066 3B61     		str	r3, [r7, #16]
 1569              		.loc 1 545 0
 1570 0068 174B     		ldr	r3, .L105+4
 1571 006a 002B     		cmp	r3, #0
 1572 006c 03D0     		beq	.L103
 1573              		.loc 1 546 0
 1574 006e 3968     		ldr	r1, [r7]
 1575 0070 7868     		ldr	r0, [r7, #4]
 1576 0072 FFF7FEFF 		bl	AsebaVMErrorCB
 1577              	.L103:
 1578              		.loc 1 548 0
 1579 0076 7B68     		ldr	r3, [r7, #4]
 1580 0078 0222     		movs	r2, #2
 1581 007a 1A83     		strh	r2, [r3, #24]	@ movhi
 1582              		.loc 1 550 0
 1583 007c 3B69     		ldr	r3, [r7, #16]
 1584 007e 7A68     		ldr	r2, [r7, #4]
 1585 0080 528B     		ldrh	r2, [r2, #26]
 1586 0082 1A80     		strh	r2, [r3]	@ movhi
 1587              		.loc 1 551 0
 1588 0084 7B89     		ldrh	r3, [r7, #10]	@ movhi
 1589 0086 DAB2     		uxtb	r2, r3
 1590 0088 3B69     		ldr	r3, [r7, #16]
 1591 008a 9A70     		strb	r2, [r3, #2]
 1592              		.loc 1 552 0
 1593 008c 3B69     		ldr	r3, [r7, #16]
 1594 008e 0333     		adds	r3, r3, #3
 1595 0090 7A89     		ldrh	r2, [r7, #10]
 1596 0092 3968     		ldr	r1, [r7]
ARM GAS  C:\Users\PCHAUT~1\AppData\Local\Temp\cc7zwTNO.s 			page 29


 1597 0094 1846     		mov	r0, r3
 1598 0096 FFF7FEFF 		bl	memcpy
 1599              		.loc 1 554 0
 1600 009a 3A69     		ldr	r2, [r7, #16]
 1601 009c 7B89     		ldrh	r3, [r7, #10]	@ movhi
 1602 009e 0333     		adds	r3, r3, #3
 1603 00a0 9BB2     		uxth	r3, r3
 1604 00a2 49F20901 		movw	r1, #36873
 1605 00a6 7868     		ldr	r0, [r7, #4]
 1606 00a8 FFF7FEFF 		bl	AsebaSendMessage
 1607 00ac AD46     		mov	sp, r5
 1608              		.loc 1 555 0
 1609 00ae 00BF     		nop
 1610 00b0 044B     		ldr	r3, .L105
 1611 00b2 7A69     		ldr	r2, [r7, #20]
 1612 00b4 1B68     		ldr	r3, [r3]
 1613 00b6 9A42     		cmp	r2, r3
 1614 00b8 01D0     		beq	.L104
 1615 00ba FFF7FEFF 		bl	__stack_chk_fail
 1616              	.L104:
 1617 00be 1837     		adds	r7, r7, #24
 1618              		.cfi_def_cfa_offset 16
 1619 00c0 BD46     		mov	sp, r7
 1620              		.cfi_def_cfa_register 13
 1621              		@ sp needed
 1622 00c2 B0BD     		pop	{r4, r5, r7, pc}
 1623              	.L106:
 1624              		.align	2
 1625              	.L105:
 1626 00c4 00000000 		.word	__stack_chk_guard
 1627 00c8 00000000 		.word	AsebaVMErrorCB
 1628              		.cfi_endproc
 1629              	.LFE6:
 1630              		.size	AsebaVMEmitNodeSpecificError, .-AsebaVMEmitNodeSpecificError
 1631              		.section	.text.AsebaVMCheckBreakpoint,"ax",%progbits
 1632              		.align	1
 1633              		.p2align 4,,15
 1634              		.global	AsebaVMCheckBreakpoint
 1635              		.syntax unified
 1636              		.thumb
 1637              		.thumb_func
 1638              		.fpu fpv4-sp-d16
 1639              		.type	AsebaVMCheckBreakpoint, %function
 1640              	AsebaVMCheckBreakpoint:
 1641              	.LFB7:
 1642              		.loc 1 561 0
 1643              		.cfi_startproc
 1644              		@ args = 0, pretend = 0, frame = 16
 1645              		@ frame_needed = 0, uses_anonymous_args = 0
 1646 0000 00B5     		push	{lr}
 1647              		.cfi_def_cfa_offset 4
 1648              		.cfi_offset 14, -4
 1649 0002 85B0     		sub	sp, sp, #20
 1650              		.cfi_def_cfa_offset 24
 1651 0004 0190     		str	r0, [sp, #4]
 1652              		.loc 1 561 0
 1653 0006 194B     		ldr	r3, .L113
ARM GAS  C:\Users\PCHAUT~1\AppData\Local\Temp\cc7zwTNO.s 			page 30


 1654 0008 1B68     		ldr	r3, [r3]
 1655 000a 0393     		str	r3, [sp, #12]
 1656              		.loc 1 563 0
 1657 000c 0023     		movs	r3, #0
 1658 000e ADF80A30 		strh	r3, [sp, #10]	@ movhi
 1659 0012 18E0     		b	.L108
 1660              	.L111:
 1661              		.loc 1 565 0
 1662 0014 BDF80A30 		ldrh	r3, [sp, #10]
 1663 0018 019A     		ldr	r2, [sp, #4]
 1664 001a 0C33     		adds	r3, r3, #12
 1665 001c 5B00     		lsls	r3, r3, #1
 1666 001e 1344     		add	r3, r3, r2
 1667 0020 DA88     		ldrh	r2, [r3, #6]
 1668 0022 019B     		ldr	r3, [sp, #4]
 1669 0024 5B8B     		ldrh	r3, [r3, #26]
 1670 0026 9A42     		cmp	r2, r3
 1671 0028 08D1     		bne	.L109
 1672              		.loc 1 567 0
 1673 002a 019B     		ldr	r3, [sp, #4]
 1674 002c 1B8B     		ldrh	r3, [r3, #24]
 1675 002e 43F00203 		orr	r3, r3, #2
 1676 0032 9AB2     		uxth	r2, r3
 1677 0034 019B     		ldr	r3, [sp, #4]
 1678 0036 1A83     		strh	r2, [r3, #24]	@ movhi
 1679              		.loc 1 568 0
 1680 0038 0123     		movs	r3, #1
 1681 003a 0BE0     		b	.L110
 1682              	.L109:
 1683              		.loc 1 563 0 discriminator 2
 1684 003c BDF80A30 		ldrh	r3, [sp, #10]
 1685 0040 0133     		adds	r3, r3, #1
 1686 0042 ADF80A30 		strh	r3, [sp, #10]	@ movhi
 1687              	.L108:
 1688              		.loc 1 563 0 is_stmt 0 discriminator 1
 1689 0046 019B     		ldr	r3, [sp, #4]
 1690 0048 DB8F     		ldrh	r3, [r3, #62]
 1691 004a BDF80A20 		ldrh	r2, [sp, #10]
 1692 004e 9A42     		cmp	r2, r3
 1693 0050 E0D3     		bcc	.L111
 1694              		.loc 1 572 0 is_stmt 1
 1695 0052 0023     		movs	r3, #0
 1696              	.L110:
 1697              		.loc 1 573 0
 1698 0054 1846     		mov	r0, r3
 1699 0056 054B     		ldr	r3, .L113
 1700 0058 039A     		ldr	r2, [sp, #12]
 1701 005a 1B68     		ldr	r3, [r3]
 1702 005c 9A42     		cmp	r2, r3
 1703 005e 01D0     		beq	.L112
 1704 0060 FFF7FEFF 		bl	__stack_chk_fail
 1705              	.L112:
 1706 0064 05B0     		add	sp, sp, #20
 1707              		.cfi_def_cfa_offset 4
 1708              		@ sp needed
 1709 0066 5DF804FB 		ldr	pc, [sp], #4
 1710              	.L114:
ARM GAS  C:\Users\PCHAUT~1\AppData\Local\Temp\cc7zwTNO.s 			page 31


 1711 006a 00BF     		.align	2
 1712              	.L113:
 1713 006c 00000000 		.word	__stack_chk_guard
 1714              		.cfi_endproc
 1715              	.LFE7:
 1716              		.size	AsebaVMCheckBreakpoint, .-AsebaVMCheckBreakpoint
 1717              		.section	.text.AsebaDebugBareRun,"ax",%progbits
 1718              		.align	1
 1719              		.p2align 4,,15
 1720              		.global	AsebaDebugBareRun
 1721              		.syntax unified
 1722              		.thumb
 1723              		.thumb_func
 1724              		.fpu fpv4-sp-d16
 1725              		.type	AsebaDebugBareRun, %function
 1726              	AsebaDebugBareRun:
 1727              	.LFB8:
 1728              		.loc 1 578 0
 1729              		.cfi_startproc
 1730              		@ args = 0, pretend = 0, frame = 16
 1731              		@ frame_needed = 0, uses_anonymous_args = 0
 1732 0000 00B5     		push	{lr}
 1733              		.cfi_def_cfa_offset 4
 1734              		.cfi_offset 14, -4
 1735 0002 85B0     		sub	sp, sp, #20
 1736              		.cfi_def_cfa_offset 24
 1737 0004 0190     		str	r0, [sp, #4]
 1738 0006 0B46     		mov	r3, r1
 1739 0008 ADF80230 		strh	r3, [sp, #2]	@ movhi
 1740              		.loc 1 578 0
 1741 000c 244B     		ldr	r3, .L123
 1742 000e 1B68     		ldr	r3, [r3]
 1743 0010 0393     		str	r3, [sp, #12]
 1744              		.loc 1 579 0
 1745 0012 019B     		ldr	r3, [sp, #4]
 1746 0014 1B8B     		ldrh	r3, [r3, #24]
 1747 0016 43F00403 		orr	r3, r3, #4
 1748 001a 9AB2     		uxth	r2, r3
 1749 001c 019B     		ldr	r3, [sp, #4]
 1750 001e 1A83     		strh	r2, [r3, #24]	@ movhi
 1751              		.loc 1 581 0
 1752 0020 BDF80230 		ldrh	r3, [sp, #2]
 1753 0024 002B     		cmp	r3, #0
 1754 0026 1CD0     		beq	.L120
 1755              		.loc 1 584 0
 1756 0028 07E0     		b	.L117
 1757              	.L119:
 1758              		.loc 1 589 0
 1759 002a 0198     		ldr	r0, [sp, #4]
 1760 002c FFF7FEFF 		bl	AsebaVMStep
 1761              		.loc 1 590 0
 1762 0030 BDF80230 		ldrh	r3, [sp, #2]
 1763 0034 013B     		subs	r3, r3, #1
 1764 0036 ADF80230 		strh	r3, [sp, #2]	@ movhi
 1765              	.L117:
 1766              		.loc 1 584 0
 1767 003a 019B     		ldr	r3, [sp, #4]
ARM GAS  C:\Users\PCHAUT~1\AppData\Local\Temp\cc7zwTNO.s 			page 32


 1768 003c 1B8B     		ldrh	r3, [r3, #24]
 1769 003e 03F00103 		and	r3, r3, #1
 1770 0042 002B     		cmp	r3, #0
 1771 0044 19D0     		beq	.L118
 1772              		.loc 1 585 0 discriminator 1
 1773 0046 019B     		ldr	r3, [sp, #4]
 1774 0048 1B8B     		ldrh	r3, [r3, #24]
 1775 004a 03F00403 		and	r3, r3, #4
 1776              		.loc 1 584 0 discriminator 1
 1777 004e 002B     		cmp	r3, #0
 1778 0050 13D0     		beq	.L118
 1779              		.loc 1 585 0
 1780 0052 BDF80230 		ldrh	r3, [sp, #2]
 1781 0056 002B     		cmp	r3, #0
 1782 0058 E7D1     		bne	.L119
 1783 005a 0EE0     		b	.L118
 1784              	.L121:
 1785              		.loc 1 600 0
 1786 005c 0198     		ldr	r0, [sp, #4]
 1787 005e FFF7FEFF 		bl	AsebaVMStep
 1788              	.L120:
 1789              		.loc 1 597 0
 1790 0062 019B     		ldr	r3, [sp, #4]
 1791 0064 1B8B     		ldrh	r3, [r3, #24]
 1792 0066 03F00103 		and	r3, r3, #1
 1793 006a 002B     		cmp	r3, #0
 1794 006c 05D0     		beq	.L118
 1795              		.loc 1 598 0 discriminator 1
 1796 006e 019B     		ldr	r3, [sp, #4]
 1797 0070 1B8B     		ldrh	r3, [r3, #24]
 1798 0072 03F00403 		and	r3, r3, #4
 1799              		.loc 1 597 0 discriminator 1
 1800 0076 002B     		cmp	r3, #0
 1801 0078 F0D1     		bne	.L121
 1802              	.L118:
 1803              		.loc 1 603 0
 1804 007a 019B     		ldr	r3, [sp, #4]
 1805 007c 1B8B     		ldrh	r3, [r3, #24]
 1806 007e 23F00403 		bic	r3, r3, #4
 1807 0082 9AB2     		uxth	r2, r3
 1808 0084 019B     		ldr	r3, [sp, #4]
 1809 0086 1A83     		strh	r2, [r3, #24]	@ movhi
 1810              		.loc 1 604 0
 1811 0088 00BF     		nop
 1812 008a 054B     		ldr	r3, .L123
 1813 008c 039A     		ldr	r2, [sp, #12]
 1814 008e 1B68     		ldr	r3, [r3]
 1815 0090 9A42     		cmp	r2, r3
 1816 0092 01D0     		beq	.L122
 1817 0094 FFF7FEFF 		bl	__stack_chk_fail
 1818              	.L122:
 1819 0098 05B0     		add	sp, sp, #20
 1820              		.cfi_def_cfa_offset 4
 1821              		@ sp needed
 1822 009a 5DF804FB 		ldr	pc, [sp], #4
 1823              	.L124:
 1824 009e 00BF     		.align	2
ARM GAS  C:\Users\PCHAUT~1\AppData\Local\Temp\cc7zwTNO.s 			page 33


 1825              	.L123:
 1826 00a0 00000000 		.word	__stack_chk_guard
 1827              		.cfi_endproc
 1828              	.LFE8:
 1829              		.size	AsebaDebugBareRun, .-AsebaDebugBareRun
 1830              		.section	.text.AsebaDebugBreakpointRun,"ax",%progbits
 1831              		.align	1
 1832              		.p2align 4,,15
 1833              		.global	AsebaDebugBreakpointRun
 1834              		.syntax unified
 1835              		.thumb
 1836              		.thumb_func
 1837              		.fpu fpv4-sp-d16
 1838              		.type	AsebaDebugBreakpointRun, %function
 1839              	AsebaDebugBreakpointRun:
 1840              	.LFB9:
 1841              		.loc 1 609 0
 1842              		.cfi_startproc
 1843              		@ args = 0, pretend = 0, frame = 16
 1844              		@ frame_needed = 0, uses_anonymous_args = 0
 1845 0000 00B5     		push	{lr}
 1846              		.cfi_def_cfa_offset 4
 1847              		.cfi_offset 14, -4
 1848 0002 85B0     		sub	sp, sp, #20
 1849              		.cfi_def_cfa_offset 24
 1850 0004 0190     		str	r0, [sp, #4]
 1851 0006 0B46     		mov	r3, r1
 1852 0008 ADF80230 		strh	r3, [sp, #2]	@ movhi
 1853              		.loc 1 609 0
 1854 000c 344B     		ldr	r3, .L136
 1855 000e 1B68     		ldr	r3, [r3]
 1856 0010 0393     		str	r3, [sp, #12]
 1857              		.loc 1 610 0
 1858 0012 019B     		ldr	r3, [sp, #4]
 1859 0014 1B8B     		ldrh	r3, [r3, #24]
 1860 0016 43F00403 		orr	r3, r3, #4
 1861 001a 9AB2     		uxth	r2, r3
 1862 001c 019B     		ldr	r3, [sp, #4]
 1863 001e 1A83     		strh	r2, [r3, #24]	@ movhi
 1864              		.loc 1 612 0
 1865 0020 BDF80230 		ldrh	r3, [sp, #2]
 1866 0024 002B     		cmp	r3, #0
 1867 0026 3ED0     		beq	.L132
 1868              		.loc 1 615 0
 1869 0028 18E0     		b	.L127
 1870              	.L131:
 1871              		.loc 1 620 0
 1872 002a 0198     		ldr	r0, [sp, #4]
 1873 002c FFF7FEFF 		bl	AsebaVMCheckBreakpoint
 1874 0030 0346     		mov	r3, r0
 1875 0032 002B     		cmp	r3, #0
 1876 0034 0AD0     		beq	.L128
 1877              		.loc 1 622 0
 1878 0036 019B     		ldr	r3, [sp, #4]
 1879 0038 1B8B     		ldrh	r3, [r3, #24]
 1880 003a 43F00203 		orr	r3, r3, #2
 1881 003e 9AB2     		uxth	r2, r3
ARM GAS  C:\Users\PCHAUT~1\AppData\Local\Temp\cc7zwTNO.s 			page 34


 1882 0040 019B     		ldr	r3, [sp, #4]
 1883 0042 1A83     		strh	r2, [r3, #24]	@ movhi
 1884              		.loc 1 623 0
 1885 0044 0198     		ldr	r0, [sp, #4]
 1886 0046 FFF7FEFF 		bl	AsebaVMSendExecutionStateChanged
 1887              		.loc 1 624 0
 1888 004a 3FE0     		b	.L125
 1889              	.L128:
 1890              		.loc 1 626 0
 1891 004c 0198     		ldr	r0, [sp, #4]
 1892 004e FFF7FEFF 		bl	AsebaVMStep
 1893              		.loc 1 627 0
 1894 0052 BDF80230 		ldrh	r3, [sp, #2]
 1895 0056 013B     		subs	r3, r3, #1
 1896 0058 ADF80230 		strh	r3, [sp, #2]	@ movhi
 1897              	.L127:
 1898              		.loc 1 615 0
 1899 005c 019B     		ldr	r3, [sp, #4]
 1900 005e 1B8B     		ldrh	r3, [r3, #24]
 1901 0060 03F00103 		and	r3, r3, #1
 1902 0064 002B     		cmp	r3, #0
 1903 0066 2AD0     		beq	.L130
 1904              		.loc 1 616 0 discriminator 1
 1905 0068 019B     		ldr	r3, [sp, #4]
 1906 006a 1B8B     		ldrh	r3, [r3, #24]
 1907 006c 03F00403 		and	r3, r3, #4
 1908              		.loc 1 615 0 discriminator 1
 1909 0070 002B     		cmp	r3, #0
 1910 0072 24D0     		beq	.L130
 1911              		.loc 1 616 0
 1912 0074 BDF80230 		ldrh	r3, [sp, #2]
 1913 0078 002B     		cmp	r3, #0
 1914 007a D6D1     		bne	.L131
 1915 007c 1FE0     		b	.L130
 1916              	.L134:
 1917              		.loc 1 638 0
 1918 007e 0198     		ldr	r0, [sp, #4]
 1919 0080 FFF7FEFF 		bl	AsebaVMCheckBreakpoint
 1920 0084 0346     		mov	r3, r0
 1921 0086 002B     		cmp	r3, #0
 1922 0088 0AD0     		beq	.L133
 1923              		.loc 1 640 0
 1924 008a 019B     		ldr	r3, [sp, #4]
 1925 008c 1B8B     		ldrh	r3, [r3, #24]
 1926 008e 43F00203 		orr	r3, r3, #2
 1927 0092 9AB2     		uxth	r2, r3
 1928 0094 019B     		ldr	r3, [sp, #4]
 1929 0096 1A83     		strh	r2, [r3, #24]	@ movhi
 1930              		.loc 1 641 0
 1931 0098 0198     		ldr	r0, [sp, #4]
 1932 009a FFF7FEFF 		bl	AsebaVMSendExecutionStateChanged
 1933              		.loc 1 642 0
 1934 009e 15E0     		b	.L125
 1935              	.L133:
 1936              		.loc 1 644 0
 1937 00a0 0198     		ldr	r0, [sp, #4]
 1938 00a2 FFF7FEFF 		bl	AsebaVMStep
ARM GAS  C:\Users\PCHAUT~1\AppData\Local\Temp\cc7zwTNO.s 			page 35


 1939              	.L132:
 1940              		.loc 1 634 0
 1941 00a6 019B     		ldr	r3, [sp, #4]
 1942 00a8 1B8B     		ldrh	r3, [r3, #24]
 1943 00aa 03F00103 		and	r3, r3, #1
 1944 00ae 002B     		cmp	r3, #0
 1945 00b0 05D0     		beq	.L130
 1946              		.loc 1 635 0 discriminator 1
 1947 00b2 019B     		ldr	r3, [sp, #4]
 1948 00b4 1B8B     		ldrh	r3, [r3, #24]
 1949 00b6 03F00403 		and	r3, r3, #4
 1950              		.loc 1 634 0 discriminator 1
 1951 00ba 002B     		cmp	r3, #0
 1952 00bc DFD1     		bne	.L134
 1953              	.L130:
 1954              		.loc 1 648 0
 1955 00be 019B     		ldr	r3, [sp, #4]
 1956 00c0 1B8B     		ldrh	r3, [r3, #24]
 1957 00c2 23F00403 		bic	r3, r3, #4
 1958 00c6 9AB2     		uxth	r2, r3
 1959 00c8 019B     		ldr	r3, [sp, #4]
 1960 00ca 1A83     		strh	r2, [r3, #24]	@ movhi
 1961              	.L125:
 1962              		.loc 1 649 0
 1963 00cc 044B     		ldr	r3, .L136
 1964 00ce 039A     		ldr	r2, [sp, #12]
 1965 00d0 1B68     		ldr	r3, [r3]
 1966 00d2 9A42     		cmp	r2, r3
 1967 00d4 01D0     		beq	.L135
 1968 00d6 FFF7FEFF 		bl	__stack_chk_fail
 1969              	.L135:
 1970 00da 05B0     		add	sp, sp, #20
 1971              		.cfi_def_cfa_offset 4
 1972              		@ sp needed
 1973 00dc 5DF804FB 		ldr	pc, [sp], #4
 1974              	.L137:
 1975              		.align	2
 1976              	.L136:
 1977 00e0 00000000 		.word	__stack_chk_guard
 1978              		.cfi_endproc
 1979              	.LFE9:
 1980              		.size	AsebaDebugBreakpointRun, .-AsebaDebugBreakpointRun
 1981              		.section	.text.AsebaVMRun,"ax",%progbits
 1982              		.align	1
 1983              		.p2align 4,,15
 1984              		.global	AsebaVMRun
 1985              		.syntax unified
 1986              		.thumb
 1987              		.thumb_func
 1988              		.fpu fpv4-sp-d16
 1989              		.type	AsebaVMRun, %function
 1990              	AsebaVMRun:
 1991              	.LFB10:
 1992              		.loc 1 652 0
 1993              		.cfi_startproc
 1994              		@ args = 0, pretend = 0, frame = 16
 1995              		@ frame_needed = 0, uses_anonymous_args = 0
ARM GAS  C:\Users\PCHAUT~1\AppData\Local\Temp\cc7zwTNO.s 			page 36


 1996 0000 00B5     		push	{lr}
 1997              		.cfi_def_cfa_offset 4
 1998              		.cfi_offset 14, -4
 1999 0002 85B0     		sub	sp, sp, #20
 2000              		.cfi_def_cfa_offset 24
 2001 0004 0190     		str	r0, [sp, #4]
 2002 0006 0B46     		mov	r3, r1
 2003 0008 ADF80230 		strh	r3, [sp, #2]	@ movhi
 2004              		.loc 1 652 0
 2005 000c 174B     		ldr	r3, .L145
 2006 000e 1B68     		ldr	r3, [r3]
 2007 0010 0393     		str	r3, [sp, #12]
 2008              		.loc 1 654 0
 2009 0012 019B     		ldr	r3, [sp, #4]
 2010 0014 1B8B     		ldrh	r3, [r3, #24]
 2011 0016 03F00103 		and	r3, r3, #1
 2012 001a 002B     		cmp	r3, #0
 2013 001c 01D1     		bne	.L139
 2014              		.loc 1 655 0
 2015 001e 0023     		movs	r3, #0
 2016 0020 19E0     		b	.L140
 2017              	.L139:
 2018              		.loc 1 658 0
 2019 0022 019B     		ldr	r3, [sp, #4]
 2020 0024 1B8B     		ldrh	r3, [r3, #24]
 2021 0026 03F00203 		and	r3, r3, #2
 2022 002a 002B     		cmp	r3, #0
 2023 002c 01D0     		beq	.L141
 2024              		.loc 1 659 0
 2025 002e 0023     		movs	r3, #0
 2026 0030 11E0     		b	.L140
 2027              	.L141:
 2028              		.loc 1 662 0
 2029 0032 019B     		ldr	r3, [sp, #4]
 2030 0034 DB8F     		ldrh	r3, [r3, #62]
 2031 0036 002B     		cmp	r3, #0
 2032 0038 06D0     		beq	.L142
 2033              		.loc 1 663 0
 2034 003a BDF80230 		ldrh	r3, [sp, #2]
 2035 003e 1946     		mov	r1, r3
 2036 0040 0198     		ldr	r0, [sp, #4]
 2037 0042 FFF7FEFF 		bl	AsebaDebugBreakpointRun
 2038 0046 05E0     		b	.L143
 2039              	.L142:
 2040              		.loc 1 665 0
 2041 0048 BDF80230 		ldrh	r3, [sp, #2]
 2042 004c 1946     		mov	r1, r3
 2043 004e 0198     		ldr	r0, [sp, #4]
 2044 0050 FFF7FEFF 		bl	AsebaDebugBareRun
 2045              	.L143:
 2046              		.loc 1 667 0
 2047 0054 0123     		movs	r3, #1
 2048              	.L140:
 2049              		.loc 1 668 0
 2050 0056 1846     		mov	r0, r3
 2051 0058 044B     		ldr	r3, .L145
 2052 005a 039A     		ldr	r2, [sp, #12]
ARM GAS  C:\Users\PCHAUT~1\AppData\Local\Temp\cc7zwTNO.s 			page 37


 2053 005c 1B68     		ldr	r3, [r3]
 2054 005e 9A42     		cmp	r2, r3
 2055 0060 01D0     		beq	.L144
 2056 0062 FFF7FEFF 		bl	__stack_chk_fail
 2057              	.L144:
 2058 0066 05B0     		add	sp, sp, #20
 2059              		.cfi_def_cfa_offset 4
 2060              		@ sp needed
 2061 0068 5DF804FB 		ldr	pc, [sp], #4
 2062              	.L146:
 2063              		.align	2
 2064              	.L145:
 2065 006c 00000000 		.word	__stack_chk_guard
 2066              		.cfi_endproc
 2067              	.LFE10:
 2068              		.size	AsebaVMRun, .-AsebaVMRun
 2069              		.section	.text.AsebaVMSetBreakpoint,"ax",%progbits
 2070              		.align	1
 2071              		.p2align 4,,15
 2072              		.global	AsebaVMSetBreakpoint
 2073              		.syntax unified
 2074              		.thumb
 2075              		.thumb_func
 2076              		.fpu fpv4-sp-d16
 2077              		.type	AsebaVMSetBreakpoint, %function
 2078              	AsebaVMSetBreakpoint:
 2079              	.LFB11:
 2080              		.loc 1 673 0
 2081              		.cfi_startproc
 2082              		@ args = 0, pretend = 0, frame = 16
 2083              		@ frame_needed = 0, uses_anonymous_args = 0
 2084 0000 00B5     		push	{lr}
 2085              		.cfi_def_cfa_offset 4
 2086              		.cfi_offset 14, -4
 2087 0002 85B0     		sub	sp, sp, #20
 2088              		.cfi_def_cfa_offset 24
 2089 0004 0190     		str	r0, [sp, #4]
 2090 0006 0B46     		mov	r3, r1
 2091 0008 ADF80230 		strh	r3, [sp, #2]	@ movhi
 2092              		.loc 1 673 0
 2093 000c 104B     		ldr	r3, .L151
 2094 000e 1B68     		ldr	r3, [r3]
 2095 0010 0393     		str	r3, [sp, #12]
 2096              		.loc 1 679 0
 2097 0012 019B     		ldr	r3, [sp, #4]
 2098 0014 DB8F     		ldrh	r3, [r3, #62]
 2099 0016 0F2B     		cmp	r3, #15
 2100 0018 0ED8     		bhi	.L148
 2101              		.loc 1 681 0
 2102 001a 019B     		ldr	r3, [sp, #4]
 2103 001c DB8F     		ldrh	r3, [r3, #62]
 2104 001e 5A1C     		adds	r2, r3, #1
 2105 0020 91B2     		uxth	r1, r2
 2106 0022 019A     		ldr	r2, [sp, #4]
 2107 0024 D187     		strh	r1, [r2, #62]	@ movhi
 2108 0026 019A     		ldr	r2, [sp, #4]
 2109 0028 0C33     		adds	r3, r3, #12
ARM GAS  C:\Users\PCHAUT~1\AppData\Local\Temp\cc7zwTNO.s 			page 38


 2110 002a 5B00     		lsls	r3, r3, #1
 2111 002c 1344     		add	r3, r3, r2
 2112 002e BDF80220 		ldrh	r2, [sp, #2]	@ movhi
 2113 0032 DA80     		strh	r2, [r3, #6]	@ movhi
 2114              		.loc 1 682 0
 2115 0034 0123     		movs	r3, #1
 2116 0036 00E0     		b	.L149
 2117              	.L148:
 2118              		.loc 1 685 0
 2119 0038 0023     		movs	r3, #0
 2120              	.L149:
 2121              		.loc 1 686 0
 2122 003a 1846     		mov	r0, r3
 2123 003c 044B     		ldr	r3, .L151
 2124 003e 039A     		ldr	r2, [sp, #12]
 2125 0040 1B68     		ldr	r3, [r3]
 2126 0042 9A42     		cmp	r2, r3
 2127 0044 01D0     		beq	.L150
 2128 0046 FFF7FEFF 		bl	__stack_chk_fail
 2129              	.L150:
 2130 004a 05B0     		add	sp, sp, #20
 2131              		.cfi_def_cfa_offset 4
 2132              		@ sp needed
 2133 004c 5DF804FB 		ldr	pc, [sp], #4
 2134              	.L152:
 2135              		.align	2
 2136              	.L151:
 2137 0050 00000000 		.word	__stack_chk_guard
 2138              		.cfi_endproc
 2139              	.LFE11:
 2140              		.size	AsebaVMSetBreakpoint, .-AsebaVMSetBreakpoint
 2141              		.section	.text.AsebaVMClearBreakpoint,"ax",%progbits
 2142              		.align	1
 2143              		.p2align 4,,15
 2144              		.global	AsebaVMClearBreakpoint
 2145              		.syntax unified
 2146              		.thumb
 2147              		.thumb_func
 2148              		.fpu fpv4-sp-d16
 2149              		.type	AsebaVMClearBreakpoint, %function
 2150              	AsebaVMClearBreakpoint:
 2151              	.LFB12:
 2152              		.loc 1 690 0
 2153              		.cfi_startproc
 2154              		@ args = 0, pretend = 0, frame = 16
 2155              		@ frame_needed = 0, uses_anonymous_args = 0
 2156 0000 00B5     		push	{lr}
 2157              		.cfi_def_cfa_offset 4
 2158              		.cfi_offset 14, -4
 2159 0002 85B0     		sub	sp, sp, #20
 2160              		.cfi_def_cfa_offset 24
 2161 0004 0190     		str	r0, [sp, #4]
 2162 0006 0B46     		mov	r3, r1
 2163 0008 ADF80230 		strh	r3, [sp, #2]	@ movhi
 2164              		.loc 1 690 0
 2165 000c 284B     		ldr	r3, .L161
 2166 000e 1B68     		ldr	r3, [r3]
ARM GAS  C:\Users\PCHAUT~1\AppData\Local\Temp\cc7zwTNO.s 			page 39


 2167 0010 0393     		str	r3, [sp, #12]
 2168              		.loc 1 692 0
 2169 0012 0023     		movs	r3, #0
 2170 0014 ADF80830 		strh	r3, [sp, #8]	@ movhi
 2171 0018 38E0     		b	.L154
 2172              	.L159:
 2173              		.loc 1 694 0
 2174 001a BDF80830 		ldrh	r3, [sp, #8]
 2175 001e 019A     		ldr	r2, [sp, #4]
 2176 0020 0C33     		adds	r3, r3, #12
 2177 0022 5B00     		lsls	r3, r3, #1
 2178 0024 1344     		add	r3, r3, r2
 2179 0026 DB88     		ldrh	r3, [r3, #6]
 2180 0028 BDF80220 		ldrh	r2, [sp, #2]
 2181 002c 9A42     		cmp	r2, r3
 2182 002e 28D1     		bne	.L155
 2183              	.LBB19:
 2184              		.loc 1 698 0
 2185 0030 019B     		ldr	r3, [sp, #4]
 2186 0032 DB8F     		ldrh	r3, [r3, #62]
 2187 0034 013B     		subs	r3, r3, #1
 2188 0036 9AB2     		uxth	r2, r3
 2189 0038 019B     		ldr	r3, [sp, #4]
 2190 003a DA87     		strh	r2, [r3, #62]	@ movhi
 2191              		.loc 1 699 0
 2192 003c BDF80830 		ldrh	r3, [sp, #8]	@ movhi
 2193 0040 ADF80A30 		strh	r3, [sp, #10]	@ movhi
 2194 0044 15E0     		b	.L156
 2195              	.L157:
 2196              		.loc 1 700 0 discriminator 3
 2197 0046 BDF80A30 		ldrh	r3, [sp, #10]
 2198 004a 0133     		adds	r3, r3, #1
 2199 004c BDF80A10 		ldrh	r1, [sp, #10]
 2200 0050 019A     		ldr	r2, [sp, #4]
 2201 0052 0C33     		adds	r3, r3, #12
 2202 0054 5B00     		lsls	r3, r3, #1
 2203 0056 1344     		add	r3, r3, r2
 2204 0058 D888     		ldrh	r0, [r3, #6]
 2205 005a 019A     		ldr	r2, [sp, #4]
 2206 005c 01F10C03 		add	r3, r1, #12
 2207 0060 5B00     		lsls	r3, r3, #1
 2208 0062 1344     		add	r3, r3, r2
 2209 0064 0246     		mov	r2, r0	@ movhi
 2210 0066 DA80     		strh	r2, [r3, #6]	@ movhi
 2211              		.loc 1 699 0 discriminator 3
 2212 0068 BDF80A30 		ldrh	r3, [sp, #10]
 2213 006c 0133     		adds	r3, r3, #1
 2214 006e ADF80A30 		strh	r3, [sp, #10]	@ movhi
 2215              	.L156:
 2216              		.loc 1 699 0 is_stmt 0 discriminator 1
 2217 0072 019B     		ldr	r3, [sp, #4]
 2218 0074 DB8F     		ldrh	r3, [r3, #62]
 2219 0076 BDF80A20 		ldrh	r2, [sp, #10]
 2220 007a 9A42     		cmp	r2, r3
 2221 007c E3D3     		bcc	.L157
 2222              		.loc 1 701 0 is_stmt 1
 2223 007e 0123     		movs	r3, #1
ARM GAS  C:\Users\PCHAUT~1\AppData\Local\Temp\cc7zwTNO.s 			page 40


 2224 0080 0BE0     		b	.L158
 2225              	.L155:
 2226              	.LBE19:
 2227              		.loc 1 692 0 discriminator 2
 2228 0082 BDF80830 		ldrh	r3, [sp, #8]
 2229 0086 0133     		adds	r3, r3, #1
 2230 0088 ADF80830 		strh	r3, [sp, #8]	@ movhi
 2231              	.L154:
 2232              		.loc 1 692 0 is_stmt 0 discriminator 1
 2233 008c 019B     		ldr	r3, [sp, #4]
 2234 008e DB8F     		ldrh	r3, [r3, #62]
 2235 0090 BDF80820 		ldrh	r2, [sp, #8]
 2236 0094 9A42     		cmp	r2, r3
 2237 0096 C0D3     		bcc	.L159
 2238              		.loc 1 704 0 is_stmt 1
 2239 0098 0023     		movs	r3, #0
 2240              	.L158:
 2241              		.loc 1 705 0
 2242 009a 1846     		mov	r0, r3
 2243 009c 044B     		ldr	r3, .L161
 2244 009e 039A     		ldr	r2, [sp, #12]
 2245 00a0 1B68     		ldr	r3, [r3]
 2246 00a2 9A42     		cmp	r2, r3
 2247 00a4 01D0     		beq	.L160
 2248 00a6 FFF7FEFF 		bl	__stack_chk_fail
 2249              	.L160:
 2250 00aa 05B0     		add	sp, sp, #20
 2251              		.cfi_def_cfa_offset 4
 2252              		@ sp needed
 2253 00ac 5DF804FB 		ldr	pc, [sp], #4
 2254              	.L162:
 2255              		.align	2
 2256              	.L161:
 2257 00b0 00000000 		.word	__stack_chk_guard
 2258              		.cfi_endproc
 2259              	.LFE12:
 2260              		.size	AsebaVMClearBreakpoint, .-AsebaVMClearBreakpoint
 2261              		.section	.text.AsebaVMClearBreakpoints,"ax",%progbits
 2262              		.align	1
 2263              		.p2align 4,,15
 2264              		.global	AsebaVMClearBreakpoints
 2265              		.syntax unified
 2266              		.thumb
 2267              		.thumb_func
 2268              		.fpu fpv4-sp-d16
 2269              		.type	AsebaVMClearBreakpoints, %function
 2270              	AsebaVMClearBreakpoints:
 2271              	.LFB13:
 2272              		.loc 1 709 0
 2273              		.cfi_startproc
 2274              		@ args = 0, pretend = 0, frame = 16
 2275              		@ frame_needed = 0, uses_anonymous_args = 0
 2276 0000 00B5     		push	{lr}
 2277              		.cfi_def_cfa_offset 4
 2278              		.cfi_offset 14, -4
 2279 0002 85B0     		sub	sp, sp, #20
 2280              		.cfi_def_cfa_offset 24
ARM GAS  C:\Users\PCHAUT~1\AppData\Local\Temp\cc7zwTNO.s 			page 41


 2281 0004 0190     		str	r0, [sp, #4]
 2282              		.loc 1 709 0
 2283 0006 084B     		ldr	r3, .L165
 2284 0008 1B68     		ldr	r3, [r3]
 2285 000a 0393     		str	r3, [sp, #12]
 2286              		.loc 1 710 0
 2287 000c 019B     		ldr	r3, [sp, #4]
 2288 000e 0022     		movs	r2, #0
 2289 0010 DA87     		strh	r2, [r3, #62]	@ movhi
 2290              		.loc 1 711 0
 2291 0012 00BF     		nop
 2292 0014 044B     		ldr	r3, .L165
 2293 0016 039A     		ldr	r2, [sp, #12]
 2294 0018 1B68     		ldr	r3, [r3]
 2295 001a 9A42     		cmp	r2, r3
 2296 001c 01D0     		beq	.L164
 2297 001e FFF7FEFF 		bl	__stack_chk_fail
 2298              	.L164:
 2299 0022 05B0     		add	sp, sp, #20
 2300              		.cfi_def_cfa_offset 4
 2301              		@ sp needed
 2302 0024 5DF804FB 		ldr	pc, [sp], #4
 2303              	.L166:
 2304              		.align	2
 2305              	.L165:
 2306 0028 00000000 		.word	__stack_chk_guard
 2307              		.cfi_endproc
 2308              	.LFE13:
 2309              		.size	AsebaVMClearBreakpoints, .-AsebaVMClearBreakpoints
 2310              		.section	.text.AsebaVMSendExecutionStateChanged,"ax",%progbits
 2311              		.align	1
 2312              		.p2align 4,,15
 2313              		.global	AsebaVMSendExecutionStateChanged
 2314              		.syntax unified
 2315              		.thumb
 2316              		.thumb_func
 2317              		.fpu fpv4-sp-d16
 2318              		.type	AsebaVMSendExecutionStateChanged, %function
 2319              	AsebaVMSendExecutionStateChanged:
 2320              	.LFB14:
 2321              		.loc 1 715 0
 2322              		.cfi_startproc
 2323              		@ args = 0, pretend = 0, frame = 16
 2324              		@ frame_needed = 0, uses_anonymous_args = 0
 2325 0000 00B5     		push	{lr}
 2326              		.cfi_def_cfa_offset 4
 2327              		.cfi_offset 14, -4
 2328 0002 85B0     		sub	sp, sp, #20
 2329              		.cfi_def_cfa_offset 24
 2330 0004 0190     		str	r0, [sp, #4]
 2331              		.loc 1 715 0
 2332 0006 0E4B     		ldr	r3, .L169
 2333 0008 1B68     		ldr	r3, [r3]
 2334 000a 0393     		str	r3, [sp, #12]
 2335              		.loc 1 717 0
 2336 000c 019B     		ldr	r3, [sp, #4]
 2337 000e 5B8B     		ldrh	r3, [r3, #26]
ARM GAS  C:\Users\PCHAUT~1\AppData\Local\Temp\cc7zwTNO.s 			page 42


 2338 0010 ADF80830 		strh	r3, [sp, #8]	@ movhi
 2339              		.loc 1 718 0
 2340 0014 019B     		ldr	r3, [sp, #4]
 2341 0016 1B8B     		ldrh	r3, [r3, #24]
 2342 0018 ADF80A30 		strh	r3, [sp, #10]	@ movhi
 2343              		.loc 1 719 0
 2344 001c 02AA     		add	r2, sp, #8
 2345 001e 0423     		movs	r3, #4
 2346 0020 49F20A01 		movw	r1, #36874
 2347 0024 0198     		ldr	r0, [sp, #4]
 2348 0026 FFF7FEFF 		bl	AsebaSendMessage
 2349              		.loc 1 720 0
 2350 002a 00BF     		nop
 2351 002c 044B     		ldr	r3, .L169
 2352 002e 039A     		ldr	r2, [sp, #12]
 2353 0030 1B68     		ldr	r3, [r3]
 2354 0032 9A42     		cmp	r2, r3
 2355 0034 01D0     		beq	.L168
 2356 0036 FFF7FEFF 		bl	__stack_chk_fail
 2357              	.L168:
 2358 003a 05B0     		add	sp, sp, #20
 2359              		.cfi_def_cfa_offset 4
 2360              		@ sp needed
 2361 003c 5DF804FB 		ldr	pc, [sp], #4
 2362              	.L170:
 2363              		.align	2
 2364              	.L169:
 2365 0040 00000000 		.word	__stack_chk_guard
 2366              		.cfi_endproc
 2367              	.LFE14:
 2368              		.size	AsebaVMSendExecutionStateChanged, .-AsebaVMSendExecutionStateChanged
 2369              		.section	.text.AsebaVMResetWhenFlags,"ax",%progbits
 2370              		.align	1
 2371              		.p2align 4,,15
 2372              		.syntax unified
 2373              		.thumb
 2374              		.thumb_func
 2375              		.fpu fpv4-sp-d16
 2376              		.type	AsebaVMResetWhenFlags, %function
 2377              	AsebaVMResetWhenFlags:
 2378              	.LFB15:
 2379              		.loc 1 724 0
 2380              		.cfi_startproc
 2381              		@ args = 0, pretend = 0, frame = 16
 2382              		@ frame_needed = 0, uses_anonymous_args = 0
 2383 0000 00B5     		push	{lr}
 2384              		.cfi_def_cfa_offset 4
 2385              		.cfi_offset 14, -4
 2386 0002 85B0     		sub	sp, sp, #20
 2387              		.cfi_def_cfa_offset 24
 2388 0004 0190     		str	r0, [sp, #4]
 2389              		.loc 1 724 0
 2390 0006 1E4B     		ldr	r3, .L176
 2391 0008 1B68     		ldr	r3, [r3]
 2392 000a 0393     		str	r3, [sp, #12]
 2393              		.loc 1 726 0
 2394 000c 0023     		movs	r3, #0
ARM GAS  C:\Users\PCHAUT~1\AppData\Local\Temp\cc7zwTNO.s 			page 43


 2395 000e ADF80830 		strh	r3, [sp, #8]	@ movhi
 2396 0012 24E0     		b	.L172
 2397              	.L174:
 2398              	.LBB20:
 2399              		.loc 1 728 0
 2400 0014 019B     		ldr	r3, [sp, #4]
 2401 0016 5A68     		ldr	r2, [r3, #4]
 2402 0018 BDF80830 		ldrh	r3, [sp, #8]
 2403 001c 5B00     		lsls	r3, r3, #1
 2404 001e 1344     		add	r3, r3, r2
 2405 0020 1B88     		ldrh	r3, [r3]	@ movhi
 2406 0022 ADF80A30 		strh	r3, [sp, #10]	@ movhi
 2407              		.loc 1 729 0
 2408 0026 BDF80A30 		ldrh	r3, [sp, #10]
 2409 002a 1B0B     		lsrs	r3, r3, #12
 2410 002c 9BB2     		uxth	r3, r3
 2411 002e 0A2B     		cmp	r3, #10
 2412 0030 10D1     		bne	.L173
 2413              		.loc 1 730 0
 2414 0032 019B     		ldr	r3, [sp, #4]
 2415 0034 5A68     		ldr	r2, [r3, #4]
 2416 0036 BDF80830 		ldrh	r3, [sp, #8]
 2417 003a 5B00     		lsls	r3, r3, #1
 2418 003c 1344     		add	r3, r3, r2
 2419 003e 1A88     		ldrh	r2, [r3]
 2420 0040 019B     		ldr	r3, [sp, #4]
 2421 0042 5968     		ldr	r1, [r3, #4]
 2422 0044 BDF80830 		ldrh	r3, [sp, #8]
 2423 0048 5B00     		lsls	r3, r3, #1
 2424 004a 0B44     		add	r3, r3, r1
 2425 004c 22F40072 		bic	r2, r2, #512
 2426 0050 92B2     		uxth	r2, r2
 2427 0052 1A80     		strh	r2, [r3]	@ movhi
 2428              	.L173:
 2429              	.LBE20:
 2430              		.loc 1 726 0 discriminator 2
 2431 0054 BDF80830 		ldrh	r3, [sp, #8]
 2432 0058 0133     		adds	r3, r3, #1
 2433 005a ADF80830 		strh	r3, [sp, #8]	@ movhi
 2434              	.L172:
 2435              		.loc 1 726 0 is_stmt 0 discriminator 1
 2436 005e 019B     		ldr	r3, [sp, #4]
 2437 0060 5B88     		ldrh	r3, [r3, #2]
 2438 0062 BDF80820 		ldrh	r2, [sp, #8]
 2439 0066 9A42     		cmp	r2, r3
 2440 0068 D4D3     		bcc	.L174
 2441              		.loc 1 732 0 is_stmt 1
 2442 006a 00BF     		nop
 2443 006c 044B     		ldr	r3, .L176
 2444 006e 039A     		ldr	r2, [sp, #12]
 2445 0070 1B68     		ldr	r3, [r3]
 2446 0072 9A42     		cmp	r2, r3
 2447 0074 01D0     		beq	.L175
 2448 0076 FFF7FEFF 		bl	__stack_chk_fail
 2449              	.L175:
 2450 007a 05B0     		add	sp, sp, #20
 2451              		.cfi_def_cfa_offset 4
ARM GAS  C:\Users\PCHAUT~1\AppData\Local\Temp\cc7zwTNO.s 			page 44


 2452              		@ sp needed
 2453 007c 5DF804FB 		ldr	pc, [sp], #4
 2454              	.L177:
 2455              		.align	2
 2456              	.L176:
 2457 0080 00000000 		.word	__stack_chk_guard
 2458              		.cfi_endproc
 2459              	.LFE15:
 2460              		.size	AsebaVMResetWhenFlags, .-AsebaVMResetWhenFlags
 2461              		.section	.text.AsebaVMDebugMessage,"ax",%progbits
 2462              		.align	1
 2463              		.p2align 4,,15
 2464              		.global	AsebaVMDebugMessage
 2465              		.syntax unified
 2466              		.thumb
 2467              		.thumb_func
 2468              		.fpu fpv4-sp-d16
 2469              		.type	AsebaVMDebugMessage, %function
 2470              	AsebaVMDebugMessage:
 2471              	.LFB16:
 2472              		.loc 1 735 0
 2473              		.cfi_startproc
 2474              		@ args = 0, pretend = 0, frame = 48
 2475              		@ frame_needed = 0, uses_anonymous_args = 0
 2476 0000 00B5     		push	{lr}
 2477              		.cfi_def_cfa_offset 4
 2478              		.cfi_offset 14, -4
 2479 0002 8DB0     		sub	sp, sp, #52
 2480              		.cfi_def_cfa_offset 56
 2481 0004 0390     		str	r0, [sp, #12]
 2482 0006 0192     		str	r2, [sp, #4]
 2483 0008 1A46     		mov	r2, r3
 2484 000a 0B46     		mov	r3, r1	@ movhi
 2485 000c ADF80A30 		strh	r3, [sp, #10]	@ movhi
 2486 0010 1346     		mov	r3, r2	@ movhi
 2487 0012 ADF80830 		strh	r3, [sp, #8]	@ movhi
 2488              		.loc 1 735 0
 2489 0016 B14B     		ldr	r3, .L219
 2490 0018 1B68     		ldr	r3, [r3]
 2491 001a 0B93     		str	r3, [sp, #44]
 2492              		.loc 1 737 0
 2493 001c BDF80A30 		ldrh	r3, [sp, #10]
 2494 0020 B3F5204F 		cmp	r3, #40960
 2495 0024 0CD1     		bne	.L179
 2496              	.LBB21:
 2497              		.loc 1 739 0
 2498 0026 019B     		ldr	r3, [sp, #4]
 2499 0028 1B88     		ldrh	r3, [r3]	@ movhi
 2500 002a ADF82630 		strh	r3, [sp, #38]	@ movhi
 2501              		.loc 1 741 0
 2502 002e BDF82630 		ldrh	r3, [sp, #38]
 2503 0032 042B     		cmp	r3, #4
 2504 0034 00F23B81 		bhi	.L212
 2505              		.loc 1 742 0
 2506 0038 0398     		ldr	r0, [sp, #12]
 2507 003a FFF7FEFF 		bl	AsebaSendDescription
 2508              		.loc 1 743 0
ARM GAS  C:\Users\PCHAUT~1\AppData\Local\Temp\cc7zwTNO.s 			page 45


 2509 003e 36E1     		b	.L212
 2510              	.L179:
 2511              	.LBE21:
 2512              		.loc 1 746 0
 2513 0040 BDF80A30 		ldrh	r3, [sp, #10]
 2514 0044 4AF21102 		movw	r2, #40977
 2515 0048 9342     		cmp	r3, r2
 2516 004a 0BD1     		bne	.L182
 2517              	.LBB22:
 2518              		.loc 1 748 0
 2519 004c 0523     		movs	r3, #5
 2520 004e ADF81430 		strh	r3, [sp, #20]	@ movhi
 2521              		.loc 1 749 0
 2522 0052 05AA     		add	r2, sp, #20
 2523 0054 0223     		movs	r3, #2
 2524 0056 49F20C01 		movw	r1, #36876
 2525 005a 0398     		ldr	r0, [sp, #12]
 2526 005c FFF7FEFF 		bl	AsebaSendMessage
 2527              		.loc 1 750 0
 2528 0060 00BF     		nop
 2529 0062 31E1     		b	.L178
 2530              	.L182:
 2531              	.LBE22:
 2532              		.loc 1 754 0
 2533 0064 BDF80830 		ldrh	r3, [sp, #8]
 2534 0068 002B     		cmp	r3, #0
 2535 006a 00F02281 		beq	.L213
 2536              		.loc 1 758 0
 2537 006e 019B     		ldr	r3, [sp, #4]
 2538 0070 1A88     		ldrh	r2, [r3]
 2539 0072 039B     		ldr	r3, [sp, #12]
 2540 0074 1B88     		ldrh	r3, [r3]
 2541 0076 9A42     		cmp	r2, r3
 2542 0078 40F01D81 		bne	.L214
 2543              		.loc 1 761 0
 2544 007c 019B     		ldr	r3, [sp, #4]
 2545 007e 0233     		adds	r3, r3, #2
 2546 0080 0193     		str	r3, [sp, #4]
 2547              		.loc 1 762 0
 2548 0082 BDF80830 		ldrh	r3, [sp, #8]
 2549 0086 013B     		subs	r3, r3, #1
 2550 0088 ADF80830 		strh	r3, [sp, #8]	@ movhi
 2551              		.loc 1 764 0
 2552 008c BDF80A30 		ldrh	r3, [sp, #10]
 2553 0090 A3F52043 		sub	r3, r3, #40960
 2554 0094 013B     		subs	r3, r3, #1
 2555 0096 0F2B     		cmp	r3, #15
 2556 0098 00F20F81 		bhi	.L215
 2557 009c 01A2     		adr	r2, .L187
 2558 009e 52F823F0 		ldr	pc, [r2, r3, lsl #2]
 2559 00a2 00BF     		.p2align 2
 2560              	.L187:
 2561 00a4 E5000000 		.word	.L186+1
 2562 00a8 37010000 		.word	.L188+1
 2563 00ac 69010000 		.word	.L189+1
 2564 00b0 8D010000 		.word	.L190+1
 2565 00b4 A3010000 		.word	.L191+1
ARM GAS  C:\Users\PCHAUT~1\AppData\Local\Temp\cc7zwTNO.s 			page 46


 2566 00b8 BF010000 		.word	.L192+1
 2567 00bc CD010000 		.word	.L193+1
 2568 00c0 D5010000 		.word	.L194+1
 2569 00c4 01020000 		.word	.L195+1
 2570 00c8 0F020000 		.word	.L196+1
 2571 00cc 17020000 		.word	.L197+1
 2572 00d0 39020000 		.word	.L198+1
 2573 00d4 8F020000 		.word	.L199+1
 2574 00d8 97020000 		.word	.L200+1
 2575 00dc 9F020000 		.word	.L201+1
 2576 00e0 A7020000 		.word	.L202+1
 2577              		.p2align 1
 2578              	.L186:
 2579              	.LBB23:
 2580              		.loc 1 768 0
 2581 00e4 019B     		ldr	r3, [sp, #4]
 2582 00e6 1B88     		ldrh	r3, [r3]	@ movhi
 2583 00e8 ADF82230 		strh	r3, [sp, #34]	@ movhi
 2584              		.loc 1 769 0
 2585 00ec BDF80830 		ldrh	r3, [sp, #8]	@ movhi
 2586 00f0 013B     		subs	r3, r3, #1
 2587 00f2 ADF82430 		strh	r3, [sp, #36]	@ movhi
 2588              		.loc 1 775 0
 2589 00f6 0023     		movs	r3, #0
 2590 00f8 ADF81630 		strh	r3, [sp, #22]	@ movhi
 2591 00fc 15E0     		b	.L203
 2592              	.L204:
 2593              		.loc 1 776 0 discriminator 3
 2594 00fe BDF81630 		ldrh	r3, [sp, #22]
 2595 0102 0133     		adds	r3, r3, #1
 2596 0104 5B00     		lsls	r3, r3, #1
 2597 0106 019A     		ldr	r2, [sp, #4]
 2598 0108 1A44     		add	r2, r2, r3
 2599 010a 039B     		ldr	r3, [sp, #12]
 2600 010c 5968     		ldr	r1, [r3, #4]
 2601 010e BDF82200 		ldrh	r0, [sp, #34]
 2602 0112 BDF81630 		ldrh	r3, [sp, #22]
 2603 0116 0344     		add	r3, r3, r0
 2604 0118 5B00     		lsls	r3, r3, #1
 2605 011a 0B44     		add	r3, r3, r1
 2606 011c 1288     		ldrh	r2, [r2]
 2607 011e 1A80     		strh	r2, [r3]	@ movhi
 2608              		.loc 1 775 0 discriminator 3
 2609 0120 BDF81630 		ldrh	r3, [sp, #22]
 2610 0124 0133     		adds	r3, r3, #1
 2611 0126 ADF81630 		strh	r3, [sp, #22]	@ movhi
 2612              	.L203:
 2613              		.loc 1 775 0 is_stmt 0 discriminator 1
 2614 012a BDF81620 		ldrh	r2, [sp, #22]
 2615 012e BDF82430 		ldrh	r3, [sp, #36]
 2616 0132 9A42     		cmp	r2, r3
 2617 0134 E3D3     		bcc	.L204
 2618              	.L188:
 2619              	.LBE23:
 2620              		.loc 1 781 0 is_stmt 1
 2621 0136 039B     		ldr	r3, [sp, #12]
 2622 0138 0222     		movs	r2, #2
ARM GAS  C:\Users\PCHAUT~1\AppData\Local\Temp\cc7zwTNO.s 			page 47


 2623 013a 1A83     		strh	r2, [r3, #24]	@ movhi
 2624              		.loc 1 782 0
 2625 013c 0398     		ldr	r0, [sp, #12]
 2626 013e FFF7FEFF 		bl	AsebaVMResetWhenFlags
 2627              		.loc 1 783 0
 2628 0142 674B     		ldr	r3, .L219+4
 2629 0144 002B     		cmp	r3, #0
 2630 0146 02D0     		beq	.L205
 2631              		.loc 1 784 0
 2632 0148 0398     		ldr	r0, [sp, #12]
 2633 014a FFF7FEFF 		bl	AsebaVMResetCB
 2634              	.L205:
 2635              		.loc 1 786 0
 2636 014e 4FF6FF71 		movw	r1, #65535
 2637 0152 0398     		ldr	r0, [sp, #12]
 2638 0154 FFF7FEFF 		bl	AsebaVMSetupEvent
 2639 0158 0346     		mov	r3, r0
 2640 015a 002B     		cmp	r3, #0
 2641 015c 40F0AF80 		bne	.L216
 2642              		.loc 1 787 0
 2643 0160 0398     		ldr	r0, [sp, #12]
 2644 0162 FFF7FEFF 		bl	AsebaVMSendExecutionStateChanged
 2645              		.loc 1 788 0
 2646 0166 AAE0     		b	.L216
 2647              	.L189:
 2648              		.loc 1 791 0
 2649 0168 039B     		ldr	r3, [sp, #12]
 2650 016a 1B8B     		ldrh	r3, [r3, #24]
 2651 016c 23F00203 		bic	r3, r3, #2
 2652 0170 9AB2     		uxth	r2, r3
 2653 0172 039B     		ldr	r3, [sp, #12]
 2654 0174 1A83     		strh	r2, [r3, #24]	@ movhi
 2655              		.loc 1 792 0
 2656 0176 0398     		ldr	r0, [sp, #12]
 2657 0178 FFF7FEFF 		bl	AsebaVMSendExecutionStateChanged
 2658              		.loc 1 793 0
 2659 017c 594B     		ldr	r3, .L219+8
 2660 017e 002B     		cmp	r3, #0
 2661 0180 00F09F80 		beq	.L217
 2662              		.loc 1 794 0
 2663 0184 0398     		ldr	r0, [sp, #12]
 2664 0186 FFF7FEFF 		bl	AsebaVMRunCB
 2665              		.loc 1 795 0
 2666 018a 9AE0     		b	.L217
 2667              	.L190:
 2668              		.loc 1 798 0
 2669 018c 039B     		ldr	r3, [sp, #12]
 2670 018e 1B8B     		ldrh	r3, [r3, #24]
 2671 0190 43F00203 		orr	r3, r3, #2
 2672 0194 9AB2     		uxth	r2, r3
 2673 0196 039B     		ldr	r3, [sp, #12]
 2674 0198 1A83     		strh	r2, [r3, #24]	@ movhi
 2675              		.loc 1 799 0
 2676 019a 0398     		ldr	r0, [sp, #12]
 2677 019c FFF7FEFF 		bl	AsebaVMSendExecutionStateChanged
 2678              		.loc 1 800 0
 2679 01a0 92E0     		b	.L178
ARM GAS  C:\Users\PCHAUT~1\AppData\Local\Temp\cc7zwTNO.s 			page 48


 2680              	.L191:
 2681              		.loc 1 803 0
 2682 01a2 039B     		ldr	r3, [sp, #12]
 2683 01a4 1B8B     		ldrh	r3, [r3, #24]
 2684 01a6 03F00103 		and	r3, r3, #1
 2685 01aa 002B     		cmp	r3, #0
 2686 01ac 00F08B80 		beq	.L218
 2687              		.loc 1 805 0
 2688 01b0 0398     		ldr	r0, [sp, #12]
 2689 01b2 FFF7FEFF 		bl	AsebaVMStep
 2690              		.loc 1 806 0
 2691 01b6 0398     		ldr	r0, [sp, #12]
 2692 01b8 FFF7FEFF 		bl	AsebaVMSendExecutionStateChanged
 2693              		.loc 1 808 0
 2694 01bc 83E0     		b	.L218
 2695              	.L192:
 2696              		.loc 1 811 0
 2697 01be 039B     		ldr	r3, [sp, #12]
 2698 01c0 0222     		movs	r2, #2
 2699 01c2 1A83     		strh	r2, [r3, #24]	@ movhi
 2700              		.loc 1 812 0
 2701 01c4 0398     		ldr	r0, [sp, #12]
 2702 01c6 FFF7FEFF 		bl	AsebaVMSendExecutionStateChanged
 2703              		.loc 1 813 0
 2704 01ca 7DE0     		b	.L178
 2705              	.L193:
 2706              		.loc 1 816 0
 2707 01cc 0398     		ldr	r0, [sp, #12]
 2708 01ce FFF7FEFF 		bl	AsebaVMSendExecutionStateChanged
 2709              		.loc 1 817 0
 2710 01d2 79E0     		b	.L178
 2711              	.L194:
 2712              	.LBB24:
 2713              		.loc 1 822 0 discriminator 8
 2714 01d4 019B     		ldr	r3, [sp, #4]
 2715 01d6 1B88     		ldrh	r3, [r3]
 2716 01d8 ADF82830 		strh	r3, [sp, #40]	@ movhi
 2717              		.loc 1 823 0 discriminator 8
 2718 01dc BDF82830 		ldrh	r3, [sp, #40]
 2719 01e0 1946     		mov	r1, r3
 2720 01e2 0398     		ldr	r0, [sp, #12]
 2721 01e4 FFF7FEFF 		bl	AsebaVMSetBreakpoint
 2722 01e8 0346     		mov	r3, r0
 2723 01ea 9BB2     		uxth	r3, r3
 2724 01ec ADF82A30 		strh	r3, [sp, #42]	@ movhi
 2725              		.loc 1 824 0 discriminator 8
 2726 01f0 0AAA     		add	r2, sp, #40
 2727 01f2 0423     		movs	r3, #4
 2728 01f4 49F20B01 		movw	r1, #36875
 2729 01f8 0398     		ldr	r0, [sp, #12]
 2730 01fa FFF7FEFF 		bl	AsebaSendMessage
 2731              	.LBE24:
 2732              		.loc 1 826 0 discriminator 8
 2733 01fe 63E0     		b	.L178
 2734              	.L195:
 2735              		.loc 1 829 0
 2736 0200 019B     		ldr	r3, [sp, #4]
ARM GAS  C:\Users\PCHAUT~1\AppData\Local\Temp\cc7zwTNO.s 			page 49


 2737 0202 1B88     		ldrh	r3, [r3]
 2738 0204 1946     		mov	r1, r3
 2739 0206 0398     		ldr	r0, [sp, #12]
 2740 0208 FFF7FEFF 		bl	AsebaVMClearBreakpoint
 2741              		.loc 1 830 0
 2742 020c 5CE0     		b	.L178
 2743              	.L196:
 2744              		.loc 1 833 0
 2745 020e 0398     		ldr	r0, [sp, #12]
 2746 0210 FFF7FEFF 		bl	AsebaVMClearBreakpoints
 2747              		.loc 1 834 0
 2748 0214 58E0     		b	.L178
 2749              	.L197:
 2750              	.LBB25:
 2751              		.loc 1 838 0
 2752 0216 019B     		ldr	r3, [sp, #4]
 2753 0218 1B88     		ldrh	r3, [r3]	@ movhi
 2754 021a ADF81E30 		strh	r3, [sp, #30]	@ movhi
 2755              		.loc 1 839 0
 2756 021e 019B     		ldr	r3, [sp, #4]
 2757 0220 5B88     		ldrh	r3, [r3, #2]	@ movhi
 2758 0222 ADF82030 		strh	r3, [sp, #32]	@ movhi
 2759              		.loc 1 844 0
 2760 0226 BDF82020 		ldrh	r2, [sp, #32]
 2761 022a BDF81E30 		ldrh	r3, [sp, #30]
 2762 022e 1946     		mov	r1, r3
 2763 0230 0398     		ldr	r0, [sp, #12]
 2764 0232 FFF7FEFF 		bl	AsebaSendVariables
 2765              	.LBE25:
 2766              		.loc 1 846 0
 2767 0236 47E0     		b	.L178
 2768              	.L198:
 2769              	.LBB26:
 2770              		.loc 1 850 0
 2771 0238 019B     		ldr	r3, [sp, #4]
 2772 023a 1B88     		ldrh	r3, [r3]	@ movhi
 2773 023c ADF81A30 		strh	r3, [sp, #26]	@ movhi
 2774              		.loc 1 851 0
 2775 0240 BDF80830 		ldrh	r3, [sp, #8]	@ movhi
 2776 0244 013B     		subs	r3, r3, #1
 2777 0246 ADF81C30 		strh	r3, [sp, #28]	@ movhi
 2778              		.loc 1 857 0
 2779 024a 0023     		movs	r3, #0
 2780 024c ADF81830 		strh	r3, [sp, #24]	@ movhi
 2781 0250 16E0     		b	.L209
 2782              	.L210:
 2783              		.loc 1 858 0 discriminator 3
 2784 0252 BDF81830 		ldrh	r3, [sp, #24]
 2785 0256 0133     		adds	r3, r3, #1
 2786 0258 5B00     		lsls	r3, r3, #1
 2787 025a 019A     		ldr	r2, [sp, #4]
 2788 025c 1344     		add	r3, r3, r2
 2789 025e 1888     		ldrh	r0, [r3]
 2790 0260 039B     		ldr	r3, [sp, #12]
 2791 0262 DA68     		ldr	r2, [r3, #12]
 2792 0264 BDF81A10 		ldrh	r1, [sp, #26]
 2793 0268 BDF81830 		ldrh	r3, [sp, #24]
ARM GAS  C:\Users\PCHAUT~1\AppData\Local\Temp\cc7zwTNO.s 			page 50


 2794 026c 0B44     		add	r3, r3, r1
 2795 026e 5B00     		lsls	r3, r3, #1
 2796 0270 1344     		add	r3, r3, r2
 2797 0272 02B2     		sxth	r2, r0
 2798 0274 1A80     		strh	r2, [r3]	@ movhi
 2799              		.loc 1 857 0 discriminator 3
 2800 0276 BDF81830 		ldrh	r3, [sp, #24]
 2801 027a 0133     		adds	r3, r3, #1
 2802 027c ADF81830 		strh	r3, [sp, #24]	@ movhi
 2803              	.L209:
 2804              		.loc 1 857 0 is_stmt 0 discriminator 1
 2805 0280 BDF81820 		ldrh	r2, [sp, #24]
 2806 0284 BDF81C30 		ldrh	r3, [sp, #28]
 2807 0288 9A42     		cmp	r2, r3
 2808 028a E2D3     		bcc	.L210
 2809              	.LBE26:
 2810              		.loc 1 860 0 is_stmt 1
 2811 028c 1CE0     		b	.L178
 2812              	.L199:
 2813              		.loc 1 863 0
 2814 028e 0398     		ldr	r0, [sp, #12]
 2815 0290 FFF7FEFF 		bl	AsebaWriteBytecode
 2816              		.loc 1 864 0
 2817 0294 18E0     		b	.L178
 2818              	.L200:
 2819              		.loc 1 867 0
 2820 0296 0398     		ldr	r0, [sp, #12]
 2821 0298 FFF7FEFF 		bl	AsebaResetIntoBootloader
 2822              		.loc 1 868 0
 2823 029c 14E0     		b	.L178
 2824              	.L201:
 2825              		.loc 1 871 0
 2826 029e 0398     		ldr	r0, [sp, #12]
 2827 02a0 FFF7FEFF 		bl	AsebaPutVmToSleep
 2828              		.loc 1 872 0
 2829 02a4 10E0     		b	.L178
 2830              	.L202:
 2831              		.loc 1 875 0
 2832 02a6 0398     		ldr	r0, [sp, #12]
 2833 02a8 FFF7FEFF 		bl	AsebaSendDescription
 2834              		.loc 1 876 0
 2835 02ac 0CE0     		b	.L178
 2836              	.L212:
 2837              	.LBB27:
 2838              		.loc 1 743 0
 2839 02ae 00BF     		nop
 2840 02b0 0AE0     		b	.L178
 2841              	.L213:
 2842              	.LBE27:
 2843              		.loc 1 755 0
 2844 02b2 00BF     		nop
 2845 02b4 08E0     		b	.L178
 2846              	.L214:
 2847              		.loc 1 759 0
 2848 02b6 00BF     		nop
 2849 02b8 06E0     		b	.L178
 2850              	.L215:
ARM GAS  C:\Users\PCHAUT~1\AppData\Local\Temp\cc7zwTNO.s 			page 51


 2851              		.loc 1 879 0
 2852 02ba 00BF     		nop
 2853 02bc 04E0     		b	.L178
 2854              	.L216:
 2855              		.loc 1 788 0
 2856 02be 00BF     		nop
 2857 02c0 02E0     		b	.L178
 2858              	.L217:
 2859              		.loc 1 795 0
 2860 02c2 00BF     		nop
 2861 02c4 00E0     		b	.L178
 2862              	.L218:
 2863              		.loc 1 808 0
 2864 02c6 00BF     		nop
 2865              	.L178:
 2866              		.loc 1 881 0
 2867 02c8 044B     		ldr	r3, .L219
 2868 02ca 0B9A     		ldr	r2, [sp, #44]
 2869 02cc 1B68     		ldr	r3, [r3]
 2870 02ce 9A42     		cmp	r2, r3
 2871 02d0 01D0     		beq	.L211
 2872 02d2 FFF7FEFF 		bl	__stack_chk_fail
 2873              	.L211:
 2874 02d6 0DB0     		add	sp, sp, #52
 2875              		.cfi_def_cfa_offset 4
 2876              		@ sp needed
 2877 02d8 5DF804FB 		ldr	pc, [sp], #4
 2878              	.L220:
 2879              		.align	2
 2880              	.L219:
 2881 02dc 00000000 		.word	__stack_chk_guard
 2882 02e0 00000000 		.word	AsebaVMResetCB
 2883 02e4 00000000 		.word	AsebaVMRunCB
 2884              		.cfi_endproc
 2885              	.LFE16:
 2886              		.size	AsebaVMDebugMessage, .-AsebaVMDebugMessage
 2887              		.section	.text.AsebaVMShouldDropPacket,"ax",%progbits
 2888              		.align	1
 2889              		.p2align 4,,15
 2890              		.global	AsebaVMShouldDropPacket
 2891              		.syntax unified
 2892              		.thumb
 2893              		.thumb_func
 2894              		.fpu fpv4-sp-d16
 2895              		.type	AsebaVMShouldDropPacket, %function
 2896              	AsebaVMShouldDropPacket:
 2897              	.LFB17:
 2898              		.loc 1 884 0
 2899              		.cfi_startproc
 2900              		@ args = 0, pretend = 0, frame = 24
 2901              		@ frame_needed = 0, uses_anonymous_args = 0
 2902 0000 00B5     		push	{lr}
 2903              		.cfi_def_cfa_offset 4
 2904              		.cfi_offset 14, -4
 2905 0002 87B0     		sub	sp, sp, #28
 2906              		.cfi_def_cfa_offset 32
 2907 0004 0390     		str	r0, [sp, #12]
ARM GAS  C:\Users\PCHAUT~1\AppData\Local\Temp\cc7zwTNO.s 			page 52


 2908 0006 0B46     		mov	r3, r1
 2909 0008 0192     		str	r2, [sp, #4]
 2910 000a ADF80A30 		strh	r3, [sp, #10]	@ movhi
 2911              		.loc 1 884 0
 2912 000e 234B     		ldr	r3, .L228
 2913 0010 1B68     		ldr	r3, [r3]
 2914 0012 0593     		str	r3, [sp, #20]
 2915              		.loc 1 886 0
 2916 0014 019B     		ldr	r3, [sp, #4]
 2917 0016 1B88     		ldrh	r3, [r3]	@ movhi
 2918 0018 ADF81030 		strh	r3, [sp, #16]	@ movhi
 2919              		.loc 1 887 0
 2920 001c BDF91030 		ldrsh	r3, [sp, #16]
 2921 0020 002B     		cmp	r3, #0
 2922 0022 0DDB     		blt	.L222
 2923              		.loc 1 890 0
 2924 0024 BDF81030 		ldrh	r3, [sp, #16]
 2925 0028 1946     		mov	r1, r3
 2926 002a 0398     		ldr	r0, [sp, #12]
 2927 002c FFF7FEFF 		bl	AsebaVMGetEventAddress
 2928 0030 0346     		mov	r3, r0
 2929 0032 002B     		cmp	r3, #0
 2930 0034 0CBF     		ite	eq
 2931 0036 0123     		moveq	r3, #1
 2932 0038 0023     		movne	r3, #0
 2933 003a DBB2     		uxtb	r3, r3
 2934 003c 9BB2     		uxth	r3, r3
 2935 003e 21E0     		b	.L223
 2936              	.L222:
 2937              		.loc 1 892 0
 2938 0040 BDF81030 		ldrh	r3, [sp, #16]
 2939 0044 B3F5204F 		cmp	r3, #40960
 2940 0048 1BD3     		bcc	.L224
 2941              	.LBB28:
 2942              		.loc 1 895 0
 2943 004a 019B     		ldr	r3, [sp, #4]
 2944 004c 5B88     		ldrh	r3, [r3, #2]	@ movhi
 2945 004e ADF81230 		strh	r3, [sp, #18]	@ movhi
 2946              		.loc 1 896 0
 2947 0052 BDF81030 		ldrh	r3, [sp, #16]
 2948 0056 B3F5204F 		cmp	r3, #40960
 2949 005a 05D0     		beq	.L225
 2950              		.loc 1 896 0 is_stmt 0 discriminator 1
 2951 005c BDF81030 		ldrh	r3, [sp, #16]
 2952 0060 4AF21102 		movw	r2, #40977
 2953 0064 9342     		cmp	r3, r2
 2954 0066 01D1     		bne	.L226
 2955              	.L225:
 2956              		.loc 1 898 0 is_stmt 1
 2957 0068 0023     		movs	r3, #0
 2958 006a 0BE0     		b	.L223
 2959              	.L226:
 2960              		.loc 1 901 0
 2961 006c 039B     		ldr	r3, [sp, #12]
 2962 006e 1B88     		ldrh	r3, [r3]
 2963 0070 BDF81220 		ldrh	r2, [sp, #18]
 2964 0074 9A42     		cmp	r2, r3
ARM GAS  C:\Users\PCHAUT~1\AppData\Local\Temp\cc7zwTNO.s 			page 53


 2965 0076 14BF     		ite	ne
 2966 0078 0123     		movne	r3, #1
 2967 007a 0023     		moveq	r3, #0
 2968 007c DBB2     		uxtb	r3, r3
 2969 007e 9BB2     		uxth	r3, r3
 2970 0080 00E0     		b	.L223
 2971              	.L224:
 2972              	.LBE28:
 2973              		.loc 1 903 0
 2974 0082 0123     		movs	r3, #1
 2975              	.L223:
 2976              		.loc 1 904 0
 2977 0084 1846     		mov	r0, r3
 2978 0086 054B     		ldr	r3, .L228
 2979 0088 059A     		ldr	r2, [sp, #20]
 2980 008a 1B68     		ldr	r3, [r3]
 2981 008c 9A42     		cmp	r2, r3
 2982 008e 01D0     		beq	.L227
 2983 0090 FFF7FEFF 		bl	__stack_chk_fail
 2984              	.L227:
 2985 0094 07B0     		add	sp, sp, #28
 2986              		.cfi_def_cfa_offset 4
 2987              		@ sp needed
 2988 0096 5DF804FB 		ldr	pc, [sp], #4
 2989              	.L229:
 2990 009a 00BF     		.align	2
 2991              	.L228:
 2992 009c 00000000 		.word	__stack_chk_guard
 2993              		.cfi_endproc
 2994              	.LFE17:
 2995              		.size	AsebaVMShouldDropPacket, .-AsebaVMShouldDropPacket
 2996              		.weak	AsebaVMRunCB
 2997              		.weak	AsebaVMResetCB
 2998              		.weak	AsebaVMErrorCB
 2999              		.text
 3000              	.Letext0:
 3001              		.file 2 "../lib/e-puck2_main-processor/aseba/vm/../common/consts.h"
 3002              		.file 3 "c:\\users\\pchautems\\documents\\robotiquetp\\eclipse_e-puck2\\tools\\gcc-arm-none-eabi-7
 3003              		.file 4 "c:\\users\\pchautems\\documents\\robotiquetp\\eclipse_e-puck2\\tools\\gcc-arm-none-eabi-7
 3004              		.file 5 "c:\\users\\pchautems\\documents\\robotiquetp\\eclipse_e-puck2\\tools\\gcc-arm-none-eabi-7
 3005              		.file 6 "c:\\users\\pchautems\\documents\\robotiquetp\\eclipse_e-puck2\\tools\\gcc-arm-none-eabi-7
 3006              		.file 7 "c:\\users\\pchautems\\documents\\robotiquetp\\eclipse_e-puck2\\tools\\gcc-arm-none-eabi-7
 3007              		.file 8 "../lib/e-puck2_main-processor/aseba/vm/../common/types.h"
 3008              		.file 9 "../lib/e-puck2_main-processor/aseba/vm/vm.h"